ARM GAS  C:\Users\info\AppData\Local\Temp\ccqIusgX.s 			page 1


   1              		.syntax unified
   2              		.cpu cortex-m3
   3              		.fpu softvfp
   4              		.eabi_attribute 20, 1
   5              		.eabi_attribute 21, 1
   6              		.eabi_attribute 23, 3
   7              		.eabi_attribute 24, 1
   8              		.eabi_attribute 25, 1
   9              		.eabi_attribute 26, 1
  10              		.eabi_attribute 30, 1
  11              		.eabi_attribute 34, 1
  12              		.eabi_attribute 18, 4
  13              		.thumb
  14              		.syntax unified
  15              		.file	"clk_timer.c"
  16              		.text
  17              	.Ltext0:
  18              		.section	.gnu.lto_.profile.792a7d5b,"",%progbits
  19 0000 789C6361 		.ascii	"x\234ca`d`c`\000\222\327\031W0\002\000\005D\001\216"
  19      60646063 
  19      600092D7 
  19      19573002 
  19      00054401 
  20              		.text
  21              		.section	.gnu.lto_.inline.792a7d5b,"",%progbits
  22 0000 789C6361 		.ascii	"x\234ca`d\000\201\327\014\010\300\315\300\300\311\301"
  22      60640081 
  22      D70C08C0 
  22      CDC0C0C9 
  22      C1
  23 0011 C8C0C4F3 		.ascii	"\310\300\304\363 \226\201m\201<\023H\214\021S\210\211"
  23      2096816D 
  23      813C1348 
  23      8C115388 
  23      89
  24 0022 41461B28 		.ascii	"AF\033(d4\247\203\025.\306\314\300\315\016\024\023\230"
  24      6434A783 
  24      152EC6CC 
  24      C0CD0E14 
  24      1398
  25 0034 E0071762 		.ascii	"\340\007\027ba`a\006\0121]\340\207\013\2612\260\263"
  25      61606106 
  25      0A315DE0 
  25      870BB132 
  25      B0B3
  26 0046 0185380E 		.ascii	"\001\2058\016\330\301\205\330\0308@\032\271\2204\262"
  26      D8C185D8 
  26      1838401A 
  26      B99034B2 
  27 0056 33B0B200 		.ascii	"3\260\262\000\205X\026\310\303\20580\2058\031\0163\330"
  27      855816C8 
  27      C3853830 
  27      8538190E 
  27      33D8
  28 0068 02C52A5E 		.ascii	"\002\305*^\354bA8\215\033Fp1\250*\003em\372\3263b\221"
  28      EC624138 
  28      8D1B4670 
ARM GAS  C:\Users\info\AppData\Local\Temp\ccqIusgX.s 			page 2


  28      31A82A03 
  28      656DFAD6 
  29 007f 65000044 		.ascii	"e\000\000Da\030\325"
  29      6118D5
  30              		.text
  31              		.section	.gnu.lto_.jmpfuncs.792a7d5b,"",%progbits
  32 0000 789C45CA 		.ascii	"x\234E\312\307\015\300 \000\300\300#t\030\204\3757\244"
  32      C70DC020 
  32      00C0C023 
  32      741884FD 
  32      37A4
  33 0012 7C62C91F 		.ascii	"|b\311\037\313IpY~\346\361\324\217H\"S\2504\372\035"
  33      CB497059 
  33      7EE6F1D4 
  33      8F482253 
  33      A834FA1D 
  34 0026 C6DB360E 		.ascii	"\306\3336\016e\000o"
  34      65006F
  35              		.text
  36              		.section	.gnu.lto_.pureconst.792a7d5b,"",%progbits
  37 0000 789C05C1 		.ascii	"x\234\005\301\207\015\000 \014\300\260\024\012e\034"
  37      870D0020 
  37      0CC0B014 
  37      0A651C
  38 000f 8094FF0F 		.ascii	"\200\224\377\017\305N\202\007\\\014\233\335t8-\227\333"
  38      C54E8207 
  38      5C0C9BDD 
  38      74382D97 
  38      DB
  39 0020 E3071224 		.ascii	"\343\007\022$\001}"
  39      017D
  40              		.text
  41              		.section	.gnu.lto_clk_timer_Start.792a7d5b,"",%progbits
  42 0000 789C6361 		.ascii	"x\234ca`d\000\201\035@J\025HK\0031#3\003#\323\204s\014"
  42      60640081 
  42      1D404A15 
  42      484B0331 
  42      23330323 
  43 0018 0C8D1C4C 		.ascii	"\014\215\034L\214\214 F\003\007#C=\023c=\343W\246\277"
  43      8C8C2046 
  43      03072343 
  43      3D13633D 
  43      E357A6BF 
  44 002c 4C8C87DA 		.ascii	"L\214\207\332\237\355d\322\\\336\000\004\017\226Ngn"
  44      9FED64D2 
  44      5CDE0004 
  44      0F964E67 
  44      6E
  45 003d 587180B1 		.ascii	"Xq\200\261\225\231\201\341?\023\330$\006\306\345\214"
  45      959981E1 
  45      3F13D824 
  45      06C6E58C 
  46 004d 9A0C4065 		.ascii	"\232\014@e\2176\376\233\312\313\326\002R\246\000\221"
  46      8F36FE9B 
  46      CACBD602 
  46      52A60091 
  47 005d 645CC1C8 		.ascii	"d\\\301\310\006\262n}\320\201\206\377\377\233\033\016"
ARM GAS  C:\Users\info\AppData\Local\Temp\ccqIusgX.s 			page 3


  47      06B26E7D 
  47      D08186FF 
  47      FF9B1B0E 
  48 006d EC655DC9 		.ascii	"\354e]\311\314\301\304\320\312\014\264\022H\260\202"
  48      CCC1C4D0 
  48      CA0CB412 
  48      48B082
  49 007c 083610C1 		.ascii	"\0106\020\301\300\360\001\250\001d\365G&&\020\315\374"
  49      C0F001A8 
  49      0164F547 
  49      262610CD 
  49      FC
  50 008d 8CF1D0AF 		.ascii	"\214\361\320\257\256c\327XAf43\203\2341\255\365\320"
  50      AE63D758 
  50      41663433 
  50      839C31AD 
  50      F5D0
  51 009f 79F62F4C 		.ascii	"y\366/L\255\314L\214 \353\216\316:\265\223\007\302]"
  51      ADCC4C8C 
  51      20EB8ECE 
  51      3AB59307 
  51      C25D
  52 00b1 D4DED8C0 		.ascii	"\324\336\330\300\002\024Z|\363\355\003\276\371\214s"
  52      02145A7C 
  52      F3ED03BE 
  52      F98C73
  53 00c0 1B5B800E 		.ascii	"\033[\200\016df\\\305(\303\270\222Q\006\350\216\325"
  53      64665CC5 
  53      28C3B892 
  53      5106E88E 
  53      D5
  54 00d1 8CF31919 		.ascii	"\214\363\031\031\23616\377`\203\030\307\0141\361\350"
  54      9E3136FF 
  54      608318C7 
  54      0C31F1E8 
  55 00e1 FFEF07F8 		.ascii	"\377\357\007\370AF0221\256\001\252\004Z:\215\021\244"
  55      41463032 
  55      3231AE01 
  55      AA045A3A 
  55      8D11A4
  56 00f4 049F616B 		.ascii	"\004\237ak\201\206\001\215`\000\273\360\3341\250\013"
  56      8186018D 
  56      6000BBF0 
  56      DC31A80B 
  57 0104 59815AA6 		.ascii	"Y\201Z\246\277\233\337\313\013q\322&\250\223\276\334"
  57      BF9BDFCB 
  57      0B71D226 
  57      A893BEDC 
  58 0114 3F76970B 		.ascii	"?v\227\013a\312:\270)\353\321\234\0042\002\303\0158"
  58      61CA3AB8 
  58      29EBD19C 
  58      043202C3 
  58      0D38
  59 0126 756F00BB 		.ascii	"uo\000\273\201\215\341\025c\323\201\253`\027\200\243"
  59      818DE115 
  59      63D381AB 
  59      601780A3 
ARM GAS  C:\Users\info\AppData\Local\Temp\ccqIusgX.s 			page 4


  60 0136 E2033068 		.ascii	"\342\0030h\200\201\007\014Je\367\324\274\324\242\304"
  60      8081070C 
  60      4A65F7D4 
  60      BCD4A2C4 
  61 0146 92D494F8 		.ascii	"\222\324\224\370\340\374\322\242\344\324\230\200\340"
  61      E0FCD2A2 
  61      E4D49880 
  61      E0
  62 0153 7C67D398 		.ascii	"|g\323\230\344\234\354\370\222\314\334\324\"\275d\006"
  62      E49CECF8 
  62      92CCDCD4 
  62      22BD6406 
  63 0163 00E65E9D 		.ascii	"\000\346^\235\223"
  63      93
  64              		.text
  65              		.section	.gnu.lto_clk_timer_Stop.792a7d5b,"",%progbits
  66 0000 789C6361 		.ascii	"x\234ca`d\000\201]@J\025HK\0031#3\003#\323\204s\014"
  66      60640081 
  66      5D404A15 
  66      484B0331 
  66      23330323 
  67 0018 0C8D1C4C 		.ascii	"\014\215\034L\214\214 F\003\007#C=\023c=\343W\246\277"
  67      8C8C2046 
  67      03072343 
  67      3D13633D 
  67      E357A6BF 
  68 002c 4C8C87DA 		.ascii	"L\214\207\332\237\355d\322\\\336\000\004\017\236>6h"
  68      9FED64D2 
  68      5CDE0004 
  68      0F9E3E36 
  68      68
  69 003d 587180B1 		.ascii	"Xq\200\261\225\231\201\341?\023\330$\006\306\345\214"
  69      959981E1 
  69      3F13D824 
  69      06C6E58C 
  70 004d 9A0C4065 		.ascii	"\232\014@e\2176\376\233\312\313\326\002R\246\000\221"
  70      8F36FE9B 
  70      CACBD602 
  70      52A60091 
  71 005d 645CC1C8 		.ascii	"d\\\301\310\006\262n}\320\201\206\377\377\233\033\016"
  71      06B26E7D 
  71      D08186FF 
  71      FF9B1B0E 
  72 006d 6C643BB8 		.ascii	"ld;\270\203\215\203\211\241\225\031h'\220`\005\021l"
  72      838D8389 
  72      A1951968 
  72      27906005 
  72      116C
  73 007f 208281E1 		.ascii	" \202\201\341\003P\007\310\356\217LL \232\371\031\343"
  73      035007C8 
  73      EE8F4C4C 
  73      209AF919 
  73      E3
  74 0090 A15F5DD7 		.ascii	"\241_]\327fF\201\014if\006\271cZ\353\241\363\354_\230"
  74      6646810C 
  74      696606B9 
  74      635AEBA1 
ARM GAS  C:\Users\info\AppData\Local\Temp\ccqIusgX.s 			page 5


  74      F3EC5F98 
  75 00a4 5A999918 		.ascii	"Z\231\231\030A\366\035\235uj'\017\204\273\250\275\261"
  75      41F61D9D 
  75      756A270F 
  75      84BBA8BD 
  75      B1
  76 00b5 810528B4 		.ascii	"\201\005(\264\370\346\333\007|\363\031\3476\266\000"
  76      F8E6DB07 
  76      7CF319E7 
  76      36B600
  77 00c4 5DC8CCB8 		.ascii	"]\310\314\270\212Q\206q%\243\014\320!\253\031\34732"
  77      8A518671 
  77      25A30CD0 
  77      21AB19E7 
  77      3332
  78 00d6 3C636CFE 		.ascii	"<cl\376\303\0061\216\031bb\343\333\266K\034 #\230\031"
  78      C306318E 
  78      196262E3 
  78      DBB64B1C 
  78      20239819 
  79 00ea FF3232AE 		.ascii	"\37722\256\001*\005\332:\215\021\244\006\237ik\201\246"
  79      012A05DA 
  79      3A8D11A4 
  79      069F696B 
  79      81A6
  80 00fc 01CD6000 		.ascii	"\001\315`\000;\361\336\314\010\210\231\254@-\323\337"
  80      3BF1DECC 
  80      088899AC 
  80      402DD3DF 
  81 010c CDEFE585 		.ascii	"\315\357\345\205\270i\023\324M_\356\037\273\313\205"
  81      B86913D4 
  81      4D5FEE1F 
  81      BBCB85
  82 011b 30651DDC 		.ascii	"0e\035\334\224\365hn\002\031\201\341\006\234\2727\200"
  82      94F5686E 
  82      021981E1 
  82      069CBA37 
  82      80
  83 012c DDC0C6F0 		.ascii	"\335\300\306\360\212\261\351\300N7\220jpd|\000\206\015"
  83      8AB1E9C0 
  83      4E37906A 
  83      70647C00 
  83      860D
  84 013e 30F48061 		.ascii	"0\364\200a\251\354\236\232\227Z\224X\222\232\022\037"
  84      A9EC9E9A 
  84      975A9458 
  84      929A121F 
  85 014e 9C5F5A94 		.ascii	"\234_Z\224\234\032\023\020\234\357l\032\223\234\223"
  85      9C1A1310 
  85      9CEF6C1A 
  85      939C93
  86 015d 1D5F9299 		.ascii	"\035_\222\231\233Z\244\227\314\000\000\207p\237\343"
  86      9B5AA497 
  86      CC000087 
  86      709FE3
  87              		.text
  88              		.section	.gnu.lto_clk_timer_StopBlock.792a7d5b,"",%progbits
ARM GAS  C:\Users\info\AppData\Local\Temp\ccqIusgX.s 			page 6


  89 0000 789C8D94 		.ascii	"x\234\215\224\333OTG\034\307\3477s.\273\353n\027\002"
  89      DB4F5447 
  89      1CC7E737 
  89      732EBBEB 
  89      6E1702
  90 0013 0F7D308D 		.ascii	"\017}0\215I\243\211/j\322\372\007\030\215&}2\372\322"
  90      49A3892F 
  90      6AD2FA07 
  90      188D267D 
  90      32FAD2
  91 0026 2636A485 		.ascii	"&6\244\205} Z1\033\353\243\236\275\211!j\305(\030\253"
  91      7D205A31 
  91      1BEBA39E 
  91      BD89216A 
  91      C52818AB 
  92 003a DDA4FBE0 		.ascii	"\335\244\373\340zi\021/(\025\345\210\"\212\210\262A"
  92      7A69112F 
  92      2815E588 
  92      228A88B2 
  92      41
  93 004b 8DB75650 		.ascii	"\215\267VP\0111\322\354V\274\261\305\355o\316o\366p"
  93      0931D2EC 
  93      56BCB1C5 
  93      ED6FCE6F 
  93      F670
  94 005d 69313DC9 		.ascii	"i1=\311\231sf\3467\237\371\316\3572\032\003&\237\225"
  94      997366E6 
  94      379FF9CE 
  94      EF321A03 
  94      269F95
  95 0070 06638BF0 		.ascii	"\006c\213\360[\201/x\030\360]\275\214E<\234\213\376"
  95      5B812F78 
  95      18F05DBD 
  95      8C453C9C 
  95      8BFE
  96 0082 85CCF219 		.ascii	"\205\314\362\031m\2370\313/@\243a\215\233\333\273\030"
  96      6D9F30CB 
  96      2F40A361 
  96      8D9BDBBB 
  96      18
  97 0093 8EEB7113 		.ascii	"\216\353q\023\307M\032_\242\203A\363\006\200\374\261"
  97      C74D1A5F 
  97      A28341F3 
  97      0680FCB1 
  98 00a3 3CC0B670 		.ascii	"<\300\266p\241\231\272\001[\270\306\350y\305\3079t\324"
  98      A199BA01 
  98      5BB8C6E8 
  98      79C5C739 
  98      74D4
  99 00b5 0EB5F2F9 		.ascii	"\016\265\362\371\207,|\036'^.\262\3226$\004c\005N6p"
  99      872C7C1E 
  99      275E2EB2 
  99      D2362404 
  99      63054E36 
 100 00ca 08E63334 		.ascii	"\010\34634\033l~\2777`\304\245\331\034\232\2044\030"
 100      1B6C7EBF 
 100      3760C4A5 
ARM GAS  C:\Users\info\AppData\Local\Temp\ccqIusgX.s 			page 7


 100      D91C9A84 
 100      3418
 101 00dc 281970B2 		.ascii	"(\031p\262\263\360\306\016\216\362\204\000\220\310L"
 101      B3F0C60E 
 101      8EF28400 
 101      90C84C
 102 00eb B6E7E02C 		.ascii	"\266\347\340,\331\345P\202\335\235\317\216\334\365\213"
 102      D9E55082 
 102      DD9DCF8E 
 102      DCF58B
 103 00fa 7920310F 		.ascii	"y 1\017bG\357\006\346\246,+j\331'k\313\367YvtNB\010"
 103      6247EF06 
 103      E6A62C2B 
 103      6AD9276B 
 103      CBF75976 
 104 0112 380A02A1 		.ascii	"8\012\002\241p\004f\303a\230M;\037\203\271M\253l\253"
 104      700466C3 
 104      61984D3B 
 104      1F83B94D 
 104      AB6CAB
 105 0125 508859F6 		.ascii	"P\210Y\366\217\346\305\026\337\307\234%\204\246\311"
 105      8FE6C516 
 105      DFC79C25 
 105      84A6C9
 106 0134 46978D57 		.ascii	"F\227\215W6>\331\370\035\353\240\374-\221M\251l\312"
 106      363ED9F8 
 106      1DEBA0FC 
 106      2D914DA9 
 106      6CCA
 107 0146 64532E1B 		.ascii	"dS.\033\306\262\250\370\322,\226\343\034?b\010:\306"
 107      C6B2A8F8 
 107      D22C96E3 
 107      1C3F6208 
 107      3AC6
 108 0158 EA5E1FF8 		.ascii	"\352^\037\370\\\036!&4\324\325\220\350\270iJ\311\272"
 108      5C1E2126 
 108      34D4D590 
 108      E8B8694A 
 108      C9BA
 109 016a 23B3737F 		.ascii	"#\263s\177w\253\237\272?\327F,i\221\2727\362\370\243"
 109      77AB9FBA 
 109      3FD7462C 
 109      6991BA37 
 109      F2F8A3
 110 017d 241C8CC4 		.ascii	"$\034\214\304\321?\006\374\212J\177\221J\241\011\222"
 110      D13F06FC 
 110      8A4A7F91 
 110      4AA10992 
 111 018d C08620F6 		.ascii	"\300\206 \366\367r\026\023\234p\256C4\340p\034\315\006"
 111      F7721613 
 111      9C70AE43 
 111      34E0701C 
 111      CD06
 112 019f 20FE20F6 		.ascii	" \376 \366-\355']\324\364\242\365]\200\014\0304\253"
 112      2DED275D 
 112      D4F4A2F5 
 112      5D800C18 
ARM GAS  C:\Users\info\AppData\Local\Temp\ccqIusgX.s 			page 8


 112      34AB
 113 01b1 13E7B860 		.ascii	"\023\347\270`qS\252\033\315\216\364\351\323\274.O\350"
 113      7153AA1B 
 113      CD8EF4E9 
 113      D3BC2E4F 
 113      E8
 114 01c2 381DF73C 		.ascii	"8\035\367<\001\006\316\346{3\267=\2442b\221\312\304"
 114      0106CEE6 
 114      7B33B73D 
 114      A4326291 
 114      CAC4
 115 01d4 B1D48180 		.ascii	"\261\324\201\200\2432bY\2371\251\364\244\253\364\024"
 115      A3326259 
 115      9F31A9F4 
 115      A4ABF414 
 116 01e4 2A9D7C56 		.ascii	"*\235|V\014\037\234\306\031\271\341\361W\021Sao<\375"
 116      0C1F9CC6 
 116      19B9E1F1 
 116      57115361 
 116      6F3CFD
 117 01f7 2BA77CB1 		.ascii	"+\247|\261Ka\337\345\337\256\235Jmq\251g\210\332\226"
 117      4B61DFE5 
 117      DFAE9D4A 
 117      6D71A967 
 117      88DA96
 118 020a DC7ED847 		.ascii	"\334~\330GT\016g\0255;A=?\334^\347%\352\036E\355\357"
 118      540E6715 
 118      353B413D 
 118      3FDC5EE7 
 118      25EA1E45 
 119 0220 6F4C79A7 		.ascii	"oLy\247b[]\354o\210-\252\033\253{\377\323\006\311\211"
 119      625B5DEC 
 119      6F882DAA 
 119      1BAB7BFF 
 119      D306C989 
 120 0234 092FAE7B 		.ascii	"\011/\256{\272\273s8@\250m\012\325v=e\007'\242s\316"
 120      BABB7338 
 120      40A86D0A 
 120      D5763D65 
 120      0727A273 
 121 0249 C5B415A3 		.ascii	"\305\264\025\243c\320z\037!\362W\207\332\203\244\266"
 121      63D07A1F 
 121      21F25787 
 121      DA83A4B6 
 122 0259 C0E03C6D 		.ascii	"\300\340<m\323\000J\353\214\264\013HC\006i\352M~IL\377"
 122      D3004AEB 
 122      8CB40B48 
 122      430669EA 
 122      4D7E494C 
 123 026e 64A79A4E 		.ascii	"d\247\232N\002\275\036xhP/\036!\205\031;\237w\017\373"
 123      02BD1E78 
 123      68502F1E 
 123      2185193B 
 123      9F770FFB 
 124 0282 351ED603 		.ascii	"5\036\326\0036r\333\035\356E\251r\020\242\326W\222("
 124      3672DB1D 
 124      EE45A972 
ARM GAS  C:\Users\info\AppData\Local\Temp\ccqIusgX.s 			page 9


 124      10A2D657 
 124      9228
 125 0294 238D5447 		.ascii	"#\215TGR\363x\275P\252\334-\274\316\026g[\354\037<\324"
 125      52F378BD 
 125      50AADC2D 
 125      BCCE1667 
 125      5BEC1F3C 
 126 02a9 8D2A2FB4 		.ascii	"\215*/\264?\271_/\212\272}p\011\371\035\016\377\262"
 126      3FB95F2F 
 126      8ABA7D70 
 126      09F91D0E 
 126      FFB2
 127 02bb A3DB4F31 		.ascii	"\243\333O1\031\357\323\025\361\203\331\322Iq\275\326"
 127      19EFD315 
 127      F183D9D2 
 127      4971BDD6 
 128 02cb DD98F693 		.ascii	"\335\230\366\223\247L\270\342dj\016o\020\274UT\031%"
 128      A74CB8E2 
 128      646A0E6F 
 128      10BC5554 
 128      1925
 129 02dd 57911782 		.ascii	"W\221\027\202S\2000\025\3265\271Ht2>u\271k\253\207j"
 129      53803015 
 129      D635B948 
 129      74323E75 
 129      B96BAB87 
 130 02f2 00E06AB1 		.ascii	"\000\340j\261H6\023Mw\253\"\313M\206w\034\344\270\256"
 130      4836134D 
 130      77AB22CB 
 130      4D86771C 
 130      E4B8AE
 131 0305 AA63ACEE 		.ascii	"\252c\254\356N:Lf%\037\252\314k\323b_J\366\221\221\255"
 131      4E3A4C66 
 131      251FAACC 
 131      6BD3625F 
 131      4AF69191 
 132 031a 190F9D68 		.ascii	"\031\017\235h\034\240{Z\354g\244]w|XJ\261\377=\275\211"
 132      1CA07B5A 
 132      EC67A45D 
 132      777C584A 
 132      B1FF3DBD 
 133 032f 9865B8A4 		.ascii	"\230e\270\244\361\317\344\016\225\217'\324m1\372\307"
 133      F1CFE40E 
 133      958F27D4 
 133      6D31FAC7 
 134 033f 9547BE09 		.ascii	"\225G\276\011J\217K\2711MS9\"\376\245a\306\325\275\216"
 134      4A8F4BB9 
 134      314D5339 
 134      22FEA561 
 134      C6D5BD8E 
 135 0353 86728A63 		.ascii	"\206r\212cW\346\177\305\361\346\244Bj\250\357\341jM"
 135      57E67FC5 
 135      F1E6A442 
 135      6AA8EFE1 
 135      6A4D
 136 0365 3143BDFF 		.ascii	"1C\275\377\221\241N\366\334r\263\247Oe\217\214\274!"
 136      91A14EF6 
ARM GAS  C:\Users\info\AppData\Local\Temp\ccqIusgX.s 			page 10


 136      DC72B3A7 
 136      4F658F8C 
 136      BC21
 137 0377 EFCFE710 		.ascii	"\357\317\347\020\265\317|Aw\221\023!\300Q\274a?]\021"
 137      B5CF7C41 
 137      77911321 
 137      C051BC61 
 137      3F5D11
 138 038a 5A1F0A7F 		.ascii	"Z\037\012\177\2631TU\261\272\346\373peh\315\312\325"
 138      B3315455 
 138      B1BAE6FB 
 138      706568CD 
 138      CAD5
 139 039c 354B17AF 		.ascii	"5K\027\257\251\\\267\266bc\365w\241\360\202J\346\253"
 139      A95CB7B6 
 139      6263F577 
 139      A1F0824A 
 139      E6AB
 140 03ae 5957B5AC 		.ascii	"YW\265\254zSuU(\374\017pF4\251"
 140      7A537555 
 140      28FC0F70 
 140      4634A9
 141              		.text
 142              		.section	.gnu.lto_clk_timer_StandbyPower.792a7d5b,"",%progbits
 143 0000 789C8D51 		.ascii	"x\234\215Q\317KTQ\024>\337\275\367\315<\246\006\377"
 143      CF4B5451 
 143      143EDFBD 
 143      F7CD3CA6 
 143      06FF
 144 0012 81418220 		.ascii	"\201A\202 \221B\213l\333\246E\0137\222[Cd|\213\250\024"
 144      91428B6C 
 144      DBA6450B 
 144      37925B43 
 144      647C8BA8 
 145 0027 A6C9AD77 		.ascii	"\246\311\255w\234\231\004!h\243\256\246Y\211?2'\015"
 145      9C990421 
 145      68A3AEA6 
 145      59893F32 
 145      270D
 146 0039 17828BD7 		.ascii	"\027\202\213\327@-\015\302U \375X\314B*G2\374A\323\353"
 146      402D0DC2 
 146      5520FD58 
 146      CC422A47 
 146      32FC41D3 
 147 004e 9C776D2B 		.ascii	"\234wm+]\270\347\236w\370\276\357|\347<C 9=\212\350"
 147      5DB8E79E 
 147      77F8BEEF 
 147      7CE73C43 
 147      20393D8A 
 148 0063 32BF37F9 		.ascii	"2\2777\371\"AP\317\266\210\012\276Rz\263\235l\312lw"
 148      224150CF 
 148      B6880ABE 
 148      527AB39D 
 148      6CCA6C77 
 149 0077 933DAFE1 		.ascii	"\223=\257\341\271\262\371\227x\200$\326\007\215+m<\214"
 149      B9B2F997 
 149      788024D6 
ARM GAS  C:\Users\info\AppData\Local\Temp\ccqIusgX.s 			page 11


 149      078D2B6D 
 149      3C8C
 150 0089 E3976A29 		.ascii	"\343\227j)\324'\033\033\252s\336\362\371<W\273f\027"
 150      D4271B1B 
 150      AA73DEF2 
 150      F93C57BB 
 150      6617
 151 009b 42943551 		.ascii	"B\2245Q\244\342f\204yt2j\247\262\367\323\350K \316+"
 151      A4E26684 
 151      7974326A 
 151      A7B2F7D3 
 151      E84B20CE 
 152 00b0 E17A5377 		.ascii	"\341zSw\314Y;a\355\354]\253\313\032X\200f\006\256gp"
 152      CC593B61 
 152      EDEC5DAB 
 152      CB1A5880 
 152      6606AE67 
 153 00c5 35435C20 		.ascii	"5C\\ ,\242C\300_W\377L\247\023%\221\277\340D\261\204"
 153      2CA243C0 
 153      5F57FF4C 
 153      A7132591 
 153      BFE044B1 
 154 00da 844C52BB 		.ascii	"\204LR\273\023\332(*\332\260\225z\363\374\\JA(\206\311"
 154      13DA282A 
 154      DAB0957A 
 154      F3FC5C4A 
 154      412886C9 
 155 00ee CA939094 		.ascii	"\312\223\220\224\340K j\362\025\363\373J\311\253\277"
 155      E04B206A 
 155      F215F3FB 
 155      4AC9ABBF 
 156 00fe A0F4B118 		.ascii	"\240\364\261\030M'E\252\250e\212\332\267\215\343\364"
 156      4D2745AA 
 156      A8658ADA 
 156      B78DE3F4 
 157 010e 816234B7 		.ascii	"\201b4\267~\201L\354}_i\332l\327\015\324O\246\266\226"
 157      7E814CEC 
 157      7D5F69DA 
 157      6CD70DD4 
 157      4FA6B696 
 158 0122 C71CDA30 		.ascii	"\307\034\3320z\246\\\177\237\024\264\216\007\232\375"
 158      7AA65C7F 
 158      9F14B48E 
 158      079AFD
 159 0131 517D9A76 		.ascii	"Q}\232v\237k\223\005+\210\203O\357vRUT\012%\336\206"
 159      9F6B9305 
 159      2B88834F 
 159      EF765255 
 159      540A25DE 
 160 0146 C14B64B0 		.ascii	"\301Kd\260,\252XA\025\324@\361w\302\311yN\261\360\375"
 160      2CAA5841 
 160      15D440F1 
 160      77C2C979 
 160      4EB1F0FD 
 161 015a C9075F24 		.ascii	"\311\007_$\014Z@\215\241\334u\006\2029K\355\025\253"
 161      0C5A408D 
 161      A1DC7506 
ARM GAS  C:\Users\info\AppData\Local\Temp\ccqIusgX.s 			page 12


 161      82394BED 
 161      15AB
 162 016c B146ECD5 		.ascii	"\261F\354\325\320v\267\363\272{\305i'\317\242\256\236"
 162      D076B7F3 
 162      BA7BC569 
 162      27CFA2AE 
 162      9E
 163 017d 1A393A35 		.ascii	"\0329:5\342;\374\333\3500ls\213PX\373_\037\257c\037"
 163      E23BFCDB 
 163      E8306C73 
 163      8B5058FB 
 163      5F1FAF63 
 164 0192 7EECC38B 		.ascii	"~\354\303\213W\274\213\211\260\332+\274x\225M\336+\227"
 164      57BC8B89 
 164      B0DA2BBC 
 164      78954DDE 
 164      2B97
 165 01a4 F93F5CBC 		.ascii	"\371?\\\274\035\214\004\271\241|0<\330?\3728\227\015"
 165      1D8C04B9 
 165      A17C303C 
 165      D83FFA38 
 165      970D
 166 01b6 06FAFA47 		.ascii	"\006\372\372Go\335\030\310>\270?\230\277\3670\310ue"
 166      6FDD18C8 
 166      3EB83F98 
 166      BFF730C8 
 166      7565
 167 01c8 C97B9467 		.ascii	"\311{\224g\300_\004\213\313\223"
 167      C05F048B 
 167      CB93
 168              		.text
 169              		.section	.gnu.lto_clk_timer_GetDividerRegister.792a7d5b,"",%progbits
 170 0000 789C6361 		.ascii	"x\234ca`d\000\201\037@\254\012\304\322@\314\310\314"
 170      60640081 
 170      1F40AC0A 
 170      C4D240CC 
 170      C8CC
 171 0012 C0C834E1 		.ascii	"\300\3104\341\034\003C#\007\023##\210\321\300\301\310"
 171      1C034323 
 171      07132323 
 171      88D1C0C1 
 171      C8
 172 0023 50CFC458 		.ascii	"P\317\304X\317\370\225\351/\023\343\321\377\337\017"
 172      CFF895E9 
 172      2F13E3D1 
 172      FFDF0F
 173 0032 F07F616A 		.ascii	"\360\177aj\005)\003r/}83\227\033\304ed\024\000rW-Y\377"
 173      05290372 
 173      2F7D3833 
 173      971BC465 
 173      64140072 
 174 004a 89437379 		.ascii	"\211CsyCCS\303\203\245\333\234\032\233[5Z\231\231\030"
 174      434353C3 
 174      83A5DB9C 
 174      1A9B5B35 
 174      5A999918 
 175 005e FE333130 		.ascii	"\376310\256`\224a\\\316(\003\262b%\243&\003P\361\243"
ARM GAS  C:\Users\info\AppData\Local\Temp\ccqIusgX.s 			page 13


 175      AE609461 
 175      5CCE2803 
 175      B26225A3 
 175      260350F1 
 176 0073 8DFFA6F2 		.ascii	"\215\377\246\362\262\2654\000\201\002H\011Pf\025#\033"
 176      B2B53400 
 176      81024809 
 176      50661523 
 176      1B
 177 0084 C849EB83 		.ascii	"\310I\353\203\0164\374\377\337\334p`\253\360\301\035"
 177      0E34FCFF 
 177      DFDC7060 
 177      ABF0C11D 
 178 0094 C2400340 		.ascii	"\302@\003@\2060|\000b\220\203>21\201h\346g\214\207~"
 178      86307C00 
 178      6290833E 
 178      32318168 
 178      E6678C87 
 179 00a9 75DD3B6B 		.ascii	"u\335;k\001\322\325\314\014r\315\264\326C\347\331A\256"
 179      01D2D5CC 
 179      0C72CDB4 
 179      D643E7D9 
 179      41AE
 180 00bb 61660459 		.ascii	"af\004Y\360\355\341\0356\010\257\245\261\261\201\005"
 180      F0EDE11D 
 180      3608AFA5 
 180      B1B18105 
 181 00cb E4DC03BF 		.ascii	"\344\334\003\277\177s\316g\234\333\330\302\330\312\314"
 181      7F73CE67 
 181      9CDBD8C2 
 181      D8CACC
 182 00da C2B806E8 		.ascii	"\302\270\006\350\246\325 71\256e\234\317\310\360\212"
 182      A6D52037 
 182      31AE659C 
 182      CFC8F08A 
 183 00ea 91096A16 		.ascii	"\221\011j\026(T>01\202\254\001\262\225\335S\363R\213"
 183      28543E30 
 183      3182AC01 
 183      B295DD53 
 183      F3528B
 184 00fd 124B5253 		.ascii	"\022KRS\342\203\363K\213\222Sc\002\202\363\235Mc\222"
 184      E283F34B 
 184      8B925363 
 184      0282F39D 
 184      4D6392
 185 0110 73B2E34B 		.ascii	"s\262\343K2sS\213\364\222\031\000\327\006fm"
 185      3273538B 
 185      F4921900 
 185      D706666D 
 186              		.text
 187              		.section	.gnu.lto_clk_timer_SetModeRegister.792a7d5b,"",%progbits
 188 0000 789C7D51 		.ascii	"x\234}Q\317K[A\020\236o\367\345\275\230R\274y\351;\010"
 188      CF4B5B41 
 188      109E6FF7 
 188      E5BD9852 
 188      BC79E93B 
 189 0015 42C54BB1 		.ascii	"B\305K\261-\375\007\364\320\223 \015x\212\006\211\357"
ARM GAS  C:\Users\info\AppData\Local\Temp\ccqIusgX.s 			page 14


 189      2DFD07F4 
 189      D093200D 
 189      788A0689 
 189      EF
 190 0026 20A906D2 		.ascii	" \251\006\322\010\336\334\274\344U\364\344%\271\024"
 190      08DEDCBC 
 190      E455F4E4 
 190      25B914
 191 0035 F154FCAD 		.ascii	"\361T\374\255\010\275\210\240\317w\026K{k\251 mI\241"
 191      08BD88A0 
 191      CF77164B 
 191      7B6BA920 
 191      6D49A1
 192 0048 A7546C95 		.ascii	"\247Tl\225\2226\316$=x\352\302\316\3147\373\315\267"
 192      9236CE24 
 192      3D78EAC2 
 192      CECC37FB 
 192      CDB7
 193 005a 33BB1681 		.ascii	"3\273\026\201d\205\354\036\262\277\307\033\232\240\226"
 193      6485EC1E 
 193      B2BFC71B 
 193      9AA096
 194 0069 4E898A71 		.ascii	"N\211\212q\005H`\342\2409\2059\374T\177\024\242\371"
 194      054860E2 
 194      A0398539 
 194      FC547F14 
 194      A2F9
 195 007b DABEEA5B 		.ascii	"\332\276\352[5\274\316\203o\217\314Z\210@\0235UK\211"
 195      35BCCE83 
 195      6F8FCC5A 
 195      88401335 
 195      554B89
 196 008e B08A3E66 		.ascii	"\260\212>f\371\257\256\276X\372>\210\343\306\311\331"
 196      F9AFAEBE 
 196      58FA3E88 
 196      E3C6C9D9 
 197 009e A744EF6B 		.ascii	"\247D\357kc|c\226G\215\0164\260\006\315\025x\354\242"
 197      637C6396 
 197      478D0E34 
 197      B006CD15 
 197      78ECA2
 198 00b1 DF254E10 		.ascii	"\337%N\020\326\321+\344\317{\177+w\355\262\310w\267"
 198      D6D12BE4 
 198      CF7B7F2B 
 198      77EDB2C8 
 198      77B7
 199 00c3 45B1015B 		.ascii	"E\261\001[\332\334}\026\232f\263d\302\203\256\343\303"
 199      DADC7D16 
 199      9A66B364 
 199      C283AEE3 
 199      C3
 200 00d4 AE84E232 		.ascii	"\256\204\3422\245\331h\013R\034\223\320\026\343\210"
 200      A5D9680B 
 200      521C93D0 
 200      16E388
 201 00e3 89CB3151 		.ascii	"\211\3131Q\235\267\314\360C)\361\272\206\350\367\342"
 201      9DB7CCF0 
ARM GAS  C:\Users\info\AppData\Local\Temp\ccqIusgX.s 			page 15


 201      4329F1BA 
 201      86E8F7E2 
 202 00f3 AF0F6322 		.ascii	"\257\017c\"Z\3222O5\210\336:\227*`\031\271\377c}\241"
 202      5AD2324F 
 202      3588DE3A 
 202      972A6019 
 202      B9FF637D 
 203 0108 D2D1862F 		.ascii	"\322\321\206/\213Ecq*0\357\276Z+X.\226y\322\030\266"
 203      8B456371 
 203      2A30EFBE 
 203      5A2B582E 
 203      9679D218 
 204 011d E062132E 		.ascii	"\340b\023.7\266\215\025P\015\376\205\323\226\323\254"
 204      37B68D15 
 204      500DFE85 
 204      D396D3AC 
 205 012d 781BC74A 		.ascii	"x\033\307J\332b\\j\330m,)\321{_y\323)Wh\314b\207\225"
 205      DA625C6A 
 205      D86D2C29 
 205      D17B5F79 
 205      D3295768 
 206 0145 9872FD8F 		.ascii	"\230r\375\217\342\264T\354\333*q\3162\216\252\020\374"
 206      E2B454EC 
 206      DB2A71CE 
 206      328EAA10 
 206      FC
 207 0156 BF7E76B9 		.ascii	"\277~v\271\037\346\323w\370\341\321\210\260[_RW\220"
 207      1FE6D377 
 207      F8E1D188 
 207      B05B5F52 
 207      5790
 208 0168 D9F9257A 		.ascii	"\331\371%z\236z\323^~\274\340M\244\223\271\231|\306"
 208      9E7AD35E 
 208      7EBCE04D 
 208      A493B999 
 208      7CC6
 209 017a 4B0D2773 		.ascii	"K\015's\203OR\231\347\331tar\312\313?\310\320\235\251"
 209      834F5299 
 209      E7D97461 
 209      72CACB3F 
 209      C8D09DA9 
 210 018e DC843730 		.ascii	"\334\20470Y\030\032\177\221\275\001\254\242\235*"
 210      59181A7F 
 210      91BD01AC 
 210      A29D2A
 211              		.text
 212              		.section	.gnu.lto_clk_timer_ClearModeRegister.792a7d5b,"",%progbits
 213 0000 789C7D50 		.ascii	"x\234}P=/DA\024\275g\346Y\213\250\267\260\205DB4\342"
 213      3D2F4441 
 213      14BD67E6 
 213      598BA8B7 
 213      B0854442 
 214 0016 23FE0085 		.ascii	"#\376\000\205J\"\024\032ld\275B|l\262Vm\366\343\255"
 214      4A22141A 
 214      6C64BD42 
 214      7C6CB256 
 214      6DF6E3AD 
ARM GAS  C:\Users\info\AppData\Local\Temp\ccqIusgX.s 			page 16


 215 002a 50692888 		.ascii	"Pi(\210\250\304\372\216R\367\274Z\210\204F\020\361\261"
 215      A8C4FA8E 
 215      52F7BC5A 
 215      88844610 
 215      F1B1
 216 003c 856A2564 		.ascii	"\205j%dE\226u\357\276\336$3\367\316\3119g\316\035\213"
 216      459675EF 
 216      BEDE2433 
 216      F7CEC939 
 216      67CE1D8B 
 217 0050 40B2D6B9 		.ascii	"@\262\326\271tpm\340\015MP+\027D\311\240\002\2441A\320"
 217      74706DE0 
 217      0D4D502B 
 217      1744C9A0 
 217      02A43141 
 218 0065 82C2023E 		.ascii	"\202\302\002>\325\217\202\267\230?U\255;\206\327\343"
 218      D58F82B7 
 218      983F55AD 
 218      3B86D7E3 
 219 0075 6BB1D3E4 		.ascii	"k\261\323\344\\8\232\250\254*N\204\035\2642+\265Q|\266"
 219      5C389AA8 
 219      AC2A4E84 
 219      1DB4322B 
 219      B5517CB6 
 220 0089 743388FB 		.ascii	"t3\210\373\322\371\375]m\313\2661)cNF\215v4\220\203"
 220      D2F9FD5D 
 220      6DCBB631 
 220      29634E46 
 220      8D763490 
 221 009e 6605BAC2 		.ascii	"f\005\272\302h\017\023\003\204]\264\010\371\351\344"
 221      680F1303 
 221      845DB408 
 221      F9E9E4
 222 00ad 77B53E90 		.ascii	"w\265>\220\021\373F\337\024{\010H\314\343A\327\224\313"
 222      11FB46DF 
 222      147B0848 
 222      CCE341D7 
 222      94CB
 223 00bf 69E35E85 		.ascii	"i\343^\205\316\256CA\3052\305N\254\263\244\255\222#"
 223      CEAE4341 
 223      C532C54E 
 223      ACB3A4AD 
 223      9223
 224 00d1 20075181 		.ascii	" \007Q\201\267$\177WJ\252\316\303\373^\276x\030\023"
 224      B7247F57 
 224      4AAACEC3 
 224      FB5EBE78 
 224      1813
 225 00e3 ABB49629 		.ascii	"\253\264\226)\326\034\357\262\372C9ZW\"\336\026\226"
 225      D61CEFB2 
 225      FA43395A 
 225      5722DE16 
 225      96
 226 00f4 566BFC6B 		.ascii	"Vk\374k6\2314\026C\216\271z\261\266\260\231\314\360"
 226      36993416 
 226      438EB97A 
 226      B1B6B099 
ARM GAS  C:\Users\info\AppData\Local\Temp\ccqIusgX.s 			page 17


 226      CCF0
 227 0106 7C160E10 		.ascii	"|\026\016\020\306>\302\034\347\020[\240<R\277\331k\355"
 227      C63EC21C 
 227      E7105BA0 
 227      3C52BFD9 
 227      6BED
 228 0118 1B5A69AD 		.ascii	"\033Zi\255\031I\177eK\312G\252\030d\217\217e\247\250"
 228      19497F65 
 228      4BCA47AA 
 228      18648F8F 
 228      65A7A8
 229 012b C556A11A 		.ascii	"\305V\241\032G\254fR)\340S$\010\023\031\362\326 \320"
 229      47AC6652 
 229      29E05324 
 229      081319F2 
 229      D620D0
 230 013e 7F6F1EF3 		.ascii	"\177o\036\363\233,\2417\244\334\233aaW>\273\240 \363"
 230      9B2CA137 
 230      A4DC9B61 
 230      61573EBB 
 230      A020F3
 231 0151 F1B44D7D 		.ascii	"\361\264M}\366\254\035\037O\330\023\221\241\330|<j\217"
 231      F6AC1D1F 
 231      4FD81391 
 231      A1D87C3C 
 231      6A8F
 232 0163 0C0CC57A 		.ascii	"\014\014\305z\273G\242\323S\221\304\344\214\035o\213"
 232      BB47A2D3 
 232      5391C4E4 
 232      8C1D6F8B 
 233 0173 52DD4C6C 		.ascii	"R\335Ll\302\356\231L\364\217\317M\375\001\303\304\226"
 233      C2EE994C 
 233      F48FCF4D 
 233      FD01C3C4 
 233      96
 234 0184 DC       		.ascii	"\334"
 235              		.text
 236              		.section	.gnu.lto_clk_timer_GetModeRegister.792a7d5b,"",%progbits
 237 0000 789C6361 		.ascii	"x\234ca`d\000\001& \245\012\244\245\201\230\221\231"
 237      60640001 
 237      2620A50A 
 237      A4A58198 
 237      9199
 238 0012 819169C2 		.ascii	"\201\221i\3029\006\206F\016&FF\020\243\201\203\221\241"
 238      39068646 
 238      0E264646 
 238      10A38183 
 238      91A1
 239 0024 9E89B19E 		.ascii	"\236\211\261\236\361+\323_&\306\323\337O\364pi.ohhj"
 239      F12BD35F 
 239      26C6D3DF 
 239      4FF47069 
 239      2E6F6868 
 240 0039 78D0BAD8 		.ascii	"x\320\272\330z\372\212\003\214\255\314\014\014\377\231"
 240      7AFA8A03 
 240      8CADCC0C 
 240      0CFF99
ARM GAS  C:\Users\info\AppData\Local\Temp\ccqIusgX.s 			page 18


 241 0048 18188D65 		.ascii	"\030\030\215e\030\015d@F,g\324d\000*}\264\361\337T^"
 241      180D6440 
 241      462C67D4 
 241      64002A7D 
 241      B4F1DF54 
 242 005d B6960620 		.ascii	"\266\226\006 P\000)\000\312\254`d\003Y\271>\350@\303"
 242      50002900 
 242      CAAC6064 
 242      0359B93E 
 242      E840C3
 243 0070 FFFFCD0D 		.ascii	"\377\377\315\015\007fK\035\234'\305\302\304\320\312"
 243      07664B1D 
 243      9C27C5C2 
 243      C4D0CA
 244 007f 0CB41764 		.ascii	"\014\264\027d\016\303\007\240:\220\255\037\231\230@"
 244      0EC307A0 
 244      3A90AD1F 
 244      999840
 245 008e 34F333C6 		.ascii	"4\3633\306C\277\272\276\275\260\000imf\006\271`Z\353"
 245      43BFBABE 
 245      BDB00069 
 245      6D6606B9 
 245      605AEB
 246 00a1 A1F3EC5F 		.ascii	"\241\363\354_\230Z\231\201\316\006ro}\350\234\312\011"
 246      985A9981 
 246      CE06726F 
 246      7DE89CCA 
 246      09
 247 00b2 E1B63536 		.ascii	"\341\266566\260\000\205Z\033.>a\231\3178\267\261\005"
 247      36B00085 
 247      5A1B2E3E 
 247      6199CF38 
 247      B7B105
 248 00c5 E83666C6 		.ascii	"\3506f\306U\2142\214+\031\201.c\\\3158\237\221\341\031"
 248      558C328C 
 248      2B19812E 
 248      635CCD38 
 248      9F91E119 
 249 00d9 63F31F36 		.ascii	"c\363\0376\210q\314\020\023'\254\270|\214\003d\004\003"
 249      8871CC10 
 249      1327ACB8 
 249      7C8C0364 
 249      0403
 250 00eb E30F46C6 		.ascii	"\343\017F\3065@\245\257\030\231\240*\030\300nb\004\271"
 250      3540A5AF 
 250      1899A02A 
 250      18C06E62 
 250      04B9
 251 00fd 05E83265 		.ascii	"\005\3502e\367\324\274\324\242\304\222\324\224\370\340"
 251      F7D4BCD4 
 251      A2C492D4 
 251      94F8E0
 252 010c FCD2A2E4 		.ascii	"\374\322\242\344\324\230\200\340|g\323\230\344\234\354"
 252      D49880E0 
 252      7C67D398 
 252      E49CEC
 253 011b F892CCDC 		.ascii	"\370\222\314\334\324\"\275d\006\000V\227d,"
ARM GAS  C:\Users\info\AppData\Local\Temp\ccqIusgX.s 			page 19


 253      D422BD64 
 253      06005697 
 253      642C
 254              		.text
 255              		.section	.gnu.lto_clk_timer_GetSourceRegister.792a7d5b,"",%progbits
 256 0000 789C6361 		.ascii	"x\234ca`d\000\001F \245\012\244\245Alf\006F\246\011"
 256      60640001 
 256      4620A50A 
 256      A4A5416C 
 256      660646A6 
 257 0015 E718181A 		.ascii	"\347\030\030\0329\230\030\031A\214\006\016F\206z&\306"
 257      39981819 
 257      418C060E 
 257      46867A26 
 257      C6
 258 0026 7AC6AF4C 		.ascii	"z\306\257L\177\231\030O\177?\321\303\245\271\274\241"
 258      7F99184F 
 258      7F3FD1C3 
 258      A5B9BCA1 
 259 0036 A1A9E141 		.ascii	"\241\251\341A\353+\353\351+\0160\266230\374gb`4\226"
 259      EB2BEBE9 
 259      2B0E30B6 
 259      323330FC 
 259      67626034 
 260 004b 61349001 		.ascii	"a4\220\001\031\261\234Q\223\001\250\364\321\306\177"
 260      19B19C51 
 260      9301A8F4 
 260      D1C67F
 261 005a 5379D95A 		.ascii	"Sy\331Z\032\200@\001\244\000(\263\202\221\015d\345\372"
 261      1A804001 
 261      A40028B3 
 261      82910D64 
 261      E5FA
 262 006c A0030DFF 		.ascii	"\240\003\015\377\37777\034\270,w\360\232\034\013\023"
 262      FF37371C 
 262      B82C77F0 
 262      9A1C0B13 
 263 007c 432B33D0 		.ascii	"C+3\320^\2209\014\037\200\352@\266~db\002\321\314\317"
 263      5E90390C 
 263      1F80EA40 
 263      B67E6462 
 263      02D1CCCF 
 264 0090 180FFDEA 		.ascii	"\030\017\375\352\272\366\313\002\244\265\231\031\344"
 264      BAF6CB02 
 264      A4B59919 
 264      E4
 265 009d 8269AD87 		.ascii	"\202i\255\207\316\263\177ajefb\004\331r\353C\347TN\010"
 265      CEB37F61 
 265      6A656662 
 265      04D972EB 
 265      43E7544E 
 266 00b2 B7ADB1B1 		.ascii	"\267\255\261\261\201\005(\324\332p\361\011\313|\306"
 266      810528D4 
 266      DA70F109 
 266      CB7CC6
 267 00c1 B98D2D40 		.ascii	"\271\215-@\26713\256b\224a\\\311\010t\031\343j\306\371"
 267      B73133AE 
ARM GAS  C:\Users\info\AppData\Local\Temp\ccqIusgX.s 			page 20


 267      6294615C 
 267      C9087419 
 267      E36AC6F9 
 268 00d5 8C0CCF18 		.ascii	"\214\014\317\030\233\377\260A\214c\206\230x\362\324"
 268      9BFFB041 
 268      8C638698 
 268      78F2D4
 269 00e4 F4153C20 		.ascii	"\364\025< #\030\030\331\031\327\000U\276bd\202*`\000"
 269      231818D9 
 269      19D70055 
 269      BE626482 
 269      2A6000
 270 00f7 3B8911E4 		.ascii	";\211\021\344\024\240\303\224\335S\363R\213\022KRS\342"
 270      14A0C394 
 270      DD53F352 
 270      8B124B52 
 270      53E2
 271 0109 83F34B8B 		.ascii	"\203\363K\213\222Sc\002\202\363\235Mc\222s\262\343K"
 271      92536302 
 271      82F39D4D 
 271      639273B2 
 271      E34B
 272 011b 3273538B 		.ascii	"2sS\213\364\222\031\000llc\357"
 272      F4921900 
 272      6C6C63EF 
 273              		.text
 274              		.section	.gnu.lto_clk_timer_SetDividerRegister.792a7d5b,"",%progbits
 275 0000 789C8D56 		.ascii	"x\234\215V[LTW\024=\373\236y\334\231\2713\003\303\323"
 275      5B4C5457 
 275      143DFB9E 
 275      79DC99B9 
 275      3303C3D3 
 276 0014 38896803 		.ascii	"8\211h\003\250\321\266\246\361\3036mbj\332\237~4\322"
 276      A8D1B6A6 
 276      F1C3366D 
 276      626ADA9F 
 276      7E34D2
 277 0027 F4A3B535 		.ascii	"\364\243\2655\024\346\303h5\231b?\372\303\035\006\020"
 277      14E6C368 
 277      3599623F 
 277      FAC31D06 
 277      10
 278 0038 A9B53E10 		.ascii	"\251\265>\020,\201\322\210\326\007\266<|\201\017\030"
 278      2C81D288 
 278      D607B63C 
 278      7C810F18 
 279 0048 A98820A2 		.ascii	"\251\210 \242\242\210\202EAD4J\031KE@\245\3475\017\260"
 279      A2888245 
 279      4144344A 
 279      194B4540 
 279      A5E7350F 
 280 005d 4CBD097B 		.ascii	"L\275\011{\356>g\257u\366Y{\237\303\325 @\364\3513!"
 280      EE3E67AF 
 280      75F6597B 
 280      9FC3D520 
 280      40F4E933 
 281 0072 94447E97 		.ascii	"\224D~\227\020\027b\021H[Z\021r\311\222\204\233\336"
ARM GAS  C:\Users\info\AppData\Local\Temp\ccqIusgX.s 			page 21


 281      10176211 
 281      485B5A11 
 281      72C99284 
 281      9BDE
 282 0084 43AA31AA 		.ascii	"C\2521\252\321\212T\005K\232\234D\342\031\250U4\222"
 282      D18A5405 
 282      4B9A9C44 
 282      E219A855 
 282      3492
 283 0096 8E795AE6 		.ascii	"\216yZ\346i\205\307\347t\222\236y2\363\364\020\305\351"
 283      6985C7E7 
 283      74929E79 
 283      32F3F410 
 283      C5E9
 284 00a8 64DF8B41 		.ascii	"d\337\213A2\262y+\2337J\012\363L\3143\011\217\317)`"
 284      32B2792B 
 284      9B374A0A 
 284      F34CCC33 
 284      098FCF29 
 285 00bd E610B314 		.ascii	"\346\020\263\024\263\251\021\221qK\246\236\214\307\360"
 285      B3A91191 
 285      714BA69E 
 285      8CC7F0
 286 00cc F1A516B0 		.ascii	"\361\245\026\260\362y\253\024\306`\221\014\026&\331"
 286      F279AB14 
 286      C660910C 
 286      1626D9
 287 00db 9817CEBC 		.ascii	"\230\027\316\274p\260\361 \033D\360\227\010)\232\263"
 287      70B0F120 
 287      1B44F097 
 287      08299AB3 
 288 00eb 4531B668 		.ascii	"E1\266h>\2764\322\227`\024\000}Qe@\351\022\326huz\331"
 288      3EBE34D2 
 288      97601400 
 288      7D516540 
 288      E912D668 
 289 0102 603429E6 		.ascii	"`4)\346\030\2135,\334\026\021\035\031\005\351\330\214"
 289      188B352C 
 289      DC16111D 
 289      1905E9D8 
 289      8C
 290 0113 F813217E 		.ascii	"\370\023!~\377\221\236KP\277\241\277F\232\267W%\317"
 290      FF919E4B 
 290      50BFA1BF 
 290      469AB757 
 290      25CF
 291 0125 ED3DBD8B 		.ascii	"\355=\275\213\324}\036\310\302\010MH<\006\366\302<\022"
 291      D47D1EC8 
 291      C2084D48 
 291      3C06F6C2 
 291      3C12
 292 0137 D53031E2 		.ascii	"\32501\342\261\016KY\030\200\202\332\206Z\212M\324\225"
 292      B10E4B59 
 292      188082DA 
 292      865A8A4D 
 292      D495
 293 0149 208CB8D9 		.ascii	" \214\270\331\217;\372\024\234\000\210\274\227U\324"
ARM GAS  C:\Users\info\AppData\Local\Temp\ccqIusgX.s 			page 22


 293      8F3BFA14 
 293      9C0088BC 
 293      9755D4
 294 0158 E55A13F7 		.ascii	"\345Z\023\367\250j\206\252\036IV\265Y\030\303\001\300"
 294      A86A86AA 
 294      1E4956B5 
 294      5918C301 
 294      C0
 295 0169 840FF683 		.ascii	"\204\017\366\203\035\366\201\035\221!\004e\220H\242"
 295      1DF6811D 
 295      91210465 
 295      9048A2
 296 0178 0F3CC97D 		.ascii	"\017<\311}f\304\213\030\362\207\376\236|\223@\216~\241"
 296      66C48B18 
 296      F287FE9E 
 296      7C93408E 
 296      7EA1
 297 018a E22CAC81 		.ascii	"\342,\254\201\203\034\371\226\035\336\2448\015\202\337"
 297      831CF996 
 297      1DDEA438 
 297      0D82DF
 298 0199 2091066F 		.ascii	" \221\006o\276{\240C\301K\030\260\313]\326a\216/\245"
 298      BE7BA043 
 298      C14B18B0 
 298      CB5DD661 
 298      8E2FA5
 299 01ac 404FC966 		.ascii	"@O\311f\313N\325\223\021G\227\375}\362\262\364!\321"
 299      CB4ED593 
 299      114797FD 
 299      7DF2B2F4 
 299      21D1
 300 01be 95D555BB 		.ascii	"\225\325U\273\015x\031Cv\024U\336W\004\262\270\325\\"
 300      0D781943 
 300      761455DE 
 300      5704B2B8 
 300      D55C
 301 01d0 A07A5C71 		.ascii	"\240z\\qt\331\212\340e\005\356z\263k\233\006\177\304"
 301      74D98AE0 
 301      6505EE7A 
 301      B36B9B06 
 301      7FC4
 302 01e2 70372E6D 		.ascii	"p7.m\375\313*p;[Mj\205*SX\325\177\300z+_\3540\3532\251"
 302      FDCB2A70 
 302      3B5B4D6A 
 302      852A5358 
 302      D57FC07A 
 303 01fd BE717008 		.ascii	"\276qp\010\342\241\222\374\225C<W\030\016\203\216\264"
 303      E2A192FC 
 303      95433C57 
 303      180E838E 
 303      B4
 304 020e 300E9E29 		.ascii	"0\016\236)_\356Q'&\334\252\247\300r\272\333\366\006"
 304      5FEE5127 
 304      26DCAAA7 
 304      C072BADB 
 304      F606
 305 0220 907D6B75 		.ascii	"\220}ku\210\316\312\210\316\033\200\212g$\303:\0235"
ARM GAS  C:\Users\info\AppData\Local\Temp\ccqIusgX.s 			page 23


 305      88CECA88 
 305      CE1B808A 
 305      6724C33A 
 305      1335
 306 0232 0AA26833 		.ascii	"\012\242h3}\265Pc\243&\202\232XjfP3\223\032\252\240"
 306      7DB55063 
 306      A326829A 
 306      586A6650 
 306      33931AAA 
 307 0247 6E163571 		.ascii	"n\0265q\324\314\246f\0165\361\324$P3\027\250\300\363"
 307      D4CCA666 
 307      0E35F1D4 
 307      24503317 
 307      A8C0F3
 308 025a E9EB026A 		.ascii	"\351\353\002j\026R\203\320\020\311u\223\035y%\211\374"
 308      165283D0 
 308      10C97593 
 308      1D792589 
 308      FC
 309 026b E0017053 		.ascii	"\340\001pS\265h\356n\254#{\254\251y\330\245O\177\256"
 309      B568EE6E 
 309      AC237BAC 
 309      A979D8A5 
 309      4F7FAE
 310 027e E6A86A58 		.ascii	"\346\250jX\026\326OH\364T\036\201t\002\226Q/Hl\227$"
 310      16D64F48 
 310      F4541E81 
 310      74029651 
 310      2F486C97 
 311 0293 7F128D28 		.ascii	"\177\022\215(\230\024\211\203\345\227\300\206\011\262"
 311      98148983 
 311      E597C086 
 311      09B2
 312 02a1 0682A30C 		.ascii	"\006\202\243\014l\364\203\313)XF=\220\331\345\276W\024"
 312      6CF483CB 
 312      2958463D 
 312      90D9E5BE 
 312      5714
 313 02b3 2BD06E6C 		.ascii	"+\320nl`2{%\214<\321\270\037\352\307r\273k>\345\263"
 313      60327B25 
 313      8C3CD1B8 
 313      1FEAC772 
 313      BB6B3EE5 
 314 02c8 26C29D9F 		.ascii	"&\302\235\237U\177QO\373\324\304\312\326P\330\\\243"
 314      557F514F 
 314      FBD4C4CA 
 314      D650D85C 
 314      A3
 315 02d9 7077D706 		.ascii	"pw\327\006\227\252!C\2457\036\335\266\224@\261+\223"
 315      97AA2143 
 315      A5371EDD 
 315      B69440B1 
 315      2B93
 316 02eb B4BD16AA 		.ascii	"\264\275\026\252I\257\034\243\275\0025P\002\250\037"
 316      49AF1CA3 
 316      BD023550 
 316      02A81F
ARM GAS  C:\Users\info\AppData\Local\Temp\ccqIusgX.s 			page 24


 317 02fa DCCFB25B 		.ascii	"\334\317\262[$N\250p\316\223%\233\366\033)\211\206\344"
 317      244EA870 
 317      CE93259B 
 317      F61B2989 
 317      86E4
 318 030c 769CC4FA 		.ascii	"v\234\304\372r<DsTh\216\235\356\221\"{@\236\362\207"
 318      723C4473 
 318      54688E9D 
 318      EE91227B 
 318      409EF287 
 319 0320 35A3668A 		.ascii	"5\243f\212 \245\206\023\242\023\275\222\006\375b\302"
 319      20A58613 
 319      A213BD92 
 319      06FD62C2 
 320 0330 2CFA010E 		.ascii	",\372\001\016\310\341\017VH\360I\177\260\026]\322\362"
 320      C8E10F56 
 320      48F0497F 
 320      B0165DD2 
 320      F2
 321 0341 E05F85F0 		.ascii	"\340_\205\360\206\240Y\035\252\226\371li\361\\\301\025"
 321      86A0591D 
 321      AA96F96C 
 321      69F15CC1 
 321      15
 322 0352 34AD4745 		.ascii	"4\255GE\032\252N\241\367\332v-\235\016\226\306\314\244"
 322      1AAA4EA1 
 322      F7DA762D 
 322      9D0E96C6 
 322      CCA4
 323 0364 79D27353 		.ascii	"y\322sS\307\275L\027W\246\3153>n\360)c\201Z\242\314"
 323      C7BD4C17 
 323      57A6CD33 
 323      3E6EF029 
 323      63815AA2 
 324 0379 29A64C1D 		.ascii	")\246L\035Q\206*\317\344~r<\037\370\2026\202\351\034"
 324      51862ACF 
 324      E47E723C 
 324      1FF88236 
 324      82E91C
 325 038c DAB8C3C0 		.ascii	"\332\270\303\300\005\316\0264Y\352\345>M@`\217_\340"
 325      05CE1634 
 325      59EAE53E 
 325      4D40608F 
 325      5FE0
 326 039e D33E8175 		.ascii	"\323>\201u\034\037\301)\276\037\255jg\373\327\222\205"
 326      1C1FC129 
 326      BE1FAD6A 
 326      67FBD792 
 326      85
 327 03af A09E8492 		.ascii	"\240\236\204\222u\370\032\241\330\376`IE\260\355\312"
 327      75F81AA1 
 327      D8FE6049 
 327      45B0EDCA 
 328 03bf 62BB63B9 		.ascii	"b\273c\271\275\357pns(\350\031\221\310S\221\210\205"
 328      BDEF706E 
 328      7328E819 
 328      91C85391 
ARM GAS  C:\Users\info\AppData\Local\Temp\ccqIusgX.s 			page 25


 328      8885
 329 03d1 C71F1B2C 		.ascii	"\307\037\033,;&\252\346A\320\360\252\211\234e\211X\020"
 329      3B26AAE6 
 329      41D0F0AA 
 329      899C6589 
 329      5810
 330 03e3 93BBDB2F 		.ascii	"\223\273\333/\367\264j6\0125i\342\006\224c\301\254\307"
 330      F7B46A36 
 330      0A3569E2 
 330      069463C1 
 330      ACC7
 331 03f5 CB7F1665 		.ascii	"\313\177\026eT\202\032\306\2102\365t_\303C\375W\364"
 331      54821AC6 
 331      8832F574 
 331      5FC343FD 
 331      57F4
 332 0407 8277BCB5 		.ascii	"\202w\274\265\255]\346\212\273T\241\370\301\322\"3["
 332      AD5DE68A 
 332      BB54A1F8 
 332      C1D22233 
 332      5B
 333 0418 CAA5AA49 		.ascii	"\312\245\252I\364\366\200s\376\364\232\310r\301\325"
 333      F4F68073 
 333      FEF49AC8 
 333      72C1D5
 334 0427 D7922E6B 		.ascii	"\327\222.k\346{\033\256\030t\033\004\355\205\276\307"
 334      E67B1BAE 
 334      18741B04 
 334      ED85BEC7 
 335 0437 5E7170B6 		.ascii	"^qp\266\010\332\321\361\247\253'\263\236\367\263\266"
 335      08DAD1F1 
 335      A7AB27B3 
 335      9EF7B3B6 
 336 0447 7056FFD1 		.ascii	"pV\377\321\320\222#qA\260\016\005XO\015\324\345\212"
 336      D0922371 
 336      41B00E05 
 336      584F0DD4 
 336      E58A
 337 0459 F6C813AC 		.ascii	"\366\310\023\254W\257\026\224\032&\323\266\372i/\022"
 337      57AF1694 
 337      1A26D3B6 
 337      FA692F12 
 338 0469 5A5F7663 		.ascii	"Z_vc\271gk\267\210V\213%\300\276m\015\003f\316\225#"
 338      B9676BB7 
 338      88568B25 
 338      C0BE6D0D 
 338      0366CE95 
 339 047e B84E9E2F 		.ascii	"\270N\236/\365X\0035\271\344\347\271<\245\325fp\212"
 339      F5580335 
 339      B9E4E7B9 
 339      3CA5D566 
 339      708A
 340 0490 F173FD75 		.ascii	"\361s\375uV\236\356\004\202\266)\025\236\226\355\012"
 340      569EEE04 
 340      82B62915 
 340      9E96ED0A 
 341 04a0 ABD80C9E 		.ascii	"\253\330\014\236Tw\355\227\234sf\250\246\270\352K\340"
ARM GAS  C:\Users\info\AppData\Local\Temp\ccqIusgX.s 			page 26


 341      5477ED97 
 341      9C7366A8 
 341      A6B8EA4B 
 341      E0
 342 04b1 03E4C646 		.ascii	"\003\344\306F\036\\xb\270Y\313\373K\206v\022\306\316"
 342      1E5C7862 
 342      B859CBFB 
 342      4B867612 
 342      C6CE
 343 04c3 6F95D8A2 		.ascii	"o\225\330\2421\250\356&T\217\371\351\036\303/\237}\005"
 343      31A8EE26 
 343      548FF9E9 
 343      1EC32F9F 
 343      7D05
 344 04d5 956A6957 		.ascii	"\225jiW\344W\216\\\361u[\365Q\317\2172?\316\031B\234"
 344      E4578E5C 
 344      F1755BF5 
 344      51CF8F32 
 344      3FCE1942 
 345 04ea BA3B9D5B 		.ascii	"\272;\235[q\240\001\257\371\033\260\203mG\346\265\032"
 345      71A001AF 
 345      F91BB083 
 345      6D47E6B5 
 345      1A
 346 04fb D9EEABD5 		.ascii	"\331\356\253\325\244.\372|J\027]\347\365nj.\330\247"
 346      A42EFA7C 
 346      4A175DE7 
 346      F56E6A2E 
 346      D8A7
 347 050d 7001F570 		.ascii	"p\001\365p\203e\344\225\314\250\345m~\372\256\325}\307"
 347      8365E495 
 347      CCA8E56D 
 347      7EFAAED5 
 347      7DC7
 348 051f D39D3589 		.ascii	"\323\2355\211\017&su\006kc\347\301\207\3174f\313\\\033"
 348      0F267375 
 348      066B63E7 
 348      C187CF34 
 348      66CB5C1B 
 349 0533 802EAE4D 		.ascii	"\200.\256M\227{Phc\367k3$\305\240\375\213\301+Y\204"
 349      977B5068 
 349      63F76B33 
 349      24C5A0FD 
 349      8BC12B59 
 350 0548 0863B983 		.ascii	"\010c\271\203u\205\"lv\250\353\375\346\224\226\230\303"
 350      7585226C 
 350      76A8EBFD 
 350      E6949698 
 350      C3
 351 0559 E35D8FB2 		.ascii	"\343]\217\262\333d\276\243\347\000\177Ni\211i\331\272"
 351      DB64BEA3 
 351      E7007F4E 
 351      698969D9 
 351      BA
 352 056a 998673B8 		.ascii	"\231\206s\270\206g\362^I\303[\276\346\246\242Y\351\311"
 352      8667F25E 
 352      49C35BBE 
ARM GAS  C:\Users\info\AppData\Local\Temp\ccqIusgX.s 			page 27


 352      E6A6A259 
 352      E9C9
 353 057c 67F9BF38 		.ascii	"g\371\2778\367\011\317(>\324\202\267\203E\213\343\301"
 353      F709CF28 
 353      3ED482B7 
 353      83458BE3 
 353      C1
 354 058d FE6F341D 		.ascii	"\376o4\0359}=>\321v\0115\342\202\032*L\\$\205\225\027"
 354      397D3D3E 
 354      D1760935 
 354      E2821A2A 
 354      4C5C2485 
 355 05a3 F27C2D33 		.ascii	"\362|-3m\177\364\212\013\212\261\375\275\373]N77\250"
 355      6D7FF48A 
 355      0B8AB1FD 
 355      BDFB5D4E 
 355      3737A8
 356 05b6 06E1B43F 		.ascii	"\006\341\264?\275\222M\260\006\356\310P\027\321\035"
 356      BD924DB0 
 356      06EEC850 
 356      17D11D
 357 05c5 464B3E14 		.ascii	"FK>\024\036\003m\245\215E?\225\211\013\011C\037\330"
 357      1E036DA5 
 357      8D453F95 
 357      890B0943 
 357      1FD8
 358 05d7 C3AEEBC9 		.ascii	"\303\256\353\311\350\221\015-\225\342B\001\270\013\366"
 358      E8910D2D 
 358      95E24201 
 358      B80BF6
 359 05e6 709A7D04 		.ascii	"p\232}\004\"\237\272\242\330MN\236\316\374P\035\326"
 359      229FBAA2 
 359      D84D4E9E 
 359      CEFC501D 
 359      D6
 360 05f7 1F2C5602 		.ascii	"\037,V\002\011\016\264T\255P'!h;\321\210|j\223\236\212"
 360      090EB454 
 360      AD502721 
 360      683BD188 
 360      7C6A939E 
 361 060c F4ABD49E 		.ascii	"\364\253\324\236\367\277\327\370\275\340\177\212\335"
 361      F7BFD7F8 
 361      BDE07F8A 
 361      DD
 362 0619 CD9F71DA 		.ascii	"\315\237q\332\005\241j80\345\377\316B\366\211\261\340"
 362      05A16A38 
 362      30E5FFCE 
 362      42F689B1 
 362      E0
 363 062a D53AEE3E 		.ascii	"\325:\356>[o!+g\024\375({\000\031\236[\313)Ll\003\310"
 363      5B6F212B 
 363      6714FD28 
 363      7B00199E 
 363      5BCB294C 
 364 0641 28F9947A 		.ascii	"(\371\224z\355C\307Z\20739\315\221\2722i\335zg\212c"
 364      ED43C75A 
 364      873339CD 
ARM GAS  C:\Users\info\AppData\Local\Temp\ccqIusgX.s 			page 28


 364      91BA3269 
 364      DD7A678A 
 365 0656 C5C749EB 		.ascii	"\305\307I\353\336_\274\"e\315\352\225i\253\276v8_OA"
 365      DE5FBC22 
 365      65CDEA95 
 365      69ABBE76 
 365      385F4F41 
 366 066a 46E22C5B 		.ascii	"F\342,[\365\355\252T\207S\357t|\223\226\354L3\256[\223"
 366      F5EDAA54 
 366      8753EF74 
 366      7C9396EC 
 366      4C33AE5B 
 367 067f EA1B4A59 		.ascii	"\352\033JY\357t&9S\364\216\265\311_\255q\244\376\013"
 367      EF742639 
 367      53F48EB5 
 367      C95FAD71 
 367      A4FE0B
 368 0692 1561103B 		.ascii	"\025a\020;"
 369              		.text
 370              		.section	.gnu.lto_clk_timer_SetSourceRegister.792a7d5b,"",%progbits
 371 0000 789C8D54 		.ascii	"x\234\215T]lTU\020\2369g\367\336\273\177\355J)\225\322"
 371      5D6C5455 
 371      109E3967 
 371      F7DEBB7F 
 371      ED4A2995 
 372 0015 DF3475C3 		.ascii	"\3374u\303\213\2224\306\027\243\017\232\370j\354\243"
 372      8B9234C6 
 372      17A30F9A 
 372      F86AECA3 
 373 0025 1862967D 		.ascii	"\030b\226} \240M6@L|\330\263\273](\372BB\212\032lJB"
 373      20A04D36 
 373      404C7CD8 
 373      B3BB5D28 
 373      FA42428A 
 374 003d 4CD10AA5 		.ascii	"L\321\012\245\025\273\256\"\336\026\345\311\210%\372"
 374      15BBAE22 
 374      DE16E5C9 
 374      8825FA
 375 004c 4213A315 		.ascii	"B\023\243\025\2531P\026\324*Fv\2359\347\356\366Zu\323"
 375      AB315016 
 375      D42A4676 
 375      9D39E7EE 
 375      F65A75D3 
 376 0060 9BECDC3B 		.ascii	"\233\354\334;3\3377;\363\315\2717\000\010|MX\000\217"
 376      33DF373B 
 376      F3CDB937 
 376      00087C4D 
 376      58008F
 377 0073 D1FD18FD 		.ascii	"\321\375\030\3750\012(\216~\001\220u\204\220#\011Pa"
 377      300A288E 
 377      7E019075 
 377      84902309 
 377      5061
 378 0085 8B6D548A 		.ascii	"\213mT\212\200\317\013\210\340\205.\366\276z\210\274"
 378      80CF0B88 
 378      E0852EF6 
 378      BE7A88BC 
ARM GAS  C:\Users\info\AppData\Local\Temp\ccqIusgX.s 			page 29


 379 0095 20460CC5 		.ascii	" F\014\305\022\266\006\2055\310\026\216\317sDHS\302"
 379      12B60685 
 379      35C8168E 
 379      CF734448 
 379      53C2
 380 00a7 9A12AA51 		.ascii	"\232\022\252Q\302\265\207\010\"?(\007!#d h\331N(\034"
 380      C2B58708 
 380      223F2807 
 380      21236420 
 380      68D94E28 
 381 00bc C10CFE26 		.ascii	"\301\014\376&\356\011\234?\274\\\022\333'\024]\337\376"
 381      EE099C3F 
 381      BC5C12DB 
 381      27145DDF 
 381      FE
 382 00cd 3033A04E 		.ascii	"03\240N\273X\220\000U\241'\000\234\300\355\204Z8y\350"
 382      BB589000 
 382      55A12700 
 382      9CC0ED84 
 382      5A3879E8 
 383 00e1 54443E80 		.ascii	"TD>\200@\317\347\336<6,\022o)\225Sj\3729%\013\022\361"
 383      40CFE7DE 
 383      3C362C12 
 383      6F299553 
 383      6AFA3925 
 384 00f8 344A62E0 		.ascii	"4Jb\340@\007\356\350\000\012\000\276\215\011\006\317"
 384      4007EEE8 
 384      000A00BE 
 384      8D0906CF 
 385 0108 5DAA24E4 		.ascii	"]\252$\344\016\315;\372\315\331\361h\377)\346\271c\213"
 385      0ECD3BFA 
 385      CDD9F168 
 385      FF29E6B9 
 385      638B
 386 011a B1D7949B 		.ascii	"\261\327\224\233\355a\356;~._\204\375\254\372\273\333"
 386      ED61EE3B 
 386      7E2E5F84 
 386      FDACFABB 
 386      DB
 387 012b FCAB2848 		.ascii	"\374\253(H\201\334\344\325\362\347c\021v%\306\311-\214"
 387      81DCE4D5 
 387      F2E76311 
 387      7625C6C9 
 387      2D8C
 388 013d 5D3C1293 		.ascii	"]<\022\223\217\350\252\253\277\\?\323\354U=q\242\351"
 388      8FE8AAAB 
 388      BF5C3FD3 
 388      EC553D71 
 388      A2E9
 389 014f 75E5E6A8 		.ascii	"u\345\346\250j\000\317\232\252g\260\003\337\305z\335"
 389      6A00CF9A 
 389      AA67B003 
 389      DFC57ADD 
 390 015f A5E9CA68 		.ascii	"\245\351\312h\314\032\346i{p\012\373q\022\373\315\254"
 390      CC1AE669 
 390      7B700AFB 
 390      7112FBCD 
ARM GAS  C:\Users\info\AppData\Local\Temp\ccqIusgX.s 			page 30


 390      AC
 391 0170 780E2DDA 		.ascii	"x\016-\332\232\250E\247\236qU\265\232W\356\033\333\346"
 391      9AA845A7 
 391      9E7155B5 
 391      9A57EE1B 
 391      DBE6
 392 0182 2ADBFA02 		.ascii	"*\333\372\002\300\011\0138e#O\347\320\234\301\020\233"
 392      C0090B38 
 392      65234FE7 
 392      D09CC110 
 392      9B
 393 0193 089B2819 		.ascii	"\010\233(\031+\306\246\211M3\2338'6\261iaw3\233V6[\330"
 393      2BC6A689 
 393      4D339B38 
 393      2736B169 
 393      6177339B 
 394 01ab B471622B 		.ascii	"\264qb+\233v6\254[\260\223\023]l\272\331\364\260\351"
 394      9B7636AC 
 394      5BB09313 
 394      5D6CBAD9 
 394      F4B0E9
 395 01be E5044099 		.ascii	"\345\004@\231\272\344=\336\026\202\357\362'\314\363"
 395      BAE43DDE 
 395      1682EFF2 
 395      27CCF3
 396 01cd C0DC775E 		.ascii	"\300\334w^\006h\266R\351\306\242\235\271\247F\224\212"
 396      0668B652 
 396      E9C6A29D 
 396      B9A74694 
 396      8A
 397 01de 17A45D15 		.ascii	"\027\244]\0254\016Nc\206\350\016,\241\320\023\322\020"
 397      340E4E63 
 397      86E80E2C 
 397      A1D013D2 
 397      10
 398 01ef 840626D3 		.ascii	"\204\006&\323\016\014\331\372\0279T\245?\001\234\321"
 398      0E0CD9FA 
 398      173954A5 
 398      3F019CD1 
 399 01ff E4709D3C 		.ascii	"\344p\235<\311d\013\276\303\341\305\374\367\263\367"
 399      C9640BBE 
 399      C3E1C5FC 
 399      F7B3F7
 400 020e AFB1A76E 		.ascii	"\257\261\247n\224\356\306x?A\332\374{\236\334\267\205"
 400      94EEC678 
 400      3F41DAFC 
 400      7B9EDCB7 
 400      85
 401 021f 84918424 		.ascii	"\204\221\204$\364\265\374\2224`\333\227\015\300\247"
 401      F4B5FC92 
 401      3460DB97 
 401      0DC0A7
 402 022e 2D26FBE3 		.ascii	"-&\373\343\354\313kc\324kE\250\326\371::\010Wl\271\214"
 402      ECCB6B63 
 402      D46B45A8 
 402      D6F93A3A 
 402      08576CB9 
ARM GAS  C:\Users\info\AppData\Local\Temp\ccqIusgX.s 			page 31


 403 0243 F37FBEB2 		.ascii	"\363\177\276\262r\363\240A;\204>^\230\277b3:\252O\303"
 403      72F3A041 
 403      3B843E5E 
 403      98BF6233 
 403      3AAA4FC3 
 404 0257 B5F291D1 		.ascii	"\265\362\221\321\220q\017e\263\212\353\025\324\302\365"
 404      90710F65 
 404      B38AEB15 
 404      D4C2F5
 405 0266 C0388E65 		.ascii	"\3008\216e\207\351`\307p\226\016\304\373\\\025\2138"
 405      87E960C7 
 405      70960EC4 
 405      FB5C158B 
 405      38
 406 0277 8EB08CF9 		.ascii	"\216\260\214\371?,S.d*\026W&\213\336,.\340\007\004\245"
 406      3F2C532E 
 406      642A1657 
 406      268BDE2C 
 406      2EE00704 
 407 028c 7F3D8E8C 		.ascii	"\177=\216\214iT\255D\325\250\006\350\026+7\03755#\215"
 407      6954AD44 
 407      D5A806E8 
 407      162B371F 
 407      3535238D 
 408 02a0 281F9A06 		.ascii	"(\037\232\006rw\016\257\326F\212\022\205{\372\313\353"
 408      72770EAF 
 408      D6468A12 
 408      857BFACB 
 408      EB
 409 02b1 2946212E 		.ascii	")F!.qu\364\274~\035,|\011?\322-\345\356\330\006\322"
 409      7175F4BC 
 409      7E1D2C7C 
 409      093FD22D 
 409      E5EED806 
 410 02c6 44AAFAC7 		.ascii	"D\252\372\307h\326\254&?$N\321\377\231\"\253\324\000"
 410      68D6AC26 
 410      3F244ED1 
 410      FF9922AB 
 410      D400
 411 02d8 FCB3AD0B 		.ascii	"\374\263\255\013z\222\270V\335\202\271\313`\2264Q\354"
 411      7A92B856 
 411      DD82B9CB 
 411      60963451 
 411      EC
 412 02e9 F416EEDB 		.ascii	"\364\026\356\333\241\015'\373\244>\017\253\377\261a"
 412      A10D27FB 
 412      A43E0FAB 
 412      FFB161
 413 02f8 07BEBCCF 		.ascii	"\007\276\274\317\220'\213\031o\303\276\225\206\240l"
 413      90278B19 
 413      6FC3BE95 
 413      86A06C
 414 0307 99955656 		.ascii	"\231\225VV<\27565\322\353\3435\275V<\275Z\210\342\327"
 414      3CBD3635 
 414      D2EBE335 
 414      BD563CBD 
 414      5A88E2D7 
ARM GAS  C:\Users\info\AppData\Local\Temp\ccqIusgX.s 			page 32


 415 031b 6B3385D6 		.ascii	"k3\205\326\013\324\272N\240-\032\326\352\207\264Qt\343"
 415      0BD4BA4E 
 415      A02D1AD6 
 415      EA87B451 
 415      74E3
 416 032d 025DD402 		.ascii	"\002]\324\002\265\231U_\276\345\265\262\265Q\353\237"
 416      B599555F 
 416      BEE5B5B2 
 416      B551EB9F 
 417 033d 7867ADD6 		.ascii	"xg\255\326g\273\301\277zw\346k}\326b\204@w\243gmN7\320"
 417      67BBC1BF 
 417      7A77E66B 
 417      7DD66284 
 417      4077A367 
 418 0355 AE450CC3 		.ascii	"\256E\014\303\302\343\336{q\313\023\261\243\021w\276"
 418      C2E3DE7B 
 418      71CB13B1 
 418      A31177BE 
 419 0365 2EE272AD 		.ascii	".\342r\255\363N\242\370\233\353\242\320z\021\273\327"
 419      F34EA2F8 
 419      9BEBA2D0 
 419      7A11BBD7 
 420 0375 89D8A361 		.ascii	"\211\330\243a\335~H/E7.\342%=C\257\236!\242?h?c\316"
 420      DD7E482F 
 420      45372EE2 
 420      253D43AF 
 420      9E21A23F 
 421 038d AD3ECB5C 		.ascii	"\255>\313\\}>\312\364\375\2420}\207\372\236J\275\230"
 421      7D3ECAF4 
 421      FDA2307D 
 421      87FA9E4A 
 421      BD98
 422 039f 4A3FBF3F 		.ascii	"J?\277?\265{\327\340\320\201t2\265\363\351\301\241'"
 422      B57BD7E0 
 422      D0817432 
 422      B5F3E9C1 
 422      A127
 423 03b1 1EDE99DC 		.ascii	"\036\336\231\334\267w\327\376=/\244\322\017&!D\216I"
 423      B777D7FE 
 423      3D2FA4D2 
 423      0F262144 
 423      8E49
 424 03c3 5A43FB76 		.ascii	"ZC\373v\017\246\223v\362@:\375\344\236\203\177\003\231"
 424      0FA69376 
 424      F2403AFD 
 424      E49E837F 
 424      0399
 425 03d5 612C8E   		.ascii	"a,\216"
 426              		.text
 427              		.section	.gnu.lto_.symbol_nodes.792a7d5b,"",%progbits
 428 0000 789C55C8 		.ascii	"x\234U\310\311\015\2000\020CQ'3!K\027TjJ\240\006\216"
 428      C90D8030 
 428      10435127 
 428      33214B17 
 428      546A4AA0 
 429 0016 14430748 		.ascii	"\024C\007H\210B\020\011\234\354\313\227\237#\340D_\004"
 429      88421009 
ARM GAS  C:\Users\info\AppData\Local\Temp\ccqIusgX.s 			page 33


 429      9CECCB97 
 429      9F23E044 
 429      5F04
 430 0028 81F5C0C8 		.ascii	"\201\365\300\310\276\314\035\002\203BdT0\232B\242+L"
 430      BECC1D02 
 430      83426454 
 430      309A42A2 
 430      2B4C
 431 003a 4C0A9993 		.ascii	"L\012\231\223BaVh,\012\316\252P\331\004\254\026l\327"
 431      42615668 
 431      2C0ACEAA 
 431      50D904AC 
 431      166CD7
 432 004d 13AC3AEE 		.ascii	"\023\254:\356\321\346\377o\345\373x\001\227\2634b"
 432      D1E6FF6F 
 432      E5FB7801 
 432      97B33462 
 433              		.text
 434              		.section	.gnu.lto_.refs.792a7d5b,"",%progbits
 435 0000 789C6361 		.ascii	"x\234ca`\004B \000\000\0009\000\007"
 435      60044220 
 435      00000039 
 435      0007
 436              		.text
 437              		.section	.gnu.lto_.decls.792a7d5b,"",%progbits
 438 0000 789C8D55 		.ascii	"x\234\215U]L\024W\024\236\263wY6\303_\243\326h\334\007"
 438      5D4C1457 
 438      149EB377 
 438      5936C35F 
 438      A3D668DC 
 439 0015 6A930DE9 		.ascii	"j\223\015\351\003-mj|\263\251M\355K\255\251\251\351"
 439      032D6D6A 
 439      7CB3A94D 
 439      ED4BADA9 
 439      A9E9
 440 0027 83895198 		.ascii	"\203\211Q\230Z*\025\263\256mx\033\205\012\325\376(U"
 440      5A2A15B3 
 440      AE6D781B 
 440      850AD5FE 
 440      2855
 441 0039 FEFCA9D4 		.ascii	"\376\374\251\324TA\205e\205\226\202\025\027\371U\026"
 441      54418565 
 441      85968215 
 441      17F95516 
 442 0049 44B082A2 		.ascii	"D\260\202\242\202\202&(\025\254XEk\267\347\336\271\303"
 442      82822628 
 442      15AC5845 
 442      6BB7E7DE 
 442      B9C3
 443 005b DC5987CA 		.ascii	"\334Y\207\312M\316\316\334{\317\367\235s\276{\356\254"
 443      4DCECEDC 
 443      7BCFF79D 
 443      73BE7BEE 
 443      AC
 444 006c 5D02898E 		.ascii	"]\002\211\216{NI\362\342k<\221\244\020\216h\\[!\031"
 444      7B4E49F2 
 444      E26B3C91 
ARM GAS  C:\Users\info\AppData\Local\Temp\ccqIusgX.s 			page 34


 444      A4108E68 
 444      5C5B2119 
 445 0080 230AAD0C 		.ascii	"#\012\255\014\315\207\346G\253EkDkFkEkCkG\353B\273 "
 445      CD87E647 
 445      AB456B44 
 445      6B466B45 
 445      6B436B47 
 446 0098 3D3B28D6 		.ascii	"=;(\326\3169]h\227\320z\370\036\360\375\360\341{\016"
 446      CE395D68 
 446      97D07AF8 
 446      1EF0FDF0 
 446      E17B0E
 447 00ab C66781F1 		.ascii	"\306g\201\361\363\\)f\006\332,\264\3720|?\3325\264\001"
 447      F35C2966 
 447      06DA2CB4 
 447      FA307C3F 
 447      DA35B401 
 448 00bf B4AB029F 		.ascii	"\264\253\002\237\337\202\217\326\031\301\371\252\247"
 448      DF828FD6 
 448      19C1F9AA 
 448      A7
 449 00cc C8A3D602 		.ascii	"\310\243\326\002\327\310qb\016z\\\035\327h\201\243z"
 449      D7C87162 
 449      0E7A5C1D 
 449      D76881A3 
 449      7A
 450 00dd 3AC2E25D 		.ascii	":\302\342]\267\210\331l\201m\235F\256\255\0268zv\366"
 450      B788D96C 
 450      816D9D46 
 450      AEAD1638 
 450      7A76F6
 451 00f0 FFC1B459 		.ascii	"\377\301\264Y`\332\237\203i\267\300\320\336\210\223"
 451      60DA9F83 
 451      69B7C0D0 
 451      DE8893
 452 00ff 9E3D9B6A 		.ascii	"\236=\233j\216\245<Chg\321n\2425p^\267d>+\302\271h\014"
 452      8EA53C43 
 452      6867D16E 
 452      A235705E 
 452      B7643E2B 
 453 0117 2B0D69FF 		.ascii	"+\015i\377\305\012:\204\367\301u\201_\217\347\016\253"
 453      C50A3A84 
 453      F7C17581 
 453      5F8FE70E 
 453      AB
 454 0128 81709EC6 		.ascii	"\201p\236\306)jyj\203\314\033\267\0178\373\340\022\200"
 454      296A796A 
 454      83CC1BB7 
 454      0F38FBE0 
 454      1280
 455 013a 046C48FC 		.ascii	"\004lH\374.It\205?\351\013h\023\233\256\015L\252\304"
 455      2E497485 
 455      3FE90B68 
 455      139BAE0D 
 455      4CAAC4
 456 014d 5F983B48 		.ascii	"_\230;H6\346\017\302\206\311\217\335K6\214%\230\034"
 456      36E60FC2 
ARM GAS  C:\Users\info\AppData\Local\Temp\ccqIusgX.s 			page 35


 456      86C98FDD 
 456      4B368C25 
 456      981C
 457 015f BA279849 		.ascii	"\272'\230I)\2531\305\271\315\000\010|<{\036\037\304"
 457      29AB31C5 
 457      B9CD0008 
 457      7C3C7B1E 
 457      1FC4
 458 0171 B08C9AE8 		.ascii	"\260\214\232\350E\373\207\362\356G\023\344\304\367\376"
 458      45FB87F2 
 458      EE4713E4 
 458      C4F7FE
 459 0180 89927713 		.ascii	"\211\222w\023\217\2518v\250\252\355\025C\231\363Y\025"
 459      8FA93876 
 459      A8AAED15 
 459      4399F359 
 459      15
 460 0191 7BC9B80D 		.ascii	"{\311\270\015f\310`\307\351\275\366\242\301X\234\316"
 460      66C860C7 
 460      E9BDF6A2 
 460      C1589CCE 
 461 01a1 92211EA7 		.ascii	"\222!\036\247O\317\354)\262\315\311c\270L5\336\016+"
 461      4FCFEC29 
 461      B2CDC963 
 461      B84C35DE 
 461      0E2B
 462 01b3 66C35170 		.ascii	"f\303Qp\301\021\300\303\201c0\007\177\327\3305\246\302"
 462      C111C0C3 
 462      81633007 
 462      7FD7D835 
 462      A6C2
 463 01c5 83DD17C8 		.ascii	"\203\335\027\310\374\003\352\201\012u\340\341\370\353"
 463      FC03EA81 
 463      0A75E0E1 
 463      F8EB
 464 01d3 856A200B 		.ascii	"\205j \013a6\352\005%@\240\024\022i\212\370J\037\207"
 464      6136EA05 
 464      2540A014 
 464      12698AF8 
 464      4A1F87
 465 01e6 A10F932F 		.ascii	"\241\017\223/\203\371\210\254/\332{8\226,b\211\026\227"
 465      83F988AC 
 465      2FDA7B38 
 465      962C6289 
 465      1697
 466 01f8 EC3B19A1 		.ascii	"\354;\031\241\261\004\3667G\253;6\253\352[\214\243\334"
 466      B104F637 
 466      47AB3B36 
 466      ABEA5B8C 
 466      A3DC
 467 020a E0281739 		.ascii	"\340(\0279|\214\343V\325\255* K\031G\371D\227\337\301"
 467      7C8CE356 
 467      D5AD2A20 
 467      4B1947F9 
 467      4497DFC1 
 468 021e 390A5A44 		.ascii	"9\012ZD\216\012\203\243B\344\3603\216\307\337\374\265"
 468      8E0A83A3 
ARM GAS  C:\Users\info\AppData\Local\Temp\ccqIusgX.s 			page 36


 468      42E4F033 
 468      8EC7DFFC 
 468      B5
 469 022f 278AAC61 		.ascii	"'\212\254a\034\276\257\206J\235(\204K\206\020\320\371"
 469      1CBEAF86 
 469      4A9D2884 
 469      4B8610D0 
 469      F9
 470 0240 48CD448C 		.ascii	"H\315D\2146g\305\356\034\3747\212d\320w[\367\340\321"
 470      3667C5EE 
 470      1CFC378A 
 470      64D0775B 
 470      F7E0D1
 471 0253 613B24C8 		.ascii	"a;$\310\207\250L\003\241\354O\362\263i\335\325 \303"
 471      87A84C03 
 471      A1EC4FF2 
 471      B369DDD5 
 471      20C3
 472 0265 2F463C97 		.ascii	"/F<\227\214\2779\252\272E\035\373Iu\314\221\340\015"
 472      8CBF39AA 
 472      BA451DFB 
 472      4975CC91 
 472      E00D
 473 0277 17BCE692 		.ascii	"\027\274\346\222\340WH\240\244\324\013\252P\332J\224"
 473      E05748A0 
 473      A4D40BAA 
 473      50DA4A94 
 474 0287 1603DCCC 		.ascii	"\026\003\334\314\377\361\216\303\216}\310xPc\\;V{e\304"
 474      FFF18EC3 
 474      8E7DC878 
 474      50635C3B 
 474      567B65C4 
 475 029b 31E569D4 		.ascii	"1\345i\324\260\323\370\015\370q\324\367\346\337\267"
 475      B0D3F80D 
 475      F871D4F7 
 475      E6DFB7
 476 02aa 4F1EC78B 		.ascii	"O\036\307\213y\231j+\342\342\251\033\0347\322:.\312"
 476      79996A2B 
 476      E2E2A91B 
 476      1C37D23A 
 476      2ECA
 477 02bc 50CB6438 		.ascii	"P\313d8:2<HH1\260B\177~\374d\214\366\207\033u\010\021"
 477      3A323C48 
 477      4831B042 
 477      7F7EFC64 
 477      8CF6871B 
 478 02d3 4108B726 		.ascii	"A\010\267&DIqs\245L\3524\347\246\320\303@\234\326L6"
 478      44497173 
 478      A54CEA34 
 478      E7A6D0C3 
 478      409CD64C 
 479 02e8 9C768D05 		.ascii	"\234v\215\005\367Ei\315\364\002\352t\267\252\2457\006"
 479      F74569CD 
 479      F402EA74 
 479      B7AAA537 
 479      06
 480 02f9 E4042682 		.ascii	"\344\004&\202\232\251\312\011\022\0040\375S\230>\234"
ARM GAS  C:\Users\info\AppData\Local\Temp\ccqIusgX.s 			page 37


 480      9AA9CA09 
 480      120430FD 
 480      53983E9C 
 481 0309 4619DC5C 		.ascii	"F\031\334\\\206\223\270\370;.rA[\270\240\365(D\235\221"
 481      8693B8F8 
 481      3B2E7241 
 481      5BB8A0F5 
 481      28449D91 
 482 031d B95BD60A 		.ascii	"\271[\326\012\355\310\376\336\017\242*\324\317\220\245"
 482      EDC8FEDE 
 482      0FA22AD4 
 482      CF90A5
 483 032c C1D4A4A5 		.ascii	"\301\324\244\245;\267\367D\242*\003T\225!w\301qU\375"
 483      3BB7F744 
 483      A22A0354 
 483      952177C1 
 483      7155FD
 484 033f 1A8176EA 		.ascii	"\032\201v\352\006'\014\362\023\242,\215L\226\322\320"
 484      06270CF2 
 484      13A22C8D 
 484      4C96D2D0 
 485 034f A39E28D2 		.ascii	"\243\236(\322\244Uzp\347#Uo\261\232<2\331\354T\335&"
 485      A4557A70 
 485      E723556F 
 485      B19A3C32 
 485      D9EC54DD 
 486 0364 83A649A4 		.ascii	"\203\246I\244if4[\375\301\361\030\322\257\321\354\255"
 486      6966345B 
 486      FDC1F118 
 486      D2AFD1EC 
 486      AD
 487 0375 2DEE8DE2 		.ascii	"-\356\215\3424u=z\247R\222\026\203\244E$ie$c\276\266"
 487      34753D7A 
 487      A7529216 
 487      83A44524 
 487      69652463 
 488 038b 9E08F244 		.ascii	"\236\010\362D#\351\334\336\224\031'\012Pm\022\340\254"
 488      23E9DCDE 
 488      9419270A 
 488      506D12E0 
 488      AC
 489 039c 4980CAD1 		.ascii	"I\200\312\321\321\240\223G,\274l$\216^p\306\210yF\214"
 489      D1A09347 
 489      2CBC6C24 
 489      8E5E70C6 
 489      8879468C 
 490 03b0 D9C662DE 		.ascii	"\331\306b\336(\273\3741\331\255}N\312\312&&b4\031\003"
 490      28BBFC31 
 490      D9AD7D4E 
 490      CACA2626 
 490      62341903 
 491 03c4 9DD7F4BC 		.ascii	"\235\327\364\274)G\320\340\010\212\034\355\214\343\237"
 491      2947D0E0 
 491      088A1CED 
 491      8CE39F
 492 03d3 3B596540 		.ascii	";Ye@\374\032\211U\213\007;C%\321l\215\236\3429`\213"
 492      FC1A8955 
ARM GAS  C:\Users\info\AppData\Local\Temp\ccqIusgX.s 			page 38


 492      8B073B43 
 492      25D16C8D 
 492      9EE23960 
 493 03e8 0FBE7D92 		.ascii	"\017\276}\222K\246\354\373\363\254\276N\275\357s\036"
 493      4BA6ECFB 
 493      F3ACBE4E 
 493      BDEF731E 
 494 03f8 146CE57D 		.ascii	"\024l\345}\037\370\341;\243@t\203\016#\271\0161\271"
 494      1FF8E13B 
 494      A3407483 
 494      0E23B90E 
 494      31B9
 495 040a 2E965CD5 		.ascii	".\226\\\325\3375\273\234\244CK\356\310\351\007#2\247"
 495      DF35BB9C 
 495      A4434BEE 
 495      C8E90723 
 495      32A7
 496 041c C9EB134F 		.ascii	"\311\353\023O\246\333 \351\026I.0\222\361\254\373\027"
 496      A6DB20E9 
 496      16492E30 
 496      92F1ACFB 
 496      17
 497 042d 1D720EED 		.ascii	"\035r\016\355\357i\335\363\366\341\342P$\271\315\202"
 497      EF69DDF3 
 497      F6E1E250 
 497      24B9CD82 
 498 043d DA2A7717 		.ascii	"\332*w\027\356\216\324nH8\274\327\002\256\177p>(\312"
 498      EE8ED46E 
 498      4838BCD7 
 498      02AE7F70 
 498      3E28CA
 499 0450 DD8C37BB 		.ascii	"\335\2147\273\007\025\273h$\367\007\360\013Rz\267!\000"
 499      0715BB68 
 499      24F707F0 
 499      0B527AB7 
 499      2100
 500 0462 D1DBE8AD 		.ascii	"\321\333\350\255C\371f\274\307\034\015\375.A4\373\357"
 500      43F966BC 
 500      C71C0DFD 
 500      2E4134FB 
 500      EF
 501 0473 C027FD8E 		.ascii	"\300'\375\2166\024\374i\323\362\237\316\025\245g\032"
 501      3614FC69 
 501      D3F29FCE 
 501      15A5671A 
 502 0483 E8984946 		.ascii	"\350\230IF\265\002\362\007\267\355\217\320?\205\201"
 502      B502F207 
 502      B7ED8FD0 
 502      3F8581
 503 0492 BACF54D5 		.ascii	"\272\317T\325\011W1Z\237\221\326e\340\037\302g\003\\"
 503      0957315A 
 503      9F91D665 
 503      E01FC267 
 503      035C
 504 04a4 B10EB0F9 		.ascii	"\261\016\260\371\\\326\311H=\245\035\323A\214f\3379"
 504      5CD6C948 
 504      3DA51DD3 
ARM GAS  C:\Users\info\AppData\Local\Temp\ccqIusgX.s 			page 39


 504      418C66DF 
 504      39
 505 04b5 E4142BBE 		.ascii	"\344\024+\276f\252\270\237W\334\317*\036\351\017\345"
 505      66AAB89F 
 505      57DCCF2A 
 505      1EE90FE5 
 506 04c5 DA44E7AB 		.ascii	"\332D\347\253&\347\001\356<@\235Ic\267\357\224\014\262"
 506      26E701EE 
 506      3C409D49 
 506      63B7EF94 
 506      0CB2
 507 04d7 0B701F72 		.ascii	"\013p\037rh\225c[\204c\222\340:-\017n\340\366 \302\213"
 507      6895635B 
 507      846392E0 
 507      3A2D0F6E 
 507      E0F620C2 
 508 04ec 54EA731E 		.ascii	"T\352s\036\3302\233\214-b\357\364\207vY\260\271\203"
 508      D8329B8C 
 508      2D62EFF4 
 508      877659B0 
 508      B983
 509 04fe 88B1E915 		.ascii	"\210\261\351\0252b\017\361\330C,\321\334\341]i\242o"
 509      32620FF1 
 509      D8432CD1 
 509      DCE15D69 
 509      A26F
 510 0510 83C9F726 		.ascii	"\203\311\367&\367\245\317\270\344\264u\253\274\251\237"
 510      F7A5CFB8 
 510      E4B475AB 
 510      BCA99F
 511 051f 2B9E55CB 		.ascii	"+\236U\313\275\253=^\347\222\245\037\305/NJ\222^^\242"
 511      BDAB3D5E 
 511      E792A51F 
 511      C52F4E4A 
 511      925E5EA2 
 512 0533 AC573CAB 		.ascii	"\254W<\253\275J\312\252\345\351\233<\311\312\312e\313"
 512      BD4ACAAA 
 512      E5E99B3C 
 512      C9CACA65 
 512      CB
 513 0544 D317BFB9 		.ascii	"\323\027\277\271r\322?1Y\212\025\301\351\033f\232\247"
 513      72D23F31 
 513      598A15C1 
 513      E91B669A 
 513      A7
 514 0555 6FA7A527 		.ascii	"o\247\245'\257\233m\342_\237\262&cY\372\227\212'bS\352"
 514      AF9B6DE2 
 514      5F9FB226 
 514      6359FA97 
 514      8A276253 
 515 056a 7AEFC297 		.ascii	"z\357\302\227\254c\274\232\234\341\315\330\240lL\374"
 515      AC63BC9A 
 515      9CE1CDD8 
 515      A06C4CFC 
 516 057a 547219F0 		.ascii	"Tr\031\360%\212\367\235\324/RS\024\317\207\312\332\324"
 516      258AF79D 
 516      D42F5253 
ARM GAS  C:\Users\info\AppData\Local\Temp\ccqIusgX.s 			page 40


 516      14CF87CA 
 516      DAD4
 517 058c 8D5EC5E3 		.ascii	"\215^\305\343\240$I\013\346\012!\024\357\373\351)\212"
 517      A024490B 
 517      E60A2114 
 517      EFFBE929 
 517      8A
 518 059d EE30CFD8 		.ascii	"\3560\317\330Y\234\246\254\366\210{sM\314S\240pGKL\337"
 518      599CA6AC 
 518      F6887B73 
 518      4DCC53A0 
 518      70474B4C 
 519 05b2 73996285 		.ascii	"s\231b\205\3453\317\264i\006\332=\312\332\205\021\370"
 519      E533CFB4 
 519      6906DA3D 
 519      CADA8511 
 519      F8
 520 05c3 93B4E03F 		.ascii	"\223\264\340?z4e\350"
 520      7A3465E8 
 521              		.text
 522              		.section	.gnu.lto_.symtab.792a7d5b,"",%progbits
 523 0000 636C6B5F 		.ascii	"clk_timer_Start\000"
 523      74696D65 
 523      725F5374 
 523      61727400 
 524 0010 00       		.ascii	"\000"
 525 0011 00       		.ascii	"\000"
 526 0012 00       		.ascii	"\000"
 527 0013 00000000 		.ascii	"\000\000\000\000\000\000\000\000"
 527      00000000 
 528 001b AD000000 		.ascii	"\255\000\000\000"
 529 001f 636C6B5F 		.ascii	"clk_timer_Stop\000"
 529      74696D65 
 529      725F5374 
 529      6F7000
 530 002e 00       		.ascii	"\000"
 531 002f 00       		.ascii	"\000"
 532 0030 00       		.ascii	"\000"
 533 0031 00000000 		.ascii	"\000\000\000\000\000\000\000\000"
 533      00000000 
 534 0039 AF000000 		.ascii	"\257\000\000\000"
 535 003d 636C6B5F 		.ascii	"clk_timer_StopBlock\000"
 535      74696D65 
 535      725F5374 
 535      6F70426C 
 535      6F636B00 
 536 0051 00       		.ascii	"\000"
 537 0052 00       		.ascii	"\000"
 538 0053 00       		.ascii	"\000"
 539 0054 00000000 		.ascii	"\000\000\000\000\000\000\000\000"
 539      00000000 
 540 005c B1000000 		.ascii	"\261\000\000\000"
 541 0060 636C6B5F 		.ascii	"clk_timer_StandbyPower\000"
 541      74696D65 
 541      725F5374 
 541      616E6462 
 541      79506F77 
ARM GAS  C:\Users\info\AppData\Local\Temp\ccqIusgX.s 			page 41


 542 0077 00       		.ascii	"\000"
 543 0078 00       		.ascii	"\000"
 544 0079 00       		.ascii	"\000"
 545 007a 00000000 		.ascii	"\000\000\000\000\000\000\000\000"
 545      00000000 
 546 0082 BA000000 		.ascii	"\272\000\000\000"
 547 0086 636C6B5F 		.ascii	"clk_timer_GetDividerRegister\000"
 547      74696D65 
 547      725F4765 
 547      74446976 
 547      69646572 
 548 00a3 00       		.ascii	"\000"
 549 00a4 00       		.ascii	"\000"
 550 00a5 00       		.ascii	"\000"
 551 00a6 00000000 		.ascii	"\000\000\000\000\000\000\000\000"
 551      00000000 
 552 00ae C4000000 		.ascii	"\304\000\000\000"
 553 00b2 636C6B5F 		.ascii	"clk_timer_SetModeRegister\000"
 553      74696D65 
 553      725F5365 
 553      744D6F64 
 553      65526567 
 554 00cc 00       		.ascii	"\000"
 555 00cd 00       		.ascii	"\000"
 556 00ce 00       		.ascii	"\000"
 557 00cf 00000000 		.ascii	"\000\000\000\000\000\000\000\000"
 557      00000000 
 558 00d7 C6000000 		.ascii	"\306\000\000\000"
 559 00db 636C6B5F 		.ascii	"clk_timer_ClearModeRegister\000"
 559      74696D65 
 559      725F436C 
 559      6561724D 
 559      6F646552 
 560 00f7 00       		.ascii	"\000"
 561 00f8 00       		.ascii	"\000"
 562 00f9 00       		.ascii	"\000"
 563 00fa 00000000 		.ascii	"\000\000\000\000\000\000\000\000"
 563      00000000 
 564 0102 C8000000 		.ascii	"\310\000\000\000"
 565 0106 636C6B5F 		.ascii	"clk_timer_GetModeRegister\000"
 565      74696D65 
 565      725F4765 
 565      744D6F64 
 565      65526567 
 566 0120 00       		.ascii	"\000"
 567 0121 00       		.ascii	"\000"
 568 0122 00       		.ascii	"\000"
 569 0123 00000000 		.ascii	"\000\000\000\000\000\000\000\000"
 569      00000000 
 570 012b CB000000 		.ascii	"\313\000\000\000"
 571 012f 636C6B5F 		.ascii	"clk_timer_GetSourceRegister\000"
 571      74696D65 
 571      725F4765 
 571      74536F75 
 571      72636552 
 572 014b 00       		.ascii	"\000"
 573 014c 00       		.ascii	"\000"
ARM GAS  C:\Users\info\AppData\Local\Temp\ccqIusgX.s 			page 42


 574 014d 00       		.ascii	"\000"
 575 014e 00000000 		.ascii	"\000\000\000\000\000\000\000\000"
 575      00000000 
 576 0156 CD000000 		.ascii	"\315\000\000\000"
 577 015a 636C6B5F 		.ascii	"clk_timer_SetDividerRegister\000"
 577      74696D65 
 577      725F5365 
 577      74446976 
 577      69646572 
 578 0177 00       		.ascii	"\000"
 579 0178 00       		.ascii	"\000"
 580 0179 00       		.ascii	"\000"
 581 017a 00000000 		.ascii	"\000\000\000\000\000\000\000\000"
 581      00000000 
 582 0182 D2000000 		.ascii	"\322\000\000\000"
 583 0186 636C6B5F 		.ascii	"clk_timer_SetSourceRegister\000"
 583      74696D65 
 583      725F5365 
 583      74536F75 
 583      72636552 
 584 01a2 00       		.ascii	"\000"
 585 01a3 00       		.ascii	"\000"
 586 01a4 00       		.ascii	"\000"
 587 01a5 00000000 		.ascii	"\000\000\000\000\000\000\000\000"
 587      00000000 
 588 01ad D4000000 		.ascii	"\324\000\000\000"
 589              		.text
 590              		.section	.gnu.lto_.opts,"",%progbits
 591 0000 272D666D 		.ascii	"'-fmath-errno' '-fsigned-zeros' '-ftrapping-math' '"
 591      6174682D 
 591      6572726E 
 591      6F272027 
 591      2D667369 
 592 0033 2D666E6F 		.ascii	"-fno-trapv' '-fno-strict-overflow' '-fno-openmp' '-"
 592      2D747261 
 592      70762720 
 592      272D666E 
 592      6F2D7374 
 593 0066 666E6F2D 		.ascii	"fno-openacc' '-mcpu=cortex-m3' '-mthumb' '-g' '-Og'"
 593      6F70656E 
 593      61636327 
 593      20272D6D 
 593      6370753D 
 594 0099 20272D66 		.ascii	" '-ffunction-sections' '-ffat-lto-objects' '-flto'\000"
 594      66756E63 
 594      74696F6E 
 594      2D736563 
 594      74696F6E 
 595              		.text
 596              		.cfi_sections	.debug_frame
 597              		.section	.text.clk_timer_Start,"ax",%progbits
 598              		.align	2
 599              		.global	clk_timer_Start
 600              		.thumb
 601              		.thumb_func
 602              		.type	clk_timer_Start, %function
 603              	clk_timer_Start:
ARM GAS  C:\Users\info\AppData\Local\Temp\ccqIusgX.s 			page 43


 604              	.LFB0:
 605              		.file 1 "Generated_Source\\PSoC5\\clk_timer.c"
   1:Generated_Source\PSoC5/clk_timer.c **** /*******************************************************************************
   2:Generated_Source\PSoC5/clk_timer.c **** * File Name: clk_timer.c
   3:Generated_Source\PSoC5/clk_timer.c **** * Version 2.20
   4:Generated_Source\PSoC5/clk_timer.c **** *
   5:Generated_Source\PSoC5/clk_timer.c **** *  Description:
   6:Generated_Source\PSoC5/clk_timer.c **** *   This file provides the source code to the API for the clock component.
   7:Generated_Source\PSoC5/clk_timer.c **** *
   8:Generated_Source\PSoC5/clk_timer.c **** *  Note:
   9:Generated_Source\PSoC5/clk_timer.c **** *
  10:Generated_Source\PSoC5/clk_timer.c **** ********************************************************************************
  11:Generated_Source\PSoC5/clk_timer.c **** * Copyright 2008-2012, Cypress Semiconductor Corporation.  All rights reserved.
  12:Generated_Source\PSoC5/clk_timer.c **** * You may use this file only in accordance with the license, terms, conditions, 
  13:Generated_Source\PSoC5/clk_timer.c **** * disclaimers, and limitations in the end user license agreement accompanying 
  14:Generated_Source\PSoC5/clk_timer.c **** * the software package with which this file was provided.
  15:Generated_Source\PSoC5/clk_timer.c **** *******************************************************************************/
  16:Generated_Source\PSoC5/clk_timer.c **** 
  17:Generated_Source\PSoC5/clk_timer.c **** #include <cydevice_trm.h>
  18:Generated_Source\PSoC5/clk_timer.c **** #include "clk_timer.h"
  19:Generated_Source\PSoC5/clk_timer.c **** 
  20:Generated_Source\PSoC5/clk_timer.c **** /* Clock Distribution registers. */
  21:Generated_Source\PSoC5/clk_timer.c **** #define CLK_DIST_LD              (* (reg8 *) CYREG_CLKDIST_LD)
  22:Generated_Source\PSoC5/clk_timer.c **** #define CLK_DIST_BCFG2           (* (reg8 *) CYREG_CLKDIST_BCFG2)
  23:Generated_Source\PSoC5/clk_timer.c **** #define BCFG2_MASK               (0x80u)
  24:Generated_Source\PSoC5/clk_timer.c **** #define CLK_DIST_DMASK           (* (reg8 *) CYREG_CLKDIST_DMASK)
  25:Generated_Source\PSoC5/clk_timer.c **** #define CLK_DIST_AMASK           (* (reg8 *) CYREG_CLKDIST_AMASK)
  26:Generated_Source\PSoC5/clk_timer.c **** 
  27:Generated_Source\PSoC5/clk_timer.c **** #define HAS_CLKDIST_LD_DISABLE   (CY_PSOC3 || CY_PSOC5LP)
  28:Generated_Source\PSoC5/clk_timer.c **** 
  29:Generated_Source\PSoC5/clk_timer.c **** 
  30:Generated_Source\PSoC5/clk_timer.c **** /*******************************************************************************
  31:Generated_Source\PSoC5/clk_timer.c **** * Function Name: clk_timer_Start
  32:Generated_Source\PSoC5/clk_timer.c **** ********************************************************************************
  33:Generated_Source\PSoC5/clk_timer.c **** *
  34:Generated_Source\PSoC5/clk_timer.c **** * Summary:
  35:Generated_Source\PSoC5/clk_timer.c **** *  Starts the clock. Note that on startup, clocks may be already running if the
  36:Generated_Source\PSoC5/clk_timer.c **** *  "Start on Reset" option is enabled in the DWR.
  37:Generated_Source\PSoC5/clk_timer.c **** *
  38:Generated_Source\PSoC5/clk_timer.c **** * Parameters:
  39:Generated_Source\PSoC5/clk_timer.c **** *  None
  40:Generated_Source\PSoC5/clk_timer.c **** *
  41:Generated_Source\PSoC5/clk_timer.c **** * Returns:
  42:Generated_Source\PSoC5/clk_timer.c **** *  None
  43:Generated_Source\PSoC5/clk_timer.c **** *
  44:Generated_Source\PSoC5/clk_timer.c **** *******************************************************************************/
  45:Generated_Source\PSoC5/clk_timer.c **** void clk_timer_Start(void) 
  46:Generated_Source\PSoC5/clk_timer.c **** {
 606              		.loc 1 46 0
 607              		.cfi_startproc
 608              		@ args = 0, pretend = 0, frame = 0
 609              		@ frame_needed = 0, uses_anonymous_args = 0
 610              		@ link register save eliminated.
  47:Generated_Source\PSoC5/clk_timer.c ****     /* Set the bit to enable the clock. */
  48:Generated_Source\PSoC5/clk_timer.c ****     clk_timer_CLKEN |= clk_timer_CLKEN_MASK;
 611              		.loc 1 48 0
 612 0000 054A     		ldr	r2, .L2
ARM GAS  C:\Users\info\AppData\Local\Temp\ccqIusgX.s 			page 44


 613 0002 1378     		ldrb	r3, [r2]	@ zero_extendqisi2
 614 0004 43F00203 		orr	r3, r3, #2
 615 0008 1370     		strb	r3, [r2]
  49:Generated_Source\PSoC5/clk_timer.c **** 	clk_timer_CLKSTBY |= clk_timer_CLKSTBY_MASK;
 616              		.loc 1 49 0
 617 000a 1032     		adds	r2, r2, #16
 618 000c 1378     		ldrb	r3, [r2]	@ zero_extendqisi2
 619 000e 43F00203 		orr	r3, r3, #2
 620 0012 1370     		strb	r3, [r2]
 621 0014 7047     		bx	lr
 622              	.L3:
 623 0016 00BF     		.align	2
 624              	.L2:
 625 0018 A2430040 		.word	1073759138
 626              		.cfi_endproc
 627              	.LFE0:
 628              		.size	clk_timer_Start, .-clk_timer_Start
 629              		.section	.text.clk_timer_Stop,"ax",%progbits
 630              		.align	2
 631              		.global	clk_timer_Stop
 632              		.thumb
 633              		.thumb_func
 634              		.type	clk_timer_Stop, %function
 635              	clk_timer_Stop:
 636              	.LFB1:
  50:Generated_Source\PSoC5/clk_timer.c **** }
  51:Generated_Source\PSoC5/clk_timer.c **** 
  52:Generated_Source\PSoC5/clk_timer.c **** 
  53:Generated_Source\PSoC5/clk_timer.c **** /*******************************************************************************
  54:Generated_Source\PSoC5/clk_timer.c **** * Function Name: clk_timer_Stop
  55:Generated_Source\PSoC5/clk_timer.c **** ********************************************************************************
  56:Generated_Source\PSoC5/clk_timer.c **** *
  57:Generated_Source\PSoC5/clk_timer.c **** * Summary:
  58:Generated_Source\PSoC5/clk_timer.c **** *  Stops the clock and returns immediately. This API does not require the
  59:Generated_Source\PSoC5/clk_timer.c **** *  source clock to be running but may return before the hardware is actually
  60:Generated_Source\PSoC5/clk_timer.c **** *  disabled. If the settings of the clock are changed after calling this
  61:Generated_Source\PSoC5/clk_timer.c **** *  function, the clock may glitch when it is started. To avoid the clock
  62:Generated_Source\PSoC5/clk_timer.c **** *  glitch, use the StopBlock function.
  63:Generated_Source\PSoC5/clk_timer.c **** *
  64:Generated_Source\PSoC5/clk_timer.c **** * Parameters:
  65:Generated_Source\PSoC5/clk_timer.c **** *  None
  66:Generated_Source\PSoC5/clk_timer.c **** *
  67:Generated_Source\PSoC5/clk_timer.c **** * Returns:
  68:Generated_Source\PSoC5/clk_timer.c **** *  None
  69:Generated_Source\PSoC5/clk_timer.c **** *
  70:Generated_Source\PSoC5/clk_timer.c **** *******************************************************************************/
  71:Generated_Source\PSoC5/clk_timer.c **** void clk_timer_Stop(void) 
  72:Generated_Source\PSoC5/clk_timer.c **** {
 637              		.loc 1 72 0
 638              		.cfi_startproc
 639              		@ args = 0, pretend = 0, frame = 0
 640              		@ frame_needed = 0, uses_anonymous_args = 0
 641              		@ link register save eliminated.
  73:Generated_Source\PSoC5/clk_timer.c ****     /* Clear the bit to disable the clock. */
  74:Generated_Source\PSoC5/clk_timer.c ****     clk_timer_CLKEN &= (uint8)(~clk_timer_CLKEN_MASK);
 642              		.loc 1 74 0
 643 0000 054A     		ldr	r2, .L5
ARM GAS  C:\Users\info\AppData\Local\Temp\ccqIusgX.s 			page 45


 644 0002 1378     		ldrb	r3, [r2]	@ zero_extendqisi2
 645 0004 03F0FD03 		and	r3, r3, #253
 646 0008 1370     		strb	r3, [r2]
  75:Generated_Source\PSoC5/clk_timer.c **** 	clk_timer_CLKSTBY &= (uint8)(~clk_timer_CLKSTBY_MASK);
 647              		.loc 1 75 0
 648 000a 1032     		adds	r2, r2, #16
 649 000c 1378     		ldrb	r3, [r2]	@ zero_extendqisi2
 650 000e 03F0FD03 		and	r3, r3, #253
 651 0012 1370     		strb	r3, [r2]
 652 0014 7047     		bx	lr
 653              	.L6:
 654 0016 00BF     		.align	2
 655              	.L5:
 656 0018 A2430040 		.word	1073759138
 657              		.cfi_endproc
 658              	.LFE1:
 659              		.size	clk_timer_Stop, .-clk_timer_Stop
 660              		.section	.text.clk_timer_StopBlock,"ax",%progbits
 661              		.align	2
 662              		.global	clk_timer_StopBlock
 663              		.thumb
 664              		.thumb_func
 665              		.type	clk_timer_StopBlock, %function
 666              	clk_timer_StopBlock:
 667              	.LFB2:
  76:Generated_Source\PSoC5/clk_timer.c **** }
  77:Generated_Source\PSoC5/clk_timer.c **** 
  78:Generated_Source\PSoC5/clk_timer.c **** 
  79:Generated_Source\PSoC5/clk_timer.c **** #if(CY_PSOC3 || CY_PSOC5LP)
  80:Generated_Source\PSoC5/clk_timer.c **** 
  81:Generated_Source\PSoC5/clk_timer.c **** 
  82:Generated_Source\PSoC5/clk_timer.c **** /*******************************************************************************
  83:Generated_Source\PSoC5/clk_timer.c **** * Function Name: clk_timer_StopBlock
  84:Generated_Source\PSoC5/clk_timer.c **** ********************************************************************************
  85:Generated_Source\PSoC5/clk_timer.c **** *
  86:Generated_Source\PSoC5/clk_timer.c **** * Summary:
  87:Generated_Source\PSoC5/clk_timer.c **** *  Stops the clock and waits for the hardware to actually be disabled before
  88:Generated_Source\PSoC5/clk_timer.c **** *  returning. This ensures that the clock is never truncated (high part of the
  89:Generated_Source\PSoC5/clk_timer.c **** *  cycle will terminate before the clock is disabled and the API returns).
  90:Generated_Source\PSoC5/clk_timer.c **** *  Note that the source clock must be running or this API will never return as
  91:Generated_Source\PSoC5/clk_timer.c **** *  a stopped clock cannot be disabled.
  92:Generated_Source\PSoC5/clk_timer.c **** *
  93:Generated_Source\PSoC5/clk_timer.c **** * Parameters:
  94:Generated_Source\PSoC5/clk_timer.c **** *  None
  95:Generated_Source\PSoC5/clk_timer.c **** *
  96:Generated_Source\PSoC5/clk_timer.c **** * Returns:
  97:Generated_Source\PSoC5/clk_timer.c **** *  None
  98:Generated_Source\PSoC5/clk_timer.c **** *
  99:Generated_Source\PSoC5/clk_timer.c **** *******************************************************************************/
 100:Generated_Source\PSoC5/clk_timer.c **** void clk_timer_StopBlock(void) 
 101:Generated_Source\PSoC5/clk_timer.c **** {
 668              		.loc 1 101 0
 669              		.cfi_startproc
 670              		@ args = 0, pretend = 0, frame = 0
 671              		@ frame_needed = 0, uses_anonymous_args = 0
 672              		@ link register save eliminated.
 102:Generated_Source\PSoC5/clk_timer.c ****     if ((clk_timer_CLKEN & clk_timer_CLKEN_MASK) != 0u)
ARM GAS  C:\Users\info\AppData\Local\Temp\ccqIusgX.s 			page 46


 673              		.loc 1 102 0
 674 0000 164B     		ldr	r3, .L10
 675 0002 1B78     		ldrb	r3, [r3]	@ zero_extendqisi2
 676 0004 13F0020F 		tst	r3, #2
 677 0008 27D0     		beq	.L7
 678              	.LBB2:
 103:Generated_Source\PSoC5/clk_timer.c ****     {
 104:Generated_Source\PSoC5/clk_timer.c **** #if HAS_CLKDIST_LD_DISABLE
 105:Generated_Source\PSoC5/clk_timer.c ****         uint16 oldDivider;
 106:Generated_Source\PSoC5/clk_timer.c **** 
 107:Generated_Source\PSoC5/clk_timer.c ****         CLK_DIST_LD = 0u;
 679              		.loc 1 107 0
 680 000a 1549     		ldr	r1, .L10+4
 681 000c 0023     		movs	r3, #0
 682 000e 0B70     		strb	r3, [r1]
 108:Generated_Source\PSoC5/clk_timer.c **** 
 109:Generated_Source\PSoC5/clk_timer.c ****         /* Clear all the mask bits except ours. */
 110:Generated_Source\PSoC5/clk_timer.c **** #if defined(clk_timer__CFG3)
 111:Generated_Source\PSoC5/clk_timer.c ****         CLK_DIST_AMASK = clk_timer_CLKEN_MASK;
 112:Generated_Source\PSoC5/clk_timer.c ****         CLK_DIST_DMASK = 0x00u;
 113:Generated_Source\PSoC5/clk_timer.c **** #else
 114:Generated_Source\PSoC5/clk_timer.c ****         CLK_DIST_DMASK = clk_timer_CLKEN_MASK;
 683              		.loc 1 114 0
 684 0010 0220     		movs	r0, #2
 685 0012 144A     		ldr	r2, .L10+8
 686 0014 1070     		strb	r0, [r2]
 115:Generated_Source\PSoC5/clk_timer.c ****         CLK_DIST_AMASK = 0x00u;
 687              		.loc 1 115 0
 688 0016 0432     		adds	r2, r2, #4
 689 0018 1370     		strb	r3, [r2]
 116:Generated_Source\PSoC5/clk_timer.c **** #endif /* clk_timer__CFG3 */
 117:Generated_Source\PSoC5/clk_timer.c **** 
 118:Generated_Source\PSoC5/clk_timer.c ****         /* Clear mask of bus clock. */
 119:Generated_Source\PSoC5/clk_timer.c ****         CLK_DIST_BCFG2 &= (uint8)(~BCFG2_MASK);
 690              		.loc 1 119 0
 691 001a 0C3A     		subs	r2, r2, #12
 692 001c 1378     		ldrb	r3, [r2]	@ zero_extendqisi2
 693 001e 03F07F03 		and	r3, r3, #127
 694 0022 1370     		strb	r3, [r2]
 120:Generated_Source\PSoC5/clk_timer.c **** 
 121:Generated_Source\PSoC5/clk_timer.c ****         oldDivider = CY_GET_REG16(clk_timer_DIV_PTR);
 695              		.loc 1 121 0
 696 0024 104B     		ldr	r3, .L10+12
 697 0026 1A88     		ldrh	r2, [r3]
 698 0028 92B2     		uxth	r2, r2
 699              	.LVL0:
 122:Generated_Source\PSoC5/clk_timer.c ****         CY_SET_REG16(CYREG_CLKDIST_WRK0, oldDivider);
 700              		.loc 1 122 0
 701 002a 823B     		subs	r3, r3, #130
 702 002c 1A80     		strh	r2, [r3]	@ movhi
 123:Generated_Source\PSoC5/clk_timer.c ****         CLK_DIST_LD = CYCLK_LD_DISABLE | CYCLK_LD_SYNC_EN | CYCLK_LD_LOAD;
 703              		.loc 1 123 0
 704 002e 0723     		movs	r3, #7
 705 0030 0B70     		strb	r3, [r1]
 706              	.L9:
 124:Generated_Source\PSoC5/clk_timer.c **** 
 125:Generated_Source\PSoC5/clk_timer.c ****         /* Wait for clock to be disabled */
ARM GAS  C:\Users\info\AppData\Local\Temp\ccqIusgX.s 			page 47


 126:Generated_Source\PSoC5/clk_timer.c ****         while ((CLK_DIST_LD & CYCLK_LD_LOAD) != 0u) { }
 707              		.loc 1 126 0 discriminator 1
 708 0032 0B4B     		ldr	r3, .L10+4
 709 0034 1B78     		ldrb	r3, [r3]	@ zero_extendqisi2
 710 0036 13F0010F 		tst	r3, #1
 711 003a FAD1     		bne	.L9
 127:Generated_Source\PSoC5/clk_timer.c **** #endif /* HAS_CLKDIST_LD_DISABLE */
 128:Generated_Source\PSoC5/clk_timer.c **** 
 129:Generated_Source\PSoC5/clk_timer.c ****         /* Clear the bit to disable the clock. */
 130:Generated_Source\PSoC5/clk_timer.c ****         clk_timer_CLKEN &= (uint8)(~clk_timer_CLKEN_MASK);
 712              		.loc 1 130 0
 713 003c 0749     		ldr	r1, .L10
 714 003e 0B78     		ldrb	r3, [r1]	@ zero_extendqisi2
 715 0040 03F0FD03 		and	r3, r3, #253
 716 0044 0B70     		strb	r3, [r1]
 131:Generated_Source\PSoC5/clk_timer.c ****         clk_timer_CLKSTBY &= (uint8)(~clk_timer_CLKSTBY_MASK);
 717              		.loc 1 131 0
 718 0046 1031     		adds	r1, r1, #16
 719 0048 0B78     		ldrb	r3, [r1]	@ zero_extendqisi2
 720 004a 03F0FD03 		and	r3, r3, #253
 721 004e 0B70     		strb	r3, [r1]
 132:Generated_Source\PSoC5/clk_timer.c **** 
 133:Generated_Source\PSoC5/clk_timer.c **** #if HAS_CLKDIST_LD_DISABLE
 134:Generated_Source\PSoC5/clk_timer.c ****         /* Clear the disable bit */
 135:Generated_Source\PSoC5/clk_timer.c ****         CLK_DIST_LD = 0x00u;
 722              		.loc 1 135 0
 723 0050 0021     		movs	r1, #0
 724 0052 034B     		ldr	r3, .L10+4
 725 0054 1970     		strb	r1, [r3]
 136:Generated_Source\PSoC5/clk_timer.c ****         CY_SET_REG16(clk_timer_DIV_PTR, oldDivider);
 726              		.loc 1 136 0
 727 0056 8333     		adds	r3, r3, #131
 728 0058 1A80     		strh	r2, [r3]	@ movhi
 729              	.LVL1:
 730              	.L7:
 731 005a 7047     		bx	lr
 732              	.L11:
 733              		.align	2
 734              	.L10:
 735 005c A2430040 		.word	1073759138
 736 0060 01400040 		.word	1073758209
 737 0064 10400040 		.word	1073758224
 738 0068 84400040 		.word	1073758340
 739              	.LBE2:
 740              		.cfi_endproc
 741              	.LFE2:
 742              		.size	clk_timer_StopBlock, .-clk_timer_StopBlock
 743              		.section	.text.clk_timer_StandbyPower,"ax",%progbits
 744              		.align	2
 745              		.global	clk_timer_StandbyPower
 746              		.thumb
 747              		.thumb_func
 748              		.type	clk_timer_StandbyPower, %function
 749              	clk_timer_StandbyPower:
 750              	.LFB3:
 137:Generated_Source\PSoC5/clk_timer.c **** #endif /* HAS_CLKDIST_LD_DISABLE */
 138:Generated_Source\PSoC5/clk_timer.c ****     }
ARM GAS  C:\Users\info\AppData\Local\Temp\ccqIusgX.s 			page 48


 139:Generated_Source\PSoC5/clk_timer.c **** }
 140:Generated_Source\PSoC5/clk_timer.c **** #endif /* (CY_PSOC3 || CY_PSOC5LP) */
 141:Generated_Source\PSoC5/clk_timer.c **** 
 142:Generated_Source\PSoC5/clk_timer.c **** 
 143:Generated_Source\PSoC5/clk_timer.c **** /*******************************************************************************
 144:Generated_Source\PSoC5/clk_timer.c **** * Function Name: clk_timer_StandbyPower
 145:Generated_Source\PSoC5/clk_timer.c **** ********************************************************************************
 146:Generated_Source\PSoC5/clk_timer.c **** *
 147:Generated_Source\PSoC5/clk_timer.c **** * Summary:
 148:Generated_Source\PSoC5/clk_timer.c **** *  Sets whether the clock is active in standby mode.
 149:Generated_Source\PSoC5/clk_timer.c **** *
 150:Generated_Source\PSoC5/clk_timer.c **** * Parameters:
 151:Generated_Source\PSoC5/clk_timer.c **** *  state:  0 to disable clock during standby, nonzero to enable.
 152:Generated_Source\PSoC5/clk_timer.c **** *
 153:Generated_Source\PSoC5/clk_timer.c **** * Returns:
 154:Generated_Source\PSoC5/clk_timer.c **** *  None
 155:Generated_Source\PSoC5/clk_timer.c **** *
 156:Generated_Source\PSoC5/clk_timer.c **** *******************************************************************************/
 157:Generated_Source\PSoC5/clk_timer.c **** void clk_timer_StandbyPower(uint8 state) 
 158:Generated_Source\PSoC5/clk_timer.c **** {
 751              		.loc 1 158 0
 752              		.cfi_startproc
 753              		@ args = 0, pretend = 0, frame = 0
 754              		@ frame_needed = 0, uses_anonymous_args = 0
 755              		@ link register save eliminated.
 756              	.LVL2:
 159:Generated_Source\PSoC5/clk_timer.c ****     if(state == 0u)
 757              		.loc 1 159 0
 758 0000 28B9     		cbnz	r0, .L13
 160:Generated_Source\PSoC5/clk_timer.c ****     {
 161:Generated_Source\PSoC5/clk_timer.c ****         clk_timer_CLKSTBY &= (uint8)(~clk_timer_CLKSTBY_MASK);
 759              		.loc 1 161 0
 760 0002 064A     		ldr	r2, .L15
 761 0004 1378     		ldrb	r3, [r2]	@ zero_extendqisi2
 762 0006 03F0FD03 		and	r3, r3, #253
 763 000a 1370     		strb	r3, [r2]
 764 000c 7047     		bx	lr
 765              	.L13:
 162:Generated_Source\PSoC5/clk_timer.c ****     }
 163:Generated_Source\PSoC5/clk_timer.c ****     else
 164:Generated_Source\PSoC5/clk_timer.c ****     {
 165:Generated_Source\PSoC5/clk_timer.c ****         clk_timer_CLKSTBY |= clk_timer_CLKSTBY_MASK;
 766              		.loc 1 165 0
 767 000e 034A     		ldr	r2, .L15
 768 0010 1378     		ldrb	r3, [r2]	@ zero_extendqisi2
 769 0012 43F00203 		orr	r3, r3, #2
 770 0016 1370     		strb	r3, [r2]
 771 0018 7047     		bx	lr
 772              	.L16:
 773 001a 00BF     		.align	2
 774              	.L15:
 775 001c B2430040 		.word	1073759154
 776              		.cfi_endproc
 777              	.LFE3:
 778              		.size	clk_timer_StandbyPower, .-clk_timer_StandbyPower
 779              		.section	.text.clk_timer_GetDividerRegister,"ax",%progbits
 780              		.align	2
ARM GAS  C:\Users\info\AppData\Local\Temp\ccqIusgX.s 			page 49


 781              		.global	clk_timer_GetDividerRegister
 782              		.thumb
 783              		.thumb_func
 784              		.type	clk_timer_GetDividerRegister, %function
 785              	clk_timer_GetDividerRegister:
 786              	.LFB5:
 166:Generated_Source\PSoC5/clk_timer.c ****     }
 167:Generated_Source\PSoC5/clk_timer.c **** }
 168:Generated_Source\PSoC5/clk_timer.c **** 
 169:Generated_Source\PSoC5/clk_timer.c **** 
 170:Generated_Source\PSoC5/clk_timer.c **** /*******************************************************************************
 171:Generated_Source\PSoC5/clk_timer.c **** * Function Name: clk_timer_SetDividerRegister
 172:Generated_Source\PSoC5/clk_timer.c **** ********************************************************************************
 173:Generated_Source\PSoC5/clk_timer.c **** *
 174:Generated_Source\PSoC5/clk_timer.c **** * Summary:
 175:Generated_Source\PSoC5/clk_timer.c **** *  Modifies the clock divider and, thus, the frequency. When the clock divider
 176:Generated_Source\PSoC5/clk_timer.c **** *  register is set to zero or changed from zero, the clock will be temporarily
 177:Generated_Source\PSoC5/clk_timer.c **** *  disabled in order to change the SSS mode bit. If the clock is enabled when
 178:Generated_Source\PSoC5/clk_timer.c **** *  SetDividerRegister is called, then the source clock must be running.
 179:Generated_Source\PSoC5/clk_timer.c **** *
 180:Generated_Source\PSoC5/clk_timer.c **** * Parameters:
 181:Generated_Source\PSoC5/clk_timer.c **** *  clkDivider:  Divider register value (0-65,535). This value is NOT the
 182:Generated_Source\PSoC5/clk_timer.c **** *    divider; the clock hardware divides by clkDivider plus one. For example,
 183:Generated_Source\PSoC5/clk_timer.c **** *    to divide the clock by 2, this parameter should be set to 1.
 184:Generated_Source\PSoC5/clk_timer.c **** *  restart:  If nonzero, restarts the clock divider: the current clock cycle
 185:Generated_Source\PSoC5/clk_timer.c **** *   will be truncated and the new divide value will take effect immediately. If
 186:Generated_Source\PSoC5/clk_timer.c **** *   zero, the new divide value will take effect at the end of the current clock
 187:Generated_Source\PSoC5/clk_timer.c **** *   cycle.
 188:Generated_Source\PSoC5/clk_timer.c **** *
 189:Generated_Source\PSoC5/clk_timer.c **** * Returns:
 190:Generated_Source\PSoC5/clk_timer.c **** *  None
 191:Generated_Source\PSoC5/clk_timer.c **** *
 192:Generated_Source\PSoC5/clk_timer.c **** *******************************************************************************/
 193:Generated_Source\PSoC5/clk_timer.c **** void clk_timer_SetDividerRegister(uint16 clkDivider, uint8 restart)
 194:Generated_Source\PSoC5/clk_timer.c ****                                 
 195:Generated_Source\PSoC5/clk_timer.c **** {
 196:Generated_Source\PSoC5/clk_timer.c ****     uint8 enabled;
 197:Generated_Source\PSoC5/clk_timer.c **** 
 198:Generated_Source\PSoC5/clk_timer.c ****     uint8 currSrc = clk_timer_GetSourceRegister();
 199:Generated_Source\PSoC5/clk_timer.c ****     uint16 oldDivider = clk_timer_GetDividerRegister();
 200:Generated_Source\PSoC5/clk_timer.c **** 
 201:Generated_Source\PSoC5/clk_timer.c ****     if (clkDivider != oldDivider)
 202:Generated_Source\PSoC5/clk_timer.c ****     {
 203:Generated_Source\PSoC5/clk_timer.c ****         enabled = clk_timer_CLKEN & clk_timer_CLKEN_MASK;
 204:Generated_Source\PSoC5/clk_timer.c **** 
 205:Generated_Source\PSoC5/clk_timer.c ****         if ((currSrc == (uint8)CYCLK_SRC_SEL_CLK_SYNC_D) && ((oldDivider == 0u) || (clkDivider == 0
 206:Generated_Source\PSoC5/clk_timer.c ****         {
 207:Generated_Source\PSoC5/clk_timer.c ****             /* Moving to/from SSS requires correct ordering to prevent halting the clock    */
 208:Generated_Source\PSoC5/clk_timer.c ****             if (oldDivider == 0u)
 209:Generated_Source\PSoC5/clk_timer.c ****             {
 210:Generated_Source\PSoC5/clk_timer.c ****                 /* Moving away from SSS, set the divider first so when SSS is cleared we    */
 211:Generated_Source\PSoC5/clk_timer.c ****                 /* don't halt the clock.  Using the shadow load isn't required as the       */
 212:Generated_Source\PSoC5/clk_timer.c ****                 /* divider is ignored while SSS is set.                                     */
 213:Generated_Source\PSoC5/clk_timer.c ****                 CY_SET_REG16(clk_timer_DIV_PTR, clkDivider);
 214:Generated_Source\PSoC5/clk_timer.c ****                 clk_timer_MOD_SRC &= (uint8)(~CYCLK_SSS);
 215:Generated_Source\PSoC5/clk_timer.c ****             }
 216:Generated_Source\PSoC5/clk_timer.c ****             else
ARM GAS  C:\Users\info\AppData\Local\Temp\ccqIusgX.s 			page 50


 217:Generated_Source\PSoC5/clk_timer.c ****             {
 218:Generated_Source\PSoC5/clk_timer.c ****                 /* Moving to SSS, set SSS which then ignores the divider and we can set     */
 219:Generated_Source\PSoC5/clk_timer.c ****                 /* it without bothering with the shadow load.                               */
 220:Generated_Source\PSoC5/clk_timer.c ****                 clk_timer_MOD_SRC |= CYCLK_SSS;
 221:Generated_Source\PSoC5/clk_timer.c ****                 CY_SET_REG16(clk_timer_DIV_PTR, clkDivider);
 222:Generated_Source\PSoC5/clk_timer.c ****             }
 223:Generated_Source\PSoC5/clk_timer.c ****         }
 224:Generated_Source\PSoC5/clk_timer.c ****         else
 225:Generated_Source\PSoC5/clk_timer.c ****         {
 226:Generated_Source\PSoC5/clk_timer.c **** 			
 227:Generated_Source\PSoC5/clk_timer.c ****             if (enabled != 0u)
 228:Generated_Source\PSoC5/clk_timer.c ****             {
 229:Generated_Source\PSoC5/clk_timer.c ****                 CLK_DIST_LD = 0x00u;
 230:Generated_Source\PSoC5/clk_timer.c **** 
 231:Generated_Source\PSoC5/clk_timer.c ****                 /* Clear all the mask bits except ours. */
 232:Generated_Source\PSoC5/clk_timer.c **** #if defined(clk_timer__CFG3)
 233:Generated_Source\PSoC5/clk_timer.c ****                 CLK_DIST_AMASK = clk_timer_CLKEN_MASK;
 234:Generated_Source\PSoC5/clk_timer.c ****                 CLK_DIST_DMASK = 0x00u;
 235:Generated_Source\PSoC5/clk_timer.c **** #else
 236:Generated_Source\PSoC5/clk_timer.c ****                 CLK_DIST_DMASK = clk_timer_CLKEN_MASK;
 237:Generated_Source\PSoC5/clk_timer.c ****                 CLK_DIST_AMASK = 0x00u;
 238:Generated_Source\PSoC5/clk_timer.c **** #endif /* clk_timer__CFG3 */
 239:Generated_Source\PSoC5/clk_timer.c ****                 /* Clear mask of bus clock. */
 240:Generated_Source\PSoC5/clk_timer.c ****                 CLK_DIST_BCFG2 &= (uint8)(~BCFG2_MASK);
 241:Generated_Source\PSoC5/clk_timer.c **** 
 242:Generated_Source\PSoC5/clk_timer.c ****                 /* If clock is currently enabled, disable it if async or going from N-to-1*/
 243:Generated_Source\PSoC5/clk_timer.c ****                 if (((clk_timer_MOD_SRC & CYCLK_SYNC) == 0u) || (clkDivider == 0u))
 244:Generated_Source\PSoC5/clk_timer.c ****                 {
 245:Generated_Source\PSoC5/clk_timer.c **** #if HAS_CLKDIST_LD_DISABLE
 246:Generated_Source\PSoC5/clk_timer.c ****                     CY_SET_REG16(CYREG_CLKDIST_WRK0, oldDivider);
 247:Generated_Source\PSoC5/clk_timer.c ****                     CLK_DIST_LD = CYCLK_LD_DISABLE|CYCLK_LD_SYNC_EN|CYCLK_LD_LOAD;
 248:Generated_Source\PSoC5/clk_timer.c **** 
 249:Generated_Source\PSoC5/clk_timer.c ****                     /* Wait for clock to be disabled */
 250:Generated_Source\PSoC5/clk_timer.c ****                     while ((CLK_DIST_LD & CYCLK_LD_LOAD) != 0u) { }
 251:Generated_Source\PSoC5/clk_timer.c **** #endif /* HAS_CLKDIST_LD_DISABLE */
 252:Generated_Source\PSoC5/clk_timer.c **** 
 253:Generated_Source\PSoC5/clk_timer.c ****                     clk_timer_CLKEN &= (uint8)(~clk_timer_CLKEN_MASK);
 254:Generated_Source\PSoC5/clk_timer.c **** 
 255:Generated_Source\PSoC5/clk_timer.c **** #if HAS_CLKDIST_LD_DISABLE
 256:Generated_Source\PSoC5/clk_timer.c ****                     /* Clear the disable bit */
 257:Generated_Source\PSoC5/clk_timer.c ****                     CLK_DIST_LD = 0x00u;
 258:Generated_Source\PSoC5/clk_timer.c **** #endif /* HAS_CLKDIST_LD_DISABLE */
 259:Generated_Source\PSoC5/clk_timer.c ****                 }
 260:Generated_Source\PSoC5/clk_timer.c ****             }
 261:Generated_Source\PSoC5/clk_timer.c **** 
 262:Generated_Source\PSoC5/clk_timer.c ****             /* Load divide value. */
 263:Generated_Source\PSoC5/clk_timer.c ****             if ((clk_timer_CLKEN & clk_timer_CLKEN_MASK) != 0u)
 264:Generated_Source\PSoC5/clk_timer.c ****             {
 265:Generated_Source\PSoC5/clk_timer.c ****                 /* If the clock is still enabled, use the shadow registers */
 266:Generated_Source\PSoC5/clk_timer.c ****                 CY_SET_REG16(CYREG_CLKDIST_WRK0, clkDivider);
 267:Generated_Source\PSoC5/clk_timer.c **** 
 268:Generated_Source\PSoC5/clk_timer.c ****                 CLK_DIST_LD = (CYCLK_LD_LOAD | ((restart != 0u) ? CYCLK_LD_SYNC_EN : 0x00u));
 269:Generated_Source\PSoC5/clk_timer.c ****                 while ((CLK_DIST_LD & CYCLK_LD_LOAD) != 0u) { }
 270:Generated_Source\PSoC5/clk_timer.c ****             }
 271:Generated_Source\PSoC5/clk_timer.c ****             else
 272:Generated_Source\PSoC5/clk_timer.c ****             {
 273:Generated_Source\PSoC5/clk_timer.c ****                 /* If the clock is disabled, set the divider directly */
ARM GAS  C:\Users\info\AppData\Local\Temp\ccqIusgX.s 			page 51


 274:Generated_Source\PSoC5/clk_timer.c ****                 CY_SET_REG16(clk_timer_DIV_PTR, clkDivider);
 275:Generated_Source\PSoC5/clk_timer.c **** 				clk_timer_CLKEN |= enabled;
 276:Generated_Source\PSoC5/clk_timer.c ****             }
 277:Generated_Source\PSoC5/clk_timer.c ****         }
 278:Generated_Source\PSoC5/clk_timer.c ****     }
 279:Generated_Source\PSoC5/clk_timer.c **** }
 280:Generated_Source\PSoC5/clk_timer.c **** 
 281:Generated_Source\PSoC5/clk_timer.c **** 
 282:Generated_Source\PSoC5/clk_timer.c **** /*******************************************************************************
 283:Generated_Source\PSoC5/clk_timer.c **** * Function Name: clk_timer_GetDividerRegister
 284:Generated_Source\PSoC5/clk_timer.c **** ********************************************************************************
 285:Generated_Source\PSoC5/clk_timer.c **** *
 286:Generated_Source\PSoC5/clk_timer.c **** * Summary:
 287:Generated_Source\PSoC5/clk_timer.c **** *  Gets the clock divider register value.
 288:Generated_Source\PSoC5/clk_timer.c **** *
 289:Generated_Source\PSoC5/clk_timer.c **** * Parameters:
 290:Generated_Source\PSoC5/clk_timer.c **** *  None
 291:Generated_Source\PSoC5/clk_timer.c **** *
 292:Generated_Source\PSoC5/clk_timer.c **** * Returns:
 293:Generated_Source\PSoC5/clk_timer.c **** *  Divide value of the clock minus 1. For example, if the clock is set to
 294:Generated_Source\PSoC5/clk_timer.c **** *  divide by 2, the return value will be 1.
 295:Generated_Source\PSoC5/clk_timer.c **** *
 296:Generated_Source\PSoC5/clk_timer.c **** *******************************************************************************/
 297:Generated_Source\PSoC5/clk_timer.c **** uint16 clk_timer_GetDividerRegister(void) 
 298:Generated_Source\PSoC5/clk_timer.c **** {
 787              		.loc 1 298 0
 788              		.cfi_startproc
 789              		@ args = 0, pretend = 0, frame = 0
 790              		@ frame_needed = 0, uses_anonymous_args = 0
 791              		@ link register save eliminated.
 299:Generated_Source\PSoC5/clk_timer.c ****     return CY_GET_REG16(clk_timer_DIV_PTR);
 792              		.loc 1 299 0
 793 0000 014B     		ldr	r3, .L18
 794 0002 1888     		ldrh	r0, [r3]
 300:Generated_Source\PSoC5/clk_timer.c **** }
 795              		.loc 1 300 0
 796 0004 80B2     		uxth	r0, r0
 797 0006 7047     		bx	lr
 798              	.L19:
 799              		.align	2
 800              	.L18:
 801 0008 84400040 		.word	1073758340
 802              		.cfi_endproc
 803              	.LFE5:
 804              		.size	clk_timer_GetDividerRegister, .-clk_timer_GetDividerRegister
 805              		.section	.text.clk_timer_SetModeRegister,"ax",%progbits
 806              		.align	2
 807              		.global	clk_timer_SetModeRegister
 808              		.thumb
 809              		.thumb_func
 810              		.type	clk_timer_SetModeRegister, %function
 811              	clk_timer_SetModeRegister:
 812              	.LFB6:
 301:Generated_Source\PSoC5/clk_timer.c **** 
 302:Generated_Source\PSoC5/clk_timer.c **** 
 303:Generated_Source\PSoC5/clk_timer.c **** /*******************************************************************************
 304:Generated_Source\PSoC5/clk_timer.c **** * Function Name: clk_timer_SetModeRegister
ARM GAS  C:\Users\info\AppData\Local\Temp\ccqIusgX.s 			page 52


 305:Generated_Source\PSoC5/clk_timer.c **** ********************************************************************************
 306:Generated_Source\PSoC5/clk_timer.c **** *
 307:Generated_Source\PSoC5/clk_timer.c **** * Summary:
 308:Generated_Source\PSoC5/clk_timer.c **** *  Sets flags that control the operating mode of the clock. This function only
 309:Generated_Source\PSoC5/clk_timer.c **** *  changes flags from 0 to 1; flags that are already 1 will remain unchanged.
 310:Generated_Source\PSoC5/clk_timer.c **** *  To clear flags, use the ClearModeRegister function. The clock must be
 311:Generated_Source\PSoC5/clk_timer.c **** *  disabled before changing the mode.
 312:Generated_Source\PSoC5/clk_timer.c **** *
 313:Generated_Source\PSoC5/clk_timer.c **** * Parameters:
 314:Generated_Source\PSoC5/clk_timer.c **** *  clkMode: Bit mask containing the bits to set. For PSoC 3 and PSoC 5,
 315:Generated_Source\PSoC5/clk_timer.c **** *   clkMode should be a set of the following optional bits or'ed together.
 316:Generated_Source\PSoC5/clk_timer.c **** *   - CYCLK_EARLY Enable early phase mode. Rising edge of output clock will
 317:Generated_Source\PSoC5/clk_timer.c **** *                 occur when the divider count reaches half of the divide
 318:Generated_Source\PSoC5/clk_timer.c **** *                 value.
 319:Generated_Source\PSoC5/clk_timer.c **** *   - CYCLK_DUTY  Enable 50% duty cycle output. When enabled, the output clock
 320:Generated_Source\PSoC5/clk_timer.c **** *                 is asserted for approximately half of its period. When
 321:Generated_Source\PSoC5/clk_timer.c **** *                 disabled, the output clock is asserted for one period of the
 322:Generated_Source\PSoC5/clk_timer.c **** *                 source clock.
 323:Generated_Source\PSoC5/clk_timer.c **** *   - CYCLK_SYNC  Enable output synchronization to master clock. This should
 324:Generated_Source\PSoC5/clk_timer.c **** *                 be enabled for all synchronous clocks.
 325:Generated_Source\PSoC5/clk_timer.c **** *   See the Technical Reference Manual for details about setting the mode of
 326:Generated_Source\PSoC5/clk_timer.c **** *   the clock. Specifically, see the CLKDIST.DCFG.CFG2 register.
 327:Generated_Source\PSoC5/clk_timer.c **** *
 328:Generated_Source\PSoC5/clk_timer.c **** * Returns:
 329:Generated_Source\PSoC5/clk_timer.c **** *  None
 330:Generated_Source\PSoC5/clk_timer.c **** *
 331:Generated_Source\PSoC5/clk_timer.c **** *******************************************************************************/
 332:Generated_Source\PSoC5/clk_timer.c **** void clk_timer_SetModeRegister(uint8 modeBitMask) 
 333:Generated_Source\PSoC5/clk_timer.c **** {
 813              		.loc 1 333 0
 814              		.cfi_startproc
 815              		@ args = 0, pretend = 0, frame = 0
 816              		@ frame_needed = 0, uses_anonymous_args = 0
 817              		@ link register save eliminated.
 818              	.LVL3:
 334:Generated_Source\PSoC5/clk_timer.c ****     clk_timer_MOD_SRC |= modeBitMask & (uint8)clk_timer_MODE_MASK;
 819              		.loc 1 334 0
 820 0000 034B     		ldr	r3, .L21
 821 0002 1A78     		ldrb	r2, [r3]	@ zero_extendqisi2
 822 0004 00F0F800 		and	r0, r0, #248
 823              	.LVL4:
 824 0008 1043     		orrs	r0, r0, r2
 825 000a 1870     		strb	r0, [r3]
 826 000c 7047     		bx	lr
 827              	.L22:
 828 000e 00BF     		.align	2
 829              	.L21:
 830 0010 86400040 		.word	1073758342
 831              		.cfi_endproc
 832              	.LFE6:
 833              		.size	clk_timer_SetModeRegister, .-clk_timer_SetModeRegister
 834              		.section	.text.clk_timer_ClearModeRegister,"ax",%progbits
 835              		.align	2
 836              		.global	clk_timer_ClearModeRegister
 837              		.thumb
 838              		.thumb_func
 839              		.type	clk_timer_ClearModeRegister, %function
ARM GAS  C:\Users\info\AppData\Local\Temp\ccqIusgX.s 			page 53


 840              	clk_timer_ClearModeRegister:
 841              	.LFB7:
 335:Generated_Source\PSoC5/clk_timer.c **** }
 336:Generated_Source\PSoC5/clk_timer.c **** 
 337:Generated_Source\PSoC5/clk_timer.c **** 
 338:Generated_Source\PSoC5/clk_timer.c **** /*******************************************************************************
 339:Generated_Source\PSoC5/clk_timer.c **** * Function Name: clk_timer_ClearModeRegister
 340:Generated_Source\PSoC5/clk_timer.c **** ********************************************************************************
 341:Generated_Source\PSoC5/clk_timer.c **** *
 342:Generated_Source\PSoC5/clk_timer.c **** * Summary:
 343:Generated_Source\PSoC5/clk_timer.c **** *  Clears flags that control the operating mode of the clock. This function
 344:Generated_Source\PSoC5/clk_timer.c **** *  only changes flags from 1 to 0; flags that are already 0 will remain
 345:Generated_Source\PSoC5/clk_timer.c **** *  unchanged. To set flags, use the SetModeRegister function. The clock must be
 346:Generated_Source\PSoC5/clk_timer.c **** *  disabled before changing the mode.
 347:Generated_Source\PSoC5/clk_timer.c **** *
 348:Generated_Source\PSoC5/clk_timer.c **** * Parameters:
 349:Generated_Source\PSoC5/clk_timer.c **** *  clkMode: Bit mask containing the bits to clear. For PSoC 3 and PSoC 5,
 350:Generated_Source\PSoC5/clk_timer.c **** *   clkMode should be a set of the following optional bits or'ed together.
 351:Generated_Source\PSoC5/clk_timer.c **** *   - CYCLK_EARLY Enable early phase mode. Rising edge of output clock will
 352:Generated_Source\PSoC5/clk_timer.c **** *                 occur when the divider count reaches half of the divide
 353:Generated_Source\PSoC5/clk_timer.c **** *                 value.
 354:Generated_Source\PSoC5/clk_timer.c **** *   - CYCLK_DUTY  Enable 50% duty cycle output. When enabled, the output clock
 355:Generated_Source\PSoC5/clk_timer.c **** *                 is asserted for approximately half of its period. When
 356:Generated_Source\PSoC5/clk_timer.c **** *                 disabled, the output clock is asserted for one period of the
 357:Generated_Source\PSoC5/clk_timer.c **** *                 source clock.
 358:Generated_Source\PSoC5/clk_timer.c **** *   - CYCLK_SYNC  Enable output synchronization to master clock. This should
 359:Generated_Source\PSoC5/clk_timer.c **** *                 be enabled for all synchronous clocks.
 360:Generated_Source\PSoC5/clk_timer.c **** *   See the Technical Reference Manual for details about setting the mode of
 361:Generated_Source\PSoC5/clk_timer.c **** *   the clock. Specifically, see the CLKDIST.DCFG.CFG2 register.
 362:Generated_Source\PSoC5/clk_timer.c **** *
 363:Generated_Source\PSoC5/clk_timer.c **** * Returns:
 364:Generated_Source\PSoC5/clk_timer.c **** *  None
 365:Generated_Source\PSoC5/clk_timer.c **** *
 366:Generated_Source\PSoC5/clk_timer.c **** *******************************************************************************/
 367:Generated_Source\PSoC5/clk_timer.c **** void clk_timer_ClearModeRegister(uint8 modeBitMask) 
 368:Generated_Source\PSoC5/clk_timer.c **** {
 842              		.loc 1 368 0
 843              		.cfi_startproc
 844              		@ args = 0, pretend = 0, frame = 0
 845              		@ frame_needed = 0, uses_anonymous_args = 0
 846              		@ link register save eliminated.
 847              	.LVL5:
 369:Generated_Source\PSoC5/clk_timer.c ****     clk_timer_MOD_SRC &= (uint8)(~modeBitMask) | (uint8)(~(uint8)(clk_timer_MODE_MASK));
 848              		.loc 1 369 0
 849 0000 044B     		ldr	r3, .L24
 850 0002 1A78     		ldrb	r2, [r3]	@ zero_extendqisi2
 851 0004 C043     		mvns	r0, r0
 852              	.LVL6:
 853 0006 C0B2     		uxtb	r0, r0
 854 0008 40F00700 		orr	r0, r0, #7
 855 000c 1040     		ands	r0, r0, r2
 856 000e 1870     		strb	r0, [r3]
 857 0010 7047     		bx	lr
 858              	.L25:
 859 0012 00BF     		.align	2
 860              	.L24:
 861 0014 86400040 		.word	1073758342
ARM GAS  C:\Users\info\AppData\Local\Temp\ccqIusgX.s 			page 54


 862              		.cfi_endproc
 863              	.LFE7:
 864              		.size	clk_timer_ClearModeRegister, .-clk_timer_ClearModeRegister
 865              		.section	.text.clk_timer_GetModeRegister,"ax",%progbits
 866              		.align	2
 867              		.global	clk_timer_GetModeRegister
 868              		.thumb
 869              		.thumb_func
 870              		.type	clk_timer_GetModeRegister, %function
 871              	clk_timer_GetModeRegister:
 872              	.LFB8:
 370:Generated_Source\PSoC5/clk_timer.c **** }
 371:Generated_Source\PSoC5/clk_timer.c **** 
 372:Generated_Source\PSoC5/clk_timer.c **** 
 373:Generated_Source\PSoC5/clk_timer.c **** /*******************************************************************************
 374:Generated_Source\PSoC5/clk_timer.c **** * Function Name: clk_timer_GetModeRegister
 375:Generated_Source\PSoC5/clk_timer.c **** ********************************************************************************
 376:Generated_Source\PSoC5/clk_timer.c **** *
 377:Generated_Source\PSoC5/clk_timer.c **** * Summary:
 378:Generated_Source\PSoC5/clk_timer.c **** *  Gets the clock mode register value.
 379:Generated_Source\PSoC5/clk_timer.c **** *
 380:Generated_Source\PSoC5/clk_timer.c **** * Parameters:
 381:Generated_Source\PSoC5/clk_timer.c **** *  None
 382:Generated_Source\PSoC5/clk_timer.c **** *
 383:Generated_Source\PSoC5/clk_timer.c **** * Returns:
 384:Generated_Source\PSoC5/clk_timer.c **** *  Bit mask representing the enabled mode bits. See the SetModeRegister and
 385:Generated_Source\PSoC5/clk_timer.c **** *  ClearModeRegister descriptions for details about the mode bits.
 386:Generated_Source\PSoC5/clk_timer.c **** *
 387:Generated_Source\PSoC5/clk_timer.c **** *******************************************************************************/
 388:Generated_Source\PSoC5/clk_timer.c **** uint8 clk_timer_GetModeRegister(void) 
 389:Generated_Source\PSoC5/clk_timer.c **** {
 873              		.loc 1 389 0
 874              		.cfi_startproc
 875              		@ args = 0, pretend = 0, frame = 0
 876              		@ frame_needed = 0, uses_anonymous_args = 0
 877              		@ link register save eliminated.
 390:Generated_Source\PSoC5/clk_timer.c ****     return clk_timer_MOD_SRC & (uint8)(clk_timer_MODE_MASK);
 878              		.loc 1 390 0
 879 0000 024B     		ldr	r3, .L27
 880 0002 1878     		ldrb	r0, [r3]	@ zero_extendqisi2
 391:Generated_Source\PSoC5/clk_timer.c **** }
 881              		.loc 1 391 0
 882 0004 00F0F800 		and	r0, r0, #248
 883 0008 7047     		bx	lr
 884              	.L28:
 885 000a 00BF     		.align	2
 886              	.L27:
 887 000c 86400040 		.word	1073758342
 888              		.cfi_endproc
 889              	.LFE8:
 890              		.size	clk_timer_GetModeRegister, .-clk_timer_GetModeRegister
 891              		.section	.text.clk_timer_GetSourceRegister,"ax",%progbits
 892              		.align	2
 893              		.global	clk_timer_GetSourceRegister
 894              		.thumb
 895              		.thumb_func
 896              		.type	clk_timer_GetSourceRegister, %function
ARM GAS  C:\Users\info\AppData\Local\Temp\ccqIusgX.s 			page 55


 897              	clk_timer_GetSourceRegister:
 898              	.LFB10:
 392:Generated_Source\PSoC5/clk_timer.c **** 
 393:Generated_Source\PSoC5/clk_timer.c **** 
 394:Generated_Source\PSoC5/clk_timer.c **** /*******************************************************************************
 395:Generated_Source\PSoC5/clk_timer.c **** * Function Name: clk_timer_SetSourceRegister
 396:Generated_Source\PSoC5/clk_timer.c **** ********************************************************************************
 397:Generated_Source\PSoC5/clk_timer.c **** *
 398:Generated_Source\PSoC5/clk_timer.c **** * Summary:
 399:Generated_Source\PSoC5/clk_timer.c **** *  Sets the input source of the clock. The clock must be disabled before
 400:Generated_Source\PSoC5/clk_timer.c **** *  changing the source. The old and new clock sources must be running.
 401:Generated_Source\PSoC5/clk_timer.c **** *
 402:Generated_Source\PSoC5/clk_timer.c **** * Parameters:
 403:Generated_Source\PSoC5/clk_timer.c **** *  clkSource:  For PSoC 3 and PSoC 5 devices, clkSource should be one of the
 404:Generated_Source\PSoC5/clk_timer.c **** *   following input sources:
 405:Generated_Source\PSoC5/clk_timer.c **** *   - CYCLK_SRC_SEL_SYNC_DIG
 406:Generated_Source\PSoC5/clk_timer.c **** *   - CYCLK_SRC_SEL_IMO
 407:Generated_Source\PSoC5/clk_timer.c **** *   - CYCLK_SRC_SEL_XTALM
 408:Generated_Source\PSoC5/clk_timer.c **** *   - CYCLK_SRC_SEL_ILO
 409:Generated_Source\PSoC5/clk_timer.c **** *   - CYCLK_SRC_SEL_PLL
 410:Generated_Source\PSoC5/clk_timer.c **** *   - CYCLK_SRC_SEL_XTALK
 411:Generated_Source\PSoC5/clk_timer.c **** *   - CYCLK_SRC_SEL_DSI_G
 412:Generated_Source\PSoC5/clk_timer.c **** *   - CYCLK_SRC_SEL_DSI_D/CYCLK_SRC_SEL_DSI_A
 413:Generated_Source\PSoC5/clk_timer.c **** *   See the Technical Reference Manual for details on clock sources.
 414:Generated_Source\PSoC5/clk_timer.c **** *
 415:Generated_Source\PSoC5/clk_timer.c **** * Returns:
 416:Generated_Source\PSoC5/clk_timer.c **** *  None
 417:Generated_Source\PSoC5/clk_timer.c **** *
 418:Generated_Source\PSoC5/clk_timer.c **** *******************************************************************************/
 419:Generated_Source\PSoC5/clk_timer.c **** void clk_timer_SetSourceRegister(uint8 clkSource) 
 420:Generated_Source\PSoC5/clk_timer.c **** {
 421:Generated_Source\PSoC5/clk_timer.c ****     uint16 currDiv = clk_timer_GetDividerRegister();
 422:Generated_Source\PSoC5/clk_timer.c ****     uint8 oldSrc = clk_timer_GetSourceRegister();
 423:Generated_Source\PSoC5/clk_timer.c **** 
 424:Generated_Source\PSoC5/clk_timer.c ****     if (((oldSrc != ((uint8)CYCLK_SRC_SEL_CLK_SYNC_D)) && 
 425:Generated_Source\PSoC5/clk_timer.c ****         (clkSource == ((uint8)CYCLK_SRC_SEL_CLK_SYNC_D))) && (currDiv == 0u))
 426:Generated_Source\PSoC5/clk_timer.c ****     {
 427:Generated_Source\PSoC5/clk_timer.c ****         /* Switching to Master and divider is 1, set SSS, which will output master, */
 428:Generated_Source\PSoC5/clk_timer.c ****         /* then set the source so we are consistent.                                */
 429:Generated_Source\PSoC5/clk_timer.c ****         clk_timer_MOD_SRC |= CYCLK_SSS;
 430:Generated_Source\PSoC5/clk_timer.c ****         clk_timer_MOD_SRC =
 431:Generated_Source\PSoC5/clk_timer.c ****             (clk_timer_MOD_SRC & (uint8)(~clk_timer_SRC_SEL_MSK)) | clkSource;
 432:Generated_Source\PSoC5/clk_timer.c ****     }
 433:Generated_Source\PSoC5/clk_timer.c ****     else if (((oldSrc == ((uint8)CYCLK_SRC_SEL_CLK_SYNC_D)) && 
 434:Generated_Source\PSoC5/clk_timer.c ****             (clkSource != ((uint8)CYCLK_SRC_SEL_CLK_SYNC_D))) && (currDiv == 0u))
 435:Generated_Source\PSoC5/clk_timer.c ****     {
 436:Generated_Source\PSoC5/clk_timer.c ****         /* Switching from Master to not and divider is 1, set source, so we don't   */
 437:Generated_Source\PSoC5/clk_timer.c ****         /* lock when we clear SSS.                                                  */
 438:Generated_Source\PSoC5/clk_timer.c ****         clk_timer_MOD_SRC =
 439:Generated_Source\PSoC5/clk_timer.c ****             (clk_timer_MOD_SRC & (uint8)(~clk_timer_SRC_SEL_MSK)) | clkSource;
 440:Generated_Source\PSoC5/clk_timer.c ****         clk_timer_MOD_SRC &= (uint8)(~CYCLK_SSS);
 441:Generated_Source\PSoC5/clk_timer.c ****     }
 442:Generated_Source\PSoC5/clk_timer.c ****     else
 443:Generated_Source\PSoC5/clk_timer.c ****     {
 444:Generated_Source\PSoC5/clk_timer.c ****         clk_timer_MOD_SRC =
 445:Generated_Source\PSoC5/clk_timer.c ****             (clk_timer_MOD_SRC & (uint8)(~clk_timer_SRC_SEL_MSK)) | clkSource;
 446:Generated_Source\PSoC5/clk_timer.c ****     }
ARM GAS  C:\Users\info\AppData\Local\Temp\ccqIusgX.s 			page 56


 447:Generated_Source\PSoC5/clk_timer.c **** }
 448:Generated_Source\PSoC5/clk_timer.c **** 
 449:Generated_Source\PSoC5/clk_timer.c **** 
 450:Generated_Source\PSoC5/clk_timer.c **** /*******************************************************************************
 451:Generated_Source\PSoC5/clk_timer.c **** * Function Name: clk_timer_GetSourceRegister
 452:Generated_Source\PSoC5/clk_timer.c **** ********************************************************************************
 453:Generated_Source\PSoC5/clk_timer.c **** *
 454:Generated_Source\PSoC5/clk_timer.c **** * Summary:
 455:Generated_Source\PSoC5/clk_timer.c **** *  Gets the input source of the clock.
 456:Generated_Source\PSoC5/clk_timer.c **** *
 457:Generated_Source\PSoC5/clk_timer.c **** * Parameters:
 458:Generated_Source\PSoC5/clk_timer.c **** *  None
 459:Generated_Source\PSoC5/clk_timer.c **** *
 460:Generated_Source\PSoC5/clk_timer.c **** * Returns:
 461:Generated_Source\PSoC5/clk_timer.c **** *  The input source of the clock. See SetSourceRegister for details.
 462:Generated_Source\PSoC5/clk_timer.c **** *
 463:Generated_Source\PSoC5/clk_timer.c **** *******************************************************************************/
 464:Generated_Source\PSoC5/clk_timer.c **** uint8 clk_timer_GetSourceRegister(void) 
 465:Generated_Source\PSoC5/clk_timer.c **** {
 899              		.loc 1 465 0
 900              		.cfi_startproc
 901              		@ args = 0, pretend = 0, frame = 0
 902              		@ frame_needed = 0, uses_anonymous_args = 0
 903              		@ link register save eliminated.
 466:Generated_Source\PSoC5/clk_timer.c ****     return clk_timer_MOD_SRC & clk_timer_SRC_SEL_MSK;
 904              		.loc 1 466 0
 905 0000 024B     		ldr	r3, .L30
 906 0002 1878     		ldrb	r0, [r3]	@ zero_extendqisi2
 467:Generated_Source\PSoC5/clk_timer.c **** }
 907              		.loc 1 467 0
 908 0004 00F00700 		and	r0, r0, #7
 909 0008 7047     		bx	lr
 910              	.L31:
 911 000a 00BF     		.align	2
 912              	.L30:
 913 000c 86400040 		.word	1073758342
 914              		.cfi_endproc
 915              	.LFE10:
 916              		.size	clk_timer_GetSourceRegister, .-clk_timer_GetSourceRegister
 917              		.section	.text.clk_timer_SetDividerRegister,"ax",%progbits
 918              		.align	2
 919              		.global	clk_timer_SetDividerRegister
 920              		.thumb
 921              		.thumb_func
 922              		.type	clk_timer_SetDividerRegister, %function
 923              	clk_timer_SetDividerRegister:
 924              	.LFB4:
 195:Generated_Source\PSoC5/clk_timer.c ****     uint8 enabled;
 925              		.loc 1 195 0
 926              		.cfi_startproc
 927              		@ args = 0, pretend = 0, frame = 0
 928              		@ frame_needed = 0, uses_anonymous_args = 0
 929              	.LVL7:
 930 0000 70B5     		push	{r4, r5, r6, lr}
 931              		.cfi_def_cfa_offset 16
 932              		.cfi_offset 4, -16
 933              		.cfi_offset 5, -12
ARM GAS  C:\Users\info\AppData\Local\Temp\ccqIusgX.s 			page 57


 934              		.cfi_offset 6, -8
 935              		.cfi_offset 14, -4
 936 0002 0446     		mov	r4, r0
 937 0004 0D46     		mov	r5, r1
 198:Generated_Source\PSoC5/clk_timer.c ****     uint16 oldDivider = clk_timer_GetDividerRegister();
 938              		.loc 1 198 0
 939 0006 FFF7FEFF 		bl	clk_timer_GetSourceRegister
 940              	.LVL8:
 941 000a 0646     		mov	r6, r0
 942              	.LVL9:
 199:Generated_Source\PSoC5/clk_timer.c **** 
 943              		.loc 1 199 0
 944 000c FFF7FEFF 		bl	clk_timer_GetDividerRegister
 945              	.LVL10:
 201:Generated_Source\PSoC5/clk_timer.c ****     {
 946              		.loc 1 201 0
 947 0010 A042     		cmp	r0, r4
 948 0012 57D0     		beq	.L32
 203:Generated_Source\PSoC5/clk_timer.c **** 
 949              		.loc 1 203 0
 950 0014 2C4B     		ldr	r3, .L45
 951 0016 1B78     		ldrb	r3, [r3]	@ zero_extendqisi2
 952 0018 03F00203 		and	r3, r3, #2
 953 001c DAB2     		uxtb	r2, r3
 954              	.LVL11:
 205:Generated_Source\PSoC5/clk_timer.c ****         {
 955              		.loc 1 205 0
 956 001e 96B9     		cbnz	r6, .L34
 205:Generated_Source\PSoC5/clk_timer.c ****         {
 957              		.loc 1 205 0 is_stmt 0 discriminator 1
 958 0020 00B1     		cbz	r0, .L35
 205:Generated_Source\PSoC5/clk_timer.c ****         {
 959              		.loc 1 205 0 discriminator 2
 960 0022 84B9     		cbnz	r4, .L34
 961              	.L35:
 208:Generated_Source\PSoC5/clk_timer.c ****             {
 962              		.loc 1 208 0 is_stmt 1
 963 0024 38B9     		cbnz	r0, .L36
 213:Generated_Source\PSoC5/clk_timer.c ****                 clk_timer_MOD_SRC &= (uint8)(~CYCLK_SSS);
 964              		.loc 1 213 0
 965 0026 294B     		ldr	r3, .L45+4
 966 0028 1C80     		strh	r4, [r3]	@ movhi
 214:Generated_Source\PSoC5/clk_timer.c ****             }
 967              		.loc 1 214 0
 968 002a 294A     		ldr	r2, .L45+8
 969              	.LVL12:
 970 002c 1378     		ldrb	r3, [r2]	@ zero_extendqisi2
 971 002e 03F0BF03 		and	r3, r3, #191
 972 0032 1370     		strb	r3, [r2]
 973 0034 70BD     		pop	{r4, r5, r6, pc}
 974              	.LVL13:
 975              	.L36:
 220:Generated_Source\PSoC5/clk_timer.c ****                 CY_SET_REG16(clk_timer_DIV_PTR, clkDivider);
 976              		.loc 1 220 0
 977 0036 264A     		ldr	r2, .L45+8
 978              	.LVL14:
 979 0038 1378     		ldrb	r3, [r2]	@ zero_extendqisi2
ARM GAS  C:\Users\info\AppData\Local\Temp\ccqIusgX.s 			page 58


 980              	.LVL15:
 981 003a 43F04003 		orr	r3, r3, #64
 982 003e 1370     		strb	r3, [r2]
 221:Generated_Source\PSoC5/clk_timer.c ****             }
 983              		.loc 1 221 0
 984 0040 224B     		ldr	r3, .L45+4
 985 0042 1C80     		strh	r4, [r3]	@ movhi
 986 0044 70BD     		pop	{r4, r5, r6, pc}
 987              	.LVL16:
 988              	.L34:
 227:Generated_Source\PSoC5/clk_timer.c ****             {
 989              		.loc 1 227 0
 990 0046 22B3     		cbz	r2, .L37
 229:Generated_Source\PSoC5/clk_timer.c **** 
 991              		.loc 1 229 0
 992 0048 0023     		movs	r3, #0
 993 004a 2249     		ldr	r1, .L45+12
 994 004c 0B70     		strb	r3, [r1]
 236:Generated_Source\PSoC5/clk_timer.c ****                 CLK_DIST_AMASK = 0x00u;
 995              		.loc 1 236 0
 996 004e 0226     		movs	r6, #2
 997              	.LVL17:
 998 0050 0F31     		adds	r1, r1, #15
 999 0052 0E70     		strb	r6, [r1]
 237:Generated_Source\PSoC5/clk_timer.c **** #endif /* clk_timer__CFG3 */
 1000              		.loc 1 237 0
 1001 0054 0431     		adds	r1, r1, #4
 1002 0056 0B70     		strb	r3, [r1]
 240:Generated_Source\PSoC5/clk_timer.c **** 
 1003              		.loc 1 240 0
 1004 0058 0C39     		subs	r1, r1, #12
 1005 005a 0B78     		ldrb	r3, [r1]	@ zero_extendqisi2
 1006 005c 03F07F03 		and	r3, r3, #127
 1007 0060 0B70     		strb	r3, [r1]
 243:Generated_Source\PSoC5/clk_timer.c ****                 {
 1008              		.loc 1 243 0
 1009 0062 1B4B     		ldr	r3, .L45+8
 1010 0064 1B78     		ldrb	r3, [r3]	@ zero_extendqisi2
 1011 0066 13F0080F 		tst	r3, #8
 1012 006a 00D0     		beq	.L38
 243:Generated_Source\PSoC5/clk_timer.c ****                 {
 1013              		.loc 1 243 0 is_stmt 0 discriminator 1
 1014 006c 8CB9     		cbnz	r4, .L37
 1015              	.L38:
 246:Generated_Source\PSoC5/clk_timer.c ****                     CLK_DIST_LD = CYCLK_LD_DISABLE|CYCLK_LD_SYNC_EN|CYCLK_LD_LOAD;
 1016              		.loc 1 246 0 is_stmt 1
 1017 006e 1A4B     		ldr	r3, .L45+16
 1018 0070 1880     		strh	r0, [r3]	@ movhi
 247:Generated_Source\PSoC5/clk_timer.c **** 
 1019              		.loc 1 247 0
 1020 0072 0721     		movs	r1, #7
 1021 0074 013B     		subs	r3, r3, #1
 1022 0076 1970     		strb	r1, [r3]
 1023              	.L39:
 250:Generated_Source\PSoC5/clk_timer.c **** #endif /* HAS_CLKDIST_LD_DISABLE */
 1024              		.loc 1 250 0 discriminator 1
 1025 0078 164B     		ldr	r3, .L45+12
ARM GAS  C:\Users\info\AppData\Local\Temp\ccqIusgX.s 			page 59


 1026 007a 1B78     		ldrb	r3, [r3]	@ zero_extendqisi2
 1027 007c 13F0010F 		tst	r3, #1
 1028 0080 FAD1     		bne	.L39
 253:Generated_Source\PSoC5/clk_timer.c **** 
 1029              		.loc 1 253 0
 1030 0082 1149     		ldr	r1, .L45
 1031 0084 0B78     		ldrb	r3, [r1]	@ zero_extendqisi2
 1032 0086 03F0FD03 		and	r3, r3, #253
 1033 008a 0B70     		strb	r3, [r1]
 257:Generated_Source\PSoC5/clk_timer.c **** #endif /* HAS_CLKDIST_LD_DISABLE */
 1034              		.loc 1 257 0
 1035 008c 0021     		movs	r1, #0
 1036 008e 114B     		ldr	r3, .L45+12
 1037 0090 1970     		strb	r1, [r3]
 1038              	.L37:
 263:Generated_Source\PSoC5/clk_timer.c ****             {
 1039              		.loc 1 263 0
 1040 0092 0D4B     		ldr	r3, .L45
 1041 0094 1B78     		ldrb	r3, [r3]	@ zero_extendqisi2
 1042 0096 13F0020F 		tst	r3, #2
 1043 009a 0DD0     		beq	.L40
 266:Generated_Source\PSoC5/clk_timer.c **** 
 1044              		.loc 1 266 0
 1045 009c 0E4B     		ldr	r3, .L45+16
 1046 009e 1C80     		strh	r4, [r3]	@ movhi
 268:Generated_Source\PSoC5/clk_timer.c ****                 while ((CLK_DIST_LD & CYCLK_LD_LOAD) != 0u) { }
 1047              		.loc 1 268 0
 1048 00a0 0DB1     		cbz	r5, .L43
 1049 00a2 0322     		movs	r2, #3
 1050              	.LVL18:
 1051 00a4 00E0     		b	.L41
 1052              	.LVL19:
 1053              	.L43:
 1054 00a6 0122     		movs	r2, #1
 1055              	.LVL20:
 1056              	.L41:
 268:Generated_Source\PSoC5/clk_timer.c ****                 while ((CLK_DIST_LD & CYCLK_LD_LOAD) != 0u) { }
 1057              		.loc 1 268 0 is_stmt 0 discriminator 4
 1058 00a8 0A4B     		ldr	r3, .L45+12
 1059 00aa 1A70     		strb	r2, [r3]
 1060              	.L42:
 269:Generated_Source\PSoC5/clk_timer.c ****             }
 1061              		.loc 1 269 0 is_stmt 1 discriminator 1
 1062 00ac 094B     		ldr	r3, .L45+12
 1063 00ae 1B78     		ldrb	r3, [r3]	@ zero_extendqisi2
 1064 00b0 13F0010F 		tst	r3, #1
 1065 00b4 FAD1     		bne	.L42
 1066 00b6 70BD     		pop	{r4, r5, r6, pc}
 1067              	.LVL21:
 1068              	.L40:
 274:Generated_Source\PSoC5/clk_timer.c **** 				clk_timer_CLKEN |= enabled;
 1069              		.loc 1 274 0
 1070 00b8 044B     		ldr	r3, .L45+4
 1071 00ba 1C80     		strh	r4, [r3]	@ movhi
 275:Generated_Source\PSoC5/clk_timer.c ****             }
 1072              		.loc 1 275 0
 1073 00bc 0249     		ldr	r1, .L45
ARM GAS  C:\Users\info\AppData\Local\Temp\ccqIusgX.s 			page 60


 1074 00be 0B78     		ldrb	r3, [r1]	@ zero_extendqisi2
 1075 00c0 1343     		orrs	r3, r3, r2
 1076 00c2 0B70     		strb	r3, [r1]
 1077              	.LVL22:
 1078              	.L32:
 1079 00c4 70BD     		pop	{r4, r5, r6, pc}
 1080              	.L46:
 1081 00c6 00BF     		.align	2
 1082              	.L45:
 1083 00c8 A2430040 		.word	1073759138
 1084 00cc 84400040 		.word	1073758340
 1085 00d0 86400040 		.word	1073758342
 1086 00d4 01400040 		.word	1073758209
 1087 00d8 02400040 		.word	1073758210
 1088              		.cfi_endproc
 1089              	.LFE4:
 1090              		.size	clk_timer_SetDividerRegister, .-clk_timer_SetDividerRegister
 1091              		.section	.text.clk_timer_SetSourceRegister,"ax",%progbits
 1092              		.align	2
 1093              		.global	clk_timer_SetSourceRegister
 1094              		.thumb
 1095              		.thumb_func
 1096              		.type	clk_timer_SetSourceRegister, %function
 1097              	clk_timer_SetSourceRegister:
 1098              	.LFB9:
 420:Generated_Source\PSoC5/clk_timer.c ****     uint16 currDiv = clk_timer_GetDividerRegister();
 1099              		.loc 1 420 0
 1100              		.cfi_startproc
 1101              		@ args = 0, pretend = 0, frame = 0
 1102              		@ frame_needed = 0, uses_anonymous_args = 0
 1103              	.LVL23:
 1104 0000 38B5     		push	{r3, r4, r5, lr}
 1105              		.cfi_def_cfa_offset 16
 1106              		.cfi_offset 3, -16
 1107              		.cfi_offset 4, -12
 1108              		.cfi_offset 5, -8
 1109              		.cfi_offset 14, -4
 1110 0002 0446     		mov	r4, r0
 421:Generated_Source\PSoC5/clk_timer.c ****     uint8 oldSrc = clk_timer_GetSourceRegister();
 1111              		.loc 1 421 0
 1112 0004 FFF7FEFF 		bl	clk_timer_GetDividerRegister
 1113              	.LVL24:
 1114 0008 0546     		mov	r5, r0
 1115              	.LVL25:
 422:Generated_Source\PSoC5/clk_timer.c **** 
 1116              		.loc 1 422 0
 1117 000a FFF7FEFF 		bl	clk_timer_GetSourceRegister
 1118              	.LVL26:
 424:Generated_Source\PSoC5/clk_timer.c ****         (clkSource == ((uint8)CYCLK_SRC_SEL_CLK_SYNC_D))) && (currDiv == 0u))
 1119              		.loc 1 424 0
 1120 000e 0346     		mov	r3, r0
 1121 0010 60B1     		cbz	r0, .L48
 424:Generated_Source\PSoC5/clk_timer.c ****         (clkSource == ((uint8)CYCLK_SRC_SEL_CLK_SYNC_D))) && (currDiv == 0u))
 1122              		.loc 1 424 0 is_stmt 0 discriminator 1
 1123 0012 5CB9     		cbnz	r4, .L48
 425:Generated_Source\PSoC5/clk_timer.c ****     {
 1124              		.loc 1 425 0 is_stmt 1
ARM GAS  C:\Users\info\AppData\Local\Temp\ccqIusgX.s 			page 61


 1125 0014 55B9     		cbnz	r5, .L48
 429:Generated_Source\PSoC5/clk_timer.c ****         clk_timer_MOD_SRC =
 1126              		.loc 1 429 0
 1127 0016 104A     		ldr	r2, .L52
 1128 0018 1378     		ldrb	r3, [r2]	@ zero_extendqisi2
 1129 001a 43F04003 		orr	r3, r3, #64
 1130 001e 1370     		strb	r3, [r2]
 431:Generated_Source\PSoC5/clk_timer.c ****     }
 1131              		.loc 1 431 0
 1132 0020 1378     		ldrb	r3, [r2]	@ zero_extendqisi2
 430:Generated_Source\PSoC5/clk_timer.c ****             (clk_timer_MOD_SRC & (uint8)(~clk_timer_SRC_SEL_MSK)) | clkSource;
 1133              		.loc 1 430 0
 1134 0022 03F0F803 		and	r3, r3, #248
 1135 0026 1C43     		orrs	r4, r4, r3
 1136 0028 1470     		strb	r4, [r2]
 1137 002a 38BD     		pop	{r3, r4, r5, pc}
 1138              	.LVL27:
 1139              	.L48:
 433:Generated_Source\PSoC5/clk_timer.c ****             (clkSource != ((uint8)CYCLK_SRC_SEL_CLK_SYNC_D))) && (currDiv == 0u))
 1140              		.loc 1 433 0
 1141 002c 63B9     		cbnz	r3, .L50
 433:Generated_Source\PSoC5/clk_timer.c ****             (clkSource != ((uint8)CYCLK_SRC_SEL_CLK_SYNC_D))) && (currDiv == 0u))
 1142              		.loc 1 433 0 is_stmt 0 discriminator 1
 1143 002e 5CB1     		cbz	r4, .L50
 434:Generated_Source\PSoC5/clk_timer.c ****     {
 1144              		.loc 1 434 0 is_stmt 1
 1145 0030 55B9     		cbnz	r5, .L50
 439:Generated_Source\PSoC5/clk_timer.c ****         clk_timer_MOD_SRC &= (uint8)(~CYCLK_SSS);
 1146              		.loc 1 439 0
 1147 0032 094A     		ldr	r2, .L52
 1148 0034 1378     		ldrb	r3, [r2]	@ zero_extendqisi2
 438:Generated_Source\PSoC5/clk_timer.c ****             (clk_timer_MOD_SRC & (uint8)(~clk_timer_SRC_SEL_MSK)) | clkSource;
 1149              		.loc 1 438 0
 1150 0036 03F0F803 		and	r3, r3, #248
 1151 003a 1C43     		orrs	r4, r4, r3
 1152 003c 1470     		strb	r4, [r2]
 440:Generated_Source\PSoC5/clk_timer.c ****     }
 1153              		.loc 1 440 0
 1154 003e 1378     		ldrb	r3, [r2]	@ zero_extendqisi2
 1155 0040 03F0BF03 		and	r3, r3, #191
 1156 0044 1370     		strb	r3, [r2]
 1157 0046 38BD     		pop	{r3, r4, r5, pc}
 1158              	.LVL28:
 1159              	.L50:
 445:Generated_Source\PSoC5/clk_timer.c ****     }
 1160              		.loc 1 445 0
 1161 0048 034A     		ldr	r2, .L52
 1162 004a 1378     		ldrb	r3, [r2]	@ zero_extendqisi2
 444:Generated_Source\PSoC5/clk_timer.c ****             (clk_timer_MOD_SRC & (uint8)(~clk_timer_SRC_SEL_MSK)) | clkSource;
 1163              		.loc 1 444 0
 1164 004c 03F0F803 		and	r3, r3, #248
 1165 0050 1C43     		orrs	r4, r4, r3
 1166 0052 1470     		strb	r4, [r2]
 1167 0054 38BD     		pop	{r3, r4, r5, pc}
 1168              	.LVL29:
 1169              	.L53:
 1170 0056 00BF     		.align	2
ARM GAS  C:\Users\info\AppData\Local\Temp\ccqIusgX.s 			page 62


 1171              	.L52:
 1172 0058 86400040 		.word	1073758342
 1173              		.cfi_endproc
 1174              	.LFE9:
 1175              		.size	clk_timer_SetSourceRegister, .-clk_timer_SetSourceRegister
 1176              		.text
 1177              	.Letext0:
 1178              		.file 2 "Generated_Source\\PSoC5/cytypes.h"