ARM GAS  C:\Users\info\AppData\Local\Temp\ccJ0QOuh.s 			page 1


   1              		.syntax unified
   2              		.cpu cortex-m3
   3              		.fpu softvfp
   4              		.eabi_attribute 20, 1
   5              		.eabi_attribute 21, 1
   6              		.eabi_attribute 23, 3
   7              		.eabi_attribute 24, 1
   8              		.eabi_attribute 25, 1
   9              		.eabi_attribute 26, 1
  10              		.eabi_attribute 30, 1
  11              		.eabi_attribute 34, 1
  12              		.eabi_attribute 18, 4
  13              		.thumb
  14              		.syntax unified
  15              		.file	"exec.c"
  16              		.text
  17              	.Ltext0:
  18              		.cfi_sections	.debug_frame
  19              		.section	.text.execute,"ax",%progbits
  20              		.align	2
  21              		.global	execute
  22              		.thumb
  23              		.thumb_func
  24              		.type	execute, %function
  25              	execute:
  26              	.LFB63:
  27              		.file 1 "exec.c"
   1:exec.c        **** #include "project.h"
   2:exec.c        **** #include "opcodes.h"
   3:exec.c        **** 
   4:exec.c        **** extern uint8_t keys[16];
   5:exec.c        **** extern uint8_t lastkey, keyflag;
   6:exec.c        **** 
   7:exec.c        **** extern uint64_t vram[32];
   8:exec.c        **** 
   9:exec.c        **** extern uint8_t vga_update_flag;
  10:exec.c        **** 
  11:exec.c        **** extern uint8_t snd, tmr;
  12:exec.c        **** 
  13:exec.c        **** void execute(uint8_t ram[]){
  28              		.loc 1 13 0
  29              		.cfi_startproc
  30              		@ args = 0, pretend = 0, frame = 88
  31              		@ frame_needed = 0, uses_anonymous_args = 0
  32              	.LVL0:
  33 0000 2DE9F04F 		push	{r4, r5, r6, r7, r8, r9, r10, fp, lr}
  34              		.cfi_def_cfa_offset 36
  35              		.cfi_offset 4, -36
  36              		.cfi_offset 5, -32
  37              		.cfi_offset 6, -28
  38              		.cfi_offset 7, -24
  39              		.cfi_offset 8, -20
  40              		.cfi_offset 9, -16
  41              		.cfi_offset 10, -12
  42              		.cfi_offset 11, -8
  43              		.cfi_offset 14, -4
  44 0004 97B0     		sub	sp, sp, #92
ARM GAS  C:\Users\info\AppData\Local\Temp\ccJ0QOuh.s 			page 2


  45              		.cfi_def_cfa_offset 128
  46 0006 8346     		mov	fp, r0
  47              	.LVL1:
  14:exec.c        ****     /* CHIP8 Register File*/
  15:exec.c        ****     uint8_t v[16];
  16:exec.c        ****     uint16_t i = 0;
  17:exec.c        ****     uint16_t pc = 0x0200;
  18:exec.c        ****     uint8_t sp = 0x00;
  19:exec.c        ****     uint16_t stack[16] = {0};
  48              		.loc 1 19 0
  49 0008 2022     		movs	r2, #32
  50 000a 0021     		movs	r1, #0
  51 000c 0AA8     		add	r0, sp, #40
  52              	.LVL2:
  53 000e FFF7FEFF 		bl	memset
  54              	.LVL3:
  55              	.LBB2:
  20:exec.c        ****     
  21:exec.c        ****     /* Clear screen */
  22:exec.c        ****     for (uint8_t j = 0; j < 32; j++){
  56              		.loc 1 22 0
  57 0012 0023     		movs	r3, #0
  58 0014 08E0     		b	.L2
  59              	.LVL4:
  60              	.L3:
  23:exec.c        ****         vram[j] = 0;
  61              		.loc 1 23 0 discriminator 3
  62 0016 BA4A     		ldr	r2, .L82
  63 0018 02EBC302 		add	r2, r2, r3, lsl #3
  64 001c 0020     		movs	r0, #0
  65 001e 0021     		movs	r1, #0
  66 0020 C2E90001 		strd	r0, [r2]
  22:exec.c        ****         vram[j] = 0;
  67              		.loc 1 22 0 discriminator 3
  68 0024 0133     		adds	r3, r3, #1
  69              	.LVL5:
  70 0026 DBB2     		uxtb	r3, r3
  71              	.LVL6:
  72              	.L2:
  22:exec.c        ****         vram[j] = 0;
  73              		.loc 1 22 0 is_stmt 0 discriminator 1
  74 0028 1F2B     		cmp	r3, #31
  75 002a F4D9     		bls	.L3
  76 002c 0023     		movs	r3, #0
  77              	.LVL7:
  78 002e 0893     		str	r3, [sp, #32]
  79 0030 4FF4007A 		mov	r10, #512
  80 0034 0793     		str	r3, [sp, #28]
  81              	.LVL8:
  82              	.L4:
  83              	.LBE2:
  84              	.LBB3:
  24:exec.c        ****     }
  25:exec.c        ****     
  26:exec.c        ****     /* Emulate away.. */
  27:exec.c        ****     while(1){
  28:exec.c        ****         /* Get the instruction at the current address */
ARM GAS  C:\Users\info\AppData\Local\Temp\ccJ0QOuh.s 			page 3


  29:exec.c        ****         uint16_t instr = (ram[pc] << 8) | ram[pc+1];
  85              		.loc 1 29 0 is_stmt 1
  86 0036 1BF80A50 		ldrb	r5, [fp, r10]	@ zero_extendqisi2
  87 003a 0BEB0A03 		add	r3, fp, r10
  88 003e 5B78     		ldrb	r3, [r3, #1]	@ zero_extendqisi2
  89 0040 43EA0525 		orr	r5, r3, r5, lsl #8
  90 0044 2DB2     		sxth	r5, r5
  91 0046 AFB2     		uxth	r7, r5
  92              	.LVL9:
  30:exec.c        ****         
  31:exec.c        ****         /* Decode the opcodes */
  32:exec.c        ****         uint8_t op3 = (instr & 0xf000) >> 12;
  93              		.loc 1 32 0
  94 0048 3B0B     		lsrs	r3, r7, #12
  95              	.LVL10:
  33:exec.c        ****         uint8_t op2 = (instr & 0x0f00) >> 8;
  96              		.loc 1 33 0
  97 004a C7F30324 		ubfx	r4, r7, #8, #4
  98              	.LVL11:
  34:exec.c        ****         uint8_t op10 = instr & 0x00ff;
  99              		.loc 1 34 0
 100 004e EDB2     		uxtb	r5, r5
 101              	.LVL12:
  35:exec.c        ****         uint8_t op0 = instr & 0x000f;
 102              		.loc 1 35 0
 103 0050 05F00F06 		and	r6, r5, #15
 104              	.LVL13:
  36:exec.c        ****         
  37:exec.c        ****         /* Decode the immediates */
  38:exec.c        ****         uint16_t nnn = instr & 0x0fff;
 105              		.loc 1 38 0
 106 0054 C7F30B02 		ubfx	r2, r7, #0, #12
 107              	.LVL14:
  39:exec.c        ****         uint8_t x = (instr & 0x0f00) >> 8;
  40:exec.c        ****         uint8_t y = (instr & 0x00f0) >> 4;
 108              		.loc 1 40 0
 109 0058 C7F30317 		ubfx	r7, r7, #4, #4
 110              	.LVL15:
  41:exec.c        ****         uint8_t kk = instr & 0x00ff;
  42:exec.c        ****         uint8_t n = instr & 0x000f;
  43:exec.c        ****         
  44:exec.c        ****         /* This flag is set if an invalid OP is encountered */
  45:exec.c        ****         uint8_t invalid_op = 0;
  46:exec.c        ****         
  47:exec.c        ****         /* This flag is set if a new PC was set and must not be incremented */
  48:exec.c        ****         uint8_t freeze_pc = 0;
  49:exec.c        ****         
  50:exec.c        ****         /* Branch on opcodes and execute */
  51:exec.c        ****         switch(op3){
 111              		.loc 1 51 0
 112 005c 0F2B     		cmp	r3, #15
 113 005e 11D8     		bhi	.L5
 114 0060 DFE813F0 		tbh	[pc, r3, lsl #1]
 115              	.L7:
 116 0064 1300     		.2byte	(.L6-.L7)/2
 117 0066 A102     		.2byte	(.L59-.L7)/2
 118 0068 3E00     		.2byte	(.L9-.L7)/2
ARM GAS  C:\Users\info\AppData\Local\Temp\ccJ0QOuh.s 			page 4


 119 006a 4F00     		.2byte	(.L10-.L7)/2
 120 006c 5D00     		.2byte	(.L11-.L7)/2
 121 006e 6B00     		.2byte	(.L12-.L7)/2
 122 0070 9300     		.2byte	(.L13-.L7)/2
 123 0072 9A00     		.2byte	(.L14-.L7)/2
 124 0074 A400     		.2byte	(.L15-.L7)/2
 125 0076 7F00     		.2byte	(.L16-.L7)/2
 126 0078 4001     		.2byte	(.L17-.L7)/2
 127 007a 3800     		.2byte	(.L18-.L7)/2
 128 007c 4401     		.2byte	(.L19-.L7)/2
 129 007e B801     		.2byte	(.L60-.L7)/2
 130 0080 D801     		.2byte	(.L21-.L7)/2
 131 0082 0002     		.2byte	(.L22-.L7)/2
 132              		.p2align 1
 133              	.L5:
  48:exec.c        ****         
 134              		.loc 1 48 0
 135 0084 0023     		movs	r3, #0
 136              	.LVL16:
  52:exec.c        ****         case OP3_SYSTEM:
  53:exec.c        ****             /* System operations */
  54:exec.c        ****             if (op2 != OP2_SYSTEM){
  55:exec.c        ****                 invalid_op = 1;
  56:exec.c        ****             } else {
  57:exec.c        ****                 switch(op10){
  58:exec.c        ****                 case OP10_SYSTEM_CLEAR:
  59:exec.c        ****                     /* Clear screen */
  60:exec.c        ****                     for (int j = 0; j < 32; j++){
  61:exec.c        ****                         vram[j] = 0;
  62:exec.c        ****                     }
  63:exec.c        ****                     break;
  64:exec.c        ****                 case OP10_SYSTEM_RETURN:
  65:exec.c        ****                     /* Return from instruction */
  66:exec.c        ****                     sp = (sp == 0x0) ? 0x0 : sp - 1;
  67:exec.c        ****                     pc = stack[sp];
  68:exec.c        ****                     freeze_pc = 1;
  69:exec.c        ****                     break;
  70:exec.c        ****                 default:
  71:exec.c        ****                     invalid_op = 1;
  72:exec.c        ****                     break;
  73:exec.c        ****                 }
  74:exec.c        ****             }
  75:exec.c        ****             break;
  76:exec.c        ****         case OP3_JUMP_ABSOLUTE:
  77:exec.c        ****             /* Jump to absolute address nnn */
  78:exec.c        ****             pc = nnn;
  79:exec.c        ****             freeze_pc = 1;
  80:exec.c        ****             break;
  81:exec.c        ****         case OP3_JUMP_OFFSET:
  82:exec.c        ****             /* Jump to absolute address nnn + offset V0 */
  83:exec.c        ****             pc = nnn + v[0];
  84:exec.c        ****             freeze_pc = 1;
  85:exec.c        ****             break;
  86:exec.c        ****         case OP3_CALL_SUBROUTINE:
  87:exec.c        ****             /* Call subroutine at nnn */
  88:exec.c        ****             stack[sp] = pc;
  89:exec.c        ****             sp = (sp == 0xf) ? 0xf : sp + 1;
ARM GAS  C:\Users\info\AppData\Local\Temp\ccJ0QOuh.s 			page 5


  90:exec.c        ****             pc = nnn;
  91:exec.c        ****             freeze_pc = 1;
  92:exec.c        ****             break;
  93:exec.c        ****         case OP3_SKIP_NEXT_EQ_IM:
  94:exec.c        ****             /* Skip next instruction if Vx == kk */
  95:exec.c        ****             if (v[x] == kk) {
  96:exec.c        ****                 pc += 2;
  97:exec.c        ****             }
  98:exec.c        ****             break;
  99:exec.c        ****         case OP3_SKIP_NEXT_NEQ_IM:
 100:exec.c        ****             /* Skip next instruction if Vx != kk */
 101:exec.c        ****             if (v[x] != kk) {
 102:exec.c        ****                 pc += 2;
 103:exec.c        ****             }
 104:exec.c        ****             break;
 105:exec.c        ****         case OP3_SKIP_NEXT_EQ:
 106:exec.c        ****             /* Skip next instruction if Vx == Vy */
 107:exec.c        ****             if (op0 == OP0_SKIP_NEXT){
 108:exec.c        ****                 if (v[x] == v[y]) {
 109:exec.c        ****                     pc += 2;
 110:exec.c        ****                 }
 111:exec.c        ****             } else {
 112:exec.c        ****                 invalid_op = 1;
 113:exec.c        ****             }
 114:exec.c        ****             break;
 115:exec.c        ****         case OP3_SKIP_NEXT_NEQ:
 116:exec.c        ****             /* Skip next instruction if Vx != Vy */
 117:exec.c        ****             if (op0 == OP0_SKIP_NEXT){
 118:exec.c        ****                 if (v[x] != v[y]) {
 119:exec.c        ****                     pc += 2;
 120:exec.c        ****                 }
 121:exec.c        ****             } else {
 122:exec.c        ****                 invalid_op = 1;
 123:exec.c        ****             }
 124:exec.c        ****             break;
 125:exec.c        ****         case OP3_LOAD_V:
 126:exec.c        ****             /* Vx = kk */
 127:exec.c        ****             v[x] = kk;
 128:exec.c        ****             break;
 129:exec.c        ****         case OP3_ADD_IM:
 130:exec.c        ****             /* Vx += kk */
 131:exec.c        ****             v[x] += kk;
 132:exec.c        ****             break;
 133:exec.c        ****         case OP3_ARITH:
 134:exec.c        ****             /* Arithmetic operations */
 135:exec.c        ****             switch(op0) {
 136:exec.c        ****             case OP0_ARITH_LOAD:
 137:exec.c        ****                 /* Vx = Vy */
 138:exec.c        ****                 v[x] = v[y];
 139:exec.c        ****                 break;
 140:exec.c        ****             case OP0_ARITH_OR:
 141:exec.c        ****                 /* Vx = Vx | Vy */
 142:exec.c        ****                 v[x] |= v[y];
 143:exec.c        ****                 break;
 144:exec.c        ****             case OP0_ARITH_AND:
 145:exec.c        ****                 /* Vx = Vx & Vy */
 146:exec.c        ****                 v[x] &= v[y];
ARM GAS  C:\Users\info\AppData\Local\Temp\ccJ0QOuh.s 			page 6


 147:exec.c        ****                 break;
 148:exec.c        ****             case OP0_ARITH_XOR:
 149:exec.c        ****                 /* Vx = Vx ^ Vy */
 150:exec.c        ****                 v[x] ^= v[y];
 151:exec.c        ****                 break;
 152:exec.c        ****             case OP0_ARITH_ADD:
 153:exec.c        ****                 /* Vx = Vx + Vy */
 154:exec.c        ****                 v[x] += v[y];
 155:exec.c        ****                 break;
 156:exec.c        ****             case OP0_ARITH_SUB:{
 157:exec.c        ****                 /* Vx = Vx - Vy, Vf = not borrow */
 158:exec.c        ****                 uint16_t vx = v[x];
 159:exec.c        ****                 uint16_t vy = v[y];
 160:exec.c        ****                 uint16_t diff = vx - vy;                                
 161:exec.c        ****                 v[x] = diff;
 162:exec.c        ****                 v[0xf] = (diff & 0x100) ? 0 : 1;
 163:exec.c        ****                 break;
 164:exec.c        ****             }
 165:exec.c        ****             case OP0_ARITH_SHR:
 166:exec.c        ****                 /* Vx = Vx >> Vy */
 167:exec.c        ****                 v[0xf] = (v[x] & 0x01) ? 1 : 0;
 168:exec.c        ****                 v[x] >>= 1;
 169:exec.c        ****                 break;
 170:exec.c        ****             case OP0_ARITH_SUBN:{
 171:exec.c        ****                 /* Vx = Vy - Vx, Vf = not borrow */
 172:exec.c        ****                 uint16_t vx = v[x];
 173:exec.c        ****                 uint16_t vy = v[y];
 174:exec.c        ****                 uint16_t diff = vy - vx;                                
 175:exec.c        ****                 v[x] = diff;
 176:exec.c        ****                 v[0xf] = (diff & 0x100) ? 0 : 1;
 177:exec.c        ****                 break;
 178:exec.c        ****             }
 179:exec.c        ****             case OP0_ARITH_SHL:
 180:exec.c        ****                 /* Vx = Vx << 1, Vf = carry */
 181:exec.c        ****                 v[0xf] = (v[x] & 0x80) ? 1 : 0;
 182:exec.c        ****                 v[x] <<= 1;
 183:exec.c        ****                 break;
 184:exec.c        ****             default:
 185:exec.c        ****                 invalid_op = 1;
 186:exec.c        ****                 break;
 187:exec.c        ****             }
 188:exec.c        ****             break;
 189:exec.c        ****         case OP3_LOAD_I:
 190:exec.c        ****             /* I = nnn */
 191:exec.c        ****             i = nnn;
 192:exec.c        ****             break;
 193:exec.c        ****         case OP3_RANDOM:
 194:exec.c        ****             /* Vx = (random byte) & kk */            
 195:exec.c        ****             v[x] = random_Read() & kk;
 196:exec.c        ****             break;
 197:exec.c        ****         case OP3_DRAW:{
 198:exec.c        ****             uint64_t collision = 0;
 199:exec.c        ****             /* Draw sprite from I at (Vx, Vy), vf = collision, see reference */
 200:exec.c        ****             for (int j = 0; j < n; j++){
 201:exec.c        ****                 uint64_t row = 0;
 202:exec.c        ****                 if (v[x] <= 56){
 203:exec.c        ****                     row = ((uint64_t)ram[i + j]) << (56 - v[x]);
ARM GAS  C:\Users\info\AppData\Local\Temp\ccJ0QOuh.s 			page 7


 204:exec.c        ****                 } else {
 205:exec.c        ****                     row = ((uint64_t)ram[i + j]) >> (v[x] - 56)
 206:exec.c        ****                         | ((uint64_t)ram[i + j]) << (120 - v[x]);
 207:exec.c        ****                 }
 208:exec.c        ****                 collision |= vram[(v[y] + j) % 32] & row;
 209:exec.c        ****                 vram[(v[y] + j) % 32] ^= row;
 210:exec.c        ****             }
 211:exec.c        ****             v[0xf] = collision ? 1 : 0;
 212:exec.c        ****             vga_update_flag = 1;
 213:exec.c        ****             break;
 214:exec.c        ****         }
 215:exec.c        ****         case OP3_KEYBOARD:
 216:exec.c        ****             /* Keyboard operations */
 217:exec.c        ****             switch(op10){
 218:exec.c        ****             case OP10_KEYBOARD_EQ:
 219:exec.c        ****                 /* Skip next instruction if Vx pressed */
 220:exec.c        ****                 if (keys[v[x] & 0xf] == 1){
 221:exec.c        ****                     pc += 2;
 222:exec.c        ****                 }
 223:exec.c        ****                 break;
 224:exec.c        ****             case OP10_KEYBOARD_NEQ: 
 225:exec.c        ****                 /* Skip next instruction if Vx not pressed */
 226:exec.c        ****                 if (keys[v[x] & 0xf] == 0){
 227:exec.c        ****                     pc += 2;
 228:exec.c        ****                 }
 229:exec.c        ****                 break;
 230:exec.c        ****             default:
 231:exec.c        ****                 invalid_op = 1;
 232:exec.c        ****                 break;
 233:exec.c        ****             }
 234:exec.c        ****             break;
 235:exec.c        ****         case OP3_SPECIAL:
 236:exec.c        ****             /* Special instructions, see reference for each */
 237:exec.c        ****             switch(op10){
 238:exec.c        ****             case OP10_SPECIAL_LOAD_DELAY:
 239:exec.c        ****                 /* Vx = delay timer */
 240:exec.c        ****                 v[x] = tmr;
 241:exec.c        ****                 break;
 242:exec.c        ****             case OP10_SPECIAL_LOAD_KEYBOARD:
 243:exec.c        ****                 /* Vx = keypress, blocks till something pressed */
 244:exec.c        ****                 while (!keyflag);
 245:exec.c        ****                 v[x] = lastkey;
 246:exec.c        ****                 keyflag = 0;
 247:exec.c        ****                 break;
 248:exec.c        ****             case OP10_SPECIAL_SET_DELAY:
 249:exec.c        ****                 /* delay timer = Vx */
 250:exec.c        ****                 tmr = v[x];
 251:exec.c        ****                 break;
 252:exec.c        ****             case OP10_SPECIAL_SET_SOUND:
 253:exec.c        ****                 /* sound timer = Vx */
 254:exec.c        ****                 snd = v[x];
 255:exec.c        ****                 break;
 256:exec.c        ****             case OP10_SPECIAL_ADD_TO_I:
 257:exec.c        ****                 /* I += Vx */
 258:exec.c        ****                 i += v[x];
 259:exec.c        ****                 break;
 260:exec.c        ****             case OP10_SPECIAL_LOAD_FONT:
ARM GAS  C:\Users\info\AppData\Local\Temp\ccJ0QOuh.s 			page 8


 261:exec.c        ****                 /* I = location of sprite for hex digit Vx */
 262:exec.c        ****                 i = (v[x] & 0xf) * 5;
 263:exec.c        ****                 break;
 264:exec.c        ****             case OP10_SPECIAL_LOAD_BCD:
 265:exec.c        ****                 /* BCD hundreds to units of Vx in I to I+2 */
 266:exec.c        ****                 ram[i] = (uint8_t)(v[x] / 100) % 10;
 267:exec.c        ****                 ram[i+1] = (uint8_t)(v[x] / 10) % 10;
 268:exec.c        ****                 ram[i+2] = (uint8_t)(v[x]) % 10;
 269:exec.c        ****                 break;
 270:exec.c        ****             case OP10_SPECIAL_LOAD_AT_I:
 271:exec.c        ****                 /* Store V0 to Vx in I to I+x */
 272:exec.c        ****                 for (uint8_t j = 0; j <= x; j++){
 273:exec.c        ****                     ram[i + j] = v[j];
 274:exec.c        ****                 }
 275:exec.c        ****                 break;
 276:exec.c        ****             case OP10_SPECIAL_SET_AT_I:
 277:exec.c        ****                 /* Restore V0 to Vx from I to I+x */
 278:exec.c        ****                 for (uint8_t j = 0; j <= x; j++){
 279:exec.c        ****                     v[j] = ram[i + j];
 280:exec.c        ****                 }
 281:exec.c        ****                 break;
 282:exec.c        ****             default:
 283:exec.c        ****                 invalid_op = 1;
 284:exec.c        ****                 break;
 285:exec.c        ****             }
 286:exec.c        ****             break;
 287:exec.c        ****         default:
 288:exec.c        ****             invalid_op = 1;
 137              		.loc 1 288 0
 138 0086 0122     		movs	r2, #1
 139              	.LVL17:
 140 0088 BBE2     		b	.L8
 141              	.LVL18:
 142              	.L6:
  54:exec.c        ****                 invalid_op = 1;
 143              		.loc 1 54 0
 144 008a 002C     		cmp	r4, #0
 145 008c 40F08F82 		bne	.L61
  57:exec.c        ****                 case OP10_SYSTEM_CLEAR:
 146              		.loc 1 57 0
 147 0090 E02D     		cmp	r5, #224
 148 0092 0BD0     		beq	.L63
 149 0094 EE2D     		cmp	r5, #238
 150 0096 0FD0     		beq	.L24
 151 0098 8CE2     		b	.L78
 152              	.LVL19:
 153              	.L25:
 154              	.LBB4:
  61:exec.c        ****                     }
 155              		.loc 1 61 0 discriminator 3
 156 009a 994A     		ldr	r2, .L82
 157 009c 02EBC302 		add	r2, r2, r3, lsl #3
 158 00a0 0020     		movs	r0, #0
 159 00a2 0021     		movs	r1, #0
 160 00a4 C2E90001 		strd	r0, [r2]
  60:exec.c        ****                         vram[j] = 0;
 161              		.loc 1 60 0 discriminator 3
ARM GAS  C:\Users\info\AppData\Local\Temp\ccJ0QOuh.s 			page 9


 162 00a8 0133     		adds	r3, r3, #1
 163              	.LVL20:
 164 00aa 00E0     		b	.L23
 165              	.LVL21:
 166              	.L63:
 167              	.LBE4:
  57:exec.c        ****                 case OP10_SYSTEM_CLEAR:
 168              		.loc 1 57 0
 169 00ac 0023     		movs	r3, #0
 170              	.LVL22:
 171              	.L23:
 172              	.LBB5:
  60:exec.c        ****                         vram[j] = 0;
 173              		.loc 1 60 0 discriminator 1
 174 00ae 1F2B     		cmp	r3, #31
 175 00b0 F3DD     		ble	.L25
 176              	.LBE5:
  48:exec.c        ****         
 177              		.loc 1 48 0
 178 00b2 0023     		movs	r3, #0
 179              	.LVL23:
  45:exec.c        ****         
 180              		.loc 1 45 0
 181 00b4 1A46     		mov	r2, r3
 182 00b6 A4E2     		b	.L8
 183              	.LVL24:
 184              	.L24:
  66:exec.c        ****                     pc = stack[sp];
 185              		.loc 1 66 0
 186 00b8 089B     		ldr	r3, [sp, #32]
 187              	.LVL25:
 188 00ba 13B1     		cbz	r3, .L26
  66:exec.c        ****                     pc = stack[sp];
 189              		.loc 1 66 0 is_stmt 0 discriminator 1
 190 00bc 013B     		subs	r3, r3, #1
 191 00be DBB2     		uxtb	r3, r3
 192 00c0 0893     		str	r3, [sp, #32]
 193              	.LVL26:
 194              	.L26:
  67:exec.c        ****                     freeze_pc = 1;
 195              		.loc 1 67 0 is_stmt 1 discriminator 4
 196 00c2 16AA     		add	r2, sp, #88
 197              	.LVL27:
 198 00c4 089B     		ldr	r3, [sp, #32]
 199 00c6 02EB4303 		add	r3, r2, r3, lsl #1
 200 00ca 33F830AC 		ldrh	r10, [r3, #-48]
 201              	.LVL28:
  68:exec.c        ****                     break;
 202              		.loc 1 68 0 discriminator 4
 203 00ce 0123     		movs	r3, #1
  45:exec.c        ****         
 204              		.loc 1 45 0 discriminator 4
 205 00d0 0022     		movs	r2, #0
  69:exec.c        ****                 default:
 206              		.loc 1 69 0 discriminator 4
 207 00d2 96E2     		b	.L8
 208              	.LVL29:
ARM GAS  C:\Users\info\AppData\Local\Temp\ccJ0QOuh.s 			page 10


 209              	.L18:
  83:exec.c        ****             freeze_pc = 1;
 210              		.loc 1 83 0
 211 00d4 9DF848A0 		ldrb	r10, [sp, #72]	@ zero_extendqisi2
 212              	.LVL30:
 213 00d8 9244     		add	r10, r10, r2
 214              	.LVL31:
  84:exec.c        ****             break;
 215              		.loc 1 84 0
 216 00da 0123     		movs	r3, #1
 217              	.LVL32:
  45:exec.c        ****         
 218              		.loc 1 45 0
 219 00dc 0022     		movs	r2, #0
 220              	.LVL33:
  85:exec.c        ****         case OP3_CALL_SUBROUTINE:
 221              		.loc 1 85 0
 222 00de 90E2     		b	.L8
 223              	.LVL34:
 224              	.L9:
  88:exec.c        ****             sp = (sp == 0xf) ? 0xf : sp + 1;
 225              		.loc 1 88 0
 226 00e0 16A8     		add	r0, sp, #88
 227 00e2 0899     		ldr	r1, [sp, #32]
 228 00e4 00EB4103 		add	r3, r0, r1, lsl #1
 229              	.LVL35:
 230 00e8 23F830AC 		strh	r10, [r3, #-48]	@ movhi
  89:exec.c        ****             pc = nnn;
 231              		.loc 1 89 0
 232 00ec 0B46     		mov	r3, r1
 233 00ee 0F29     		cmp	r1, #15
 234 00f0 00F06382 		beq	.L64
  89:exec.c        ****             pc = nnn;
 235              		.loc 1 89 0 is_stmt 0 discriminator 1
 236 00f4 0133     		adds	r3, r3, #1
 237 00f6 DBB2     		uxtb	r3, r3
 238 00f8 0893     		str	r3, [sp, #32]
 239              	.LVL36:
  90:exec.c        ****             freeze_pc = 1;
 240              		.loc 1 90 0 is_stmt 1 discriminator 1
 241 00fa 9246     		mov	r10, r2
 242              	.LVL37:
  91:exec.c        ****             break;
 243              		.loc 1 91 0 discriminator 1
 244 00fc 0123     		movs	r3, #1
  45:exec.c        ****         
 245              		.loc 1 45 0 discriminator 1
 246 00fe 0022     		movs	r2, #0
 247              	.LVL38:
 248 0100 7FE2     		b	.L8
 249              	.LVL39:
 250              	.L10:
  95:exec.c        ****                 pc += 2;
 251              		.loc 1 95 0
 252 0102 16AB     		add	r3, sp, #88
 253              	.LVL40:
 254 0104 1C44     		add	r4, r4, r3
ARM GAS  C:\Users\info\AppData\Local\Temp\ccJ0QOuh.s 			page 11


 255              	.LVL41:
 256 0106 14F8103C 		ldrb	r3, [r4, #-16]	@ zero_extendqisi2
 257 010a 9D42     		cmp	r5, r3
 258 010c 40F05982 		bne	.L65
  96:exec.c        ****             }
 259              		.loc 1 96 0
 260 0110 0AF1020A 		add	r10, r10, #2
 261              	.LVL42:
 262 0114 1FFA8AFA 		uxth	r10, r10
 263              	.LVL43:
  48:exec.c        ****         
 264              		.loc 1 48 0
 265 0118 0023     		movs	r3, #0
  45:exec.c        ****         
 266              		.loc 1 45 0
 267 011a 1A46     		mov	r2, r3
 268              	.LVL44:
 269 011c 71E2     		b	.L8
 270              	.LVL45:
 271              	.L11:
 101:exec.c        ****                 pc += 2;
 272              		.loc 1 101 0
 273 011e 16AB     		add	r3, sp, #88
 274              	.LVL46:
 275 0120 1C44     		add	r4, r4, r3
 276              	.LVL47:
 277 0122 14F8103C 		ldrb	r3, [r4, #-16]	@ zero_extendqisi2
 278 0126 9D42     		cmp	r5, r3
 279 0128 00F04E82 		beq	.L66
 102:exec.c        ****             }
 280              		.loc 1 102 0
 281 012c 0AF1020A 		add	r10, r10, #2
 282              	.LVL48:
 283 0130 1FFA8AFA 		uxth	r10, r10
 284              	.LVL49:
  48:exec.c        ****         
 285              		.loc 1 48 0
 286 0134 0023     		movs	r3, #0
  45:exec.c        ****         
 287              		.loc 1 45 0
 288 0136 1A46     		mov	r2, r3
 289              	.LVL50:
 290 0138 63E2     		b	.L8
 291              	.LVL51:
 292              	.L12:
 107:exec.c        ****                 if (v[x] == v[y]) {
 293              		.loc 1 107 0
 294 013a 002E     		cmp	r6, #0
 295 013c 40F04782 		bne	.L67
 108:exec.c        ****                     pc += 2;
 296              		.loc 1 108 0
 297 0140 16AB     		add	r3, sp, #88
 298              	.LVL52:
 299 0142 1C44     		add	r4, r4, r3
 300              	.LVL53:
 301 0144 14F8102C 		ldrb	r2, [r4, #-16]	@ zero_extendqisi2
 302              	.LVL54:
ARM GAS  C:\Users\info\AppData\Local\Temp\ccJ0QOuh.s 			page 12


 303 0148 1F44     		add	r7, r7, r3
 304              	.LVL55:
 305 014a 17F8103C 		ldrb	r3, [r7, #-16]	@ zero_extendqisi2
 306 014e 9A42     		cmp	r2, r3
 307 0150 40F04082 		bne	.L68
 109:exec.c        ****                 }
 308              		.loc 1 109 0
 309 0154 0AF1020A 		add	r10, r10, #2
 310              	.LVL56:
 311 0158 1FFA8AFA 		uxth	r10, r10
 312              	.LVL57:
  48:exec.c        ****         
 313              		.loc 1 48 0
 314 015c 0023     		movs	r3, #0
  45:exec.c        ****         
 315              		.loc 1 45 0
 316 015e 1A46     		mov	r2, r3
 317 0160 4FE2     		b	.L8
 318              	.LVL58:
 319              	.L16:
 117:exec.c        ****                 if (v[x] != v[y]) {
 320              		.loc 1 117 0
 321 0162 002E     		cmp	r6, #0
 322 0164 40F03982 		bne	.L69
 118:exec.c        ****                     pc += 2;
 323              		.loc 1 118 0
 324 0168 16AB     		add	r3, sp, #88
 325              	.LVL59:
 326 016a 1C44     		add	r4, r4, r3
 327              	.LVL60:
 328 016c 14F8102C 		ldrb	r2, [r4, #-16]	@ zero_extendqisi2
 329              	.LVL61:
 330 0170 1F44     		add	r7, r7, r3
 331              	.LVL62:
 332 0172 17F8103C 		ldrb	r3, [r7, #-16]	@ zero_extendqisi2
 333 0176 9A42     		cmp	r2, r3
 334 0178 00F03282 		beq	.L70
 119:exec.c        ****                 }
 335              		.loc 1 119 0
 336 017c 0AF1020A 		add	r10, r10, #2
 337              	.LVL63:
 338 0180 1FFA8AFA 		uxth	r10, r10
 339              	.LVL64:
  48:exec.c        ****         
 340              		.loc 1 48 0
 341 0184 0023     		movs	r3, #0
  45:exec.c        ****         
 342              		.loc 1 45 0
 343 0186 1A46     		mov	r2, r3
 344 0188 3BE2     		b	.L8
 345              	.LVL65:
 346              	.L13:
 127:exec.c        ****             break;
 347              		.loc 1 127 0
 348 018a 16AB     		add	r3, sp, #88
 349              	.LVL66:
 350 018c 1C44     		add	r4, r4, r3
ARM GAS  C:\Users\info\AppData\Local\Temp\ccJ0QOuh.s 			page 13


 351              	.LVL67:
 352 018e 04F8105C 		strb	r5, [r4, #-16]
  48:exec.c        ****         
 353              		.loc 1 48 0
 354 0192 0023     		movs	r3, #0
  45:exec.c        ****         
 355              		.loc 1 45 0
 356 0194 1A46     		mov	r2, r3
 357              	.LVL68:
 128:exec.c        ****         case OP3_ADD_IM:
 358              		.loc 1 128 0
 359 0196 34E2     		b	.L8
 360              	.LVL69:
 361              	.L14:
 131:exec.c        ****             break;
 362              		.loc 1 131 0
 363 0198 16AB     		add	r3, sp, #88
 364              	.LVL70:
 365 019a 1C44     		add	r4, r4, r3
 366              	.LVL71:
 367 019c 14F8103C 		ldrb	r3, [r4, #-16]	@ zero_extendqisi2
 368 01a0 1D44     		add	r5, r5, r3
 369              	.LVL72:
 370 01a2 04F8105C 		strb	r5, [r4, #-16]
  48:exec.c        ****         
 371              		.loc 1 48 0
 372 01a6 0023     		movs	r3, #0
  45:exec.c        ****         
 373              		.loc 1 45 0
 374 01a8 1A46     		mov	r2, r3
 375              	.LVL73:
 132:exec.c        ****         case OP3_ARITH:
 376              		.loc 1 132 0
 377 01aa 2AE2     		b	.L8
 378              	.LVL74:
 379              	.L15:
 135:exec.c        ****             case OP0_ARITH_LOAD:
 380              		.loc 1 135 0
 381 01ac 0E2E     		cmp	r6, #14
 382 01ae 00F21A82 		bhi	.L71
 383 01b2 DFE816F0 		tbh	[pc, r6, lsl #1]
 384              	.LVL75:
 385              	.L28:
 386 01b6 0F00     		.2byte	(.L27-.L28)/2
 387 01b8 1A00     		.2byte	(.L29-.L28)/2
 388 01ba 2700     		.2byte	(.L30-.L28)/2
 389 01bc 3400     		.2byte	(.L31-.L28)/2
 390 01be 4100     		.2byte	(.L32-.L28)/2
 391 01c0 4E00     		.2byte	(.L33-.L28)/2
 392 01c2 6300     		.2byte	(.L34-.L28)/2
 393 01c4 7300     		.2byte	(.L35-.L28)/2
 394 01c6 1802     		.2byte	(.L71-.L28)/2
 395 01c8 1802     		.2byte	(.L71-.L28)/2
 396 01ca 1802     		.2byte	(.L71-.L28)/2
 397 01cc 1802     		.2byte	(.L71-.L28)/2
 398 01ce 1802     		.2byte	(.L71-.L28)/2
 399 01d0 1802     		.2byte	(.L71-.L28)/2
ARM GAS  C:\Users\info\AppData\Local\Temp\ccJ0QOuh.s 			page 14


 400 01d2 8800     		.2byte	(.L36-.L28)/2
 401              		.p2align 1
 402              	.L27:
 138:exec.c        ****                 break;
 403              		.loc 1 138 0
 404 01d4 16AB     		add	r3, sp, #88
 405 01d6 1F44     		add	r7, r7, r3
 406              	.LVL76:
 407 01d8 17F8103C 		ldrb	r3, [r7, #-16]	@ zero_extendqisi2
 408 01dc 16AA     		add	r2, sp, #88
 409              	.LVL77:
 410 01de 1444     		add	r4, r4, r2
 411              	.LVL78:
 412 01e0 04F8103C 		strb	r3, [r4, #-16]
  48:exec.c        ****         
 413              		.loc 1 48 0
 414 01e4 0023     		movs	r3, #0
  45:exec.c        ****         
 415              		.loc 1 45 0
 416 01e6 1A46     		mov	r2, r3
 139:exec.c        ****             case OP0_ARITH_OR:
 417              		.loc 1 139 0
 418 01e8 0BE2     		b	.L8
 419              	.LVL79:
 420              	.L29:
 142:exec.c        ****                 break;
 421              		.loc 1 142 0
 422 01ea 16AB     		add	r3, sp, #88
 423 01ec 1F44     		add	r7, r7, r3
 424              	.LVL80:
 425 01ee 17F8102C 		ldrb	r2, [r7, #-16]	@ zero_extendqisi2
 426              	.LVL81:
 427 01f2 1C44     		add	r4, r4, r3
 428              	.LVL82:
 429 01f4 14F8103C 		ldrb	r3, [r4, #-16]	@ zero_extendqisi2
 430 01f8 1343     		orrs	r3, r3, r2
 431 01fa 04F8103C 		strb	r3, [r4, #-16]
  48:exec.c        ****         
 432              		.loc 1 48 0
 433 01fe 0023     		movs	r3, #0
  45:exec.c        ****         
 434              		.loc 1 45 0
 435 0200 1A46     		mov	r2, r3
 143:exec.c        ****             case OP0_ARITH_AND:
 436              		.loc 1 143 0
 437 0202 FEE1     		b	.L8
 438              	.LVL83:
 439              	.L30:
 146:exec.c        ****                 break;
 440              		.loc 1 146 0
 441 0204 16AB     		add	r3, sp, #88
 442 0206 1F44     		add	r7, r7, r3
 443              	.LVL84:
 444 0208 17F8102C 		ldrb	r2, [r7, #-16]	@ zero_extendqisi2
 445              	.LVL85:
 446 020c 1C44     		add	r4, r4, r3
 447              	.LVL86:
ARM GAS  C:\Users\info\AppData\Local\Temp\ccJ0QOuh.s 			page 15


 448 020e 14F8103C 		ldrb	r3, [r4, #-16]	@ zero_extendqisi2
 449 0212 1340     		ands	r3, r3, r2
 450 0214 04F8103C 		strb	r3, [r4, #-16]
  48:exec.c        ****         
 451              		.loc 1 48 0
 452 0218 0023     		movs	r3, #0
  45:exec.c        ****         
 453              		.loc 1 45 0
 454 021a 1A46     		mov	r2, r3
 147:exec.c        ****             case OP0_ARITH_XOR:
 455              		.loc 1 147 0
 456 021c F1E1     		b	.L8
 457              	.LVL87:
 458              	.L31:
 150:exec.c        ****                 break;
 459              		.loc 1 150 0
 460 021e 16AB     		add	r3, sp, #88
 461 0220 1F44     		add	r7, r7, r3
 462              	.LVL88:
 463 0222 17F8102C 		ldrb	r2, [r7, #-16]	@ zero_extendqisi2
 464              	.LVL89:
 465 0226 1C44     		add	r4, r4, r3
 466              	.LVL90:
 467 0228 14F8103C 		ldrb	r3, [r4, #-16]	@ zero_extendqisi2
 468 022c 5340     		eors	r3, r3, r2
 469 022e 04F8103C 		strb	r3, [r4, #-16]
  48:exec.c        ****         
 470              		.loc 1 48 0
 471 0232 0023     		movs	r3, #0
  45:exec.c        ****         
 472              		.loc 1 45 0
 473 0234 1A46     		mov	r2, r3
 151:exec.c        ****             case OP0_ARITH_ADD:
 474              		.loc 1 151 0
 475 0236 E4E1     		b	.L8
 476              	.LVL91:
 477              	.L32:
 154:exec.c        ****                 break;
 478              		.loc 1 154 0
 479 0238 16AB     		add	r3, sp, #88
 480 023a 1F44     		add	r7, r7, r3
 481              	.LVL92:
 482 023c 17F8102C 		ldrb	r2, [r7, #-16]	@ zero_extendqisi2
 483              	.LVL93:
 484 0240 1C44     		add	r4, r4, r3
 485              	.LVL94:
 486 0242 14F8103C 		ldrb	r3, [r4, #-16]	@ zero_extendqisi2
 487 0246 1344     		add	r3, r3, r2
 488 0248 04F8103C 		strb	r3, [r4, #-16]
  48:exec.c        ****         
 489              		.loc 1 48 0
 490 024c 0023     		movs	r3, #0
  45:exec.c        ****         
 491              		.loc 1 45 0
 492 024e 1A46     		mov	r2, r3
 155:exec.c        ****             case OP0_ARITH_SUB:{
 493              		.loc 1 155 0
ARM GAS  C:\Users\info\AppData\Local\Temp\ccJ0QOuh.s 			page 16


 494 0250 D7E1     		b	.L8
 495              	.LVL95:
 496              	.L33:
 497              	.LBB6:
 158:exec.c        ****                 uint16_t vy = v[y];
 498              		.loc 1 158 0
 499 0252 16AB     		add	r3, sp, #88
 500 0254 1C44     		add	r4, r4, r3
 501              	.LVL96:
 502 0256 14F8102C 		ldrb	r2, [r4, #-16]	@ zero_extendqisi2
 503              	.LVL97:
 159:exec.c        ****                 uint16_t diff = vx - vy;                                
 504              		.loc 1 159 0
 505 025a 1F44     		add	r7, r7, r3
 506              	.LVL98:
 507 025c 17F8101C 		ldrb	r1, [r7, #-16]	@ zero_extendqisi2
 508              	.LVL99:
 160:exec.c        ****                 v[x] = diff;
 509              		.loc 1 160 0
 510 0260 531A     		subs	r3, r2, r1
 511              	.LVL100:
 161:exec.c        ****                 v[0xf] = (diff & 0x100) ? 0 : 1;
 512              		.loc 1 161 0
 513 0262 04F8103C 		strb	r3, [r4, #-16]
 162:exec.c        ****                 break;
 514              		.loc 1 162 0
 515 0266 C3F30723 		ubfx	r3, r3, #8, #8
 516              	.LVL101:
 517 026a 83F00103 		eor	r3, r3, #1
 518 026e 03F00103 		and	r3, r3, #1
 519 0272 8DF85730 		strb	r3, [sp, #87]
 520              	.LBE6:
  48:exec.c        ****         
 521              		.loc 1 48 0
 522 0276 0023     		movs	r3, #0
  45:exec.c        ****         
 523              		.loc 1 45 0
 524 0278 1A46     		mov	r2, r3
 525              	.LVL102:
 526              	.LBB7:
 163:exec.c        ****             }
 527              		.loc 1 163 0
 528 027a C2E1     		b	.L8
 529              	.LVL103:
 530              	.L34:
 531              	.LBE7:
 167:exec.c        ****                 v[x] >>= 1;
 532              		.loc 1 167 0
 533 027c 16AB     		add	r3, sp, #88
 534 027e 1C44     		add	r4, r4, r3
 535              	.LVL104:
 536 0280 14F8103C 		ldrb	r3, [r4, #-16]	@ zero_extendqisi2
 537 0284 03F00103 		and	r3, r3, #1
 538 0288 8DF85730 		strb	r3, [sp, #87]
 168:exec.c        ****                 break;
 539              		.loc 1 168 0
 540 028c 14F8103C 		ldrb	r3, [r4, #-16]	@ zero_extendqisi2
ARM GAS  C:\Users\info\AppData\Local\Temp\ccJ0QOuh.s 			page 17


 541 0290 5B08     		lsrs	r3, r3, #1
 542 0292 04F8103C 		strb	r3, [r4, #-16]
  48:exec.c        ****         
 543              		.loc 1 48 0
 544 0296 0023     		movs	r3, #0
  45:exec.c        ****         
 545              		.loc 1 45 0
 546 0298 1A46     		mov	r2, r3
 547              	.LVL105:
 169:exec.c        ****             case OP0_ARITH_SUBN:{
 548              		.loc 1 169 0
 549 029a B2E1     		b	.L8
 550              	.LVL106:
 551              	.L35:
 552              	.LBB8:
 172:exec.c        ****                 uint16_t vy = v[y];
 553              		.loc 1 172 0
 554 029c 16AB     		add	r3, sp, #88
 555 029e 1C44     		add	r4, r4, r3
 556              	.LVL107:
 557 02a0 14F8101C 		ldrb	r1, [r4, #-16]	@ zero_extendqisi2
 558              	.LVL108:
 173:exec.c        ****                 uint16_t diff = vy - vx;                                
 559              		.loc 1 173 0
 560 02a4 1F44     		add	r7, r7, r3
 561              	.LVL109:
 562 02a6 17F8102C 		ldrb	r2, [r7, #-16]	@ zero_extendqisi2
 563              	.LVL110:
 174:exec.c        ****                 v[x] = diff;
 564              		.loc 1 174 0
 565 02aa 531A     		subs	r3, r2, r1
 566              	.LVL111:
 175:exec.c        ****                 v[0xf] = (diff & 0x100) ? 0 : 1;
 567              		.loc 1 175 0
 568 02ac 04F8103C 		strb	r3, [r4, #-16]
 176:exec.c        ****                 break;
 569              		.loc 1 176 0
 570 02b0 C3F30723 		ubfx	r3, r3, #8, #8
 571              	.LVL112:
 572 02b4 83F00103 		eor	r3, r3, #1
 573 02b8 03F00103 		and	r3, r3, #1
 574 02bc 8DF85730 		strb	r3, [sp, #87]
 575              	.LBE8:
  48:exec.c        ****         
 576              		.loc 1 48 0
 577 02c0 0023     		movs	r3, #0
  45:exec.c        ****         
 578              		.loc 1 45 0
 579 02c2 1A46     		mov	r2, r3
 580              	.LVL113:
 581              	.LBB9:
 177:exec.c        ****             }
 582              		.loc 1 177 0
 583 02c4 9DE1     		b	.L8
 584              	.LVL114:
 585              	.L36:
 586              	.LBE9:
ARM GAS  C:\Users\info\AppData\Local\Temp\ccJ0QOuh.s 			page 18


 181:exec.c        ****                 v[x] <<= 1;
 587              		.loc 1 181 0
 588 02c6 16AB     		add	r3, sp, #88
 589 02c8 1C44     		add	r4, r4, r3
 590              	.LVL115:
 591 02ca 14F8103C 		ldrb	r3, [r4, #-16]	@ zero_extendqisi2
 592 02ce DB09     		lsrs	r3, r3, #7
 593 02d0 8DF85730 		strb	r3, [sp, #87]
 182:exec.c        ****                 break;
 594              		.loc 1 182 0
 595 02d4 14F8103C 		ldrb	r3, [r4, #-16]	@ zero_extendqisi2
 596 02d8 5B00     		lsls	r3, r3, #1
 597 02da 04F8103C 		strb	r3, [r4, #-16]
  48:exec.c        ****         
 598              		.loc 1 48 0
 599 02de 0023     		movs	r3, #0
  45:exec.c        ****         
 600              		.loc 1 45 0
 601 02e0 1A46     		mov	r2, r3
 602              	.LVL116:
 183:exec.c        ****             default:
 603              		.loc 1 183 0
 604 02e2 8EE1     		b	.L8
 605              	.LVL117:
 606              	.L17:
 191:exec.c        ****             break;
 607              		.loc 1 191 0
 608 02e4 0792     		str	r2, [sp, #28]
  48:exec.c        ****         
 609              		.loc 1 48 0
 610 02e6 0023     		movs	r3, #0
 611              	.LVL118:
  45:exec.c        ****         
 612              		.loc 1 45 0
 613 02e8 1A46     		mov	r2, r3
 614              	.LVL119:
 192:exec.c        ****         case OP3_RANDOM:
 615              		.loc 1 192 0
 616 02ea 8AE1     		b	.L8
 617              	.LVL120:
 618              	.L19:
 195:exec.c        ****             break;
 619              		.loc 1 195 0
 620 02ec FFF7FEFF 		bl	random_Read
 621              	.LVL121:
 622 02f0 16AB     		add	r3, sp, #88
 623 02f2 1C44     		add	r4, r4, r3
 624              	.LVL122:
 625 02f4 2840     		ands	r0, r0, r5
 626 02f6 04F8100C 		strb	r0, [r4, #-16]
  48:exec.c        ****         
 627              		.loc 1 48 0
 628 02fa 0023     		movs	r3, #0
  45:exec.c        ****         
 629              		.loc 1 45 0
 630 02fc 1A46     		mov	r2, r3
 196:exec.c        ****         case OP3_DRAW:{
ARM GAS  C:\Users\info\AppData\Local\Temp\ccJ0QOuh.s 			page 19


 631              		.loc 1 196 0
 632 02fe 80E1     		b	.L8
 633              	.L83:
 634              		.align	2
 635              	.L82:
 636 0300 00000000 		.word	vram
 637              	.LVL123:
 638              	.L40:
 639              	.LBB10:
 640              	.LBB11:
 641              	.LBB12:
 202:exec.c        ****                     row = ((uint64_t)ram[i + j]) << (56 - v[x]);
 642              		.loc 1 202 0
 643 0304 16AB     		add	r3, sp, #88
 644 0306 2344     		add	r3, r3, r4
 645 0308 13F8101C 		ldrb	r1, [r3, #-16]	@ zero_extendqisi2
 646 030c 3829     		cmp	r1, #56
 647 030e 16D8     		bhi	.L37
 203:exec.c        ****                 } else {
 648              		.loc 1 203 0
 649 0310 079B     		ldr	r3, [sp, #28]
 650 0312 2B44     		add	r3, r3, r5
 651 0314 1CF80320 		ldrb	r2, [ip, r3]	@ zero_extendqisi2
 652 0318 C1F13801 		rsb	r1, r1, #56
 653 031c A1F12000 		sub	r0, r1, #32
 654 0320 C1F12003 		rsb	r3, r1, #32
 655 0324 4FF00009 		mov	r9, #0
 656 0328 02FA00F0 		lsl	r0, r2, r0
 657 032c 49EA0009 		orr	r9, r9, r0
 658 0330 22FA03F3 		lsr	r3, r2, r3
 659 0334 49EA0309 		orr	r9, r9, r3
 660 0338 02FA01F8 		lsl	r8, r2, r1
 661              	.LVL124:
 662 033c 22E0     		b	.L38
 663              	.LVL125:
 664              	.L37:
 205:exec.c        ****                         | ((uint64_t)ram[i + j]) << (120 - v[x]);
 665              		.loc 1 205 0
 666 033e 079B     		ldr	r3, [sp, #28]
 667 0340 2B44     		add	r3, r3, r5
 668 0342 1CF80320 		ldrb	r2, [ip, r3]	@ zero_extendqisi2
 669 0346 A1F13803 		sub	r3, r1, #56
 670 034a 22FA03F0 		lsr	r0, r2, r3
 671 034e 0490     		str	r0, [sp, #16]
 672 0350 0020     		movs	r0, #0
 673 0352 0590     		str	r0, [sp, #20]
 206:exec.c        ****                 }
 674              		.loc 1 206 0
 675 0354 C1F17801 		rsb	r1, r1, #120
 676 0358 A1F12000 		sub	r0, r1, #32
 677 035c C1F12003 		rsb	r3, r1, #32
 678 0360 4FF0000B 		mov	fp, #0
 679 0364 02FA00F0 		lsl	r0, r2, r0
 680 0368 4BEA000B 		orr	fp, fp, r0
 681 036c 22FA03F3 		lsr	r3, r2, r3
 682 0370 4BEA030B 		orr	fp, fp, r3
 683 0374 02FA01FA 		lsl	r10, r2, r1
ARM GAS  C:\Users\info\AppData\Local\Temp\ccJ0QOuh.s 			page 20


 205:exec.c        ****                         | ((uint64_t)ram[i + j]) << (120 - v[x]);
 684              		.loc 1 205 0
 685 0378 DDE90489 		ldrd	r8, [sp, #16]
 686 037c 48EA0A08 		orr	r8, r8, r10
 687 0380 49EA0B09 		orr	r9, r9, fp
 688              	.LVL126:
 689              	.L38:
 208:exec.c        ****                 vram[(v[y] + j) % 32] ^= row;
 690              		.loc 1 208 0 discriminator 2
 691 0384 16AB     		add	r3, sp, #88
 692 0386 3B44     		add	r3, r3, r7
 693 0388 13F810EC 		ldrb	lr, [r3, #-16]	@ zero_extendqisi2
 694 038c AE44     		add	lr, lr, r5
 695 038e A34B     		ldr	r3, .L84
 696 0390 1EEA0303 		ands	r3, lr, r3
 697 0394 03D5     		bpl	.L39
 698 0396 013B     		subs	r3, r3, #1
 699 0398 63F01F03 		orn	r3, r3, #31
 700 039c 0133     		adds	r3, r3, #1
 701              	.L39:
 702 039e A04A     		ldr	r2, .L84+4
 703 03a0 02EBC30E 		add	lr, r2, r3, lsl #3
 704 03a4 DEE90023 		ldrd	r2, [lr]
 705 03a8 CDE90223 		strd	r2, [sp, #8]
 706 03ac 02EA0800 		and	r0, r2, r8
 707 03b0 03EA0901 		and	r1, r3, r9
 708 03b4 DDE90023 		ldrd	r2, [sp]
 709 03b8 0243     		orrs	r2, r2, r0
 710 03ba 0B43     		orrs	r3, r3, r1
 711 03bc CDE90023 		strd	r2, [sp]
 712              	.LVL127:
 209:exec.c        ****             }
 713              		.loc 1 209 0 discriminator 2
 714 03c0 DDE90223 		ldrd	r2, [sp, #8]
 715              	.LVL128:
 716 03c4 82EA0802 		eor	r2, r2, r8
 717 03c8 83EA0903 		eor	r3, r3, r9
 718 03cc CEE90023 		strd	r2, [lr]
 719              	.LBE12:
 200:exec.c        ****                 uint64_t row = 0;
 720              		.loc 1 200 0 discriminator 2
 721 03d0 0135     		adds	r5, r5, #1
 722              	.LVL129:
 723 03d2 09E0     		b	.L20
 724              	.LVL130:
 725              	.L60:
 726              	.LBE11:
 727              	.LBE10:
  51:exec.c        ****         case OP3_SYSTEM:
 728              		.loc 1 51 0
 729 03d4 0025     		movs	r5, #0
 730              	.LVL131:
 731 03d6 0022     		movs	r2, #0
 732              	.LVL132:
 733 03d8 0023     		movs	r3, #0
 734              	.LVL133:
 735 03da CDE90023 		strd	r2, [sp]
ARM GAS  C:\Users\info\AppData\Local\Temp\ccJ0QOuh.s 			page 21


 736 03de CDF824A0 		str	r10, [sp, #36]
 737 03e2 DC46     		mov	ip, fp
 738 03e4 DDE902AB 		ldrd	r10, [sp, #8]
 739              	.LVL134:
 740              	.L20:
 741              	.LBB14:
 742              	.LBB13:
 200:exec.c        ****                 uint64_t row = 0;
 743              		.loc 1 200 0 discriminator 1
 744 03e8 B542     		cmp	r5, r6
 745 03ea 8BDB     		blt	.L40
 746 03ec CDE902AB 		strd	r10, [sp, #8]
 747 03f0 DDF824A0 		ldr	r10, [sp, #36]
 748 03f4 E346     		mov	fp, ip
 749              	.LBE13:
 211:exec.c        ****             vga_update_flag = 1;
 750              		.loc 1 211 0
 751 03f6 DDE90012 		ldrd	r1, [sp]
 752 03fa 0B46     		mov	r3, r1
 753 03fc 1343     		orrs	r3, r3, r2
 754 03fe 14BF     		ite	ne
 755 0400 0123     		movne	r3, #1
 756 0402 0023     		moveq	r3, #0
 757 0404 8DF85730 		strb	r3, [sp, #87]
 212:exec.c        ****             break;
 758              		.loc 1 212 0
 759 0408 0122     		movs	r2, #1
 760 040a 864B     		ldr	r3, .L84+8
 761 040c 1A70     		strb	r2, [r3]
 762              	.LBE14:
  48:exec.c        ****         
 763              		.loc 1 48 0
 764 040e 0023     		movs	r3, #0
  45:exec.c        ****         
 765              		.loc 1 45 0
 766 0410 1A46     		mov	r2, r3
 767              	.LBB15:
 213:exec.c        ****         }
 768              		.loc 1 213 0
 769 0412 F6E0     		b	.L8
 770              	.LVL135:
 771              	.L21:
 772              	.LBE15:
 217:exec.c        ****             case OP10_KEYBOARD_EQ:
 773              		.loc 1 217 0
 774 0414 9E2D     		cmp	r5, #158
 775 0416 02D0     		beq	.L41
 776 0418 A12D     		cmp	r5, #161
 777 041a 12D0     		beq	.L42
 778 041c E6E0     		b	.L79
 779              	.L41:
 220:exec.c        ****                     pc += 2;
 780              		.loc 1 220 0
 781 041e 16AB     		add	r3, sp, #88
 782              	.LVL136:
 783 0420 1C44     		add	r4, r4, r3
 784              	.LVL137:
ARM GAS  C:\Users\info\AppData\Local\Temp\ccJ0QOuh.s 			page 22


 785 0422 14F8103C 		ldrb	r3, [r4, #-16]	@ zero_extendqisi2
 786 0426 03F00F03 		and	r3, r3, #15
 787 042a 7F4A     		ldr	r2, .L84+12
 788              	.LVL138:
 789 042c D35C     		ldrb	r3, [r2, r3]	@ zero_extendqisi2
 790 042e 012B     		cmp	r3, #1
 791 0430 40F0DF80 		bne	.L73
 221:exec.c        ****                 }
 792              		.loc 1 221 0
 793 0434 0AF1020A 		add	r10, r10, #2
 794              	.LVL139:
 795 0438 1FFA8AFA 		uxth	r10, r10
 796              	.LVL140:
  48:exec.c        ****         
 797              		.loc 1 48 0
 798 043c 0023     		movs	r3, #0
  45:exec.c        ****         
 799              		.loc 1 45 0
 800 043e 1A46     		mov	r2, r3
 801 0440 DFE0     		b	.L8
 802              	.LVL141:
 803              	.L42:
 226:exec.c        ****                     pc += 2;
 804              		.loc 1 226 0
 805 0442 16AB     		add	r3, sp, #88
 806              	.LVL142:
 807 0444 1C44     		add	r4, r4, r3
 808              	.LVL143:
 809 0446 14F8103C 		ldrb	r3, [r4, #-16]	@ zero_extendqisi2
 810 044a 03F00F03 		and	r3, r3, #15
 811 044e 764A     		ldr	r2, .L84+12
 812              	.LVL144:
 813 0450 D35C     		ldrb	r3, [r2, r3]	@ zero_extendqisi2
 814 0452 002B     		cmp	r3, #0
 815 0454 40F0D080 		bne	.L74
 227:exec.c        ****                 }
 816              		.loc 1 227 0
 817 0458 0AF1020A 		add	r10, r10, #2
 818              	.LVL145:
 819 045c 1FFA8AFA 		uxth	r10, r10
 820              	.LVL146:
  45:exec.c        ****         
 821              		.loc 1 45 0
 822 0460 1A46     		mov	r2, r3
 823 0462 CEE0     		b	.L8
 824              	.LVL147:
 825              	.L22:
 237:exec.c        ****             case OP10_SPECIAL_LOAD_DELAY:
 826              		.loc 1 237 0
 827 0464 1E2D     		cmp	r5, #30
 828 0466 41D0     		beq	.L43
 829 0468 0AD8     		bhi	.L44
 830 046a 0A2D     		cmp	r5, #10
 831 046c 1DD0     		beq	.L45
 832 046e 02D8     		bhi	.L46
 833 0470 072D     		cmp	r5, #7
 834 0472 11D0     		beq	.L47
ARM GAS  C:\Users\info\AppData\Local\Temp\ccJ0QOuh.s 			page 23


 835 0474 C3E0     		b	.L75
 836              	.L46:
 837 0476 152D     		cmp	r5, #21
 838 0478 26D0     		beq	.L48
 839 047a 182D     		cmp	r5, #24
 840 047c 2DD0     		beq	.L49
 841 047e BEE0     		b	.L75
 842              	.L44:
 843 0480 332D     		cmp	r5, #51
 844 0482 4AD0     		beq	.L50
 845 0484 02D8     		bhi	.L51
 846 0486 292D     		cmp	r5, #41
 847 0488 3BD0     		beq	.L52
 848 048a B8E0     		b	.L75
 849              	.L51:
 850 048c 552D     		cmp	r5, #85
 851 048e 72D0     		beq	.L76
 852 0490 652D     		cmp	r5, #101
 853 0492 00F08180 		beq	.L77
 854 0496 B2E0     		b	.L75
 855              	.L47:
 240:exec.c        ****                 break;
 856              		.loc 1 240 0
 857 0498 16AB     		add	r3, sp, #88
 858              	.LVL148:
 859 049a 1C44     		add	r4, r4, r3
 860              	.LVL149:
 861 049c 634B     		ldr	r3, .L84+16
 862 049e 1B78     		ldrb	r3, [r3]	@ zero_extendqisi2
 863 04a0 04F8103C 		strb	r3, [r4, #-16]
  48:exec.c        ****         
 864              		.loc 1 48 0
 865 04a4 0023     		movs	r3, #0
  45:exec.c        ****         
 866              		.loc 1 45 0
 867 04a6 1A46     		mov	r2, r3
 868              	.LVL150:
 241:exec.c        ****             case OP10_SPECIAL_LOAD_KEYBOARD:
 869              		.loc 1 241 0
 870 04a8 ABE0     		b	.L8
 871              	.LVL151:
 872              	.L45:
 244:exec.c        ****                 v[x] = lastkey;
 873              		.loc 1 244 0 discriminator 1
 874 04aa 614B     		ldr	r3, .L84+20
 875 04ac 1B78     		ldrb	r3, [r3]	@ zero_extendqisi2
 876 04ae 002B     		cmp	r3, #0
 877 04b0 FBD0     		beq	.L45
 245:exec.c        ****                 keyflag = 0;
 878              		.loc 1 245 0
 879 04b2 16AB     		add	r3, sp, #88
 880 04b4 1C44     		add	r4, r4, r3
 881              	.LVL152:
 882 04b6 5F4B     		ldr	r3, .L84+24
 883 04b8 1B78     		ldrb	r3, [r3]	@ zero_extendqisi2
 884 04ba 04F8103C 		strb	r3, [r4, #-16]
 246:exec.c        ****                 break;
ARM GAS  C:\Users\info\AppData\Local\Temp\ccJ0QOuh.s 			page 24


 885              		.loc 1 246 0
 886 04be 0022     		movs	r2, #0
 887              	.LVL153:
 888 04c0 5B4B     		ldr	r3, .L84+20
 889 04c2 1A70     		strb	r2, [r3]
 890              	.LVL154:
  48:exec.c        ****         
 891              		.loc 1 48 0
 892 04c4 1346     		mov	r3, r2
 247:exec.c        ****             case OP10_SPECIAL_SET_DELAY:
 893              		.loc 1 247 0
 894 04c6 9CE0     		b	.L8
 895              	.LVL155:
 896              	.L48:
 250:exec.c        ****                 break;
 897              		.loc 1 250 0
 898 04c8 16AB     		add	r3, sp, #88
 899              	.LVL156:
 900 04ca 1C44     		add	r4, r4, r3
 901              	.LVL157:
 902 04cc 14F8102C 		ldrb	r2, [r4, #-16]	@ zero_extendqisi2
 903              	.LVL158:
 904 04d0 564B     		ldr	r3, .L84+16
 905 04d2 1A70     		strb	r2, [r3]
 906              	.LVL159:
  48:exec.c        ****         
 907              		.loc 1 48 0
 908 04d4 0023     		movs	r3, #0
  45:exec.c        ****         
 909              		.loc 1 45 0
 910 04d6 1A46     		mov	r2, r3
 251:exec.c        ****             case OP10_SPECIAL_SET_SOUND:
 911              		.loc 1 251 0
 912 04d8 93E0     		b	.L8
 913              	.LVL160:
 914              	.L49:
 254:exec.c        ****                 break;
 915              		.loc 1 254 0
 916 04da 16AB     		add	r3, sp, #88
 917              	.LVL161:
 918 04dc 1C44     		add	r4, r4, r3
 919              	.LVL162:
 920 04de 14F8102C 		ldrb	r2, [r4, #-16]	@ zero_extendqisi2
 921              	.LVL163:
 922 04e2 554B     		ldr	r3, .L84+28
 923 04e4 1A70     		strb	r2, [r3]
 924              	.LVL164:
  48:exec.c        ****         
 925              		.loc 1 48 0
 926 04e6 0023     		movs	r3, #0
  45:exec.c        ****         
 927              		.loc 1 45 0
 928 04e8 1A46     		mov	r2, r3
 255:exec.c        ****             case OP10_SPECIAL_ADD_TO_I:
 929              		.loc 1 255 0
 930 04ea 8AE0     		b	.L8
 931              	.LVL165:
ARM GAS  C:\Users\info\AppData\Local\Temp\ccJ0QOuh.s 			page 25


 932              	.L43:
 258:exec.c        ****                 break;
 933              		.loc 1 258 0
 934 04ec 16AB     		add	r3, sp, #88
 935              	.LVL166:
 936 04ee 1C44     		add	r4, r4, r3
 937              	.LVL167:
 938 04f0 14F8103C 		ldrb	r3, [r4, #-16]	@ zero_extendqisi2
 939 04f4 079A     		ldr	r2, [sp, #28]
 940              	.LVL168:
 941 04f6 1A44     		add	r2, r2, r3
 942 04f8 93B2     		uxth	r3, r2
 943 04fa 0793     		str	r3, [sp, #28]
 944              	.LVL169:
  48:exec.c        ****         
 945              		.loc 1 48 0
 946 04fc 0023     		movs	r3, #0
  45:exec.c        ****         
 947              		.loc 1 45 0
 948 04fe 1A46     		mov	r2, r3
 259:exec.c        ****             case OP10_SPECIAL_LOAD_FONT:
 949              		.loc 1 259 0
 950 0500 7FE0     		b	.L8
 951              	.LVL170:
 952              	.L52:
 262:exec.c        ****                 break;
 953              		.loc 1 262 0
 954 0502 16AB     		add	r3, sp, #88
 955              	.LVL171:
 956 0504 1C44     		add	r4, r4, r3
 957              	.LVL172:
 958 0506 14F8103C 		ldrb	r3, [r4, #-16]	@ zero_extendqisi2
 959 050a 03F00F03 		and	r3, r3, #15
 960 050e 03EB8303 		add	r3, r3, r3, lsl #2
 961 0512 0793     		str	r3, [sp, #28]
 962              	.LVL173:
  48:exec.c        ****         
 963              		.loc 1 48 0
 964 0514 0023     		movs	r3, #0
  45:exec.c        ****         
 965              		.loc 1 45 0
 966 0516 1A46     		mov	r2, r3
 967              	.LVL174:
 263:exec.c        ****             case OP10_SPECIAL_LOAD_BCD:
 968              		.loc 1 263 0
 969 0518 73E0     		b	.L8
 970              	.LVL175:
 971              	.L50:
 266:exec.c        ****                 ram[i+1] = (uint8_t)(v[x] / 10) % 10;
 972              		.loc 1 266 0
 973 051a 16AB     		add	r3, sp, #88
 974              	.LVL176:
 975 051c 1C44     		add	r4, r4, r3
 976              	.LVL177:
 977 051e 14F8101C 		ldrb	r1, [r4, #-16]	@ zero_extendqisi2
 978 0522 464A     		ldr	r2, .L84+32
 979              	.LVL178:
ARM GAS  C:\Users\info\AppData\Local\Temp\ccJ0QOuh.s 			page 26


 980 0524 A2FB0132 		umull	r3, r2, r2, r1
 981 0528 454B     		ldr	r3, .L84+36
 982 052a 5209     		lsrs	r2, r2, #5
 983 052c 079E     		ldr	r6, [sp, #28]
 984              	.LVL179:
 985 052e 0BF80620 		strb	r2, [fp, r6]
 986              	.LVL180:
 267:exec.c        ****                 ram[i+2] = (uint8_t)(v[x]) % 10;
 987              		.loc 1 267 0
 988 0532 741C     		adds	r4, r6, #1
 989 0534 A3FB0102 		umull	r0, r2, r3, r1
 990 0538 D208     		lsrs	r2, r2, #3
 991 053a D0B2     		uxtb	r0, r2
 992 053c A3FB0053 		umull	r5, r3, r3, r0
 993              	.LVL181:
 994 0540 DB08     		lsrs	r3, r3, #3
 995 0542 03EB8303 		add	r3, r3, r3, lsl #2
 996 0546 5D00     		lsls	r5, r3, #1
 997 0548 401B     		subs	r0, r0, r5
 998 054a 0BF80400 		strb	r0, [fp, r4]
 268:exec.c        ****                 break;
 999              		.loc 1 268 0
 1000 054e B31C     		adds	r3, r6, #2
 1001 0550 02EB8202 		add	r2, r2, r2, lsl #2
 1002 0554 5000     		lsls	r0, r2, #1
 1003 0556 091A     		subs	r1, r1, r0
 1004 0558 0BF80310 		strb	r1, [fp, r3]
  48:exec.c        ****         
 1005              		.loc 1 48 0
 1006 055c 0023     		movs	r3, #0
  45:exec.c        ****         
 1007              		.loc 1 45 0
 1008 055e 1A46     		mov	r2, r3
 269:exec.c        ****             case OP10_SPECIAL_LOAD_AT_I:
 1009              		.loc 1 269 0
 1010 0560 4FE0     		b	.L8
 1011              	.LVL182:
 1012              	.L55:
 1013              	.LBB16:
 273:exec.c        ****                 }
 1014              		.loc 1 273 0 discriminator 3
 1015 0562 C218     		adds	r2, r0, r3
 1016 0564 16A9     		add	r1, sp, #88
 1017 0566 1944     		add	r1, r1, r3
 1018 0568 11F8101C 		ldrb	r1, [r1, #-16]	@ zero_extendqisi2
 1019 056c 0BF80210 		strb	r1, [fp, r2]
 272:exec.c        ****                     ram[i + j] = v[j];
 1020              		.loc 1 272 0 discriminator 3
 1021 0570 0133     		adds	r3, r3, #1
 1022              	.LVL183:
 1023 0572 DBB2     		uxtb	r3, r3
 1024              	.LVL184:
 1025 0574 01E0     		b	.L53
 1026              	.LVL185:
 1027              	.L76:
 1028              	.LBE16:
 237:exec.c        ****             case OP10_SPECIAL_LOAD_DELAY:
ARM GAS  C:\Users\info\AppData\Local\Temp\ccJ0QOuh.s 			page 27


 1029              		.loc 1 237 0
 1030 0576 0023     		movs	r3, #0
 1031              	.LVL186:
 1032 0578 0798     		ldr	r0, [sp, #28]
 1033              	.LVL187:
 1034              	.L53:
 1035              	.LBB17:
 272:exec.c        ****                     ram[i + j] = v[j];
 1036              		.loc 1 272 0 discriminator 1
 1037 057a A342     		cmp	r3, r4
 1038 057c F1D9     		bls	.L55
 1039              	.LBE17:
  48:exec.c        ****         
 1040              		.loc 1 48 0
 1041 057e 0023     		movs	r3, #0
 1042              	.LVL188:
  45:exec.c        ****         
 1043              		.loc 1 45 0
 1044 0580 1A46     		mov	r2, r3
 1045 0582 3EE0     		b	.L8
 1046              	.LVL189:
 1047              	.L56:
 1048              	.LBB18:
 279:exec.c        ****                 }
 1049              		.loc 1 279 0 discriminator 3
 1050 0584 C218     		adds	r2, r0, r3
 1051 0586 1BF80210 		ldrb	r1, [fp, r2]	@ zero_extendqisi2
 1052 058a 16AA     		add	r2, sp, #88
 1053 058c 1A44     		add	r2, r2, r3
 1054 058e 02F8101C 		strb	r1, [r2, #-16]
 278:exec.c        ****                     v[j] = ram[i + j];
 1055              		.loc 1 278 0 discriminator 3
 1056 0592 0133     		adds	r3, r3, #1
 1057              	.LVL190:
 1058 0594 DBB2     		uxtb	r3, r3
 1059              	.LVL191:
 1060 0596 01E0     		b	.L54
 1061              	.LVL192:
 1062              	.L77:
 1063              	.LBE18:
 237:exec.c        ****             case OP10_SPECIAL_LOAD_DELAY:
 1064              		.loc 1 237 0
 1065 0598 0023     		movs	r3, #0
 1066              	.LVL193:
 1067 059a 0798     		ldr	r0, [sp, #28]
 1068              	.LVL194:
 1069              	.L54:
 1070              	.LBB19:
 278:exec.c        ****                     v[j] = ram[i + j];
 1071              		.loc 1 278 0 discriminator 1
 1072 059c A342     		cmp	r3, r4
 1073 059e F1D9     		bls	.L56
 1074              	.LBE19:
  48:exec.c        ****         
 1075              		.loc 1 48 0
 1076 05a0 0023     		movs	r3, #0
 1077              	.LVL195:
ARM GAS  C:\Users\info\AppData\Local\Temp\ccJ0QOuh.s 			page 28


  45:exec.c        ****         
 1078              		.loc 1 45 0
 1079 05a2 1A46     		mov	r2, r3
 1080              	.LBB20:
 1081 05a4 2DE0     		b	.L8
 1082              	.LVL196:
 1083              	.L59:
 1084              	.LBE20:
  78:exec.c        ****             freeze_pc = 1;
 1085              		.loc 1 78 0
 1086 05a6 9246     		mov	r10, r2
 1087              	.LVL197:
  79:exec.c        ****             break;
 1088              		.loc 1 79 0
 1089 05a8 0123     		movs	r3, #1
 1090              	.LVL198:
  45:exec.c        ****         
 1091              		.loc 1 45 0
 1092 05aa 0022     		movs	r2, #0
 1093              	.LVL199:
 1094 05ac 29E0     		b	.L8
 1095              	.LVL200:
 1096              	.L61:
  48:exec.c        ****         
 1097              		.loc 1 48 0
 1098 05ae 0023     		movs	r3, #0
 1099              	.LVL201:
  55:exec.c        ****             } else {
 1100              		.loc 1 55 0
 1101 05b0 0122     		movs	r2, #1
 1102              	.LVL202:
 1103 05b2 26E0     		b	.L8
 1104              	.LVL203:
 1105              	.L78:
  48:exec.c        ****         
 1106              		.loc 1 48 0
 1107 05b4 0023     		movs	r3, #0
 1108              	.LVL204:
  71:exec.c        ****                     break;
 1109              		.loc 1 71 0
 1110 05b6 0122     		movs	r2, #1
 1111              	.LVL205:
 1112 05b8 23E0     		b	.L8
 1113              	.LVL206:
 1114              	.L64:
  90:exec.c        ****             freeze_pc = 1;
 1115              		.loc 1 90 0
 1116 05ba 9246     		mov	r10, r2
 1117              	.LVL207:
  91:exec.c        ****             break;
 1118              		.loc 1 91 0
 1119 05bc 0123     		movs	r3, #1
  45:exec.c        ****         
 1120              		.loc 1 45 0
 1121 05be 0022     		movs	r2, #0
 1122              	.LVL208:
 1123 05c0 1FE0     		b	.L8
ARM GAS  C:\Users\info\AppData\Local\Temp\ccJ0QOuh.s 			page 29


 1124              	.LVL209:
 1125              	.L65:
  48:exec.c        ****         
 1126              		.loc 1 48 0
 1127 05c2 0023     		movs	r3, #0
  45:exec.c        ****         
 1128              		.loc 1 45 0
 1129 05c4 1A46     		mov	r2, r3
 1130              	.LVL210:
 1131 05c6 1CE0     		b	.L8
 1132              	.LVL211:
 1133              	.L66:
  48:exec.c        ****         
 1134              		.loc 1 48 0
 1135 05c8 0023     		movs	r3, #0
  45:exec.c        ****         
 1136              		.loc 1 45 0
 1137 05ca 1A46     		mov	r2, r3
 1138              	.LVL212:
 1139 05cc 19E0     		b	.L8
 1140              	.LVL213:
 1141              	.L67:
  48:exec.c        ****         
 1142              		.loc 1 48 0
 1143 05ce 0023     		movs	r3, #0
 1144              	.LVL214:
 112:exec.c        ****             }
 1145              		.loc 1 112 0
 1146 05d0 0122     		movs	r2, #1
 1147              	.LVL215:
 1148 05d2 16E0     		b	.L8
 1149              	.LVL216:
 1150              	.L68:
  48:exec.c        ****         
 1151              		.loc 1 48 0
 1152 05d4 0023     		movs	r3, #0
  45:exec.c        ****         
 1153              		.loc 1 45 0
 1154 05d6 1A46     		mov	r2, r3
 1155 05d8 13E0     		b	.L8
 1156              	.LVL217:
 1157              	.L69:
  48:exec.c        ****         
 1158              		.loc 1 48 0
 1159 05da 0023     		movs	r3, #0
 1160              	.LVL218:
 122:exec.c        ****             }
 1161              		.loc 1 122 0
 1162 05dc 0122     		movs	r2, #1
 1163              	.LVL219:
 1164 05de 10E0     		b	.L8
 1165              	.LVL220:
 1166              	.L70:
  48:exec.c        ****         
 1167              		.loc 1 48 0
 1168 05e0 0023     		movs	r3, #0
  45:exec.c        ****         
ARM GAS  C:\Users\info\AppData\Local\Temp\ccJ0QOuh.s 			page 30


 1169              		.loc 1 45 0
 1170 05e2 1A46     		mov	r2, r3
 1171 05e4 0DE0     		b	.L8
 1172              	.LVL221:
 1173              	.L71:
  48:exec.c        ****         
 1174              		.loc 1 48 0
 1175 05e6 0023     		movs	r3, #0
 185:exec.c        ****                 break;
 1176              		.loc 1 185 0
 1177 05e8 0122     		movs	r2, #1
 1178              	.LVL222:
 1179 05ea 0AE0     		b	.L8
 1180              	.LVL223:
 1181              	.L79:
  48:exec.c        ****         
 1182              		.loc 1 48 0
 1183 05ec 0023     		movs	r3, #0
 1184              	.LVL224:
 231:exec.c        ****                 break;
 1185              		.loc 1 231 0
 1186 05ee 0122     		movs	r2, #1
 1187              	.LVL225:
 1188 05f0 07E0     		b	.L8
 1189              	.LVL226:
 1190              	.L73:
  48:exec.c        ****         
 1191              		.loc 1 48 0
 1192 05f2 0023     		movs	r3, #0
  45:exec.c        ****         
 1193              		.loc 1 45 0
 1194 05f4 1A46     		mov	r2, r3
 1195 05f6 04E0     		b	.L8
 1196              	.L74:
  48:exec.c        ****         
 1197              		.loc 1 48 0
 1198 05f8 0023     		movs	r3, #0
  45:exec.c        ****         
 1199              		.loc 1 45 0
 1200 05fa 1A46     		mov	r2, r3
 1201 05fc 01E0     		b	.L8
 1202              	.LVL227:
 1203              	.L75:
  48:exec.c        ****         
 1204              		.loc 1 48 0
 1205 05fe 0023     		movs	r3, #0
 1206              	.LVL228:
 283:exec.c        ****                 break;
 1207              		.loc 1 283 0
 1208 0600 0122     		movs	r2, #1
 1209              	.LVL229:
 1210              	.L8:
 289:exec.c        ****             break;
 290:exec.c        ****         }
 291:exec.c        ****         if (invalid_op) {
 1211              		.loc 1 291 0
 1212 0602 3AB9     		cbnz	r2, .L1
ARM GAS  C:\Users\info\AppData\Local\Temp\ccJ0QOuh.s 			page 31


 292:exec.c        ****             /* Return to indicate error */
 293:exec.c        ****             return;
 294:exec.c        ****         }
 295:exec.c        ****         if (!freeze_pc){
 1213              		.loc 1 295 0
 1214 0604 002B     		cmp	r3, #0
 1215 0606 7FF416AD 		bne	.L4
 296:exec.c        ****             /* Increment PC */
 297:exec.c        ****             pc += 2;
 1216              		.loc 1 297 0
 1217 060a 0AF1020A 		add	r10, r10, #2
 1218              	.LVL230:
 1219 060e 1FFA8AFA 		uxth	r10, r10
 1220              	.LVL231:
 1221 0612 10E5     		b	.L4
 1222              	.L1:
 1223              	.LBE3:
 298:exec.c        ****         }
 299:exec.c        ****     }
 300:exec.c        **** }
 1224              		.loc 1 300 0
 1225 0614 17B0     		add	sp, sp, #92
 1226              		.cfi_def_cfa_offset 36
 1227              		@ sp needed
 1228 0616 BDE8F08F 		pop	{r4, r5, r6, r7, r8, r9, r10, fp, pc}
 1229              	.LVL232:
 1230              	.L85:
 1231 061a 00BF     		.align	2
 1232              	.L84:
 1233 061c 1F000080 		.word	-2147483617
 1234 0620 00000000 		.word	vram
 1235 0624 00000000 		.word	vga_update_flag
 1236 0628 00000000 		.word	keys
 1237 062c 00000000 		.word	tmr
 1238 0630 00000000 		.word	keyflag
 1239 0634 00000000 		.word	lastkey
 1240 0638 00000000 		.word	snd
 1241 063c 1F85EB51 		.word	1374389535
 1242 0640 CDCCCCCC 		.word	-858993459
 1243              		.cfi_endproc
 1244              	.LFE63:
 1245              		.size	execute, .-execute
 1246              		.text
 1247              	.Letext0:
 1248              		.file 2 "c:\\program files (x86)\\cypress\\psoc creator\\4.2\\psoc creator\\import\\gnu\\arm\\5.4.
 1249              		.file 3 "c:\\program files (x86)\\cypress\\psoc creator\\4.2\\psoc creator\\import\\gnu\\arm\\5.4.
 1250              		.file 4 "Generated_Source\\PSoC5/core_cm3.h"
 1251              		.file 5 "Generated_Source\\PSoC5/random.h"