ARM GAS  C:\Users\info\AppData\Local\Temp\ccMM8dib.s 			page 1


   1              		.syntax unified
   2              		.cpu cortex-m3
   3              		.fpu softvfp
   4              		.eabi_attribute 20, 1
   5              		.eabi_attribute 21, 1
   6              		.eabi_attribute 23, 3
   7              		.eabi_attribute 24, 1
   8              		.eabi_attribute 25, 1
   9              		.eabi_attribute 26, 1
  10              		.eabi_attribute 30, 1
  11              		.eabi_attribute 34, 1
  12              		.eabi_attribute 18, 4
  13              		.thumb
  14              		.syntax unified
  15              		.file	"HSYNC_PM.c"
  16              		.text
  17              	.Ltext0:
  18              		.section	.gnu.lto_.profile.792a7bc9,"",%progbits
  19 0000 789C6361 		.ascii	"x\234ca`d`e`\000\222\015\214J\000\002\"\000\257"
  19      60646065 
  19      6000920D 
  19      8C4A0002 
  19      2200AF
  20              		.text
  21              		.section	.gnu.lto_.inline.792a7bc9,"",%progbits
  22 0000 789C6361 		.ascii	"x\234ca`d\000\2016\006\004`a`\340Qcd`b\373\240\307\300"
  22      60640081 
  22      36060460 
  22      6160E051 
  22      63646062 
  23 0018 B6409E09 		.ascii	"\266@\236\011$\306\304\215J`W\3018\301\017\225bf\340"
  23      24C6C48D 
  23      4A6057C1 
  23      38C10F95 
  23      6266E0
  24 002b 9202AAE3 		.ascii	"\222\002\252\343\332g\007W\307\310\005#X\0308\204\321"
  24      DA670757 
  24      C7C80523 
  24      58183884 
  24      D1
  25 003c 0C414832 		.ascii	"\014AH2\000\000u\226\013\355"
  25      00007596 
  25      0BED
  26              		.text
  27              		.section	.gnu.lto_.jmpfuncs.792a7bc9,"",%progbits
  28 0000 789C6361 		.ascii	"x\234ca`d\000\001\011\006\004`\201PL`\222\031!\002\000"
  28      60640001 
  28      09060460 
  28      81504C60 
  28      92192102 
  29 0015 0521002B 		.ascii	"\005!\000+"
  30              		.text
  31              		.section	.gnu.lto_.pureconst.792a7bc9,"",%progbits
  32 0000 789C6361 		.ascii	"x\234ca`d\340d```a\220`\222`\226b\221\000\000\002\243"
  32      6064E064 
  32      60606061 
  32      90609260 
ARM GAS  C:\Users\info\AppData\Local\Temp\ccMM8dib.s 			page 2


  32      96629100 
  33 0017 007E     		.ascii	"\000~"
  34              		.text
  35              		.section	.gnu.lto_HSYNC_SaveConfig.792a7bc9,"",%progbits
  36 0000 789C9592 		.ascii	"x\234\225\222\275/\204A\020\306\347\331=\257;\037\211"
  36      BD2F8441 
  36      10C6E7D9 
  36      3DAF3B1F 
  36      89
  37 0011 9E888848 		.ascii	"\236\210\210H\256\271\253\374\005\0224D\\%$\"\\Kr\250"
  37      AEB9ABFC 
  37      05123444 
  37      5C252422 
  37      5C4B72A8 
  38 0025 6F396FD0 		.ascii	"o9o\320\010\205S\211\250|\236o\341*o\004\225P\210J\203"
  38      08855389 
  38      A87C9E6F 
  38      E12A6F04 
  38      9550884A 
  39 003a 42E4A220 		.ascii	"B\344\242 \241<gfO!\361\021&\331\235\315\35633\277\331"
  39      A13C6766 
  39      4F21F111 
  39      26D99DCD 
  39      EE3333BF 
  40 004f 5D1F81C4 		.ascii	"]\037\201\304\332\024Q\015\373r\036\320\0045uN4\354"
  40      DA14510D 
  40      FB721ED0 
  40      0435754E 
  40      34EC
  41 0061 57802C8C 		.ascii	"W\200,\214\037\024W\210\343Ue\025\216\306\356\323*\270"
  41      1F145788 
  41      E3556515 
  41      8EC6EED3 
  41      2AB8
  42 0073 68D86E4E 		.ascii	"h\330nN\222\332,yp5QN\331L\204E\004\211ew[o3\245\316"
  42      92DA2C79 
  42      7035514E 
  42      D94C8445 
  42      04896577 
  43 008c A8C8AAF2 		.ascii	"\250\310\252\362\207X\202#\3456\332<\223\313%\214\267"
  43      87588223 
  43      E536DA3C 
  43      93CB258C 
  43      B7
  44 009d 5F902A29 		.ascii	"_\220*)\326\344j82\005d\"zb\255T}VJ\274~@\302;L+\211"
  44      D6E46A38 
  44      32056422 
  44      7A62AD54 
  44      7D564ABC 
  45 00b8 4E68CD99 		.ascii	"Nh\315\231\323\351\307\353\302x\326\214\033S\346j\225"
  45      D3E9C7EB 
  45      C278D68C 
  45      1B53E66A 
  45      95
  46 00c9 531C8465 		.ascii	"S\034\204e\3049\\\323=F\222\013\265\"fe\322=\272(|Q"
  46      C4395CD3 
  46      3D46920B 
ARM GAS  C:\Users\info\AppData\Local\Temp\ccMM8dib.s 			page 3


  46      B5226665 
  46      D23DBA28 
  47 00df AEF681BE 		.ascii	"\256\366\201\276\004\372&\230Z\2663gW\307E\363\230\033"
  47      04FA2698 
  47      5AB63367 
  47      57C745F3 
  47      981B
  48 00f1 3676BF00 		.ascii	"6v\277\000\253\334\352\012*\354\341\344\301\346\204"
  48      ABDCEA0A 
  48      2AECE1E4 
  48      C1E684
  49 0100 3F9C9236 		.ascii	"?\234\2226\314\200\253\035\254a\036o\266W\244\020f\""
  49      CC80AB1D 
  49      AC611E6F 
  49      B657A410 
  49      6622
  50 0112 12C0CB2C 		.ascii	"\022\300\313,\362\200\316w\200,\307\372'\300\333\312"
  50      F280CE77 
  50      802CC7FA 
  50      27C0DBCA 
  51 0122 0FC0BF12 		.ascii	"\017\300\277\022m\374@\324!D\233\226Hn\026[B\344X\242"
  51      6DFC40D4 
  51      21449B96 
  51      486E165B 
  51      42E458A2 
  52 0136 E9D3709E 		.ascii	"\351\323p\236(\360\035\021\027\302\366g\242\320?\211"
  52      28F01D11 
  52      17C2F667 
  52      A2D03F89 
  53 0146 767EBBA3 		.ascii	"v~\273\243]Kd\337|O\210\002\224\301\2107\333 5\354'"
  53      5D4B64DF 
  53      7C4F8802 
  53      94C18837 
  53      DB2035EC 
  54 015b 79625C7E 		.ascii	"yb\\~[VT7F\373\242\261\356\301hoW\244\177(\326\023\355"
  54      5B565437 
  54      46FBA2B1 
  54      EEC1686F 
  54      57A47F28 
  55 0172 6C8DF4D7 		.ascii	"l\215\364\327\327u6E\332[\352\273Z\233C=\364\016X\221"
  55      D7753645 
  55      DA5BEABB 
  55      5A9B433D 
  55      F40E5891 
  56 0186 D87D     		.ascii	"\330}"
  57              		.text
  58              		.section	.gnu.lto_HSYNC_RestoreConfig.792a7bc9,"",%progbits
  59 0000 789C9591 		.ascii	"x\234\225\221=HBQ\024\307\317\271\367\371|\004A{\015"
  59      3D484251 
  59      14C7CFB9 
  59      F7F97C04 
  59      417B0D
  60 0013 112D0E65 		.ascii	"\021-\016eK{\340PK!9\005\202\204\2755Aj\366\252=\312"
  60      4B7BE050 
  60      4B213905 
  60      8284BD35 
  60      416AF6AA 
ARM GAS  C:\Users\info\AppData\Local\Temp\ccMM8dib.s 			page 4


  61 0029 256AA82D 		.ascii	"%j\250-\034\265O\265\017\310\246\227\004-Q48\005\025"
  61      1CB54FB5 
  61      0FC8A697 
  61      042D5134 
  61      380515
  62 003c 0D1212A5 		.ascii	"\015\022\022\245T\243\276\356\271RK\202x\340\336s9\367"
  62      54A3BEEE 
  62      B9524B82 
  62      78E0DE73 
  62      39F7
  63 004e F0FFFFEE 		.ascii	"\360\377\377\356=\032 PL0\200a\231\373\345B\016\310"
  63      3D1A2050 
  63      4C308061 
  63      99FBE542 
  63      0EC8
  64 0060 366E01E2 		.ascii	"6n\001\342\006C\244\2030\020b\014c\370\315\032\014K"
  64      0643A483 
  64      3010620C 
  64      63F8CD1A 
  64      0C4B
  65 0072 AB9522F3 		.ascii	"\253\225\"\363d\204\214g\353}Ldm\2648\200\303\224\022"
  65      64848C67 
  65      EB7D4C64 
  65      6DB43880 
  65      C39412
  66 0085 60063D20 		.ascii	"`\006= \333^\012\315\255^}\205\332\006[\227\230E\235"
  66      DB5E0ACD 
  66      AD5E7D85 
  66      DA065B97 
  66      98459D
  67 0098 EC72B3B6 		.ascii	"\354r\263\266p\234\244\260?\365\313\36253\030X\0345"
  67      709CA4B0 
  67      3FF5CBF2 
  67      35331858 
  67      1C35
  68 00aa DA74DA00 		.ascii	"\332t\332\000j\262\233|\353\214Q\346\025L\\\024\036"
  68      6AB29B7C 
  68      EB8C51E6 
  68      154C5C14 
  68      1E
  69 00bb 375D2490 		.ascii	"7]$\220\344\304\260m\225\356\334_\314\342\014\311\253"
  69      E4C4B06D 
  69      95EEDC5F 
  69      CCE20CC9 
  69      AB
  70 00cc 587C7B70 		.ascii	"X|{p\307\032bM\210>YKI\034*Wo\312W=i\334\211\013U\347"
  70      C71A624D 
  70      883E594B 
  70      491C2A57 
  70      6FCA573D 
  71 00e6 B827DFB0 		.ascii	"\270'\337\260\213\003\352r\375<\2372\274#\026\327p\037"
  71      8B03EA72 
  71      FD3C9F32 
  71      BC2316D7 
  71      701F
  72 00f8 D3D854F8 		.ascii	"\323\330T\370x\200^xE\215\234\376\013\273\034i\007x"
  72      78805E78 
ARM GAS  C:\Users\info\AppData\Local\Temp\ccMM8dib.s 			page 5


  72      458D9CFE 
  72      0BBB1C69 
  72      0778
  73 010a 88319018 		.ascii	"\2101\220\030\026\327\201\310\352O\367\274E\246u\201"
  73      16D781C8 
  73      EA4FF7BC 
  73      45A67581 
  74 011a 72D41E25 		.ascii	"r\324\036%\247P\350\2270\337\001E\002cA\241h\177(\037"
  74      A750E897 
  74      30DF0145 
  74      026341A1 
  74      687F281F 
  75 012e BF9FA477 		.ascii	"\277\237\244w\201r\334\036\345D\241\250\301\235v@\221"
  75      8172DC1E 
  75      E544A1A8 
  75      C19D7640 
  75      91
  76 013f CA78A650 		.ascii	"\312x\246PtB\251b\302\226\203U\355\0245\371 9G)54i."
  76      7442A962 
  76      C2968355 
  76      ED1435F9 
  76      20394729 
  77 0157 9AD1F925 		.ascii	"\232\321\371%s!\024\210,G\303f\320\037\210\370\306\203"
  77      73211488 
  77      2C47C366 
  77      D01F88F8 
  77      C683
  78 0169 5381B919 		.ascii	"S\201\271\031_\310?=\032\206\037\223-\315B"
  78      5FC83F3D 
  78      1A861F93 
  78      2DCD42
  79              		.text
  80              		.section	.gnu.lto_HSYNC_Sleep.792a7bc9,"",%progbits
  81 0000 789C8D91 		.ascii	"x\234\215\221\317kSA\020\307\347\273\273//}\332\340"
  81      CF6B5341 
  81      10C7E7BB 
  81      BB2F2F7D 
  81      DAE0
  82 0012 1FD08388 		.ascii	"\037\320\203\210\227^,\036\274\332C\017\212\240\024"
  82      975E2C1E 
  82      BCDA430F 
  82      8AA014
  83 0021 73120A45 		.ascii	"s\022\012Ej\256-T=g\363\343\021\353A\244T\351Ez\263"
  83      6AAE2D54 
  83      3D67F3E3 
  83      11EB41A4 
  83      54E9457A 
  84 0036 AD5A9B58 		.ascii	"\255Z\233X\253\346\"\317\340A\244\266x\310I\020\365"
  84      ABE622CF 
  84      E041A4B6 
  84      78C84910 
  84      F5
  85 0047 10A47A48 		.ascii	"\020\244zH$J,\266qf\023kA\024\007\366\355\276\331\357"
  85      244A2CB6 
  85      7166136B 
  85      411407F6 
  85      EDBED9EF 
ARM GAS  C:\Users\info\AppData\Local\Temp\ccMM8dib.s 			page 6


  86 005b CEE7BBB3 		.ascii	"\316\347\273\263\206@\022iEt\230\347\343<\020#\250\353"
  86      86401269 
  86      457498E7 
  86      E33C1023 
  86      A8EB
  87 006d EB4499B8 		.ascii	"\353D\231\270R\272\225 \033\230\331A\262\3735\274N\332"
  87      52BA9520 
  87      1B98D941 
  87      B2FB35BC 
  87      4EDA
  88 007f FC5A7880 		.ascii	"\374Zx\200,l\034\\A\033\017i|U\333\012\225B\255\254"
  88      2C6C1C5C 
  88      411B0F69 
  88      7C55DB0A 
  88      9542ADAC 
  89 0093 FAE72DC7 		.ascii	"\372\347-\307\273\360\366Q\273\020!\324Dm\345`\204y"
  89      BBF0F651 
  89      BB1021D4 
  89      446DE560 
  89      8479
  90 00a5 F413CB3E 		.ascii	"\364\023\313>\224vn\364\306\362\";\330\331\304\002b"
  90      94766EF4 
  90      C6F2223B 
  90      D8D9C402 
  90      62
  91 00b6 E268F96C 		.ascii	"\342h\371ld\333\355\234\215V\202g\255\240GS\250a\370"
  91      64DBED9C 
  91      8D568267 
  91      ADA04753 
  91      A861F8
  92 00c9 C39A3A0F 		.ascii	"\303\232:\017\2016\224\222Y\327P\331\272\372vq\006r"
  92      81369492 
  92      59D750D9 
  92      BAFA7671 
  92      0672
  93 00db 36A735D7 		.ascii	"6\2475\327\275\031V6\374\246\012\265\206`\252\323\257"
  93      BD195636 
  93      FCA60AB5 
  93      8660AAD3 
  93      AF
  94 00ec 5FF5767E 		.ascii	"_\365v~\177\274\310X\303\251O\255\247[\2119\334\312"
  94      7FBCC858 
  94      C3A94FAD 
  94      A75B8939 
  94      DCCA
  95 00fe E4D998C1 		.ascii	"\344\331\230\301\035\364a\021}\314\277\2139P\015\331"
  95      1DF46111 
  95      7DCCBF8B 
  95      39500DD9 
  96 010e 2F85A6EE 		.ascii	"/\205\246\356\0244\\\223\336#\277\236\033\357&\366\022"
  96      14345C93 
  96      DE23BF9E 
  96      1BEF26F6 
  96      12
  97 011f 1408F7E4 		.ascii	"\024\010\367\344$\211#M\255\004\033\3126\213\033\323"
  97      2489234D 
  97      AD041BCA 
ARM GAS  C:\Users\info\AppData\Local\Temp\ccMM8dib.s 			page 7


  97      368B1BD3 
  98 012f FB44BD57 		.ascii	"\373D\275W\35293\345\362\3477~z\333^\261\366\000\347"
  98      EA3933E5 
  98      F2E7377E 
  98      7ADB5EB1 
  98      F600E7
  99 0142 A6B82D92 		.ascii	"\246\270-\222\336\\\253>\017\304\220u\371\030\356s/"
  99      DE5CAB3E 
  99      0FC49075 
  99      F918EE73 
  99      2F
 100 0153 97A4306F 		.ascii	"\227\2440o^{R\234\212\017,I\237\354\305P\373Xf\227;"
 100      5E7B529C 
 100      8A0F2C49 
 100      9FECC550 
 100      FB586697 
 101 0168 AE992862 		.ascii	"\256\231(b\200\025\253\205\265R \020\037@\311\371i("
 101      8015AB85 
 101      B5522010 
 101      1F40C9F9 
 101      6928
 102 017a 43B383CE 		.ascii	"C\263\203\316M\275\272\353\346\177\361\017\376\205_"
 102      4DBDBAEB 
 102      E67FF10F 
 102      FE855F
 103 0189 F98D7FE8 		.ascii	"\371\215\177\350\360\273w\364\271\035\253]\274\347\236"
 103      F0BB77F4 
 103      B91DAB5D 
 103      BCE79E
 104 0198 E7237251 		.ascii	"\347#rQ\343\245\022\374\237\327\217\267\271\177\204"
 104      E3A512FC 
 104      9FD78FB7 
 104      B97F84
 105 01a7 4748F3DB 		.ascii	"GH\363\333\366\220h\277\005\177\2252\021\217\273\322"
 105      F69068BF 
 105      057F9532 
 105      118FBBD2 
 106 01b7 4D64A3EF 		.ascii	"Md\243\357\247\234T\242\316u\230\306\212C'R\343\251"
 106      A79C54A2 
 106      CE7598C6 
 106      8A432752 
 106      E3A9
 107 01c9 C9F39752 		.ascii	"\311\363\227R\027F\223\023\227'\307R#\303\311\211\241"
 107      17469313 
 107      9727C752 
 107      23C3C989 
 107      A1
 108 01da 63232793 		.ascii	"c#'\223\347\316\014\215\016\237>2F?\001 /\357\313"
 108      E7CE0C8D 
 108      0E9F3E32 
 108      463F0120 
 108      2FEFCB
 109              		.text
 110              		.section	.gnu.lto_HSYNC_Wakeup.792a7bc9,"",%progbits
 111 0000 789C754F 		.ascii	"x\234uO\277K\202Q\024\275\347\275\247I\032\364\007\204"
 111      BF4B8251 
 111      14BDE7BD 
ARM GAS  C:\Users\info\AppData\Local\Temp\ccMM8dib.s 			page 8


 111      A7491AF4 
 111      0784
 112 0012 44B43894 		.ascii	"D\2648\224\004\365\0274\024D!9\005A\204\271\026H\315"
 112      04F51734 
 112      14442139 
 112      054184B9 
 112      1648CD
 113 0025 3ED38F6A 		.ascii	">\323\217j\211\226\332\242Q\373im\371M_R\223QS5\270"
 113      8996DAA2 
 113      51FB696D 
 113      F94D5F52 
 113      93515335 
 114 003a 54834438 		.ascii	"T\203D8($Q\221v\337W\320\020]x\334\307\271\347\334s"
 114      28245191 
 114      76DF57D0 
 114      105D78DC 
 114      C7B9E7DC 
 115 004f 8F2290A9 		.ascii	"\217\"\220\251\024\267^\356\203\374\340!\210\215+\006"
 115      14B75EEE 
 115      83FCE021 
 115      888D2B06 
 116 005f 7D42483B 		.ascii	"}BH;H\272]\335\206I\007$\3247\254\000\363\321>PRH\205"
 116      48BA5DDD 
 116      86490724 
 116      D437AC00 
 116      F3D13E50 
 117 0076 241AE253 		.ascii	"$\032\342S\240\270R)\210PVs\335_\330\003:\347\300\222"
 117      A0B85229 
 117      88505673 
 117      DD5FD803 
 117      3AE7C092 
 118 008a 442DE15A 		.ascii	"D-\341Z\020\262\010\021\323\036O\232\233\035\336\214"
 118      10B20811 
 118      D31E4F9A 
 118      9B1DDE8C 
 119 009a A1757F0F 		.ascii	"\241u\177\017\221\203\327\334\221\237tt\253\225\326"
 119      9183D7DC 
 119      919F7474 
 119      AB95D6
 120 00a9 CE9DFFEC 		.ascii	"\316\235\377\354\335\357UdI\206kL1vu!L\227OH;\345\222"
 120      DDEF5564 
 120      49866B4C 
 120      31767521 
 120      4C974F48 
 121 00c0 3022B3AE 		.ascii	"0\"\263\256P\250\226\333\222\237zU\353NK\212\226`\011"
 121      50A896DB 
 121      929F7A55 
 121      EB4E4B8A 
 121      966009
 122 00d3 769164B1 		.ascii	"v\221d\261\244\012\226\355\372k\321c\310i\251\230\276"
 122      A40A96ED 
 122      FA6BD163 
 122      C869A998 
 122      BE
 123 00e4 6515AFDB 		.ascii	"e\025\257\333^\204\305g\377U\2535\276\327\300\317\227"
 123      5E84C567 
 123      FF55AB35 
ARM GAS  C:\Users\info\AppData\Local\Temp\ccMM8dib.s 			page 9


 123      BED7C0CF 
 123      97
 124 00f5 37E7ED3B 		.ascii	"7\347\355;\330Ni\027\367`\237C\356\241\313\035\256\237"
 124      D84E6917 
 124      F7609F43 
 124      EEA1CB1D 
 124      AE9F
 125 0107 1EAFF9C2 		.ascii	"\036\257\371\302}\226\364\342\000;h\272\371p\2100= "
 125      7D96F4E2 
 125      003B68BA 
 125      F9708830 
 125      3D20
 126 0119 534E077F 		.ascii	"SN\007\177\315\362\325\302[\2071\003\010GFN&\207$;\350"
 126      CDF2D5C2 
 126      5B873103 
 126      0847464E 
 126      2687243B 
 127 012e C6689402 		.ascii	"\306h\224\002\377\306\340\255\310\377\3040\"\345\206"
 127      FFC6E0AD 
 127      C8FFC430 
 127      22E586
 128 013d 7FC6B2F3 		.ascii	"\177\306\262\3631\346\212L\3258-\303\314\355\031\211"
 128      31E68A4C 
 128      D5382DC3 
 128      CCED1989 
 129 014d CFC713B3 		.ascii	"\317\307\023\263\213\361\271\231\350\302R\"\026\237"
 129      8BF1B999 
 129      E8C25222 
 129      169F
 130 015b 8E441786 		.ascii	"\216D\027\206\207\246G\243S\023\3033\221\361\376\030"
 130      87A647A3 
 130      5313C333 
 130      91F1FE18 
 131 016b 7D0108FC 		.ascii	"}\001\010\374\2260"
 131      9630
 132              		.text
 133              		.section	.gnu.lto_.symbol_nodes.792a7bc9,"",%progbits
 134 0000 789C55CC 		.ascii	"x\234U\314\261\015\3020\020F\341\347\263\035\307N*z"
 134      B10DC230 
 134      1046E1E7 
 134      B31DC74E 
 134      2A7A
 135 0012 24D881FD 		.ascii	"$\330\201\375.E\006`\006\224\212\236\015R3\003 \346"
 135      2E450660 
 135      06948A9E 
 135      0D523303 
 135      20E6
 136 0024 40D81105 		.ascii	"@\330\021\005W=}\377Y\0168\366\016\020\247p\276C\315"
 136      573D7DFF 
 136      590E38F6 
 136      0E10A770 
 136      BE43CD
 137 0037 753A4284 		.ascii	"u:B\204i\007^D\2359\210W\261CPo\006\2274lC\375b:Tw\032"
 137      69075E44 
 137      9D398857 
 137      B143506F 
 137      0697346C 
ARM GAS  C:\Users\info\AppData\Local\Temp\ccMM8dib.s 			page 10


 138 0052 8DA376C6 		.ascii	"\215\243v\306E\223q\326\336\270\327l<h1\036u\370\267"
 138      459371D6 
 138      DEB8D76C 
 138      3C68311E 
 138      75F8B7
 139 0065 27B13C3E 		.ascii	"'\261<>\316\323\361\336\032Y\236\265RX\233%3o\356Y["
 139      CED3F1DE 
 139      1A599EB5 
 139      52589B25 
 139      336FEE59 
 140 007a FDF02BBC 		.ascii	"\375\360+\274Z\203pi\357\302\310|;\361\005\241\355A"
 140      5A837069 
 140      EFC2C87C 
 140      3BF105A1 
 140      ED41
 141 008c 23       		.ascii	"#"
 142              		.text
 143              		.section	.gnu.lto_.refs.792a7bc9,"",%progbits
 144 0000 789C1DC8 		.ascii	"x\234\035\310\301\015\0000\010\304\260\344\200N\322"
 144      C10D0030 
 144      08C4B0E4 
 144      804ED2
 145 000f FD672CEA 		.ascii	"\375g,\352\317r#\027(4\332z*k\334\231\324\257\2611<"
 145      CF722317 
 145      2834DA7A 
 145      2A6BDC99 
 145      D4AFB131 
 146 0024 0B3A006A 		.ascii	"\013:\000j"
 147              		.text
 148              		.section	.gnu.lto_.decls.792a7bc9,"",%progbits
 149 0000 789C8D55 		.ascii	"x\234\215UkL\024W\024\236\263wAX\026Ph\033\332lRj0!"
 149      6B4C1457 
 149      149EB377 
 149      41581650 
 149      681BDA6C 
 150 0018 6982B5B6 		.ascii	"i\202\265\266\211\377lB[\375\243\245\0225&\246\226\307"
 150      89FF6C42 
 150      5BFDA3A5 
 150      123526A6 
 150      96C7
 151 002a 688904C8 		.ascii	"h\211\004\310\2724\361\337 \210\2176\215h\305\360P\020"
 151      BA34F1DF 
 151      20888F36 
 151      8D68C5F0 
 151      5010
 152 003c AC154501 		.ascii	"\254\025E\001\361\205\274V\020V\226\207(\012*\312\256"
 152      F185BC56 
 152      10569687 
 152      280A2ACA 
 152      AE
 153 004d E28AD617 		.ascii	"\342\212\326\027\276\335X\244\347>\306\231%\320\366"
 153      BEDD58A4 
 153      E73EC699 
 153      25D0F6
 154 005c C2C7DC73 		.ascii	"\302\307\334s\347|\3379\367\234;\027\243\004\022\035"
 154      E77CDF39 
 154      F79C3B17 
ARM GAS  C:\Users\info\AppData\Local\Temp\ccMM8dib.s 			page 11


 154      A304121D 
 155 006c B30325A9 		.ascii	"\263\003%\251\024\247\015\210q\034~\270\266L\322\206"
 155      14A70D88 
 155      711C7EB8 
 155      B64CD286 
 156 007c 19711851 		.ascii	"\031q\030Q\205\250A\324\"\352\021\215\210fD+\242\015"
 156      85A841D4 
 156      22EA118D 
 156      8866442B 
 156      A20D
 157 008e E1407420 		.ascii	"\341@t :\021T\371\272\344;\250\3064\241mA\334@\234F"
 157      3A1154F9 
 157      BAE43BA8 
 157      C634A16D 
 157      41DC409C 
 158 00a3 0C210611 		.ascii	"\014!\006\021u\010\202\350C\364#.#\214\202\327,\342"
 158      750882E8 
 158      43F4232E 
 158      238C82D7 
 158      2CE2
 159 00b5 D54FA15D 		.ascii	"\325O\241]5A[\257\351B\264L\241]%\362n\023\373\230L"
 159      35415BAF 
 159      E942B44C 
 159      A15D25F2 
 159      6E13FB98 
 160 00ca 9BEED9A4 		.ascii	"\233\356\331\244\323v#F\020\236\011q\356\"*\205\306"
 160      D3762346 
 160      109E0971 
 160      EE222A85 
 160      C6
 161 00db 1511AF46 		.ascii	"\025\021\257F\324\344\360\024\332\265\023\362V5\364"
 161      D4E4F014 
 161      DAB513F2 
 161      5635F4
 162 00ea BA7ABD5A 		.ascii	"\272z\275Z\221\363T5\0363@\366\255\277J\003\006\341"
 162      91F35435 
 162      1E3340F6 
 162      ADBF4A03 
 162      06E1
 163 00fc 2A80046C 		.ascii	"*\200\004lH\242\317\022]\021O:\001n\030$\241\305\275"
 163      48A2CF12 
 163      5D114F3A 
 163      016E1824 
 163      A1C5BD
 164 010f 409502F6 		.ascii	"@\225\002\366\203\277\006\346\017\272\027>~\354\314"
 164      83BF06E6 
 164      0FBA173E 
 164      7EECCC
 165 011e B0A12DC1 		.ascii	"\260\241-\301\273\241z\202\257(U\325L\264\015\032A\247"
 165      BBA17A82 
 165      AF2855D5 
 165      4CB40D1A 
 165      41A7
 166 0130 27B217F1 		.ascii	"'\262\027\361A\037\226I\023u\323/_<n\360'\250\211s\227"
 166      411F9649 
 166      1375D32F 
 166      5F3C6EF0 
ARM GAS  C:\Users\info\AppData\Local\Temp\ccMM8dib.s 			page 12


 166      27A88973 
 167 0145 F7C0B731 		.ascii	"\367\300\2671\225\012\216m\212b\370T\253\314\205\234"
 167      950A8E6D 
 167      8A62F854 
 167      ABCC859C 
 168 0155 EA62F2DC 		.ascii	"\352b\362\334\000a&0\242\371\244\273p8\004\315\367L"
 168      00612630 
 168      A2F9A4BB 
 168      703804CD 
 168      F74C
 169 0167 1089E658 		.ascii	"\020\211\346XGQ\241!\"\237\361\262\225H#,\373\000\016"
 169      4751A121 
 169      229FF1B2 
 169      9548232C 
 169      FB000E
 170 017a 81050E02 		.ascii	"\201\005\016\0026\006*!\002\377&\032\271\322\353\222"
 170      36062A21 
 170      02FF261A 
 170      B9D2EB92 
 171 018a BC4D6466 		.ascii	"\274Mdf\251\342\256V\334\336\273\237\027(\366\034\244"
 171      A9E2AE56 
 171      DCDEBB9F 
 171      1728F61C 
 171      A4
 172 019b 19A8171C 		.ascii	"\031\250\027\034\000\002\025\020CS\304)}\374\011\203"
 172      00021510 
 172      4353C429 
 172      7DFC0983 
 173 01ab 98FC6198 		.ascii	"\230\374a\230\211\314\372\242\276\003~d>K\364\362\320"
 173      89CCFAA2 
 173      BE037E64 
 173      3E4BF4F2 
 173      D0
 174 01bc F1A660AE 		.ascii	"\361\246`\256b\037m7+\333\262\024\345+\246qD\3238\242"
 174      621F6D37 
 174      2BDBB214 
 174      E52BA671 
 174      44D338A2 
 175 01d0 D7A8E21A 		.ascii	"\327\250\342\032\347G\366\020\022\3174\356;\237>\245"
 175      E747F610 
 175      12CF34EE 
 175      3B9F3EA5 
 176 01e0 9994A246 		.ascii	"\231\224\242F\265S\257Q\255iT\3535j\230Fs{yY Y\3054"
 176      B553AF51 
 176      AD6954EB 
 176      356A9846 
 176      737B7959 
 177 01f8 72F6BFB9 		.ascii	"r\366\277\271c\020\032\227:\365\032G5\215\243z\215Z"
 177      63101A97 
 177      3AF51A47 
 177      358DA37A 
 177      8D5A
 178 020a A6F1AA3B 		.ascii	"\246\361\252;'7\220\2442\215\252\215\267+\002\260\230"
 178      273790A4 
 178      328DAA8D 
 178      B72B02B0 
 178      98
ARM GAS  C:\Users\info\AppData\Local\Temp\ccMM8dib.s 			page 13


 179 021b 16138C03 		.ascii	"\026\023\214\003\265\037\324y\203\271M_\027\344\015"
 179      B51FD479 
 179      83B94D5F 
 179      17E40D
 180 022a BF0D22B9 		.ascii	"\277\015\"\271@\015C\337\360\241{F\2106\355\247\265"
 180      400D43DF 
 180      F0A17B46 
 180      8836EDA7 
 180      B5
 181 023b 76D76D5D 		.ascii	"v\327m]\275k\023-^\035\230\340\244\026\320B\277\271"
 181      BD6B132D 
 181      5E1D98E0 
 181      A416D042 
 181      BFB9
 182 024d CD8AB241 		.ascii	"\315\212\262A\031-S\374#$\230k\201\317,\022\234\202"
 182      192D53FC 
 182      2324986B 
 182      81CF2C12 
 182      9C82
 183 025f 68AA4ABD 		.ascii	"h\252J\275\340\004\366\3478\366\007#\364\376\322\226"
 183      E004F6E7 
 183      38F60723 
 183      F4FED296 
 184 026f 1DAA6F1F 		.ascii	"\035\252o\037\225\323\372w\332\247\177\316\267M_\323"
 184      95D3FA77 
 184      DAA77FCE 
 184      B74D5FD3 
 185 027f C263F8C6 		.ascii	"\302c\370\306\316\037\216\226\347\332\267\001\363\201"
 185      CE1F8E96 
 185      E7DAB701 
 185      F381
 186 028d 635A02C7 		.ascii	"cZ\002\307\200\037/\250g\273\355\271\375G$\351a;\200"
 186      801F2FA8 
 186      67BBEDB9 
 186      FD4724E9 
 186      613B80
 187 02a0 AE33FDB5 		.ascii	"\2563\375\265\006.`\037\350\014)PZ\214\214\335\240\261"
 187      062E601F 
 187      E80C2950 
 187      5A8C8CDD 
 187      A0B1
 188 02b2 1B547623 		.ascii	"\033Tv#c\337\333\363\367\343\020\342\346\364\"\347\206"
 188      63DFDBF3 
 188      F7E310E2 
 188      E6F422E7 
 188      86
 189 02c3 2F043BAF 		.ascii	"/\004;\257\207\274c7i\354&\225\335\314\330\333\037\356"
 189      87BC6337 
 189      69EC2695 
 189      DDCCD8DB 
 189      1FEE
 190 02d5 3D65244F 		.ascii	"=e$O8\333\263\253\344\276\277\021?[\266E\334\022\256"
 190      38DBB3AB 
 190      E4BEBF11 
 190      3F5BB645 
 190      DC12AE
 191 02e8 559EBEFE 		.ascii	"U\236\276\376\300\177\312\303\333\3026\177\006\304\356"
ARM GAS  C:\Users\info\AppData\Local\Temp\ccMM8dib.s 			page 14


 191      C07FCAC3 
 191      DBC2367F 
 191      06C4EE
 192 02f7 8BBCF7CB 		.ascii	"\213\274\367\313M\"\376\2303\230\305G\027\260k\361\355"
 192      4D22FE98 
 192      3398C547 
 192      17B06BF1 
 192      ED
 193 0308 6AFC5616 		.ascii	"j\374V\026\337\335|k_\000\371\225\177_\017\363\273\363"
 193      DFDD7C6B 
 193      5F00F995 
 193      7F5F0FF3 
 193      BBF3
 194 031a 40D05F88 		.ascii	"@\320_\210\315S\372Y\215~V\245\2671\272g\244\253\027"
 194      CD53FA59 
 194      8D7E56A5 
 194      B731BA67 
 194      A4AB17
 195 032d 4809A78F 		.ascii	"H\011\247\217\355i.Sk7\326i~Go\327\350\355*\335\301"
 195      ED692E53 
 195      6B37D669 
 195      7E476FD7 
 195      E8ED2ADD 
 196 0342 E803DE9A 		.ascii	"\350\003\336\232\254`R\303\351oz{\367\005\011z\277\323"
 196      AC6052C3 
 196      E96F7A7B 
 196      F705097A 
 196      BFD3
 197 0354 8C8D6327 		.ascii	"\214\215c'\365\234\306>\247\262;\030\273\264\304\263"
 197      F59CC63E 
 197      A7B23B18 
 197      BBB4C4B3 
 198 0364 3F903470 		.ascii	"?\2204p\366\340\315\334|5\367W\277\361\322S\272S\243"
 198      F6E0CDDC 
 198      7C35F757 
 198      BFF1D253 
 198      BA53A3
 199 0377 3B557A27 		.ascii	";Uz'\243\277\256x\366\304H:8\375Q\216\307\035\304\257"
 199      A3BFAE78 
 199      F6C4483A 
 199      38FD518E 
 199      C71DC4AF 
 200 038b 8C08342F 		.ascii	"\214\0104/\216v\355\026\346tz\277\214\327\377\016\244"
 200      8E76ED16 
 200      E6747ABF 
 200      8CD7FF0E 
 200      A4
 201 039c 9FBB7AC7 		.ascii	"\237\273z\307\\\275\006\342\346\306\306&\307k3\031\341"
 201      5CBD06E2 
 201      E6C6C626 
 201      C76B3319 
 201      E1
 202 03ad C6968E13 		.ascii	"\306\226\216\023\216\020\362\222\031\376\307\225k.\002"
 202      8E10F292 
 202      19FEC795 
 202      6B2E02
 203 03bc 51E15151 		.ascii	"Q\341QQ\321Qe\364\260\333\007\034\357\357R\354Y\204"
ARM GAS  C:\Users\info\AppData\Local\Temp\ccMM8dib.s 			page 15


 203      D15165F4 
 203      B0DB071C 
 203      EFEF52EC 
 203      5984
 204 03ce 75F73CE6 		.ascii	"u\367<\346u\011\302\325\263?\233v\263\207\366T\312c"
 204      7509C2D5 
 204      B33F9B76 
 204      B387F654 
 204      CA63
 205 03e0 BDB62B0A 		.ascii	"\275\266+\012\275\030\265VSg\334\010\014\340Wr\005\242"
 205      BD18B556 
 205      5367DC08 
 205      0CE05772 
 205      05A2
 206 03f2 A01FD187 		.ascii	"\240\037\321\207\270\014QlW<F\2613H\251\376\221E\270"
 206      B80C516C 
 206      573C46B1 
 206      3348A9FE 
 206      9145B8
 207 0405 3849846E 		.ascii	"8I\204n\026\201\273\3669B\265tz'q\236K}\331\247l?\351"
 207      1681BBF6 
 207      3942B574 
 207      7A27719E 
 207      4B7DD9A7 
 208 041c 302B4A00 		.ascii	"0+J\000\365\220D5\265\220\215\216`M\347\302$:s,\374"
 208      F5904435 
 208      B5908D8E 
 208      604DE7C2 
 208      243A732C 
 209 0431 74EEB0F7 		.ascii	"t\356\260\367_\013%[\010\273*\\\025w\274\201\020\035"
 209      5F0B255B 
 209      08BB2A5C 
 209      1577BC81 
 209      101D
 210 0443 2EF4B702 		.ascii	".\364\267\002\325\037D\346U\255a4\334\024\365\200kX"
 210      D51F44E6 
 210      55AD6134 
 210      DC14F580 
 210      6B58
 211 0455 86FF2A09 		.ascii	"\206\377*\011\306\314\337]\342\365\233U\256(x2\274\325"
 211      C6CCDF5D 
 211      E2F59B55 
 211      AE287832 
 211      BCD5
 212 0467 2B7628CA 		.ascii	"+v(\312B\026\245\213G\321\325\267\213\236\016\270\016"
 212      4216A58B 
 212      47D1D5B7 
 212      8B9E0EB8 
 212      0E
 213 0478 B39075B0 		.ascii	"\263\220u\260\253\275\207\230\267\322\355\341G\027\266"
 213      ABBD8798 
 213      B7D2EDE1 
 213      4717B6
 214 0487 907DC49A 		.ascii	"\220}\304\232\353\0150\263s\204Otn8\177\342{\275/\225"
 214      EB0D30B3 
 214      73844F74 
 214      6E387FE2 
ARM GAS  C:\Users\info\AppData\Local\Temp\ccMM8dib.s 			page 16


 214      7BBD2F95 
 215 049b D77C8784 		.ascii	"\327|\207\204\357\020\363\035=s\2565T\357\334\342#\354"
 215      EF10F31D 
 215      3D73AE35 
 215      54EFDCE2 
 215      23EC
 216 04ad 12CE2EEA 		.ascii	"\022\316.\352L\316\366U5\233\300d\001|\017\233i\025"
 216      4CCEF655 
 216      359BC064 
 216      017C0F9B 
 216      6915
 217 04bf 4637E8EE 		.ascii	"F7\350\356K\011\334\2007)\334\304\327\267\220^\250P"
 217      4B09DC80 
 217      3729DCC4 
 217      D7B7905E 
 217      A850
 218 04d1 9F0BC096 		.ascii	"\237\013\300\226\2311:\237\315\351\037\214\375<\347"
 218      99313A9F 
 218      CDE91F8C 
 218      FD3CE7
 219 04e0 59BFBF09 		.ascii	"Y\277\277\011\227\263\377\337\275\333}o\357\3704R\314"
 219      97B3FFDF 
 219      BDDB7D6F 
 219      EFF83452 
 219      CC
 220 04f1 DB55BBB3 		.ascii	"\333U\273\263`\34740EOB\2773\011]\375\007\360]\341\366"
 220      60E73430 
 220      454F42BF 
 220      33095DFD 
 220      07F05DE1 
 221 0506 2C25123C 		.ascii	",%\022<x2nk}\035\246y\323\020\025\217Z\355\240/\207"
 221      78326E6B 
 221      7D1DA679 
 221      D310158F 
 221      5AEDA02F 
 222 051b C7E76A1F 		.ascii	"\307\347j\037\021\345\030a\265+\274Z\334\031\240w\256"
 222      11E51861 
 222      B52BBC5A 
 222      DC19A077 
 222      AE
 223 052c F4A9DD5D 		.ascii	"\364\251\335]0\253\3728\225\246/\214_\2618vU|\302\317"
 223      30ABFA38 
 223      95A62F8C 
 223      5FB13876 
 223      557CC2CF 
 224 0540 726C7ADA 		.ascii	"rlz\332\352\2245\001\013\026/\215\214\2353G\232\271"
 224      EA943501 
 224      0B162F8D 
 224      8C9D3347 
 224      9AB9
 225 0552 404E93AD 		.ascii	"@N\223\255\01169yU|z\2465I^\031\027\237\036\373\345"
 225      09363979 
 225      557C7AA6 
 225      35495E19 
 225      179F1EFB 
 226 0567 4A4E885B 		.ascii	"JN\210[\024\223$\205\363\371\022y\235-\335*\370AB0U"
 226      14932485 
ARM GAS  C:\Users\info\AppData\Local\Temp\ccMM8dib.s 			page 17


 226      F3F91279 
 226      9D2DDD2A 
 226      F8414230 
 227 057c 9633CC7C 		.ascii	"\2263\314|\276<a\255\234\231\361\241\352\234\220\214"
 227      BE3C61AD 
 227      9C99F1A1 
 227      EA9C908C 
 228 058c 9E366B7A 		.ascii	"\2366kz\352\022yM\312:\233l\365\313LI\263\315\373d\212"
 228      EA12794D 
 228      CA3A9B6C 
 228      F5CB4C49 
 228      B3CDFB64 
 229 05a1 7849EB6D 		.ascii	"xI\353m\3533\344u1?I\037\377[F\370~\206>Bf\032*O\327"
 229      EB33E475 
 229      313F491F 
 229      FF5B46F8 
 229      7E863E42 
 230 05ba 56E2646B 		.ascii	"V\342dkJz\362G\"#k\212M\236\220E\230\317+F\237\241["
 230      4A7AF247 
 230      22236B8A 
 230      4D9E9045 
 230      98CF2B46 
 231 05d1 E27C93D8 		.ascii	"\342|\223\330\235-]\335\3347i\011\211\251\2620\022\023"
 231      9D2D5DDD 
 231      DC376909 
 231      89A9B230 
 231      1213
 232 05e3 92D66666 		.ascii	"\222\326ff\004\306-_\304\335\375q\266491\004\037\334"
 232      04C62D5F 
 232      C4DDFD71 
 232      B6343931 
 232      041FDC
 233 05f6 2FDE86E9 		.ascii	"/\336\206\351\207\2419yp\316\217\267Y3\223lF\253\274"
 233      87A13979 
 233      70CE8FB7 
 233      5933936C 
 233      46ABBC
 234 0609 66DE3FF1 		.ascii	"f\336?\361\033b4"
 234      1B6234
 235              		.text
 236              		.section	.gnu.lto_.symtab.792a7bc9,"",%progbits
 237 0000 4853594E 		.ascii	"HSYNC_SaveConfig\000"
 237      435F5361 
 237      7665436F 
 237      6E666967 
 237      00
 238 0011 00       		.ascii	"\000"
 239 0012 00       		.ascii	"\000"
 240 0013 00       		.ascii	"\000"
 241 0014 00000000 		.ascii	"\000\000\000\000\000\000\000\000"
 241      00000000 
 242 001c AD000000 		.ascii	"\255\000\000\000"
 243 0020 4853594E 		.ascii	"HSYNC_RestoreConfig\000"
 243      435F5265 
 243      73746F72 
 243      65436F6E 
 243      66696700 
ARM GAS  C:\Users\info\AppData\Local\Temp\ccMM8dib.s 			page 18


 244 0034 00       		.ascii	"\000"
 245 0035 00       		.ascii	"\000"
 246 0036 00       		.ascii	"\000"
 247 0037 00000000 		.ascii	"\000\000\000\000\000\000\000\000"
 247      00000000 
 248 003f AF000000 		.ascii	"\257\000\000\000"
 249 0043 4853594E 		.ascii	"HSYNC_Sleep\000"
 249      435F536C 
 249      65657000 
 250 004f 00       		.ascii	"\000"
 251 0050 00       		.ascii	"\000"
 252 0051 00       		.ascii	"\000"
 253 0052 00000000 		.ascii	"\000\000\000\000\000\000\000\000"
 253      00000000 
 254 005a B1000000 		.ascii	"\261\000\000\000"
 255 005e 4853594E 		.ascii	"HSYNC_Wakeup\000"
 255      435F5761 
 255      6B657570 
 255      00
 256 006b 00       		.ascii	"\000"
 257 006c 00       		.ascii	"\000"
 258 006d 00       		.ascii	"\000"
 259 006e 00000000 		.ascii	"\000\000\000\000\000\000\000\000"
 259      00000000 
 260 0076 B3000000 		.ascii	"\263\000\000\000"
 261 007a 4853594E 		.ascii	"HSYNC_ReadControlRegister\000"
 261      435F5265 
 261      6164436F 
 261      6E74726F 
 261      6C526567 
 262 0094 00       		.ascii	"\000"
 263 0095 02       		.ascii	"\002"
 264 0096 00       		.ascii	"\000"
 265 0097 00000000 		.ascii	"\000\000\000\000\000\000\000\000"
 265      00000000 
 266 009f BB000000 		.ascii	"\273\000\000\000"
 267 00a3 4853594E 		.ascii	"HSYNC_ReadCounter\000"
 267      435F5265 
 267      6164436F 
 267      756E7465 
 267      7200
 268 00b5 00       		.ascii	"\000"
 269 00b6 02       		.ascii	"\002"
 270 00b7 00       		.ascii	"\000"
 271 00b8 00000000 		.ascii	"\000\000\000\000\000\000\000\000"
 271      00000000 
 272 00c0 BD000000 		.ascii	"\275\000\000\000"
 273 00c4 4853594E 		.ascii	"HSYNC_ReadPeriod\000"
 273      435F5265 
 273      61645065 
 273      72696F64 
 273      00
 274 00d5 00       		.ascii	"\000"
 275 00d6 02       		.ascii	"\002"
 276 00d7 00       		.ascii	"\000"
 277 00d8 00000000 		.ascii	"\000\000\000\000\000\000\000\000"
 277      00000000 
ARM GAS  C:\Users\info\AppData\Local\Temp\ccMM8dib.s 			page 19


 278 00e0 BF000000 		.ascii	"\277\000\000\000"
 279 00e4 4853594E 		.ascii	"HSYNC_WriteControlRegister\000"
 279      435F5772 
 279      69746543 
 279      6F6E7472 
 279      6F6C5265 
 280 00ff 00       		.ascii	"\000"
 281 0100 02       		.ascii	"\002"
 282 0101 00       		.ascii	"\000"
 283 0102 00000000 		.ascii	"\000\000\000\000\000\000\000\000"
 283      00000000 
 284 010a C3000000 		.ascii	"\303\000\000\000"
 285 010e 4853594E 		.ascii	"HSYNC_WriteCounter\000"
 285      435F5772 
 285      69746543 
 285      6F756E74 
 285      657200
 286 0121 00       		.ascii	"\000"
 287 0122 02       		.ascii	"\002"
 288 0123 00       		.ascii	"\000"
 289 0124 00000000 		.ascii	"\000\000\000\000\000\000\000\000"
 289      00000000 
 290 012c C5000000 		.ascii	"\305\000\000\000"
 291 0130 4853594E 		.ascii	"HSYNC_WritePeriod\000"
 291      435F5772 
 291      69746550 
 291      6572696F 
 291      6400
 292 0142 00       		.ascii	"\000"
 293 0143 02       		.ascii	"\002"
 294 0144 00       		.ascii	"\000"
 295 0145 00000000 		.ascii	"\000\000\000\000\000\000\000\000"
 295      00000000 
 296 014d C7000000 		.ascii	"\307\000\000\000"
 297 0151 4853594E 		.ascii	"HSYNC_Stop\000"
 297      435F5374 
 297      6F7000
 298 015c 00       		.ascii	"\000"
 299 015d 02       		.ascii	"\002"
 300 015e 00       		.ascii	"\000"
 301 015f 00000000 		.ascii	"\000\000\000\000\000\000\000\000"
 301      00000000 
 302 0167 C9000000 		.ascii	"\311\000\000\000"
 303 016b 4853594E 		.ascii	"HSYNC_Enable\000"
 303      435F456E 
 303      61626C65 
 303      00
 304 0178 00       		.ascii	"\000"
 305 0179 02       		.ascii	"\002"
 306 017a 00       		.ascii	"\000"
 307 017b 00000000 		.ascii	"\000\000\000\000\000\000\000\000"
 307      00000000 
 308 0183 CB000000 		.ascii	"\313\000\000\000"
 309              		.text
 310              		.section	.gnu.lto_.opts,"",%progbits
 311 0000 272D666D 		.ascii	"'-fmath-errno' '-fsigned-zeros' '-ftrapping-math' '"
 311      6174682D 
ARM GAS  C:\Users\info\AppData\Local\Temp\ccMM8dib.s 			page 20


 311      6572726E 
 311      6F272027 
 311      2D667369 
 312 0033 2D666E6F 		.ascii	"-fno-trapv' '-fno-strict-overflow' '-fno-openmp' '-"
 312      2D747261 
 312      70762720 
 312      272D666E 
 312      6F2D7374 
 313 0066 666E6F2D 		.ascii	"fno-openacc' '-mcpu=cortex-m3' '-mthumb' '-g' '-Og'"
 313      6F70656E 
 313      61636327 
 313      20272D6D 
 313      6370753D 
 314 0099 20272D66 		.ascii	" '-ffunction-sections' '-ffat-lto-objects' '-flto'\000"
 314      66756E63 
 314      74696F6E 
 314      2D736563 
 314      74696F6E 
 315              		.text
 316              		.cfi_sections	.debug_frame
 317              		.section	.text.HSYNC_SaveConfig,"ax",%progbits
 318              		.align	2
 319              		.global	HSYNC_SaveConfig
 320              		.thumb
 321              		.thumb_func
 322              		.type	HSYNC_SaveConfig, %function
 323              	HSYNC_SaveConfig:
 324              	.LFB0:
 325              		.file 1 "Generated_Source\\PSoC5\\HSYNC_PM.c"
   1:Generated_Source\PSoC5/HSYNC_PM.c **** /*******************************************************************************
   2:Generated_Source\PSoC5/HSYNC_PM.c **** * File Name: HSYNC_PM.c
   3:Generated_Source\PSoC5/HSYNC_PM.c **** * Version 3.30
   4:Generated_Source\PSoC5/HSYNC_PM.c **** *
   5:Generated_Source\PSoC5/HSYNC_PM.c **** * Description:
   6:Generated_Source\PSoC5/HSYNC_PM.c **** *  This file provides the power management source code to API for the
   7:Generated_Source\PSoC5/HSYNC_PM.c **** *  PWM.
   8:Generated_Source\PSoC5/HSYNC_PM.c **** *
   9:Generated_Source\PSoC5/HSYNC_PM.c **** * Note:
  10:Generated_Source\PSoC5/HSYNC_PM.c **** *
  11:Generated_Source\PSoC5/HSYNC_PM.c **** ********************************************************************************
  12:Generated_Source\PSoC5/HSYNC_PM.c **** * Copyright 2008-2014, Cypress Semiconductor Corporation.  All rights reserved.
  13:Generated_Source\PSoC5/HSYNC_PM.c **** * You may use this file only in accordance with the license, terms, conditions,
  14:Generated_Source\PSoC5/HSYNC_PM.c **** * disclaimers, and limitations in the end user license agreement accompanying
  15:Generated_Source\PSoC5/HSYNC_PM.c **** * the software package with which this file was provided.
  16:Generated_Source\PSoC5/HSYNC_PM.c **** *******************************************************************************/
  17:Generated_Source\PSoC5/HSYNC_PM.c **** 
  18:Generated_Source\PSoC5/HSYNC_PM.c **** #include "HSYNC.h"
  19:Generated_Source\PSoC5/HSYNC_PM.c **** 
  20:Generated_Source\PSoC5/HSYNC_PM.c **** static HSYNC_backupStruct HSYNC_backup;
  21:Generated_Source\PSoC5/HSYNC_PM.c **** 
  22:Generated_Source\PSoC5/HSYNC_PM.c **** 
  23:Generated_Source\PSoC5/HSYNC_PM.c **** /*******************************************************************************
  24:Generated_Source\PSoC5/HSYNC_PM.c **** * Function Name: HSYNC_SaveConfig
  25:Generated_Source\PSoC5/HSYNC_PM.c **** ********************************************************************************
  26:Generated_Source\PSoC5/HSYNC_PM.c **** *
  27:Generated_Source\PSoC5/HSYNC_PM.c **** * Summary:
  28:Generated_Source\PSoC5/HSYNC_PM.c **** *  Saves the current user configuration of the component.
ARM GAS  C:\Users\info\AppData\Local\Temp\ccMM8dib.s 			page 21


  29:Generated_Source\PSoC5/HSYNC_PM.c **** *
  30:Generated_Source\PSoC5/HSYNC_PM.c **** * Parameters:
  31:Generated_Source\PSoC5/HSYNC_PM.c **** *  None
  32:Generated_Source\PSoC5/HSYNC_PM.c **** *
  33:Generated_Source\PSoC5/HSYNC_PM.c **** * Return:
  34:Generated_Source\PSoC5/HSYNC_PM.c **** *  None
  35:Generated_Source\PSoC5/HSYNC_PM.c **** *
  36:Generated_Source\PSoC5/HSYNC_PM.c **** * Global variables:
  37:Generated_Source\PSoC5/HSYNC_PM.c **** *  HSYNC_backup:  Variables of this global structure are modified to
  38:Generated_Source\PSoC5/HSYNC_PM.c **** *  store the values of non retention configuration registers when Sleep() API is
  39:Generated_Source\PSoC5/HSYNC_PM.c **** *  called.
  40:Generated_Source\PSoC5/HSYNC_PM.c **** *
  41:Generated_Source\PSoC5/HSYNC_PM.c **** *******************************************************************************/
  42:Generated_Source\PSoC5/HSYNC_PM.c **** void HSYNC_SaveConfig(void) 
  43:Generated_Source\PSoC5/HSYNC_PM.c **** {
 326              		.loc 1 43 0
 327              		.cfi_startproc
 328              		@ args = 0, pretend = 0, frame = 0
 329              		@ frame_needed = 0, uses_anonymous_args = 0
 330 0000 10B5     		push	{r4, lr}
 331              		.cfi_def_cfa_offset 8
 332              		.cfi_offset 4, -8
 333              		.cfi_offset 14, -4
  44:Generated_Source\PSoC5/HSYNC_PM.c **** 
  45:Generated_Source\PSoC5/HSYNC_PM.c ****     #if(!HSYNC_UsingFixedFunction)
  46:Generated_Source\PSoC5/HSYNC_PM.c ****         #if(!HSYNC_PWMModeIsCenterAligned)
  47:Generated_Source\PSoC5/HSYNC_PM.c ****             HSYNC_backup.PWMPeriod = HSYNC_ReadPeriod();
 334              		.loc 1 47 0
 335 0002 FFF7FEFF 		bl	HSYNC_ReadPeriod
 336              	.LVL0:
 337 0006 044C     		ldr	r4, .L3
 338 0008 A070     		strb	r0, [r4, #2]
  48:Generated_Source\PSoC5/HSYNC_PM.c ****         #endif /* (!HSYNC_PWMModeIsCenterAligned) */
  49:Generated_Source\PSoC5/HSYNC_PM.c ****         HSYNC_backup.PWMUdb = HSYNC_ReadCounter();
 339              		.loc 1 49 0
 340 000a FFF7FEFF 		bl	HSYNC_ReadCounter
 341              	.LVL1:
 342 000e 6070     		strb	r0, [r4, #1]
  50:Generated_Source\PSoC5/HSYNC_PM.c ****         #if (HSYNC_UseStatus)
  51:Generated_Source\PSoC5/HSYNC_PM.c ****             HSYNC_backup.InterruptMaskValue = HSYNC_STATUS_MASK;
  52:Generated_Source\PSoC5/HSYNC_PM.c ****         #endif /* (HSYNC_UseStatus) */
  53:Generated_Source\PSoC5/HSYNC_PM.c **** 
  54:Generated_Source\PSoC5/HSYNC_PM.c ****         #if(HSYNC_DeadBandMode == HSYNC__B_PWM__DBM_256_CLOCKS || \
  55:Generated_Source\PSoC5/HSYNC_PM.c ****             HSYNC_DeadBandMode == HSYNC__B_PWM__DBM_2_4_CLOCKS)
  56:Generated_Source\PSoC5/HSYNC_PM.c ****             HSYNC_backup.PWMdeadBandValue = HSYNC_ReadDeadTime();
  57:Generated_Source\PSoC5/HSYNC_PM.c ****         #endif /*  deadband count is either 2-4 clocks or 256 clocks */
  58:Generated_Source\PSoC5/HSYNC_PM.c **** 
  59:Generated_Source\PSoC5/HSYNC_PM.c ****         #if(HSYNC_KillModeMinTime)
  60:Generated_Source\PSoC5/HSYNC_PM.c ****              HSYNC_backup.PWMKillCounterPeriod = HSYNC_ReadKillTime();
  61:Generated_Source\PSoC5/HSYNC_PM.c ****         #endif /* (HSYNC_KillModeMinTime) */
  62:Generated_Source\PSoC5/HSYNC_PM.c **** 
  63:Generated_Source\PSoC5/HSYNC_PM.c ****         #if(HSYNC_UseControl)
  64:Generated_Source\PSoC5/HSYNC_PM.c ****             HSYNC_backup.PWMControlRegister = HSYNC_ReadControlRegister();
 343              		.loc 1 64 0
 344 0010 FFF7FEFF 		bl	HSYNC_ReadControlRegister
 345              	.LVL2:
 346 0014 E070     		strb	r0, [r4, #3]
ARM GAS  C:\Users\info\AppData\Local\Temp\ccMM8dib.s 			page 22


 347 0016 10BD     		pop	{r4, pc}
 348              	.L4:
 349              		.align	2
 350              	.L3:
 351 0018 00000000 		.word	.LANCHOR0
 352              		.cfi_endproc
 353              	.LFE0:
 354              		.size	HSYNC_SaveConfig, .-HSYNC_SaveConfig
 355              		.section	.text.HSYNC_RestoreConfig,"ax",%progbits
 356              		.align	2
 357              		.global	HSYNC_RestoreConfig
 358              		.thumb
 359              		.thumb_func
 360              		.type	HSYNC_RestoreConfig, %function
 361              	HSYNC_RestoreConfig:
 362              	.LFB1:
  65:Generated_Source\PSoC5/HSYNC_PM.c ****         #endif /* (HSYNC_UseControl) */
  66:Generated_Source\PSoC5/HSYNC_PM.c ****     #endif  /* (!HSYNC_UsingFixedFunction) */
  67:Generated_Source\PSoC5/HSYNC_PM.c **** }
  68:Generated_Source\PSoC5/HSYNC_PM.c **** 
  69:Generated_Source\PSoC5/HSYNC_PM.c **** 
  70:Generated_Source\PSoC5/HSYNC_PM.c **** /*******************************************************************************
  71:Generated_Source\PSoC5/HSYNC_PM.c **** * Function Name: HSYNC_RestoreConfig
  72:Generated_Source\PSoC5/HSYNC_PM.c **** ********************************************************************************
  73:Generated_Source\PSoC5/HSYNC_PM.c **** *
  74:Generated_Source\PSoC5/HSYNC_PM.c **** * Summary:
  75:Generated_Source\PSoC5/HSYNC_PM.c **** *  Restores the current user configuration of the component.
  76:Generated_Source\PSoC5/HSYNC_PM.c **** *
  77:Generated_Source\PSoC5/HSYNC_PM.c **** * Parameters:
  78:Generated_Source\PSoC5/HSYNC_PM.c **** *  None
  79:Generated_Source\PSoC5/HSYNC_PM.c **** *
  80:Generated_Source\PSoC5/HSYNC_PM.c **** * Return:
  81:Generated_Source\PSoC5/HSYNC_PM.c **** *  None
  82:Generated_Source\PSoC5/HSYNC_PM.c **** *
  83:Generated_Source\PSoC5/HSYNC_PM.c **** * Global variables:
  84:Generated_Source\PSoC5/HSYNC_PM.c **** *  HSYNC_backup:  Variables of this global structure are used to
  85:Generated_Source\PSoC5/HSYNC_PM.c **** *  restore the values of non retention registers on wakeup from sleep mode.
  86:Generated_Source\PSoC5/HSYNC_PM.c **** *
  87:Generated_Source\PSoC5/HSYNC_PM.c **** *******************************************************************************/
  88:Generated_Source\PSoC5/HSYNC_PM.c **** void HSYNC_RestoreConfig(void) 
  89:Generated_Source\PSoC5/HSYNC_PM.c **** {
 363              		.loc 1 89 0
 364              		.cfi_startproc
 365              		@ args = 0, pretend = 0, frame = 0
 366              		@ frame_needed = 0, uses_anonymous_args = 0
 367 0000 10B5     		push	{r4, lr}
 368              		.cfi_def_cfa_offset 8
 369              		.cfi_offset 4, -8
 370              		.cfi_offset 14, -4
  90:Generated_Source\PSoC5/HSYNC_PM.c ****         #if(!HSYNC_UsingFixedFunction)
  91:Generated_Source\PSoC5/HSYNC_PM.c ****             #if(!HSYNC_PWMModeIsCenterAligned)
  92:Generated_Source\PSoC5/HSYNC_PM.c ****                 HSYNC_WritePeriod(HSYNC_backup.PWMPeriod);
 371              		.loc 1 92 0
 372 0002 054C     		ldr	r4, .L7
 373 0004 A078     		ldrb	r0, [r4, #2]	@ zero_extendqisi2
 374 0006 FFF7FEFF 		bl	HSYNC_WritePeriod
 375              	.LVL3:
ARM GAS  C:\Users\info\AppData\Local\Temp\ccMM8dib.s 			page 23


  93:Generated_Source\PSoC5/HSYNC_PM.c ****             #endif /* (!HSYNC_PWMModeIsCenterAligned) */
  94:Generated_Source\PSoC5/HSYNC_PM.c **** 
  95:Generated_Source\PSoC5/HSYNC_PM.c ****             HSYNC_WriteCounter(HSYNC_backup.PWMUdb);
 376              		.loc 1 95 0
 377 000a 6078     		ldrb	r0, [r4, #1]	@ zero_extendqisi2
 378 000c FFF7FEFF 		bl	HSYNC_WriteCounter
 379              	.LVL4:
  96:Generated_Source\PSoC5/HSYNC_PM.c **** 
  97:Generated_Source\PSoC5/HSYNC_PM.c ****             #if (HSYNC_UseStatus)
  98:Generated_Source\PSoC5/HSYNC_PM.c ****                 HSYNC_STATUS_MASK = HSYNC_backup.InterruptMaskValue;
  99:Generated_Source\PSoC5/HSYNC_PM.c ****             #endif /* (HSYNC_UseStatus) */
 100:Generated_Source\PSoC5/HSYNC_PM.c **** 
 101:Generated_Source\PSoC5/HSYNC_PM.c ****             #if(HSYNC_DeadBandMode == HSYNC__B_PWM__DBM_256_CLOCKS || \
 102:Generated_Source\PSoC5/HSYNC_PM.c ****                 HSYNC_DeadBandMode == HSYNC__B_PWM__DBM_2_4_CLOCKS)
 103:Generated_Source\PSoC5/HSYNC_PM.c ****                 HSYNC_WriteDeadTime(HSYNC_backup.PWMdeadBandValue);
 104:Generated_Source\PSoC5/HSYNC_PM.c ****             #endif /* deadband count is either 2-4 clocks or 256 clocks */
 105:Generated_Source\PSoC5/HSYNC_PM.c **** 
 106:Generated_Source\PSoC5/HSYNC_PM.c ****             #if(HSYNC_KillModeMinTime)
 107:Generated_Source\PSoC5/HSYNC_PM.c ****                 HSYNC_WriteKillTime(HSYNC_backup.PWMKillCounterPeriod);
 108:Generated_Source\PSoC5/HSYNC_PM.c ****             #endif /* (HSYNC_KillModeMinTime) */
 109:Generated_Source\PSoC5/HSYNC_PM.c **** 
 110:Generated_Source\PSoC5/HSYNC_PM.c ****             #if(HSYNC_UseControl)
 111:Generated_Source\PSoC5/HSYNC_PM.c ****                 HSYNC_WriteControlRegister(HSYNC_backup.PWMControlRegister);
 380              		.loc 1 111 0
 381 0010 E078     		ldrb	r0, [r4, #3]	@ zero_extendqisi2
 382 0012 FFF7FEFF 		bl	HSYNC_WriteControlRegister
 383              	.LVL5:
 384 0016 10BD     		pop	{r4, pc}
 385              	.L8:
 386              		.align	2
 387              	.L7:
 388 0018 00000000 		.word	.LANCHOR0
 389              		.cfi_endproc
 390              	.LFE1:
 391              		.size	HSYNC_RestoreConfig, .-HSYNC_RestoreConfig
 392              		.section	.text.HSYNC_Sleep,"ax",%progbits
 393              		.align	2
 394              		.global	HSYNC_Sleep
 395              		.thumb
 396              		.thumb_func
 397              		.type	HSYNC_Sleep, %function
 398              	HSYNC_Sleep:
 399              	.LFB2:
 112:Generated_Source\PSoC5/HSYNC_PM.c ****             #endif /* (HSYNC_UseControl) */
 113:Generated_Source\PSoC5/HSYNC_PM.c ****         #endif  /* (!HSYNC_UsingFixedFunction) */
 114:Generated_Source\PSoC5/HSYNC_PM.c ****     }
 115:Generated_Source\PSoC5/HSYNC_PM.c **** 
 116:Generated_Source\PSoC5/HSYNC_PM.c **** 
 117:Generated_Source\PSoC5/HSYNC_PM.c **** /*******************************************************************************
 118:Generated_Source\PSoC5/HSYNC_PM.c **** * Function Name: HSYNC_Sleep
 119:Generated_Source\PSoC5/HSYNC_PM.c **** ********************************************************************************
 120:Generated_Source\PSoC5/HSYNC_PM.c **** *
 121:Generated_Source\PSoC5/HSYNC_PM.c **** * Summary:
 122:Generated_Source\PSoC5/HSYNC_PM.c **** *  Disables block's operation and saves the user configuration. Should be called
 123:Generated_Source\PSoC5/HSYNC_PM.c **** *  just prior to entering sleep.
 124:Generated_Source\PSoC5/HSYNC_PM.c **** *
 125:Generated_Source\PSoC5/HSYNC_PM.c **** * Parameters:
ARM GAS  C:\Users\info\AppData\Local\Temp\ccMM8dib.s 			page 24


 126:Generated_Source\PSoC5/HSYNC_PM.c **** *  None
 127:Generated_Source\PSoC5/HSYNC_PM.c **** *
 128:Generated_Source\PSoC5/HSYNC_PM.c **** * Return:
 129:Generated_Source\PSoC5/HSYNC_PM.c **** *  None
 130:Generated_Source\PSoC5/HSYNC_PM.c **** *
 131:Generated_Source\PSoC5/HSYNC_PM.c **** * Global variables:
 132:Generated_Source\PSoC5/HSYNC_PM.c **** *  HSYNC_backup.PWMEnableState:  Is modified depending on the enable
 133:Generated_Source\PSoC5/HSYNC_PM.c **** *  state of the block before entering sleep mode.
 134:Generated_Source\PSoC5/HSYNC_PM.c **** *
 135:Generated_Source\PSoC5/HSYNC_PM.c **** *******************************************************************************/
 136:Generated_Source\PSoC5/HSYNC_PM.c **** void HSYNC_Sleep(void) 
 137:Generated_Source\PSoC5/HSYNC_PM.c **** {
 400              		.loc 1 137 0
 401              		.cfi_startproc
 402              		@ args = 0, pretend = 0, frame = 0
 403              		@ frame_needed = 0, uses_anonymous_args = 0
 404 0000 08B5     		push	{r3, lr}
 405              		.cfi_def_cfa_offset 8
 406              		.cfi_offset 3, -8
 407              		.cfi_offset 14, -4
 138:Generated_Source\PSoC5/HSYNC_PM.c ****     #if(HSYNC_UseControl)
 139:Generated_Source\PSoC5/HSYNC_PM.c ****         if(HSYNC_CTRL_ENABLE == (HSYNC_CONTROL & HSYNC_CTRL_ENABLE))
 408              		.loc 1 139 0
 409 0002 084B     		ldr	r3, .L13
 410 0004 1B78     		ldrb	r3, [r3]	@ zero_extendqisi2
 411 0006 13F0800F 		tst	r3, #128
 412 000a 03D0     		beq	.L10
 140:Generated_Source\PSoC5/HSYNC_PM.c ****         {
 141:Generated_Source\PSoC5/HSYNC_PM.c ****             /*Component is enabled */
 142:Generated_Source\PSoC5/HSYNC_PM.c ****             HSYNC_backup.PWMEnableState = 1u;
 413              		.loc 1 142 0
 414 000c 0122     		movs	r2, #1
 415 000e 064B     		ldr	r3, .L13+4
 416 0010 1A70     		strb	r2, [r3]
 417 0012 02E0     		b	.L11
 418              	.L10:
 143:Generated_Source\PSoC5/HSYNC_PM.c ****         }
 144:Generated_Source\PSoC5/HSYNC_PM.c ****         else
 145:Generated_Source\PSoC5/HSYNC_PM.c ****         {
 146:Generated_Source\PSoC5/HSYNC_PM.c ****             /* Component is disabled */
 147:Generated_Source\PSoC5/HSYNC_PM.c ****             HSYNC_backup.PWMEnableState = 0u;
 419              		.loc 1 147 0
 420 0014 0022     		movs	r2, #0
 421 0016 044B     		ldr	r3, .L13+4
 422 0018 1A70     		strb	r2, [r3]
 423              	.L11:
 148:Generated_Source\PSoC5/HSYNC_PM.c ****         }
 149:Generated_Source\PSoC5/HSYNC_PM.c ****     #endif /* (HSYNC_UseControl) */
 150:Generated_Source\PSoC5/HSYNC_PM.c **** 
 151:Generated_Source\PSoC5/HSYNC_PM.c ****     /* Stop component */
 152:Generated_Source\PSoC5/HSYNC_PM.c ****     HSYNC_Stop();
 424              		.loc 1 152 0
 425 001a FFF7FEFF 		bl	HSYNC_Stop
 426              	.LVL6:
 153:Generated_Source\PSoC5/HSYNC_PM.c **** 
 154:Generated_Source\PSoC5/HSYNC_PM.c ****     /* Save registers configuration */
 155:Generated_Source\PSoC5/HSYNC_PM.c ****     HSYNC_SaveConfig();
ARM GAS  C:\Users\info\AppData\Local\Temp\ccMM8dib.s 			page 25


 427              		.loc 1 155 0
 428 001e FFF7FEFF 		bl	HSYNC_SaveConfig
 429              	.LVL7:
 430 0022 08BD     		pop	{r3, pc}
 431              	.L14:
 432              		.align	2
 433              	.L13:
 434 0024 7C640040 		.word	1073767548
 435 0028 00000000 		.word	.LANCHOR0
 436              		.cfi_endproc
 437              	.LFE2:
 438              		.size	HSYNC_Sleep, .-HSYNC_Sleep
 439              		.section	.text.HSYNC_Wakeup,"ax",%progbits
 440              		.align	2
 441              		.global	HSYNC_Wakeup
 442              		.thumb
 443              		.thumb_func
 444              		.type	HSYNC_Wakeup, %function
 445              	HSYNC_Wakeup:
 446              	.LFB3:
 156:Generated_Source\PSoC5/HSYNC_PM.c **** }
 157:Generated_Source\PSoC5/HSYNC_PM.c **** 
 158:Generated_Source\PSoC5/HSYNC_PM.c **** 
 159:Generated_Source\PSoC5/HSYNC_PM.c **** /*******************************************************************************
 160:Generated_Source\PSoC5/HSYNC_PM.c **** * Function Name: HSYNC_Wakeup
 161:Generated_Source\PSoC5/HSYNC_PM.c **** ********************************************************************************
 162:Generated_Source\PSoC5/HSYNC_PM.c **** *
 163:Generated_Source\PSoC5/HSYNC_PM.c **** * Summary:
 164:Generated_Source\PSoC5/HSYNC_PM.c **** *  Restores and enables the user configuration. Should be called just after
 165:Generated_Source\PSoC5/HSYNC_PM.c **** *  awaking from sleep.
 166:Generated_Source\PSoC5/HSYNC_PM.c **** *
 167:Generated_Source\PSoC5/HSYNC_PM.c **** * Parameters:
 168:Generated_Source\PSoC5/HSYNC_PM.c **** *  None
 169:Generated_Source\PSoC5/HSYNC_PM.c **** *
 170:Generated_Source\PSoC5/HSYNC_PM.c **** * Return:
 171:Generated_Source\PSoC5/HSYNC_PM.c **** *  None
 172:Generated_Source\PSoC5/HSYNC_PM.c **** *
 173:Generated_Source\PSoC5/HSYNC_PM.c **** * Global variables:
 174:Generated_Source\PSoC5/HSYNC_PM.c **** *  HSYNC_backup.pwmEnable:  Is used to restore the enable state of
 175:Generated_Source\PSoC5/HSYNC_PM.c **** *  block on wakeup from sleep mode.
 176:Generated_Source\PSoC5/HSYNC_PM.c **** *
 177:Generated_Source\PSoC5/HSYNC_PM.c **** *******************************************************************************/
 178:Generated_Source\PSoC5/HSYNC_PM.c **** void HSYNC_Wakeup(void) 
 179:Generated_Source\PSoC5/HSYNC_PM.c **** {
 447              		.loc 1 179 0
 448              		.cfi_startproc
 449              		@ args = 0, pretend = 0, frame = 0
 450              		@ frame_needed = 0, uses_anonymous_args = 0
 451 0000 08B5     		push	{r3, lr}
 452              		.cfi_def_cfa_offset 8
 453              		.cfi_offset 3, -8
 454              		.cfi_offset 14, -4
 180:Generated_Source\PSoC5/HSYNC_PM.c ****      /* Restore registers values */
 181:Generated_Source\PSoC5/HSYNC_PM.c ****     HSYNC_RestoreConfig();
 455              		.loc 1 181 0
 456 0002 FFF7FEFF 		bl	HSYNC_RestoreConfig
 457              	.LVL8:
ARM GAS  C:\Users\info\AppData\Local\Temp\ccMM8dib.s 			page 26


 182:Generated_Source\PSoC5/HSYNC_PM.c **** 
 183:Generated_Source\PSoC5/HSYNC_PM.c ****     if(HSYNC_backup.PWMEnableState != 0u)
 458              		.loc 1 183 0
 459 0006 034B     		ldr	r3, .L18
 460 0008 1B78     		ldrb	r3, [r3]	@ zero_extendqisi2
 461 000a 0BB1     		cbz	r3, .L15
 184:Generated_Source\PSoC5/HSYNC_PM.c ****     {
 185:Generated_Source\PSoC5/HSYNC_PM.c ****         /* Enable component's operation */
 186:Generated_Source\PSoC5/HSYNC_PM.c ****         HSYNC_Enable();
 462              		.loc 1 186 0
 463 000c FFF7FEFF 		bl	HSYNC_Enable
 464              	.LVL9:
 465              	.L15:
 466 0010 08BD     		pop	{r3, pc}
 467              	.L19:
 468 0012 00BF     		.align	2
 469              	.L18:
 470 0014 00000000 		.word	.LANCHOR0
 471              		.cfi_endproc
 472              	.LFE3:
 473              		.size	HSYNC_Wakeup, .-HSYNC_Wakeup
 474              		.bss
 475              		.align	2
 476              		.set	.LANCHOR0,. + 0
 477              		.type	HSYNC_backup, %object
 478              		.size	HSYNC_backup, 4
 479              	HSYNC_backup:
 480 0000 00000000 		.space	4
 481              		.text
 482              	.Letext0:
 483              		.file 2 "Generated_Source\\PSoC5\\cytypes.h"
 484              		.file 3 "Generated_Source\\PSoC5\\HSYNC.h"