ARM GAS  C:\Users\info\AppData\Local\Temp\cclbiKcc.s 			page 1


   1              		.syntax unified
   2              		.cpu cortex-m3
   3              		.fpu softvfp
   4              		.eabi_attribute 20, 1
   5              		.eabi_attribute 21, 1
   6              		.eabi_attribute 23, 3
   7              		.eabi_attribute 24, 1
   8              		.eabi_attribute 25, 1
   9              		.eabi_attribute 26, 1
  10              		.eabi_attribute 30, 1
  11              		.eabi_attribute 34, 1
  12              		.eabi_attribute 18, 4
  13              		.thumb
  14              		.syntax unified
  15              		.file	"HSYNC.c"
  16              		.text
  17              	.Ltext0:
  18              		.section	.gnu.lto_.profile.792a7a99,"",%progbits
  19 0000 789C6361 		.ascii	"x\234ca`d`a`\000\222Y\006\000\001n\000\245"
  19      60646061 
  19      60009259 
  19      0600016E 
  19      00A5
  20              		.text
  21              		.section	.gnu.lto_.inline.792a7a99,"",%progbits
  22 0000 789C6361 		.ascii	"x\234ca`d\000\001Q\010\005\006\274\014\014l\254\214"
  22      60640001 
  22      51080506 
  22      BC0C0C6C 
  22      AC8C
  23 0012 0C4C6C1F 		.ascii	"\014Ll\037\364\030\330\026\3103\201\304\0301\205\230"
  23      F418D816 
  23      C83381C4 
  23      18318598 
  24 0022 18589881 		.ascii	"\030X\230\201BL\027\370\341B\314\014\254,@!\226\005"
  24      424C17F8 
  24      E142CC0C 
  24      AC2C4021 
  24      9605
  25 0034 F2702116 		.ascii	"\362p!\026LU\254\230Bl\014\002Z@!\276\015\271\010\343"
  25      4C55AC98 
  25      426C0C02 
  25      5A4021BE 
  25      0DB908E3 
  26 0048 B941B622 		.ascii	"\271A\266\"\223\354\014\234\302@6\307/\023\204\263\270"
  26      93EC0C9C 
  26      C24036C7 
  26      2F1384B3 
  26      B8
  27 0059 600427A6 		.ascii	"`\004'\246\241\\\230B\334\230B<\230B\274\230B\014\000"
  27      A15C9842 
  27      DC98423C 
  27      9842BC98 
  27      420C00
  28 006c 6FAC181F 		.ascii	"o\254\030\037"
  29              		.text
  30              		.section	.gnu.lto_.jmpfuncs.792a7a99,"",%progbits
ARM GAS  C:\Users\info\AppData\Local\Temp\cclbiKcc.s 			page 2


  31 0000 789C6361 		.ascii	"x\234ca`d\000\001=\006\004\340\005b\240(\023\003\003"
  31      60640001 
  31      3D0604E0 
  31      0562A028 
  31      130303
  32 0013 3303030B 		.ascii	"3\003\003\013\003\003+\003\003\033X\202\035Dp20p10p"
  32      03032B03 
  32      031B5882 
  32      1D447032 
  32      30703130 
  33 0028 3330F040 		.ascii	"30\360@T\002\000\023\207\000\224"
  33      54020013 
  33      870094
  34              		.text
  35              		.section	.gnu.lto_.pureconst.792a7a99,"",%progbits
  36 0000 789C05C1 		.ascii	"x\234\005\301A\022\000\020\014\004\301\215\004%\344"
  36      41120010 
  36      0C04C18D 
  36      0425E4
  37 000f AEC6FFFF 		.ascii	"\256\306\377\377\251;dz\222J\030\015'\350\014\346]$"
  37      A93B647A 
  37      924A180D 
  37      27E80CE6 
  37      5D24
  38 0021 9B43F101 		.ascii	"\233C\361\001\031~\001\321"
  38      197E01D1 
  39              		.text
  40              		.section	.gnu.lto_HSYNC_Enable.792a7a99,"",%progbits
  41 0000 789C6361 		.ascii	"x\234ca`d\000\001\035 \245\010\244\245\201\230\221\231"
  41      60640001 
  41      1D20A508 
  41      A4A58198 
  41      9199
  42 0012 819169C2 		.ascii	"\201\221i\3029\006\206F\016&FF\020\243\201\203\221\241"
  42      39068646 
  42      0E264646 
  42      10A38183 
  42      91A1
  43 0024 9E89B19E 		.ascii	"\236\211\261\236\361+\323_&\306C\355\317v2i.o\000\202"
  43      F12BD35F 
  43      26C643ED 
  43      CF763269 
  43      2E6F0082 
  44 0038 074F1F1B 		.ascii	"\007O\037\0336\2548\300\330\312\314\300\360\237\011"
  44      36AC38C0 
  44      D8CACCC0 
  44      F09F09
  45 0047 6C1203E3 		.ascii	"l\022\003\343rFM\006\240\262G\033\377M\345ek\001)S\200"
  45      72464D06 
  45      A0B2471B 
  45      FF4DE565 
  45      6B012953 
  46 005c 4832AE60 		.ascii	"H2\256`d\003Y\267>\350@\303\377\377\315\015\0076\362"
  46      640359B7 
  46      3EE840C3 
  46      FFFFCD0D 
  46      0736F2
ARM GAS  C:\Users\info\AppData\Local\Temp\cclbiKcc.s 			page 3


  47 006f 1DBCC6C7 		.ascii	"\035\274\306\307\312\304\320\312\014\264\023H00|\000"
  47      CAC4D0CA 
  47      0CB41348 
  47      30307C00 
  48 007f AA03D9F8 		.ascii	"\252\003\331\370\221\211\011D3?c<\364\253\353\334\256"
  48      91890944 
  48      333F633C 
  48      F4ABEBDC 
  48      AE
  49 0090 3890D666 		.ascii	"8\220\326ff\220\355\323Z\017\235g\377\302\324\312\314"
  49      6690EDD3 
  49      5A0F9D67 
  49      FFC2D4CA 
  49      CC
  50 00a1 C408B2E5 		.ascii	"\304\010\262\345\352\244\213gy!\334?'\032\033X\200B"
  50      EAA48B67 
  50      7921DC3F 
  50      271A1B58 
  50      8042
  51 00b3 AF7FECFB 		.ascii	"\257\177\354\373\3057\237qnc\013\320]\314\214\253\030"
  51      C5379F71 
  51      6E630BD0 
  51      5DCC8CAB 
  51      18
  52 00c4 65185732 		.ascii	"e\030W2\312\000\255_\3158\237\221\341\031c\363\0176"
  52      CA00AD5F 
  52      CD389F91 
  52      E11963F3 
  52      0F36
  53 00d6 8871CC10 		.ascii	"\210q\314\020\023\267=;y\214\013d\004#c\003#\343\032"
  53      13B73D3B 
  53      798C0B64 
  53      04236303 
  53      23E31A
  54 00e9 A052A0AD 		.ascii	"\240R\240\255\323\030Aj\360\231\266\026h\032\320\014"
  54      D318416A 
  54      F099B616 
  54      681AD00C 
  55 00f9 86578C4D 		.ascii	"\206W\214M\007\256\373\201T\203\275\377\001\350.\240"
  55      07AEFB81 
  55      5483BDFF 
  55      01E82EA0 
  56 0109 CB81FE90 		.ascii	"\313\201\376\220wO\315K-J,IM\211\017\316/-JN\215\011"
  56      774FCD4B 
  56      2D4A2C49 
  56      4D890FCE 
  56      2F2D4A4E 
  57 011f 08CE7736 		.ascii	"\010\316w6\215\361\010\216\364s\326Kf\000\000Q\203s"
  57      8DF1088E 
  57      F473D64B 
  57      66000051 
  57      8373
  58 0131 1F       		.ascii	"\037"
  59              		.text
  60              		.section	.gnu.lto_HSYNC_Stop.792a7a99,"",%progbits
  61 0000 789C6361 		.ascii	"x\234ca`d\000\001\035 \245\010\244\245\201\230\221\231"
  61      60640001 
ARM GAS  C:\Users\info\AppData\Local\Temp\cclbiKcc.s 			page 4


  61      1D20A508 
  61      A4A58198 
  61      9199
  62 0012 819169C2 		.ascii	"\201\221i\3029\006\206F\016&FF\020\243\201\203\221\241"
  62      39068646 
  62      0E264646 
  62      10A38183 
  62      91A1
  63 0024 9E89B19E 		.ascii	"\236\211\261\236\361+\323_&\306C\355\317v2i.o\000\202"
  63      F12BD35F 
  63      26C643ED 
  63      CF763269 
  63      2E6F0082 
  64 0038 074BBF19 		.ascii	"\007K\277\0316\2548\300\330\312\314\300\360\237\011"
  64      36AC38C0 
  64      D8CACCC0 
  64      F09F09
  65 0047 6C1203E3 		.ascii	"l\022\003\343rFM\006\240\262G\033\377M\345ek\001)S\200"
  65      72464D06 
  65      A0B2471B 
  65      FF4DE565 
  65      6B012953 
  66 005c 4832AE60 		.ascii	"H2\256`d\003Y\267>\350@\303\377\377\315\015\007\266"
  66      640359B7 
  66      3EE840C3 
  66      FFFFCD0D 
  66      07B6
  67 006e F21FBCC1 		.ascii	"\362\037\274\301\317\312\304\320\312\014\264\023H00"
  67      CFCAC4D0 
  67      CA0CB413 
  67      483030
  68 007d 7C00AA03 		.ascii	"|\000\252\003\331\370\221\211\011D3?c<\364\253\353\331"
  68      D9F89189 
  68      0944333F 
  68      633CF4AB 
  68      EBD9
  69 008f DE3890D6 		.ascii	"\3368\220\326ff\220\355\323Z\017\235g\377\302\324\312"
  69      666690ED 
  69      D35A0F9D 
  69      67FFC2D4 
  69      CA
  70 00a0 CCC408B2 		.ascii	"\314\304\010\262\345\352\244\213gy!\334?'\032\033X\200"
  70      E5EAA48B 
  70      677921DC 
  70      3F271A1B 
  70      5880
  71 00b2 42AF7FEC 		.ascii	"B\257\177\354\373\3057\237qnc\013\320]\314\214\253\030"
  71      FBC5379F 
  71      716E630B 
  71      D05DCC8C 
  71      AB18
  72 00c4 65185732 		.ascii	"e\030W2\312\000\255_\3158\237\221\341\031c\363\0376"
  72      CA00AD5F 
  72      CD389F91 
  72      E11963F3 
  72      1F36
  73 00d6 8871CC10 		.ascii	"\210q\314\020\023\177\237x\266\237\037d\0043\343\177"
ARM GAS  C:\Users\info\AppData\Local\Temp\cclbiKcc.s 			page 5


  73      137F9F78 
  73      B69F1F64 
  73      0433E37F 
  74 00e6 06C63540 		.ascii	"\006\3065@\245@[\2471\202\324\3403m-\3204\240\031\014"
  74      A5405BA7 
  74      3182D4E0 
  74      336D2DD0 
  74      34A0190C 
  75 00fa AF189B0E 		.ascii	"\257\030\233\016\334\364\007\251\006{\377\003\320]@"
  75      DCF407A9 
  75      067BFF03 
  75      D05D40
  76 0109 9703FD21 		.ascii	"\227\003\375!\357\236\232\227Z\224X\222\232\022\037"
  76      EF9E9A97 
  76      5A945892 
  76      9A121F
  77 0118 9C5F5A94 		.ascii	"\234_Z\224\234\032\023\020\234\357l\032\343\021\034"
  77      9C1A1310 
  77      9CEF6C1A 
  77      E3111C
  78 0127 E9E7AC97 		.ascii	"\351\347\254\227\314\000\000\220\207s\336"
  78      CC000090 
  78      8773DE
  79              		.text
  80              		.section	.gnu.lto_HSYNC_WriteCounter.792a7a99,"",%progbits
  81 0000 789C254F 		.ascii	"x\234%O\275KBQ\024?\277{\237\037K\320\030\366\240h\021"
  81      BD4B4251 
  81      143FBF7B 
  81      9F1F4BD0 
  81      18F6A068 
  82 0015 9708A2BF 		.ascii	"\227\010\242\277\300\241\246\210\336\024\030\021\366"
  82      C0A1A688 
  82      DE141811 
  82      F6
  83 0022 5605D1D9 		.ascii	"V\005\321\331\373\324WKPK\006A9\231eE9\266=\004\301"
  83      FBD4574B 
  83      504B0641 
  83      39996545 
  83      39B63D04 
  84 0037 A91AA2A0 		.ascii	"\251\032\242\240\240$\310\241\026\243\217\255^\347\352"
  84      A024C8A1 
  84      16A38FAD 
  84      5EE7EA
  85 0046 81CBEF9C 		.ascii	"\201\313\357\234\303\371}\\\203@\272\206\031b\214\243"
  85      C3F97D5C 
  85      8340BA86 
  85      19628CA3 
  86 0056 FC200962 		.ascii	"\374 \011b\373\212\310\011\013@7*\014\312\013\344\361"
  86      FB8AC809 
  86      0B40372A 
  86      0CCA0BE4 
  86      F1
  87 0067 2D7E059A 		.ascii	"-~\005\232\033\335K\021\253)\256\316k\335r\224;\342"
  87      1BDD4B11 
  87      AB29AECE 
  87      6BDD7294 
  87      3BE2
ARM GAS  C:\Users\info\AppData\Local\Temp\cclbiKcc.s 			page 6


  88 0079 4A225FF4 		.ascii	"J\"_\364\225\0105\304\370\352\356\242\361#\345\004\210"
  88      950835C4 
  88      F8EAEEA2 
  88      F123E504 
  88      88
  89 008a FBC3DB9B 		.ascii	"\373\303\333\233\266\021\255*UPjwYIW\002G\220\314\300"
  89      B611AD2A 
  89      55506A77 
  89      59495702 
  89      4790CCC0 
  90 009e B4892993 		.ascii	"\264\211)\223xA8FT\037\2774\376v\206\202%-?>\020E\035"
  90      78413846 
  90      541FBF34 
  90      FE768682 
  90      252D3F3E 
  91 00b5 411DF37C 		.ascii	"A\035\363|\321S\276_T\336c\244\365\02418\234\246P\217"
  91      D153BE5F 
  91      54DE63A4 
  91      F5143138 
  91      9CA6508F 
  92 00c9 6F74CA0F 		.ascii	"ot\312\017!4\312.\232{\215\373\262\3244\326+\273\315"
  92      2134CA2E 
  92      9A7B8DFB 
  92      B2D434D6 
  92      2BBBCD
  93 00dc EBD09770 		.ascii	"\353\320\227p\245\350g9X\377|\017\014\306\255\266\243"
  93      A5E86739 
  93      58FF7C0F 
  93      0CC6ADB6 
  93      A3
  94 00ed 0C5E6DB6 		.ascii	"\014^m\266:\365@\005\373N\011\256\2248\205\211\023\230"
  94      3AF54005 
  94      FB4E09AE 
  94      94388589 
  94      1398
  95 00ff EC7B860A 		.ascii	"\354{\206\012\212R\320\033\012\336\363\203\320\202\375"
  95      8A52D01B 
  95      0ADEF383 
  95      D082FD
  96 010e 2FF6588A 		.ascii	"/\366X\212\235\330wl\326N\331\231\325\254\275\266b\245"
  96      9DD8776C 
  96      D64ED999 
  96      D5ACBDB6 
  96      62A5
  97 0120 7399A49D 		.ascii	"s\231\244\235X\260\322\361\231\304\234\2654\037\237"
  97      58B0D2F1 
  97      99C49CB5 
  97      341F9F
  98 012f 4C522899 		.ascii	"LR(\231\316\245\262v\346\037E\355l\326"
  98      CEA5B276 
  98      E61F45ED 
  98      6CD6
  99              		.text
 100              		.section	.gnu.lto_HSYNC_ReadCounter.792a7a99,"",%progbits
 101 0000 789C6361 		.ascii	"x\234ca`d\000\001u \245\010\244\245\201\230\221\231"
 101      60640001 
 101      7520A508 
ARM GAS  C:\Users\info\AppData\Local\Temp\cclbiKcc.s 			page 7


 101      A4A58198 
 101      9199
 102 0012 819169C2 		.ascii	"\201\221i\3029\006\206F\016&FF\020\243\201\203\221\241"
 102      39068646 
 102      0E264646 
 102      10A38183 
 102      91A1
 103 0024 9E89B19E 		.ascii	"\236\211\261\236\361+\323_&\306\323\337O\364pi.ohhj"
 103      F12BD35F 
 103      26C6D3DF 
 103      4FF47069 
 103      2E6F6868 
 104 0039 78B0745B 		.ascii	"x\260t[\364\307\246V\211Vf\006\206\377L\014\214\306"
 104      F4C7A656 
 104      89566606 
 104      86FF4C0C 
 104      8CC6
 105 004b 328C0632 		.ascii	"2\214\0062 #\2263j2\000\225>\332\370o*/[K\003\020(\200"
 105      20239633 
 105      6A320095 
 105      3EDAF86F 
 105      2A2F5B4B 
 106 0063 14006556 		.ascii	"\024\000eV0\262\201\254\\\037t\240\341\377\377\346\206"
 106      30B281AC 
 106      5C1F74A0 
 106      E1FFFFE6 
 106      86
 107 0074 035BA58F 		.ascii	"\003[\245\217^\221fabhe\006\332\0132\207\341\003P\035"
 107      5E916661 
 107      62686506 
 107      DA0B3287 
 107      E103501D 
 108 0088 C8D68F4C 		.ascii	"\310\326\217LL \232\371\031\343\241_]\337\336\232\201"
 108      4C209AF9 
 108      19E3A15F 
 108      5DDFDE9A 
 108      81
 109 0099 B4363383 		.ascii	"\26463\203\\0\255\365\320y\366/L\255\314L\214 [>n\371"
 109      5C30ADF5 
 109      D079F62F 
 109      4CADCC4C 
 109      8C205B3E 
 110 00af BF830DC2 		.ascii	"\277\203\015\302\235\177\242\261\201\005(\324}`\362"
 110      9D7FA2B1 
 110      810528D4 
 110      7D60F2
 111 00be 7DF6F98C 		.ascii	"}\366\371\214s\033[\030[\231\231\031W1\3120\256d\004"
 111      731B5B18 
 111      5B999919 
 111      5731CA30 
 111      AE6404
 112 00d1 BA8C7135 		.ascii	"\272\214q5\343|F\006\260\211\347\336\005@Ld\006\252"
 112      E37C4606 
 112      B089E7DE 
 112      05404C64 
 112      06AA
 113 00e3 9F70E0E9 		.ascii	"\237p\340\351.F\210\021\367\241F,X\260\375&\007\330"
ARM GAS  C:\Users\info\AppData\Local\Temp\cclbiKcc.s 			page 8


 113      2E468811 
 113      F7A1462C 
 113      58B0FD26 
 113      07D8
 114 00f5 88C68686 		.ascii	"\210\306\206\206`\006\2201k\340\306\254\005\031\363"
 114      60069031 
 114      6BE0C6AC 
 114      0519F3
 115 0104 8AB1A921 		.ascii	"\212\261\251!\020j\006\003\330\341\214 \007\003\235"
 115      106A0603 
 115      D8E18C20 
 115      07039D
 116 0113 2FEF9E9A 		.ascii	"/\357\236\232\227Z\224X\222\232\022\037\234_Z\224\234"
 116      975A9458 
 116      929A121F 
 116      9C5F5A94 
 116      9C
 117 0124 1A13109C 		.ascii	"\032\023\020\234\357l\032\343\021\034\351\347\254\227"
 117      EF6C1AE3 
 117      111CE9E7 
 117      AC97
 118 0132 CC0000A5 		.ascii	"\314\000\000\245\215s\230"
 118      8D7398
 119              		.text
 120              		.section	.gnu.lto_HSYNC_WritePeriod.792a7a99,"",%progbits
 121 0000 789C254F 		.ascii	"x\234%O\275KBQ\024?\277{\037*A\370\007\364\300h1\227"
 121      BD4B4251 
 121      143FBF7B 
 121      1F2A41F8 
 121      07F4C068 
 122 0016 08A4BFC0 		.ascii	"\010\244\277\300\241\246\210\234\002AB\337\320\322\013"
 122      A1A6889C 
 122      024142DF 
 122      D0D20B
 123 0025 A9D9EBC7 		.ascii	"\251\331\353\307\263\265%\037\005\345\024j\037D9\325"
 123      B3B5251F 
 123      05E5146A 
 123      1F4439D5 
 124 0035 F41282A6 		.ascii	"\364\022\202\246\244\241=\032,rQ\311\321\354\334\347"
 124      A4A13D1A 
 124      2C7251C9 
 124      D1ECDCE7 
 125 0045 81CBEFDC 		.ascii	"\201\313\357\334\303\371}\034\203@\272\302\014\213\214"
 125      C3F97D1C 
 125      8340BAC2 
 125      0C8B8C
 126 0054 73FC2009 		.ascii	"s\374 \011\342\350\225\250\020\022\200nT\010\224\027"
 126      E2E895A8 
 126      1012806E 
 126      54089417 
 127 0064 C86324C6 		.ascii	"\310c$\306\002\355\303\356\203\210\325\025\327\307\363"
 127      02EDC3EE 
 127      8388D515 
 127      D7C7F3
 128 0073 30AE1A1E 		.ascii	"0\256\032\036\034I4\021\276\022\241\216\030o\265\252"
 128      1C493411 
 128      BE12A18E 
ARM GAS  C:\Users\info\AppData\Local\Temp\cclbiKcc.s 			page 9


 128      186FB5AA 
 129 0083 EF6E502E 		.ascii	"\357nP.\200\270??\351\365\302\321\013\245\212J\215S"
 129      80B83F3F 
 129      E9F5C2D1 
 129      0BA58A4A 
 129      8D53
 130 0095 4A3A1268 		.ascii	"J:\022h@2\003q\023\313&\361\200\320DT/\177\336\375\035"
 130      40320371 
 130      13CB26F1 
 130      80D04454 
 130      2F7FDEFD 
 131 00aa CF06CA5A 		.ascii	"\317\006\312Z~~*\212K\004t\314\333MOM&%\345\271\221"
 131      7E7E2A8A 
 131      4B0474CC 
 131      DB4D4F4D 
 131      2625E5B9 
 132 00bf A7FB88C1 		.ascii	"\247\373\210\301\3414\205\372\274\243S\016\204\320("
 132      E13485FA 
 132      BCA3530E 
 132      84D028
 133 00ce BB689F0E 		.ascii	"\273h\237\016\276\\\251i\254Wu\332\235\340\257p\244"
 133      BE5CA969 
 133      AC5775DA 
 133      9DE0AF70 
 133      A4
 134 00df F0B33C7E 		.ascii	"\360\263<~W\2063\323o\347\245\240\014\036\2759\243\212"
 134      578633D3 
 134      6FE7A5A0 
 134      0C1EBD39 
 134      A38A
 135 00f1 ACE1AC50 		.ascii	"\254\341\254P\346C$\256a\342\012&\373\336\240\206\222"
 135      E64324AE 
 135      61E20A26 
 135      FBDEA086 
 135      92
 136 0102 14F483A2 		.ascii	"\024\364\203\242\327Jk=\377\302>+\261\021\333FV\255"
 136      D74A6B3D 
 136      FFC23E2B 
 136      B111DB46 
 136      56AD
 137 0114 5D2BB7BD 		.ascii	"]+\267\275oe\323I\373 \227\261R\033I;\261\222ZKn\255"
 137      6F65D349 
 137      FB2097B1 
 137      521B493B 
 137      B1925A4B 
 138 012a 27963214 		.ascii	"'\2262\024\330\263r;v\366\037\246\202l/"
 138      D8B3723B 
 138      76F61FA6 
 138      826C2F
 139              		.text
 140              		.section	.gnu.lto_HSYNC_WriteCompare.792a7a99,"",%progbits
 141 0000 789C254F 		.ascii	"x\234%O;HBQ\030\376\277sL\035ti\355B\341b.\021DK\253"
 141      3B484251 
 141      18FEBF73 
 141      4C1D7469 
 141      ED42E162 
 142 0019 434D1139 		.ascii	"CM\0219\005F\210\335\261\214K\315\236\253^jt\351\201"
ARM GAS  C:\Users\info\AppData\Local\Temp\cclbiKcc.s 			page 10


 142      054688DD 
 142      B18C4BCD 
 142      9EAB5E6A 
 142      74E981
 143 002c 2006119A 		.ascii	" \006\021\232\026&M\015\201\\\010\"\260\307V[8\010\265"
 143      16264D0D 
 143      815C0822 
 143      B0C7565B 
 143      3808B5
 144 003f 685463D9 		.ascii	"hTc\331\177\364\207\303\377\340{\035\017\201t\215r\213"
 144      7FF487C3 
 144      FFE07B1D 
 144      0F81748D 
 144      728B
 145 0051 701FE307 		.ascii	"p\037\343\007I\020\371\007\"\333/\000=(?(-\220\306\217"
 145      4910F907 
 145      22DB2F00 
 145      3D283F28 
 145      2D90C68F 
 146 0065 F8157077 		.ascii	"\370\025pw;\327\"RV\\o\316I\240\240\236\224t$Q_\014"
 146      3BD72252 
 146      565C6FCE 
 146      49A0A09E 
 146      94742451 
 147 007b A4086544 		.ascii	"\244\010eD\030V\350\266n!C \236_*\371{\204O\225\312"
 147      1856E8B6 
 147      6E214320 
 147      9E5F2AF9 
 147      7B844F95 
 148 0090 2875B8AA 		.ascii	"(u\270\252\341@\005\222\031\23010m\020\037\010g\010"
 148      E1400592 
 148      19983130 
 148      6D101F08 
 148      6708
 149 00a2 6B70BBF1 		.ascii	"kp\273\361\267\037\364\346\264\376\304P\024Uxu\316\372"
 149      B71FF4E6 
 149      B4FEC450 
 149      14557875 
 149      CEFA
 150 00b4 7253F5FB 		.ascii	"rS\365\373Y\325,\206\236\367j\001\017\307\323\034\352"
 150      59D52C86 
 150      9EF76A01 
 150      0FC7D31C 
 150      EA
 151 00c5 3148E7FC 		.ascii	"1H\347\374\024Bw\331\201[h\264\216\3464\217\005\017"
 151      144277D9 
 151      815B68B4 
 151      8EE6348F 
 151      050F
 152 00d7 1CF7D1F7 		.ascii	"\034\367\321\367-\034)\006a\216/\253\357\301\341Z\277"
 152      2D1C2906 
 152      618E2FAB 
 152      EFC1E15A 
 152      BF
 153 00e8 B395874F 		.ascii	"\263\225\207O_\335\253\233\221\022\212v\016\216\224"
 153      5FDDAB9B 
 153      91128A76 
ARM GAS  C:\Users\info\AppData\Local\Temp\cclbiKcc.s 			page 11


 153      0E8E94
 154 00f7 3887811A 		.ascii	"8\207\201\032\0146\276@\011Y)\350\003\231\346k{R\013"
 154      0C36BE40 
 154      095929E8 
 154      0399E66B 
 154      7B520B
 155 010a 0EFED863 		.ascii	"\016\376\330c)vb\337\361ys\323\264\022\333\346\372Z"
 155      297662DF 
 155      F17973D3 
 155      B412DBE6 
 155      FA5A
 156 011c 2CB56325 		.ascii	",\265c%\315\370R,\025\235\215/\304V\026\243SI\362%S"
 156      CDF8522C 
 156      159D8D2F 
 156      C45616A3 
 156      5349F225 
 157 0131 1B5B09CB 		.ascii	"\033[\011\313\374\007\311\212m\205"
 157      FC07C98A 
 157      6D85
 158              		.text
 159              		.section	.gnu.lto_HSYNC_Init.792a7a99,"",%progbits
 160 0000 789C7552 		.ascii	"x\234uR\301KTA\034\236o\346\371v!\327\255s\013I`\340"
 160      C14B5441 
 160      1C9E6FE6 
 160      F97621D7 
 160      AD730B49 
 161 0016 2504E92F 		.ascii	"%\004\351/\360P\020\204\264\247@\212\330\366\026\011"
 161      F0501084 
 161      B4A7408A 
 161      D8F61609 
 162 0026 8B9D77D6 		.ascii	"\213\235w\326\335\267J\247\0203Hr\203\016kZ\352\226"
 162      DDB74AA7 
 162      10334872 
 162      830E6B5A 
 162      EA96
 163 0038 B56E41BD 		.ascii	"\265nA\275\226\320z\220\341\241:x0<,\241\021\026[,\262"
 163      96D07A90 
 163      E1A13A78 
 163      303C2CA1 
 163      11165B2C 
 164 004d BAFD7E6F 		.ascii	"\272\375~o\2444\330\201\231\371\315\314\367}|\337\314"
 164      A434D881 
 164      99F9CDCC 
 164      F77D7CDF 
 164      CC
 165 005e 580282DB 		.ascii	"X\002\202\333\206\024\342\004\315G\251C\011\310\233"
 165      8614E204 
 165      CD47A943 
 165      09C89B
 166 006d CB42A482 		.ascii	"\313B\244\202\022\340B\007!\222\022I\374\222;\022\345"
 166      12E04207 
 166      21921249 
 166      FC923B12 
 166      E5
 167 007e A14A4976 		.ascii	"\241JIv\3465\265/\316f\227\236t\341(!\032\322W\022\310"
 167      E635B52F 
 167      CE66979E 
ARM GAS  C:\Users\info\AppData\Local\Temp\cclbiKcc.s 			page 12


 167      74E12821 
 167      1AD25712 
 168 0093 A353106C 		.ascii	"\243S\020ly\246:\027V\307\301\365\317\341\251\265p\307"
 168      79A63A17 
 168      56C7C1F5 
 168      CFE1A9B5 
 168      70C7
 169 00a5 7DAD07B5 		.ascii	"}\255\007\265\273\266\030\276\255\335T\273\243\200I"
 169      BBB618BE 
 169      ADDD54BB 
 169      A38049
 170 00b4 28A2A13B 		.ascii	"(\242\241;\202\256\210O&\354za\367V\310\316\260|;\036"
 170      82AE884F 
 170      26EC7A61 
 170      F756C8CE 
 170      B07C3B1E 
 171 00c8 A0C30863 		.ascii	"\240\303\010c\0126Y\005\357\314\236wu\243\221\326\356"
 171      0A365905 
 171      EFCC9E77 
 171      75A391D6 
 171      EE
 172 00d9 AAFDFAD3 		.ascii	"\252\375\372\323\241V)\034%\3113\235X\\\332<\004x\020"
 172      A156291C 
 172      25C9339D 
 172      585CDA3C 
 172      047810
 173 00ec 628B3A27 		.ascii	"b\213:'\370!%\317\252\202\362\366\215\357\023\275,\227"
 173      F82125CF 
 173      AA82F2F6 
 173      8DEF13BD 
 173      2C97
 174 00fe 569C66CC 		.ascii	"V\234f\314)\177\010T\245\243\224\357\364\343\310\312"
 174      297F0854 
 174      A5A394EF 
 174      F4E3C8CA 
 175 010e FB9059D6 		.ascii	"\373\220Y\326\337\246\264E[\233\265\227\333m9\334Me"
 175      DFA6B445 
 175      5B9BB597 
 175      DB6D39DC 
 175      4D65
 176 0120 28A78587 		.ascii	"(\247\205\207\210`\032d\027\217\220\203\250 ]\317Va"
 176      88601A64 
 176      178F9083 
 176      A8205DCF 
 176      5661
 177 0132 0495D11C 		.ascii	"\004\225\321\034\277W_T,\002\270\300\014\201\327!\375"
 177      BF575F54 
 177      2C02B8C0 
 177      0C81D721 
 177      FD
 178 0143 04E49150 		.ascii	"\004\344\221PL\252ew'.\032\226E[\304\272\363\242\352"
 178      4CAA6577 
 178      272E1A96 
 178      455BC4BA 
 178      F3A2EA
 179 0156 B5304B22 		.ascii	"\2650K\"\210Y\"\221\3311_\370\200\211\224\326\335\342"
 179      88592291 
ARM GAS  C:\Users\info\AppData\Local\Temp\cclbiKcc.s 			page 13


 179      D9315FF8 
 179      808994D6 
 179      DDE2
 180 0168 A0913932 		.ascii	"\240\22192B2\302O\367;7\272\347\206y+\323#\351\260\311"
 180      4232C24F 
 180      F73B37BA 
 180      E786792B 
 180      D323E9B0 
 181 017d 937B67F2 		.ascii	"\223{g\362,\024\207\362\366\277<\205\2772\217\367\362"
 181      2C1487F2 
 181      F6BF3C85 
 181      BF328FF7 
 181      F2
 182 018e D46CC30F 		.ascii	"\324l\303\017\030\211\3717K\331\240\361\005<\371\317"
 182      1889F937 
 182      4BD9A0F1 
 182      053CF9CF 
 183 019e 5753B179 		.ascii	"WS\261y\337S@|E\306\035\367Z\031\316\367[*}[\015$w\364"
 183      DF53407C 
 183      45C61DF7 
 183      5A19CEF7 
 183      5B2A7D5B 
 184 01b6 B0D6871D 		.ascii	"\260\326\207\035\325\322\220\374\250O\221\344\263\347"
 184      D5D290FC 
 184      A84F91E4 
 184      B3E7
 185 01c4 AF96BC90 		.ascii	"\257\226\274\220\271\266#x\206\210\243l\237^\360dS:"
 185      B9B62378 
 185      8688A36C 
 185      9F5EF064 
 185      533A
 186 01d6 BD2F8A44 		.ascii	"\275/\212D\337\217/zmM\361\364Q\261\260\017\277\201"
 186      DF8F2F7A 
 186      6D4DF1F4 
 186      51B1B00F 
 186      BF81
 187 01e8 41F7F359 		.ascii	"A\367\363Y\037\316m\213\374\320?!\325c\247\343\327\342"
 187      1FCE6D8B 
 187      FCD03F21 
 187      D563A7E3 
 187      D7E2
 188 01fa 89CB03F1 		.ascii	"\211\313\003\361+\227\242\375\327\023\261x_o\264\277"
 188      2B97A2FD 
 188      D713B178 
 188      5F6FB4BF 
 189 020a E754DF99 		.ascii	"\347T\337\231\350\205s='c\302\212\015$\256\376\001\272"
 189      E885733D 
 189      2763C28A 
 189      0D24AEFE 
 189      01BA
 190 021c EB04BD   		.ascii	"\353\004\275"
 191              		.text
 192              		.section	.gnu.lto_HSYNC_Start.792a7a99,"",%progbits
 193 0000 789C9590 		.ascii	"x\234\225\220\277KBQ\024\307\317\271\367\371\003Qhi"
 193      BF4B4251 
 193      14C7CFB9 
 193      F7F90351 
ARM GAS  C:\Users\info\AppData\Local\Temp\cclbiKcc.s 			page 14


 193      6869
 194 0012 0BABD145 		.ascii	"\013\253\321E\227\372\013\204j\212\310)\020\"\354\255"
 194      97FA0B84 
 194      6A8AC829 
 194      1022ECAD 
 195 0022 0952B357 		.ascii	"\011R\263W\237bmA\344\022\341\024\331OshPH\036\322("
 195      9F626D41 
 195      E412E114 
 195      D94F7368 
 195      50481ED2 
 196 0037 35D5504B 		.ascii	"5\325PK\005I\210\203\202\015\016\366:\347\0315DC\007"
 196      05498883 
 196      820D0EF6 
 196      3AE71935 
 196      444307
 197 004a 2EE7F2BD 		.ascii	".\347\362\275\337\373=\037\216\006\010\\5j\223\324\247"
 197      DFFB3D1F 
 197      8E06085C 
 197      356A93D4 
 197      A7
 198 005b E8A00350 		.ascii	"\350\240\003Pl\337\000\244\334B\310\252\037\224G\273"
 198      6CDF00A4 
 198      DC42C8AA 
 198      1F9447BB 
 199 006b 0F81F24A 		.ascii	"\017\201\362J\324\206\262\206\310\027\345FH\012\251"
 199      D486B286 
 199      C817E546 
 199      480AA9
 200 007a 6112DFC5 		.ascii	"a\022\337\305@`=\327\254\210\300\241\242zz\335\223\252"
 200      40603DD7 
 200      AC88C0A1 
 200      A27A7ADD 
 200      93AA
 201 008c 68625602 		.ascii	"hbV\002X\302\036\001x\210\001 \333K\371c\327\347\314"
 201      58C21E01 
 201      78880120 
 201      DB4BF963 
 201      D7E7CC
 202 009f B06D62F8 		.ascii	"\260mb\370\210Et2Gi\321T\226e(\263\3538\360\272$d%\251"
 202      88457432 
 202      4769D154 
 202      966528B3 
 202      EB38F0BA 
 203 00b7 1D72F0B4 		.ascii	"\035r\360\264\256\020\334e\023\323\371\362U\220\377"
 203      AE10DC65 
 203      13D3F9F2 
 203      5590FF
 204 00c6 1852525E 		.ascii	"\030RR^>[\277u\365DV\012\344\370J\245\375\350J\016\324"
 204      3E5BBF75 
 204      F544560A 
 204      E4F84AA5 
 204      FDE84A0E 
 205 00db A65223A4 		.ascii	"\246R#\244m\021\001\313\255\306\335\265\247\200\373"
 205      6D1101CB 
 205      ADC6DDB5 
 205      A780FB
 206 00ea 2965EB12 		.ascii	")e\353\022\217\011\373\010\307h\372\011\026\020\236"
ARM GAS  C:\Users\info\AppData\Local\Temp\cclbiKcc.s 			page 15


 206      8F09FB08 
 206      C768FA09 
 206      16109E
 207 00f9 31F360F8 		.ascii	"1\363`\370\177RK\355J\337\307\251\210\200\247\354\003"
 207      7F524BED 
 207      4ADFC7A9 
 207      8880A7EC 
 207      03
 208 010a 669050F5 		.ascii	"f\220P\365\31374\314\276\316\336\337\0035\2130\000\317"
 208      CB3734CC 
 208      BECEDEDF 
 208      03358B30 
 208      00CF
 209 011c 3049F80E 		.ascii	"0I\370\016 \332^\247\026b\357?\330\316\277\331J\304"
 209      20DA5EA7 
 209      1662EF3F 
 209      D8CEBFD9 
 209      4AC4
 210 012e 468ECB5C 		.ascii	"F\216\313\\\243\354a\032\302\301\013\233\246+4{\037"
 210      A3EC611A 
 210      C2C10B9B 
 210      A62B347B 
 210      1F
 211 013f 0C638DFE 		.ascii	"\014c\215\376\011C\333\303\362\027L\013\323\346\316"
 211      0943DBC3 
 211      F2174C0B 
 211      D3E6CE
 212 014e 8C6DE5EA 		.ascii	"\214m\345\352\020)%\220c|V_\323\023+\353\372\352r$\276"
 212      10292590 
 212      637C565F 
 212      D3132BEB 
 212      FAEA7224 
 213 0163 9188E9D1 		.ascii	"\221\210\351\321\205H<<\035\235\213,\315\207\2031\370"
 213      85483C3C 
 213      1D9D8B2C 
 213      CD878331 
 213      F8
 214 0174 048513AA 		.ascii	"\004\205\023\252\251"
 214      A9
 215              		.text
 216              		.section	.gnu.lto_HSYNC_ReadControlRegister.792a7a99,"",%progbits
 217 0000 789C6361 		.ascii	"x\234ca`d\000\0013 \245\001\244\245\201\230\221\231"
 217      60640001 
 217      3320A501 
 217      A4A58198 
 217      9199
 218 0012 819169C2 		.ascii	"\201\221i\3029\006\206F\016&FF\020\243\201\203\221\241"
 218      39068646 
 218      0E264646 
 218      10A38183 
 218      91A1
 219 0024 9E89B19E 		.ascii	"\236\211\261\236\361+\323_&\306\323\337O\364pi.ohhj"
 219      F12BD35F 
 219      26C6D3DF 
 219      4FF47069 
 219      2E6F6868 
 220 0039 78B0F413 		.ascii	"x\260\364\023\357\354u\027\032\230[\231\031\030\376"
ARM GAS  C:\Users\info\AppData\Local\Temp\cclbiKcc.s 			page 16


 220      EFEC7517 
 220      1A985B99 
 220      1918FE
 221 0048 3331301A 		.ascii	"310\032\3130\032\310\200\314X\316\250\311\000T\373\254"
 221      CB301AC8 
 221      80CC58CE 
 221      A8C90054 
 221      FBAC
 222 005a FBE83E76 		.ascii	"\373\350>vf%F\020{\373\311s]\254\252\213A\372\016L\177"
 222      66254610 
 222      7BFBC973 
 222      5DACAA8B 
 222      41FA0E4C 
 223 006f 5FF1B1A9 		.ascii	"_\361\261\251aF\003\013P#\343\012Ffd\275\014 \305\217"
 223      6146030B 
 223      5023E30A 
 223      466664BD 
 223      0C20C58F 
 224 0083 36FE9BCA 		.ascii	"6\376\233\312\313\326\322\000\004\012\214+\031UA\246"
 224      CBD6D200 
 224      040A8C2B 
 224      195541A6 
 225 0093 038D5DC5 		.ascii	"\003\215]\305\310\006t)#Hd}\320\201\206\377\377\233"
 225      C8067429 
 225      2348647D 
 225      D08186FF 
 225      FF9B
 226 00a5 1B0E4CD5 		.ascii	"\033\016L\325\277\370\3423/3\320\004\220:\206\017@\205"
 226      BFF8E233 
 226      2F33D004 
 226      903A860F 
 226      4085
 227 00b7 20477F64 		.ascii	" G\177db\002\321\314\317\030\017\375\352z\267\247\231"
 227      6202D1CC 
 227      CF180FFD 
 227      EA7AB7A7 
 227      99
 228 00c8 0BA4B999 		.ascii	"\013\244\271\231\031\344\203i\255\207\316\263\177aj"
 228      19E48369 
 228      AD87CEB3 
 228      7F616A
 229 00d7 6566043B 		.ascii	"ef\004;\354\352\244\213gy!\334?'\032\033X\200B\257\177"
 229      ECEAA48B 
 229      677921DC 
 229      3F271A1B 
 229      588042AF 
 230 00ec ECFBC537 		.ascii	"\354\373\3057\237qncKcCC(C+3\023\343\032F\031\306\325"
 230      9F716E63 
 230      4B634343 
 230      28432B33 
 230      13E31A46 
 231 0103 8C400732 		.ascii	"\214@\0072\256e\234\317\310\360\210\261\251!\020\354"
 231      AE659CCF 
 231      C8F088B1 
 231      A92110EC 
 232 0113 1EA0AD40 		.ascii	"\036\240\255@c\031^16\035\230\223\017\265\004\344\213"
 232      63195E31 
ARM GAS  C:\Users\info\AppData\Local\Temp\cclbiKcc.s 			page 17


 232      361D9893 
 232      0FB504E4 
 232      8B
 233 0124 0F4C8C20 		.ascii	"\017L\214 \007\000\331\362\356\251y\251E\211%\251)\361"
 233      0700D9F2 
 233      EEA979A9 
 233      458925A9 
 233      29F1
 234 0136 C1F9A545 		.ascii	"\301\371\245E\311\2511\001\301\371\316\2461\036\301"
 234      C9A93101 
 234      C1F9CEA6 
 234      311EC1
 235 0145 917ECE7A 		.ascii	"\221~\316z\311\014lE\251\305\2459%\0002\031z\311"
 235      C90C6C45 
 235      A9C5A539 
 235      25003219 
 235      7AC9
 236              		.text
 237              		.section	.gnu.lto_HSYNC_WriteControlRegister.792a7a99,"",%progbits
 238 0000 789C254F 		.ascii	"x\234%O\275KBQ\024?\277{\037*\204\016\255=(Z\314\245"
 238      BD4B4251 
 238      143FBF7B 
 238      1F2A840E 
 238      AD3D285A 
 239 0016 A2E82F70 		.ascii	"\242\350/p\250)\"\247\300\210\260\267\205\017\304f\357"
 239      A82922A7 
 239      C088B0B7 
 239      850FC466 
 239      EF
 240 0027 531F3556 		.ascii	"S\0375VP\203%B`\366I4UK\210S\213\226C{48\324\242Q\020"
 240      50832542 
 240      60F64934 
 240      554B8853 
 240      8B96437B 
 241 0041 91BDCED5 		.ascii	"\221\275\316\325\003\227\363\301\357\353\032\004\322"
 241      0397F3C1 
 241      EFEB1A04 
 241      D2
 242 004e 35C82DC2 		.ascii	"5\310-\302}\210\037$Al7\210\234\200\000\364\240\002"
 242      7D881F24 
 242      416C3788 
 242      9C8000F4 
 242      A002
 243 0060 A08C4006 		.ascii	"\240\214@\006_\242+P\333l\335\211HEq\275\224\275`A="
 243      5FA22B50 
 243      DB6CDD89 
 243      484571BD 
 243      94BD6041 
 244 0075 29E94A22 		.ascii	")\351J\"O\364\244\010\025D4\254^t\006\344(\210\347\306"
 244      4FF4A408 
 244      154434AC 
 244      5E7406E4 
 244      2888E7C6 
 245 0089 F1EDA111 		.ascii	"\361\355\241\021.+\225U\352fY\303\201\023Hf`\332\304"
 245      2E2B9555 
 245      EA6659C3 
 245      81134866 
ARM GAS  C:\Users\info\AppData\Local\Temp\cclbiKcc.s 			page 18


 245      60DAC4
 246 009c A4497C20 		.ascii	"\244I| \234\"\254\301\257\327\177{A_^\353\217\364Eq"
 246      9C22ACC1 
 246      AFD77F7B 
 246      415F5EEB 
 246      8FF44571 
 247 00b0 069FCE79 		.ascii	"\006\237\316y\265XU\236\227S\325\356Ds\353(dp<\315\241"
 247      B558559E 
 247      9753D5EE 
 247      4473EB28 
 247      64703CCD 
 248 00c5 368374CE 		.ascii	"6\203t\316\216\020\272\313\026j\205\216w0\245y,\270"
 248      8E10BACB 
 248      166A858E 
 248      7730A579 
 248      2CB8
 249 00d7 EFD61EFD 		.ascii	"\357\326\036\375\237\302\225\242\027\346y\267Y\017\366"
 249      9FC295A2 
 249      17E679B7 
 249      590FF6
 250 00e6 D7DF0747 		.ascii	"\327\337\007G\031|z\377\276\377\011\225Pt\362p\245\304"
 250      197C7AFF 
 250      BEFF0995 
 250      5074F270 
 250      A5C4
 251 00f8 054C9CC3 		.ascii	"\005L\234\303d\343K\224\220\223\202\336\220\255\356"
 251      64E34B94 
 251      909382DE 
 251      90ADEE
 252 0107 7C8C69C1 		.ascii	"|\214i\301\336\037\333,\305N\354;<k%\255\324j\332Z["
 252      DE1FDB2C 
 252      C54EEC3B 
 252      3C6B25AD 
 252      D46ADA5A 
 253 011c 89D91BA9 		.ascii	"\211\331\033\251\204\025_\210\331\321\231\370\\li>:"
 253      84155F88 
 253      D9D199F8 
 253      5C6C693E 
 253      3A
 254 012d 9E207FC2 		.ascii	"\236 \177\302N\246S\366\372?\307\335o%"
 254      4EA653F6 
 254      FA3FC7DD 
 254      6F25
 255              		.text
 256              		.section	.gnu.lto_HSYNC_ReadCapture.792a7a99,"",%progbits
 257 0000 789C6361 		.ascii	"x\234ca`d\000\201G@\254\010\304\322@\314\310\314\300"
 257      60640081 
 257      4740AC08 
 257      C4D240CC 
 257      C8CCC0
 258 0013 C834E11C 		.ascii	"\3104\341\034\003C#\007\023##\210\321\300\301\310P\317"
 258      03432307 
 258      13232388 
 258      D1C0C1C8 
 258      50CF
 259 0025 C458CFF8 		.ascii	"\304X\317\370\225\351/\023\343\351\357'z\2704\22774"
 259      95E92F13 
ARM GAS  C:\Users\info\AppData\Local\Temp\cclbiKcc.s 			page 19


 259      E3E9EF27 
 259      7AB83497 
 259      3734
 260 0037 34353C38 		.ascii	"45<8\272\232o\366\272\013\015\314\255\314\014\014\377"
 260      BA9A6FF6 
 260      BA0B0DCC 
 260      ADCC0C0C 
 260      FF
 261 0048 9918188D 		.ascii	"\231\030\030\215e\030\015d@f,g\324d\000\252}\264\361"
 261      65180D64 
 261      40662C67 
 261      D46400AA 
 261      7DB4F1
 262 005b DF545EB6 		.ascii	"\337T^\266\226\006 P\000)\000\312\254`d\003\331\271"
 262      96062050 
 262      002900CA 
 262      AC606403 
 262      D9B9
 263 006d 3EE840C3 		.ascii	">\350@\303\377\377\315\015\007\356\033]\\\261\216\217"
 263      FFFFCD0D 
 263      07EE1B5D 
 263      5CB18E8F 
 264 007d 99890164 		.ascii	"\231\211\001d\006\303\007\240\032\220\225\037\231\230"
 264      06C307A0 
 264      1A90951F 
 264      9998
 265 008b 4034F333 		.ascii	"@4\3633\306C\277\272\216\235n\346\002\351kf\006\331"
 265      C643BFBA 
 265      8E9D6EE6 
 265      02E96B66 
 265      06D9
 266 009d 3FADF5D0 		.ascii	"?\255\365\320y\366/L\255\314\214\214 +&\034x\272\213"
 266      79F62F4C 
 266      ADCC8C8C 
 266      202B261C 
 266      78BA8B
 267 00b0 11C2BD7F 		.ascii	"\021\302\275\177\242\261\201\005(\264`\301\366\233\034"
 267      A2B18105 
 267      28B460C1 
 267      F69B1C
 268 00bf F319E736 		.ascii	"\363\031\3476\266464\004\003\015fb\\\305(\303\270\222"
 268      B6343634 
 268      04030D66 
 268      625CC528 
 268      C3B892
 269 00d2 11E834C6 		.ascii	"\021\3504\306\325\214\363\031\031^165\004B\215d\000"
 269      D58CF319 
 269      195E3136 
 269      3504428D 
 269      6400
 270 00e4 5BCB08B2 		.ascii	"[\313\010\262\016\310\226wO\315K-J,IM\211\017\316/-"
 270      0EC89677 
 270      4FCD4B2D 
 270      4A2C494D 
 270      890FCE2F 
 271 00f9 4A4E8D09 		.ascii	"JN\215\011\010\316w6\215\361\010\216\364s\326Kf\000"
 271      08CE7736 
ARM GAS  C:\Users\info\AppData\Local\Temp\cclbiKcc.s 			page 20


 271      8DF1088E 
 271      F473D64B 
 271      6600
 272 010b 00D7AD5C 		.ascii	"\000\327\255\\\251"
 272      A9
 273              		.text
 274              		.section	.gnu.lto_HSYNC_ReadCompare.792a7a99,"",%progbits
 275 0000 789C6361 		.ascii	"x\234ca`d\000\201G@\254\010\304\322@\314\310\314\300"
 275      60640081 
 275      4740AC08 
 275      C4D240CC 
 275      C8CCC0
 276 0013 C834E11C 		.ascii	"\3104\341\034\003C#\007\023##\210\321\300\301\310P\317"
 276      03432307 
 276      13232388 
 276      D1C0C1C8 
 276      50CF
 277 0025 C458CFF8 		.ascii	"\304X\317\370\225\351/\023\343\351\357'z\2704\22774"
 277      95E92F13 
 277      E3E9EF27 
 277      7AB83497 
 277      3734
 278 0037 34353C68 		.ascii	"45<h\335\3057{\335\205\006\346Vf\006\206\377L\014\214"
 278      DDC5377B 
 278      DD8506E6 
 278      56660686 
 278      FF4C0C8C 
 279 004b C6328C06 		.ascii	"\3062\214\0062 3\2263j2\000\325>\332\370o*/[K\003\020"
 279      32203396 
 279      336A3200 
 279      D53EDAF8 
 279      6F2A2F5B 
 280 0062 28801400 		.ascii	"(\200\024\000eV0\262\201\354\\\037t\240\341\377\377"
 280      655630B2 
 280      81EC5C1F 
 280      74A0E1FF 
 280      FF
 281 0073 E6860397 		.ascii	"\346\206\003\227\215/\276\330\315\307\314\304\0002\203"
 281      8D2FBED8 
 281      CDC7CCC4 
 281      003283
 282 0082 E103500D 		.ascii	"\341\003P\015\310\312\217LL \232\371\031\343\241_]\357"
 282      C8CA8F4C 
 282      4C209AF9 
 282      19E3A15F 
 282      5DEF
 283 0094 CE357383 		.ascii	"\3165s\203\36453\203\354\237\326z\350<\373\027\246V"
 283      F4353383 
 283      EC9FD67A 
 283      E83CFB17 
 283      A656
 284 00a6 66464690 		.ascii	"fFF\220\025\0136\254z\311\013\341\256?\321\330\300\002"
 284      150B36AC 
 284      7AC90BE1 
 284      AE3FD1D8 
 284      C002
 285 00b8 14FAFC7E 		.ascii	"\024\372\374~\363^\326\371\214s\033[\032\033\032\242"
ARM GAS  C:\Users\info\AppData\Local\Temp\cclbiKcc.s 			page 21


 285      F35ED6F9 
 285      8C731B5B 
 285      1A1B1AA2 
 286 00c8 81063331 		.ascii	"\201\00631\256b\224a\\\311\010t\032\343j\306\371\214"
 286      AE629461 
 286      5CC90874 
 286      1AE36AC6 
 286      F98C
 287 00da 0CAF189B 		.ascii	"\014\257\030\233\032\"\241F2\200\255e\004Y\007d\313"
 287      1A22A146 
 287      3280AD65 
 287      04590764 
 287      CB
 288 00eb BBA7E6A5 		.ascii	"\273\247\346\245\026%\226\244\246\304\007\347\227\026"
 288      162596A4 
 288      A6C407E7 
 288      9716
 289 00f9 25A7C604 		.ascii	"%\247\306\004\004\347;\233\306x\004G\3729\353%3\000"
 289      04E73B9B 
 289      C6780447 
 289      FA39EB25 
 289      3300
 290 010b 000C7C5D 		.ascii	"\000\014|]E"
 290      45
 291              		.text
 292              		.section	.gnu.lto_HSYNC_ReadPeriod.792a7a99,"",%progbits
 293 0000 789C6361 		.ascii	"x\234ca`d\000\201\207@\254\010\304\322@\314\310\314"
 293      60640081 
 293      8740AC08 
 293      C4D240CC 
 293      C8CC
 294 0012 C0C834E1 		.ascii	"\300\3104\341\034\003C#\007\023##\210\321\300\301\310"
 294      1C034323 
 294      07132323 
 294      88D1C0C1 
 294      C8
 295 0023 50CFC458 		.ascii	"P\317\304X\317\370\225\351/\023\343\351\357'z\2704\227"
 295      CFF895E9 
 295      2F13E3E9 
 295      EF277AB8 
 295      3497
 296 0035 37343435 		.ascii	"7445<h\375\315\367\275\251U\242\225\231\201\341?\023"
 296      3C68FDCD 
 296      F7BDA955 
 296      A2959981 
 296      E13F13
 297 0048 03A3B10C 		.ascii	"\003\243\261\014\243\201\014\310\210\345\214\232\014"
 297      A3810CC8 
 297      88E58C9A 
 297      0C
 298 0055 40A58F36 		.ascii	"@\245\2176\376\233\312\313\326\322\000\004\012 \005"
 298      FE9BCACB 
 298      D6D20004 
 298      0A2005
 299 0064 4099158C 		.ascii	"@\231\025\214l +\327\007\035h\370\377\277\271\341\300"
 299      6C202BD7 
 299      071D68F8 
ARM GAS  C:\Users\info\AppData\Local\Temp\cclbiKcc.s 			page 22


 299      FFBFB9E1 
 299      C0
 300 0075 6DF3892F 		.ascii	"m\363\211/\376\361131\200\314`\370\000T\003\262\361"
 300      FEF13133 
 300      3180CC60 
 300      F8005403 
 300      B2F1
 301 0087 23131388 		.ascii	"#\023\023\210f~\306x\350W\327\271\373\315\\ }\315\314"
 301      667EC678 
 301      E857D7B9 
 301      FBCD5C20 
 301      7DCDCC
 302 009a 20EBA7B5 		.ascii	" \353\247\265\036:\317\376\205\251\225\231\221\021d"
 302      1E3ACFFE 
 302      85A99599 
 302      911164
 303 00a9 C5AE176D 		.ascii	"\305\256\027m\237\270 \334\363'\032\033X\200B\027[\277"
 303      9FB820DC 
 303      F3271A1B 
 303      58804217 
 303      5BBF
 304 00bb B631CF67 		.ascii	"\2661\317g\234\333\330\322\330\320\020\0144\230\211"
 304      9CDBD8D2 
 304      D8D0100C 
 304      349889
 305 00ca 7115A30C 		.ascii	"q\025\243\014\343JF\240\323\030W3\316gdx\305\330\324"
 305      E34A46A0 
 305      D3185733 
 305      CE676478 
 305      C5D8D4
 306 00dd 10083592 		.ascii	"\020\0105\222\001l-#\310: [\336=5/\265(\261$5%>8\277"
 306      016C2D23 
 306      C83A205B 
 306      DE3D352F 
 306      B528B124 
 307 00f6 B4283935 		.ascii	"\264(95& 8\337\3314\306#8\322\317Y/\231\001\000\254"
 307      262038DF 
 307      D934C623 
 307      38D2CF59 
 307      2F990100 
 308 010b 3C5CBF   		.ascii	"<\\\277"
 309              		.text
 310              		.section	.gnu.lto_.symbol_nodes.792a7a99,"",%progbits
 311 0000 789C55CE 		.ascii	"x\234U\316\273\021\302@\020\203a\355\355\335\236_\020"
 311      BB11C240 
 311      108361ED 
 311      EDDD9E5F 
 311      10
 312 0011 B801861E 		.ascii	"\270\001\206\036\334\237 !\246\006\207\304T@\001\364"
 312      DC9F2021 
 312      A60687C4 
 312      544001F4 
 313 0021 8063D7C0 		.ascii	"\200c\327\300`\223)\372g\276Q\240\014\303\321\000$'"
 313      609329FA 
 313      67BE51A0 
 313      0CC3D100 
 313      2427
ARM GAS  C:\Users\info\AppData\Local\Temp\cclbiKcc.s 			page 23


 314 0033 707F035B 		.ascii	"p\177\003[\036\227\363\006\231\246P\230\024\202\256"
 314      1E97F306 
 314      99A65098 
 314      1482AE
 315 0042 5099151A 		.ascii	"P\231\025\032\026\205\304P0V\201\002\\\307\375O\313"
 315      1685C450 
 315      30568102 
 315      5CC7FD4F 
 315      CB
 316 0053 46971D5B 		.ascii	"F\227\035[\205\236\235\302\300^\341\300A\300#a\276\255"
 316      859E9DC2 
 316      C05EE1C0 
 316      41C02361 
 316      BEAD
 317 0065 278F8CD7 		.ascii	"'\217\214\327\277\005\313\336\032X\236\223W`\376|\015"
 317      BF05CBDE 
 317      1A589E93 
 317      5760FE7C 
 317      0D
 318 0076 3F910E3C 		.ascii	"?\221\016<p"
 318      70
 319              		.text
 320              		.section	.gnu.lto_.refs.792a7a99,"",%progbits
 321 0000 789C6361 		.ascii	"x\234ca`d\340d```bg\340`d\344`a\000\000\001|\000."
 321      6064E064 
 321      60606062 
 321      67E06064 
 321      E4606100 
 322              		.text
 323              		.section	.gnu.lto_.decls.792a7a99,"",%progbits
 324 0000 789C8D94 		.ascii	"x\234\215\224]LTG\024\307\357\331\273\302\272\200T\322"
 324      5D4C5447 
 324      14C7EFD9 
 324      BBC2BA80 
 324      54D2
 325 0012 34B4D944 		.ascii	"4\264\331Djb\302\023\251iL\350[\023\322j_,\221\224\266"
 325      6A62C213 
 325      A9694CE8 
 325      5B13D26A 
 325      5F2C9194 
 326 0027 898D59E1 		.ascii	"\211\215Y\341jI,\220ey\360\245\271\010\305~\274 \006"
 326      6A492C90 
 326      6579F0A5 
 326      B908C57E 
 326      BC2006
 327 003a 28600B68 		.ascii	"(`\013h\375@\276\301\225E@\026\001\371\\\204R\201\025"
 327      FD40BEC1 
 327      95454016 
 327      01F95C84 
 327      528115
 328 004d 6A294829 		.ascii	"j)H)\005E*\011%V\350\231\271\263\314\\s\225Nr\356\235"
 328      05452A09 
 328      2556E899 
 328      B9B3CC5C 
 328      73954E72 
 329 0063 99FB3FBF 		.ascii	"\231\373?\277s\346\334\2311K \2216\030(I\007\260k\223"
 329      73E6DC99 
ARM GAS  C:\Users\info\AppData\Local\Temp\cclbiKcc.s 			page 24


 329      314B2091 
 329      36182849 
 329      07B06B93 
 330 0077 256903DB 		.ascii	"%i\003\333\016\234\213\227x\013A\253B\253As\2435\243"
 330      0E9C8B97 
 330      780B41AB 
 330      42AB4173 
 330      A335A3
 331 008a B5A2B5A1 		.ascii	"\265\242\265\241\265\243u\240u\241u\243\365\242\365"
 331      B5A375A0 
 331      75A175A3 
 331      F5A2F5
 332 0099 A379D108 		.ascii	"\243y\321\010}H\3227\30213\276\015\355.\332\010\373"
 332      7D48D237 
 332      C23133BE 
 332      0DED2EDA 
 332      08FB
 333 00ab 06ECFBF3 		.ascii	"\006\354\373\363\255f\013\237\032\003\037\267\340\343"
 333      AD660B9F 
 333      1A031FB7 
 333      E0E3
 334 00b9 32F0711B 		.ascii	"2\360q\033\37043\037\027\2133\2066*\3704\033\370\264"
 334      F834331F 
 334      178B3386 
 334      362AF834 
 334      1BF8B4
 335 00cc 6E11A7D5 		.ascii	"n\021\247\325\300\247m\013\2376\003\037R\347@\301G\254"
 335      C0A76D0B 
 335      9F36031F 
 335      52E740C1 
 335      47AC
 336 00de C3385A23 		.ascii	"\3038Z#\323\231\231\326-\361\177\364|#\377+@\342\365"
 336      D39999D6 
 336      2DF17FF4 
 336      7C23FF2B 
 336      40E2F5
 337 00f1 F431E63D 		.ascii	"\3641\346=\264J\246\221\231\216\260\252$\343\177\331"
 337      B44AA691 
 337      998EB0AA 
 337      24E37FD9 
 338 0101 C574C4F7 		.ascii	"\305t\304\367\371Zu\031\304\355\336b\335\335\006>\275"
 338      F95A7519 
 338      C4EDDE62 
 338      DDDD063E 
 338      BD
 339 0112 2F89D16B 		.ascii	"/\211\321k\240\357\177\211\276\337@\357}\211\336k\240"
 339      A0EF7F89 
 339      BEDF40EF 
 339      7D89DE6B 
 339      A0
 340 0123 7F6682CC 		.ascii	"\177f\202\314\351\277J-\023\340\003\220\2006\211\235"
 340      E9BF4A2D 
 340      13E00390 
 340      8036899D 
 341 0133 2389CCB0 		.ascii	"#\211\314\2607\351\20060\371y\260If\035*\007\311D\365"
 341      37E98036 
 341      30F979B0 
ARM GAS  C:\Users\info\AppData\Local\Temp\cclbiKcc.s 			page 25


 341      49661D2A 
 341      07C944F5 
 342 0147 207CD0E9 		.ascii	" |\320\351\350\231\244\215O\301f\363+A\017%T>\304\261"
 342      E899A48D 
 342      4FC166F3 
 342      2B410F25 
 342      543EC4B1 
 343 015b 893B083C 		.ascii	"\211;\010<\226=\213\017bX\212\226\375\213.-\231\275"
 343      963D8B0F 
 343      62588A96 
 343      FD8B2E2D 
 343      99BD
 344 016d B45D4626 		.ascii	"\264]F&\366\177[\273\362~T\245\212-GUM\273xe\206\263"
 344      F67F5BBB 
 344      F27E54A5 
 344      8A2D4755 
 344      4DBB7865 
 345 0183 6ACFC92B 		.ascii	"j\317\311+&\010\263\202\031\207\313\336\242\231\035"
 345      2608B382 
 345      1987CBDE 
 345      A2991D
 346 0192 387CD50A 		.ascii	"8|\325\012\0218|\326[\\d\012\317\247~\231j\204\031\342"
 346      11387CD6 
 346      5B5C640A 
 346      CFA77E99 
 346      6A8419E2 
 347 01a6 5F830AB0 		.ascii	"_\203\012\260\301U\300M\010\225\020\216\317\243f\215"
 347      C155C04D 
 347      0895108E 
 347      CFA3668D 
 348 01b6 54BD3037 		.ascii	"T\27507e\331]\252N\325\252S\313-\266\374L\265\007\335"
 348      65D95DAA 
 348      4ED5AA53 
 348      CB2DB6FC 
 348      4CB507DD 
 349 01ca 22880AAE 		.ascii	"\"\210\012\256\200\014\345\020ER\304.y]\206\011L\276"
 349      800CE510 
 349      4552C42E 
 349      795D8609 
 349      4CBE
 350 01dc 0A76A3E7 		.ascii	"\012v\243\347\330Z]F\210\034M\023\315\036\354\356\223"
 350      D85A5D46 
 350      881C4D13 
 350      CD1EECEE 
 350      93
 351 01ed 91525AAB 		.ascii	"\221RZ\253z\352\357\004\2539\031\252\372.eTsF\265\310"
 351      7AEAEF04 
 351      AB3919AA 
 351      FA2E6554 
 351      7346B5C8 
 352 0201 A8A18CA9 		.ascii	"\250\241\214\251\266\351\237,r\014e\324|\365\240\334"
 352      B6E99F2C 
 352      720C65D4 
 352      7CF5A0DC 
 353 0211 828BB059 		.ascii	"\202\213\260Ya\003\310x\261i-D\033\223\317\205gf\326"
 353      6103C878 
 353      B1692D44 
ARM GAS  C:\Users\info\AppData\Local\Temp\cclbiKcc.s 			page 26


 353      1B93CF85 
 353      6766D6
 354 0224 83E478D2 		.ascii	"\203\344x\3227\215\314T\314\233!\322z\211,qj-\373X\301"
 354      378DCC54 
 354      CC9B21D2 
 354      7A892C71 
 354      6A2DFB58 
 355 0239 69AC0FB8 		.ascii	"i\254\017\270\300\012\015<\236\315\212\317\257U\365"
 355      C00A0D3C 
 355      9ECD8ACF 
 355      AF55F5
 356 0248 94FAF8BC 		.ascii	"\224\372\370\274\032\020.\301\3336x\313&\3015\210$P"
 356      1A102EC1 
 356      DB3678CB 
 356      26C13588 
 356      2450
 357 025a A2827A2C 		.ascii	"\242\202z,K\035\226\005\003\314\026\224,\004\230q\017"
 357      4B1D9605 
 357      03CC1694 
 357      2C049871 
 357      0F
 358 026b 510ED607 		.ascii	"Q\016\326\007\347*oL.\006\274\260\222\215\264\222\327"
 358      E72A6F4C 
 358      2E06BCB0 
 358      928DB492 
 358      D7
 359 027c 8195D2DD 		.ascii	"\201\225\322\335\335s\037\374\245\254\334WT\257\252"
 359      DD731FFC 
 359      A5ACDC57 
 359      54AFAA
 360 028b DFA0A399 		.ascii	"\337\240\243\231\350\240\226\347U+\326\301M\3530\370"
 360      E8A096E7 
 360      552BD6C1 
 360      4DEB30F8 
 361 029b E06284FC 		.ascii	"\340b\204\374%]\347\320w]\231\241bH\222\015\217yC\367"
 361      255DE7D0 
 361      775D99A1 
 361      6248920D 
 361      8F7943F7 
 362 02af F7DCDE86 		.ascii	"\367\334\336\206y3\253{\303DH\241\352\311RI%P\005M<"
 362      7933AB7B 
 362      C34448A1 
 362      EAC95249 
 362      2550054D 
 363 02c4 629318B1 		.ascii	"b\223\030\261\231F\234\235\033\030\0029\007h\314\212"
 363      99469C9D 
 363      1B180239 
 363      0768CC8A 
 364 02d4 95EFC702 		.ascii	"\225\357\307\002\265\314=y%\362&\206$\336\3021-\"\246"
 364      B5CC3D79 
 364      25F22686 
 364      24DEC231 
 364      2D22A6
 365 02e7 9562EACB 		.ascii	"\225b\352\313:\036Z\345\363\032\346\207\216\311a\266"
 365      3A1E5AE5 
 365      F31AE687 
 365      8EC961B6 
ARM GAS  C:\Users\info\AppData\Local\Temp\cclbiKcc.s 			page 27


 366 02f7 973C85D3 		.ascii	"\227<\205\323\261g\374{\211`nr\314M\021\323F1\347f\012"
 366      B167FC7B 
 366      89606E72 
 366      CC4D11D3 
 366      4631E766 
 367 030c D62DB24B 		.ascii	"\326-\262K\303d.?\272`e\030_6\317\206l'\017\307xDL;"
 367      C3642E3F 
 367      BA606518 
 367      5F36CF86 
 367      6C270FC7 
 368 0324 C58C2CBA 		.ascii	"\305\214,\272\206\202d\217\206Y\315W\327\267\261\332"
 368      8682648F 
 368      8659CD57 
 368      D7B7B1DA 
 369 0334 DC57D8AF 		.ascii	"\334W\330\257 \214[\234qKdtP\306\2527+{\273<\2401\346"
 369      208C5B9C 
 369      714B6474 
 369      50C6AA37 
 369      2B7BBB3C 
 370 034b 3A7F5F0F 		.ascii	":\177_\017`\214\263K\237l\256\210\324\267\223c:EL\027"
 370      608CB34B 
 370      9F6CAE88 
 370      D4B79363 
 370      3A454C17 
 371 035f C5E43E2C 		.ascii	"\305\344>,s\233\345?4\214\267h\351j0\303<]\322\027\346"
 371      739BE53F 
 371      348CB768 
 371      E96A30C3 
 371      3C5DD217 
 372 0374 36C7DC16 		.ascii	"6\307\334\0261\335\332\306p\255\226\204\310\031\332"
 372      31DDDAC6 
 372      70AD9684 
 372      C819DA
 373 0383 75B0BE36 		.ascii	"u\260\2766\336\354_\321\257\177\353\263\351\341\230"
 373      DEEC5FD1 
 373      AF7FEBB3 
 373      E9E198
 374 0392 1E11D34B 		.ascii	"\036\021\323K1\305\256\302?-\362Y\015Sw\352\351\223"
 374      31C5AEC2 
 374      3F2DF259 
 374      0D5377EA 
 374      E993
 375 03a4 ED0C3394 		.ascii	"\355\0143\224\246\3333}\234\322'R\372)e\376\307\177"
 375      A6DB337D 
 375      9CD22752 
 375      FA2965FE 
 375      C77F
 376 03b6 9776C817 		.ascii	"\227v\310\0275\312\340d\303F\020\243\370V\243u\230\001"
 376      35CAE064 
 376      C34610A3 
 376      F856A375 
 376      9801
 377 03c8 8E191031 		.ascii	"\216\031\0201^mM\023=\357\254h\247\225\200<\227\033"
 377      5E6D4D13 
 377      3DEFAC68 
 377      A795803C 
 377      971B
ARM GAS  C:\Users\info\AppData\Local\Temp\cclbiKcc.s 			page 28


 378 03da 974DF275 		.ascii	"\227M\362uv\343]\313\237\015\335sA-=\257zr>Se\252\272"
 378      76E35DCB 
 378      9F0DDD73 
 378      412D3DAF 
 378      7A723E53 
 379 03f1 A3E1D8F9 		.ascii	"\243\341\330\371\225\350x\020O\003\014\301\036\364Y"
 379      95E87810 
 379      4F030CC1 
 379      1EF459
 380 0400 C97A321A 		.ascii	"\311z2\032`\305\203\236\371\377\016\272w\276l#P\356"
 380      60C5839E 
 380      F9FF0EBA 
 380      77BE6C23 
 380      50EE
 381 0412 A4014D0D 		.ascii	"\244\001M\015y\205y\201`\2154p\377\305\300\335\177\343"
 381      79857981 
 381      608D3470 
 381      FFC5C0DD 
 381      7FE3
 382 0424 7C58949B 		.ascii	"|X\224\233\201\225\037\301\354~\346\213\035\006\253"
 382      81951FC1 
 382      EC7EE68B 
 382      1D06AB
 383 0433 762ECB1F 		.ascii	"v.\313\037ux \370[r\367\340!\016;@\205\374\020\337\205"
 383      757820F8 
 383      5B72F7E0 
 383      210E3B40 
 383      85FC10DF 
 384 0448 607AF1E3 		.ascii	"`z\361\343\033\305e\305\013\323A\376\374s\266H\000\365"
 384      1BC565C5 
 384      0BD341FE 
 384      FC73B648 
 384      00F5
 385 045a A7FF59F0 		.ascii	"\247\377Y\360\351\340\243:\370\030\203\217Q\370\343"
 385      E9E0A33A 
 385      F818838F 
 385      51F8E3
 386 0469 F69E8E50 		.ascii	"\366\236\216PQL\366\034\027\2173\3618\025g\024\227\345"
 386      514CF61C 
 386      178F33F1 
 386      38156714 
 386      97E5
 387 047b EAC4FABB 		.ascii	"\352\304\372\273\307\307\304>*.\362\235\353\267\210"
 387      C7C7C43E 
 387      2A2EF29D 
 387      EBB788
 388 048a E24A1DF9 		.ascii	"\342J\035\371\036\004\373\313\202])\370@\334\247\007"
 388      1E04FBCB 
 388      825D29F8 
 388      40DCA707 
 389 049a 638EBC97 		.ascii	"c\216\274\227l?zB\261\354?\370QD\314\336\275\322\256"
 389      6C3F7A42 
 389      B1EC3FF8 
 389      5144CCDE 
 389      BDD2AE
 390 04ad FD4AB2E2 		.ascii	"\375J\262\342\260;\225\304#q)\351\216\004\345pl\\J\314"
 390      B03B95C4 
ARM GAS  C:\Users\info\AppData\Local\Temp\cclbiKcc.s 			page 29


 390      237129E9 
 390      8E04E570 
 390      6C5C4ACC 
 391 04c1 BEC3541C 		.ascii	"\276\303T\034\225 Y5\2578gJj\230\326\375\330\221\344"
 391      95205935 
 391      AF38674A 
 391      6A98D6FD 
 391      D891E4
 392 04d4 546252D2 		.ascii	"TbR\322\223\235\212c[zR\2623\372\315\0270\022N:O\246"
 392      939D8A63 
 392      5B7A52B2 
 392      33FACD17 
 392      30124E3A 
 393 04ea 2A69519F 		.ascii	"*iQ\237K;5\327C\212=\221y\356\024`\261\212#)%Q\217\377"
 393      4B3B35D7 
 393      438A3D91 
 393      79EE1460 
 393      B18A2329 
 394 0502 22D5EE50 		.ascii	"\"\325\356PX\360\017\222\223\234A\376<\354\016\347\353"
 394      58F00F92 
 394      939C41FE 
 394      3CEC0EE7 
 394      EB
 395 0513 222DD9E9 		.ascii	"\"-\331\351H9qH9\236\224\206\3247t\014\335'1\005{\252"
 395      48397148 
 395      399E9486 
 395      D437740C 
 395      DD273105 
 396 0529 33DDA1E8 		.ascii	"3\335\241\350\222\242\361^\3413ZN!\332D\022&\020ow\230"
 396      92A2F15E 
 396      E1335A4E 
 396      21DA4412 
 396      26106F77 
 397 053e 1DCAF1E8 		.ascii	"\035\312\361\350\377\000!\245\374\235"
 397      FF0021A5 
 397      FC9D
 398              		.text
 399              		.section	.gnu.lto_.symtab.792a7a99,"",%progbits
 400 0000 4853594E 		.ascii	"HSYNC_Enable\000"
 400      435F456E 
 400      61626C65 
 400      00
 401 000d 00       		.ascii	"\000"
 402 000e 00       		.ascii	"\000"
 403 000f 00       		.ascii	"\000"
 404 0010 00000000 		.ascii	"\000\000\000\000\000\000\000\000"
 404      00000000 
 405 0018 AD000000 		.ascii	"\255\000\000\000"
 406 001c 4853594E 		.ascii	"HSYNC_Stop\000"
 406      435F5374 
 406      6F7000
 407 0027 00       		.ascii	"\000"
 408 0028 00       		.ascii	"\000"
 409 0029 00       		.ascii	"\000"
 410 002a 00000000 		.ascii	"\000\000\000\000\000\000\000\000"
 410      00000000 
 411 0032 AF000000 		.ascii	"\257\000\000\000"
ARM GAS  C:\Users\info\AppData\Local\Temp\cclbiKcc.s 			page 30


 412 0036 4853594E 		.ascii	"HSYNC_WriteCounter\000"
 412      435F5772 
 412      69746543 
 412      6F756E74 
 412      657200
 413 0049 00       		.ascii	"\000"
 414 004a 00       		.ascii	"\000"
 415 004b 00       		.ascii	"\000"
 416 004c 00000000 		.ascii	"\000\000\000\000\000\000\000\000"
 416      00000000 
 417 0054 B8000000 		.ascii	"\270\000\000\000"
 418 0058 4853594E 		.ascii	"HSYNC_ReadCounter\000"
 418      435F5265 
 418      6164436F 
 418      756E7465 
 418      7200
 419 006a 00       		.ascii	"\000"
 420 006b 00       		.ascii	"\000"
 421 006c 00       		.ascii	"\000"
 422 006d 00000000 		.ascii	"\000\000\000\000\000\000\000\000"
 422      00000000 
 423 0075 BB000000 		.ascii	"\273\000\000\000"
 424 0079 4853594E 		.ascii	"HSYNC_WritePeriod\000"
 424      435F5772 
 424      69746550 
 424      6572696F 
 424      6400
 425 008b 00       		.ascii	"\000"
 426 008c 00       		.ascii	"\000"
 427 008d 00       		.ascii	"\000"
 428 008e 00000000 		.ascii	"\000\000\000\000\000\000\000\000"
 428      00000000 
 429 0096 BD000000 		.ascii	"\275\000\000\000"
 430 009a 4853594E 		.ascii	"HSYNC_WriteCompare\000"
 430      435F5772 
 430      69746543 
 430      6F6D7061 
 430      726500
 431 00ad 00       		.ascii	"\000"
 432 00ae 00       		.ascii	"\000"
 433 00af 00       		.ascii	"\000"
 434 00b0 00000000 		.ascii	"\000\000\000\000\000\000\000\000"
 434      00000000 
 435 00b8 BF000000 		.ascii	"\277\000\000\000"
 436 00bc 4853594E 		.ascii	"HSYNC_Init\000"
 436      435F496E 
 436      697400
 437 00c7 00       		.ascii	"\000"
 438 00c8 00       		.ascii	"\000"
 439 00c9 00       		.ascii	"\000"
 440 00ca 00000000 		.ascii	"\000\000\000\000\000\000\000\000"
 440      00000000 
 441 00d2 C1000000 		.ascii	"\301\000\000\000"
 442 00d6 4853594E 		.ascii	"HSYNC_Start\000"
 442      435F5374 
 442      61727400 
 443 00e2 00       		.ascii	"\000"
ARM GAS  C:\Users\info\AppData\Local\Temp\cclbiKcc.s 			page 31


 444 00e3 00       		.ascii	"\000"
 445 00e4 00       		.ascii	"\000"
 446 00e5 00000000 		.ascii	"\000\000\000\000\000\000\000\000"
 446      00000000 
 447 00ed C3000000 		.ascii	"\303\000\000\000"
 448 00f1 4853594E 		.ascii	"HSYNC_initVar\000"
 448      435F696E 
 448      69745661 
 448      7200
 449 00ff 00       		.ascii	"\000"
 450 0100 00       		.ascii	"\000"
 451 0101 00       		.ascii	"\000"
 452 0102 00000000 		.ascii	"\000\000\000\000\000\000\000\000"
 452      00000000 
 453 010a D0000000 		.ascii	"\320\000\000\000"
 454 010e 4853594E 		.ascii	"HSYNC_ReadControlRegister\000"
 454      435F5265 
 454      6164436F 
 454      6E74726F 
 454      6C526567 
 455 0128 00       		.ascii	"\000"
 456 0129 00       		.ascii	"\000"
 457 012a 00       		.ascii	"\000"
 458 012b 00000000 		.ascii	"\000\000\000\000\000\000\000\000"
 458      00000000 
 459 0133 C5000000 		.ascii	"\305\000\000\000"
 460 0137 4853594E 		.ascii	"HSYNC_WriteControlRegister\000"
 460      435F5772 
 460      69746543 
 460      6F6E7472 
 460      6F6C5265 
 461 0152 00       		.ascii	"\000"
 462 0153 00       		.ascii	"\000"
 463 0154 00       		.ascii	"\000"
 464 0155 00000000 		.ascii	"\000\000\000\000\000\000\000\000"
 464      00000000 
 465 015d C7000000 		.ascii	"\307\000\000\000"
 466 0161 4853594E 		.ascii	"HSYNC_ReadCapture\000"
 466      435F5265 
 466      61644361 
 466      70747572 
 466      6500
 467 0173 00       		.ascii	"\000"
 468 0174 00       		.ascii	"\000"
 469 0175 00       		.ascii	"\000"
 470 0176 00000000 		.ascii	"\000\000\000\000\000\000\000\000"
 470      00000000 
 471 017e C9000000 		.ascii	"\311\000\000\000"
 472 0182 4853594E 		.ascii	"HSYNC_ReadCompare\000"
 472      435F5265 
 472      6164436F 
 472      6D706172 
 472      6500
 473 0194 00       		.ascii	"\000"
 474 0195 00       		.ascii	"\000"
 475 0196 00       		.ascii	"\000"
 476 0197 00000000 		.ascii	"\000\000\000\000\000\000\000\000"
ARM GAS  C:\Users\info\AppData\Local\Temp\cclbiKcc.s 			page 32


 476      00000000 
 477 019f CB000000 		.ascii	"\313\000\000\000"
 478 01a3 4853594E 		.ascii	"HSYNC_ReadPeriod\000"
 478      435F5265 
 478      61645065 
 478      72696F64 
 478      00
 479 01b4 00       		.ascii	"\000"
 480 01b5 00       		.ascii	"\000"
 481 01b6 00       		.ascii	"\000"
 482 01b7 00000000 		.ascii	"\000\000\000\000\000\000\000\000"
 482      00000000 
 483 01bf CD000000 		.ascii	"\315\000\000\000"
 484              		.text
 485              		.section	.gnu.lto_.opts,"",%progbits
 486 0000 272D666D 		.ascii	"'-fmath-errno' '-fsigned-zeros' '-ftrapping-math' '"
 486      6174682D 
 486      6572726E 
 486      6F272027 
 486      2D667369 
 487 0033 2D666E6F 		.ascii	"-fno-trapv' '-fno-strict-overflow' '-fno-openmp' '-"
 487      2D747261 
 487      70762720 
 487      272D666E 
 487      6F2D7374 
 488 0066 666E6F2D 		.ascii	"fno-openacc' '-mcpu=cortex-m3' '-mthumb' '-g' '-Og'"
 488      6F70656E 
 488      61636327 
 488      20272D6D 
 488      6370753D 
 489 0099 20272D66 		.ascii	" '-ffunction-sections' '-ffat-lto-objects' '-flto'\000"
 489      66756E63 
 489      74696F6E 
 489      2D736563 
 489      74696F6E 
 490              		.text
 491              		.cfi_sections	.debug_frame
 492              		.section	.text.HSYNC_Enable,"ax",%progbits
 493              		.align	2
 494              		.global	HSYNC_Enable
 495              		.thumb
 496              		.thumb_func
 497              		.type	HSYNC_Enable, %function
 498              	HSYNC_Enable:
 499              	.LFB2:
 500              		.file 1 "Generated_Source\\PSoC5\\HSYNC.c"
   1:Generated_Source\PSoC5/HSYNC.c **** /*******************************************************************************
   2:Generated_Source\PSoC5/HSYNC.c **** * File Name: HSYNC.c
   3:Generated_Source\PSoC5/HSYNC.c **** * Version 3.30
   4:Generated_Source\PSoC5/HSYNC.c **** *
   5:Generated_Source\PSoC5/HSYNC.c **** * Description:
   6:Generated_Source\PSoC5/HSYNC.c **** *  The PWM User Module consist of an 8 or 16-bit counter with two 8 or 16-bit
   7:Generated_Source\PSoC5/HSYNC.c **** *  comparitors. Each instance of this user module is capable of generating
   8:Generated_Source\PSoC5/HSYNC.c **** *  two PWM outputs with the same period. The pulse width is selectable between
   9:Generated_Source\PSoC5/HSYNC.c **** *  1 and 255/65535. The period is selectable between 2 and 255/65536 clocks.
  10:Generated_Source\PSoC5/HSYNC.c **** *  The compare value output may be configured to be active when the present
  11:Generated_Source\PSoC5/HSYNC.c **** *  counter is less than or less than/equal to the compare value.
ARM GAS  C:\Users\info\AppData\Local\Temp\cclbiKcc.s 			page 33


  12:Generated_Source\PSoC5/HSYNC.c **** *  A terminal count output is also provided. It generates a pulse one clock
  13:Generated_Source\PSoC5/HSYNC.c **** *  width wide when the counter is equal to zero.
  14:Generated_Source\PSoC5/HSYNC.c **** *
  15:Generated_Source\PSoC5/HSYNC.c **** * Note:
  16:Generated_Source\PSoC5/HSYNC.c **** *
  17:Generated_Source\PSoC5/HSYNC.c **** *******************************************************************************
  18:Generated_Source\PSoC5/HSYNC.c **** * Copyright 2008-2014, Cypress Semiconductor Corporation.  All rights reserved.
  19:Generated_Source\PSoC5/HSYNC.c **** * You may use this file only in accordance with the license, terms, conditions,
  20:Generated_Source\PSoC5/HSYNC.c **** * disclaimers, and limitations in the end user license agreement accompanying
  21:Generated_Source\PSoC5/HSYNC.c **** * the software package with which this file was provided.
  22:Generated_Source\PSoC5/HSYNC.c **** ********************************************************************************/
  23:Generated_Source\PSoC5/HSYNC.c **** 
  24:Generated_Source\PSoC5/HSYNC.c **** #include "HSYNC.h"
  25:Generated_Source\PSoC5/HSYNC.c **** 
  26:Generated_Source\PSoC5/HSYNC.c **** /* Error message for removed <resource> through optimization */
  27:Generated_Source\PSoC5/HSYNC.c **** #ifdef HSYNC_PWMUDB_genblk1_ctrlreg__REMOVED
  28:Generated_Source\PSoC5/HSYNC.c ****     #error PWM_v3_30 detected with a constant 0 for the enable or \
  29:Generated_Source\PSoC5/HSYNC.c ****          constant 1 for reset. This will prevent the component from operating.
  30:Generated_Source\PSoC5/HSYNC.c **** #endif /* HSYNC_PWMUDB_genblk1_ctrlreg__REMOVED */
  31:Generated_Source\PSoC5/HSYNC.c **** 
  32:Generated_Source\PSoC5/HSYNC.c **** uint8 HSYNC_initVar = 0u;
  33:Generated_Source\PSoC5/HSYNC.c **** 
  34:Generated_Source\PSoC5/HSYNC.c **** 
  35:Generated_Source\PSoC5/HSYNC.c **** /*******************************************************************************
  36:Generated_Source\PSoC5/HSYNC.c **** * Function Name: HSYNC_Start
  37:Generated_Source\PSoC5/HSYNC.c **** ********************************************************************************
  38:Generated_Source\PSoC5/HSYNC.c **** *
  39:Generated_Source\PSoC5/HSYNC.c **** * Summary:
  40:Generated_Source\PSoC5/HSYNC.c **** *  The start function initializes the pwm with the default values, the
  41:Generated_Source\PSoC5/HSYNC.c **** *  enables the counter to begin counting.  It does not enable interrupts,
  42:Generated_Source\PSoC5/HSYNC.c **** *  the EnableInt command should be called if interrupt generation is required.
  43:Generated_Source\PSoC5/HSYNC.c **** *
  44:Generated_Source\PSoC5/HSYNC.c **** * Parameters:
  45:Generated_Source\PSoC5/HSYNC.c **** *  None
  46:Generated_Source\PSoC5/HSYNC.c **** *
  47:Generated_Source\PSoC5/HSYNC.c **** * Return:
  48:Generated_Source\PSoC5/HSYNC.c **** *  None
  49:Generated_Source\PSoC5/HSYNC.c **** *
  50:Generated_Source\PSoC5/HSYNC.c **** * Global variables:
  51:Generated_Source\PSoC5/HSYNC.c **** *  HSYNC_initVar: Is modified when this function is called for the
  52:Generated_Source\PSoC5/HSYNC.c **** *   first time. Is used to ensure that initialization happens only once.
  53:Generated_Source\PSoC5/HSYNC.c **** *
  54:Generated_Source\PSoC5/HSYNC.c **** *******************************************************************************/
  55:Generated_Source\PSoC5/HSYNC.c **** void HSYNC_Start(void) 
  56:Generated_Source\PSoC5/HSYNC.c **** {
  57:Generated_Source\PSoC5/HSYNC.c ****     /* If not Initialized then initialize all required hardware and software */
  58:Generated_Source\PSoC5/HSYNC.c ****     if(HSYNC_initVar == 0u)
  59:Generated_Source\PSoC5/HSYNC.c ****     {
  60:Generated_Source\PSoC5/HSYNC.c ****         HSYNC_Init();
  61:Generated_Source\PSoC5/HSYNC.c ****         HSYNC_initVar = 1u;
  62:Generated_Source\PSoC5/HSYNC.c ****     }
  63:Generated_Source\PSoC5/HSYNC.c ****     HSYNC_Enable();
  64:Generated_Source\PSoC5/HSYNC.c **** 
  65:Generated_Source\PSoC5/HSYNC.c **** }
  66:Generated_Source\PSoC5/HSYNC.c **** 
  67:Generated_Source\PSoC5/HSYNC.c **** 
  68:Generated_Source\PSoC5/HSYNC.c **** /*******************************************************************************
ARM GAS  C:\Users\info\AppData\Local\Temp\cclbiKcc.s 			page 34


  69:Generated_Source\PSoC5/HSYNC.c **** * Function Name: HSYNC_Init
  70:Generated_Source\PSoC5/HSYNC.c **** ********************************************************************************
  71:Generated_Source\PSoC5/HSYNC.c **** *
  72:Generated_Source\PSoC5/HSYNC.c **** * Summary:
  73:Generated_Source\PSoC5/HSYNC.c **** *  Initialize component's parameters to the parameters set by user in the
  74:Generated_Source\PSoC5/HSYNC.c **** *  customizer of the component placed onto schematic. Usually called in
  75:Generated_Source\PSoC5/HSYNC.c **** *  HSYNC_Start().
  76:Generated_Source\PSoC5/HSYNC.c **** *
  77:Generated_Source\PSoC5/HSYNC.c **** * Parameters:
  78:Generated_Source\PSoC5/HSYNC.c **** *  None
  79:Generated_Source\PSoC5/HSYNC.c **** *
  80:Generated_Source\PSoC5/HSYNC.c **** * Return:
  81:Generated_Source\PSoC5/HSYNC.c **** *  None
  82:Generated_Source\PSoC5/HSYNC.c **** *
  83:Generated_Source\PSoC5/HSYNC.c **** *******************************************************************************/
  84:Generated_Source\PSoC5/HSYNC.c **** void HSYNC_Init(void) 
  85:Generated_Source\PSoC5/HSYNC.c **** {
  86:Generated_Source\PSoC5/HSYNC.c ****     #if (HSYNC_UsingFixedFunction || HSYNC_UseControl)
  87:Generated_Source\PSoC5/HSYNC.c ****         uint8 ctrl;
  88:Generated_Source\PSoC5/HSYNC.c ****     #endif /* (HSYNC_UsingFixedFunction || HSYNC_UseControl) */
  89:Generated_Source\PSoC5/HSYNC.c **** 
  90:Generated_Source\PSoC5/HSYNC.c ****     #if(!HSYNC_UsingFixedFunction)
  91:Generated_Source\PSoC5/HSYNC.c ****         #if(HSYNC_UseStatus)
  92:Generated_Source\PSoC5/HSYNC.c ****             /* Interrupt State Backup for Critical Region*/
  93:Generated_Source\PSoC5/HSYNC.c ****             uint8 HSYNC_interruptState;
  94:Generated_Source\PSoC5/HSYNC.c ****         #endif /* (HSYNC_UseStatus) */
  95:Generated_Source\PSoC5/HSYNC.c ****     #endif /* (!HSYNC_UsingFixedFunction) */
  96:Generated_Source\PSoC5/HSYNC.c **** 
  97:Generated_Source\PSoC5/HSYNC.c ****     #if (HSYNC_UsingFixedFunction)
  98:Generated_Source\PSoC5/HSYNC.c ****         /* You are allowed to write the compare value (FF only) */
  99:Generated_Source\PSoC5/HSYNC.c ****         HSYNC_CONTROL |= HSYNC_CFG0_MODE;
 100:Generated_Source\PSoC5/HSYNC.c ****         #if (HSYNC_DeadBand2_4)
 101:Generated_Source\PSoC5/HSYNC.c ****             HSYNC_CONTROL |= HSYNC_CFG0_DB;
 102:Generated_Source\PSoC5/HSYNC.c ****         #endif /* (HSYNC_DeadBand2_4) */
 103:Generated_Source\PSoC5/HSYNC.c **** 
 104:Generated_Source\PSoC5/HSYNC.c ****         ctrl = HSYNC_CONTROL3 & ((uint8 )(~HSYNC_CTRL_CMPMODE1_MASK));
 105:Generated_Source\PSoC5/HSYNC.c ****         HSYNC_CONTROL3 = ctrl | HSYNC_DEFAULT_COMPARE1_MODE;
 106:Generated_Source\PSoC5/HSYNC.c **** 
 107:Generated_Source\PSoC5/HSYNC.c ****          /* Clear and Set SYNCTC and SYNCCMP bits of RT1 register */
 108:Generated_Source\PSoC5/HSYNC.c ****         HSYNC_RT1 &= ((uint8)(~HSYNC_RT1_MASK));
 109:Generated_Source\PSoC5/HSYNC.c ****         HSYNC_RT1 |= HSYNC_SYNC;
 110:Generated_Source\PSoC5/HSYNC.c **** 
 111:Generated_Source\PSoC5/HSYNC.c ****         /*Enable DSI Sync all all inputs of the PWM*/
 112:Generated_Source\PSoC5/HSYNC.c ****         HSYNC_RT1 &= ((uint8)(~HSYNC_SYNCDSI_MASK));
 113:Generated_Source\PSoC5/HSYNC.c ****         HSYNC_RT1 |= HSYNC_SYNCDSI_EN;
 114:Generated_Source\PSoC5/HSYNC.c **** 
 115:Generated_Source\PSoC5/HSYNC.c ****     #elif (HSYNC_UseControl)
 116:Generated_Source\PSoC5/HSYNC.c ****         /* Set the default compare mode defined in the parameter */
 117:Generated_Source\PSoC5/HSYNC.c ****         ctrl = HSYNC_CONTROL & ((uint8)(~HSYNC_CTRL_CMPMODE2_MASK)) &
 118:Generated_Source\PSoC5/HSYNC.c ****                 ((uint8)(~HSYNC_CTRL_CMPMODE1_MASK));
 119:Generated_Source\PSoC5/HSYNC.c ****         HSYNC_CONTROL = ctrl | HSYNC_DEFAULT_COMPARE2_MODE |
 120:Generated_Source\PSoC5/HSYNC.c ****                                    HSYNC_DEFAULT_COMPARE1_MODE;
 121:Generated_Source\PSoC5/HSYNC.c ****     #endif /* (HSYNC_UsingFixedFunction) */
 122:Generated_Source\PSoC5/HSYNC.c **** 
 123:Generated_Source\PSoC5/HSYNC.c ****     #if (!HSYNC_UsingFixedFunction)
 124:Generated_Source\PSoC5/HSYNC.c ****         #if (HSYNC_Resolution == 8)
 125:Generated_Source\PSoC5/HSYNC.c ****             /* Set FIFO 0 to 1 byte register for period*/
ARM GAS  C:\Users\info\AppData\Local\Temp\cclbiKcc.s 			page 35


 126:Generated_Source\PSoC5/HSYNC.c ****             HSYNC_AUX_CONTROLDP0 |= (HSYNC_AUX_CTRL_FIFO0_CLR);
 127:Generated_Source\PSoC5/HSYNC.c ****         #else /* (HSYNC_Resolution == 16)*/
 128:Generated_Source\PSoC5/HSYNC.c ****             /* Set FIFO 0 to 1 byte register for period */
 129:Generated_Source\PSoC5/HSYNC.c ****             HSYNC_AUX_CONTROLDP0 |= (HSYNC_AUX_CTRL_FIFO0_CLR);
 130:Generated_Source\PSoC5/HSYNC.c ****             HSYNC_AUX_CONTROLDP1 |= (HSYNC_AUX_CTRL_FIFO0_CLR);
 131:Generated_Source\PSoC5/HSYNC.c ****         #endif /* (HSYNC_Resolution == 8) */
 132:Generated_Source\PSoC5/HSYNC.c **** 
 133:Generated_Source\PSoC5/HSYNC.c ****         HSYNC_WriteCounter(HSYNC_INIT_PERIOD_VALUE);
 134:Generated_Source\PSoC5/HSYNC.c ****     #endif /* (!HSYNC_UsingFixedFunction) */
 135:Generated_Source\PSoC5/HSYNC.c **** 
 136:Generated_Source\PSoC5/HSYNC.c ****     HSYNC_WritePeriod(HSYNC_INIT_PERIOD_VALUE);
 137:Generated_Source\PSoC5/HSYNC.c **** 
 138:Generated_Source\PSoC5/HSYNC.c ****         #if (HSYNC_UseOneCompareMode)
 139:Generated_Source\PSoC5/HSYNC.c ****             HSYNC_WriteCompare(HSYNC_INIT_COMPARE_VALUE1);
 140:Generated_Source\PSoC5/HSYNC.c ****         #else
 141:Generated_Source\PSoC5/HSYNC.c ****             HSYNC_WriteCompare1(HSYNC_INIT_COMPARE_VALUE1);
 142:Generated_Source\PSoC5/HSYNC.c ****             HSYNC_WriteCompare2(HSYNC_INIT_COMPARE_VALUE2);
 143:Generated_Source\PSoC5/HSYNC.c ****         #endif /* (HSYNC_UseOneCompareMode) */
 144:Generated_Source\PSoC5/HSYNC.c **** 
 145:Generated_Source\PSoC5/HSYNC.c ****         #if (HSYNC_KillModeMinTime)
 146:Generated_Source\PSoC5/HSYNC.c ****             HSYNC_WriteKillTime(HSYNC_MinimumKillTime);
 147:Generated_Source\PSoC5/HSYNC.c ****         #endif /* (HSYNC_KillModeMinTime) */
 148:Generated_Source\PSoC5/HSYNC.c **** 
 149:Generated_Source\PSoC5/HSYNC.c ****         #if (HSYNC_DeadBandUsed)
 150:Generated_Source\PSoC5/HSYNC.c ****             HSYNC_WriteDeadTime(HSYNC_INIT_DEAD_TIME);
 151:Generated_Source\PSoC5/HSYNC.c ****         #endif /* (HSYNC_DeadBandUsed) */
 152:Generated_Source\PSoC5/HSYNC.c **** 
 153:Generated_Source\PSoC5/HSYNC.c ****     #if (HSYNC_UseStatus || HSYNC_UsingFixedFunction)
 154:Generated_Source\PSoC5/HSYNC.c ****         HSYNC_SetInterruptMode(HSYNC_INIT_INTERRUPTS_MODE);
 155:Generated_Source\PSoC5/HSYNC.c ****     #endif /* (HSYNC_UseStatus || HSYNC_UsingFixedFunction) */
 156:Generated_Source\PSoC5/HSYNC.c **** 
 157:Generated_Source\PSoC5/HSYNC.c ****     #if (HSYNC_UsingFixedFunction)
 158:Generated_Source\PSoC5/HSYNC.c ****         /* Globally Enable the Fixed Function Block chosen */
 159:Generated_Source\PSoC5/HSYNC.c ****         HSYNC_GLOBAL_ENABLE |= HSYNC_BLOCK_EN_MASK;
 160:Generated_Source\PSoC5/HSYNC.c ****         /* Set the Interrupt source to come from the status register */
 161:Generated_Source\PSoC5/HSYNC.c ****         HSYNC_CONTROL2 |= HSYNC_CTRL2_IRQ_SEL;
 162:Generated_Source\PSoC5/HSYNC.c ****     #else
 163:Generated_Source\PSoC5/HSYNC.c ****         #if(HSYNC_UseStatus)
 164:Generated_Source\PSoC5/HSYNC.c **** 
 165:Generated_Source\PSoC5/HSYNC.c ****             /* CyEnterCriticalRegion and CyExitCriticalRegion are used to mark following region cri
 166:Generated_Source\PSoC5/HSYNC.c ****             /* Enter Critical Region*/
 167:Generated_Source\PSoC5/HSYNC.c ****             HSYNC_interruptState = CyEnterCriticalSection();
 168:Generated_Source\PSoC5/HSYNC.c ****             /* Use the interrupt output of the status register for IRQ output */
 169:Generated_Source\PSoC5/HSYNC.c ****             HSYNC_STATUS_AUX_CTRL |= HSYNC_STATUS_ACTL_INT_EN_MASK;
 170:Generated_Source\PSoC5/HSYNC.c **** 
 171:Generated_Source\PSoC5/HSYNC.c ****              /* Exit Critical Region*/
 172:Generated_Source\PSoC5/HSYNC.c ****             CyExitCriticalSection(HSYNC_interruptState);
 173:Generated_Source\PSoC5/HSYNC.c **** 
 174:Generated_Source\PSoC5/HSYNC.c ****             /* Clear the FIFO to enable the HSYNC_STATUS_FIFOFULL
 175:Generated_Source\PSoC5/HSYNC.c ****                    bit to be set on FIFO full. */
 176:Generated_Source\PSoC5/HSYNC.c ****             HSYNC_ClearFIFO();
 177:Generated_Source\PSoC5/HSYNC.c ****         #endif /* (HSYNC_UseStatus) */
 178:Generated_Source\PSoC5/HSYNC.c ****     #endif /* (HSYNC_UsingFixedFunction) */
 179:Generated_Source\PSoC5/HSYNC.c **** }
 180:Generated_Source\PSoC5/HSYNC.c **** 
 181:Generated_Source\PSoC5/HSYNC.c **** 
 182:Generated_Source\PSoC5/HSYNC.c **** /*******************************************************************************
ARM GAS  C:\Users\info\AppData\Local\Temp\cclbiKcc.s 			page 36


 183:Generated_Source\PSoC5/HSYNC.c **** * Function Name: HSYNC_Enable
 184:Generated_Source\PSoC5/HSYNC.c **** ********************************************************************************
 185:Generated_Source\PSoC5/HSYNC.c **** *
 186:Generated_Source\PSoC5/HSYNC.c **** * Summary:
 187:Generated_Source\PSoC5/HSYNC.c **** *  Enables the PWM block operation
 188:Generated_Source\PSoC5/HSYNC.c **** *
 189:Generated_Source\PSoC5/HSYNC.c **** * Parameters:
 190:Generated_Source\PSoC5/HSYNC.c **** *  None
 191:Generated_Source\PSoC5/HSYNC.c **** *
 192:Generated_Source\PSoC5/HSYNC.c **** * Return:
 193:Generated_Source\PSoC5/HSYNC.c **** *  None
 194:Generated_Source\PSoC5/HSYNC.c **** *
 195:Generated_Source\PSoC5/HSYNC.c **** * Side Effects:
 196:Generated_Source\PSoC5/HSYNC.c **** *  This works only if software enable mode is chosen
 197:Generated_Source\PSoC5/HSYNC.c **** *
 198:Generated_Source\PSoC5/HSYNC.c **** *******************************************************************************/
 199:Generated_Source\PSoC5/HSYNC.c **** void HSYNC_Enable(void) 
 200:Generated_Source\PSoC5/HSYNC.c **** {
 501              		.loc 1 200 0
 502              		.cfi_startproc
 503              		@ args = 0, pretend = 0, frame = 0
 504              		@ frame_needed = 0, uses_anonymous_args = 0
 505              		@ link register save eliminated.
 201:Generated_Source\PSoC5/HSYNC.c ****     /* Globally Enable the Fixed Function Block chosen */
 202:Generated_Source\PSoC5/HSYNC.c ****     #if (HSYNC_UsingFixedFunction)
 203:Generated_Source\PSoC5/HSYNC.c ****         HSYNC_GLOBAL_ENABLE |= HSYNC_BLOCK_EN_MASK;
 204:Generated_Source\PSoC5/HSYNC.c ****         HSYNC_GLOBAL_STBY_ENABLE |= HSYNC_BLOCK_STBY_EN_MASK;
 205:Generated_Source\PSoC5/HSYNC.c ****     #endif /* (HSYNC_UsingFixedFunction) */
 206:Generated_Source\PSoC5/HSYNC.c **** 
 207:Generated_Source\PSoC5/HSYNC.c ****     /* Enable the PWM from the control register  */
 208:Generated_Source\PSoC5/HSYNC.c ****     #if (HSYNC_UseControl || HSYNC_UsingFixedFunction)
 209:Generated_Source\PSoC5/HSYNC.c ****         HSYNC_CONTROL |= HSYNC_CTRL_ENABLE;
 506              		.loc 1 209 0
 507 0000 024A     		ldr	r2, .L2
 508 0002 1378     		ldrb	r3, [r2]	@ zero_extendqisi2
 509 0004 43F08003 		orr	r3, r3, #128
 510 0008 1370     		strb	r3, [r2]
 511 000a 7047     		bx	lr
 512              	.L3:
 513              		.align	2
 514              	.L2:
 515 000c 7C640040 		.word	1073767548
 516              		.cfi_endproc
 517              	.LFE2:
 518              		.size	HSYNC_Enable, .-HSYNC_Enable
 519              		.section	.text.HSYNC_Stop,"ax",%progbits
 520              		.align	2
 521              		.global	HSYNC_Stop
 522              		.thumb
 523              		.thumb_func
 524              		.type	HSYNC_Stop, %function
 525              	HSYNC_Stop:
 526              	.LFB3:
 210:Generated_Source\PSoC5/HSYNC.c ****     #endif /* (HSYNC_UseControl || HSYNC_UsingFixedFunction) */
 211:Generated_Source\PSoC5/HSYNC.c **** }
 212:Generated_Source\PSoC5/HSYNC.c **** 
 213:Generated_Source\PSoC5/HSYNC.c **** 
ARM GAS  C:\Users\info\AppData\Local\Temp\cclbiKcc.s 			page 37


 214:Generated_Source\PSoC5/HSYNC.c **** /*******************************************************************************
 215:Generated_Source\PSoC5/HSYNC.c **** * Function Name: HSYNC_Stop
 216:Generated_Source\PSoC5/HSYNC.c **** ********************************************************************************
 217:Generated_Source\PSoC5/HSYNC.c **** *
 218:Generated_Source\PSoC5/HSYNC.c **** * Summary:
 219:Generated_Source\PSoC5/HSYNC.c **** *  The stop function halts the PWM, but does not change any modes or disable
 220:Generated_Source\PSoC5/HSYNC.c **** *  interrupts.
 221:Generated_Source\PSoC5/HSYNC.c **** *
 222:Generated_Source\PSoC5/HSYNC.c **** * Parameters:
 223:Generated_Source\PSoC5/HSYNC.c **** *  None
 224:Generated_Source\PSoC5/HSYNC.c **** *
 225:Generated_Source\PSoC5/HSYNC.c **** * Return:
 226:Generated_Source\PSoC5/HSYNC.c **** *  None
 227:Generated_Source\PSoC5/HSYNC.c **** *
 228:Generated_Source\PSoC5/HSYNC.c **** * Side Effects:
 229:Generated_Source\PSoC5/HSYNC.c **** *  If the Enable mode is set to Hardware only then this function
 230:Generated_Source\PSoC5/HSYNC.c **** *  has no effect on the operation of the PWM
 231:Generated_Source\PSoC5/HSYNC.c **** *
 232:Generated_Source\PSoC5/HSYNC.c **** *******************************************************************************/
 233:Generated_Source\PSoC5/HSYNC.c **** void HSYNC_Stop(void) 
 234:Generated_Source\PSoC5/HSYNC.c **** {
 527              		.loc 1 234 0
 528              		.cfi_startproc
 529              		@ args = 0, pretend = 0, frame = 0
 530              		@ frame_needed = 0, uses_anonymous_args = 0
 531              		@ link register save eliminated.
 235:Generated_Source\PSoC5/HSYNC.c ****     #if (HSYNC_UseControl || HSYNC_UsingFixedFunction)
 236:Generated_Source\PSoC5/HSYNC.c ****         HSYNC_CONTROL &= ((uint8)(~HSYNC_CTRL_ENABLE));
 532              		.loc 1 236 0
 533 0000 024A     		ldr	r2, .L5
 534 0002 1378     		ldrb	r3, [r2]	@ zero_extendqisi2
 535 0004 03F07F03 		and	r3, r3, #127
 536 0008 1370     		strb	r3, [r2]
 537 000a 7047     		bx	lr
 538              	.L6:
 539              		.align	2
 540              	.L5:
 541 000c 7C640040 		.word	1073767548
 542              		.cfi_endproc
 543              	.LFE3:
 544              		.size	HSYNC_Stop, .-HSYNC_Stop
 545              		.section	.text.HSYNC_WriteCounter,"ax",%progbits
 546              		.align	2
 547              		.global	HSYNC_WriteCounter
 548              		.thumb
 549              		.thumb_func
 550              		.type	HSYNC_WriteCounter, %function
 551              	HSYNC_WriteCounter:
 552              	.LFB4:
 237:Generated_Source\PSoC5/HSYNC.c ****     #endif /* (HSYNC_UseControl || HSYNC_UsingFixedFunction) */
 238:Generated_Source\PSoC5/HSYNC.c **** 
 239:Generated_Source\PSoC5/HSYNC.c ****     /* Globally disable the Fixed Function Block chosen */
 240:Generated_Source\PSoC5/HSYNC.c ****     #if (HSYNC_UsingFixedFunction)
 241:Generated_Source\PSoC5/HSYNC.c ****         HSYNC_GLOBAL_ENABLE &= ((uint8)(~HSYNC_BLOCK_EN_MASK));
 242:Generated_Source\PSoC5/HSYNC.c ****         HSYNC_GLOBAL_STBY_ENABLE &= ((uint8)(~HSYNC_BLOCK_STBY_EN_MASK));
 243:Generated_Source\PSoC5/HSYNC.c ****     #endif /* (HSYNC_UsingFixedFunction) */
 244:Generated_Source\PSoC5/HSYNC.c **** }
ARM GAS  C:\Users\info\AppData\Local\Temp\cclbiKcc.s 			page 38


 245:Generated_Source\PSoC5/HSYNC.c **** 
 246:Generated_Source\PSoC5/HSYNC.c **** #if (HSYNC_UseOneCompareMode)
 247:Generated_Source\PSoC5/HSYNC.c ****     #if (HSYNC_CompareMode1SW)
 248:Generated_Source\PSoC5/HSYNC.c **** 
 249:Generated_Source\PSoC5/HSYNC.c **** 
 250:Generated_Source\PSoC5/HSYNC.c ****         /*******************************************************************************
 251:Generated_Source\PSoC5/HSYNC.c ****         * Function Name: HSYNC_SetCompareMode
 252:Generated_Source\PSoC5/HSYNC.c ****         ********************************************************************************
 253:Generated_Source\PSoC5/HSYNC.c ****         *
 254:Generated_Source\PSoC5/HSYNC.c ****         * Summary:
 255:Generated_Source\PSoC5/HSYNC.c ****         *  This function writes the Compare Mode for the pwm output when in Dither mode,
 256:Generated_Source\PSoC5/HSYNC.c ****         *  Center Align Mode or One Output Mode.
 257:Generated_Source\PSoC5/HSYNC.c ****         *
 258:Generated_Source\PSoC5/HSYNC.c ****         * Parameters:
 259:Generated_Source\PSoC5/HSYNC.c ****         *  comparemode:  The new compare mode for the PWM output. Use the compare types
 260:Generated_Source\PSoC5/HSYNC.c ****         *                defined in the H file as input arguments.
 261:Generated_Source\PSoC5/HSYNC.c ****         *
 262:Generated_Source\PSoC5/HSYNC.c ****         * Return:
 263:Generated_Source\PSoC5/HSYNC.c ****         *  None
 264:Generated_Source\PSoC5/HSYNC.c ****         *
 265:Generated_Source\PSoC5/HSYNC.c ****         *******************************************************************************/
 266:Generated_Source\PSoC5/HSYNC.c ****         void HSYNC_SetCompareMode(uint8 comparemode) 
 267:Generated_Source\PSoC5/HSYNC.c ****         {
 268:Generated_Source\PSoC5/HSYNC.c ****             #if(HSYNC_UsingFixedFunction)
 269:Generated_Source\PSoC5/HSYNC.c **** 
 270:Generated_Source\PSoC5/HSYNC.c ****                 #if(0 != HSYNC_CTRL_CMPMODE1_SHIFT)
 271:Generated_Source\PSoC5/HSYNC.c ****                     uint8 comparemodemasked = ((uint8)((uint8)comparemode << HSYNC_CTRL_CMPMODE1_SH
 272:Generated_Source\PSoC5/HSYNC.c ****                 #else
 273:Generated_Source\PSoC5/HSYNC.c ****                     uint8 comparemodemasked = comparemode;
 274:Generated_Source\PSoC5/HSYNC.c ****                 #endif /* (0 != HSYNC_CTRL_CMPMODE1_SHIFT) */
 275:Generated_Source\PSoC5/HSYNC.c **** 
 276:Generated_Source\PSoC5/HSYNC.c ****                 HSYNC_CONTROL3 &= ((uint8)(~HSYNC_CTRL_CMPMODE1_MASK)); /*Clear Existing Data */
 277:Generated_Source\PSoC5/HSYNC.c ****                 HSYNC_CONTROL3 |= comparemodemasked;
 278:Generated_Source\PSoC5/HSYNC.c **** 
 279:Generated_Source\PSoC5/HSYNC.c ****             #elif (HSYNC_UseControl)
 280:Generated_Source\PSoC5/HSYNC.c **** 
 281:Generated_Source\PSoC5/HSYNC.c ****                 #if(0 != HSYNC_CTRL_CMPMODE1_SHIFT)
 282:Generated_Source\PSoC5/HSYNC.c ****                     uint8 comparemode1masked = ((uint8)((uint8)comparemode << HSYNC_CTRL_CMPMODE1_S
 283:Generated_Source\PSoC5/HSYNC.c ****                                                 HSYNC_CTRL_CMPMODE1_MASK;
 284:Generated_Source\PSoC5/HSYNC.c ****                 #else
 285:Generated_Source\PSoC5/HSYNC.c ****                     uint8 comparemode1masked = comparemode & HSYNC_CTRL_CMPMODE1_MASK;
 286:Generated_Source\PSoC5/HSYNC.c ****                 #endif /* (0 != HSYNC_CTRL_CMPMODE1_SHIFT) */
 287:Generated_Source\PSoC5/HSYNC.c **** 
 288:Generated_Source\PSoC5/HSYNC.c ****                 #if(0 != HSYNC_CTRL_CMPMODE2_SHIFT)
 289:Generated_Source\PSoC5/HSYNC.c ****                     uint8 comparemode2masked = ((uint8)((uint8)comparemode << HSYNC_CTRL_CMPMODE2_S
 290:Generated_Source\PSoC5/HSYNC.c ****                                                HSYNC_CTRL_CMPMODE2_MASK;
 291:Generated_Source\PSoC5/HSYNC.c ****                 #else
 292:Generated_Source\PSoC5/HSYNC.c ****                     uint8 comparemode2masked = comparemode & HSYNC_CTRL_CMPMODE2_MASK;
 293:Generated_Source\PSoC5/HSYNC.c ****                 #endif /* (0 != HSYNC_CTRL_CMPMODE2_SHIFT) */
 294:Generated_Source\PSoC5/HSYNC.c **** 
 295:Generated_Source\PSoC5/HSYNC.c ****                 /*Clear existing mode */
 296:Generated_Source\PSoC5/HSYNC.c ****                 HSYNC_CONTROL &= ((uint8)(~(HSYNC_CTRL_CMPMODE1_MASK |
 297:Generated_Source\PSoC5/HSYNC.c ****                                             HSYNC_CTRL_CMPMODE2_MASK)));
 298:Generated_Source\PSoC5/HSYNC.c ****                 HSYNC_CONTROL |= (comparemode1masked | comparemode2masked);
 299:Generated_Source\PSoC5/HSYNC.c **** 
 300:Generated_Source\PSoC5/HSYNC.c ****             #else
 301:Generated_Source\PSoC5/HSYNC.c ****                 uint8 temp = comparemode;
ARM GAS  C:\Users\info\AppData\Local\Temp\cclbiKcc.s 			page 39


 302:Generated_Source\PSoC5/HSYNC.c ****             #endif /* (HSYNC_UsingFixedFunction) */
 303:Generated_Source\PSoC5/HSYNC.c ****         }
 304:Generated_Source\PSoC5/HSYNC.c ****     #endif /* HSYNC_CompareMode1SW */
 305:Generated_Source\PSoC5/HSYNC.c **** 
 306:Generated_Source\PSoC5/HSYNC.c **** #else /* UseOneCompareMode */
 307:Generated_Source\PSoC5/HSYNC.c **** 
 308:Generated_Source\PSoC5/HSYNC.c ****     #if (HSYNC_CompareMode1SW)
 309:Generated_Source\PSoC5/HSYNC.c **** 
 310:Generated_Source\PSoC5/HSYNC.c **** 
 311:Generated_Source\PSoC5/HSYNC.c ****         /*******************************************************************************
 312:Generated_Source\PSoC5/HSYNC.c ****         * Function Name: HSYNC_SetCompareMode1
 313:Generated_Source\PSoC5/HSYNC.c ****         ********************************************************************************
 314:Generated_Source\PSoC5/HSYNC.c ****         *
 315:Generated_Source\PSoC5/HSYNC.c ****         * Summary:
 316:Generated_Source\PSoC5/HSYNC.c ****         *  This function writes the Compare Mode for the pwm or pwm1 output
 317:Generated_Source\PSoC5/HSYNC.c ****         *
 318:Generated_Source\PSoC5/HSYNC.c ****         * Parameters:
 319:Generated_Source\PSoC5/HSYNC.c ****         *  comparemode:  The new compare mode for the PWM output. Use the compare types
 320:Generated_Source\PSoC5/HSYNC.c ****         *                defined in the H file as input arguments.
 321:Generated_Source\PSoC5/HSYNC.c ****         *
 322:Generated_Source\PSoC5/HSYNC.c ****         * Return:
 323:Generated_Source\PSoC5/HSYNC.c ****         *  None
 324:Generated_Source\PSoC5/HSYNC.c ****         *
 325:Generated_Source\PSoC5/HSYNC.c ****         *******************************************************************************/
 326:Generated_Source\PSoC5/HSYNC.c ****         void HSYNC_SetCompareMode1(uint8 comparemode) 
 327:Generated_Source\PSoC5/HSYNC.c ****         {
 328:Generated_Source\PSoC5/HSYNC.c ****             #if(0 != HSYNC_CTRL_CMPMODE1_SHIFT)
 329:Generated_Source\PSoC5/HSYNC.c ****                 uint8 comparemodemasked = ((uint8)((uint8)comparemode << HSYNC_CTRL_CMPMODE1_SHIFT)
 330:Generated_Source\PSoC5/HSYNC.c ****                                            HSYNC_CTRL_CMPMODE1_MASK;
 331:Generated_Source\PSoC5/HSYNC.c ****             #else
 332:Generated_Source\PSoC5/HSYNC.c ****                 uint8 comparemodemasked = comparemode & HSYNC_CTRL_CMPMODE1_MASK;
 333:Generated_Source\PSoC5/HSYNC.c ****             #endif /* (0 != HSYNC_CTRL_CMPMODE1_SHIFT) */
 334:Generated_Source\PSoC5/HSYNC.c **** 
 335:Generated_Source\PSoC5/HSYNC.c ****             #if (HSYNC_UseControl)
 336:Generated_Source\PSoC5/HSYNC.c ****                 HSYNC_CONTROL &= ((uint8)(~HSYNC_CTRL_CMPMODE1_MASK)); /*Clear existing mode */
 337:Generated_Source\PSoC5/HSYNC.c ****                 HSYNC_CONTROL |= comparemodemasked;
 338:Generated_Source\PSoC5/HSYNC.c ****             #endif /* (HSYNC_UseControl) */
 339:Generated_Source\PSoC5/HSYNC.c ****         }
 340:Generated_Source\PSoC5/HSYNC.c ****     #endif /* HSYNC_CompareMode1SW */
 341:Generated_Source\PSoC5/HSYNC.c **** 
 342:Generated_Source\PSoC5/HSYNC.c **** #if (HSYNC_CompareMode2SW)
 343:Generated_Source\PSoC5/HSYNC.c **** 
 344:Generated_Source\PSoC5/HSYNC.c **** 
 345:Generated_Source\PSoC5/HSYNC.c ****     /*******************************************************************************
 346:Generated_Source\PSoC5/HSYNC.c ****     * Function Name: HSYNC_SetCompareMode2
 347:Generated_Source\PSoC5/HSYNC.c ****     ********************************************************************************
 348:Generated_Source\PSoC5/HSYNC.c ****     *
 349:Generated_Source\PSoC5/HSYNC.c ****     * Summary:
 350:Generated_Source\PSoC5/HSYNC.c ****     *  This function writes the Compare Mode for the pwm or pwm2 output
 351:Generated_Source\PSoC5/HSYNC.c ****     *
 352:Generated_Source\PSoC5/HSYNC.c ****     * Parameters:
 353:Generated_Source\PSoC5/HSYNC.c ****     *  comparemode:  The new compare mode for the PWM output. Use the compare types
 354:Generated_Source\PSoC5/HSYNC.c ****     *                defined in the H file as input arguments.
 355:Generated_Source\PSoC5/HSYNC.c ****     *
 356:Generated_Source\PSoC5/HSYNC.c ****     * Return:
 357:Generated_Source\PSoC5/HSYNC.c ****     *  None
 358:Generated_Source\PSoC5/HSYNC.c ****     *
ARM GAS  C:\Users\info\AppData\Local\Temp\cclbiKcc.s 			page 40


 359:Generated_Source\PSoC5/HSYNC.c ****     *******************************************************************************/
 360:Generated_Source\PSoC5/HSYNC.c ****     void HSYNC_SetCompareMode2(uint8 comparemode) 
 361:Generated_Source\PSoC5/HSYNC.c ****     {
 362:Generated_Source\PSoC5/HSYNC.c **** 
 363:Generated_Source\PSoC5/HSYNC.c ****         #if(0 != HSYNC_CTRL_CMPMODE2_SHIFT)
 364:Generated_Source\PSoC5/HSYNC.c ****             uint8 comparemodemasked = ((uint8)((uint8)comparemode << HSYNC_CTRL_CMPMODE2_SHIFT)) &
 365:Generated_Source\PSoC5/HSYNC.c ****                                                  HSYNC_CTRL_CMPMODE2_MASK;
 366:Generated_Source\PSoC5/HSYNC.c ****         #else
 367:Generated_Source\PSoC5/HSYNC.c ****             uint8 comparemodemasked = comparemode & HSYNC_CTRL_CMPMODE2_MASK;
 368:Generated_Source\PSoC5/HSYNC.c ****         #endif /* (0 != HSYNC_CTRL_CMPMODE2_SHIFT) */
 369:Generated_Source\PSoC5/HSYNC.c **** 
 370:Generated_Source\PSoC5/HSYNC.c ****         #if (HSYNC_UseControl)
 371:Generated_Source\PSoC5/HSYNC.c ****             HSYNC_CONTROL &= ((uint8)(~HSYNC_CTRL_CMPMODE2_MASK)); /*Clear existing mode */
 372:Generated_Source\PSoC5/HSYNC.c ****             HSYNC_CONTROL |= comparemodemasked;
 373:Generated_Source\PSoC5/HSYNC.c ****         #endif /* (HSYNC_UseControl) */
 374:Generated_Source\PSoC5/HSYNC.c ****     }
 375:Generated_Source\PSoC5/HSYNC.c ****     #endif /*HSYNC_CompareMode2SW */
 376:Generated_Source\PSoC5/HSYNC.c **** 
 377:Generated_Source\PSoC5/HSYNC.c **** #endif /* UseOneCompareMode */
 378:Generated_Source\PSoC5/HSYNC.c **** 
 379:Generated_Source\PSoC5/HSYNC.c **** 
 380:Generated_Source\PSoC5/HSYNC.c **** #if (!HSYNC_UsingFixedFunction)
 381:Generated_Source\PSoC5/HSYNC.c **** 
 382:Generated_Source\PSoC5/HSYNC.c **** 
 383:Generated_Source\PSoC5/HSYNC.c ****     /*******************************************************************************
 384:Generated_Source\PSoC5/HSYNC.c ****     * Function Name: HSYNC_WriteCounter
 385:Generated_Source\PSoC5/HSYNC.c ****     ********************************************************************************
 386:Generated_Source\PSoC5/HSYNC.c ****     *
 387:Generated_Source\PSoC5/HSYNC.c ****     * Summary:
 388:Generated_Source\PSoC5/HSYNC.c ****     *  Writes a new counter value directly to the counter register. This will be
 389:Generated_Source\PSoC5/HSYNC.c ****     *  implemented for that currently running period and only that period. This API
 390:Generated_Source\PSoC5/HSYNC.c ****     *  is valid only for UDB implementation and not available for fixed function
 391:Generated_Source\PSoC5/HSYNC.c ****     *  PWM implementation.
 392:Generated_Source\PSoC5/HSYNC.c ****     *
 393:Generated_Source\PSoC5/HSYNC.c ****     * Parameters:
 394:Generated_Source\PSoC5/HSYNC.c ****     *  counter:  The period new period counter value.
 395:Generated_Source\PSoC5/HSYNC.c ****     *
 396:Generated_Source\PSoC5/HSYNC.c ****     * Return:
 397:Generated_Source\PSoC5/HSYNC.c ****     *  None
 398:Generated_Source\PSoC5/HSYNC.c ****     *
 399:Generated_Source\PSoC5/HSYNC.c ****     * Side Effects:
 400:Generated_Source\PSoC5/HSYNC.c ****     *  The PWM Period will be reloaded when a counter value will be a zero
 401:Generated_Source\PSoC5/HSYNC.c ****     *
 402:Generated_Source\PSoC5/HSYNC.c ****     *******************************************************************************/
 403:Generated_Source\PSoC5/HSYNC.c ****     void HSYNC_WriteCounter(uint8 counter) \
 404:Generated_Source\PSoC5/HSYNC.c ****                                        
 405:Generated_Source\PSoC5/HSYNC.c ****     {
 553              		.loc 1 405 0
 554              		.cfi_startproc
 555              		@ args = 0, pretend = 0, frame = 0
 556              		@ frame_needed = 0, uses_anonymous_args = 0
 557              		@ link register save eliminated.
 558              	.LVL0:
 406:Generated_Source\PSoC5/HSYNC.c ****         CY_SET_REG8(HSYNC_COUNTER_LSB_PTR, counter);
 559              		.loc 1 406 0
 560 0000 014B     		ldr	r3, .L8
 561 0002 1870     		strb	r0, [r3]
ARM GAS  C:\Users\info\AppData\Local\Temp\cclbiKcc.s 			page 41


 562 0004 7047     		bx	lr
 563              	.L9:
 564 0006 00BF     		.align	2
 565              	.L8:
 566 0008 0F640040 		.word	1073767439
 567              		.cfi_endproc
 568              	.LFE4:
 569              		.size	HSYNC_WriteCounter, .-HSYNC_WriteCounter
 570              		.section	.text.HSYNC_ReadCounter,"ax",%progbits
 571              		.align	2
 572              		.global	HSYNC_ReadCounter
 573              		.thumb
 574              		.thumb_func
 575              		.type	HSYNC_ReadCounter, %function
 576              	HSYNC_ReadCounter:
 577              	.LFB5:
 407:Generated_Source\PSoC5/HSYNC.c ****     }
 408:Generated_Source\PSoC5/HSYNC.c **** 
 409:Generated_Source\PSoC5/HSYNC.c **** 
 410:Generated_Source\PSoC5/HSYNC.c ****     /*******************************************************************************
 411:Generated_Source\PSoC5/HSYNC.c ****     * Function Name: HSYNC_ReadCounter
 412:Generated_Source\PSoC5/HSYNC.c ****     ********************************************************************************
 413:Generated_Source\PSoC5/HSYNC.c ****     *
 414:Generated_Source\PSoC5/HSYNC.c ****     * Summary:
 415:Generated_Source\PSoC5/HSYNC.c ****     *  This function returns the current value of the counter.  It doesn't matter
 416:Generated_Source\PSoC5/HSYNC.c ****     *  if the counter is enabled or running.
 417:Generated_Source\PSoC5/HSYNC.c ****     *
 418:Generated_Source\PSoC5/HSYNC.c ****     * Parameters:
 419:Generated_Source\PSoC5/HSYNC.c ****     *  None
 420:Generated_Source\PSoC5/HSYNC.c ****     *
 421:Generated_Source\PSoC5/HSYNC.c ****     * Return:
 422:Generated_Source\PSoC5/HSYNC.c ****     *  The current value of the counter.
 423:Generated_Source\PSoC5/HSYNC.c ****     *
 424:Generated_Source\PSoC5/HSYNC.c ****     *******************************************************************************/
 425:Generated_Source\PSoC5/HSYNC.c ****     uint8 HSYNC_ReadCounter(void) 
 426:Generated_Source\PSoC5/HSYNC.c ****     {
 578              		.loc 1 426 0
 579              		.cfi_startproc
 580              		@ args = 0, pretend = 0, frame = 0
 581              		@ frame_needed = 0, uses_anonymous_args = 0
 582              		@ link register save eliminated.
 427:Generated_Source\PSoC5/HSYNC.c ****         /* Force capture by reading Accumulator */
 428:Generated_Source\PSoC5/HSYNC.c ****         /* Must first do a software capture to be able to read the counter */
 429:Generated_Source\PSoC5/HSYNC.c ****         /* It is up to the user code to make sure there isn't already captured data in the FIFO */
 430:Generated_Source\PSoC5/HSYNC.c ****           (void)CY_GET_REG8(HSYNC_COUNTERCAP_LSB_PTR_8BIT);
 583              		.loc 1 430 0
 584 0000 024B     		ldr	r3, .L11
 585 0002 1B78     		ldrb	r3, [r3]	@ zero_extendqisi2
 431:Generated_Source\PSoC5/HSYNC.c **** 
 432:Generated_Source\PSoC5/HSYNC.c ****         /* Read the data from the FIFO */
 433:Generated_Source\PSoC5/HSYNC.c ****         return (CY_GET_REG8(HSYNC_CAPTURE_LSB_PTR));
 586              		.loc 1 433 0
 587 0004 024B     		ldr	r3, .L11+4
 588 0006 1878     		ldrb	r0, [r3]	@ zero_extendqisi2
 434:Generated_Source\PSoC5/HSYNC.c ****     }
 589              		.loc 1 434 0
 590 0008 7047     		bx	lr
ARM GAS  C:\Users\info\AppData\Local\Temp\cclbiKcc.s 			page 42


 591              	.L12:
 592 000a 00BF     		.align	2
 593              	.L11:
 594 000c 1F640040 		.word	1073767455
 595 0010 5F640040 		.word	1073767519
 596              		.cfi_endproc
 597              	.LFE5:
 598              		.size	HSYNC_ReadCounter, .-HSYNC_ReadCounter
 599              		.section	.text.HSYNC_WritePeriod,"ax",%progbits
 600              		.align	2
 601              		.global	HSYNC_WritePeriod
 602              		.thumb
 603              		.thumb_func
 604              		.type	HSYNC_WritePeriod, %function
 605              	HSYNC_WritePeriod:
 606              	.LFB6:
 435:Generated_Source\PSoC5/HSYNC.c **** 
 436:Generated_Source\PSoC5/HSYNC.c ****     #if (HSYNC_UseStatus)
 437:Generated_Source\PSoC5/HSYNC.c **** 
 438:Generated_Source\PSoC5/HSYNC.c **** 
 439:Generated_Source\PSoC5/HSYNC.c ****         /*******************************************************************************
 440:Generated_Source\PSoC5/HSYNC.c ****         * Function Name: HSYNC_ClearFIFO
 441:Generated_Source\PSoC5/HSYNC.c ****         ********************************************************************************
 442:Generated_Source\PSoC5/HSYNC.c ****         *
 443:Generated_Source\PSoC5/HSYNC.c ****         * Summary:
 444:Generated_Source\PSoC5/HSYNC.c ****         *  This function clears all capture data from the capture FIFO
 445:Generated_Source\PSoC5/HSYNC.c ****         *
 446:Generated_Source\PSoC5/HSYNC.c ****         * Parameters:
 447:Generated_Source\PSoC5/HSYNC.c ****         *  None
 448:Generated_Source\PSoC5/HSYNC.c ****         *
 449:Generated_Source\PSoC5/HSYNC.c ****         * Return:
 450:Generated_Source\PSoC5/HSYNC.c ****         *  None
 451:Generated_Source\PSoC5/HSYNC.c ****         *
 452:Generated_Source\PSoC5/HSYNC.c ****         *******************************************************************************/
 453:Generated_Source\PSoC5/HSYNC.c ****         void HSYNC_ClearFIFO(void) 
 454:Generated_Source\PSoC5/HSYNC.c ****         {
 455:Generated_Source\PSoC5/HSYNC.c ****             while(0u != (HSYNC_ReadStatusRegister() & HSYNC_STATUS_FIFONEMPTY))
 456:Generated_Source\PSoC5/HSYNC.c ****             {
 457:Generated_Source\PSoC5/HSYNC.c ****                 (void)HSYNC_ReadCapture();
 458:Generated_Source\PSoC5/HSYNC.c ****             }
 459:Generated_Source\PSoC5/HSYNC.c ****         }
 460:Generated_Source\PSoC5/HSYNC.c **** 
 461:Generated_Source\PSoC5/HSYNC.c ****     #endif /* HSYNC_UseStatus */
 462:Generated_Source\PSoC5/HSYNC.c **** 
 463:Generated_Source\PSoC5/HSYNC.c **** #endif /* !HSYNC_UsingFixedFunction */
 464:Generated_Source\PSoC5/HSYNC.c **** 
 465:Generated_Source\PSoC5/HSYNC.c **** 
 466:Generated_Source\PSoC5/HSYNC.c **** /*******************************************************************************
 467:Generated_Source\PSoC5/HSYNC.c **** * Function Name: HSYNC_WritePeriod
 468:Generated_Source\PSoC5/HSYNC.c **** ********************************************************************************
 469:Generated_Source\PSoC5/HSYNC.c **** *
 470:Generated_Source\PSoC5/HSYNC.c **** * Summary:
 471:Generated_Source\PSoC5/HSYNC.c **** *  This function is used to change the period of the counter.  The new period
 472:Generated_Source\PSoC5/HSYNC.c **** *  will be loaded the next time terminal count is detected.
 473:Generated_Source\PSoC5/HSYNC.c **** *
 474:Generated_Source\PSoC5/HSYNC.c **** * Parameters:
 475:Generated_Source\PSoC5/HSYNC.c **** *  period:  Period value. May be between 1 and (2^Resolution)-1.  A value of 0
ARM GAS  C:\Users\info\AppData\Local\Temp\cclbiKcc.s 			page 43


 476:Generated_Source\PSoC5/HSYNC.c **** *           will result in the counter remaining at zero.
 477:Generated_Source\PSoC5/HSYNC.c **** *
 478:Generated_Source\PSoC5/HSYNC.c **** * Return:
 479:Generated_Source\PSoC5/HSYNC.c **** *  None
 480:Generated_Source\PSoC5/HSYNC.c **** *
 481:Generated_Source\PSoC5/HSYNC.c **** *******************************************************************************/
 482:Generated_Source\PSoC5/HSYNC.c **** void HSYNC_WritePeriod(uint8 period) 
 483:Generated_Source\PSoC5/HSYNC.c **** {
 607              		.loc 1 483 0
 608              		.cfi_startproc
 609              		@ args = 0, pretend = 0, frame = 0
 610              		@ frame_needed = 0, uses_anonymous_args = 0
 611              		@ link register save eliminated.
 612              	.LVL1:
 484:Generated_Source\PSoC5/HSYNC.c ****     #if(HSYNC_UsingFixedFunction)
 485:Generated_Source\PSoC5/HSYNC.c ****         CY_SET_REG16(HSYNC_PERIOD_LSB_PTR, (uint16)period);
 486:Generated_Source\PSoC5/HSYNC.c ****     #else
 487:Generated_Source\PSoC5/HSYNC.c ****         CY_SET_REG8(HSYNC_PERIOD_LSB_PTR, period);
 613              		.loc 1 487 0
 614 0000 014B     		ldr	r3, .L14
 615 0002 1870     		strb	r0, [r3]
 616 0004 7047     		bx	lr
 617              	.L15:
 618 0006 00BF     		.align	2
 619              	.L14:
 620 0008 4F640040 		.word	1073767503
 621              		.cfi_endproc
 622              	.LFE6:
 623              		.size	HSYNC_WritePeriod, .-HSYNC_WritePeriod
 624              		.section	.text.HSYNC_WriteCompare,"ax",%progbits
 625              		.align	2
 626              		.global	HSYNC_WriteCompare
 627              		.thumb
 628              		.thumb_func
 629              		.type	HSYNC_WriteCompare, %function
 630              	HSYNC_WriteCompare:
 631              	.LFB7:
 488:Generated_Source\PSoC5/HSYNC.c ****     #endif /* (HSYNC_UsingFixedFunction) */
 489:Generated_Source\PSoC5/HSYNC.c **** }
 490:Generated_Source\PSoC5/HSYNC.c **** 
 491:Generated_Source\PSoC5/HSYNC.c **** #if (HSYNC_UseOneCompareMode)
 492:Generated_Source\PSoC5/HSYNC.c **** 
 493:Generated_Source\PSoC5/HSYNC.c **** 
 494:Generated_Source\PSoC5/HSYNC.c ****     /*******************************************************************************
 495:Generated_Source\PSoC5/HSYNC.c ****     * Function Name: HSYNC_WriteCompare
 496:Generated_Source\PSoC5/HSYNC.c ****     ********************************************************************************
 497:Generated_Source\PSoC5/HSYNC.c ****     *
 498:Generated_Source\PSoC5/HSYNC.c ****     * Summary:
 499:Generated_Source\PSoC5/HSYNC.c ****     *  This funtion is used to change the compare1 value when the PWM is in Dither
 500:Generated_Source\PSoC5/HSYNC.c ****     *  mode. The compare output will reflect the new value on the next UDB clock.
 501:Generated_Source\PSoC5/HSYNC.c ****     *  The compare output will be driven high when the present counter value is
 502:Generated_Source\PSoC5/HSYNC.c ****     *  compared to the compare value based on the compare mode defined in
 503:Generated_Source\PSoC5/HSYNC.c ****     *  Dither Mode.
 504:Generated_Source\PSoC5/HSYNC.c ****     *
 505:Generated_Source\PSoC5/HSYNC.c ****     * Parameters:
 506:Generated_Source\PSoC5/HSYNC.c ****     *  compare:  New compare value.
 507:Generated_Source\PSoC5/HSYNC.c ****     *
ARM GAS  C:\Users\info\AppData\Local\Temp\cclbiKcc.s 			page 44


 508:Generated_Source\PSoC5/HSYNC.c ****     * Return:
 509:Generated_Source\PSoC5/HSYNC.c ****     *  None
 510:Generated_Source\PSoC5/HSYNC.c ****     *
 511:Generated_Source\PSoC5/HSYNC.c ****     * Side Effects:
 512:Generated_Source\PSoC5/HSYNC.c ****     *  This function is only available if the PWM mode parameter is set to
 513:Generated_Source\PSoC5/HSYNC.c ****     *  Dither Mode, Center Aligned Mode or One Output Mode
 514:Generated_Source\PSoC5/HSYNC.c ****     *
 515:Generated_Source\PSoC5/HSYNC.c ****     *******************************************************************************/
 516:Generated_Source\PSoC5/HSYNC.c ****     void HSYNC_WriteCompare(uint8 compare) \
 517:Generated_Source\PSoC5/HSYNC.c ****                                        
 518:Generated_Source\PSoC5/HSYNC.c ****     {
 632              		.loc 1 518 0
 633              		.cfi_startproc
 634              		@ args = 0, pretend = 0, frame = 0
 635              		@ frame_needed = 0, uses_anonymous_args = 0
 636              		@ link register save eliminated.
 637              	.LVL2:
 519:Generated_Source\PSoC5/HSYNC.c ****         #if(HSYNC_UsingFixedFunction)
 520:Generated_Source\PSoC5/HSYNC.c ****             CY_SET_REG16(HSYNC_COMPARE1_LSB_PTR, (uint16)compare);
 521:Generated_Source\PSoC5/HSYNC.c ****         #else
 522:Generated_Source\PSoC5/HSYNC.c ****             CY_SET_REG8(HSYNC_COMPARE1_LSB_PTR, compare);
 638              		.loc 1 522 0
 639 0000 014B     		ldr	r3, .L17
 640 0002 1870     		strb	r0, [r3]
 641 0004 7047     		bx	lr
 642              	.L18:
 643 0006 00BF     		.align	2
 644              	.L17:
 645 0008 2F640040 		.word	1073767471
 646              		.cfi_endproc
 647              	.LFE7:
 648              		.size	HSYNC_WriteCompare, .-HSYNC_WriteCompare
 649              		.section	.text.HSYNC_Init,"ax",%progbits
 650              		.align	2
 651              		.global	HSYNC_Init
 652              		.thumb
 653              		.thumb_func
 654              		.type	HSYNC_Init, %function
 655              	HSYNC_Init:
 656              	.LFB1:
  85:Generated_Source\PSoC5/HSYNC.c ****     #if (HSYNC_UsingFixedFunction || HSYNC_UseControl)
 657              		.loc 1 85 0
 658              		.cfi_startproc
 659              		@ args = 0, pretend = 0, frame = 0
 660              		@ frame_needed = 0, uses_anonymous_args = 0
 661 0000 08B5     		push	{r3, lr}
 662              		.cfi_def_cfa_offset 8
 663              		.cfi_offset 3, -8
 664              		.cfi_offset 14, -4
 117:Generated_Source\PSoC5/HSYNC.c ****                 ((uint8)(~HSYNC_CTRL_CMPMODE1_MASK));
 665              		.loc 1 117 0
 666 0002 0B4A     		ldr	r2, .L21
 667 0004 1378     		ldrb	r3, [r2]	@ zero_extendqisi2
 668 0006 03F0C003 		and	r3, r3, #192
 669              	.LVL3:
 119:Generated_Source\PSoC5/HSYNC.c ****                                    HSYNC_DEFAULT_COMPARE1_MODE;
 670              		.loc 1 119 0
ARM GAS  C:\Users\info\AppData\Local\Temp\cclbiKcc.s 			page 45


 671 000a 43F00803 		orr	r3, r3, #8
 672              	.LVL4:
 673 000e 1370     		strb	r3, [r2]
 126:Generated_Source\PSoC5/HSYNC.c ****         #else /* (HSYNC_Resolution == 16)*/
 674              		.loc 1 126 0
 675 0010 2332     		adds	r2, r2, #35
 676 0012 1378     		ldrb	r3, [r2]	@ zero_extendqisi2
 677 0014 43F00103 		orr	r3, r3, #1
 678 0018 1370     		strb	r3, [r2]
 133:Generated_Source\PSoC5/HSYNC.c ****     #endif /* (!HSYNC_UsingFixedFunction) */
 679              		.loc 1 133 0
 680 001a 1120     		movs	r0, #17
 681 001c FFF7FEFF 		bl	HSYNC_WriteCounter
 682              	.LVL5:
 136:Generated_Source\PSoC5/HSYNC.c **** 
 683              		.loc 1 136 0
 684 0020 1120     		movs	r0, #17
 685 0022 FFF7FEFF 		bl	HSYNC_WritePeriod
 686              	.LVL6:
 139:Generated_Source\PSoC5/HSYNC.c ****         #else
 687              		.loc 1 139 0
 688 0026 1120     		movs	r0, #17
 689 0028 FFF7FEFF 		bl	HSYNC_WriteCompare
 690              	.LVL7:
 691 002c 08BD     		pop	{r3, pc}
 692              	.L22:
 693 002e 00BF     		.align	2
 694              	.L21:
 695 0030 7C640040 		.word	1073767548
 696              		.cfi_endproc
 697              	.LFE1:
 698              		.size	HSYNC_Init, .-HSYNC_Init
 699              		.section	.text.HSYNC_Start,"ax",%progbits
 700              		.align	2
 701              		.global	HSYNC_Start
 702              		.thumb
 703              		.thumb_func
 704              		.type	HSYNC_Start, %function
 705              	HSYNC_Start:
 706              	.LFB0:
  56:Generated_Source\PSoC5/HSYNC.c ****     /* If not Initialized then initialize all required hardware and software */
 707              		.loc 1 56 0
 708              		.cfi_startproc
 709              		@ args = 0, pretend = 0, frame = 0
 710              		@ frame_needed = 0, uses_anonymous_args = 0
 711 0000 08B5     		push	{r3, lr}
 712              		.cfi_def_cfa_offset 8
 713              		.cfi_offset 3, -8
 714              		.cfi_offset 14, -4
  58:Generated_Source\PSoC5/HSYNC.c ****     {
 715              		.loc 1 58 0
 716 0002 054B     		ldr	r3, .L26
 717 0004 1B78     		ldrb	r3, [r3]	@ zero_extendqisi2
 718 0006 23B9     		cbnz	r3, .L24
  60:Generated_Source\PSoC5/HSYNC.c ****         HSYNC_initVar = 1u;
 719              		.loc 1 60 0
 720 0008 FFF7FEFF 		bl	HSYNC_Init
ARM GAS  C:\Users\info\AppData\Local\Temp\cclbiKcc.s 			page 46


 721              	.LVL8:
  61:Generated_Source\PSoC5/HSYNC.c ****     }
 722              		.loc 1 61 0
 723 000c 0122     		movs	r2, #1
 724 000e 024B     		ldr	r3, .L26
 725 0010 1A70     		strb	r2, [r3]
 726              	.L24:
  63:Generated_Source\PSoC5/HSYNC.c **** 
 727              		.loc 1 63 0
 728 0012 FFF7FEFF 		bl	HSYNC_Enable
 729              	.LVL9:
 730 0016 08BD     		pop	{r3, pc}
 731              	.L27:
 732              		.align	2
 733              	.L26:
 734 0018 00000000 		.word	.LANCHOR0
 735              		.cfi_endproc
 736              	.LFE0:
 737              		.size	HSYNC_Start, .-HSYNC_Start
 738              		.section	.text.HSYNC_ReadControlRegister,"ax",%progbits
 739              		.align	2
 740              		.global	HSYNC_ReadControlRegister
 741              		.thumb
 742              		.thumb_func
 743              		.type	HSYNC_ReadControlRegister, %function
 744              	HSYNC_ReadControlRegister:
 745              	.LFB8:
 523:Generated_Source\PSoC5/HSYNC.c ****         #endif /* (HSYNC_UsingFixedFunction) */
 524:Generated_Source\PSoC5/HSYNC.c **** 
 525:Generated_Source\PSoC5/HSYNC.c ****         #if (HSYNC_PWMMode == HSYNC__B_PWM__DITHER)
 526:Generated_Source\PSoC5/HSYNC.c ****             #if(HSYNC_UsingFixedFunction)
 527:Generated_Source\PSoC5/HSYNC.c ****                 CY_SET_REG16(HSYNC_COMPARE2_LSB_PTR, (uint16)(compare + 1u));
 528:Generated_Source\PSoC5/HSYNC.c ****             #else
 529:Generated_Source\PSoC5/HSYNC.c ****                 CY_SET_REG8(HSYNC_COMPARE2_LSB_PTR, (compare + 1u));
 530:Generated_Source\PSoC5/HSYNC.c ****             #endif /* (HSYNC_UsingFixedFunction) */
 531:Generated_Source\PSoC5/HSYNC.c ****         #endif /* (HSYNC_PWMMode == HSYNC__B_PWM__DITHER) */
 532:Generated_Source\PSoC5/HSYNC.c ****     }
 533:Generated_Source\PSoC5/HSYNC.c **** 
 534:Generated_Source\PSoC5/HSYNC.c **** 
 535:Generated_Source\PSoC5/HSYNC.c **** #else
 536:Generated_Source\PSoC5/HSYNC.c **** 
 537:Generated_Source\PSoC5/HSYNC.c **** 
 538:Generated_Source\PSoC5/HSYNC.c ****     /*******************************************************************************
 539:Generated_Source\PSoC5/HSYNC.c ****     * Function Name: HSYNC_WriteCompare1
 540:Generated_Source\PSoC5/HSYNC.c ****     ********************************************************************************
 541:Generated_Source\PSoC5/HSYNC.c ****     *
 542:Generated_Source\PSoC5/HSYNC.c ****     * Summary:
 543:Generated_Source\PSoC5/HSYNC.c ****     *  This funtion is used to change the compare1 value.  The compare output will
 544:Generated_Source\PSoC5/HSYNC.c ****     *  reflect the new value on the next UDB clock.  The compare output will be
 545:Generated_Source\PSoC5/HSYNC.c ****     *  driven high when the present counter value is less than or less than or
 546:Generated_Source\PSoC5/HSYNC.c ****     *  equal to the compare register, depending on the mode.
 547:Generated_Source\PSoC5/HSYNC.c ****     *
 548:Generated_Source\PSoC5/HSYNC.c ****     * Parameters:
 549:Generated_Source\PSoC5/HSYNC.c ****     *  compare:  New compare value.
 550:Generated_Source\PSoC5/HSYNC.c ****     *
 551:Generated_Source\PSoC5/HSYNC.c ****     * Return:
 552:Generated_Source\PSoC5/HSYNC.c ****     *  None
ARM GAS  C:\Users\info\AppData\Local\Temp\cclbiKcc.s 			page 47


 553:Generated_Source\PSoC5/HSYNC.c ****     *
 554:Generated_Source\PSoC5/HSYNC.c ****     *******************************************************************************/
 555:Generated_Source\PSoC5/HSYNC.c ****     void HSYNC_WriteCompare1(uint8 compare) \
 556:Generated_Source\PSoC5/HSYNC.c ****                                         
 557:Generated_Source\PSoC5/HSYNC.c ****     {
 558:Generated_Source\PSoC5/HSYNC.c ****         #if(HSYNC_UsingFixedFunction)
 559:Generated_Source\PSoC5/HSYNC.c ****             CY_SET_REG16(HSYNC_COMPARE1_LSB_PTR, (uint16)compare);
 560:Generated_Source\PSoC5/HSYNC.c ****         #else
 561:Generated_Source\PSoC5/HSYNC.c ****             CY_SET_REG8(HSYNC_COMPARE1_LSB_PTR, compare);
 562:Generated_Source\PSoC5/HSYNC.c ****         #endif /* (HSYNC_UsingFixedFunction) */
 563:Generated_Source\PSoC5/HSYNC.c ****     }
 564:Generated_Source\PSoC5/HSYNC.c **** 
 565:Generated_Source\PSoC5/HSYNC.c **** 
 566:Generated_Source\PSoC5/HSYNC.c ****     /*******************************************************************************
 567:Generated_Source\PSoC5/HSYNC.c ****     * Function Name: HSYNC_WriteCompare2
 568:Generated_Source\PSoC5/HSYNC.c ****     ********************************************************************************
 569:Generated_Source\PSoC5/HSYNC.c ****     *
 570:Generated_Source\PSoC5/HSYNC.c ****     * Summary:
 571:Generated_Source\PSoC5/HSYNC.c ****     *  This funtion is used to change the compare value, for compare1 output.
 572:Generated_Source\PSoC5/HSYNC.c ****     *  The compare output will reflect the new value on the next UDB clock.
 573:Generated_Source\PSoC5/HSYNC.c ****     *  The compare output will be driven high when the present counter value is
 574:Generated_Source\PSoC5/HSYNC.c ****     *  less than or less than or equal to the compare register, depending on the
 575:Generated_Source\PSoC5/HSYNC.c ****     *  mode.
 576:Generated_Source\PSoC5/HSYNC.c ****     *
 577:Generated_Source\PSoC5/HSYNC.c ****     * Parameters:
 578:Generated_Source\PSoC5/HSYNC.c ****     *  compare:  New compare value.
 579:Generated_Source\PSoC5/HSYNC.c ****     *
 580:Generated_Source\PSoC5/HSYNC.c ****     * Return:
 581:Generated_Source\PSoC5/HSYNC.c ****     *  None
 582:Generated_Source\PSoC5/HSYNC.c ****     *
 583:Generated_Source\PSoC5/HSYNC.c ****     *******************************************************************************/
 584:Generated_Source\PSoC5/HSYNC.c ****     void HSYNC_WriteCompare2(uint8 compare) \
 585:Generated_Source\PSoC5/HSYNC.c ****                                         
 586:Generated_Source\PSoC5/HSYNC.c ****     {
 587:Generated_Source\PSoC5/HSYNC.c ****         #if(HSYNC_UsingFixedFunction)
 588:Generated_Source\PSoC5/HSYNC.c ****             CY_SET_REG16(HSYNC_COMPARE2_LSB_PTR, compare);
 589:Generated_Source\PSoC5/HSYNC.c ****         #else
 590:Generated_Source\PSoC5/HSYNC.c ****             CY_SET_REG8(HSYNC_COMPARE2_LSB_PTR, compare);
 591:Generated_Source\PSoC5/HSYNC.c ****         #endif /* (HSYNC_UsingFixedFunction) */
 592:Generated_Source\PSoC5/HSYNC.c ****     }
 593:Generated_Source\PSoC5/HSYNC.c **** #endif /* UseOneCompareMode */
 594:Generated_Source\PSoC5/HSYNC.c **** 
 595:Generated_Source\PSoC5/HSYNC.c **** #if (HSYNC_DeadBandUsed)
 596:Generated_Source\PSoC5/HSYNC.c **** 
 597:Generated_Source\PSoC5/HSYNC.c **** 
 598:Generated_Source\PSoC5/HSYNC.c ****     /*******************************************************************************
 599:Generated_Source\PSoC5/HSYNC.c ****     * Function Name: HSYNC_WriteDeadTime
 600:Generated_Source\PSoC5/HSYNC.c ****     ********************************************************************************
 601:Generated_Source\PSoC5/HSYNC.c ****     *
 602:Generated_Source\PSoC5/HSYNC.c ****     * Summary:
 603:Generated_Source\PSoC5/HSYNC.c ****     *  This function writes the dead-band counts to the corresponding register
 604:Generated_Source\PSoC5/HSYNC.c ****     *
 605:Generated_Source\PSoC5/HSYNC.c ****     * Parameters:
 606:Generated_Source\PSoC5/HSYNC.c ****     *  deadtime:  Number of counts for dead time
 607:Generated_Source\PSoC5/HSYNC.c ****     *
 608:Generated_Source\PSoC5/HSYNC.c ****     * Return:
 609:Generated_Source\PSoC5/HSYNC.c ****     *  None
ARM GAS  C:\Users\info\AppData\Local\Temp\cclbiKcc.s 			page 48


 610:Generated_Source\PSoC5/HSYNC.c ****     *
 611:Generated_Source\PSoC5/HSYNC.c ****     *******************************************************************************/
 612:Generated_Source\PSoC5/HSYNC.c ****     void HSYNC_WriteDeadTime(uint8 deadtime) 
 613:Generated_Source\PSoC5/HSYNC.c ****     {
 614:Generated_Source\PSoC5/HSYNC.c ****         /* If using the Dead Band 1-255 mode then just write the register */
 615:Generated_Source\PSoC5/HSYNC.c ****         #if(!HSYNC_DeadBand2_4)
 616:Generated_Source\PSoC5/HSYNC.c ****             CY_SET_REG8(HSYNC_DEADBAND_COUNT_PTR, deadtime);
 617:Generated_Source\PSoC5/HSYNC.c ****         #else
 618:Generated_Source\PSoC5/HSYNC.c ****             /* Otherwise the data has to be masked and offset */
 619:Generated_Source\PSoC5/HSYNC.c ****             /* Clear existing data */
 620:Generated_Source\PSoC5/HSYNC.c ****             HSYNC_DEADBAND_COUNT &= ((uint8)(~HSYNC_DEADBAND_COUNT_MASK));
 621:Generated_Source\PSoC5/HSYNC.c **** 
 622:Generated_Source\PSoC5/HSYNC.c ****             /* Set new dead time */
 623:Generated_Source\PSoC5/HSYNC.c ****             #if(HSYNC_DEADBAND_COUNT_SHIFT)
 624:Generated_Source\PSoC5/HSYNC.c ****                 HSYNC_DEADBAND_COUNT |= ((uint8)((uint8)deadtime << HSYNC_DEADBAND_COUNT_SHIFT)) &
 625:Generated_Source\PSoC5/HSYNC.c ****                                                     HSYNC_DEADBAND_COUNT_MASK;
 626:Generated_Source\PSoC5/HSYNC.c ****             #else
 627:Generated_Source\PSoC5/HSYNC.c ****                 HSYNC_DEADBAND_COUNT |= deadtime & HSYNC_DEADBAND_COUNT_MASK;
 628:Generated_Source\PSoC5/HSYNC.c ****             #endif /* (HSYNC_DEADBAND_COUNT_SHIFT) */
 629:Generated_Source\PSoC5/HSYNC.c **** 
 630:Generated_Source\PSoC5/HSYNC.c ****         #endif /* (!HSYNC_DeadBand2_4) */
 631:Generated_Source\PSoC5/HSYNC.c ****     }
 632:Generated_Source\PSoC5/HSYNC.c **** 
 633:Generated_Source\PSoC5/HSYNC.c **** 
 634:Generated_Source\PSoC5/HSYNC.c ****     /*******************************************************************************
 635:Generated_Source\PSoC5/HSYNC.c ****     * Function Name: HSYNC_ReadDeadTime
 636:Generated_Source\PSoC5/HSYNC.c ****     ********************************************************************************
 637:Generated_Source\PSoC5/HSYNC.c ****     *
 638:Generated_Source\PSoC5/HSYNC.c ****     * Summary:
 639:Generated_Source\PSoC5/HSYNC.c ****     *  This function reads the dead-band counts from the corresponding register
 640:Generated_Source\PSoC5/HSYNC.c ****     *
 641:Generated_Source\PSoC5/HSYNC.c ****     * Parameters:
 642:Generated_Source\PSoC5/HSYNC.c ****     *  None
 643:Generated_Source\PSoC5/HSYNC.c ****     *
 644:Generated_Source\PSoC5/HSYNC.c ****     * Return:
 645:Generated_Source\PSoC5/HSYNC.c ****     *  Dead Band Counts
 646:Generated_Source\PSoC5/HSYNC.c ****     *
 647:Generated_Source\PSoC5/HSYNC.c ****     *******************************************************************************/
 648:Generated_Source\PSoC5/HSYNC.c ****     uint8 HSYNC_ReadDeadTime(void) 
 649:Generated_Source\PSoC5/HSYNC.c ****     {
 650:Generated_Source\PSoC5/HSYNC.c ****         /* If using the Dead Band 1-255 mode then just read the register */
 651:Generated_Source\PSoC5/HSYNC.c ****         #if(!HSYNC_DeadBand2_4)
 652:Generated_Source\PSoC5/HSYNC.c ****             return (CY_GET_REG8(HSYNC_DEADBAND_COUNT_PTR));
 653:Generated_Source\PSoC5/HSYNC.c ****         #else
 654:Generated_Source\PSoC5/HSYNC.c **** 
 655:Generated_Source\PSoC5/HSYNC.c ****             /* Otherwise the data has to be masked and offset */
 656:Generated_Source\PSoC5/HSYNC.c ****             #if(HSYNC_DEADBAND_COUNT_SHIFT)
 657:Generated_Source\PSoC5/HSYNC.c ****                 return ((uint8)(((uint8)(HSYNC_DEADBAND_COUNT & HSYNC_DEADBAND_COUNT_MASK)) >>
 658:Generated_Source\PSoC5/HSYNC.c ****                                                                            HSYNC_DEADBAND_COUNT_SHI
 659:Generated_Source\PSoC5/HSYNC.c ****             #else
 660:Generated_Source\PSoC5/HSYNC.c ****                 return (HSYNC_DEADBAND_COUNT & HSYNC_DEADBAND_COUNT_MASK);
 661:Generated_Source\PSoC5/HSYNC.c ****             #endif /* (HSYNC_DEADBAND_COUNT_SHIFT) */
 662:Generated_Source\PSoC5/HSYNC.c ****         #endif /* (!HSYNC_DeadBand2_4) */
 663:Generated_Source\PSoC5/HSYNC.c ****     }
 664:Generated_Source\PSoC5/HSYNC.c **** #endif /* DeadBandUsed */
 665:Generated_Source\PSoC5/HSYNC.c **** 
 666:Generated_Source\PSoC5/HSYNC.c **** #if (HSYNC_UseStatus || HSYNC_UsingFixedFunction)
ARM GAS  C:\Users\info\AppData\Local\Temp\cclbiKcc.s 			page 49


 667:Generated_Source\PSoC5/HSYNC.c **** 
 668:Generated_Source\PSoC5/HSYNC.c **** 
 669:Generated_Source\PSoC5/HSYNC.c ****     /*******************************************************************************
 670:Generated_Source\PSoC5/HSYNC.c ****     * Function Name: HSYNC_SetInterruptMode
 671:Generated_Source\PSoC5/HSYNC.c ****     ********************************************************************************
 672:Generated_Source\PSoC5/HSYNC.c ****     *
 673:Generated_Source\PSoC5/HSYNC.c ****     * Summary:
 674:Generated_Source\PSoC5/HSYNC.c ****     *  This function configures the interrupts mask control of theinterrupt
 675:Generated_Source\PSoC5/HSYNC.c ****     *  source status register.
 676:Generated_Source\PSoC5/HSYNC.c ****     *
 677:Generated_Source\PSoC5/HSYNC.c ****     * Parameters:
 678:Generated_Source\PSoC5/HSYNC.c ****     *  uint8 interruptMode: Bit field containing the interrupt sources enabled
 679:Generated_Source\PSoC5/HSYNC.c ****     *
 680:Generated_Source\PSoC5/HSYNC.c ****     * Return:
 681:Generated_Source\PSoC5/HSYNC.c ****     *  None
 682:Generated_Source\PSoC5/HSYNC.c ****     *
 683:Generated_Source\PSoC5/HSYNC.c ****     *******************************************************************************/
 684:Generated_Source\PSoC5/HSYNC.c ****     void HSYNC_SetInterruptMode(uint8 interruptMode) 
 685:Generated_Source\PSoC5/HSYNC.c ****     {
 686:Generated_Source\PSoC5/HSYNC.c ****         CY_SET_REG8(HSYNC_STATUS_MASK_PTR, interruptMode);
 687:Generated_Source\PSoC5/HSYNC.c ****     }
 688:Generated_Source\PSoC5/HSYNC.c **** 
 689:Generated_Source\PSoC5/HSYNC.c **** 
 690:Generated_Source\PSoC5/HSYNC.c ****     /*******************************************************************************
 691:Generated_Source\PSoC5/HSYNC.c ****     * Function Name: HSYNC_ReadStatusRegister
 692:Generated_Source\PSoC5/HSYNC.c ****     ********************************************************************************
 693:Generated_Source\PSoC5/HSYNC.c ****     *
 694:Generated_Source\PSoC5/HSYNC.c ****     * Summary:
 695:Generated_Source\PSoC5/HSYNC.c ****     *  This function returns the current state of the status register.
 696:Generated_Source\PSoC5/HSYNC.c ****     *
 697:Generated_Source\PSoC5/HSYNC.c ****     * Parameters:
 698:Generated_Source\PSoC5/HSYNC.c ****     *  None
 699:Generated_Source\PSoC5/HSYNC.c ****     *
 700:Generated_Source\PSoC5/HSYNC.c ****     * Return:
 701:Generated_Source\PSoC5/HSYNC.c ****     *  uint8 : Current status register value. The status register bits are:
 702:Generated_Source\PSoC5/HSYNC.c ****     *  [7:6] : Unused(0)
 703:Generated_Source\PSoC5/HSYNC.c ****     *  [5]   : Kill event output
 704:Generated_Source\PSoC5/HSYNC.c ****     *  [4]   : FIFO not empty
 705:Generated_Source\PSoC5/HSYNC.c ****     *  [3]   : FIFO full
 706:Generated_Source\PSoC5/HSYNC.c ****     *  [2]   : Terminal count
 707:Generated_Source\PSoC5/HSYNC.c ****     *  [1]   : Compare output 2
 708:Generated_Source\PSoC5/HSYNC.c ****     *  [0]   : Compare output 1
 709:Generated_Source\PSoC5/HSYNC.c ****     *
 710:Generated_Source\PSoC5/HSYNC.c ****     *******************************************************************************/
 711:Generated_Source\PSoC5/HSYNC.c ****     uint8 HSYNC_ReadStatusRegister(void) 
 712:Generated_Source\PSoC5/HSYNC.c ****     {
 713:Generated_Source\PSoC5/HSYNC.c ****         return (CY_GET_REG8(HSYNC_STATUS_PTR));
 714:Generated_Source\PSoC5/HSYNC.c ****     }
 715:Generated_Source\PSoC5/HSYNC.c **** 
 716:Generated_Source\PSoC5/HSYNC.c **** #endif /* (HSYNC_UseStatus || HSYNC_UsingFixedFunction) */
 717:Generated_Source\PSoC5/HSYNC.c **** 
 718:Generated_Source\PSoC5/HSYNC.c **** 
 719:Generated_Source\PSoC5/HSYNC.c **** #if (HSYNC_UseControl)
 720:Generated_Source\PSoC5/HSYNC.c **** 
 721:Generated_Source\PSoC5/HSYNC.c **** 
 722:Generated_Source\PSoC5/HSYNC.c ****     /*******************************************************************************
 723:Generated_Source\PSoC5/HSYNC.c ****     * Function Name: HSYNC_ReadControlRegister
ARM GAS  C:\Users\info\AppData\Local\Temp\cclbiKcc.s 			page 50


 724:Generated_Source\PSoC5/HSYNC.c ****     ********************************************************************************
 725:Generated_Source\PSoC5/HSYNC.c ****     *
 726:Generated_Source\PSoC5/HSYNC.c ****     * Summary:
 727:Generated_Source\PSoC5/HSYNC.c ****     *  Returns the current state of the control register. This API is available
 728:Generated_Source\PSoC5/HSYNC.c ****     *  only if the control register is not removed.
 729:Generated_Source\PSoC5/HSYNC.c ****     *
 730:Generated_Source\PSoC5/HSYNC.c ****     * Parameters:
 731:Generated_Source\PSoC5/HSYNC.c ****     *  None
 732:Generated_Source\PSoC5/HSYNC.c ****     *
 733:Generated_Source\PSoC5/HSYNC.c ****     * Return:
 734:Generated_Source\PSoC5/HSYNC.c ****     *  uint8 : Current control register value
 735:Generated_Source\PSoC5/HSYNC.c ****     *
 736:Generated_Source\PSoC5/HSYNC.c ****     *******************************************************************************/
 737:Generated_Source\PSoC5/HSYNC.c ****     uint8 HSYNC_ReadControlRegister(void) 
 738:Generated_Source\PSoC5/HSYNC.c ****     {
 746              		.loc 1 738 0
 747              		.cfi_startproc
 748              		@ args = 0, pretend = 0, frame = 0
 749              		@ frame_needed = 0, uses_anonymous_args = 0
 750              		@ link register save eliminated.
 739:Generated_Source\PSoC5/HSYNC.c ****         uint8 result;
 740:Generated_Source\PSoC5/HSYNC.c **** 
 741:Generated_Source\PSoC5/HSYNC.c ****         result = CY_GET_REG8(HSYNC_CONTROL_PTR);
 751              		.loc 1 741 0
 752 0000 014B     		ldr	r3, .L29
 753 0002 1878     		ldrb	r0, [r3]	@ zero_extendqisi2
 754              	.LVL10:
 742:Generated_Source\PSoC5/HSYNC.c ****         return (result);
 743:Generated_Source\PSoC5/HSYNC.c ****     }
 755              		.loc 1 743 0
 756 0004 7047     		bx	lr
 757              	.L30:
 758 0006 00BF     		.align	2
 759              	.L29:
 760 0008 7C640040 		.word	1073767548
 761              		.cfi_endproc
 762              	.LFE8:
 763              		.size	HSYNC_ReadControlRegister, .-HSYNC_ReadControlRegister
 764              		.section	.text.HSYNC_WriteControlRegister,"ax",%progbits
 765              		.align	2
 766              		.global	HSYNC_WriteControlRegister
 767              		.thumb
 768              		.thumb_func
 769              		.type	HSYNC_WriteControlRegister, %function
 770              	HSYNC_WriteControlRegister:
 771              	.LFB9:
 744:Generated_Source\PSoC5/HSYNC.c **** 
 745:Generated_Source\PSoC5/HSYNC.c **** 
 746:Generated_Source\PSoC5/HSYNC.c ****     /*******************************************************************************
 747:Generated_Source\PSoC5/HSYNC.c ****     * Function Name: HSYNC_WriteControlRegister
 748:Generated_Source\PSoC5/HSYNC.c ****     ********************************************************************************
 749:Generated_Source\PSoC5/HSYNC.c ****     *
 750:Generated_Source\PSoC5/HSYNC.c ****     * Summary:
 751:Generated_Source\PSoC5/HSYNC.c ****     *  Sets the bit field of the control register. This API is available only if
 752:Generated_Source\PSoC5/HSYNC.c ****     *  the control register is not removed.
 753:Generated_Source\PSoC5/HSYNC.c ****     *
 754:Generated_Source\PSoC5/HSYNC.c ****     * Parameters:
ARM GAS  C:\Users\info\AppData\Local\Temp\cclbiKcc.s 			page 51


 755:Generated_Source\PSoC5/HSYNC.c ****     *  uint8 control: Control register bit field, The status register bits are:
 756:Generated_Source\PSoC5/HSYNC.c ****     *  [7]   : PWM Enable
 757:Generated_Source\PSoC5/HSYNC.c ****     *  [6]   : Reset
 758:Generated_Source\PSoC5/HSYNC.c ****     *  [5:3] : Compare Mode2
 759:Generated_Source\PSoC5/HSYNC.c ****     *  [2:0] : Compare Mode2
 760:Generated_Source\PSoC5/HSYNC.c ****     *
 761:Generated_Source\PSoC5/HSYNC.c ****     * Return:
 762:Generated_Source\PSoC5/HSYNC.c ****     *  None
 763:Generated_Source\PSoC5/HSYNC.c ****     *
 764:Generated_Source\PSoC5/HSYNC.c ****     *******************************************************************************/
 765:Generated_Source\PSoC5/HSYNC.c ****     void HSYNC_WriteControlRegister(uint8 control) 
 766:Generated_Source\PSoC5/HSYNC.c ****     {
 772              		.loc 1 766 0
 773              		.cfi_startproc
 774              		@ args = 0, pretend = 0, frame = 0
 775              		@ frame_needed = 0, uses_anonymous_args = 0
 776              		@ link register save eliminated.
 777              	.LVL11:
 767:Generated_Source\PSoC5/HSYNC.c ****         CY_SET_REG8(HSYNC_CONTROL_PTR, control);
 778              		.loc 1 767 0
 779 0000 014B     		ldr	r3, .L32
 780 0002 1870     		strb	r0, [r3]
 781 0004 7047     		bx	lr
 782              	.L33:
 783 0006 00BF     		.align	2
 784              	.L32:
 785 0008 7C640040 		.word	1073767548
 786              		.cfi_endproc
 787              	.LFE9:
 788              		.size	HSYNC_WriteControlRegister, .-HSYNC_WriteControlRegister
 789              		.section	.text.HSYNC_ReadCapture,"ax",%progbits
 790              		.align	2
 791              		.global	HSYNC_ReadCapture
 792              		.thumb
 793              		.thumb_func
 794              		.type	HSYNC_ReadCapture, %function
 795              	HSYNC_ReadCapture:
 796              	.LFB10:
 768:Generated_Source\PSoC5/HSYNC.c ****     }
 769:Generated_Source\PSoC5/HSYNC.c **** 
 770:Generated_Source\PSoC5/HSYNC.c **** #endif /* (HSYNC_UseControl) */
 771:Generated_Source\PSoC5/HSYNC.c **** 
 772:Generated_Source\PSoC5/HSYNC.c **** 
 773:Generated_Source\PSoC5/HSYNC.c **** #if (!HSYNC_UsingFixedFunction)
 774:Generated_Source\PSoC5/HSYNC.c **** 
 775:Generated_Source\PSoC5/HSYNC.c **** 
 776:Generated_Source\PSoC5/HSYNC.c ****     /*******************************************************************************
 777:Generated_Source\PSoC5/HSYNC.c ****     * Function Name: HSYNC_ReadCapture
 778:Generated_Source\PSoC5/HSYNC.c ****     ********************************************************************************
 779:Generated_Source\PSoC5/HSYNC.c ****     *
 780:Generated_Source\PSoC5/HSYNC.c ****     * Summary:
 781:Generated_Source\PSoC5/HSYNC.c ****     *  Reads the capture value from the capture FIFO.
 782:Generated_Source\PSoC5/HSYNC.c ****     *
 783:Generated_Source\PSoC5/HSYNC.c ****     * Parameters:
 784:Generated_Source\PSoC5/HSYNC.c ****     *  None
 785:Generated_Source\PSoC5/HSYNC.c ****     *
 786:Generated_Source\PSoC5/HSYNC.c ****     * Return:
ARM GAS  C:\Users\info\AppData\Local\Temp\cclbiKcc.s 			page 52


 787:Generated_Source\PSoC5/HSYNC.c ****     *  uint8/uint16: The current capture value
 788:Generated_Source\PSoC5/HSYNC.c ****     *
 789:Generated_Source\PSoC5/HSYNC.c ****     *******************************************************************************/
 790:Generated_Source\PSoC5/HSYNC.c ****     uint8 HSYNC_ReadCapture(void) 
 791:Generated_Source\PSoC5/HSYNC.c ****     {
 797              		.loc 1 791 0
 798              		.cfi_startproc
 799              		@ args = 0, pretend = 0, frame = 0
 800              		@ frame_needed = 0, uses_anonymous_args = 0
 801              		@ link register save eliminated.
 792:Generated_Source\PSoC5/HSYNC.c ****         return (CY_GET_REG8(HSYNC_CAPTURE_LSB_PTR));
 802              		.loc 1 792 0
 803 0000 014B     		ldr	r3, .L35
 804 0002 1878     		ldrb	r0, [r3]	@ zero_extendqisi2
 793:Generated_Source\PSoC5/HSYNC.c ****     }
 805              		.loc 1 793 0
 806 0004 7047     		bx	lr
 807              	.L36:
 808 0006 00BF     		.align	2
 809              	.L35:
 810 0008 5F640040 		.word	1073767519
 811              		.cfi_endproc
 812              	.LFE10:
 813              		.size	HSYNC_ReadCapture, .-HSYNC_ReadCapture
 814              		.section	.text.HSYNC_ReadCompare,"ax",%progbits
 815              		.align	2
 816              		.global	HSYNC_ReadCompare
 817              		.thumb
 818              		.thumb_func
 819              		.type	HSYNC_ReadCompare, %function
 820              	HSYNC_ReadCompare:
 821              	.LFB11:
 794:Generated_Source\PSoC5/HSYNC.c **** 
 795:Generated_Source\PSoC5/HSYNC.c **** #endif /* (!HSYNC_UsingFixedFunction) */
 796:Generated_Source\PSoC5/HSYNC.c **** 
 797:Generated_Source\PSoC5/HSYNC.c **** 
 798:Generated_Source\PSoC5/HSYNC.c **** #if (HSYNC_UseOneCompareMode)
 799:Generated_Source\PSoC5/HSYNC.c **** 
 800:Generated_Source\PSoC5/HSYNC.c **** 
 801:Generated_Source\PSoC5/HSYNC.c ****     /*******************************************************************************
 802:Generated_Source\PSoC5/HSYNC.c ****     * Function Name: HSYNC_ReadCompare
 803:Generated_Source\PSoC5/HSYNC.c ****     ********************************************************************************
 804:Generated_Source\PSoC5/HSYNC.c ****     *
 805:Generated_Source\PSoC5/HSYNC.c ****     * Summary:
 806:Generated_Source\PSoC5/HSYNC.c ****     *  Reads the compare value for the compare output when the PWM Mode parameter is
 807:Generated_Source\PSoC5/HSYNC.c ****     *  set to Dither mode, Center Aligned mode, or One Output mode.
 808:Generated_Source\PSoC5/HSYNC.c ****     *
 809:Generated_Source\PSoC5/HSYNC.c ****     * Parameters:
 810:Generated_Source\PSoC5/HSYNC.c ****     *  None
 811:Generated_Source\PSoC5/HSYNC.c ****     *
 812:Generated_Source\PSoC5/HSYNC.c ****     * Return:
 813:Generated_Source\PSoC5/HSYNC.c ****     *  uint8/uint16: Current compare value
 814:Generated_Source\PSoC5/HSYNC.c ****     *
 815:Generated_Source\PSoC5/HSYNC.c ****     *******************************************************************************/
 816:Generated_Source\PSoC5/HSYNC.c ****     uint8 HSYNC_ReadCompare(void) 
 817:Generated_Source\PSoC5/HSYNC.c ****     {
 822              		.loc 1 817 0
ARM GAS  C:\Users\info\AppData\Local\Temp\cclbiKcc.s 			page 53


 823              		.cfi_startproc
 824              		@ args = 0, pretend = 0, frame = 0
 825              		@ frame_needed = 0, uses_anonymous_args = 0
 826              		@ link register save eliminated.
 818:Generated_Source\PSoC5/HSYNC.c ****         #if(HSYNC_UsingFixedFunction)
 819:Generated_Source\PSoC5/HSYNC.c ****             return ((uint8)CY_GET_REG16(HSYNC_COMPARE1_LSB_PTR));
 820:Generated_Source\PSoC5/HSYNC.c ****         #else
 821:Generated_Source\PSoC5/HSYNC.c ****             return (CY_GET_REG8(HSYNC_COMPARE1_LSB_PTR));
 827              		.loc 1 821 0
 828 0000 014B     		ldr	r3, .L38
 829 0002 1878     		ldrb	r0, [r3]	@ zero_extendqisi2
 822:Generated_Source\PSoC5/HSYNC.c ****         #endif /* (HSYNC_UsingFixedFunction) */
 823:Generated_Source\PSoC5/HSYNC.c ****     }
 830              		.loc 1 823 0
 831 0004 7047     		bx	lr
 832              	.L39:
 833 0006 00BF     		.align	2
 834              	.L38:
 835 0008 2F640040 		.word	1073767471
 836              		.cfi_endproc
 837              	.LFE11:
 838              		.size	HSYNC_ReadCompare, .-HSYNC_ReadCompare
 839              		.section	.text.HSYNC_ReadPeriod,"ax",%progbits
 840              		.align	2
 841              		.global	HSYNC_ReadPeriod
 842              		.thumb
 843              		.thumb_func
 844              		.type	HSYNC_ReadPeriod, %function
 845              	HSYNC_ReadPeriod:
 846              	.LFB12:
 824:Generated_Source\PSoC5/HSYNC.c **** 
 825:Generated_Source\PSoC5/HSYNC.c **** #else
 826:Generated_Source\PSoC5/HSYNC.c **** 
 827:Generated_Source\PSoC5/HSYNC.c **** 
 828:Generated_Source\PSoC5/HSYNC.c ****     /*******************************************************************************
 829:Generated_Source\PSoC5/HSYNC.c ****     * Function Name: HSYNC_ReadCompare1
 830:Generated_Source\PSoC5/HSYNC.c ****     ********************************************************************************
 831:Generated_Source\PSoC5/HSYNC.c ****     *
 832:Generated_Source\PSoC5/HSYNC.c ****     * Summary:
 833:Generated_Source\PSoC5/HSYNC.c ****     *  Reads the compare value for the compare1 output.
 834:Generated_Source\PSoC5/HSYNC.c ****     *
 835:Generated_Source\PSoC5/HSYNC.c ****     * Parameters:
 836:Generated_Source\PSoC5/HSYNC.c ****     *  None
 837:Generated_Source\PSoC5/HSYNC.c ****     *
 838:Generated_Source\PSoC5/HSYNC.c ****     * Return:
 839:Generated_Source\PSoC5/HSYNC.c ****     *  uint8/uint16: Current compare value.
 840:Generated_Source\PSoC5/HSYNC.c ****     *
 841:Generated_Source\PSoC5/HSYNC.c ****     *******************************************************************************/
 842:Generated_Source\PSoC5/HSYNC.c ****     uint8 HSYNC_ReadCompare1(void) 
 843:Generated_Source\PSoC5/HSYNC.c ****     {
 844:Generated_Source\PSoC5/HSYNC.c ****         return (CY_GET_REG8(HSYNC_COMPARE1_LSB_PTR));
 845:Generated_Source\PSoC5/HSYNC.c ****     }
 846:Generated_Source\PSoC5/HSYNC.c **** 
 847:Generated_Source\PSoC5/HSYNC.c **** 
 848:Generated_Source\PSoC5/HSYNC.c ****     /*******************************************************************************
 849:Generated_Source\PSoC5/HSYNC.c ****     * Function Name: HSYNC_ReadCompare2
 850:Generated_Source\PSoC5/HSYNC.c ****     ********************************************************************************
ARM GAS  C:\Users\info\AppData\Local\Temp\cclbiKcc.s 			page 54


 851:Generated_Source\PSoC5/HSYNC.c ****     *
 852:Generated_Source\PSoC5/HSYNC.c ****     * Summary:
 853:Generated_Source\PSoC5/HSYNC.c ****     *  Reads the compare value for the compare2 output.
 854:Generated_Source\PSoC5/HSYNC.c ****     *
 855:Generated_Source\PSoC5/HSYNC.c ****     * Parameters:
 856:Generated_Source\PSoC5/HSYNC.c ****     *  None
 857:Generated_Source\PSoC5/HSYNC.c ****     *
 858:Generated_Source\PSoC5/HSYNC.c ****     * Return:
 859:Generated_Source\PSoC5/HSYNC.c ****     *  uint8/uint16: Current compare value.
 860:Generated_Source\PSoC5/HSYNC.c ****     *
 861:Generated_Source\PSoC5/HSYNC.c ****     *******************************************************************************/
 862:Generated_Source\PSoC5/HSYNC.c ****     uint8 HSYNC_ReadCompare2(void) 
 863:Generated_Source\PSoC5/HSYNC.c ****     {
 864:Generated_Source\PSoC5/HSYNC.c ****         return (CY_GET_REG8(HSYNC_COMPARE2_LSB_PTR));
 865:Generated_Source\PSoC5/HSYNC.c ****     }
 866:Generated_Source\PSoC5/HSYNC.c **** 
 867:Generated_Source\PSoC5/HSYNC.c **** #endif /* (HSYNC_UseOneCompareMode) */
 868:Generated_Source\PSoC5/HSYNC.c **** 
 869:Generated_Source\PSoC5/HSYNC.c **** 
 870:Generated_Source\PSoC5/HSYNC.c **** /*******************************************************************************
 871:Generated_Source\PSoC5/HSYNC.c **** * Function Name: HSYNC_ReadPeriod
 872:Generated_Source\PSoC5/HSYNC.c **** ********************************************************************************
 873:Generated_Source\PSoC5/HSYNC.c **** *
 874:Generated_Source\PSoC5/HSYNC.c **** * Summary:
 875:Generated_Source\PSoC5/HSYNC.c **** *  Reads the period value used by the PWM hardware.
 876:Generated_Source\PSoC5/HSYNC.c **** *
 877:Generated_Source\PSoC5/HSYNC.c **** * Parameters:
 878:Generated_Source\PSoC5/HSYNC.c **** *  None
 879:Generated_Source\PSoC5/HSYNC.c **** *
 880:Generated_Source\PSoC5/HSYNC.c **** * Return:
 881:Generated_Source\PSoC5/HSYNC.c **** *  uint8/16: Period value
 882:Generated_Source\PSoC5/HSYNC.c **** *
 883:Generated_Source\PSoC5/HSYNC.c **** *******************************************************************************/
 884:Generated_Source\PSoC5/HSYNC.c **** uint8 HSYNC_ReadPeriod(void) 
 885:Generated_Source\PSoC5/HSYNC.c **** {
 847              		.loc 1 885 0
 848              		.cfi_startproc
 849              		@ args = 0, pretend = 0, frame = 0
 850              		@ frame_needed = 0, uses_anonymous_args = 0
 851              		@ link register save eliminated.
 886:Generated_Source\PSoC5/HSYNC.c ****     #if(HSYNC_UsingFixedFunction)
 887:Generated_Source\PSoC5/HSYNC.c ****         return ((uint8)CY_GET_REG16(HSYNC_PERIOD_LSB_PTR));
 888:Generated_Source\PSoC5/HSYNC.c ****     #else
 889:Generated_Source\PSoC5/HSYNC.c ****         return (CY_GET_REG8(HSYNC_PERIOD_LSB_PTR));
 852              		.loc 1 889 0
 853 0000 014B     		ldr	r3, .L41
 854 0002 1878     		ldrb	r0, [r3]	@ zero_extendqisi2
 890:Generated_Source\PSoC5/HSYNC.c ****     #endif /* (HSYNC_UsingFixedFunction) */
 891:Generated_Source\PSoC5/HSYNC.c **** }
 855              		.loc 1 891 0
 856 0004 7047     		bx	lr
 857              	.L42:
 858 0006 00BF     		.align	2
 859              	.L41:
 860 0008 4F640040 		.word	1073767503
 861              		.cfi_endproc
 862              	.LFE12:
ARM GAS  C:\Users\info\AppData\Local\Temp\cclbiKcc.s 			page 55


 863              		.size	HSYNC_ReadPeriod, .-HSYNC_ReadPeriod
 864              		.global	HSYNC_initVar
 865              		.bss
 866              		.set	.LANCHOR0,. + 0
 867              		.type	HSYNC_initVar, %object
 868              		.size	HSYNC_initVar, 1
 869              	HSYNC_initVar:
 870 0000 00       		.space	1
 871              		.text
 872              	.Letext0:
 873              		.file 2 "Generated_Source\\PSoC5\\cytypes.h"