ARM GAS  C:\Users\info\AppData\Local\Temp\ccfErTJ0.s 			page 1


   1              		.syntax unified
   2              		.cpu cortex-m3
   3              		.fpu softvfp
   4              		.eabi_attribute 20, 1
   5              		.eabi_attribute 21, 1
   6              		.eabi_attribute 23, 3
   7              		.eabi_attribute 24, 1
   8              		.eabi_attribute 25, 1
   9              		.eabi_attribute 26, 1
  10              		.eabi_attribute 30, 1
  11              		.eabi_attribute 34, 1
  12              		.eabi_attribute 18, 4
  13              		.thumb
  14              		.syntax unified
  15              		.file	"keybd.c"
  16              		.text
  17              	.Ltext0:
  18              		.cfi_sections	.debug_frame
  19              		.section	.text.key_pressed,"ax",%progbits
  20              		.align	2
  21              		.global	key_pressed
  22              		.thumb
  23              		.thumb_func
  24              		.type	key_pressed, %function
  25              	key_pressed:
  26              	.LFB63:
  27              		.file 1 "keybd.c"
   1:keybd.c       **** #include "project.h"
   2:keybd.c       **** #include "chip8.h"
   3:keybd.c       **** 
   4:keybd.c       **** /* Column Write Functions */
   5:keybd.c       **** void (*col_wr[4])(uint8_t) = 
   6:keybd.c       ****             {&Col_1_Write, &Col_2_Write, &Col_3_Write, &Col_4_Write};
   7:keybd.c       **** 
   8:keybd.c       **** /* Row Read Functions */
   9:keybd.c       **** uint8_t (*row_rd[4])() = 
  10:keybd.c       ****             {&Row_1_Read, &Row_2_Read, &Row_3_Read, &Row_4_Read};
  11:keybd.c       ****             
  12:keybd.c       **** uint8_t p2v[] = {0x1, 0x2, 0x3, 0xc,
  13:keybd.c       ****                  0x4, 0x5, 0x6, 0xd,
  14:keybd.c       ****                  0x7, 0x8, 0x9, 0xe,
  15:keybd.c       ****                  0xa, 0x0, 0xb, 0xf};
  16:keybd.c       **** 
  17:keybd.c       **** uint8_t v2p[] = {0xd, 0x0, 0x1, 0x2,
  18:keybd.c       ****                  0x4, 0x5, 0x6, 0x8,
  19:keybd.c       ****                  0x9, 0xa, 0xc, 0xe,
  20:keybd.c       ****                  0x3, 0x7, 0xb, 0xf};
  21:keybd.c       ****             
  22:keybd.c       **** uint8_t key_pressed(uint8_t vkey){
  28              		.loc 1 22 0
  29              		.cfi_startproc
  30              		@ args = 0, pretend = 0, frame = 0
  31              		@ frame_needed = 0, uses_anonymous_args = 0
  32              	.LVL0:
  33 0000 70B5     		push	{r4, r5, r6, lr}
  34              		.cfi_def_cfa_offset 16
  35              		.cfi_offset 4, -16
ARM GAS  C:\Users\info\AppData\Local\Temp\ccfErTJ0.s 			page 2


  36              		.cfi_offset 5, -12
  37              		.cfi_offset 6, -8
  38              		.cfi_offset 14, -4
  23:keybd.c       ****     /* Determine row and column numbers */
  24:keybd.c       ****     uint8_t key = v2p[vkey];
  39              		.loc 1 24 0
  40 0002 0E4D     		ldr	r5, .L3
  41 0004 2C5C     		ldrb	r4, [r5, r0]	@ zero_extendqisi2
  42              	.LVL1:
  25:keybd.c       ****     uint8_t row = (key & 0xc) >> 2;
  43              		.loc 1 25 0
  44 0006 C4F38106 		ubfx	r6, r4, #2, #2
  45              	.LVL2:
  26:keybd.c       ****     uint8_t col = (key & 0x3);
  46              		.loc 1 26 0
  47 000a 04F00304 		and	r4, r4, #3
  48              	.LVL3:
  27:keybd.c       ****     
  28:keybd.c       ****     uint8_t pressed = 0;
  29:keybd.c       ****     
  30:keybd.c       ****     /* Assert column line and read row line */
  31:keybd.c       ****     (*col_wr[col])(1);
  49              		.loc 1 31 0
  50 000e 05EB8404 		add	r4, r5, r4, lsl #2
  51              	.LVL4:
  52 0012 2369     		ldr	r3, [r4, #16]
  53 0014 0120     		movs	r0, #1
  54              	.LVL5:
  55 0016 9847     		blx	r3
  56              	.LVL6:
  32:keybd.c       ****     CyDelay(1);
  57              		.loc 1 32 0
  58 0018 0120     		movs	r0, #1
  59 001a FFF7FEFF 		bl	CyDelay
  60              	.LVL7:
  33:keybd.c       ****     pressed = (*row_rd[row])() ? 1 : 0;
  61              		.loc 1 33 0
  62 001e 05EB8605 		add	r5, r5, r6, lsl #2
  63 0022 2B6A     		ldr	r3, [r5, #32]
  64 0024 9847     		blx	r3
  65              	.LVL8:
  66 0026 051C     		adds	r5, r0, #0
  67 0028 18BF     		it	ne
  68 002a 0125     		movne	r5, #1
  69              	.LVL9:
  34:keybd.c       ****     (*col_wr[col])(0);
  70              		.loc 1 34 0
  71 002c 2369     		ldr	r3, [r4, #16]
  72 002e 0020     		movs	r0, #0
  73 0030 9847     		blx	r3
  74              	.LVL10:
  35:keybd.c       ****     CyDelay(1);
  75              		.loc 1 35 0
  76 0032 0120     		movs	r0, #1
  77 0034 FFF7FEFF 		bl	CyDelay
  78              	.LVL11:
  36:keybd.c       ****     return pressed;
ARM GAS  C:\Users\info\AppData\Local\Temp\ccfErTJ0.s 			page 3


  37:keybd.c       **** }
  79              		.loc 1 37 0
  80 0038 2846     		mov	r0, r5
  81 003a 70BD     		pop	{r4, r5, r6, pc}
  82              	.LVL12:
  83              	.L4:
  84              		.align	2
  85              	.L3:
  86 003c 00000000 		.word	.LANCHOR0
  87              		.cfi_endproc
  88              	.LFE63:
  89              		.size	key_pressed, .-key_pressed
  90              		.section	.text.wait_key,"ax",%progbits
  91              		.align	2
  92              		.global	wait_key
  93              		.thumb
  94              		.thumb_func
  95              		.type	wait_key, %function
  96              	wait_key:
  97              	.LFB64:
  38:keybd.c       **** 
  39:keybd.c       **** uint8_t wait_key(){
  98              		.loc 1 39 0
  99              		.cfi_startproc
 100              		@ args = 0, pretend = 0, frame = 0
 101              		@ frame_needed = 0, uses_anonymous_args = 0
 102 0000 70B5     		push	{r4, r5, r6, lr}
 103              		.cfi_def_cfa_offset 16
 104              		.cfi_offset 4, -16
 105              		.cfi_offset 5, -12
 106              		.cfi_offset 6, -8
 107              		.cfi_offset 14, -4
 108              	.L10:
 109              	.LVL13:
 110              	.LBB2:
  40:keybd.c       ****     while(1){
  41:keybd.c       ****         for (uint8_t row = 0; row < 4; row++){
 111              		.loc 1 41 0
 112 0002 0025     		movs	r5, #0
 113 0004 11E0     		b	.L6
 114              	.LVL14:
 115              	.L8:
 116              	.LBB3:
 117              	.LBB4:
  42:keybd.c       ****             for (uint8_t col = 0; col < 4; col++){
  43:keybd.c       ****                 uint8_t key = p2v[row*4 + col];
 118              		.loc 1 43 0
 119 0006 04EB8503 		add	r3, r4, r5, lsl #2
 120 000a 0A4A     		ldr	r2, .L14
 121 000c 1344     		add	r3, r3, r2
 122 000e 93F83060 		ldrb	r6, [r3, #48]	@ zero_extendqisi2
 123              	.LVL15:
  44:keybd.c       ****                 if (key_pressed(key)){
 124              		.loc 1 44 0
 125 0012 3046     		mov	r0, r6
 126 0014 FFF7FEFF 		bl	key_pressed
 127              	.LVL16:
ARM GAS  C:\Users\info\AppData\Local\Temp\ccfErTJ0.s 			page 4


 128 0018 50B9     		cbnz	r0, .L12
 129              	.LBE4:
  42:keybd.c       ****             for (uint8_t col = 0; col < 4; col++){
 130              		.loc 1 42 0 discriminator 2
 131 001a 0134     		adds	r4, r4, #1
 132              	.LVL17:
 133 001c E4B2     		uxtb	r4, r4
 134              	.LVL18:
 135 001e 00E0     		b	.L9
 136              	.LVL19:
 137              	.L11:
 138              	.LBE3:
 139 0020 0024     		movs	r4, #0
 140              	.L9:
 141              	.LVL20:
 142              	.LBB5:
  42:keybd.c       ****             for (uint8_t col = 0; col < 4; col++){
 143              		.loc 1 42 0 is_stmt 0 discriminator 1
 144 0022 032C     		cmp	r4, #3
 145 0024 EFD9     		bls	.L8
 146              	.LBE5:
  41:keybd.c       ****             for (uint8_t col = 0; col < 4; col++){
 147              		.loc 1 41 0 is_stmt 1 discriminator 2
 148 0026 0135     		adds	r5, r5, #1
 149              	.LVL21:
 150 0028 EDB2     		uxtb	r5, r5
 151              	.LVL22:
 152              	.L6:
  41:keybd.c       ****             for (uint8_t col = 0; col < 4; col++){
 153              		.loc 1 41 0 is_stmt 0 discriminator 1
 154 002a 032D     		cmp	r5, #3
 155 002c F8D9     		bls	.L11
 156 002e E8E7     		b	.L10
 157              	.LVL23:
 158              	.L12:
 159              	.LBE2:
  45:keybd.c       ****                     return key;
  46:keybd.c       ****                 }
  47:keybd.c       ****             }
  48:keybd.c       ****         }
  49:keybd.c       ****     }
  50:keybd.c       **** }
 160              		.loc 1 50 0 is_stmt 1
 161 0030 3046     		mov	r0, r6
 162 0032 70BD     		pop	{r4, r5, r6, pc}
 163              	.LVL24:
 164              	.L15:
 165              		.align	2
 166              	.L14:
 167 0034 00000000 		.word	.LANCHOR0
 168              		.cfi_endproc
 169              	.LFE64:
 170              		.size	wait_key, .-wait_key
 171              		.global	v2p
 172              		.global	p2v
 173              		.global	row_rd
 174              		.global	col_wr
ARM GAS  C:\Users\info\AppData\Local\Temp\ccfErTJ0.s 			page 5


 175              		.data
 176              		.align	2
 177              		.set	.LANCHOR0,. + 0
 178              		.type	v2p, %object
 179              		.size	v2p, 16
 180              	v2p:
 181 0000 0D       		.byte	13
 182 0001 00       		.byte	0
 183 0002 01       		.byte	1
 184 0003 02       		.byte	2
 185 0004 04       		.byte	4
 186 0005 05       		.byte	5
 187 0006 06       		.byte	6
 188 0007 08       		.byte	8
 189 0008 09       		.byte	9
 190 0009 0A       		.byte	10
 191 000a 0C       		.byte	12
 192 000b 0E       		.byte	14
 193 000c 03       		.byte	3
 194 000d 07       		.byte	7
 195 000e 0B       		.byte	11
 196 000f 0F       		.byte	15
 197              		.type	col_wr, %object
 198              		.size	col_wr, 16
 199              	col_wr:
 200 0010 00000000 		.word	Col_1_Write
 201 0014 00000000 		.word	Col_2_Write
 202 0018 00000000 		.word	Col_3_Write
 203 001c 00000000 		.word	Col_4_Write
 204              		.type	row_rd, %object
 205              		.size	row_rd, 16
 206              	row_rd:
 207 0020 00000000 		.word	Row_1_Read
 208 0024 00000000 		.word	Row_2_Read
 209 0028 00000000 		.word	Row_3_Read
 210 002c 00000000 		.word	Row_4_Read
 211              		.type	p2v, %object
 212              		.size	p2v, 16
 213              	p2v:
 214 0030 01       		.byte	1
 215 0031 02       		.byte	2
 216 0032 03       		.byte	3
 217 0033 0C       		.byte	12
 218 0034 04       		.byte	4
 219 0035 05       		.byte	5
 220 0036 06       		.byte	6
 221 0037 0D       		.byte	13
 222 0038 07       		.byte	7
 223 0039 08       		.byte	8
 224 003a 09       		.byte	9
 225 003b 0E       		.byte	14
 226 003c 0A       		.byte	10
 227 003d 00       		.byte	0
 228 003e 0B       		.byte	11
 229 003f 0F       		.byte	15
 230              		.text
 231              	.Letext0:
ARM GAS  C:\Users\info\AppData\Local\Temp\ccfErTJ0.s 			page 6


 232              		.file 2 "c:\\program files (x86)\\cypress\\psoc creator\\4.2\\psoc creator\\import\\gnu\\arm\\5.4.
 233              		.file 3 "c:\\program files (x86)\\cypress\\psoc creator\\4.2\\psoc creator\\import\\gnu\\arm\\5.4.
 234              		.file 4 "Generated_Source\\PSoC5/core_cm3.h"
 235              		.file 5 "Generated_Source\\PSoC5/CyLib.h"