ARM GAS  C:\Users\info\AppData\Local\Temp\ccAuJzLL.s 			page 1


   1              		.syntax unified
   2              		.cpu cortex-m3
   3              		.fpu softvfp
   4              		.eabi_attribute 20, 1
   5              		.eabi_attribute 21, 1
   6              		.eabi_attribute 23, 3
   7              		.eabi_attribute 24, 1
   8              		.eabi_attribute 25, 1
   9              		.eabi_attribute 26, 1
  10              		.eabi_attribute 30, 1
  11              		.eabi_attribute 34, 1
  12              		.eabi_attribute 18, 4
  13              		.thumb
  14              		.syntax unified
  15              		.file	"main.c"
  16              		.text
  17              	.Ltext0:
  18              		.cfi_sections	.debug_frame
  19              		.section	.text.main,"ax",%progbits
  20              		.align	2
  21              		.global	main
  22              		.thumb
  23              		.thumb_func
  24              		.type	main, %function
  25              	main:
  26              	.LFB63:
  27              		.file 1 "main.c"
   1:main.c        **** /* ============================================================================
   2:main.c        ****  * CHIP8 Emulator
   3:main.c        ****  * Written By Keshav Gupta, April 2019
   4:main.c        ****  * Technical Reference: http://devernay.free.fr/hacks/chip8/C8TECH10.HTM
   5:main.c        ****  * ============================================================================
   6:main.c        **** */
   7:main.c        **** 
   8:main.c        **** #include "project.h"
   9:main.c        **** #include "ram_init_data.h"
  10:main.c        **** 
  11:main.c        **** /* Instruction Opcodes */
  12:main.c        **** #define OP3_SYSTEM 0x0
  13:main.c        **** #define OP3_JUMP_ABSOLUTE 0x1
  14:main.c        **** #define OP3_JUMP_OFFSET 0xb
  15:main.c        **** #define OP3_CALL_SUBROUTINE 0x2
  16:main.c        **** #define OP3_SKIP_NEXT_EQ_IM 0x3
  17:main.c        **** #define OP3_SKIP_NEXT_NEQ_IM 0x4
  18:main.c        **** #define OP3_SKIP_NEXT_EQ 0x5
  19:main.c        **** #define OP3_SKIP_NEXT_NEQ 0x9
  20:main.c        **** #define OP3_LOAD_V 0x6
  21:main.c        **** #define OP3_ADD_IM 0x7
  22:main.c        **** #define OP3_ARITH 0x8
  23:main.c        **** #define OP3_LOAD_I 0xa
  24:main.c        **** #define OP3_RANDOM 0xc
  25:main.c        **** #define OP3_DRAW 0xd
  26:main.c        **** #define OP3_KEYBOARD 0xe
  27:main.c        **** #define OP3_SPECIAL 0xf
  28:main.c        **** 
  29:main.c        **** #define OP2_SYSTEM 0x0
  30:main.c        **** 
ARM GAS  C:\Users\info\AppData\Local\Temp\ccAuJzLL.s 			page 2


  31:main.c        **** #define OP10_SYSTEM_CLEAR 0xe0
  32:main.c        **** #define OP10_SYSTEM_RETURN 0xee
  33:main.c        **** #define OP10_KEYBOARD_EQ 0x9e
  34:main.c        **** #define OP10_KEYBOARD_NEQ 0xa1
  35:main.c        **** #define OP10_SPECIAL_LOAD_DELAY 0x07
  36:main.c        **** #define OP10_SPECIAL_LOAD_KEYBOARD 0x0a
  37:main.c        **** #define OP10_SPECIAL_SET_DELAY 0x15
  38:main.c        **** #define OP10_SPECIAL_SET_SOUND 0x18
  39:main.c        **** #define OP10_SPECIAL_ADD_TO_I 0x1e
  40:main.c        **** #define OP10_SPECIAL_LOAD_FONT 0x29
  41:main.c        **** #define OP10_SPECIAL_LOAD_BCD 0x33
  42:main.c        **** #define OP10_SPECIAL_LOAD_AT_I 0x55
  43:main.c        **** #define OP10_SPECIAL_SET_AT_I 0x65
  44:main.c        **** 
  45:main.c        **** #define OP0_SKIP_NEXT 0x0
  46:main.c        **** #define OP0_ARITH_LOAD 0x0
  47:main.c        **** #define OP0_ARITH_OR 0x1
  48:main.c        **** #define OP0_ARITH_AND 0x2
  49:main.c        **** #define OP0_ARITH_XOR 0x3
  50:main.c        **** #define OP0_ARITH_ADD 0x4
  51:main.c        **** #define OP0_ARITH_SUB 0x5
  52:main.c        **** #define OP0_ARITH_SHR 0x6
  53:main.c        **** #define OP0_ARITH_SUBN 0x7
  54:main.c        **** #define OP0_ARITH_SHL 0xe
  55:main.c        **** 
  56:main.c        **** /* CHIP8 VRAM 
  57:main.c        ****     Each row is one 64bit number
  58:main.c        **** */
  59:main.c        **** uint64_t vram[32];
  60:main.c        **** 
  61:main.c        **** /* CHIP8 Timers 
  62:main.c        ****     Decrement each at 60Hz if not zero
  63:main.c        **** */
  64:main.c        **** uint8_t snd = 0, tmr = 0;
  65:main.c        **** 
  66:main.c        **** /* CHIP8 Keyboard 
  67:main.c        ****     keys stores the current state of each key
  68:main.c        ****         (1 = down, 0 = up)
  69:main.c        ****     lastkey stores the last key that was pressed
  70:main.c        ****     leyflag = 1 if new data available in lastkey
  71:main.c        ****         must be reset to 0 when data used
  72:main.c        **** */
  73:main.c        **** uint8_t keys[16] = {0};
  74:main.c        **** uint8_t lastkey = 0, keyflag = 0;
  75:main.c        **** 
  76:main.c        **** uint8_t RANDOM_BYTE = 0x0;
  77:main.c        **** 
  78:main.c        **** int main(void){
  28              		.loc 1 78 0
  29              		.cfi_startproc
  30              		@ args = 0, pretend = 0, frame = 4184
  31              		@ frame_needed = 0, uses_anonymous_args = 0
  32 0000 2DE9F04F 		push	{r4, r5, r6, r7, r8, r9, r10, fp, lr}
  33              		.cfi_def_cfa_offset 36
  34              		.cfi_offset 4, -36
  35              		.cfi_offset 5, -32
  36              		.cfi_offset 6, -28
ARM GAS  C:\Users\info\AppData\Local\Temp\ccAuJzLL.s 			page 3


  37              		.cfi_offset 7, -24
  38              		.cfi_offset 8, -20
  39              		.cfi_offset 9, -16
  40              		.cfi_offset 10, -12
  41              		.cfi_offset 11, -8
  42              		.cfi_offset 14, -4
  43 0004 ADF5825D 		sub	sp, sp, #4160
  44              		.cfi_def_cfa_offset 4196
  45 0008 87B0     		sub	sp, sp, #28
  46              		.cfi_def_cfa_offset 4224
  79:main.c        ****     /* Enable global interrupts. */
  80:main.c        ****     CyGlobalIntEnable;
  47              		.loc 1 80 0
  48              		.syntax unified
  49              	@ 80 "main.c" 1
  50 000a 62B6     		CPSIE   i
  51              	@ 0 "" 2
  81:main.c        ****     
  82:main.c        ****     /* CHIP8 RAM*/
  83:main.c        ****     uint8_t ram[4096] = RAM_INITIAL_DATA;
  52              		.loc 1 83 0
  53              		.thumb
  54              		.syntax unified
  55 000c 4FF48052 		mov	r2, #4096
  56 0010 0021     		movs	r1, #0
  57 0012 16A8     		add	r0, sp, #88
  58 0014 FFF7FEFF 		bl	memset
  59              	.LVL0:
  60 0018 F023     		movs	r3, #240
  61 001a 8DF85830 		strb	r3, [sp, #88]
  62 001e 9021     		movs	r1, #144
  63 0020 8DF85910 		strb	r1, [sp, #89]
  64 0024 8DF85A10 		strb	r1, [sp, #90]
  65 0028 8DF85B10 		strb	r1, [sp, #91]
  66 002c 8DF85C30 		strb	r3, [sp, #92]
  67 0030 2024     		movs	r4, #32
  68 0032 8DF85D40 		strb	r4, [sp, #93]
  69 0036 4FF06008 		mov	r8, #96
  70 003a 8DF85E80 		strb	r8, [sp, #94]
  71 003e 8DF85F40 		strb	r4, [sp, #95]
  72 0042 8DF86040 		strb	r4, [sp, #96]
  73 0046 7022     		movs	r2, #112
  74 0048 8DF86120 		strb	r2, [sp, #97]
  75 004c 8DF86230 		strb	r3, [sp, #98]
  76 0050 1022     		movs	r2, #16
  77 0052 8DF86320 		strb	r2, [sp, #99]
  78 0056 8DF86430 		strb	r3, [sp, #100]
  79 005a 8020     		movs	r0, #128
  80 005c 8DF86500 		strb	r0, [sp, #101]
  81 0060 8DF86630 		strb	r3, [sp, #102]
  82 0064 8DF86730 		strb	r3, [sp, #103]
  83 0068 8DF86820 		strb	r2, [sp, #104]
  84 006c 8DF86930 		strb	r3, [sp, #105]
  85 0070 8DF86A20 		strb	r2, [sp, #106]
  86 0074 8DF86B30 		strb	r3, [sp, #107]
  87 0078 8DF86C10 		strb	r1, [sp, #108]
  88 007c 8DF86D10 		strb	r1, [sp, #109]
ARM GAS  C:\Users\info\AppData\Local\Temp\ccAuJzLL.s 			page 4


  89 0080 8DF86E30 		strb	r3, [sp, #110]
  90 0084 8DF86F20 		strb	r2, [sp, #111]
  91 0088 8DF87020 		strb	r2, [sp, #112]
  92 008c 8DF87130 		strb	r3, [sp, #113]
  93 0090 8DF87200 		strb	r0, [sp, #114]
  94 0094 8DF87330 		strb	r3, [sp, #115]
  95 0098 8DF87420 		strb	r2, [sp, #116]
  96 009c 8DF87530 		strb	r3, [sp, #117]
  97 00a0 8DF87630 		strb	r3, [sp, #118]
  98 00a4 8DF87700 		strb	r0, [sp, #119]
  99 00a8 8DF87830 		strb	r3, [sp, #120]
 100 00ac 8DF87910 		strb	r1, [sp, #121]
 101 00b0 8DF87A30 		strb	r3, [sp, #122]
 102 00b4 8DF87B30 		strb	r3, [sp, #123]
 103 00b8 8DF87C20 		strb	r2, [sp, #124]
 104 00bc 8DF87D40 		strb	r4, [sp, #125]
 105 00c0 4024     		movs	r4, #64
 106 00c2 8DF87E40 		strb	r4, [sp, #126]
 107 00c6 8DF87F40 		strb	r4, [sp, #127]
 108 00ca 8DF88030 		strb	r3, [sp, #128]
 109 00ce 8DF88110 		strb	r1, [sp, #129]
 110 00d2 8DF88230 		strb	r3, [sp, #130]
 111 00d6 8DF88310 		strb	r1, [sp, #131]
 112 00da 8DF88430 		strb	r3, [sp, #132]
 113 00de 8DF88530 		strb	r3, [sp, #133]
 114 00e2 8DF88610 		strb	r1, [sp, #134]
 115 00e6 8DF88730 		strb	r3, [sp, #135]
 116 00ea 8DF88820 		strb	r2, [sp, #136]
 117 00ee 8DF88930 		strb	r3, [sp, #137]
 118 00f2 8DF88A30 		strb	r3, [sp, #138]
 119 00f6 8DF88B10 		strb	r1, [sp, #139]
 120 00fa 8DF88C30 		strb	r3, [sp, #140]
 121 00fe 8DF88D10 		strb	r1, [sp, #141]
 122 0102 8DF88E10 		strb	r1, [sp, #142]
 123 0106 E024     		movs	r4, #224
 124 0108 8DF88F40 		strb	r4, [sp, #143]
 125 010c 8DF89010 		strb	r1, [sp, #144]
 126 0110 8DF89140 		strb	r4, [sp, #145]
 127 0114 8DF89210 		strb	r1, [sp, #146]
 128 0118 8DF89340 		strb	r4, [sp, #147]
 129 011c 8DF89430 		strb	r3, [sp, #148]
 130 0120 8DF89500 		strb	r0, [sp, #149]
 131 0124 8DF89600 		strb	r0, [sp, #150]
 132 0128 8DF89700 		strb	r0, [sp, #151]
 133 012c 8DF89830 		strb	r3, [sp, #152]
 134 0130 8DF89940 		strb	r4, [sp, #153]
 135 0134 8DF89A10 		strb	r1, [sp, #154]
 136 0138 8DF89B10 		strb	r1, [sp, #155]
 137 013c 8DF89C10 		strb	r1, [sp, #156]
 138 0140 8DF89D40 		strb	r4, [sp, #157]
 139 0144 8DF89E30 		strb	r3, [sp, #158]
 140 0148 8DF89F00 		strb	r0, [sp, #159]
 141 014c 8DF8A030 		strb	r3, [sp, #160]
 142 0150 8DF8A100 		strb	r0, [sp, #161]
 143 0154 8DF8A230 		strb	r3, [sp, #162]
 144 0158 8DF8A330 		strb	r3, [sp, #163]
 145 015c 8DF8A400 		strb	r0, [sp, #164]
ARM GAS  C:\Users\info\AppData\Local\Temp\ccAuJzLL.s 			page 5


 146 0160 8DF8A530 		strb	r3, [sp, #165]
 147 0164 8DF8A600 		strb	r0, [sp, #166]
 148 0168 8DF8A700 		strb	r0, [sp, #167]
 149 016c 8DF85942 		strb	r4, [sp, #601]
 150 0170 6320     		movs	r0, #99
 151 0172 8DF85A02 		strb	r0, [sp, #602]
 152 0176 6424     		movs	r4, #100
 153 0178 8DF85C42 		strb	r4, [sp, #604]
 154 017c 0125     		movs	r5, #1
 155 017e 8DF85D52 		strb	r5, [sp, #605]
 156 0182 6521     		movs	r1, #101
 157 0184 8DF85E12 		strb	r1, [sp, #606]
 158 0188 EE27     		movs	r7, #238
 159 018a 8DF85F72 		strb	r7, [sp, #607]
 160 018e 4FF03506 		mov	r6, #53
 161 0192 8DF86062 		strb	r6, [sp, #608]
 162 0196 8DF86172 		strb	r7, [sp, #609]
 163 019a 1326     		movs	r6, #19
 164 019c 8DF86262 		strb	r6, [sp, #610]
 165 01a0 8DF86322 		strb	r2, [sp, #611]
 166 01a4 8DF86402 		strb	r0, [sp, #612]
 167 01a8 8DF86642 		strb	r4, [sp, #614]
 168 01ac 4FF0020E 		mov	lr, #2
 169 01b0 8DF867E2 		strb	lr, [sp, #615]
 170 01b4 8DF86812 		strb	r1, [sp, #616]
 171 01b8 8DF86972 		strb	r7, [sp, #617]
 172 01bc 4FF0660C 		mov	ip, #102
 173 01c0 8DF86AC2 		strb	ip, [sp, #618]
 174 01c4 8DF86B72 		strb	r7, [sp, #619]
 175 01c8 4FF0550E 		mov	lr, #85
 176 01cc 8DF86CE2 		strb	lr, [sp, #620]
 177 01d0 8DF86D82 		strb	r8, [sp, #621]
 178 01d4 8DF86E62 		strb	r6, [sp, #622]
 179 01d8 8DF86F22 		strb	r2, [sp, #623]
 180 01dc 8DF87002 		strb	r0, [sp, #624]
 181 01e0 8DF87242 		strb	r4, [sp, #626]
 182 01e4 4FF0030E 		mov	lr, #3
 183 01e8 8DF873E2 		strb	lr, [sp, #627]
 184 01ec 8DF87412 		strb	r1, [sp, #628]
 185 01f0 8DF87572 		strb	r7, [sp, #629]
 186 01f4 4FF0450E 		mov	lr, #69
 187 01f8 8DF876E2 		strb	lr, [sp, #630]
 188 01fc 4FF0FD0E 		mov	lr, #253
 189 0200 8DF877E2 		strb	lr, [sp, #631]
 190 0204 8DF87862 		strb	r6, [sp, #632]
 191 0208 8DF87922 		strb	r2, [sp, #633]
 192 020c 8DF87A02 		strb	r0, [sp, #634]
 193 0210 8DF87C42 		strb	r4, [sp, #636]
 194 0214 4FF0040E 		mov	lr, #4
 195 0218 8DF87DE2 		strb	lr, [sp, #637]
 196 021c 8DF87E12 		strb	r1, [sp, #638]
 197 0220 8DF87F72 		strb	r7, [sp, #639]
 198 0224 4FF0750E 		mov	lr, #117
 199 0228 8DF880E2 		strb	lr, [sp, #640]
 200 022c 8DF88152 		strb	r5, [sp, #641]
 201 0230 4FF0350E 		mov	lr, #53
 202 0234 8DF882E2 		strb	lr, [sp, #642]
ARM GAS  C:\Users\info\AppData\Local\Temp\ccAuJzLL.s 			page 6


 203 0238 4FF0EF0B 		mov	fp, #239
 204 023c 8DF883B2 		strb	fp, [sp, #643]
 205 0240 8DF88462 		strb	r6, [sp, #644]
 206 0244 8DF88522 		strb	r2, [sp, #645]
 207 0248 8DF88602 		strb	r0, [sp, #646]
 208 024c 8DF88842 		strb	r4, [sp, #648]
 209 0250 4FF0050E 		mov	lr, #5
 210 0254 8DF889E2 		strb	lr, [sp, #649]
 211 0258 4FF06F08 		mov	r8, #111
 212 025c 8DF88A82 		strb	r8, [sp, #650]
 213 0260 8DF88B52 		strb	r5, [sp, #651]
 214 0264 8DF88C12 		strb	r1, [sp, #652]
 215 0268 8DF88D72 		strb	r7, [sp, #653]
 216 026c 8DF88EC2 		strb	ip, [sp, #654]
 217 0270 8DF88FB2 		strb	fp, [sp, #655]
 218 0274 4FF0850E 		mov	lr, #133
 219 0278 8DF890E2 		strb	lr, [sp, #656]
 220 027c 8DF89112 		strb	r1, [sp, #657]
 221 0280 4FF03F0A 		mov	r10, #63
 222 0284 8DF892A2 		strb	r10, [sp, #658]
 223 0288 8DF89462 		strb	r6, [sp, #660]
 224 028c 8DF89522 		strb	r2, [sp, #661]
 225 0290 8DF89602 		strb	r0, [sp, #662]
 226 0294 8DF89842 		strb	r4, [sp, #664]
 227 0298 4FF00609 		mov	r9, #6
 228 029c 8DF89992 		strb	r9, [sp, #665]
 229 02a0 8DF89A82 		strb	r8, [sp, #666]
 230 02a4 8DF89C12 		strb	r1, [sp, #668]
 231 02a8 8DF89DB2 		strb	fp, [sp, #669]
 232 02ac 8DF89EC2 		strb	ip, [sp, #670]
 233 02b0 8DF89F72 		strb	r7, [sp, #671]
 234 02b4 8DF8A0E2 		strb	lr, [sp, #672]
 235 02b8 8DF8A112 		strb	r1, [sp, #673]
 236 02bc 8DF8A2A2 		strb	r10, [sp, #674]
 237 02c0 8DF8A352 		strb	r5, [sp, #675]
 238 02c4 8DF8A462 		strb	r6, [sp, #676]
 239 02c8 8DF8A522 		strb	r2, [sp, #677]
 240 02cc 8DF8A682 		strb	r8, [sp, #678]
 241 02d0 8DF8A802 		strb	r0, [sp, #680]
 242 02d4 8DF8AA42 		strb	r4, [sp, #682]
 243 02d8 4FF00709 		mov	r9, #7
 244 02dc 8DF8AB92 		strb	r9, [sp, #683]
 245 02e0 8DF8AC12 		strb	r1, [sp, #684]
 246 02e4 8DF8AD72 		strb	r7, [sp, #685]
 247 02e8 8DF8AEC2 		strb	ip, [sp, #686]
 248 02ec 8DF8AFB2 		strb	fp, [sp, #687]
 249 02f0 8DF8B0E2 		strb	lr, [sp, #688]
 250 02f4 4FF06709 		mov	r9, #103
 251 02f8 8DF8B192 		strb	r9, [sp, #689]
 252 02fc 8DF8B2A2 		strb	r10, [sp, #690]
 253 0300 8DF8B352 		strb	r5, [sp, #691]
 254 0304 8DF8B462 		strb	r6, [sp, #692]
 255 0308 8DF8B522 		strb	r2, [sp, #693]
 256 030c 8DF8B602 		strb	r0, [sp, #694]
 257 0310 8DF8B842 		strb	r4, [sp, #696]
 258 0314 4FF00809 		mov	r9, #8
 259 0318 8DF8B992 		strb	r9, [sp, #697]
ARM GAS  C:\Users\info\AppData\Local\Temp\ccAuJzLL.s 			page 7


 260 031c 8DF8BA82 		strb	r8, [sp, #698]
 261 0320 8DF8BB52 		strb	r5, [sp, #699]
 262 0324 8DF8BC12 		strb	r1, [sp, #700]
 263 0328 8DF8BDB2 		strb	fp, [sp, #701]
 264 032c 8DF8BEC2 		strb	ip, [sp, #702]
 265 0330 8DF8BF72 		strb	r7, [sp, #703]
 266 0334 8DF8C0E2 		strb	lr, [sp, #704]
 267 0338 4FF06707 		mov	r7, #103
 268 033c 8DF8C172 		strb	r7, [sp, #705]
 269 0340 8DF8C2A2 		strb	r10, [sp, #706]
 270 0344 8DF8C462 		strb	r6, [sp, #708]
 271 0348 8DF8C522 		strb	r2, [sp, #709]
 272 034c 8DF8C602 		strb	r0, [sp, #710]
 273 0350 8DF8C842 		strb	r4, [sp, #712]
 274 0354 0927     		movs	r7, #9
 275 0356 8DF8C972 		strb	r7, [sp, #713]
 276 035a 8DF8CA12 		strb	r1, [sp, #714]
 277 035e 8DF8CB32 		strb	r3, [sp, #715]
 278 0362 8DF8CCC2 		strb	ip, [sp, #716]
 279 0366 4FF00F09 		mov	r9, #15
 280 036a 8DF8CD92 		strb	r9, [sp, #717]
 281 036e 8DF8CEE2 		strb	lr, [sp, #718]
 282 0372 6127     		movs	r7, #97
 283 0374 8DF8CF72 		strb	r7, [sp, #719]
 284 0378 4FF03507 		mov	r7, #53
 285 037c 8DF8D072 		strb	r7, [sp, #720]
 286 0380 4FF0FF0B 		mov	fp, #255
 287 0384 8DF8D1B2 		strb	fp, [sp, #721]
 288 0388 8DF8D262 		strb	r6, [sp, #722]
 289 038c 8DF8D322 		strb	r2, [sp, #723]
 290 0390 8DF8D402 		strb	r0, [sp, #724]
 291 0394 8DF8D552 		strb	r5, [sp, #725]
 292 0398 8DF8D642 		strb	r4, [sp, #726]
 293 039c 8DF8D812 		strb	r1, [sp, #728]
 294 03a0 8DF8D932 		strb	r3, [sp, #729]
 295 03a4 8DF8DAC2 		strb	ip, [sp, #730]
 296 03a8 8DF8DB92 		strb	r9, [sp, #731]
 297 03ac 8DF8DCE2 		strb	lr, [sp, #732]
 298 03b0 6227     		movs	r7, #98
 299 03b2 8DF8DD72 		strb	r7, [sp, #733]
 300 03b6 4FF03507 		mov	r7, #53
 301 03ba 8DF8DE72 		strb	r7, [sp, #734]
 302 03be 8DF8E062 		strb	r6, [sp, #736]
 303 03c2 8DF8E122 		strb	r2, [sp, #737]
 304 03c6 8DF8E202 		strb	r0, [sp, #738]
 305 03ca 8DF8E352 		strb	r5, [sp, #739]
 306 03ce 8DF8E442 		strb	r4, [sp, #740]
 307 03d2 8DF8E552 		strb	r5, [sp, #741]
 308 03d6 8DF8E612 		strb	r1, [sp, #742]
 309 03da 8DF8E732 		strb	r3, [sp, #743]
 310 03de 8DF8E8C2 		strb	ip, [sp, #744]
 311 03e2 8DF8E992 		strb	r9, [sp, #745]
 312 03e6 8DF8EAE2 		strb	lr, [sp, #746]
 313 03ea 8DF8EB02 		strb	r0, [sp, #747]
 314 03ee 8DF8EC72 		strb	r7, [sp, #748]
 315 03f2 8DF8EDB2 		strb	fp, [sp, #749]
 316 03f6 8DF8EE62 		strb	r6, [sp, #750]
ARM GAS  C:\Users\info\AppData\Local\Temp\ccAuJzLL.s 			page 8


 317 03fa 8DF8EF22 		strb	r2, [sp, #751]
 318 03fe 8DF8F082 		strb	r8, [sp, #752]
 319 0402 8DF8F202 		strb	r0, [sp, #754]
 320 0406 8DF8F352 		strb	r5, [sp, #755]
 321 040a 8DF8F442 		strb	r4, [sp, #756]
 322 040e 4FF00203 		mov	r3, #2
 323 0412 8DF8F532 		strb	r3, [sp, #757]
 324 0416 8DF8F612 		strb	r1, [sp, #758]
 325 041a 8123     		movs	r3, #129
 326 041c 8DF8F732 		strb	r3, [sp, #759]
 327 0420 8DF8F8E2 		strb	lr, [sp, #760]
 328 0424 0E27     		movs	r7, #14
 329 0426 8DF8F972 		strb	r7, [sp, #761]
 330 042a 8DF8FAA2 		strb	r10, [sp, #762]
 331 042e 8DF8FB52 		strb	r5, [sp, #763]
 332 0432 8DF8FC62 		strb	r6, [sp, #764]
 333 0436 8DF8FD22 		strb	r2, [sp, #765]
 334 043a 8DF8FE02 		strb	r0, [sp, #766]
 335 043e 8DF8FF52 		strb	r5, [sp, #767]
 336 0442 8DF80043 		strb	r4, [sp, #768]
 337 0446 4FF00303 		mov	r3, #3
 338 044a 8DF80133 		strb	r3, [sp, #769]
 339 044e 8DF80283 		strb	r8, [sp, #770]
 340 0452 8DF80353 		strb	r5, [sp, #771]
 341 0456 8DF80413 		strb	r1, [sp, #772]
 342 045a 4723     		movs	r3, #71
 343 045c 8DF80533 		strb	r3, [sp, #773]
 344 0460 8DF806E3 		strb	lr, [sp, #774]
 345 0464 8DF80773 		strb	r7, [sp, #775]
 346 0468 8DF808A3 		strb	r10, [sp, #776]
 347 046c 8DF80A63 		strb	r6, [sp, #778]
 348 0470 8DF80B23 		strb	r2, [sp, #779]
 349 0474 8DF80C03 		strb	r0, [sp, #780]
 350 0478 8DF80D53 		strb	r5, [sp, #781]
 351 047c 8DF80E43 		strb	r4, [sp, #782]
 352 0480 4FF00403 		mov	r3, #4
 353 0484 8DF80F33 		strb	r3, [sp, #783]
 354 0488 8DF81083 		strb	r8, [sp, #784]
 355 048c 8DF81213 		strb	r1, [sp, #786]
 356 0490 2846     		mov	r0, r5
 357 0492 8DF81353 		strb	r5, [sp, #787]
 358 0496 8DF814E3 		strb	lr, [sp, #788]
 359 049a 0623     		movs	r3, #6
 360 049c 8DF81533 		strb	r3, [sp, #789]
 361 04a0 5246     		mov	r2, r10
 362 04a2 8DF816A3 		strb	r10, [sp, #790]
 363 04a6 8DF81753 		strb	r5, [sp, #791]
 364 04aa 3146     		mov	r1, r6
 365 04ac 8DF81863 		strb	r6, [sp, #792]
 366 04b0 1025     		movs	r5, #16
 367 04b2 8DF81953 		strb	r5, [sp, #793]
 368 04b6 4FF0630A 		mov	r10, #99
 369 04ba 8DF81AA3 		strb	r10, [sp, #794]
 370 04be 8DF81B03 		strb	r0, [sp, #795]
 371 04c2 4FF0640C 		mov	ip, #100
 372 04c6 8DF81CC3 		strb	ip, [sp, #796]
 373 04ca 4FF00506 		mov	r6, #5
ARM GAS  C:\Users\info\AppData\Local\Temp\ccAuJzLL.s 			page 9


 374 04ce 8DF81D63 		strb	r6, [sp, #797]
 375 04d2 8DF81E83 		strb	r8, [sp, #798]
 376 04d6 8DF81F03 		strb	r0, [sp, #799]
 377 04da 4FF06508 		mov	r8, #101
 378 04de 8DF82083 		strb	r8, [sp, #800]
 379 04e2 4FF00206 		mov	r6, #2
 380 04e6 8DF82163 		strb	r6, [sp, #801]
 381 04ea 8DF822E3 		strb	lr, [sp, #802]
 382 04ee 8DF82333 		strb	r3, [sp, #803]
 383 04f2 8DF82423 		strb	r2, [sp, #804]
 384 04f6 8DF82613 		strb	r1, [sp, #806]
 385 04fa 8DF82753 		strb	r5, [sp, #807]
 386 04fe 8DF828A3 		strb	r10, [sp, #808]
 387 0502 8DF82903 		strb	r0, [sp, #809]
 388 0506 8DF82AC3 		strb	ip, [sp, #810]
 389 050a 8DF82B33 		strb	r3, [sp, #811]
 390 050e 6023     		movs	r3, #96
 391 0510 8DF82C33 		strb	r3, [sp, #812]
 392 0514 4FF01509 		mov	r9, #21
 393 0518 8DF82D93 		strb	r9, [sp, #813]
 394 051c 6127     		movs	r7, #97
 395 051e 8DF82E73 		strb	r7, [sp, #814]
 396 0522 4FF07802 		mov	r2, #120
 397 0526 8DF82F23 		strb	r2, [sp, #815]
 398 052a 4FF0A30E 		mov	lr, #163
 399 052e 8DF830E3 		strb	lr, [sp, #816]
 400 0532 D024     		movs	r4, #208
 401 0534 8DF83143 		strb	r4, [sp, #817]
 402 0538 F122     		movs	r2, #241
 403 053a 8DF83223 		strb	r2, [sp, #818]
 404 053e 5526     		movs	r6, #85
 405 0540 8DF83363 		strb	r6, [sp, #819]
 406 0544 8DF83423 		strb	r2, [sp, #820]
 407 0548 8DF83583 		strb	r8, [sp, #821]
 408 054c 3026     		movs	r6, #48
 409 054e 8DF83663 		strb	r6, [sp, #822]
 410 0552 8DF83793 		strb	r9, [sp, #823]
 411 0556 8DF83813 		strb	r1, [sp, #824]
 412 055a 8DF83953 		strb	r5, [sp, #825]
 413 055e 3122     		movs	r2, #49
 414 0560 8DF83A23 		strb	r2, [sp, #826]
 415 0564 4FF07802 		mov	r2, #120
 416 0568 8DF83B23 		strb	r2, [sp, #827]
 417 056c 8DF83C13 		strb	r1, [sp, #828]
 418 0570 8DF83D53 		strb	r5, [sp, #829]
 419 0574 8DF83EA3 		strb	r10, [sp, #830]
 420 0578 8DF83F03 		strb	r0, [sp, #831]
 421 057c 8DF840C3 		strb	ip, [sp, #832]
 422 0580 0722     		movs	r2, #7
 423 0582 8DF84123 		strb	r2, [sp, #833]
 424 0586 8DF84233 		strb	r3, [sp, #834]
 425 058a 8A22     		movs	r2, #138
 426 058c 8DF84323 		strb	r2, [sp, #835]
 427 0590 8DF844E3 		strb	lr, [sp, #836]
 428 0594 8DF84543 		strb	r4, [sp, #837]
 429 0598 F022     		movs	r2, #240
 430 059a 8DF84623 		strb	r2, [sp, #838]
ARM GAS  C:\Users\info\AppData\Local\Temp\ccAuJzLL.s 			page 10


 431 059e 4FF0330C 		mov	ip, #51
 432 05a2 8DF847C3 		strb	ip, [sp, #839]
 433 05a6 8DF848E3 		strb	lr, [sp, #840]
 434 05aa 8DF84943 		strb	r4, [sp, #841]
 435 05ae 8DF84A23 		strb	r2, [sp, #842]
 436 05b2 8DF84B83 		strb	r8, [sp, #843]
 437 05b6 8DF84C63 		strb	r6, [sp, #844]
 438 05ba 8DF84D03 		strb	r0, [sp, #845]
 439 05be 8DF84E13 		strb	r1, [sp, #846]
 440 05c2 8DF84F53 		strb	r5, [sp, #847]
 441 05c6 8DF85033 		strb	r3, [sp, #848]
 442 05ca 8DF85103 		strb	r0, [sp, #849]
 443 05ce 8DF85223 		strb	r2, [sp, #850]
 444 05d2 4FF01E0B 		mov	fp, #30
 445 05d6 8DF853B3 		strb	fp, [sp, #851]
 446 05da 8DF85423 		strb	r2, [sp, #852]
 447 05de 8DF85583 		strb	r8, [sp, #853]
 448 05e2 8DF85663 		strb	r6, [sp, #854]
 449 05e6 4FF0030C 		mov	ip, #3
 450 05ea 8DF857C3 		strb	ip, [sp, #855]
 451 05ee 8DF85813 		strb	r1, [sp, #856]
 452 05f2 8DF85953 		strb	r5, [sp, #857]
 453 05f6 8DF85A33 		strb	r3, [sp, #858]
 454 05fa 8DF85B03 		strb	r0, [sp, #859]
 455 05fe 8DF85C23 		strb	r2, [sp, #860]
 456 0602 8DF85DB3 		strb	fp, [sp, #861]
 457 0606 8DF85E23 		strb	r2, [sp, #862]
 458 060a 8DF85F83 		strb	r8, [sp, #863]
 459 060e 8DF86063 		strb	r6, [sp, #864]
 460 0612 4FF0080C 		mov	ip, #8
 461 0616 8DF861C3 		strb	ip, [sp, #865]
 462 061a 8DF86213 		strb	r1, [sp, #866]
 463 061e 8DF86353 		strb	r5, [sp, #867]
 464 0622 8DF86413 		strb	r1, [sp, #868]
 465 0626 3220     		movs	r0, #50
 466 0628 8DF86503 		strb	r0, [sp, #869]
 467 062c 8DF86613 		strb	r1, [sp, #870]
 468 0630 4FF00E00 		mov	r0, #14
 469 0634 8DF86703 		strb	r0, [sp, #871]
 470 0638 8DF868E3 		strb	lr, [sp, #872]
 471 063c 2A20     		movs	r0, #42
 472 063e 8DF86903 		strb	r0, [sp, #873]
 473 0642 8DF86A33 		strb	r3, [sp, #874]
 474 0646 8DF86B13 		strb	r1, [sp, #875]
 475 064a 8DF86C73 		strb	r7, [sp, #876]
 476 064e 0920     		movs	r0, #9
 477 0650 8DF86D03 		strb	r0, [sp, #877]
 478 0654 8DF86E43 		strb	r4, [sp, #878]
 479 0658 4FF01808 		mov	r8, #24
 480 065c 8DF86F83 		strb	r8, [sp, #879]
 481 0660 6FF00C00 		mvn	r0, #12
 482 0664 8DF87003 		strb	r0, [sp, #880]
 483 0668 4FF02900 		mov	r0, #41
 484 066c 8DF87103 		strb	r0, [sp, #881]
 485 0670 8DF87233 		strb	r3, [sp, #882]
 486 0674 2225     		movs	r5, #34
 487 0676 8DF87353 		strb	r5, [sp, #883]
ARM GAS  C:\Users\info\AppData\Local\Temp\ccAuJzLL.s 			page 11


 488 067a 8DF87473 		strb	r7, [sp, #884]
 489 067e 0B25     		movs	r5, #11
 490 0680 8DF87553 		strb	r5, [sp, #885]
 491 0684 8DF87643 		strb	r4, [sp, #886]
 492 0688 8DF87793 		strb	r9, [sp, #887]
 493 068c 6FF00B00 		mvn	r0, #11
 494 0690 8DF87803 		strb	r0, [sp, #888]
 495 0694 4FF02900 		mov	r0, #41
 496 0698 8DF87903 		strb	r0, [sp, #889]
 497 069c 8DF87A33 		strb	r3, [sp, #890]
 498 06a0 2820     		movs	r0, #40
 499 06a2 8DF87B03 		strb	r0, [sp, #891]
 500 06a6 8DF87C73 		strb	r7, [sp, #892]
 501 06aa 8DF87D53 		strb	r5, [sp, #893]
 502 06ae 8DF87E43 		strb	r4, [sp, #894]
 503 06b2 8DF87F93 		strb	r9, [sp, #895]
 504 06b6 8DF88013 		strb	r1, [sp, #896]
 505 06ba 4FF00E00 		mov	r0, #14
 506 06be 8DF88103 		strb	r0, [sp, #897]
 507 06c2 FF20     		movs	r0, #255
 508 06c4 8DF88203 		strb	r0, [sp, #898]
 509 06c8 8DF88323 		strb	r2, [sp, #899]
 510 06cc 8DF88423 		strb	r2, [sp, #900]
 511 06d0 8DF88503 		strb	r0, [sp, #901]
 512 06d4 8DF88623 		strb	r2, [sp, #902]
 513 06d8 8DF88723 		strb	r2, [sp, #903]
 514 06dc 8DF88823 		strb	r2, [sp, #904]
 515 06e0 8DF88903 		strb	r0, [sp, #905]
 516 06e4 8DF88AE3 		strb	lr, [sp, #906]
 517 06e8 5820     		movs	r0, #88
 518 06ea 8DF88B03 		strb	r0, [sp, #907]
 519 06ee 8DF88C33 		strb	r3, [sp, #908]
 520 06f2 8DF88D93 		strb	r9, [sp, #909]
 521 06f6 8DF88E73 		strb	r7, [sp, #910]
 522 06fa 8DF88F53 		strb	r5, [sp, #911]
 523 06fe 8DF890A3 		strb	r10, [sp, #912]
 524 0702 8DF891C3 		strb	ip, [sp, #913]
 525 0706 8DF89243 		strb	r4, [sp, #914]
 526 070a 8DF89383 		strb	r8, [sp, #915]
 527 070e 7025     		movs	r5, #112
 528 0710 8DF89453 		strb	r5, [sp, #916]
 529 0714 8DF895C3 		strb	ip, [sp, #917]
 530 0718 6FF00C00 		mvn	r0, #12
 531 071c 8DF89603 		strb	r0, [sp, #918]
 532 0720 8DF897B3 		strb	fp, [sp, #919]
 533 0724 8DF89863 		strb	r6, [sp, #920]
 534 0728 2D20     		movs	r0, #45
 535 072a 8DF89903 		strb	r0, [sp, #921]
 536 072e 8DF89A13 		strb	r1, [sp, #922]
 537 0732 3A20     		movs	r0, #58
 538 0734 8DF89B03 		strb	r0, [sp, #923]
 539 0738 8DF89CE3 		strb	lr, [sp, #924]
 540 073c 8DF89D53 		strb	r5, [sp, #925]
 541 0740 8DF89E33 		strb	r3, [sp, #926]
 542 0744 4FF00200 		mov	r0, #2
 543 0748 8DF89F03 		strb	r0, [sp, #927]
 544 074c 8DF8A073 		strb	r7, [sp, #928]
ARM GAS  C:\Users\info\AppData\Local\Temp\ccAuJzLL.s 			page 12


 545 0750 8DF8A183 		strb	r8, [sp, #929]
 546 0754 8DF8A2A3 		strb	r10, [sp, #930]
 547 0758 8DF8A3C3 		strb	ip, [sp, #931]
 548 075c 8DF8A443 		strb	r4, [sp, #932]
 549 0760 8DF8A583 		strb	r8, [sp, #933]
 550 0764 8DF8A653 		strb	r5, [sp, #934]
 551 0768 4FF00500 		mov	r0, #5
 552 076c 8DF8A703 		strb	r0, [sp, #935]
 553 0770 6FF00C00 		mvn	r0, #12
 554 0774 8DF8A803 		strb	r0, [sp, #936]
 555 0778 8DF8A9B3 		strb	fp, [sp, #937]
 556 077c 8DF8AA63 		strb	r6, [sp, #938]
 557 0780 3E20     		movs	r0, #62
 558 0782 8DF8AB03 		strb	r0, [sp, #939]
 559 0786 8DF8AC13 		strb	r1, [sp, #940]
 560 078a 4C20     		movs	r0, #76
 561 078c 8DF8AD03 		strb	r0, [sp, #941]
 562 0790 8DF8AE13 		strb	r1, [sp, #942]
 563 0794 4FF00E01 		mov	r1, #14
 564 0798 8DF8AF13 		strb	r1, [sp, #943]
 565 079c 8DF8B023 		strb	r2, [sp, #944]
 566 07a0 8821     		movs	r1, #136
 567 07a2 8DF8B113 		strb	r1, [sp, #945]
 568 07a6 8DF8B213 		strb	r1, [sp, #946]
 569 07aa 8DF8B323 		strb	r2, [sp, #947]
 570 07ae 8DF8B413 		strb	r1, [sp, #948]
 571 07b2 8DF8B513 		strb	r1, [sp, #949]
 572 07b6 8DF8B613 		strb	r1, [sp, #950]
 573 07ba 8DF8B723 		strb	r2, [sp, #951]
 574 07be 4FF07802 		mov	r2, #120
 575 07c2 8DF8B823 		strb	r2, [sp, #952]
 576 07c6 8422     		movs	r2, #132
 577 07c8 8DF8B923 		strb	r2, [sp, #953]
 578 07cc 8DF8BA23 		strb	r2, [sp, #954]
 579 07d0 8DF8BB23 		strb	r2, [sp, #955]
 580 07d4 8DF8BC23 		strb	r2, [sp, #956]
 581 07d8 8DF8BD23 		strb	r2, [sp, #957]
 582 07dc 8DF8BE23 		strb	r2, [sp, #958]
 583 07e0 4FF07801 		mov	r1, #120
 584 07e4 8DF8BF13 		strb	r1, [sp, #959]
 585 07e8 8DF8C023 		strb	r2, [sp, #960]
 586 07ec C421     		movs	r1, #196
 587 07ee 8DF8C113 		strb	r1, [sp, #961]
 588 07f2 A421     		movs	r1, #164
 589 07f4 8DF8C213 		strb	r1, [sp, #962]
 590 07f8 9421     		movs	r1, #148
 591 07fa 8DF8C313 		strb	r1, [sp, #963]
 592 07fe 8C21     		movs	r1, #140
 593 0800 8DF8C413 		strb	r1, [sp, #964]
 594 0804 8DF8C523 		strb	r2, [sp, #965]
 595 0808 8DF8C623 		strb	r2, [sp, #966]
 596 080c 8DF8C723 		strb	r2, [sp, #967]
 597 0810 C024     		movs	r4, #192
 598 0812 8DF8C843 		strb	r4, [sp, #968]
 599 0816 A021     		movs	r1, #160
 600 0818 8DF8C913 		strb	r1, [sp, #969]
 601 081c 8DF8CA13 		strb	r1, [sp, #970]
ARM GAS  C:\Users\info\AppData\Local\Temp\ccAuJzLL.s 			page 13


 602 0820 8DF8CB43 		strb	r4, [sp, #971]
 603 0824 8DF8CC13 		strb	r1, [sp, #972]
 604 0828 8DF8CD13 		strb	r1, [sp, #973]
 605 082c 8DF8CE43 		strb	r4, [sp, #974]
 606 0830 8DF8D213 		strb	r1, [sp, #978]
 607 0834 8DF8D313 		strb	r1, [sp, #979]
 608 0838 E026     		movs	r6, #224
 609 083a 8DF8D463 		strb	r6, [sp, #980]
 610 083e 2022     		movs	r2, #32
 611 0840 8DF8D523 		strb	r2, [sp, #981]
 612 0844 8DF8D623 		strb	r2, [sp, #982]
 613 0848 8DF8D763 		strb	r6, [sp, #983]
 614 084c 8DF8E043 		strb	r4, [sp, #992]
 615 0850 8DF8E113 		strb	r1, [sp, #993]
 616 0854 8DF8E213 		strb	r1, [sp, #994]
 617 0858 8DF8E343 		strb	r4, [sp, #995]
 618 085c 8DF8E413 		strb	r1, [sp, #996]
 619 0860 8DF8E513 		strb	r1, [sp, #997]
 620 0864 8DF8E643 		strb	r4, [sp, #998]
 621 0868 8DF8EA33 		strb	r3, [sp, #1002]
 622 086c 8DF8EB13 		strb	r1, [sp, #1003]
 623 0870 8DF8EC43 		strb	r4, [sp, #1004]
 624 0874 8020     		movs	r0, #128
 625 0876 8DF8ED03 		strb	r0, [sp, #1005]
 626 087a 8DF8EE33 		strb	r3, [sp, #1006]
 627 087e 8DF8F233 		strb	r3, [sp, #1010]
 628 0882 8DF8F303 		strb	r0, [sp, #1011]
 629 0886 4025     		movs	r5, #64
 630 0888 8DF8F453 		strb	r5, [sp, #1012]
 631 088c 8DF8F523 		strb	r2, [sp, #1013]
 632 0890 8DF8F643 		strb	r4, [sp, #1014]
 633 0894 8DF8F803 		strb	r0, [sp, #1016]
 634 0898 8DF8F903 		strb	r0, [sp, #1017]
 635 089c 8DF8FA43 		strb	r4, [sp, #1018]
 636 08a0 8DF8FB03 		strb	r0, [sp, #1019]
 637 08a4 8DF8FC03 		strb	r0, [sp, #1020]
 638 08a8 8DF8FD03 		strb	r0, [sp, #1021]
 639 08ac 8DF8FE33 		strb	r3, [sp, #1022]
 640 08b0 8DF80064 		strb	r6, [sp, #1024]
 641 08b4 8DF80104 		strb	r0, [sp, #1025]
 642 08b8 8DF80204 		strb	r0, [sp, #1026]
 643 08bc 8DF80304 		strb	r0, [sp, #1027]
 644 08c0 8DF80404 		strb	r0, [sp, #1028]
 645 08c4 8DF80504 		strb	r0, [sp, #1029]
 646 08c8 8DF80664 		strb	r6, [sp, #1030]
 647 08cc 8DF80A54 		strb	r5, [sp, #1034]
 648 08d0 8DF80B14 		strb	r1, [sp, #1035]
 649 08d4 8DF80C14 		strb	r1, [sp, #1036]
 650 08d8 8DF80D14 		strb	r1, [sp, #1037]
 651 08dc 8DF80E54 		strb	r5, [sp, #1038]
 652 08e0 8DF81024 		strb	r2, [sp, #1040]
 653 08e4 8DF81124 		strb	r2, [sp, #1041]
 654 08e8 8DF81224 		strb	r2, [sp, #1042]
 655 08ec 8DF81334 		strb	r3, [sp, #1043]
 656 08f0 8DF81414 		strb	r1, [sp, #1044]
 657 08f4 8DF81514 		strb	r1, [sp, #1045]
 658 08f8 8DF81634 		strb	r3, [sp, #1046]
ARM GAS  C:\Users\info\AppData\Local\Temp\ccAuJzLL.s 			page 14


 659 08fc 8DF81A34 		strb	r3, [sp, #1050]
 660 0900 8DF81B14 		strb	r1, [sp, #1051]
 661 0904 8DF81C44 		strb	r4, [sp, #1052]
 662 0908 8DF81D04 		strb	r0, [sp, #1053]
 663 090c 8DF81E34 		strb	r3, [sp, #1054]
 664 0910 8DF82334 		strb	r3, [sp, #1059]
 665 0914 8DF82454 		strb	r5, [sp, #1060]
 666 0918 8DF82554 		strb	r5, [sp, #1061]
 667 091c 5023     		movs	r3, #80
 668 091e 8DF82634 		strb	r3, [sp, #1062]
 669              	.LVL1:
  84:main.c        ****     
  85:main.c        ****     /* CHIP8 Register File*/
  86:main.c        ****     uint8_t v[16];
  87:main.c        ****     uint16_t i = 0;
  88:main.c        ****     uint16_t pc = 0x0200;
  89:main.c        ****     uint8_t sp = 0x00;
  90:main.c        ****     uint16_t stack[16] = {0};
 670              		.loc 1 90 0
 671 0922 0021     		movs	r1, #0
 672 0924 0AA8     		add	r0, sp, #40
 673 0926 FFF7FEFF 		bl	memset
 674              	.LVL2:
 675              	.LBB2:
  91:main.c        ****     
  92:main.c        ****     /* Clear screen */
  93:main.c        ****     for (uint8_t j = 0; j < 32; j++){
 676              		.loc 1 93 0
 677 092a 0023     		movs	r3, #0
 678 092c 08E0     		b	.L2
 679              	.LVL3:
 680              	.L3:
  94:main.c        ****         vram[j] = 0;
 681              		.loc 1 94 0 discriminator 3
 682 092e AA4A     		ldr	r2, .L83
 683 0930 02EBC302 		add	r2, r2, r3, lsl #3
 684 0934 0020     		movs	r0, #0
 685 0936 0021     		movs	r1, #0
 686 0938 C2E90001 		strd	r0, [r2]
  93:main.c        ****         vram[j] = 0;
 687              		.loc 1 93 0 discriminator 3
 688 093c 0133     		adds	r3, r3, #1
 689              	.LVL4:
 690 093e DBB2     		uxtb	r3, r3
 691              	.LVL5:
 692              	.L2:
  93:main.c        ****         vram[j] = 0;
 693              		.loc 1 93 0 is_stmt 0 discriminator 1
 694 0940 1F2B     		cmp	r3, #31
 695 0942 F4D9     		bls	.L3
 696              	.LBE2:
  95:main.c        ****     }
  96:main.c        ****     
  97:main.c        ****     /* Initialize Random Generator */
  98:main.c        ****     PRS_1_Enable();
 697              		.loc 1 98 0 is_stmt 1
 698 0944 FFF7FEFF 		bl	PRS_1_Enable
ARM GAS  C:\Users\info\AppData\Local\Temp\ccAuJzLL.s 			page 15


 699              	.LVL6:
  99:main.c        ****     PRS_1_Init();
 700              		.loc 1 99 0
 701 0948 FFF7FEFF 		bl	PRS_1_Init
 702              	.LVL7:
 100:main.c        ****     PRS_1_Start();
 703              		.loc 1 100 0
 704 094c FFF7FEFF 		bl	PRS_1_Start
 705              	.LVL8:
  89:main.c        ****     uint16_t stack[16] = {0};
 706              		.loc 1 89 0
 707 0950 4FF0000B 		mov	fp, #0
  88:main.c        ****     uint8_t sp = 0x00;
 708              		.loc 1 88 0
 709 0954 4FF40077 		mov	r7, #512
  87:main.c        ****     uint16_t pc = 0x0200;
 710              		.loc 1 87 0
 711 0958 DA46     		mov	r10, fp
 712              	.LVL9:
 713              	.L4:
 714              	.LBB3:
 101:main.c        ****     
 102:main.c        ****     /* Emulate away.. */
 103:main.c        ****     while(1){
 104:main.c        ****         /* Get the instruction at the current address */
 105:main.c        ****         uint16_t instr = (ram[pc] << 8) | ram[pc+1];
 715              		.loc 1 105 0
 716 095a 16AB     		add	r3, sp, #88
 717 095c DD5D     		ldrb	r5, [r3, r7]	@ zero_extendqisi2
 718 095e 7A1C     		adds	r2, r7, #1
 719 0960 9B5C     		ldrb	r3, [r3, r2]	@ zero_extendqisi2
 720 0962 43EA0525 		orr	r5, r3, r5, lsl #8
 721 0966 2DB2     		sxth	r5, r5
 722 0968 AEB2     		uxth	r6, r5
 723              	.LVL10:
 106:main.c        ****         
 107:main.c        ****         /* Decode the opcodes */
 108:main.c        ****         uint8_t op3 = (instr & 0xf000) >> 12;
 724              		.loc 1 108 0
 725 096a 4FEA1639 		lsr	r9, r6, #12
 726              	.LVL11:
 109:main.c        ****         uint8_t op2 = (instr & 0x0f00) >> 8;
 727              		.loc 1 109 0
 728 096e C6F30324 		ubfx	r4, r6, #8, #4
 729              	.LVL12:
 110:main.c        ****         uint8_t op10 = instr & 0x00ff;
 730              		.loc 1 110 0
 731 0972 EDB2     		uxtb	r5, r5
 732              	.LVL13:
 111:main.c        ****         uint8_t op0 = instr & 0x000f;
 733              		.loc 1 111 0
 734 0974 05F00F03 		and	r3, r5, #15
 735 0978 0893     		str	r3, [sp, #32]
 736              	.LVL14:
 112:main.c        ****         
 113:main.c        ****         /* Decode the immediates */
 114:main.c        ****         uint16_t nnn = instr & 0x0fff;
ARM GAS  C:\Users\info\AppData\Local\Temp\ccAuJzLL.s 			page 16


 737              		.loc 1 114 0
 738 097a C6F30B08 		ubfx	r8, r6, #0, #12
 739              	.LVL15:
 115:main.c        ****         uint8_t x = (instr & 0x0f00) >> 8;
 116:main.c        ****         uint8_t y = (instr & 0x00f0) >> 4;
 740              		.loc 1 116 0
 741 097e C6F30316 		ubfx	r6, r6, #4, #4
 742              	.LVL16:
 117:main.c        ****         uint8_t kk = instr & 0x00ff;
 118:main.c        ****         uint8_t n = instr & 0x000f;
 119:main.c        ****         
 120:main.c        ****         /* This flag is set if an invalid OP is encountered */
 121:main.c        ****         uint8_t invalid_op = 0;
 122:main.c        ****         
 123:main.c        ****         /* This flag is set if a new PC was set and must not be incremented */
 124:main.c        ****         uint8_t freeze_pc = 0;
 125:main.c        ****         
 126:main.c        ****         /* Randomize */
 127:main.c        ****         RANDOM_BYTE = PRS_1_Read();
 743              		.loc 1 127 0
 744 0982 FFF7FEFF 		bl	PRS_1_Read
 745              	.LVL17:
 746 0986 954B     		ldr	r3, .L83+4
 747 0988 1870     		strb	r0, [r3]
 128:main.c        ****         
 129:main.c        ****         /* Branch on opcodes and execute */
 130:main.c        ****         switch(op3){
 748              		.loc 1 130 0
 749 098a B9F10F0F 		cmp	r9, #15
 750 098e 11D8     		bhi	.L5
 751 0990 DFE819F0 		tbh	[pc, r9, lsl #1]
 752              	.L7:
 753 0994 1300     		.2byte	(.L6-.L7)/2
 754 0996 4302     		.2byte	(.L60-.L7)/2
 755 0998 3D00     		.2byte	(.L9-.L7)/2
 756 099a 4C00     		.2byte	(.L10-.L7)/2
 757 099c 5600     		.2byte	(.L11-.L7)/2
 758 099e 6000     		.2byte	(.L12-.L7)/2
 759 09a0 7E00     		.2byte	(.L13-.L7)/2
 760 09a2 8300     		.2byte	(.L14-.L7)/2
 761 09a4 8A00     		.2byte	(.L15-.L7)/2
 762 09a6 6F00     		.2byte	(.L16-.L7)/2
 763 09a8 FC00     		.2byte	(.L17-.L7)/2
 764 09aa 3700     		.2byte	(.L18-.L7)/2
 765 09ac 0001     		.2byte	(.L19-.L7)/2
 766 09ae 7001     		.2byte	(.L61-.L7)/2
 767 09b0 9501     		.2byte	(.L21-.L7)/2
 768 09b2 B701     		.2byte	(.L22-.L7)/2
 769              		.p2align 1
 770              	.L5:
 124:main.c        ****         
 771              		.loc 1 124 0
 772 09b4 0023     		movs	r3, #0
 131:main.c        ****         case OP3_SYSTEM:
 132:main.c        ****             /* System operations */
 133:main.c        ****             if (op2 != OP2_SYSTEM){
 134:main.c        ****                 invalid_op = 1;
ARM GAS  C:\Users\info\AppData\Local\Temp\ccAuJzLL.s 			page 17


 135:main.c        ****             } else {
 136:main.c        ****                 switch(op10){
 137:main.c        ****                 case OP10_SYSTEM_CLEAR:
 138:main.c        ****                     /* Clear screen */
 139:main.c        ****                     for (int j = 0; j < 32; j++){
 140:main.c        ****                         vram[j] = 0;
 141:main.c        ****                     }
 142:main.c        ****                     break;
 143:main.c        ****                 case OP10_SYSTEM_RETURN:
 144:main.c        ****                     /* Return from instruction */
 145:main.c        ****                     sp = (sp == 0x0) ? 0x0 : sp - 1;
 146:main.c        ****                     pc = stack[sp];
 147:main.c        ****                     freeze_pc = 1;
 148:main.c        ****                     break;
 149:main.c        ****                 default:
 150:main.c        ****                     invalid_op = 1;
 151:main.c        ****                     break;
 152:main.c        ****                 }
 153:main.c        ****             }
 154:main.c        ****             break;
 155:main.c        ****         case OP3_JUMP_ABSOLUTE:
 156:main.c        ****             /* Jump to absolute address nnn */
 157:main.c        ****             pc = nnn;
 158:main.c        ****             freeze_pc = 1;
 159:main.c        ****             break;
 160:main.c        ****         case OP3_JUMP_OFFSET:
 161:main.c        ****             /* Jump to absolute address nnn + offset V0 */
 162:main.c        ****             pc = nnn + v[0];
 163:main.c        ****             freeze_pc = 1;
 164:main.c        ****             break;
 165:main.c        ****         case OP3_CALL_SUBROUTINE:
 166:main.c        ****             /* Call subroutine at nnn */
 167:main.c        ****             stack[sp] = pc;
 168:main.c        ****             sp = (sp == 0xf) ? 0xf : sp + 1;
 169:main.c        ****             pc = nnn;
 170:main.c        ****             freeze_pc = 1;
 171:main.c        ****             break;
 172:main.c        ****         case OP3_SKIP_NEXT_EQ_IM:
 173:main.c        ****             /* Skip next instruction if Vx == kk */
 174:main.c        ****             if (v[x] == kk) {
 175:main.c        ****                 pc += 2;
 176:main.c        ****             }
 177:main.c        ****             break;
 178:main.c        ****         case OP3_SKIP_NEXT_NEQ_IM:
 179:main.c        ****             /* Skip next instruction if Vx != kk */
 180:main.c        ****             if (v[x] != kk) {
 181:main.c        ****                 pc += 2;
 182:main.c        ****             }
 183:main.c        ****             break;
 184:main.c        ****         case OP3_SKIP_NEXT_EQ:
 185:main.c        ****             /* Skip next instruction if Vx == Vy */
 186:main.c        ****             if (op0 == OP0_SKIP_NEXT){
 187:main.c        ****                 if (v[x] == v[y]) {
 188:main.c        ****                     pc += 2;
 189:main.c        ****                 }
 190:main.c        ****             } else {
 191:main.c        ****                 invalid_op = 1;
ARM GAS  C:\Users\info\AppData\Local\Temp\ccAuJzLL.s 			page 18


 192:main.c        ****             }
 193:main.c        ****             break;
 194:main.c        ****         case OP3_SKIP_NEXT_NEQ:
 195:main.c        ****             /* Skip next instruction if Vx != Vy */
 196:main.c        ****             if (op0 == OP0_SKIP_NEXT){
 197:main.c        ****                 if (v[x] != v[y]) {
 198:main.c        ****                     pc += 2;
 199:main.c        ****                 }
 200:main.c        ****             } else {
 201:main.c        ****                 invalid_op = 1;
 202:main.c        ****             }
 203:main.c        ****             break;
 204:main.c        ****         case OP3_LOAD_V:
 205:main.c        ****             /* Vx = kk */
 206:main.c        ****             v[x] = kk;
 207:main.c        ****             break;
 208:main.c        ****         case OP3_ADD_IM:
 209:main.c        ****             /* Vx += kk */
 210:main.c        ****             v[x] += kk;
 211:main.c        ****             break;
 212:main.c        ****         case OP3_ARITH:
 213:main.c        ****             /* Arithmetic operations */
 214:main.c        ****             switch(op0) {
 215:main.c        ****             case OP0_ARITH_LOAD:
 216:main.c        ****                 /* Vx = Vy */
 217:main.c        ****                 v[x] = v[y];
 218:main.c        ****                 break;
 219:main.c        ****             case OP0_ARITH_OR:
 220:main.c        ****                 /* Vx = Vx | Vy */
 221:main.c        ****                 v[x] |= v[y];
 222:main.c        ****                 break;
 223:main.c        ****             case OP0_ARITH_AND:
 224:main.c        ****                 /* Vx = Vx & Vy */
 225:main.c        ****                 v[x] &= v[y];
 226:main.c        ****                 break;
 227:main.c        ****             case OP0_ARITH_XOR:
 228:main.c        ****                 /* Vx = Vx ^ Vy */
 229:main.c        ****                 v[x] ^= v[y];
 230:main.c        ****                 break;
 231:main.c        ****             case OP0_ARITH_ADD:
 232:main.c        ****                 /* Vx = Vx + Vy */
 233:main.c        ****                 v[x] += v[y];
 234:main.c        ****                 break;
 235:main.c        ****             case OP0_ARITH_SUB:{
 236:main.c        ****                 /* Vx = Vx - Vy, Vf = not borrow */
 237:main.c        ****                 uint16_t vx = v[x];
 238:main.c        ****                 uint16_t vy = v[y];
 239:main.c        ****                 uint16_t diff = vx - vy;                                
 240:main.c        ****                 v[x] = diff;
 241:main.c        ****                 v[0xf] = (diff & 0x100) ? 0 : 1;
 242:main.c        ****                 break;
 243:main.c        ****             }
 244:main.c        ****             case OP0_ARITH_SHR:
 245:main.c        ****                 /* Vx = Vx >> Vy */
 246:main.c        ****                 v[0xf] = (v[x] & 0x01) ? 1 : 0;
 247:main.c        ****                 v[x] >>= 1;
 248:main.c        ****                 break;
ARM GAS  C:\Users\info\AppData\Local\Temp\ccAuJzLL.s 			page 19


 249:main.c        ****             case OP0_ARITH_SUBN:{
 250:main.c        ****                 /* Vx = Vy - Vx, Vf = not borrow */
 251:main.c        ****                 uint16_t vx = v[x];
 252:main.c        ****                 uint16_t vy = v[y];
 253:main.c        ****                 uint16_t diff = vy - vx;                                
 254:main.c        ****                 v[x] = diff;
 255:main.c        ****                 v[0xf] = (diff & 0x100) ? 0 : 1;
 256:main.c        ****                 break;
 257:main.c        ****             }
 258:main.c        ****             case OP0_ARITH_SHL:
 259:main.c        ****                 /* Vx = Vx << 1, Vf = carry */
 260:main.c        ****                 v[0xf] = (v[x] & 0x80) ? 1 : 0;
 261:main.c        ****                 v[x] <<= 1;
 262:main.c        ****                 break;
 263:main.c        ****             default:
 264:main.c        ****                 invalid_op = 1;
 265:main.c        ****                 break;
 266:main.c        ****             }
 267:main.c        ****             break;
 268:main.c        ****         case OP3_LOAD_I:
 269:main.c        ****             /* I = nnn */
 270:main.c        ****             i = nnn;
 271:main.c        ****             break;
 272:main.c        ****         case OP3_RANDOM:
 273:main.c        ****             /* Vx = (random byte) & kk */
 274:main.c        ****             v[x] = RANDOM_BYTE & kk;
 275:main.c        ****             break;
 276:main.c        ****         case OP3_DRAW:{
 277:main.c        ****             uint64_t collision = 0;
 278:main.c        ****             /* Draw sprite from I at (Vx, Vy), vf = collision, see reference */
 279:main.c        ****             for (int j = 0; j < n; j++){
 280:main.c        ****                 uint64_t row = 0;
 281:main.c        ****                 if (v[x] <= 56){
 282:main.c        ****                     row = ((uint64_t)ram[i + j]) << (56 - v[x]);
 283:main.c        ****                 } else {
 284:main.c        ****                     row = ((uint64_t)ram[i + j]) >> (v[x] - 56)
 285:main.c        ****                         | ((uint64_t)ram[i + j]) << (120 - v[x]);
 286:main.c        ****                 }
 287:main.c        ****                 collision |= vram[(v[y] + j) % 32] & row;
 288:main.c        ****                 vram[(v[y] + j) % 32] ^= row;
 289:main.c        ****             }
 290:main.c        ****             v[0xf] = collision ? 1 : 0;
 291:main.c        ****             break;
 292:main.c        ****         }
 293:main.c        ****         case OP3_KEYBOARD:
 294:main.c        ****             /* Keyboard operations */
 295:main.c        ****             switch(op10){
 296:main.c        ****             case OP10_KEYBOARD_EQ:
 297:main.c        ****                 /* Skip next instruction if Vx pressed */
 298:main.c        ****                 if (keys[v[x] & 0xf] == 1){
 299:main.c        ****                     pc += 2;
 300:main.c        ****                 }
 301:main.c        ****                 break;
 302:main.c        ****             case OP10_KEYBOARD_NEQ: 
 303:main.c        ****                 /* Skip next instruction if Vx not pressed */
 304:main.c        ****                 if (keys[v[x] & 0xf] == 0){
 305:main.c        ****                     pc += 2;
ARM GAS  C:\Users\info\AppData\Local\Temp\ccAuJzLL.s 			page 20


 306:main.c        ****                 }
 307:main.c        ****                 break;
 308:main.c        ****             default:
 309:main.c        ****                 invalid_op = 1;
 310:main.c        ****                 break;
 311:main.c        ****             }
 312:main.c        ****             break;
 313:main.c        ****         case OP3_SPECIAL:
 314:main.c        ****             /* Special instructions, see reference for each */
 315:main.c        ****             switch(op10){
 316:main.c        ****             case OP10_SPECIAL_LOAD_DELAY:
 317:main.c        ****                 /* Vx = delay timer */
 318:main.c        ****                 v[x] = tmr;
 319:main.c        ****                 break;
 320:main.c        ****             case OP10_SPECIAL_LOAD_KEYBOARD:
 321:main.c        ****                 /* Vx = keypress, blocks till something pressed */
 322:main.c        ****                 while (!keyflag);
 323:main.c        ****                 v[x] = lastkey;
 324:main.c        ****                 keyflag = 0;
 325:main.c        ****                 break;
 326:main.c        ****             case OP10_SPECIAL_SET_DELAY:
 327:main.c        ****                 /* delay timer = Vx */
 328:main.c        ****                 tmr = v[x];
 329:main.c        ****                 break;
 330:main.c        ****             case OP10_SPECIAL_SET_SOUND:
 331:main.c        ****                 /* sound timer = Vx */
 332:main.c        ****                 snd = v[x];
 333:main.c        ****                 break;
 334:main.c        ****             case OP10_SPECIAL_ADD_TO_I:
 335:main.c        ****                 /* I += Vx */
 336:main.c        ****                 i += v[x];
 337:main.c        ****                 break;
 338:main.c        ****             case OP10_SPECIAL_LOAD_FONT:
 339:main.c        ****                 /* I = location of sprite for hex digit Vx */
 340:main.c        ****                 i = (v[x] & 0xf) * 5;
 341:main.c        ****                 break;
 342:main.c        ****             case OP10_SPECIAL_LOAD_BCD:
 343:main.c        ****                 /* BCD hundreds to units of Vx in I to I+2 */
 344:main.c        ****                 ram[i] = (uint8_t)(v[x] / 100) % 10;
 345:main.c        ****                 ram[i+1] = (uint8_t)(v[x] / 10) % 10;
 346:main.c        ****                 ram[i+2] = (uint8_t)(v[x]) % 10;
 347:main.c        ****                 break;
 348:main.c        ****             case OP10_SPECIAL_LOAD_AT_I:
 349:main.c        ****                 /* Store V0 to Vx in I to I+x */
 350:main.c        ****                 for (uint8_t j = 0; j <= x; j++){
 351:main.c        ****                     ram[i + j] = v[j];
 352:main.c        ****                 }
 353:main.c        ****                 break;
 354:main.c        ****             case OP10_SPECIAL_SET_AT_I:
 355:main.c        ****                 /* Restore V0 to Vx from I to I+x */
 356:main.c        ****                 for (uint8_t j = 0; j <= x; j++){
 357:main.c        ****                     v[j] = ram[i + j];
 358:main.c        ****                 }
 359:main.c        ****                 break;
 360:main.c        ****             default:
 361:main.c        ****                 invalid_op = 1;
 362:main.c        ****                 break;
ARM GAS  C:\Users\info\AppData\Local\Temp\ccAuJzLL.s 			page 21


 363:main.c        ****             }
 364:main.c        ****             break;
 365:main.c        ****         default:
 366:main.c        ****             invalid_op = 1;
 773              		.loc 1 366 0
 774 09b6 0122     		movs	r2, #1
 775 09b8 5DE2     		b	.L8
 776              	.L6:
 133:main.c        ****                 invalid_op = 1;
 777              		.loc 1 133 0
 778 09ba 002C     		cmp	r4, #0
 779 09bc 40F03182 		bne	.L62
 136:main.c        ****                 case OP10_SYSTEM_CLEAR:
 780              		.loc 1 136 0
 781 09c0 E02D     		cmp	r5, #224
 782 09c2 0BD0     		beq	.L64
 783 09c4 EE2D     		cmp	r5, #238
 784 09c6 0FD0     		beq	.L24
 785 09c8 2EE2     		b	.L79
 786              	.LVL18:
 787              	.L25:
 788              	.LBB4:
 140:main.c        ****                     }
 789              		.loc 1 140 0 discriminator 3
 790 09ca 834A     		ldr	r2, .L83
 791 09cc 02EBC302 		add	r2, r2, r3, lsl #3
 792 09d0 0020     		movs	r0, #0
 793 09d2 0021     		movs	r1, #0
 794 09d4 C2E90001 		strd	r0, [r2]
 139:main.c        ****                         vram[j] = 0;
 795              		.loc 1 139 0 discriminator 3
 796 09d8 0133     		adds	r3, r3, #1
 797              	.LVL19:
 798 09da 00E0     		b	.L23
 799              	.LVL20:
 800              	.L64:
 801              	.LBE4:
 136:main.c        ****                 case OP10_SYSTEM_CLEAR:
 802              		.loc 1 136 0
 803 09dc 0023     		movs	r3, #0
 804              	.L23:
 805              	.LVL21:
 806              	.LBB5:
 139:main.c        ****                         vram[j] = 0;
 807              		.loc 1 139 0 discriminator 1
 808 09de 1F2B     		cmp	r3, #31
 809 09e0 F3DD     		ble	.L25
 810              	.LBE5:
 124:main.c        ****         
 811              		.loc 1 124 0
 812 09e2 0023     		movs	r3, #0
 813              	.LVL22:
 121:main.c        ****         
 814              		.loc 1 121 0
 815 09e4 1A46     		mov	r2, r3
 816 09e6 46E2     		b	.L8
 817              	.L24:
ARM GAS  C:\Users\info\AppData\Local\Temp\ccAuJzLL.s 			page 22


 145:main.c        ****                     pc = stack[sp];
 818              		.loc 1 145 0
 819 09e8 BBF1000F 		cmp	fp, #0
 820 09ec 03D0     		beq	.L26
 145:main.c        ****                     pc = stack[sp];
 821              		.loc 1 145 0 is_stmt 0 discriminator 1
 822 09ee 0BF1FF3B 		add	fp, fp, #-1
 823              	.LVL23:
 824 09f2 5FFA8BFB 		uxtb	fp, fp
 825              	.L26:
 826              	.LVL24:
 146:main.c        ****                     freeze_pc = 1;
 827              		.loc 1 146 0 is_stmt 1 discriminator 4
 828 09f6 0AAB     		add	r3, sp, #40
 829 09f8 33F81B70 		ldrh	r7, [r3, fp, lsl #1]
 830              	.LVL25:
 147:main.c        ****                     break;
 831              		.loc 1 147 0 discriminator 4
 832 09fc 0123     		movs	r3, #1
 121:main.c        ****         
 833              		.loc 1 121 0 discriminator 4
 834 09fe 0022     		movs	r2, #0
 148:main.c        ****                 default:
 835              		.loc 1 148 0 discriminator 4
 836 0a00 39E2     		b	.L8
 837              	.LVL26:
 838              	.L18:
 162:main.c        ****             freeze_pc = 1;
 839              		.loc 1 162 0
 840 0a02 9DF84870 		ldrb	r7, [sp, #72]	@ zero_extendqisi2
 841              	.LVL27:
 842 0a06 4744     		add	r7, r7, r8
 843              	.LVL28:
 163:main.c        ****             break;
 844              		.loc 1 163 0
 845 0a08 0123     		movs	r3, #1
 121:main.c        ****         
 846              		.loc 1 121 0
 847 0a0a 0022     		movs	r2, #0
 164:main.c        ****         case OP3_CALL_SUBROUTINE:
 848              		.loc 1 164 0
 849 0a0c 33E2     		b	.L8
 850              	.LVL29:
 851              	.L9:
 167:main.c        ****             sp = (sp == 0xf) ? 0xf : sp + 1;
 852              		.loc 1 167 0
 853 0a0e 0AAB     		add	r3, sp, #40
 854 0a10 23F81B70 		strh	r7, [r3, fp, lsl #1]	@ movhi
 168:main.c        ****             pc = nnn;
 855              		.loc 1 168 0
 856 0a14 BBF10F0F 		cmp	fp, #15
 857 0a18 00F00982 		beq	.L65
 168:main.c        ****             pc = nnn;
 858              		.loc 1 168 0 is_stmt 0 discriminator 1
 859 0a1c 0BF1010B 		add	fp, fp, #1
 860              	.LVL30:
 861 0a20 5FFA8BFB 		uxtb	fp, fp
ARM GAS  C:\Users\info\AppData\Local\Temp\ccAuJzLL.s 			page 23


 169:main.c        ****             freeze_pc = 1;
 862              		.loc 1 169 0 is_stmt 1 discriminator 1
 863 0a24 4746     		mov	r7, r8
 864              	.LVL31:
 170:main.c        ****             break;
 865              		.loc 1 170 0 discriminator 1
 866 0a26 0123     		movs	r3, #1
 121:main.c        ****         
 867              		.loc 1 121 0 discriminator 1
 868 0a28 0022     		movs	r2, #0
 869 0a2a 24E2     		b	.L8
 870              	.LVL32:
 871              	.L10:
 174:main.c        ****                 pc += 2;
 872              		.loc 1 174 0
 873 0a2c 12AB     		add	r3, sp, #72
 874 0a2e 1B5D     		ldrb	r3, [r3, r4]	@ zero_extendqisi2
 875 0a30 9D42     		cmp	r5, r3
 876 0a32 40F00082 		bne	.L66
 175:main.c        ****             }
 877              		.loc 1 175 0
 878 0a36 0237     		adds	r7, r7, #2
 879              	.LVL33:
 880 0a38 BFB2     		uxth	r7, r7
 881              	.LVL34:
 124:main.c        ****         
 882              		.loc 1 124 0
 883 0a3a 0023     		movs	r3, #0
 121:main.c        ****         
 884              		.loc 1 121 0
 885 0a3c 1A46     		mov	r2, r3
 886 0a3e 1AE2     		b	.L8
 887              	.LVL35:
 888              	.L11:
 180:main.c        ****                 pc += 2;
 889              		.loc 1 180 0
 890 0a40 12AB     		add	r3, sp, #72
 891 0a42 1B5D     		ldrb	r3, [r3, r4]	@ zero_extendqisi2
 892 0a44 9D42     		cmp	r5, r3
 893 0a46 00F0F981 		beq	.L67
 181:main.c        ****             }
 894              		.loc 1 181 0
 895 0a4a 0237     		adds	r7, r7, #2
 896              	.LVL36:
 897 0a4c BFB2     		uxth	r7, r7
 898              	.LVL37:
 124:main.c        ****         
 899              		.loc 1 124 0
 900 0a4e 0023     		movs	r3, #0
 121:main.c        ****         
 901              		.loc 1 121 0
 902 0a50 1A46     		mov	r2, r3
 903 0a52 10E2     		b	.L8
 904              	.LVL38:
 905              	.L12:
 186:main.c        ****                 if (v[x] == v[y]) {
 906              		.loc 1 186 0
ARM GAS  C:\Users\info\AppData\Local\Temp\ccAuJzLL.s 			page 24


 907 0a54 089B     		ldr	r3, [sp, #32]
 908 0a56 002B     		cmp	r3, #0
 909 0a58 40F0F381 		bne	.L68
 187:main.c        ****                     pc += 2;
 910              		.loc 1 187 0
 911 0a5c 12AB     		add	r3, sp, #72
 912 0a5e 1A5D     		ldrb	r2, [r3, r4]	@ zero_extendqisi2
 913 0a60 9B5D     		ldrb	r3, [r3, r6]	@ zero_extendqisi2
 914 0a62 9A42     		cmp	r2, r3
 915 0a64 40F0F081 		bne	.L69
 188:main.c        ****                 }
 916              		.loc 1 188 0
 917 0a68 0237     		adds	r7, r7, #2
 918              	.LVL39:
 919 0a6a BFB2     		uxth	r7, r7
 920              	.LVL40:
 124:main.c        ****         
 921              		.loc 1 124 0
 922 0a6c 0023     		movs	r3, #0
 121:main.c        ****         
 923              		.loc 1 121 0
 924 0a6e 1A46     		mov	r2, r3
 925 0a70 01E2     		b	.L8
 926              	.LVL41:
 927              	.L16:
 196:main.c        ****                 if (v[x] != v[y]) {
 928              		.loc 1 196 0
 929 0a72 089B     		ldr	r3, [sp, #32]
 930 0a74 002B     		cmp	r3, #0
 931 0a76 40F0EA81 		bne	.L70
 197:main.c        ****                     pc += 2;
 932              		.loc 1 197 0
 933 0a7a 12AB     		add	r3, sp, #72
 934 0a7c 1A5D     		ldrb	r2, [r3, r4]	@ zero_extendqisi2
 935 0a7e 9B5D     		ldrb	r3, [r3, r6]	@ zero_extendqisi2
 936 0a80 9A42     		cmp	r2, r3
 937 0a82 00F0E781 		beq	.L71
 198:main.c        ****                 }
 938              		.loc 1 198 0
 939 0a86 0237     		adds	r7, r7, #2
 940              	.LVL42:
 941 0a88 BFB2     		uxth	r7, r7
 942              	.LVL43:
 124:main.c        ****         
 943              		.loc 1 124 0
 944 0a8a 0023     		movs	r3, #0
 121:main.c        ****         
 945              		.loc 1 121 0
 946 0a8c 1A46     		mov	r2, r3
 947 0a8e F2E1     		b	.L8
 948              	.LVL44:
 949              	.L13:
 206:main.c        ****             break;
 950              		.loc 1 206 0
 951 0a90 12AB     		add	r3, sp, #72
 952 0a92 1D55     		strb	r5, [r3, r4]
 124:main.c        ****         
ARM GAS  C:\Users\info\AppData\Local\Temp\ccAuJzLL.s 			page 25


 953              		.loc 1 124 0
 954 0a94 0023     		movs	r3, #0
 121:main.c        ****         
 955              		.loc 1 121 0
 956 0a96 1A46     		mov	r2, r3
 207:main.c        ****         case OP3_ADD_IM:
 957              		.loc 1 207 0
 958 0a98 EDE1     		b	.L8
 959              	.L14:
 210:main.c        ****             break;
 960              		.loc 1 210 0
 961 0a9a 12AA     		add	r2, sp, #72
 962 0a9c 135D     		ldrb	r3, [r2, r4]	@ zero_extendqisi2
 963 0a9e 1D44     		add	r5, r5, r3
 964              	.LVL45:
 965 0aa0 1555     		strb	r5, [r2, r4]
 124:main.c        ****         
 966              		.loc 1 124 0
 967 0aa2 0023     		movs	r3, #0
 121:main.c        ****         
 968              		.loc 1 121 0
 969 0aa4 1A46     		mov	r2, r3
 211:main.c        ****         case OP3_ARITH:
 970              		.loc 1 211 0
 971 0aa6 E6E1     		b	.L8
 972              	.LVL46:
 973              	.L15:
 214:main.c        ****             case OP0_ARITH_LOAD:
 974              		.loc 1 214 0
 975 0aa8 089B     		ldr	r3, [sp, #32]
 976 0aaa 0E2B     		cmp	r3, #14
 977 0aac 00F2D581 		bhi	.L72
 978 0ab0 DFE813F0 		tbh	[pc, r3, lsl #1]
 979              	.L28:
 980 0ab4 0F00     		.2byte	(.L27-.L28)/2
 981 0ab6 1500     		.2byte	(.L29-.L28)/2
 982 0ab8 1D00     		.2byte	(.L30-.L28)/2
 983 0aba 2500     		.2byte	(.L31-.L28)/2
 984 0abc 2D00     		.2byte	(.L32-.L28)/2
 985 0abe 3500     		.2byte	(.L33-.L28)/2
 986 0ac0 4500     		.2byte	(.L34-.L28)/2
 987 0ac2 5100     		.2byte	(.L35-.L28)/2
 988 0ac4 D301     		.2byte	(.L72-.L28)/2
 989 0ac6 D301     		.2byte	(.L72-.L28)/2
 990 0ac8 D301     		.2byte	(.L72-.L28)/2
 991 0aca D301     		.2byte	(.L72-.L28)/2
 992 0acc D301     		.2byte	(.L72-.L28)/2
 993 0ace D301     		.2byte	(.L72-.L28)/2
 994 0ad0 6100     		.2byte	(.L36-.L28)/2
 995              		.p2align 1
 996              	.L27:
 217:main.c        ****                 break;
 997              		.loc 1 217 0
 998 0ad2 12AB     		add	r3, sp, #72
 999 0ad4 9A5D     		ldrb	r2, [r3, r6]	@ zero_extendqisi2
 1000 0ad6 1A55     		strb	r2, [r3, r4]
 124:main.c        ****         
ARM GAS  C:\Users\info\AppData\Local\Temp\ccAuJzLL.s 			page 26


 1001              		.loc 1 124 0
 1002 0ad8 0023     		movs	r3, #0
 121:main.c        ****         
 1003              		.loc 1 121 0
 1004 0ada 1A46     		mov	r2, r3
 218:main.c        ****             case OP0_ARITH_OR:
 1005              		.loc 1 218 0
 1006 0adc CBE1     		b	.L8
 1007              	.L29:
 221:main.c        ****                 break;
 1008              		.loc 1 221 0
 1009 0ade 12AB     		add	r3, sp, #72
 1010 0ae0 995D     		ldrb	r1, [r3, r6]	@ zero_extendqisi2
 1011 0ae2 1A5D     		ldrb	r2, [r3, r4]	@ zero_extendqisi2
 1012 0ae4 0A43     		orrs	r2, r2, r1
 1013 0ae6 1A55     		strb	r2, [r3, r4]
 124:main.c        ****         
 1014              		.loc 1 124 0
 1015 0ae8 0023     		movs	r3, #0
 121:main.c        ****         
 1016              		.loc 1 121 0
 1017 0aea 1A46     		mov	r2, r3
 222:main.c        ****             case OP0_ARITH_AND:
 1018              		.loc 1 222 0
 1019 0aec C3E1     		b	.L8
 1020              	.L30:
 225:main.c        ****                 break;
 1021              		.loc 1 225 0
 1022 0aee 12AB     		add	r3, sp, #72
 1023 0af0 995D     		ldrb	r1, [r3, r6]	@ zero_extendqisi2
 1024 0af2 1A5D     		ldrb	r2, [r3, r4]	@ zero_extendqisi2
 1025 0af4 0A40     		ands	r2, r2, r1
 1026 0af6 1A55     		strb	r2, [r3, r4]
 124:main.c        ****         
 1027              		.loc 1 124 0
 1028 0af8 0023     		movs	r3, #0
 121:main.c        ****         
 1029              		.loc 1 121 0
 1030 0afa 1A46     		mov	r2, r3
 226:main.c        ****             case OP0_ARITH_XOR:
 1031              		.loc 1 226 0
 1032 0afc BBE1     		b	.L8
 1033              	.L31:
 229:main.c        ****                 break;
 1034              		.loc 1 229 0
 1035 0afe 12AB     		add	r3, sp, #72
 1036 0b00 995D     		ldrb	r1, [r3, r6]	@ zero_extendqisi2
 1037 0b02 1A5D     		ldrb	r2, [r3, r4]	@ zero_extendqisi2
 1038 0b04 4A40     		eors	r2, r2, r1
 1039 0b06 1A55     		strb	r2, [r3, r4]
 124:main.c        ****         
 1040              		.loc 1 124 0
 1041 0b08 0023     		movs	r3, #0
 121:main.c        ****         
 1042              		.loc 1 121 0
 1043 0b0a 1A46     		mov	r2, r3
 230:main.c        ****             case OP0_ARITH_ADD:
ARM GAS  C:\Users\info\AppData\Local\Temp\ccAuJzLL.s 			page 27


 1044              		.loc 1 230 0
 1045 0b0c B3E1     		b	.L8
 1046              	.L32:
 233:main.c        ****                 break;
 1047              		.loc 1 233 0
 1048 0b0e 12AB     		add	r3, sp, #72
 1049 0b10 995D     		ldrb	r1, [r3, r6]	@ zero_extendqisi2
 1050 0b12 1A5D     		ldrb	r2, [r3, r4]	@ zero_extendqisi2
 1051 0b14 0A44     		add	r2, r2, r1
 1052 0b16 1A55     		strb	r2, [r3, r4]
 124:main.c        ****         
 1053              		.loc 1 124 0
 1054 0b18 0023     		movs	r3, #0
 121:main.c        ****         
 1055              		.loc 1 121 0
 1056 0b1a 1A46     		mov	r2, r3
 234:main.c        ****             case OP0_ARITH_SUB:{
 1057              		.loc 1 234 0
 1058 0b1c ABE1     		b	.L8
 1059              	.L33:
 1060              	.LBB6:
 237:main.c        ****                 uint16_t vy = v[y];
 1061              		.loc 1 237 0
 1062 0b1e 12AA     		add	r2, sp, #72
 1063 0b20 115D     		ldrb	r1, [r2, r4]	@ zero_extendqisi2
 1064              	.LVL47:
 238:main.c        ****                 uint16_t diff = vx - vy;                                
 1065              		.loc 1 238 0
 1066 0b22 905D     		ldrb	r0, [r2, r6]	@ zero_extendqisi2
 1067              	.LVL48:
 239:main.c        ****                 v[x] = diff;
 1068              		.loc 1 239 0
 1069 0b24 0B1A     		subs	r3, r1, r0
 1070              	.LVL49:
 240:main.c        ****                 v[0xf] = (diff & 0x100) ? 0 : 1;
 1071              		.loc 1 240 0
 1072 0b26 1355     		strb	r3, [r2, r4]
 241:main.c        ****                 break;
 1073              		.loc 1 241 0
 1074 0b28 C3F30723 		ubfx	r3, r3, #8, #8
 1075              	.LVL50:
 1076 0b2c 83F00103 		eor	r3, r3, #1
 1077 0b30 03F00103 		and	r3, r3, #1
 1078 0b34 8DF85730 		strb	r3, [sp, #87]
 1079              	.LBE6:
 124:main.c        ****         
 1080              		.loc 1 124 0
 1081 0b38 0023     		movs	r3, #0
 121:main.c        ****         
 1082              		.loc 1 121 0
 1083 0b3a 1A46     		mov	r2, r3
 1084              	.LBB7:
 242:main.c        ****             }
 1085              		.loc 1 242 0
 1086 0b3c 9BE1     		b	.L8
 1087              	.LVL51:
 1088              	.L34:
ARM GAS  C:\Users\info\AppData\Local\Temp\ccAuJzLL.s 			page 28


 1089              	.LBE7:
 246:main.c        ****                 v[x] >>= 1;
 1090              		.loc 1 246 0
 1091 0b3e 12AB     		add	r3, sp, #72
 1092 0b40 1A5D     		ldrb	r2, [r3, r4]	@ zero_extendqisi2
 1093 0b42 02F00102 		and	r2, r2, #1
 1094 0b46 8DF85720 		strb	r2, [sp, #87]
 247:main.c        ****                 break;
 1095              		.loc 1 247 0
 1096 0b4a 1A5D     		ldrb	r2, [r3, r4]	@ zero_extendqisi2
 1097 0b4c 5208     		lsrs	r2, r2, #1
 1098 0b4e 1A55     		strb	r2, [r3, r4]
 124:main.c        ****         
 1099              		.loc 1 124 0
 1100 0b50 0023     		movs	r3, #0
 121:main.c        ****         
 1101              		.loc 1 121 0
 1102 0b52 1A46     		mov	r2, r3
 248:main.c        ****             case OP0_ARITH_SUBN:{
 1103              		.loc 1 248 0
 1104 0b54 8FE1     		b	.L8
 1105              	.L35:
 1106              	.LBB8:
 251:main.c        ****                 uint16_t vy = v[y];
 1107              		.loc 1 251 0
 1108 0b56 12AA     		add	r2, sp, #72
 1109 0b58 105D     		ldrb	r0, [r2, r4]	@ zero_extendqisi2
 1110              	.LVL52:
 252:main.c        ****                 uint16_t diff = vy - vx;                                
 1111              		.loc 1 252 0
 1112 0b5a 915D     		ldrb	r1, [r2, r6]	@ zero_extendqisi2
 1113              	.LVL53:
 253:main.c        ****                 v[x] = diff;
 1114              		.loc 1 253 0
 1115 0b5c 0B1A     		subs	r3, r1, r0
 1116              	.LVL54:
 254:main.c        ****                 v[0xf] = (diff & 0x100) ? 0 : 1;
 1117              		.loc 1 254 0
 1118 0b5e 1355     		strb	r3, [r2, r4]
 255:main.c        ****                 break;
 1119              		.loc 1 255 0
 1120 0b60 C3F30723 		ubfx	r3, r3, #8, #8
 1121              	.LVL55:
 1122 0b64 83F00103 		eor	r3, r3, #1
 1123 0b68 03F00103 		and	r3, r3, #1
 1124 0b6c 8DF85730 		strb	r3, [sp, #87]
 1125              	.LBE8:
 124:main.c        ****         
 1126              		.loc 1 124 0
 1127 0b70 0023     		movs	r3, #0
 121:main.c        ****         
 1128              		.loc 1 121 0
 1129 0b72 1A46     		mov	r2, r3
 1130              	.LBB9:
 256:main.c        ****             }
 1131              		.loc 1 256 0
 1132 0b74 7FE1     		b	.L8
ARM GAS  C:\Users\info\AppData\Local\Temp\ccAuJzLL.s 			page 29


 1133              	.LVL56:
 1134              	.L36:
 1135              	.LBE9:
 260:main.c        ****                 v[x] <<= 1;
 1136              		.loc 1 260 0
 1137 0b76 12AB     		add	r3, sp, #72
 1138 0b78 1A5D     		ldrb	r2, [r3, r4]	@ zero_extendqisi2
 1139 0b7a D209     		lsrs	r2, r2, #7
 1140 0b7c 8DF85720 		strb	r2, [sp, #87]
 261:main.c        ****                 break;
 1141              		.loc 1 261 0
 1142 0b80 1A5D     		ldrb	r2, [r3, r4]	@ zero_extendqisi2
 1143 0b82 5200     		lsls	r2, r2, #1
 1144 0b84 1A55     		strb	r2, [r3, r4]
 124:main.c        ****         
 1145              		.loc 1 124 0
 1146 0b86 0023     		movs	r3, #0
 121:main.c        ****         
 1147              		.loc 1 121 0
 1148 0b88 1A46     		mov	r2, r3
 262:main.c        ****             default:
 1149              		.loc 1 262 0
 1150 0b8a 74E1     		b	.L8
 1151              	.L17:
 1152              	.LVL57:
 270:main.c        ****             break;
 1153              		.loc 1 270 0
 1154 0b8c C246     		mov	r10, r8
 124:main.c        ****         
 1155              		.loc 1 124 0
 1156 0b8e 0023     		movs	r3, #0
 121:main.c        ****         
 1157              		.loc 1 121 0
 1158 0b90 1A46     		mov	r2, r3
 271:main.c        ****         case OP3_RANDOM:
 1159              		.loc 1 271 0
 1160 0b92 70E1     		b	.L8
 1161              	.LVL58:
 1162              	.L19:
 274:main.c        ****             break;
 1163              		.loc 1 274 0
 1164 0b94 2840     		ands	r0, r0, r5
 1165 0b96 12AB     		add	r3, sp, #72
 1166 0b98 1855     		strb	r0, [r3, r4]
 124:main.c        ****         
 1167              		.loc 1 124 0
 1168 0b9a 0023     		movs	r3, #0
 121:main.c        ****         
 1169              		.loc 1 121 0
 1170 0b9c 1A46     		mov	r2, r3
 275:main.c        ****         case OP3_DRAW:{
 1171              		.loc 1 275 0
 1172 0b9e 6AE1     		b	.L8
 1173              	.LVL59:
 1174              	.L40:
 1175              	.LBB10:
 1176              	.LBB11:
ARM GAS  C:\Users\info\AppData\Local\Temp\ccAuJzLL.s 			page 30


 1177              	.LBB12:
 281:main.c        ****                     row = ((uint64_t)ram[i + j]) << (56 - v[x]);
 1178              		.loc 1 281 0
 1179 0ba0 12AB     		add	r3, sp, #72
 1180 0ba2 195D     		ldrb	r1, [r3, r4]	@ zero_extendqisi2
 1181 0ba4 3829     		cmp	r1, #56
 1182 0ba6 1BD8     		bhi	.L37
 282:main.c        ****                 } else {
 1183              		.loc 1 282 0
 1184 0ba8 0AEB0E03 		add	r3, r10, lr
 1185 0bac 16AA     		add	r2, sp, #88
 1186              	.LVL60:
 1187 0bae D25C     		ldrb	r2, [r2, r3]	@ zero_extendqisi2
 1188              	.LVL61:
 1189 0bb0 C1F13801 		rsb	r1, r1, #56
 1190 0bb4 A1F12000 		sub	r0, r1, #32
 1191 0bb8 C1F12003 		rsb	r3, r1, #32
 1192 0bbc 4FF0000C 		mov	ip, #0
 1193 0bc0 02FA00F0 		lsl	r0, r2, r0
 1194 0bc4 4CEA000C 		orr	ip, ip, r0
 1195 0bc8 22FA03F3 		lsr	r3, r2, r3
 1196 0bcc 4CEA030C 		orr	ip, ip, r3
 1197 0bd0 02FA01FB 		lsl	fp, r2, r1
 1198              	.LVL62:
 1199 0bd4 27E0     		b	.L38
 1200              	.L84:
 1201 0bd6 00BF     		.align	2
 1202              	.L83:
 1203 0bd8 00000000 		.word	vram
 1204 0bdc 00000000 		.word	.LANCHOR0
 1205              	.LVL63:
 1206              	.L37:
 284:main.c        ****                         | ((uint64_t)ram[i + j]) << (120 - v[x]);
 1207              		.loc 1 284 0
 1208 0be0 0AEB0E03 		add	r3, r10, lr
 1209 0be4 16AA     		add	r2, sp, #88
 1210              	.LVL64:
 1211 0be6 D25C     		ldrb	r2, [r2, r3]	@ zero_extendqisi2
 1212              	.LVL65:
 1213 0be8 A1F13803 		sub	r3, r1, #56
 1214 0bec 22FA03F0 		lsr	r0, r2, r3
 1215 0bf0 0290     		str	r0, [sp, #8]
 1216 0bf2 0020     		movs	r0, #0
 1217 0bf4 0390     		str	r0, [sp, #12]
 285:main.c        ****                 }
 1218              		.loc 1 285 0
 1219 0bf6 C1F17801 		rsb	r1, r1, #120
 1220 0bfa A1F12000 		sub	r0, r1, #32
 1221 0bfe C1F12003 		rsb	r3, r1, #32
 1222 0c02 4FF00008 		mov	r8, #0
 1223 0c06 02FA00F0 		lsl	r0, r2, r0
 1224 0c0a 48EA0008 		orr	r8, r8, r0
 1225 0c0e 22FA03F3 		lsr	r3, r2, r3
 1226 0c12 48EA0308 		orr	r8, r8, r3
 1227 0c16 02FA01F7 		lsl	r7, r2, r1
 284:main.c        ****                         | ((uint64_t)ram[i + j]) << (120 - v[x]);
 1228              		.loc 1 284 0
ARM GAS  C:\Users\info\AppData\Local\Temp\ccAuJzLL.s 			page 31


 1229 0c1a DDE902BC 		ldrd	fp, [sp, #8]
 1230 0c1e 4BEA070B 		orr	fp, fp, r7
 1231 0c22 4CEA080C 		orr	ip, ip, r8
 1232              	.LVL66:
 1233              	.L38:
 287:main.c        ****                 vram[(v[y] + j) % 32] ^= row;
 1234              		.loc 1 287 0 discriminator 2
 1235 0c26 12AB     		add	r3, sp, #72
 1236 0c28 9B5D     		ldrb	r3, [r3, r6]	@ zero_extendqisi2
 1237 0c2a 03EB0E05 		add	r5, r3, lr
 1238 0c2e 9C4B     		ldr	r3, .L85
 1239 0c30 2B40     		ands	r3, r5, r3
 1240 0c32 03D5     		bpl	.L39
 1241 0c34 013B     		subs	r3, r3, #1
 1242 0c36 63F01F03 		orn	r3, r3, #31
 1243 0c3a 0133     		adds	r3, r3, #1
 1244              	.L39:
 1245 0c3c 994D     		ldr	r5, .L85+4
 1246 0c3e 05EBC305 		add	r5, r5, r3, lsl #3
 1247 0c42 D5E90023 		ldrd	r2, [r5]
 1248 0c46 CDE90423 		strd	r2, [sp, #16]
 1249 0c4a 02EA0B00 		and	r0, r2, fp
 1250 0c4e 03EA0C01 		and	r1, r3, ip
 1251 0c52 DDE90023 		ldrd	r2, [sp]
 1252 0c56 0243     		orrs	r2, r2, r0
 1253 0c58 0B43     		orrs	r3, r3, r1
 1254 0c5a CDE90023 		strd	r2, [sp]
 1255              	.LVL67:
 288:main.c        ****             }
 1256              		.loc 1 288 0 discriminator 2
 1257 0c5e DDE90423 		ldrd	r2, [sp, #16]
 1258              	.LVL68:
 1259 0c62 82EA0B02 		eor	r2, r2, fp
 1260 0c66 83EA0C03 		eor	r3, r3, ip
 1261 0c6a C5E90023 		strd	r2, [r5]
 1262              	.LBE12:
 279:main.c        ****                 uint64_t row = 0;
 1263              		.loc 1 279 0 discriminator 2
 1264 0c6e 0EF1010E 		add	lr, lr, #1
 1265              	.LVL69:
 1266 0c72 0EE0     		b	.L20
 1267              	.LVL70:
 1268              	.L61:
 1269              	.LBE11:
 1270              	.LBE10:
 130:main.c        ****         case OP3_SYSTEM:
 1271              		.loc 1 130 0
 1272 0c74 4FF0000E 		mov	lr, #0
 1273 0c78 4FF00008 		mov	r8, #0
 1274              	.LVL71:
 1275 0c7c 4FF00009 		mov	r9, #0
 1276              	.LVL72:
 1277 0c80 CDF824B0 		str	fp, [sp, #36]
 1278 0c84 CDE90089 		strd	r8, [sp]
 1279 0c88 B946     		mov	r9, r7
 1280 0c8a DDE904BC 		ldrd	fp, [sp, #16]
 1281              	.LVL73:
ARM GAS  C:\Users\info\AppData\Local\Temp\ccAuJzLL.s 			page 32


 1282 0c8e DDE90678 		ldrd	r7, [sp, #24]
 1283              	.LVL74:
 1284              	.L20:
 1285              	.LBB14:
 1286              	.LBB13:
 279:main.c        ****                 uint64_t row = 0;
 1287              		.loc 1 279 0 discriminator 1
 1288 0c92 089B     		ldr	r3, [sp, #32]
 1289 0c94 9E45     		cmp	lr, r3
 1290 0c96 83DB     		blt	.L40
 1291 0c98 CDE904BC 		strd	fp, [sp, #16]
 1292 0c9c DDF824B0 		ldr	fp, [sp, #36]
 1293 0ca0 CDE90678 		strd	r7, [sp, #24]
 1294 0ca4 4F46     		mov	r7, r9
 1295 0ca6 DDE90089 		ldrd	r8, [sp]
 1296              	.LBE13:
 290:main.c        ****             break;
 1297              		.loc 1 290 0
 1298 0caa 58EA0903 		orrs	r3, r8, r9
 1299 0cae 14BF     		ite	ne
 1300 0cb0 0123     		movne	r3, #1
 1301 0cb2 0023     		moveq	r3, #0
 1302 0cb4 8DF85730 		strb	r3, [sp, #87]
 1303              	.LBE14:
 124:main.c        ****         
 1304              		.loc 1 124 0
 1305 0cb8 0023     		movs	r3, #0
 121:main.c        ****         
 1306              		.loc 1 121 0
 1307 0cba 1A46     		mov	r2, r3
 1308              	.LBB15:
 291:main.c        ****         }
 1309              		.loc 1 291 0
 1310 0cbc DBE0     		b	.L8
 1311              	.LVL75:
 1312              	.L21:
 1313              	.LBE15:
 295:main.c        ****             case OP10_KEYBOARD_EQ:
 1314              		.loc 1 295 0
 1315 0cbe 9E2D     		cmp	r5, #158
 1316 0cc0 02D0     		beq	.L41
 1317 0cc2 A12D     		cmp	r5, #161
 1318 0cc4 0FD0     		beq	.L42
 1319 0cc6 CBE0     		b	.L80
 1320              	.L41:
 298:main.c        ****                     pc += 2;
 1321              		.loc 1 298 0
 1322 0cc8 12AB     		add	r3, sp, #72
 1323 0cca 1B5D     		ldrb	r3, [r3, r4]	@ zero_extendqisi2
 1324 0ccc 03F00F03 		and	r3, r3, #15
 1325 0cd0 754A     		ldr	r2, .L85+8
 1326 0cd2 1344     		add	r3, r3, r2
 1327 0cd4 1B79     		ldrb	r3, [r3, #4]	@ zero_extendqisi2
 1328 0cd6 012B     		cmp	r3, #1
 1329 0cd8 40F0C580 		bne	.L74
 299:main.c        ****                 }
 1330              		.loc 1 299 0
ARM GAS  C:\Users\info\AppData\Local\Temp\ccAuJzLL.s 			page 33


 1331 0cdc 0237     		adds	r7, r7, #2
 1332              	.LVL76:
 1333 0cde BFB2     		uxth	r7, r7
 1334              	.LVL77:
 124:main.c        ****         
 1335              		.loc 1 124 0
 1336 0ce0 0023     		movs	r3, #0
 121:main.c        ****         
 1337              		.loc 1 121 0
 1338 0ce2 1A46     		mov	r2, r3
 1339 0ce4 C7E0     		b	.L8
 1340              	.LVL78:
 1341              	.L42:
 304:main.c        ****                     pc += 2;
 1342              		.loc 1 304 0
 1343 0ce6 12AB     		add	r3, sp, #72
 1344 0ce8 1B5D     		ldrb	r3, [r3, r4]	@ zero_extendqisi2
 1345 0cea 03F00F03 		and	r3, r3, #15
 1346 0cee 6E4A     		ldr	r2, .L85+8
 1347 0cf0 1344     		add	r3, r3, r2
 1348 0cf2 1B79     		ldrb	r3, [r3, #4]	@ zero_extendqisi2
 1349 0cf4 002B     		cmp	r3, #0
 1350 0cf6 40F0B980 		bne	.L75
 305:main.c        ****                 }
 1351              		.loc 1 305 0
 1352 0cfa 0237     		adds	r7, r7, #2
 1353              	.LVL79:
 1354 0cfc BFB2     		uxth	r7, r7
 1355              	.LVL80:
 121:main.c        ****         
 1356              		.loc 1 121 0
 1357 0cfe 1A46     		mov	r2, r3
 1358 0d00 B9E0     		b	.L8
 1359              	.LVL81:
 1360              	.L22:
 315:main.c        ****             case OP10_SPECIAL_LOAD_DELAY:
 1361              		.loc 1 315 0
 1362 0d02 1E2D     		cmp	r5, #30
 1363 0d04 37D0     		beq	.L43
 1364 0d06 0AD8     		bhi	.L44
 1365 0d08 0A2D     		cmp	r5, #10
 1366 0d0a 1AD0     		beq	.L45
 1367 0d0c 02D8     		bhi	.L46
 1368 0d0e 072D     		cmp	r5, #7
 1369 0d10 10D0     		beq	.L47
 1370 0d12 AEE0     		b	.L76
 1371              	.L46:
 1372 0d14 152D     		cmp	r5, #21
 1373 0d16 20D0     		beq	.L48
 1374 0d18 182D     		cmp	r5, #24
 1375 0d1a 25D0     		beq	.L49
 1376 0d1c A9E0     		b	.L76
 1377              	.L44:
 1378 0d1e 332D     		cmp	r5, #51
 1379 0d20 3BD0     		beq	.L50
 1380 0d22 02D8     		bhi	.L51
 1381 0d24 292D     		cmp	r5, #41
ARM GAS  C:\Users\info\AppData\Local\Temp\ccAuJzLL.s 			page 34


 1382 0d26 2ED0     		beq	.L52
 1383 0d28 A3E0     		b	.L76
 1384              	.L51:
 1385 0d2a 552D     		cmp	r5, #85
 1386 0d2c 60D0     		beq	.L77
 1387 0d2e 652D     		cmp	r5, #101
 1388 0d30 6DD0     		beq	.L78
 1389 0d32 9EE0     		b	.L76
 1390              	.L47:
 318:main.c        ****                 break;
 1391              		.loc 1 318 0
 1392 0d34 5C4B     		ldr	r3, .L85+8
 1393 0d36 1A7D     		ldrb	r2, [r3, #20]	@ zero_extendqisi2
 1394 0d38 12AB     		add	r3, sp, #72
 1395 0d3a 1A55     		strb	r2, [r3, r4]
 124:main.c        ****         
 1396              		.loc 1 124 0
 1397 0d3c 0023     		movs	r3, #0
 121:main.c        ****         
 1398              		.loc 1 121 0
 1399 0d3e 1A46     		mov	r2, r3
 319:main.c        ****             case OP10_SPECIAL_LOAD_KEYBOARD:
 1400              		.loc 1 319 0
 1401 0d40 99E0     		b	.L8
 1402              	.L45:
 322:main.c        ****                 v[x] = lastkey;
 1403              		.loc 1 322 0 discriminator 1
 1404 0d42 594B     		ldr	r3, .L85+8
 1405 0d44 5B7D     		ldrb	r3, [r3, #21]	@ zero_extendqisi2
 1406 0d46 002B     		cmp	r3, #0
 1407 0d48 FBD0     		beq	.L45
 323:main.c        ****                 keyflag = 0;
 1408              		.loc 1 323 0
 1409 0d4a 574B     		ldr	r3, .L85+8
 1410 0d4c 997D     		ldrb	r1, [r3, #22]	@ zero_extendqisi2
 1411 0d4e 12AA     		add	r2, sp, #72
 1412 0d50 1155     		strb	r1, [r2, r4]
 324:main.c        ****                 break;
 1413              		.loc 1 324 0
 1414 0d52 0022     		movs	r2, #0
 1415 0d54 5A75     		strb	r2, [r3, #21]
 124:main.c        ****         
 1416              		.loc 1 124 0
 1417 0d56 1346     		mov	r3, r2
 325:main.c        ****             case OP10_SPECIAL_SET_DELAY:
 1418              		.loc 1 325 0
 1419 0d58 8DE0     		b	.L8
 1420              	.L48:
 328:main.c        ****                 break;
 1421              		.loc 1 328 0
 1422 0d5a 12AB     		add	r3, sp, #72
 1423 0d5c 1A5D     		ldrb	r2, [r3, r4]	@ zero_extendqisi2
 1424 0d5e 524B     		ldr	r3, .L85+8
 1425 0d60 1A75     		strb	r2, [r3, #20]
 124:main.c        ****         
 1426              		.loc 1 124 0
 1427 0d62 0023     		movs	r3, #0
ARM GAS  C:\Users\info\AppData\Local\Temp\ccAuJzLL.s 			page 35


 121:main.c        ****         
 1428              		.loc 1 121 0
 1429 0d64 1A46     		mov	r2, r3
 329:main.c        ****             case OP10_SPECIAL_SET_SOUND:
 1430              		.loc 1 329 0
 1431 0d66 86E0     		b	.L8
 1432              	.L49:
 332:main.c        ****                 break;
 1433              		.loc 1 332 0
 1434 0d68 12AB     		add	r3, sp, #72
 1435 0d6a 1A5D     		ldrb	r2, [r3, r4]	@ zero_extendqisi2
 1436 0d6c 4E4B     		ldr	r3, .L85+8
 1437 0d6e DA75     		strb	r2, [r3, #23]
 124:main.c        ****         
 1438              		.loc 1 124 0
 1439 0d70 0023     		movs	r3, #0
 121:main.c        ****         
 1440              		.loc 1 121 0
 1441 0d72 1A46     		mov	r2, r3
 333:main.c        ****             case OP10_SPECIAL_ADD_TO_I:
 1442              		.loc 1 333 0
 1443 0d74 7FE0     		b	.L8
 1444              	.L43:
 336:main.c        ****                 break;
 1445              		.loc 1 336 0
 1446 0d76 12AB     		add	r3, sp, #72
 1447 0d78 1B5D     		ldrb	r3, [r3, r4]	@ zero_extendqisi2
 1448 0d7a 9A44     		add	r10, r10, r3
 1449              	.LVL82:
 1450 0d7c 1FFA8AFA 		uxth	r10, r10
 1451              	.LVL83:
 124:main.c        ****         
 1452              		.loc 1 124 0
 1453 0d80 0023     		movs	r3, #0
 121:main.c        ****         
 1454              		.loc 1 121 0
 1455 0d82 1A46     		mov	r2, r3
 337:main.c        ****             case OP10_SPECIAL_LOAD_FONT:
 1456              		.loc 1 337 0
 1457 0d84 77E0     		b	.L8
 1458              	.L52:
 340:main.c        ****                 break;
 1459              		.loc 1 340 0
 1460 0d86 12AB     		add	r3, sp, #72
 1461 0d88 13F804A0 		ldrb	r10, [r3, r4]	@ zero_extendqisi2
 1462              	.LVL84:
 1463 0d8c 0AF00F0A 		and	r10, r10, #15
 1464 0d90 0AEB8A0A 		add	r10, r10, r10, lsl #2
 1465              	.LVL85:
 124:main.c        ****         
 1466              		.loc 1 124 0
 1467 0d94 0023     		movs	r3, #0
 121:main.c        ****         
 1468              		.loc 1 121 0
 1469 0d96 1A46     		mov	r2, r3
 341:main.c        ****             case OP10_SPECIAL_LOAD_BCD:
 1470              		.loc 1 341 0
ARM GAS  C:\Users\info\AppData\Local\Temp\ccAuJzLL.s 			page 36


 1471 0d98 6DE0     		b	.L8
 1472              	.L50:
 344:main.c        ****                 ram[i+1] = (uint8_t)(v[x] / 10) % 10;
 1473              		.loc 1 344 0
 1474 0d9a 16A8     		add	r0, sp, #88
 1475              	.LVL86:
 1476 0d9c 12AB     		add	r3, sp, #72
 1477 0d9e 195D     		ldrb	r1, [r3, r4]	@ zero_extendqisi2
 1478 0da0 424A     		ldr	r2, .L85+12
 1479 0da2 A2FB0132 		umull	r3, r2, r2, r1
 1480 0da6 424B     		ldr	r3, .L85+16
 1481 0da8 5209     		lsrs	r2, r2, #5
 1482 0daa 00F80A20 		strb	r2, [r0, r10]
 1483              	.LVL87:
 345:main.c        ****                 ram[i+2] = (uint8_t)(v[x]) % 10;
 1484              		.loc 1 345 0
 1485 0dae 0AF10105 		add	r5, r10, #1
 1486              	.LVL88:
 1487 0db2 A3FB0142 		umull	r4, r2, r3, r1
 1488              	.LVL89:
 1489 0db6 D208     		lsrs	r2, r2, #3
 1490 0db8 D4B2     		uxtb	r4, r2
 1491 0dba A3FB0463 		umull	r6, r3, r3, r4
 1492              	.LVL90:
 1493 0dbe DB08     		lsrs	r3, r3, #3
 1494 0dc0 03EB8303 		add	r3, r3, r3, lsl #2
 1495 0dc4 5E00     		lsls	r6, r3, #1
 1496 0dc6 A41B     		subs	r4, r4, r6
 1497 0dc8 4455     		strb	r4, [r0, r5]
 346:main.c        ****                 break;
 1498              		.loc 1 346 0
 1499 0dca 0AF10203 		add	r3, r10, #2
 1500 0dce 02EB8202 		add	r2, r2, r2, lsl #2
 1501 0dd2 5400     		lsls	r4, r2, #1
 1502 0dd4 091B     		subs	r1, r1, r4
 1503 0dd6 C154     		strb	r1, [r0, r3]
 124:main.c        ****         
 1504              		.loc 1 124 0
 1505 0dd8 0023     		movs	r3, #0
 121:main.c        ****         
 1506              		.loc 1 121 0
 1507 0dda 1A46     		mov	r2, r3
 347:main.c        ****             case OP10_SPECIAL_LOAD_AT_I:
 1508              		.loc 1 347 0
 1509 0ddc 4BE0     		b	.L8
 1510              	.LVL91:
 1511              	.L55:
 1512              	.LBB16:
 351:main.c        ****                 }
 1513              		.loc 1 351 0 discriminator 3
 1514 0dde 0AEB0301 		add	r1, r10, r3
 1515 0de2 16AA     		add	r2, sp, #88
 1516 0de4 12A8     		add	r0, sp, #72
 1517 0de6 C05C     		ldrb	r0, [r0, r3]	@ zero_extendqisi2
 1518 0de8 5054     		strb	r0, [r2, r1]
 350:main.c        ****                     ram[i + j] = v[j];
 1519              		.loc 1 350 0 discriminator 3
ARM GAS  C:\Users\info\AppData\Local\Temp\ccAuJzLL.s 			page 37


 1520 0dea 0133     		adds	r3, r3, #1
 1521              	.LVL92:
 1522 0dec DBB2     		uxtb	r3, r3
 1523              	.LVL93:
 1524 0dee 00E0     		b	.L53
 1525              	.LVL94:
 1526              	.L77:
 1527              	.LBE16:
 315:main.c        ****             case OP10_SPECIAL_LOAD_DELAY:
 1528              		.loc 1 315 0
 1529 0df0 0023     		movs	r3, #0
 1530              	.LVL95:
 1531              	.L53:
 1532              	.LBB17:
 350:main.c        ****                     ram[i + j] = v[j];
 1533              		.loc 1 350 0 discriminator 1
 1534 0df2 A342     		cmp	r3, r4
 1535 0df4 F3D9     		bls	.L55
 1536              	.LBE17:
 124:main.c        ****         
 1537              		.loc 1 124 0
 1538 0df6 0023     		movs	r3, #0
 1539              	.LVL96:
 121:main.c        ****         
 1540              		.loc 1 121 0
 1541 0df8 1A46     		mov	r2, r3
 1542 0dfa 3CE0     		b	.L8
 1543              	.LVL97:
 1544              	.L56:
 1545              	.LBB18:
 357:main.c        ****                 }
 1546              		.loc 1 357 0 discriminator 3
 1547 0dfc 0AEB0301 		add	r1, r10, r3
 1548 0e00 16AA     		add	r2, sp, #88
 1549              	.LVL98:
 1550 0e02 515C     		ldrb	r1, [r2, r1]	@ zero_extendqisi2
 1551 0e04 12AA     		add	r2, sp, #72
 1552              	.LVL99:
 1553 0e06 D154     		strb	r1, [r2, r3]
 356:main.c        ****                     v[j] = ram[i + j];
 1554              		.loc 1 356 0 discriminator 3
 1555 0e08 0133     		adds	r3, r3, #1
 1556              	.LVL100:
 1557 0e0a DBB2     		uxtb	r3, r3
 1558              	.LVL101:
 1559 0e0c 00E0     		b	.L54
 1560              	.LVL102:
 1561              	.L78:
 1562              	.LBE18:
 315:main.c        ****             case OP10_SPECIAL_LOAD_DELAY:
 1563              		.loc 1 315 0
 1564 0e0e 0023     		movs	r3, #0
 1565              	.L54:
 1566              	.LVL103:
 1567              	.LBB19:
 356:main.c        ****                     v[j] = ram[i + j];
 1568              		.loc 1 356 0 discriminator 1
ARM GAS  C:\Users\info\AppData\Local\Temp\ccAuJzLL.s 			page 38


 1569 0e10 A342     		cmp	r3, r4
 1570 0e12 F3D9     		bls	.L56
 1571              	.LBE19:
 124:main.c        ****         
 1572              		.loc 1 124 0
 1573 0e14 0023     		movs	r3, #0
 1574              	.LVL104:
 121:main.c        ****         
 1575              		.loc 1 121 0
 1576 0e16 1A46     		mov	r2, r3
 1577              	.LBB20:
 1578 0e18 2DE0     		b	.L8
 1579              	.L60:
 1580              	.LBE20:
 157:main.c        ****             freeze_pc = 1;
 1581              		.loc 1 157 0
 1582 0e1a 4746     		mov	r7, r8
 1583              	.LVL105:
 158:main.c        ****             break;
 1584              		.loc 1 158 0
 1585 0e1c 0123     		movs	r3, #1
 121:main.c        ****         
 1586              		.loc 1 121 0
 1587 0e1e 0022     		movs	r2, #0
 1588 0e20 29E0     		b	.L8
 1589              	.LVL106:
 1590              	.L62:
 124:main.c        ****         
 1591              		.loc 1 124 0
 1592 0e22 0023     		movs	r3, #0
 134:main.c        ****             } else {
 1593              		.loc 1 134 0
 1594 0e24 0122     		movs	r2, #1
 1595 0e26 26E0     		b	.L8
 1596              	.L79:
 124:main.c        ****         
 1597              		.loc 1 124 0
 1598 0e28 0023     		movs	r3, #0
 150:main.c        ****                     break;
 1599              		.loc 1 150 0
 1600 0e2a 0122     		movs	r2, #1
 1601 0e2c 23E0     		b	.L8
 1602              	.L65:
 169:main.c        ****             freeze_pc = 1;
 1603              		.loc 1 169 0
 1604 0e2e 4746     		mov	r7, r8
 1605              	.LVL107:
 170:main.c        ****             break;
 1606              		.loc 1 170 0
 1607 0e30 0123     		movs	r3, #1
 1608              	.LVL108:
 121:main.c        ****         
 1609              		.loc 1 121 0
 1610 0e32 0022     		movs	r2, #0
 1611 0e34 1FE0     		b	.L8
 1612              	.LVL109:
 1613              	.L66:
ARM GAS  C:\Users\info\AppData\Local\Temp\ccAuJzLL.s 			page 39


 124:main.c        ****         
 1614              		.loc 1 124 0
 1615 0e36 0023     		movs	r3, #0
 121:main.c        ****         
 1616              		.loc 1 121 0
 1617 0e38 1A46     		mov	r2, r3
 1618 0e3a 1CE0     		b	.L8
 1619              	.L67:
 124:main.c        ****         
 1620              		.loc 1 124 0
 1621 0e3c 0023     		movs	r3, #0
 121:main.c        ****         
 1622              		.loc 1 121 0
 1623 0e3e 1A46     		mov	r2, r3
 1624 0e40 19E0     		b	.L8
 1625              	.L68:
 124:main.c        ****         
 1626              		.loc 1 124 0
 1627 0e42 0023     		movs	r3, #0
 191:main.c        ****             }
 1628              		.loc 1 191 0
 1629 0e44 0122     		movs	r2, #1
 1630 0e46 16E0     		b	.L8
 1631              	.L69:
 124:main.c        ****         
 1632              		.loc 1 124 0
 1633 0e48 0023     		movs	r3, #0
 121:main.c        ****         
 1634              		.loc 1 121 0
 1635 0e4a 1A46     		mov	r2, r3
 1636 0e4c 13E0     		b	.L8
 1637              	.L70:
 124:main.c        ****         
 1638              		.loc 1 124 0
 1639 0e4e 0023     		movs	r3, #0
 201:main.c        ****             }
 1640              		.loc 1 201 0
 1641 0e50 0122     		movs	r2, #1
 1642 0e52 10E0     		b	.L8
 1643              	.L71:
 124:main.c        ****         
 1644              		.loc 1 124 0
 1645 0e54 0023     		movs	r3, #0
 121:main.c        ****         
 1646              		.loc 1 121 0
 1647 0e56 1A46     		mov	r2, r3
 1648 0e58 0DE0     		b	.L8
 1649              	.L72:
 124:main.c        ****         
 1650              		.loc 1 124 0
 1651 0e5a 0023     		movs	r3, #0
 264:main.c        ****                 break;
 1652              		.loc 1 264 0
 1653 0e5c 0122     		movs	r2, #1
 1654 0e5e 0AE0     		b	.L8
 1655              	.L80:
 124:main.c        ****         
ARM GAS  C:\Users\info\AppData\Local\Temp\ccAuJzLL.s 			page 40


 1656              		.loc 1 124 0
 1657 0e60 0023     		movs	r3, #0
 309:main.c        ****                 break;
 1658              		.loc 1 309 0
 1659 0e62 0122     		movs	r2, #1
 1660 0e64 07E0     		b	.L8
 1661              	.L74:
 124:main.c        ****         
 1662              		.loc 1 124 0
 1663 0e66 0023     		movs	r3, #0
 121:main.c        ****         
 1664              		.loc 1 121 0
 1665 0e68 1A46     		mov	r2, r3
 1666 0e6a 04E0     		b	.L8
 1667              	.L75:
 124:main.c        ****         
 1668              		.loc 1 124 0
 1669 0e6c 0023     		movs	r3, #0
 121:main.c        ****         
 1670              		.loc 1 121 0
 1671 0e6e 1A46     		mov	r2, r3
 1672 0e70 01E0     		b	.L8
 1673              	.L76:
 124:main.c        ****         
 1674              		.loc 1 124 0
 1675 0e72 0023     		movs	r3, #0
 361:main.c        ****                 break;
 1676              		.loc 1 361 0
 1677 0e74 0122     		movs	r2, #1
 1678              	.LVL110:
 1679              	.L8:
 367:main.c        ****             break;
 368:main.c        ****         }
 369:main.c        ****         if (invalid_op) {
 1680              		.loc 1 369 0
 1681 0e76 62B1     		cbz	r2, .L57
 1682              	.LVL111:
 1683              	.L58:
 370:main.c        ****             /* Halt and dump core if invalid instruction received */
 371:main.c        ****             while(1){
 372:main.c        ****                 LED_Write(1);
 1684              		.loc 1 372 0 discriminator 1
 1685 0e78 0120     		movs	r0, #1
 1686 0e7a FFF7FEFF 		bl	LED_Write
 1687              	.LVL112:
 373:main.c        ****                 CyDelay(100);
 1688              		.loc 1 373 0 discriminator 1
 1689 0e7e 6420     		movs	r0, #100
 1690 0e80 FFF7FEFF 		bl	CyDelay
 1691              	.LVL113:
 374:main.c        ****                 LED_Write(0);
 1692              		.loc 1 374 0 discriminator 1
 1693 0e84 0020     		movs	r0, #0
 1694 0e86 FFF7FEFF 		bl	LED_Write
 1695              	.LVL114:
 375:main.c        ****                 CyDelay(100);
 1696              		.loc 1 375 0 discriminator 1
ARM GAS  C:\Users\info\AppData\Local\Temp\ccAuJzLL.s 			page 41


 1697 0e8a 6420     		movs	r0, #100
 1698 0e8c FFF7FEFF 		bl	CyDelay
 1699              	.LVL115:
 1700 0e90 F2E7     		b	.L58
 1701              	.LVL116:
 1702              	.L57:
 376:main.c        ****             }
 377:main.c        ****         }
 378:main.c        ****         if (!freeze_pc){
 1703              		.loc 1 378 0
 1704 0e92 002B     		cmp	r3, #0
 1705 0e94 7FF461AD 		bne	.L4
 379:main.c        ****             /* Increment PC */
 380:main.c        ****             pc += 2;
 1706              		.loc 1 380 0
 1707 0e98 0237     		adds	r7, r7, #2
 1708              	.LVL117:
 1709 0e9a BFB2     		uxth	r7, r7
 1710              	.LVL118:
 1711 0e9c 5DE5     		b	.L4
 1712              	.L86:
 1713 0e9e 00BF     		.align	2
 1714              	.L85:
 1715 0ea0 1F000080 		.word	-2147483617
 1716 0ea4 00000000 		.word	vram
 1717 0ea8 00000000 		.word	.LANCHOR0
 1718 0eac 1F85EB51 		.word	1374389535
 1719 0eb0 CDCCCCCC 		.word	-858993459
 1720              	.LBE3:
 1721              		.cfi_endproc
 1722              	.LFE63:
 1723              		.size	main, .-main
 1724              		.global	RANDOM_BYTE
 1725              		.global	keyflag
 1726              		.global	lastkey
 1727              		.global	keys
 1728              		.global	tmr
 1729              		.global	snd
 1730              		.comm	vram,256,8
 1731              		.bss
 1732              		.align	2
 1733              		.set	.LANCHOR0,. + 0
 1734              		.type	RANDOM_BYTE, %object
 1735              		.size	RANDOM_BYTE, 1
 1736              	RANDOM_BYTE:
 1737 0000 00       		.space	1
 1738 0001 000000   		.space	3
 1739              		.type	keys, %object
 1740              		.size	keys, 16
 1741              	keys:
 1742 0004 00000000 		.space	16
 1742      00000000 
 1742      00000000 
 1742      00000000 
 1743              		.type	tmr, %object
 1744              		.size	tmr, 1
 1745              	tmr:
ARM GAS  C:\Users\info\AppData\Local\Temp\ccAuJzLL.s 			page 42


 1746 0014 00       		.space	1
 1747              		.type	keyflag, %object
 1748              		.size	keyflag, 1
 1749              	keyflag:
 1750 0015 00       		.space	1
 1751              		.type	lastkey, %object
 1752              		.size	lastkey, 1
 1753              	lastkey:
 1754 0016 00       		.space	1
 1755              		.type	snd, %object
 1756              		.size	snd, 1
 1757              	snd:
 1758 0017 00       		.space	1
 1759              		.text
 1760              	.Letext0:
 1761              		.file 2 "c:\\program files (x86)\\cypress\\psoc creator\\4.2\\psoc creator\\import\\gnu\\arm\\5.4.
 1762              		.file 3 "c:\\program files (x86)\\cypress\\psoc creator\\4.2\\psoc creator\\import\\gnu\\arm\\5.4.
 1763              		.file 4 "Generated_Source\\PSoC5/core_cm3.h"
 1764              		.file 5 "Generated_Source\\PSoC5/PRS_1.h"
 1765              		.file 6 "Generated_Source\\PSoC5/LED.h"
 1766              		.file 7 "Generated_Source\\PSoC5/CyLib.h"
 1767              		.section	.debug_info,"",%progbits
 1768              	.Ldebug_info0:
 1769 0000 E3040000 		.4byte	0x4e3
 1770 0004 0400     		.2byte	0x4
 1771 0006 00000000 		.4byte	.Ldebug_abbrev0
 1772 000a 04       		.byte	0x4
 1773 000b 01       		.uleb128 0x1
 1774 000c 15020000 		.4byte	.LASF41
 1775 0010 0C       		.byte	0xc
 1776 0011 C6010000 		.4byte	.LASF42
 1777 0015 3E000000 		.4byte	.LASF43
 1778 0019 B8000000 		.4byte	.Ldebug_ranges0+0xb8
 1779 001d 00000000 		.4byte	0
 1780 0021 00000000 		.4byte	.Ldebug_line0
 1781 0025 02       		.uleb128 0x2
 1782 0026 01       		.byte	0x1
 1783 0027 06       		.byte	0x6
 1784 0028 46010000 		.4byte	.LASF0
 1785 002c 03       		.uleb128 0x3
 1786 002d 23010000 		.4byte	.LASF3
 1787 0031 02       		.byte	0x2
 1788 0032 1D       		.byte	0x1d
 1789 0033 37000000 		.4byte	0x37
 1790 0037 02       		.uleb128 0x2
 1791 0038 01       		.byte	0x1
 1792 0039 08       		.byte	0x8
 1793 003a 38010000 		.4byte	.LASF1
 1794 003e 02       		.uleb128 0x2
 1795 003f 02       		.byte	0x2
 1796 0040 05       		.byte	0x5
 1797 0041 23000000 		.4byte	.LASF2
 1798 0045 03       		.uleb128 0x3
 1799 0046 A8000000 		.4byte	.LASF4
 1800 004a 02       		.byte	0x2
 1801 004b 2B       		.byte	0x2b
 1802 004c 50000000 		.4byte	0x50
ARM GAS  C:\Users\info\AppData\Local\Temp\ccAuJzLL.s 			page 43


 1803 0050 02       		.uleb128 0x2
 1804 0051 02       		.byte	0x2
 1805 0052 07       		.byte	0x7
 1806 0053 76010000 		.4byte	.LASF5
 1807 0057 03       		.uleb128 0x3
 1808 0058 F0010000 		.4byte	.LASF6
 1809 005c 02       		.byte	0x2
 1810 005d 3F       		.byte	0x3f
 1811 005e 62000000 		.4byte	0x62
 1812 0062 02       		.uleb128 0x2
 1813 0063 04       		.byte	0x4
 1814 0064 05       		.byte	0x5
 1815 0065 99010000 		.4byte	.LASF7
 1816 0069 02       		.uleb128 0x2
 1817 006a 04       		.byte	0x4
 1818 006b 07       		.byte	0x7
 1819 006c CD010000 		.4byte	.LASF8
 1820 0070 02       		.uleb128 0x2
 1821 0071 08       		.byte	0x8
 1822 0072 05       		.byte	0x5
 1823 0073 E2000000 		.4byte	.LASF9
 1824 0077 03       		.uleb128 0x3
 1825 0078 BB010000 		.4byte	.LASF10
 1826 007c 02       		.byte	0x2
 1827 007d 5B       		.byte	0x5b
 1828 007e 82000000 		.4byte	0x82
 1829 0082 02       		.uleb128 0x2
 1830 0083 08       		.byte	0x8
 1831 0084 07       		.byte	0x7
 1832 0085 F0000000 		.4byte	.LASF11
 1833 0089 04       		.uleb128 0x4
 1834 008a 04       		.byte	0x4
 1835 008b 05       		.byte	0x5
 1836 008c 696E7400 		.ascii	"int\000"
 1837 0090 02       		.uleb128 0x2
 1838 0091 04       		.byte	0x4
 1839 0092 07       		.byte	0x7
 1840 0093 5A010000 		.4byte	.LASF12
 1841 0097 03       		.uleb128 0x3
 1842 0098 C8000000 		.4byte	.LASF13
 1843 009c 03       		.byte	0x3
 1844 009d 18       		.byte	0x18
 1845 009e 2C000000 		.4byte	0x2c
 1846 00a2 03       		.uleb128 0x3
 1847 00a3 67010000 		.4byte	.LASF14
 1848 00a7 03       		.byte	0x3
 1849 00a8 24       		.byte	0x24
 1850 00a9 45000000 		.4byte	0x45
 1851 00ad 03       		.uleb128 0x3
 1852 00ae A7010000 		.4byte	.LASF15
 1853 00b2 03       		.byte	0x3
 1854 00b3 2C       		.byte	0x2c
 1855 00b4 57000000 		.4byte	0x57
 1856 00b8 03       		.uleb128 0x3
 1857 00b9 1A000000 		.4byte	.LASF16
 1858 00bd 03       		.byte	0x3
 1859 00be 3C       		.byte	0x3c
ARM GAS  C:\Users\info\AppData\Local\Temp\ccAuJzLL.s 			page 44


 1860 00bf 77000000 		.4byte	0x77
 1861 00c3 02       		.uleb128 0x2
 1862 00c4 04       		.byte	0x4
 1863 00c5 04       		.byte	0x4
 1864 00c6 DC000000 		.4byte	.LASF17
 1865 00ca 02       		.uleb128 0x2
 1866 00cb 08       		.byte	0x8
 1867 00cc 04       		.byte	0x4
 1868 00cd DF010000 		.4byte	.LASF18
 1869 00d1 02       		.uleb128 0x2
 1870 00d2 01       		.byte	0x1
 1871 00d3 08       		.byte	0x8
 1872 00d4 94010000 		.4byte	.LASF19
 1873 00d8 02       		.uleb128 0x2
 1874 00d9 08       		.byte	0x8
 1875 00da 04       		.byte	0x4
 1876 00db 32000000 		.4byte	.LASF20
 1877 00df 02       		.uleb128 0x2
 1878 00e0 04       		.byte	0x4
 1879 00e1 07       		.byte	0x7
 1880 00e2 FA010000 		.4byte	.LASF21
 1881 00e6 05       		.uleb128 0x5
 1882 00e7 A2010000 		.4byte	.LASF44
 1883 00eb 01       		.byte	0x1
 1884 00ec 4E       		.byte	0x4e
 1885 00ed 89000000 		.4byte	0x89
 1886 00f1 00000000 		.4byte	.LFB63
 1887 00f5 B40E0000 		.4byte	.LFE63-.LFB63
 1888 00f9 01       		.uleb128 0x1
 1889 00fa 9C       		.byte	0x9c
 1890 00fb D2030000 		.4byte	0x3d2
 1891 00ff 06       		.uleb128 0x6
 1892 0100 72616D00 		.ascii	"ram\000"
 1893 0104 01       		.byte	0x1
 1894 0105 53       		.byte	0x53
 1895 0106 D2030000 		.4byte	0x3d2
 1896 010a 03       		.uleb128 0x3
 1897 010b 91       		.byte	0x91
 1898 010c D85F     		.sleb128 -4136
 1899 010e 06       		.uleb128 0x6
 1900 010f 7600     		.ascii	"v\000"
 1901 0111 01       		.byte	0x1
 1902 0112 56       		.byte	0x56
 1903 0113 E3030000 		.4byte	0x3e3
 1904 0117 03       		.uleb128 0x3
 1905 0118 91       		.byte	0x91
 1906 0119 C85F     		.sleb128 -4152
 1907 011b 07       		.uleb128 0x7
 1908 011c 6900     		.ascii	"i\000"
 1909 011e 01       		.byte	0x1
 1910 011f 57       		.byte	0x57
 1911 0120 A2000000 		.4byte	0xa2
 1912 0124 00000000 		.4byte	.LLST0
 1913 0128 07       		.uleb128 0x7
 1914 0129 706300   		.ascii	"pc\000"
 1915 012c 01       		.byte	0x1
 1916 012d 58       		.byte	0x58
ARM GAS  C:\Users\info\AppData\Local\Temp\ccAuJzLL.s 			page 45


 1917 012e A2000000 		.4byte	0xa2
 1918 0132 4B000000 		.4byte	.LLST1
 1919 0136 07       		.uleb128 0x7
 1920 0137 737000   		.ascii	"sp\000"
 1921 013a 01       		.byte	0x1
 1922 013b 59       		.byte	0x59
 1923 013c 97000000 		.4byte	0x97
 1924 0140 21010000 		.4byte	.LLST2
 1925 0144 08       		.uleb128 0x8
 1926 0145 70010000 		.4byte	.LASF22
 1927 0149 01       		.byte	0x1
 1928 014a 5A       		.byte	0x5a
 1929 014b F3030000 		.4byte	0x3f3
 1930 014f 03       		.uleb128 0x3
 1931 0150 91       		.byte	0x91
 1932 0151 A85F     		.sleb128 -4184
 1933 0153 09       		.uleb128 0x9
 1934 0154 2A090000 		.4byte	.LBB2
 1935 0158 1A000000 		.4byte	.LBE2-.LBB2
 1936 015c 6E010000 		.4byte	0x16e
 1937 0160 07       		.uleb128 0x7
 1938 0161 6A00     		.ascii	"j\000"
 1939 0163 01       		.byte	0x1
 1940 0164 5D       		.byte	0x5d
 1941 0165 97000000 		.4byte	0x97
 1942 0169 6C010000 		.4byte	.LLST3
 1943 016d 00       		.byte	0
 1944 016e 09       		.uleb128 0x9
 1945 016f 5A090000 		.4byte	.LBB3
 1946 0173 5A050000 		.4byte	.LBE3-.LBB3
 1947 0177 75030000 		.4byte	0x375
 1948 017b 0A       		.uleb128 0xa
 1949 017c 32010000 		.4byte	.LASF23
 1950 0180 01       		.byte	0x1
 1951 0181 69       		.byte	0x69
 1952 0182 A2000000 		.4byte	0xa2
 1953 0186 96010000 		.4byte	.LLST4
 1954 018a 07       		.uleb128 0x7
 1955 018b 6F703300 		.ascii	"op3\000"
 1956 018f 01       		.byte	0x1
 1957 0190 6C       		.byte	0x6c
 1958 0191 97000000 		.4byte	0x97
 1959 0195 D1060000 		.4byte	.LLST5
 1960 0199 07       		.uleb128 0x7
 1961 019a 6F703200 		.ascii	"op2\000"
 1962 019e 01       		.byte	0x1
 1963 019f 6D       		.byte	0x6d
 1964 01a0 97000000 		.4byte	0x97
 1965 01a4 22080000 		.4byte	.LLST6
 1966 01a8 0A       		.uleb128 0xa
 1967 01a9 2D000000 		.4byte	.LASF24
 1968 01ad 01       		.byte	0x1
 1969 01ae 6E       		.byte	0x6e
 1970 01af 97000000 		.4byte	0x97
 1971 01b3 40080000 		.4byte	.LLST7
 1972 01b7 06       		.uleb128 0x6
 1973 01b8 6F703000 		.ascii	"op0\000"
ARM GAS  C:\Users\info\AppData\Local\Temp\ccAuJzLL.s 			page 46


 1974 01bc 01       		.byte	0x1
 1975 01bd 6F       		.byte	0x6f
 1976 01be 97000000 		.4byte	0x97
 1977 01c2 03       		.uleb128 0x3
 1978 01c3 91       		.byte	0x91
 1979 01c4 A05F     		.sleb128 -4192
 1980 01c6 07       		.uleb128 0x7
 1981 01c7 6E6E6E00 		.ascii	"nnn\000"
 1982 01cb 01       		.byte	0x1
 1983 01cc 72       		.byte	0x72
 1984 01cd A2000000 		.4byte	0xa2
 1985 01d1 99090000 		.4byte	.LLST8
 1986 01d5 07       		.uleb128 0x7
 1987 01d6 7800     		.ascii	"x\000"
 1988 01d8 01       		.byte	0x1
 1989 01d9 73       		.byte	0x73
 1990 01da 97000000 		.4byte	0x97
 1991 01de 060B0000 		.4byte	.LLST9
 1992 01e2 07       		.uleb128 0x7
 1993 01e3 7900     		.ascii	"y\000"
 1994 01e5 01       		.byte	0x1
 1995 01e6 74       		.byte	0x74
 1996 01e7 97000000 		.4byte	0x97
 1997 01eb 240B0000 		.4byte	.LLST10
 1998 01ef 07       		.uleb128 0x7
 1999 01f0 6B6B00   		.ascii	"kk\000"
 2000 01f3 01       		.byte	0x1
 2001 01f4 75       		.byte	0x75
 2002 01f5 97000000 		.4byte	0x97
 2003 01f9 420B0000 		.4byte	.LLST11
 2004 01fd 06       		.uleb128 0x6
 2005 01fe 6E00     		.ascii	"n\000"
 2006 0200 01       		.byte	0x1
 2007 0201 76       		.byte	0x76
 2008 0202 97000000 		.4byte	0x97
 2009 0206 03       		.uleb128 0x3
 2010 0207 91       		.byte	0x91
 2011 0208 A05F     		.sleb128 -4192
 2012 020a 0A       		.uleb128 0xa
 2013 020b 89010000 		.4byte	.LASF25
 2014 020f 01       		.byte	0x1
 2015 0210 79       		.byte	0x79
 2016 0211 97000000 		.4byte	0x97
 2017 0215 9B0C0000 		.4byte	.LLST12
 2018 0219 0A       		.uleb128 0xa
 2019 021a E6010000 		.4byte	.LASF26
 2020 021e 01       		.byte	0x1
 2021 021f 7C       		.byte	0x7c
 2022 0220 97000000 		.4byte	0x97
 2023 0224 C50C0000 		.4byte	.LLST13
 2024 0228 0B       		.uleb128 0xb
 2025 0229 00000000 		.4byte	.Ldebug_ranges0+0
 2026 022d 3F020000 		.4byte	0x23f
 2027 0231 07       		.uleb128 0x7
 2028 0232 6A00     		.ascii	"j\000"
 2029 0234 01       		.byte	0x1
 2030 0235 8B       		.byte	0x8b
ARM GAS  C:\Users\info\AppData\Local\Temp\ccAuJzLL.s 			page 47


 2031 0236 89000000 		.4byte	0x89
 2032 023a 1F0D0000 		.4byte	.LLST14
 2033 023e 00       		.byte	0
 2034 023f 0B       		.uleb128 0xb
 2035 0240 18000000 		.4byte	.Ldebug_ranges0+0x18
 2036 0244 74020000 		.4byte	0x274
 2037 0248 07       		.uleb128 0x7
 2038 0249 767800   		.ascii	"vx\000"
 2039 024c 01       		.byte	0x1
 2040 024d ED       		.byte	0xed
 2041 024e A2000000 		.4byte	0xa2
 2042 0252 3D0D0000 		.4byte	.LLST15
 2043 0256 07       		.uleb128 0x7
 2044 0257 767900   		.ascii	"vy\000"
 2045 025a 01       		.byte	0x1
 2046 025b EE       		.byte	0xee
 2047 025c A2000000 		.4byte	0xa2
 2048 0260 500D0000 		.4byte	.LLST16
 2049 0264 0A       		.uleb128 0xa
 2050 0265 0B000000 		.4byte	.LASF27
 2051 0269 01       		.byte	0x1
 2052 026a EF       		.byte	0xef
 2053 026b A2000000 		.4byte	0xa2
 2054 026f 630D0000 		.4byte	.LLST17
 2055 0273 00       		.byte	0
 2056 0274 0B       		.uleb128 0xb
 2057 0275 30000000 		.4byte	.Ldebug_ranges0+0x30
 2058 0279 A9020000 		.4byte	0x2a9
 2059 027d 07       		.uleb128 0x7
 2060 027e 767800   		.ascii	"vx\000"
 2061 0281 01       		.byte	0x1
 2062 0282 FB       		.byte	0xfb
 2063 0283 A2000000 		.4byte	0xa2
 2064 0287 860D0000 		.4byte	.LLST18
 2065 028b 07       		.uleb128 0x7
 2066 028c 767900   		.ascii	"vy\000"
 2067 028f 01       		.byte	0x1
 2068 0290 FC       		.byte	0xfc
 2069 0291 A2000000 		.4byte	0xa2
 2070 0295 990D0000 		.4byte	.LLST19
 2071 0299 0A       		.uleb128 0xa
 2072 029a 0B000000 		.4byte	.LASF27
 2073 029e 01       		.byte	0x1
 2074 029f FD       		.byte	0xfd
 2075 02a0 A2000000 		.4byte	0xa2
 2076 02a4 AC0D0000 		.4byte	.LLST20
 2077 02a8 00       		.byte	0
 2078 02a9 0B       		.uleb128 0xb
 2079 02aa 48000000 		.4byte	.Ldebug_ranges0+0x48
 2080 02ae F1020000 		.4byte	0x2f1
 2081 02b2 0C       		.uleb128 0xc
 2082 02b3 BE000000 		.4byte	.LASF28
 2083 02b7 01       		.byte	0x1
 2084 02b8 1501     		.2byte	0x115
 2085 02ba B8000000 		.4byte	0xb8
 2086 02be CF0D0000 		.4byte	.LLST21
 2087 02c2 0D       		.uleb128 0xd
ARM GAS  C:\Users\info\AppData\Local\Temp\ccAuJzLL.s 			page 48


 2088 02c3 68000000 		.4byte	.Ldebug_ranges0+0x68
 2089 02c7 0E       		.uleb128 0xe
 2090 02c8 6A00     		.ascii	"j\000"
 2091 02ca 01       		.byte	0x1
 2092 02cb 1701     		.2byte	0x117
 2093 02cd 89000000 		.4byte	0x89
 2094 02d1 0B0E0000 		.4byte	.LLST22
 2095 02d5 0F       		.uleb128 0xf
 2096 02d6 A00B0000 		.4byte	.LBB12
 2097 02da CE000000 		.4byte	.LBE12-.LBB12
 2098 02de 0E       		.uleb128 0xe
 2099 02df 726F7700 		.ascii	"row\000"
 2100 02e3 01       		.byte	0x1
 2101 02e4 1801     		.2byte	0x118
 2102 02e6 B8000000 		.4byte	0xb8
 2103 02ea 290E0000 		.4byte	.LLST23
 2104 02ee 00       		.byte	0
 2105 02ef 00       		.byte	0
 2106 02f0 00       		.byte	0
 2107 02f1 0B       		.uleb128 0xb
 2108 02f2 80000000 		.4byte	.Ldebug_ranges0+0x80
 2109 02f6 09030000 		.4byte	0x309
 2110 02fa 0E       		.uleb128 0xe
 2111 02fb 6A00     		.ascii	"j\000"
 2112 02fd 01       		.byte	0x1
 2113 02fe 5E01     		.2byte	0x15e
 2114 0300 97000000 		.4byte	0x97
 2115 0304 790E0000 		.4byte	.LLST24
 2116 0308 00       		.byte	0
 2117 0309 0B       		.uleb128 0xb
 2118 030a 98000000 		.4byte	.Ldebug_ranges0+0x98
 2119 030e 21030000 		.4byte	0x321
 2120 0312 0E       		.uleb128 0xe
 2121 0313 6A00     		.ascii	"j\000"
 2122 0315 01       		.byte	0x1
 2123 0316 6401     		.2byte	0x164
 2124 0318 97000000 		.4byte	0x97
 2125 031c A20E0000 		.4byte	.LLST25
 2126 0320 00       		.byte	0
 2127 0321 10       		.uleb128 0x10
 2128 0322 86090000 		.4byte	.LVL17
 2129 0326 9B040000 		.4byte	0x49b
 2130 032a 11       		.uleb128 0x11
 2131 032b 7E0E0000 		.4byte	.LVL112
 2132 032f A6040000 		.4byte	0x4a6
 2133 0333 3D030000 		.4byte	0x33d
 2134 0337 12       		.uleb128 0x12
 2135 0338 01       		.uleb128 0x1
 2136 0339 50       		.byte	0x50
 2137 033a 01       		.uleb128 0x1
 2138 033b 31       		.byte	0x31
 2139 033c 00       		.byte	0
 2140 033d 11       		.uleb128 0x11
 2141 033e 840E0000 		.4byte	.LVL113
 2142 0342 B1040000 		.4byte	0x4b1
 2143 0346 51030000 		.4byte	0x351
 2144 034a 12       		.uleb128 0x12
ARM GAS  C:\Users\info\AppData\Local\Temp\ccAuJzLL.s 			page 49


 2145 034b 01       		.uleb128 0x1
 2146 034c 50       		.byte	0x50
 2147 034d 02       		.uleb128 0x2
 2148 034e 08       		.byte	0x8
 2149 034f 64       		.byte	0x64
 2150 0350 00       		.byte	0
 2151 0351 11       		.uleb128 0x11
 2152 0352 8A0E0000 		.4byte	.LVL114
 2153 0356 A6040000 		.4byte	0x4a6
 2154 035a 64030000 		.4byte	0x364
 2155 035e 12       		.uleb128 0x12
 2156 035f 01       		.uleb128 0x1
 2157 0360 50       		.byte	0x50
 2158 0361 01       		.uleb128 0x1
 2159 0362 30       		.byte	0x30
 2160 0363 00       		.byte	0
 2161 0364 13       		.uleb128 0x13
 2162 0365 900E0000 		.4byte	.LVL115
 2163 0369 B1040000 		.4byte	0x4b1
 2164 036d 12       		.uleb128 0x12
 2165 036e 01       		.uleb128 0x1
 2166 036f 50       		.byte	0x50
 2167 0370 02       		.uleb128 0x2
 2168 0371 08       		.byte	0x8
 2169 0372 64       		.byte	0x64
 2170 0373 00       		.byte	0
 2171 0374 00       		.byte	0
 2172 0375 11       		.uleb128 0x11
 2173 0376 18000000 		.4byte	.LVL0
 2174 037a BC040000 		.4byte	0x4bc
 2175 037e 96030000 		.4byte	0x396
 2176 0382 12       		.uleb128 0x12
 2177 0383 01       		.uleb128 0x1
 2178 0384 50       		.byte	0x50
 2179 0385 03       		.uleb128 0x3
 2180 0386 91       		.byte	0x91
 2181 0387 D85F     		.sleb128 -4136
 2182 0389 12       		.uleb128 0x12
 2183 038a 01       		.uleb128 0x1
 2184 038b 51       		.byte	0x51
 2185 038c 01       		.uleb128 0x1
 2186 038d 30       		.byte	0x30
 2187 038e 12       		.uleb128 0x12
 2188 038f 01       		.uleb128 0x1
 2189 0390 52       		.byte	0x52
 2190 0391 03       		.uleb128 0x3
 2191 0392 0A       		.byte	0xa
 2192 0393 0010     		.2byte	0x1000
 2193 0395 00       		.byte	0
 2194 0396 11       		.uleb128 0x11
 2195 0397 2A090000 		.4byte	.LVL2
 2196 039b BC040000 		.4byte	0x4bc
 2197 039f B6030000 		.4byte	0x3b6
 2198 03a3 12       		.uleb128 0x12
 2199 03a4 01       		.uleb128 0x1
 2200 03a5 50       		.byte	0x50
 2201 03a6 03       		.uleb128 0x3
ARM GAS  C:\Users\info\AppData\Local\Temp\ccAuJzLL.s 			page 50


 2202 03a7 91       		.byte	0x91
 2203 03a8 A85F     		.sleb128 -4184
 2204 03aa 12       		.uleb128 0x12
 2205 03ab 01       		.uleb128 0x1
 2206 03ac 51       		.byte	0x51
 2207 03ad 01       		.uleb128 0x1
 2208 03ae 30       		.byte	0x30
 2209 03af 12       		.uleb128 0x12
 2210 03b0 01       		.uleb128 0x1
 2211 03b1 52       		.byte	0x52
 2212 03b2 02       		.uleb128 0x2
 2213 03b3 08       		.byte	0x8
 2214 03b4 20       		.byte	0x20
 2215 03b5 00       		.byte	0
 2216 03b6 10       		.uleb128 0x10
 2217 03b7 48090000 		.4byte	.LVL6
 2218 03bb C5040000 		.4byte	0x4c5
 2219 03bf 10       		.uleb128 0x10
 2220 03c0 4C090000 		.4byte	.LVL7
 2221 03c4 D0040000 		.4byte	0x4d0
 2222 03c8 10       		.uleb128 0x10
 2223 03c9 50090000 		.4byte	.LVL8
 2224 03cd DB040000 		.4byte	0x4db
 2225 03d1 00       		.byte	0
 2226 03d2 14       		.uleb128 0x14
 2227 03d3 97000000 		.4byte	0x97
 2228 03d7 E3030000 		.4byte	0x3e3
 2229 03db 15       		.uleb128 0x15
 2230 03dc DF000000 		.4byte	0xdf
 2231 03e0 FF0F     		.2byte	0xfff
 2232 03e2 00       		.byte	0
 2233 03e3 14       		.uleb128 0x14
 2234 03e4 97000000 		.4byte	0x97
 2235 03e8 F3030000 		.4byte	0x3f3
 2236 03ec 16       		.uleb128 0x16
 2237 03ed DF000000 		.4byte	0xdf
 2238 03f1 0F       		.byte	0xf
 2239 03f2 00       		.byte	0
 2240 03f3 14       		.uleb128 0x14
 2241 03f4 A2000000 		.4byte	0xa2
 2242 03f8 03040000 		.4byte	0x403
 2243 03fc 16       		.uleb128 0x16
 2244 03fd DF000000 		.4byte	0xdf
 2245 0401 0F       		.byte	0xf
 2246 0402 00       		.byte	0
 2247 0403 17       		.uleb128 0x17
 2248 0404 08020000 		.4byte	.LASF29
 2249 0408 04       		.byte	0x4
 2250 0409 1207     		.2byte	0x712
 2251 040b 0F040000 		.4byte	0x40f
 2252 040f 18       		.uleb128 0x18
 2253 0410 AD000000 		.4byte	0xad
 2254 0414 14       		.uleb128 0x14
 2255 0415 B8000000 		.4byte	0xb8
 2256 0419 24040000 		.4byte	0x424
 2257 041d 16       		.uleb128 0x16
 2258 041e DF000000 		.4byte	0xdf
ARM GAS  C:\Users\info\AppData\Local\Temp\ccAuJzLL.s 			page 51


 2259 0422 1F       		.byte	0x1f
 2260 0423 00       		.byte	0
 2261 0424 19       		.uleb128 0x19
 2262 0425 03020000 		.4byte	.LASF30
 2263 0429 01       		.byte	0x1
 2264 042a 3B       		.byte	0x3b
 2265 042b 14040000 		.4byte	0x414
 2266 042f 05       		.uleb128 0x5
 2267 0430 03       		.byte	0x3
 2268 0431 00000000 		.4byte	vram
 2269 0435 1A       		.uleb128 0x1a
 2270 0436 736E6400 		.ascii	"snd\000"
 2271 043a 01       		.byte	0x1
 2272 043b 40       		.byte	0x40
 2273 043c 97000000 		.4byte	0x97
 2274 0440 05       		.uleb128 0x5
 2275 0441 03       		.byte	0x3
 2276 0442 00000000 		.4byte	snd
 2277 0446 1A       		.uleb128 0x1a
 2278 0447 746D7200 		.ascii	"tmr\000"
 2279 044b 01       		.byte	0x1
 2280 044c 40       		.byte	0x40
 2281 044d 97000000 		.4byte	0x97
 2282 0451 05       		.uleb128 0x5
 2283 0452 03       		.byte	0x3
 2284 0453 00000000 		.4byte	tmr
 2285 0457 19       		.uleb128 0x19
 2286 0458 2D010000 		.4byte	.LASF31
 2287 045c 01       		.byte	0x1
 2288 045d 49       		.byte	0x49
 2289 045e E3030000 		.4byte	0x3e3
 2290 0462 05       		.uleb128 0x5
 2291 0463 03       		.byte	0x3
 2292 0464 00000000 		.4byte	keys
 2293 0468 19       		.uleb128 0x19
 2294 0469 1B010000 		.4byte	.LASF32
 2295 046d 01       		.byte	0x1
 2296 046e 4A       		.byte	0x4a
 2297 046f 97000000 		.4byte	0x97
 2298 0473 05       		.uleb128 0x5
 2299 0474 03       		.byte	0x3
 2300 0475 00000000 		.4byte	lastkey
 2301 0479 19       		.uleb128 0x19
 2302 047a 52010000 		.4byte	.LASF33
 2303 047e 01       		.byte	0x1
 2304 047f 4A       		.byte	0x4a
 2305 0480 97000000 		.4byte	0x97
 2306 0484 05       		.uleb128 0x5
 2307 0485 03       		.byte	0x3
 2308 0486 00000000 		.4byte	keyflag
 2309 048a 19       		.uleb128 0x19
 2310 048b AF010000 		.4byte	.LASF34
 2311 048f 01       		.byte	0x1
 2312 0490 4C       		.byte	0x4c
 2313 0491 97000000 		.4byte	0x97
 2314 0495 05       		.uleb128 0x5
 2315 0496 03       		.byte	0x3
ARM GAS  C:\Users\info\AppData\Local\Temp\ccAuJzLL.s 			page 52


 2316 0497 00000000 		.4byte	RANDOM_BYTE
 2317 049b 1B       		.uleb128 0x1b
 2318 049c B3000000 		.4byte	.LASF35
 2319 04a0 B3000000 		.4byte	.LASF35
 2320 04a4 05       		.byte	0x5
 2321 04a5 6D       		.byte	0x6d
 2322 04a6 1B       		.uleb128 0x1b
 2323 04a7 10000000 		.4byte	.LASF36
 2324 04ab 10000000 		.4byte	.LASF36
 2325 04af 06       		.byte	0x6
 2326 04b0 26       		.byte	0x26
 2327 04b1 1B       		.uleb128 0x1b
 2328 04b2 A3020000 		.4byte	.LASF37
 2329 04b6 A3020000 		.4byte	.LASF37
 2330 04ba 07       		.byte	0x7
 2331 04bb 76       		.byte	0x76
 2332 04bc 1C       		.uleb128 0x1c
 2333 04bd 07010000 		.4byte	.LASF45
 2334 04c1 07010000 		.4byte	.LASF45
 2335 04c5 1B       		.uleb128 0x1b
 2336 04c6 0E010000 		.4byte	.LASF38
 2337 04ca 0E010000 		.4byte	.LASF38
 2338 04ce 05       		.byte	0x5
 2339 04cf 58       		.byte	0x58
 2340 04d0 1B       		.uleb128 0x1b
 2341 04d1 00000000 		.4byte	.LASF39
 2342 04d5 00000000 		.4byte	.LASF39
 2343 04d9 05       		.byte	0x5
 2344 04da 57       		.byte	0x57
 2345 04db 1B       		.uleb128 0x1b
 2346 04dc D0000000 		.4byte	.LASF40
 2347 04e0 D0000000 		.4byte	.LASF40
 2348 04e4 05       		.byte	0x5
 2349 04e5 59       		.byte	0x59
 2350 04e6 00       		.byte	0
 2351              		.section	.debug_abbrev,"",%progbits
 2352              	.Ldebug_abbrev0:
 2353 0000 01       		.uleb128 0x1
 2354 0001 11       		.uleb128 0x11
 2355 0002 01       		.byte	0x1
 2356 0003 25       		.uleb128 0x25
 2357 0004 0E       		.uleb128 0xe
 2358 0005 13       		.uleb128 0x13
 2359 0006 0B       		.uleb128 0xb
 2360 0007 03       		.uleb128 0x3
 2361 0008 0E       		.uleb128 0xe
 2362 0009 1B       		.uleb128 0x1b
 2363 000a 0E       		.uleb128 0xe
 2364 000b 55       		.uleb128 0x55
 2365 000c 17       		.uleb128 0x17
 2366 000d 11       		.uleb128 0x11
 2367 000e 01       		.uleb128 0x1
 2368 000f 10       		.uleb128 0x10
 2369 0010 17       		.uleb128 0x17
 2370 0011 00       		.byte	0
 2371 0012 00       		.byte	0
 2372 0013 02       		.uleb128 0x2
ARM GAS  C:\Users\info\AppData\Local\Temp\ccAuJzLL.s 			page 53


 2373 0014 24       		.uleb128 0x24
 2374 0015 00       		.byte	0
 2375 0016 0B       		.uleb128 0xb
 2376 0017 0B       		.uleb128 0xb
 2377 0018 3E       		.uleb128 0x3e
 2378 0019 0B       		.uleb128 0xb
 2379 001a 03       		.uleb128 0x3
 2380 001b 0E       		.uleb128 0xe
 2381 001c 00       		.byte	0
 2382 001d 00       		.byte	0
 2383 001e 03       		.uleb128 0x3
 2384 001f 16       		.uleb128 0x16
 2385 0020 00       		.byte	0
 2386 0021 03       		.uleb128 0x3
 2387 0022 0E       		.uleb128 0xe
 2388 0023 3A       		.uleb128 0x3a
 2389 0024 0B       		.uleb128 0xb
 2390 0025 3B       		.uleb128 0x3b
 2391 0026 0B       		.uleb128 0xb
 2392 0027 49       		.uleb128 0x49
 2393 0028 13       		.uleb128 0x13
 2394 0029 00       		.byte	0
 2395 002a 00       		.byte	0
 2396 002b 04       		.uleb128 0x4
 2397 002c 24       		.uleb128 0x24
 2398 002d 00       		.byte	0
 2399 002e 0B       		.uleb128 0xb
 2400 002f 0B       		.uleb128 0xb
 2401 0030 3E       		.uleb128 0x3e
 2402 0031 0B       		.uleb128 0xb
 2403 0032 03       		.uleb128 0x3
 2404 0033 08       		.uleb128 0x8
 2405 0034 00       		.byte	0
 2406 0035 00       		.byte	0
 2407 0036 05       		.uleb128 0x5
 2408 0037 2E       		.uleb128 0x2e
 2409 0038 01       		.byte	0x1
 2410 0039 3F       		.uleb128 0x3f
 2411 003a 19       		.uleb128 0x19
 2412 003b 03       		.uleb128 0x3
 2413 003c 0E       		.uleb128 0xe
 2414 003d 3A       		.uleb128 0x3a
 2415 003e 0B       		.uleb128 0xb
 2416 003f 3B       		.uleb128 0x3b
 2417 0040 0B       		.uleb128 0xb
 2418 0041 27       		.uleb128 0x27
 2419 0042 19       		.uleb128 0x19
 2420 0043 49       		.uleb128 0x49
 2421 0044 13       		.uleb128 0x13
 2422 0045 8701     		.uleb128 0x87
 2423 0047 19       		.uleb128 0x19
 2424 0048 11       		.uleb128 0x11
 2425 0049 01       		.uleb128 0x1
 2426 004a 12       		.uleb128 0x12
 2427 004b 06       		.uleb128 0x6
 2428 004c 40       		.uleb128 0x40
 2429 004d 18       		.uleb128 0x18
ARM GAS  C:\Users\info\AppData\Local\Temp\ccAuJzLL.s 			page 54


 2430 004e 9742     		.uleb128 0x2117
 2431 0050 19       		.uleb128 0x19
 2432 0051 01       		.uleb128 0x1
 2433 0052 13       		.uleb128 0x13
 2434 0053 00       		.byte	0
 2435 0054 00       		.byte	0
 2436 0055 06       		.uleb128 0x6
 2437 0056 34       		.uleb128 0x34
 2438 0057 00       		.byte	0
 2439 0058 03       		.uleb128 0x3
 2440 0059 08       		.uleb128 0x8
 2441 005a 3A       		.uleb128 0x3a
 2442 005b 0B       		.uleb128 0xb
 2443 005c 3B       		.uleb128 0x3b
 2444 005d 0B       		.uleb128 0xb
 2445 005e 49       		.uleb128 0x49
 2446 005f 13       		.uleb128 0x13
 2447 0060 02       		.uleb128 0x2
 2448 0061 18       		.uleb128 0x18
 2449 0062 00       		.byte	0
 2450 0063 00       		.byte	0
 2451 0064 07       		.uleb128 0x7
 2452 0065 34       		.uleb128 0x34
 2453 0066 00       		.byte	0
 2454 0067 03       		.uleb128 0x3
 2455 0068 08       		.uleb128 0x8
 2456 0069 3A       		.uleb128 0x3a
 2457 006a 0B       		.uleb128 0xb
 2458 006b 3B       		.uleb128 0x3b
 2459 006c 0B       		.uleb128 0xb
 2460 006d 49       		.uleb128 0x49
 2461 006e 13       		.uleb128 0x13
 2462 006f 02       		.uleb128 0x2
 2463 0070 17       		.uleb128 0x17
 2464 0071 00       		.byte	0
 2465 0072 00       		.byte	0
 2466 0073 08       		.uleb128 0x8
 2467 0074 34       		.uleb128 0x34
 2468 0075 00       		.byte	0
 2469 0076 03       		.uleb128 0x3
 2470 0077 0E       		.uleb128 0xe
 2471 0078 3A       		.uleb128 0x3a
 2472 0079 0B       		.uleb128 0xb
 2473 007a 3B       		.uleb128 0x3b
 2474 007b 0B       		.uleb128 0xb
 2475 007c 49       		.uleb128 0x49
 2476 007d 13       		.uleb128 0x13
 2477 007e 02       		.uleb128 0x2
 2478 007f 18       		.uleb128 0x18
 2479 0080 00       		.byte	0
 2480 0081 00       		.byte	0
 2481 0082 09       		.uleb128 0x9
 2482 0083 0B       		.uleb128 0xb
 2483 0084 01       		.byte	0x1
 2484 0085 11       		.uleb128 0x11
 2485 0086 01       		.uleb128 0x1
 2486 0087 12       		.uleb128 0x12
ARM GAS  C:\Users\info\AppData\Local\Temp\ccAuJzLL.s 			page 55


 2487 0088 06       		.uleb128 0x6
 2488 0089 01       		.uleb128 0x1
 2489 008a 13       		.uleb128 0x13
 2490 008b 00       		.byte	0
 2491 008c 00       		.byte	0
 2492 008d 0A       		.uleb128 0xa
 2493 008e 34       		.uleb128 0x34
 2494 008f 00       		.byte	0
 2495 0090 03       		.uleb128 0x3
 2496 0091 0E       		.uleb128 0xe
 2497 0092 3A       		.uleb128 0x3a
 2498 0093 0B       		.uleb128 0xb
 2499 0094 3B       		.uleb128 0x3b
 2500 0095 0B       		.uleb128 0xb
 2501 0096 49       		.uleb128 0x49
 2502 0097 13       		.uleb128 0x13
 2503 0098 02       		.uleb128 0x2
 2504 0099 17       		.uleb128 0x17
 2505 009a 00       		.byte	0
 2506 009b 00       		.byte	0
 2507 009c 0B       		.uleb128 0xb
 2508 009d 0B       		.uleb128 0xb
 2509 009e 01       		.byte	0x1
 2510 009f 55       		.uleb128 0x55
 2511 00a0 17       		.uleb128 0x17
 2512 00a1 01       		.uleb128 0x1
 2513 00a2 13       		.uleb128 0x13
 2514 00a3 00       		.byte	0
 2515 00a4 00       		.byte	0
 2516 00a5 0C       		.uleb128 0xc
 2517 00a6 34       		.uleb128 0x34
 2518 00a7 00       		.byte	0
 2519 00a8 03       		.uleb128 0x3
 2520 00a9 0E       		.uleb128 0xe
 2521 00aa 3A       		.uleb128 0x3a
 2522 00ab 0B       		.uleb128 0xb
 2523 00ac 3B       		.uleb128 0x3b
 2524 00ad 05       		.uleb128 0x5
 2525 00ae 49       		.uleb128 0x49
 2526 00af 13       		.uleb128 0x13
 2527 00b0 02       		.uleb128 0x2
 2528 00b1 17       		.uleb128 0x17
 2529 00b2 00       		.byte	0
 2530 00b3 00       		.byte	0
 2531 00b4 0D       		.uleb128 0xd
 2532 00b5 0B       		.uleb128 0xb
 2533 00b6 01       		.byte	0x1
 2534 00b7 55       		.uleb128 0x55
 2535 00b8 17       		.uleb128 0x17
 2536 00b9 00       		.byte	0
 2537 00ba 00       		.byte	0
 2538 00bb 0E       		.uleb128 0xe
 2539 00bc 34       		.uleb128 0x34
 2540 00bd 00       		.byte	0
 2541 00be 03       		.uleb128 0x3
 2542 00bf 08       		.uleb128 0x8
 2543 00c0 3A       		.uleb128 0x3a
ARM GAS  C:\Users\info\AppData\Local\Temp\ccAuJzLL.s 			page 56


 2544 00c1 0B       		.uleb128 0xb
 2545 00c2 3B       		.uleb128 0x3b
 2546 00c3 05       		.uleb128 0x5
 2547 00c4 49       		.uleb128 0x49
 2548 00c5 13       		.uleb128 0x13
 2549 00c6 02       		.uleb128 0x2
 2550 00c7 17       		.uleb128 0x17
 2551 00c8 00       		.byte	0
 2552 00c9 00       		.byte	0
 2553 00ca 0F       		.uleb128 0xf
 2554 00cb 0B       		.uleb128 0xb
 2555 00cc 01       		.byte	0x1
 2556 00cd 11       		.uleb128 0x11
 2557 00ce 01       		.uleb128 0x1
 2558 00cf 12       		.uleb128 0x12
 2559 00d0 06       		.uleb128 0x6
 2560 00d1 00       		.byte	0
 2561 00d2 00       		.byte	0
 2562 00d3 10       		.uleb128 0x10
 2563 00d4 898201   		.uleb128 0x4109
 2564 00d7 00       		.byte	0
 2565 00d8 11       		.uleb128 0x11
 2566 00d9 01       		.uleb128 0x1
 2567 00da 31       		.uleb128 0x31
 2568 00db 13       		.uleb128 0x13
 2569 00dc 00       		.byte	0
 2570 00dd 00       		.byte	0
 2571 00de 11       		.uleb128 0x11
 2572 00df 898201   		.uleb128 0x4109
 2573 00e2 01       		.byte	0x1
 2574 00e3 11       		.uleb128 0x11
 2575 00e4 01       		.uleb128 0x1
 2576 00e5 31       		.uleb128 0x31
 2577 00e6 13       		.uleb128 0x13
 2578 00e7 01       		.uleb128 0x1
 2579 00e8 13       		.uleb128 0x13
 2580 00e9 00       		.byte	0
 2581 00ea 00       		.byte	0
 2582 00eb 12       		.uleb128 0x12
 2583 00ec 8A8201   		.uleb128 0x410a
 2584 00ef 00       		.byte	0
 2585 00f0 02       		.uleb128 0x2
 2586 00f1 18       		.uleb128 0x18
 2587 00f2 9142     		.uleb128 0x2111
 2588 00f4 18       		.uleb128 0x18
 2589 00f5 00       		.byte	0
 2590 00f6 00       		.byte	0
 2591 00f7 13       		.uleb128 0x13
 2592 00f8 898201   		.uleb128 0x4109
 2593 00fb 01       		.byte	0x1
 2594 00fc 11       		.uleb128 0x11
 2595 00fd 01       		.uleb128 0x1
 2596 00fe 31       		.uleb128 0x31
 2597 00ff 13       		.uleb128 0x13
 2598 0100 00       		.byte	0
 2599 0101 00       		.byte	0
 2600 0102 14       		.uleb128 0x14
ARM GAS  C:\Users\info\AppData\Local\Temp\ccAuJzLL.s 			page 57


 2601 0103 01       		.uleb128 0x1
 2602 0104 01       		.byte	0x1
 2603 0105 49       		.uleb128 0x49
 2604 0106 13       		.uleb128 0x13
 2605 0107 01       		.uleb128 0x1
 2606 0108 13       		.uleb128 0x13
 2607 0109 00       		.byte	0
 2608 010a 00       		.byte	0
 2609 010b 15       		.uleb128 0x15
 2610 010c 21       		.uleb128 0x21
 2611 010d 00       		.byte	0
 2612 010e 49       		.uleb128 0x49
 2613 010f 13       		.uleb128 0x13
 2614 0110 2F       		.uleb128 0x2f
 2615 0111 05       		.uleb128 0x5
 2616 0112 00       		.byte	0
 2617 0113 00       		.byte	0
 2618 0114 16       		.uleb128 0x16
 2619 0115 21       		.uleb128 0x21
 2620 0116 00       		.byte	0
 2621 0117 49       		.uleb128 0x49
 2622 0118 13       		.uleb128 0x13
 2623 0119 2F       		.uleb128 0x2f
 2624 011a 0B       		.uleb128 0xb
 2625 011b 00       		.byte	0
 2626 011c 00       		.byte	0
 2627 011d 17       		.uleb128 0x17
 2628 011e 34       		.uleb128 0x34
 2629 011f 00       		.byte	0
 2630 0120 03       		.uleb128 0x3
 2631 0121 0E       		.uleb128 0xe
 2632 0122 3A       		.uleb128 0x3a
 2633 0123 0B       		.uleb128 0xb
 2634 0124 3B       		.uleb128 0x3b
 2635 0125 05       		.uleb128 0x5
 2636 0126 49       		.uleb128 0x49
 2637 0127 13       		.uleb128 0x13
 2638 0128 3F       		.uleb128 0x3f
 2639 0129 19       		.uleb128 0x19
 2640 012a 3C       		.uleb128 0x3c
 2641 012b 19       		.uleb128 0x19
 2642 012c 00       		.byte	0
 2643 012d 00       		.byte	0
 2644 012e 18       		.uleb128 0x18
 2645 012f 35       		.uleb128 0x35
 2646 0130 00       		.byte	0
 2647 0131 49       		.uleb128 0x49
 2648 0132 13       		.uleb128 0x13
 2649 0133 00       		.byte	0
 2650 0134 00       		.byte	0
 2651 0135 19       		.uleb128 0x19
 2652 0136 34       		.uleb128 0x34
 2653 0137 00       		.byte	0
 2654 0138 03       		.uleb128 0x3
 2655 0139 0E       		.uleb128 0xe
 2656 013a 3A       		.uleb128 0x3a
 2657 013b 0B       		.uleb128 0xb
ARM GAS  C:\Users\info\AppData\Local\Temp\ccAuJzLL.s 			page 58


 2658 013c 3B       		.uleb128 0x3b
 2659 013d 0B       		.uleb128 0xb
 2660 013e 49       		.uleb128 0x49
 2661 013f 13       		.uleb128 0x13
 2662 0140 3F       		.uleb128 0x3f
 2663 0141 19       		.uleb128 0x19
 2664 0142 02       		.uleb128 0x2
 2665 0143 18       		.uleb128 0x18
 2666 0144 00       		.byte	0
 2667 0145 00       		.byte	0
 2668 0146 1A       		.uleb128 0x1a
 2669 0147 34       		.uleb128 0x34
 2670 0148 00       		.byte	0
 2671 0149 03       		.uleb128 0x3
 2672 014a 08       		.uleb128 0x8
 2673 014b 3A       		.uleb128 0x3a
 2674 014c 0B       		.uleb128 0xb
 2675 014d 3B       		.uleb128 0x3b
 2676 014e 0B       		.uleb128 0xb
 2677 014f 49       		.uleb128 0x49
 2678 0150 13       		.uleb128 0x13
 2679 0151 3F       		.uleb128 0x3f
 2680 0152 19       		.uleb128 0x19
 2681 0153 02       		.uleb128 0x2
 2682 0154 18       		.uleb128 0x18
 2683 0155 00       		.byte	0
 2684 0156 00       		.byte	0
 2685 0157 1B       		.uleb128 0x1b
 2686 0158 2E       		.uleb128 0x2e
 2687 0159 00       		.byte	0
 2688 015a 3F       		.uleb128 0x3f
 2689 015b 19       		.uleb128 0x19
 2690 015c 3C       		.uleb128 0x3c
 2691 015d 19       		.uleb128 0x19
 2692 015e 6E       		.uleb128 0x6e
 2693 015f 0E       		.uleb128 0xe
 2694 0160 03       		.uleb128 0x3
 2695 0161 0E       		.uleb128 0xe
 2696 0162 3A       		.uleb128 0x3a
 2697 0163 0B       		.uleb128 0xb
 2698 0164 3B       		.uleb128 0x3b
 2699 0165 0B       		.uleb128 0xb
 2700 0166 00       		.byte	0
 2701 0167 00       		.byte	0
 2702 0168 1C       		.uleb128 0x1c
 2703 0169 2E       		.uleb128 0x2e
 2704 016a 00       		.byte	0
 2705 016b 3F       		.uleb128 0x3f
 2706 016c 19       		.uleb128 0x19
 2707 016d 3C       		.uleb128 0x3c
 2708 016e 19       		.uleb128 0x19
 2709 016f 6E       		.uleb128 0x6e
 2710 0170 0E       		.uleb128 0xe
 2711 0171 03       		.uleb128 0x3
 2712 0172 0E       		.uleb128 0xe
 2713 0173 00       		.byte	0
 2714 0174 00       		.byte	0
ARM GAS  C:\Users\info\AppData\Local\Temp\ccAuJzLL.s 			page 59


 2715 0175 00       		.byte	0
 2716              		.section	.debug_loc,"",%progbits
 2717              	.Ldebug_loc0:
 2718              	.LLST0:
 2719 0000 22090000 		.4byte	.LVL1
 2720 0004 5A090000 		.4byte	.LVL9
 2721 0008 0200     		.2byte	0x2
 2722 000a 30       		.byte	0x30
 2723 000b 9F       		.byte	0x9f
 2724 000c 5A090000 		.4byte	.LVL9
 2725 0010 8C0B0000 		.4byte	.LVL57
 2726 0014 0100     		.2byte	0x1
 2727 0016 5A       		.byte	0x5a
 2728 0017 8C0B0000 		.4byte	.LVL57
 2729 001b 940B0000 		.4byte	.LVL58
 2730 001f 0100     		.2byte	0x1
 2731 0021 58       		.byte	0x58
 2732 0022 940B0000 		.4byte	.LVL58
 2733 0026 7C0D0000 		.4byte	.LVL82
 2734 002a 0100     		.2byte	0x1
 2735 002c 5A       		.byte	0x5a
 2736 002d 800D0000 		.4byte	.LVL83
 2737 0031 8C0D0000 		.4byte	.LVL84
 2738 0035 0100     		.2byte	0x1
 2739 0037 5A       		.byte	0x5a
 2740 0038 940D0000 		.4byte	.LVL85
 2741 003c B40E0000 		.4byte	.LFE63
 2742 0040 0100     		.2byte	0x1
 2743 0042 5A       		.byte	0x5a
 2744 0043 00000000 		.4byte	0
 2745 0047 00000000 		.4byte	0
 2746              	.LLST1:
 2747 004b 22090000 		.4byte	.LVL1
 2748 004f 5A090000 		.4byte	.LVL9
 2749 0053 0400     		.2byte	0x4
 2750 0055 0A       		.byte	0xa
 2751 0056 0002     		.2byte	0x200
 2752 0058 9F       		.byte	0x9f
 2753 0059 5A090000 		.4byte	.LVL9
 2754 005d 060A0000 		.4byte	.LVL27
 2755 0061 0100     		.2byte	0x1
 2756 0063 57       		.byte	0x57
 2757 0064 080A0000 		.4byte	.LVL28
 2758 0068 260A0000 		.4byte	.LVL31
 2759 006c 0100     		.2byte	0x1
 2760 006e 57       		.byte	0x57
 2761 006f 2C0A0000 		.4byte	.LVL32
 2762 0073 380A0000 		.4byte	.LVL33
 2763 0077 0100     		.2byte	0x1
 2764 0079 57       		.byte	0x57
 2765 007a 3A0A0000 		.4byte	.LVL34
 2766 007e 4C0A0000 		.4byte	.LVL36
 2767 0082 0100     		.2byte	0x1
 2768 0084 57       		.byte	0x57
 2769 0085 4E0A0000 		.4byte	.LVL37
 2770 0089 6A0A0000 		.4byte	.LVL39
 2771 008d 0100     		.2byte	0x1
ARM GAS  C:\Users\info\AppData\Local\Temp\ccAuJzLL.s 			page 60


 2772 008f 57       		.byte	0x57
 2773 0090 6C0A0000 		.4byte	.LVL40
 2774 0094 880A0000 		.4byte	.LVL42
 2775 0098 0100     		.2byte	0x1
 2776 009a 57       		.byte	0x57
 2777 009b 8A0A0000 		.4byte	.LVL43
 2778 009f A00B0000 		.4byte	.LVL59
 2779 00a3 0100     		.2byte	0x1
 2780 00a5 57       		.byte	0x57
 2781 00a6 740C0000 		.4byte	.LVL70
 2782 00aa 920C0000 		.4byte	.LVL74
 2783 00ae 0100     		.2byte	0x1
 2784 00b0 57       		.byte	0x57
 2785 00b1 BE0C0000 		.4byte	.LVL75
 2786 00b5 DE0C0000 		.4byte	.LVL76
 2787 00b9 0100     		.2byte	0x1
 2788 00bb 57       		.byte	0x57
 2789 00bc E00C0000 		.4byte	.LVL77
 2790 00c0 FC0C0000 		.4byte	.LVL79
 2791 00c4 0100     		.2byte	0x1
 2792 00c6 57       		.byte	0x57
 2793 00c7 FE0C0000 		.4byte	.LVL80
 2794 00cb 1C0E0000 		.4byte	.LVL105
 2795 00cf 0100     		.2byte	0x1
 2796 00d1 57       		.byte	0x57
 2797 00d2 220E0000 		.4byte	.LVL106
 2798 00d6 300E0000 		.4byte	.LVL107
 2799 00da 0100     		.2byte	0x1
 2800 00dc 57       		.byte	0x57
 2801 00dd 300E0000 		.4byte	.LVL107
 2802 00e1 320E0000 		.4byte	.LVL108
 2803 00e5 0700     		.2byte	0x7
 2804 00e7 7B       		.byte	0x7b
 2805 00e8 00       		.sleb128 0
 2806 00e9 31       		.byte	0x31
 2807 00ea 24       		.byte	0x24
 2808 00eb 73       		.byte	0x73
 2809 00ec 00       		.sleb128 0
 2810 00ed 22       		.byte	0x22
 2811 00ee 320E0000 		.4byte	.LVL108
 2812 00f2 360E0000 		.4byte	.LVL109
 2813 00f6 0B00     		.2byte	0xb
 2814 00f8 7B       		.byte	0x7b
 2815 00f9 00       		.sleb128 0
 2816 00fa 31       		.byte	0x31
 2817 00fb 24       		.byte	0x24
 2818 00fc 91       		.byte	0x91
 2819 00fd 00       		.sleb128 0
 2820 00fe 22       		.byte	0x22
 2821 00ff 0A       		.byte	0xa
 2822 0100 5810     		.2byte	0x1058
 2823 0102 1C       		.byte	0x1c
 2824 0103 360E0000 		.4byte	.LVL109
 2825 0107 9A0E0000 		.4byte	.LVL117
 2826 010b 0100     		.2byte	0x1
 2827 010d 57       		.byte	0x57
 2828 010e 9C0E0000 		.4byte	.LVL118
ARM GAS  C:\Users\info\AppData\Local\Temp\ccAuJzLL.s 			page 61


 2829 0112 B40E0000 		.4byte	.LFE63
 2830 0116 0100     		.2byte	0x1
 2831 0118 57       		.byte	0x57
 2832 0119 00000000 		.4byte	0
 2833 011d 00000000 		.4byte	0
 2834              	.LLST2:
 2835 0121 22090000 		.4byte	.LVL1
 2836 0125 5A090000 		.4byte	.LVL9
 2837 0129 0200     		.2byte	0x2
 2838 012b 30       		.byte	0x30
 2839 012c 9F       		.byte	0x9f
 2840 012d 5A090000 		.4byte	.LVL9
 2841 0131 F2090000 		.4byte	.LVL23
 2842 0135 0100     		.2byte	0x1
 2843 0137 5B       		.byte	0x5b
 2844 0138 F6090000 		.4byte	.LVL24
 2845 013c 200A0000 		.4byte	.LVL30
 2846 0140 0100     		.2byte	0x1
 2847 0142 5B       		.byte	0x5b
 2848 0143 2C0A0000 		.4byte	.LVL32
 2849 0147 A00B0000 		.4byte	.LVL59
 2850 014b 0100     		.2byte	0x1
 2851 014d 5B       		.byte	0x5b
 2852 014e 740C0000 		.4byte	.LVL70
 2853 0152 8E0C0000 		.4byte	.LVL73
 2854 0156 0100     		.2byte	0x1
 2855 0158 5B       		.byte	0x5b
 2856 0159 BE0C0000 		.4byte	.LVL75
 2857 015d B40E0000 		.4byte	.LFE63
 2858 0161 0100     		.2byte	0x1
 2859 0163 5B       		.byte	0x5b
 2860 0164 00000000 		.4byte	0
 2861 0168 00000000 		.4byte	0
 2862              	.LLST3:
 2863 016c 2A090000 		.4byte	.LVL2
 2864 0170 2E090000 		.4byte	.LVL3
 2865 0174 0200     		.2byte	0x2
 2866 0176 30       		.byte	0x30
 2867 0177 9F       		.byte	0x9f
 2868 0178 2E090000 		.4byte	.LVL3
 2869 017c 3E090000 		.4byte	.LVL4
 2870 0180 0100     		.2byte	0x1
 2871 0182 53       		.byte	0x53
 2872 0183 40090000 		.4byte	.LVL5
 2873 0187 47090000 		.4byte	.LVL6-1
 2874 018b 0100     		.2byte	0x1
 2875 018d 53       		.byte	0x53
 2876 018e 00000000 		.4byte	0
 2877 0192 00000000 		.4byte	0
 2878              	.LLST4:
 2879 0196 6A090000 		.4byte	.LVL10
 2880 019a 82090000 		.4byte	.LVL16
 2881 019e 0100     		.2byte	0x1
 2882 01a0 56       		.byte	0x56
 2883 01a1 82090000 		.4byte	.LVL16
 2884 01a5 85090000 		.4byte	.LVL17-1
 2885 01a9 2000     		.2byte	0x20
ARM GAS  C:\Users\info\AppData\Local\Temp\ccAuJzLL.s 			page 62


 2886 01ab 91       		.byte	0x91
 2887 01ac 00       		.sleb128 0
 2888 01ad 77       		.byte	0x77
 2889 01ae 00       		.sleb128 0
 2890 01af 22       		.byte	0x22
 2891 01b0 0A       		.byte	0xa
 2892 01b1 2810     		.2byte	0x1028
 2893 01b3 1C       		.byte	0x1c
 2894 01b4 94       		.byte	0x94
 2895 01b5 01       		.byte	0x1
 2896 01b6 08       		.byte	0x8
 2897 01b7 FF       		.byte	0xff
 2898 01b8 1A       		.byte	0x1a
 2899 01b9 38       		.byte	0x38
 2900 01ba 24       		.byte	0x24
 2901 01bb 91       		.byte	0x91
 2902 01bc 00       		.sleb128 0
 2903 01bd 72       		.byte	0x72
 2904 01be 00       		.sleb128 0
 2905 01bf 22       		.byte	0x22
 2906 01c0 0A       		.byte	0xa
 2907 01c1 2810     		.2byte	0x1028
 2908 01c3 1C       		.byte	0x1c
 2909 01c4 94       		.byte	0x94
 2910 01c5 01       		.byte	0x1
 2911 01c6 08       		.byte	0x8
 2912 01c7 FF       		.byte	0xff
 2913 01c8 1A       		.byte	0x1a
 2914 01c9 21       		.byte	0x21
 2915 01ca 9F       		.byte	0x9f
 2916 01cb 85090000 		.4byte	.LVL17-1
 2917 01cf FC090000 		.4byte	.LVL25
 2918 01d3 2000     		.2byte	0x20
 2919 01d5 91       		.byte	0x91
 2920 01d6 00       		.sleb128 0
 2921 01d7 77       		.byte	0x77
 2922 01d8 00       		.sleb128 0
 2923 01d9 22       		.byte	0x22
 2924 01da 0A       		.byte	0xa
 2925 01db 2810     		.2byte	0x1028
 2926 01dd 1C       		.byte	0x1c
 2927 01de 94       		.byte	0x94
 2928 01df 01       		.byte	0x1
 2929 01e0 08       		.byte	0x8
 2930 01e1 FF       		.byte	0xff
 2931 01e2 1A       		.byte	0x1a
 2932 01e3 38       		.byte	0x38
 2933 01e4 24       		.byte	0x24
 2934 01e5 91       		.byte	0x91
 2935 01e6 00       		.sleb128 0
 2936 01e7 77       		.byte	0x77
 2937 01e8 00       		.sleb128 0
 2938 01e9 22       		.byte	0x22
 2939 01ea 0A       		.byte	0xa
 2940 01eb 2710     		.2byte	0x1027
 2941 01ed 1C       		.byte	0x1c
 2942 01ee 94       		.byte	0x94
ARM GAS  C:\Users\info\AppData\Local\Temp\ccAuJzLL.s 			page 63


 2943 01ef 01       		.byte	0x1
 2944 01f0 08       		.byte	0x8
 2945 01f1 FF       		.byte	0xff
 2946 01f2 1A       		.byte	0x1a
 2947 01f3 21       		.byte	0x21
 2948 01f4 9F       		.byte	0x9f
 2949 01f5 020A0000 		.4byte	.LVL26
 2950 01f9 060A0000 		.4byte	.LVL27
 2951 01fd 2000     		.2byte	0x20
 2952 01ff 91       		.byte	0x91
 2953 0200 00       		.sleb128 0
 2954 0201 77       		.byte	0x77
 2955 0202 00       		.sleb128 0
 2956 0203 22       		.byte	0x22
 2957 0204 0A       		.byte	0xa
 2958 0205 2810     		.2byte	0x1028
 2959 0207 1C       		.byte	0x1c
 2960 0208 94       		.byte	0x94
 2961 0209 01       		.byte	0x1
 2962 020a 08       		.byte	0x8
 2963 020b FF       		.byte	0xff
 2964 020c 1A       		.byte	0x1a
 2965 020d 38       		.byte	0x38
 2966 020e 24       		.byte	0x24
 2967 020f 91       		.byte	0x91
 2968 0210 00       		.sleb128 0
 2969 0211 77       		.byte	0x77
 2970 0212 00       		.sleb128 0
 2971 0213 22       		.byte	0x22
 2972 0214 0A       		.byte	0xa
 2973 0215 2710     		.2byte	0x1027
 2974 0217 1C       		.byte	0x1c
 2975 0218 94       		.byte	0x94
 2976 0219 01       		.byte	0x1
 2977 021a 08       		.byte	0x8
 2978 021b FF       		.byte	0xff
 2979 021c 1A       		.byte	0x1a
 2980 021d 21       		.byte	0x21
 2981 021e 9F       		.byte	0x9f
 2982 021f 0E0A0000 		.4byte	.LVL29
 2983 0223 260A0000 		.4byte	.LVL31
 2984 0227 2000     		.2byte	0x20
 2985 0229 91       		.byte	0x91
 2986 022a 00       		.sleb128 0
 2987 022b 77       		.byte	0x77
 2988 022c 00       		.sleb128 0
 2989 022d 22       		.byte	0x22
 2990 022e 0A       		.byte	0xa
 2991 022f 2810     		.2byte	0x1028
 2992 0231 1C       		.byte	0x1c
 2993 0232 94       		.byte	0x94
 2994 0233 01       		.byte	0x1
 2995 0234 08       		.byte	0x8
 2996 0235 FF       		.byte	0xff
 2997 0236 1A       		.byte	0x1a
 2998 0237 38       		.byte	0x38
 2999 0238 24       		.byte	0x24
ARM GAS  C:\Users\info\AppData\Local\Temp\ccAuJzLL.s 			page 64


 3000 0239 91       		.byte	0x91
 3001 023a 00       		.sleb128 0
 3002 023b 77       		.byte	0x77
 3003 023c 00       		.sleb128 0
 3004 023d 22       		.byte	0x22
 3005 023e 0A       		.byte	0xa
 3006 023f 2710     		.2byte	0x1027
 3007 0241 1C       		.byte	0x1c
 3008 0242 94       		.byte	0x94
 3009 0243 01       		.byte	0x1
 3010 0244 08       		.byte	0x8
 3011 0245 FF       		.byte	0xff
 3012 0246 1A       		.byte	0x1a
 3013 0247 21       		.byte	0x21
 3014 0248 9F       		.byte	0x9f
 3015 0249 2C0A0000 		.4byte	.LVL32
 3016 024d 380A0000 		.4byte	.LVL33
 3017 0251 2000     		.2byte	0x20
 3018 0253 91       		.byte	0x91
 3019 0254 00       		.sleb128 0
 3020 0255 77       		.byte	0x77
 3021 0256 00       		.sleb128 0
 3022 0257 22       		.byte	0x22
 3023 0258 0A       		.byte	0xa
 3024 0259 2810     		.2byte	0x1028
 3025 025b 1C       		.byte	0x1c
 3026 025c 94       		.byte	0x94
 3027 025d 01       		.byte	0x1
 3028 025e 08       		.byte	0x8
 3029 025f FF       		.byte	0xff
 3030 0260 1A       		.byte	0x1a
 3031 0261 38       		.byte	0x38
 3032 0262 24       		.byte	0x24
 3033 0263 91       		.byte	0x91
 3034 0264 00       		.sleb128 0
 3035 0265 77       		.byte	0x77
 3036 0266 00       		.sleb128 0
 3037 0267 22       		.byte	0x22
 3038 0268 0A       		.byte	0xa
 3039 0269 2710     		.2byte	0x1027
 3040 026b 1C       		.byte	0x1c
 3041 026c 94       		.byte	0x94
 3042 026d 01       		.byte	0x1
 3043 026e 08       		.byte	0x8
 3044 026f FF       		.byte	0xff
 3045 0270 1A       		.byte	0x1a
 3046 0271 21       		.byte	0x21
 3047 0272 9F       		.byte	0x9f
 3048 0273 380A0000 		.4byte	.LVL33
 3049 0277 3A0A0000 		.4byte	.LVL34
 3050 027b 2000     		.2byte	0x20
 3051 027d 91       		.byte	0x91
 3052 027e 00       		.sleb128 0
 3053 027f 77       		.byte	0x77
 3054 0280 00       		.sleb128 0
 3055 0281 22       		.byte	0x22
 3056 0282 0A       		.byte	0xa
ARM GAS  C:\Users\info\AppData\Local\Temp\ccAuJzLL.s 			page 65


 3057 0283 2A10     		.2byte	0x102a
 3058 0285 1C       		.byte	0x1c
 3059 0286 94       		.byte	0x94
 3060 0287 01       		.byte	0x1
 3061 0288 08       		.byte	0x8
 3062 0289 FF       		.byte	0xff
 3063 028a 1A       		.byte	0x1a
 3064 028b 38       		.byte	0x38
 3065 028c 24       		.byte	0x24
 3066 028d 91       		.byte	0x91
 3067 028e 00       		.sleb128 0
 3068 028f 77       		.byte	0x77
 3069 0290 00       		.sleb128 0
 3070 0291 22       		.byte	0x22
 3071 0292 0A       		.byte	0xa
 3072 0293 2910     		.2byte	0x1029
 3073 0295 1C       		.byte	0x1c
 3074 0296 94       		.byte	0x94
 3075 0297 01       		.byte	0x1
 3076 0298 08       		.byte	0x8
 3077 0299 FF       		.byte	0xff
 3078 029a 1A       		.byte	0x1a
 3079 029b 21       		.byte	0x21
 3080 029c 9F       		.byte	0x9f
 3081 029d 400A0000 		.4byte	.LVL35
 3082 02a1 4C0A0000 		.4byte	.LVL36
 3083 02a5 2000     		.2byte	0x20
 3084 02a7 91       		.byte	0x91
 3085 02a8 00       		.sleb128 0
 3086 02a9 77       		.byte	0x77
 3087 02aa 00       		.sleb128 0
 3088 02ab 22       		.byte	0x22
 3089 02ac 0A       		.byte	0xa
 3090 02ad 2810     		.2byte	0x1028
 3091 02af 1C       		.byte	0x1c
 3092 02b0 94       		.byte	0x94
 3093 02b1 01       		.byte	0x1
 3094 02b2 08       		.byte	0x8
 3095 02b3 FF       		.byte	0xff
 3096 02b4 1A       		.byte	0x1a
 3097 02b5 38       		.byte	0x38
 3098 02b6 24       		.byte	0x24
 3099 02b7 91       		.byte	0x91
 3100 02b8 00       		.sleb128 0
 3101 02b9 77       		.byte	0x77
 3102 02ba 00       		.sleb128 0
 3103 02bb 22       		.byte	0x22
 3104 02bc 0A       		.byte	0xa
 3105 02bd 2710     		.2byte	0x1027
 3106 02bf 1C       		.byte	0x1c
 3107 02c0 94       		.byte	0x94
 3108 02c1 01       		.byte	0x1
 3109 02c2 08       		.byte	0x8
 3110 02c3 FF       		.byte	0xff
 3111 02c4 1A       		.byte	0x1a
 3112 02c5 21       		.byte	0x21
 3113 02c6 9F       		.byte	0x9f
ARM GAS  C:\Users\info\AppData\Local\Temp\ccAuJzLL.s 			page 66


 3114 02c7 4C0A0000 		.4byte	.LVL36
 3115 02cb 4E0A0000 		.4byte	.LVL37
 3116 02cf 2000     		.2byte	0x20
 3117 02d1 91       		.byte	0x91
 3118 02d2 00       		.sleb128 0
 3119 02d3 77       		.byte	0x77
 3120 02d4 00       		.sleb128 0
 3121 02d5 22       		.byte	0x22
 3122 02d6 0A       		.byte	0xa
 3123 02d7 2A10     		.2byte	0x102a
 3124 02d9 1C       		.byte	0x1c
 3125 02da 94       		.byte	0x94
 3126 02db 01       		.byte	0x1
 3127 02dc 08       		.byte	0x8
 3128 02dd FF       		.byte	0xff
 3129 02de 1A       		.byte	0x1a
 3130 02df 38       		.byte	0x38
 3131 02e0 24       		.byte	0x24
 3132 02e1 91       		.byte	0x91
 3133 02e2 00       		.sleb128 0
 3134 02e3 77       		.byte	0x77
 3135 02e4 00       		.sleb128 0
 3136 02e5 22       		.byte	0x22
 3137 02e6 0A       		.byte	0xa
 3138 02e7 2910     		.2byte	0x1029
 3139 02e9 1C       		.byte	0x1c
 3140 02ea 94       		.byte	0x94
 3141 02eb 01       		.byte	0x1
 3142 02ec 08       		.byte	0x8
 3143 02ed FF       		.byte	0xff
 3144 02ee 1A       		.byte	0x1a
 3145 02ef 21       		.byte	0x21
 3146 02f0 9F       		.byte	0x9f
 3147 02f1 540A0000 		.4byte	.LVL38
 3148 02f5 6A0A0000 		.4byte	.LVL39
 3149 02f9 2000     		.2byte	0x20
 3150 02fb 91       		.byte	0x91
 3151 02fc 00       		.sleb128 0
 3152 02fd 77       		.byte	0x77
 3153 02fe 00       		.sleb128 0
 3154 02ff 22       		.byte	0x22
 3155 0300 0A       		.byte	0xa
 3156 0301 2810     		.2byte	0x1028
 3157 0303 1C       		.byte	0x1c
 3158 0304 94       		.byte	0x94
 3159 0305 01       		.byte	0x1
 3160 0306 08       		.byte	0x8
 3161 0307 FF       		.byte	0xff
 3162 0308 1A       		.byte	0x1a
 3163 0309 38       		.byte	0x38
 3164 030a 24       		.byte	0x24
 3165 030b 91       		.byte	0x91
 3166 030c 00       		.sleb128 0
 3167 030d 77       		.byte	0x77
 3168 030e 00       		.sleb128 0
 3169 030f 22       		.byte	0x22
 3170 0310 0A       		.byte	0xa
ARM GAS  C:\Users\info\AppData\Local\Temp\ccAuJzLL.s 			page 67


 3171 0311 2710     		.2byte	0x1027
 3172 0313 1C       		.byte	0x1c
 3173 0314 94       		.byte	0x94
 3174 0315 01       		.byte	0x1
 3175 0316 08       		.byte	0x8
 3176 0317 FF       		.byte	0xff
 3177 0318 1A       		.byte	0x1a
 3178 0319 21       		.byte	0x21
 3179 031a 9F       		.byte	0x9f
 3180 031b 6A0A0000 		.4byte	.LVL39
 3181 031f 6C0A0000 		.4byte	.LVL40
 3182 0323 2000     		.2byte	0x20
 3183 0325 91       		.byte	0x91
 3184 0326 00       		.sleb128 0
 3185 0327 77       		.byte	0x77
 3186 0328 00       		.sleb128 0
 3187 0329 22       		.byte	0x22
 3188 032a 0A       		.byte	0xa
 3189 032b 2A10     		.2byte	0x102a
 3190 032d 1C       		.byte	0x1c
 3191 032e 94       		.byte	0x94
 3192 032f 01       		.byte	0x1
 3193 0330 08       		.byte	0x8
 3194 0331 FF       		.byte	0xff
 3195 0332 1A       		.byte	0x1a
 3196 0333 38       		.byte	0x38
 3197 0334 24       		.byte	0x24
 3198 0335 91       		.byte	0x91
 3199 0336 00       		.sleb128 0
 3200 0337 77       		.byte	0x77
 3201 0338 00       		.sleb128 0
 3202 0339 22       		.byte	0x22
 3203 033a 0A       		.byte	0xa
 3204 033b 2910     		.2byte	0x1029
 3205 033d 1C       		.byte	0x1c
 3206 033e 94       		.byte	0x94
 3207 033f 01       		.byte	0x1
 3208 0340 08       		.byte	0x8
 3209 0341 FF       		.byte	0xff
 3210 0342 1A       		.byte	0x1a
 3211 0343 21       		.byte	0x21
 3212 0344 9F       		.byte	0x9f
 3213 0345 720A0000 		.4byte	.LVL41
 3214 0349 880A0000 		.4byte	.LVL42
 3215 034d 2000     		.2byte	0x20
 3216 034f 91       		.byte	0x91
 3217 0350 00       		.sleb128 0
 3218 0351 77       		.byte	0x77
 3219 0352 00       		.sleb128 0
 3220 0353 22       		.byte	0x22
 3221 0354 0A       		.byte	0xa
 3222 0355 2810     		.2byte	0x1028
 3223 0357 1C       		.byte	0x1c
 3224 0358 94       		.byte	0x94
 3225 0359 01       		.byte	0x1
 3226 035a 08       		.byte	0x8
 3227 035b FF       		.byte	0xff
ARM GAS  C:\Users\info\AppData\Local\Temp\ccAuJzLL.s 			page 68


 3228 035c 1A       		.byte	0x1a
 3229 035d 38       		.byte	0x38
 3230 035e 24       		.byte	0x24
 3231 035f 91       		.byte	0x91
 3232 0360 00       		.sleb128 0
 3233 0361 77       		.byte	0x77
 3234 0362 00       		.sleb128 0
 3235 0363 22       		.byte	0x22
 3236 0364 0A       		.byte	0xa
 3237 0365 2710     		.2byte	0x1027
 3238 0367 1C       		.byte	0x1c
 3239 0368 94       		.byte	0x94
 3240 0369 01       		.byte	0x1
 3241 036a 08       		.byte	0x8
 3242 036b FF       		.byte	0xff
 3243 036c 1A       		.byte	0x1a
 3244 036d 21       		.byte	0x21
 3245 036e 9F       		.byte	0x9f
 3246 036f 880A0000 		.4byte	.LVL42
 3247 0373 8A0A0000 		.4byte	.LVL43
 3248 0377 2000     		.2byte	0x20
 3249 0379 91       		.byte	0x91
 3250 037a 00       		.sleb128 0
 3251 037b 77       		.byte	0x77
 3252 037c 00       		.sleb128 0
 3253 037d 22       		.byte	0x22
 3254 037e 0A       		.byte	0xa
 3255 037f 2A10     		.2byte	0x102a
 3256 0381 1C       		.byte	0x1c
 3257 0382 94       		.byte	0x94
 3258 0383 01       		.byte	0x1
 3259 0384 08       		.byte	0x8
 3260 0385 FF       		.byte	0xff
 3261 0386 1A       		.byte	0x1a
 3262 0387 38       		.byte	0x38
 3263 0388 24       		.byte	0x24
 3264 0389 91       		.byte	0x91
 3265 038a 00       		.sleb128 0
 3266 038b 77       		.byte	0x77
 3267 038c 00       		.sleb128 0
 3268 038d 22       		.byte	0x22
 3269 038e 0A       		.byte	0xa
 3270 038f 2910     		.2byte	0x1029
 3271 0391 1C       		.byte	0x1c
 3272 0392 94       		.byte	0x94
 3273 0393 01       		.byte	0x1
 3274 0394 08       		.byte	0x8
 3275 0395 FF       		.byte	0xff
 3276 0396 1A       		.byte	0x1a
 3277 0397 21       		.byte	0x21
 3278 0398 9F       		.byte	0x9f
 3279 0399 900A0000 		.4byte	.LVL44
 3280 039d A00B0000 		.4byte	.LVL59
 3281 03a1 2000     		.2byte	0x20
 3282 03a3 91       		.byte	0x91
 3283 03a4 00       		.sleb128 0
 3284 03a5 77       		.byte	0x77
ARM GAS  C:\Users\info\AppData\Local\Temp\ccAuJzLL.s 			page 69


 3285 03a6 00       		.sleb128 0
 3286 03a7 22       		.byte	0x22
 3287 03a8 0A       		.byte	0xa
 3288 03a9 2810     		.2byte	0x1028
 3289 03ab 1C       		.byte	0x1c
 3290 03ac 94       		.byte	0x94
 3291 03ad 01       		.byte	0x1
 3292 03ae 08       		.byte	0x8
 3293 03af FF       		.byte	0xff
 3294 03b0 1A       		.byte	0x1a
 3295 03b1 38       		.byte	0x38
 3296 03b2 24       		.byte	0x24
 3297 03b3 91       		.byte	0x91
 3298 03b4 00       		.sleb128 0
 3299 03b5 77       		.byte	0x77
 3300 03b6 00       		.sleb128 0
 3301 03b7 22       		.byte	0x22
 3302 03b8 0A       		.byte	0xa
 3303 03b9 2710     		.2byte	0x1027
 3304 03bb 1C       		.byte	0x1c
 3305 03bc 94       		.byte	0x94
 3306 03bd 01       		.byte	0x1
 3307 03be 08       		.byte	0x8
 3308 03bf FF       		.byte	0xff
 3309 03c0 1A       		.byte	0x1a
 3310 03c1 21       		.byte	0x21
 3311 03c2 9F       		.byte	0x9f
 3312 03c3 A00B0000 		.4byte	.LVL59
 3313 03c7 AE0B0000 		.4byte	.LVL60
 3314 03cb 2000     		.2byte	0x20
 3315 03cd 91       		.byte	0x91
 3316 03ce 00       		.sleb128 0
 3317 03cf 79       		.byte	0x79
 3318 03d0 00       		.sleb128 0
 3319 03d1 22       		.byte	0x22
 3320 03d2 0A       		.byte	0xa
 3321 03d3 2810     		.2byte	0x1028
 3322 03d5 1C       		.byte	0x1c
 3323 03d6 94       		.byte	0x94
 3324 03d7 01       		.byte	0x1
 3325 03d8 08       		.byte	0x8
 3326 03d9 FF       		.byte	0xff
 3327 03da 1A       		.byte	0x1a
 3328 03db 38       		.byte	0x38
 3329 03dc 24       		.byte	0x24
 3330 03dd 91       		.byte	0x91
 3331 03de 00       		.sleb128 0
 3332 03df 79       		.byte	0x79
 3333 03e0 00       		.sleb128 0
 3334 03e1 22       		.byte	0x22
 3335 03e2 0A       		.byte	0xa
 3336 03e3 2710     		.2byte	0x1027
 3337 03e5 1C       		.byte	0x1c
 3338 03e6 94       		.byte	0x94
 3339 03e7 01       		.byte	0x1
 3340 03e8 08       		.byte	0x8
 3341 03e9 FF       		.byte	0xff
ARM GAS  C:\Users\info\AppData\Local\Temp\ccAuJzLL.s 			page 70


 3342 03ea 1A       		.byte	0x1a
 3343 03eb 21       		.byte	0x21
 3344 03ec 9F       		.byte	0x9f
 3345 03ed AE0B0000 		.4byte	.LVL60
 3346 03f1 B00B0000 		.4byte	.LVL61
 3347 03f5 1A00     		.2byte	0x1a
 3348 03f7 72       		.byte	0x72
 3349 03f8 00       		.sleb128 0
 3350 03f9 79       		.byte	0x79
 3351 03fa 00       		.sleb128 0
 3352 03fb 22       		.byte	0x22
 3353 03fc 94       		.byte	0x94
 3354 03fd 01       		.byte	0x1
 3355 03fe 08       		.byte	0x8
 3356 03ff FF       		.byte	0xff
 3357 0400 1A       		.byte	0x1a
 3358 0401 38       		.byte	0x38
 3359 0402 24       		.byte	0x24
 3360 0403 72       		.byte	0x72
 3361 0404 00       		.sleb128 0
 3362 0405 79       		.byte	0x79
 3363 0406 00       		.sleb128 0
 3364 0407 22       		.byte	0x22
 3365 0408 23       		.byte	0x23
 3366 0409 01       		.uleb128 0x1
 3367 040a 94       		.byte	0x94
 3368 040b 01       		.byte	0x1
 3369 040c 08       		.byte	0x8
 3370 040d FF       		.byte	0xff
 3371 040e 1A       		.byte	0x1a
 3372 040f 21       		.byte	0x21
 3373 0410 9F       		.byte	0x9f
 3374 0411 B00B0000 		.4byte	.LVL61
 3375 0415 E60B0000 		.4byte	.LVL64
 3376 0419 2000     		.2byte	0x20
 3377 041b 91       		.byte	0x91
 3378 041c 00       		.sleb128 0
 3379 041d 79       		.byte	0x79
 3380 041e 00       		.sleb128 0
 3381 041f 22       		.byte	0x22
 3382 0420 0A       		.byte	0xa
 3383 0421 2810     		.2byte	0x1028
 3384 0423 1C       		.byte	0x1c
 3385 0424 94       		.byte	0x94
 3386 0425 01       		.byte	0x1
 3387 0426 08       		.byte	0x8
 3388 0427 FF       		.byte	0xff
 3389 0428 1A       		.byte	0x1a
 3390 0429 38       		.byte	0x38
 3391 042a 24       		.byte	0x24
 3392 042b 91       		.byte	0x91
 3393 042c 00       		.sleb128 0
 3394 042d 79       		.byte	0x79
 3395 042e 00       		.sleb128 0
 3396 042f 22       		.byte	0x22
 3397 0430 0A       		.byte	0xa
 3398 0431 2710     		.2byte	0x1027
ARM GAS  C:\Users\info\AppData\Local\Temp\ccAuJzLL.s 			page 71


 3399 0433 1C       		.byte	0x1c
 3400 0434 94       		.byte	0x94
 3401 0435 01       		.byte	0x1
 3402 0436 08       		.byte	0x8
 3403 0437 FF       		.byte	0xff
 3404 0438 1A       		.byte	0x1a
 3405 0439 21       		.byte	0x21
 3406 043a 9F       		.byte	0x9f
 3407 043b E60B0000 		.4byte	.LVL64
 3408 043f E80B0000 		.4byte	.LVL65
 3409 0443 1A00     		.2byte	0x1a
 3410 0445 72       		.byte	0x72
 3411 0446 00       		.sleb128 0
 3412 0447 79       		.byte	0x79
 3413 0448 00       		.sleb128 0
 3414 0449 22       		.byte	0x22
 3415 044a 94       		.byte	0x94
 3416 044b 01       		.byte	0x1
 3417 044c 08       		.byte	0x8
 3418 044d FF       		.byte	0xff
 3419 044e 1A       		.byte	0x1a
 3420 044f 38       		.byte	0x38
 3421 0450 24       		.byte	0x24
 3422 0451 72       		.byte	0x72
 3423 0452 00       		.sleb128 0
 3424 0453 79       		.byte	0x79
 3425 0454 00       		.sleb128 0
 3426 0455 22       		.byte	0x22
 3427 0456 23       		.byte	0x23
 3428 0457 01       		.uleb128 0x1
 3429 0458 94       		.byte	0x94
 3430 0459 01       		.byte	0x1
 3431 045a 08       		.byte	0x8
 3432 045b FF       		.byte	0xff
 3433 045c 1A       		.byte	0x1a
 3434 045d 21       		.byte	0x21
 3435 045e 9F       		.byte	0x9f
 3436 045f E80B0000 		.4byte	.LVL65
 3437 0463 740C0000 		.4byte	.LVL70
 3438 0467 2000     		.2byte	0x20
 3439 0469 91       		.byte	0x91
 3440 046a 00       		.sleb128 0
 3441 046b 79       		.byte	0x79
 3442 046c 00       		.sleb128 0
 3443 046d 22       		.byte	0x22
 3444 046e 0A       		.byte	0xa
 3445 046f 2810     		.2byte	0x1028
 3446 0471 1C       		.byte	0x1c
 3447 0472 94       		.byte	0x94
 3448 0473 01       		.byte	0x1
 3449 0474 08       		.byte	0x8
 3450 0475 FF       		.byte	0xff
 3451 0476 1A       		.byte	0x1a
 3452 0477 38       		.byte	0x38
 3453 0478 24       		.byte	0x24
 3454 0479 91       		.byte	0x91
 3455 047a 00       		.sleb128 0
ARM GAS  C:\Users\info\AppData\Local\Temp\ccAuJzLL.s 			page 72


 3456 047b 79       		.byte	0x79
 3457 047c 00       		.sleb128 0
 3458 047d 22       		.byte	0x22
 3459 047e 0A       		.byte	0xa
 3460 047f 2710     		.2byte	0x1027
 3461 0481 1C       		.byte	0x1c
 3462 0482 94       		.byte	0x94
 3463 0483 01       		.byte	0x1
 3464 0484 08       		.byte	0x8
 3465 0485 FF       		.byte	0xff
 3466 0486 1A       		.byte	0x1a
 3467 0487 21       		.byte	0x21
 3468 0488 9F       		.byte	0x9f
 3469 0489 740C0000 		.4byte	.LVL70
 3470 048d 920C0000 		.4byte	.LVL74
 3471 0491 2000     		.2byte	0x20
 3472 0493 91       		.byte	0x91
 3473 0494 00       		.sleb128 0
 3474 0495 77       		.byte	0x77
 3475 0496 00       		.sleb128 0
 3476 0497 22       		.byte	0x22
 3477 0498 0A       		.byte	0xa
 3478 0499 2810     		.2byte	0x1028
 3479 049b 1C       		.byte	0x1c
 3480 049c 94       		.byte	0x94
 3481 049d 01       		.byte	0x1
 3482 049e 08       		.byte	0x8
 3483 049f FF       		.byte	0xff
 3484 04a0 1A       		.byte	0x1a
 3485 04a1 38       		.byte	0x38
 3486 04a2 24       		.byte	0x24
 3487 04a3 91       		.byte	0x91
 3488 04a4 00       		.sleb128 0
 3489 04a5 77       		.byte	0x77
 3490 04a6 00       		.sleb128 0
 3491 04a7 22       		.byte	0x22
 3492 04a8 0A       		.byte	0xa
 3493 04a9 2710     		.2byte	0x1027
 3494 04ab 1C       		.byte	0x1c
 3495 04ac 94       		.byte	0x94
 3496 04ad 01       		.byte	0x1
 3497 04ae 08       		.byte	0x8
 3498 04af FF       		.byte	0xff
 3499 04b0 1A       		.byte	0x1a
 3500 04b1 21       		.byte	0x21
 3501 04b2 9F       		.byte	0x9f
 3502 04b3 920C0000 		.4byte	.LVL74
 3503 04b7 BE0C0000 		.4byte	.LVL75
 3504 04bb 2000     		.2byte	0x20
 3505 04bd 91       		.byte	0x91
 3506 04be 00       		.sleb128 0
 3507 04bf 79       		.byte	0x79
 3508 04c0 00       		.sleb128 0
 3509 04c1 22       		.byte	0x22
 3510 04c2 0A       		.byte	0xa
 3511 04c3 2810     		.2byte	0x1028
 3512 04c5 1C       		.byte	0x1c
ARM GAS  C:\Users\info\AppData\Local\Temp\ccAuJzLL.s 			page 73


 3513 04c6 94       		.byte	0x94
 3514 04c7 01       		.byte	0x1
 3515 04c8 08       		.byte	0x8
 3516 04c9 FF       		.byte	0xff
 3517 04ca 1A       		.byte	0x1a
 3518 04cb 38       		.byte	0x38
 3519 04cc 24       		.byte	0x24
 3520 04cd 91       		.byte	0x91
 3521 04ce 00       		.sleb128 0
 3522 04cf 79       		.byte	0x79
 3523 04d0 00       		.sleb128 0
 3524 04d1 22       		.byte	0x22
 3525 04d2 0A       		.byte	0xa
 3526 04d3 2710     		.2byte	0x1027
 3527 04d5 1C       		.byte	0x1c
 3528 04d6 94       		.byte	0x94
 3529 04d7 01       		.byte	0x1
 3530 04d8 08       		.byte	0x8
 3531 04d9 FF       		.byte	0xff
 3532 04da 1A       		.byte	0x1a
 3533 04db 21       		.byte	0x21
 3534 04dc 9F       		.byte	0x9f
 3535 04dd BE0C0000 		.4byte	.LVL75
 3536 04e1 DE0C0000 		.4byte	.LVL76
 3537 04e5 2000     		.2byte	0x20
 3538 04e7 91       		.byte	0x91
 3539 04e8 00       		.sleb128 0
 3540 04e9 77       		.byte	0x77
 3541 04ea 00       		.sleb128 0
 3542 04eb 22       		.byte	0x22
 3543 04ec 0A       		.byte	0xa
 3544 04ed 2810     		.2byte	0x1028
 3545 04ef 1C       		.byte	0x1c
 3546 04f0 94       		.byte	0x94
 3547 04f1 01       		.byte	0x1
 3548 04f2 08       		.byte	0x8
 3549 04f3 FF       		.byte	0xff
 3550 04f4 1A       		.byte	0x1a
 3551 04f5 38       		.byte	0x38
 3552 04f6 24       		.byte	0x24
 3553 04f7 91       		.byte	0x91
 3554 04f8 00       		.sleb128 0
 3555 04f9 77       		.byte	0x77
 3556 04fa 00       		.sleb128 0
 3557 04fb 22       		.byte	0x22
 3558 04fc 0A       		.byte	0xa
 3559 04fd 2710     		.2byte	0x1027
 3560 04ff 1C       		.byte	0x1c
 3561 0500 94       		.byte	0x94
 3562 0501 01       		.byte	0x1
 3563 0502 08       		.byte	0x8
 3564 0503 FF       		.byte	0xff
 3565 0504 1A       		.byte	0x1a
 3566 0505 21       		.byte	0x21
 3567 0506 9F       		.byte	0x9f
 3568 0507 DE0C0000 		.4byte	.LVL76
 3569 050b E00C0000 		.4byte	.LVL77
ARM GAS  C:\Users\info\AppData\Local\Temp\ccAuJzLL.s 			page 74


 3570 050f 2000     		.2byte	0x20
 3571 0511 91       		.byte	0x91
 3572 0512 00       		.sleb128 0
 3573 0513 77       		.byte	0x77
 3574 0514 00       		.sleb128 0
 3575 0515 22       		.byte	0x22
 3576 0516 0A       		.byte	0xa
 3577 0517 2A10     		.2byte	0x102a
 3578 0519 1C       		.byte	0x1c
 3579 051a 94       		.byte	0x94
 3580 051b 01       		.byte	0x1
 3581 051c 08       		.byte	0x8
 3582 051d FF       		.byte	0xff
 3583 051e 1A       		.byte	0x1a
 3584 051f 38       		.byte	0x38
 3585 0520 24       		.byte	0x24
 3586 0521 91       		.byte	0x91
 3587 0522 00       		.sleb128 0
 3588 0523 77       		.byte	0x77
 3589 0524 00       		.sleb128 0
 3590 0525 22       		.byte	0x22
 3591 0526 0A       		.byte	0xa
 3592 0527 2910     		.2byte	0x1029
 3593 0529 1C       		.byte	0x1c
 3594 052a 94       		.byte	0x94
 3595 052b 01       		.byte	0x1
 3596 052c 08       		.byte	0x8
 3597 052d FF       		.byte	0xff
 3598 052e 1A       		.byte	0x1a
 3599 052f 21       		.byte	0x21
 3600 0530 9F       		.byte	0x9f
 3601 0531 E60C0000 		.4byte	.LVL78
 3602 0535 FC0C0000 		.4byte	.LVL79
 3603 0539 2000     		.2byte	0x20
 3604 053b 91       		.byte	0x91
 3605 053c 00       		.sleb128 0
 3606 053d 77       		.byte	0x77
 3607 053e 00       		.sleb128 0
 3608 053f 22       		.byte	0x22
 3609 0540 0A       		.byte	0xa
 3610 0541 2810     		.2byte	0x1028
 3611 0543 1C       		.byte	0x1c
 3612 0544 94       		.byte	0x94
 3613 0545 01       		.byte	0x1
 3614 0546 08       		.byte	0x8
 3615 0547 FF       		.byte	0xff
 3616 0548 1A       		.byte	0x1a
 3617 0549 38       		.byte	0x38
 3618 054a 24       		.byte	0x24
 3619 054b 91       		.byte	0x91
 3620 054c 00       		.sleb128 0
 3621 054d 77       		.byte	0x77
 3622 054e 00       		.sleb128 0
 3623 054f 22       		.byte	0x22
 3624 0550 0A       		.byte	0xa
 3625 0551 2710     		.2byte	0x1027
 3626 0553 1C       		.byte	0x1c
ARM GAS  C:\Users\info\AppData\Local\Temp\ccAuJzLL.s 			page 75


 3627 0554 94       		.byte	0x94
 3628 0555 01       		.byte	0x1
 3629 0556 08       		.byte	0x8
 3630 0557 FF       		.byte	0xff
 3631 0558 1A       		.byte	0x1a
 3632 0559 21       		.byte	0x21
 3633 055a 9F       		.byte	0x9f
 3634 055b FC0C0000 		.4byte	.LVL79
 3635 055f FE0C0000 		.4byte	.LVL80
 3636 0563 2000     		.2byte	0x20
 3637 0565 91       		.byte	0x91
 3638 0566 00       		.sleb128 0
 3639 0567 77       		.byte	0x77
 3640 0568 00       		.sleb128 0
 3641 0569 22       		.byte	0x22
 3642 056a 0A       		.byte	0xa
 3643 056b 2A10     		.2byte	0x102a
 3644 056d 1C       		.byte	0x1c
 3645 056e 94       		.byte	0x94
 3646 056f 01       		.byte	0x1
 3647 0570 08       		.byte	0x8
 3648 0571 FF       		.byte	0xff
 3649 0572 1A       		.byte	0x1a
 3650 0573 38       		.byte	0x38
 3651 0574 24       		.byte	0x24
 3652 0575 91       		.byte	0x91
 3653 0576 00       		.sleb128 0
 3654 0577 77       		.byte	0x77
 3655 0578 00       		.sleb128 0
 3656 0579 22       		.byte	0x22
 3657 057a 0A       		.byte	0xa
 3658 057b 2910     		.2byte	0x1029
 3659 057d 1C       		.byte	0x1c
 3660 057e 94       		.byte	0x94
 3661 057f 01       		.byte	0x1
 3662 0580 08       		.byte	0x8
 3663 0581 FF       		.byte	0xff
 3664 0582 1A       		.byte	0x1a
 3665 0583 21       		.byte	0x21
 3666 0584 9F       		.byte	0x9f
 3667 0585 020D0000 		.4byte	.LVL81
 3668 0589 9C0D0000 		.4byte	.LVL86
 3669 058d 2000     		.2byte	0x20
 3670 058f 91       		.byte	0x91
 3671 0590 00       		.sleb128 0
 3672 0591 77       		.byte	0x77
 3673 0592 00       		.sleb128 0
 3674 0593 22       		.byte	0x22
 3675 0594 0A       		.byte	0xa
 3676 0595 2810     		.2byte	0x1028
 3677 0597 1C       		.byte	0x1c
 3678 0598 94       		.byte	0x94
 3679 0599 01       		.byte	0x1
 3680 059a 08       		.byte	0x8
 3681 059b FF       		.byte	0xff
 3682 059c 1A       		.byte	0x1a
 3683 059d 38       		.byte	0x38
ARM GAS  C:\Users\info\AppData\Local\Temp\ccAuJzLL.s 			page 76


 3684 059e 24       		.byte	0x24
 3685 059f 91       		.byte	0x91
 3686 05a0 00       		.sleb128 0
 3687 05a1 77       		.byte	0x77
 3688 05a2 00       		.sleb128 0
 3689 05a3 22       		.byte	0x22
 3690 05a4 0A       		.byte	0xa
 3691 05a5 2710     		.2byte	0x1027
 3692 05a7 1C       		.byte	0x1c
 3693 05a8 94       		.byte	0x94
 3694 05a9 01       		.byte	0x1
 3695 05aa 08       		.byte	0x8
 3696 05ab FF       		.byte	0xff
 3697 05ac 1A       		.byte	0x1a
 3698 05ad 21       		.byte	0x21
 3699 05ae 9F       		.byte	0x9f
 3700 05af 9C0D0000 		.4byte	.LVL86
 3701 05b3 AE0D0000 		.4byte	.LVL87
 3702 05b7 1A00     		.2byte	0x1a
 3703 05b9 70       		.byte	0x70
 3704 05ba 00       		.sleb128 0
 3705 05bb 77       		.byte	0x77
 3706 05bc 00       		.sleb128 0
 3707 05bd 22       		.byte	0x22
 3708 05be 94       		.byte	0x94
 3709 05bf 01       		.byte	0x1
 3710 05c0 08       		.byte	0x8
 3711 05c1 FF       		.byte	0xff
 3712 05c2 1A       		.byte	0x1a
 3713 05c3 38       		.byte	0x38
 3714 05c4 24       		.byte	0x24
 3715 05c5 70       		.byte	0x70
 3716 05c6 00       		.sleb128 0
 3717 05c7 77       		.byte	0x77
 3718 05c8 00       		.sleb128 0
 3719 05c9 22       		.byte	0x22
 3720 05ca 23       		.byte	0x23
 3721 05cb 01       		.uleb128 0x1
 3722 05cc 94       		.byte	0x94
 3723 05cd 01       		.byte	0x1
 3724 05ce 08       		.byte	0x8
 3725 05cf FF       		.byte	0xff
 3726 05d0 1A       		.byte	0x1a
 3727 05d1 21       		.byte	0x21
 3728 05d2 9F       		.byte	0x9f
 3729 05d3 F00D0000 		.4byte	.LVL94
 3730 05d7 F20D0000 		.4byte	.LVL95
 3731 05db 2000     		.2byte	0x20
 3732 05dd 91       		.byte	0x91
 3733 05de 00       		.sleb128 0
 3734 05df 77       		.byte	0x77
 3735 05e0 00       		.sleb128 0
 3736 05e1 22       		.byte	0x22
 3737 05e2 0A       		.byte	0xa
 3738 05e3 2810     		.2byte	0x1028
 3739 05e5 1C       		.byte	0x1c
 3740 05e6 94       		.byte	0x94
ARM GAS  C:\Users\info\AppData\Local\Temp\ccAuJzLL.s 			page 77


 3741 05e7 01       		.byte	0x1
 3742 05e8 08       		.byte	0x8
 3743 05e9 FF       		.byte	0xff
 3744 05ea 1A       		.byte	0x1a
 3745 05eb 38       		.byte	0x38
 3746 05ec 24       		.byte	0x24
 3747 05ed 91       		.byte	0x91
 3748 05ee 00       		.sleb128 0
 3749 05ef 77       		.byte	0x77
 3750 05f0 00       		.sleb128 0
 3751 05f1 22       		.byte	0x22
 3752 05f2 0A       		.byte	0xa
 3753 05f3 2710     		.2byte	0x1027
 3754 05f5 1C       		.byte	0x1c
 3755 05f6 94       		.byte	0x94
 3756 05f7 01       		.byte	0x1
 3757 05f8 08       		.byte	0x8
 3758 05f9 FF       		.byte	0xff
 3759 05fa 1A       		.byte	0x1a
 3760 05fb 21       		.byte	0x21
 3761 05fc 9F       		.byte	0x9f
 3762 05fd FC0D0000 		.4byte	.LVL97
 3763 0601 020E0000 		.4byte	.LVL98
 3764 0605 2000     		.2byte	0x20
 3765 0607 91       		.byte	0x91
 3766 0608 00       		.sleb128 0
 3767 0609 77       		.byte	0x77
 3768 060a 00       		.sleb128 0
 3769 060b 22       		.byte	0x22
 3770 060c 0A       		.byte	0xa
 3771 060d 2810     		.2byte	0x1028
 3772 060f 1C       		.byte	0x1c
 3773 0610 94       		.byte	0x94
 3774 0611 01       		.byte	0x1
 3775 0612 08       		.byte	0x8
 3776 0613 FF       		.byte	0xff
 3777 0614 1A       		.byte	0x1a
 3778 0615 38       		.byte	0x38
 3779 0616 24       		.byte	0x24
 3780 0617 91       		.byte	0x91
 3781 0618 00       		.sleb128 0
 3782 0619 77       		.byte	0x77
 3783 061a 00       		.sleb128 0
 3784 061b 22       		.byte	0x22
 3785 061c 0A       		.byte	0xa
 3786 061d 2710     		.2byte	0x1027
 3787 061f 1C       		.byte	0x1c
 3788 0620 94       		.byte	0x94
 3789 0621 01       		.byte	0x1
 3790 0622 08       		.byte	0x8
 3791 0623 FF       		.byte	0xff
 3792 0624 1A       		.byte	0x1a
 3793 0625 21       		.byte	0x21
 3794 0626 9F       		.byte	0x9f
 3795 0627 020E0000 		.4byte	.LVL98
 3796 062b 060E0000 		.4byte	.LVL99
 3797 062f 1A00     		.2byte	0x1a
ARM GAS  C:\Users\info\AppData\Local\Temp\ccAuJzLL.s 			page 78


 3798 0631 72       		.byte	0x72
 3799 0632 00       		.sleb128 0
 3800 0633 77       		.byte	0x77
 3801 0634 00       		.sleb128 0
 3802 0635 22       		.byte	0x22
 3803 0636 94       		.byte	0x94
 3804 0637 01       		.byte	0x1
 3805 0638 08       		.byte	0x8
 3806 0639 FF       		.byte	0xff
 3807 063a 1A       		.byte	0x1a
 3808 063b 38       		.byte	0x38
 3809 063c 24       		.byte	0x24
 3810 063d 72       		.byte	0x72
 3811 063e 00       		.sleb128 0
 3812 063f 77       		.byte	0x77
 3813 0640 00       		.sleb128 0
 3814 0641 22       		.byte	0x22
 3815 0642 23       		.byte	0x23
 3816 0643 01       		.uleb128 0x1
 3817 0644 94       		.byte	0x94
 3818 0645 01       		.byte	0x1
 3819 0646 08       		.byte	0x8
 3820 0647 FF       		.byte	0xff
 3821 0648 1A       		.byte	0x1a
 3822 0649 21       		.byte	0x21
 3823 064a 9F       		.byte	0x9f
 3824 064b 060E0000 		.4byte	.LVL99
 3825 064f 1C0E0000 		.4byte	.LVL105
 3826 0653 2000     		.2byte	0x20
 3827 0655 91       		.byte	0x91
 3828 0656 00       		.sleb128 0
 3829 0657 77       		.byte	0x77
 3830 0658 00       		.sleb128 0
 3831 0659 22       		.byte	0x22
 3832 065a 0A       		.byte	0xa
 3833 065b 2810     		.2byte	0x1028
 3834 065d 1C       		.byte	0x1c
 3835 065e 94       		.byte	0x94
 3836 065f 01       		.byte	0x1
 3837 0660 08       		.byte	0x8
 3838 0661 FF       		.byte	0xff
 3839 0662 1A       		.byte	0x1a
 3840 0663 38       		.byte	0x38
 3841 0664 24       		.byte	0x24
 3842 0665 91       		.byte	0x91
 3843 0666 00       		.sleb128 0
 3844 0667 77       		.byte	0x77
 3845 0668 00       		.sleb128 0
 3846 0669 22       		.byte	0x22
 3847 066a 0A       		.byte	0xa
 3848 066b 2710     		.2byte	0x1027
 3849 066d 1C       		.byte	0x1c
 3850 066e 94       		.byte	0x94
 3851 066f 01       		.byte	0x1
 3852 0670 08       		.byte	0x8
 3853 0671 FF       		.byte	0xff
 3854 0672 1A       		.byte	0x1a
ARM GAS  C:\Users\info\AppData\Local\Temp\ccAuJzLL.s 			page 79


 3855 0673 21       		.byte	0x21
 3856 0674 9F       		.byte	0x9f
 3857 0675 220E0000 		.4byte	.LVL106
 3858 0679 300E0000 		.4byte	.LVL107
 3859 067d 2000     		.2byte	0x20
 3860 067f 91       		.byte	0x91
 3861 0680 00       		.sleb128 0
 3862 0681 77       		.byte	0x77
 3863 0682 00       		.sleb128 0
 3864 0683 22       		.byte	0x22
 3865 0684 0A       		.byte	0xa
 3866 0685 2810     		.2byte	0x1028
 3867 0687 1C       		.byte	0x1c
 3868 0688 94       		.byte	0x94
 3869 0689 01       		.byte	0x1
 3870 068a 08       		.byte	0x8
 3871 068b FF       		.byte	0xff
 3872 068c 1A       		.byte	0x1a
 3873 068d 38       		.byte	0x38
 3874 068e 24       		.byte	0x24
 3875 068f 91       		.byte	0x91
 3876 0690 00       		.sleb128 0
 3877 0691 77       		.byte	0x77
 3878 0692 00       		.sleb128 0
 3879 0693 22       		.byte	0x22
 3880 0694 0A       		.byte	0xa
 3881 0695 2710     		.2byte	0x1027
 3882 0697 1C       		.byte	0x1c
 3883 0698 94       		.byte	0x94
 3884 0699 01       		.byte	0x1
 3885 069a 08       		.byte	0x8
 3886 069b FF       		.byte	0xff
 3887 069c 1A       		.byte	0x1a
 3888 069d 21       		.byte	0x21
 3889 069e 9F       		.byte	0x9f
 3890 069f 360E0000 		.4byte	.LVL109
 3891 06a3 760E0000 		.4byte	.LVL110
 3892 06a7 2000     		.2byte	0x20
 3893 06a9 91       		.byte	0x91
 3894 06aa 00       		.sleb128 0
 3895 06ab 77       		.byte	0x77
 3896 06ac 00       		.sleb128 0
 3897 06ad 22       		.byte	0x22
 3898 06ae 0A       		.byte	0xa
 3899 06af 2810     		.2byte	0x1028
 3900 06b1 1C       		.byte	0x1c
 3901 06b2 94       		.byte	0x94
 3902 06b3 01       		.byte	0x1
 3903 06b4 08       		.byte	0x8
 3904 06b5 FF       		.byte	0xff
 3905 06b6 1A       		.byte	0x1a
 3906 06b7 38       		.byte	0x38
 3907 06b8 24       		.byte	0x24
 3908 06b9 91       		.byte	0x91
 3909 06ba 00       		.sleb128 0
 3910 06bb 77       		.byte	0x77
 3911 06bc 00       		.sleb128 0
ARM GAS  C:\Users\info\AppData\Local\Temp\ccAuJzLL.s 			page 80


 3912 06bd 22       		.byte	0x22
 3913 06be 0A       		.byte	0xa
 3914 06bf 2710     		.2byte	0x1027
 3915 06c1 1C       		.byte	0x1c
 3916 06c2 94       		.byte	0x94
 3917 06c3 01       		.byte	0x1
 3918 06c4 08       		.byte	0x8
 3919 06c5 FF       		.byte	0xff
 3920 06c6 1A       		.byte	0x1a
 3921 06c7 21       		.byte	0x21
 3922 06c8 9F       		.byte	0x9f
 3923 06c9 00000000 		.4byte	0
 3924 06cd 00000000 		.4byte	0
 3925              	.LLST5:
 3926 06d1 6E090000 		.4byte	.LVL11
 3927 06d5 A00B0000 		.4byte	.LVL59
 3928 06d9 0100     		.2byte	0x1
 3929 06db 59       		.byte	0x59
 3930 06dc A00B0000 		.4byte	.LVL59
 3931 06e0 AE0B0000 		.4byte	.LVL60
 3932 06e4 2200     		.2byte	0x22
 3933 06e6 91       		.byte	0x91
 3934 06e7 00       		.sleb128 0
 3935 06e8 79       		.byte	0x79
 3936 06e9 00       		.sleb128 0
 3937 06ea 22       		.byte	0x22
 3938 06eb 0A       		.byte	0xa
 3939 06ec 2810     		.2byte	0x1028
 3940 06ee 1C       		.byte	0x1c
 3941 06ef 94       		.byte	0x94
 3942 06f0 01       		.byte	0x1
 3943 06f1 08       		.byte	0x8
 3944 06f2 FF       		.byte	0xff
 3945 06f3 1A       		.byte	0x1a
 3946 06f4 38       		.byte	0x38
 3947 06f5 24       		.byte	0x24
 3948 06f6 91       		.byte	0x91
 3949 06f7 00       		.sleb128 0
 3950 06f8 79       		.byte	0x79
 3951 06f9 00       		.sleb128 0
 3952 06fa 22       		.byte	0x22
 3953 06fb 0A       		.byte	0xa
 3954 06fc 2710     		.2byte	0x1027
 3955 06fe 1C       		.byte	0x1c
 3956 06ff 94       		.byte	0x94
 3957 0700 01       		.byte	0x1
 3958 0701 08       		.byte	0x8
 3959 0702 FF       		.byte	0xff
 3960 0703 1A       		.byte	0x1a
 3961 0704 21       		.byte	0x21
 3962 0705 3C       		.byte	0x3c
 3963 0706 25       		.byte	0x25
 3964 0707 9F       		.byte	0x9f
 3965 0708 AE0B0000 		.4byte	.LVL60
 3966 070c B00B0000 		.4byte	.LVL61
 3967 0710 1C00     		.2byte	0x1c
 3968 0712 72       		.byte	0x72
ARM GAS  C:\Users\info\AppData\Local\Temp\ccAuJzLL.s 			page 81


 3969 0713 00       		.sleb128 0
 3970 0714 79       		.byte	0x79
 3971 0715 00       		.sleb128 0
 3972 0716 22       		.byte	0x22
 3973 0717 94       		.byte	0x94
 3974 0718 01       		.byte	0x1
 3975 0719 08       		.byte	0x8
 3976 071a FF       		.byte	0xff
 3977 071b 1A       		.byte	0x1a
 3978 071c 38       		.byte	0x38
 3979 071d 24       		.byte	0x24
 3980 071e 72       		.byte	0x72
 3981 071f 00       		.sleb128 0
 3982 0720 79       		.byte	0x79
 3983 0721 00       		.sleb128 0
 3984 0722 22       		.byte	0x22
 3985 0723 23       		.byte	0x23
 3986 0724 01       		.uleb128 0x1
 3987 0725 94       		.byte	0x94
 3988 0726 01       		.byte	0x1
 3989 0727 08       		.byte	0x8
 3990 0728 FF       		.byte	0xff
 3991 0729 1A       		.byte	0x1a
 3992 072a 21       		.byte	0x21
 3993 072b 3C       		.byte	0x3c
 3994 072c 25       		.byte	0x25
 3995 072d 9F       		.byte	0x9f
 3996 072e B00B0000 		.4byte	.LVL61
 3997 0732 E60B0000 		.4byte	.LVL64
 3998 0736 2200     		.2byte	0x22
 3999 0738 91       		.byte	0x91
 4000 0739 00       		.sleb128 0
 4001 073a 79       		.byte	0x79
 4002 073b 00       		.sleb128 0
 4003 073c 22       		.byte	0x22
 4004 073d 0A       		.byte	0xa
 4005 073e 2810     		.2byte	0x1028
 4006 0740 1C       		.byte	0x1c
 4007 0741 94       		.byte	0x94
 4008 0742 01       		.byte	0x1
 4009 0743 08       		.byte	0x8
 4010 0744 FF       		.byte	0xff
 4011 0745 1A       		.byte	0x1a
 4012 0746 38       		.byte	0x38
 4013 0747 24       		.byte	0x24
 4014 0748 91       		.byte	0x91
 4015 0749 00       		.sleb128 0
 4016 074a 79       		.byte	0x79
 4017 074b 00       		.sleb128 0
 4018 074c 22       		.byte	0x22
 4019 074d 0A       		.byte	0xa
 4020 074e 2710     		.2byte	0x1027
 4021 0750 1C       		.byte	0x1c
 4022 0751 94       		.byte	0x94
 4023 0752 01       		.byte	0x1
 4024 0753 08       		.byte	0x8
 4025 0754 FF       		.byte	0xff
ARM GAS  C:\Users\info\AppData\Local\Temp\ccAuJzLL.s 			page 82


 4026 0755 1A       		.byte	0x1a
 4027 0756 21       		.byte	0x21
 4028 0757 3C       		.byte	0x3c
 4029 0758 25       		.byte	0x25
 4030 0759 9F       		.byte	0x9f
 4031 075a E60B0000 		.4byte	.LVL64
 4032 075e E80B0000 		.4byte	.LVL65
 4033 0762 1C00     		.2byte	0x1c
 4034 0764 72       		.byte	0x72
 4035 0765 00       		.sleb128 0
 4036 0766 79       		.byte	0x79
 4037 0767 00       		.sleb128 0
 4038 0768 22       		.byte	0x22
 4039 0769 94       		.byte	0x94
 4040 076a 01       		.byte	0x1
 4041 076b 08       		.byte	0x8
 4042 076c FF       		.byte	0xff
 4043 076d 1A       		.byte	0x1a
 4044 076e 38       		.byte	0x38
 4045 076f 24       		.byte	0x24
 4046 0770 72       		.byte	0x72
 4047 0771 00       		.sleb128 0
 4048 0772 79       		.byte	0x79
 4049 0773 00       		.sleb128 0
 4050 0774 22       		.byte	0x22
 4051 0775 23       		.byte	0x23
 4052 0776 01       		.uleb128 0x1
 4053 0777 94       		.byte	0x94
 4054 0778 01       		.byte	0x1
 4055 0779 08       		.byte	0x8
 4056 077a FF       		.byte	0xff
 4057 077b 1A       		.byte	0x1a
 4058 077c 21       		.byte	0x21
 4059 077d 3C       		.byte	0x3c
 4060 077e 25       		.byte	0x25
 4061 077f 9F       		.byte	0x9f
 4062 0780 E80B0000 		.4byte	.LVL65
 4063 0784 740C0000 		.4byte	.LVL70
 4064 0788 2200     		.2byte	0x22
 4065 078a 91       		.byte	0x91
 4066 078b 00       		.sleb128 0
 4067 078c 79       		.byte	0x79
 4068 078d 00       		.sleb128 0
 4069 078e 22       		.byte	0x22
 4070 078f 0A       		.byte	0xa
 4071 0790 2810     		.2byte	0x1028
 4072 0792 1C       		.byte	0x1c
 4073 0793 94       		.byte	0x94
 4074 0794 01       		.byte	0x1
 4075 0795 08       		.byte	0x8
 4076 0796 FF       		.byte	0xff
 4077 0797 1A       		.byte	0x1a
 4078 0798 38       		.byte	0x38
 4079 0799 24       		.byte	0x24
 4080 079a 91       		.byte	0x91
 4081 079b 00       		.sleb128 0
 4082 079c 79       		.byte	0x79
ARM GAS  C:\Users\info\AppData\Local\Temp\ccAuJzLL.s 			page 83


 4083 079d 00       		.sleb128 0
 4084 079e 22       		.byte	0x22
 4085 079f 0A       		.byte	0xa
 4086 07a0 2710     		.2byte	0x1027
 4087 07a2 1C       		.byte	0x1c
 4088 07a3 94       		.byte	0x94
 4089 07a4 01       		.byte	0x1
 4090 07a5 08       		.byte	0x8
 4091 07a6 FF       		.byte	0xff
 4092 07a7 1A       		.byte	0x1a
 4093 07a8 21       		.byte	0x21
 4094 07a9 3C       		.byte	0x3c
 4095 07aa 25       		.byte	0x25
 4096 07ab 9F       		.byte	0x9f
 4097 07ac 740C0000 		.4byte	.LVL70
 4098 07b0 800C0000 		.4byte	.LVL72
 4099 07b4 0100     		.2byte	0x1
 4100 07b6 59       		.byte	0x59
 4101 07b7 800C0000 		.4byte	.LVL72
 4102 07bb 920C0000 		.4byte	.LVL74
 4103 07bf 2200     		.2byte	0x22
 4104 07c1 91       		.byte	0x91
 4105 07c2 00       		.sleb128 0
 4106 07c3 77       		.byte	0x77
 4107 07c4 00       		.sleb128 0
 4108 07c5 22       		.byte	0x22
 4109 07c6 0A       		.byte	0xa
 4110 07c7 2810     		.2byte	0x1028
 4111 07c9 1C       		.byte	0x1c
 4112 07ca 94       		.byte	0x94
 4113 07cb 01       		.byte	0x1
 4114 07cc 08       		.byte	0x8
 4115 07cd FF       		.byte	0xff
 4116 07ce 1A       		.byte	0x1a
 4117 07cf 38       		.byte	0x38
 4118 07d0 24       		.byte	0x24
 4119 07d1 91       		.byte	0x91
 4120 07d2 00       		.sleb128 0
 4121 07d3 77       		.byte	0x77
 4122 07d4 00       		.sleb128 0
 4123 07d5 22       		.byte	0x22
 4124 07d6 0A       		.byte	0xa
 4125 07d7 2710     		.2byte	0x1027
 4126 07d9 1C       		.byte	0x1c
 4127 07da 94       		.byte	0x94
 4128 07db 01       		.byte	0x1
 4129 07dc 08       		.byte	0x8
 4130 07dd FF       		.byte	0xff
 4131 07de 1A       		.byte	0x1a
 4132 07df 21       		.byte	0x21
 4133 07e0 3C       		.byte	0x3c
 4134 07e1 25       		.byte	0x25
 4135 07e2 9F       		.byte	0x9f
 4136 07e3 920C0000 		.4byte	.LVL74
 4137 07e7 BE0C0000 		.4byte	.LVL75
 4138 07eb 2200     		.2byte	0x22
 4139 07ed 91       		.byte	0x91
ARM GAS  C:\Users\info\AppData\Local\Temp\ccAuJzLL.s 			page 84


 4140 07ee 00       		.sleb128 0
 4141 07ef 79       		.byte	0x79
 4142 07f0 00       		.sleb128 0
 4143 07f1 22       		.byte	0x22
 4144 07f2 0A       		.byte	0xa
 4145 07f3 2810     		.2byte	0x1028
 4146 07f5 1C       		.byte	0x1c
 4147 07f6 94       		.byte	0x94
 4148 07f7 01       		.byte	0x1
 4149 07f8 08       		.byte	0x8
 4150 07f9 FF       		.byte	0xff
 4151 07fa 1A       		.byte	0x1a
 4152 07fb 38       		.byte	0x38
 4153 07fc 24       		.byte	0x24
 4154 07fd 91       		.byte	0x91
 4155 07fe 00       		.sleb128 0
 4156 07ff 79       		.byte	0x79
 4157 0800 00       		.sleb128 0
 4158 0801 22       		.byte	0x22
 4159 0802 0A       		.byte	0xa
 4160 0803 2710     		.2byte	0x1027
 4161 0805 1C       		.byte	0x1c
 4162 0806 94       		.byte	0x94
 4163 0807 01       		.byte	0x1
 4164 0808 08       		.byte	0x8
 4165 0809 FF       		.byte	0xff
 4166 080a 1A       		.byte	0x1a
 4167 080b 21       		.byte	0x21
 4168 080c 3C       		.byte	0x3c
 4169 080d 25       		.byte	0x25
 4170 080e 9F       		.byte	0x9f
 4171 080f BE0C0000 		.4byte	.LVL75
 4172 0813 760E0000 		.4byte	.LVL110
 4173 0817 0100     		.2byte	0x1
 4174 0819 59       		.byte	0x59
 4175 081a 00000000 		.4byte	0
 4176 081e 00000000 		.4byte	0
 4177              	.LLST6:
 4178 0822 72090000 		.4byte	.LVL12
 4179 0826 B60D0000 		.4byte	.LVL89
 4180 082a 0100     		.2byte	0x1
 4181 082c 54       		.byte	0x54
 4182 082d DE0D0000 		.4byte	.LVL91
 4183 0831 760E0000 		.4byte	.LVL110
 4184 0835 0100     		.2byte	0x1
 4185 0837 54       		.byte	0x54
 4186 0838 00000000 		.4byte	0
 4187 083c 00000000 		.4byte	0
 4188              	.LLST7:
 4189 0840 74090000 		.4byte	.LVL13
 4190 0844 A00A0000 		.4byte	.LVL45
 4191 0848 0100     		.2byte	0x1
 4192 084a 55       		.byte	0x55
 4193 084b A00A0000 		.4byte	.LVL45
 4194 084f A80A0000 		.4byte	.LVL46
 4195 0853 2000     		.2byte	0x20
 4196 0855 91       		.byte	0x91
ARM GAS  C:\Users\info\AppData\Local\Temp\ccAuJzLL.s 			page 85


 4197 0856 00       		.sleb128 0
 4198 0857 77       		.byte	0x77
 4199 0858 00       		.sleb128 0
 4200 0859 22       		.byte	0x22
 4201 085a 0A       		.byte	0xa
 4202 085b 2810     		.2byte	0x1028
 4203 085d 1C       		.byte	0x1c
 4204 085e 94       		.byte	0x94
 4205 085f 01       		.byte	0x1
 4206 0860 08       		.byte	0x8
 4207 0861 FF       		.byte	0xff
 4208 0862 1A       		.byte	0x1a
 4209 0863 38       		.byte	0x38
 4210 0864 24       		.byte	0x24
 4211 0865 91       		.byte	0x91
 4212 0866 00       		.sleb128 0
 4213 0867 77       		.byte	0x77
 4214 0868 00       		.sleb128 0
 4215 0869 22       		.byte	0x22
 4216 086a 0A       		.byte	0xa
 4217 086b 2710     		.2byte	0x1027
 4218 086d 1C       		.byte	0x1c
 4219 086e 94       		.byte	0x94
 4220 086f 01       		.byte	0x1
 4221 0870 08       		.byte	0x8
 4222 0871 FF       		.byte	0xff
 4223 0872 1A       		.byte	0x1a
 4224 0873 21       		.byte	0x21
 4225 0874 9F       		.byte	0x9f
 4226 0875 A80A0000 		.4byte	.LVL46
 4227 0879 A00B0000 		.4byte	.LVL59
 4228 087d 0100     		.2byte	0x1
 4229 087f 55       		.byte	0x55
 4230 0880 A00B0000 		.4byte	.LVL59
 4231 0884 AE0B0000 		.4byte	.LVL60
 4232 0888 2000     		.2byte	0x20
 4233 088a 91       		.byte	0x91
 4234 088b 00       		.sleb128 0
 4235 088c 79       		.byte	0x79
 4236 088d 00       		.sleb128 0
 4237 088e 22       		.byte	0x22
 4238 088f 0A       		.byte	0xa
 4239 0890 2810     		.2byte	0x1028
 4240 0892 1C       		.byte	0x1c
 4241 0893 94       		.byte	0x94
 4242 0894 01       		.byte	0x1
 4243 0895 08       		.byte	0x8
 4244 0896 FF       		.byte	0xff
 4245 0897 1A       		.byte	0x1a
 4246 0898 38       		.byte	0x38
 4247 0899 24       		.byte	0x24
 4248 089a 91       		.byte	0x91
 4249 089b 00       		.sleb128 0
 4250 089c 79       		.byte	0x79
 4251 089d 00       		.sleb128 0
 4252 089e 22       		.byte	0x22
 4253 089f 0A       		.byte	0xa
ARM GAS  C:\Users\info\AppData\Local\Temp\ccAuJzLL.s 			page 86


 4254 08a0 2710     		.2byte	0x1027
 4255 08a2 1C       		.byte	0x1c
 4256 08a3 94       		.byte	0x94
 4257 08a4 01       		.byte	0x1
 4258 08a5 08       		.byte	0x8
 4259 08a6 FF       		.byte	0xff
 4260 08a7 1A       		.byte	0x1a
 4261 08a8 21       		.byte	0x21
 4262 08a9 9F       		.byte	0x9f
 4263 08aa AE0B0000 		.4byte	.LVL60
 4264 08ae B00B0000 		.4byte	.LVL61
 4265 08b2 1A00     		.2byte	0x1a
 4266 08b4 72       		.byte	0x72
 4267 08b5 00       		.sleb128 0
 4268 08b6 79       		.byte	0x79
 4269 08b7 00       		.sleb128 0
 4270 08b8 22       		.byte	0x22
 4271 08b9 94       		.byte	0x94
 4272 08ba 01       		.byte	0x1
 4273 08bb 08       		.byte	0x8
 4274 08bc FF       		.byte	0xff
 4275 08bd 1A       		.byte	0x1a
 4276 08be 38       		.byte	0x38
 4277 08bf 24       		.byte	0x24
 4278 08c0 72       		.byte	0x72
 4279 08c1 00       		.sleb128 0
 4280 08c2 79       		.byte	0x79
 4281 08c3 00       		.sleb128 0
 4282 08c4 22       		.byte	0x22
 4283 08c5 23       		.byte	0x23
 4284 08c6 01       		.uleb128 0x1
 4285 08c7 94       		.byte	0x94
 4286 08c8 01       		.byte	0x1
 4287 08c9 08       		.byte	0x8
 4288 08ca FF       		.byte	0xff
 4289 08cb 1A       		.byte	0x1a
 4290 08cc 21       		.byte	0x21
 4291 08cd 9F       		.byte	0x9f
 4292 08ce B00B0000 		.4byte	.LVL61
 4293 08d2 E60B0000 		.4byte	.LVL64
 4294 08d6 2000     		.2byte	0x20
 4295 08d8 91       		.byte	0x91
 4296 08d9 00       		.sleb128 0
 4297 08da 79       		.byte	0x79
 4298 08db 00       		.sleb128 0
 4299 08dc 22       		.byte	0x22
 4300 08dd 0A       		.byte	0xa
 4301 08de 2810     		.2byte	0x1028
 4302 08e0 1C       		.byte	0x1c
 4303 08e1 94       		.byte	0x94
 4304 08e2 01       		.byte	0x1
 4305 08e3 08       		.byte	0x8
 4306 08e4 FF       		.byte	0xff
 4307 08e5 1A       		.byte	0x1a
 4308 08e6 38       		.byte	0x38
 4309 08e7 24       		.byte	0x24
 4310 08e8 91       		.byte	0x91
ARM GAS  C:\Users\info\AppData\Local\Temp\ccAuJzLL.s 			page 87


 4311 08e9 00       		.sleb128 0
 4312 08ea 79       		.byte	0x79
 4313 08eb 00       		.sleb128 0
 4314 08ec 22       		.byte	0x22
 4315 08ed 0A       		.byte	0xa
 4316 08ee 2710     		.2byte	0x1027
 4317 08f0 1C       		.byte	0x1c
 4318 08f1 94       		.byte	0x94
 4319 08f2 01       		.byte	0x1
 4320 08f3 08       		.byte	0x8
 4321 08f4 FF       		.byte	0xff
 4322 08f5 1A       		.byte	0x1a
 4323 08f6 21       		.byte	0x21
 4324 08f7 9F       		.byte	0x9f
 4325 08f8 E60B0000 		.4byte	.LVL64
 4326 08fc E80B0000 		.4byte	.LVL65
 4327 0900 1A00     		.2byte	0x1a
 4328 0902 72       		.byte	0x72
 4329 0903 00       		.sleb128 0
 4330 0904 79       		.byte	0x79
 4331 0905 00       		.sleb128 0
 4332 0906 22       		.byte	0x22
 4333 0907 94       		.byte	0x94
 4334 0908 01       		.byte	0x1
 4335 0909 08       		.byte	0x8
 4336 090a FF       		.byte	0xff
 4337 090b 1A       		.byte	0x1a
 4338 090c 38       		.byte	0x38
 4339 090d 24       		.byte	0x24
 4340 090e 72       		.byte	0x72
 4341 090f 00       		.sleb128 0
 4342 0910 79       		.byte	0x79
 4343 0911 00       		.sleb128 0
 4344 0912 22       		.byte	0x22
 4345 0913 23       		.byte	0x23
 4346 0914 01       		.uleb128 0x1
 4347 0915 94       		.byte	0x94
 4348 0916 01       		.byte	0x1
 4349 0917 08       		.byte	0x8
 4350 0918 FF       		.byte	0xff
 4351 0919 1A       		.byte	0x1a
 4352 091a 21       		.byte	0x21
 4353 091b 9F       		.byte	0x9f
 4354 091c E80B0000 		.4byte	.LVL65
 4355 0920 740C0000 		.4byte	.LVL70
 4356 0924 2000     		.2byte	0x20
 4357 0926 91       		.byte	0x91
 4358 0927 00       		.sleb128 0
 4359 0928 79       		.byte	0x79
 4360 0929 00       		.sleb128 0
 4361 092a 22       		.byte	0x22
 4362 092b 0A       		.byte	0xa
 4363 092c 2810     		.2byte	0x1028
 4364 092e 1C       		.byte	0x1c
 4365 092f 94       		.byte	0x94
 4366 0930 01       		.byte	0x1
 4367 0931 08       		.byte	0x8
ARM GAS  C:\Users\info\AppData\Local\Temp\ccAuJzLL.s 			page 88


 4368 0932 FF       		.byte	0xff
 4369 0933 1A       		.byte	0x1a
 4370 0934 38       		.byte	0x38
 4371 0935 24       		.byte	0x24
 4372 0936 91       		.byte	0x91
 4373 0937 00       		.sleb128 0
 4374 0938 79       		.byte	0x79
 4375 0939 00       		.sleb128 0
 4376 093a 22       		.byte	0x22
 4377 093b 0A       		.byte	0xa
 4378 093c 2710     		.2byte	0x1027
 4379 093e 1C       		.byte	0x1c
 4380 093f 94       		.byte	0x94
 4381 0940 01       		.byte	0x1
 4382 0941 08       		.byte	0x8
 4383 0942 FF       		.byte	0xff
 4384 0943 1A       		.byte	0x1a
 4385 0944 21       		.byte	0x21
 4386 0945 9F       		.byte	0x9f
 4387 0946 740C0000 		.4byte	.LVL70
 4388 094a 920C0000 		.4byte	.LVL74
 4389 094e 0100     		.2byte	0x1
 4390 0950 55       		.byte	0x55
 4391 0951 920C0000 		.4byte	.LVL74
 4392 0955 BE0C0000 		.4byte	.LVL75
 4393 0959 2000     		.2byte	0x20
 4394 095b 91       		.byte	0x91
 4395 095c 00       		.sleb128 0
 4396 095d 79       		.byte	0x79
 4397 095e 00       		.sleb128 0
 4398 095f 22       		.byte	0x22
 4399 0960 0A       		.byte	0xa
 4400 0961 2810     		.2byte	0x1028
 4401 0963 1C       		.byte	0x1c
 4402 0964 94       		.byte	0x94
 4403 0965 01       		.byte	0x1
 4404 0966 08       		.byte	0x8
 4405 0967 FF       		.byte	0xff
 4406 0968 1A       		.byte	0x1a
 4407 0969 38       		.byte	0x38
 4408 096a 24       		.byte	0x24
 4409 096b 91       		.byte	0x91
 4410 096c 00       		.sleb128 0
 4411 096d 79       		.byte	0x79
 4412 096e 00       		.sleb128 0
 4413 096f 22       		.byte	0x22
 4414 0970 0A       		.byte	0xa
 4415 0971 2710     		.2byte	0x1027
 4416 0973 1C       		.byte	0x1c
 4417 0974 94       		.byte	0x94
 4418 0975 01       		.byte	0x1
 4419 0976 08       		.byte	0x8
 4420 0977 FF       		.byte	0xff
 4421 0978 1A       		.byte	0x1a
 4422 0979 21       		.byte	0x21
 4423 097a 9F       		.byte	0x9f
 4424 097b BE0C0000 		.4byte	.LVL75
ARM GAS  C:\Users\info\AppData\Local\Temp\ccAuJzLL.s 			page 89


 4425 097f B20D0000 		.4byte	.LVL88
 4426 0983 0100     		.2byte	0x1
 4427 0985 55       		.byte	0x55
 4428 0986 DE0D0000 		.4byte	.LVL91
 4429 098a 760E0000 		.4byte	.LVL110
 4430 098e 0100     		.2byte	0x1
 4431 0990 55       		.byte	0x55
 4432 0991 00000000 		.4byte	0
 4433 0995 00000000 		.4byte	0
 4434              	.LLST8:
 4435 0999 7E090000 		.4byte	.LVL15
 4436 099d A00B0000 		.4byte	.LVL59
 4437 09a1 0100     		.2byte	0x1
 4438 09a3 58       		.byte	0x58
 4439 09a4 A00B0000 		.4byte	.LVL59
 4440 09a8 AE0B0000 		.4byte	.LVL60
 4441 09ac 2600     		.2byte	0x26
 4442 09ae 91       		.byte	0x91
 4443 09af 00       		.sleb128 0
 4444 09b0 79       		.byte	0x79
 4445 09b1 00       		.sleb128 0
 4446 09b2 22       		.byte	0x22
 4447 09b3 0A       		.byte	0xa
 4448 09b4 2810     		.2byte	0x1028
 4449 09b6 1C       		.byte	0x1c
 4450 09b7 94       		.byte	0x94
 4451 09b8 01       		.byte	0x1
 4452 09b9 08       		.byte	0x8
 4453 09ba FF       		.byte	0xff
 4454 09bb 1A       		.byte	0x1a
 4455 09bc 38       		.byte	0x38
 4456 09bd 24       		.byte	0x24
 4457 09be 91       		.byte	0x91
 4458 09bf 00       		.sleb128 0
 4459 09c0 79       		.byte	0x79
 4460 09c1 00       		.sleb128 0
 4461 09c2 22       		.byte	0x22
 4462 09c3 0A       		.byte	0xa
 4463 09c4 2710     		.2byte	0x1027
 4464 09c6 1C       		.byte	0x1c
 4465 09c7 94       		.byte	0x94
 4466 09c8 01       		.byte	0x1
 4467 09c9 08       		.byte	0x8
 4468 09ca FF       		.byte	0xff
 4469 09cb 1A       		.byte	0x1a
 4470 09cc 21       		.byte	0x21
 4471 09cd 09       		.byte	0x9
 4472 09ce F8       		.byte	0xf8
 4473 09cf 24       		.byte	0x24
 4474 09d0 09       		.byte	0x9
 4475 09d1 F8       		.byte	0xf8
 4476 09d2 25       		.byte	0x25
 4477 09d3 9F       		.byte	0x9f
 4478 09d4 AE0B0000 		.4byte	.LVL60
 4479 09d8 B00B0000 		.4byte	.LVL61
 4480 09dc 2000     		.2byte	0x20
 4481 09de 72       		.byte	0x72
ARM GAS  C:\Users\info\AppData\Local\Temp\ccAuJzLL.s 			page 90


 4482 09df 00       		.sleb128 0
 4483 09e0 79       		.byte	0x79
 4484 09e1 00       		.sleb128 0
 4485 09e2 22       		.byte	0x22
 4486 09e3 94       		.byte	0x94
 4487 09e4 01       		.byte	0x1
 4488 09e5 08       		.byte	0x8
 4489 09e6 FF       		.byte	0xff
 4490 09e7 1A       		.byte	0x1a
 4491 09e8 38       		.byte	0x38
 4492 09e9 24       		.byte	0x24
 4493 09ea 72       		.byte	0x72
 4494 09eb 00       		.sleb128 0
 4495 09ec 79       		.byte	0x79
 4496 09ed 00       		.sleb128 0
 4497 09ee 22       		.byte	0x22
 4498 09ef 23       		.byte	0x23
 4499 09f0 01       		.uleb128 0x1
 4500 09f1 94       		.byte	0x94
 4501 09f2 01       		.byte	0x1
 4502 09f3 08       		.byte	0x8
 4503 09f4 FF       		.byte	0xff
 4504 09f5 1A       		.byte	0x1a
 4505 09f6 21       		.byte	0x21
 4506 09f7 09       		.byte	0x9
 4507 09f8 F8       		.byte	0xf8
 4508 09f9 24       		.byte	0x24
 4509 09fa 09       		.byte	0x9
 4510 09fb F8       		.byte	0xf8
 4511 09fc 25       		.byte	0x25
 4512 09fd 9F       		.byte	0x9f
 4513 09fe B00B0000 		.4byte	.LVL61
 4514 0a02 E60B0000 		.4byte	.LVL64
 4515 0a06 2600     		.2byte	0x26
 4516 0a08 91       		.byte	0x91
 4517 0a09 00       		.sleb128 0
 4518 0a0a 79       		.byte	0x79
 4519 0a0b 00       		.sleb128 0
 4520 0a0c 22       		.byte	0x22
 4521 0a0d 0A       		.byte	0xa
 4522 0a0e 2810     		.2byte	0x1028
 4523 0a10 1C       		.byte	0x1c
 4524 0a11 94       		.byte	0x94
 4525 0a12 01       		.byte	0x1
 4526 0a13 08       		.byte	0x8
 4527 0a14 FF       		.byte	0xff
 4528 0a15 1A       		.byte	0x1a
 4529 0a16 38       		.byte	0x38
 4530 0a17 24       		.byte	0x24
 4531 0a18 91       		.byte	0x91
 4532 0a19 00       		.sleb128 0
 4533 0a1a 79       		.byte	0x79
 4534 0a1b 00       		.sleb128 0
 4535 0a1c 22       		.byte	0x22
 4536 0a1d 0A       		.byte	0xa
 4537 0a1e 2710     		.2byte	0x1027
 4538 0a20 1C       		.byte	0x1c
ARM GAS  C:\Users\info\AppData\Local\Temp\ccAuJzLL.s 			page 91


 4539 0a21 94       		.byte	0x94
 4540 0a22 01       		.byte	0x1
 4541 0a23 08       		.byte	0x8
 4542 0a24 FF       		.byte	0xff
 4543 0a25 1A       		.byte	0x1a
 4544 0a26 21       		.byte	0x21
 4545 0a27 09       		.byte	0x9
 4546 0a28 F8       		.byte	0xf8
 4547 0a29 24       		.byte	0x24
 4548 0a2a 09       		.byte	0x9
 4549 0a2b F8       		.byte	0xf8
 4550 0a2c 25       		.byte	0x25
 4551 0a2d 9F       		.byte	0x9f
 4552 0a2e E60B0000 		.4byte	.LVL64
 4553 0a32 E80B0000 		.4byte	.LVL65
 4554 0a36 2000     		.2byte	0x20
 4555 0a38 72       		.byte	0x72
 4556 0a39 00       		.sleb128 0
 4557 0a3a 79       		.byte	0x79
 4558 0a3b 00       		.sleb128 0
 4559 0a3c 22       		.byte	0x22
 4560 0a3d 94       		.byte	0x94
 4561 0a3e 01       		.byte	0x1
 4562 0a3f 08       		.byte	0x8
 4563 0a40 FF       		.byte	0xff
 4564 0a41 1A       		.byte	0x1a
 4565 0a42 38       		.byte	0x38
 4566 0a43 24       		.byte	0x24
 4567 0a44 72       		.byte	0x72
 4568 0a45 00       		.sleb128 0
 4569 0a46 79       		.byte	0x79
 4570 0a47 00       		.sleb128 0
 4571 0a48 22       		.byte	0x22
 4572 0a49 23       		.byte	0x23
 4573 0a4a 01       		.uleb128 0x1
 4574 0a4b 94       		.byte	0x94
 4575 0a4c 01       		.byte	0x1
 4576 0a4d 08       		.byte	0x8
 4577 0a4e FF       		.byte	0xff
 4578 0a4f 1A       		.byte	0x1a
 4579 0a50 21       		.byte	0x21
 4580 0a51 09       		.byte	0x9
 4581 0a52 F8       		.byte	0xf8
 4582 0a53 24       		.byte	0x24
 4583 0a54 09       		.byte	0x9
 4584 0a55 F8       		.byte	0xf8
 4585 0a56 25       		.byte	0x25
 4586 0a57 9F       		.byte	0x9f
 4587 0a58 E80B0000 		.4byte	.LVL65
 4588 0a5c 740C0000 		.4byte	.LVL70
 4589 0a60 2600     		.2byte	0x26
 4590 0a62 91       		.byte	0x91
 4591 0a63 00       		.sleb128 0
 4592 0a64 79       		.byte	0x79
 4593 0a65 00       		.sleb128 0
 4594 0a66 22       		.byte	0x22
 4595 0a67 0A       		.byte	0xa
ARM GAS  C:\Users\info\AppData\Local\Temp\ccAuJzLL.s 			page 92


 4596 0a68 2810     		.2byte	0x1028
 4597 0a6a 1C       		.byte	0x1c
 4598 0a6b 94       		.byte	0x94
 4599 0a6c 01       		.byte	0x1
 4600 0a6d 08       		.byte	0x8
 4601 0a6e FF       		.byte	0xff
 4602 0a6f 1A       		.byte	0x1a
 4603 0a70 38       		.byte	0x38
 4604 0a71 24       		.byte	0x24
 4605 0a72 91       		.byte	0x91
 4606 0a73 00       		.sleb128 0
 4607 0a74 79       		.byte	0x79
 4608 0a75 00       		.sleb128 0
 4609 0a76 22       		.byte	0x22
 4610 0a77 0A       		.byte	0xa
 4611 0a78 2710     		.2byte	0x1027
 4612 0a7a 1C       		.byte	0x1c
 4613 0a7b 94       		.byte	0x94
 4614 0a7c 01       		.byte	0x1
 4615 0a7d 08       		.byte	0x8
 4616 0a7e FF       		.byte	0xff
 4617 0a7f 1A       		.byte	0x1a
 4618 0a80 21       		.byte	0x21
 4619 0a81 09       		.byte	0x9
 4620 0a82 F8       		.byte	0xf8
 4621 0a83 24       		.byte	0x24
 4622 0a84 09       		.byte	0x9
 4623 0a85 F8       		.byte	0xf8
 4624 0a86 25       		.byte	0x25
 4625 0a87 9F       		.byte	0x9f
 4626 0a88 740C0000 		.4byte	.LVL70
 4627 0a8c 7C0C0000 		.4byte	.LVL71
 4628 0a90 0100     		.2byte	0x1
 4629 0a92 58       		.byte	0x58
 4630 0a93 7C0C0000 		.4byte	.LVL71
 4631 0a97 920C0000 		.4byte	.LVL74
 4632 0a9b 2600     		.2byte	0x26
 4633 0a9d 91       		.byte	0x91
 4634 0a9e 00       		.sleb128 0
 4635 0a9f 77       		.byte	0x77
 4636 0aa0 00       		.sleb128 0
 4637 0aa1 22       		.byte	0x22
 4638 0aa2 0A       		.byte	0xa
 4639 0aa3 2810     		.2byte	0x1028
 4640 0aa5 1C       		.byte	0x1c
 4641 0aa6 94       		.byte	0x94
 4642 0aa7 01       		.byte	0x1
 4643 0aa8 08       		.byte	0x8
 4644 0aa9 FF       		.byte	0xff
 4645 0aaa 1A       		.byte	0x1a
 4646 0aab 38       		.byte	0x38
 4647 0aac 24       		.byte	0x24
 4648 0aad 91       		.byte	0x91
 4649 0aae 00       		.sleb128 0
 4650 0aaf 77       		.byte	0x77
 4651 0ab0 00       		.sleb128 0
 4652 0ab1 22       		.byte	0x22
ARM GAS  C:\Users\info\AppData\Local\Temp\ccAuJzLL.s 			page 93


 4653 0ab2 0A       		.byte	0xa
 4654 0ab3 2710     		.2byte	0x1027
 4655 0ab5 1C       		.byte	0x1c
 4656 0ab6 94       		.byte	0x94
 4657 0ab7 01       		.byte	0x1
 4658 0ab8 08       		.byte	0x8
 4659 0ab9 FF       		.byte	0xff
 4660 0aba 1A       		.byte	0x1a
 4661 0abb 21       		.byte	0x21
 4662 0abc 09       		.byte	0x9
 4663 0abd F8       		.byte	0xf8
 4664 0abe 24       		.byte	0x24
 4665 0abf 09       		.byte	0x9
 4666 0ac0 F8       		.byte	0xf8
 4667 0ac1 25       		.byte	0x25
 4668 0ac2 9F       		.byte	0x9f
 4669 0ac3 920C0000 		.4byte	.LVL74
 4670 0ac7 BE0C0000 		.4byte	.LVL75
 4671 0acb 2600     		.2byte	0x26
 4672 0acd 91       		.byte	0x91
 4673 0ace 00       		.sleb128 0
 4674 0acf 79       		.byte	0x79
 4675 0ad0 00       		.sleb128 0
 4676 0ad1 22       		.byte	0x22
 4677 0ad2 0A       		.byte	0xa
 4678 0ad3 2810     		.2byte	0x1028
 4679 0ad5 1C       		.byte	0x1c
 4680 0ad6 94       		.byte	0x94
 4681 0ad7 01       		.byte	0x1
 4682 0ad8 08       		.byte	0x8
 4683 0ad9 FF       		.byte	0xff
 4684 0ada 1A       		.byte	0x1a
 4685 0adb 38       		.byte	0x38
 4686 0adc 24       		.byte	0x24
 4687 0add 91       		.byte	0x91
 4688 0ade 00       		.sleb128 0
 4689 0adf 79       		.byte	0x79
 4690 0ae0 00       		.sleb128 0
 4691 0ae1 22       		.byte	0x22
 4692 0ae2 0A       		.byte	0xa
 4693 0ae3 2710     		.2byte	0x1027
 4694 0ae5 1C       		.byte	0x1c
 4695 0ae6 94       		.byte	0x94
 4696 0ae7 01       		.byte	0x1
 4697 0ae8 08       		.byte	0x8
 4698 0ae9 FF       		.byte	0xff
 4699 0aea 1A       		.byte	0x1a
 4700 0aeb 21       		.byte	0x21
 4701 0aec 09       		.byte	0x9
 4702 0aed F8       		.byte	0xf8
 4703 0aee 24       		.byte	0x24
 4704 0aef 09       		.byte	0x9
 4705 0af0 F8       		.byte	0xf8
 4706 0af1 25       		.byte	0x25
 4707 0af2 9F       		.byte	0x9f
 4708 0af3 BE0C0000 		.4byte	.LVL75
 4709 0af7 760E0000 		.4byte	.LVL110
ARM GAS  C:\Users\info\AppData\Local\Temp\ccAuJzLL.s 			page 94


 4710 0afb 0100     		.2byte	0x1
 4711 0afd 58       		.byte	0x58
 4712 0afe 00000000 		.4byte	0
 4713 0b02 00000000 		.4byte	0
 4714              	.LLST9:
 4715 0b06 7E090000 		.4byte	.LVL15
 4716 0b0a B60D0000 		.4byte	.LVL89
 4717 0b0e 0100     		.2byte	0x1
 4718 0b10 54       		.byte	0x54
 4719 0b11 DE0D0000 		.4byte	.LVL91
 4720 0b15 760E0000 		.4byte	.LVL110
 4721 0b19 0100     		.2byte	0x1
 4722 0b1b 54       		.byte	0x54
 4723 0b1c 00000000 		.4byte	0
 4724 0b20 00000000 		.4byte	0
 4725              	.LLST10:
 4726 0b24 82090000 		.4byte	.LVL16
 4727 0b28 BE0D0000 		.4byte	.LVL90
 4728 0b2c 0100     		.2byte	0x1
 4729 0b2e 56       		.byte	0x56
 4730 0b2f DE0D0000 		.4byte	.LVL91
 4731 0b33 760E0000 		.4byte	.LVL110
 4732 0b37 0100     		.2byte	0x1
 4733 0b39 56       		.byte	0x56
 4734 0b3a 00000000 		.4byte	0
 4735 0b3e 00000000 		.4byte	0
 4736              	.LLST11:
 4737 0b42 82090000 		.4byte	.LVL16
 4738 0b46 A00A0000 		.4byte	.LVL45
 4739 0b4a 0100     		.2byte	0x1
 4740 0b4c 55       		.byte	0x55
 4741 0b4d A00A0000 		.4byte	.LVL45
 4742 0b51 A80A0000 		.4byte	.LVL46
 4743 0b55 2000     		.2byte	0x20
 4744 0b57 91       		.byte	0x91
 4745 0b58 00       		.sleb128 0
 4746 0b59 77       		.byte	0x77
 4747 0b5a 00       		.sleb128 0
 4748 0b5b 22       		.byte	0x22
 4749 0b5c 0A       		.byte	0xa
 4750 0b5d 2810     		.2byte	0x1028
 4751 0b5f 1C       		.byte	0x1c
 4752 0b60 94       		.byte	0x94
 4753 0b61 01       		.byte	0x1
 4754 0b62 08       		.byte	0x8
 4755 0b63 FF       		.byte	0xff
 4756 0b64 1A       		.byte	0x1a
 4757 0b65 38       		.byte	0x38
 4758 0b66 24       		.byte	0x24
 4759 0b67 91       		.byte	0x91
 4760 0b68 00       		.sleb128 0
 4761 0b69 77       		.byte	0x77
 4762 0b6a 00       		.sleb128 0
 4763 0b6b 22       		.byte	0x22
 4764 0b6c 0A       		.byte	0xa
 4765 0b6d 2710     		.2byte	0x1027
 4766 0b6f 1C       		.byte	0x1c
ARM GAS  C:\Users\info\AppData\Local\Temp\ccAuJzLL.s 			page 95


 4767 0b70 94       		.byte	0x94
 4768 0b71 01       		.byte	0x1
 4769 0b72 08       		.byte	0x8
 4770 0b73 FF       		.byte	0xff
 4771 0b74 1A       		.byte	0x1a
 4772 0b75 21       		.byte	0x21
 4773 0b76 9F       		.byte	0x9f
 4774 0b77 A80A0000 		.4byte	.LVL46
 4775 0b7b A00B0000 		.4byte	.LVL59
 4776 0b7f 0100     		.2byte	0x1
 4777 0b81 55       		.byte	0x55
 4778 0b82 A00B0000 		.4byte	.LVL59
 4779 0b86 AE0B0000 		.4byte	.LVL60
 4780 0b8a 2000     		.2byte	0x20
 4781 0b8c 91       		.byte	0x91
 4782 0b8d 00       		.sleb128 0
 4783 0b8e 79       		.byte	0x79
 4784 0b8f 00       		.sleb128 0
 4785 0b90 22       		.byte	0x22
 4786 0b91 0A       		.byte	0xa
 4787 0b92 2810     		.2byte	0x1028
 4788 0b94 1C       		.byte	0x1c
 4789 0b95 94       		.byte	0x94
 4790 0b96 01       		.byte	0x1
 4791 0b97 08       		.byte	0x8
 4792 0b98 FF       		.byte	0xff
 4793 0b99 1A       		.byte	0x1a
 4794 0b9a 38       		.byte	0x38
 4795 0b9b 24       		.byte	0x24
 4796 0b9c 91       		.byte	0x91
 4797 0b9d 00       		.sleb128 0
 4798 0b9e 79       		.byte	0x79
 4799 0b9f 00       		.sleb128 0
 4800 0ba0 22       		.byte	0x22
 4801 0ba1 0A       		.byte	0xa
 4802 0ba2 2710     		.2byte	0x1027
 4803 0ba4 1C       		.byte	0x1c
 4804 0ba5 94       		.byte	0x94
 4805 0ba6 01       		.byte	0x1
 4806 0ba7 08       		.byte	0x8
 4807 0ba8 FF       		.byte	0xff
 4808 0ba9 1A       		.byte	0x1a
 4809 0baa 21       		.byte	0x21
 4810 0bab 9F       		.byte	0x9f
 4811 0bac AE0B0000 		.4byte	.LVL60
 4812 0bb0 B00B0000 		.4byte	.LVL61
 4813 0bb4 1A00     		.2byte	0x1a
 4814 0bb6 72       		.byte	0x72
 4815 0bb7 00       		.sleb128 0
 4816 0bb8 79       		.byte	0x79
 4817 0bb9 00       		.sleb128 0
 4818 0bba 22       		.byte	0x22
 4819 0bbb 94       		.byte	0x94
 4820 0bbc 01       		.byte	0x1
 4821 0bbd 08       		.byte	0x8
 4822 0bbe FF       		.byte	0xff
 4823 0bbf 1A       		.byte	0x1a
ARM GAS  C:\Users\info\AppData\Local\Temp\ccAuJzLL.s 			page 96


 4824 0bc0 38       		.byte	0x38
 4825 0bc1 24       		.byte	0x24
 4826 0bc2 72       		.byte	0x72
 4827 0bc3 00       		.sleb128 0
 4828 0bc4 79       		.byte	0x79
 4829 0bc5 00       		.sleb128 0
 4830 0bc6 22       		.byte	0x22
 4831 0bc7 23       		.byte	0x23
 4832 0bc8 01       		.uleb128 0x1
 4833 0bc9 94       		.byte	0x94
 4834 0bca 01       		.byte	0x1
 4835 0bcb 08       		.byte	0x8
 4836 0bcc FF       		.byte	0xff
 4837 0bcd 1A       		.byte	0x1a
 4838 0bce 21       		.byte	0x21
 4839 0bcf 9F       		.byte	0x9f
 4840 0bd0 B00B0000 		.4byte	.LVL61
 4841 0bd4 E60B0000 		.4byte	.LVL64
 4842 0bd8 2000     		.2byte	0x20
 4843 0bda 91       		.byte	0x91
 4844 0bdb 00       		.sleb128 0
 4845 0bdc 79       		.byte	0x79
 4846 0bdd 00       		.sleb128 0
 4847 0bde 22       		.byte	0x22
 4848 0bdf 0A       		.byte	0xa
 4849 0be0 2810     		.2byte	0x1028
 4850 0be2 1C       		.byte	0x1c
 4851 0be3 94       		.byte	0x94
 4852 0be4 01       		.byte	0x1
 4853 0be5 08       		.byte	0x8
 4854 0be6 FF       		.byte	0xff
 4855 0be7 1A       		.byte	0x1a
 4856 0be8 38       		.byte	0x38
 4857 0be9 24       		.byte	0x24
 4858 0bea 91       		.byte	0x91
 4859 0beb 00       		.sleb128 0
 4860 0bec 79       		.byte	0x79
 4861 0bed 00       		.sleb128 0
 4862 0bee 22       		.byte	0x22
 4863 0bef 0A       		.byte	0xa
 4864 0bf0 2710     		.2byte	0x1027
 4865 0bf2 1C       		.byte	0x1c
 4866 0bf3 94       		.byte	0x94
 4867 0bf4 01       		.byte	0x1
 4868 0bf5 08       		.byte	0x8
 4869 0bf6 FF       		.byte	0xff
 4870 0bf7 1A       		.byte	0x1a
 4871 0bf8 21       		.byte	0x21
 4872 0bf9 9F       		.byte	0x9f
 4873 0bfa E60B0000 		.4byte	.LVL64
 4874 0bfe E80B0000 		.4byte	.LVL65
 4875 0c02 1A00     		.2byte	0x1a
 4876 0c04 72       		.byte	0x72
 4877 0c05 00       		.sleb128 0
 4878 0c06 79       		.byte	0x79
 4879 0c07 00       		.sleb128 0
 4880 0c08 22       		.byte	0x22
ARM GAS  C:\Users\info\AppData\Local\Temp\ccAuJzLL.s 			page 97


 4881 0c09 94       		.byte	0x94
 4882 0c0a 01       		.byte	0x1
 4883 0c0b 08       		.byte	0x8
 4884 0c0c FF       		.byte	0xff
 4885 0c0d 1A       		.byte	0x1a
 4886 0c0e 38       		.byte	0x38
 4887 0c0f 24       		.byte	0x24
 4888 0c10 72       		.byte	0x72
 4889 0c11 00       		.sleb128 0
 4890 0c12 79       		.byte	0x79
 4891 0c13 00       		.sleb128 0
 4892 0c14 22       		.byte	0x22
 4893 0c15 23       		.byte	0x23
 4894 0c16 01       		.uleb128 0x1
 4895 0c17 94       		.byte	0x94
 4896 0c18 01       		.byte	0x1
 4897 0c19 08       		.byte	0x8
 4898 0c1a FF       		.byte	0xff
 4899 0c1b 1A       		.byte	0x1a
 4900 0c1c 21       		.byte	0x21
 4901 0c1d 9F       		.byte	0x9f
 4902 0c1e E80B0000 		.4byte	.LVL65
 4903 0c22 740C0000 		.4byte	.LVL70
 4904 0c26 2000     		.2byte	0x20
 4905 0c28 91       		.byte	0x91
 4906 0c29 00       		.sleb128 0
 4907 0c2a 79       		.byte	0x79
 4908 0c2b 00       		.sleb128 0
 4909 0c2c 22       		.byte	0x22
 4910 0c2d 0A       		.byte	0xa
 4911 0c2e 2810     		.2byte	0x1028
 4912 0c30 1C       		.byte	0x1c
 4913 0c31 94       		.byte	0x94
 4914 0c32 01       		.byte	0x1
 4915 0c33 08       		.byte	0x8
 4916 0c34 FF       		.byte	0xff
 4917 0c35 1A       		.byte	0x1a
 4918 0c36 38       		.byte	0x38
 4919 0c37 24       		.byte	0x24
 4920 0c38 91       		.byte	0x91
 4921 0c39 00       		.sleb128 0
 4922 0c3a 79       		.byte	0x79
 4923 0c3b 00       		.sleb128 0
 4924 0c3c 22       		.byte	0x22
 4925 0c3d 0A       		.byte	0xa
 4926 0c3e 2710     		.2byte	0x1027
 4927 0c40 1C       		.byte	0x1c
 4928 0c41 94       		.byte	0x94
 4929 0c42 01       		.byte	0x1
 4930 0c43 08       		.byte	0x8
 4931 0c44 FF       		.byte	0xff
 4932 0c45 1A       		.byte	0x1a
 4933 0c46 21       		.byte	0x21
 4934 0c47 9F       		.byte	0x9f
 4935 0c48 740C0000 		.4byte	.LVL70
 4936 0c4c 920C0000 		.4byte	.LVL74
 4937 0c50 0100     		.2byte	0x1
ARM GAS  C:\Users\info\AppData\Local\Temp\ccAuJzLL.s 			page 98


 4938 0c52 55       		.byte	0x55
 4939 0c53 920C0000 		.4byte	.LVL74
 4940 0c57 BE0C0000 		.4byte	.LVL75
 4941 0c5b 2000     		.2byte	0x20
 4942 0c5d 91       		.byte	0x91
 4943 0c5e 00       		.sleb128 0
 4944 0c5f 79       		.byte	0x79
 4945 0c60 00       		.sleb128 0
 4946 0c61 22       		.byte	0x22
 4947 0c62 0A       		.byte	0xa
 4948 0c63 2810     		.2byte	0x1028
 4949 0c65 1C       		.byte	0x1c
 4950 0c66 94       		.byte	0x94
 4951 0c67 01       		.byte	0x1
 4952 0c68 08       		.byte	0x8
 4953 0c69 FF       		.byte	0xff
 4954 0c6a 1A       		.byte	0x1a
 4955 0c6b 38       		.byte	0x38
 4956 0c6c 24       		.byte	0x24
 4957 0c6d 91       		.byte	0x91
 4958 0c6e 00       		.sleb128 0
 4959 0c6f 79       		.byte	0x79
 4960 0c70 00       		.sleb128 0
 4961 0c71 22       		.byte	0x22
 4962 0c72 0A       		.byte	0xa
 4963 0c73 2710     		.2byte	0x1027
 4964 0c75 1C       		.byte	0x1c
 4965 0c76 94       		.byte	0x94
 4966 0c77 01       		.byte	0x1
 4967 0c78 08       		.byte	0x8
 4968 0c79 FF       		.byte	0xff
 4969 0c7a 1A       		.byte	0x1a
 4970 0c7b 21       		.byte	0x21
 4971 0c7c 9F       		.byte	0x9f
 4972 0c7d BE0C0000 		.4byte	.LVL75
 4973 0c81 B20D0000 		.4byte	.LVL88
 4974 0c85 0100     		.2byte	0x1
 4975 0c87 55       		.byte	0x55
 4976 0c88 DE0D0000 		.4byte	.LVL91
 4977 0c8c 760E0000 		.4byte	.LVL110
 4978 0c90 0100     		.2byte	0x1
 4979 0c92 55       		.byte	0x55
 4980 0c93 00000000 		.4byte	0
 4981 0c97 00000000 		.4byte	0
 4982              	.LLST12:
 4983 0c9b 82090000 		.4byte	.LVL16
 4984 0c9f 760E0000 		.4byte	.LVL110
 4985 0ca3 0200     		.2byte	0x2
 4986 0ca5 30       		.byte	0x30
 4987 0ca6 9F       		.byte	0x9f
 4988 0ca7 760E0000 		.4byte	.LVL110
 4989 0cab 780E0000 		.4byte	.LVL111
 4990 0caf 0100     		.2byte	0x1
 4991 0cb1 52       		.byte	0x52
 4992 0cb2 920E0000 		.4byte	.LVL116
 4993 0cb6 B40E0000 		.4byte	.LFE63
 4994 0cba 0100     		.2byte	0x1
ARM GAS  C:\Users\info\AppData\Local\Temp\ccAuJzLL.s 			page 99


 4995 0cbc 52       		.byte	0x52
 4996 0cbd 00000000 		.4byte	0
 4997 0cc1 00000000 		.4byte	0
 4998              	.LLST13:
 4999 0cc5 82090000 		.4byte	.LVL16
 5000 0cc9 FC090000 		.4byte	.LVL25
 5001 0ccd 0200     		.2byte	0x2
 5002 0ccf 30       		.byte	0x30
 5003 0cd0 9F       		.byte	0x9f
 5004 0cd1 FC090000 		.4byte	.LVL25
 5005 0cd5 020A0000 		.4byte	.LVL26
 5006 0cd9 0200     		.2byte	0x2
 5007 0cdb 31       		.byte	0x31
 5008 0cdc 9F       		.byte	0x9f
 5009 0cdd 020A0000 		.4byte	.LVL26
 5010 0ce1 080A0000 		.4byte	.LVL28
 5011 0ce5 0200     		.2byte	0x2
 5012 0ce7 30       		.byte	0x30
 5013 0ce8 9F       		.byte	0x9f
 5014 0ce9 080A0000 		.4byte	.LVL28
 5015 0ced 0E0A0000 		.4byte	.LVL29
 5016 0cf1 0200     		.2byte	0x2
 5017 0cf3 31       		.byte	0x31
 5018 0cf4 9F       		.byte	0x9f
 5019 0cf5 0E0A0000 		.4byte	.LVL29
 5020 0cf9 760E0000 		.4byte	.LVL110
 5021 0cfd 0200     		.2byte	0x2
 5022 0cff 30       		.byte	0x30
 5023 0d00 9F       		.byte	0x9f
 5024 0d01 760E0000 		.4byte	.LVL110
 5025 0d05 780E0000 		.4byte	.LVL111
 5026 0d09 0100     		.2byte	0x1
 5027 0d0b 53       		.byte	0x53
 5028 0d0c 920E0000 		.4byte	.LVL116
 5029 0d10 B40E0000 		.4byte	.LFE63
 5030 0d14 0100     		.2byte	0x1
 5031 0d16 53       		.byte	0x53
 5032 0d17 00000000 		.4byte	0
 5033 0d1b 00000000 		.4byte	0
 5034              	.LLST14:
 5035 0d1f CA090000 		.4byte	.LVL18
 5036 0d23 DC090000 		.4byte	.LVL20
 5037 0d27 0100     		.2byte	0x1
 5038 0d29 53       		.byte	0x53
 5039 0d2a DE090000 		.4byte	.LVL21
 5040 0d2e E4090000 		.4byte	.LVL22
 5041 0d32 0100     		.2byte	0x1
 5042 0d34 53       		.byte	0x53
 5043 0d35 00000000 		.4byte	0
 5044 0d39 00000000 		.4byte	0
 5045              	.LLST15:
 5046 0d3d 220B0000 		.4byte	.LVL47
 5047 0d41 3E0B0000 		.4byte	.LVL51
 5048 0d45 0100     		.2byte	0x1
 5049 0d47 51       		.byte	0x51
 5050 0d48 00000000 		.4byte	0
 5051 0d4c 00000000 		.4byte	0
ARM GAS  C:\Users\info\AppData\Local\Temp\ccAuJzLL.s 			page 100


 5052              	.LLST16:
 5053 0d50 240B0000 		.4byte	.LVL48
 5054 0d54 3E0B0000 		.4byte	.LVL51
 5055 0d58 0100     		.2byte	0x1
 5056 0d5a 50       		.byte	0x50
 5057 0d5b 00000000 		.4byte	0
 5058 0d5f 00000000 		.4byte	0
 5059              	.LLST17:
 5060 0d63 260B0000 		.4byte	.LVL49
 5061 0d67 2C0B0000 		.4byte	.LVL50
 5062 0d6b 0100     		.2byte	0x1
 5063 0d6d 53       		.byte	0x53
 5064 0d6e 2C0B0000 		.4byte	.LVL50
 5065 0d72 3E0B0000 		.4byte	.LVL51
 5066 0d76 0600     		.2byte	0x6
 5067 0d78 71       		.byte	0x71
 5068 0d79 00       		.sleb128 0
 5069 0d7a 70       		.byte	0x70
 5070 0d7b 00       		.sleb128 0
 5071 0d7c 1C       		.byte	0x1c
 5072 0d7d 9F       		.byte	0x9f
 5073 0d7e 00000000 		.4byte	0
 5074 0d82 00000000 		.4byte	0
 5075              	.LLST18:
 5076 0d86 5A0B0000 		.4byte	.LVL52
 5077 0d8a 760B0000 		.4byte	.LVL56
 5078 0d8e 0100     		.2byte	0x1
 5079 0d90 50       		.byte	0x50
 5080 0d91 00000000 		.4byte	0
 5081 0d95 00000000 		.4byte	0
 5082              	.LLST19:
 5083 0d99 5C0B0000 		.4byte	.LVL53
 5084 0d9d 760B0000 		.4byte	.LVL56
 5085 0da1 0100     		.2byte	0x1
 5086 0da3 51       		.byte	0x51
 5087 0da4 00000000 		.4byte	0
 5088 0da8 00000000 		.4byte	0
 5089              	.LLST20:
 5090 0dac 5E0B0000 		.4byte	.LVL54
 5091 0db0 640B0000 		.4byte	.LVL55
 5092 0db4 0100     		.2byte	0x1
 5093 0db6 53       		.byte	0x53
 5094 0db7 640B0000 		.4byte	.LVL55
 5095 0dbb 760B0000 		.4byte	.LVL56
 5096 0dbf 0600     		.2byte	0x6
 5097 0dc1 71       		.byte	0x71
 5098 0dc2 00       		.sleb128 0
 5099 0dc3 70       		.byte	0x70
 5100 0dc4 00       		.sleb128 0
 5101 0dc5 1C       		.byte	0x1c
 5102 0dc6 9F       		.byte	0x9f
 5103 0dc7 00000000 		.4byte	0
 5104 0dcb 00000000 		.4byte	0
 5105              	.LLST21:
 5106 0dcf A00B0000 		.4byte	.LVL59
 5107 0dd3 5E0C0000 		.4byte	.LVL67
 5108 0dd7 0200     		.2byte	0x2
ARM GAS  C:\Users\info\AppData\Local\Temp\ccAuJzLL.s 			page 101


 5109 0dd9 7D       		.byte	0x7d
 5110 0dda 00       		.sleb128 0
 5111 0ddb 5E0C0000 		.4byte	.LVL67
 5112 0ddf 620C0000 		.4byte	.LVL68
 5113 0de3 0600     		.2byte	0x6
 5114 0de5 52       		.byte	0x52
 5115 0de6 93       		.byte	0x93
 5116 0de7 04       		.uleb128 0x4
 5117 0de8 53       		.byte	0x53
 5118 0de9 93       		.byte	0x93
 5119 0dea 04       		.uleb128 0x4
 5120 0deb 620C0000 		.4byte	.LVL68
 5121 0def 740C0000 		.4byte	.LVL70
 5122 0df3 0200     		.2byte	0x2
 5123 0df5 7D       		.byte	0x7d
 5124 0df6 00       		.sleb128 0
 5125 0df7 920C0000 		.4byte	.LVL74
 5126 0dfb BE0C0000 		.4byte	.LVL75
 5127 0dff 0200     		.2byte	0x2
 5128 0e01 7D       		.byte	0x7d
 5129 0e02 00       		.sleb128 0
 5130 0e03 00000000 		.4byte	0
 5131 0e07 00000000 		.4byte	0
 5132              	.LLST22:
 5133 0e0b A00B0000 		.4byte	.LVL59
 5134 0e0f 740C0000 		.4byte	.LVL70
 5135 0e13 0100     		.2byte	0x1
 5136 0e15 5E       		.byte	0x5e
 5137 0e16 920C0000 		.4byte	.LVL74
 5138 0e1a BE0C0000 		.4byte	.LVL75
 5139 0e1e 0100     		.2byte	0x1
 5140 0e20 5E       		.byte	0x5e
 5141 0e21 00000000 		.4byte	0
 5142 0e25 00000000 		.4byte	0
 5143              	.LLST23:
 5144 0e29 A00B0000 		.4byte	.LVL59
 5145 0e2d D40B0000 		.4byte	.LVL62
 5146 0e31 0A00     		.2byte	0xa
 5147 0e33 9E       		.byte	0x9e
 5148 0e34 08       		.uleb128 0x8
 5149 0e35 00000000 		.8byte	0
 5149      00000000 
 5150 0e3d D40B0000 		.4byte	.LVL62
 5151 0e41 E00B0000 		.4byte	.LVL63
 5152 0e45 0600     		.2byte	0x6
 5153 0e47 5B       		.byte	0x5b
 5154 0e48 93       		.byte	0x93
 5155 0e49 04       		.uleb128 0x4
 5156 0e4a 5C       		.byte	0x5c
 5157 0e4b 93       		.byte	0x93
 5158 0e4c 04       		.uleb128 0x4
 5159 0e4d E00B0000 		.4byte	.LVL63
 5160 0e51 260C0000 		.4byte	.LVL66
 5161 0e55 0A00     		.2byte	0xa
 5162 0e57 9E       		.byte	0x9e
 5163 0e58 08       		.uleb128 0x8
 5164 0e59 00000000 		.8byte	0
ARM GAS  C:\Users\info\AppData\Local\Temp\ccAuJzLL.s 			page 102


 5164      00000000 
 5165 0e61 260C0000 		.4byte	.LVL66
 5166 0e65 740C0000 		.4byte	.LVL70
 5167 0e69 0600     		.2byte	0x6
 5168 0e6b 5B       		.byte	0x5b
 5169 0e6c 93       		.byte	0x93
 5170 0e6d 04       		.uleb128 0x4
 5171 0e6e 5C       		.byte	0x5c
 5172 0e6f 93       		.byte	0x93
 5173 0e70 04       		.uleb128 0x4
 5174 0e71 00000000 		.4byte	0
 5175 0e75 00000000 		.4byte	0
 5176              	.LLST24:
 5177 0e79 DE0D0000 		.4byte	.LVL91
 5178 0e7d EC0D0000 		.4byte	.LVL92
 5179 0e81 0100     		.2byte	0x1
 5180 0e83 53       		.byte	0x53
 5181 0e84 EE0D0000 		.4byte	.LVL93
 5182 0e88 F00D0000 		.4byte	.LVL94
 5183 0e8c 0100     		.2byte	0x1
 5184 0e8e 53       		.byte	0x53
 5185 0e8f F20D0000 		.4byte	.LVL95
 5186 0e93 F80D0000 		.4byte	.LVL96
 5187 0e97 0100     		.2byte	0x1
 5188 0e99 53       		.byte	0x53
 5189 0e9a 00000000 		.4byte	0
 5190 0e9e 00000000 		.4byte	0
 5191              	.LLST25:
 5192 0ea2 FC0D0000 		.4byte	.LVL97
 5193 0ea6 0A0E0000 		.4byte	.LVL100
 5194 0eaa 0100     		.2byte	0x1
 5195 0eac 53       		.byte	0x53
 5196 0ead 0C0E0000 		.4byte	.LVL101
 5197 0eb1 0E0E0000 		.4byte	.LVL102
 5198 0eb5 0100     		.2byte	0x1
 5199 0eb7 53       		.byte	0x53
 5200 0eb8 100E0000 		.4byte	.LVL103
 5201 0ebc 160E0000 		.4byte	.LVL104
 5202 0ec0 0100     		.2byte	0x1
 5203 0ec2 53       		.byte	0x53
 5204 0ec3 00000000 		.4byte	0
 5205 0ec7 00000000 		.4byte	0
 5206              		.section	.debug_aranges,"",%progbits
 5207 0000 1C000000 		.4byte	0x1c
 5208 0004 0200     		.2byte	0x2
 5209 0006 00000000 		.4byte	.Ldebug_info0
 5210 000a 04       		.byte	0x4
 5211 000b 00       		.byte	0
 5212 000c 0000     		.2byte	0
 5213 000e 0000     		.2byte	0
 5214 0010 00000000 		.4byte	.LFB63
 5215 0014 B40E0000 		.4byte	.LFE63-.LFB63
 5216 0018 00000000 		.4byte	0
 5217 001c 00000000 		.4byte	0
 5218              		.section	.debug_ranges,"",%progbits
 5219              	.Ldebug_ranges0:
 5220 0000 CA090000 		.4byte	.LBB4
ARM GAS  C:\Users\info\AppData\Local\Temp\ccAuJzLL.s 			page 103


 5221 0004 DC090000 		.4byte	.LBE4
 5222 0008 DE090000 		.4byte	.LBB5
 5223 000c E2090000 		.4byte	.LBE5
 5224 0010 00000000 		.4byte	0
 5225 0014 00000000 		.4byte	0
 5226 0018 1E0B0000 		.4byte	.LBB6
 5227 001c 380B0000 		.4byte	.LBE6
 5228 0020 3C0B0000 		.4byte	.LBB7
 5229 0024 3E0B0000 		.4byte	.LBE7
 5230 0028 00000000 		.4byte	0
 5231 002c 00000000 		.4byte	0
 5232 0030 560B0000 		.4byte	.LBB8
 5233 0034 700B0000 		.4byte	.LBE8
 5234 0038 740B0000 		.4byte	.LBB9
 5235 003c 760B0000 		.4byte	.LBE9
 5236 0040 00000000 		.4byte	0
 5237 0044 00000000 		.4byte	0
 5238 0048 A00B0000 		.4byte	.LBB10
 5239 004c 740C0000 		.4byte	.LBE10
 5240 0050 920C0000 		.4byte	.LBB14
 5241 0054 B80C0000 		.4byte	.LBE14
 5242 0058 BC0C0000 		.4byte	.LBB15
 5243 005c BE0C0000 		.4byte	.LBE15
 5244 0060 00000000 		.4byte	0
 5245 0064 00000000 		.4byte	0
 5246 0068 A00B0000 		.4byte	.LBB11
 5247 006c 740C0000 		.4byte	.LBE11
 5248 0070 920C0000 		.4byte	.LBB13
 5249 0074 AA0C0000 		.4byte	.LBE13
 5250 0078 00000000 		.4byte	0
 5251 007c 00000000 		.4byte	0
 5252 0080 DE0D0000 		.4byte	.LBB16
 5253 0084 F00D0000 		.4byte	.LBE16
 5254 0088 F20D0000 		.4byte	.LBB17
 5255 008c F60D0000 		.4byte	.LBE17
 5256 0090 00000000 		.4byte	0
 5257 0094 00000000 		.4byte	0
 5258 0098 FC0D0000 		.4byte	.LBB18
 5259 009c 0E0E0000 		.4byte	.LBE18
 5260 00a0 100E0000 		.4byte	.LBB19
 5261 00a4 140E0000 		.4byte	.LBE19
 5262 00a8 180E0000 		.4byte	.LBB20
 5263 00ac 1A0E0000 		.4byte	.LBE20
 5264 00b0 00000000 		.4byte	0
 5265 00b4 00000000 		.4byte	0
 5266 00b8 00000000 		.4byte	.LFB63
 5267 00bc B40E0000 		.4byte	.LFE63
 5268 00c0 00000000 		.4byte	0
 5269 00c4 00000000 		.4byte	0
 5270              		.section	.debug_line,"",%progbits
 5271              	.Ldebug_line0:
 5272 0000 E7030000 		.section	.debug_str,"MS",%progbits,1
 5272      02005E01 
 5272      00000201 
 5272      FB0E0D00 
 5272      01010101 
 5273              	.LASF39:
ARM GAS  C:\Users\info\AppData\Local\Temp\ccAuJzLL.s 			page 104


 5274 0000 5052535F 		.ascii	"PRS_1_Init\000"
 5274      315F496E 
 5274      697400
 5275              	.LASF27:
 5276 000b 64696666 		.ascii	"diff\000"
 5276      00
 5277              	.LASF36:
 5278 0010 4C45445F 		.ascii	"LED_Write\000"
 5278      57726974 
 5278      6500
 5279              	.LASF16:
 5280 001a 75696E74 		.ascii	"uint64_t\000"
 5280      36345F74 
 5280      00
 5281              	.LASF2:
 5282 0023 73686F72 		.ascii	"short int\000"
 5282      7420696E 
 5282      7400
 5283              	.LASF24:
 5284 002d 6F703130 		.ascii	"op10\000"
 5284      00
 5285              	.LASF20:
 5286 0032 6C6F6E67 		.ascii	"long double\000"
 5286      20646F75 
 5286      626C6500 
 5287              	.LASF43:
 5288 003e 433A5C55 		.ascii	"C:\\Users\\info\\Desktop\\Spring 2019 Classes\\6.11"
 5288      73657273 
 5288      5C696E66 
 5288      6F5C4465 
 5288      736B746F 
 5289 006c 355C362E 		.ascii	"5\\6.115-final\\PSoCCreator\\Final Project\\FinalEm"
 5289      3131352D 
 5289      66696E61 
 5289      6C5C5053 
 5289      6F434372 
 5290 009b 756C6174 		.ascii	"ulator.cydsn\000"
 5290      6F722E63 
 5290      7964736E 
 5290      00
 5291              	.LASF4:
 5292 00a8 5F5F7569 		.ascii	"__uint16_t\000"
 5292      6E743136 
 5292      5F7400
 5293              	.LASF35:
 5294 00b3 5052535F 		.ascii	"PRS_1_Read\000"
 5294      315F5265 
 5294      616400
 5295              	.LASF28:
 5296 00be 636F6C6C 		.ascii	"collision\000"
 5296      6973696F 
 5296      6E00
 5297              	.LASF13:
 5298 00c8 75696E74 		.ascii	"uint8_t\000"
 5298      385F7400 
 5299              	.LASF40:
 5300 00d0 5052535F 		.ascii	"PRS_1_Start\000"
ARM GAS  C:\Users\info\AppData\Local\Temp\ccAuJzLL.s 			page 105


 5300      315F5374 
 5300      61727400 
 5301              	.LASF17:
 5302 00dc 666C6F61 		.ascii	"float\000"
 5302      7400
 5303              	.LASF9:
 5304 00e2 6C6F6E67 		.ascii	"long long int\000"
 5304      206C6F6E 
 5304      6720696E 
 5304      7400
 5305              	.LASF11:
 5306 00f0 6C6F6E67 		.ascii	"long long unsigned int\000"
 5306      206C6F6E 
 5306      6720756E 
 5306      7369676E 
 5306      65642069 
 5307              	.LASF45:
 5308 0107 6D656D73 		.ascii	"memset\000"
 5308      657400
 5309              	.LASF38:
 5310 010e 5052535F 		.ascii	"PRS_1_Enable\000"
 5310      315F456E 
 5310      61626C65 
 5310      00
 5311              	.LASF32:
 5312 011b 6C617374 		.ascii	"lastkey\000"
 5312      6B657900 
 5313              	.LASF3:
 5314 0123 5F5F7569 		.ascii	"__uint8_t\000"
 5314      6E74385F 
 5314      7400
 5315              	.LASF31:
 5316 012d 6B657973 		.ascii	"keys\000"
 5316      00
 5317              	.LASF23:
 5318 0132 696E7374 		.ascii	"instr\000"
 5318      7200
 5319              	.LASF1:
 5320 0138 756E7369 		.ascii	"unsigned char\000"
 5320      676E6564 
 5320      20636861 
 5320      7200
 5321              	.LASF0:
 5322 0146 7369676E 		.ascii	"signed char\000"
 5322      65642063 
 5322      68617200 
 5323              	.LASF33:
 5324 0152 6B657966 		.ascii	"keyflag\000"
 5324      6C616700 
 5325              	.LASF12:
 5326 015a 756E7369 		.ascii	"unsigned int\000"
 5326      676E6564 
 5326      20696E74 
 5326      00
 5327              	.LASF14:
 5328 0167 75696E74 		.ascii	"uint16_t\000"
 5328      31365F74 
ARM GAS  C:\Users\info\AppData\Local\Temp\ccAuJzLL.s 			page 106


 5328      00
 5329              	.LASF22:
 5330 0170 73746163 		.ascii	"stack\000"
 5330      6B00
 5331              	.LASF5:
 5332 0176 73686F72 		.ascii	"short unsigned int\000"
 5332      7420756E 
 5332      7369676E 
 5332      65642069 
 5332      6E7400
 5333              	.LASF25:
 5334 0189 696E7661 		.ascii	"invalid_op\000"
 5334      6C69645F 
 5334      6F7000
 5335              	.LASF19:
 5336 0194 63686172 		.ascii	"char\000"
 5336      00
 5337              	.LASF7:
 5338 0199 6C6F6E67 		.ascii	"long int\000"
 5338      20696E74 
 5338      00
 5339              	.LASF44:
 5340 01a2 6D61696E 		.ascii	"main\000"
 5340      00
 5341              	.LASF15:
 5342 01a7 696E7433 		.ascii	"int32_t\000"
 5342      325F7400 
 5343              	.LASF34:
 5344 01af 52414E44 		.ascii	"RANDOM_BYTE\000"
 5344      4F4D5F42 
 5344      59544500 
 5345              	.LASF10:
 5346 01bb 5F5F7569 		.ascii	"__uint64_t\000"
 5346      6E743634 
 5346      5F7400
 5347              	.LASF42:
 5348 01c6 6D61696E 		.ascii	"main.c\000"
 5348      2E6300
 5349              	.LASF8:
 5350 01cd 6C6F6E67 		.ascii	"long unsigned int\000"
 5350      20756E73 
 5350      69676E65 
 5350      6420696E 
 5350      7400
 5351              	.LASF18:
 5352 01df 646F7562 		.ascii	"double\000"
 5352      6C6500
 5353              	.LASF26:
 5354 01e6 66726565 		.ascii	"freeze_pc\000"
 5354      7A655F70 
 5354      6300
 5355              	.LASF6:
 5356 01f0 5F5F696E 		.ascii	"__int32_t\000"
 5356      7433325F 
 5356      7400
 5357              	.LASF21:
 5358 01fa 73697A65 		.ascii	"sizetype\000"
ARM GAS  C:\Users\info\AppData\Local\Temp\ccAuJzLL.s 			page 107


 5358      74797065 
 5358      00
 5359              	.LASF30:
 5360 0203 7672616D 		.ascii	"vram\000"
 5360      00
 5361              	.LASF29:
 5362 0208 49544D5F 		.ascii	"ITM_RxBuffer\000"
 5362      52784275 
 5362      66666572 
 5362      00
 5363              	.LASF41:
 5364 0215 474E5520 		.ascii	"GNU C11 5.4.1 20160609 (release) [ARM/embedded-5-br"
 5364      43313120 
 5364      352E342E 
 5364      31203230 
 5364      31363036 
 5365 0248 616E6368 		.ascii	"anch revision 237715] -mcpu=cortex-m3 -mthumb -g -O"
 5365      20726576 
 5365      6973696F 
 5365      6E203233 
 5365      37373135 
 5366 027b 67202D66 		.ascii	"g -ffunction-sections -ffat-lto-objects\000"
 5366      66756E63 
 5366      74696F6E 
 5366      2D736563 
 5366      74696F6E 
 5367              	.LASF37:
 5368 02a3 43794465 		.ascii	"CyDelay\000"
 5368      6C617900 
 5369              		.ident	"GCC: (GNU Tools for ARM Embedded Processors) 5.4.1 20160609 (release) [ARM/embedded-5-bran
