ARM GAS  C:\Users\info\AppData\Local\Temp\ccHAj6Mv.s 			page 1


   1              		.syntax unified
   2              		.cpu cortex-m3
   3              		.fpu softvfp
   4              		.eabi_attribute 20, 1
   5              		.eabi_attribute 21, 1
   6              		.eabi_attribute 23, 3
   7              		.eabi_attribute 24, 1
   8              		.eabi_attribute 25, 1
   9              		.eabi_attribute 26, 1
  10              		.eabi_attribute 30, 1
  11              		.eabi_attribute 34, 1
  12              		.eabi_attribute 18, 4
  13              		.thumb
  14              		.syntax unified
  15              		.file	"main.c"
  16              		.text
  17              	.Ltext0:
  18              		.cfi_sections	.debug_frame
  19              		.section	.text.newline,"ax",%progbits
  20              		.align	2
  21              		.global	newline
  22              		.thumb
  23              		.thumb_func
  24              		.type	newline, %function
  25              	newline:
  26              	.LFB63:
  27              		.file 1 "main.c"
   1:main.c        **** /* ============================================================================
   2:main.c        ****  * CHIP8 Emulator
   3:main.c        ****  * Written By Keshav Gupta, April 2019
   4:main.c        ****  * Technical Reference: http://devernay.free.fr/hacks/chip8/C8TECH10.HTM
   5:main.c        ****  * ============================================================================
   6:main.c        **** */
   7:main.c        **** 
   8:main.c        **** /*
   9:main.c        **** TODO
  10:main.c        **** 
  11:main.c        **** Implement Keyboard
  12:main.c        **** Implement VGA
  13:main.c        **** 
  14:main.c        **** Replace SRAM with EEPROM (or other funcitonality to change roms nicely
  15:main.c        **** */
  16:main.c        **** 
  17:main.c        **** #include "project.h"
  18:main.c        **** #include "ram_init_data.h"
  19:main.c        **** 
  20:main.c        **** /* Instruction Opcodes */
  21:main.c        **** #define OP3_SYSTEM 0x0
  22:main.c        **** #define OP3_JUMP_ABSOLUTE 0x1
  23:main.c        **** #define OP3_JUMP_OFFSET 0xb
  24:main.c        **** #define OP3_CALL_SUBROUTINE 0x2
  25:main.c        **** #define OP3_SKIP_NEXT_EQ_IM 0x3
  26:main.c        **** #define OP3_SKIP_NEXT_NEQ_IM 0x4
  27:main.c        **** #define OP3_SKIP_NEXT_EQ 0x5
  28:main.c        **** #define OP3_SKIP_NEXT_NEQ 0x9
  29:main.c        **** #define OP3_LOAD_V 0x6
  30:main.c        **** #define OP3_ADD_IM 0x7
ARM GAS  C:\Users\info\AppData\Local\Temp\ccHAj6Mv.s 			page 2


  31:main.c        **** #define OP3_ARITH 0x8
  32:main.c        **** #define OP3_LOAD_I 0xa
  33:main.c        **** #define OP3_RANDOM 0xc
  34:main.c        **** #define OP3_DRAW 0xd
  35:main.c        **** #define OP3_KEYBOARD 0xe
  36:main.c        **** #define OP3_SPECIAL 0xf
  37:main.c        **** 
  38:main.c        **** #define OP2_SYSTEM 0x0
  39:main.c        **** 
  40:main.c        **** #define OP10_SYSTEM_CLEAR 0xe0
  41:main.c        **** #define OP10_SYSTEM_RETURN 0xee
  42:main.c        **** #define OP10_KEYBOARD_EQ 0x9e
  43:main.c        **** #define OP10_KEYBOARD_NEQ 0xa1
  44:main.c        **** #define OP10_SPECIAL_LOAD_DELAY 0x07
  45:main.c        **** #define OP10_SPECIAL_LOAD_KEYBOARD 0x0a
  46:main.c        **** #define OP10_SPECIAL_SET_DELAY 0x15
  47:main.c        **** #define OP10_SPECIAL_SET_SOUND 0x18
  48:main.c        **** #define OP10_SPECIAL_ADD_TO_I 0x1e
  49:main.c        **** #define OP10_SPECIAL_LOAD_FONT 0x29
  50:main.c        **** #define OP10_SPECIAL_LOAD_BCD 0x33
  51:main.c        **** #define OP10_SPECIAL_LOAD_AT_I 0x55
  52:main.c        **** #define OP10_SPECIAL_SET_AT_I 0x65
  53:main.c        **** 
  54:main.c        **** #define OP0_SKIP_NEXT 0x0
  55:main.c        **** #define OP0_ARITH_LOAD 0x0
  56:main.c        **** #define OP0_ARITH_OR 0x1
  57:main.c        **** #define OP0_ARITH_AND 0x2
  58:main.c        **** #define OP0_ARITH_XOR 0x3
  59:main.c        **** #define OP0_ARITH_ADD 0x4
  60:main.c        **** #define OP0_ARITH_SUB 0x5
  61:main.c        **** #define OP0_ARITH_SHR 0x6
  62:main.c        **** #define OP0_ARITH_SUBN 0x7
  63:main.c        **** #define OP0_ARITH_SHL 0xe
  64:main.c        **** 
  65:main.c        **** /* 
  66:main.c        ****    CHIP8 Keyboard 
  67:main.c        ****    keys stores the current state of each key
  68:main.c        ****        (1 = down, 0 = up)
  69:main.c        ****    lastkey stores the last key that was pressed
  70:main.c        ****    leyflag = 1 if new data available in lastkey
  71:main.c        ****        must be reset to 0 when data used
  72:main.c        **** */
  73:main.c        **** uint8_t keys[16] = {0};
  74:main.c        **** uint8_t lastkey = 0, keyflag = 0;
  75:main.c        **** 
  76:main.c        **** /* 
  77:main.c        ****    CHIP8 Video
  78:main.c        ****    Each row is one 64bit number
  79:main.c        **** */
  80:main.c        **** uint64_t vram[32];
  81:main.c        **** 
  82:main.c        **** /* 
  83:main.c        ****    The following code snippet (concerning VGA) is courtesy of
  84:main.c        ****    the 6.115 Staff. It has been modified to suit this application.
  85:main.c        **** 
  86:main.c        ****    Video buffer gets its own SRAM to prevent bus contention.
  87:main.c        ****    The user-facing buffer is in regular system RAM.
ARM GAS  C:\Users\info\AppData\Local\Temp\ccHAj6Mv.s 			page 3


  88:main.c        ****    This is set in the custom linker script (custom.ld).
  89:main.c        **** */
  90:main.c        **** uint8_t vbuf[96][128] __attribute__ ((section(".vram")));
  91:main.c        **** 
  92:main.c        **** /* 
  93:main.c        ****    Now we set up the DMA to copy pixels from vbuf to the screen.
  94:main.c        ****    For timing, we rely on the fact that it takes the DMA exactly
  95:main.c        ****    8 clocks to move each byte. After each line the DMA is updated
  96:main.c        ****    to point to the next line in vbuf.
  97:main.c        **** */
  98:main.c        **** uint8_t dma_chan, dma_td;
  99:main.c        **** volatile int vga_update_flag = 1;
 100:main.c        **** 
 101:main.c        **** CY_ISR(newline) {
  28              		.loc 1 101 0
  29              		.cfi_startproc
  30              		@ args = 0, pretend = 0, frame = 0
  31              		@ frame_needed = 0, uses_anonymous_args = 0
  32 0000 70B5     		push	{r4, r5, r6, lr}
  33              		.cfi_def_cfa_offset 16
  34              		.cfi_offset 4, -16
  35              		.cfi_offset 5, -12
  36              		.cfi_offset 6, -8
  37              		.cfi_offset 14, -4
 102:main.c        ****     uint16 line = 805 - VERT_ReadCounter();
  38              		.loc 1 102 0
  39 0002 FFF7FEFF 		bl	VERT_ReadCounter
  40              	.LVL0:
  41 0006 C0F54970 		rsb	r0, r0, #804
  42 000a 0130     		adds	r0, r0, #1
  43 000c 80B2     		uxth	r0, r0
  44              	.LVL1:
 103:main.c        ****     if (line % 8 == 0) {
  45              		.loc 1 103 0
  46 000e 10F0070F 		tst	r0, #7
  47 0012 59D1     		bne	.L1
 104:main.c        ****         if (line < 768) {
  48              		.loc 1 104 0
  49 0014 B0F5407F 		cmp	r0, #768
  50 0018 0DD2     		bcs	.L3
 105:main.c        ****             CY_SET_REG16(CY_DMA_TDMEM_STRUCT_PTR[dma_td].TD1,
  51              		.loc 1 105 0
  52 001a 2C4B     		ldr	r3, .L13
  53 001c 1B78     		ldrb	r3, [r3]	@ zero_extendqisi2
  54 001e DB00     		lsls	r3, r3, #3
  55 0020 03F18043 		add	r3, r3, #1073741824
  56 0024 03F5F043 		add	r3, r3, #30720
  57 0028 C008     		lsrs	r0, r0, #3
  58              	.LVL2:
  59 002a 294A     		ldr	r2, .L13+4
  60 002c 02EBC010 		add	r0, r2, r0, lsl #7
  61 0030 82B2     		uxth	r2, r0
  62 0032 9A80     		strh	r2, [r3, #4]	@ movhi
  63 0034 70BD     		pop	{r4, r5, r6, pc}
  64              	.LVL3:
  65              	.L3:
 106:main.c        ****                          LO16((uint32) vbuf[line / 8]));
ARM GAS  C:\Users\info\AppData\Local\Temp\ccHAj6Mv.s 			page 4


 107:main.c        ****         } else if (line == 768 && vga_update_flag) {
  66              		.loc 1 107 0
  67 0036 B0F5407F 		cmp	r0, #768
  68 003a 45D1     		bne	.L1
  69              		.loc 1 107 0 is_stmt 0 discriminator 1
  70 003c 254B     		ldr	r3, .L13+8
  71 003e 1B68     		ldr	r3, [r3]
  72 0040 002B     		cmp	r3, #0
  73 0042 41D0     		beq	.L1
 108:main.c        ****             /* Refresh buffer during vsync */
 109:main.c        ****             CyDmaChDisable(dma_chan);
  74              		.loc 1 109 0 is_stmt 1
  75 0044 244B     		ldr	r3, .L13+12
  76 0046 1878     		ldrb	r0, [r3]	@ zero_extendqisi2
  77              	.LVL4:
  78 0048 FFF7FEFF 		bl	CyDmaChDisable
  79              	.LVL5:
 110:main.c        ****             if (vga_update_flag) {
  80              		.loc 1 110 0
  81 004c 214B     		ldr	r3, .L13+8
  82 004e 1B68     		ldr	r3, [r3]
  83 0050 7BBB     		cbnz	r3, .L9
  84 0052 34E0     		b	.L5
  85              	.LVL6:
  86              	.L7:
  87              	.LBB2:
  88              	.LBB3:
  89              	.LBB4:
 111:main.c        ****             uint8_t pixel;
 112:main.c        ****                 for (uint8_t x = 0; x < 64; x++){
 113:main.c        ****                     for (uint8_t y = 0; y < 48; y++){
 114:main.c        ****                         if (y < 8 || y >= 40) {
  90              		.loc 1 114 0
  91 0054 A3F10802 		sub	r2, r3, #8
  92 0058 D2B2     		uxtb	r2, r2
  93 005a 1F2A     		cmp	r2, #31
  94 005c 10D8     		bhi	.L10
 115:main.c        ****                             pixel = 0;
 116:main.c        ****                         } else {
 117:main.c        ****                             pixel = vram[y - 8] & (((uint64_t)1) << (63-x));
  95              		.loc 1 117 0
  96 005e A3F10802 		sub	r2, r3, #8
  97 0062 1E49     		ldr	r1, .L13+16
  98 0064 51F83200 		ldr	r0, [r1, r2, lsl #3]
  99 0068 C5F13F02 		rsb	r2, r5, #63
 100 006c 0121     		movs	r1, #1
 101 006e 01FA02F2 		lsl	r2, r1, r2
 102 0072 0240     		ands	r2, r2, r0
 103              	.LVL7:
 118:main.c        ****                             pixel = (pixel) ? 1 : 0;
 104              		.loc 1 118 0
 105 0074 12F0FF0F 		tst	r2, #255
 106 0078 14BF     		ite	ne
 107 007a 0C46     		movne	r4, r1
 108 007c 0024     		moveq	r4, #0
 109              	.LVL8:
 110 007e 00E0     		b	.L6
ARM GAS  C:\Users\info\AppData\Local\Temp\ccHAj6Mv.s 			page 5


 111              	.LVL9:
 112              	.L10:
 115:main.c        ****                             pixel = 0;
 113              		.loc 1 115 0
 114 0080 0024     		movs	r4, #0
 115              	.L6:
 116              	.LVL10:
 119:main.c        ****                         }
 120:main.c        ****                         vbuf[2*y][2*x] = pixel;
 117              		.loc 1 120 0 discriminator 2
 118 0082 5900     		lsls	r1, r3, #1
 119 0084 6A00     		lsls	r2, r5, #1
 120 0086 1248     		ldr	r0, .L13+4
 121 0088 00EB0326 		add	r6, r0, r3, lsl #8
 122 008c 06F81540 		strb	r4, [r6, r5, lsl #1]
 121:main.c        ****                         vbuf[2*y+1][2*x] = pixel;
 123              		.loc 1 121 0 discriminator 2
 124 0090 0131     		adds	r1, r1, #1
 125 0092 00EBC111 		add	r1, r0, r1, lsl #7
 126 0096 01F81540 		strb	r4, [r1, r5, lsl #1]
 122:main.c        ****                         vbuf[2*y][2*x+1] = pixel;
 127              		.loc 1 122 0 discriminator 2
 128 009a 0132     		adds	r2, r2, #1
 129 009c B454     		strb	r4, [r6, r2]
 123:main.c        ****                         vbuf[2*y+1][2*x+1] = pixel;
 130              		.loc 1 123 0 discriminator 2
 131 009e 8C54     		strb	r4, [r1, r2]
 113:main.c        ****                         if (y < 8 || y >= 40) {
 132              		.loc 1 113 0 discriminator 2
 133 00a0 0133     		adds	r3, r3, #1
 134              	.LVL11:
 135 00a2 DBB2     		uxtb	r3, r3
 136              	.LVL12:
 137 00a4 00E0     		b	.L8
 138              	.LVL13:
 139              	.L11:
 140              	.LBE4:
 141 00a6 0023     		movs	r3, #0
 142              	.L8:
 143              	.LVL14:
 144              	.LBB5:
 113:main.c        ****                         if (y < 8 || y >= 40) {
 145              		.loc 1 113 0 is_stmt 0 discriminator 1
 146 00a8 2F2B     		cmp	r3, #47
 147 00aa D3D9     		bls	.L7
 148              	.LBE5:
 112:main.c        ****                     for (uint8_t y = 0; y < 48; y++){
 149              		.loc 1 112 0 is_stmt 1 discriminator 2
 150 00ac 0135     		adds	r5, r5, #1
 151              	.LVL15:
 152 00ae EDB2     		uxtb	r5, r5
 153              	.LVL16:
 154 00b0 00E0     		b	.L4
 155              	.LVL17:
 156              	.L9:
 157              	.LBE3:
 158              	.LBE2:
ARM GAS  C:\Users\info\AppData\Local\Temp\ccHAj6Mv.s 			page 6


 159 00b2 0025     		movs	r5, #0
 160              	.L4:
 161              	.LVL18:
 162              	.LBB7:
 163              	.LBB6:
 112:main.c        ****                     for (uint8_t y = 0; y < 48; y++){
 164              		.loc 1 112 0 is_stmt 0 discriminator 1
 165 00b4 3F2D     		cmp	r5, #63
 166 00b6 F6D9     		bls	.L11
 167              	.LBE6:
 124:main.c        ****                     }
 125:main.c        ****                 }
 126:main.c        ****                 vga_update_flag = 0;
 168              		.loc 1 126 0 is_stmt 1
 169 00b8 0022     		movs	r2, #0
 170 00ba 064B     		ldr	r3, .L13+8
 171 00bc 1A60     		str	r2, [r3]
 172              	.LVL19:
 173              	.L5:
 174              	.LBE7:
 127:main.c        ****             }
 128:main.c        ****             CyDmaChEnable(dma_chan, 1);
 175              		.loc 1 128 0
 176 00be 0121     		movs	r1, #1
 177 00c0 054B     		ldr	r3, .L13+12
 178 00c2 1878     		ldrb	r0, [r3]	@ zero_extendqisi2
 179 00c4 FFF7FEFF 		bl	CyDmaChEnable
 180              	.LVL20:
 181              	.L1:
 182 00c8 70BD     		pop	{r4, r5, r6, pc}
 183              	.L14:
 184 00ca 00BF     		.align	2
 185              	.L13:
 186 00cc 00000000 		.word	dma_td
 187 00d0 00000000 		.word	.LANCHOR0
 188 00d4 00000000 		.word	.LANCHOR1
 189 00d8 00000000 		.word	dma_chan
 190 00dc 00000000 		.word	vram
 191              		.cfi_endproc
 192              	.LFE63:
 193              		.size	newline, .-newline
 194              		.section	.text.isr_tmr_handler,"ax",%progbits
 195              		.align	2
 196              		.global	isr_tmr_handler
 197              		.thumb
 198              		.thumb_func
 199              		.type	isr_tmr_handler, %function
 200              	isr_tmr_handler:
 201              	.LFB65:
 129:main.c        ****         }
 130:main.c        ****     }
 131:main.c        **** }
 132:main.c        **** 
 133:main.c        **** void update_vga() {
 134:main.c        ****     vga_update_flag = 1;
 135:main.c        ****     while (vga_update_flag);
 136:main.c        **** }
ARM GAS  C:\Users\info\AppData\Local\Temp\ccHAj6Mv.s 			page 7


 137:main.c        **** 
 138:main.c        **** /* 
 139:main.c        ****    CHIP8 Timers 
 140:main.c        ****    Decrement each at 60Hz if not zero
 141:main.c        **** */
 142:main.c        **** uint8_t snd = 0, tmr = 0;
 143:main.c        **** 
 144:main.c        **** CY_ISR(isr_tmr_handler){
 202              		.loc 1 144 0
 203              		.cfi_startproc
 204              		@ args = 0, pretend = 0, frame = 0
 205              		@ frame_needed = 0, uses_anonymous_args = 0
 206 0000 08B5     		push	{r3, lr}
 207              		.cfi_def_cfa_offset 8
 208              		.cfi_offset 3, -8
 209              		.cfi_offset 14, -4
 145:main.c        ****     snd = (snd == 0) ? 0 : snd - 1;
 210              		.loc 1 145 0
 211 0002 0B4B     		ldr	r3, .L21
 212 0004 1B78     		ldrb	r3, [r3]	@ zero_extendqisi2
 213 0006 0BB1     		cbz	r3, .L16
 214              		.loc 1 145 0 is_stmt 0 discriminator 1
 215 0008 013B     		subs	r3, r3, #1
 216 000a DBB2     		uxtb	r3, r3
 217              	.L16:
 218              		.loc 1 145 0 discriminator 4
 219 000c 084A     		ldr	r2, .L21
 220 000e 1370     		strb	r3, [r2]
 146:main.c        ****     tmr = (tmr == 0) ? 0 : tmr - 1;
 221              		.loc 1 146 0 is_stmt 1 discriminator 4
 222 0010 5278     		ldrb	r2, [r2, #1]	@ zero_extendqisi2
 223 0012 0AB1     		cbz	r2, .L17
 224              		.loc 1 146 0 is_stmt 0 discriminator 1
 225 0014 013A     		subs	r2, r2, #1
 226 0016 D2B2     		uxtb	r2, r2
 227              	.L17:
 228              		.loc 1 146 0 discriminator 4
 229 0018 0549     		ldr	r1, .L21
 230 001a 4A70     		strb	r2, [r1, #1]
 147:main.c        ****     if (snd) {
 231              		.loc 1 147 0 is_stmt 1 discriminator 4
 232 001c 1BB1     		cbz	r3, .L18
 148:main.c        ****         pin_snd_Write(1);
 233              		.loc 1 148 0
 234 001e 0120     		movs	r0, #1
 235 0020 FFF7FEFF 		bl	pin_snd_Write
 236              	.LVL21:
 237 0024 08BD     		pop	{r3, pc}
 238              	.L18:
 149:main.c        ****     } else {
 150:main.c        ****         pin_snd_Write(0);
 239              		.loc 1 150 0
 240 0026 0020     		movs	r0, #0
 241 0028 FFF7FEFF 		bl	pin_snd_Write
 242              	.LVL22:
 243 002c 08BD     		pop	{r3, pc}
 244              	.L22:
ARM GAS  C:\Users\info\AppData\Local\Temp\ccHAj6Mv.s 			page 8


 245 002e 00BF     		.align	2
 246              	.L21:
 247 0030 00000000 		.word	.LANCHOR2
 248              		.cfi_endproc
 249              	.LFE65:
 250              		.size	isr_tmr_handler, .-isr_tmr_handler
 251              		.section	.text.update_vga,"ax",%progbits
 252              		.align	2
 253              		.global	update_vga
 254              		.thumb
 255              		.thumb_func
 256              		.type	update_vga, %function
 257              	update_vga:
 258              	.LFB64:
 133:main.c        ****     vga_update_flag = 1;
 259              		.loc 1 133 0
 260              		.cfi_startproc
 261              		@ args = 0, pretend = 0, frame = 0
 262              		@ frame_needed = 0, uses_anonymous_args = 0
 263              		@ link register save eliminated.
 134:main.c        ****     while (vga_update_flag);
 264              		.loc 1 134 0
 265 0000 0122     		movs	r2, #1
 266 0002 034B     		ldr	r3, .L25
 267 0004 1A60     		str	r2, [r3]
 268              	.L24:
 135:main.c        **** }
 269              		.loc 1 135 0 discriminator 1
 270 0006 024B     		ldr	r3, .L25
 271 0008 1B68     		ldr	r3, [r3]
 272 000a 002B     		cmp	r3, #0
 273 000c FBD1     		bne	.L24
 136:main.c        **** 
 274              		.loc 1 136 0
 275 000e 7047     		bx	lr
 276              	.L26:
 277              		.align	2
 278              	.L25:
 279 0010 00000000 		.word	.LANCHOR1
 280              		.cfi_endproc
 281              	.LFE64:
 282              		.size	update_vga, .-update_vga
 283              		.section	.text.main,"ax",%progbits
 284              		.align	2
 285              		.global	main
 286              		.thumb
 287              		.thumb_func
 288              		.type	main, %function
 289              	main:
 290              	.LFB66:
 151:main.c        ****     }
 152:main.c        **** }
 153:main.c        **** 
 154:main.c        **** int main(void){
 291              		.loc 1 154 0
 292              		.cfi_startproc
 293              		@ args = 0, pretend = 0, frame = 4184
ARM GAS  C:\Users\info\AppData\Local\Temp\ccHAj6Mv.s 			page 9


 294              		@ frame_needed = 0, uses_anonymous_args = 0
 295 0000 2DE9F04F 		push	{r4, r5, r6, r7, r8, r9, r10, fp, lr}
 296              		.cfi_def_cfa_offset 36
 297              		.cfi_offset 4, -36
 298              		.cfi_offset 5, -32
 299              		.cfi_offset 6, -28
 300              		.cfi_offset 7, -24
 301              		.cfi_offset 8, -20
 302              		.cfi_offset 9, -16
 303              		.cfi_offset 10, -12
 304              		.cfi_offset 11, -8
 305              		.cfi_offset 14, -4
 306 0004 ADF5825D 		sub	sp, sp, #4160
 307              		.cfi_def_cfa_offset 4196
 308 0008 87B0     		sub	sp, sp, #28
 309              		.cfi_def_cfa_offset 4224
 155:main.c        ****     /* Start the interrupts */
 156:main.c        ****     isr_timer_StartEx(isr_tmr_handler);
 310              		.loc 1 156 0
 311 000a F948     		ldr	r0, .L109
 312 000c FFF7FEFF 		bl	isr_timer_StartEx
 313              	.LVL23:
 157:main.c        ****     
 158:main.c        ****     /* Initialize the DMA */
 159:main.c        ****     dma_td = CyDmaTdAllocate();
 314              		.loc 1 159 0
 315 0010 FFF7FEFF 		bl	CyDmaTdAllocate
 316              	.LVL24:
 317 0014 F74C     		ldr	r4, .L109+4
 318 0016 2070     		strb	r0, [r4]
 160:main.c        ****     dma_chan = DMA_DmaInitialize(1, 0, HI16(CYDEV_SRAM_BASE),
 319              		.loc 1 160 0
 320 0018 4FF48043 		mov	r3, #16384
 321 001c 41F6FF72 		movw	r2, #8191
 322 0020 0021     		movs	r1, #0
 323 0022 0120     		movs	r0, #1
 324 0024 FFF7FEFF 		bl	DMA_DmaInitialize
 325              	.LVL25:
 326 0028 F34D     		ldr	r5, .L109+8
 327 002a 2870     		strb	r0, [r5]
 161:main.c        ****                                  HI16(CYDEV_PERIPH_BASE));
 162:main.c        ****     CyDmaTdSetConfiguration(dma_td, 128, dma_td, 
 328              		.loc 1 162 0
 329 002c 2078     		ldrb	r0, [r4]	@ zero_extendqisi2
 330 002e 0523     		movs	r3, #5
 331 0030 0246     		mov	r2, r0
 332 0032 8021     		movs	r1, #128
 333 0034 FFF7FEFF 		bl	CyDmaTdSetConfiguration
 334              	.LVL26:
 163:main.c        ****                             DMA__TD_TERMOUT_EN | TD_INC_SRC_ADR);
 164:main.c        ****     CyDmaTdSetAddress(dma_td, 0, LO16((uint32) PIXEL_Control_PTR));
 335              		.loc 1 164 0
 336 0038 46F27F42 		movw	r2, #25727
 337 003c 0021     		movs	r1, #0
 338 003e 2078     		ldrb	r0, [r4]	@ zero_extendqisi2
 339 0040 FFF7FEFF 		bl	CyDmaTdSetAddress
 340              	.LVL27:
ARM GAS  C:\Users\info\AppData\Local\Temp\ccHAj6Mv.s 			page 10


 165:main.c        ****     CyDmaChSetInitialTd(dma_chan, dma_td);
 341              		.loc 1 165 0
 342 0044 2178     		ldrb	r1, [r4]	@ zero_extendqisi2
 343 0046 2878     		ldrb	r0, [r5]	@ zero_extendqisi2
 344 0048 FFF7FEFF 		bl	CyDmaChSetInitialTd
 345              	.LVL28:
 166:main.c        ****     CyDmaChEnable(dma_chan, 1);
 346              		.loc 1 166 0
 347 004c 0121     		movs	r1, #1
 348 004e 2878     		ldrb	r0, [r5]	@ zero_extendqisi2
 349 0050 FFF7FEFF 		bl	CyDmaChEnable
 350              	.LVL29:
 167:main.c        ****     
 168:main.c        ****     /* Start all of the timing counters */
 169:main.c        ****     HORIZ_Start();
 351              		.loc 1 169 0
 352 0054 FFF7FEFF 		bl	HORIZ_Start
 353              	.LVL30:
 170:main.c        ****     VERT_Start();
 354              		.loc 1 170 0
 355 0058 FFF7FEFF 		bl	VERT_Start
 356              	.LVL31:
 171:main.c        ****     HSYNC_Start();
 357              		.loc 1 171 0
 358 005c FFF7FEFF 		bl	HSYNC_Start
 359              	.LVL32:
 172:main.c        ****     VSYNC_Start();
 360              		.loc 1 172 0
 361 0060 FFF7FEFF 		bl	VSYNC_Start
 362              	.LVL33:
 173:main.c        ****     NEWLINE_StartEx(newline);
 363              		.loc 1 173 0
 364 0064 E548     		ldr	r0, .L109+12
 365 0066 FFF7FEFF 		bl	NEWLINE_StartEx
 366              	.LVL34:
 174:main.c        ****     
 175:main.c        ****     /* Enable global interrupts */
 176:main.c        ****     CyGlobalIntEnable;
 367              		.loc 1 176 0
 368              		.syntax unified
 369              	@ 176 "main.c" 1
 370 006a 62B6     		CPSIE   i
 371              	@ 0 "" 2
 177:main.c        ****     
 178:main.c        ****     /* CHIP8 RAM*/
 179:main.c        ****     uint8_t ram[4096] = RAM_INITIAL_DATA;
 372              		.loc 1 179 0
 373              		.thumb
 374              		.syntax unified
 375 006c 4FF48052 		mov	r2, #4096
 376 0070 0021     		movs	r1, #0
 377 0072 16A8     		add	r0, sp, #88
 378 0074 FFF7FEFF 		bl	memset
 379              	.LVL35:
 380 0078 F023     		movs	r3, #240
 381 007a 8DF85830 		strb	r3, [sp, #88]
 382 007e 9021     		movs	r1, #144
ARM GAS  C:\Users\info\AppData\Local\Temp\ccHAj6Mv.s 			page 11


 383 0080 8DF85910 		strb	r1, [sp, #89]
 384 0084 8DF85A10 		strb	r1, [sp, #90]
 385 0088 8DF85B10 		strb	r1, [sp, #91]
 386 008c 8DF85C30 		strb	r3, [sp, #92]
 387 0090 2024     		movs	r4, #32
 388 0092 8DF85D40 		strb	r4, [sp, #93]
 389 0096 4FF06008 		mov	r8, #96
 390 009a 8DF85E80 		strb	r8, [sp, #94]
 391 009e 8DF85F40 		strb	r4, [sp, #95]
 392 00a2 8DF86040 		strb	r4, [sp, #96]
 393 00a6 7022     		movs	r2, #112
 394 00a8 8DF86120 		strb	r2, [sp, #97]
 395 00ac 8DF86230 		strb	r3, [sp, #98]
 396 00b0 1022     		movs	r2, #16
 397 00b2 8DF86320 		strb	r2, [sp, #99]
 398 00b6 8DF86430 		strb	r3, [sp, #100]
 399 00ba 8020     		movs	r0, #128
 400 00bc 8DF86500 		strb	r0, [sp, #101]
 401 00c0 8DF86630 		strb	r3, [sp, #102]
 402 00c4 8DF86730 		strb	r3, [sp, #103]
 403 00c8 8DF86820 		strb	r2, [sp, #104]
 404 00cc 8DF86930 		strb	r3, [sp, #105]
 405 00d0 8DF86A20 		strb	r2, [sp, #106]
 406 00d4 8DF86B30 		strb	r3, [sp, #107]
 407 00d8 8DF86C10 		strb	r1, [sp, #108]
 408 00dc 8DF86D10 		strb	r1, [sp, #109]
 409 00e0 8DF86E30 		strb	r3, [sp, #110]
 410 00e4 8DF86F20 		strb	r2, [sp, #111]
 411 00e8 8DF87020 		strb	r2, [sp, #112]
 412 00ec 8DF87130 		strb	r3, [sp, #113]
 413 00f0 8DF87200 		strb	r0, [sp, #114]
 414 00f4 8DF87330 		strb	r3, [sp, #115]
 415 00f8 8DF87420 		strb	r2, [sp, #116]
 416 00fc 8DF87530 		strb	r3, [sp, #117]
 417 0100 8DF87630 		strb	r3, [sp, #118]
 418 0104 8DF87700 		strb	r0, [sp, #119]
 419 0108 8DF87830 		strb	r3, [sp, #120]
 420 010c 8DF87910 		strb	r1, [sp, #121]
 421 0110 8DF87A30 		strb	r3, [sp, #122]
 422 0114 8DF87B30 		strb	r3, [sp, #123]
 423 0118 8DF87C20 		strb	r2, [sp, #124]
 424 011c 8DF87D40 		strb	r4, [sp, #125]
 425 0120 4024     		movs	r4, #64
 426 0122 8DF87E40 		strb	r4, [sp, #126]
 427 0126 8DF87F40 		strb	r4, [sp, #127]
 428 012a 8DF88030 		strb	r3, [sp, #128]
 429 012e 8DF88110 		strb	r1, [sp, #129]
 430 0132 8DF88230 		strb	r3, [sp, #130]
 431 0136 8DF88310 		strb	r1, [sp, #131]
 432 013a 8DF88430 		strb	r3, [sp, #132]
 433 013e 8DF88530 		strb	r3, [sp, #133]
 434 0142 8DF88610 		strb	r1, [sp, #134]
 435 0146 8DF88730 		strb	r3, [sp, #135]
 436 014a 8DF88820 		strb	r2, [sp, #136]
 437 014e 8DF88930 		strb	r3, [sp, #137]
 438 0152 8DF88A30 		strb	r3, [sp, #138]
 439 0156 8DF88B10 		strb	r1, [sp, #139]
ARM GAS  C:\Users\info\AppData\Local\Temp\ccHAj6Mv.s 			page 12


 440 015a 8DF88C30 		strb	r3, [sp, #140]
 441 015e 8DF88D10 		strb	r1, [sp, #141]
 442 0162 8DF88E10 		strb	r1, [sp, #142]
 443 0166 E024     		movs	r4, #224
 444 0168 8DF88F40 		strb	r4, [sp, #143]
 445 016c 8DF89010 		strb	r1, [sp, #144]
 446 0170 8DF89140 		strb	r4, [sp, #145]
 447 0174 8DF89210 		strb	r1, [sp, #146]
 448 0178 8DF89340 		strb	r4, [sp, #147]
 449 017c 8DF89430 		strb	r3, [sp, #148]
 450 0180 8DF89500 		strb	r0, [sp, #149]
 451 0184 8DF89600 		strb	r0, [sp, #150]
 452 0188 8DF89700 		strb	r0, [sp, #151]
 453 018c 8DF89830 		strb	r3, [sp, #152]
 454 0190 8DF89940 		strb	r4, [sp, #153]
 455 0194 8DF89A10 		strb	r1, [sp, #154]
 456 0198 8DF89B10 		strb	r1, [sp, #155]
 457 019c 8DF89C10 		strb	r1, [sp, #156]
 458 01a0 8DF89D40 		strb	r4, [sp, #157]
 459 01a4 8DF89E30 		strb	r3, [sp, #158]
 460 01a8 8DF89F00 		strb	r0, [sp, #159]
 461 01ac 8DF8A030 		strb	r3, [sp, #160]
 462 01b0 8DF8A100 		strb	r0, [sp, #161]
 463 01b4 8DF8A230 		strb	r3, [sp, #162]
 464 01b8 8DF8A330 		strb	r3, [sp, #163]
 465 01bc 8DF8A400 		strb	r0, [sp, #164]
 466 01c0 8DF8A530 		strb	r3, [sp, #165]
 467 01c4 8DF8A600 		strb	r0, [sp, #166]
 468 01c8 8DF8A700 		strb	r0, [sp, #167]
 469 01cc 8DF85942 		strb	r4, [sp, #601]
 470 01d0 6320     		movs	r0, #99
 471 01d2 8DF85A02 		strb	r0, [sp, #602]
 472 01d6 6425     		movs	r5, #100
 473 01d8 8DF85C52 		strb	r5, [sp, #604]
 474 01dc 0124     		movs	r4, #1
 475 01de 8DF85D42 		strb	r4, [sp, #605]
 476 01e2 6521     		movs	r1, #101
 477 01e4 8DF85E12 		strb	r1, [sp, #606]
 478 01e8 EE27     		movs	r7, #238
 479 01ea 8DF85F72 		strb	r7, [sp, #607]
 480 01ee 4FF0350B 		mov	fp, #53
 481 01f2 8DF860B2 		strb	fp, [sp, #608]
 482 01f6 8DF86172 		strb	r7, [sp, #609]
 483 01fa 1326     		movs	r6, #19
 484 01fc 8DF86262 		strb	r6, [sp, #610]
 485 0200 8DF86322 		strb	r2, [sp, #611]
 486 0204 8DF86402 		strb	r0, [sp, #612]
 487 0208 8DF86652 		strb	r5, [sp, #614]
 488 020c 4FF0020E 		mov	lr, #2
 489 0210 8DF867E2 		strb	lr, [sp, #615]
 490 0214 8DF86812 		strb	r1, [sp, #616]
 491 0218 8DF86972 		strb	r7, [sp, #617]
 492 021c 4FF0660C 		mov	ip, #102
 493 0220 8DF86AC2 		strb	ip, [sp, #618]
 494 0224 8DF86B72 		strb	r7, [sp, #619]
 495 0228 4FF0550E 		mov	lr, #85
 496 022c 8DF86CE2 		strb	lr, [sp, #620]
ARM GAS  C:\Users\info\AppData\Local\Temp\ccHAj6Mv.s 			page 13


 497 0230 8DF86D82 		strb	r8, [sp, #621]
 498 0234 8DF86E62 		strb	r6, [sp, #622]
 499 0238 8DF86F22 		strb	r2, [sp, #623]
 500 023c 8DF87002 		strb	r0, [sp, #624]
 501 0240 8DF87252 		strb	r5, [sp, #626]
 502 0244 4FF0030E 		mov	lr, #3
 503 0248 8DF873E2 		strb	lr, [sp, #627]
 504 024c 8DF87412 		strb	r1, [sp, #628]
 505 0250 8DF87572 		strb	r7, [sp, #629]
 506 0254 4FF0450E 		mov	lr, #69
 507 0258 8DF876E2 		strb	lr, [sp, #630]
 508 025c 4FF0FD0E 		mov	lr, #253
 509 0260 8DF877E2 		strb	lr, [sp, #631]
 510 0264 8DF87862 		strb	r6, [sp, #632]
 511 0268 8DF87922 		strb	r2, [sp, #633]
 512 026c 8DF87A02 		strb	r0, [sp, #634]
 513 0270 8DF87C52 		strb	r5, [sp, #636]
 514 0274 4FF0040E 		mov	lr, #4
 515 0278 8DF87DE2 		strb	lr, [sp, #637]
 516 027c 8DF87E12 		strb	r1, [sp, #638]
 517 0280 8DF87F72 		strb	r7, [sp, #639]
 518 0284 4FF0750E 		mov	lr, #117
 519 0288 8DF880E2 		strb	lr, [sp, #640]
 520 028c 8DF88142 		strb	r4, [sp, #641]
 521 0290 8DF882B2 		strb	fp, [sp, #642]
 522 0294 4FF0EF0A 		mov	r10, #239
 523 0298 8DF883A2 		strb	r10, [sp, #643]
 524 029c 8DF88462 		strb	r6, [sp, #644]
 525 02a0 8DF88522 		strb	r2, [sp, #645]
 526 02a4 8DF88602 		strb	r0, [sp, #646]
 527 02a8 8DF88852 		strb	r5, [sp, #648]
 528 02ac 4FF0050E 		mov	lr, #5
 529 02b0 8DF889E2 		strb	lr, [sp, #649]
 530 02b4 4FF06F08 		mov	r8, #111
 531 02b8 8DF88A82 		strb	r8, [sp, #650]
 532 02bc 8DF88B42 		strb	r4, [sp, #651]
 533 02c0 8DF88C12 		strb	r1, [sp, #652]
 534 02c4 8DF88D72 		strb	r7, [sp, #653]
 535 02c8 8DF88EC2 		strb	ip, [sp, #654]
 536 02cc 8DF88FA2 		strb	r10, [sp, #655]
 537 02d0 4FF0850E 		mov	lr, #133
 538 02d4 8DF890E2 		strb	lr, [sp, #656]
 539 02d8 8DF89112 		strb	r1, [sp, #657]
 540 02dc 4FF03F09 		mov	r9, #63
 541 02e0 8DF89292 		strb	r9, [sp, #658]
 542 02e4 8DF89462 		strb	r6, [sp, #660]
 543 02e8 8DF89522 		strb	r2, [sp, #661]
 544 02ec 8DF89602 		strb	r0, [sp, #662]
 545 02f0 8DF89852 		strb	r5, [sp, #664]
 546 02f4 4FF00609 		mov	r9, #6
 547 02f8 8DF89992 		strb	r9, [sp, #665]
 548 02fc 8DF89A82 		strb	r8, [sp, #666]
 549 0300 8DF89C12 		strb	r1, [sp, #668]
 550 0304 8DF89DA2 		strb	r10, [sp, #669]
 551 0308 8DF89EC2 		strb	ip, [sp, #670]
 552 030c 8DF89F72 		strb	r7, [sp, #671]
 553 0310 8DF8A0E2 		strb	lr, [sp, #672]
ARM GAS  C:\Users\info\AppData\Local\Temp\ccHAj6Mv.s 			page 14


 554 0314 8DF8A112 		strb	r1, [sp, #673]
 555 0318 4FF03F09 		mov	r9, #63
 556 031c 8DF8A292 		strb	r9, [sp, #674]
 557 0320 8DF8A342 		strb	r4, [sp, #675]
 558 0324 8DF8A462 		strb	r6, [sp, #676]
 559 0328 8DF8A522 		strb	r2, [sp, #677]
 560 032c 8DF8A682 		strb	r8, [sp, #678]
 561 0330 8DF8A802 		strb	r0, [sp, #680]
 562 0334 8DF8AA52 		strb	r5, [sp, #682]
 563 0338 4FF00709 		mov	r9, #7
 564 033c 8DF8AB92 		strb	r9, [sp, #683]
 565 0340 8DF8AC12 		strb	r1, [sp, #684]
 566 0344 8DF8AD72 		strb	r7, [sp, #685]
 567 0348 8DF8AEC2 		strb	ip, [sp, #686]
 568 034c 8DF8AFA2 		strb	r10, [sp, #687]
 569 0350 8DF8B0E2 		strb	lr, [sp, #688]
 570 0354 4FF06709 		mov	r9, #103
 571 0358 8DF8B192 		strb	r9, [sp, #689]
 572 035c 4FF03F09 		mov	r9, #63
 573 0360 8DF8B292 		strb	r9, [sp, #690]
 574 0364 8DF8B342 		strb	r4, [sp, #691]
 575 0368 8DF8B462 		strb	r6, [sp, #692]
 576 036c 8DF8B522 		strb	r2, [sp, #693]
 577 0370 8DF8B602 		strb	r0, [sp, #694]
 578 0374 8DF8B852 		strb	r5, [sp, #696]
 579 0378 4FF00809 		mov	r9, #8
 580 037c 8DF8B992 		strb	r9, [sp, #697]
 581 0380 8DF8BA82 		strb	r8, [sp, #698]
 582 0384 8DF8BB42 		strb	r4, [sp, #699]
 583 0388 8DF8BC12 		strb	r1, [sp, #700]
 584 038c 8DF8BDA2 		strb	r10, [sp, #701]
 585 0390 8DF8BEC2 		strb	ip, [sp, #702]
 586 0394 8DF8BF72 		strb	r7, [sp, #703]
 587 0398 8DF8C0E2 		strb	lr, [sp, #704]
 588 039c 4FF06707 		mov	r7, #103
 589 03a0 8DF8C172 		strb	r7, [sp, #705]
 590 03a4 4FF03F07 		mov	r7, #63
 591 03a8 8DF8C272 		strb	r7, [sp, #706]
 592 03ac 8DF8C462 		strb	r6, [sp, #708]
 593 03b0 8DF8C522 		strb	r2, [sp, #709]
 594 03b4 8DF8C602 		strb	r0, [sp, #710]
 595 03b8 8DF8C852 		strb	r5, [sp, #712]
 596 03bc 0927     		movs	r7, #9
 597 03be 8DF8C972 		strb	r7, [sp, #713]
 598 03c2 8DF8CA12 		strb	r1, [sp, #714]
 599 03c6 8DF8CB32 		strb	r3, [sp, #715]
 600 03ca 8DF8CCC2 		strb	ip, [sp, #716]
 601 03ce 4FF00F09 		mov	r9, #15
 602 03d2 8DF8CD92 		strb	r9, [sp, #717]
 603 03d6 8DF8CEE2 		strb	lr, [sp, #718]
 604 03da 6127     		movs	r7, #97
 605 03dc 8DF8CF72 		strb	r7, [sp, #719]
 606 03e0 8DF8D0B2 		strb	fp, [sp, #720]
 607 03e4 4FF0FF0A 		mov	r10, #255
 608 03e8 8DF8D1A2 		strb	r10, [sp, #721]
 609 03ec 08E0     		b	.L110
 610              	.L111:
ARM GAS  C:\Users\info\AppData\Local\Temp\ccHAj6Mv.s 			page 15


 611 03ee 00BF     		.align	2
 612              	.L109:
 613 03f0 00000000 		.word	isr_tmr_handler
 614 03f4 00000000 		.word	dma_td
 615 03f8 00000000 		.word	dma_chan
 616 03fc 00000000 		.word	newline
 617              	.L110:
 618 0400 8DF8D262 		strb	r6, [sp, #722]
 619 0404 8DF8D322 		strb	r2, [sp, #723]
 620 0408 8DF8D402 		strb	r0, [sp, #724]
 621 040c 8DF8D542 		strb	r4, [sp, #725]
 622 0410 8DF8D652 		strb	r5, [sp, #726]
 623 0414 8DF8D812 		strb	r1, [sp, #728]
 624 0418 8DF8D932 		strb	r3, [sp, #729]
 625 041c 8DF8DAC2 		strb	ip, [sp, #730]
 626 0420 8DF8DB92 		strb	r9, [sp, #731]
 627 0424 8DF8DCE2 		strb	lr, [sp, #732]
 628 0428 6227     		movs	r7, #98
 629 042a 8DF8DD72 		strb	r7, [sp, #733]
 630 042e 8DF8DEB2 		strb	fp, [sp, #734]
 631 0432 8DF8E062 		strb	r6, [sp, #736]
 632 0436 8DF8E122 		strb	r2, [sp, #737]
 633 043a 8DF8E202 		strb	r0, [sp, #738]
 634 043e 8DF8E342 		strb	r4, [sp, #739]
 635 0442 8DF8E452 		strb	r5, [sp, #740]
 636 0446 8DF8E542 		strb	r4, [sp, #741]
 637 044a 8DF8E612 		strb	r1, [sp, #742]
 638 044e 8DF8E732 		strb	r3, [sp, #743]
 639 0452 8DF8E8C2 		strb	ip, [sp, #744]
 640 0456 8DF8E992 		strb	r9, [sp, #745]
 641 045a 8DF8EAE2 		strb	lr, [sp, #746]
 642 045e 8DF8EB02 		strb	r0, [sp, #747]
 643 0462 8DF8ECB2 		strb	fp, [sp, #748]
 644 0466 8DF8EDA2 		strb	r10, [sp, #749]
 645 046a 8DF8EE62 		strb	r6, [sp, #750]
 646 046e 8DF8EF22 		strb	r2, [sp, #751]
 647 0472 8DF8F082 		strb	r8, [sp, #752]
 648 0476 8DF8F202 		strb	r0, [sp, #754]
 649 047a 8DF8F342 		strb	r4, [sp, #755]
 650 047e 8DF8F452 		strb	r5, [sp, #756]
 651 0482 4FF00203 		mov	r3, #2
 652 0486 8DF8F532 		strb	r3, [sp, #757]
 653 048a 8DF8F612 		strb	r1, [sp, #758]
 654 048e 8123     		movs	r3, #129
 655 0490 8DF8F732 		strb	r3, [sp, #759]
 656 0494 8DF8F8E2 		strb	lr, [sp, #760]
 657 0498 0E23     		movs	r3, #14
 658 049a 8DF8F932 		strb	r3, [sp, #761]
 659 049e 4FF03F03 		mov	r3, #63
 660 04a2 8DF8FA32 		strb	r3, [sp, #762]
 661 04a6 8DF8FB42 		strb	r4, [sp, #763]
 662 04aa 8DF8FC62 		strb	r6, [sp, #764]
 663 04ae 8DF8FD22 		strb	r2, [sp, #765]
 664 04b2 8DF8FE02 		strb	r0, [sp, #766]
 665 04b6 8DF8FF42 		strb	r4, [sp, #767]
 666 04ba 8DF80053 		strb	r5, [sp, #768]
 667 04be 4FF00303 		mov	r3, #3
ARM GAS  C:\Users\info\AppData\Local\Temp\ccHAj6Mv.s 			page 16


 668 04c2 8DF80133 		strb	r3, [sp, #769]
 669 04c6 8DF80283 		strb	r8, [sp, #770]
 670 04ca 8DF80343 		strb	r4, [sp, #771]
 671 04ce 8DF80413 		strb	r1, [sp, #772]
 672 04d2 4723     		movs	r3, #71
 673 04d4 8DF80533 		strb	r3, [sp, #773]
 674 04d8 7446     		mov	r4, lr
 675 04da 8DF806E3 		strb	lr, [sp, #774]
 676 04de 4FF00E03 		mov	r3, #14
 677 04e2 8DF80733 		strb	r3, [sp, #775]
 678 04e6 3F21     		movs	r1, #63
 679 04e8 8DF80813 		strb	r1, [sp, #776]
 680 04ec 3246     		mov	r2, r6
 681 04ee 8DF80A63 		strb	r6, [sp, #778]
 682 04f2 1025     		movs	r5, #16
 683 04f4 8DF80B53 		strb	r5, [sp, #779]
 684 04f8 0746     		mov	r7, r0
 685 04fa 8DF80C03 		strb	r0, [sp, #780]
 686 04fe 0120     		movs	r0, #1
 687 0500 8DF80D03 		strb	r0, [sp, #781]
 688 0504 4FF06409 		mov	r9, #100
 689 0508 8DF80E93 		strb	r9, [sp, #782]
 690 050c 0423     		movs	r3, #4
 691 050e 8DF80F33 		strb	r3, [sp, #783]
 692 0512 4646     		mov	r6, r8
 693 0514 8DF81083 		strb	r8, [sp, #784]
 694 0518 4FF06508 		mov	r8, #101
 695 051c 8DF81283 		strb	r8, [sp, #786]
 696 0520 8DF81303 		strb	r0, [sp, #787]
 697 0524 8DF814E3 		strb	lr, [sp, #788]
 698 0528 0623     		movs	r3, #6
 699 052a 8DF81533 		strb	r3, [sp, #789]
 700 052e 8DF81613 		strb	r1, [sp, #790]
 701 0532 8DF81703 		strb	r0, [sp, #791]
 702 0536 8DF81823 		strb	r2, [sp, #792]
 703 053a 8DF81953 		strb	r5, [sp, #793]
 704 053e 8DF81A73 		strb	r7, [sp, #794]
 705 0542 8DF81B03 		strb	r0, [sp, #795]
 706 0546 8DF81C93 		strb	r9, [sp, #796]
 707 054a 4FF0050E 		mov	lr, #5
 708 054e 8DF81DE3 		strb	lr, [sp, #797]
 709 0552 8DF81E63 		strb	r6, [sp, #798]
 710 0556 8DF81F03 		strb	r0, [sp, #799]
 711 055a 8DF82083 		strb	r8, [sp, #800]
 712 055e 4FF00206 		mov	r6, #2
 713 0562 8DF82163 		strb	r6, [sp, #801]
 714 0566 8DF82243 		strb	r4, [sp, #802]
 715 056a 8DF82333 		strb	r3, [sp, #803]
 716 056e 8DF82413 		strb	r1, [sp, #804]
 717 0572 8DF82623 		strb	r2, [sp, #806]
 718 0576 8DF82753 		strb	r5, [sp, #807]
 719 057a 8DF82873 		strb	r7, [sp, #808]
 720 057e 8DF82903 		strb	r0, [sp, #809]
 721 0582 8DF82A93 		strb	r9, [sp, #810]
 722 0586 8DF82B33 		strb	r3, [sp, #811]
 723 058a 6023     		movs	r3, #96
 724 058c 8DF82C33 		strb	r3, [sp, #812]
ARM GAS  C:\Users\info\AppData\Local\Temp\ccHAj6Mv.s 			page 17


 725 0590 4FF0150A 		mov	r10, #21
 726 0594 8DF82DA3 		strb	r10, [sp, #813]
 727 0598 4FF0610E 		mov	lr, #97
 728 059c 8DF82EE3 		strb	lr, [sp, #814]
 729 05a0 4FF07801 		mov	r1, #120
 730 05a4 8DF82F13 		strb	r1, [sp, #815]
 731 05a8 4FF0A30C 		mov	ip, #163
 732 05ac 8DF830C3 		strb	ip, [sp, #816]
 733 05b0 D024     		movs	r4, #208
 734 05b2 8DF83143 		strb	r4, [sp, #817]
 735 05b6 F121     		movs	r1, #241
 736 05b8 8DF83213 		strb	r1, [sp, #818]
 737 05bc 5526     		movs	r6, #85
 738 05be 8DF83363 		strb	r6, [sp, #819]
 739 05c2 8DF83413 		strb	r1, [sp, #820]
 740 05c6 8DF83583 		strb	r8, [sp, #821]
 741 05ca 3026     		movs	r6, #48
 742 05cc 8DF83663 		strb	r6, [sp, #822]
 743 05d0 8DF837A3 		strb	r10, [sp, #823]
 744 05d4 8DF83823 		strb	r2, [sp, #824]
 745 05d8 8DF83953 		strb	r5, [sp, #825]
 746 05dc 3121     		movs	r1, #49
 747 05de 8DF83A13 		strb	r1, [sp, #826]
 748 05e2 4FF07801 		mov	r1, #120
 749 05e6 8DF83B13 		strb	r1, [sp, #827]
 750 05ea 8DF83C23 		strb	r2, [sp, #828]
 751 05ee 8DF83D53 		strb	r5, [sp, #829]
 752 05f2 8DF83E73 		strb	r7, [sp, #830]
 753 05f6 8DF83F03 		strb	r0, [sp, #831]
 754 05fa 8DF84093 		strb	r9, [sp, #832]
 755 05fe 0721     		movs	r1, #7
 756 0600 8DF84113 		strb	r1, [sp, #833]
 757 0604 8DF84233 		strb	r3, [sp, #834]
 758 0608 8A21     		movs	r1, #138
 759 060a 8DF84313 		strb	r1, [sp, #835]
 760 060e 8DF844C3 		strb	ip, [sp, #836]
 761 0612 8DF84543 		strb	r4, [sp, #837]
 762 0616 F021     		movs	r1, #240
 763 0618 8DF84613 		strb	r1, [sp, #838]
 764 061c 4FF03309 		mov	r9, #51
 765 0620 8DF84793 		strb	r9, [sp, #839]
 766 0624 8DF848C3 		strb	ip, [sp, #840]
 767 0628 8DF84943 		strb	r4, [sp, #841]
 768 062c 8DF84A13 		strb	r1, [sp, #842]
 769 0630 8DF84B83 		strb	r8, [sp, #843]
 770 0634 8DF84C63 		strb	r6, [sp, #844]
 771 0638 8DF84D03 		strb	r0, [sp, #845]
 772 063c 8DF84E23 		strb	r2, [sp, #846]
 773 0640 8DF84F53 		strb	r5, [sp, #847]
 774 0644 8DF85033 		strb	r3, [sp, #848]
 775 0648 8DF85103 		strb	r0, [sp, #849]
 776 064c 8DF85213 		strb	r1, [sp, #850]
 777 0650 4FF01E0B 		mov	fp, #30
 778 0654 8DF853B3 		strb	fp, [sp, #851]
 779 0658 8DF85413 		strb	r1, [sp, #852]
 780 065c 8DF85583 		strb	r8, [sp, #853]
 781 0660 8DF85663 		strb	r6, [sp, #854]
ARM GAS  C:\Users\info\AppData\Local\Temp\ccHAj6Mv.s 			page 18


 782 0664 4FF00309 		mov	r9, #3
 783 0668 8DF85793 		strb	r9, [sp, #855]
 784 066c 8DF85823 		strb	r2, [sp, #856]
 785 0670 8DF85953 		strb	r5, [sp, #857]
 786 0674 8DF85A33 		strb	r3, [sp, #858]
 787 0678 8DF85B03 		strb	r0, [sp, #859]
 788 067c 8DF85C13 		strb	r1, [sp, #860]
 789 0680 8DF85DB3 		strb	fp, [sp, #861]
 790 0684 8DF85E13 		strb	r1, [sp, #862]
 791 0688 8DF85F83 		strb	r8, [sp, #863]
 792 068c 8DF86063 		strb	r6, [sp, #864]
 793 0690 4FF00808 		mov	r8, #8
 794 0694 8DF86183 		strb	r8, [sp, #865]
 795 0698 8DF86223 		strb	r2, [sp, #866]
 796 069c 8DF86353 		strb	r5, [sp, #867]
 797 06a0 8DF86423 		strb	r2, [sp, #868]
 798 06a4 3220     		movs	r0, #50
 799 06a6 8DF86503 		strb	r0, [sp, #869]
 800 06aa 8DF86623 		strb	r2, [sp, #870]
 801 06ae 4FF00E00 		mov	r0, #14
 802 06b2 8DF86703 		strb	r0, [sp, #871]
 803 06b6 8DF868C3 		strb	ip, [sp, #872]
 804 06ba 2A20     		movs	r0, #42
 805 06bc 8DF86903 		strb	r0, [sp, #873]
 806 06c0 8DF86A33 		strb	r3, [sp, #874]
 807 06c4 8DF86B23 		strb	r2, [sp, #875]
 808 06c8 8DF86CE3 		strb	lr, [sp, #876]
 809 06cc 0920     		movs	r0, #9
 810 06ce 8DF86D03 		strb	r0, [sp, #877]
 811 06d2 8DF86E43 		strb	r4, [sp, #878]
 812 06d6 4FF01809 		mov	r9, #24
 813 06da 8DF86F93 		strb	r9, [sp, #879]
 814 06de 6FF00C00 		mvn	r0, #12
 815 06e2 8DF87003 		strb	r0, [sp, #880]
 816 06e6 4FF02900 		mov	r0, #41
 817 06ea 8DF87103 		strb	r0, [sp, #881]
 818 06ee 8DF87233 		strb	r3, [sp, #882]
 819 06f2 2225     		movs	r5, #34
 820 06f4 8DF87353 		strb	r5, [sp, #883]
 821 06f8 8DF874E3 		strb	lr, [sp, #884]
 822 06fc 0B25     		movs	r5, #11
 823 06fe 8DF87553 		strb	r5, [sp, #885]
 824 0702 8DF87643 		strb	r4, [sp, #886]
 825 0706 8DF877A3 		strb	r10, [sp, #887]
 826 070a 6FF00B00 		mvn	r0, #11
 827 070e 8DF87803 		strb	r0, [sp, #888]
 828 0712 4FF02900 		mov	r0, #41
 829 0716 8DF87903 		strb	r0, [sp, #889]
 830 071a 8DF87A33 		strb	r3, [sp, #890]
 831 071e 2820     		movs	r0, #40
 832 0720 8DF87B03 		strb	r0, [sp, #891]
 833 0724 8DF87CE3 		strb	lr, [sp, #892]
 834 0728 8DF87D53 		strb	r5, [sp, #893]
 835 072c 8DF87E43 		strb	r4, [sp, #894]
 836 0730 8DF87FA3 		strb	r10, [sp, #895]
 837 0734 8DF88023 		strb	r2, [sp, #896]
 838 0738 4FF00E00 		mov	r0, #14
ARM GAS  C:\Users\info\AppData\Local\Temp\ccHAj6Mv.s 			page 19


 839 073c 8DF88103 		strb	r0, [sp, #897]
 840 0740 FF20     		movs	r0, #255
 841 0742 8DF88203 		strb	r0, [sp, #898]
 842 0746 8DF88313 		strb	r1, [sp, #899]
 843 074a 8DF88413 		strb	r1, [sp, #900]
 844 074e 8DF88503 		strb	r0, [sp, #901]
 845 0752 8DF88613 		strb	r1, [sp, #902]
 846 0756 8DF88713 		strb	r1, [sp, #903]
 847 075a 8DF88813 		strb	r1, [sp, #904]
 848 075e 8DF88903 		strb	r0, [sp, #905]
 849 0762 8DF88AC3 		strb	ip, [sp, #906]
 850 0766 5820     		movs	r0, #88
 851 0768 8DF88B03 		strb	r0, [sp, #907]
 852 076c 8DF88C33 		strb	r3, [sp, #908]
 853 0770 8DF88DA3 		strb	r10, [sp, #909]
 854 0774 8DF88EE3 		strb	lr, [sp, #910]
 855 0778 8DF88F53 		strb	r5, [sp, #911]
 856 077c 8DF89073 		strb	r7, [sp, #912]
 857 0780 8DF89183 		strb	r8, [sp, #913]
 858 0784 8DF89243 		strb	r4, [sp, #914]
 859 0788 8DF89393 		strb	r9, [sp, #915]
 860 078c 7025     		movs	r5, #112
 861 078e 8DF89453 		strb	r5, [sp, #916]
 862 0792 8DF89583 		strb	r8, [sp, #917]
 863 0796 6FF00C00 		mvn	r0, #12
 864 079a 8DF89603 		strb	r0, [sp, #918]
 865 079e 8DF897B3 		strb	fp, [sp, #919]
 866 07a2 8DF89863 		strb	r6, [sp, #920]
 867 07a6 2D20     		movs	r0, #45
 868 07a8 8DF89903 		strb	r0, [sp, #921]
 869 07ac 8DF89A23 		strb	r2, [sp, #922]
 870 07b0 3A20     		movs	r0, #58
 871 07b2 8DF89B03 		strb	r0, [sp, #923]
 872 07b6 8DF89CC3 		strb	ip, [sp, #924]
 873 07ba 8DF89D53 		strb	r5, [sp, #925]
 874 07be 8DF89E33 		strb	r3, [sp, #926]
 875 07c2 4FF00200 		mov	r0, #2
 876 07c6 8DF89F03 		strb	r0, [sp, #927]
 877 07ca 8DF8A0E3 		strb	lr, [sp, #928]
 878 07ce 8DF8A193 		strb	r9, [sp, #929]
 879 07d2 8DF8A273 		strb	r7, [sp, #930]
 880 07d6 8DF8A383 		strb	r8, [sp, #931]
 881 07da 8DF8A443 		strb	r4, [sp, #932]
 882 07de 8DF8A593 		strb	r9, [sp, #933]
 883 07e2 8DF8A653 		strb	r5, [sp, #934]
 884 07e6 4FF00500 		mov	r0, #5
 885 07ea 8DF8A703 		strb	r0, [sp, #935]
 886 07ee 6FF00C00 		mvn	r0, #12
 887 07f2 8DF8A803 		strb	r0, [sp, #936]
 888 07f6 8DF8A9B3 		strb	fp, [sp, #937]
 889 07fa 8DF8AA63 		strb	r6, [sp, #938]
 890 07fe 3E20     		movs	r0, #62
 891 0800 8DF8AB03 		strb	r0, [sp, #939]
 892 0804 8DF8AC23 		strb	r2, [sp, #940]
 893 0808 4C20     		movs	r0, #76
 894 080a 8DF8AD03 		strb	r0, [sp, #941]
 895 080e 8DF8AE23 		strb	r2, [sp, #942]
ARM GAS  C:\Users\info\AppData\Local\Temp\ccHAj6Mv.s 			page 20


 896 0812 4FF00E02 		mov	r2, #14
 897 0816 8DF8AF23 		strb	r2, [sp, #943]
 898 081a 8DF8B013 		strb	r1, [sp, #944]
 899 081e 8822     		movs	r2, #136
 900 0820 8DF8B123 		strb	r2, [sp, #945]
 901 0824 8DF8B223 		strb	r2, [sp, #946]
 902 0828 8DF8B313 		strb	r1, [sp, #947]
 903 082c 8DF8B423 		strb	r2, [sp, #948]
 904 0830 8DF8B523 		strb	r2, [sp, #949]
 905 0834 8DF8B623 		strb	r2, [sp, #950]
 906 0838 8DF8B713 		strb	r1, [sp, #951]
 907 083c 4FF07802 		mov	r2, #120
 908 0840 8DF8B823 		strb	r2, [sp, #952]
 909 0844 8422     		movs	r2, #132
 910 0846 8DF8B923 		strb	r2, [sp, #953]
 911 084a 8DF8BA23 		strb	r2, [sp, #954]
 912 084e 8DF8BB23 		strb	r2, [sp, #955]
 913 0852 8DF8BC23 		strb	r2, [sp, #956]
 914 0856 8DF8BD23 		strb	r2, [sp, #957]
 915 085a 8DF8BE23 		strb	r2, [sp, #958]
 916 085e 4FF07801 		mov	r1, #120
 917 0862 8DF8BF13 		strb	r1, [sp, #959]
 918 0866 8DF8C023 		strb	r2, [sp, #960]
 919 086a C421     		movs	r1, #196
 920 086c 8DF8C113 		strb	r1, [sp, #961]
 921 0870 A421     		movs	r1, #164
 922 0872 8DF8C213 		strb	r1, [sp, #962]
 923 0876 9421     		movs	r1, #148
 924 0878 8DF8C313 		strb	r1, [sp, #963]
 925 087c 8C21     		movs	r1, #140
 926 087e 8DF8C413 		strb	r1, [sp, #964]
 927 0882 8DF8C523 		strb	r2, [sp, #965]
 928 0886 8DF8C623 		strb	r2, [sp, #966]
 929 088a 8DF8C723 		strb	r2, [sp, #967]
 930 088e C020     		movs	r0, #192
 931 0890 8DF8C803 		strb	r0, [sp, #968]
 932 0894 A022     		movs	r2, #160
 933 0896 8DF8C923 		strb	r2, [sp, #969]
 934 089a 8DF8CA23 		strb	r2, [sp, #970]
 935 089e 8DF8CB03 		strb	r0, [sp, #971]
 936 08a2 8DF8CC23 		strb	r2, [sp, #972]
 937 08a6 8DF8CD23 		strb	r2, [sp, #973]
 938 08aa 8DF8CE03 		strb	r0, [sp, #974]
 939 08ae 8DF8D223 		strb	r2, [sp, #978]
 940 08b2 8DF8D323 		strb	r2, [sp, #979]
 941 08b6 E025     		movs	r5, #224
 942 08b8 8DF8D453 		strb	r5, [sp, #980]
 943 08bc 2024     		movs	r4, #32
 944 08be 8DF8D543 		strb	r4, [sp, #981]
 945 08c2 8DF8D643 		strb	r4, [sp, #982]
 946 08c6 8DF8D753 		strb	r5, [sp, #983]
 947 08ca 8DF8E003 		strb	r0, [sp, #992]
 948 08ce 8DF8E123 		strb	r2, [sp, #993]
 949 08d2 8DF8E223 		strb	r2, [sp, #994]
 950 08d6 8DF8E303 		strb	r0, [sp, #995]
 951 08da 8DF8E423 		strb	r2, [sp, #996]
 952 08de 8DF8E523 		strb	r2, [sp, #997]
ARM GAS  C:\Users\info\AppData\Local\Temp\ccHAj6Mv.s 			page 21


 953 08e2 8DF8E603 		strb	r0, [sp, #998]
 954 08e6 8DF8EA33 		strb	r3, [sp, #1002]
 955 08ea 8DF8EB23 		strb	r2, [sp, #1003]
 956 08ee 8DF8EC03 		strb	r0, [sp, #1004]
 957 08f2 8021     		movs	r1, #128
 958 08f4 8DF8ED13 		strb	r1, [sp, #1005]
 959 08f8 8DF8EE33 		strb	r3, [sp, #1006]
 960 08fc 8DF8F233 		strb	r3, [sp, #1010]
 961 0900 8DF8F313 		strb	r1, [sp, #1011]
 962 0904 4026     		movs	r6, #64
 963 0906 8DF8F463 		strb	r6, [sp, #1012]
 964 090a 8DF8F543 		strb	r4, [sp, #1013]
 965 090e 8DF8F603 		strb	r0, [sp, #1014]
 966 0912 8DF8F813 		strb	r1, [sp, #1016]
 967 0916 8DF8F913 		strb	r1, [sp, #1017]
 968 091a 8DF8FA03 		strb	r0, [sp, #1018]
 969 091e 8DF8FB13 		strb	r1, [sp, #1019]
 970 0922 8DF8FC13 		strb	r1, [sp, #1020]
 971 0926 8DF8FD13 		strb	r1, [sp, #1021]
 972 092a 8DF8FE33 		strb	r3, [sp, #1022]
 973 092e 8DF80054 		strb	r5, [sp, #1024]
 974 0932 8DF80114 		strb	r1, [sp, #1025]
 975 0936 8DF80214 		strb	r1, [sp, #1026]
 976 093a 8DF80314 		strb	r1, [sp, #1027]
 977 093e 8DF80414 		strb	r1, [sp, #1028]
 978 0942 8DF80514 		strb	r1, [sp, #1029]
 979 0946 8DF80654 		strb	r5, [sp, #1030]
 980 094a 8DF80A64 		strb	r6, [sp, #1034]
 981 094e 8DF80B24 		strb	r2, [sp, #1035]
 982 0952 8DF80C24 		strb	r2, [sp, #1036]
 983 0956 8DF80D24 		strb	r2, [sp, #1037]
 984 095a 8DF80E64 		strb	r6, [sp, #1038]
 985 095e 8DF81044 		strb	r4, [sp, #1040]
 986 0962 8DF81144 		strb	r4, [sp, #1041]
 987 0966 8DF81244 		strb	r4, [sp, #1042]
 988 096a 8DF81334 		strb	r3, [sp, #1043]
 989 096e 8DF81424 		strb	r2, [sp, #1044]
 990 0972 8DF81524 		strb	r2, [sp, #1045]
 991 0976 8DF81634 		strb	r3, [sp, #1046]
 992 097a 8DF81A34 		strb	r3, [sp, #1050]
 993 097e 8DF81B24 		strb	r2, [sp, #1051]
 994 0982 8DF81C04 		strb	r0, [sp, #1052]
 995 0986 8DF81D14 		strb	r1, [sp, #1053]
 996 098a 6023     		movs	r3, #96
 997 098c 8DF81E34 		strb	r3, [sp, #1054]
 998 0990 8DF82334 		strb	r3, [sp, #1059]
 999 0994 8DF82464 		strb	r6, [sp, #1060]
 1000 0998 8DF82564 		strb	r6, [sp, #1061]
 1001 099c 5023     		movs	r3, #80
 1002 099e 8DF82634 		strb	r3, [sp, #1062]
 1003              	.LVL36:
 180:main.c        ****     
 181:main.c        ****     /* CHIP8 Register File*/
 182:main.c        ****     uint8_t v[16];
 183:main.c        ****     uint16_t i = 0;
 184:main.c        ****     uint16_t pc = 0x0200;
 185:main.c        ****     uint8_t sp = 0x00;
ARM GAS  C:\Users\info\AppData\Local\Temp\ccHAj6Mv.s 			page 22


 186:main.c        ****     uint16_t stack[16] = {0};
 1004              		.loc 1 186 0
 1005 09a2 2246     		mov	r2, r4
 1006 09a4 0021     		movs	r1, #0
 1007 09a6 0AA8     		add	r0, sp, #40
 1008 09a8 FFF7FEFF 		bl	memset
 1009              	.LVL37:
 1010              	.LBB8:
 187:main.c        ****     
 188:main.c        ****     /* Clear screen */
 189:main.c        ****     for (uint8_t j = 0; j < 32; j++){
 1011              		.loc 1 189 0
 1012 09ac 0023     		movs	r3, #0
 1013 09ae 08E0     		b	.L28
 1014              	.LVL38:
 1015              	.L29:
 190:main.c        ****         vram[j] = 0;
 1016              		.loc 1 190 0 discriminator 3
 1017 09b0 AB4A     		ldr	r2, .L112
 1018 09b2 02EBC302 		add	r2, r2, r3, lsl #3
 1019 09b6 0020     		movs	r0, #0
 1020 09b8 0021     		movs	r1, #0
 1021 09ba C2E90001 		strd	r0, [r2]
 189:main.c        ****         vram[j] = 0;
 1022              		.loc 1 189 0 discriminator 3
 1023 09be 0133     		adds	r3, r3, #1
 1024              	.LVL39:
 1025 09c0 DBB2     		uxtb	r3, r3
 1026              	.LVL40:
 1027              	.L28:
 189:main.c        ****         vram[j] = 0;
 1028              		.loc 1 189 0 is_stmt 0 discriminator 1
 1029 09c2 1F2B     		cmp	r3, #31
 1030 09c4 F4D9     		bls	.L29
 1031              	.LBE8:
 191:main.c        ****     }
 192:main.c        ****     
 193:main.c        ****     /* Initialize Random Generator */
 194:main.c        ****     random_Enable();
 1032              		.loc 1 194 0 is_stmt 1
 1033 09c6 FFF7FEFF 		bl	random_Enable
 1034              	.LVL41:
 195:main.c        ****     random_Init();
 1035              		.loc 1 195 0
 1036 09ca FFF7FEFF 		bl	random_Init
 1037              	.LVL42:
 196:main.c        ****     random_Start();
 1038              		.loc 1 196 0
 1039 09ce FFF7FEFF 		bl	random_Start
 1040              	.LVL43:
 185:main.c        ****     uint16_t stack[16] = {0};
 1041              		.loc 1 185 0
 1042 09d2 4FF00008 		mov	r8, #0
 184:main.c        ****     uint8_t sp = 0x00;
 1043              		.loc 1 184 0
 1044 09d6 4FF4007A 		mov	r10, #512
 183:main.c        ****     uint16_t pc = 0x0200;
ARM GAS  C:\Users\info\AppData\Local\Temp\ccHAj6Mv.s 			page 23


 1045              		.loc 1 183 0
 1046 09da C346     		mov	fp, r8
 1047              	.LVL44:
 1048              	.L30:
 1049              	.LBB9:
 197:main.c        ****     
 198:main.c        ****     /* Emulate away.. */
 199:main.c        ****     while(1){
 200:main.c        ****         /* Get the instruction at the current address */
 201:main.c        ****         uint16_t instr = (ram[pc] << 8) | ram[pc+1];
 1050              		.loc 1 201 0
 1051 09dc 16AB     		add	r3, sp, #88
 1052 09de 13F80A60 		ldrb	r6, [r3, r10]	@ zero_extendqisi2
 1053 09e2 0AF10102 		add	r2, r10, #1
 1054 09e6 9B5C     		ldrb	r3, [r3, r2]	@ zero_extendqisi2
 1055 09e8 43EA0626 		orr	r6, r3, r6, lsl #8
 1056 09ec 36B2     		sxth	r6, r6
 1057 09ee B5B2     		uxth	r5, r6
 1058              	.LVL45:
 202:main.c        ****         
 203:main.c        ****         /* Decode the opcodes */
 204:main.c        ****         uint8_t op3 = (instr & 0xf000) >> 12;
 1059              		.loc 1 204 0
 1060 09f0 2A0B     		lsrs	r2, r5, #12
 1061              	.LVL46:
 205:main.c        ****         uint8_t op2 = (instr & 0x0f00) >> 8;
 1062              		.loc 1 205 0
 1063 09f2 C5F30324 		ubfx	r4, r5, #8, #4
 1064              	.LVL47:
 206:main.c        ****         uint8_t op10 = instr & 0x00ff;
 1065              		.loc 1 206 0
 1066 09f6 F6B2     		uxtb	r6, r6
 1067              	.LVL48:
 207:main.c        ****         uint8_t op0 = instr & 0x000f;
 1068              		.loc 1 207 0
 1069 09f8 06F00F07 		and	r7, r6, #15
 1070              	.LVL49:
 208:main.c        ****         
 209:main.c        ****         /* Decode the immediates */
 210:main.c        ****         uint16_t nnn = instr & 0x0fff;
 1071              		.loc 1 210 0
 1072 09fc C5F30B03 		ubfx	r3, r5, #0, #12
 1073              	.LVL50:
 211:main.c        ****         uint8_t x = (instr & 0x0f00) >> 8;
 212:main.c        ****         uint8_t y = (instr & 0x00f0) >> 4;
 1074              		.loc 1 212 0
 1075 0a00 C5F30315 		ubfx	r5, r5, #4, #4
 1076              	.LVL51:
 213:main.c        ****         uint8_t kk = instr & 0x00ff;
 214:main.c        ****         uint8_t n = instr & 0x000f;
 215:main.c        ****         
 216:main.c        ****         /* This flag is set if an invalid OP is encountered */
 217:main.c        ****         uint8_t invalid_op = 0;
 218:main.c        ****         
 219:main.c        ****         /* This flag is set if a new PC was set and must not be incremented */
 220:main.c        ****         uint8_t freeze_pc = 0;
 221:main.c        ****         
ARM GAS  C:\Users\info\AppData\Local\Temp\ccHAj6Mv.s 			page 24


 222:main.c        ****         /* Branch on opcodes and execute */
 223:main.c        ****         switch(op3){
 1077              		.loc 1 223 0
 1078 0a04 0F2A     		cmp	r2, #15
 1079 0a06 11D8     		bhi	.L31
 1080 0a08 DFE812F0 		tbh	[pc, r2, lsl #1]
 1081              	.L33:
 1082 0a0c 1300     		.2byte	(.L32-.L33)/2
 1083 0a0e 4402     		.2byte	(.L86-.L33)/2
 1084 0a10 3D00     		.2byte	(.L35-.L33)/2
 1085 0a12 4C00     		.2byte	(.L36-.L33)/2
 1086 0a14 5800     		.2byte	(.L37-.L33)/2
 1087 0a16 6400     		.2byte	(.L38-.L33)/2
 1088 0a18 8400     		.2byte	(.L39-.L33)/2
 1089 0a1a 8900     		.2byte	(.L40-.L33)/2
 1090 0a1c 9000     		.2byte	(.L41-.L33)/2
 1091 0a1e 7400     		.2byte	(.L42-.L33)/2
 1092 0a20 0101     		.2byte	(.L43-.L33)/2
 1093 0a22 3700     		.2byte	(.L44-.L33)/2
 1094 0a24 0501     		.2byte	(.L45-.L33)/2
 1095 0a26 7801     		.2byte	(.L87-.L33)/2
 1096 0a28 9201     		.2byte	(.L47-.L33)/2
 1097 0a2a B801     		.2byte	(.L48-.L33)/2
 1098              		.p2align 1
 1099              	.L31:
 220:main.c        ****         
 1100              		.loc 1 220 0
 1101 0a2c 0023     		movs	r3, #0
 1102              	.LVL52:
 224:main.c        ****         case OP3_SYSTEM:
 225:main.c        ****             /* System operations */
 226:main.c        ****             if (op2 != OP2_SYSTEM){
 227:main.c        ****                 invalid_op = 1;
 228:main.c        ****             } else {
 229:main.c        ****                 switch(op10){
 230:main.c        ****                 case OP10_SYSTEM_CLEAR:
 231:main.c        ****                     /* Clear screen */
 232:main.c        ****                     for (int j = 0; j < 32; j++){
 233:main.c        ****                         vram[j] = 0;
 234:main.c        ****                     }
 235:main.c        ****                     break;
 236:main.c        ****                 case OP10_SYSTEM_RETURN:
 237:main.c        ****                     /* Return from instruction */
 238:main.c        ****                     sp = (sp == 0x0) ? 0x0 : sp - 1;
 239:main.c        ****                     pc = stack[sp];
 240:main.c        ****                     freeze_pc = 1;
 241:main.c        ****                     break;
 242:main.c        ****                 default:
 243:main.c        ****                     invalid_op = 1;
 244:main.c        ****                     break;
 245:main.c        ****                 }
 246:main.c        ****             }
 247:main.c        ****             break;
 248:main.c        ****         case OP3_JUMP_ABSOLUTE:
 249:main.c        ****             /* Jump to absolute address nnn */
 250:main.c        ****             pc = nnn;
 251:main.c        ****             freeze_pc = 1;
ARM GAS  C:\Users\info\AppData\Local\Temp\ccHAj6Mv.s 			page 25


 252:main.c        ****             break;
 253:main.c        ****         case OP3_JUMP_OFFSET:
 254:main.c        ****             /* Jump to absolute address nnn + offset V0 */
 255:main.c        ****             pc = nnn + v[0];
 256:main.c        ****             freeze_pc = 1;
 257:main.c        ****             break;
 258:main.c        ****         case OP3_CALL_SUBROUTINE:
 259:main.c        ****             /* Call subroutine at nnn */
 260:main.c        ****             stack[sp] = pc;
 261:main.c        ****             sp = (sp == 0xf) ? 0xf : sp + 1;
 262:main.c        ****             pc = nnn;
 263:main.c        ****             freeze_pc = 1;
 264:main.c        ****             break;
 265:main.c        ****         case OP3_SKIP_NEXT_EQ_IM:
 266:main.c        ****             /* Skip next instruction if Vx == kk */
 267:main.c        ****             if (v[x] == kk) {
 268:main.c        ****                 pc += 2;
 269:main.c        ****             }
 270:main.c        ****             break;
 271:main.c        ****         case OP3_SKIP_NEXT_NEQ_IM:
 272:main.c        ****             /* Skip next instruction if Vx != kk */
 273:main.c        ****             if (v[x] != kk) {
 274:main.c        ****                 pc += 2;
 275:main.c        ****             }
 276:main.c        ****             break;
 277:main.c        ****         case OP3_SKIP_NEXT_EQ:
 278:main.c        ****             /* Skip next instruction if Vx == Vy */
 279:main.c        ****             if (op0 == OP0_SKIP_NEXT){
 280:main.c        ****                 if (v[x] == v[y]) {
 281:main.c        ****                     pc += 2;
 282:main.c        ****                 }
 283:main.c        ****             } else {
 284:main.c        ****                 invalid_op = 1;
 285:main.c        ****             }
 286:main.c        ****             break;
 287:main.c        ****         case OP3_SKIP_NEXT_NEQ:
 288:main.c        ****             /* Skip next instruction if Vx != Vy */
 289:main.c        ****             if (op0 == OP0_SKIP_NEXT){
 290:main.c        ****                 if (v[x] != v[y]) {
 291:main.c        ****                     pc += 2;
 292:main.c        ****                 }
 293:main.c        ****             } else {
 294:main.c        ****                 invalid_op = 1;
 295:main.c        ****             }
 296:main.c        ****             break;
 297:main.c        ****         case OP3_LOAD_V:
 298:main.c        ****             /* Vx = kk */
 299:main.c        ****             v[x] = kk;
 300:main.c        ****             break;
 301:main.c        ****         case OP3_ADD_IM:
 302:main.c        ****             /* Vx += kk */
 303:main.c        ****             v[x] += kk;
 304:main.c        ****             break;
 305:main.c        ****         case OP3_ARITH:
 306:main.c        ****             /* Arithmetic operations */
 307:main.c        ****             switch(op0) {
 308:main.c        ****             case OP0_ARITH_LOAD:
ARM GAS  C:\Users\info\AppData\Local\Temp\ccHAj6Mv.s 			page 26


 309:main.c        ****                 /* Vx = Vy */
 310:main.c        ****                 v[x] = v[y];
 311:main.c        ****                 break;
 312:main.c        ****             case OP0_ARITH_OR:
 313:main.c        ****                 /* Vx = Vx | Vy */
 314:main.c        ****                 v[x] |= v[y];
 315:main.c        ****                 break;
 316:main.c        ****             case OP0_ARITH_AND:
 317:main.c        ****                 /* Vx = Vx & Vy */
 318:main.c        ****                 v[x] &= v[y];
 319:main.c        ****                 break;
 320:main.c        ****             case OP0_ARITH_XOR:
 321:main.c        ****                 /* Vx = Vx ^ Vy */
 322:main.c        ****                 v[x] ^= v[y];
 323:main.c        ****                 break;
 324:main.c        ****             case OP0_ARITH_ADD:
 325:main.c        ****                 /* Vx = Vx + Vy */
 326:main.c        ****                 v[x] += v[y];
 327:main.c        ****                 break;
 328:main.c        ****             case OP0_ARITH_SUB:{
 329:main.c        ****                 /* Vx = Vx - Vy, Vf = not borrow */
 330:main.c        ****                 uint16_t vx = v[x];
 331:main.c        ****                 uint16_t vy = v[y];
 332:main.c        ****                 uint16_t diff = vx - vy;                                
 333:main.c        ****                 v[x] = diff;
 334:main.c        ****                 v[0xf] = (diff & 0x100) ? 0 : 1;
 335:main.c        ****                 break;
 336:main.c        ****             }
 337:main.c        ****             case OP0_ARITH_SHR:
 338:main.c        ****                 /* Vx = Vx >> Vy */
 339:main.c        ****                 v[0xf] = (v[x] & 0x01) ? 1 : 0;
 340:main.c        ****                 v[x] >>= 1;
 341:main.c        ****                 break;
 342:main.c        ****             case OP0_ARITH_SUBN:{
 343:main.c        ****                 /* Vx = Vy - Vx, Vf = not borrow */
 344:main.c        ****                 uint16_t vx = v[x];
 345:main.c        ****                 uint16_t vy = v[y];
 346:main.c        ****                 uint16_t diff = vy - vx;                                
 347:main.c        ****                 v[x] = diff;
 348:main.c        ****                 v[0xf] = (diff & 0x100) ? 0 : 1;
 349:main.c        ****                 break;
 350:main.c        ****             }
 351:main.c        ****             case OP0_ARITH_SHL:
 352:main.c        ****                 /* Vx = Vx << 1, Vf = carry */
 353:main.c        ****                 v[0xf] = (v[x] & 0x80) ? 1 : 0;
 354:main.c        ****                 v[x] <<= 1;
 355:main.c        ****                 break;
 356:main.c        ****             default:
 357:main.c        ****                 invalid_op = 1;
 358:main.c        ****                 break;
 359:main.c        ****             }
 360:main.c        ****             break;
 361:main.c        ****         case OP3_LOAD_I:
 362:main.c        ****             /* I = nnn */
 363:main.c        ****             i = nnn;
 364:main.c        ****             break;
 365:main.c        ****         case OP3_RANDOM:
ARM GAS  C:\Users\info\AppData\Local\Temp\ccHAj6Mv.s 			page 27


 366:main.c        ****             /* Vx = (random byte) & kk */            
 367:main.c        ****             v[x] = random_Read() & kk;
 368:main.c        ****             break;
 369:main.c        ****         case OP3_DRAW:{
 370:main.c        ****             uint64_t collision = 0;
 371:main.c        ****             /* Draw sprite from I at (Vx, Vy), vf = collision, see reference */
 372:main.c        ****             for (int j = 0; j < n; j++){
 373:main.c        ****                 uint64_t row = 0;
 374:main.c        ****                 if (v[x] <= 56){
 375:main.c        ****                     row = ((uint64_t)ram[i + j]) << (56 - v[x]);
 376:main.c        ****                 } else {
 377:main.c        ****                     row = ((uint64_t)ram[i + j]) >> (v[x] - 56)
 378:main.c        ****                         | ((uint64_t)ram[i + j]) << (120 - v[x]);
 379:main.c        ****                 }
 380:main.c        ****                 collision |= vram[(v[y] + j) % 32] & row;
 381:main.c        ****                 vram[(v[y] + j) % 32] ^= row;
 382:main.c        ****             }
 383:main.c        ****             v[0xf] = collision ? 1 : 0;
 384:main.c        ****             break;
 385:main.c        ****         }
 386:main.c        ****         case OP3_KEYBOARD:
 387:main.c        ****             /* Keyboard operations */
 388:main.c        ****             switch(op10){
 389:main.c        ****             case OP10_KEYBOARD_EQ:
 390:main.c        ****                 /* Skip next instruction if Vx pressed */
 391:main.c        ****                 if (keys[v[x] & 0xf] == 1){
 392:main.c        ****                     pc += 2;
 393:main.c        ****                 }
 394:main.c        ****                 break;
 395:main.c        ****             case OP10_KEYBOARD_NEQ: 
 396:main.c        ****                 /* Skip next instruction if Vx not pressed */
 397:main.c        ****                 if (keys[v[x] & 0xf] == 0){
 398:main.c        ****                     pc += 2;
 399:main.c        ****                 }
 400:main.c        ****                 break;
 401:main.c        ****             default:
 402:main.c        ****                 invalid_op = 1;
 403:main.c        ****                 break;
 404:main.c        ****             }
 405:main.c        ****             break;
 406:main.c        ****         case OP3_SPECIAL:
 407:main.c        ****             /* Special instructions, see reference for each */
 408:main.c        ****             switch(op10){
 409:main.c        ****             case OP10_SPECIAL_LOAD_DELAY:
 410:main.c        ****                 /* Vx = delay timer */
 411:main.c        ****                 v[x] = tmr;
 412:main.c        ****                 break;
 413:main.c        ****             case OP10_SPECIAL_LOAD_KEYBOARD:
 414:main.c        ****                 /* Vx = keypress, blocks till something pressed */
 415:main.c        ****                 while (!keyflag);
 416:main.c        ****                 v[x] = lastkey;
 417:main.c        ****                 keyflag = 0;
 418:main.c        ****                 break;
 419:main.c        ****             case OP10_SPECIAL_SET_DELAY:
 420:main.c        ****                 /* delay timer = Vx */
 421:main.c        ****                 tmr = v[x];
 422:main.c        ****                 break;
ARM GAS  C:\Users\info\AppData\Local\Temp\ccHAj6Mv.s 			page 28


 423:main.c        ****             case OP10_SPECIAL_SET_SOUND:
 424:main.c        ****                 /* sound timer = Vx */
 425:main.c        ****                 snd = v[x];
 426:main.c        ****                 break;
 427:main.c        ****             case OP10_SPECIAL_ADD_TO_I:
 428:main.c        ****                 /* I += Vx */
 429:main.c        ****                 i += v[x];
 430:main.c        ****                 break;
 431:main.c        ****             case OP10_SPECIAL_LOAD_FONT:
 432:main.c        ****                 /* I = location of sprite for hex digit Vx */
 433:main.c        ****                 i = (v[x] & 0xf) * 5;
 434:main.c        ****                 break;
 435:main.c        ****             case OP10_SPECIAL_LOAD_BCD:
 436:main.c        ****                 /* BCD hundreds to units of Vx in I to I+2 */
 437:main.c        ****                 ram[i] = (uint8_t)(v[x] / 100) % 10;
 438:main.c        ****                 ram[i+1] = (uint8_t)(v[x] / 10) % 10;
 439:main.c        ****                 ram[i+2] = (uint8_t)(v[x]) % 10;
 440:main.c        ****                 break;
 441:main.c        ****             case OP10_SPECIAL_LOAD_AT_I:
 442:main.c        ****                 /* Store V0 to Vx in I to I+x */
 443:main.c        ****                 for (uint8_t j = 0; j <= x; j++){
 444:main.c        ****                     ram[i + j] = v[j];
 445:main.c        ****                 }
 446:main.c        ****                 break;
 447:main.c        ****             case OP10_SPECIAL_SET_AT_I:
 448:main.c        ****                 /* Restore V0 to Vx from I to I+x */
 449:main.c        ****                 for (uint8_t j = 0; j <= x; j++){
 450:main.c        ****                     v[j] = ram[i + j];
 451:main.c        ****                 }
 452:main.c        ****                 break;
 453:main.c        ****             default:
 454:main.c        ****                 invalid_op = 1;
 455:main.c        ****                 break;
 456:main.c        ****             }
 457:main.c        ****             break;
 458:main.c        ****         default:
 459:main.c        ****             invalid_op = 1;
 1103              		.loc 1 459 0
 1104 0a2e 0122     		movs	r2, #1
 1105              	.LVL53:
 1106 0a30 5EE2     		b	.L34
 1107              	.LVL54:
 1108              	.L32:
 226:main.c        ****                 invalid_op = 1;
 1109              		.loc 1 226 0
 1110 0a32 002C     		cmp	r4, #0
 1111 0a34 40F03282 		bne	.L88
 229:main.c        ****                 case OP10_SYSTEM_CLEAR:
 1112              		.loc 1 229 0
 1113 0a38 E02E     		cmp	r6, #224
 1114 0a3a 0BD0     		beq	.L90
 1115 0a3c EE2E     		cmp	r6, #238
 1116 0a3e 0FD0     		beq	.L50
 1117 0a40 2FE2     		b	.L105
 1118              	.LVL55:
 1119              	.L51:
 1120              	.LBB10:
ARM GAS  C:\Users\info\AppData\Local\Temp\ccHAj6Mv.s 			page 29


 233:main.c        ****                     }
 1121              		.loc 1 233 0 discriminator 3
 1122 0a42 874A     		ldr	r2, .L112
 1123 0a44 02EBC302 		add	r2, r2, r3, lsl #3
 1124 0a48 0020     		movs	r0, #0
 1125 0a4a 0021     		movs	r1, #0
 1126 0a4c C2E90001 		strd	r0, [r2]
 232:main.c        ****                         vram[j] = 0;
 1127              		.loc 1 232 0 discriminator 3
 1128 0a50 0133     		adds	r3, r3, #1
 1129              	.LVL56:
 1130 0a52 00E0     		b	.L49
 1131              	.LVL57:
 1132              	.L90:
 1133              	.LBE10:
 229:main.c        ****                 case OP10_SYSTEM_CLEAR:
 1134              		.loc 1 229 0
 1135 0a54 0023     		movs	r3, #0
 1136              	.LVL58:
 1137              	.L49:
 1138              	.LBB11:
 232:main.c        ****                         vram[j] = 0;
 1139              		.loc 1 232 0 discriminator 1
 1140 0a56 1F2B     		cmp	r3, #31
 1141 0a58 F3DD     		ble	.L51
 1142              	.LBE11:
 220:main.c        ****         
 1143              		.loc 1 220 0
 1144 0a5a 0023     		movs	r3, #0
 1145              	.LVL59:
 217:main.c        ****         
 1146              		.loc 1 217 0
 1147 0a5c 1A46     		mov	r2, r3
 1148 0a5e 47E2     		b	.L34
 1149              	.LVL60:
 1150              	.L50:
 238:main.c        ****                     pc = stack[sp];
 1151              		.loc 1 238 0
 1152 0a60 B8F1000F 		cmp	r8, #0
 1153 0a64 03D0     		beq	.L52
 238:main.c        ****                     pc = stack[sp];
 1154              		.loc 1 238 0 is_stmt 0 discriminator 1
 1155 0a66 08F1FF38 		add	r8, r8, #-1
 1156              	.LVL61:
 1157 0a6a 5FFA88F8 		uxtb	r8, r8
 1158              	.L52:
 1159              	.LVL62:
 239:main.c        ****                     freeze_pc = 1;
 1160              		.loc 1 239 0 is_stmt 1 discriminator 4
 1161 0a6e 0AAB     		add	r3, sp, #40
 1162              	.LVL63:
 1163 0a70 33F818A0 		ldrh	r10, [r3, r8, lsl #1]
 1164              	.LVL64:
 240:main.c        ****                     break;
 1165              		.loc 1 240 0 discriminator 4
 1166 0a74 0123     		movs	r3, #1
 217:main.c        ****         
ARM GAS  C:\Users\info\AppData\Local\Temp\ccHAj6Mv.s 			page 30


 1167              		.loc 1 217 0 discriminator 4
 1168 0a76 0022     		movs	r2, #0
 1169              	.LVL65:
 241:main.c        ****                 default:
 1170              		.loc 1 241 0 discriminator 4
 1171 0a78 3AE2     		b	.L34
 1172              	.LVL66:
 1173              	.L44:
 255:main.c        ****             freeze_pc = 1;
 1174              		.loc 1 255 0
 1175 0a7a 9DF848A0 		ldrb	r10, [sp, #72]	@ zero_extendqisi2
 1176              	.LVL67:
 1177 0a7e 9A44     		add	r10, r10, r3
 1178              	.LVL68:
 256:main.c        ****             break;
 1179              		.loc 1 256 0
 1180 0a80 0123     		movs	r3, #1
 1181              	.LVL69:
 217:main.c        ****         
 1182              		.loc 1 217 0
 1183 0a82 0022     		movs	r2, #0
 1184              	.LVL70:
 257:main.c        ****         case OP3_CALL_SUBROUTINE:
 1185              		.loc 1 257 0
 1186 0a84 34E2     		b	.L34
 1187              	.LVL71:
 1188              	.L35:
 260:main.c        ****             sp = (sp == 0xf) ? 0xf : sp + 1;
 1189              		.loc 1 260 0
 1190 0a86 0AAA     		add	r2, sp, #40
 1191              	.LVL72:
 1192 0a88 22F818A0 		strh	r10, [r2, r8, lsl #1]	@ movhi
 261:main.c        ****             pc = nnn;
 1193              		.loc 1 261 0
 1194 0a8c B8F10F0F 		cmp	r8, #15
 1195 0a90 00F00A82 		beq	.L91
 261:main.c        ****             pc = nnn;
 1196              		.loc 1 261 0 is_stmt 0 discriminator 1
 1197 0a94 08F10108 		add	r8, r8, #1
 1198              	.LVL73:
 1199 0a98 5FFA88F8 		uxtb	r8, r8
 262:main.c        ****             freeze_pc = 1;
 1200              		.loc 1 262 0 is_stmt 1 discriminator 1
 1201 0a9c 9A46     		mov	r10, r3
 1202              	.LVL74:
 263:main.c        ****             break;
 1203              		.loc 1 263 0 discriminator 1
 1204 0a9e 0123     		movs	r3, #1
 1205              	.LVL75:
 217:main.c        ****         
 1206              		.loc 1 217 0 discriminator 1
 1207 0aa0 0022     		movs	r2, #0
 1208 0aa2 25E2     		b	.L34
 1209              	.LVL76:
 1210              	.L36:
 267:main.c        ****                 pc += 2;
 1211              		.loc 1 267 0
ARM GAS  C:\Users\info\AppData\Local\Temp\ccHAj6Mv.s 			page 31


 1212 0aa4 12AB     		add	r3, sp, #72
 1213              	.LVL77:
 1214 0aa6 1B5D     		ldrb	r3, [r3, r4]	@ zero_extendqisi2
 1215 0aa8 9E42     		cmp	r6, r3
 1216 0aaa 40F00182 		bne	.L92
 268:main.c        ****             }
 1217              		.loc 1 268 0
 1218 0aae 0AF1020A 		add	r10, r10, #2
 1219              	.LVL78:
 1220 0ab2 1FFA8AFA 		uxth	r10, r10
 1221              	.LVL79:
 220:main.c        ****         
 1222              		.loc 1 220 0
 1223 0ab6 0023     		movs	r3, #0
 217:main.c        ****         
 1224              		.loc 1 217 0
 1225 0ab8 1A46     		mov	r2, r3
 1226              	.LVL80:
 1227 0aba 19E2     		b	.L34
 1228              	.LVL81:
 1229              	.L37:
 273:main.c        ****                 pc += 2;
 1230              		.loc 1 273 0
 1231 0abc 12AB     		add	r3, sp, #72
 1232              	.LVL82:
 1233 0abe 1B5D     		ldrb	r3, [r3, r4]	@ zero_extendqisi2
 1234 0ac0 9E42     		cmp	r6, r3
 1235 0ac2 00F0F881 		beq	.L93
 274:main.c        ****             }
 1236              		.loc 1 274 0
 1237 0ac6 0AF1020A 		add	r10, r10, #2
 1238              	.LVL83:
 1239 0aca 1FFA8AFA 		uxth	r10, r10
 1240              	.LVL84:
 220:main.c        ****         
 1241              		.loc 1 220 0
 1242 0ace 0023     		movs	r3, #0
 217:main.c        ****         
 1243              		.loc 1 217 0
 1244 0ad0 1A46     		mov	r2, r3
 1245              	.LVL85:
 1246 0ad2 0DE2     		b	.L34
 1247              	.LVL86:
 1248              	.L38:
 279:main.c        ****                 if (v[x] == v[y]) {
 1249              		.loc 1 279 0
 1250 0ad4 002F     		cmp	r7, #0
 1251 0ad6 40F0F181 		bne	.L94
 280:main.c        ****                     pc += 2;
 1252              		.loc 1 280 0
 1253 0ada 12AB     		add	r3, sp, #72
 1254              	.LVL87:
 1255 0adc 1A5D     		ldrb	r2, [r3, r4]	@ zero_extendqisi2
 1256              	.LVL88:
 1257 0ade 5B5D     		ldrb	r3, [r3, r5]	@ zero_extendqisi2
 1258 0ae0 9A42     		cmp	r2, r3
 1259 0ae2 40F0EE81 		bne	.L95
ARM GAS  C:\Users\info\AppData\Local\Temp\ccHAj6Mv.s 			page 32


 281:main.c        ****                 }
 1260              		.loc 1 281 0
 1261 0ae6 0AF1020A 		add	r10, r10, #2
 1262              	.LVL89:
 1263 0aea 1FFA8AFA 		uxth	r10, r10
 1264              	.LVL90:
 220:main.c        ****         
 1265              		.loc 1 220 0
 1266 0aee 0023     		movs	r3, #0
 217:main.c        ****         
 1267              		.loc 1 217 0
 1268 0af0 1A46     		mov	r2, r3
 1269 0af2 FDE1     		b	.L34
 1270              	.LVL91:
 1271              	.L42:
 289:main.c        ****                 if (v[x] != v[y]) {
 1272              		.loc 1 289 0
 1273 0af4 002F     		cmp	r7, #0
 1274 0af6 40F0E781 		bne	.L96
 290:main.c        ****                     pc += 2;
 1275              		.loc 1 290 0
 1276 0afa 12AB     		add	r3, sp, #72
 1277              	.LVL92:
 1278 0afc 1A5D     		ldrb	r2, [r3, r4]	@ zero_extendqisi2
 1279              	.LVL93:
 1280 0afe 5B5D     		ldrb	r3, [r3, r5]	@ zero_extendqisi2
 1281 0b00 9A42     		cmp	r2, r3
 1282 0b02 00F0E481 		beq	.L97
 291:main.c        ****                 }
 1283              		.loc 1 291 0
 1284 0b06 0AF1020A 		add	r10, r10, #2
 1285              	.LVL94:
 1286 0b0a 1FFA8AFA 		uxth	r10, r10
 1287              	.LVL95:
 220:main.c        ****         
 1288              		.loc 1 220 0
 1289 0b0e 0023     		movs	r3, #0
 217:main.c        ****         
 1290              		.loc 1 217 0
 1291 0b10 1A46     		mov	r2, r3
 1292 0b12 EDE1     		b	.L34
 1293              	.LVL96:
 1294              	.L39:
 299:main.c        ****             break;
 1295              		.loc 1 299 0
 1296 0b14 12AB     		add	r3, sp, #72
 1297              	.LVL97:
 1298 0b16 1E55     		strb	r6, [r3, r4]
 220:main.c        ****         
 1299              		.loc 1 220 0
 1300 0b18 0023     		movs	r3, #0
 217:main.c        ****         
 1301              		.loc 1 217 0
 1302 0b1a 1A46     		mov	r2, r3
 1303              	.LVL98:
 300:main.c        ****         case OP3_ADD_IM:
 1304              		.loc 1 300 0
ARM GAS  C:\Users\info\AppData\Local\Temp\ccHAj6Mv.s 			page 33


 1305 0b1c E8E1     		b	.L34
 1306              	.LVL99:
 1307              	.L40:
 303:main.c        ****             break;
 1308              		.loc 1 303 0
 1309 0b1e 12AA     		add	r2, sp, #72
 1310              	.LVL100:
 1311 0b20 135D     		ldrb	r3, [r2, r4]	@ zero_extendqisi2
 1312              	.LVL101:
 1313 0b22 1E44     		add	r6, r6, r3
 1314              	.LVL102:
 1315 0b24 1655     		strb	r6, [r2, r4]
 220:main.c        ****         
 1316              		.loc 1 220 0
 1317 0b26 0023     		movs	r3, #0
 217:main.c        ****         
 1318              		.loc 1 217 0
 1319 0b28 1A46     		mov	r2, r3
 304:main.c        ****         case OP3_ARITH:
 1320              		.loc 1 304 0
 1321 0b2a E1E1     		b	.L34
 1322              	.LVL103:
 1323              	.L41:
 307:main.c        ****             case OP0_ARITH_LOAD:
 1324              		.loc 1 307 0
 1325 0b2c 0E2F     		cmp	r7, #14
 1326 0b2e 00F2D181 		bhi	.L98
 1327 0b32 DFE817F0 		tbh	[pc, r7, lsl #1]
 1328              	.LVL104:
 1329              	.L54:
 1330 0b36 0F00     		.2byte	(.L53-.L54)/2
 1331 0b38 1500     		.2byte	(.L55-.L54)/2
 1332 0b3a 1D00     		.2byte	(.L56-.L54)/2
 1333 0b3c 2500     		.2byte	(.L57-.L54)/2
 1334 0b3e 2D00     		.2byte	(.L58-.L54)/2
 1335 0b40 3500     		.2byte	(.L59-.L54)/2
 1336 0b42 4500     		.2byte	(.L60-.L54)/2
 1337 0b44 5100     		.2byte	(.L61-.L54)/2
 1338 0b46 CF01     		.2byte	(.L98-.L54)/2
 1339 0b48 CF01     		.2byte	(.L98-.L54)/2
 1340 0b4a CF01     		.2byte	(.L98-.L54)/2
 1341 0b4c CF01     		.2byte	(.L98-.L54)/2
 1342 0b4e CF01     		.2byte	(.L98-.L54)/2
 1343 0b50 CF01     		.2byte	(.L98-.L54)/2
 1344 0b52 6100     		.2byte	(.L62-.L54)/2
 1345              		.p2align 1
 1346              	.L53:
 310:main.c        ****                 break;
 1347              		.loc 1 310 0
 1348 0b54 12AB     		add	r3, sp, #72
 1349 0b56 5A5D     		ldrb	r2, [r3, r5]	@ zero_extendqisi2
 1350              	.LVL105:
 1351 0b58 1A55     		strb	r2, [r3, r4]
 220:main.c        ****         
 1352              		.loc 1 220 0
 1353 0b5a 0023     		movs	r3, #0
 217:main.c        ****         
ARM GAS  C:\Users\info\AppData\Local\Temp\ccHAj6Mv.s 			page 34


 1354              		.loc 1 217 0
 1355 0b5c 1A46     		mov	r2, r3
 311:main.c        ****             case OP0_ARITH_OR:
 1356              		.loc 1 311 0
 1357 0b5e C7E1     		b	.L34
 1358              	.LVL106:
 1359              	.L55:
 314:main.c        ****                 break;
 1360              		.loc 1 314 0
 1361 0b60 12AB     		add	r3, sp, #72
 1362 0b62 595D     		ldrb	r1, [r3, r5]	@ zero_extendqisi2
 1363 0b64 1A5D     		ldrb	r2, [r3, r4]	@ zero_extendqisi2
 1364              	.LVL107:
 1365 0b66 0A43     		orrs	r2, r2, r1
 1366 0b68 1A55     		strb	r2, [r3, r4]
 220:main.c        ****         
 1367              		.loc 1 220 0
 1368 0b6a 0023     		movs	r3, #0
 217:main.c        ****         
 1369              		.loc 1 217 0
 1370 0b6c 1A46     		mov	r2, r3
 315:main.c        ****             case OP0_ARITH_AND:
 1371              		.loc 1 315 0
 1372 0b6e BFE1     		b	.L34
 1373              	.LVL108:
 1374              	.L56:
 318:main.c        ****                 break;
 1375              		.loc 1 318 0
 1376 0b70 12AB     		add	r3, sp, #72
 1377 0b72 595D     		ldrb	r1, [r3, r5]	@ zero_extendqisi2
 1378 0b74 1A5D     		ldrb	r2, [r3, r4]	@ zero_extendqisi2
 1379              	.LVL109:
 1380 0b76 0A40     		ands	r2, r2, r1
 1381 0b78 1A55     		strb	r2, [r3, r4]
 220:main.c        ****         
 1382              		.loc 1 220 0
 1383 0b7a 0023     		movs	r3, #0
 217:main.c        ****         
 1384              		.loc 1 217 0
 1385 0b7c 1A46     		mov	r2, r3
 319:main.c        ****             case OP0_ARITH_XOR:
 1386              		.loc 1 319 0
 1387 0b7e B7E1     		b	.L34
 1388              	.LVL110:
 1389              	.L57:
 322:main.c        ****                 break;
 1390              		.loc 1 322 0
 1391 0b80 12AB     		add	r3, sp, #72
 1392 0b82 595D     		ldrb	r1, [r3, r5]	@ zero_extendqisi2
 1393 0b84 1A5D     		ldrb	r2, [r3, r4]	@ zero_extendqisi2
 1394              	.LVL111:
 1395 0b86 4A40     		eors	r2, r2, r1
 1396 0b88 1A55     		strb	r2, [r3, r4]
 220:main.c        ****         
 1397              		.loc 1 220 0
 1398 0b8a 0023     		movs	r3, #0
 217:main.c        ****         
ARM GAS  C:\Users\info\AppData\Local\Temp\ccHAj6Mv.s 			page 35


 1399              		.loc 1 217 0
 1400 0b8c 1A46     		mov	r2, r3
 323:main.c        ****             case OP0_ARITH_ADD:
 1401              		.loc 1 323 0
 1402 0b8e AFE1     		b	.L34
 1403              	.LVL112:
 1404              	.L58:
 326:main.c        ****                 break;
 1405              		.loc 1 326 0
 1406 0b90 12AB     		add	r3, sp, #72
 1407 0b92 595D     		ldrb	r1, [r3, r5]	@ zero_extendqisi2
 1408 0b94 1A5D     		ldrb	r2, [r3, r4]	@ zero_extendqisi2
 1409              	.LVL113:
 1410 0b96 0A44     		add	r2, r2, r1
 1411 0b98 1A55     		strb	r2, [r3, r4]
 220:main.c        ****         
 1412              		.loc 1 220 0
 1413 0b9a 0023     		movs	r3, #0
 217:main.c        ****         
 1414              		.loc 1 217 0
 1415 0b9c 1A46     		mov	r2, r3
 327:main.c        ****             case OP0_ARITH_SUB:{
 1416              		.loc 1 327 0
 1417 0b9e A7E1     		b	.L34
 1418              	.LVL114:
 1419              	.L59:
 1420              	.LBB12:
 330:main.c        ****                 uint16_t vy = v[y];
 1421              		.loc 1 330 0
 1422 0ba0 12AA     		add	r2, sp, #72
 1423              	.LVL115:
 1424 0ba2 115D     		ldrb	r1, [r2, r4]	@ zero_extendqisi2
 1425              	.LVL116:
 331:main.c        ****                 uint16_t diff = vx - vy;                                
 1426              		.loc 1 331 0
 1427 0ba4 505D     		ldrb	r0, [r2, r5]	@ zero_extendqisi2
 1428              	.LVL117:
 332:main.c        ****                 v[x] = diff;
 1429              		.loc 1 332 0
 1430 0ba6 0B1A     		subs	r3, r1, r0
 1431              	.LVL118:
 333:main.c        ****                 v[0xf] = (diff & 0x100) ? 0 : 1;
 1432              		.loc 1 333 0
 1433 0ba8 1355     		strb	r3, [r2, r4]
 334:main.c        ****                 break;
 1434              		.loc 1 334 0
 1435 0baa C3F30723 		ubfx	r3, r3, #8, #8
 1436              	.LVL119:
 1437 0bae 83F00103 		eor	r3, r3, #1
 1438 0bb2 03F00103 		and	r3, r3, #1
 1439 0bb6 8DF85730 		strb	r3, [sp, #87]
 1440              	.LBE12:
 220:main.c        ****         
 1441              		.loc 1 220 0
 1442 0bba 0023     		movs	r3, #0
 217:main.c        ****         
 1443              		.loc 1 217 0
ARM GAS  C:\Users\info\AppData\Local\Temp\ccHAj6Mv.s 			page 36


 1444 0bbc 1A46     		mov	r2, r3
 1445              	.LBB13:
 335:main.c        ****             }
 1446              		.loc 1 335 0
 1447 0bbe 97E1     		b	.L34
 1448              	.LVL120:
 1449              	.L60:
 1450              	.LBE13:
 339:main.c        ****                 v[x] >>= 1;
 1451              		.loc 1 339 0
 1452 0bc0 12AB     		add	r3, sp, #72
 1453 0bc2 1A5D     		ldrb	r2, [r3, r4]	@ zero_extendqisi2
 1454              	.LVL121:
 1455 0bc4 02F00102 		and	r2, r2, #1
 1456 0bc8 8DF85720 		strb	r2, [sp, #87]
 340:main.c        ****                 break;
 1457              		.loc 1 340 0
 1458 0bcc 1A5D     		ldrb	r2, [r3, r4]	@ zero_extendqisi2
 1459 0bce 5208     		lsrs	r2, r2, #1
 1460 0bd0 1A55     		strb	r2, [r3, r4]
 220:main.c        ****         
 1461              		.loc 1 220 0
 1462 0bd2 0023     		movs	r3, #0
 217:main.c        ****         
 1463              		.loc 1 217 0
 1464 0bd4 1A46     		mov	r2, r3
 341:main.c        ****             case OP0_ARITH_SUBN:{
 1465              		.loc 1 341 0
 1466 0bd6 8BE1     		b	.L34
 1467              	.LVL122:
 1468              	.L61:
 1469              	.LBB14:
 344:main.c        ****                 uint16_t vy = v[y];
 1470              		.loc 1 344 0
 1471 0bd8 12AA     		add	r2, sp, #72
 1472              	.LVL123:
 1473 0bda 105D     		ldrb	r0, [r2, r4]	@ zero_extendqisi2
 1474              	.LVL124:
 345:main.c        ****                 uint16_t diff = vy - vx;                                
 1475              		.loc 1 345 0
 1476 0bdc 515D     		ldrb	r1, [r2, r5]	@ zero_extendqisi2
 1477              	.LVL125:
 346:main.c        ****                 v[x] = diff;
 1478              		.loc 1 346 0
 1479 0bde 0B1A     		subs	r3, r1, r0
 1480              	.LVL126:
 347:main.c        ****                 v[0xf] = (diff & 0x100) ? 0 : 1;
 1481              		.loc 1 347 0
 1482 0be0 1355     		strb	r3, [r2, r4]
 348:main.c        ****                 break;
 1483              		.loc 1 348 0
 1484 0be2 C3F30723 		ubfx	r3, r3, #8, #8
 1485              	.LVL127:
 1486 0be6 83F00103 		eor	r3, r3, #1
 1487 0bea 03F00103 		and	r3, r3, #1
 1488 0bee 8DF85730 		strb	r3, [sp, #87]
 1489              	.LBE14:
ARM GAS  C:\Users\info\AppData\Local\Temp\ccHAj6Mv.s 			page 37


 220:main.c        ****         
 1490              		.loc 1 220 0
 1491 0bf2 0023     		movs	r3, #0
 217:main.c        ****         
 1492              		.loc 1 217 0
 1493 0bf4 1A46     		mov	r2, r3
 1494              	.LBB15:
 349:main.c        ****             }
 1495              		.loc 1 349 0
 1496 0bf6 7BE1     		b	.L34
 1497              	.LVL128:
 1498              	.L62:
 1499              	.LBE15:
 353:main.c        ****                 v[x] <<= 1;
 1500              		.loc 1 353 0
 1501 0bf8 12AB     		add	r3, sp, #72
 1502 0bfa 1A5D     		ldrb	r2, [r3, r4]	@ zero_extendqisi2
 1503              	.LVL129:
 1504 0bfc D209     		lsrs	r2, r2, #7
 1505 0bfe 8DF85720 		strb	r2, [sp, #87]
 354:main.c        ****                 break;
 1506              		.loc 1 354 0
 1507 0c02 1A5D     		ldrb	r2, [r3, r4]	@ zero_extendqisi2
 1508 0c04 5200     		lsls	r2, r2, #1
 1509 0c06 1A55     		strb	r2, [r3, r4]
 220:main.c        ****         
 1510              		.loc 1 220 0
 1511 0c08 0023     		movs	r3, #0
 217:main.c        ****         
 1512              		.loc 1 217 0
 1513 0c0a 1A46     		mov	r2, r3
 355:main.c        ****             default:
 1514              		.loc 1 355 0
 1515 0c0c 70E1     		b	.L34
 1516              	.LVL130:
 1517              	.L43:
 363:main.c        ****             break;
 1518              		.loc 1 363 0
 1519 0c0e 9B46     		mov	fp, r3
 220:main.c        ****         
 1520              		.loc 1 220 0
 1521 0c10 0023     		movs	r3, #0
 1522              	.LVL131:
 217:main.c        ****         
 1523              		.loc 1 217 0
 1524 0c12 1A46     		mov	r2, r3
 1525              	.LVL132:
 364:main.c        ****         case OP3_RANDOM:
 1526              		.loc 1 364 0
 1527 0c14 6CE1     		b	.L34
 1528              	.LVL133:
 1529              	.L45:
 367:main.c        ****             break;
 1530              		.loc 1 367 0
 1531 0c16 FFF7FEFF 		bl	random_Read
 1532              	.LVL134:
 1533 0c1a 3040     		ands	r0, r0, r6
ARM GAS  C:\Users\info\AppData\Local\Temp\ccHAj6Mv.s 			page 38


 1534 0c1c 12AB     		add	r3, sp, #72
 1535 0c1e 1855     		strb	r0, [r3, r4]
 220:main.c        ****         
 1536              		.loc 1 220 0
 1537 0c20 0023     		movs	r3, #0
 217:main.c        ****         
 1538              		.loc 1 217 0
 1539 0c22 1A46     		mov	r2, r3
 368:main.c        ****         case OP3_DRAW:{
 1540              		.loc 1 368 0
 1541 0c24 64E1     		b	.L34
 1542              	.LVL135:
 1543              	.L66:
 1544              	.LBB16:
 1545              	.LBB17:
 1546              	.LBB18:
 374:main.c        ****                     row = ((uint64_t)ram[i + j]) << (56 - v[x]);
 1547              		.loc 1 374 0
 1548 0c26 12AB     		add	r3, sp, #72
 1549 0c28 099A     		ldr	r2, [sp, #36]
 1550 0c2a 995C     		ldrb	r1, [r3, r2]	@ zero_extendqisi2
 1551 0c2c 3829     		cmp	r1, #56
 1552 0c2e 19D8     		bhi	.L63
 375:main.c        ****                 } else {
 1553              		.loc 1 375 0
 1554 0c30 0BEB0603 		add	r3, fp, r6
 1555 0c34 16AA     		add	r2, sp, #88
 1556              	.LVL136:
 1557 0c36 D25C     		ldrb	r2, [r2, r3]	@ zero_extendqisi2
 1558              	.LVL137:
 1559 0c38 C1F13801 		rsb	r1, r1, #56
 1560 0c3c A1F12000 		sub	r0, r1, #32
 1561 0c40 C1F12003 		rsb	r3, r1, #32
 1562 0c44 4FF00009 		mov	r9, #0
 1563 0c48 02FA00F0 		lsl	r0, r2, r0
 1564 0c4c 49EA0009 		orr	r9, r9, r0
 1565 0c50 22FA03F3 		lsr	r3, r2, r3
 1566 0c54 49EA0309 		orr	r9, r9, r3
 1567 0c58 02FA01F8 		lsl	r8, r2, r1
 1568              	.LVL138:
 1569 0c5c 27E0     		b	.L64
 1570              	.L113:
 1571 0c5e 00BF     		.align	2
 1572              	.L112:
 1573 0c60 00000000 		.word	vram
 1574              	.LVL139:
 1575              	.L63:
 377:main.c        ****                         | ((uint64_t)ram[i + j]) << (120 - v[x]);
 1576              		.loc 1 377 0
 1577 0c64 0BEB0603 		add	r3, fp, r6
 1578 0c68 16AA     		add	r2, sp, #88
 1579              	.LVL140:
 1580 0c6a D25C     		ldrb	r2, [r2, r3]	@ zero_extendqisi2
 1581              	.LVL141:
 1582 0c6c A1F13803 		sub	r3, r1, #56
 1583 0c70 22FA03F0 		lsr	r0, r2, r3
 1584 0c74 0490     		str	r0, [sp, #16]
ARM GAS  C:\Users\info\AppData\Local\Temp\ccHAj6Mv.s 			page 39


 1585 0c76 0020     		movs	r0, #0
 1586 0c78 0590     		str	r0, [sp, #20]
 378:main.c        ****                 }
 1587              		.loc 1 378 0
 1588 0c7a C1F17801 		rsb	r1, r1, #120
 1589 0c7e A1F12000 		sub	r0, r1, #32
 1590 0c82 C1F12003 		rsb	r3, r1, #32
 1591 0c86 0024     		movs	r4, #0
 1592 0c88 02FA00F0 		lsl	r0, r2, r0
 1593 0c8c 0443     		orrs	r4, r4, r0
 1594 0c8e 22FA03F3 		lsr	r3, r2, r3
 1595 0c92 2046     		mov	r0, r4
 1596 0c94 1843     		orrs	r0, r0, r3
 1597 0c96 0190     		str	r0, [sp, #4]
 1598 0c98 02FA01F3 		lsl	r3, r2, r1
 1599 0c9c 0093     		str	r3, [sp]
 377:main.c        ****                         | ((uint64_t)ram[i + j]) << (120 - v[x]);
 1600              		.loc 1 377 0
 1601 0c9e DDE90489 		ldrd	r8, [sp, #16]
 1602 0ca2 DDE90034 		ldrd	r3, [sp]
 1603 0ca6 48EA0308 		orr	r8, r8, r3
 1604 0caa 49EA0409 		orr	r9, r9, r4
 1605              	.LVL142:
 1606              	.L64:
 380:main.c        ****                 vram[(v[y] + j) % 32] ^= row;
 1607              		.loc 1 380 0 discriminator 2
 1608 0cae 12AB     		add	r3, sp, #72
 1609 0cb0 5B5D     		ldrb	r3, [r3, r5]	@ zero_extendqisi2
 1610 0cb2 03EB060E 		add	lr, r3, r6
 1611 0cb6 994B     		ldr	r3, .L114
 1612 0cb8 1EEA0303 		ands	r3, lr, r3
 1613 0cbc 03D5     		bpl	.L65
 1614 0cbe 013B     		subs	r3, r3, #1
 1615 0cc0 63F01F03 		orn	r3, r3, #31
 1616 0cc4 0133     		adds	r3, r3, #1
 1617              	.L65:
 1618 0cc6 964A     		ldr	r2, .L114+4
 1619 0cc8 02EBC30E 		add	lr, r2, r3, lsl #3
 1620 0ccc DEE90023 		ldrd	r2, [lr]
 1621 0cd0 CDE90623 		strd	r2, [sp, #24]
 1622 0cd4 02EA0800 		and	r0, r2, r8
 1623 0cd8 03EA0901 		and	r1, r3, r9
 1624 0cdc DDE90234 		ldrd	r3, [sp, #8]
 1625 0ce0 0343     		orrs	r3, r3, r0
 1626 0ce2 0C43     		orrs	r4, r4, r1
 1627 0ce4 CDE90234 		strd	r3, [sp, #8]
 1628              	.LVL143:
 381:main.c        ****             }
 1629              		.loc 1 381 0 discriminator 2
 1630 0ce8 DDE90623 		ldrd	r2, [sp, #24]
 1631 0cec 82EA0802 		eor	r2, r2, r8
 1632 0cf0 83EA0903 		eor	r3, r3, r9
 1633              	.LVL144:
 1634 0cf4 CEE90023 		strd	r2, [lr]
 1635              	.LBE18:
 372:main.c        ****                 uint64_t row = 0;
 1636              		.loc 1 372 0 discriminator 2
ARM GAS  C:\Users\info\AppData\Local\Temp\ccHAj6Mv.s 			page 40


 1637 0cf8 0136     		adds	r6, r6, #1
 1638              	.LVL145:
 1639 0cfa 08E0     		b	.L46
 1640              	.LVL146:
 1641              	.L87:
 1642              	.LBE17:
 1643              	.LBE16:
 223:main.c        ****         case OP3_SYSTEM:
 1644              		.loc 1 223 0
 1645 0cfc 0026     		movs	r6, #0
 1646              	.LVL147:
 1647 0cfe 0022     		movs	r2, #0
 1648              	.LVL148:
 1649 0d00 0023     		movs	r3, #0
 1650              	.LVL149:
 1651 0d02 CDE90223 		strd	r2, [sp, #8]
 1652 0d06 C446     		mov	ip, r8
 1653 0d08 DDE90689 		ldrd	r8, [sp, #24]
 1654              	.LVL150:
 1655 0d0c 0994     		str	r4, [sp, #36]
 1656              	.LVL151:
 1657              	.L46:
 1658              	.LBB20:
 1659              	.LBB19:
 372:main.c        ****                 uint64_t row = 0;
 1660              		.loc 1 372 0 discriminator 1
 1661 0d0e BE42     		cmp	r6, r7
 1662 0d10 89DB     		blt	.L66
 1663 0d12 CDE90689 		strd	r8, [sp, #24]
 1664 0d16 E046     		mov	r8, ip
 1665              	.LBE19:
 383:main.c        ****             break;
 1666              		.loc 1 383 0
 1667 0d18 DDE90212 		ldrd	r1, [sp, #8]
 1668 0d1c 0B46     		mov	r3, r1
 1669 0d1e 1343     		orrs	r3, r3, r2
 1670 0d20 14BF     		ite	ne
 1671 0d22 0123     		movne	r3, #1
 1672 0d24 0023     		moveq	r3, #0
 1673 0d26 8DF85730 		strb	r3, [sp, #87]
 1674              	.LBE20:
 220:main.c        ****         
 1675              		.loc 1 220 0
 1676 0d2a 0023     		movs	r3, #0
 217:main.c        ****         
 1677              		.loc 1 217 0
 1678 0d2c 1A46     		mov	r2, r3
 1679              	.LBB21:
 384:main.c        ****         }
 1680              		.loc 1 384 0
 1681 0d2e DFE0     		b	.L34
 1682              	.LVL152:
 1683              	.L47:
 1684              	.LBE21:
 388:main.c        ****             case OP10_KEYBOARD_EQ:
 1685              		.loc 1 388 0
 1686 0d30 9E2E     		cmp	r6, #158
ARM GAS  C:\Users\info\AppData\Local\Temp\ccHAj6Mv.s 			page 41


 1687 0d32 02D0     		beq	.L67
 1688 0d34 A12E     		cmp	r6, #161
 1689 0d36 11D0     		beq	.L68
 1690 0d38 CFE0     		b	.L106
 1691              	.L67:
 391:main.c        ****                     pc += 2;
 1692              		.loc 1 391 0
 1693 0d3a 12AB     		add	r3, sp, #72
 1694              	.LVL153:
 1695 0d3c 1B5D     		ldrb	r3, [r3, r4]	@ zero_extendqisi2
 1696 0d3e 03F00F03 		and	r3, r3, #15
 1697 0d42 784A     		ldr	r2, .L114+8
 1698              	.LVL154:
 1699 0d44 1344     		add	r3, r3, r2
 1700 0d46 1B79     		ldrb	r3, [r3, #4]	@ zero_extendqisi2
 1701 0d48 012B     		cmp	r3, #1
 1702 0d4a 40F0C980 		bne	.L100
 392:main.c        ****                 }
 1703              		.loc 1 392 0
 1704 0d4e 0AF1020A 		add	r10, r10, #2
 1705              	.LVL155:
 1706 0d52 1FFA8AFA 		uxth	r10, r10
 1707              	.LVL156:
 220:main.c        ****         
 1708              		.loc 1 220 0
 1709 0d56 0023     		movs	r3, #0
 217:main.c        ****         
 1710              		.loc 1 217 0
 1711 0d58 1A46     		mov	r2, r3
 1712 0d5a C9E0     		b	.L34
 1713              	.LVL157:
 1714              	.L68:
 397:main.c        ****                     pc += 2;
 1715              		.loc 1 397 0
 1716 0d5c 12AB     		add	r3, sp, #72
 1717              	.LVL158:
 1718 0d5e 1B5D     		ldrb	r3, [r3, r4]	@ zero_extendqisi2
 1719 0d60 03F00F03 		and	r3, r3, #15
 1720 0d64 6F4A     		ldr	r2, .L114+8
 1721              	.LVL159:
 1722 0d66 1344     		add	r3, r3, r2
 1723 0d68 1B79     		ldrb	r3, [r3, #4]	@ zero_extendqisi2
 1724 0d6a 002B     		cmp	r3, #0
 1725 0d6c 40F0BB80 		bne	.L101
 398:main.c        ****                 }
 1726              		.loc 1 398 0
 1727 0d70 0AF1020A 		add	r10, r10, #2
 1728              	.LVL160:
 1729 0d74 1FFA8AFA 		uxth	r10, r10
 1730              	.LVL161:
 217:main.c        ****         
 1731              		.loc 1 217 0
 1732 0d78 1A46     		mov	r2, r3
 1733 0d7a B9E0     		b	.L34
 1734              	.LVL162:
 1735              	.L48:
 408:main.c        ****             case OP10_SPECIAL_LOAD_DELAY:
ARM GAS  C:\Users\info\AppData\Local\Temp\ccHAj6Mv.s 			page 42


 1736              		.loc 1 408 0
 1737 0d7c 1E2E     		cmp	r6, #30
 1738 0d7e 37D0     		beq	.L69
 1739 0d80 0AD8     		bhi	.L70
 1740 0d82 0A2E     		cmp	r6, #10
 1741 0d84 1AD0     		beq	.L71
 1742 0d86 02D8     		bhi	.L72
 1743 0d88 072E     		cmp	r6, #7
 1744 0d8a 10D0     		beq	.L73
 1745 0d8c AEE0     		b	.L102
 1746              	.L72:
 1747 0d8e 152E     		cmp	r6, #21
 1748 0d90 20D0     		beq	.L74
 1749 0d92 182E     		cmp	r6, #24
 1750 0d94 25D0     		beq	.L75
 1751 0d96 A9E0     		b	.L102
 1752              	.L70:
 1753 0d98 332E     		cmp	r6, #51
 1754 0d9a 3BD0     		beq	.L76
 1755 0d9c 02D8     		bhi	.L77
 1756 0d9e 292E     		cmp	r6, #41
 1757 0da0 2ED0     		beq	.L78
 1758 0da2 A3E0     		b	.L102
 1759              	.L77:
 1760 0da4 552E     		cmp	r6, #85
 1761 0da6 60D0     		beq	.L103
 1762 0da8 652E     		cmp	r6, #101
 1763 0daa 6DD0     		beq	.L104
 1764 0dac 9EE0     		b	.L102
 1765              	.L73:
 411:main.c        ****                 break;
 1766              		.loc 1 411 0
 1767 0dae 5D4B     		ldr	r3, .L114+8
 1768              	.LVL163:
 1769 0db0 5A78     		ldrb	r2, [r3, #1]	@ zero_extendqisi2
 1770              	.LVL164:
 1771 0db2 12AB     		add	r3, sp, #72
 1772 0db4 1A55     		strb	r2, [r3, r4]
 220:main.c        ****         
 1773              		.loc 1 220 0
 1774 0db6 0023     		movs	r3, #0
 217:main.c        ****         
 1775              		.loc 1 217 0
 1776 0db8 1A46     		mov	r2, r3
 412:main.c        ****             case OP10_SPECIAL_LOAD_KEYBOARD:
 1777              		.loc 1 412 0
 1778 0dba 99E0     		b	.L34
 1779              	.LVL165:
 1780              	.L71:
 415:main.c        ****                 v[x] = lastkey;
 1781              		.loc 1 415 0 discriminator 1
 1782 0dbc 594B     		ldr	r3, .L114+8
 1783 0dbe 1B7D     		ldrb	r3, [r3, #20]	@ zero_extendqisi2
 1784 0dc0 002B     		cmp	r3, #0
 1785 0dc2 FBD0     		beq	.L71
 416:main.c        ****                 keyflag = 0;
 1786              		.loc 1 416 0
ARM GAS  C:\Users\info\AppData\Local\Temp\ccHAj6Mv.s 			page 43


 1787 0dc4 574B     		ldr	r3, .L114+8
 1788 0dc6 597D     		ldrb	r1, [r3, #21]	@ zero_extendqisi2
 1789 0dc8 12AA     		add	r2, sp, #72
 1790              	.LVL166:
 1791 0dca 1155     		strb	r1, [r2, r4]
 417:main.c        ****                 break;
 1792              		.loc 1 417 0
 1793 0dcc 0022     		movs	r2, #0
 1794 0dce 1A75     		strb	r2, [r3, #20]
 220:main.c        ****         
 1795              		.loc 1 220 0
 1796 0dd0 1346     		mov	r3, r2
 418:main.c        ****             case OP10_SPECIAL_SET_DELAY:
 1797              		.loc 1 418 0
 1798 0dd2 8DE0     		b	.L34
 1799              	.LVL167:
 1800              	.L74:
 421:main.c        ****                 break;
 1801              		.loc 1 421 0
 1802 0dd4 12AB     		add	r3, sp, #72
 1803              	.LVL168:
 1804 0dd6 1A5D     		ldrb	r2, [r3, r4]	@ zero_extendqisi2
 1805              	.LVL169:
 1806 0dd8 524B     		ldr	r3, .L114+8
 1807 0dda 5A70     		strb	r2, [r3, #1]
 220:main.c        ****         
 1808              		.loc 1 220 0
 1809 0ddc 0023     		movs	r3, #0
 217:main.c        ****         
 1810              		.loc 1 217 0
 1811 0dde 1A46     		mov	r2, r3
 422:main.c        ****             case OP10_SPECIAL_SET_SOUND:
 1812              		.loc 1 422 0
 1813 0de0 86E0     		b	.L34
 1814              	.LVL170:
 1815              	.L75:
 425:main.c        ****                 break;
 1816              		.loc 1 425 0
 1817 0de2 12AB     		add	r3, sp, #72
 1818              	.LVL171:
 1819 0de4 1A5D     		ldrb	r2, [r3, r4]	@ zero_extendqisi2
 1820              	.LVL172:
 1821 0de6 4F4B     		ldr	r3, .L114+8
 1822 0de8 1A70     		strb	r2, [r3]
 220:main.c        ****         
 1823              		.loc 1 220 0
 1824 0dea 0023     		movs	r3, #0
 217:main.c        ****         
 1825              		.loc 1 217 0
 1826 0dec 1A46     		mov	r2, r3
 426:main.c        ****             case OP10_SPECIAL_ADD_TO_I:
 1827              		.loc 1 426 0
 1828 0dee 7FE0     		b	.L34
 1829              	.LVL173:
 1830              	.L69:
 429:main.c        ****                 break;
 1831              		.loc 1 429 0
ARM GAS  C:\Users\info\AppData\Local\Temp\ccHAj6Mv.s 			page 44


 1832 0df0 12AB     		add	r3, sp, #72
 1833              	.LVL174:
 1834 0df2 1B5D     		ldrb	r3, [r3, r4]	@ zero_extendqisi2
 1835 0df4 9B44     		add	fp, fp, r3
 1836              	.LVL175:
 1837 0df6 1FFA8BFB 		uxth	fp, fp
 1838              	.LVL176:
 220:main.c        ****         
 1839              		.loc 1 220 0
 1840 0dfa 0023     		movs	r3, #0
 217:main.c        ****         
 1841              		.loc 1 217 0
 1842 0dfc 1A46     		mov	r2, r3
 1843              	.LVL177:
 430:main.c        ****             case OP10_SPECIAL_LOAD_FONT:
 1844              		.loc 1 430 0
 1845 0dfe 77E0     		b	.L34
 1846              	.LVL178:
 1847              	.L78:
 433:main.c        ****                 break;
 1848              		.loc 1 433 0
 1849 0e00 12AB     		add	r3, sp, #72
 1850              	.LVL179:
 1851 0e02 13F804B0 		ldrb	fp, [r3, r4]	@ zero_extendqisi2
 1852              	.LVL180:
 1853 0e06 0BF00F0B 		and	fp, fp, #15
 1854 0e0a 0BEB8B0B 		add	fp, fp, fp, lsl #2
 1855              	.LVL181:
 220:main.c        ****         
 1856              		.loc 1 220 0
 1857 0e0e 0023     		movs	r3, #0
 217:main.c        ****         
 1858              		.loc 1 217 0
 1859 0e10 1A46     		mov	r2, r3
 1860              	.LVL182:
 434:main.c        ****             case OP10_SPECIAL_LOAD_BCD:
 1861              		.loc 1 434 0
 1862 0e12 6DE0     		b	.L34
 1863              	.LVL183:
 1864              	.L76:
 437:main.c        ****                 ram[i+1] = (uint8_t)(v[x] / 10) % 10;
 1865              		.loc 1 437 0
 1866 0e14 16A8     		add	r0, sp, #88
 1867              	.LVL184:
 1868 0e16 12AB     		add	r3, sp, #72
 1869              	.LVL185:
 1870 0e18 195D     		ldrb	r1, [r3, r4]	@ zero_extendqisi2
 1871 0e1a 434A     		ldr	r2, .L114+12
 1872              	.LVL186:
 1873 0e1c A2FB0132 		umull	r3, r2, r2, r1
 1874 0e20 424B     		ldr	r3, .L114+16
 1875 0e22 5209     		lsrs	r2, r2, #5
 1876 0e24 00F80B20 		strb	r2, [r0, fp]
 1877              	.LVL187:
 438:main.c        ****                 ram[i+2] = (uint8_t)(v[x]) % 10;
 1878              		.loc 1 438 0
 1879 0e28 0BF10105 		add	r5, fp, #1
ARM GAS  C:\Users\info\AppData\Local\Temp\ccHAj6Mv.s 			page 45


 1880              	.LVL188:
 1881 0e2c A3FB0142 		umull	r4, r2, r3, r1
 1882              	.LVL189:
 1883 0e30 D208     		lsrs	r2, r2, #3
 1884 0e32 D4B2     		uxtb	r4, r2
 1885 0e34 A3FB0463 		umull	r6, r3, r3, r4
 1886              	.LVL190:
 1887 0e38 DB08     		lsrs	r3, r3, #3
 1888 0e3a 03EB8303 		add	r3, r3, r3, lsl #2
 1889 0e3e 5E00     		lsls	r6, r3, #1
 1890 0e40 A41B     		subs	r4, r4, r6
 1891 0e42 4455     		strb	r4, [r0, r5]
 439:main.c        ****                 break;
 1892              		.loc 1 439 0
 1893 0e44 0BF10203 		add	r3, fp, #2
 1894 0e48 02EB8202 		add	r2, r2, r2, lsl #2
 1895 0e4c 5400     		lsls	r4, r2, #1
 1896 0e4e 091B     		subs	r1, r1, r4
 1897 0e50 C154     		strb	r1, [r0, r3]
 220:main.c        ****         
 1898              		.loc 1 220 0
 1899 0e52 0023     		movs	r3, #0
 217:main.c        ****         
 1900              		.loc 1 217 0
 1901 0e54 1A46     		mov	r2, r3
 440:main.c        ****             case OP10_SPECIAL_LOAD_AT_I:
 1902              		.loc 1 440 0
 1903 0e56 4BE0     		b	.L34
 1904              	.LVL191:
 1905              	.L81:
 1906              	.LBB22:
 444:main.c        ****                 }
 1907              		.loc 1 444 0 discriminator 3
 1908 0e58 0BEB0301 		add	r1, fp, r3
 1909 0e5c 16AA     		add	r2, sp, #88
 1910 0e5e 12A8     		add	r0, sp, #72
 1911 0e60 C05C     		ldrb	r0, [r0, r3]	@ zero_extendqisi2
 1912 0e62 5054     		strb	r0, [r2, r1]
 443:main.c        ****                     ram[i + j] = v[j];
 1913              		.loc 1 443 0 discriminator 3
 1914 0e64 0133     		adds	r3, r3, #1
 1915              	.LVL192:
 1916 0e66 DBB2     		uxtb	r3, r3
 1917              	.LVL193:
 1918 0e68 00E0     		b	.L79
 1919              	.LVL194:
 1920              	.L103:
 1921              	.LBE22:
 408:main.c        ****             case OP10_SPECIAL_LOAD_DELAY:
 1922              		.loc 1 408 0
 1923 0e6a 0023     		movs	r3, #0
 1924              	.LVL195:
 1925              	.L79:
 1926              	.LBB23:
 443:main.c        ****                     ram[i + j] = v[j];
 1927              		.loc 1 443 0 discriminator 1
 1928 0e6c A342     		cmp	r3, r4
ARM GAS  C:\Users\info\AppData\Local\Temp\ccHAj6Mv.s 			page 46


 1929 0e6e F3D9     		bls	.L81
 1930              	.LBE23:
 220:main.c        ****         
 1931              		.loc 1 220 0
 1932 0e70 0023     		movs	r3, #0
 1933              	.LVL196:
 217:main.c        ****         
 1934              		.loc 1 217 0
 1935 0e72 1A46     		mov	r2, r3
 1936 0e74 3CE0     		b	.L34
 1937              	.LVL197:
 1938              	.L82:
 1939              	.LBB24:
 450:main.c        ****                 }
 1940              		.loc 1 450 0 discriminator 3
 1941 0e76 0BEB0301 		add	r1, fp, r3
 1942 0e7a 16AA     		add	r2, sp, #88
 1943              	.LVL198:
 1944 0e7c 515C     		ldrb	r1, [r2, r1]	@ zero_extendqisi2
 1945 0e7e 12AA     		add	r2, sp, #72
 1946              	.LVL199:
 1947 0e80 D154     		strb	r1, [r2, r3]
 449:main.c        ****                     v[j] = ram[i + j];
 1948              		.loc 1 449 0 discriminator 3
 1949 0e82 0133     		adds	r3, r3, #1
 1950              	.LVL200:
 1951 0e84 DBB2     		uxtb	r3, r3
 1952              	.LVL201:
 1953 0e86 00E0     		b	.L80
 1954              	.LVL202:
 1955              	.L104:
 1956              	.LBE24:
 408:main.c        ****             case OP10_SPECIAL_LOAD_DELAY:
 1957              		.loc 1 408 0
 1958 0e88 0023     		movs	r3, #0
 1959              	.LVL203:
 1960              	.L80:
 1961              	.LBB25:
 449:main.c        ****                     v[j] = ram[i + j];
 1962              		.loc 1 449 0 discriminator 1
 1963 0e8a A342     		cmp	r3, r4
 1964 0e8c F3D9     		bls	.L82
 1965              	.LBE25:
 220:main.c        ****         
 1966              		.loc 1 220 0
 1967 0e8e 0023     		movs	r3, #0
 1968              	.LVL204:
 217:main.c        ****         
 1969              		.loc 1 217 0
 1970 0e90 1A46     		mov	r2, r3
 1971              	.LBB26:
 1972 0e92 2DE0     		b	.L34
 1973              	.LVL205:
 1974              	.L86:
 1975              	.LBE26:
 250:main.c        ****             freeze_pc = 1;
 1976              		.loc 1 250 0
ARM GAS  C:\Users\info\AppData\Local\Temp\ccHAj6Mv.s 			page 47


 1977 0e94 9A46     		mov	r10, r3
 1978              	.LVL206:
 251:main.c        ****             break;
 1979              		.loc 1 251 0
 1980 0e96 0123     		movs	r3, #1
 1981              	.LVL207:
 217:main.c        ****         
 1982              		.loc 1 217 0
 1983 0e98 0022     		movs	r2, #0
 1984              	.LVL208:
 1985 0e9a 29E0     		b	.L34
 1986              	.LVL209:
 1987              	.L88:
 220:main.c        ****         
 1988              		.loc 1 220 0
 1989 0e9c 0023     		movs	r3, #0
 1990              	.LVL210:
 227:main.c        ****             } else {
 1991              		.loc 1 227 0
 1992 0e9e 0122     		movs	r2, #1
 1993              	.LVL211:
 1994 0ea0 26E0     		b	.L34
 1995              	.LVL212:
 1996              	.L105:
 220:main.c        ****         
 1997              		.loc 1 220 0
 1998 0ea2 0023     		movs	r3, #0
 1999              	.LVL213:
 243:main.c        ****                     break;
 2000              		.loc 1 243 0
 2001 0ea4 0122     		movs	r2, #1
 2002              	.LVL214:
 2003 0ea6 23E0     		b	.L34
 2004              	.LVL215:
 2005              	.L91:
 262:main.c        ****             freeze_pc = 1;
 2006              		.loc 1 262 0
 2007 0ea8 9A46     		mov	r10, r3
 2008              	.LVL216:
 263:main.c        ****             break;
 2009              		.loc 1 263 0
 2010 0eaa 0123     		movs	r3, #1
 2011              	.LVL217:
 217:main.c        ****         
 2012              		.loc 1 217 0
 2013 0eac 0022     		movs	r2, #0
 2014              	.LVL218:
 2015 0eae 1FE0     		b	.L34
 2016              	.LVL219:
 2017              	.L92:
 220:main.c        ****         
 2018              		.loc 1 220 0
 2019 0eb0 0023     		movs	r3, #0
 217:main.c        ****         
 2020              		.loc 1 217 0
 2021 0eb2 1A46     		mov	r2, r3
 2022              	.LVL220:
ARM GAS  C:\Users\info\AppData\Local\Temp\ccHAj6Mv.s 			page 48


 2023 0eb4 1CE0     		b	.L34
 2024              	.LVL221:
 2025              	.L93:
 220:main.c        ****         
 2026              		.loc 1 220 0
 2027 0eb6 0023     		movs	r3, #0
 217:main.c        ****         
 2028              		.loc 1 217 0
 2029 0eb8 1A46     		mov	r2, r3
 2030              	.LVL222:
 2031 0eba 19E0     		b	.L34
 2032              	.LVL223:
 2033              	.L94:
 220:main.c        ****         
 2034              		.loc 1 220 0
 2035 0ebc 0023     		movs	r3, #0
 2036              	.LVL224:
 284:main.c        ****             }
 2037              		.loc 1 284 0
 2038 0ebe 0122     		movs	r2, #1
 2039              	.LVL225:
 2040 0ec0 16E0     		b	.L34
 2041              	.L95:
 220:main.c        ****         
 2042              		.loc 1 220 0
 2043 0ec2 0023     		movs	r3, #0
 217:main.c        ****         
 2044              		.loc 1 217 0
 2045 0ec4 1A46     		mov	r2, r3
 2046 0ec6 13E0     		b	.L34
 2047              	.LVL226:
 2048              	.L96:
 220:main.c        ****         
 2049              		.loc 1 220 0
 2050 0ec8 0023     		movs	r3, #0
 2051              	.LVL227:
 294:main.c        ****             }
 2052              		.loc 1 294 0
 2053 0eca 0122     		movs	r2, #1
 2054              	.LVL228:
 2055 0ecc 10E0     		b	.L34
 2056              	.L97:
 220:main.c        ****         
 2057              		.loc 1 220 0
 2058 0ece 0023     		movs	r3, #0
 217:main.c        ****         
 2059              		.loc 1 217 0
 2060 0ed0 1A46     		mov	r2, r3
 2061 0ed2 0DE0     		b	.L34
 2062              	.LVL229:
 2063              	.L98:
 220:main.c        ****         
 2064              		.loc 1 220 0
 2065 0ed4 0023     		movs	r3, #0
 357:main.c        ****                 break;
 2066              		.loc 1 357 0
 2067 0ed6 0122     		movs	r2, #1
ARM GAS  C:\Users\info\AppData\Local\Temp\ccHAj6Mv.s 			page 49


 2068              	.LVL230:
 2069 0ed8 0AE0     		b	.L34
 2070              	.LVL231:
 2071              	.L106:
 220:main.c        ****         
 2072              		.loc 1 220 0
 2073 0eda 0023     		movs	r3, #0
 2074              	.LVL232:
 402:main.c        ****                 break;
 2075              		.loc 1 402 0
 2076 0edc 0122     		movs	r2, #1
 2077              	.LVL233:
 2078 0ede 07E0     		b	.L34
 2079              	.L100:
 220:main.c        ****         
 2080              		.loc 1 220 0
 2081 0ee0 0023     		movs	r3, #0
 217:main.c        ****         
 2082              		.loc 1 217 0
 2083 0ee2 1A46     		mov	r2, r3
 2084 0ee4 04E0     		b	.L34
 2085              	.L101:
 220:main.c        ****         
 2086              		.loc 1 220 0
 2087 0ee6 0023     		movs	r3, #0
 217:main.c        ****         
 2088              		.loc 1 217 0
 2089 0ee8 1A46     		mov	r2, r3
 2090 0eea 01E0     		b	.L34
 2091              	.LVL234:
 2092              	.L102:
 220:main.c        ****         
 2093              		.loc 1 220 0
 2094 0eec 0023     		movs	r3, #0
 2095              	.LVL235:
 454:main.c        ****                 break;
 2096              		.loc 1 454 0
 2097 0eee 0122     		movs	r2, #1
 2098              	.LVL236:
 2099              	.L34:
 460:main.c        ****             break;
 461:main.c        ****         }
 462:main.c        ****         if (invalid_op) {
 2100              		.loc 1 462 0
 2101 0ef0 62B1     		cbz	r2, .L83
 2102              	.LVL237:
 2103              	.L84:
 463:main.c        ****             /* Halt and dump core if invalid instruction received */
 464:main.c        ****             while(1){
 465:main.c        ****                 pin_led_Write(1);
 2104              		.loc 1 465 0 discriminator 1
 2105 0ef2 0120     		movs	r0, #1
 2106 0ef4 FFF7FEFF 		bl	pin_led_Write
 2107              	.LVL238:
 466:main.c        ****                 CyDelay(100);
 2108              		.loc 1 466 0 discriminator 1
 2109 0ef8 6420     		movs	r0, #100
ARM GAS  C:\Users\info\AppData\Local\Temp\ccHAj6Mv.s 			page 50


 2110 0efa FFF7FEFF 		bl	CyDelay
 2111              	.LVL239:
 467:main.c        ****                 pin_led_Write(0);
 2112              		.loc 1 467 0 discriminator 1
 2113 0efe 0020     		movs	r0, #0
 2114 0f00 FFF7FEFF 		bl	pin_led_Write
 2115              	.LVL240:
 468:main.c        ****                 CyDelay(100);
 2116              		.loc 1 468 0 discriminator 1
 2117 0f04 6420     		movs	r0, #100
 2118 0f06 FFF7FEFF 		bl	CyDelay
 2119              	.LVL241:
 2120 0f0a F2E7     		b	.L84
 2121              	.LVL242:
 2122              	.L83:
 469:main.c        ****             }
 470:main.c        ****         }
 471:main.c        ****         if (!freeze_pc){
 2123              		.loc 1 471 0
 2124 0f0c 002B     		cmp	r3, #0
 2125 0f0e 7FF465AD 		bne	.L30
 472:main.c        ****             /* Increment PC */
 473:main.c        ****             pc += 2;
 2126              		.loc 1 473 0
 2127 0f12 0AF1020A 		add	r10, r10, #2
 2128              	.LVL243:
 2129 0f16 1FFA8AFA 		uxth	r10, r10
 2130              	.LVL244:
 2131 0f1a 5FE5     		b	.L30
 2132              	.L115:
 2133              		.align	2
 2134              	.L114:
 2135 0f1c 1F000080 		.word	-2147483617
 2136 0f20 00000000 		.word	vram
 2137 0f24 00000000 		.word	.LANCHOR2
 2138 0f28 1F85EB51 		.word	1374389535
 2139 0f2c CDCCCCCC 		.word	-858993459
 2140              	.LBE9:
 2141              		.cfi_endproc
 2142              	.LFE66:
 2143              		.size	main, .-main
 2144              		.global	tmr
 2145              		.global	snd
 2146              		.global	vga_update_flag
 2147              		.comm	dma_td,1,1
 2148              		.comm	dma_chan,1,1
 2149              		.global	vbuf
 2150              		.comm	vram,256,8
 2151              		.global	keyflag
 2152              		.global	lastkey
 2153              		.global	keys
 2154              		.data
 2155              		.align	2
 2156              		.set	.LANCHOR1,. + 0
 2157              		.type	vga_update_flag, %object
 2158              		.size	vga_update_flag, 4
 2159              	vga_update_flag:
ARM GAS  C:\Users\info\AppData\Local\Temp\ccHAj6Mv.s 			page 51


 2160 0000 01000000 		.word	1
 2161              		.section	.vram,"aw",%progbits
 2162              		.align	2
 2163              		.set	.LANCHOR0,. + 0
 2164              		.type	vbuf, %object
 2165              		.size	vbuf, 12288
 2166              	vbuf:
 2167 0000 00000000 		.space	12288
 2167      00000000 
 2167      00000000 
 2167      00000000 
 2167      00000000 
 2168              		.bss
 2169              		.align	2
 2170              		.set	.LANCHOR2,. + 0
 2171              		.type	snd, %object
 2172              		.size	snd, 1
 2173              	snd:
 2174 0000 00       		.space	1
 2175              		.type	tmr, %object
 2176              		.size	tmr, 1
 2177              	tmr:
 2178 0001 00       		.space	1
 2179 0002 0000     		.space	2
 2180              		.type	keys, %object
 2181              		.size	keys, 16
 2182              	keys:
 2183 0004 00000000 		.space	16
 2183      00000000 
 2183      00000000 
 2183      00000000 
 2184              		.type	keyflag, %object
 2185              		.size	keyflag, 1
 2186              	keyflag:
 2187 0014 00       		.space	1
 2188              		.type	lastkey, %object
 2189              		.size	lastkey, 1
 2190              	lastkey:
 2191 0015 00       		.space	1
 2192              		.text
 2193              	.Letext0:
 2194              		.file 2 "c:\\program files (x86)\\cypress\\psoc creator\\4.2\\psoc creator\\import\\gnu\\arm\\5.4.
 2195              		.file 3 "c:\\program files (x86)\\cypress\\psoc creator\\4.2\\psoc creator\\import\\gnu\\arm\\5.4.
 2196              		.file 4 "Generated_Source\\PSoC5/cytypes.h"
 2197              		.file 5 "Generated_Source\\PSoC5/CYDMAC.H"
 2198              		.file 6 "Generated_Source\\PSoC5/core_cm3.h"
 2199              		.file 7 "Generated_Source\\PSoC5/VERT.h"
 2200              		.file 8 "Generated_Source\\PSoC5/pin_snd.h"
 2201              		.file 9 "Generated_Source\\PSoC5/random.h"
 2202              		.file 10 "Generated_Source\\PSoC5/pin_led.h"
 2203              		.file 11 "Generated_Source\\PSoC5/CyLib.h"
 2204              		.file 12 "Generated_Source\\PSoC5/isr_timer.h"
 2205              		.file 13 "Generated_Source\\PSoC5/DMA_dma.h"
 2206              		.file 14 "Generated_Source\\PSoC5/HORIZ.h"
 2207              		.file 15 "Generated_Source\\PSoC5/HSYNC.h"
 2208              		.file 16 "Generated_Source\\PSoC5/VSYNC.h"
 2209              		.file 17 "Generated_Source\\PSoC5/NEWLINE.h"
ARM GAS  C:\Users\info\AppData\Local\Temp\ccHAj6Mv.s 			page 52


 2210              		.section	.debug_info,"",%progbits
 2211              	.Ldebug_info0:
 2212 0000 06080000 		.4byte	0x806
 2213 0004 0400     		.2byte	0x4
 2214 0006 00000000 		.4byte	.Ldebug_abbrev0
 2215 000a 04       		.byte	0x4
 2216 000b 01       		.uleb128 0x1
 2217 000c 7D030000 		.4byte	.LASF69
 2218 0010 0C       		.byte	0xc
 2219 0011 F4020000 		.4byte	.LASF70
 2220 0015 AA000000 		.4byte	.LASF71
 2221 0019 00010000 		.4byte	.Ldebug_ranges0+0x100
 2222 001d 00000000 		.4byte	0
 2223 0021 00000000 		.4byte	.Ldebug_line0
 2224 0025 02       		.uleb128 0x2
 2225 0026 01       		.byte	0x1
 2226 0027 06       		.byte	0x6
 2227 0028 F8010000 		.4byte	.LASF0
 2228 002c 03       		.uleb128 0x3
 2229 002d A4010000 		.4byte	.LASF3
 2230 0031 02       		.byte	0x2
 2231 0032 1D       		.byte	0x1d
 2232 0033 37000000 		.4byte	0x37
 2233 0037 02       		.uleb128 0x2
 2234 0038 01       		.byte	0x1
 2235 0039 08       		.byte	0x8
 2236 003a BE010000 		.4byte	.LASF1
 2237 003e 02       		.uleb128 0x2
 2238 003f 02       		.byte	0x2
 2239 0040 05       		.byte	0x5
 2240 0041 67000000 		.4byte	.LASF2
 2241 0045 03       		.uleb128 0x3
 2242 0046 14010000 		.4byte	.LASF4
 2243 004a 02       		.byte	0x2
 2244 004b 2B       		.byte	0x2b
 2245 004c 50000000 		.4byte	0x50
 2246 0050 02       		.uleb128 0x2
 2247 0051 02       		.byte	0x2
 2248 0052 07       		.byte	0x7
 2249 0053 65020000 		.4byte	.LASF5
 2250 0057 03       		.uleb128 0x3
 2251 0058 4A030000 		.4byte	.LASF6
 2252 005c 02       		.byte	0x2
 2253 005d 3F       		.byte	0x3f
 2254 005e 62000000 		.4byte	0x62
 2255 0062 02       		.uleb128 0x2
 2256 0063 04       		.byte	0x4
 2257 0064 05       		.byte	0x5
 2258 0065 9D020000 		.4byte	.LASF7
 2259 0069 02       		.uleb128 0x2
 2260 006a 04       		.byte	0x4
 2261 006b 07       		.byte	0x7
 2262 006c 00030000 		.4byte	.LASF8
 2263 0070 02       		.uleb128 0x2
 2264 0071 08       		.byte	0x8
 2265 0072 05       		.byte	0x5
 2266 0073 68010000 		.4byte	.LASF9
ARM GAS  C:\Users\info\AppData\Local\Temp\ccHAj6Mv.s 			page 53


 2267 0077 03       		.uleb128 0x3
 2268 0078 CB020000 		.4byte	.LASF10
 2269 007c 02       		.byte	0x2
 2270 007d 5B       		.byte	0x5b
 2271 007e 82000000 		.4byte	0x82
 2272 0082 02       		.uleb128 0x2
 2273 0083 08       		.byte	0x8
 2274 0084 07       		.byte	0x7
 2275 0085 76010000 		.4byte	.LASF11
 2276 0089 04       		.uleb128 0x4
 2277 008a 04       		.byte	0x4
 2278 008b 05       		.byte	0x5
 2279 008c 696E7400 		.ascii	"int\000"
 2280 0090 02       		.uleb128 0x2
 2281 0091 04       		.byte	0x4
 2282 0092 07       		.byte	0x7
 2283 0093 0C020000 		.4byte	.LASF12
 2284 0097 03       		.uleb128 0x3
 2285 0098 4F010000 		.4byte	.LASF13
 2286 009c 03       		.byte	0x3
 2287 009d 18       		.byte	0x18
 2288 009e 2C000000 		.4byte	0x2c
 2289 00a2 03       		.uleb128 0x3
 2290 00a3 94020000 		.4byte	.LASF14
 2291 00a7 03       		.byte	0x3
 2292 00a8 24       		.byte	0x24
 2293 00a9 45000000 		.4byte	0x45
 2294 00ad 03       		.uleb128 0x3
 2295 00ae AB020000 		.4byte	.LASF15
 2296 00b2 03       		.byte	0x3
 2297 00b3 2C       		.byte	0x2c
 2298 00b4 57000000 		.4byte	0x57
 2299 00b8 03       		.uleb128 0x3
 2300 00b9 5E000000 		.4byte	.LASF16
 2301 00bd 03       		.byte	0x3
 2302 00be 3C       		.byte	0x3c
 2303 00bf 77000000 		.4byte	0x77
 2304 00c3 05       		.uleb128 0x5
 2305 00c4 57010000 		.4byte	.LASF17
 2306 00c8 04       		.byte	0x4
 2307 00c9 E401     		.2byte	0x1e4
 2308 00cb 37000000 		.4byte	0x37
 2309 00cf 05       		.uleb128 0x5
 2310 00d0 48010000 		.4byte	.LASF18
 2311 00d4 04       		.byte	0x4
 2312 00d5 E501     		.2byte	0x1e5
 2313 00d7 50000000 		.4byte	0x50
 2314 00db 05       		.uleb128 0x5
 2315 00dc ED020000 		.4byte	.LASF19
 2316 00e0 04       		.byte	0x4
 2317 00e1 E601     		.2byte	0x1e6
 2318 00e3 69000000 		.4byte	0x69
 2319 00e7 02       		.uleb128 0x2
 2320 00e8 04       		.byte	0x4
 2321 00e9 04       		.byte	0x4
 2322 00ea 62010000 		.4byte	.LASF20
 2323 00ee 02       		.uleb128 0x2
ARM GAS  C:\Users\info\AppData\Local\Temp\ccHAj6Mv.s 			page 54


 2324 00ef 08       		.byte	0x8
 2325 00f0 04       		.byte	0x4
 2326 00f1 12030000 		.4byte	.LASF21
 2327 00f5 02       		.uleb128 0x2
 2328 00f6 01       		.byte	0x1
 2329 00f7 08       		.byte	0x8
 2330 00f8 8F020000 		.4byte	.LASF22
 2331 00fc 05       		.uleb128 0x5
 2332 00fd FB020000 		.4byte	.LASF23
 2333 0101 04       		.byte	0x4
 2334 0102 8E02     		.2byte	0x28e
 2335 0104 08010000 		.4byte	0x108
 2336 0108 06       		.uleb128 0x6
 2337 0109 C3000000 		.4byte	0xc3
 2338 010d 05       		.uleb128 0x5
 2339 010e 58000000 		.4byte	.LASF24
 2340 0112 04       		.byte	0x4
 2341 0113 8F02     		.2byte	0x28f
 2342 0115 19010000 		.4byte	0x119
 2343 0119 06       		.uleb128 0x6
 2344 011a CF000000 		.4byte	0xcf
 2345 011e 02       		.uleb128 0x2
 2346 011f 08       		.byte	0x8
 2347 0120 04       		.byte	0x4
 2348 0121 9E000000 		.4byte	.LASF25
 2349 0125 02       		.uleb128 0x2
 2350 0126 04       		.byte	0x4
 2351 0127 07       		.byte	0x7
 2352 0128 61030000 		.4byte	.LASF26
 2353 012c 07       		.uleb128 0x7
 2354 012d 08010000 		.4byte	0x108
 2355 0131 3C010000 		.4byte	0x13c
 2356 0135 08       		.uleb128 0x8
 2357 0136 25010000 		.4byte	0x125
 2358 013a 03       		.byte	0x3
 2359 013b 00       		.byte	0
 2360 013c 09       		.uleb128 0x9
 2361 013d 10000000 		.4byte	.LASF72
 2362 0141 08       		.byte	0x8
 2363 0142 05       		.byte	0x5
 2364 0143 59       		.byte	0x59
 2365 0144 61010000 		.4byte	0x161
 2366 0148 0A       		.uleb128 0xa
 2367 0149 54443000 		.ascii	"TD0\000"
 2368 014d 05       		.byte	0x5
 2369 014e 5B       		.byte	0x5b
 2370 014f 61010000 		.4byte	0x161
 2371 0153 00       		.byte	0
 2372 0154 0A       		.uleb128 0xa
 2373 0155 54443100 		.ascii	"TD1\000"
 2374 0159 05       		.byte	0x5
 2375 015a 5C       		.byte	0x5c
 2376 015b 66010000 		.4byte	0x166
 2377 015f 04       		.byte	0x4
 2378 0160 00       		.byte	0
 2379 0161 06       		.uleb128 0x6
 2380 0162 2C010000 		.4byte	0x12c
ARM GAS  C:\Users\info\AppData\Local\Temp\ccHAj6Mv.s 			page 55


 2381 0166 06       		.uleb128 0x6
 2382 0167 2C010000 		.4byte	0x12c
 2383 016b 03       		.uleb128 0x3
 2384 016c 4C020000 		.4byte	.LASF27
 2385 0170 05       		.byte	0x5
 2386 0171 5E       		.byte	0x5e
 2387 0172 3C010000 		.4byte	0x13c
 2388 0176 0B       		.uleb128 0xb
 2389 0177 8D010000 		.4byte	.LASF30
 2390 017b 01       		.byte	0x1
 2391 017c 65       		.byte	0x65
 2392 017d 00000000 		.4byte	.LFB63
 2393 0181 E0000000 		.4byte	.LFE63-.LFB63
 2394 0185 01       		.uleb128 0x1
 2395 0186 9C       		.byte	0x9c
 2396 0187 FB010000 		.4byte	0x1fb
 2397 018b 0C       		.uleb128 0xc
 2398 018c 5D010000 		.4byte	.LASF28
 2399 0190 01       		.byte	0x1
 2400 0191 66       		.byte	0x66
 2401 0192 CF000000 		.4byte	0xcf
 2402 0196 00000000 		.4byte	.LLST0
 2403 019a 0D       		.uleb128 0xd
 2404 019b 00000000 		.4byte	.Ldebug_ranges0+0
 2405 019f D9010000 		.4byte	0x1d9
 2406 01a3 0C       		.uleb128 0xc
 2407 01a4 B3020000 		.4byte	.LASF29
 2408 01a8 01       		.byte	0x1
 2409 01a9 6F       		.byte	0x6f
 2410 01aa 97000000 		.4byte	0x97
 2411 01ae 1E000000 		.4byte	.LLST1
 2412 01b2 0E       		.uleb128 0xe
 2413 01b3 18000000 		.4byte	.Ldebug_ranges0+0x18
 2414 01b7 0F       		.uleb128 0xf
 2415 01b8 7800     		.ascii	"x\000"
 2416 01ba 01       		.byte	0x1
 2417 01bb 70       		.byte	0x70
 2418 01bc 97000000 		.4byte	0x97
 2419 01c0 47000000 		.4byte	.LLST2
 2420 01c4 0E       		.uleb128 0xe
 2421 01c5 30000000 		.4byte	.Ldebug_ranges0+0x30
 2422 01c9 0F       		.uleb128 0xf
 2423 01ca 7900     		.ascii	"y\000"
 2424 01cc 01       		.byte	0x1
 2425 01cd 71       		.byte	0x71
 2426 01ce 97000000 		.4byte	0x97
 2427 01d2 70000000 		.4byte	.LLST3
 2428 01d6 00       		.byte	0
 2429 01d7 00       		.byte	0
 2430 01d8 00       		.byte	0
 2431 01d9 10       		.uleb128 0x10
 2432 01da 06000000 		.4byte	.LVL0
 2433 01de 19070000 		.4byte	0x719
 2434 01e2 10       		.uleb128 0x10
 2435 01e3 4C000000 		.4byte	.LVL5
 2436 01e7 24070000 		.4byte	0x724
 2437 01eb 11       		.uleb128 0x11
ARM GAS  C:\Users\info\AppData\Local\Temp\ccHAj6Mv.s 			page 56


 2438 01ec C8000000 		.4byte	.LVL20
 2439 01f0 2F070000 		.4byte	0x72f
 2440 01f4 12       		.uleb128 0x12
 2441 01f5 01       		.uleb128 0x1
 2442 01f6 51       		.byte	0x51
 2443 01f7 01       		.uleb128 0x1
 2444 01f8 31       		.byte	0x31
 2445 01f9 00       		.byte	0
 2446 01fa 00       		.byte	0
 2447 01fb 0B       		.uleb128 0xb
 2448 01fc 13040000 		.4byte	.LASF31
 2449 0200 01       		.byte	0x1
 2450 0201 90       		.byte	0x90
 2451 0202 00000000 		.4byte	.LFB65
 2452 0206 34000000 		.4byte	.LFE65-.LFB65
 2453 020a 01       		.uleb128 0x1
 2454 020b 9C       		.byte	0x9c
 2455 020c 33020000 		.4byte	0x233
 2456 0210 13       		.uleb128 0x13
 2457 0211 24000000 		.4byte	.LVL21
 2458 0215 3A070000 		.4byte	0x73a
 2459 0219 23020000 		.4byte	0x223
 2460 021d 12       		.uleb128 0x12
 2461 021e 01       		.uleb128 0x1
 2462 021f 50       		.byte	0x50
 2463 0220 01       		.uleb128 0x1
 2464 0221 31       		.byte	0x31
 2465 0222 00       		.byte	0
 2466 0223 11       		.uleb128 0x11
 2467 0224 2C000000 		.4byte	.LVL22
 2468 0228 3A070000 		.4byte	0x73a
 2469 022c 12       		.uleb128 0x12
 2470 022d 01       		.uleb128 0x1
 2471 022e 50       		.byte	0x50
 2472 022f 01       		.uleb128 0x1
 2473 0230 30       		.byte	0x30
 2474 0231 00       		.byte	0
 2475 0232 00       		.byte	0
 2476 0233 14       		.uleb128 0x14
 2477 0234 E2020000 		.4byte	.LASF73
 2478 0238 01       		.byte	0x1
 2479 0239 85       		.byte	0x85
 2480 023a 00000000 		.4byte	.LFB64
 2481 023e 14000000 		.4byte	.LFE64-.LFB64
 2482 0242 01       		.uleb128 0x1
 2483 0243 9C       		.byte	0x9c
 2484 0244 15       		.uleb128 0x15
 2485 0245 A6020000 		.4byte	.LASF74
 2486 0249 01       		.byte	0x1
 2487 024a 9A       		.byte	0x9a
 2488 024b 89000000 		.4byte	0x89
 2489 024f 00000000 		.4byte	.LFB66
 2490 0253 300F0000 		.4byte	.LFE66-.LFB66
 2491 0257 01       		.uleb128 0x1
 2492 0258 9C       		.byte	0x9c
 2493 0259 02060000 		.4byte	0x602
 2494 025d 16       		.uleb128 0x16
ARM GAS  C:\Users\info\AppData\Local\Temp\ccHAj6Mv.s 			page 57


 2495 025e 72616D00 		.ascii	"ram\000"
 2496 0262 01       		.byte	0x1
 2497 0263 B3       		.byte	0xb3
 2498 0264 02060000 		.4byte	0x602
 2499 0268 03       		.uleb128 0x3
 2500 0269 91       		.byte	0x91
 2501 026a D85F     		.sleb128 -4136
 2502 026c 16       		.uleb128 0x16
 2503 026d 7600     		.ascii	"v\000"
 2504 026f 01       		.byte	0x1
 2505 0270 B6       		.byte	0xb6
 2506 0271 13060000 		.4byte	0x613
 2507 0275 03       		.uleb128 0x3
 2508 0276 91       		.byte	0x91
 2509 0277 C85F     		.sleb128 -4152
 2510 0279 0F       		.uleb128 0xf
 2511 027a 6900     		.ascii	"i\000"
 2512 027c 01       		.byte	0x1
 2513 027d B7       		.byte	0xb7
 2514 027e A2000000 		.4byte	0xa2
 2515 0282 99000000 		.4byte	.LLST4
 2516 0286 0F       		.uleb128 0xf
 2517 0287 706300   		.ascii	"pc\000"
 2518 028a 01       		.byte	0x1
 2519 028b B8       		.byte	0xb8
 2520 028c A2000000 		.4byte	0xa2
 2521 0290 E4000000 		.4byte	.LLST5
 2522 0294 0F       		.uleb128 0xf
 2523 0295 737000   		.ascii	"sp\000"
 2524 0298 01       		.byte	0x1
 2525 0299 B9       		.byte	0xb9
 2526 029a 97000000 		.4byte	0x97
 2527 029e A4010000 		.4byte	.LLST6
 2528 02a2 17       		.uleb128 0x17
 2529 02a3 37020000 		.4byte	.LASF32
 2530 02a7 01       		.byte	0x1
 2531 02a8 BA       		.byte	0xba
 2532 02a9 23060000 		.4byte	0x623
 2533 02ad 03       		.uleb128 0x3
 2534 02ae 91       		.byte	0x91
 2535 02af A85F     		.sleb128 -4184
 2536 02b1 18       		.uleb128 0x18
 2537 02b2 AC090000 		.4byte	.LBB8
 2538 02b6 1A000000 		.4byte	.LBE8-.LBB8
 2539 02ba CC020000 		.4byte	0x2cc
 2540 02be 0F       		.uleb128 0xf
 2541 02bf 6A00     		.ascii	"j\000"
 2542 02c1 01       		.byte	0x1
 2543 02c2 BD       		.byte	0xbd
 2544 02c3 97000000 		.4byte	0x97
 2545 02c7 EF010000 		.4byte	.LLST7
 2546 02cb 00       		.byte	0
 2547 02cc 18       		.uleb128 0x18
 2548 02cd DC090000 		.4byte	.LBB9
 2549 02d1 54050000 		.4byte	.LBE9-.LBB9
 2550 02d5 D5040000 		.4byte	0x4d5
 2551 02d9 0C       		.uleb128 0xc
ARM GAS  C:\Users\info\AppData\Local\Temp\ccHAj6Mv.s 			page 58


 2552 02da EB010000 		.4byte	.LASF33
 2553 02de 01       		.byte	0x1
 2554 02df C9       		.byte	0xc9
 2555 02e0 A2000000 		.4byte	0xa2
 2556 02e4 19020000 		.4byte	.LLST8
 2557 02e8 0F       		.uleb128 0xf
 2558 02e9 6F703300 		.ascii	"op3\000"
 2559 02ed 01       		.byte	0x1
 2560 02ee CC       		.byte	0xcc
 2561 02ef 97000000 		.4byte	0x97
 2562 02f3 82060000 		.4byte	.LLST9
 2563 02f7 0F       		.uleb128 0xf
 2564 02f8 6F703200 		.ascii	"op2\000"
 2565 02fc 01       		.byte	0x1
 2566 02fd CD       		.byte	0xcd
 2567 02fe 97000000 		.4byte	0x97
 2568 0302 CD100000 		.4byte	.LLST10
 2569 0306 0C       		.uleb128 0xc
 2570 0307 89000000 		.4byte	.LASF34
 2571 030b 01       		.byte	0x1
 2572 030c CE       		.byte	0xce
 2573 030d 97000000 		.4byte	0x97
 2574 0311 1B110000 		.4byte	.LLST11
 2575 0315 16       		.uleb128 0x16
 2576 0316 6F703000 		.ascii	"op0\000"
 2577 031a 01       		.byte	0x1
 2578 031b CF       		.byte	0xcf
 2579 031c 97000000 		.4byte	0x97
 2580 0320 01       		.uleb128 0x1
 2581 0321 57       		.byte	0x57
 2582 0322 0F       		.uleb128 0xf
 2583 0323 6E6E6E00 		.ascii	"nnn\000"
 2584 0327 01       		.byte	0x1
 2585 0328 D2       		.byte	0xd2
 2586 0329 A2000000 		.4byte	0xa2
 2587 032d 74120000 		.4byte	.LLST12
 2588 0331 0F       		.uleb128 0xf
 2589 0332 7800     		.ascii	"x\000"
 2590 0334 01       		.byte	0x1
 2591 0335 D3       		.byte	0xd3
 2592 0336 97000000 		.4byte	0x97
 2593 033a E61B0000 		.4byte	.LLST13
 2594 033e 0F       		.uleb128 0xf
 2595 033f 7900     		.ascii	"y\000"
 2596 0341 01       		.byte	0x1
 2597 0342 D4       		.byte	0xd4
 2598 0343 97000000 		.4byte	0x97
 2599 0347 341C0000 		.4byte	.LLST14
 2600 034b 0F       		.uleb128 0xf
 2601 034c 6B6B00   		.ascii	"kk\000"
 2602 034f 01       		.byte	0x1
 2603 0350 D5       		.byte	0xd5
 2604 0351 97000000 		.4byte	0x97
 2605 0355 521C0000 		.4byte	.LLST15
 2606 0359 16       		.uleb128 0x16
 2607 035a 6E00     		.ascii	"n\000"
 2608 035c 01       		.byte	0x1
ARM GAS  C:\Users\info\AppData\Local\Temp\ccHAj6Mv.s 			page 59


 2609 035d D6       		.byte	0xd6
 2610 035e 97000000 		.4byte	0x97
 2611 0362 01       		.uleb128 0x1
 2612 0363 57       		.byte	0x57
 2613 0364 0C       		.uleb128 0xc
 2614 0365 78020000 		.4byte	.LASF35
 2615 0369 01       		.byte	0x1
 2616 036a D9       		.byte	0xd9
 2617 036b 97000000 		.4byte	0x97
 2618 036f AB1D0000 		.4byte	.LLST16
 2619 0373 0C       		.uleb128 0xc
 2620 0374 40030000 		.4byte	.LASF36
 2621 0378 01       		.byte	0x1
 2622 0379 DC       		.byte	0xdc
 2623 037a 97000000 		.4byte	0x97
 2624 037e D51D0000 		.4byte	.LLST17
 2625 0382 0D       		.uleb128 0xd
 2626 0383 48000000 		.4byte	.Ldebug_ranges0+0x48
 2627 0387 99030000 		.4byte	0x399
 2628 038b 0F       		.uleb128 0xf
 2629 038c 6A00     		.ascii	"j\000"
 2630 038e 01       		.byte	0x1
 2631 038f E8       		.byte	0xe8
 2632 0390 89000000 		.4byte	0x89
 2633 0394 2F1E0000 		.4byte	.LLST18
 2634 0398 00       		.byte	0
 2635 0399 0D       		.uleb128 0xd
 2636 039a 60000000 		.4byte	.Ldebug_ranges0+0x60
 2637 039e D1030000 		.4byte	0x3d1
 2638 03a2 19       		.uleb128 0x19
 2639 03a3 767800   		.ascii	"vx\000"
 2640 03a6 01       		.byte	0x1
 2641 03a7 4A01     		.2byte	0x14a
 2642 03a9 A2000000 		.4byte	0xa2
 2643 03ad 4D1E0000 		.4byte	.LLST19
 2644 03b1 19       		.uleb128 0x19
 2645 03b2 767900   		.ascii	"vy\000"
 2646 03b5 01       		.byte	0x1
 2647 03b6 4B01     		.2byte	0x14b
 2648 03b8 A2000000 		.4byte	0xa2
 2649 03bc 601E0000 		.4byte	.LLST20
 2650 03c0 1A       		.uleb128 0x1a
 2651 03c1 47000000 		.4byte	.LASF37
 2652 03c5 01       		.byte	0x1
 2653 03c6 4C01     		.2byte	0x14c
 2654 03c8 A2000000 		.4byte	0xa2
 2655 03cc 731E0000 		.4byte	.LLST21
 2656 03d0 00       		.byte	0
 2657 03d1 0D       		.uleb128 0xd
 2658 03d2 78000000 		.4byte	.Ldebug_ranges0+0x78
 2659 03d6 09040000 		.4byte	0x409
 2660 03da 19       		.uleb128 0x19
 2661 03db 767800   		.ascii	"vx\000"
 2662 03de 01       		.byte	0x1
 2663 03df 5801     		.2byte	0x158
 2664 03e1 A2000000 		.4byte	0xa2
 2665 03e5 961E0000 		.4byte	.LLST22
ARM GAS  C:\Users\info\AppData\Local\Temp\ccHAj6Mv.s 			page 60


 2666 03e9 19       		.uleb128 0x19
 2667 03ea 767900   		.ascii	"vy\000"
 2668 03ed 01       		.byte	0x1
 2669 03ee 5901     		.2byte	0x159
 2670 03f0 A2000000 		.4byte	0xa2
 2671 03f4 A91E0000 		.4byte	.LLST23
 2672 03f8 1A       		.uleb128 0x1a
 2673 03f9 47000000 		.4byte	.LASF37
 2674 03fd 01       		.byte	0x1
 2675 03fe 5A01     		.2byte	0x15a
 2676 0400 A2000000 		.4byte	0xa2
 2677 0404 BC1E0000 		.4byte	.LLST24
 2678 0408 00       		.byte	0
 2679 0409 0D       		.uleb128 0xd
 2680 040a 90000000 		.4byte	.Ldebug_ranges0+0x90
 2681 040e 51040000 		.4byte	0x451
 2682 0412 1A       		.uleb128 0x1a
 2683 0413 2A010000 		.4byte	.LASF38
 2684 0417 01       		.byte	0x1
 2685 0418 7201     		.2byte	0x172
 2686 041a B8000000 		.4byte	0xb8
 2687 041e DF1E0000 		.4byte	.LLST25
 2688 0422 0E       		.uleb128 0xe
 2689 0423 B0000000 		.4byte	.Ldebug_ranges0+0xb0
 2690 0427 19       		.uleb128 0x19
 2691 0428 6A00     		.ascii	"j\000"
 2692 042a 01       		.byte	0x1
 2693 042b 7401     		.2byte	0x174
 2694 042d 89000000 		.4byte	0x89
 2695 0431 1E1F0000 		.4byte	.LLST26
 2696 0435 1B       		.uleb128 0x1b
 2697 0436 260C0000 		.4byte	.LBB18
 2698 043a D2000000 		.4byte	.LBE18-.LBB18
 2699 043e 19       		.uleb128 0x19
 2700 043f 726F7700 		.ascii	"row\000"
 2701 0443 01       		.byte	0x1
 2702 0444 7501     		.2byte	0x175
 2703 0446 B8000000 		.4byte	0xb8
 2704 044a 3C1F0000 		.4byte	.LLST27
 2705 044e 00       		.byte	0
 2706 044f 00       		.byte	0
 2707 0450 00       		.byte	0
 2708 0451 0D       		.uleb128 0xd
 2709 0452 C8000000 		.4byte	.Ldebug_ranges0+0xc8
 2710 0456 69040000 		.4byte	0x469
 2711 045a 19       		.uleb128 0x19
 2712 045b 6A00     		.ascii	"j\000"
 2713 045d 01       		.byte	0x1
 2714 045e BB01     		.2byte	0x1bb
 2715 0460 97000000 		.4byte	0x97
 2716 0464 8C1F0000 		.4byte	.LLST28
 2717 0468 00       		.byte	0
 2718 0469 0D       		.uleb128 0xd
 2719 046a E0000000 		.4byte	.Ldebug_ranges0+0xe0
 2720 046e 81040000 		.4byte	0x481
 2721 0472 19       		.uleb128 0x19
 2722 0473 6A00     		.ascii	"j\000"
ARM GAS  C:\Users\info\AppData\Local\Temp\ccHAj6Mv.s 			page 61


 2723 0475 01       		.byte	0x1
 2724 0476 C101     		.2byte	0x1c1
 2725 0478 97000000 		.4byte	0x97
 2726 047c B51F0000 		.4byte	.LLST29
 2727 0480 00       		.byte	0
 2728 0481 10       		.uleb128 0x10
 2729 0482 1A0C0000 		.4byte	.LVL134
 2730 0486 45070000 		.4byte	0x745
 2731 048a 13       		.uleb128 0x13
 2732 048b F80E0000 		.4byte	.LVL238
 2733 048f 50070000 		.4byte	0x750
 2734 0493 9D040000 		.4byte	0x49d
 2735 0497 12       		.uleb128 0x12
 2736 0498 01       		.uleb128 0x1
 2737 0499 50       		.byte	0x50
 2738 049a 01       		.uleb128 0x1
 2739 049b 31       		.byte	0x31
 2740 049c 00       		.byte	0
 2741 049d 13       		.uleb128 0x13
 2742 049e FE0E0000 		.4byte	.LVL239
 2743 04a2 5B070000 		.4byte	0x75b
 2744 04a6 B1040000 		.4byte	0x4b1
 2745 04aa 12       		.uleb128 0x12
 2746 04ab 01       		.uleb128 0x1
 2747 04ac 50       		.byte	0x50
 2748 04ad 02       		.uleb128 0x2
 2749 04ae 08       		.byte	0x8
 2750 04af 64       		.byte	0x64
 2751 04b0 00       		.byte	0
 2752 04b1 13       		.uleb128 0x13
 2753 04b2 040F0000 		.4byte	.LVL240
 2754 04b6 50070000 		.4byte	0x750
 2755 04ba C4040000 		.4byte	0x4c4
 2756 04be 12       		.uleb128 0x12
 2757 04bf 01       		.uleb128 0x1
 2758 04c0 50       		.byte	0x50
 2759 04c1 01       		.uleb128 0x1
 2760 04c2 30       		.byte	0x30
 2761 04c3 00       		.byte	0
 2762 04c4 11       		.uleb128 0x11
 2763 04c5 0A0F0000 		.4byte	.LVL241
 2764 04c9 5B070000 		.4byte	0x75b
 2765 04cd 12       		.uleb128 0x12
 2766 04ce 01       		.uleb128 0x1
 2767 04cf 50       		.byte	0x50
 2768 04d0 02       		.uleb128 0x2
 2769 04d1 08       		.byte	0x8
 2770 04d2 64       		.byte	0x64
 2771 04d3 00       		.byte	0
 2772 04d4 00       		.byte	0
 2773 04d5 13       		.uleb128 0x13
 2774 04d6 10000000 		.4byte	.LVL23
 2775 04da 66070000 		.4byte	0x766
 2776 04de EC040000 		.4byte	0x4ec
 2777 04e2 12       		.uleb128 0x12
 2778 04e3 01       		.uleb128 0x1
 2779 04e4 50       		.byte	0x50
ARM GAS  C:\Users\info\AppData\Local\Temp\ccHAj6Mv.s 			page 62


 2780 04e5 05       		.uleb128 0x5
 2781 04e6 03       		.byte	0x3
 2782 04e7 00000000 		.4byte	isr_tmr_handler
 2783 04eb 00       		.byte	0
 2784 04ec 10       		.uleb128 0x10
 2785 04ed 14000000 		.4byte	.LVL24
 2786 04f1 71070000 		.4byte	0x771
 2787 04f5 13       		.uleb128 0x13
 2788 04f6 28000000 		.4byte	.LVL25
 2789 04fa 7C070000 		.4byte	0x77c
 2790 04fe 1B050000 		.4byte	0x51b
 2791 0502 12       		.uleb128 0x12
 2792 0503 01       		.uleb128 0x1
 2793 0504 50       		.byte	0x50
 2794 0505 01       		.uleb128 0x1
 2795 0506 31       		.byte	0x31
 2796 0507 12       		.uleb128 0x12
 2797 0508 01       		.uleb128 0x1
 2798 0509 51       		.byte	0x51
 2799 050a 01       		.uleb128 0x1
 2800 050b 30       		.byte	0x30
 2801 050c 12       		.uleb128 0x12
 2802 050d 01       		.uleb128 0x1
 2803 050e 52       		.byte	0x52
 2804 050f 03       		.uleb128 0x3
 2805 0510 0A       		.byte	0xa
 2806 0511 FF1F     		.2byte	0x1fff
 2807 0513 12       		.uleb128 0x12
 2808 0514 01       		.uleb128 0x1
 2809 0515 53       		.byte	0x53
 2810 0516 03       		.uleb128 0x3
 2811 0517 0A       		.byte	0xa
 2812 0518 0040     		.2byte	0x4000
 2813 051a 00       		.byte	0
 2814 051b 13       		.uleb128 0x13
 2815 051c 38000000 		.4byte	.LVL26
 2816 0520 87070000 		.4byte	0x787
 2817 0524 34050000 		.4byte	0x534
 2818 0528 12       		.uleb128 0x12
 2819 0529 01       		.uleb128 0x1
 2820 052a 51       		.byte	0x51
 2821 052b 02       		.uleb128 0x2
 2822 052c 08       		.byte	0x8
 2823 052d 80       		.byte	0x80
 2824 052e 12       		.uleb128 0x12
 2825 052f 01       		.uleb128 0x1
 2826 0530 53       		.byte	0x53
 2827 0531 01       		.uleb128 0x1
 2828 0532 35       		.byte	0x35
 2829 0533 00       		.byte	0
 2830 0534 13       		.uleb128 0x13
 2831 0535 44000000 		.4byte	.LVL27
 2832 0539 92070000 		.4byte	0x792
 2833 053d 4E050000 		.4byte	0x54e
 2834 0541 12       		.uleb128 0x12
 2835 0542 01       		.uleb128 0x1
 2836 0543 51       		.byte	0x51
ARM GAS  C:\Users\info\AppData\Local\Temp\ccHAj6Mv.s 			page 63


 2837 0544 01       		.uleb128 0x1
 2838 0545 30       		.byte	0x30
 2839 0546 12       		.uleb128 0x12
 2840 0547 01       		.uleb128 0x1
 2841 0548 52       		.byte	0x52
 2842 0549 03       		.uleb128 0x3
 2843 054a 0A       		.byte	0xa
 2844 054b 7F64     		.2byte	0x647f
 2845 054d 00       		.byte	0
 2846 054e 10       		.uleb128 0x10
 2847 054f 4C000000 		.4byte	.LVL28
 2848 0553 9D070000 		.4byte	0x79d
 2849 0557 13       		.uleb128 0x13
 2850 0558 54000000 		.4byte	.LVL29
 2851 055c 2F070000 		.4byte	0x72f
 2852 0560 6A050000 		.4byte	0x56a
 2853 0564 12       		.uleb128 0x12
 2854 0565 01       		.uleb128 0x1
 2855 0566 51       		.byte	0x51
 2856 0567 01       		.uleb128 0x1
 2857 0568 31       		.byte	0x31
 2858 0569 00       		.byte	0
 2859 056a 10       		.uleb128 0x10
 2860 056b 58000000 		.4byte	.LVL30
 2861 056f A8070000 		.4byte	0x7a8
 2862 0573 10       		.uleb128 0x10
 2863 0574 5C000000 		.4byte	.LVL31
 2864 0578 B3070000 		.4byte	0x7b3
 2865 057c 10       		.uleb128 0x10
 2866 057d 60000000 		.4byte	.LVL32
 2867 0581 BE070000 		.4byte	0x7be
 2868 0585 10       		.uleb128 0x10
 2869 0586 64000000 		.4byte	.LVL33
 2870 058a C9070000 		.4byte	0x7c9
 2871 058e 13       		.uleb128 0x13
 2872 058f 6A000000 		.4byte	.LVL34
 2873 0593 D4070000 		.4byte	0x7d4
 2874 0597 A5050000 		.4byte	0x5a5
 2875 059b 12       		.uleb128 0x12
 2876 059c 01       		.uleb128 0x1
 2877 059d 50       		.byte	0x50
 2878 059e 05       		.uleb128 0x5
 2879 059f 03       		.byte	0x3
 2880 05a0 00000000 		.4byte	newline
 2881 05a4 00       		.byte	0
 2882 05a5 13       		.uleb128 0x13
 2883 05a6 78000000 		.4byte	.LVL35
 2884 05aa DF070000 		.4byte	0x7df
 2885 05ae C6050000 		.4byte	0x5c6
 2886 05b2 12       		.uleb128 0x12
 2887 05b3 01       		.uleb128 0x1
 2888 05b4 50       		.byte	0x50
 2889 05b5 03       		.uleb128 0x3
 2890 05b6 91       		.byte	0x91
 2891 05b7 D85F     		.sleb128 -4136
 2892 05b9 12       		.uleb128 0x12
 2893 05ba 01       		.uleb128 0x1
ARM GAS  C:\Users\info\AppData\Local\Temp\ccHAj6Mv.s 			page 64


 2894 05bb 51       		.byte	0x51
 2895 05bc 01       		.uleb128 0x1
 2896 05bd 30       		.byte	0x30
 2897 05be 12       		.uleb128 0x12
 2898 05bf 01       		.uleb128 0x1
 2899 05c0 52       		.byte	0x52
 2900 05c1 03       		.uleb128 0x3
 2901 05c2 0A       		.byte	0xa
 2902 05c3 0010     		.2byte	0x1000
 2903 05c5 00       		.byte	0
 2904 05c6 13       		.uleb128 0x13
 2905 05c7 AC090000 		.4byte	.LVL37
 2906 05cb DF070000 		.4byte	0x7df
 2907 05cf E6050000 		.4byte	0x5e6
 2908 05d3 12       		.uleb128 0x12
 2909 05d4 01       		.uleb128 0x1
 2910 05d5 50       		.byte	0x50
 2911 05d6 03       		.uleb128 0x3
 2912 05d7 91       		.byte	0x91
 2913 05d8 A85F     		.sleb128 -4184
 2914 05da 12       		.uleb128 0x12
 2915 05db 01       		.uleb128 0x1
 2916 05dc 51       		.byte	0x51
 2917 05dd 01       		.uleb128 0x1
 2918 05de 30       		.byte	0x30
 2919 05df 12       		.uleb128 0x12
 2920 05e0 01       		.uleb128 0x1
 2921 05e1 52       		.byte	0x52
 2922 05e2 02       		.uleb128 0x2
 2923 05e3 74       		.byte	0x74
 2924 05e4 00       		.sleb128 0
 2925 05e5 00       		.byte	0
 2926 05e6 10       		.uleb128 0x10
 2927 05e7 CA090000 		.4byte	.LVL41
 2928 05eb E8070000 		.4byte	0x7e8
 2929 05ef 10       		.uleb128 0x10
 2930 05f0 CE090000 		.4byte	.LVL42
 2931 05f4 F3070000 		.4byte	0x7f3
 2932 05f8 10       		.uleb128 0x10
 2933 05f9 D2090000 		.4byte	.LVL43
 2934 05fd FE070000 		.4byte	0x7fe
 2935 0601 00       		.byte	0
 2936 0602 07       		.uleb128 0x7
 2937 0603 97000000 		.4byte	0x97
 2938 0607 13060000 		.4byte	0x613
 2939 060b 1C       		.uleb128 0x1c
 2940 060c 25010000 		.4byte	0x125
 2941 0610 FF0F     		.2byte	0xfff
 2942 0612 00       		.byte	0
 2943 0613 07       		.uleb128 0x7
 2944 0614 97000000 		.4byte	0x97
 2945 0618 23060000 		.4byte	0x623
 2946 061c 08       		.uleb128 0x8
 2947 061d 25010000 		.4byte	0x125
 2948 0621 0F       		.byte	0xf
 2949 0622 00       		.byte	0
 2950 0623 07       		.uleb128 0x7
ARM GAS  C:\Users\info\AppData\Local\Temp\ccHAj6Mv.s 			page 65


 2951 0624 A2000000 		.4byte	0xa2
 2952 0628 33060000 		.4byte	0x633
 2953 062c 08       		.uleb128 0x8
 2954 062d 25010000 		.4byte	0x125
 2955 0631 0F       		.byte	0xf
 2956 0632 00       		.byte	0
 2957 0633 1D       		.uleb128 0x1d
 2958 0634 2A030000 		.4byte	.LASF39
 2959 0638 06       		.byte	0x6
 2960 0639 1207     		.2byte	0x712
 2961 063b 3F060000 		.4byte	0x63f
 2962 063f 06       		.uleb128 0x6
 2963 0640 AD000000 		.4byte	0xad
 2964 0644 1E       		.uleb128 0x1e
 2965 0645 DA010000 		.4byte	.LASF40
 2966 0649 01       		.byte	0x1
 2967 064a 49       		.byte	0x49
 2968 064b 13060000 		.4byte	0x613
 2969 064f 05       		.uleb128 0x5
 2970 0650 03       		.byte	0x3
 2971 0651 00000000 		.4byte	keys
 2972 0655 1E       		.uleb128 0x1e
 2973 0656 9C010000 		.4byte	.LASF41
 2974 065a 01       		.byte	0x1
 2975 065b 4A       		.byte	0x4a
 2976 065c 97000000 		.4byte	0x97
 2977 0660 05       		.uleb128 0x5
 2978 0661 03       		.byte	0x3
 2979 0662 00000000 		.4byte	lastkey
 2980 0666 1E       		.uleb128 0x1e
 2981 0667 04020000 		.4byte	.LASF42
 2982 066b 01       		.byte	0x1
 2983 066c 4A       		.byte	0x4a
 2984 066d 97000000 		.4byte	0x97
 2985 0671 05       		.uleb128 0x5
 2986 0672 03       		.byte	0x3
 2987 0673 00000000 		.4byte	keyflag
 2988 0677 07       		.uleb128 0x7
 2989 0678 B8000000 		.4byte	0xb8
 2990 067c 87060000 		.4byte	0x687
 2991 0680 08       		.uleb128 0x8
 2992 0681 25010000 		.4byte	0x125
 2993 0685 1F       		.byte	0x1f
 2994 0686 00       		.byte	0
 2995 0687 1E       		.uleb128 0x1e
 2996 0688 6A030000 		.4byte	.LASF43
 2997 068c 01       		.byte	0x1
 2998 068d 50       		.byte	0x50
 2999 068e 77060000 		.4byte	0x677
 3000 0692 05       		.uleb128 0x5
 3001 0693 03       		.byte	0x3
 3002 0694 00000000 		.4byte	vram
 3003 0698 07       		.uleb128 0x7
 3004 0699 97000000 		.4byte	0x97
 3005 069d AE060000 		.4byte	0x6ae
 3006 06a1 08       		.uleb128 0x8
 3007 06a2 25010000 		.4byte	0x125
ARM GAS  C:\Users\info\AppData\Local\Temp\ccHAj6Mv.s 			page 66


 3008 06a6 5F       		.byte	0x5f
 3009 06a7 08       		.uleb128 0x8
 3010 06a8 25010000 		.4byte	0x125
 3011 06ac 7F       		.byte	0x7f
 3012 06ad 00       		.byte	0
 3013 06ae 1E       		.uleb128 0x1e
 3014 06af 42000000 		.4byte	.LASF44
 3015 06b3 01       		.byte	0x1
 3016 06b4 5A       		.byte	0x5a
 3017 06b5 98060000 		.4byte	0x698
 3018 06b9 05       		.uleb128 0x5
 3019 06ba 03       		.byte	0x3
 3020 06bb 00000000 		.4byte	vbuf
 3021 06bf 1E       		.uleb128 0x1e
 3022 06c0 37030000 		.4byte	.LASF45
 3023 06c4 01       		.byte	0x1
 3024 06c5 62       		.byte	0x62
 3025 06c6 97000000 		.4byte	0x97
 3026 06ca 05       		.uleb128 0x5
 3027 06cb 03       		.byte	0x3
 3028 06cc 00000000 		.4byte	dma_chan
 3029 06d0 1E       		.uleb128 0x1e
 3030 06d1 F1010000 		.4byte	.LASF46
 3031 06d5 01       		.byte	0x1
 3032 06d6 62       		.byte	0x62
 3033 06d7 97000000 		.4byte	0x97
 3034 06db 05       		.uleb128 0x5
 3035 06dc 03       		.byte	0x3
 3036 06dd 00000000 		.4byte	dma_td
 3037 06e1 1E       		.uleb128 0x1e
 3038 06e2 AE010000 		.4byte	.LASF47
 3039 06e6 01       		.byte	0x1
 3040 06e7 63       		.byte	0x63
 3041 06e8 F2060000 		.4byte	0x6f2
 3042 06ec 05       		.uleb128 0x5
 3043 06ed 03       		.byte	0x3
 3044 06ee 00000000 		.4byte	vga_update_flag
 3045 06f2 06       		.uleb128 0x6
 3046 06f3 89000000 		.4byte	0x89
 3047 06f7 1F       		.uleb128 0x1f
 3048 06f8 736E6400 		.ascii	"snd\000"
 3049 06fc 01       		.byte	0x1
 3050 06fd 8E       		.byte	0x8e
 3051 06fe 97000000 		.4byte	0x97
 3052 0702 05       		.uleb128 0x5
 3053 0703 03       		.byte	0x3
 3054 0704 00000000 		.4byte	snd
 3055 0708 1F       		.uleb128 0x1f
 3056 0709 746D7200 		.ascii	"tmr\000"
 3057 070d 01       		.byte	0x1
 3058 070e 8E       		.byte	0x8e
 3059 070f 97000000 		.4byte	0x97
 3060 0713 05       		.uleb128 0x5
 3061 0714 03       		.byte	0x3
 3062 0715 00000000 		.4byte	tmr
 3063 0719 20       		.uleb128 0x20
 3064 071a 19030000 		.4byte	.LASF48
ARM GAS  C:\Users\info\AppData\Local\Temp\ccHAj6Mv.s 			page 67


 3065 071e 19030000 		.4byte	.LASF48
 3066 0722 07       		.byte	0x7
 3067 0723 B3       		.byte	0xb3
 3068 0724 20       		.uleb128 0x20
 3069 0725 3D020000 		.4byte	.LASF49
 3070 0729 3D020000 		.4byte	.LASF49
 3071 072d 05       		.byte	0x5
 3072 072e 2A       		.byte	0x2a
 3073 072f 20       		.uleb128 0x20
 3074 0730 6F030000 		.4byte	.LASF50
 3075 0734 6F030000 		.4byte	.LASF50
 3076 0738 05       		.byte	0x5
 3077 0739 29       		.byte	0x29
 3078 073a 20       		.uleb128 0x20
 3079 073b CC010000 		.4byte	.LASF51
 3080 073f CC010000 		.4byte	.LASF51
 3081 0743 08       		.byte	0x8
 3082 0744 26       		.byte	0x26
 3083 0745 20       		.uleb128 0x20
 3084 0746 2B020000 		.4byte	.LASF52
 3085 074a 2B020000 		.4byte	.LASF52
 3086 074e 09       		.byte	0x9
 3087 074f 6D       		.byte	0x6d
 3088 0750 20       		.uleb128 0x20
 3089 0751 57020000 		.4byte	.LASF53
 3090 0755 57020000 		.4byte	.LASF53
 3091 0759 0A       		.byte	0xa
 3092 075a 26       		.byte	0x26
 3093 075b 20       		.uleb128 0x20
 3094 075c 0B040000 		.4byte	.LASF54
 3095 0760 0B040000 		.4byte	.LASF54
 3096 0764 0B       		.byte	0xb
 3097 0765 76       		.byte	0x76
 3098 0766 20       		.uleb128 0x20
 3099 0767 19020000 		.4byte	.LASF55
 3100 076b 19020000 		.4byte	.LASF55
 3101 076f 0C       		.byte	0xc
 3102 0770 18       		.byte	0x18
 3103 0771 20       		.uleb128 0x20
 3104 0772 00000000 		.4byte	.LASF56
 3105 0776 00000000 		.4byte	.LASF56
 3106 077a 05       		.byte	0x5
 3107 077b 38       		.byte	0x38
 3108 077c 20       		.uleb128 0x20
 3109 077d B9020000 		.4byte	.LASF57
 3110 0781 B9020000 		.4byte	.LASF57
 3111 0785 0D       		.byte	0xd
 3112 0786 1E       		.byte	0x1e
 3113 0787 20       		.uleb128 0x20
 3114 0788 71000000 		.4byte	.LASF58
 3115 078c 71000000 		.4byte	.LASF58
 3116 0790 05       		.byte	0x5
 3117 0791 3B       		.byte	0x3b
 3118 0792 20       		.uleb128 0x20
 3119 0793 30000000 		.4byte	.LASF59
 3120 0797 30000000 		.4byte	.LASF59
 3121 079b 05       		.byte	0x5
ARM GAS  C:\Users\info\AppData\Local\Temp\ccHAj6Mv.s 			page 68


 3122 079c 3F       		.byte	0x3f
 3123 079d 20       		.uleb128 0x20
 3124 079e 34010000 		.4byte	.LASF60
 3125 07a2 34010000 		.4byte	.LASF60
 3126 07a6 05       		.byte	0x5
 3127 07a7 2F       		.byte	0x2f
 3128 07a8 20       		.uleb128 0x20
 3129 07a9 DF010000 		.4byte	.LASF61
 3130 07ad DF010000 		.4byte	.LASF61
 3131 07b1 0E       		.byte	0xe
 3132 07b2 92       		.byte	0x92
 3133 07b3 20       		.uleb128 0x20
 3134 07b4 1F010000 		.4byte	.LASF62
 3135 07b8 1F010000 		.4byte	.LASF62
 3136 07bc 07       		.byte	0x7
 3137 07bd 92       		.byte	0x92
 3138 07be 20       		.uleb128 0x20
 3139 07bf 4C000000 		.4byte	.LASF63
 3140 07c3 4C000000 		.4byte	.LASF63
 3141 07c7 0F       		.byte	0xf
 3142 07c8 92       		.byte	0x92
 3143 07c9 20       		.uleb128 0x20
 3144 07ca D6020000 		.4byte	.LASF64
 3145 07ce D6020000 		.4byte	.LASF64
 3146 07d2 10       		.byte	0x10
 3147 07d3 92       		.byte	0x92
 3148 07d4 20       		.uleb128 0x20
 3149 07d5 8E000000 		.4byte	.LASF65
 3150 07d9 8E000000 		.4byte	.LASF65
 3151 07dd 11       		.byte	0x11
 3152 07de 18       		.byte	0x18
 3153 07df 21       		.uleb128 0x21
 3154 07e0 95010000 		.4byte	.LASF75
 3155 07e4 95010000 		.4byte	.LASF75
 3156 07e8 20       		.uleb128 0x20
 3157 07e9 22000000 		.4byte	.LASF66
 3158 07ed 22000000 		.4byte	.LASF66
 3159 07f1 09       		.byte	0x9
 3160 07f2 58       		.byte	0x58
 3161 07f3 20       		.uleb128 0x20
 3162 07f4 83020000 		.4byte	.LASF67
 3163 07f8 83020000 		.4byte	.LASF67
 3164 07fc 09       		.byte	0x9
 3165 07fd 57       		.byte	0x57
 3166 07fe 20       		.uleb128 0x20
 3167 07ff 54030000 		.4byte	.LASF68
 3168 0803 54030000 		.4byte	.LASF68
 3169 0807 09       		.byte	0x9
 3170 0808 59       		.byte	0x59
 3171 0809 00       		.byte	0
 3172              		.section	.debug_abbrev,"",%progbits
 3173              	.Ldebug_abbrev0:
 3174 0000 01       		.uleb128 0x1
 3175 0001 11       		.uleb128 0x11
 3176 0002 01       		.byte	0x1
 3177 0003 25       		.uleb128 0x25
 3178 0004 0E       		.uleb128 0xe
ARM GAS  C:\Users\info\AppData\Local\Temp\ccHAj6Mv.s 			page 69


 3179 0005 13       		.uleb128 0x13
 3180 0006 0B       		.uleb128 0xb
 3181 0007 03       		.uleb128 0x3
 3182 0008 0E       		.uleb128 0xe
 3183 0009 1B       		.uleb128 0x1b
 3184 000a 0E       		.uleb128 0xe
 3185 000b 55       		.uleb128 0x55
 3186 000c 17       		.uleb128 0x17
 3187 000d 11       		.uleb128 0x11
 3188 000e 01       		.uleb128 0x1
 3189 000f 10       		.uleb128 0x10
 3190 0010 17       		.uleb128 0x17
 3191 0011 00       		.byte	0
 3192 0012 00       		.byte	0
 3193 0013 02       		.uleb128 0x2
 3194 0014 24       		.uleb128 0x24
 3195 0015 00       		.byte	0
 3196 0016 0B       		.uleb128 0xb
 3197 0017 0B       		.uleb128 0xb
 3198 0018 3E       		.uleb128 0x3e
 3199 0019 0B       		.uleb128 0xb
 3200 001a 03       		.uleb128 0x3
 3201 001b 0E       		.uleb128 0xe
 3202 001c 00       		.byte	0
 3203 001d 00       		.byte	0
 3204 001e 03       		.uleb128 0x3
 3205 001f 16       		.uleb128 0x16
 3206 0020 00       		.byte	0
 3207 0021 03       		.uleb128 0x3
 3208 0022 0E       		.uleb128 0xe
 3209 0023 3A       		.uleb128 0x3a
 3210 0024 0B       		.uleb128 0xb
 3211 0025 3B       		.uleb128 0x3b
 3212 0026 0B       		.uleb128 0xb
 3213 0027 49       		.uleb128 0x49
 3214 0028 13       		.uleb128 0x13
 3215 0029 00       		.byte	0
 3216 002a 00       		.byte	0
 3217 002b 04       		.uleb128 0x4
 3218 002c 24       		.uleb128 0x24
 3219 002d 00       		.byte	0
 3220 002e 0B       		.uleb128 0xb
 3221 002f 0B       		.uleb128 0xb
 3222 0030 3E       		.uleb128 0x3e
 3223 0031 0B       		.uleb128 0xb
 3224 0032 03       		.uleb128 0x3
 3225 0033 08       		.uleb128 0x8
 3226 0034 00       		.byte	0
 3227 0035 00       		.byte	0
 3228 0036 05       		.uleb128 0x5
 3229 0037 16       		.uleb128 0x16
 3230 0038 00       		.byte	0
 3231 0039 03       		.uleb128 0x3
 3232 003a 0E       		.uleb128 0xe
 3233 003b 3A       		.uleb128 0x3a
 3234 003c 0B       		.uleb128 0xb
 3235 003d 3B       		.uleb128 0x3b
ARM GAS  C:\Users\info\AppData\Local\Temp\ccHAj6Mv.s 			page 70


 3236 003e 05       		.uleb128 0x5
 3237 003f 49       		.uleb128 0x49
 3238 0040 13       		.uleb128 0x13
 3239 0041 00       		.byte	0
 3240 0042 00       		.byte	0
 3241 0043 06       		.uleb128 0x6
 3242 0044 35       		.uleb128 0x35
 3243 0045 00       		.byte	0
 3244 0046 49       		.uleb128 0x49
 3245 0047 13       		.uleb128 0x13
 3246 0048 00       		.byte	0
 3247 0049 00       		.byte	0
 3248 004a 07       		.uleb128 0x7
 3249 004b 01       		.uleb128 0x1
 3250 004c 01       		.byte	0x1
 3251 004d 49       		.uleb128 0x49
 3252 004e 13       		.uleb128 0x13
 3253 004f 01       		.uleb128 0x1
 3254 0050 13       		.uleb128 0x13
 3255 0051 00       		.byte	0
 3256 0052 00       		.byte	0
 3257 0053 08       		.uleb128 0x8
 3258 0054 21       		.uleb128 0x21
 3259 0055 00       		.byte	0
 3260 0056 49       		.uleb128 0x49
 3261 0057 13       		.uleb128 0x13
 3262 0058 2F       		.uleb128 0x2f
 3263 0059 0B       		.uleb128 0xb
 3264 005a 00       		.byte	0
 3265 005b 00       		.byte	0
 3266 005c 09       		.uleb128 0x9
 3267 005d 13       		.uleb128 0x13
 3268 005e 01       		.byte	0x1
 3269 005f 03       		.uleb128 0x3
 3270 0060 0E       		.uleb128 0xe
 3271 0061 0B       		.uleb128 0xb
 3272 0062 0B       		.uleb128 0xb
 3273 0063 3A       		.uleb128 0x3a
 3274 0064 0B       		.uleb128 0xb
 3275 0065 3B       		.uleb128 0x3b
 3276 0066 0B       		.uleb128 0xb
 3277 0067 01       		.uleb128 0x1
 3278 0068 13       		.uleb128 0x13
 3279 0069 00       		.byte	0
 3280 006a 00       		.byte	0
 3281 006b 0A       		.uleb128 0xa
 3282 006c 0D       		.uleb128 0xd
 3283 006d 00       		.byte	0
 3284 006e 03       		.uleb128 0x3
 3285 006f 08       		.uleb128 0x8
 3286 0070 3A       		.uleb128 0x3a
 3287 0071 0B       		.uleb128 0xb
 3288 0072 3B       		.uleb128 0x3b
 3289 0073 0B       		.uleb128 0xb
 3290 0074 49       		.uleb128 0x49
 3291 0075 13       		.uleb128 0x13
 3292 0076 38       		.uleb128 0x38
ARM GAS  C:\Users\info\AppData\Local\Temp\ccHAj6Mv.s 			page 71


 3293 0077 0B       		.uleb128 0xb
 3294 0078 00       		.byte	0
 3295 0079 00       		.byte	0
 3296 007a 0B       		.uleb128 0xb
 3297 007b 2E       		.uleb128 0x2e
 3298 007c 01       		.byte	0x1
 3299 007d 3F       		.uleb128 0x3f
 3300 007e 19       		.uleb128 0x19
 3301 007f 03       		.uleb128 0x3
 3302 0080 0E       		.uleb128 0xe
 3303 0081 3A       		.uleb128 0x3a
 3304 0082 0B       		.uleb128 0xb
 3305 0083 3B       		.uleb128 0x3b
 3306 0084 0B       		.uleb128 0xb
 3307 0085 27       		.uleb128 0x27
 3308 0086 19       		.uleb128 0x19
 3309 0087 11       		.uleb128 0x11
 3310 0088 01       		.uleb128 0x1
 3311 0089 12       		.uleb128 0x12
 3312 008a 06       		.uleb128 0x6
 3313 008b 40       		.uleb128 0x40
 3314 008c 18       		.uleb128 0x18
 3315 008d 9742     		.uleb128 0x2117
 3316 008f 19       		.uleb128 0x19
 3317 0090 01       		.uleb128 0x1
 3318 0091 13       		.uleb128 0x13
 3319 0092 00       		.byte	0
 3320 0093 00       		.byte	0
 3321 0094 0C       		.uleb128 0xc
 3322 0095 34       		.uleb128 0x34
 3323 0096 00       		.byte	0
 3324 0097 03       		.uleb128 0x3
 3325 0098 0E       		.uleb128 0xe
 3326 0099 3A       		.uleb128 0x3a
 3327 009a 0B       		.uleb128 0xb
 3328 009b 3B       		.uleb128 0x3b
 3329 009c 0B       		.uleb128 0xb
 3330 009d 49       		.uleb128 0x49
 3331 009e 13       		.uleb128 0x13
 3332 009f 02       		.uleb128 0x2
 3333 00a0 17       		.uleb128 0x17
 3334 00a1 00       		.byte	0
 3335 00a2 00       		.byte	0
 3336 00a3 0D       		.uleb128 0xd
 3337 00a4 0B       		.uleb128 0xb
 3338 00a5 01       		.byte	0x1
 3339 00a6 55       		.uleb128 0x55
 3340 00a7 17       		.uleb128 0x17
 3341 00a8 01       		.uleb128 0x1
 3342 00a9 13       		.uleb128 0x13
 3343 00aa 00       		.byte	0
 3344 00ab 00       		.byte	0
 3345 00ac 0E       		.uleb128 0xe
 3346 00ad 0B       		.uleb128 0xb
 3347 00ae 01       		.byte	0x1
 3348 00af 55       		.uleb128 0x55
 3349 00b0 17       		.uleb128 0x17
ARM GAS  C:\Users\info\AppData\Local\Temp\ccHAj6Mv.s 			page 72


 3350 00b1 00       		.byte	0
 3351 00b2 00       		.byte	0
 3352 00b3 0F       		.uleb128 0xf
 3353 00b4 34       		.uleb128 0x34
 3354 00b5 00       		.byte	0
 3355 00b6 03       		.uleb128 0x3
 3356 00b7 08       		.uleb128 0x8
 3357 00b8 3A       		.uleb128 0x3a
 3358 00b9 0B       		.uleb128 0xb
 3359 00ba 3B       		.uleb128 0x3b
 3360 00bb 0B       		.uleb128 0xb
 3361 00bc 49       		.uleb128 0x49
 3362 00bd 13       		.uleb128 0x13
 3363 00be 02       		.uleb128 0x2
 3364 00bf 17       		.uleb128 0x17
 3365 00c0 00       		.byte	0
 3366 00c1 00       		.byte	0
 3367 00c2 10       		.uleb128 0x10
 3368 00c3 898201   		.uleb128 0x4109
 3369 00c6 00       		.byte	0
 3370 00c7 11       		.uleb128 0x11
 3371 00c8 01       		.uleb128 0x1
 3372 00c9 31       		.uleb128 0x31
 3373 00ca 13       		.uleb128 0x13
 3374 00cb 00       		.byte	0
 3375 00cc 00       		.byte	0
 3376 00cd 11       		.uleb128 0x11
 3377 00ce 898201   		.uleb128 0x4109
 3378 00d1 01       		.byte	0x1
 3379 00d2 11       		.uleb128 0x11
 3380 00d3 01       		.uleb128 0x1
 3381 00d4 31       		.uleb128 0x31
 3382 00d5 13       		.uleb128 0x13
 3383 00d6 00       		.byte	0
 3384 00d7 00       		.byte	0
 3385 00d8 12       		.uleb128 0x12
 3386 00d9 8A8201   		.uleb128 0x410a
 3387 00dc 00       		.byte	0
 3388 00dd 02       		.uleb128 0x2
 3389 00de 18       		.uleb128 0x18
 3390 00df 9142     		.uleb128 0x2111
 3391 00e1 18       		.uleb128 0x18
 3392 00e2 00       		.byte	0
 3393 00e3 00       		.byte	0
 3394 00e4 13       		.uleb128 0x13
 3395 00e5 898201   		.uleb128 0x4109
 3396 00e8 01       		.byte	0x1
 3397 00e9 11       		.uleb128 0x11
 3398 00ea 01       		.uleb128 0x1
 3399 00eb 31       		.uleb128 0x31
 3400 00ec 13       		.uleb128 0x13
 3401 00ed 01       		.uleb128 0x1
 3402 00ee 13       		.uleb128 0x13
 3403 00ef 00       		.byte	0
 3404 00f0 00       		.byte	0
 3405 00f1 14       		.uleb128 0x14
 3406 00f2 2E       		.uleb128 0x2e
ARM GAS  C:\Users\info\AppData\Local\Temp\ccHAj6Mv.s 			page 73


 3407 00f3 00       		.byte	0
 3408 00f4 3F       		.uleb128 0x3f
 3409 00f5 19       		.uleb128 0x19
 3410 00f6 03       		.uleb128 0x3
 3411 00f7 0E       		.uleb128 0xe
 3412 00f8 3A       		.uleb128 0x3a
 3413 00f9 0B       		.uleb128 0xb
 3414 00fa 3B       		.uleb128 0x3b
 3415 00fb 0B       		.uleb128 0xb
 3416 00fc 11       		.uleb128 0x11
 3417 00fd 01       		.uleb128 0x1
 3418 00fe 12       		.uleb128 0x12
 3419 00ff 06       		.uleb128 0x6
 3420 0100 40       		.uleb128 0x40
 3421 0101 18       		.uleb128 0x18
 3422 0102 9742     		.uleb128 0x2117
 3423 0104 19       		.uleb128 0x19
 3424 0105 00       		.byte	0
 3425 0106 00       		.byte	0
 3426 0107 15       		.uleb128 0x15
 3427 0108 2E       		.uleb128 0x2e
 3428 0109 01       		.byte	0x1
 3429 010a 3F       		.uleb128 0x3f
 3430 010b 19       		.uleb128 0x19
 3431 010c 03       		.uleb128 0x3
 3432 010d 0E       		.uleb128 0xe
 3433 010e 3A       		.uleb128 0x3a
 3434 010f 0B       		.uleb128 0xb
 3435 0110 3B       		.uleb128 0x3b
 3436 0111 0B       		.uleb128 0xb
 3437 0112 27       		.uleb128 0x27
 3438 0113 19       		.uleb128 0x19
 3439 0114 49       		.uleb128 0x49
 3440 0115 13       		.uleb128 0x13
 3441 0116 8701     		.uleb128 0x87
 3442 0118 19       		.uleb128 0x19
 3443 0119 11       		.uleb128 0x11
 3444 011a 01       		.uleb128 0x1
 3445 011b 12       		.uleb128 0x12
 3446 011c 06       		.uleb128 0x6
 3447 011d 40       		.uleb128 0x40
 3448 011e 18       		.uleb128 0x18
 3449 011f 9742     		.uleb128 0x2117
 3450 0121 19       		.uleb128 0x19
 3451 0122 01       		.uleb128 0x1
 3452 0123 13       		.uleb128 0x13
 3453 0124 00       		.byte	0
 3454 0125 00       		.byte	0
 3455 0126 16       		.uleb128 0x16
 3456 0127 34       		.uleb128 0x34
 3457 0128 00       		.byte	0
 3458 0129 03       		.uleb128 0x3
 3459 012a 08       		.uleb128 0x8
 3460 012b 3A       		.uleb128 0x3a
 3461 012c 0B       		.uleb128 0xb
 3462 012d 3B       		.uleb128 0x3b
 3463 012e 0B       		.uleb128 0xb
ARM GAS  C:\Users\info\AppData\Local\Temp\ccHAj6Mv.s 			page 74


 3464 012f 49       		.uleb128 0x49
 3465 0130 13       		.uleb128 0x13
 3466 0131 02       		.uleb128 0x2
 3467 0132 18       		.uleb128 0x18
 3468 0133 00       		.byte	0
 3469 0134 00       		.byte	0
 3470 0135 17       		.uleb128 0x17
 3471 0136 34       		.uleb128 0x34
 3472 0137 00       		.byte	0
 3473 0138 03       		.uleb128 0x3
 3474 0139 0E       		.uleb128 0xe
 3475 013a 3A       		.uleb128 0x3a
 3476 013b 0B       		.uleb128 0xb
 3477 013c 3B       		.uleb128 0x3b
 3478 013d 0B       		.uleb128 0xb
 3479 013e 49       		.uleb128 0x49
 3480 013f 13       		.uleb128 0x13
 3481 0140 02       		.uleb128 0x2
 3482 0141 18       		.uleb128 0x18
 3483 0142 00       		.byte	0
 3484 0143 00       		.byte	0
 3485 0144 18       		.uleb128 0x18
 3486 0145 0B       		.uleb128 0xb
 3487 0146 01       		.byte	0x1
 3488 0147 11       		.uleb128 0x11
 3489 0148 01       		.uleb128 0x1
 3490 0149 12       		.uleb128 0x12
 3491 014a 06       		.uleb128 0x6
 3492 014b 01       		.uleb128 0x1
 3493 014c 13       		.uleb128 0x13
 3494 014d 00       		.byte	0
 3495 014e 00       		.byte	0
 3496 014f 19       		.uleb128 0x19
 3497 0150 34       		.uleb128 0x34
 3498 0151 00       		.byte	0
 3499 0152 03       		.uleb128 0x3
 3500 0153 08       		.uleb128 0x8
 3501 0154 3A       		.uleb128 0x3a
 3502 0155 0B       		.uleb128 0xb
 3503 0156 3B       		.uleb128 0x3b
 3504 0157 05       		.uleb128 0x5
 3505 0158 49       		.uleb128 0x49
 3506 0159 13       		.uleb128 0x13
 3507 015a 02       		.uleb128 0x2
 3508 015b 17       		.uleb128 0x17
 3509 015c 00       		.byte	0
 3510 015d 00       		.byte	0
 3511 015e 1A       		.uleb128 0x1a
 3512 015f 34       		.uleb128 0x34
 3513 0160 00       		.byte	0
 3514 0161 03       		.uleb128 0x3
 3515 0162 0E       		.uleb128 0xe
 3516 0163 3A       		.uleb128 0x3a
 3517 0164 0B       		.uleb128 0xb
 3518 0165 3B       		.uleb128 0x3b
 3519 0166 05       		.uleb128 0x5
 3520 0167 49       		.uleb128 0x49
ARM GAS  C:\Users\info\AppData\Local\Temp\ccHAj6Mv.s 			page 75


 3521 0168 13       		.uleb128 0x13
 3522 0169 02       		.uleb128 0x2
 3523 016a 17       		.uleb128 0x17
 3524 016b 00       		.byte	0
 3525 016c 00       		.byte	0
 3526 016d 1B       		.uleb128 0x1b
 3527 016e 0B       		.uleb128 0xb
 3528 016f 01       		.byte	0x1
 3529 0170 11       		.uleb128 0x11
 3530 0171 01       		.uleb128 0x1
 3531 0172 12       		.uleb128 0x12
 3532 0173 06       		.uleb128 0x6
 3533 0174 00       		.byte	0
 3534 0175 00       		.byte	0
 3535 0176 1C       		.uleb128 0x1c
 3536 0177 21       		.uleb128 0x21
 3537 0178 00       		.byte	0
 3538 0179 49       		.uleb128 0x49
 3539 017a 13       		.uleb128 0x13
 3540 017b 2F       		.uleb128 0x2f
 3541 017c 05       		.uleb128 0x5
 3542 017d 00       		.byte	0
 3543 017e 00       		.byte	0
 3544 017f 1D       		.uleb128 0x1d
 3545 0180 34       		.uleb128 0x34
 3546 0181 00       		.byte	0
 3547 0182 03       		.uleb128 0x3
 3548 0183 0E       		.uleb128 0xe
 3549 0184 3A       		.uleb128 0x3a
 3550 0185 0B       		.uleb128 0xb
 3551 0186 3B       		.uleb128 0x3b
 3552 0187 05       		.uleb128 0x5
 3553 0188 49       		.uleb128 0x49
 3554 0189 13       		.uleb128 0x13
 3555 018a 3F       		.uleb128 0x3f
 3556 018b 19       		.uleb128 0x19
 3557 018c 3C       		.uleb128 0x3c
 3558 018d 19       		.uleb128 0x19
 3559 018e 00       		.byte	0
 3560 018f 00       		.byte	0
 3561 0190 1E       		.uleb128 0x1e
 3562 0191 34       		.uleb128 0x34
 3563 0192 00       		.byte	0
 3564 0193 03       		.uleb128 0x3
 3565 0194 0E       		.uleb128 0xe
 3566 0195 3A       		.uleb128 0x3a
 3567 0196 0B       		.uleb128 0xb
 3568 0197 3B       		.uleb128 0x3b
 3569 0198 0B       		.uleb128 0xb
 3570 0199 49       		.uleb128 0x49
 3571 019a 13       		.uleb128 0x13
 3572 019b 3F       		.uleb128 0x3f
 3573 019c 19       		.uleb128 0x19
 3574 019d 02       		.uleb128 0x2
 3575 019e 18       		.uleb128 0x18
 3576 019f 00       		.byte	0
 3577 01a0 00       		.byte	0
ARM GAS  C:\Users\info\AppData\Local\Temp\ccHAj6Mv.s 			page 76


 3578 01a1 1F       		.uleb128 0x1f
 3579 01a2 34       		.uleb128 0x34
 3580 01a3 00       		.byte	0
 3581 01a4 03       		.uleb128 0x3
 3582 01a5 08       		.uleb128 0x8
 3583 01a6 3A       		.uleb128 0x3a
 3584 01a7 0B       		.uleb128 0xb
 3585 01a8 3B       		.uleb128 0x3b
 3586 01a9 0B       		.uleb128 0xb
 3587 01aa 49       		.uleb128 0x49
 3588 01ab 13       		.uleb128 0x13
 3589 01ac 3F       		.uleb128 0x3f
 3590 01ad 19       		.uleb128 0x19
 3591 01ae 02       		.uleb128 0x2
 3592 01af 18       		.uleb128 0x18
 3593 01b0 00       		.byte	0
 3594 01b1 00       		.byte	0
 3595 01b2 20       		.uleb128 0x20
 3596 01b3 2E       		.uleb128 0x2e
 3597 01b4 00       		.byte	0
 3598 01b5 3F       		.uleb128 0x3f
 3599 01b6 19       		.uleb128 0x19
 3600 01b7 3C       		.uleb128 0x3c
 3601 01b8 19       		.uleb128 0x19
 3602 01b9 6E       		.uleb128 0x6e
 3603 01ba 0E       		.uleb128 0xe
 3604 01bb 03       		.uleb128 0x3
 3605 01bc 0E       		.uleb128 0xe
 3606 01bd 3A       		.uleb128 0x3a
 3607 01be 0B       		.uleb128 0xb
 3608 01bf 3B       		.uleb128 0x3b
 3609 01c0 0B       		.uleb128 0xb
 3610 01c1 00       		.byte	0
 3611 01c2 00       		.byte	0
 3612 01c3 21       		.uleb128 0x21
 3613 01c4 2E       		.uleb128 0x2e
 3614 01c5 00       		.byte	0
 3615 01c6 3F       		.uleb128 0x3f
 3616 01c7 19       		.uleb128 0x19
 3617 01c8 3C       		.uleb128 0x3c
 3618 01c9 19       		.uleb128 0x19
 3619 01ca 6E       		.uleb128 0x6e
 3620 01cb 0E       		.uleb128 0xe
 3621 01cc 03       		.uleb128 0x3
 3622 01cd 0E       		.uleb128 0xe
 3623 01ce 00       		.byte	0
 3624 01cf 00       		.byte	0
 3625 01d0 00       		.byte	0
 3626              		.section	.debug_loc,"",%progbits
 3627              	.Ldebug_loc0:
 3628              	.LLST0:
 3629 0000 0E000000 		.4byte	.LVL1
 3630 0004 2A000000 		.4byte	.LVL2
 3631 0008 0100     		.2byte	0x1
 3632 000a 50       		.byte	0x50
 3633 000b 36000000 		.4byte	.LVL3
 3634 000f 48000000 		.4byte	.LVL4
ARM GAS  C:\Users\info\AppData\Local\Temp\ccHAj6Mv.s 			page 77


 3635 0013 0100     		.2byte	0x1
 3636 0015 50       		.byte	0x50
 3637 0016 00000000 		.4byte	0
 3638 001a 00000000 		.4byte	0
 3639              	.LLST1:
 3640 001e 74000000 		.4byte	.LVL7
 3641 0022 7E000000 		.4byte	.LVL8
 3642 0026 0100     		.2byte	0x1
 3643 0028 52       		.byte	0x52
 3644 0029 7E000000 		.4byte	.LVL8
 3645 002d 80000000 		.4byte	.LVL9
 3646 0031 0100     		.2byte	0x1
 3647 0033 54       		.byte	0x54
 3648 0034 82000000 		.4byte	.LVL10
 3649 0038 A6000000 		.4byte	.LVL13
 3650 003c 0100     		.2byte	0x1
 3651 003e 54       		.byte	0x54
 3652 003f 00000000 		.4byte	0
 3653 0043 00000000 		.4byte	0
 3654              	.LLST2:
 3655 0047 54000000 		.4byte	.LVL6
 3656 004b AE000000 		.4byte	.LVL15
 3657 004f 0100     		.2byte	0x1
 3658 0051 55       		.byte	0x55
 3659 0052 B0000000 		.4byte	.LVL16
 3660 0056 B2000000 		.4byte	.LVL17
 3661 005a 0100     		.2byte	0x1
 3662 005c 55       		.byte	0x55
 3663 005d B4000000 		.4byte	.LVL18
 3664 0061 BE000000 		.4byte	.LVL19
 3665 0065 0100     		.2byte	0x1
 3666 0067 55       		.byte	0x55
 3667 0068 00000000 		.4byte	0
 3668 006c 00000000 		.4byte	0
 3669              	.LLST3:
 3670 0070 54000000 		.4byte	.LVL6
 3671 0074 A2000000 		.4byte	.LVL11
 3672 0078 0100     		.2byte	0x1
 3673 007a 53       		.byte	0x53
 3674 007b A4000000 		.4byte	.LVL12
 3675 007f A6000000 		.4byte	.LVL13
 3676 0083 0100     		.2byte	0x1
 3677 0085 53       		.byte	0x53
 3678 0086 A8000000 		.4byte	.LVL14
 3679 008a B2000000 		.4byte	.LVL17
 3680 008e 0100     		.2byte	0x1
 3681 0090 53       		.byte	0x53
 3682 0091 00000000 		.4byte	0
 3683 0095 00000000 		.4byte	0
 3684              	.LLST4:
 3685 0099 A2090000 		.4byte	.LVL36
 3686 009d DC090000 		.4byte	.LVL44
 3687 00a1 0200     		.2byte	0x2
 3688 00a3 30       		.byte	0x30
 3689 00a4 9F       		.byte	0x9f
 3690 00a5 DC090000 		.4byte	.LVL44
 3691 00a9 0E0C0000 		.4byte	.LVL130
ARM GAS  C:\Users\info\AppData\Local\Temp\ccHAj6Mv.s 			page 78


 3692 00ad 0100     		.2byte	0x1
 3693 00af 5B       		.byte	0x5b
 3694 00b0 0E0C0000 		.4byte	.LVL130
 3695 00b4 120C0000 		.4byte	.LVL131
 3696 00b8 0100     		.2byte	0x1
 3697 00ba 53       		.byte	0x53
 3698 00bb 120C0000 		.4byte	.LVL131
 3699 00bf F60D0000 		.4byte	.LVL175
 3700 00c3 0100     		.2byte	0x1
 3701 00c5 5B       		.byte	0x5b
 3702 00c6 FA0D0000 		.4byte	.LVL176
 3703 00ca 060E0000 		.4byte	.LVL180
 3704 00ce 0100     		.2byte	0x1
 3705 00d0 5B       		.byte	0x5b
 3706 00d1 0E0E0000 		.4byte	.LVL181
 3707 00d5 300F0000 		.4byte	.LFE66
 3708 00d9 0100     		.2byte	0x1
 3709 00db 5B       		.byte	0x5b
 3710 00dc 00000000 		.4byte	0
 3711 00e0 00000000 		.4byte	0
 3712              	.LLST5:
 3713 00e4 A2090000 		.4byte	.LVL36
 3714 00e8 DC090000 		.4byte	.LVL44
 3715 00ec 0400     		.2byte	0x4
 3716 00ee 0A       		.byte	0xa
 3717 00ef 0002     		.2byte	0x200
 3718 00f1 9F       		.byte	0x9f
 3719 00f2 DC090000 		.4byte	.LVL44
 3720 00f6 7E0A0000 		.4byte	.LVL67
 3721 00fa 0100     		.2byte	0x1
 3722 00fc 5A       		.byte	0x5a
 3723 00fd 800A0000 		.4byte	.LVL68
 3724 0101 9E0A0000 		.4byte	.LVL74
 3725 0105 0100     		.2byte	0x1
 3726 0107 5A       		.byte	0x5a
 3727 0108 A40A0000 		.4byte	.LVL76
 3728 010c B20A0000 		.4byte	.LVL78
 3729 0110 0100     		.2byte	0x1
 3730 0112 5A       		.byte	0x5a
 3731 0113 B60A0000 		.4byte	.LVL79
 3732 0117 CA0A0000 		.4byte	.LVL83
 3733 011b 0100     		.2byte	0x1
 3734 011d 5A       		.byte	0x5a
 3735 011e CE0A0000 		.4byte	.LVL84
 3736 0122 EA0A0000 		.4byte	.LVL89
 3737 0126 0100     		.2byte	0x1
 3738 0128 5A       		.byte	0x5a
 3739 0129 EE0A0000 		.4byte	.LVL90
 3740 012d 0A0B0000 		.4byte	.LVL94
 3741 0131 0100     		.2byte	0x1
 3742 0133 5A       		.byte	0x5a
 3743 0134 0E0B0000 		.4byte	.LVL95
 3744 0138 520D0000 		.4byte	.LVL155
 3745 013c 0100     		.2byte	0x1
 3746 013e 5A       		.byte	0x5a
 3747 013f 560D0000 		.4byte	.LVL156
 3748 0143 740D0000 		.4byte	.LVL160
ARM GAS  C:\Users\info\AppData\Local\Temp\ccHAj6Mv.s 			page 79


 3749 0147 0100     		.2byte	0x1
 3750 0149 5A       		.byte	0x5a
 3751 014a 780D0000 		.4byte	.LVL161
 3752 014e 960E0000 		.4byte	.LVL206
 3753 0152 0100     		.2byte	0x1
 3754 0154 5A       		.byte	0x5a
 3755 0155 9C0E0000 		.4byte	.LVL209
 3756 0159 AA0E0000 		.4byte	.LVL216
 3757 015d 0100     		.2byte	0x1
 3758 015f 5A       		.byte	0x5a
 3759 0160 AA0E0000 		.4byte	.LVL216
 3760 0164 AE0E0000 		.4byte	.LVL218
 3761 0168 0700     		.2byte	0x7
 3762 016a 78       		.byte	0x78
 3763 016b 00       		.sleb128 0
 3764 016c 31       		.byte	0x31
 3765 016d 24       		.byte	0x24
 3766 016e 72       		.byte	0x72
 3767 016f 00       		.sleb128 0
 3768 0170 22       		.byte	0x22
 3769 0171 AE0E0000 		.4byte	.LVL218
 3770 0175 B00E0000 		.4byte	.LVL219
 3771 0179 0B00     		.2byte	0xb
 3772 017b 78       		.byte	0x78
 3773 017c 00       		.sleb128 0
 3774 017d 31       		.byte	0x31
 3775 017e 24       		.byte	0x24
 3776 017f 91       		.byte	0x91
 3777 0180 00       		.sleb128 0
 3778 0181 22       		.byte	0x22
 3779 0182 0A       		.byte	0xa
 3780 0183 5810     		.2byte	0x1058
 3781 0185 1C       		.byte	0x1c
 3782 0186 B00E0000 		.4byte	.LVL219
 3783 018a 160F0000 		.4byte	.LVL243
 3784 018e 0100     		.2byte	0x1
 3785 0190 5A       		.byte	0x5a
 3786 0191 1A0F0000 		.4byte	.LVL244
 3787 0195 300F0000 		.4byte	.LFE66
 3788 0199 0100     		.2byte	0x1
 3789 019b 5A       		.byte	0x5a
 3790 019c 00000000 		.4byte	0
 3791 01a0 00000000 		.4byte	0
 3792              	.LLST6:
 3793 01a4 A2090000 		.4byte	.LVL36
 3794 01a8 DC090000 		.4byte	.LVL44
 3795 01ac 0200     		.2byte	0x2
 3796 01ae 30       		.byte	0x30
 3797 01af 9F       		.byte	0x9f
 3798 01b0 DC090000 		.4byte	.LVL44
 3799 01b4 6A0A0000 		.4byte	.LVL61
 3800 01b8 0100     		.2byte	0x1
 3801 01ba 58       		.byte	0x58
 3802 01bb 6E0A0000 		.4byte	.LVL62
 3803 01bf 980A0000 		.4byte	.LVL73
 3804 01c3 0100     		.2byte	0x1
 3805 01c5 58       		.byte	0x58
ARM GAS  C:\Users\info\AppData\Local\Temp\ccHAj6Mv.s 			page 80


 3806 01c6 A40A0000 		.4byte	.LVL76
 3807 01ca 260C0000 		.4byte	.LVL135
 3808 01ce 0100     		.2byte	0x1
 3809 01d0 58       		.byte	0x58
 3810 01d1 FC0C0000 		.4byte	.LVL146
 3811 01d5 0C0D0000 		.4byte	.LVL150
 3812 01d9 0100     		.2byte	0x1
 3813 01db 58       		.byte	0x58
 3814 01dc 300D0000 		.4byte	.LVL152
 3815 01e0 300F0000 		.4byte	.LFE66
 3816 01e4 0100     		.2byte	0x1
 3817 01e6 58       		.byte	0x58
 3818 01e7 00000000 		.4byte	0
 3819 01eb 00000000 		.4byte	0
 3820              	.LLST7:
 3821 01ef AC090000 		.4byte	.LVL37
 3822 01f3 B0090000 		.4byte	.LVL38
 3823 01f7 0200     		.2byte	0x2
 3824 01f9 30       		.byte	0x30
 3825 01fa 9F       		.byte	0x9f
 3826 01fb B0090000 		.4byte	.LVL38
 3827 01ff C0090000 		.4byte	.LVL39
 3828 0203 0100     		.2byte	0x1
 3829 0205 53       		.byte	0x53
 3830 0206 C2090000 		.4byte	.LVL40
 3831 020a C9090000 		.4byte	.LVL41-1
 3832 020e 0100     		.2byte	0x1
 3833 0210 53       		.byte	0x53
 3834 0211 00000000 		.4byte	0
 3835 0215 00000000 		.4byte	0
 3836              	.LLST8:
 3837 0219 F0090000 		.4byte	.LVL45
 3838 021d 040A0000 		.4byte	.LVL51
 3839 0221 0100     		.2byte	0x1
 3840 0223 55       		.byte	0x55
 3841 0224 040A0000 		.4byte	.LVL51
 3842 0228 740A0000 		.4byte	.LVL64
 3843 022c 2000     		.2byte	0x20
 3844 022e 91       		.byte	0x91
 3845 022f 00       		.sleb128 0
 3846 0230 7A       		.byte	0x7a
 3847 0231 00       		.sleb128 0
 3848 0232 22       		.byte	0x22
 3849 0233 0A       		.byte	0xa
 3850 0234 2810     		.2byte	0x1028
 3851 0236 1C       		.byte	0x1c
 3852 0237 94       		.byte	0x94
 3853 0238 01       		.byte	0x1
 3854 0239 08       		.byte	0x8
 3855 023a FF       		.byte	0xff
 3856 023b 1A       		.byte	0x1a
 3857 023c 38       		.byte	0x38
 3858 023d 24       		.byte	0x24
 3859 023e 91       		.byte	0x91
 3860 023f 00       		.sleb128 0
 3861 0240 7A       		.byte	0x7a
 3862 0241 00       		.sleb128 0
ARM GAS  C:\Users\info\AppData\Local\Temp\ccHAj6Mv.s 			page 81


 3863 0242 22       		.byte	0x22
 3864 0243 0A       		.byte	0xa
 3865 0244 2710     		.2byte	0x1027
 3866 0246 1C       		.byte	0x1c
 3867 0247 94       		.byte	0x94
 3868 0248 01       		.byte	0x1
 3869 0249 08       		.byte	0x8
 3870 024a FF       		.byte	0xff
 3871 024b 1A       		.byte	0x1a
 3872 024c 21       		.byte	0x21
 3873 024d 9F       		.byte	0x9f
 3874 024e 7A0A0000 		.4byte	.LVL66
 3875 0252 7E0A0000 		.4byte	.LVL67
 3876 0256 2000     		.2byte	0x20
 3877 0258 91       		.byte	0x91
 3878 0259 00       		.sleb128 0
 3879 025a 7A       		.byte	0x7a
 3880 025b 00       		.sleb128 0
 3881 025c 22       		.byte	0x22
 3882 025d 0A       		.byte	0xa
 3883 025e 2810     		.2byte	0x1028
 3884 0260 1C       		.byte	0x1c
 3885 0261 94       		.byte	0x94
 3886 0262 01       		.byte	0x1
 3887 0263 08       		.byte	0x8
 3888 0264 FF       		.byte	0xff
 3889 0265 1A       		.byte	0x1a
 3890 0266 38       		.byte	0x38
 3891 0267 24       		.byte	0x24
 3892 0268 91       		.byte	0x91
 3893 0269 00       		.sleb128 0
 3894 026a 7A       		.byte	0x7a
 3895 026b 00       		.sleb128 0
 3896 026c 22       		.byte	0x22
 3897 026d 0A       		.byte	0xa
 3898 026e 2710     		.2byte	0x1027
 3899 0270 1C       		.byte	0x1c
 3900 0271 94       		.byte	0x94
 3901 0272 01       		.byte	0x1
 3902 0273 08       		.byte	0x8
 3903 0274 FF       		.byte	0xff
 3904 0275 1A       		.byte	0x1a
 3905 0276 21       		.byte	0x21
 3906 0277 9F       		.byte	0x9f
 3907 0278 860A0000 		.4byte	.LVL71
 3908 027c 9E0A0000 		.4byte	.LVL74
 3909 0280 2000     		.2byte	0x20
 3910 0282 91       		.byte	0x91
 3911 0283 00       		.sleb128 0
 3912 0284 7A       		.byte	0x7a
 3913 0285 00       		.sleb128 0
 3914 0286 22       		.byte	0x22
 3915 0287 0A       		.byte	0xa
 3916 0288 2810     		.2byte	0x1028
 3917 028a 1C       		.byte	0x1c
 3918 028b 94       		.byte	0x94
 3919 028c 01       		.byte	0x1
ARM GAS  C:\Users\info\AppData\Local\Temp\ccHAj6Mv.s 			page 82


 3920 028d 08       		.byte	0x8
 3921 028e FF       		.byte	0xff
 3922 028f 1A       		.byte	0x1a
 3923 0290 38       		.byte	0x38
 3924 0291 24       		.byte	0x24
 3925 0292 91       		.byte	0x91
 3926 0293 00       		.sleb128 0
 3927 0294 7A       		.byte	0x7a
 3928 0295 00       		.sleb128 0
 3929 0296 22       		.byte	0x22
 3930 0297 0A       		.byte	0xa
 3931 0298 2710     		.2byte	0x1027
 3932 029a 1C       		.byte	0x1c
 3933 029b 94       		.byte	0x94
 3934 029c 01       		.byte	0x1
 3935 029d 08       		.byte	0x8
 3936 029e FF       		.byte	0xff
 3937 029f 1A       		.byte	0x1a
 3938 02a0 21       		.byte	0x21
 3939 02a1 9F       		.byte	0x9f
 3940 02a2 A40A0000 		.4byte	.LVL76
 3941 02a6 B20A0000 		.4byte	.LVL78
 3942 02aa 2000     		.2byte	0x20
 3943 02ac 91       		.byte	0x91
 3944 02ad 00       		.sleb128 0
 3945 02ae 7A       		.byte	0x7a
 3946 02af 00       		.sleb128 0
 3947 02b0 22       		.byte	0x22
 3948 02b1 0A       		.byte	0xa
 3949 02b2 2810     		.2byte	0x1028
 3950 02b4 1C       		.byte	0x1c
 3951 02b5 94       		.byte	0x94
 3952 02b6 01       		.byte	0x1
 3953 02b7 08       		.byte	0x8
 3954 02b8 FF       		.byte	0xff
 3955 02b9 1A       		.byte	0x1a
 3956 02ba 38       		.byte	0x38
 3957 02bb 24       		.byte	0x24
 3958 02bc 91       		.byte	0x91
 3959 02bd 00       		.sleb128 0
 3960 02be 7A       		.byte	0x7a
 3961 02bf 00       		.sleb128 0
 3962 02c0 22       		.byte	0x22
 3963 02c1 0A       		.byte	0xa
 3964 02c2 2710     		.2byte	0x1027
 3965 02c4 1C       		.byte	0x1c
 3966 02c5 94       		.byte	0x94
 3967 02c6 01       		.byte	0x1
 3968 02c7 08       		.byte	0x8
 3969 02c8 FF       		.byte	0xff
 3970 02c9 1A       		.byte	0x1a
 3971 02ca 21       		.byte	0x21
 3972 02cb 9F       		.byte	0x9f
 3973 02cc B20A0000 		.4byte	.LVL78
 3974 02d0 B60A0000 		.4byte	.LVL79
 3975 02d4 2000     		.2byte	0x20
 3976 02d6 91       		.byte	0x91
ARM GAS  C:\Users\info\AppData\Local\Temp\ccHAj6Mv.s 			page 83


 3977 02d7 00       		.sleb128 0
 3978 02d8 7A       		.byte	0x7a
 3979 02d9 00       		.sleb128 0
 3980 02da 22       		.byte	0x22
 3981 02db 0A       		.byte	0xa
 3982 02dc 2A10     		.2byte	0x102a
 3983 02de 1C       		.byte	0x1c
 3984 02df 94       		.byte	0x94
 3985 02e0 01       		.byte	0x1
 3986 02e1 08       		.byte	0x8
 3987 02e2 FF       		.byte	0xff
 3988 02e3 1A       		.byte	0x1a
 3989 02e4 38       		.byte	0x38
 3990 02e5 24       		.byte	0x24
 3991 02e6 91       		.byte	0x91
 3992 02e7 00       		.sleb128 0
 3993 02e8 7A       		.byte	0x7a
 3994 02e9 00       		.sleb128 0
 3995 02ea 22       		.byte	0x22
 3996 02eb 0A       		.byte	0xa
 3997 02ec 2910     		.2byte	0x1029
 3998 02ee 1C       		.byte	0x1c
 3999 02ef 94       		.byte	0x94
 4000 02f0 01       		.byte	0x1
 4001 02f1 08       		.byte	0x8
 4002 02f2 FF       		.byte	0xff
 4003 02f3 1A       		.byte	0x1a
 4004 02f4 21       		.byte	0x21
 4005 02f5 9F       		.byte	0x9f
 4006 02f6 BC0A0000 		.4byte	.LVL81
 4007 02fa CA0A0000 		.4byte	.LVL83
 4008 02fe 2000     		.2byte	0x20
 4009 0300 91       		.byte	0x91
 4010 0301 00       		.sleb128 0
 4011 0302 7A       		.byte	0x7a
 4012 0303 00       		.sleb128 0
 4013 0304 22       		.byte	0x22
 4014 0305 0A       		.byte	0xa
 4015 0306 2810     		.2byte	0x1028
 4016 0308 1C       		.byte	0x1c
 4017 0309 94       		.byte	0x94
 4018 030a 01       		.byte	0x1
 4019 030b 08       		.byte	0x8
 4020 030c FF       		.byte	0xff
 4021 030d 1A       		.byte	0x1a
 4022 030e 38       		.byte	0x38
 4023 030f 24       		.byte	0x24
 4024 0310 91       		.byte	0x91
 4025 0311 00       		.sleb128 0
 4026 0312 7A       		.byte	0x7a
 4027 0313 00       		.sleb128 0
 4028 0314 22       		.byte	0x22
 4029 0315 0A       		.byte	0xa
 4030 0316 2710     		.2byte	0x1027
 4031 0318 1C       		.byte	0x1c
 4032 0319 94       		.byte	0x94
 4033 031a 01       		.byte	0x1
ARM GAS  C:\Users\info\AppData\Local\Temp\ccHAj6Mv.s 			page 84


 4034 031b 08       		.byte	0x8
 4035 031c FF       		.byte	0xff
 4036 031d 1A       		.byte	0x1a
 4037 031e 21       		.byte	0x21
 4038 031f 9F       		.byte	0x9f
 4039 0320 CA0A0000 		.4byte	.LVL83
 4040 0324 CE0A0000 		.4byte	.LVL84
 4041 0328 2000     		.2byte	0x20
 4042 032a 91       		.byte	0x91
 4043 032b 00       		.sleb128 0
 4044 032c 7A       		.byte	0x7a
 4045 032d 00       		.sleb128 0
 4046 032e 22       		.byte	0x22
 4047 032f 0A       		.byte	0xa
 4048 0330 2A10     		.2byte	0x102a
 4049 0332 1C       		.byte	0x1c
 4050 0333 94       		.byte	0x94
 4051 0334 01       		.byte	0x1
 4052 0335 08       		.byte	0x8
 4053 0336 FF       		.byte	0xff
 4054 0337 1A       		.byte	0x1a
 4055 0338 38       		.byte	0x38
 4056 0339 24       		.byte	0x24
 4057 033a 91       		.byte	0x91
 4058 033b 00       		.sleb128 0
 4059 033c 7A       		.byte	0x7a
 4060 033d 00       		.sleb128 0
 4061 033e 22       		.byte	0x22
 4062 033f 0A       		.byte	0xa
 4063 0340 2910     		.2byte	0x1029
 4064 0342 1C       		.byte	0x1c
 4065 0343 94       		.byte	0x94
 4066 0344 01       		.byte	0x1
 4067 0345 08       		.byte	0x8
 4068 0346 FF       		.byte	0xff
 4069 0347 1A       		.byte	0x1a
 4070 0348 21       		.byte	0x21
 4071 0349 9F       		.byte	0x9f
 4072 034a D40A0000 		.4byte	.LVL86
 4073 034e EA0A0000 		.4byte	.LVL89
 4074 0352 2000     		.2byte	0x20
 4075 0354 91       		.byte	0x91
 4076 0355 00       		.sleb128 0
 4077 0356 7A       		.byte	0x7a
 4078 0357 00       		.sleb128 0
 4079 0358 22       		.byte	0x22
 4080 0359 0A       		.byte	0xa
 4081 035a 2810     		.2byte	0x1028
 4082 035c 1C       		.byte	0x1c
 4083 035d 94       		.byte	0x94
 4084 035e 01       		.byte	0x1
 4085 035f 08       		.byte	0x8
 4086 0360 FF       		.byte	0xff
 4087 0361 1A       		.byte	0x1a
 4088 0362 38       		.byte	0x38
 4089 0363 24       		.byte	0x24
 4090 0364 91       		.byte	0x91
ARM GAS  C:\Users\info\AppData\Local\Temp\ccHAj6Mv.s 			page 85


 4091 0365 00       		.sleb128 0
 4092 0366 7A       		.byte	0x7a
 4093 0367 00       		.sleb128 0
 4094 0368 22       		.byte	0x22
 4095 0369 0A       		.byte	0xa
 4096 036a 2710     		.2byte	0x1027
 4097 036c 1C       		.byte	0x1c
 4098 036d 94       		.byte	0x94
 4099 036e 01       		.byte	0x1
 4100 036f 08       		.byte	0x8
 4101 0370 FF       		.byte	0xff
 4102 0371 1A       		.byte	0x1a
 4103 0372 21       		.byte	0x21
 4104 0373 9F       		.byte	0x9f
 4105 0374 EA0A0000 		.4byte	.LVL89
 4106 0378 EE0A0000 		.4byte	.LVL90
 4107 037c 2000     		.2byte	0x20
 4108 037e 91       		.byte	0x91
 4109 037f 00       		.sleb128 0
 4110 0380 7A       		.byte	0x7a
 4111 0381 00       		.sleb128 0
 4112 0382 22       		.byte	0x22
 4113 0383 0A       		.byte	0xa
 4114 0384 2A10     		.2byte	0x102a
 4115 0386 1C       		.byte	0x1c
 4116 0387 94       		.byte	0x94
 4117 0388 01       		.byte	0x1
 4118 0389 08       		.byte	0x8
 4119 038a FF       		.byte	0xff
 4120 038b 1A       		.byte	0x1a
 4121 038c 38       		.byte	0x38
 4122 038d 24       		.byte	0x24
 4123 038e 91       		.byte	0x91
 4124 038f 00       		.sleb128 0
 4125 0390 7A       		.byte	0x7a
 4126 0391 00       		.sleb128 0
 4127 0392 22       		.byte	0x22
 4128 0393 0A       		.byte	0xa
 4129 0394 2910     		.2byte	0x1029
 4130 0396 1C       		.byte	0x1c
 4131 0397 94       		.byte	0x94
 4132 0398 01       		.byte	0x1
 4133 0399 08       		.byte	0x8
 4134 039a FF       		.byte	0xff
 4135 039b 1A       		.byte	0x1a
 4136 039c 21       		.byte	0x21
 4137 039d 9F       		.byte	0x9f
 4138 039e F40A0000 		.4byte	.LVL91
 4139 03a2 0A0B0000 		.4byte	.LVL94
 4140 03a6 2000     		.2byte	0x20
 4141 03a8 91       		.byte	0x91
 4142 03a9 00       		.sleb128 0
 4143 03aa 7A       		.byte	0x7a
 4144 03ab 00       		.sleb128 0
 4145 03ac 22       		.byte	0x22
 4146 03ad 0A       		.byte	0xa
 4147 03ae 2810     		.2byte	0x1028
ARM GAS  C:\Users\info\AppData\Local\Temp\ccHAj6Mv.s 			page 86


 4148 03b0 1C       		.byte	0x1c
 4149 03b1 94       		.byte	0x94
 4150 03b2 01       		.byte	0x1
 4151 03b3 08       		.byte	0x8
 4152 03b4 FF       		.byte	0xff
 4153 03b5 1A       		.byte	0x1a
 4154 03b6 38       		.byte	0x38
 4155 03b7 24       		.byte	0x24
 4156 03b8 91       		.byte	0x91
 4157 03b9 00       		.sleb128 0
 4158 03ba 7A       		.byte	0x7a
 4159 03bb 00       		.sleb128 0
 4160 03bc 22       		.byte	0x22
 4161 03bd 0A       		.byte	0xa
 4162 03be 2710     		.2byte	0x1027
 4163 03c0 1C       		.byte	0x1c
 4164 03c1 94       		.byte	0x94
 4165 03c2 01       		.byte	0x1
 4166 03c3 08       		.byte	0x8
 4167 03c4 FF       		.byte	0xff
 4168 03c5 1A       		.byte	0x1a
 4169 03c6 21       		.byte	0x21
 4170 03c7 9F       		.byte	0x9f
 4171 03c8 0A0B0000 		.4byte	.LVL94
 4172 03cc 0E0B0000 		.4byte	.LVL95
 4173 03d0 2000     		.2byte	0x20
 4174 03d2 91       		.byte	0x91
 4175 03d3 00       		.sleb128 0
 4176 03d4 7A       		.byte	0x7a
 4177 03d5 00       		.sleb128 0
 4178 03d6 22       		.byte	0x22
 4179 03d7 0A       		.byte	0xa
 4180 03d8 2A10     		.2byte	0x102a
 4181 03da 1C       		.byte	0x1c
 4182 03db 94       		.byte	0x94
 4183 03dc 01       		.byte	0x1
 4184 03dd 08       		.byte	0x8
 4185 03de FF       		.byte	0xff
 4186 03df 1A       		.byte	0x1a
 4187 03e0 38       		.byte	0x38
 4188 03e1 24       		.byte	0x24
 4189 03e2 91       		.byte	0x91
 4190 03e3 00       		.sleb128 0
 4191 03e4 7A       		.byte	0x7a
 4192 03e5 00       		.sleb128 0
 4193 03e6 22       		.byte	0x22
 4194 03e7 0A       		.byte	0xa
 4195 03e8 2910     		.2byte	0x1029
 4196 03ea 1C       		.byte	0x1c
 4197 03eb 94       		.byte	0x94
 4198 03ec 01       		.byte	0x1
 4199 03ed 08       		.byte	0x8
 4200 03ee FF       		.byte	0xff
 4201 03ef 1A       		.byte	0x1a
 4202 03f0 21       		.byte	0x21
 4203 03f1 9F       		.byte	0x9f
 4204 03f2 140B0000 		.4byte	.LVL96
ARM GAS  C:\Users\info\AppData\Local\Temp\ccHAj6Mv.s 			page 87


 4205 03f6 360C0000 		.4byte	.LVL136
 4206 03fa 2000     		.2byte	0x20
 4207 03fc 91       		.byte	0x91
 4208 03fd 00       		.sleb128 0
 4209 03fe 7A       		.byte	0x7a
 4210 03ff 00       		.sleb128 0
 4211 0400 22       		.byte	0x22
 4212 0401 0A       		.byte	0xa
 4213 0402 2810     		.2byte	0x1028
 4214 0404 1C       		.byte	0x1c
 4215 0405 94       		.byte	0x94
 4216 0406 01       		.byte	0x1
 4217 0407 08       		.byte	0x8
 4218 0408 FF       		.byte	0xff
 4219 0409 1A       		.byte	0x1a
 4220 040a 38       		.byte	0x38
 4221 040b 24       		.byte	0x24
 4222 040c 91       		.byte	0x91
 4223 040d 00       		.sleb128 0
 4224 040e 7A       		.byte	0x7a
 4225 040f 00       		.sleb128 0
 4226 0410 22       		.byte	0x22
 4227 0411 0A       		.byte	0xa
 4228 0412 2710     		.2byte	0x1027
 4229 0414 1C       		.byte	0x1c
 4230 0415 94       		.byte	0x94
 4231 0416 01       		.byte	0x1
 4232 0417 08       		.byte	0x8
 4233 0418 FF       		.byte	0xff
 4234 0419 1A       		.byte	0x1a
 4235 041a 21       		.byte	0x21
 4236 041b 9F       		.byte	0x9f
 4237 041c 360C0000 		.4byte	.LVL136
 4238 0420 380C0000 		.4byte	.LVL137
 4239 0424 1A00     		.2byte	0x1a
 4240 0426 72       		.byte	0x72
 4241 0427 00       		.sleb128 0
 4242 0428 7A       		.byte	0x7a
 4243 0429 00       		.sleb128 0
 4244 042a 22       		.byte	0x22
 4245 042b 94       		.byte	0x94
 4246 042c 01       		.byte	0x1
 4247 042d 08       		.byte	0x8
 4248 042e FF       		.byte	0xff
 4249 042f 1A       		.byte	0x1a
 4250 0430 38       		.byte	0x38
 4251 0431 24       		.byte	0x24
 4252 0432 72       		.byte	0x72
 4253 0433 00       		.sleb128 0
 4254 0434 7A       		.byte	0x7a
 4255 0435 00       		.sleb128 0
 4256 0436 22       		.byte	0x22
 4257 0437 23       		.byte	0x23
 4258 0438 01       		.uleb128 0x1
 4259 0439 94       		.byte	0x94
 4260 043a 01       		.byte	0x1
 4261 043b 08       		.byte	0x8
ARM GAS  C:\Users\info\AppData\Local\Temp\ccHAj6Mv.s 			page 88


 4262 043c FF       		.byte	0xff
 4263 043d 1A       		.byte	0x1a
 4264 043e 21       		.byte	0x21
 4265 043f 9F       		.byte	0x9f
 4266 0440 380C0000 		.4byte	.LVL137
 4267 0444 6A0C0000 		.4byte	.LVL140
 4268 0448 2000     		.2byte	0x20
 4269 044a 91       		.byte	0x91
 4270 044b 00       		.sleb128 0
 4271 044c 7A       		.byte	0x7a
 4272 044d 00       		.sleb128 0
 4273 044e 22       		.byte	0x22
 4274 044f 0A       		.byte	0xa
 4275 0450 2810     		.2byte	0x1028
 4276 0452 1C       		.byte	0x1c
 4277 0453 94       		.byte	0x94
 4278 0454 01       		.byte	0x1
 4279 0455 08       		.byte	0x8
 4280 0456 FF       		.byte	0xff
 4281 0457 1A       		.byte	0x1a
 4282 0458 38       		.byte	0x38
 4283 0459 24       		.byte	0x24
 4284 045a 91       		.byte	0x91
 4285 045b 00       		.sleb128 0
 4286 045c 7A       		.byte	0x7a
 4287 045d 00       		.sleb128 0
 4288 045e 22       		.byte	0x22
 4289 045f 0A       		.byte	0xa
 4290 0460 2710     		.2byte	0x1027
 4291 0462 1C       		.byte	0x1c
 4292 0463 94       		.byte	0x94
 4293 0464 01       		.byte	0x1
 4294 0465 08       		.byte	0x8
 4295 0466 FF       		.byte	0xff
 4296 0467 1A       		.byte	0x1a
 4297 0468 21       		.byte	0x21
 4298 0469 9F       		.byte	0x9f
 4299 046a 6A0C0000 		.4byte	.LVL140
 4300 046e 6C0C0000 		.4byte	.LVL141
 4301 0472 1A00     		.2byte	0x1a
 4302 0474 72       		.byte	0x72
 4303 0475 00       		.sleb128 0
 4304 0476 7A       		.byte	0x7a
 4305 0477 00       		.sleb128 0
 4306 0478 22       		.byte	0x22
 4307 0479 94       		.byte	0x94
 4308 047a 01       		.byte	0x1
 4309 047b 08       		.byte	0x8
 4310 047c FF       		.byte	0xff
 4311 047d 1A       		.byte	0x1a
 4312 047e 38       		.byte	0x38
 4313 047f 24       		.byte	0x24
 4314 0480 72       		.byte	0x72
 4315 0481 00       		.sleb128 0
 4316 0482 7A       		.byte	0x7a
 4317 0483 00       		.sleb128 0
 4318 0484 22       		.byte	0x22
ARM GAS  C:\Users\info\AppData\Local\Temp\ccHAj6Mv.s 			page 89


 4319 0485 23       		.byte	0x23
 4320 0486 01       		.uleb128 0x1
 4321 0487 94       		.byte	0x94
 4322 0488 01       		.byte	0x1
 4323 0489 08       		.byte	0x8
 4324 048a FF       		.byte	0xff
 4325 048b 1A       		.byte	0x1a
 4326 048c 21       		.byte	0x21
 4327 048d 9F       		.byte	0x9f
 4328 048e 6C0C0000 		.4byte	.LVL141
 4329 0492 520D0000 		.4byte	.LVL155
 4330 0496 2000     		.2byte	0x20
 4331 0498 91       		.byte	0x91
 4332 0499 00       		.sleb128 0
 4333 049a 7A       		.byte	0x7a
 4334 049b 00       		.sleb128 0
 4335 049c 22       		.byte	0x22
 4336 049d 0A       		.byte	0xa
 4337 049e 2810     		.2byte	0x1028
 4338 04a0 1C       		.byte	0x1c
 4339 04a1 94       		.byte	0x94
 4340 04a2 01       		.byte	0x1
 4341 04a3 08       		.byte	0x8
 4342 04a4 FF       		.byte	0xff
 4343 04a5 1A       		.byte	0x1a
 4344 04a6 38       		.byte	0x38
 4345 04a7 24       		.byte	0x24
 4346 04a8 91       		.byte	0x91
 4347 04a9 00       		.sleb128 0
 4348 04aa 7A       		.byte	0x7a
 4349 04ab 00       		.sleb128 0
 4350 04ac 22       		.byte	0x22
 4351 04ad 0A       		.byte	0xa
 4352 04ae 2710     		.2byte	0x1027
 4353 04b0 1C       		.byte	0x1c
 4354 04b1 94       		.byte	0x94
 4355 04b2 01       		.byte	0x1
 4356 04b3 08       		.byte	0x8
 4357 04b4 FF       		.byte	0xff
 4358 04b5 1A       		.byte	0x1a
 4359 04b6 21       		.byte	0x21
 4360 04b7 9F       		.byte	0x9f
 4361 04b8 520D0000 		.4byte	.LVL155
 4362 04bc 560D0000 		.4byte	.LVL156
 4363 04c0 2000     		.2byte	0x20
 4364 04c2 91       		.byte	0x91
 4365 04c3 00       		.sleb128 0
 4366 04c4 7A       		.byte	0x7a
 4367 04c5 00       		.sleb128 0
 4368 04c6 22       		.byte	0x22
 4369 04c7 0A       		.byte	0xa
 4370 04c8 2A10     		.2byte	0x102a
 4371 04ca 1C       		.byte	0x1c
 4372 04cb 94       		.byte	0x94
 4373 04cc 01       		.byte	0x1
 4374 04cd 08       		.byte	0x8
 4375 04ce FF       		.byte	0xff
ARM GAS  C:\Users\info\AppData\Local\Temp\ccHAj6Mv.s 			page 90


 4376 04cf 1A       		.byte	0x1a
 4377 04d0 38       		.byte	0x38
 4378 04d1 24       		.byte	0x24
 4379 04d2 91       		.byte	0x91
 4380 04d3 00       		.sleb128 0
 4381 04d4 7A       		.byte	0x7a
 4382 04d5 00       		.sleb128 0
 4383 04d6 22       		.byte	0x22
 4384 04d7 0A       		.byte	0xa
 4385 04d8 2910     		.2byte	0x1029
 4386 04da 1C       		.byte	0x1c
 4387 04db 94       		.byte	0x94
 4388 04dc 01       		.byte	0x1
 4389 04dd 08       		.byte	0x8
 4390 04de FF       		.byte	0xff
 4391 04df 1A       		.byte	0x1a
 4392 04e0 21       		.byte	0x21
 4393 04e1 9F       		.byte	0x9f
 4394 04e2 5C0D0000 		.4byte	.LVL157
 4395 04e6 740D0000 		.4byte	.LVL160
 4396 04ea 2000     		.2byte	0x20
 4397 04ec 91       		.byte	0x91
 4398 04ed 00       		.sleb128 0
 4399 04ee 7A       		.byte	0x7a
 4400 04ef 00       		.sleb128 0
 4401 04f0 22       		.byte	0x22
 4402 04f1 0A       		.byte	0xa
 4403 04f2 2810     		.2byte	0x1028
 4404 04f4 1C       		.byte	0x1c
 4405 04f5 94       		.byte	0x94
 4406 04f6 01       		.byte	0x1
 4407 04f7 08       		.byte	0x8
 4408 04f8 FF       		.byte	0xff
 4409 04f9 1A       		.byte	0x1a
 4410 04fa 38       		.byte	0x38
 4411 04fb 24       		.byte	0x24
 4412 04fc 91       		.byte	0x91
 4413 04fd 00       		.sleb128 0
 4414 04fe 7A       		.byte	0x7a
 4415 04ff 00       		.sleb128 0
 4416 0500 22       		.byte	0x22
 4417 0501 0A       		.byte	0xa
 4418 0502 2710     		.2byte	0x1027
 4419 0504 1C       		.byte	0x1c
 4420 0505 94       		.byte	0x94
 4421 0506 01       		.byte	0x1
 4422 0507 08       		.byte	0x8
 4423 0508 FF       		.byte	0xff
 4424 0509 1A       		.byte	0x1a
 4425 050a 21       		.byte	0x21
 4426 050b 9F       		.byte	0x9f
 4427 050c 740D0000 		.4byte	.LVL160
 4428 0510 780D0000 		.4byte	.LVL161
 4429 0514 2000     		.2byte	0x20
 4430 0516 91       		.byte	0x91
 4431 0517 00       		.sleb128 0
 4432 0518 7A       		.byte	0x7a
ARM GAS  C:\Users\info\AppData\Local\Temp\ccHAj6Mv.s 			page 91


 4433 0519 00       		.sleb128 0
 4434 051a 22       		.byte	0x22
 4435 051b 0A       		.byte	0xa
 4436 051c 2A10     		.2byte	0x102a
 4437 051e 1C       		.byte	0x1c
 4438 051f 94       		.byte	0x94
 4439 0520 01       		.byte	0x1
 4440 0521 08       		.byte	0x8
 4441 0522 FF       		.byte	0xff
 4442 0523 1A       		.byte	0x1a
 4443 0524 38       		.byte	0x38
 4444 0525 24       		.byte	0x24
 4445 0526 91       		.byte	0x91
 4446 0527 00       		.sleb128 0
 4447 0528 7A       		.byte	0x7a
 4448 0529 00       		.sleb128 0
 4449 052a 22       		.byte	0x22
 4450 052b 0A       		.byte	0xa
 4451 052c 2910     		.2byte	0x1029
 4452 052e 1C       		.byte	0x1c
 4453 052f 94       		.byte	0x94
 4454 0530 01       		.byte	0x1
 4455 0531 08       		.byte	0x8
 4456 0532 FF       		.byte	0xff
 4457 0533 1A       		.byte	0x1a
 4458 0534 21       		.byte	0x21
 4459 0535 9F       		.byte	0x9f
 4460 0536 7C0D0000 		.4byte	.LVL162
 4461 053a 160E0000 		.4byte	.LVL184
 4462 053e 2000     		.2byte	0x20
 4463 0540 91       		.byte	0x91
 4464 0541 00       		.sleb128 0
 4465 0542 7A       		.byte	0x7a
 4466 0543 00       		.sleb128 0
 4467 0544 22       		.byte	0x22
 4468 0545 0A       		.byte	0xa
 4469 0546 2810     		.2byte	0x1028
 4470 0548 1C       		.byte	0x1c
 4471 0549 94       		.byte	0x94
 4472 054a 01       		.byte	0x1
 4473 054b 08       		.byte	0x8
 4474 054c FF       		.byte	0xff
 4475 054d 1A       		.byte	0x1a
 4476 054e 38       		.byte	0x38
 4477 054f 24       		.byte	0x24
 4478 0550 91       		.byte	0x91
 4479 0551 00       		.sleb128 0
 4480 0552 7A       		.byte	0x7a
 4481 0553 00       		.sleb128 0
 4482 0554 22       		.byte	0x22
 4483 0555 0A       		.byte	0xa
 4484 0556 2710     		.2byte	0x1027
 4485 0558 1C       		.byte	0x1c
 4486 0559 94       		.byte	0x94
 4487 055a 01       		.byte	0x1
 4488 055b 08       		.byte	0x8
 4489 055c FF       		.byte	0xff
ARM GAS  C:\Users\info\AppData\Local\Temp\ccHAj6Mv.s 			page 92


 4490 055d 1A       		.byte	0x1a
 4491 055e 21       		.byte	0x21
 4492 055f 9F       		.byte	0x9f
 4493 0560 160E0000 		.4byte	.LVL184
 4494 0564 280E0000 		.4byte	.LVL187
 4495 0568 1A00     		.2byte	0x1a
 4496 056a 70       		.byte	0x70
 4497 056b 00       		.sleb128 0
 4498 056c 7A       		.byte	0x7a
 4499 056d 00       		.sleb128 0
 4500 056e 22       		.byte	0x22
 4501 056f 94       		.byte	0x94
 4502 0570 01       		.byte	0x1
 4503 0571 08       		.byte	0x8
 4504 0572 FF       		.byte	0xff
 4505 0573 1A       		.byte	0x1a
 4506 0574 38       		.byte	0x38
 4507 0575 24       		.byte	0x24
 4508 0576 70       		.byte	0x70
 4509 0577 00       		.sleb128 0
 4510 0578 7A       		.byte	0x7a
 4511 0579 00       		.sleb128 0
 4512 057a 22       		.byte	0x22
 4513 057b 23       		.byte	0x23
 4514 057c 01       		.uleb128 0x1
 4515 057d 94       		.byte	0x94
 4516 057e 01       		.byte	0x1
 4517 057f 08       		.byte	0x8
 4518 0580 FF       		.byte	0xff
 4519 0581 1A       		.byte	0x1a
 4520 0582 21       		.byte	0x21
 4521 0583 9F       		.byte	0x9f
 4522 0584 6A0E0000 		.4byte	.LVL194
 4523 0588 6C0E0000 		.4byte	.LVL195
 4524 058c 2000     		.2byte	0x20
 4525 058e 91       		.byte	0x91
 4526 058f 00       		.sleb128 0
 4527 0590 7A       		.byte	0x7a
 4528 0591 00       		.sleb128 0
 4529 0592 22       		.byte	0x22
 4530 0593 0A       		.byte	0xa
 4531 0594 2810     		.2byte	0x1028
 4532 0596 1C       		.byte	0x1c
 4533 0597 94       		.byte	0x94
 4534 0598 01       		.byte	0x1
 4535 0599 08       		.byte	0x8
 4536 059a FF       		.byte	0xff
 4537 059b 1A       		.byte	0x1a
 4538 059c 38       		.byte	0x38
 4539 059d 24       		.byte	0x24
 4540 059e 91       		.byte	0x91
 4541 059f 00       		.sleb128 0
 4542 05a0 7A       		.byte	0x7a
 4543 05a1 00       		.sleb128 0
 4544 05a2 22       		.byte	0x22
 4545 05a3 0A       		.byte	0xa
 4546 05a4 2710     		.2byte	0x1027
ARM GAS  C:\Users\info\AppData\Local\Temp\ccHAj6Mv.s 			page 93


 4547 05a6 1C       		.byte	0x1c
 4548 05a7 94       		.byte	0x94
 4549 05a8 01       		.byte	0x1
 4550 05a9 08       		.byte	0x8
 4551 05aa FF       		.byte	0xff
 4552 05ab 1A       		.byte	0x1a
 4553 05ac 21       		.byte	0x21
 4554 05ad 9F       		.byte	0x9f
 4555 05ae 760E0000 		.4byte	.LVL197
 4556 05b2 7C0E0000 		.4byte	.LVL198
 4557 05b6 2000     		.2byte	0x20
 4558 05b8 91       		.byte	0x91
 4559 05b9 00       		.sleb128 0
 4560 05ba 7A       		.byte	0x7a
 4561 05bb 00       		.sleb128 0
 4562 05bc 22       		.byte	0x22
 4563 05bd 0A       		.byte	0xa
 4564 05be 2810     		.2byte	0x1028
 4565 05c0 1C       		.byte	0x1c
 4566 05c1 94       		.byte	0x94
 4567 05c2 01       		.byte	0x1
 4568 05c3 08       		.byte	0x8
 4569 05c4 FF       		.byte	0xff
 4570 05c5 1A       		.byte	0x1a
 4571 05c6 38       		.byte	0x38
 4572 05c7 24       		.byte	0x24
 4573 05c8 91       		.byte	0x91
 4574 05c9 00       		.sleb128 0
 4575 05ca 7A       		.byte	0x7a
 4576 05cb 00       		.sleb128 0
 4577 05cc 22       		.byte	0x22
 4578 05cd 0A       		.byte	0xa
 4579 05ce 2710     		.2byte	0x1027
 4580 05d0 1C       		.byte	0x1c
 4581 05d1 94       		.byte	0x94
 4582 05d2 01       		.byte	0x1
 4583 05d3 08       		.byte	0x8
 4584 05d4 FF       		.byte	0xff
 4585 05d5 1A       		.byte	0x1a
 4586 05d6 21       		.byte	0x21
 4587 05d7 9F       		.byte	0x9f
 4588 05d8 7C0E0000 		.4byte	.LVL198
 4589 05dc 800E0000 		.4byte	.LVL199
 4590 05e0 1A00     		.2byte	0x1a
 4591 05e2 72       		.byte	0x72
 4592 05e3 00       		.sleb128 0
 4593 05e4 7A       		.byte	0x7a
 4594 05e5 00       		.sleb128 0
 4595 05e6 22       		.byte	0x22
 4596 05e7 94       		.byte	0x94
 4597 05e8 01       		.byte	0x1
 4598 05e9 08       		.byte	0x8
 4599 05ea FF       		.byte	0xff
 4600 05eb 1A       		.byte	0x1a
 4601 05ec 38       		.byte	0x38
 4602 05ed 24       		.byte	0x24
 4603 05ee 72       		.byte	0x72
ARM GAS  C:\Users\info\AppData\Local\Temp\ccHAj6Mv.s 			page 94


 4604 05ef 00       		.sleb128 0
 4605 05f0 7A       		.byte	0x7a
 4606 05f1 00       		.sleb128 0
 4607 05f2 22       		.byte	0x22
 4608 05f3 23       		.byte	0x23
 4609 05f4 01       		.uleb128 0x1
 4610 05f5 94       		.byte	0x94
 4611 05f6 01       		.byte	0x1
 4612 05f7 08       		.byte	0x8
 4613 05f8 FF       		.byte	0xff
 4614 05f9 1A       		.byte	0x1a
 4615 05fa 21       		.byte	0x21
 4616 05fb 9F       		.byte	0x9f
 4617 05fc 800E0000 		.4byte	.LVL199
 4618 0600 960E0000 		.4byte	.LVL206
 4619 0604 2000     		.2byte	0x20
 4620 0606 91       		.byte	0x91
 4621 0607 00       		.sleb128 0
 4622 0608 7A       		.byte	0x7a
 4623 0609 00       		.sleb128 0
 4624 060a 22       		.byte	0x22
 4625 060b 0A       		.byte	0xa
 4626 060c 2810     		.2byte	0x1028
 4627 060e 1C       		.byte	0x1c
 4628 060f 94       		.byte	0x94
 4629 0610 01       		.byte	0x1
 4630 0611 08       		.byte	0x8
 4631 0612 FF       		.byte	0xff
 4632 0613 1A       		.byte	0x1a
 4633 0614 38       		.byte	0x38
 4634 0615 24       		.byte	0x24
 4635 0616 91       		.byte	0x91
 4636 0617 00       		.sleb128 0
 4637 0618 7A       		.byte	0x7a
 4638 0619 00       		.sleb128 0
 4639 061a 22       		.byte	0x22
 4640 061b 0A       		.byte	0xa
 4641 061c 2710     		.2byte	0x1027
 4642 061e 1C       		.byte	0x1c
 4643 061f 94       		.byte	0x94
 4644 0620 01       		.byte	0x1
 4645 0621 08       		.byte	0x8
 4646 0622 FF       		.byte	0xff
 4647 0623 1A       		.byte	0x1a
 4648 0624 21       		.byte	0x21
 4649 0625 9F       		.byte	0x9f
 4650 0626 9C0E0000 		.4byte	.LVL209
 4651 062a AA0E0000 		.4byte	.LVL216
 4652 062e 2000     		.2byte	0x20
 4653 0630 91       		.byte	0x91
 4654 0631 00       		.sleb128 0
 4655 0632 7A       		.byte	0x7a
 4656 0633 00       		.sleb128 0
 4657 0634 22       		.byte	0x22
 4658 0635 0A       		.byte	0xa
 4659 0636 2810     		.2byte	0x1028
 4660 0638 1C       		.byte	0x1c
ARM GAS  C:\Users\info\AppData\Local\Temp\ccHAj6Mv.s 			page 95


 4661 0639 94       		.byte	0x94
 4662 063a 01       		.byte	0x1
 4663 063b 08       		.byte	0x8
 4664 063c FF       		.byte	0xff
 4665 063d 1A       		.byte	0x1a
 4666 063e 38       		.byte	0x38
 4667 063f 24       		.byte	0x24
 4668 0640 91       		.byte	0x91
 4669 0641 00       		.sleb128 0
 4670 0642 7A       		.byte	0x7a
 4671 0643 00       		.sleb128 0
 4672 0644 22       		.byte	0x22
 4673 0645 0A       		.byte	0xa
 4674 0646 2710     		.2byte	0x1027
 4675 0648 1C       		.byte	0x1c
 4676 0649 94       		.byte	0x94
 4677 064a 01       		.byte	0x1
 4678 064b 08       		.byte	0x8
 4679 064c FF       		.byte	0xff
 4680 064d 1A       		.byte	0x1a
 4681 064e 21       		.byte	0x21
 4682 064f 9F       		.byte	0x9f
 4683 0650 B00E0000 		.4byte	.LVL219
 4684 0654 F00E0000 		.4byte	.LVL236
 4685 0658 2000     		.2byte	0x20
 4686 065a 91       		.byte	0x91
 4687 065b 00       		.sleb128 0
 4688 065c 7A       		.byte	0x7a
 4689 065d 00       		.sleb128 0
 4690 065e 22       		.byte	0x22
 4691 065f 0A       		.byte	0xa
 4692 0660 2810     		.2byte	0x1028
 4693 0662 1C       		.byte	0x1c
 4694 0663 94       		.byte	0x94
 4695 0664 01       		.byte	0x1
 4696 0665 08       		.byte	0x8
 4697 0666 FF       		.byte	0xff
 4698 0667 1A       		.byte	0x1a
 4699 0668 38       		.byte	0x38
 4700 0669 24       		.byte	0x24
 4701 066a 91       		.byte	0x91
 4702 066b 00       		.sleb128 0
 4703 066c 7A       		.byte	0x7a
 4704 066d 00       		.sleb128 0
 4705 066e 22       		.byte	0x22
 4706 066f 0A       		.byte	0xa
 4707 0670 2710     		.2byte	0x1027
 4708 0672 1C       		.byte	0x1c
 4709 0673 94       		.byte	0x94
 4710 0674 01       		.byte	0x1
 4711 0675 08       		.byte	0x8
 4712 0676 FF       		.byte	0xff
 4713 0677 1A       		.byte	0x1a
 4714 0678 21       		.byte	0x21
 4715 0679 9F       		.byte	0x9f
 4716 067a 00000000 		.4byte	0
 4717 067e 00000000 		.4byte	0
ARM GAS  C:\Users\info\AppData\Local\Temp\ccHAj6Mv.s 			page 96


 4718              	.LLST9:
 4719 0682 F2090000 		.4byte	.LVL46
 4720 0686 300A0000 		.4byte	.LVL53
 4721 068a 0100     		.2byte	0x1
 4722 068c 52       		.byte	0x52
 4723 068d 300A0000 		.4byte	.LVL53
 4724 0691 320A0000 		.4byte	.LVL54
 4725 0695 2200     		.2byte	0x22
 4726 0697 91       		.byte	0x91
 4727 0698 00       		.sleb128 0
 4728 0699 7A       		.byte	0x7a
 4729 069a 00       		.sleb128 0
 4730 069b 22       		.byte	0x22
 4731 069c 0A       		.byte	0xa
 4732 069d 2810     		.2byte	0x1028
 4733 069f 1C       		.byte	0x1c
 4734 06a0 94       		.byte	0x94
 4735 06a1 01       		.byte	0x1
 4736 06a2 08       		.byte	0x8
 4737 06a3 FF       		.byte	0xff
 4738 06a4 1A       		.byte	0x1a
 4739 06a5 38       		.byte	0x38
 4740 06a6 24       		.byte	0x24
 4741 06a7 91       		.byte	0x91
 4742 06a8 00       		.sleb128 0
 4743 06a9 7A       		.byte	0x7a
 4744 06aa 00       		.sleb128 0
 4745 06ab 22       		.byte	0x22
 4746 06ac 0A       		.byte	0xa
 4747 06ad 2710     		.2byte	0x1027
 4748 06af 1C       		.byte	0x1c
 4749 06b0 94       		.byte	0x94
 4750 06b1 01       		.byte	0x1
 4751 06b2 08       		.byte	0x8
 4752 06b3 FF       		.byte	0xff
 4753 06b4 1A       		.byte	0x1a
 4754 06b5 21       		.byte	0x21
 4755 06b6 3C       		.byte	0x3c
 4756 06b7 25       		.byte	0x25
 4757 06b8 9F       		.byte	0x9f
 4758 06b9 320A0000 		.4byte	.LVL54
 4759 06bd 420A0000 		.4byte	.LVL55
 4760 06c1 0100     		.2byte	0x1
 4761 06c3 52       		.byte	0x52
 4762 06c4 420A0000 		.4byte	.LVL55
 4763 06c8 540A0000 		.4byte	.LVL57
 4764 06cc 2200     		.2byte	0x22
 4765 06ce 91       		.byte	0x91
 4766 06cf 00       		.sleb128 0
 4767 06d0 7A       		.byte	0x7a
 4768 06d1 00       		.sleb128 0
 4769 06d2 22       		.byte	0x22
 4770 06d3 0A       		.byte	0xa
 4771 06d4 2810     		.2byte	0x1028
 4772 06d6 1C       		.byte	0x1c
 4773 06d7 94       		.byte	0x94
 4774 06d8 01       		.byte	0x1
ARM GAS  C:\Users\info\AppData\Local\Temp\ccHAj6Mv.s 			page 97


 4775 06d9 08       		.byte	0x8
 4776 06da FF       		.byte	0xff
 4777 06db 1A       		.byte	0x1a
 4778 06dc 38       		.byte	0x38
 4779 06dd 24       		.byte	0x24
 4780 06de 91       		.byte	0x91
 4781 06df 00       		.sleb128 0
 4782 06e0 7A       		.byte	0x7a
 4783 06e1 00       		.sleb128 0
 4784 06e2 22       		.byte	0x22
 4785 06e3 0A       		.byte	0xa
 4786 06e4 2710     		.2byte	0x1027
 4787 06e6 1C       		.byte	0x1c
 4788 06e7 94       		.byte	0x94
 4789 06e8 01       		.byte	0x1
 4790 06e9 08       		.byte	0x8
 4791 06ea FF       		.byte	0xff
 4792 06eb 1A       		.byte	0x1a
 4793 06ec 21       		.byte	0x21
 4794 06ed 3C       		.byte	0x3c
 4795 06ee 25       		.byte	0x25
 4796 06ef 9F       		.byte	0x9f
 4797 06f0 540A0000 		.4byte	.LVL57
 4798 06f4 560A0000 		.4byte	.LVL58
 4799 06f8 0100     		.2byte	0x1
 4800 06fa 52       		.byte	0x52
 4801 06fb 560A0000 		.4byte	.LVL58
 4802 06ff 600A0000 		.4byte	.LVL60
 4803 0703 2200     		.2byte	0x22
 4804 0705 91       		.byte	0x91
 4805 0706 00       		.sleb128 0
 4806 0707 7A       		.byte	0x7a
 4807 0708 00       		.sleb128 0
 4808 0709 22       		.byte	0x22
 4809 070a 0A       		.byte	0xa
 4810 070b 2810     		.2byte	0x1028
 4811 070d 1C       		.byte	0x1c
 4812 070e 94       		.byte	0x94
 4813 070f 01       		.byte	0x1
 4814 0710 08       		.byte	0x8
 4815 0711 FF       		.byte	0xff
 4816 0712 1A       		.byte	0x1a
 4817 0713 38       		.byte	0x38
 4818 0714 24       		.byte	0x24
 4819 0715 91       		.byte	0x91
 4820 0716 00       		.sleb128 0
 4821 0717 7A       		.byte	0x7a
 4822 0718 00       		.sleb128 0
 4823 0719 22       		.byte	0x22
 4824 071a 0A       		.byte	0xa
 4825 071b 2710     		.2byte	0x1027
 4826 071d 1C       		.byte	0x1c
 4827 071e 94       		.byte	0x94
 4828 071f 01       		.byte	0x1
 4829 0720 08       		.byte	0x8
 4830 0721 FF       		.byte	0xff
 4831 0722 1A       		.byte	0x1a
ARM GAS  C:\Users\info\AppData\Local\Temp\ccHAj6Mv.s 			page 98


 4832 0723 21       		.byte	0x21
 4833 0724 3C       		.byte	0x3c
 4834 0725 25       		.byte	0x25
 4835 0726 9F       		.byte	0x9f
 4836 0727 600A0000 		.4byte	.LVL60
 4837 072b 780A0000 		.4byte	.LVL65
 4838 072f 0100     		.2byte	0x1
 4839 0731 52       		.byte	0x52
 4840 0732 7A0A0000 		.4byte	.LVL66
 4841 0736 840A0000 		.4byte	.LVL70
 4842 073a 0100     		.2byte	0x1
 4843 073c 52       		.byte	0x52
 4844 073d 860A0000 		.4byte	.LVL71
 4845 0741 880A0000 		.4byte	.LVL72
 4846 0745 0100     		.2byte	0x1
 4847 0747 52       		.byte	0x52
 4848 0748 880A0000 		.4byte	.LVL72
 4849 074c 9E0A0000 		.4byte	.LVL74
 4850 0750 2200     		.2byte	0x22
 4851 0752 91       		.byte	0x91
 4852 0753 00       		.sleb128 0
 4853 0754 7A       		.byte	0x7a
 4854 0755 00       		.sleb128 0
 4855 0756 22       		.byte	0x22
 4856 0757 0A       		.byte	0xa
 4857 0758 2810     		.2byte	0x1028
 4858 075a 1C       		.byte	0x1c
 4859 075b 94       		.byte	0x94
 4860 075c 01       		.byte	0x1
 4861 075d 08       		.byte	0x8
 4862 075e FF       		.byte	0xff
 4863 075f 1A       		.byte	0x1a
 4864 0760 38       		.byte	0x38
 4865 0761 24       		.byte	0x24
 4866 0762 91       		.byte	0x91
 4867 0763 00       		.sleb128 0
 4868 0764 7A       		.byte	0x7a
 4869 0765 00       		.sleb128 0
 4870 0766 22       		.byte	0x22
 4871 0767 0A       		.byte	0xa
 4872 0768 2710     		.2byte	0x1027
 4873 076a 1C       		.byte	0x1c
 4874 076b 94       		.byte	0x94
 4875 076c 01       		.byte	0x1
 4876 076d 08       		.byte	0x8
 4877 076e FF       		.byte	0xff
 4878 076f 1A       		.byte	0x1a
 4879 0770 21       		.byte	0x21
 4880 0771 3C       		.byte	0x3c
 4881 0772 25       		.byte	0x25
 4882 0773 9F       		.byte	0x9f
 4883 0774 A40A0000 		.4byte	.LVL76
 4884 0778 BA0A0000 		.4byte	.LVL80
 4885 077c 0100     		.2byte	0x1
 4886 077e 52       		.byte	0x52
 4887 077f BC0A0000 		.4byte	.LVL81
 4888 0783 D20A0000 		.4byte	.LVL85
ARM GAS  C:\Users\info\AppData\Local\Temp\ccHAj6Mv.s 			page 99


 4889 0787 0100     		.2byte	0x1
 4890 0789 52       		.byte	0x52
 4891 078a D40A0000 		.4byte	.LVL86
 4892 078e DE0A0000 		.4byte	.LVL88
 4893 0792 0100     		.2byte	0x1
 4894 0794 52       		.byte	0x52
 4895 0795 DE0A0000 		.4byte	.LVL88
 4896 0799 EA0A0000 		.4byte	.LVL89
 4897 079d 2200     		.2byte	0x22
 4898 079f 91       		.byte	0x91
 4899 07a0 00       		.sleb128 0
 4900 07a1 7A       		.byte	0x7a
 4901 07a2 00       		.sleb128 0
 4902 07a3 22       		.byte	0x22
 4903 07a4 0A       		.byte	0xa
 4904 07a5 2810     		.2byte	0x1028
 4905 07a7 1C       		.byte	0x1c
 4906 07a8 94       		.byte	0x94
 4907 07a9 01       		.byte	0x1
 4908 07aa 08       		.byte	0x8
 4909 07ab FF       		.byte	0xff
 4910 07ac 1A       		.byte	0x1a
 4911 07ad 38       		.byte	0x38
 4912 07ae 24       		.byte	0x24
 4913 07af 91       		.byte	0x91
 4914 07b0 00       		.sleb128 0
 4915 07b1 7A       		.byte	0x7a
 4916 07b2 00       		.sleb128 0
 4917 07b3 22       		.byte	0x22
 4918 07b4 0A       		.byte	0xa
 4919 07b5 2710     		.2byte	0x1027
 4920 07b7 1C       		.byte	0x1c
 4921 07b8 94       		.byte	0x94
 4922 07b9 01       		.byte	0x1
 4923 07ba 08       		.byte	0x8
 4924 07bb FF       		.byte	0xff
 4925 07bc 1A       		.byte	0x1a
 4926 07bd 21       		.byte	0x21
 4927 07be 3C       		.byte	0x3c
 4928 07bf 25       		.byte	0x25
 4929 07c0 9F       		.byte	0x9f
 4930 07c1 EA0A0000 		.4byte	.LVL89
 4931 07c5 EE0A0000 		.4byte	.LVL90
 4932 07c9 2200     		.2byte	0x22
 4933 07cb 91       		.byte	0x91
 4934 07cc 00       		.sleb128 0
 4935 07cd 7A       		.byte	0x7a
 4936 07ce 00       		.sleb128 0
 4937 07cf 22       		.byte	0x22
 4938 07d0 0A       		.byte	0xa
 4939 07d1 2A10     		.2byte	0x102a
 4940 07d3 1C       		.byte	0x1c
 4941 07d4 94       		.byte	0x94
 4942 07d5 01       		.byte	0x1
 4943 07d6 08       		.byte	0x8
 4944 07d7 FF       		.byte	0xff
 4945 07d8 1A       		.byte	0x1a
ARM GAS  C:\Users\info\AppData\Local\Temp\ccHAj6Mv.s 			page 100


 4946 07d9 38       		.byte	0x38
 4947 07da 24       		.byte	0x24
 4948 07db 91       		.byte	0x91
 4949 07dc 00       		.sleb128 0
 4950 07dd 7A       		.byte	0x7a
 4951 07de 00       		.sleb128 0
 4952 07df 22       		.byte	0x22
 4953 07e0 0A       		.byte	0xa
 4954 07e1 2910     		.2byte	0x1029
 4955 07e3 1C       		.byte	0x1c
 4956 07e4 94       		.byte	0x94
 4957 07e5 01       		.byte	0x1
 4958 07e6 08       		.byte	0x8
 4959 07e7 FF       		.byte	0xff
 4960 07e8 1A       		.byte	0x1a
 4961 07e9 21       		.byte	0x21
 4962 07ea 3C       		.byte	0x3c
 4963 07eb 25       		.byte	0x25
 4964 07ec 9F       		.byte	0x9f
 4965 07ed F40A0000 		.4byte	.LVL91
 4966 07f1 FE0A0000 		.4byte	.LVL93
 4967 07f5 0100     		.2byte	0x1
 4968 07f7 52       		.byte	0x52
 4969 07f8 FE0A0000 		.4byte	.LVL93
 4970 07fc 0A0B0000 		.4byte	.LVL94
 4971 0800 2200     		.2byte	0x22
 4972 0802 91       		.byte	0x91
 4973 0803 00       		.sleb128 0
 4974 0804 7A       		.byte	0x7a
 4975 0805 00       		.sleb128 0
 4976 0806 22       		.byte	0x22
 4977 0807 0A       		.byte	0xa
 4978 0808 2810     		.2byte	0x1028
 4979 080a 1C       		.byte	0x1c
 4980 080b 94       		.byte	0x94
 4981 080c 01       		.byte	0x1
 4982 080d 08       		.byte	0x8
 4983 080e FF       		.byte	0xff
 4984 080f 1A       		.byte	0x1a
 4985 0810 38       		.byte	0x38
 4986 0811 24       		.byte	0x24
 4987 0812 91       		.byte	0x91
 4988 0813 00       		.sleb128 0
 4989 0814 7A       		.byte	0x7a
 4990 0815 00       		.sleb128 0
 4991 0816 22       		.byte	0x22
 4992 0817 0A       		.byte	0xa
 4993 0818 2710     		.2byte	0x1027
 4994 081a 1C       		.byte	0x1c
 4995 081b 94       		.byte	0x94
 4996 081c 01       		.byte	0x1
 4997 081d 08       		.byte	0x8
 4998 081e FF       		.byte	0xff
 4999 081f 1A       		.byte	0x1a
 5000 0820 21       		.byte	0x21
 5001 0821 3C       		.byte	0x3c
 5002 0822 25       		.byte	0x25
ARM GAS  C:\Users\info\AppData\Local\Temp\ccHAj6Mv.s 			page 101


 5003 0823 9F       		.byte	0x9f
 5004 0824 0A0B0000 		.4byte	.LVL94
 5005 0828 0E0B0000 		.4byte	.LVL95
 5006 082c 2200     		.2byte	0x22
 5007 082e 91       		.byte	0x91
 5008 082f 00       		.sleb128 0
 5009 0830 7A       		.byte	0x7a
 5010 0831 00       		.sleb128 0
 5011 0832 22       		.byte	0x22
 5012 0833 0A       		.byte	0xa
 5013 0834 2A10     		.2byte	0x102a
 5014 0836 1C       		.byte	0x1c
 5015 0837 94       		.byte	0x94
 5016 0838 01       		.byte	0x1
 5017 0839 08       		.byte	0x8
 5018 083a FF       		.byte	0xff
 5019 083b 1A       		.byte	0x1a
 5020 083c 38       		.byte	0x38
 5021 083d 24       		.byte	0x24
 5022 083e 91       		.byte	0x91
 5023 083f 00       		.sleb128 0
 5024 0840 7A       		.byte	0x7a
 5025 0841 00       		.sleb128 0
 5026 0842 22       		.byte	0x22
 5027 0843 0A       		.byte	0xa
 5028 0844 2910     		.2byte	0x1029
 5029 0846 1C       		.byte	0x1c
 5030 0847 94       		.byte	0x94
 5031 0848 01       		.byte	0x1
 5032 0849 08       		.byte	0x8
 5033 084a FF       		.byte	0xff
 5034 084b 1A       		.byte	0x1a
 5035 084c 21       		.byte	0x21
 5036 084d 3C       		.byte	0x3c
 5037 084e 25       		.byte	0x25
 5038 084f 9F       		.byte	0x9f
 5039 0850 140B0000 		.4byte	.LVL96
 5040 0854 1C0B0000 		.4byte	.LVL98
 5041 0858 0100     		.2byte	0x1
 5042 085a 52       		.byte	0x52
 5043 085b 1C0B0000 		.4byte	.LVL98
 5044 085f 1E0B0000 		.4byte	.LVL99
 5045 0863 2200     		.2byte	0x22
 5046 0865 91       		.byte	0x91
 5047 0866 00       		.sleb128 0
 5048 0867 7A       		.byte	0x7a
 5049 0868 00       		.sleb128 0
 5050 0869 22       		.byte	0x22
 5051 086a 0A       		.byte	0xa
 5052 086b 2810     		.2byte	0x1028
 5053 086d 1C       		.byte	0x1c
 5054 086e 94       		.byte	0x94
 5055 086f 01       		.byte	0x1
 5056 0870 08       		.byte	0x8
 5057 0871 FF       		.byte	0xff
 5058 0872 1A       		.byte	0x1a
 5059 0873 38       		.byte	0x38
ARM GAS  C:\Users\info\AppData\Local\Temp\ccHAj6Mv.s 			page 102


 5060 0874 24       		.byte	0x24
 5061 0875 91       		.byte	0x91
 5062 0876 00       		.sleb128 0
 5063 0877 7A       		.byte	0x7a
 5064 0878 00       		.sleb128 0
 5065 0879 22       		.byte	0x22
 5066 087a 0A       		.byte	0xa
 5067 087b 2710     		.2byte	0x1027
 5068 087d 1C       		.byte	0x1c
 5069 087e 94       		.byte	0x94
 5070 087f 01       		.byte	0x1
 5071 0880 08       		.byte	0x8
 5072 0881 FF       		.byte	0xff
 5073 0882 1A       		.byte	0x1a
 5074 0883 21       		.byte	0x21
 5075 0884 3C       		.byte	0x3c
 5076 0885 25       		.byte	0x25
 5077 0886 9F       		.byte	0x9f
 5078 0887 1E0B0000 		.4byte	.LVL99
 5079 088b 200B0000 		.4byte	.LVL100
 5080 088f 0100     		.2byte	0x1
 5081 0891 52       		.byte	0x52
 5082 0892 200B0000 		.4byte	.LVL100
 5083 0896 2C0B0000 		.4byte	.LVL103
 5084 089a 2200     		.2byte	0x22
 5085 089c 91       		.byte	0x91
 5086 089d 00       		.sleb128 0
 5087 089e 7A       		.byte	0x7a
 5088 089f 00       		.sleb128 0
 5089 08a0 22       		.byte	0x22
 5090 08a1 0A       		.byte	0xa
 5091 08a2 2810     		.2byte	0x1028
 5092 08a4 1C       		.byte	0x1c
 5093 08a5 94       		.byte	0x94
 5094 08a6 01       		.byte	0x1
 5095 08a7 08       		.byte	0x8
 5096 08a8 FF       		.byte	0xff
 5097 08a9 1A       		.byte	0x1a
 5098 08aa 38       		.byte	0x38
 5099 08ab 24       		.byte	0x24
 5100 08ac 91       		.byte	0x91
 5101 08ad 00       		.sleb128 0
 5102 08ae 7A       		.byte	0x7a
 5103 08af 00       		.sleb128 0
 5104 08b0 22       		.byte	0x22
 5105 08b1 0A       		.byte	0xa
 5106 08b2 2710     		.2byte	0x1027
 5107 08b4 1C       		.byte	0x1c
 5108 08b5 94       		.byte	0x94
 5109 08b6 01       		.byte	0x1
 5110 08b7 08       		.byte	0x8
 5111 08b8 FF       		.byte	0xff
 5112 08b9 1A       		.byte	0x1a
 5113 08ba 21       		.byte	0x21
 5114 08bb 3C       		.byte	0x3c
 5115 08bc 25       		.byte	0x25
 5116 08bd 9F       		.byte	0x9f
ARM GAS  C:\Users\info\AppData\Local\Temp\ccHAj6Mv.s 			page 103


 5117 08be 2C0B0000 		.4byte	.LVL103
 5118 08c2 580B0000 		.4byte	.LVL105
 5119 08c6 0100     		.2byte	0x1
 5120 08c8 52       		.byte	0x52
 5121 08c9 580B0000 		.4byte	.LVL105
 5122 08cd 600B0000 		.4byte	.LVL106
 5123 08d1 2200     		.2byte	0x22
 5124 08d3 91       		.byte	0x91
 5125 08d4 00       		.sleb128 0
 5126 08d5 7A       		.byte	0x7a
 5127 08d6 00       		.sleb128 0
 5128 08d7 22       		.byte	0x22
 5129 08d8 0A       		.byte	0xa
 5130 08d9 2810     		.2byte	0x1028
 5131 08db 1C       		.byte	0x1c
 5132 08dc 94       		.byte	0x94
 5133 08dd 01       		.byte	0x1
 5134 08de 08       		.byte	0x8
 5135 08df FF       		.byte	0xff
 5136 08e0 1A       		.byte	0x1a
 5137 08e1 38       		.byte	0x38
 5138 08e2 24       		.byte	0x24
 5139 08e3 91       		.byte	0x91
 5140 08e4 00       		.sleb128 0
 5141 08e5 7A       		.byte	0x7a
 5142 08e6 00       		.sleb128 0
 5143 08e7 22       		.byte	0x22
 5144 08e8 0A       		.byte	0xa
 5145 08e9 2710     		.2byte	0x1027
 5146 08eb 1C       		.byte	0x1c
 5147 08ec 94       		.byte	0x94
 5148 08ed 01       		.byte	0x1
 5149 08ee 08       		.byte	0x8
 5150 08ef FF       		.byte	0xff
 5151 08f0 1A       		.byte	0x1a
 5152 08f1 21       		.byte	0x21
 5153 08f2 3C       		.byte	0x3c
 5154 08f3 25       		.byte	0x25
 5155 08f4 9F       		.byte	0x9f
 5156 08f5 600B0000 		.4byte	.LVL106
 5157 08f9 660B0000 		.4byte	.LVL107
 5158 08fd 0100     		.2byte	0x1
 5159 08ff 52       		.byte	0x52
 5160 0900 660B0000 		.4byte	.LVL107
 5161 0904 700B0000 		.4byte	.LVL108
 5162 0908 2200     		.2byte	0x22
 5163 090a 91       		.byte	0x91
 5164 090b 00       		.sleb128 0
 5165 090c 7A       		.byte	0x7a
 5166 090d 00       		.sleb128 0
 5167 090e 22       		.byte	0x22
 5168 090f 0A       		.byte	0xa
 5169 0910 2810     		.2byte	0x1028
 5170 0912 1C       		.byte	0x1c
 5171 0913 94       		.byte	0x94
 5172 0914 01       		.byte	0x1
 5173 0915 08       		.byte	0x8
ARM GAS  C:\Users\info\AppData\Local\Temp\ccHAj6Mv.s 			page 104


 5174 0916 FF       		.byte	0xff
 5175 0917 1A       		.byte	0x1a
 5176 0918 38       		.byte	0x38
 5177 0919 24       		.byte	0x24
 5178 091a 91       		.byte	0x91
 5179 091b 00       		.sleb128 0
 5180 091c 7A       		.byte	0x7a
 5181 091d 00       		.sleb128 0
 5182 091e 22       		.byte	0x22
 5183 091f 0A       		.byte	0xa
 5184 0920 2710     		.2byte	0x1027
 5185 0922 1C       		.byte	0x1c
 5186 0923 94       		.byte	0x94
 5187 0924 01       		.byte	0x1
 5188 0925 08       		.byte	0x8
 5189 0926 FF       		.byte	0xff
 5190 0927 1A       		.byte	0x1a
 5191 0928 21       		.byte	0x21
 5192 0929 3C       		.byte	0x3c
 5193 092a 25       		.byte	0x25
 5194 092b 9F       		.byte	0x9f
 5195 092c 700B0000 		.4byte	.LVL108
 5196 0930 760B0000 		.4byte	.LVL109
 5197 0934 0100     		.2byte	0x1
 5198 0936 52       		.byte	0x52
 5199 0937 760B0000 		.4byte	.LVL109
 5200 093b 800B0000 		.4byte	.LVL110
 5201 093f 2200     		.2byte	0x22
 5202 0941 91       		.byte	0x91
 5203 0942 00       		.sleb128 0
 5204 0943 7A       		.byte	0x7a
 5205 0944 00       		.sleb128 0
 5206 0945 22       		.byte	0x22
 5207 0946 0A       		.byte	0xa
 5208 0947 2810     		.2byte	0x1028
 5209 0949 1C       		.byte	0x1c
 5210 094a 94       		.byte	0x94
 5211 094b 01       		.byte	0x1
 5212 094c 08       		.byte	0x8
 5213 094d FF       		.byte	0xff
 5214 094e 1A       		.byte	0x1a
 5215 094f 38       		.byte	0x38
 5216 0950 24       		.byte	0x24
 5217 0951 91       		.byte	0x91
 5218 0952 00       		.sleb128 0
 5219 0953 7A       		.byte	0x7a
 5220 0954 00       		.sleb128 0
 5221 0955 22       		.byte	0x22
 5222 0956 0A       		.byte	0xa
 5223 0957 2710     		.2byte	0x1027
 5224 0959 1C       		.byte	0x1c
 5225 095a 94       		.byte	0x94
 5226 095b 01       		.byte	0x1
 5227 095c 08       		.byte	0x8
 5228 095d FF       		.byte	0xff
 5229 095e 1A       		.byte	0x1a
 5230 095f 21       		.byte	0x21
ARM GAS  C:\Users\info\AppData\Local\Temp\ccHAj6Mv.s 			page 105


 5231 0960 3C       		.byte	0x3c
 5232 0961 25       		.byte	0x25
 5233 0962 9F       		.byte	0x9f
 5234 0963 800B0000 		.4byte	.LVL110
 5235 0967 860B0000 		.4byte	.LVL111
 5236 096b 0100     		.2byte	0x1
 5237 096d 52       		.byte	0x52
 5238 096e 860B0000 		.4byte	.LVL111
 5239 0972 900B0000 		.4byte	.LVL112
 5240 0976 2200     		.2byte	0x22
 5241 0978 91       		.byte	0x91
 5242 0979 00       		.sleb128 0
 5243 097a 7A       		.byte	0x7a
 5244 097b 00       		.sleb128 0
 5245 097c 22       		.byte	0x22
 5246 097d 0A       		.byte	0xa
 5247 097e 2810     		.2byte	0x1028
 5248 0980 1C       		.byte	0x1c
 5249 0981 94       		.byte	0x94
 5250 0982 01       		.byte	0x1
 5251 0983 08       		.byte	0x8
 5252 0984 FF       		.byte	0xff
 5253 0985 1A       		.byte	0x1a
 5254 0986 38       		.byte	0x38
 5255 0987 24       		.byte	0x24
 5256 0988 91       		.byte	0x91
 5257 0989 00       		.sleb128 0
 5258 098a 7A       		.byte	0x7a
 5259 098b 00       		.sleb128 0
 5260 098c 22       		.byte	0x22
 5261 098d 0A       		.byte	0xa
 5262 098e 2710     		.2byte	0x1027
 5263 0990 1C       		.byte	0x1c
 5264 0991 94       		.byte	0x94
 5265 0992 01       		.byte	0x1
 5266 0993 08       		.byte	0x8
 5267 0994 FF       		.byte	0xff
 5268 0995 1A       		.byte	0x1a
 5269 0996 21       		.byte	0x21
 5270 0997 3C       		.byte	0x3c
 5271 0998 25       		.byte	0x25
 5272 0999 9F       		.byte	0x9f
 5273 099a 900B0000 		.4byte	.LVL112
 5274 099e 960B0000 		.4byte	.LVL113
 5275 09a2 0100     		.2byte	0x1
 5276 09a4 52       		.byte	0x52
 5277 09a5 960B0000 		.4byte	.LVL113
 5278 09a9 A00B0000 		.4byte	.LVL114
 5279 09ad 2200     		.2byte	0x22
 5280 09af 91       		.byte	0x91
 5281 09b0 00       		.sleb128 0
 5282 09b1 7A       		.byte	0x7a
 5283 09b2 00       		.sleb128 0
 5284 09b3 22       		.byte	0x22
 5285 09b4 0A       		.byte	0xa
 5286 09b5 2810     		.2byte	0x1028
 5287 09b7 1C       		.byte	0x1c
ARM GAS  C:\Users\info\AppData\Local\Temp\ccHAj6Mv.s 			page 106


 5288 09b8 94       		.byte	0x94
 5289 09b9 01       		.byte	0x1
 5290 09ba 08       		.byte	0x8
 5291 09bb FF       		.byte	0xff
 5292 09bc 1A       		.byte	0x1a
 5293 09bd 38       		.byte	0x38
 5294 09be 24       		.byte	0x24
 5295 09bf 91       		.byte	0x91
 5296 09c0 00       		.sleb128 0
 5297 09c1 7A       		.byte	0x7a
 5298 09c2 00       		.sleb128 0
 5299 09c3 22       		.byte	0x22
 5300 09c4 0A       		.byte	0xa
 5301 09c5 2710     		.2byte	0x1027
 5302 09c7 1C       		.byte	0x1c
 5303 09c8 94       		.byte	0x94
 5304 09c9 01       		.byte	0x1
 5305 09ca 08       		.byte	0x8
 5306 09cb FF       		.byte	0xff
 5307 09cc 1A       		.byte	0x1a
 5308 09cd 21       		.byte	0x21
 5309 09ce 3C       		.byte	0x3c
 5310 09cf 25       		.byte	0x25
 5311 09d0 9F       		.byte	0x9f
 5312 09d1 A00B0000 		.4byte	.LVL114
 5313 09d5 A20B0000 		.4byte	.LVL115
 5314 09d9 0100     		.2byte	0x1
 5315 09db 52       		.byte	0x52
 5316 09dc A20B0000 		.4byte	.LVL115
 5317 09e0 C00B0000 		.4byte	.LVL120
 5318 09e4 2200     		.2byte	0x22
 5319 09e6 91       		.byte	0x91
 5320 09e7 00       		.sleb128 0
 5321 09e8 7A       		.byte	0x7a
 5322 09e9 00       		.sleb128 0
 5323 09ea 22       		.byte	0x22
 5324 09eb 0A       		.byte	0xa
 5325 09ec 2810     		.2byte	0x1028
 5326 09ee 1C       		.byte	0x1c
 5327 09ef 94       		.byte	0x94
 5328 09f0 01       		.byte	0x1
 5329 09f1 08       		.byte	0x8
 5330 09f2 FF       		.byte	0xff
 5331 09f3 1A       		.byte	0x1a
 5332 09f4 38       		.byte	0x38
 5333 09f5 24       		.byte	0x24
 5334 09f6 91       		.byte	0x91
 5335 09f7 00       		.sleb128 0
 5336 09f8 7A       		.byte	0x7a
 5337 09f9 00       		.sleb128 0
 5338 09fa 22       		.byte	0x22
 5339 09fb 0A       		.byte	0xa
 5340 09fc 2710     		.2byte	0x1027
 5341 09fe 1C       		.byte	0x1c
 5342 09ff 94       		.byte	0x94
 5343 0a00 01       		.byte	0x1
 5344 0a01 08       		.byte	0x8
ARM GAS  C:\Users\info\AppData\Local\Temp\ccHAj6Mv.s 			page 107


 5345 0a02 FF       		.byte	0xff
 5346 0a03 1A       		.byte	0x1a
 5347 0a04 21       		.byte	0x21
 5348 0a05 3C       		.byte	0x3c
 5349 0a06 25       		.byte	0x25
 5350 0a07 9F       		.byte	0x9f
 5351 0a08 C00B0000 		.4byte	.LVL120
 5352 0a0c C40B0000 		.4byte	.LVL121
 5353 0a10 0100     		.2byte	0x1
 5354 0a12 52       		.byte	0x52
 5355 0a13 C40B0000 		.4byte	.LVL121
 5356 0a17 D80B0000 		.4byte	.LVL122
 5357 0a1b 2200     		.2byte	0x22
 5358 0a1d 91       		.byte	0x91
 5359 0a1e 00       		.sleb128 0
 5360 0a1f 7A       		.byte	0x7a
 5361 0a20 00       		.sleb128 0
 5362 0a21 22       		.byte	0x22
 5363 0a22 0A       		.byte	0xa
 5364 0a23 2810     		.2byte	0x1028
 5365 0a25 1C       		.byte	0x1c
 5366 0a26 94       		.byte	0x94
 5367 0a27 01       		.byte	0x1
 5368 0a28 08       		.byte	0x8
 5369 0a29 FF       		.byte	0xff
 5370 0a2a 1A       		.byte	0x1a
 5371 0a2b 38       		.byte	0x38
 5372 0a2c 24       		.byte	0x24
 5373 0a2d 91       		.byte	0x91
 5374 0a2e 00       		.sleb128 0
 5375 0a2f 7A       		.byte	0x7a
 5376 0a30 00       		.sleb128 0
 5377 0a31 22       		.byte	0x22
 5378 0a32 0A       		.byte	0xa
 5379 0a33 2710     		.2byte	0x1027
 5380 0a35 1C       		.byte	0x1c
 5381 0a36 94       		.byte	0x94
 5382 0a37 01       		.byte	0x1
 5383 0a38 08       		.byte	0x8
 5384 0a39 FF       		.byte	0xff
 5385 0a3a 1A       		.byte	0x1a
 5386 0a3b 21       		.byte	0x21
 5387 0a3c 3C       		.byte	0x3c
 5388 0a3d 25       		.byte	0x25
 5389 0a3e 9F       		.byte	0x9f
 5390 0a3f D80B0000 		.4byte	.LVL122
 5391 0a43 DA0B0000 		.4byte	.LVL123
 5392 0a47 0100     		.2byte	0x1
 5393 0a49 52       		.byte	0x52
 5394 0a4a DA0B0000 		.4byte	.LVL123
 5395 0a4e F80B0000 		.4byte	.LVL128
 5396 0a52 2200     		.2byte	0x22
 5397 0a54 91       		.byte	0x91
 5398 0a55 00       		.sleb128 0
 5399 0a56 7A       		.byte	0x7a
 5400 0a57 00       		.sleb128 0
 5401 0a58 22       		.byte	0x22
ARM GAS  C:\Users\info\AppData\Local\Temp\ccHAj6Mv.s 			page 108


 5402 0a59 0A       		.byte	0xa
 5403 0a5a 2810     		.2byte	0x1028
 5404 0a5c 1C       		.byte	0x1c
 5405 0a5d 94       		.byte	0x94
 5406 0a5e 01       		.byte	0x1
 5407 0a5f 08       		.byte	0x8
 5408 0a60 FF       		.byte	0xff
 5409 0a61 1A       		.byte	0x1a
 5410 0a62 38       		.byte	0x38
 5411 0a63 24       		.byte	0x24
 5412 0a64 91       		.byte	0x91
 5413 0a65 00       		.sleb128 0
 5414 0a66 7A       		.byte	0x7a
 5415 0a67 00       		.sleb128 0
 5416 0a68 22       		.byte	0x22
 5417 0a69 0A       		.byte	0xa
 5418 0a6a 2710     		.2byte	0x1027
 5419 0a6c 1C       		.byte	0x1c
 5420 0a6d 94       		.byte	0x94
 5421 0a6e 01       		.byte	0x1
 5422 0a6f 08       		.byte	0x8
 5423 0a70 FF       		.byte	0xff
 5424 0a71 1A       		.byte	0x1a
 5425 0a72 21       		.byte	0x21
 5426 0a73 3C       		.byte	0x3c
 5427 0a74 25       		.byte	0x25
 5428 0a75 9F       		.byte	0x9f
 5429 0a76 F80B0000 		.4byte	.LVL128
 5430 0a7a FC0B0000 		.4byte	.LVL129
 5431 0a7e 0100     		.2byte	0x1
 5432 0a80 52       		.byte	0x52
 5433 0a81 FC0B0000 		.4byte	.LVL129
 5434 0a85 0E0C0000 		.4byte	.LVL130
 5435 0a89 2200     		.2byte	0x22
 5436 0a8b 91       		.byte	0x91
 5437 0a8c 00       		.sleb128 0
 5438 0a8d 7A       		.byte	0x7a
 5439 0a8e 00       		.sleb128 0
 5440 0a8f 22       		.byte	0x22
 5441 0a90 0A       		.byte	0xa
 5442 0a91 2810     		.2byte	0x1028
 5443 0a93 1C       		.byte	0x1c
 5444 0a94 94       		.byte	0x94
 5445 0a95 01       		.byte	0x1
 5446 0a96 08       		.byte	0x8
 5447 0a97 FF       		.byte	0xff
 5448 0a98 1A       		.byte	0x1a
 5449 0a99 38       		.byte	0x38
 5450 0a9a 24       		.byte	0x24
 5451 0a9b 91       		.byte	0x91
 5452 0a9c 00       		.sleb128 0
 5453 0a9d 7A       		.byte	0x7a
 5454 0a9e 00       		.sleb128 0
 5455 0a9f 22       		.byte	0x22
 5456 0aa0 0A       		.byte	0xa
 5457 0aa1 2710     		.2byte	0x1027
 5458 0aa3 1C       		.byte	0x1c
ARM GAS  C:\Users\info\AppData\Local\Temp\ccHAj6Mv.s 			page 109


 5459 0aa4 94       		.byte	0x94
 5460 0aa5 01       		.byte	0x1
 5461 0aa6 08       		.byte	0x8
 5462 0aa7 FF       		.byte	0xff
 5463 0aa8 1A       		.byte	0x1a
 5464 0aa9 21       		.byte	0x21
 5465 0aaa 3C       		.byte	0x3c
 5466 0aab 25       		.byte	0x25
 5467 0aac 9F       		.byte	0x9f
 5468 0aad 0E0C0000 		.4byte	.LVL130
 5469 0ab1 140C0000 		.4byte	.LVL132
 5470 0ab5 0100     		.2byte	0x1
 5471 0ab7 52       		.byte	0x52
 5472 0ab8 140C0000 		.4byte	.LVL132
 5473 0abc 160C0000 		.4byte	.LVL133
 5474 0ac0 2200     		.2byte	0x22
 5475 0ac2 91       		.byte	0x91
 5476 0ac3 00       		.sleb128 0
 5477 0ac4 7A       		.byte	0x7a
 5478 0ac5 00       		.sleb128 0
 5479 0ac6 22       		.byte	0x22
 5480 0ac7 0A       		.byte	0xa
 5481 0ac8 2810     		.2byte	0x1028
 5482 0aca 1C       		.byte	0x1c
 5483 0acb 94       		.byte	0x94
 5484 0acc 01       		.byte	0x1
 5485 0acd 08       		.byte	0x8
 5486 0ace FF       		.byte	0xff
 5487 0acf 1A       		.byte	0x1a
 5488 0ad0 38       		.byte	0x38
 5489 0ad1 24       		.byte	0x24
 5490 0ad2 91       		.byte	0x91
 5491 0ad3 00       		.sleb128 0
 5492 0ad4 7A       		.byte	0x7a
 5493 0ad5 00       		.sleb128 0
 5494 0ad6 22       		.byte	0x22
 5495 0ad7 0A       		.byte	0xa
 5496 0ad8 2710     		.2byte	0x1027
 5497 0ada 1C       		.byte	0x1c
 5498 0adb 94       		.byte	0x94
 5499 0adc 01       		.byte	0x1
 5500 0add 08       		.byte	0x8
 5501 0ade FF       		.byte	0xff
 5502 0adf 1A       		.byte	0x1a
 5503 0ae0 21       		.byte	0x21
 5504 0ae1 3C       		.byte	0x3c
 5505 0ae2 25       		.byte	0x25
 5506 0ae3 9F       		.byte	0x9f
 5507 0ae4 160C0000 		.4byte	.LVL133
 5508 0ae8 190C0000 		.4byte	.LVL134-1
 5509 0aec 0100     		.2byte	0x1
 5510 0aee 52       		.byte	0x52
 5511 0aef 190C0000 		.4byte	.LVL134-1
 5512 0af3 360C0000 		.4byte	.LVL136
 5513 0af7 2200     		.2byte	0x22
 5514 0af9 91       		.byte	0x91
 5515 0afa 00       		.sleb128 0
ARM GAS  C:\Users\info\AppData\Local\Temp\ccHAj6Mv.s 			page 110


 5516 0afb 7A       		.byte	0x7a
 5517 0afc 00       		.sleb128 0
 5518 0afd 22       		.byte	0x22
 5519 0afe 0A       		.byte	0xa
 5520 0aff 2810     		.2byte	0x1028
 5521 0b01 1C       		.byte	0x1c
 5522 0b02 94       		.byte	0x94
 5523 0b03 01       		.byte	0x1
 5524 0b04 08       		.byte	0x8
 5525 0b05 FF       		.byte	0xff
 5526 0b06 1A       		.byte	0x1a
 5527 0b07 38       		.byte	0x38
 5528 0b08 24       		.byte	0x24
 5529 0b09 91       		.byte	0x91
 5530 0b0a 00       		.sleb128 0
 5531 0b0b 7A       		.byte	0x7a
 5532 0b0c 00       		.sleb128 0
 5533 0b0d 22       		.byte	0x22
 5534 0b0e 0A       		.byte	0xa
 5535 0b0f 2710     		.2byte	0x1027
 5536 0b11 1C       		.byte	0x1c
 5537 0b12 94       		.byte	0x94
 5538 0b13 01       		.byte	0x1
 5539 0b14 08       		.byte	0x8
 5540 0b15 FF       		.byte	0xff
 5541 0b16 1A       		.byte	0x1a
 5542 0b17 21       		.byte	0x21
 5543 0b18 3C       		.byte	0x3c
 5544 0b19 25       		.byte	0x25
 5545 0b1a 9F       		.byte	0x9f
 5546 0b1b 360C0000 		.4byte	.LVL136
 5547 0b1f 380C0000 		.4byte	.LVL137
 5548 0b23 1C00     		.2byte	0x1c
 5549 0b25 72       		.byte	0x72
 5550 0b26 00       		.sleb128 0
 5551 0b27 7A       		.byte	0x7a
 5552 0b28 00       		.sleb128 0
 5553 0b29 22       		.byte	0x22
 5554 0b2a 94       		.byte	0x94
 5555 0b2b 01       		.byte	0x1
 5556 0b2c 08       		.byte	0x8
 5557 0b2d FF       		.byte	0xff
 5558 0b2e 1A       		.byte	0x1a
 5559 0b2f 38       		.byte	0x38
 5560 0b30 24       		.byte	0x24
 5561 0b31 72       		.byte	0x72
 5562 0b32 00       		.sleb128 0
 5563 0b33 7A       		.byte	0x7a
 5564 0b34 00       		.sleb128 0
 5565 0b35 22       		.byte	0x22
 5566 0b36 23       		.byte	0x23
 5567 0b37 01       		.uleb128 0x1
 5568 0b38 94       		.byte	0x94
 5569 0b39 01       		.byte	0x1
 5570 0b3a 08       		.byte	0x8
 5571 0b3b FF       		.byte	0xff
 5572 0b3c 1A       		.byte	0x1a
ARM GAS  C:\Users\info\AppData\Local\Temp\ccHAj6Mv.s 			page 111


 5573 0b3d 21       		.byte	0x21
 5574 0b3e 3C       		.byte	0x3c
 5575 0b3f 25       		.byte	0x25
 5576 0b40 9F       		.byte	0x9f
 5577 0b41 380C0000 		.4byte	.LVL137
 5578 0b45 6A0C0000 		.4byte	.LVL140
 5579 0b49 2200     		.2byte	0x22
 5580 0b4b 91       		.byte	0x91
 5581 0b4c 00       		.sleb128 0
 5582 0b4d 7A       		.byte	0x7a
 5583 0b4e 00       		.sleb128 0
 5584 0b4f 22       		.byte	0x22
 5585 0b50 0A       		.byte	0xa
 5586 0b51 2810     		.2byte	0x1028
 5587 0b53 1C       		.byte	0x1c
 5588 0b54 94       		.byte	0x94
 5589 0b55 01       		.byte	0x1
 5590 0b56 08       		.byte	0x8
 5591 0b57 FF       		.byte	0xff
 5592 0b58 1A       		.byte	0x1a
 5593 0b59 38       		.byte	0x38
 5594 0b5a 24       		.byte	0x24
 5595 0b5b 91       		.byte	0x91
 5596 0b5c 00       		.sleb128 0
 5597 0b5d 7A       		.byte	0x7a
 5598 0b5e 00       		.sleb128 0
 5599 0b5f 22       		.byte	0x22
 5600 0b60 0A       		.byte	0xa
 5601 0b61 2710     		.2byte	0x1027
 5602 0b63 1C       		.byte	0x1c
 5603 0b64 94       		.byte	0x94
 5604 0b65 01       		.byte	0x1
 5605 0b66 08       		.byte	0x8
 5606 0b67 FF       		.byte	0xff
 5607 0b68 1A       		.byte	0x1a
 5608 0b69 21       		.byte	0x21
 5609 0b6a 3C       		.byte	0x3c
 5610 0b6b 25       		.byte	0x25
 5611 0b6c 9F       		.byte	0x9f
 5612 0b6d 6A0C0000 		.4byte	.LVL140
 5613 0b71 6C0C0000 		.4byte	.LVL141
 5614 0b75 1C00     		.2byte	0x1c
 5615 0b77 72       		.byte	0x72
 5616 0b78 00       		.sleb128 0
 5617 0b79 7A       		.byte	0x7a
 5618 0b7a 00       		.sleb128 0
 5619 0b7b 22       		.byte	0x22
 5620 0b7c 94       		.byte	0x94
 5621 0b7d 01       		.byte	0x1
 5622 0b7e 08       		.byte	0x8
 5623 0b7f FF       		.byte	0xff
 5624 0b80 1A       		.byte	0x1a
 5625 0b81 38       		.byte	0x38
 5626 0b82 24       		.byte	0x24
 5627 0b83 72       		.byte	0x72
 5628 0b84 00       		.sleb128 0
 5629 0b85 7A       		.byte	0x7a
ARM GAS  C:\Users\info\AppData\Local\Temp\ccHAj6Mv.s 			page 112


 5630 0b86 00       		.sleb128 0
 5631 0b87 22       		.byte	0x22
 5632 0b88 23       		.byte	0x23
 5633 0b89 01       		.uleb128 0x1
 5634 0b8a 94       		.byte	0x94
 5635 0b8b 01       		.byte	0x1
 5636 0b8c 08       		.byte	0x8
 5637 0b8d FF       		.byte	0xff
 5638 0b8e 1A       		.byte	0x1a
 5639 0b8f 21       		.byte	0x21
 5640 0b90 3C       		.byte	0x3c
 5641 0b91 25       		.byte	0x25
 5642 0b92 9F       		.byte	0x9f
 5643 0b93 6C0C0000 		.4byte	.LVL141
 5644 0b97 FC0C0000 		.4byte	.LVL146
 5645 0b9b 2200     		.2byte	0x22
 5646 0b9d 91       		.byte	0x91
 5647 0b9e 00       		.sleb128 0
 5648 0b9f 7A       		.byte	0x7a
 5649 0ba0 00       		.sleb128 0
 5650 0ba1 22       		.byte	0x22
 5651 0ba2 0A       		.byte	0xa
 5652 0ba3 2810     		.2byte	0x1028
 5653 0ba5 1C       		.byte	0x1c
 5654 0ba6 94       		.byte	0x94
 5655 0ba7 01       		.byte	0x1
 5656 0ba8 08       		.byte	0x8
 5657 0ba9 FF       		.byte	0xff
 5658 0baa 1A       		.byte	0x1a
 5659 0bab 38       		.byte	0x38
 5660 0bac 24       		.byte	0x24
 5661 0bad 91       		.byte	0x91
 5662 0bae 00       		.sleb128 0
 5663 0baf 7A       		.byte	0x7a
 5664 0bb0 00       		.sleb128 0
 5665 0bb1 22       		.byte	0x22
 5666 0bb2 0A       		.byte	0xa
 5667 0bb3 2710     		.2byte	0x1027
 5668 0bb5 1C       		.byte	0x1c
 5669 0bb6 94       		.byte	0x94
 5670 0bb7 01       		.byte	0x1
 5671 0bb8 08       		.byte	0x8
 5672 0bb9 FF       		.byte	0xff
 5673 0bba 1A       		.byte	0x1a
 5674 0bbb 21       		.byte	0x21
 5675 0bbc 3C       		.byte	0x3c
 5676 0bbd 25       		.byte	0x25
 5677 0bbe 9F       		.byte	0x9f
 5678 0bbf FC0C0000 		.4byte	.LVL146
 5679 0bc3 000D0000 		.4byte	.LVL148
 5680 0bc7 0100     		.2byte	0x1
 5681 0bc9 52       		.byte	0x52
 5682 0bca 000D0000 		.4byte	.LVL148
 5683 0bce 300D0000 		.4byte	.LVL152
 5684 0bd2 2200     		.2byte	0x22
 5685 0bd4 91       		.byte	0x91
 5686 0bd5 00       		.sleb128 0
ARM GAS  C:\Users\info\AppData\Local\Temp\ccHAj6Mv.s 			page 113


 5687 0bd6 7A       		.byte	0x7a
 5688 0bd7 00       		.sleb128 0
 5689 0bd8 22       		.byte	0x22
 5690 0bd9 0A       		.byte	0xa
 5691 0bda 2810     		.2byte	0x1028
 5692 0bdc 1C       		.byte	0x1c
 5693 0bdd 94       		.byte	0x94
 5694 0bde 01       		.byte	0x1
 5695 0bdf 08       		.byte	0x8
 5696 0be0 FF       		.byte	0xff
 5697 0be1 1A       		.byte	0x1a
 5698 0be2 38       		.byte	0x38
 5699 0be3 24       		.byte	0x24
 5700 0be4 91       		.byte	0x91
 5701 0be5 00       		.sleb128 0
 5702 0be6 7A       		.byte	0x7a
 5703 0be7 00       		.sleb128 0
 5704 0be8 22       		.byte	0x22
 5705 0be9 0A       		.byte	0xa
 5706 0bea 2710     		.2byte	0x1027
 5707 0bec 1C       		.byte	0x1c
 5708 0bed 94       		.byte	0x94
 5709 0bee 01       		.byte	0x1
 5710 0bef 08       		.byte	0x8
 5711 0bf0 FF       		.byte	0xff
 5712 0bf1 1A       		.byte	0x1a
 5713 0bf2 21       		.byte	0x21
 5714 0bf3 3C       		.byte	0x3c
 5715 0bf4 25       		.byte	0x25
 5716 0bf5 9F       		.byte	0x9f
 5717 0bf6 300D0000 		.4byte	.LVL152
 5718 0bfa 440D0000 		.4byte	.LVL154
 5719 0bfe 0100     		.2byte	0x1
 5720 0c00 52       		.byte	0x52
 5721 0c01 440D0000 		.4byte	.LVL154
 5722 0c05 520D0000 		.4byte	.LVL155
 5723 0c09 2200     		.2byte	0x22
 5724 0c0b 91       		.byte	0x91
 5725 0c0c 00       		.sleb128 0
 5726 0c0d 7A       		.byte	0x7a
 5727 0c0e 00       		.sleb128 0
 5728 0c0f 22       		.byte	0x22
 5729 0c10 0A       		.byte	0xa
 5730 0c11 2810     		.2byte	0x1028
 5731 0c13 1C       		.byte	0x1c
 5732 0c14 94       		.byte	0x94
 5733 0c15 01       		.byte	0x1
 5734 0c16 08       		.byte	0x8
 5735 0c17 FF       		.byte	0xff
 5736 0c18 1A       		.byte	0x1a
 5737 0c19 38       		.byte	0x38
 5738 0c1a 24       		.byte	0x24
 5739 0c1b 91       		.byte	0x91
 5740 0c1c 00       		.sleb128 0
 5741 0c1d 7A       		.byte	0x7a
 5742 0c1e 00       		.sleb128 0
 5743 0c1f 22       		.byte	0x22
ARM GAS  C:\Users\info\AppData\Local\Temp\ccHAj6Mv.s 			page 114


 5744 0c20 0A       		.byte	0xa
 5745 0c21 2710     		.2byte	0x1027
 5746 0c23 1C       		.byte	0x1c
 5747 0c24 94       		.byte	0x94
 5748 0c25 01       		.byte	0x1
 5749 0c26 08       		.byte	0x8
 5750 0c27 FF       		.byte	0xff
 5751 0c28 1A       		.byte	0x1a
 5752 0c29 21       		.byte	0x21
 5753 0c2a 3C       		.byte	0x3c
 5754 0c2b 25       		.byte	0x25
 5755 0c2c 9F       		.byte	0x9f
 5756 0c2d 520D0000 		.4byte	.LVL155
 5757 0c31 560D0000 		.4byte	.LVL156
 5758 0c35 2200     		.2byte	0x22
 5759 0c37 91       		.byte	0x91
 5760 0c38 00       		.sleb128 0
 5761 0c39 7A       		.byte	0x7a
 5762 0c3a 00       		.sleb128 0
 5763 0c3b 22       		.byte	0x22
 5764 0c3c 0A       		.byte	0xa
 5765 0c3d 2A10     		.2byte	0x102a
 5766 0c3f 1C       		.byte	0x1c
 5767 0c40 94       		.byte	0x94
 5768 0c41 01       		.byte	0x1
 5769 0c42 08       		.byte	0x8
 5770 0c43 FF       		.byte	0xff
 5771 0c44 1A       		.byte	0x1a
 5772 0c45 38       		.byte	0x38
 5773 0c46 24       		.byte	0x24
 5774 0c47 91       		.byte	0x91
 5775 0c48 00       		.sleb128 0
 5776 0c49 7A       		.byte	0x7a
 5777 0c4a 00       		.sleb128 0
 5778 0c4b 22       		.byte	0x22
 5779 0c4c 0A       		.byte	0xa
 5780 0c4d 2910     		.2byte	0x1029
 5781 0c4f 1C       		.byte	0x1c
 5782 0c50 94       		.byte	0x94
 5783 0c51 01       		.byte	0x1
 5784 0c52 08       		.byte	0x8
 5785 0c53 FF       		.byte	0xff
 5786 0c54 1A       		.byte	0x1a
 5787 0c55 21       		.byte	0x21
 5788 0c56 3C       		.byte	0x3c
 5789 0c57 25       		.byte	0x25
 5790 0c58 9F       		.byte	0x9f
 5791 0c59 5C0D0000 		.4byte	.LVL157
 5792 0c5d 660D0000 		.4byte	.LVL159
 5793 0c61 0100     		.2byte	0x1
 5794 0c63 52       		.byte	0x52
 5795 0c64 660D0000 		.4byte	.LVL159
 5796 0c68 740D0000 		.4byte	.LVL160
 5797 0c6c 2200     		.2byte	0x22
 5798 0c6e 91       		.byte	0x91
 5799 0c6f 00       		.sleb128 0
 5800 0c70 7A       		.byte	0x7a
ARM GAS  C:\Users\info\AppData\Local\Temp\ccHAj6Mv.s 			page 115


 5801 0c71 00       		.sleb128 0
 5802 0c72 22       		.byte	0x22
 5803 0c73 0A       		.byte	0xa
 5804 0c74 2810     		.2byte	0x1028
 5805 0c76 1C       		.byte	0x1c
 5806 0c77 94       		.byte	0x94
 5807 0c78 01       		.byte	0x1
 5808 0c79 08       		.byte	0x8
 5809 0c7a FF       		.byte	0xff
 5810 0c7b 1A       		.byte	0x1a
 5811 0c7c 38       		.byte	0x38
 5812 0c7d 24       		.byte	0x24
 5813 0c7e 91       		.byte	0x91
 5814 0c7f 00       		.sleb128 0
 5815 0c80 7A       		.byte	0x7a
 5816 0c81 00       		.sleb128 0
 5817 0c82 22       		.byte	0x22
 5818 0c83 0A       		.byte	0xa
 5819 0c84 2710     		.2byte	0x1027
 5820 0c86 1C       		.byte	0x1c
 5821 0c87 94       		.byte	0x94
 5822 0c88 01       		.byte	0x1
 5823 0c89 08       		.byte	0x8
 5824 0c8a FF       		.byte	0xff
 5825 0c8b 1A       		.byte	0x1a
 5826 0c8c 21       		.byte	0x21
 5827 0c8d 3C       		.byte	0x3c
 5828 0c8e 25       		.byte	0x25
 5829 0c8f 9F       		.byte	0x9f
 5830 0c90 740D0000 		.4byte	.LVL160
 5831 0c94 780D0000 		.4byte	.LVL161
 5832 0c98 2200     		.2byte	0x22
 5833 0c9a 91       		.byte	0x91
 5834 0c9b 00       		.sleb128 0
 5835 0c9c 7A       		.byte	0x7a
 5836 0c9d 00       		.sleb128 0
 5837 0c9e 22       		.byte	0x22
 5838 0c9f 0A       		.byte	0xa
 5839 0ca0 2A10     		.2byte	0x102a
 5840 0ca2 1C       		.byte	0x1c
 5841 0ca3 94       		.byte	0x94
 5842 0ca4 01       		.byte	0x1
 5843 0ca5 08       		.byte	0x8
 5844 0ca6 FF       		.byte	0xff
 5845 0ca7 1A       		.byte	0x1a
 5846 0ca8 38       		.byte	0x38
 5847 0ca9 24       		.byte	0x24
 5848 0caa 91       		.byte	0x91
 5849 0cab 00       		.sleb128 0
 5850 0cac 7A       		.byte	0x7a
 5851 0cad 00       		.sleb128 0
 5852 0cae 22       		.byte	0x22
 5853 0caf 0A       		.byte	0xa
 5854 0cb0 2910     		.2byte	0x1029
 5855 0cb2 1C       		.byte	0x1c
 5856 0cb3 94       		.byte	0x94
 5857 0cb4 01       		.byte	0x1
ARM GAS  C:\Users\info\AppData\Local\Temp\ccHAj6Mv.s 			page 116


 5858 0cb5 08       		.byte	0x8
 5859 0cb6 FF       		.byte	0xff
 5860 0cb7 1A       		.byte	0x1a
 5861 0cb8 21       		.byte	0x21
 5862 0cb9 3C       		.byte	0x3c
 5863 0cba 25       		.byte	0x25
 5864 0cbb 9F       		.byte	0x9f
 5865 0cbc 7C0D0000 		.4byte	.LVL162
 5866 0cc0 B20D0000 		.4byte	.LVL164
 5867 0cc4 0100     		.2byte	0x1
 5868 0cc6 52       		.byte	0x52
 5869 0cc7 B20D0000 		.4byte	.LVL164
 5870 0ccb BC0D0000 		.4byte	.LVL165
 5871 0ccf 2200     		.2byte	0x22
 5872 0cd1 91       		.byte	0x91
 5873 0cd2 00       		.sleb128 0
 5874 0cd3 7A       		.byte	0x7a
 5875 0cd4 00       		.sleb128 0
 5876 0cd5 22       		.byte	0x22
 5877 0cd6 0A       		.byte	0xa
 5878 0cd7 2810     		.2byte	0x1028
 5879 0cd9 1C       		.byte	0x1c
 5880 0cda 94       		.byte	0x94
 5881 0cdb 01       		.byte	0x1
 5882 0cdc 08       		.byte	0x8
 5883 0cdd FF       		.byte	0xff
 5884 0cde 1A       		.byte	0x1a
 5885 0cdf 38       		.byte	0x38
 5886 0ce0 24       		.byte	0x24
 5887 0ce1 91       		.byte	0x91
 5888 0ce2 00       		.sleb128 0
 5889 0ce3 7A       		.byte	0x7a
 5890 0ce4 00       		.sleb128 0
 5891 0ce5 22       		.byte	0x22
 5892 0ce6 0A       		.byte	0xa
 5893 0ce7 2710     		.2byte	0x1027
 5894 0ce9 1C       		.byte	0x1c
 5895 0cea 94       		.byte	0x94
 5896 0ceb 01       		.byte	0x1
 5897 0cec 08       		.byte	0x8
 5898 0ced FF       		.byte	0xff
 5899 0cee 1A       		.byte	0x1a
 5900 0cef 21       		.byte	0x21
 5901 0cf0 3C       		.byte	0x3c
 5902 0cf1 25       		.byte	0x25
 5903 0cf2 9F       		.byte	0x9f
 5904 0cf3 BC0D0000 		.4byte	.LVL165
 5905 0cf7 CA0D0000 		.4byte	.LVL166
 5906 0cfb 0100     		.2byte	0x1
 5907 0cfd 52       		.byte	0x52
 5908 0cfe CA0D0000 		.4byte	.LVL166
 5909 0d02 D40D0000 		.4byte	.LVL167
 5910 0d06 2200     		.2byte	0x22
 5911 0d08 91       		.byte	0x91
 5912 0d09 00       		.sleb128 0
 5913 0d0a 7A       		.byte	0x7a
 5914 0d0b 00       		.sleb128 0
ARM GAS  C:\Users\info\AppData\Local\Temp\ccHAj6Mv.s 			page 117


 5915 0d0c 22       		.byte	0x22
 5916 0d0d 0A       		.byte	0xa
 5917 0d0e 2810     		.2byte	0x1028
 5918 0d10 1C       		.byte	0x1c
 5919 0d11 94       		.byte	0x94
 5920 0d12 01       		.byte	0x1
 5921 0d13 08       		.byte	0x8
 5922 0d14 FF       		.byte	0xff
 5923 0d15 1A       		.byte	0x1a
 5924 0d16 38       		.byte	0x38
 5925 0d17 24       		.byte	0x24
 5926 0d18 91       		.byte	0x91
 5927 0d19 00       		.sleb128 0
 5928 0d1a 7A       		.byte	0x7a
 5929 0d1b 00       		.sleb128 0
 5930 0d1c 22       		.byte	0x22
 5931 0d1d 0A       		.byte	0xa
 5932 0d1e 2710     		.2byte	0x1027
 5933 0d20 1C       		.byte	0x1c
 5934 0d21 94       		.byte	0x94
 5935 0d22 01       		.byte	0x1
 5936 0d23 08       		.byte	0x8
 5937 0d24 FF       		.byte	0xff
 5938 0d25 1A       		.byte	0x1a
 5939 0d26 21       		.byte	0x21
 5940 0d27 3C       		.byte	0x3c
 5941 0d28 25       		.byte	0x25
 5942 0d29 9F       		.byte	0x9f
 5943 0d2a D40D0000 		.4byte	.LVL167
 5944 0d2e D80D0000 		.4byte	.LVL169
 5945 0d32 0100     		.2byte	0x1
 5946 0d34 52       		.byte	0x52
 5947 0d35 D80D0000 		.4byte	.LVL169
 5948 0d39 E20D0000 		.4byte	.LVL170
 5949 0d3d 2200     		.2byte	0x22
 5950 0d3f 91       		.byte	0x91
 5951 0d40 00       		.sleb128 0
 5952 0d41 7A       		.byte	0x7a
 5953 0d42 00       		.sleb128 0
 5954 0d43 22       		.byte	0x22
 5955 0d44 0A       		.byte	0xa
 5956 0d45 2810     		.2byte	0x1028
 5957 0d47 1C       		.byte	0x1c
 5958 0d48 94       		.byte	0x94
 5959 0d49 01       		.byte	0x1
 5960 0d4a 08       		.byte	0x8
 5961 0d4b FF       		.byte	0xff
 5962 0d4c 1A       		.byte	0x1a
 5963 0d4d 38       		.byte	0x38
 5964 0d4e 24       		.byte	0x24
 5965 0d4f 91       		.byte	0x91
 5966 0d50 00       		.sleb128 0
 5967 0d51 7A       		.byte	0x7a
 5968 0d52 00       		.sleb128 0
 5969 0d53 22       		.byte	0x22
 5970 0d54 0A       		.byte	0xa
 5971 0d55 2710     		.2byte	0x1027
ARM GAS  C:\Users\info\AppData\Local\Temp\ccHAj6Mv.s 			page 118


 5972 0d57 1C       		.byte	0x1c
 5973 0d58 94       		.byte	0x94
 5974 0d59 01       		.byte	0x1
 5975 0d5a 08       		.byte	0x8
 5976 0d5b FF       		.byte	0xff
 5977 0d5c 1A       		.byte	0x1a
 5978 0d5d 21       		.byte	0x21
 5979 0d5e 3C       		.byte	0x3c
 5980 0d5f 25       		.byte	0x25
 5981 0d60 9F       		.byte	0x9f
 5982 0d61 E20D0000 		.4byte	.LVL170
 5983 0d65 E60D0000 		.4byte	.LVL172
 5984 0d69 0100     		.2byte	0x1
 5985 0d6b 52       		.byte	0x52
 5986 0d6c E60D0000 		.4byte	.LVL172
 5987 0d70 F00D0000 		.4byte	.LVL173
 5988 0d74 2200     		.2byte	0x22
 5989 0d76 91       		.byte	0x91
 5990 0d77 00       		.sleb128 0
 5991 0d78 7A       		.byte	0x7a
 5992 0d79 00       		.sleb128 0
 5993 0d7a 22       		.byte	0x22
 5994 0d7b 0A       		.byte	0xa
 5995 0d7c 2810     		.2byte	0x1028
 5996 0d7e 1C       		.byte	0x1c
 5997 0d7f 94       		.byte	0x94
 5998 0d80 01       		.byte	0x1
 5999 0d81 08       		.byte	0x8
 6000 0d82 FF       		.byte	0xff
 6001 0d83 1A       		.byte	0x1a
 6002 0d84 38       		.byte	0x38
 6003 0d85 24       		.byte	0x24
 6004 0d86 91       		.byte	0x91
 6005 0d87 00       		.sleb128 0
 6006 0d88 7A       		.byte	0x7a
 6007 0d89 00       		.sleb128 0
 6008 0d8a 22       		.byte	0x22
 6009 0d8b 0A       		.byte	0xa
 6010 0d8c 2710     		.2byte	0x1027
 6011 0d8e 1C       		.byte	0x1c
 6012 0d8f 94       		.byte	0x94
 6013 0d90 01       		.byte	0x1
 6014 0d91 08       		.byte	0x8
 6015 0d92 FF       		.byte	0xff
 6016 0d93 1A       		.byte	0x1a
 6017 0d94 21       		.byte	0x21
 6018 0d95 3C       		.byte	0x3c
 6019 0d96 25       		.byte	0x25
 6020 0d97 9F       		.byte	0x9f
 6021 0d98 F00D0000 		.4byte	.LVL173
 6022 0d9c FE0D0000 		.4byte	.LVL177
 6023 0da0 0100     		.2byte	0x1
 6024 0da2 52       		.byte	0x52
 6025 0da3 FE0D0000 		.4byte	.LVL177
 6026 0da7 000E0000 		.4byte	.LVL178
 6027 0dab 2200     		.2byte	0x22
 6028 0dad 91       		.byte	0x91
ARM GAS  C:\Users\info\AppData\Local\Temp\ccHAj6Mv.s 			page 119


 6029 0dae 00       		.sleb128 0
 6030 0daf 7A       		.byte	0x7a
 6031 0db0 00       		.sleb128 0
 6032 0db1 22       		.byte	0x22
 6033 0db2 0A       		.byte	0xa
 6034 0db3 2810     		.2byte	0x1028
 6035 0db5 1C       		.byte	0x1c
 6036 0db6 94       		.byte	0x94
 6037 0db7 01       		.byte	0x1
 6038 0db8 08       		.byte	0x8
 6039 0db9 FF       		.byte	0xff
 6040 0dba 1A       		.byte	0x1a
 6041 0dbb 38       		.byte	0x38
 6042 0dbc 24       		.byte	0x24
 6043 0dbd 91       		.byte	0x91
 6044 0dbe 00       		.sleb128 0
 6045 0dbf 7A       		.byte	0x7a
 6046 0dc0 00       		.sleb128 0
 6047 0dc1 22       		.byte	0x22
 6048 0dc2 0A       		.byte	0xa
 6049 0dc3 2710     		.2byte	0x1027
 6050 0dc5 1C       		.byte	0x1c
 6051 0dc6 94       		.byte	0x94
 6052 0dc7 01       		.byte	0x1
 6053 0dc8 08       		.byte	0x8
 6054 0dc9 FF       		.byte	0xff
 6055 0dca 1A       		.byte	0x1a
 6056 0dcb 21       		.byte	0x21
 6057 0dcc 3C       		.byte	0x3c
 6058 0dcd 25       		.byte	0x25
 6059 0dce 9F       		.byte	0x9f
 6060 0dcf 000E0000 		.4byte	.LVL178
 6061 0dd3 120E0000 		.4byte	.LVL182
 6062 0dd7 0100     		.2byte	0x1
 6063 0dd9 52       		.byte	0x52
 6064 0dda 120E0000 		.4byte	.LVL182
 6065 0dde 140E0000 		.4byte	.LVL183
 6066 0de2 2200     		.2byte	0x22
 6067 0de4 91       		.byte	0x91
 6068 0de5 00       		.sleb128 0
 6069 0de6 7A       		.byte	0x7a
 6070 0de7 00       		.sleb128 0
 6071 0de8 22       		.byte	0x22
 6072 0de9 0A       		.byte	0xa
 6073 0dea 2810     		.2byte	0x1028
 6074 0dec 1C       		.byte	0x1c
 6075 0ded 94       		.byte	0x94
 6076 0dee 01       		.byte	0x1
 6077 0def 08       		.byte	0x8
 6078 0df0 FF       		.byte	0xff
 6079 0df1 1A       		.byte	0x1a
 6080 0df2 38       		.byte	0x38
 6081 0df3 24       		.byte	0x24
 6082 0df4 91       		.byte	0x91
 6083 0df5 00       		.sleb128 0
 6084 0df6 7A       		.byte	0x7a
 6085 0df7 00       		.sleb128 0
ARM GAS  C:\Users\info\AppData\Local\Temp\ccHAj6Mv.s 			page 120


 6086 0df8 22       		.byte	0x22
 6087 0df9 0A       		.byte	0xa
 6088 0dfa 2710     		.2byte	0x1027
 6089 0dfc 1C       		.byte	0x1c
 6090 0dfd 94       		.byte	0x94
 6091 0dfe 01       		.byte	0x1
 6092 0dff 08       		.byte	0x8
 6093 0e00 FF       		.byte	0xff
 6094 0e01 1A       		.byte	0x1a
 6095 0e02 21       		.byte	0x21
 6096 0e03 3C       		.byte	0x3c
 6097 0e04 25       		.byte	0x25
 6098 0e05 9F       		.byte	0x9f
 6099 0e06 140E0000 		.4byte	.LVL183
 6100 0e0a 1C0E0000 		.4byte	.LVL186
 6101 0e0e 0100     		.2byte	0x1
 6102 0e10 52       		.byte	0x52
 6103 0e11 1C0E0000 		.4byte	.LVL186
 6104 0e15 280E0000 		.4byte	.LVL187
 6105 0e19 1C00     		.2byte	0x1c
 6106 0e1b 70       		.byte	0x70
 6107 0e1c 00       		.sleb128 0
 6108 0e1d 7A       		.byte	0x7a
 6109 0e1e 00       		.sleb128 0
 6110 0e1f 22       		.byte	0x22
 6111 0e20 94       		.byte	0x94
 6112 0e21 01       		.byte	0x1
 6113 0e22 08       		.byte	0x8
 6114 0e23 FF       		.byte	0xff
 6115 0e24 1A       		.byte	0x1a
 6116 0e25 38       		.byte	0x38
 6117 0e26 24       		.byte	0x24
 6118 0e27 70       		.byte	0x70
 6119 0e28 00       		.sleb128 0
 6120 0e29 7A       		.byte	0x7a
 6121 0e2a 00       		.sleb128 0
 6122 0e2b 22       		.byte	0x22
 6123 0e2c 23       		.byte	0x23
 6124 0e2d 01       		.uleb128 0x1
 6125 0e2e 94       		.byte	0x94
 6126 0e2f 01       		.byte	0x1
 6127 0e30 08       		.byte	0x8
 6128 0e31 FF       		.byte	0xff
 6129 0e32 1A       		.byte	0x1a
 6130 0e33 21       		.byte	0x21
 6131 0e34 3C       		.byte	0x3c
 6132 0e35 25       		.byte	0x25
 6133 0e36 9F       		.byte	0x9f
 6134 0e37 6A0E0000 		.4byte	.LVL194
 6135 0e3b 6C0E0000 		.4byte	.LVL195
 6136 0e3f 0100     		.2byte	0x1
 6137 0e41 52       		.byte	0x52
 6138 0e42 760E0000 		.4byte	.LVL197
 6139 0e46 7C0E0000 		.4byte	.LVL198
 6140 0e4a 2200     		.2byte	0x22
 6141 0e4c 91       		.byte	0x91
 6142 0e4d 00       		.sleb128 0
ARM GAS  C:\Users\info\AppData\Local\Temp\ccHAj6Mv.s 			page 121


 6143 0e4e 7A       		.byte	0x7a
 6144 0e4f 00       		.sleb128 0
 6145 0e50 22       		.byte	0x22
 6146 0e51 0A       		.byte	0xa
 6147 0e52 2810     		.2byte	0x1028
 6148 0e54 1C       		.byte	0x1c
 6149 0e55 94       		.byte	0x94
 6150 0e56 01       		.byte	0x1
 6151 0e57 08       		.byte	0x8
 6152 0e58 FF       		.byte	0xff
 6153 0e59 1A       		.byte	0x1a
 6154 0e5a 38       		.byte	0x38
 6155 0e5b 24       		.byte	0x24
 6156 0e5c 91       		.byte	0x91
 6157 0e5d 00       		.sleb128 0
 6158 0e5e 7A       		.byte	0x7a
 6159 0e5f 00       		.sleb128 0
 6160 0e60 22       		.byte	0x22
 6161 0e61 0A       		.byte	0xa
 6162 0e62 2710     		.2byte	0x1027
 6163 0e64 1C       		.byte	0x1c
 6164 0e65 94       		.byte	0x94
 6165 0e66 01       		.byte	0x1
 6166 0e67 08       		.byte	0x8
 6167 0e68 FF       		.byte	0xff
 6168 0e69 1A       		.byte	0x1a
 6169 0e6a 21       		.byte	0x21
 6170 0e6b 3C       		.byte	0x3c
 6171 0e6c 25       		.byte	0x25
 6172 0e6d 9F       		.byte	0x9f
 6173 0e6e 7C0E0000 		.4byte	.LVL198
 6174 0e72 800E0000 		.4byte	.LVL199
 6175 0e76 1C00     		.2byte	0x1c
 6176 0e78 72       		.byte	0x72
 6177 0e79 00       		.sleb128 0
 6178 0e7a 7A       		.byte	0x7a
 6179 0e7b 00       		.sleb128 0
 6180 0e7c 22       		.byte	0x22
 6181 0e7d 94       		.byte	0x94
 6182 0e7e 01       		.byte	0x1
 6183 0e7f 08       		.byte	0x8
 6184 0e80 FF       		.byte	0xff
 6185 0e81 1A       		.byte	0x1a
 6186 0e82 38       		.byte	0x38
 6187 0e83 24       		.byte	0x24
 6188 0e84 72       		.byte	0x72
 6189 0e85 00       		.sleb128 0
 6190 0e86 7A       		.byte	0x7a
 6191 0e87 00       		.sleb128 0
 6192 0e88 22       		.byte	0x22
 6193 0e89 23       		.byte	0x23
 6194 0e8a 01       		.uleb128 0x1
 6195 0e8b 94       		.byte	0x94
 6196 0e8c 01       		.byte	0x1
 6197 0e8d 08       		.byte	0x8
 6198 0e8e FF       		.byte	0xff
 6199 0e8f 1A       		.byte	0x1a
ARM GAS  C:\Users\info\AppData\Local\Temp\ccHAj6Mv.s 			page 122


 6200 0e90 21       		.byte	0x21
 6201 0e91 3C       		.byte	0x3c
 6202 0e92 25       		.byte	0x25
 6203 0e93 9F       		.byte	0x9f
 6204 0e94 800E0000 		.4byte	.LVL199
 6205 0e98 880E0000 		.4byte	.LVL202
 6206 0e9c 2200     		.2byte	0x22
 6207 0e9e 91       		.byte	0x91
 6208 0e9f 00       		.sleb128 0
 6209 0ea0 7A       		.byte	0x7a
 6210 0ea1 00       		.sleb128 0
 6211 0ea2 22       		.byte	0x22
 6212 0ea3 0A       		.byte	0xa
 6213 0ea4 2810     		.2byte	0x1028
 6214 0ea6 1C       		.byte	0x1c
 6215 0ea7 94       		.byte	0x94
 6216 0ea8 01       		.byte	0x1
 6217 0ea9 08       		.byte	0x8
 6218 0eaa FF       		.byte	0xff
 6219 0eab 1A       		.byte	0x1a
 6220 0eac 38       		.byte	0x38
 6221 0ead 24       		.byte	0x24
 6222 0eae 91       		.byte	0x91
 6223 0eaf 00       		.sleb128 0
 6224 0eb0 7A       		.byte	0x7a
 6225 0eb1 00       		.sleb128 0
 6226 0eb2 22       		.byte	0x22
 6227 0eb3 0A       		.byte	0xa
 6228 0eb4 2710     		.2byte	0x1027
 6229 0eb6 1C       		.byte	0x1c
 6230 0eb7 94       		.byte	0x94
 6231 0eb8 01       		.byte	0x1
 6232 0eb9 08       		.byte	0x8
 6233 0eba FF       		.byte	0xff
 6234 0ebb 1A       		.byte	0x1a
 6235 0ebc 21       		.byte	0x21
 6236 0ebd 3C       		.byte	0x3c
 6237 0ebe 25       		.byte	0x25
 6238 0ebf 9F       		.byte	0x9f
 6239 0ec0 880E0000 		.4byte	.LVL202
 6240 0ec4 8A0E0000 		.4byte	.LVL203
 6241 0ec8 0100     		.2byte	0x1
 6242 0eca 52       		.byte	0x52
 6243 0ecb 8A0E0000 		.4byte	.LVL203
 6244 0ecf 940E0000 		.4byte	.LVL205
 6245 0ed3 2200     		.2byte	0x22
 6246 0ed5 91       		.byte	0x91
 6247 0ed6 00       		.sleb128 0
 6248 0ed7 7A       		.byte	0x7a
 6249 0ed8 00       		.sleb128 0
 6250 0ed9 22       		.byte	0x22
 6251 0eda 0A       		.byte	0xa
 6252 0edb 2810     		.2byte	0x1028
 6253 0edd 1C       		.byte	0x1c
 6254 0ede 94       		.byte	0x94
 6255 0edf 01       		.byte	0x1
 6256 0ee0 08       		.byte	0x8
ARM GAS  C:\Users\info\AppData\Local\Temp\ccHAj6Mv.s 			page 123


 6257 0ee1 FF       		.byte	0xff
 6258 0ee2 1A       		.byte	0x1a
 6259 0ee3 38       		.byte	0x38
 6260 0ee4 24       		.byte	0x24
 6261 0ee5 91       		.byte	0x91
 6262 0ee6 00       		.sleb128 0
 6263 0ee7 7A       		.byte	0x7a
 6264 0ee8 00       		.sleb128 0
 6265 0ee9 22       		.byte	0x22
 6266 0eea 0A       		.byte	0xa
 6267 0eeb 2710     		.2byte	0x1027
 6268 0eed 1C       		.byte	0x1c
 6269 0eee 94       		.byte	0x94
 6270 0eef 01       		.byte	0x1
 6271 0ef0 08       		.byte	0x8
 6272 0ef1 FF       		.byte	0xff
 6273 0ef2 1A       		.byte	0x1a
 6274 0ef3 21       		.byte	0x21
 6275 0ef4 3C       		.byte	0x3c
 6276 0ef5 25       		.byte	0x25
 6277 0ef6 9F       		.byte	0x9f
 6278 0ef7 940E0000 		.4byte	.LVL205
 6279 0efb 9A0E0000 		.4byte	.LVL208
 6280 0eff 0100     		.2byte	0x1
 6281 0f01 52       		.byte	0x52
 6282 0f02 9C0E0000 		.4byte	.LVL209
 6283 0f06 A00E0000 		.4byte	.LVL211
 6284 0f0a 0100     		.2byte	0x1
 6285 0f0c 52       		.byte	0x52
 6286 0f0d A00E0000 		.4byte	.LVL211
 6287 0f11 A20E0000 		.4byte	.LVL212
 6288 0f15 2200     		.2byte	0x22
 6289 0f17 91       		.byte	0x91
 6290 0f18 00       		.sleb128 0
 6291 0f19 7A       		.byte	0x7a
 6292 0f1a 00       		.sleb128 0
 6293 0f1b 22       		.byte	0x22
 6294 0f1c 0A       		.byte	0xa
 6295 0f1d 2810     		.2byte	0x1028
 6296 0f1f 1C       		.byte	0x1c
 6297 0f20 94       		.byte	0x94
 6298 0f21 01       		.byte	0x1
 6299 0f22 08       		.byte	0x8
 6300 0f23 FF       		.byte	0xff
 6301 0f24 1A       		.byte	0x1a
 6302 0f25 38       		.byte	0x38
 6303 0f26 24       		.byte	0x24
 6304 0f27 91       		.byte	0x91
 6305 0f28 00       		.sleb128 0
 6306 0f29 7A       		.byte	0x7a
 6307 0f2a 00       		.sleb128 0
 6308 0f2b 22       		.byte	0x22
 6309 0f2c 0A       		.byte	0xa
 6310 0f2d 2710     		.2byte	0x1027
 6311 0f2f 1C       		.byte	0x1c
 6312 0f30 94       		.byte	0x94
 6313 0f31 01       		.byte	0x1
ARM GAS  C:\Users\info\AppData\Local\Temp\ccHAj6Mv.s 			page 124


 6314 0f32 08       		.byte	0x8
 6315 0f33 FF       		.byte	0xff
 6316 0f34 1A       		.byte	0x1a
 6317 0f35 21       		.byte	0x21
 6318 0f36 3C       		.byte	0x3c
 6319 0f37 25       		.byte	0x25
 6320 0f38 9F       		.byte	0x9f
 6321 0f39 A20E0000 		.4byte	.LVL212
 6322 0f3d A60E0000 		.4byte	.LVL214
 6323 0f41 0100     		.2byte	0x1
 6324 0f43 52       		.byte	0x52
 6325 0f44 A60E0000 		.4byte	.LVL214
 6326 0f48 AA0E0000 		.4byte	.LVL216
 6327 0f4c 2200     		.2byte	0x22
 6328 0f4e 91       		.byte	0x91
 6329 0f4f 00       		.sleb128 0
 6330 0f50 7A       		.byte	0x7a
 6331 0f51 00       		.sleb128 0
 6332 0f52 22       		.byte	0x22
 6333 0f53 0A       		.byte	0xa
 6334 0f54 2810     		.2byte	0x1028
 6335 0f56 1C       		.byte	0x1c
 6336 0f57 94       		.byte	0x94
 6337 0f58 01       		.byte	0x1
 6338 0f59 08       		.byte	0x8
 6339 0f5a FF       		.byte	0xff
 6340 0f5b 1A       		.byte	0x1a
 6341 0f5c 38       		.byte	0x38
 6342 0f5d 24       		.byte	0x24
 6343 0f5e 91       		.byte	0x91
 6344 0f5f 00       		.sleb128 0
 6345 0f60 7A       		.byte	0x7a
 6346 0f61 00       		.sleb128 0
 6347 0f62 22       		.byte	0x22
 6348 0f63 0A       		.byte	0xa
 6349 0f64 2710     		.2byte	0x1027
 6350 0f66 1C       		.byte	0x1c
 6351 0f67 94       		.byte	0x94
 6352 0f68 01       		.byte	0x1
 6353 0f69 08       		.byte	0x8
 6354 0f6a FF       		.byte	0xff
 6355 0f6b 1A       		.byte	0x1a
 6356 0f6c 21       		.byte	0x21
 6357 0f6d 3C       		.byte	0x3c
 6358 0f6e 25       		.byte	0x25
 6359 0f6f 9F       		.byte	0x9f
 6360 0f70 B00E0000 		.4byte	.LVL219
 6361 0f74 B40E0000 		.4byte	.LVL220
 6362 0f78 0100     		.2byte	0x1
 6363 0f7a 52       		.byte	0x52
 6364 0f7b B40E0000 		.4byte	.LVL220
 6365 0f7f B60E0000 		.4byte	.LVL221
 6366 0f83 2200     		.2byte	0x22
 6367 0f85 91       		.byte	0x91
 6368 0f86 00       		.sleb128 0
 6369 0f87 7A       		.byte	0x7a
 6370 0f88 00       		.sleb128 0
ARM GAS  C:\Users\info\AppData\Local\Temp\ccHAj6Mv.s 			page 125


 6371 0f89 22       		.byte	0x22
 6372 0f8a 0A       		.byte	0xa
 6373 0f8b 2810     		.2byte	0x1028
 6374 0f8d 1C       		.byte	0x1c
 6375 0f8e 94       		.byte	0x94
 6376 0f8f 01       		.byte	0x1
 6377 0f90 08       		.byte	0x8
 6378 0f91 FF       		.byte	0xff
 6379 0f92 1A       		.byte	0x1a
 6380 0f93 38       		.byte	0x38
 6381 0f94 24       		.byte	0x24
 6382 0f95 91       		.byte	0x91
 6383 0f96 00       		.sleb128 0
 6384 0f97 7A       		.byte	0x7a
 6385 0f98 00       		.sleb128 0
 6386 0f99 22       		.byte	0x22
 6387 0f9a 0A       		.byte	0xa
 6388 0f9b 2710     		.2byte	0x1027
 6389 0f9d 1C       		.byte	0x1c
 6390 0f9e 94       		.byte	0x94
 6391 0f9f 01       		.byte	0x1
 6392 0fa0 08       		.byte	0x8
 6393 0fa1 FF       		.byte	0xff
 6394 0fa2 1A       		.byte	0x1a
 6395 0fa3 21       		.byte	0x21
 6396 0fa4 3C       		.byte	0x3c
 6397 0fa5 25       		.byte	0x25
 6398 0fa6 9F       		.byte	0x9f
 6399 0fa7 B60E0000 		.4byte	.LVL221
 6400 0fab BA0E0000 		.4byte	.LVL222
 6401 0faf 0100     		.2byte	0x1
 6402 0fb1 52       		.byte	0x52
 6403 0fb2 BA0E0000 		.4byte	.LVL222
 6404 0fb6 BC0E0000 		.4byte	.LVL223
 6405 0fba 2200     		.2byte	0x22
 6406 0fbc 91       		.byte	0x91
 6407 0fbd 00       		.sleb128 0
 6408 0fbe 7A       		.byte	0x7a
 6409 0fbf 00       		.sleb128 0
 6410 0fc0 22       		.byte	0x22
 6411 0fc1 0A       		.byte	0xa
 6412 0fc2 2810     		.2byte	0x1028
 6413 0fc4 1C       		.byte	0x1c
 6414 0fc5 94       		.byte	0x94
 6415 0fc6 01       		.byte	0x1
 6416 0fc7 08       		.byte	0x8
 6417 0fc8 FF       		.byte	0xff
 6418 0fc9 1A       		.byte	0x1a
 6419 0fca 38       		.byte	0x38
 6420 0fcb 24       		.byte	0x24
 6421 0fcc 91       		.byte	0x91
 6422 0fcd 00       		.sleb128 0
 6423 0fce 7A       		.byte	0x7a
 6424 0fcf 00       		.sleb128 0
 6425 0fd0 22       		.byte	0x22
 6426 0fd1 0A       		.byte	0xa
 6427 0fd2 2710     		.2byte	0x1027
ARM GAS  C:\Users\info\AppData\Local\Temp\ccHAj6Mv.s 			page 126


 6428 0fd4 1C       		.byte	0x1c
 6429 0fd5 94       		.byte	0x94
 6430 0fd6 01       		.byte	0x1
 6431 0fd7 08       		.byte	0x8
 6432 0fd8 FF       		.byte	0xff
 6433 0fd9 1A       		.byte	0x1a
 6434 0fda 21       		.byte	0x21
 6435 0fdb 3C       		.byte	0x3c
 6436 0fdc 25       		.byte	0x25
 6437 0fdd 9F       		.byte	0x9f
 6438 0fde BC0E0000 		.4byte	.LVL223
 6439 0fe2 C00E0000 		.4byte	.LVL225
 6440 0fe6 0100     		.2byte	0x1
 6441 0fe8 52       		.byte	0x52
 6442 0fe9 C00E0000 		.4byte	.LVL225
 6443 0fed C80E0000 		.4byte	.LVL226
 6444 0ff1 2200     		.2byte	0x22
 6445 0ff3 91       		.byte	0x91
 6446 0ff4 00       		.sleb128 0
 6447 0ff5 7A       		.byte	0x7a
 6448 0ff6 00       		.sleb128 0
 6449 0ff7 22       		.byte	0x22
 6450 0ff8 0A       		.byte	0xa
 6451 0ff9 2810     		.2byte	0x1028
 6452 0ffb 1C       		.byte	0x1c
 6453 0ffc 94       		.byte	0x94
 6454 0ffd 01       		.byte	0x1
 6455 0ffe 08       		.byte	0x8
 6456 0fff FF       		.byte	0xff
 6457 1000 1A       		.byte	0x1a
 6458 1001 38       		.byte	0x38
 6459 1002 24       		.byte	0x24
 6460 1003 91       		.byte	0x91
 6461 1004 00       		.sleb128 0
 6462 1005 7A       		.byte	0x7a
 6463 1006 00       		.sleb128 0
 6464 1007 22       		.byte	0x22
 6465 1008 0A       		.byte	0xa
 6466 1009 2710     		.2byte	0x1027
 6467 100b 1C       		.byte	0x1c
 6468 100c 94       		.byte	0x94
 6469 100d 01       		.byte	0x1
 6470 100e 08       		.byte	0x8
 6471 100f FF       		.byte	0xff
 6472 1010 1A       		.byte	0x1a
 6473 1011 21       		.byte	0x21
 6474 1012 3C       		.byte	0x3c
 6475 1013 25       		.byte	0x25
 6476 1014 9F       		.byte	0x9f
 6477 1015 C80E0000 		.4byte	.LVL226
 6478 1019 CC0E0000 		.4byte	.LVL228
 6479 101d 0100     		.2byte	0x1
 6480 101f 52       		.byte	0x52
 6481 1020 CC0E0000 		.4byte	.LVL228
 6482 1024 D40E0000 		.4byte	.LVL229
 6483 1028 2200     		.2byte	0x22
 6484 102a 91       		.byte	0x91
ARM GAS  C:\Users\info\AppData\Local\Temp\ccHAj6Mv.s 			page 127


 6485 102b 00       		.sleb128 0
 6486 102c 7A       		.byte	0x7a
 6487 102d 00       		.sleb128 0
 6488 102e 22       		.byte	0x22
 6489 102f 0A       		.byte	0xa
 6490 1030 2810     		.2byte	0x1028
 6491 1032 1C       		.byte	0x1c
 6492 1033 94       		.byte	0x94
 6493 1034 01       		.byte	0x1
 6494 1035 08       		.byte	0x8
 6495 1036 FF       		.byte	0xff
 6496 1037 1A       		.byte	0x1a
 6497 1038 38       		.byte	0x38
 6498 1039 24       		.byte	0x24
 6499 103a 91       		.byte	0x91
 6500 103b 00       		.sleb128 0
 6501 103c 7A       		.byte	0x7a
 6502 103d 00       		.sleb128 0
 6503 103e 22       		.byte	0x22
 6504 103f 0A       		.byte	0xa
 6505 1040 2710     		.2byte	0x1027
 6506 1042 1C       		.byte	0x1c
 6507 1043 94       		.byte	0x94
 6508 1044 01       		.byte	0x1
 6509 1045 08       		.byte	0x8
 6510 1046 FF       		.byte	0xff
 6511 1047 1A       		.byte	0x1a
 6512 1048 21       		.byte	0x21
 6513 1049 3C       		.byte	0x3c
 6514 104a 25       		.byte	0x25
 6515 104b 9F       		.byte	0x9f
 6516 104c D40E0000 		.4byte	.LVL229
 6517 1050 D80E0000 		.4byte	.LVL230
 6518 1054 0100     		.2byte	0x1
 6519 1056 52       		.byte	0x52
 6520 1057 D80E0000 		.4byte	.LVL230
 6521 105b DA0E0000 		.4byte	.LVL231
 6522 105f 2200     		.2byte	0x22
 6523 1061 91       		.byte	0x91
 6524 1062 00       		.sleb128 0
 6525 1063 7A       		.byte	0x7a
 6526 1064 00       		.sleb128 0
 6527 1065 22       		.byte	0x22
 6528 1066 0A       		.byte	0xa
 6529 1067 2810     		.2byte	0x1028
 6530 1069 1C       		.byte	0x1c
 6531 106a 94       		.byte	0x94
 6532 106b 01       		.byte	0x1
 6533 106c 08       		.byte	0x8
 6534 106d FF       		.byte	0xff
 6535 106e 1A       		.byte	0x1a
 6536 106f 38       		.byte	0x38
 6537 1070 24       		.byte	0x24
 6538 1071 91       		.byte	0x91
 6539 1072 00       		.sleb128 0
 6540 1073 7A       		.byte	0x7a
 6541 1074 00       		.sleb128 0
ARM GAS  C:\Users\info\AppData\Local\Temp\ccHAj6Mv.s 			page 128


 6542 1075 22       		.byte	0x22
 6543 1076 0A       		.byte	0xa
 6544 1077 2710     		.2byte	0x1027
 6545 1079 1C       		.byte	0x1c
 6546 107a 94       		.byte	0x94
 6547 107b 01       		.byte	0x1
 6548 107c 08       		.byte	0x8
 6549 107d FF       		.byte	0xff
 6550 107e 1A       		.byte	0x1a
 6551 107f 21       		.byte	0x21
 6552 1080 3C       		.byte	0x3c
 6553 1081 25       		.byte	0x25
 6554 1082 9F       		.byte	0x9f
 6555 1083 DA0E0000 		.4byte	.LVL231
 6556 1087 DE0E0000 		.4byte	.LVL233
 6557 108b 0100     		.2byte	0x1
 6558 108d 52       		.byte	0x52
 6559 108e DE0E0000 		.4byte	.LVL233
 6560 1092 EC0E0000 		.4byte	.LVL234
 6561 1096 2200     		.2byte	0x22
 6562 1098 91       		.byte	0x91
 6563 1099 00       		.sleb128 0
 6564 109a 7A       		.byte	0x7a
 6565 109b 00       		.sleb128 0
 6566 109c 22       		.byte	0x22
 6567 109d 0A       		.byte	0xa
 6568 109e 2810     		.2byte	0x1028
 6569 10a0 1C       		.byte	0x1c
 6570 10a1 94       		.byte	0x94
 6571 10a2 01       		.byte	0x1
 6572 10a3 08       		.byte	0x8
 6573 10a4 FF       		.byte	0xff
 6574 10a5 1A       		.byte	0x1a
 6575 10a6 38       		.byte	0x38
 6576 10a7 24       		.byte	0x24
 6577 10a8 91       		.byte	0x91
 6578 10a9 00       		.sleb128 0
 6579 10aa 7A       		.byte	0x7a
 6580 10ab 00       		.sleb128 0
 6581 10ac 22       		.byte	0x22
 6582 10ad 0A       		.byte	0xa
 6583 10ae 2710     		.2byte	0x1027
 6584 10b0 1C       		.byte	0x1c
 6585 10b1 94       		.byte	0x94
 6586 10b2 01       		.byte	0x1
 6587 10b3 08       		.byte	0x8
 6588 10b4 FF       		.byte	0xff
 6589 10b5 1A       		.byte	0x1a
 6590 10b6 21       		.byte	0x21
 6591 10b7 3C       		.byte	0x3c
 6592 10b8 25       		.byte	0x25
 6593 10b9 9F       		.byte	0x9f
 6594 10ba EC0E0000 		.4byte	.LVL234
 6595 10be F00E0000 		.4byte	.LVL236
 6596 10c2 0100     		.2byte	0x1
 6597 10c4 52       		.byte	0x52
 6598 10c5 00000000 		.4byte	0
ARM GAS  C:\Users\info\AppData\Local\Temp\ccHAj6Mv.s 			page 129


 6599 10c9 00000000 		.4byte	0
 6600              	.LLST10:
 6601 10cd F6090000 		.4byte	.LVL47
 6602 10d1 260C0000 		.4byte	.LVL135
 6603 10d5 0100     		.2byte	0x1
 6604 10d7 54       		.byte	0x54
 6605 10d8 260C0000 		.4byte	.LVL135
 6606 10dc FC0C0000 		.4byte	.LVL146
 6607 10e0 0300     		.2byte	0x3
 6608 10e2 91       		.byte	0x91
 6609 10e3 A45F     		.sleb128 -4188
 6610 10e5 FC0C0000 		.4byte	.LVL146
 6611 10e9 0E0D0000 		.4byte	.LVL151
 6612 10ed 0100     		.2byte	0x1
 6613 10ef 54       		.byte	0x54
 6614 10f0 0E0D0000 		.4byte	.LVL151
 6615 10f4 300D0000 		.4byte	.LVL152
 6616 10f8 0300     		.2byte	0x3
 6617 10fa 91       		.byte	0x91
 6618 10fb A45F     		.sleb128 -4188
 6619 10fd 300D0000 		.4byte	.LVL152
 6620 1101 300E0000 		.4byte	.LVL189
 6621 1105 0100     		.2byte	0x1
 6622 1107 54       		.byte	0x54
 6623 1108 580E0000 		.4byte	.LVL191
 6624 110c F00E0000 		.4byte	.LVL236
 6625 1110 0100     		.2byte	0x1
 6626 1112 54       		.byte	0x54
 6627 1113 00000000 		.4byte	0
 6628 1117 00000000 		.4byte	0
 6629              	.LLST11:
 6630 111b F8090000 		.4byte	.LVL48
 6631 111f 240B0000 		.4byte	.LVL102
 6632 1123 0100     		.2byte	0x1
 6633 1125 56       		.byte	0x56
 6634 1126 240B0000 		.4byte	.LVL102
 6635 112a 2C0B0000 		.4byte	.LVL103
 6636 112e 2000     		.2byte	0x20
 6637 1130 91       		.byte	0x91
 6638 1131 00       		.sleb128 0
 6639 1132 7A       		.byte	0x7a
 6640 1133 00       		.sleb128 0
 6641 1134 22       		.byte	0x22
 6642 1135 0A       		.byte	0xa
 6643 1136 2810     		.2byte	0x1028
 6644 1138 1C       		.byte	0x1c
 6645 1139 94       		.byte	0x94
 6646 113a 01       		.byte	0x1
 6647 113b 08       		.byte	0x8
 6648 113c FF       		.byte	0xff
 6649 113d 1A       		.byte	0x1a
 6650 113e 38       		.byte	0x38
 6651 113f 24       		.byte	0x24
 6652 1140 91       		.byte	0x91
 6653 1141 00       		.sleb128 0
 6654 1142 7A       		.byte	0x7a
 6655 1143 00       		.sleb128 0
ARM GAS  C:\Users\info\AppData\Local\Temp\ccHAj6Mv.s 			page 130


 6656 1144 22       		.byte	0x22
 6657 1145 0A       		.byte	0xa
 6658 1146 2710     		.2byte	0x1027
 6659 1148 1C       		.byte	0x1c
 6660 1149 94       		.byte	0x94
 6661 114a 01       		.byte	0x1
 6662 114b 08       		.byte	0x8
 6663 114c FF       		.byte	0xff
 6664 114d 1A       		.byte	0x1a
 6665 114e 21       		.byte	0x21
 6666 114f 9F       		.byte	0x9f
 6667 1150 2C0B0000 		.4byte	.LVL103
 6668 1154 260C0000 		.4byte	.LVL135
 6669 1158 0100     		.2byte	0x1
 6670 115a 56       		.byte	0x56
 6671 115b 260C0000 		.4byte	.LVL135
 6672 115f 360C0000 		.4byte	.LVL136
 6673 1163 2000     		.2byte	0x20
 6674 1165 91       		.byte	0x91
 6675 1166 00       		.sleb128 0
 6676 1167 7A       		.byte	0x7a
 6677 1168 00       		.sleb128 0
 6678 1169 22       		.byte	0x22
 6679 116a 0A       		.byte	0xa
 6680 116b 2810     		.2byte	0x1028
 6681 116d 1C       		.byte	0x1c
 6682 116e 94       		.byte	0x94
 6683 116f 01       		.byte	0x1
 6684 1170 08       		.byte	0x8
 6685 1171 FF       		.byte	0xff
 6686 1172 1A       		.byte	0x1a
 6687 1173 38       		.byte	0x38
 6688 1174 24       		.byte	0x24
 6689 1175 91       		.byte	0x91
 6690 1176 00       		.sleb128 0
 6691 1177 7A       		.byte	0x7a
 6692 1178 00       		.sleb128 0
 6693 1179 22       		.byte	0x22
 6694 117a 0A       		.byte	0xa
 6695 117b 2710     		.2byte	0x1027
 6696 117d 1C       		.byte	0x1c
 6697 117e 94       		.byte	0x94
 6698 117f 01       		.byte	0x1
 6699 1180 08       		.byte	0x8
 6700 1181 FF       		.byte	0xff
 6701 1182 1A       		.byte	0x1a
 6702 1183 21       		.byte	0x21
 6703 1184 9F       		.byte	0x9f
 6704 1185 360C0000 		.4byte	.LVL136
 6705 1189 380C0000 		.4byte	.LVL137
 6706 118d 1A00     		.2byte	0x1a
 6707 118f 72       		.byte	0x72
 6708 1190 00       		.sleb128 0
 6709 1191 7A       		.byte	0x7a
 6710 1192 00       		.sleb128 0
 6711 1193 22       		.byte	0x22
 6712 1194 94       		.byte	0x94
ARM GAS  C:\Users\info\AppData\Local\Temp\ccHAj6Mv.s 			page 131


 6713 1195 01       		.byte	0x1
 6714 1196 08       		.byte	0x8
 6715 1197 FF       		.byte	0xff
 6716 1198 1A       		.byte	0x1a
 6717 1199 38       		.byte	0x38
 6718 119a 24       		.byte	0x24
 6719 119b 72       		.byte	0x72
 6720 119c 00       		.sleb128 0
 6721 119d 7A       		.byte	0x7a
 6722 119e 00       		.sleb128 0
 6723 119f 22       		.byte	0x22
 6724 11a0 23       		.byte	0x23
 6725 11a1 01       		.uleb128 0x1
 6726 11a2 94       		.byte	0x94
 6727 11a3 01       		.byte	0x1
 6728 11a4 08       		.byte	0x8
 6729 11a5 FF       		.byte	0xff
 6730 11a6 1A       		.byte	0x1a
 6731 11a7 21       		.byte	0x21
 6732 11a8 9F       		.byte	0x9f
 6733 11a9 380C0000 		.4byte	.LVL137
 6734 11ad 6A0C0000 		.4byte	.LVL140
 6735 11b1 2000     		.2byte	0x20
 6736 11b3 91       		.byte	0x91
 6737 11b4 00       		.sleb128 0
 6738 11b5 7A       		.byte	0x7a
 6739 11b6 00       		.sleb128 0
 6740 11b7 22       		.byte	0x22
 6741 11b8 0A       		.byte	0xa
 6742 11b9 2810     		.2byte	0x1028
 6743 11bb 1C       		.byte	0x1c
 6744 11bc 94       		.byte	0x94
 6745 11bd 01       		.byte	0x1
 6746 11be 08       		.byte	0x8
 6747 11bf FF       		.byte	0xff
 6748 11c0 1A       		.byte	0x1a
 6749 11c1 38       		.byte	0x38
 6750 11c2 24       		.byte	0x24
 6751 11c3 91       		.byte	0x91
 6752 11c4 00       		.sleb128 0
 6753 11c5 7A       		.byte	0x7a
 6754 11c6 00       		.sleb128 0
 6755 11c7 22       		.byte	0x22
 6756 11c8 0A       		.byte	0xa
 6757 11c9 2710     		.2byte	0x1027
 6758 11cb 1C       		.byte	0x1c
 6759 11cc 94       		.byte	0x94
 6760 11cd 01       		.byte	0x1
 6761 11ce 08       		.byte	0x8
 6762 11cf FF       		.byte	0xff
 6763 11d0 1A       		.byte	0x1a
 6764 11d1 21       		.byte	0x21
 6765 11d2 9F       		.byte	0x9f
 6766 11d3 6A0C0000 		.4byte	.LVL140
 6767 11d7 6C0C0000 		.4byte	.LVL141
 6768 11db 1A00     		.2byte	0x1a
 6769 11dd 72       		.byte	0x72
ARM GAS  C:\Users\info\AppData\Local\Temp\ccHAj6Mv.s 			page 132


 6770 11de 00       		.sleb128 0
 6771 11df 7A       		.byte	0x7a
 6772 11e0 00       		.sleb128 0
 6773 11e1 22       		.byte	0x22
 6774 11e2 94       		.byte	0x94
 6775 11e3 01       		.byte	0x1
 6776 11e4 08       		.byte	0x8
 6777 11e5 FF       		.byte	0xff
 6778 11e6 1A       		.byte	0x1a
 6779 11e7 38       		.byte	0x38
 6780 11e8 24       		.byte	0x24
 6781 11e9 72       		.byte	0x72
 6782 11ea 00       		.sleb128 0
 6783 11eb 7A       		.byte	0x7a
 6784 11ec 00       		.sleb128 0
 6785 11ed 22       		.byte	0x22
 6786 11ee 23       		.byte	0x23
 6787 11ef 01       		.uleb128 0x1
 6788 11f0 94       		.byte	0x94
 6789 11f1 01       		.byte	0x1
 6790 11f2 08       		.byte	0x8
 6791 11f3 FF       		.byte	0xff
 6792 11f4 1A       		.byte	0x1a
 6793 11f5 21       		.byte	0x21
 6794 11f6 9F       		.byte	0x9f
 6795 11f7 6C0C0000 		.4byte	.LVL141
 6796 11fb FC0C0000 		.4byte	.LVL146
 6797 11ff 2000     		.2byte	0x20
 6798 1201 91       		.byte	0x91
 6799 1202 00       		.sleb128 0
 6800 1203 7A       		.byte	0x7a
 6801 1204 00       		.sleb128 0
 6802 1205 22       		.byte	0x22
 6803 1206 0A       		.byte	0xa
 6804 1207 2810     		.2byte	0x1028
 6805 1209 1C       		.byte	0x1c
 6806 120a 94       		.byte	0x94
 6807 120b 01       		.byte	0x1
 6808 120c 08       		.byte	0x8
 6809 120d FF       		.byte	0xff
 6810 120e 1A       		.byte	0x1a
 6811 120f 38       		.byte	0x38
 6812 1210 24       		.byte	0x24
 6813 1211 91       		.byte	0x91
 6814 1212 00       		.sleb128 0
 6815 1213 7A       		.byte	0x7a
 6816 1214 00       		.sleb128 0
 6817 1215 22       		.byte	0x22
 6818 1216 0A       		.byte	0xa
 6819 1217 2710     		.2byte	0x1027
 6820 1219 1C       		.byte	0x1c
 6821 121a 94       		.byte	0x94
 6822 121b 01       		.byte	0x1
 6823 121c 08       		.byte	0x8
 6824 121d FF       		.byte	0xff
 6825 121e 1A       		.byte	0x1a
 6826 121f 21       		.byte	0x21
ARM GAS  C:\Users\info\AppData\Local\Temp\ccHAj6Mv.s 			page 133


 6827 1220 9F       		.byte	0x9f
 6828 1221 FC0C0000 		.4byte	.LVL146
 6829 1225 FE0C0000 		.4byte	.LVL147
 6830 1229 0100     		.2byte	0x1
 6831 122b 56       		.byte	0x56
 6832 122c FE0C0000 		.4byte	.LVL147
 6833 1230 300D0000 		.4byte	.LVL152
 6834 1234 2000     		.2byte	0x20
 6835 1236 91       		.byte	0x91
 6836 1237 00       		.sleb128 0
 6837 1238 7A       		.byte	0x7a
 6838 1239 00       		.sleb128 0
 6839 123a 22       		.byte	0x22
 6840 123b 0A       		.byte	0xa
 6841 123c 2810     		.2byte	0x1028
 6842 123e 1C       		.byte	0x1c
 6843 123f 94       		.byte	0x94
 6844 1240 01       		.byte	0x1
 6845 1241 08       		.byte	0x8
 6846 1242 FF       		.byte	0xff
 6847 1243 1A       		.byte	0x1a
 6848 1244 38       		.byte	0x38
 6849 1245 24       		.byte	0x24
 6850 1246 91       		.byte	0x91
 6851 1247 00       		.sleb128 0
 6852 1248 7A       		.byte	0x7a
 6853 1249 00       		.sleb128 0
 6854 124a 22       		.byte	0x22
 6855 124b 0A       		.byte	0xa
 6856 124c 2710     		.2byte	0x1027
 6857 124e 1C       		.byte	0x1c
 6858 124f 94       		.byte	0x94
 6859 1250 01       		.byte	0x1
 6860 1251 08       		.byte	0x8
 6861 1252 FF       		.byte	0xff
 6862 1253 1A       		.byte	0x1a
 6863 1254 21       		.byte	0x21
 6864 1255 9F       		.byte	0x9f
 6865 1256 300D0000 		.4byte	.LVL152
 6866 125a 380E0000 		.4byte	.LVL190
 6867 125e 0100     		.2byte	0x1
 6868 1260 56       		.byte	0x56
 6869 1261 580E0000 		.4byte	.LVL191
 6870 1265 F00E0000 		.4byte	.LVL236
 6871 1269 0100     		.2byte	0x1
 6872 126b 56       		.byte	0x56
 6873 126c 00000000 		.4byte	0
 6874 1270 00000000 		.4byte	0
 6875              	.LLST12:
 6876 1274 000A0000 		.4byte	.LVL50
 6877 1278 2E0A0000 		.4byte	.LVL52
 6878 127c 0100     		.2byte	0x1
 6879 127e 53       		.byte	0x53
 6880 127f 2E0A0000 		.4byte	.LVL52
 6881 1283 320A0000 		.4byte	.LVL54
 6882 1287 2600     		.2byte	0x26
 6883 1289 91       		.byte	0x91
ARM GAS  C:\Users\info\AppData\Local\Temp\ccHAj6Mv.s 			page 134


 6884 128a 00       		.sleb128 0
 6885 128b 7A       		.byte	0x7a
 6886 128c 00       		.sleb128 0
 6887 128d 22       		.byte	0x22
 6888 128e 0A       		.byte	0xa
 6889 128f 2810     		.2byte	0x1028
 6890 1291 1C       		.byte	0x1c
 6891 1292 94       		.byte	0x94
 6892 1293 01       		.byte	0x1
 6893 1294 08       		.byte	0x8
 6894 1295 FF       		.byte	0xff
 6895 1296 1A       		.byte	0x1a
 6896 1297 38       		.byte	0x38
 6897 1298 24       		.byte	0x24
 6898 1299 91       		.byte	0x91
 6899 129a 00       		.sleb128 0
 6900 129b 7A       		.byte	0x7a
 6901 129c 00       		.sleb128 0
 6902 129d 22       		.byte	0x22
 6903 129e 0A       		.byte	0xa
 6904 129f 2710     		.2byte	0x1027
 6905 12a1 1C       		.byte	0x1c
 6906 12a2 94       		.byte	0x94
 6907 12a3 01       		.byte	0x1
 6908 12a4 08       		.byte	0x8
 6909 12a5 FF       		.byte	0xff
 6910 12a6 1A       		.byte	0x1a
 6911 12a7 21       		.byte	0x21
 6912 12a8 09       		.byte	0x9
 6913 12a9 F8       		.byte	0xf8
 6914 12aa 24       		.byte	0x24
 6915 12ab 09       		.byte	0x9
 6916 12ac F8       		.byte	0xf8
 6917 12ad 25       		.byte	0x25
 6918 12ae 9F       		.byte	0x9f
 6919 12af 320A0000 		.4byte	.LVL54
 6920 12b3 420A0000 		.4byte	.LVL55
 6921 12b7 0100     		.2byte	0x1
 6922 12b9 53       		.byte	0x53
 6923 12ba 420A0000 		.4byte	.LVL55
 6924 12be 540A0000 		.4byte	.LVL57
 6925 12c2 2600     		.2byte	0x26
 6926 12c4 91       		.byte	0x91
 6927 12c5 00       		.sleb128 0
 6928 12c6 7A       		.byte	0x7a
 6929 12c7 00       		.sleb128 0
 6930 12c8 22       		.byte	0x22
 6931 12c9 0A       		.byte	0xa
 6932 12ca 2810     		.2byte	0x1028
 6933 12cc 1C       		.byte	0x1c
 6934 12cd 94       		.byte	0x94
 6935 12ce 01       		.byte	0x1
 6936 12cf 08       		.byte	0x8
 6937 12d0 FF       		.byte	0xff
 6938 12d1 1A       		.byte	0x1a
 6939 12d2 38       		.byte	0x38
 6940 12d3 24       		.byte	0x24
ARM GAS  C:\Users\info\AppData\Local\Temp\ccHAj6Mv.s 			page 135


 6941 12d4 91       		.byte	0x91
 6942 12d5 00       		.sleb128 0
 6943 12d6 7A       		.byte	0x7a
 6944 12d7 00       		.sleb128 0
 6945 12d8 22       		.byte	0x22
 6946 12d9 0A       		.byte	0xa
 6947 12da 2710     		.2byte	0x1027
 6948 12dc 1C       		.byte	0x1c
 6949 12dd 94       		.byte	0x94
 6950 12de 01       		.byte	0x1
 6951 12df 08       		.byte	0x8
 6952 12e0 FF       		.byte	0xff
 6953 12e1 1A       		.byte	0x1a
 6954 12e2 21       		.byte	0x21
 6955 12e3 09       		.byte	0x9
 6956 12e4 F8       		.byte	0xf8
 6957 12e5 24       		.byte	0x24
 6958 12e6 09       		.byte	0x9
 6959 12e7 F8       		.byte	0xf8
 6960 12e8 25       		.byte	0x25
 6961 12e9 9F       		.byte	0x9f
 6962 12ea 540A0000 		.4byte	.LVL57
 6963 12ee 560A0000 		.4byte	.LVL58
 6964 12f2 0100     		.2byte	0x1
 6965 12f4 53       		.byte	0x53
 6966 12f5 560A0000 		.4byte	.LVL58
 6967 12f9 600A0000 		.4byte	.LVL60
 6968 12fd 2600     		.2byte	0x26
 6969 12ff 91       		.byte	0x91
 6970 1300 00       		.sleb128 0
 6971 1301 7A       		.byte	0x7a
 6972 1302 00       		.sleb128 0
 6973 1303 22       		.byte	0x22
 6974 1304 0A       		.byte	0xa
 6975 1305 2810     		.2byte	0x1028
 6976 1307 1C       		.byte	0x1c
 6977 1308 94       		.byte	0x94
 6978 1309 01       		.byte	0x1
 6979 130a 08       		.byte	0x8
 6980 130b FF       		.byte	0xff
 6981 130c 1A       		.byte	0x1a
 6982 130d 38       		.byte	0x38
 6983 130e 24       		.byte	0x24
 6984 130f 91       		.byte	0x91
 6985 1310 00       		.sleb128 0
 6986 1311 7A       		.byte	0x7a
 6987 1312 00       		.sleb128 0
 6988 1313 22       		.byte	0x22
 6989 1314 0A       		.byte	0xa
 6990 1315 2710     		.2byte	0x1027
 6991 1317 1C       		.byte	0x1c
 6992 1318 94       		.byte	0x94
 6993 1319 01       		.byte	0x1
 6994 131a 08       		.byte	0x8
 6995 131b FF       		.byte	0xff
 6996 131c 1A       		.byte	0x1a
 6997 131d 21       		.byte	0x21
ARM GAS  C:\Users\info\AppData\Local\Temp\ccHAj6Mv.s 			page 136


 6998 131e 09       		.byte	0x9
 6999 131f F8       		.byte	0xf8
 7000 1320 24       		.byte	0x24
 7001 1321 09       		.byte	0x9
 7002 1322 F8       		.byte	0xf8
 7003 1323 25       		.byte	0x25
 7004 1324 9F       		.byte	0x9f
 7005 1325 600A0000 		.4byte	.LVL60
 7006 1329 700A0000 		.4byte	.LVL63
 7007 132d 0100     		.2byte	0x1
 7008 132f 53       		.byte	0x53
 7009 1330 700A0000 		.4byte	.LVL63
 7010 1334 740A0000 		.4byte	.LVL64
 7011 1338 2600     		.2byte	0x26
 7012 133a 91       		.byte	0x91
 7013 133b 00       		.sleb128 0
 7014 133c 7A       		.byte	0x7a
 7015 133d 00       		.sleb128 0
 7016 133e 22       		.byte	0x22
 7017 133f 0A       		.byte	0xa
 7018 1340 2810     		.2byte	0x1028
 7019 1342 1C       		.byte	0x1c
 7020 1343 94       		.byte	0x94
 7021 1344 01       		.byte	0x1
 7022 1345 08       		.byte	0x8
 7023 1346 FF       		.byte	0xff
 7024 1347 1A       		.byte	0x1a
 7025 1348 38       		.byte	0x38
 7026 1349 24       		.byte	0x24
 7027 134a 91       		.byte	0x91
 7028 134b 00       		.sleb128 0
 7029 134c 7A       		.byte	0x7a
 7030 134d 00       		.sleb128 0
 7031 134e 22       		.byte	0x22
 7032 134f 0A       		.byte	0xa
 7033 1350 2710     		.2byte	0x1027
 7034 1352 1C       		.byte	0x1c
 7035 1353 94       		.byte	0x94
 7036 1354 01       		.byte	0x1
 7037 1355 08       		.byte	0x8
 7038 1356 FF       		.byte	0xff
 7039 1357 1A       		.byte	0x1a
 7040 1358 21       		.byte	0x21
 7041 1359 09       		.byte	0x9
 7042 135a F8       		.byte	0xf8
 7043 135b 24       		.byte	0x24
 7044 135c 09       		.byte	0x9
 7045 135d F8       		.byte	0xf8
 7046 135e 25       		.byte	0x25
 7047 135f 9F       		.byte	0x9f
 7048 1360 7A0A0000 		.4byte	.LVL66
 7049 1364 820A0000 		.4byte	.LVL69
 7050 1368 0100     		.2byte	0x1
 7051 136a 53       		.byte	0x53
 7052 136b 860A0000 		.4byte	.LVL71
 7053 136f A00A0000 		.4byte	.LVL75
 7054 1373 0100     		.2byte	0x1
ARM GAS  C:\Users\info\AppData\Local\Temp\ccHAj6Mv.s 			page 137


 7055 1375 53       		.byte	0x53
 7056 1376 A00A0000 		.4byte	.LVL75
 7057 137a A40A0000 		.4byte	.LVL76
 7058 137e 0100     		.2byte	0x1
 7059 1380 5A       		.byte	0x5a
 7060 1381 A40A0000 		.4byte	.LVL76
 7061 1385 A60A0000 		.4byte	.LVL77
 7062 1389 0100     		.2byte	0x1
 7063 138b 53       		.byte	0x53
 7064 138c A60A0000 		.4byte	.LVL77
 7065 1390 B20A0000 		.4byte	.LVL78
 7066 1394 2600     		.2byte	0x26
 7067 1396 91       		.byte	0x91
 7068 1397 00       		.sleb128 0
 7069 1398 7A       		.byte	0x7a
 7070 1399 00       		.sleb128 0
 7071 139a 22       		.byte	0x22
 7072 139b 0A       		.byte	0xa
 7073 139c 2810     		.2byte	0x1028
 7074 139e 1C       		.byte	0x1c
 7075 139f 94       		.byte	0x94
 7076 13a0 01       		.byte	0x1
 7077 13a1 08       		.byte	0x8
 7078 13a2 FF       		.byte	0xff
 7079 13a3 1A       		.byte	0x1a
 7080 13a4 38       		.byte	0x38
 7081 13a5 24       		.byte	0x24
 7082 13a6 91       		.byte	0x91
 7083 13a7 00       		.sleb128 0
 7084 13a8 7A       		.byte	0x7a
 7085 13a9 00       		.sleb128 0
 7086 13aa 22       		.byte	0x22
 7087 13ab 0A       		.byte	0xa
 7088 13ac 2710     		.2byte	0x1027
 7089 13ae 1C       		.byte	0x1c
 7090 13af 94       		.byte	0x94
 7091 13b0 01       		.byte	0x1
 7092 13b1 08       		.byte	0x8
 7093 13b2 FF       		.byte	0xff
 7094 13b3 1A       		.byte	0x1a
 7095 13b4 21       		.byte	0x21
 7096 13b5 09       		.byte	0x9
 7097 13b6 F8       		.byte	0xf8
 7098 13b7 24       		.byte	0x24
 7099 13b8 09       		.byte	0x9
 7100 13b9 F8       		.byte	0xf8
 7101 13ba 25       		.byte	0x25
 7102 13bb 9F       		.byte	0x9f
 7103 13bc B20A0000 		.4byte	.LVL78
 7104 13c0 B60A0000 		.4byte	.LVL79
 7105 13c4 2600     		.2byte	0x26
 7106 13c6 91       		.byte	0x91
 7107 13c7 00       		.sleb128 0
 7108 13c8 7A       		.byte	0x7a
 7109 13c9 00       		.sleb128 0
 7110 13ca 22       		.byte	0x22
 7111 13cb 0A       		.byte	0xa
ARM GAS  C:\Users\info\AppData\Local\Temp\ccHAj6Mv.s 			page 138


 7112 13cc 2A10     		.2byte	0x102a
 7113 13ce 1C       		.byte	0x1c
 7114 13cf 94       		.byte	0x94
 7115 13d0 01       		.byte	0x1
 7116 13d1 08       		.byte	0x8
 7117 13d2 FF       		.byte	0xff
 7118 13d3 1A       		.byte	0x1a
 7119 13d4 38       		.byte	0x38
 7120 13d5 24       		.byte	0x24
 7121 13d6 91       		.byte	0x91
 7122 13d7 00       		.sleb128 0
 7123 13d8 7A       		.byte	0x7a
 7124 13d9 00       		.sleb128 0
 7125 13da 22       		.byte	0x22
 7126 13db 0A       		.byte	0xa
 7127 13dc 2910     		.2byte	0x1029
 7128 13de 1C       		.byte	0x1c
 7129 13df 94       		.byte	0x94
 7130 13e0 01       		.byte	0x1
 7131 13e1 08       		.byte	0x8
 7132 13e2 FF       		.byte	0xff
 7133 13e3 1A       		.byte	0x1a
 7134 13e4 21       		.byte	0x21
 7135 13e5 09       		.byte	0x9
 7136 13e6 F8       		.byte	0xf8
 7137 13e7 24       		.byte	0x24
 7138 13e8 09       		.byte	0x9
 7139 13e9 F8       		.byte	0xf8
 7140 13ea 25       		.byte	0x25
 7141 13eb 9F       		.byte	0x9f
 7142 13ec BC0A0000 		.4byte	.LVL81
 7143 13f0 BE0A0000 		.4byte	.LVL82
 7144 13f4 0100     		.2byte	0x1
 7145 13f6 53       		.byte	0x53
 7146 13f7 BE0A0000 		.4byte	.LVL82
 7147 13fb CA0A0000 		.4byte	.LVL83
 7148 13ff 2600     		.2byte	0x26
 7149 1401 91       		.byte	0x91
 7150 1402 00       		.sleb128 0
 7151 1403 7A       		.byte	0x7a
 7152 1404 00       		.sleb128 0
 7153 1405 22       		.byte	0x22
 7154 1406 0A       		.byte	0xa
 7155 1407 2810     		.2byte	0x1028
 7156 1409 1C       		.byte	0x1c
 7157 140a 94       		.byte	0x94
 7158 140b 01       		.byte	0x1
 7159 140c 08       		.byte	0x8
 7160 140d FF       		.byte	0xff
 7161 140e 1A       		.byte	0x1a
 7162 140f 38       		.byte	0x38
 7163 1410 24       		.byte	0x24
 7164 1411 91       		.byte	0x91
 7165 1412 00       		.sleb128 0
 7166 1413 7A       		.byte	0x7a
 7167 1414 00       		.sleb128 0
 7168 1415 22       		.byte	0x22
ARM GAS  C:\Users\info\AppData\Local\Temp\ccHAj6Mv.s 			page 139


 7169 1416 0A       		.byte	0xa
 7170 1417 2710     		.2byte	0x1027
 7171 1419 1C       		.byte	0x1c
 7172 141a 94       		.byte	0x94
 7173 141b 01       		.byte	0x1
 7174 141c 08       		.byte	0x8
 7175 141d FF       		.byte	0xff
 7176 141e 1A       		.byte	0x1a
 7177 141f 21       		.byte	0x21
 7178 1420 09       		.byte	0x9
 7179 1421 F8       		.byte	0xf8
 7180 1422 24       		.byte	0x24
 7181 1423 09       		.byte	0x9
 7182 1424 F8       		.byte	0xf8
 7183 1425 25       		.byte	0x25
 7184 1426 9F       		.byte	0x9f
 7185 1427 CA0A0000 		.4byte	.LVL83
 7186 142b CE0A0000 		.4byte	.LVL84
 7187 142f 2600     		.2byte	0x26
 7188 1431 91       		.byte	0x91
 7189 1432 00       		.sleb128 0
 7190 1433 7A       		.byte	0x7a
 7191 1434 00       		.sleb128 0
 7192 1435 22       		.byte	0x22
 7193 1436 0A       		.byte	0xa
 7194 1437 2A10     		.2byte	0x102a
 7195 1439 1C       		.byte	0x1c
 7196 143a 94       		.byte	0x94
 7197 143b 01       		.byte	0x1
 7198 143c 08       		.byte	0x8
 7199 143d FF       		.byte	0xff
 7200 143e 1A       		.byte	0x1a
 7201 143f 38       		.byte	0x38
 7202 1440 24       		.byte	0x24
 7203 1441 91       		.byte	0x91
 7204 1442 00       		.sleb128 0
 7205 1443 7A       		.byte	0x7a
 7206 1444 00       		.sleb128 0
 7207 1445 22       		.byte	0x22
 7208 1446 0A       		.byte	0xa
 7209 1447 2910     		.2byte	0x1029
 7210 1449 1C       		.byte	0x1c
 7211 144a 94       		.byte	0x94
 7212 144b 01       		.byte	0x1
 7213 144c 08       		.byte	0x8
 7214 144d FF       		.byte	0xff
 7215 144e 1A       		.byte	0x1a
 7216 144f 21       		.byte	0x21
 7217 1450 09       		.byte	0x9
 7218 1451 F8       		.byte	0xf8
 7219 1452 24       		.byte	0x24
 7220 1453 09       		.byte	0x9
 7221 1454 F8       		.byte	0xf8
 7222 1455 25       		.byte	0x25
 7223 1456 9F       		.byte	0x9f
 7224 1457 D40A0000 		.4byte	.LVL86
 7225 145b DC0A0000 		.4byte	.LVL87
ARM GAS  C:\Users\info\AppData\Local\Temp\ccHAj6Mv.s 			page 140


 7226 145f 0100     		.2byte	0x1
 7227 1461 53       		.byte	0x53
 7228 1462 DC0A0000 		.4byte	.LVL87
 7229 1466 EA0A0000 		.4byte	.LVL89
 7230 146a 2600     		.2byte	0x26
 7231 146c 91       		.byte	0x91
 7232 146d 00       		.sleb128 0
 7233 146e 7A       		.byte	0x7a
 7234 146f 00       		.sleb128 0
 7235 1470 22       		.byte	0x22
 7236 1471 0A       		.byte	0xa
 7237 1472 2810     		.2byte	0x1028
 7238 1474 1C       		.byte	0x1c
 7239 1475 94       		.byte	0x94
 7240 1476 01       		.byte	0x1
 7241 1477 08       		.byte	0x8
 7242 1478 FF       		.byte	0xff
 7243 1479 1A       		.byte	0x1a
 7244 147a 38       		.byte	0x38
 7245 147b 24       		.byte	0x24
 7246 147c 91       		.byte	0x91
 7247 147d 00       		.sleb128 0
 7248 147e 7A       		.byte	0x7a
 7249 147f 00       		.sleb128 0
 7250 1480 22       		.byte	0x22
 7251 1481 0A       		.byte	0xa
 7252 1482 2710     		.2byte	0x1027
 7253 1484 1C       		.byte	0x1c
 7254 1485 94       		.byte	0x94
 7255 1486 01       		.byte	0x1
 7256 1487 08       		.byte	0x8
 7257 1488 FF       		.byte	0xff
 7258 1489 1A       		.byte	0x1a
 7259 148a 21       		.byte	0x21
 7260 148b 09       		.byte	0x9
 7261 148c F8       		.byte	0xf8
 7262 148d 24       		.byte	0x24
 7263 148e 09       		.byte	0x9
 7264 148f F8       		.byte	0xf8
 7265 1490 25       		.byte	0x25
 7266 1491 9F       		.byte	0x9f
 7267 1492 EA0A0000 		.4byte	.LVL89
 7268 1496 EE0A0000 		.4byte	.LVL90
 7269 149a 2600     		.2byte	0x26
 7270 149c 91       		.byte	0x91
 7271 149d 00       		.sleb128 0
 7272 149e 7A       		.byte	0x7a
 7273 149f 00       		.sleb128 0
 7274 14a0 22       		.byte	0x22
 7275 14a1 0A       		.byte	0xa
 7276 14a2 2A10     		.2byte	0x102a
 7277 14a4 1C       		.byte	0x1c
 7278 14a5 94       		.byte	0x94
 7279 14a6 01       		.byte	0x1
 7280 14a7 08       		.byte	0x8
 7281 14a8 FF       		.byte	0xff
 7282 14a9 1A       		.byte	0x1a
ARM GAS  C:\Users\info\AppData\Local\Temp\ccHAj6Mv.s 			page 141


 7283 14aa 38       		.byte	0x38
 7284 14ab 24       		.byte	0x24
 7285 14ac 91       		.byte	0x91
 7286 14ad 00       		.sleb128 0
 7287 14ae 7A       		.byte	0x7a
 7288 14af 00       		.sleb128 0
 7289 14b0 22       		.byte	0x22
 7290 14b1 0A       		.byte	0xa
 7291 14b2 2910     		.2byte	0x1029
 7292 14b4 1C       		.byte	0x1c
 7293 14b5 94       		.byte	0x94
 7294 14b6 01       		.byte	0x1
 7295 14b7 08       		.byte	0x8
 7296 14b8 FF       		.byte	0xff
 7297 14b9 1A       		.byte	0x1a
 7298 14ba 21       		.byte	0x21
 7299 14bb 09       		.byte	0x9
 7300 14bc F8       		.byte	0xf8
 7301 14bd 24       		.byte	0x24
 7302 14be 09       		.byte	0x9
 7303 14bf F8       		.byte	0xf8
 7304 14c0 25       		.byte	0x25
 7305 14c1 9F       		.byte	0x9f
 7306 14c2 F40A0000 		.4byte	.LVL91
 7307 14c6 FC0A0000 		.4byte	.LVL92
 7308 14ca 0100     		.2byte	0x1
 7309 14cc 53       		.byte	0x53
 7310 14cd FC0A0000 		.4byte	.LVL92
 7311 14d1 0A0B0000 		.4byte	.LVL94
 7312 14d5 2600     		.2byte	0x26
 7313 14d7 91       		.byte	0x91
 7314 14d8 00       		.sleb128 0
 7315 14d9 7A       		.byte	0x7a
 7316 14da 00       		.sleb128 0
 7317 14db 22       		.byte	0x22
 7318 14dc 0A       		.byte	0xa
 7319 14dd 2810     		.2byte	0x1028
 7320 14df 1C       		.byte	0x1c
 7321 14e0 94       		.byte	0x94
 7322 14e1 01       		.byte	0x1
 7323 14e2 08       		.byte	0x8
 7324 14e3 FF       		.byte	0xff
 7325 14e4 1A       		.byte	0x1a
 7326 14e5 38       		.byte	0x38
 7327 14e6 24       		.byte	0x24
 7328 14e7 91       		.byte	0x91
 7329 14e8 00       		.sleb128 0
 7330 14e9 7A       		.byte	0x7a
 7331 14ea 00       		.sleb128 0
 7332 14eb 22       		.byte	0x22
 7333 14ec 0A       		.byte	0xa
 7334 14ed 2710     		.2byte	0x1027
 7335 14ef 1C       		.byte	0x1c
 7336 14f0 94       		.byte	0x94
 7337 14f1 01       		.byte	0x1
 7338 14f2 08       		.byte	0x8
 7339 14f3 FF       		.byte	0xff
ARM GAS  C:\Users\info\AppData\Local\Temp\ccHAj6Mv.s 			page 142


 7340 14f4 1A       		.byte	0x1a
 7341 14f5 21       		.byte	0x21
 7342 14f6 09       		.byte	0x9
 7343 14f7 F8       		.byte	0xf8
 7344 14f8 24       		.byte	0x24
 7345 14f9 09       		.byte	0x9
 7346 14fa F8       		.byte	0xf8
 7347 14fb 25       		.byte	0x25
 7348 14fc 9F       		.byte	0x9f
 7349 14fd 0A0B0000 		.4byte	.LVL94
 7350 1501 0E0B0000 		.4byte	.LVL95
 7351 1505 2600     		.2byte	0x26
 7352 1507 91       		.byte	0x91
 7353 1508 00       		.sleb128 0
 7354 1509 7A       		.byte	0x7a
 7355 150a 00       		.sleb128 0
 7356 150b 22       		.byte	0x22
 7357 150c 0A       		.byte	0xa
 7358 150d 2A10     		.2byte	0x102a
 7359 150f 1C       		.byte	0x1c
 7360 1510 94       		.byte	0x94
 7361 1511 01       		.byte	0x1
 7362 1512 08       		.byte	0x8
 7363 1513 FF       		.byte	0xff
 7364 1514 1A       		.byte	0x1a
 7365 1515 38       		.byte	0x38
 7366 1516 24       		.byte	0x24
 7367 1517 91       		.byte	0x91
 7368 1518 00       		.sleb128 0
 7369 1519 7A       		.byte	0x7a
 7370 151a 00       		.sleb128 0
 7371 151b 22       		.byte	0x22
 7372 151c 0A       		.byte	0xa
 7373 151d 2910     		.2byte	0x1029
 7374 151f 1C       		.byte	0x1c
 7375 1520 94       		.byte	0x94
 7376 1521 01       		.byte	0x1
 7377 1522 08       		.byte	0x8
 7378 1523 FF       		.byte	0xff
 7379 1524 1A       		.byte	0x1a
 7380 1525 21       		.byte	0x21
 7381 1526 09       		.byte	0x9
 7382 1527 F8       		.byte	0xf8
 7383 1528 24       		.byte	0x24
 7384 1529 09       		.byte	0x9
 7385 152a F8       		.byte	0xf8
 7386 152b 25       		.byte	0x25
 7387 152c 9F       		.byte	0x9f
 7388 152d 140B0000 		.4byte	.LVL96
 7389 1531 160B0000 		.4byte	.LVL97
 7390 1535 0100     		.2byte	0x1
 7391 1537 53       		.byte	0x53
 7392 1538 160B0000 		.4byte	.LVL97
 7393 153c 1E0B0000 		.4byte	.LVL99
 7394 1540 2600     		.2byte	0x26
 7395 1542 91       		.byte	0x91
 7396 1543 00       		.sleb128 0
ARM GAS  C:\Users\info\AppData\Local\Temp\ccHAj6Mv.s 			page 143


 7397 1544 7A       		.byte	0x7a
 7398 1545 00       		.sleb128 0
 7399 1546 22       		.byte	0x22
 7400 1547 0A       		.byte	0xa
 7401 1548 2810     		.2byte	0x1028
 7402 154a 1C       		.byte	0x1c
 7403 154b 94       		.byte	0x94
 7404 154c 01       		.byte	0x1
 7405 154d 08       		.byte	0x8
 7406 154e FF       		.byte	0xff
 7407 154f 1A       		.byte	0x1a
 7408 1550 38       		.byte	0x38
 7409 1551 24       		.byte	0x24
 7410 1552 91       		.byte	0x91
 7411 1553 00       		.sleb128 0
 7412 1554 7A       		.byte	0x7a
 7413 1555 00       		.sleb128 0
 7414 1556 22       		.byte	0x22
 7415 1557 0A       		.byte	0xa
 7416 1558 2710     		.2byte	0x1027
 7417 155a 1C       		.byte	0x1c
 7418 155b 94       		.byte	0x94
 7419 155c 01       		.byte	0x1
 7420 155d 08       		.byte	0x8
 7421 155e FF       		.byte	0xff
 7422 155f 1A       		.byte	0x1a
 7423 1560 21       		.byte	0x21
 7424 1561 09       		.byte	0x9
 7425 1562 F8       		.byte	0xf8
 7426 1563 24       		.byte	0x24
 7427 1564 09       		.byte	0x9
 7428 1565 F8       		.byte	0xf8
 7429 1566 25       		.byte	0x25
 7430 1567 9F       		.byte	0x9f
 7431 1568 1E0B0000 		.4byte	.LVL99
 7432 156c 220B0000 		.4byte	.LVL101
 7433 1570 0100     		.2byte	0x1
 7434 1572 53       		.byte	0x53
 7435 1573 220B0000 		.4byte	.LVL101
 7436 1577 2C0B0000 		.4byte	.LVL103
 7437 157b 2600     		.2byte	0x26
 7438 157d 91       		.byte	0x91
 7439 157e 00       		.sleb128 0
 7440 157f 7A       		.byte	0x7a
 7441 1580 00       		.sleb128 0
 7442 1581 22       		.byte	0x22
 7443 1582 0A       		.byte	0xa
 7444 1583 2810     		.2byte	0x1028
 7445 1585 1C       		.byte	0x1c
 7446 1586 94       		.byte	0x94
 7447 1587 01       		.byte	0x1
 7448 1588 08       		.byte	0x8
 7449 1589 FF       		.byte	0xff
 7450 158a 1A       		.byte	0x1a
 7451 158b 38       		.byte	0x38
 7452 158c 24       		.byte	0x24
 7453 158d 91       		.byte	0x91
ARM GAS  C:\Users\info\AppData\Local\Temp\ccHAj6Mv.s 			page 144


 7454 158e 00       		.sleb128 0
 7455 158f 7A       		.byte	0x7a
 7456 1590 00       		.sleb128 0
 7457 1591 22       		.byte	0x22
 7458 1592 0A       		.byte	0xa
 7459 1593 2710     		.2byte	0x1027
 7460 1595 1C       		.byte	0x1c
 7461 1596 94       		.byte	0x94
 7462 1597 01       		.byte	0x1
 7463 1598 08       		.byte	0x8
 7464 1599 FF       		.byte	0xff
 7465 159a 1A       		.byte	0x1a
 7466 159b 21       		.byte	0x21
 7467 159c 09       		.byte	0x9
 7468 159d F8       		.byte	0xf8
 7469 159e 24       		.byte	0x24
 7470 159f 09       		.byte	0x9
 7471 15a0 F8       		.byte	0xf8
 7472 15a1 25       		.byte	0x25
 7473 15a2 9F       		.byte	0x9f
 7474 15a3 2C0B0000 		.4byte	.LVL103
 7475 15a7 360B0000 		.4byte	.LVL104
 7476 15ab 0100     		.2byte	0x1
 7477 15ad 53       		.byte	0x53
 7478 15ae 360B0000 		.4byte	.LVL104
 7479 15b2 0E0C0000 		.4byte	.LVL130
 7480 15b6 2600     		.2byte	0x26
 7481 15b8 91       		.byte	0x91
 7482 15b9 00       		.sleb128 0
 7483 15ba 7A       		.byte	0x7a
 7484 15bb 00       		.sleb128 0
 7485 15bc 22       		.byte	0x22
 7486 15bd 0A       		.byte	0xa
 7487 15be 2810     		.2byte	0x1028
 7488 15c0 1C       		.byte	0x1c
 7489 15c1 94       		.byte	0x94
 7490 15c2 01       		.byte	0x1
 7491 15c3 08       		.byte	0x8
 7492 15c4 FF       		.byte	0xff
 7493 15c5 1A       		.byte	0x1a
 7494 15c6 38       		.byte	0x38
 7495 15c7 24       		.byte	0x24
 7496 15c8 91       		.byte	0x91
 7497 15c9 00       		.sleb128 0
 7498 15ca 7A       		.byte	0x7a
 7499 15cb 00       		.sleb128 0
 7500 15cc 22       		.byte	0x22
 7501 15cd 0A       		.byte	0xa
 7502 15ce 2710     		.2byte	0x1027
 7503 15d0 1C       		.byte	0x1c
 7504 15d1 94       		.byte	0x94
 7505 15d2 01       		.byte	0x1
 7506 15d3 08       		.byte	0x8
 7507 15d4 FF       		.byte	0xff
 7508 15d5 1A       		.byte	0x1a
 7509 15d6 21       		.byte	0x21
 7510 15d7 09       		.byte	0x9
ARM GAS  C:\Users\info\AppData\Local\Temp\ccHAj6Mv.s 			page 145


 7511 15d8 F8       		.byte	0xf8
 7512 15d9 24       		.byte	0x24
 7513 15da 09       		.byte	0x9
 7514 15db F8       		.byte	0xf8
 7515 15dc 25       		.byte	0x25
 7516 15dd 9F       		.byte	0x9f
 7517 15de 0E0C0000 		.4byte	.LVL130
 7518 15e2 120C0000 		.4byte	.LVL131
 7519 15e6 0100     		.2byte	0x1
 7520 15e8 53       		.byte	0x53
 7521 15e9 120C0000 		.4byte	.LVL131
 7522 15ed 160C0000 		.4byte	.LVL133
 7523 15f1 0100     		.2byte	0x1
 7524 15f3 5B       		.byte	0x5b
 7525 15f4 160C0000 		.4byte	.LVL133
 7526 15f8 190C0000 		.4byte	.LVL134-1
 7527 15fc 0100     		.2byte	0x1
 7528 15fe 53       		.byte	0x53
 7529 15ff 190C0000 		.4byte	.LVL134-1
 7530 1603 360C0000 		.4byte	.LVL136
 7531 1607 2600     		.2byte	0x26
 7532 1609 91       		.byte	0x91
 7533 160a 00       		.sleb128 0
 7534 160b 7A       		.byte	0x7a
 7535 160c 00       		.sleb128 0
 7536 160d 22       		.byte	0x22
 7537 160e 0A       		.byte	0xa
 7538 160f 2810     		.2byte	0x1028
 7539 1611 1C       		.byte	0x1c
 7540 1612 94       		.byte	0x94
 7541 1613 01       		.byte	0x1
 7542 1614 08       		.byte	0x8
 7543 1615 FF       		.byte	0xff
 7544 1616 1A       		.byte	0x1a
 7545 1617 38       		.byte	0x38
 7546 1618 24       		.byte	0x24
 7547 1619 91       		.byte	0x91
 7548 161a 00       		.sleb128 0
 7549 161b 7A       		.byte	0x7a
 7550 161c 00       		.sleb128 0
 7551 161d 22       		.byte	0x22
 7552 161e 0A       		.byte	0xa
 7553 161f 2710     		.2byte	0x1027
 7554 1621 1C       		.byte	0x1c
 7555 1622 94       		.byte	0x94
 7556 1623 01       		.byte	0x1
 7557 1624 08       		.byte	0x8
 7558 1625 FF       		.byte	0xff
 7559 1626 1A       		.byte	0x1a
 7560 1627 21       		.byte	0x21
 7561 1628 09       		.byte	0x9
 7562 1629 F8       		.byte	0xf8
 7563 162a 24       		.byte	0x24
 7564 162b 09       		.byte	0x9
 7565 162c F8       		.byte	0xf8
 7566 162d 25       		.byte	0x25
 7567 162e 9F       		.byte	0x9f
ARM GAS  C:\Users\info\AppData\Local\Temp\ccHAj6Mv.s 			page 146


 7568 162f 360C0000 		.4byte	.LVL136
 7569 1633 380C0000 		.4byte	.LVL137
 7570 1637 2000     		.2byte	0x20
 7571 1639 72       		.byte	0x72
 7572 163a 00       		.sleb128 0
 7573 163b 7A       		.byte	0x7a
 7574 163c 00       		.sleb128 0
 7575 163d 22       		.byte	0x22
 7576 163e 94       		.byte	0x94
 7577 163f 01       		.byte	0x1
 7578 1640 08       		.byte	0x8
 7579 1641 FF       		.byte	0xff
 7580 1642 1A       		.byte	0x1a
 7581 1643 38       		.byte	0x38
 7582 1644 24       		.byte	0x24
 7583 1645 72       		.byte	0x72
 7584 1646 00       		.sleb128 0
 7585 1647 7A       		.byte	0x7a
 7586 1648 00       		.sleb128 0
 7587 1649 22       		.byte	0x22
 7588 164a 23       		.byte	0x23
 7589 164b 01       		.uleb128 0x1
 7590 164c 94       		.byte	0x94
 7591 164d 01       		.byte	0x1
 7592 164e 08       		.byte	0x8
 7593 164f FF       		.byte	0xff
 7594 1650 1A       		.byte	0x1a
 7595 1651 21       		.byte	0x21
 7596 1652 09       		.byte	0x9
 7597 1653 F8       		.byte	0xf8
 7598 1654 24       		.byte	0x24
 7599 1655 09       		.byte	0x9
 7600 1656 F8       		.byte	0xf8
 7601 1657 25       		.byte	0x25
 7602 1658 9F       		.byte	0x9f
 7603 1659 380C0000 		.4byte	.LVL137
 7604 165d 6A0C0000 		.4byte	.LVL140
 7605 1661 2600     		.2byte	0x26
 7606 1663 91       		.byte	0x91
 7607 1664 00       		.sleb128 0
 7608 1665 7A       		.byte	0x7a
 7609 1666 00       		.sleb128 0
 7610 1667 22       		.byte	0x22
 7611 1668 0A       		.byte	0xa
 7612 1669 2810     		.2byte	0x1028
 7613 166b 1C       		.byte	0x1c
 7614 166c 94       		.byte	0x94
 7615 166d 01       		.byte	0x1
 7616 166e 08       		.byte	0x8
 7617 166f FF       		.byte	0xff
 7618 1670 1A       		.byte	0x1a
 7619 1671 38       		.byte	0x38
 7620 1672 24       		.byte	0x24
 7621 1673 91       		.byte	0x91
 7622 1674 00       		.sleb128 0
 7623 1675 7A       		.byte	0x7a
 7624 1676 00       		.sleb128 0
ARM GAS  C:\Users\info\AppData\Local\Temp\ccHAj6Mv.s 			page 147


 7625 1677 22       		.byte	0x22
 7626 1678 0A       		.byte	0xa
 7627 1679 2710     		.2byte	0x1027
 7628 167b 1C       		.byte	0x1c
 7629 167c 94       		.byte	0x94
 7630 167d 01       		.byte	0x1
 7631 167e 08       		.byte	0x8
 7632 167f FF       		.byte	0xff
 7633 1680 1A       		.byte	0x1a
 7634 1681 21       		.byte	0x21
 7635 1682 09       		.byte	0x9
 7636 1683 F8       		.byte	0xf8
 7637 1684 24       		.byte	0x24
 7638 1685 09       		.byte	0x9
 7639 1686 F8       		.byte	0xf8
 7640 1687 25       		.byte	0x25
 7641 1688 9F       		.byte	0x9f
 7642 1689 6A0C0000 		.4byte	.LVL140
 7643 168d 6C0C0000 		.4byte	.LVL141
 7644 1691 2000     		.2byte	0x20
 7645 1693 72       		.byte	0x72
 7646 1694 00       		.sleb128 0
 7647 1695 7A       		.byte	0x7a
 7648 1696 00       		.sleb128 0
 7649 1697 22       		.byte	0x22
 7650 1698 94       		.byte	0x94
 7651 1699 01       		.byte	0x1
 7652 169a 08       		.byte	0x8
 7653 169b FF       		.byte	0xff
 7654 169c 1A       		.byte	0x1a
 7655 169d 38       		.byte	0x38
 7656 169e 24       		.byte	0x24
 7657 169f 72       		.byte	0x72
 7658 16a0 00       		.sleb128 0
 7659 16a1 7A       		.byte	0x7a
 7660 16a2 00       		.sleb128 0
 7661 16a3 22       		.byte	0x22
 7662 16a4 23       		.byte	0x23
 7663 16a5 01       		.uleb128 0x1
 7664 16a6 94       		.byte	0x94
 7665 16a7 01       		.byte	0x1
 7666 16a8 08       		.byte	0x8
 7667 16a9 FF       		.byte	0xff
 7668 16aa 1A       		.byte	0x1a
 7669 16ab 21       		.byte	0x21
 7670 16ac 09       		.byte	0x9
 7671 16ad F8       		.byte	0xf8
 7672 16ae 24       		.byte	0x24
 7673 16af 09       		.byte	0x9
 7674 16b0 F8       		.byte	0xf8
 7675 16b1 25       		.byte	0x25
 7676 16b2 9F       		.byte	0x9f
 7677 16b3 6C0C0000 		.4byte	.LVL141
 7678 16b7 FC0C0000 		.4byte	.LVL146
 7679 16bb 2600     		.2byte	0x26
 7680 16bd 91       		.byte	0x91
 7681 16be 00       		.sleb128 0
ARM GAS  C:\Users\info\AppData\Local\Temp\ccHAj6Mv.s 			page 148


 7682 16bf 7A       		.byte	0x7a
 7683 16c0 00       		.sleb128 0
 7684 16c1 22       		.byte	0x22
 7685 16c2 0A       		.byte	0xa
 7686 16c3 2810     		.2byte	0x1028
 7687 16c5 1C       		.byte	0x1c
 7688 16c6 94       		.byte	0x94
 7689 16c7 01       		.byte	0x1
 7690 16c8 08       		.byte	0x8
 7691 16c9 FF       		.byte	0xff
 7692 16ca 1A       		.byte	0x1a
 7693 16cb 38       		.byte	0x38
 7694 16cc 24       		.byte	0x24
 7695 16cd 91       		.byte	0x91
 7696 16ce 00       		.sleb128 0
 7697 16cf 7A       		.byte	0x7a
 7698 16d0 00       		.sleb128 0
 7699 16d1 22       		.byte	0x22
 7700 16d2 0A       		.byte	0xa
 7701 16d3 2710     		.2byte	0x1027
 7702 16d5 1C       		.byte	0x1c
 7703 16d6 94       		.byte	0x94
 7704 16d7 01       		.byte	0x1
 7705 16d8 08       		.byte	0x8
 7706 16d9 FF       		.byte	0xff
 7707 16da 1A       		.byte	0x1a
 7708 16db 21       		.byte	0x21
 7709 16dc 09       		.byte	0x9
 7710 16dd F8       		.byte	0xf8
 7711 16de 24       		.byte	0x24
 7712 16df 09       		.byte	0x9
 7713 16e0 F8       		.byte	0xf8
 7714 16e1 25       		.byte	0x25
 7715 16e2 9F       		.byte	0x9f
 7716 16e3 FC0C0000 		.4byte	.LVL146
 7717 16e7 020D0000 		.4byte	.LVL149
 7718 16eb 0100     		.2byte	0x1
 7719 16ed 53       		.byte	0x53
 7720 16ee 020D0000 		.4byte	.LVL149
 7721 16f2 300D0000 		.4byte	.LVL152
 7722 16f6 2600     		.2byte	0x26
 7723 16f8 91       		.byte	0x91
 7724 16f9 00       		.sleb128 0
 7725 16fa 7A       		.byte	0x7a
 7726 16fb 00       		.sleb128 0
 7727 16fc 22       		.byte	0x22
 7728 16fd 0A       		.byte	0xa
 7729 16fe 2810     		.2byte	0x1028
 7730 1700 1C       		.byte	0x1c
 7731 1701 94       		.byte	0x94
 7732 1702 01       		.byte	0x1
 7733 1703 08       		.byte	0x8
 7734 1704 FF       		.byte	0xff
 7735 1705 1A       		.byte	0x1a
 7736 1706 38       		.byte	0x38
 7737 1707 24       		.byte	0x24
 7738 1708 91       		.byte	0x91
ARM GAS  C:\Users\info\AppData\Local\Temp\ccHAj6Mv.s 			page 149


 7739 1709 00       		.sleb128 0
 7740 170a 7A       		.byte	0x7a
 7741 170b 00       		.sleb128 0
 7742 170c 22       		.byte	0x22
 7743 170d 0A       		.byte	0xa
 7744 170e 2710     		.2byte	0x1027
 7745 1710 1C       		.byte	0x1c
 7746 1711 94       		.byte	0x94
 7747 1712 01       		.byte	0x1
 7748 1713 08       		.byte	0x8
 7749 1714 FF       		.byte	0xff
 7750 1715 1A       		.byte	0x1a
 7751 1716 21       		.byte	0x21
 7752 1717 09       		.byte	0x9
 7753 1718 F8       		.byte	0xf8
 7754 1719 24       		.byte	0x24
 7755 171a 09       		.byte	0x9
 7756 171b F8       		.byte	0xf8
 7757 171c 25       		.byte	0x25
 7758 171d 9F       		.byte	0x9f
 7759 171e 300D0000 		.4byte	.LVL152
 7760 1722 3C0D0000 		.4byte	.LVL153
 7761 1726 0100     		.2byte	0x1
 7762 1728 53       		.byte	0x53
 7763 1729 3C0D0000 		.4byte	.LVL153
 7764 172d 520D0000 		.4byte	.LVL155
 7765 1731 2600     		.2byte	0x26
 7766 1733 91       		.byte	0x91
 7767 1734 00       		.sleb128 0
 7768 1735 7A       		.byte	0x7a
 7769 1736 00       		.sleb128 0
 7770 1737 22       		.byte	0x22
 7771 1738 0A       		.byte	0xa
 7772 1739 2810     		.2byte	0x1028
 7773 173b 1C       		.byte	0x1c
 7774 173c 94       		.byte	0x94
 7775 173d 01       		.byte	0x1
 7776 173e 08       		.byte	0x8
 7777 173f FF       		.byte	0xff
 7778 1740 1A       		.byte	0x1a
 7779 1741 38       		.byte	0x38
 7780 1742 24       		.byte	0x24
 7781 1743 91       		.byte	0x91
 7782 1744 00       		.sleb128 0
 7783 1745 7A       		.byte	0x7a
 7784 1746 00       		.sleb128 0
 7785 1747 22       		.byte	0x22
 7786 1748 0A       		.byte	0xa
 7787 1749 2710     		.2byte	0x1027
 7788 174b 1C       		.byte	0x1c
 7789 174c 94       		.byte	0x94
 7790 174d 01       		.byte	0x1
 7791 174e 08       		.byte	0x8
 7792 174f FF       		.byte	0xff
 7793 1750 1A       		.byte	0x1a
 7794 1751 21       		.byte	0x21
 7795 1752 09       		.byte	0x9
ARM GAS  C:\Users\info\AppData\Local\Temp\ccHAj6Mv.s 			page 150


 7796 1753 F8       		.byte	0xf8
 7797 1754 24       		.byte	0x24
 7798 1755 09       		.byte	0x9
 7799 1756 F8       		.byte	0xf8
 7800 1757 25       		.byte	0x25
 7801 1758 9F       		.byte	0x9f
 7802 1759 520D0000 		.4byte	.LVL155
 7803 175d 560D0000 		.4byte	.LVL156
 7804 1761 2600     		.2byte	0x26
 7805 1763 91       		.byte	0x91
 7806 1764 00       		.sleb128 0
 7807 1765 7A       		.byte	0x7a
 7808 1766 00       		.sleb128 0
 7809 1767 22       		.byte	0x22
 7810 1768 0A       		.byte	0xa
 7811 1769 2A10     		.2byte	0x102a
 7812 176b 1C       		.byte	0x1c
 7813 176c 94       		.byte	0x94
 7814 176d 01       		.byte	0x1
 7815 176e 08       		.byte	0x8
 7816 176f FF       		.byte	0xff
 7817 1770 1A       		.byte	0x1a
 7818 1771 38       		.byte	0x38
 7819 1772 24       		.byte	0x24
 7820 1773 91       		.byte	0x91
 7821 1774 00       		.sleb128 0
 7822 1775 7A       		.byte	0x7a
 7823 1776 00       		.sleb128 0
 7824 1777 22       		.byte	0x22
 7825 1778 0A       		.byte	0xa
 7826 1779 2910     		.2byte	0x1029
 7827 177b 1C       		.byte	0x1c
 7828 177c 94       		.byte	0x94
 7829 177d 01       		.byte	0x1
 7830 177e 08       		.byte	0x8
 7831 177f FF       		.byte	0xff
 7832 1780 1A       		.byte	0x1a
 7833 1781 21       		.byte	0x21
 7834 1782 09       		.byte	0x9
 7835 1783 F8       		.byte	0xf8
 7836 1784 24       		.byte	0x24
 7837 1785 09       		.byte	0x9
 7838 1786 F8       		.byte	0xf8
 7839 1787 25       		.byte	0x25
 7840 1788 9F       		.byte	0x9f
 7841 1789 5C0D0000 		.4byte	.LVL157
 7842 178d 5E0D0000 		.4byte	.LVL158
 7843 1791 0100     		.2byte	0x1
 7844 1793 53       		.byte	0x53
 7845 1794 5E0D0000 		.4byte	.LVL158
 7846 1798 740D0000 		.4byte	.LVL160
 7847 179c 2600     		.2byte	0x26
 7848 179e 91       		.byte	0x91
 7849 179f 00       		.sleb128 0
 7850 17a0 7A       		.byte	0x7a
 7851 17a1 00       		.sleb128 0
 7852 17a2 22       		.byte	0x22
ARM GAS  C:\Users\info\AppData\Local\Temp\ccHAj6Mv.s 			page 151


 7853 17a3 0A       		.byte	0xa
 7854 17a4 2810     		.2byte	0x1028
 7855 17a6 1C       		.byte	0x1c
 7856 17a7 94       		.byte	0x94
 7857 17a8 01       		.byte	0x1
 7858 17a9 08       		.byte	0x8
 7859 17aa FF       		.byte	0xff
 7860 17ab 1A       		.byte	0x1a
 7861 17ac 38       		.byte	0x38
 7862 17ad 24       		.byte	0x24
 7863 17ae 91       		.byte	0x91
 7864 17af 00       		.sleb128 0
 7865 17b0 7A       		.byte	0x7a
 7866 17b1 00       		.sleb128 0
 7867 17b2 22       		.byte	0x22
 7868 17b3 0A       		.byte	0xa
 7869 17b4 2710     		.2byte	0x1027
 7870 17b6 1C       		.byte	0x1c
 7871 17b7 94       		.byte	0x94
 7872 17b8 01       		.byte	0x1
 7873 17b9 08       		.byte	0x8
 7874 17ba FF       		.byte	0xff
 7875 17bb 1A       		.byte	0x1a
 7876 17bc 21       		.byte	0x21
 7877 17bd 09       		.byte	0x9
 7878 17be F8       		.byte	0xf8
 7879 17bf 24       		.byte	0x24
 7880 17c0 09       		.byte	0x9
 7881 17c1 F8       		.byte	0xf8
 7882 17c2 25       		.byte	0x25
 7883 17c3 9F       		.byte	0x9f
 7884 17c4 740D0000 		.4byte	.LVL160
 7885 17c8 780D0000 		.4byte	.LVL161
 7886 17cc 2600     		.2byte	0x26
 7887 17ce 91       		.byte	0x91
 7888 17cf 00       		.sleb128 0
 7889 17d0 7A       		.byte	0x7a
 7890 17d1 00       		.sleb128 0
 7891 17d2 22       		.byte	0x22
 7892 17d3 0A       		.byte	0xa
 7893 17d4 2A10     		.2byte	0x102a
 7894 17d6 1C       		.byte	0x1c
 7895 17d7 94       		.byte	0x94
 7896 17d8 01       		.byte	0x1
 7897 17d9 08       		.byte	0x8
 7898 17da FF       		.byte	0xff
 7899 17db 1A       		.byte	0x1a
 7900 17dc 38       		.byte	0x38
 7901 17dd 24       		.byte	0x24
 7902 17de 91       		.byte	0x91
 7903 17df 00       		.sleb128 0
 7904 17e0 7A       		.byte	0x7a
 7905 17e1 00       		.sleb128 0
 7906 17e2 22       		.byte	0x22
 7907 17e3 0A       		.byte	0xa
 7908 17e4 2910     		.2byte	0x1029
 7909 17e6 1C       		.byte	0x1c
ARM GAS  C:\Users\info\AppData\Local\Temp\ccHAj6Mv.s 			page 152


 7910 17e7 94       		.byte	0x94
 7911 17e8 01       		.byte	0x1
 7912 17e9 08       		.byte	0x8
 7913 17ea FF       		.byte	0xff
 7914 17eb 1A       		.byte	0x1a
 7915 17ec 21       		.byte	0x21
 7916 17ed 09       		.byte	0x9
 7917 17ee F8       		.byte	0xf8
 7918 17ef 24       		.byte	0x24
 7919 17f0 09       		.byte	0x9
 7920 17f1 F8       		.byte	0xf8
 7921 17f2 25       		.byte	0x25
 7922 17f3 9F       		.byte	0x9f
 7923 17f4 7C0D0000 		.4byte	.LVL162
 7924 17f8 B00D0000 		.4byte	.LVL163
 7925 17fc 0100     		.2byte	0x1
 7926 17fe 53       		.byte	0x53
 7927 17ff B00D0000 		.4byte	.LVL163
 7928 1803 D40D0000 		.4byte	.LVL167
 7929 1807 2600     		.2byte	0x26
 7930 1809 91       		.byte	0x91
 7931 180a 00       		.sleb128 0
 7932 180b 7A       		.byte	0x7a
 7933 180c 00       		.sleb128 0
 7934 180d 22       		.byte	0x22
 7935 180e 0A       		.byte	0xa
 7936 180f 2810     		.2byte	0x1028
 7937 1811 1C       		.byte	0x1c
 7938 1812 94       		.byte	0x94
 7939 1813 01       		.byte	0x1
 7940 1814 08       		.byte	0x8
 7941 1815 FF       		.byte	0xff
 7942 1816 1A       		.byte	0x1a
 7943 1817 38       		.byte	0x38
 7944 1818 24       		.byte	0x24
 7945 1819 91       		.byte	0x91
 7946 181a 00       		.sleb128 0
 7947 181b 7A       		.byte	0x7a
 7948 181c 00       		.sleb128 0
 7949 181d 22       		.byte	0x22
 7950 181e 0A       		.byte	0xa
 7951 181f 2710     		.2byte	0x1027
 7952 1821 1C       		.byte	0x1c
 7953 1822 94       		.byte	0x94
 7954 1823 01       		.byte	0x1
 7955 1824 08       		.byte	0x8
 7956 1825 FF       		.byte	0xff
 7957 1826 1A       		.byte	0x1a
 7958 1827 21       		.byte	0x21
 7959 1828 09       		.byte	0x9
 7960 1829 F8       		.byte	0xf8
 7961 182a 24       		.byte	0x24
 7962 182b 09       		.byte	0x9
 7963 182c F8       		.byte	0xf8
 7964 182d 25       		.byte	0x25
 7965 182e 9F       		.byte	0x9f
 7966 182f D40D0000 		.4byte	.LVL167
ARM GAS  C:\Users\info\AppData\Local\Temp\ccHAj6Mv.s 			page 153


 7967 1833 D60D0000 		.4byte	.LVL168
 7968 1837 0100     		.2byte	0x1
 7969 1839 53       		.byte	0x53
 7970 183a D60D0000 		.4byte	.LVL168
 7971 183e E20D0000 		.4byte	.LVL170
 7972 1842 2600     		.2byte	0x26
 7973 1844 91       		.byte	0x91
 7974 1845 00       		.sleb128 0
 7975 1846 7A       		.byte	0x7a
 7976 1847 00       		.sleb128 0
 7977 1848 22       		.byte	0x22
 7978 1849 0A       		.byte	0xa
 7979 184a 2810     		.2byte	0x1028
 7980 184c 1C       		.byte	0x1c
 7981 184d 94       		.byte	0x94
 7982 184e 01       		.byte	0x1
 7983 184f 08       		.byte	0x8
 7984 1850 FF       		.byte	0xff
 7985 1851 1A       		.byte	0x1a
 7986 1852 38       		.byte	0x38
 7987 1853 24       		.byte	0x24
 7988 1854 91       		.byte	0x91
 7989 1855 00       		.sleb128 0
 7990 1856 7A       		.byte	0x7a
 7991 1857 00       		.sleb128 0
 7992 1858 22       		.byte	0x22
 7993 1859 0A       		.byte	0xa
 7994 185a 2710     		.2byte	0x1027
 7995 185c 1C       		.byte	0x1c
 7996 185d 94       		.byte	0x94
 7997 185e 01       		.byte	0x1
 7998 185f 08       		.byte	0x8
 7999 1860 FF       		.byte	0xff
 8000 1861 1A       		.byte	0x1a
 8001 1862 21       		.byte	0x21
 8002 1863 09       		.byte	0x9
 8003 1864 F8       		.byte	0xf8
 8004 1865 24       		.byte	0x24
 8005 1866 09       		.byte	0x9
 8006 1867 F8       		.byte	0xf8
 8007 1868 25       		.byte	0x25
 8008 1869 9F       		.byte	0x9f
 8009 186a E20D0000 		.4byte	.LVL170
 8010 186e E40D0000 		.4byte	.LVL171
 8011 1872 0100     		.2byte	0x1
 8012 1874 53       		.byte	0x53
 8013 1875 E40D0000 		.4byte	.LVL171
 8014 1879 F00D0000 		.4byte	.LVL173
 8015 187d 2600     		.2byte	0x26
 8016 187f 91       		.byte	0x91
 8017 1880 00       		.sleb128 0
 8018 1881 7A       		.byte	0x7a
 8019 1882 00       		.sleb128 0
 8020 1883 22       		.byte	0x22
 8021 1884 0A       		.byte	0xa
 8022 1885 2810     		.2byte	0x1028
 8023 1887 1C       		.byte	0x1c
ARM GAS  C:\Users\info\AppData\Local\Temp\ccHAj6Mv.s 			page 154


 8024 1888 94       		.byte	0x94
 8025 1889 01       		.byte	0x1
 8026 188a 08       		.byte	0x8
 8027 188b FF       		.byte	0xff
 8028 188c 1A       		.byte	0x1a
 8029 188d 38       		.byte	0x38
 8030 188e 24       		.byte	0x24
 8031 188f 91       		.byte	0x91
 8032 1890 00       		.sleb128 0
 8033 1891 7A       		.byte	0x7a
 8034 1892 00       		.sleb128 0
 8035 1893 22       		.byte	0x22
 8036 1894 0A       		.byte	0xa
 8037 1895 2710     		.2byte	0x1027
 8038 1897 1C       		.byte	0x1c
 8039 1898 94       		.byte	0x94
 8040 1899 01       		.byte	0x1
 8041 189a 08       		.byte	0x8
 8042 189b FF       		.byte	0xff
 8043 189c 1A       		.byte	0x1a
 8044 189d 21       		.byte	0x21
 8045 189e 09       		.byte	0x9
 8046 189f F8       		.byte	0xf8
 8047 18a0 24       		.byte	0x24
 8048 18a1 09       		.byte	0x9
 8049 18a2 F8       		.byte	0xf8
 8050 18a3 25       		.byte	0x25
 8051 18a4 9F       		.byte	0x9f
 8052 18a5 F00D0000 		.4byte	.LVL173
 8053 18a9 F20D0000 		.4byte	.LVL174
 8054 18ad 0100     		.2byte	0x1
 8055 18af 53       		.byte	0x53
 8056 18b0 F20D0000 		.4byte	.LVL174
 8057 18b4 000E0000 		.4byte	.LVL178
 8058 18b8 2600     		.2byte	0x26
 8059 18ba 91       		.byte	0x91
 8060 18bb 00       		.sleb128 0
 8061 18bc 7A       		.byte	0x7a
 8062 18bd 00       		.sleb128 0
 8063 18be 22       		.byte	0x22
 8064 18bf 0A       		.byte	0xa
 8065 18c0 2810     		.2byte	0x1028
 8066 18c2 1C       		.byte	0x1c
 8067 18c3 94       		.byte	0x94
 8068 18c4 01       		.byte	0x1
 8069 18c5 08       		.byte	0x8
 8070 18c6 FF       		.byte	0xff
 8071 18c7 1A       		.byte	0x1a
 8072 18c8 38       		.byte	0x38
 8073 18c9 24       		.byte	0x24
 8074 18ca 91       		.byte	0x91
 8075 18cb 00       		.sleb128 0
 8076 18cc 7A       		.byte	0x7a
 8077 18cd 00       		.sleb128 0
 8078 18ce 22       		.byte	0x22
 8079 18cf 0A       		.byte	0xa
 8080 18d0 2710     		.2byte	0x1027
ARM GAS  C:\Users\info\AppData\Local\Temp\ccHAj6Mv.s 			page 155


 8081 18d2 1C       		.byte	0x1c
 8082 18d3 94       		.byte	0x94
 8083 18d4 01       		.byte	0x1
 8084 18d5 08       		.byte	0x8
 8085 18d6 FF       		.byte	0xff
 8086 18d7 1A       		.byte	0x1a
 8087 18d8 21       		.byte	0x21
 8088 18d9 09       		.byte	0x9
 8089 18da F8       		.byte	0xf8
 8090 18db 24       		.byte	0x24
 8091 18dc 09       		.byte	0x9
 8092 18dd F8       		.byte	0xf8
 8093 18de 25       		.byte	0x25
 8094 18df 9F       		.byte	0x9f
 8095 18e0 000E0000 		.4byte	.LVL178
 8096 18e4 020E0000 		.4byte	.LVL179
 8097 18e8 0100     		.2byte	0x1
 8098 18ea 53       		.byte	0x53
 8099 18eb 020E0000 		.4byte	.LVL179
 8100 18ef 140E0000 		.4byte	.LVL183
 8101 18f3 2600     		.2byte	0x26
 8102 18f5 91       		.byte	0x91
 8103 18f6 00       		.sleb128 0
 8104 18f7 7A       		.byte	0x7a
 8105 18f8 00       		.sleb128 0
 8106 18f9 22       		.byte	0x22
 8107 18fa 0A       		.byte	0xa
 8108 18fb 2810     		.2byte	0x1028
 8109 18fd 1C       		.byte	0x1c
 8110 18fe 94       		.byte	0x94
 8111 18ff 01       		.byte	0x1
 8112 1900 08       		.byte	0x8
 8113 1901 FF       		.byte	0xff
 8114 1902 1A       		.byte	0x1a
 8115 1903 38       		.byte	0x38
 8116 1904 24       		.byte	0x24
 8117 1905 91       		.byte	0x91
 8118 1906 00       		.sleb128 0
 8119 1907 7A       		.byte	0x7a
 8120 1908 00       		.sleb128 0
 8121 1909 22       		.byte	0x22
 8122 190a 0A       		.byte	0xa
 8123 190b 2710     		.2byte	0x1027
 8124 190d 1C       		.byte	0x1c
 8125 190e 94       		.byte	0x94
 8126 190f 01       		.byte	0x1
 8127 1910 08       		.byte	0x8
 8128 1911 FF       		.byte	0xff
 8129 1912 1A       		.byte	0x1a
 8130 1913 21       		.byte	0x21
 8131 1914 09       		.byte	0x9
 8132 1915 F8       		.byte	0xf8
 8133 1916 24       		.byte	0x24
 8134 1917 09       		.byte	0x9
 8135 1918 F8       		.byte	0xf8
 8136 1919 25       		.byte	0x25
 8137 191a 9F       		.byte	0x9f
ARM GAS  C:\Users\info\AppData\Local\Temp\ccHAj6Mv.s 			page 156


 8138 191b 140E0000 		.4byte	.LVL183
 8139 191f 180E0000 		.4byte	.LVL185
 8140 1923 0100     		.2byte	0x1
 8141 1925 53       		.byte	0x53
 8142 1926 180E0000 		.4byte	.LVL185
 8143 192a 280E0000 		.4byte	.LVL187
 8144 192e 2000     		.2byte	0x20
 8145 1930 70       		.byte	0x70
 8146 1931 00       		.sleb128 0
 8147 1932 7A       		.byte	0x7a
 8148 1933 00       		.sleb128 0
 8149 1934 22       		.byte	0x22
 8150 1935 94       		.byte	0x94
 8151 1936 01       		.byte	0x1
 8152 1937 08       		.byte	0x8
 8153 1938 FF       		.byte	0xff
 8154 1939 1A       		.byte	0x1a
 8155 193a 38       		.byte	0x38
 8156 193b 24       		.byte	0x24
 8157 193c 70       		.byte	0x70
 8158 193d 00       		.sleb128 0
 8159 193e 7A       		.byte	0x7a
 8160 193f 00       		.sleb128 0
 8161 1940 22       		.byte	0x22
 8162 1941 23       		.byte	0x23
 8163 1942 01       		.uleb128 0x1
 8164 1943 94       		.byte	0x94
 8165 1944 01       		.byte	0x1
 8166 1945 08       		.byte	0x8
 8167 1946 FF       		.byte	0xff
 8168 1947 1A       		.byte	0x1a
 8169 1948 21       		.byte	0x21
 8170 1949 09       		.byte	0x9
 8171 194a F8       		.byte	0xf8
 8172 194b 24       		.byte	0x24
 8173 194c 09       		.byte	0x9
 8174 194d F8       		.byte	0xf8
 8175 194e 25       		.byte	0x25
 8176 194f 9F       		.byte	0x9f
 8177 1950 6A0E0000 		.4byte	.LVL194
 8178 1954 6C0E0000 		.4byte	.LVL195
 8179 1958 0100     		.2byte	0x1
 8180 195a 53       		.byte	0x53
 8181 195b 760E0000 		.4byte	.LVL197
 8182 195f 7C0E0000 		.4byte	.LVL198
 8183 1963 2600     		.2byte	0x26
 8184 1965 91       		.byte	0x91
 8185 1966 00       		.sleb128 0
 8186 1967 7A       		.byte	0x7a
 8187 1968 00       		.sleb128 0
 8188 1969 22       		.byte	0x22
 8189 196a 0A       		.byte	0xa
 8190 196b 2810     		.2byte	0x1028
 8191 196d 1C       		.byte	0x1c
 8192 196e 94       		.byte	0x94
 8193 196f 01       		.byte	0x1
 8194 1970 08       		.byte	0x8
ARM GAS  C:\Users\info\AppData\Local\Temp\ccHAj6Mv.s 			page 157


 8195 1971 FF       		.byte	0xff
 8196 1972 1A       		.byte	0x1a
 8197 1973 38       		.byte	0x38
 8198 1974 24       		.byte	0x24
 8199 1975 91       		.byte	0x91
 8200 1976 00       		.sleb128 0
 8201 1977 7A       		.byte	0x7a
 8202 1978 00       		.sleb128 0
 8203 1979 22       		.byte	0x22
 8204 197a 0A       		.byte	0xa
 8205 197b 2710     		.2byte	0x1027
 8206 197d 1C       		.byte	0x1c
 8207 197e 94       		.byte	0x94
 8208 197f 01       		.byte	0x1
 8209 1980 08       		.byte	0x8
 8210 1981 FF       		.byte	0xff
 8211 1982 1A       		.byte	0x1a
 8212 1983 21       		.byte	0x21
 8213 1984 09       		.byte	0x9
 8214 1985 F8       		.byte	0xf8
 8215 1986 24       		.byte	0x24
 8216 1987 09       		.byte	0x9
 8217 1988 F8       		.byte	0xf8
 8218 1989 25       		.byte	0x25
 8219 198a 9F       		.byte	0x9f
 8220 198b 7C0E0000 		.4byte	.LVL198
 8221 198f 800E0000 		.4byte	.LVL199
 8222 1993 2000     		.2byte	0x20
 8223 1995 72       		.byte	0x72
 8224 1996 00       		.sleb128 0
 8225 1997 7A       		.byte	0x7a
 8226 1998 00       		.sleb128 0
 8227 1999 22       		.byte	0x22
 8228 199a 94       		.byte	0x94
 8229 199b 01       		.byte	0x1
 8230 199c 08       		.byte	0x8
 8231 199d FF       		.byte	0xff
 8232 199e 1A       		.byte	0x1a
 8233 199f 38       		.byte	0x38
 8234 19a0 24       		.byte	0x24
 8235 19a1 72       		.byte	0x72
 8236 19a2 00       		.sleb128 0
 8237 19a3 7A       		.byte	0x7a
 8238 19a4 00       		.sleb128 0
 8239 19a5 22       		.byte	0x22
 8240 19a6 23       		.byte	0x23
 8241 19a7 01       		.uleb128 0x1
 8242 19a8 94       		.byte	0x94
 8243 19a9 01       		.byte	0x1
 8244 19aa 08       		.byte	0x8
 8245 19ab FF       		.byte	0xff
 8246 19ac 1A       		.byte	0x1a
 8247 19ad 21       		.byte	0x21
 8248 19ae 09       		.byte	0x9
 8249 19af F8       		.byte	0xf8
 8250 19b0 24       		.byte	0x24
 8251 19b1 09       		.byte	0x9
ARM GAS  C:\Users\info\AppData\Local\Temp\ccHAj6Mv.s 			page 158


 8252 19b2 F8       		.byte	0xf8
 8253 19b3 25       		.byte	0x25
 8254 19b4 9F       		.byte	0x9f
 8255 19b5 800E0000 		.4byte	.LVL199
 8256 19b9 880E0000 		.4byte	.LVL202
 8257 19bd 2600     		.2byte	0x26
 8258 19bf 91       		.byte	0x91
 8259 19c0 00       		.sleb128 0
 8260 19c1 7A       		.byte	0x7a
 8261 19c2 00       		.sleb128 0
 8262 19c3 22       		.byte	0x22
 8263 19c4 0A       		.byte	0xa
 8264 19c5 2810     		.2byte	0x1028
 8265 19c7 1C       		.byte	0x1c
 8266 19c8 94       		.byte	0x94
 8267 19c9 01       		.byte	0x1
 8268 19ca 08       		.byte	0x8
 8269 19cb FF       		.byte	0xff
 8270 19cc 1A       		.byte	0x1a
 8271 19cd 38       		.byte	0x38
 8272 19ce 24       		.byte	0x24
 8273 19cf 91       		.byte	0x91
 8274 19d0 00       		.sleb128 0
 8275 19d1 7A       		.byte	0x7a
 8276 19d2 00       		.sleb128 0
 8277 19d3 22       		.byte	0x22
 8278 19d4 0A       		.byte	0xa
 8279 19d5 2710     		.2byte	0x1027
 8280 19d7 1C       		.byte	0x1c
 8281 19d8 94       		.byte	0x94
 8282 19d9 01       		.byte	0x1
 8283 19da 08       		.byte	0x8
 8284 19db FF       		.byte	0xff
 8285 19dc 1A       		.byte	0x1a
 8286 19dd 21       		.byte	0x21
 8287 19de 09       		.byte	0x9
 8288 19df F8       		.byte	0xf8
 8289 19e0 24       		.byte	0x24
 8290 19e1 09       		.byte	0x9
 8291 19e2 F8       		.byte	0xf8
 8292 19e3 25       		.byte	0x25
 8293 19e4 9F       		.byte	0x9f
 8294 19e5 880E0000 		.4byte	.LVL202
 8295 19e9 8A0E0000 		.4byte	.LVL203
 8296 19ed 0100     		.2byte	0x1
 8297 19ef 53       		.byte	0x53
 8298 19f0 8A0E0000 		.4byte	.LVL203
 8299 19f4 940E0000 		.4byte	.LVL205
 8300 19f8 2600     		.2byte	0x26
 8301 19fa 91       		.byte	0x91
 8302 19fb 00       		.sleb128 0
 8303 19fc 7A       		.byte	0x7a
 8304 19fd 00       		.sleb128 0
 8305 19fe 22       		.byte	0x22
 8306 19ff 0A       		.byte	0xa
 8307 1a00 2810     		.2byte	0x1028
 8308 1a02 1C       		.byte	0x1c
ARM GAS  C:\Users\info\AppData\Local\Temp\ccHAj6Mv.s 			page 159


 8309 1a03 94       		.byte	0x94
 8310 1a04 01       		.byte	0x1
 8311 1a05 08       		.byte	0x8
 8312 1a06 FF       		.byte	0xff
 8313 1a07 1A       		.byte	0x1a
 8314 1a08 38       		.byte	0x38
 8315 1a09 24       		.byte	0x24
 8316 1a0a 91       		.byte	0x91
 8317 1a0b 00       		.sleb128 0
 8318 1a0c 7A       		.byte	0x7a
 8319 1a0d 00       		.sleb128 0
 8320 1a0e 22       		.byte	0x22
 8321 1a0f 0A       		.byte	0xa
 8322 1a10 2710     		.2byte	0x1027
 8323 1a12 1C       		.byte	0x1c
 8324 1a13 94       		.byte	0x94
 8325 1a14 01       		.byte	0x1
 8326 1a15 08       		.byte	0x8
 8327 1a16 FF       		.byte	0xff
 8328 1a17 1A       		.byte	0x1a
 8329 1a18 21       		.byte	0x21
 8330 1a19 09       		.byte	0x9
 8331 1a1a F8       		.byte	0xf8
 8332 1a1b 24       		.byte	0x24
 8333 1a1c 09       		.byte	0x9
 8334 1a1d F8       		.byte	0xf8
 8335 1a1e 25       		.byte	0x25
 8336 1a1f 9F       		.byte	0x9f
 8337 1a20 940E0000 		.4byte	.LVL205
 8338 1a24 980E0000 		.4byte	.LVL207
 8339 1a28 0100     		.2byte	0x1
 8340 1a2a 53       		.byte	0x53
 8341 1a2b 980E0000 		.4byte	.LVL207
 8342 1a2f 9C0E0000 		.4byte	.LVL209
 8343 1a33 0100     		.2byte	0x1
 8344 1a35 5A       		.byte	0x5a
 8345 1a36 9C0E0000 		.4byte	.LVL209
 8346 1a3a 9E0E0000 		.4byte	.LVL210
 8347 1a3e 0100     		.2byte	0x1
 8348 1a40 53       		.byte	0x53
 8349 1a41 9E0E0000 		.4byte	.LVL210
 8350 1a45 A20E0000 		.4byte	.LVL212
 8351 1a49 2600     		.2byte	0x26
 8352 1a4b 91       		.byte	0x91
 8353 1a4c 00       		.sleb128 0
 8354 1a4d 7A       		.byte	0x7a
 8355 1a4e 00       		.sleb128 0
 8356 1a4f 22       		.byte	0x22
 8357 1a50 0A       		.byte	0xa
 8358 1a51 2810     		.2byte	0x1028
 8359 1a53 1C       		.byte	0x1c
 8360 1a54 94       		.byte	0x94
 8361 1a55 01       		.byte	0x1
 8362 1a56 08       		.byte	0x8
 8363 1a57 FF       		.byte	0xff
 8364 1a58 1A       		.byte	0x1a
 8365 1a59 38       		.byte	0x38
ARM GAS  C:\Users\info\AppData\Local\Temp\ccHAj6Mv.s 			page 160


 8366 1a5a 24       		.byte	0x24
 8367 1a5b 91       		.byte	0x91
 8368 1a5c 00       		.sleb128 0
 8369 1a5d 7A       		.byte	0x7a
 8370 1a5e 00       		.sleb128 0
 8371 1a5f 22       		.byte	0x22
 8372 1a60 0A       		.byte	0xa
 8373 1a61 2710     		.2byte	0x1027
 8374 1a63 1C       		.byte	0x1c
 8375 1a64 94       		.byte	0x94
 8376 1a65 01       		.byte	0x1
 8377 1a66 08       		.byte	0x8
 8378 1a67 FF       		.byte	0xff
 8379 1a68 1A       		.byte	0x1a
 8380 1a69 21       		.byte	0x21
 8381 1a6a 09       		.byte	0x9
 8382 1a6b F8       		.byte	0xf8
 8383 1a6c 24       		.byte	0x24
 8384 1a6d 09       		.byte	0x9
 8385 1a6e F8       		.byte	0xf8
 8386 1a6f 25       		.byte	0x25
 8387 1a70 9F       		.byte	0x9f
 8388 1a71 A20E0000 		.4byte	.LVL212
 8389 1a75 A40E0000 		.4byte	.LVL213
 8390 1a79 0100     		.2byte	0x1
 8391 1a7b 53       		.byte	0x53
 8392 1a7c A40E0000 		.4byte	.LVL213
 8393 1a80 A80E0000 		.4byte	.LVL215
 8394 1a84 2600     		.2byte	0x26
 8395 1a86 91       		.byte	0x91
 8396 1a87 00       		.sleb128 0
 8397 1a88 7A       		.byte	0x7a
 8398 1a89 00       		.sleb128 0
 8399 1a8a 22       		.byte	0x22
 8400 1a8b 0A       		.byte	0xa
 8401 1a8c 2810     		.2byte	0x1028
 8402 1a8e 1C       		.byte	0x1c
 8403 1a8f 94       		.byte	0x94
 8404 1a90 01       		.byte	0x1
 8405 1a91 08       		.byte	0x8
 8406 1a92 FF       		.byte	0xff
 8407 1a93 1A       		.byte	0x1a
 8408 1a94 38       		.byte	0x38
 8409 1a95 24       		.byte	0x24
 8410 1a96 91       		.byte	0x91
 8411 1a97 00       		.sleb128 0
 8412 1a98 7A       		.byte	0x7a
 8413 1a99 00       		.sleb128 0
 8414 1a9a 22       		.byte	0x22
 8415 1a9b 0A       		.byte	0xa
 8416 1a9c 2710     		.2byte	0x1027
 8417 1a9e 1C       		.byte	0x1c
 8418 1a9f 94       		.byte	0x94
 8419 1aa0 01       		.byte	0x1
 8420 1aa1 08       		.byte	0x8
 8421 1aa2 FF       		.byte	0xff
 8422 1aa3 1A       		.byte	0x1a
ARM GAS  C:\Users\info\AppData\Local\Temp\ccHAj6Mv.s 			page 161


 8423 1aa4 21       		.byte	0x21
 8424 1aa5 09       		.byte	0x9
 8425 1aa6 F8       		.byte	0xf8
 8426 1aa7 24       		.byte	0x24
 8427 1aa8 09       		.byte	0x9
 8428 1aa9 F8       		.byte	0xf8
 8429 1aaa 25       		.byte	0x25
 8430 1aab 9F       		.byte	0x9f
 8431 1aac A80E0000 		.4byte	.LVL215
 8432 1ab0 AC0E0000 		.4byte	.LVL217
 8433 1ab4 0100     		.2byte	0x1
 8434 1ab6 53       		.byte	0x53
 8435 1ab7 AC0E0000 		.4byte	.LVL217
 8436 1abb B00E0000 		.4byte	.LVL219
 8437 1abf 0100     		.2byte	0x1
 8438 1ac1 5A       		.byte	0x5a
 8439 1ac2 B00E0000 		.4byte	.LVL219
 8440 1ac6 BC0E0000 		.4byte	.LVL223
 8441 1aca 2600     		.2byte	0x26
 8442 1acc 91       		.byte	0x91
 8443 1acd 00       		.sleb128 0
 8444 1ace 7A       		.byte	0x7a
 8445 1acf 00       		.sleb128 0
 8446 1ad0 22       		.byte	0x22
 8447 1ad1 0A       		.byte	0xa
 8448 1ad2 2810     		.2byte	0x1028
 8449 1ad4 1C       		.byte	0x1c
 8450 1ad5 94       		.byte	0x94
 8451 1ad6 01       		.byte	0x1
 8452 1ad7 08       		.byte	0x8
 8453 1ad8 FF       		.byte	0xff
 8454 1ad9 1A       		.byte	0x1a
 8455 1ada 38       		.byte	0x38
 8456 1adb 24       		.byte	0x24
 8457 1adc 91       		.byte	0x91
 8458 1add 00       		.sleb128 0
 8459 1ade 7A       		.byte	0x7a
 8460 1adf 00       		.sleb128 0
 8461 1ae0 22       		.byte	0x22
 8462 1ae1 0A       		.byte	0xa
 8463 1ae2 2710     		.2byte	0x1027
 8464 1ae4 1C       		.byte	0x1c
 8465 1ae5 94       		.byte	0x94
 8466 1ae6 01       		.byte	0x1
 8467 1ae7 08       		.byte	0x8
 8468 1ae8 FF       		.byte	0xff
 8469 1ae9 1A       		.byte	0x1a
 8470 1aea 21       		.byte	0x21
 8471 1aeb 09       		.byte	0x9
 8472 1aec F8       		.byte	0xf8
 8473 1aed 24       		.byte	0x24
 8474 1aee 09       		.byte	0x9
 8475 1aef F8       		.byte	0xf8
 8476 1af0 25       		.byte	0x25
 8477 1af1 9F       		.byte	0x9f
 8478 1af2 BC0E0000 		.4byte	.LVL223
 8479 1af6 BE0E0000 		.4byte	.LVL224
ARM GAS  C:\Users\info\AppData\Local\Temp\ccHAj6Mv.s 			page 162


 8480 1afa 0100     		.2byte	0x1
 8481 1afc 53       		.byte	0x53
 8482 1afd BE0E0000 		.4byte	.LVL224
 8483 1b01 C80E0000 		.4byte	.LVL226
 8484 1b05 2600     		.2byte	0x26
 8485 1b07 91       		.byte	0x91
 8486 1b08 00       		.sleb128 0
 8487 1b09 7A       		.byte	0x7a
 8488 1b0a 00       		.sleb128 0
 8489 1b0b 22       		.byte	0x22
 8490 1b0c 0A       		.byte	0xa
 8491 1b0d 2810     		.2byte	0x1028
 8492 1b0f 1C       		.byte	0x1c
 8493 1b10 94       		.byte	0x94
 8494 1b11 01       		.byte	0x1
 8495 1b12 08       		.byte	0x8
 8496 1b13 FF       		.byte	0xff
 8497 1b14 1A       		.byte	0x1a
 8498 1b15 38       		.byte	0x38
 8499 1b16 24       		.byte	0x24
 8500 1b17 91       		.byte	0x91
 8501 1b18 00       		.sleb128 0
 8502 1b19 7A       		.byte	0x7a
 8503 1b1a 00       		.sleb128 0
 8504 1b1b 22       		.byte	0x22
 8505 1b1c 0A       		.byte	0xa
 8506 1b1d 2710     		.2byte	0x1027
 8507 1b1f 1C       		.byte	0x1c
 8508 1b20 94       		.byte	0x94
 8509 1b21 01       		.byte	0x1
 8510 1b22 08       		.byte	0x8
 8511 1b23 FF       		.byte	0xff
 8512 1b24 1A       		.byte	0x1a
 8513 1b25 21       		.byte	0x21
 8514 1b26 09       		.byte	0x9
 8515 1b27 F8       		.byte	0xf8
 8516 1b28 24       		.byte	0x24
 8517 1b29 09       		.byte	0x9
 8518 1b2a F8       		.byte	0xf8
 8519 1b2b 25       		.byte	0x25
 8520 1b2c 9F       		.byte	0x9f
 8521 1b2d C80E0000 		.4byte	.LVL226
 8522 1b31 CA0E0000 		.4byte	.LVL227
 8523 1b35 0100     		.2byte	0x1
 8524 1b37 53       		.byte	0x53
 8525 1b38 CA0E0000 		.4byte	.LVL227
 8526 1b3c DA0E0000 		.4byte	.LVL231
 8527 1b40 2600     		.2byte	0x26
 8528 1b42 91       		.byte	0x91
 8529 1b43 00       		.sleb128 0
 8530 1b44 7A       		.byte	0x7a
 8531 1b45 00       		.sleb128 0
 8532 1b46 22       		.byte	0x22
 8533 1b47 0A       		.byte	0xa
 8534 1b48 2810     		.2byte	0x1028
 8535 1b4a 1C       		.byte	0x1c
 8536 1b4b 94       		.byte	0x94
ARM GAS  C:\Users\info\AppData\Local\Temp\ccHAj6Mv.s 			page 163


 8537 1b4c 01       		.byte	0x1
 8538 1b4d 08       		.byte	0x8
 8539 1b4e FF       		.byte	0xff
 8540 1b4f 1A       		.byte	0x1a
 8541 1b50 38       		.byte	0x38
 8542 1b51 24       		.byte	0x24
 8543 1b52 91       		.byte	0x91
 8544 1b53 00       		.sleb128 0
 8545 1b54 7A       		.byte	0x7a
 8546 1b55 00       		.sleb128 0
 8547 1b56 22       		.byte	0x22
 8548 1b57 0A       		.byte	0xa
 8549 1b58 2710     		.2byte	0x1027
 8550 1b5a 1C       		.byte	0x1c
 8551 1b5b 94       		.byte	0x94
 8552 1b5c 01       		.byte	0x1
 8553 1b5d 08       		.byte	0x8
 8554 1b5e FF       		.byte	0xff
 8555 1b5f 1A       		.byte	0x1a
 8556 1b60 21       		.byte	0x21
 8557 1b61 09       		.byte	0x9
 8558 1b62 F8       		.byte	0xf8
 8559 1b63 24       		.byte	0x24
 8560 1b64 09       		.byte	0x9
 8561 1b65 F8       		.byte	0xf8
 8562 1b66 25       		.byte	0x25
 8563 1b67 9F       		.byte	0x9f
 8564 1b68 DA0E0000 		.4byte	.LVL231
 8565 1b6c DC0E0000 		.4byte	.LVL232
 8566 1b70 0100     		.2byte	0x1
 8567 1b72 53       		.byte	0x53
 8568 1b73 DC0E0000 		.4byte	.LVL232
 8569 1b77 EC0E0000 		.4byte	.LVL234
 8570 1b7b 2600     		.2byte	0x26
 8571 1b7d 91       		.byte	0x91
 8572 1b7e 00       		.sleb128 0
 8573 1b7f 7A       		.byte	0x7a
 8574 1b80 00       		.sleb128 0
 8575 1b81 22       		.byte	0x22
 8576 1b82 0A       		.byte	0xa
 8577 1b83 2810     		.2byte	0x1028
 8578 1b85 1C       		.byte	0x1c
 8579 1b86 94       		.byte	0x94
 8580 1b87 01       		.byte	0x1
 8581 1b88 08       		.byte	0x8
 8582 1b89 FF       		.byte	0xff
 8583 1b8a 1A       		.byte	0x1a
 8584 1b8b 38       		.byte	0x38
 8585 1b8c 24       		.byte	0x24
 8586 1b8d 91       		.byte	0x91
 8587 1b8e 00       		.sleb128 0
 8588 1b8f 7A       		.byte	0x7a
 8589 1b90 00       		.sleb128 0
 8590 1b91 22       		.byte	0x22
 8591 1b92 0A       		.byte	0xa
 8592 1b93 2710     		.2byte	0x1027
 8593 1b95 1C       		.byte	0x1c
ARM GAS  C:\Users\info\AppData\Local\Temp\ccHAj6Mv.s 			page 164


 8594 1b96 94       		.byte	0x94
 8595 1b97 01       		.byte	0x1
 8596 1b98 08       		.byte	0x8
 8597 1b99 FF       		.byte	0xff
 8598 1b9a 1A       		.byte	0x1a
 8599 1b9b 21       		.byte	0x21
 8600 1b9c 09       		.byte	0x9
 8601 1b9d F8       		.byte	0xf8
 8602 1b9e 24       		.byte	0x24
 8603 1b9f 09       		.byte	0x9
 8604 1ba0 F8       		.byte	0xf8
 8605 1ba1 25       		.byte	0x25
 8606 1ba2 9F       		.byte	0x9f
 8607 1ba3 EC0E0000 		.4byte	.LVL234
 8608 1ba7 EE0E0000 		.4byte	.LVL235
 8609 1bab 0100     		.2byte	0x1
 8610 1bad 53       		.byte	0x53
 8611 1bae EE0E0000 		.4byte	.LVL235
 8612 1bb2 F00E0000 		.4byte	.LVL236
 8613 1bb6 2600     		.2byte	0x26
 8614 1bb8 91       		.byte	0x91
 8615 1bb9 00       		.sleb128 0
 8616 1bba 7A       		.byte	0x7a
 8617 1bbb 00       		.sleb128 0
 8618 1bbc 22       		.byte	0x22
 8619 1bbd 0A       		.byte	0xa
 8620 1bbe 2810     		.2byte	0x1028
 8621 1bc0 1C       		.byte	0x1c
 8622 1bc1 94       		.byte	0x94
 8623 1bc2 01       		.byte	0x1
 8624 1bc3 08       		.byte	0x8
 8625 1bc4 FF       		.byte	0xff
 8626 1bc5 1A       		.byte	0x1a
 8627 1bc6 38       		.byte	0x38
 8628 1bc7 24       		.byte	0x24
 8629 1bc8 91       		.byte	0x91
 8630 1bc9 00       		.sleb128 0
 8631 1bca 7A       		.byte	0x7a
 8632 1bcb 00       		.sleb128 0
 8633 1bcc 22       		.byte	0x22
 8634 1bcd 0A       		.byte	0xa
 8635 1bce 2710     		.2byte	0x1027
 8636 1bd0 1C       		.byte	0x1c
 8637 1bd1 94       		.byte	0x94
 8638 1bd2 01       		.byte	0x1
 8639 1bd3 08       		.byte	0x8
 8640 1bd4 FF       		.byte	0xff
 8641 1bd5 1A       		.byte	0x1a
 8642 1bd6 21       		.byte	0x21
 8643 1bd7 09       		.byte	0x9
 8644 1bd8 F8       		.byte	0xf8
 8645 1bd9 24       		.byte	0x24
 8646 1bda 09       		.byte	0x9
 8647 1bdb F8       		.byte	0xf8
 8648 1bdc 25       		.byte	0x25
 8649 1bdd 9F       		.byte	0x9f
 8650 1bde 00000000 		.4byte	0
ARM GAS  C:\Users\info\AppData\Local\Temp\ccHAj6Mv.s 			page 165


 8651 1be2 00000000 		.4byte	0
 8652              	.LLST13:
 8653 1be6 000A0000 		.4byte	.LVL50
 8654 1bea 260C0000 		.4byte	.LVL135
 8655 1bee 0100     		.2byte	0x1
 8656 1bf0 54       		.byte	0x54
 8657 1bf1 260C0000 		.4byte	.LVL135
 8658 1bf5 FC0C0000 		.4byte	.LVL146
 8659 1bf9 0300     		.2byte	0x3
 8660 1bfb 91       		.byte	0x91
 8661 1bfc A45F     		.sleb128 -4188
 8662 1bfe FC0C0000 		.4byte	.LVL146
 8663 1c02 0E0D0000 		.4byte	.LVL151
 8664 1c06 0100     		.2byte	0x1
 8665 1c08 54       		.byte	0x54
 8666 1c09 0E0D0000 		.4byte	.LVL151
 8667 1c0d 300D0000 		.4byte	.LVL152
 8668 1c11 0300     		.2byte	0x3
 8669 1c13 91       		.byte	0x91
 8670 1c14 A45F     		.sleb128 -4188
 8671 1c16 300D0000 		.4byte	.LVL152
 8672 1c1a 300E0000 		.4byte	.LVL189
 8673 1c1e 0100     		.2byte	0x1
 8674 1c20 54       		.byte	0x54
 8675 1c21 580E0000 		.4byte	.LVL191
 8676 1c25 F00E0000 		.4byte	.LVL236
 8677 1c29 0100     		.2byte	0x1
 8678 1c2b 54       		.byte	0x54
 8679 1c2c 00000000 		.4byte	0
 8680 1c30 00000000 		.4byte	0
 8681              	.LLST14:
 8682 1c34 040A0000 		.4byte	.LVL51
 8683 1c38 2C0E0000 		.4byte	.LVL188
 8684 1c3c 0100     		.2byte	0x1
 8685 1c3e 55       		.byte	0x55
 8686 1c3f 580E0000 		.4byte	.LVL191
 8687 1c43 F00E0000 		.4byte	.LVL236
 8688 1c47 0100     		.2byte	0x1
 8689 1c49 55       		.byte	0x55
 8690 1c4a 00000000 		.4byte	0
 8691 1c4e 00000000 		.4byte	0
 8692              	.LLST15:
 8693 1c52 040A0000 		.4byte	.LVL51
 8694 1c56 240B0000 		.4byte	.LVL102
 8695 1c5a 0100     		.2byte	0x1
 8696 1c5c 56       		.byte	0x56
 8697 1c5d 240B0000 		.4byte	.LVL102
 8698 1c61 2C0B0000 		.4byte	.LVL103
 8699 1c65 2000     		.2byte	0x20
 8700 1c67 91       		.byte	0x91
 8701 1c68 00       		.sleb128 0
 8702 1c69 7A       		.byte	0x7a
 8703 1c6a 00       		.sleb128 0
 8704 1c6b 22       		.byte	0x22
 8705 1c6c 0A       		.byte	0xa
 8706 1c6d 2810     		.2byte	0x1028
 8707 1c6f 1C       		.byte	0x1c
ARM GAS  C:\Users\info\AppData\Local\Temp\ccHAj6Mv.s 			page 166


 8708 1c70 94       		.byte	0x94
 8709 1c71 01       		.byte	0x1
 8710 1c72 08       		.byte	0x8
 8711 1c73 FF       		.byte	0xff
 8712 1c74 1A       		.byte	0x1a
 8713 1c75 38       		.byte	0x38
 8714 1c76 24       		.byte	0x24
 8715 1c77 91       		.byte	0x91
 8716 1c78 00       		.sleb128 0
 8717 1c79 7A       		.byte	0x7a
 8718 1c7a 00       		.sleb128 0
 8719 1c7b 22       		.byte	0x22
 8720 1c7c 0A       		.byte	0xa
 8721 1c7d 2710     		.2byte	0x1027
 8722 1c7f 1C       		.byte	0x1c
 8723 1c80 94       		.byte	0x94
 8724 1c81 01       		.byte	0x1
 8725 1c82 08       		.byte	0x8
 8726 1c83 FF       		.byte	0xff
 8727 1c84 1A       		.byte	0x1a
 8728 1c85 21       		.byte	0x21
 8729 1c86 9F       		.byte	0x9f
 8730 1c87 2C0B0000 		.4byte	.LVL103
 8731 1c8b 260C0000 		.4byte	.LVL135
 8732 1c8f 0100     		.2byte	0x1
 8733 1c91 56       		.byte	0x56
 8734 1c92 260C0000 		.4byte	.LVL135
 8735 1c96 360C0000 		.4byte	.LVL136
 8736 1c9a 2000     		.2byte	0x20
 8737 1c9c 91       		.byte	0x91
 8738 1c9d 00       		.sleb128 0
 8739 1c9e 7A       		.byte	0x7a
 8740 1c9f 00       		.sleb128 0
 8741 1ca0 22       		.byte	0x22
 8742 1ca1 0A       		.byte	0xa
 8743 1ca2 2810     		.2byte	0x1028
 8744 1ca4 1C       		.byte	0x1c
 8745 1ca5 94       		.byte	0x94
 8746 1ca6 01       		.byte	0x1
 8747 1ca7 08       		.byte	0x8
 8748 1ca8 FF       		.byte	0xff
 8749 1ca9 1A       		.byte	0x1a
 8750 1caa 38       		.byte	0x38
 8751 1cab 24       		.byte	0x24
 8752 1cac 91       		.byte	0x91
 8753 1cad 00       		.sleb128 0
 8754 1cae 7A       		.byte	0x7a
 8755 1caf 00       		.sleb128 0
 8756 1cb0 22       		.byte	0x22
 8757 1cb1 0A       		.byte	0xa
 8758 1cb2 2710     		.2byte	0x1027
 8759 1cb4 1C       		.byte	0x1c
 8760 1cb5 94       		.byte	0x94
 8761 1cb6 01       		.byte	0x1
 8762 1cb7 08       		.byte	0x8
 8763 1cb8 FF       		.byte	0xff
 8764 1cb9 1A       		.byte	0x1a
ARM GAS  C:\Users\info\AppData\Local\Temp\ccHAj6Mv.s 			page 167


 8765 1cba 21       		.byte	0x21
 8766 1cbb 9F       		.byte	0x9f
 8767 1cbc 360C0000 		.4byte	.LVL136
 8768 1cc0 380C0000 		.4byte	.LVL137
 8769 1cc4 1A00     		.2byte	0x1a
 8770 1cc6 72       		.byte	0x72
 8771 1cc7 00       		.sleb128 0
 8772 1cc8 7A       		.byte	0x7a
 8773 1cc9 00       		.sleb128 0
 8774 1cca 22       		.byte	0x22
 8775 1ccb 94       		.byte	0x94
 8776 1ccc 01       		.byte	0x1
 8777 1ccd 08       		.byte	0x8
 8778 1cce FF       		.byte	0xff
 8779 1ccf 1A       		.byte	0x1a
 8780 1cd0 38       		.byte	0x38
 8781 1cd1 24       		.byte	0x24
 8782 1cd2 72       		.byte	0x72
 8783 1cd3 00       		.sleb128 0
 8784 1cd4 7A       		.byte	0x7a
 8785 1cd5 00       		.sleb128 0
 8786 1cd6 22       		.byte	0x22
 8787 1cd7 23       		.byte	0x23
 8788 1cd8 01       		.uleb128 0x1
 8789 1cd9 94       		.byte	0x94
 8790 1cda 01       		.byte	0x1
 8791 1cdb 08       		.byte	0x8
 8792 1cdc FF       		.byte	0xff
 8793 1cdd 1A       		.byte	0x1a
 8794 1cde 21       		.byte	0x21
 8795 1cdf 9F       		.byte	0x9f
 8796 1ce0 380C0000 		.4byte	.LVL137
 8797 1ce4 6A0C0000 		.4byte	.LVL140
 8798 1ce8 2000     		.2byte	0x20
 8799 1cea 91       		.byte	0x91
 8800 1ceb 00       		.sleb128 0
 8801 1cec 7A       		.byte	0x7a
 8802 1ced 00       		.sleb128 0
 8803 1cee 22       		.byte	0x22
 8804 1cef 0A       		.byte	0xa
 8805 1cf0 2810     		.2byte	0x1028
 8806 1cf2 1C       		.byte	0x1c
 8807 1cf3 94       		.byte	0x94
 8808 1cf4 01       		.byte	0x1
 8809 1cf5 08       		.byte	0x8
 8810 1cf6 FF       		.byte	0xff
 8811 1cf7 1A       		.byte	0x1a
 8812 1cf8 38       		.byte	0x38
 8813 1cf9 24       		.byte	0x24
 8814 1cfa 91       		.byte	0x91
 8815 1cfb 00       		.sleb128 0
 8816 1cfc 7A       		.byte	0x7a
 8817 1cfd 00       		.sleb128 0
 8818 1cfe 22       		.byte	0x22
 8819 1cff 0A       		.byte	0xa
 8820 1d00 2710     		.2byte	0x1027
 8821 1d02 1C       		.byte	0x1c
ARM GAS  C:\Users\info\AppData\Local\Temp\ccHAj6Mv.s 			page 168


 8822 1d03 94       		.byte	0x94
 8823 1d04 01       		.byte	0x1
 8824 1d05 08       		.byte	0x8
 8825 1d06 FF       		.byte	0xff
 8826 1d07 1A       		.byte	0x1a
 8827 1d08 21       		.byte	0x21
 8828 1d09 9F       		.byte	0x9f
 8829 1d0a 6A0C0000 		.4byte	.LVL140
 8830 1d0e 6C0C0000 		.4byte	.LVL141
 8831 1d12 1A00     		.2byte	0x1a
 8832 1d14 72       		.byte	0x72
 8833 1d15 00       		.sleb128 0
 8834 1d16 7A       		.byte	0x7a
 8835 1d17 00       		.sleb128 0
 8836 1d18 22       		.byte	0x22
 8837 1d19 94       		.byte	0x94
 8838 1d1a 01       		.byte	0x1
 8839 1d1b 08       		.byte	0x8
 8840 1d1c FF       		.byte	0xff
 8841 1d1d 1A       		.byte	0x1a
 8842 1d1e 38       		.byte	0x38
 8843 1d1f 24       		.byte	0x24
 8844 1d20 72       		.byte	0x72
 8845 1d21 00       		.sleb128 0
 8846 1d22 7A       		.byte	0x7a
 8847 1d23 00       		.sleb128 0
 8848 1d24 22       		.byte	0x22
 8849 1d25 23       		.byte	0x23
 8850 1d26 01       		.uleb128 0x1
 8851 1d27 94       		.byte	0x94
 8852 1d28 01       		.byte	0x1
 8853 1d29 08       		.byte	0x8
 8854 1d2a FF       		.byte	0xff
 8855 1d2b 1A       		.byte	0x1a
 8856 1d2c 21       		.byte	0x21
 8857 1d2d 9F       		.byte	0x9f
 8858 1d2e 6C0C0000 		.4byte	.LVL141
 8859 1d32 FC0C0000 		.4byte	.LVL146
 8860 1d36 2000     		.2byte	0x20
 8861 1d38 91       		.byte	0x91
 8862 1d39 00       		.sleb128 0
 8863 1d3a 7A       		.byte	0x7a
 8864 1d3b 00       		.sleb128 0
 8865 1d3c 22       		.byte	0x22
 8866 1d3d 0A       		.byte	0xa
 8867 1d3e 2810     		.2byte	0x1028
 8868 1d40 1C       		.byte	0x1c
 8869 1d41 94       		.byte	0x94
 8870 1d42 01       		.byte	0x1
 8871 1d43 08       		.byte	0x8
 8872 1d44 FF       		.byte	0xff
 8873 1d45 1A       		.byte	0x1a
 8874 1d46 38       		.byte	0x38
 8875 1d47 24       		.byte	0x24
 8876 1d48 91       		.byte	0x91
 8877 1d49 00       		.sleb128 0
 8878 1d4a 7A       		.byte	0x7a
ARM GAS  C:\Users\info\AppData\Local\Temp\ccHAj6Mv.s 			page 169


 8879 1d4b 00       		.sleb128 0
 8880 1d4c 22       		.byte	0x22
 8881 1d4d 0A       		.byte	0xa
 8882 1d4e 2710     		.2byte	0x1027
 8883 1d50 1C       		.byte	0x1c
 8884 1d51 94       		.byte	0x94
 8885 1d52 01       		.byte	0x1
 8886 1d53 08       		.byte	0x8
 8887 1d54 FF       		.byte	0xff
 8888 1d55 1A       		.byte	0x1a
 8889 1d56 21       		.byte	0x21
 8890 1d57 9F       		.byte	0x9f
 8891 1d58 FC0C0000 		.4byte	.LVL146
 8892 1d5c FE0C0000 		.4byte	.LVL147
 8893 1d60 0100     		.2byte	0x1
 8894 1d62 56       		.byte	0x56
 8895 1d63 FE0C0000 		.4byte	.LVL147
 8896 1d67 300D0000 		.4byte	.LVL152
 8897 1d6b 2000     		.2byte	0x20
 8898 1d6d 91       		.byte	0x91
 8899 1d6e 00       		.sleb128 0
 8900 1d6f 7A       		.byte	0x7a
 8901 1d70 00       		.sleb128 0
 8902 1d71 22       		.byte	0x22
 8903 1d72 0A       		.byte	0xa
 8904 1d73 2810     		.2byte	0x1028
 8905 1d75 1C       		.byte	0x1c
 8906 1d76 94       		.byte	0x94
 8907 1d77 01       		.byte	0x1
 8908 1d78 08       		.byte	0x8
 8909 1d79 FF       		.byte	0xff
 8910 1d7a 1A       		.byte	0x1a
 8911 1d7b 38       		.byte	0x38
 8912 1d7c 24       		.byte	0x24
 8913 1d7d 91       		.byte	0x91
 8914 1d7e 00       		.sleb128 0
 8915 1d7f 7A       		.byte	0x7a
 8916 1d80 00       		.sleb128 0
 8917 1d81 22       		.byte	0x22
 8918 1d82 0A       		.byte	0xa
 8919 1d83 2710     		.2byte	0x1027
 8920 1d85 1C       		.byte	0x1c
 8921 1d86 94       		.byte	0x94
 8922 1d87 01       		.byte	0x1
 8923 1d88 08       		.byte	0x8
 8924 1d89 FF       		.byte	0xff
 8925 1d8a 1A       		.byte	0x1a
 8926 1d8b 21       		.byte	0x21
 8927 1d8c 9F       		.byte	0x9f
 8928 1d8d 300D0000 		.4byte	.LVL152
 8929 1d91 380E0000 		.4byte	.LVL190
 8930 1d95 0100     		.2byte	0x1
 8931 1d97 56       		.byte	0x56
 8932 1d98 580E0000 		.4byte	.LVL191
 8933 1d9c F00E0000 		.4byte	.LVL236
 8934 1da0 0100     		.2byte	0x1
 8935 1da2 56       		.byte	0x56
ARM GAS  C:\Users\info\AppData\Local\Temp\ccHAj6Mv.s 			page 170


 8936 1da3 00000000 		.4byte	0
 8937 1da7 00000000 		.4byte	0
 8938              	.LLST16:
 8939 1dab 040A0000 		.4byte	.LVL51
 8940 1daf F00E0000 		.4byte	.LVL236
 8941 1db3 0200     		.2byte	0x2
 8942 1db5 30       		.byte	0x30
 8943 1db6 9F       		.byte	0x9f
 8944 1db7 F00E0000 		.4byte	.LVL236
 8945 1dbb F20E0000 		.4byte	.LVL237
 8946 1dbf 0100     		.2byte	0x1
 8947 1dc1 52       		.byte	0x52
 8948 1dc2 0C0F0000 		.4byte	.LVL242
 8949 1dc6 300F0000 		.4byte	.LFE66
 8950 1dca 0100     		.2byte	0x1
 8951 1dcc 52       		.byte	0x52
 8952 1dcd 00000000 		.4byte	0
 8953 1dd1 00000000 		.4byte	0
 8954              	.LLST17:
 8955 1dd5 040A0000 		.4byte	.LVL51
 8956 1dd9 740A0000 		.4byte	.LVL64
 8957 1ddd 0200     		.2byte	0x2
 8958 1ddf 30       		.byte	0x30
 8959 1de0 9F       		.byte	0x9f
 8960 1de1 740A0000 		.4byte	.LVL64
 8961 1de5 7A0A0000 		.4byte	.LVL66
 8962 1de9 0200     		.2byte	0x2
 8963 1deb 31       		.byte	0x31
 8964 1dec 9F       		.byte	0x9f
 8965 1ded 7A0A0000 		.4byte	.LVL66
 8966 1df1 800A0000 		.4byte	.LVL68
 8967 1df5 0200     		.2byte	0x2
 8968 1df7 30       		.byte	0x30
 8969 1df8 9F       		.byte	0x9f
 8970 1df9 800A0000 		.4byte	.LVL68
 8971 1dfd 860A0000 		.4byte	.LVL71
 8972 1e01 0200     		.2byte	0x2
 8973 1e03 31       		.byte	0x31
 8974 1e04 9F       		.byte	0x9f
 8975 1e05 860A0000 		.4byte	.LVL71
 8976 1e09 F00E0000 		.4byte	.LVL236
 8977 1e0d 0200     		.2byte	0x2
 8978 1e0f 30       		.byte	0x30
 8979 1e10 9F       		.byte	0x9f
 8980 1e11 F00E0000 		.4byte	.LVL236
 8981 1e15 F20E0000 		.4byte	.LVL237
 8982 1e19 0100     		.2byte	0x1
 8983 1e1b 53       		.byte	0x53
 8984 1e1c 0C0F0000 		.4byte	.LVL242
 8985 1e20 300F0000 		.4byte	.LFE66
 8986 1e24 0100     		.2byte	0x1
 8987 1e26 53       		.byte	0x53
 8988 1e27 00000000 		.4byte	0
 8989 1e2b 00000000 		.4byte	0
 8990              	.LLST18:
 8991 1e2f 420A0000 		.4byte	.LVL55
 8992 1e33 540A0000 		.4byte	.LVL57
ARM GAS  C:\Users\info\AppData\Local\Temp\ccHAj6Mv.s 			page 171


 8993 1e37 0100     		.2byte	0x1
 8994 1e39 53       		.byte	0x53
 8995 1e3a 560A0000 		.4byte	.LVL58
 8996 1e3e 5C0A0000 		.4byte	.LVL59
 8997 1e42 0100     		.2byte	0x1
 8998 1e44 53       		.byte	0x53
 8999 1e45 00000000 		.4byte	0
 9000 1e49 00000000 		.4byte	0
 9001              	.LLST19:
 9002 1e4d A40B0000 		.4byte	.LVL116
 9003 1e51 C00B0000 		.4byte	.LVL120
 9004 1e55 0100     		.2byte	0x1
 9005 1e57 51       		.byte	0x51
 9006 1e58 00000000 		.4byte	0
 9007 1e5c 00000000 		.4byte	0
 9008              	.LLST20:
 9009 1e60 A60B0000 		.4byte	.LVL117
 9010 1e64 C00B0000 		.4byte	.LVL120
 9011 1e68 0100     		.2byte	0x1
 9012 1e6a 50       		.byte	0x50
 9013 1e6b 00000000 		.4byte	0
 9014 1e6f 00000000 		.4byte	0
 9015              	.LLST21:
 9016 1e73 A80B0000 		.4byte	.LVL118
 9017 1e77 AE0B0000 		.4byte	.LVL119
 9018 1e7b 0100     		.2byte	0x1
 9019 1e7d 53       		.byte	0x53
 9020 1e7e AE0B0000 		.4byte	.LVL119
 9021 1e82 C00B0000 		.4byte	.LVL120
 9022 1e86 0600     		.2byte	0x6
 9023 1e88 71       		.byte	0x71
 9024 1e89 00       		.sleb128 0
 9025 1e8a 70       		.byte	0x70
 9026 1e8b 00       		.sleb128 0
 9027 1e8c 1C       		.byte	0x1c
 9028 1e8d 9F       		.byte	0x9f
 9029 1e8e 00000000 		.4byte	0
 9030 1e92 00000000 		.4byte	0
 9031              	.LLST22:
 9032 1e96 DC0B0000 		.4byte	.LVL124
 9033 1e9a F80B0000 		.4byte	.LVL128
 9034 1e9e 0100     		.2byte	0x1
 9035 1ea0 50       		.byte	0x50
 9036 1ea1 00000000 		.4byte	0
 9037 1ea5 00000000 		.4byte	0
 9038              	.LLST23:
 9039 1ea9 DE0B0000 		.4byte	.LVL125
 9040 1ead F80B0000 		.4byte	.LVL128
 9041 1eb1 0100     		.2byte	0x1
 9042 1eb3 51       		.byte	0x51
 9043 1eb4 00000000 		.4byte	0
 9044 1eb8 00000000 		.4byte	0
 9045              	.LLST24:
 9046 1ebc E00B0000 		.4byte	.LVL126
 9047 1ec0 E60B0000 		.4byte	.LVL127
 9048 1ec4 0100     		.2byte	0x1
 9049 1ec6 53       		.byte	0x53
ARM GAS  C:\Users\info\AppData\Local\Temp\ccHAj6Mv.s 			page 172


 9050 1ec7 E60B0000 		.4byte	.LVL127
 9051 1ecb F80B0000 		.4byte	.LVL128
 9052 1ecf 0600     		.2byte	0x6
 9053 1ed1 71       		.byte	0x71
 9054 1ed2 00       		.sleb128 0
 9055 1ed3 70       		.byte	0x70
 9056 1ed4 00       		.sleb128 0
 9057 1ed5 1C       		.byte	0x1c
 9058 1ed6 9F       		.byte	0x9f
 9059 1ed7 00000000 		.4byte	0
 9060 1edb 00000000 		.4byte	0
 9061              	.LLST25:
 9062 1edf 260C0000 		.4byte	.LVL135
 9063 1ee3 E80C0000 		.4byte	.LVL143
 9064 1ee7 0300     		.2byte	0x3
 9065 1ee9 91       		.byte	0x91
 9066 1eea 885F     		.sleb128 -4216
 9067 1eec E80C0000 		.4byte	.LVL143
 9068 1ef0 F40C0000 		.4byte	.LVL144
 9069 1ef4 0600     		.2byte	0x6
 9070 1ef6 53       		.byte	0x53
 9071 1ef7 93       		.byte	0x93
 9072 1ef8 04       		.uleb128 0x4
 9073 1ef9 54       		.byte	0x54
 9074 1efa 93       		.byte	0x93
 9075 1efb 04       		.uleb128 0x4
 9076 1efc F40C0000 		.4byte	.LVL144
 9077 1f00 FC0C0000 		.4byte	.LVL146
 9078 1f04 0300     		.2byte	0x3
 9079 1f06 91       		.byte	0x91
 9080 1f07 885F     		.sleb128 -4216
 9081 1f09 0E0D0000 		.4byte	.LVL151
 9082 1f0d 300D0000 		.4byte	.LVL152
 9083 1f11 0300     		.2byte	0x3
 9084 1f13 91       		.byte	0x91
 9085 1f14 885F     		.sleb128 -4216
 9086 1f16 00000000 		.4byte	0
 9087 1f1a 00000000 		.4byte	0
 9088              	.LLST26:
 9089 1f1e 260C0000 		.4byte	.LVL135
 9090 1f22 FC0C0000 		.4byte	.LVL146
 9091 1f26 0100     		.2byte	0x1
 9092 1f28 56       		.byte	0x56
 9093 1f29 0E0D0000 		.4byte	.LVL151
 9094 1f2d 300D0000 		.4byte	.LVL152
 9095 1f31 0100     		.2byte	0x1
 9096 1f33 56       		.byte	0x56
 9097 1f34 00000000 		.4byte	0
 9098 1f38 00000000 		.4byte	0
 9099              	.LLST27:
 9100 1f3c 260C0000 		.4byte	.LVL135
 9101 1f40 5C0C0000 		.4byte	.LVL138
 9102 1f44 0A00     		.2byte	0xa
 9103 1f46 9E       		.byte	0x9e
 9104 1f47 08       		.uleb128 0x8
 9105 1f48 00000000 		.8byte	0
 9105      00000000 
ARM GAS  C:\Users\info\AppData\Local\Temp\ccHAj6Mv.s 			page 173


 9106 1f50 5C0C0000 		.4byte	.LVL138
 9107 1f54 640C0000 		.4byte	.LVL139
 9108 1f58 0600     		.2byte	0x6
 9109 1f5a 58       		.byte	0x58
 9110 1f5b 93       		.byte	0x93
 9111 1f5c 04       		.uleb128 0x4
 9112 1f5d 59       		.byte	0x59
 9113 1f5e 93       		.byte	0x93
 9114 1f5f 04       		.uleb128 0x4
 9115 1f60 640C0000 		.4byte	.LVL139
 9116 1f64 AE0C0000 		.4byte	.LVL142
 9117 1f68 0A00     		.2byte	0xa
 9118 1f6a 9E       		.byte	0x9e
 9119 1f6b 08       		.uleb128 0x8
 9120 1f6c 00000000 		.8byte	0
 9120      00000000 
 9121 1f74 AE0C0000 		.4byte	.LVL142
 9122 1f78 FC0C0000 		.4byte	.LVL146
 9123 1f7c 0600     		.2byte	0x6
 9124 1f7e 58       		.byte	0x58
 9125 1f7f 93       		.byte	0x93
 9126 1f80 04       		.uleb128 0x4
 9127 1f81 59       		.byte	0x59
 9128 1f82 93       		.byte	0x93
 9129 1f83 04       		.uleb128 0x4
 9130 1f84 00000000 		.4byte	0
 9131 1f88 00000000 		.4byte	0
 9132              	.LLST28:
 9133 1f8c 580E0000 		.4byte	.LVL191
 9134 1f90 660E0000 		.4byte	.LVL192
 9135 1f94 0100     		.2byte	0x1
 9136 1f96 53       		.byte	0x53
 9137 1f97 680E0000 		.4byte	.LVL193
 9138 1f9b 6A0E0000 		.4byte	.LVL194
 9139 1f9f 0100     		.2byte	0x1
 9140 1fa1 53       		.byte	0x53
 9141 1fa2 6C0E0000 		.4byte	.LVL195
 9142 1fa6 720E0000 		.4byte	.LVL196
 9143 1faa 0100     		.2byte	0x1
 9144 1fac 53       		.byte	0x53
 9145 1fad 00000000 		.4byte	0
 9146 1fb1 00000000 		.4byte	0
 9147              	.LLST29:
 9148 1fb5 760E0000 		.4byte	.LVL197
 9149 1fb9 840E0000 		.4byte	.LVL200
 9150 1fbd 0100     		.2byte	0x1
 9151 1fbf 53       		.byte	0x53
 9152 1fc0 860E0000 		.4byte	.LVL201
 9153 1fc4 880E0000 		.4byte	.LVL202
 9154 1fc8 0100     		.2byte	0x1
 9155 1fca 53       		.byte	0x53
 9156 1fcb 8A0E0000 		.4byte	.LVL203
 9157 1fcf 900E0000 		.4byte	.LVL204
 9158 1fd3 0100     		.2byte	0x1
 9159 1fd5 53       		.byte	0x53
 9160 1fd6 00000000 		.4byte	0
 9161 1fda 00000000 		.4byte	0
ARM GAS  C:\Users\info\AppData\Local\Temp\ccHAj6Mv.s 			page 174


 9162              		.section	.debug_aranges,"",%progbits
 9163 0000 34000000 		.4byte	0x34
 9164 0004 0200     		.2byte	0x2
 9165 0006 00000000 		.4byte	.Ldebug_info0
 9166 000a 04       		.byte	0x4
 9167 000b 00       		.byte	0
 9168 000c 0000     		.2byte	0
 9169 000e 0000     		.2byte	0
 9170 0010 00000000 		.4byte	.LFB63
 9171 0014 E0000000 		.4byte	.LFE63-.LFB63
 9172 0018 00000000 		.4byte	.LFB65
 9173 001c 34000000 		.4byte	.LFE65-.LFB65
 9174 0020 00000000 		.4byte	.LFB64
 9175 0024 14000000 		.4byte	.LFE64-.LFB64
 9176 0028 00000000 		.4byte	.LFB66
 9177 002c 300F0000 		.4byte	.LFE66-.LFB66
 9178 0030 00000000 		.4byte	0
 9179 0034 00000000 		.4byte	0
 9180              		.section	.debug_ranges,"",%progbits
 9181              	.Ldebug_ranges0:
 9182 0000 54000000 		.4byte	.LBB2
 9183 0004 B2000000 		.4byte	.LBE2
 9184 0008 B4000000 		.4byte	.LBB7
 9185 000c BE000000 		.4byte	.LBE7
 9186 0010 00000000 		.4byte	0
 9187 0014 00000000 		.4byte	0
 9188 0018 54000000 		.4byte	.LBB3
 9189 001c B2000000 		.4byte	.LBE3
 9190 0020 B4000000 		.4byte	.LBB6
 9191 0024 B8000000 		.4byte	.LBE6
 9192 0028 00000000 		.4byte	0
 9193 002c 00000000 		.4byte	0
 9194 0030 54000000 		.4byte	.LBB4
 9195 0034 A6000000 		.4byte	.LBE4
 9196 0038 A8000000 		.4byte	.LBB5
 9197 003c AC000000 		.4byte	.LBE5
 9198 0040 00000000 		.4byte	0
 9199 0044 00000000 		.4byte	0
 9200 0048 420A0000 		.4byte	.LBB10
 9201 004c 540A0000 		.4byte	.LBE10
 9202 0050 560A0000 		.4byte	.LBB11
 9203 0054 5A0A0000 		.4byte	.LBE11
 9204 0058 00000000 		.4byte	0
 9205 005c 00000000 		.4byte	0
 9206 0060 A00B0000 		.4byte	.LBB12
 9207 0064 BA0B0000 		.4byte	.LBE12
 9208 0068 BE0B0000 		.4byte	.LBB13
 9209 006c C00B0000 		.4byte	.LBE13
 9210 0070 00000000 		.4byte	0
 9211 0074 00000000 		.4byte	0
 9212 0078 D80B0000 		.4byte	.LBB14
 9213 007c F20B0000 		.4byte	.LBE14
 9214 0080 F60B0000 		.4byte	.LBB15
 9215 0084 F80B0000 		.4byte	.LBE15
 9216 0088 00000000 		.4byte	0
 9217 008c 00000000 		.4byte	0
 9218 0090 260C0000 		.4byte	.LBB16
ARM GAS  C:\Users\info\AppData\Local\Temp\ccHAj6Mv.s 			page 175


 9219 0094 FC0C0000 		.4byte	.LBE16
 9220 0098 0E0D0000 		.4byte	.LBB20
 9221 009c 2A0D0000 		.4byte	.LBE20
 9222 00a0 2E0D0000 		.4byte	.LBB21
 9223 00a4 300D0000 		.4byte	.LBE21
 9224 00a8 00000000 		.4byte	0
 9225 00ac 00000000 		.4byte	0
 9226 00b0 260C0000 		.4byte	.LBB17
 9227 00b4 FC0C0000 		.4byte	.LBE17
 9228 00b8 0E0D0000 		.4byte	.LBB19
 9229 00bc 180D0000 		.4byte	.LBE19
 9230 00c0 00000000 		.4byte	0
 9231 00c4 00000000 		.4byte	0
 9232 00c8 580E0000 		.4byte	.LBB22
 9233 00cc 6A0E0000 		.4byte	.LBE22
 9234 00d0 6C0E0000 		.4byte	.LBB23
 9235 00d4 700E0000 		.4byte	.LBE23
 9236 00d8 00000000 		.4byte	0
 9237 00dc 00000000 		.4byte	0
 9238 00e0 760E0000 		.4byte	.LBB24
 9239 00e4 880E0000 		.4byte	.LBE24
 9240 00e8 8A0E0000 		.4byte	.LBB25
 9241 00ec 8E0E0000 		.4byte	.LBE25
 9242 00f0 920E0000 		.4byte	.LBB26
 9243 00f4 940E0000 		.4byte	.LBE26
 9244 00f8 00000000 		.4byte	0
 9245 00fc 00000000 		.4byte	0
 9246 0100 00000000 		.4byte	.LFB63
 9247 0104 E0000000 		.4byte	.LFE63
 9248 0108 00000000 		.4byte	.LFB65
 9249 010c 34000000 		.4byte	.LFE65
 9250 0110 00000000 		.4byte	.LFB64
 9251 0114 14000000 		.4byte	.LFE64
 9252 0118 00000000 		.4byte	.LFB66
 9253 011c 300F0000 		.4byte	.LFE66
 9254 0120 00000000 		.4byte	0
 9255 0124 00000000 		.4byte	0
 9256              		.section	.debug_line,"",%progbits
 9257              	.Ldebug_line0:
 9258 0000 0A050000 		.section	.debug_str,"MS",%progbits,1
 9258      0200DD01 
 9258      00000201 
 9258      FB0E0D00 
 9258      01010101 
 9259              	.LASF56:
 9260 0000 4379446D 		.ascii	"CyDmaTdAllocate\000"
 9260      61546441 
 9260      6C6C6F63 
 9260      61746500 
 9261              	.LASF72:
 9262 0010 646D6163 		.ascii	"dmac_tdmem_struct\000"
 9262      5F74646D 
 9262      656D5F73 
 9262      74727563 
 9262      7400
 9263              	.LASF66:
 9264 0022 72616E64 		.ascii	"random_Enable\000"
ARM GAS  C:\Users\info\AppData\Local\Temp\ccHAj6Mv.s 			page 176


 9264      6F6D5F45 
 9264      6E61626C 
 9264      6500
 9265              	.LASF59:
 9266 0030 4379446D 		.ascii	"CyDmaTdSetAddress\000"
 9266      61546453 
 9266      65744164 
 9266      64726573 
 9266      7300
 9267              	.LASF44:
 9268 0042 76627566 		.ascii	"vbuf\000"
 9268      00
 9269              	.LASF37:
 9270 0047 64696666 		.ascii	"diff\000"
 9270      00
 9271              	.LASF63:
 9272 004c 4853594E 		.ascii	"HSYNC_Start\000"
 9272      435F5374 
 9272      61727400 
 9273              	.LASF24:
 9274 0058 72656731 		.ascii	"reg16\000"
 9274      3600
 9275              	.LASF16:
 9276 005e 75696E74 		.ascii	"uint64_t\000"
 9276      36345F74 
 9276      00
 9277              	.LASF2:
 9278 0067 73686F72 		.ascii	"short int\000"
 9278      7420696E 
 9278      7400
 9279              	.LASF58:
 9280 0071 4379446D 		.ascii	"CyDmaTdSetConfiguration\000"
 9280      61546453 
 9280      6574436F 
 9280      6E666967 
 9280      75726174 
 9281              	.LASF34:
 9282 0089 6F703130 		.ascii	"op10\000"
 9282      00
 9283              	.LASF65:
 9284 008e 4E45574C 		.ascii	"NEWLINE_StartEx\000"
 9284      494E455F 
 9284      53746172 
 9284      74457800 
 9285              	.LASF25:
 9286 009e 6C6F6E67 		.ascii	"long double\000"
 9286      20646F75 
 9286      626C6500 
 9287              	.LASF71:
 9288 00aa 433A5C55 		.ascii	"C:\\Users\\info\\Desktop\\Spring 2019 Classes\\6.11"
 9288      73657273 
 9288      5C696E66 
 9288      6F5C4465 
 9288      736B746F 
 9289 00d8 355C362E 		.ascii	"5\\6.115-final\\PSoCCreator\\Final Project\\FinalEm"
 9289      3131352D 
 9289      66696E61 
ARM GAS  C:\Users\info\AppData\Local\Temp\ccHAj6Mv.s 			page 177


 9289      6C5C5053 
 9289      6F434372 
 9290 0107 756C6174 		.ascii	"ulator.cydsn\000"
 9290      6F722E63 
 9290      7964736E 
 9290      00
 9291              	.LASF4:
 9292 0114 5F5F7569 		.ascii	"__uint16_t\000"
 9292      6E743136 
 9292      5F7400
 9293              	.LASF62:
 9294 011f 56455254 		.ascii	"VERT_Start\000"
 9294      5F537461 
 9294      727400
 9295              	.LASF38:
 9296 012a 636F6C6C 		.ascii	"collision\000"
 9296      6973696F 
 9296      6E00
 9297              	.LASF60:
 9298 0134 4379446D 		.ascii	"CyDmaChSetInitialTd\000"
 9298      61436853 
 9298      6574496E 
 9298      69746961 
 9298      6C546400 
 9299              	.LASF18:
 9300 0148 75696E74 		.ascii	"uint16\000"
 9300      313600
 9301              	.LASF13:
 9302 014f 75696E74 		.ascii	"uint8_t\000"
 9302      385F7400 
 9303              	.LASF17:
 9304 0157 75696E74 		.ascii	"uint8\000"
 9304      3800
 9305              	.LASF28:
 9306 015d 6C696E65 		.ascii	"line\000"
 9306      00
 9307              	.LASF20:
 9308 0162 666C6F61 		.ascii	"float\000"
 9308      7400
 9309              	.LASF9:
 9310 0168 6C6F6E67 		.ascii	"long long int\000"
 9310      206C6F6E 
 9310      6720696E 
 9310      7400
 9311              	.LASF11:
 9312 0176 6C6F6E67 		.ascii	"long long unsigned int\000"
 9312      206C6F6E 
 9312      6720756E 
 9312      7369676E 
 9312      65642069 
 9313              	.LASF30:
 9314 018d 6E65776C 		.ascii	"newline\000"
 9314      696E6500 
 9315              	.LASF75:
 9316 0195 6D656D73 		.ascii	"memset\000"
 9316      657400
 9317              	.LASF41:
ARM GAS  C:\Users\info\AppData\Local\Temp\ccHAj6Mv.s 			page 178


 9318 019c 6C617374 		.ascii	"lastkey\000"
 9318      6B657900 
 9319              	.LASF3:
 9320 01a4 5F5F7569 		.ascii	"__uint8_t\000"
 9320      6E74385F 
 9320      7400
 9321              	.LASF47:
 9322 01ae 7667615F 		.ascii	"vga_update_flag\000"
 9322      75706461 
 9322      74655F66 
 9322      6C616700 
 9323              	.LASF1:
 9324 01be 756E7369 		.ascii	"unsigned char\000"
 9324      676E6564 
 9324      20636861 
 9324      7200
 9325              	.LASF51:
 9326 01cc 70696E5F 		.ascii	"pin_snd_Write\000"
 9326      736E645F 
 9326      57726974 
 9326      6500
 9327              	.LASF40:
 9328 01da 6B657973 		.ascii	"keys\000"
 9328      00
 9329              	.LASF61:
 9330 01df 484F5249 		.ascii	"HORIZ_Start\000"
 9330      5A5F5374 
 9330      61727400 
 9331              	.LASF33:
 9332 01eb 696E7374 		.ascii	"instr\000"
 9332      7200
 9333              	.LASF46:
 9334 01f1 646D615F 		.ascii	"dma_td\000"
 9334      746400
 9335              	.LASF0:
 9336 01f8 7369676E 		.ascii	"signed char\000"
 9336      65642063 
 9336      68617200 
 9337              	.LASF42:
 9338 0204 6B657966 		.ascii	"keyflag\000"
 9338      6C616700 
 9339              	.LASF12:
 9340 020c 756E7369 		.ascii	"unsigned int\000"
 9340      676E6564 
 9340      20696E74 
 9340      00
 9341              	.LASF55:
 9342 0219 6973725F 		.ascii	"isr_timer_StartEx\000"
 9342      74696D65 
 9342      725F5374 
 9342      61727445 
 9342      7800
 9343              	.LASF52:
 9344 022b 72616E64 		.ascii	"random_Read\000"
 9344      6F6D5F52 
 9344      65616400 
 9345              	.LASF32:
ARM GAS  C:\Users\info\AppData\Local\Temp\ccHAj6Mv.s 			page 179


 9346 0237 73746163 		.ascii	"stack\000"
 9346      6B00
 9347              	.LASF49:
 9348 023d 4379446D 		.ascii	"CyDmaChDisable\000"
 9348      61436844 
 9348      69736162 
 9348      6C6500
 9349              	.LASF27:
 9350 024c 646D6163 		.ascii	"dmac_tdmem\000"
 9350      5F74646D 
 9350      656D00
 9351              	.LASF53:
 9352 0257 70696E5F 		.ascii	"pin_led_Write\000"
 9352      6C65645F 
 9352      57726974 
 9352      6500
 9353              	.LASF5:
 9354 0265 73686F72 		.ascii	"short unsigned int\000"
 9354      7420756E 
 9354      7369676E 
 9354      65642069 
 9354      6E7400
 9355              	.LASF35:
 9356 0278 696E7661 		.ascii	"invalid_op\000"
 9356      6C69645F 
 9356      6F7000
 9357              	.LASF67:
 9358 0283 72616E64 		.ascii	"random_Init\000"
 9358      6F6D5F49 
 9358      6E697400 
 9359              	.LASF22:
 9360 028f 63686172 		.ascii	"char\000"
 9360      00
 9361              	.LASF14:
 9362 0294 75696E74 		.ascii	"uint16_t\000"
 9362      31365F74 
 9362      00
 9363              	.LASF7:
 9364 029d 6C6F6E67 		.ascii	"long int\000"
 9364      20696E74 
 9364      00
 9365              	.LASF74:
 9366 02a6 6D61696E 		.ascii	"main\000"
 9366      00
 9367              	.LASF15:
 9368 02ab 696E7433 		.ascii	"int32_t\000"
 9368      325F7400 
 9369              	.LASF29:
 9370 02b3 70697865 		.ascii	"pixel\000"
 9370      6C00
 9371              	.LASF57:
 9372 02b9 444D415F 		.ascii	"DMA_DmaInitialize\000"
 9372      446D6149 
 9372      6E697469 
 9372      616C697A 
 9372      6500
 9373              	.LASF10:
ARM GAS  C:\Users\info\AppData\Local\Temp\ccHAj6Mv.s 			page 180


 9374 02cb 5F5F7569 		.ascii	"__uint64_t\000"
 9374      6E743634 
 9374      5F7400
 9375              	.LASF64:
 9376 02d6 5653594E 		.ascii	"VSYNC_Start\000"
 9376      435F5374 
 9376      61727400 
 9377              	.LASF73:
 9378 02e2 75706461 		.ascii	"update_vga\000"
 9378      74655F76 
 9378      676100
 9379              	.LASF19:
 9380 02ed 75696E74 		.ascii	"uint32\000"
 9380      333200
 9381              	.LASF70:
 9382 02f4 6D61696E 		.ascii	"main.c\000"
 9382      2E6300
 9383              	.LASF23:
 9384 02fb 72656738 		.ascii	"reg8\000"
 9384      00
 9385              	.LASF8:
 9386 0300 6C6F6E67 		.ascii	"long unsigned int\000"
 9386      20756E73 
 9386      69676E65 
 9386      6420696E 
 9386      7400
 9387              	.LASF21:
 9388 0312 646F7562 		.ascii	"double\000"
 9388      6C6500
 9389              	.LASF48:
 9390 0319 56455254 		.ascii	"VERT_ReadCounter\000"
 9390      5F526561 
 9390      64436F75 
 9390      6E746572 
 9390      00
 9391              	.LASF39:
 9392 032a 49544D5F 		.ascii	"ITM_RxBuffer\000"
 9392      52784275 
 9392      66666572 
 9392      00
 9393              	.LASF45:
 9394 0337 646D615F 		.ascii	"dma_chan\000"
 9394      6368616E 
 9394      00
 9395              	.LASF36:
 9396 0340 66726565 		.ascii	"freeze_pc\000"
 9396      7A655F70 
 9396      6300
 9397              	.LASF6:
 9398 034a 5F5F696E 		.ascii	"__int32_t\000"
 9398      7433325F 
 9398      7400
 9399              	.LASF68:
 9400 0354 72616E64 		.ascii	"random_Start\000"
 9400      6F6D5F53 
 9400      74617274 
 9400      00
ARM GAS  C:\Users\info\AppData\Local\Temp\ccHAj6Mv.s 			page 181


 9401              	.LASF26:
 9402 0361 73697A65 		.ascii	"sizetype\000"
 9402      74797065 
 9402      00
 9403              	.LASF43:
 9404 036a 7672616D 		.ascii	"vram\000"
 9404      00
 9405              	.LASF50:
 9406 036f 4379446D 		.ascii	"CyDmaChEnable\000"
 9406      61436845 
 9406      6E61626C 
 9406      6500
 9407              	.LASF69:
 9408 037d 474E5520 		.ascii	"GNU C11 5.4.1 20160609 (release) [ARM/embedded-5-br"
 9408      43313120 
 9408      352E342E 
 9408      31203230 
 9408      31363036 
 9409 03b0 616E6368 		.ascii	"anch revision 237715] -mcpu=cortex-m3 -mthumb -g -O"
 9409      20726576 
 9409      6973696F 
 9409      6E203233 
 9409      37373135 
 9410 03e3 67202D66 		.ascii	"g -ffunction-sections -ffat-lto-objects\000"
 9410      66756E63 
 9410      74696F6E 
 9410      2D736563 
 9410      74696F6E 
 9411              	.LASF54:
 9412 040b 43794465 		.ascii	"CyDelay\000"
 9412      6C617900 
 9413              	.LASF31:
 9414 0413 6973725F 		.ascii	"isr_tmr_handler\000"
 9414      746D725F 
 9414      68616E64 
 9414      6C657200 
 9415              		.ident	"GCC: (GNU Tools for ARM Embedded Processors) 5.4.1 20160609 (release) [ARM/embedded-5-bran
