ARM GAS  C:\Users\info\AppData\Local\Temp\ccKQ3Zl2.s 			page 1


   1              		.syntax unified
   2              		.cpu cortex-m3
   3              		.fpu softvfp
   4              		.eabi_attribute 20, 1
   5              		.eabi_attribute 21, 1
   6              		.eabi_attribute 23, 3
   7              		.eabi_attribute 24, 1
   8              		.eabi_attribute 25, 1
   9              		.eabi_attribute 26, 1
  10              		.eabi_attribute 30, 1
  11              		.eabi_attribute 34, 1
  12              		.eabi_attribute 18, 4
  13              		.thumb
  14              		.syntax unified
  15              		.file	"main.c"
  16              		.text
  17              	.Ltext0:
  18              		.cfi_sections	.debug_frame
  19              		.section	.text.isr_tmr_handler,"ax",%progbits
  20              		.align	2
  21              		.global	isr_tmr_handler
  22              		.thumb
  23              		.thumb_func
  24              		.type	isr_tmr_handler, %function
  25              	isr_tmr_handler:
  26              	.LFB63:
  27              		.file 1 "main.c"
   1:main.c        **** /* ============================================================================
   2:main.c        ****  * CHIP8 Emulator
   3:main.c        ****  * Written By Keshav Gupta, April 2019
   4:main.c        ****  * Technical Reference: http://devernay.free.fr/hacks/chip8/C8TECH10.HTM
   5:main.c        ****  * ============================================================================
   6:main.c        **** */
   7:main.c        **** 
   8:main.c        **** #include "project.h"
   9:main.c        **** #include "ram_init_data.h"
  10:main.c        **** 
  11:main.c        **** /* Instruction Opcodes */
  12:main.c        **** #define OP3_SYSTEM 0x0
  13:main.c        **** #define OP3_JUMP_ABSOLUTE 0x1
  14:main.c        **** #define OP3_JUMP_OFFSET 0xb
  15:main.c        **** #define OP3_CALL_SUBROUTINE 0x2
  16:main.c        **** #define OP3_SKIP_NEXT_EQ_IM 0x3
  17:main.c        **** #define OP3_SKIP_NEXT_NEQ_IM 0x4
  18:main.c        **** #define OP3_SKIP_NEXT_EQ 0x5
  19:main.c        **** #define OP3_SKIP_NEXT_NEQ 0x9
  20:main.c        **** #define OP3_LOAD_V 0x6
  21:main.c        **** #define OP3_ADD_IM 0x7
  22:main.c        **** #define OP3_ARITH 0x8
  23:main.c        **** #define OP3_LOAD_I 0xa
  24:main.c        **** #define OP3_RANDOM 0xc
  25:main.c        **** #define OP3_DRAW 0xd
  26:main.c        **** #define OP3_KEYBOARD 0xe
  27:main.c        **** #define OP3_SPECIAL 0xf
  28:main.c        **** 
  29:main.c        **** #define OP2_SYSTEM 0x0
  30:main.c        **** 
ARM GAS  C:\Users\info\AppData\Local\Temp\ccKQ3Zl2.s 			page 2


  31:main.c        **** #define OP10_SYSTEM_CLEAR 0xe0
  32:main.c        **** #define OP10_SYSTEM_RETURN 0xee
  33:main.c        **** #define OP10_KEYBOARD_EQ 0x9e
  34:main.c        **** #define OP10_KEYBOARD_NEQ 0xa1
  35:main.c        **** #define OP10_SPECIAL_LOAD_DELAY 0x07
  36:main.c        **** #define OP10_SPECIAL_LOAD_KEYBOARD 0x0a
  37:main.c        **** #define OP10_SPECIAL_SET_DELAY 0x15
  38:main.c        **** #define OP10_SPECIAL_SET_SOUND 0x18
  39:main.c        **** #define OP10_SPECIAL_ADD_TO_I 0x1e
  40:main.c        **** #define OP10_SPECIAL_LOAD_FONT 0x29
  41:main.c        **** #define OP10_SPECIAL_LOAD_BCD 0x33
  42:main.c        **** #define OP10_SPECIAL_LOAD_AT_I 0x55
  43:main.c        **** #define OP10_SPECIAL_SET_AT_I 0x65
  44:main.c        **** 
  45:main.c        **** #define OP0_SKIP_NEXT 0x0
  46:main.c        **** #define OP0_ARITH_LOAD 0x0
  47:main.c        **** #define OP0_ARITH_OR 0x1
  48:main.c        **** #define OP0_ARITH_AND 0x2
  49:main.c        **** #define OP0_ARITH_XOR 0x3
  50:main.c        **** #define OP0_ARITH_ADD 0x4
  51:main.c        **** #define OP0_ARITH_SUB 0x5
  52:main.c        **** #define OP0_ARITH_SHR 0x6
  53:main.c        **** #define OP0_ARITH_SUBN 0x7
  54:main.c        **** #define OP0_ARITH_SHL 0xe
  55:main.c        **** 
  56:main.c        **** /* CHIP8 VRAM 
  57:main.c        ****     Each row is one 64bit number
  58:main.c        **** */
  59:main.c        **** uint64_t vram[32];
  60:main.c        **** 
  61:main.c        **** /* CHIP8 Timers 
  62:main.c        ****     Decrement each at 60Hz if not zero
  63:main.c        **** */
  64:main.c        **** uint8_t snd = 0, tmr = 0;
  65:main.c        **** 
  66:main.c        **** /* CHIP8 Keyboard 
  67:main.c        ****     keys stores the current state of each key
  68:main.c        ****         (1 = down, 0 = up)
  69:main.c        ****     lastkey stores the last key that was pressed
  70:main.c        ****     leyflag = 1 if new data available in lastkey
  71:main.c        ****         must be reset to 0 when data used
  72:main.c        **** */
  73:main.c        **** uint8_t keys[16] = {0};
  74:main.c        **** uint8_t lastkey = 0, keyflag = 0;
  75:main.c        **** 
  76:main.c        **** uint8_t led = 0;
  77:main.c        **** 
  78:main.c        **** CY_ISR(isr_tmr_handler){
  28              		.loc 1 78 0
  29              		.cfi_startproc
  30              		@ args = 0, pretend = 0, frame = 0
  31              		@ frame_needed = 0, uses_anonymous_args = 0
  32 0000 08B5     		push	{r3, lr}
  33              		.cfi_def_cfa_offset 8
  34              		.cfi_offset 3, -8
  35              		.cfi_offset 14, -4
  79:main.c        ****     snd = (snd == 0) ? 0 : snd - 1;
ARM GAS  C:\Users\info\AppData\Local\Temp\ccKQ3Zl2.s 			page 3


  36              		.loc 1 79 0
  37 0002 0B4B     		ldr	r3, .L7
  38 0004 1B78     		ldrb	r3, [r3]	@ zero_extendqisi2
  39 0006 0BB1     		cbz	r3, .L2
  40              		.loc 1 79 0 is_stmt 0 discriminator 1
  41 0008 013B     		subs	r3, r3, #1
  42 000a DBB2     		uxtb	r3, r3
  43              	.L2:
  44              		.loc 1 79 0 discriminator 4
  45 000c 084A     		ldr	r2, .L7
  46 000e 1370     		strb	r3, [r2]
  80:main.c        ****     tmr = (tmr == 0) ? 0 : tmr - 1;
  47              		.loc 1 80 0 is_stmt 1 discriminator 4
  48 0010 5278     		ldrb	r2, [r2, #1]	@ zero_extendqisi2
  49 0012 0AB1     		cbz	r2, .L3
  50              		.loc 1 80 0 is_stmt 0 discriminator 1
  51 0014 013A     		subs	r2, r2, #1
  52 0016 D2B2     		uxtb	r2, r2
  53              	.L3:
  54              		.loc 1 80 0 discriminator 4
  55 0018 0549     		ldr	r1, .L7
  56 001a 4A70     		strb	r2, [r1, #1]
  81:main.c        ****     if (snd) {
  57              		.loc 1 81 0 is_stmt 1 discriminator 4
  58 001c 1BB1     		cbz	r3, .L4
  82:main.c        ****         pin_snd_Write(1);
  59              		.loc 1 82 0
  60 001e 0120     		movs	r0, #1
  61 0020 FFF7FEFF 		bl	pin_snd_Write
  62              	.LVL0:
  63 0024 08BD     		pop	{r3, pc}
  64              	.L4:
  83:main.c        ****     } else {
  84:main.c        ****         pin_snd_Write(0);
  65              		.loc 1 84 0
  66 0026 0020     		movs	r0, #0
  67 0028 FFF7FEFF 		bl	pin_snd_Write
  68              	.LVL1:
  69 002c 08BD     		pop	{r3, pc}
  70              	.L8:
  71 002e 00BF     		.align	2
  72              	.L7:
  73 0030 00000000 		.word	.LANCHOR0
  74              		.cfi_endproc
  75              	.LFE63:
  76              		.size	isr_tmr_handler, .-isr_tmr_handler
  77              		.section	.text.main,"ax",%progbits
  78              		.align	2
  79              		.global	main
  80              		.thumb
  81              		.thumb_func
  82              		.type	main, %function
  83              	main:
  84              	.LFB64:
  85:main.c        ****     }
  86:main.c        **** }
  87:main.c        **** 
ARM GAS  C:\Users\info\AppData\Local\Temp\ccKQ3Zl2.s 			page 4


  88:main.c        **** int main(void){
  85              		.loc 1 88 0
  86              		.cfi_startproc
  87              		@ args = 0, pretend = 0, frame = 4184
  88              		@ frame_needed = 0, uses_anonymous_args = 0
  89 0000 2DE9F04F 		push	{r4, r5, r6, r7, r8, r9, r10, fp, lr}
  90              		.cfi_def_cfa_offset 36
  91              		.cfi_offset 4, -36
  92              		.cfi_offset 5, -32
  93              		.cfi_offset 6, -28
  94              		.cfi_offset 7, -24
  95              		.cfi_offset 8, -20
  96              		.cfi_offset 9, -16
  97              		.cfi_offset 10, -12
  98              		.cfi_offset 11, -8
  99              		.cfi_offset 14, -4
 100 0004 ADF5825D 		sub	sp, sp, #4160
 101              		.cfi_def_cfa_offset 4196
 102 0008 87B0     		sub	sp, sp, #28
 103              		.cfi_def_cfa_offset 4224
  89:main.c        ****     /* Start the interrupts */
  90:main.c        ****     isr_timer_StartEx(isr_tmr_handler);
 104              		.loc 1 90 0
 105 000a FD48     		ldr	r0, .L91
 106 000c FFF7FEFF 		bl	isr_timer_StartEx
 107              	.LVL2:
  91:main.c        ****     
  92:main.c        ****     /* Enable global interrupts. */
  93:main.c        ****     CyGlobalIntEnable;
 108              		.loc 1 93 0
 109              		.syntax unified
 110              	@ 93 "main.c" 1
 111 0010 62B6     		CPSIE   i
 112              	@ 0 "" 2
  94:main.c        ****     
  95:main.c        ****     /* CHIP8 RAM*/
  96:main.c        ****     uint8_t ram[4096] = RAM_INITIAL_DATA; // TODO replace with EEPROM access
 113              		.loc 1 96 0
 114              		.thumb
 115              		.syntax unified
 116 0012 4FF48052 		mov	r2, #4096
 117 0016 0021     		movs	r1, #0
 118 0018 16A8     		add	r0, sp, #88
 119 001a FFF7FEFF 		bl	memset
 120              	.LVL3:
 121 001e F023     		movs	r3, #240
 122 0020 8DF85830 		strb	r3, [sp, #88]
 123 0024 9021     		movs	r1, #144
 124 0026 8DF85910 		strb	r1, [sp, #89]
 125 002a 8DF85A10 		strb	r1, [sp, #90]
 126 002e 8DF85B10 		strb	r1, [sp, #91]
 127 0032 8DF85C30 		strb	r3, [sp, #92]
 128 0036 2024     		movs	r4, #32
 129 0038 8DF85D40 		strb	r4, [sp, #93]
 130 003c 4FF06008 		mov	r8, #96
 131 0040 8DF85E80 		strb	r8, [sp, #94]
 132 0044 8DF85F40 		strb	r4, [sp, #95]
ARM GAS  C:\Users\info\AppData\Local\Temp\ccKQ3Zl2.s 			page 5


 133 0048 8DF86040 		strb	r4, [sp, #96]
 134 004c 7022     		movs	r2, #112
 135 004e 8DF86120 		strb	r2, [sp, #97]
 136 0052 8DF86230 		strb	r3, [sp, #98]
 137 0056 1022     		movs	r2, #16
 138 0058 8DF86320 		strb	r2, [sp, #99]
 139 005c 8DF86430 		strb	r3, [sp, #100]
 140 0060 8020     		movs	r0, #128
 141 0062 8DF86500 		strb	r0, [sp, #101]
 142 0066 8DF86630 		strb	r3, [sp, #102]
 143 006a 8DF86730 		strb	r3, [sp, #103]
 144 006e 8DF86820 		strb	r2, [sp, #104]
 145 0072 8DF86930 		strb	r3, [sp, #105]
 146 0076 8DF86A20 		strb	r2, [sp, #106]
 147 007a 8DF86B30 		strb	r3, [sp, #107]
 148 007e 8DF86C10 		strb	r1, [sp, #108]
 149 0082 8DF86D10 		strb	r1, [sp, #109]
 150 0086 8DF86E30 		strb	r3, [sp, #110]
 151 008a 8DF86F20 		strb	r2, [sp, #111]
 152 008e 8DF87020 		strb	r2, [sp, #112]
 153 0092 8DF87130 		strb	r3, [sp, #113]
 154 0096 8DF87200 		strb	r0, [sp, #114]
 155 009a 8DF87330 		strb	r3, [sp, #115]
 156 009e 8DF87420 		strb	r2, [sp, #116]
 157 00a2 8DF87530 		strb	r3, [sp, #117]
 158 00a6 8DF87630 		strb	r3, [sp, #118]
 159 00aa 8DF87700 		strb	r0, [sp, #119]
 160 00ae 8DF87830 		strb	r3, [sp, #120]
 161 00b2 8DF87910 		strb	r1, [sp, #121]
 162 00b6 8DF87A30 		strb	r3, [sp, #122]
 163 00ba 8DF87B30 		strb	r3, [sp, #123]
 164 00be 8DF87C20 		strb	r2, [sp, #124]
 165 00c2 8DF87D40 		strb	r4, [sp, #125]
 166 00c6 4024     		movs	r4, #64
 167 00c8 8DF87E40 		strb	r4, [sp, #126]
 168 00cc 8DF87F40 		strb	r4, [sp, #127]
 169 00d0 8DF88030 		strb	r3, [sp, #128]
 170 00d4 8DF88110 		strb	r1, [sp, #129]
 171 00d8 8DF88230 		strb	r3, [sp, #130]
 172 00dc 8DF88310 		strb	r1, [sp, #131]
 173 00e0 8DF88430 		strb	r3, [sp, #132]
 174 00e4 8DF88530 		strb	r3, [sp, #133]
 175 00e8 8DF88610 		strb	r1, [sp, #134]
 176 00ec 8DF88730 		strb	r3, [sp, #135]
 177 00f0 8DF88820 		strb	r2, [sp, #136]
 178 00f4 8DF88930 		strb	r3, [sp, #137]
 179 00f8 8DF88A30 		strb	r3, [sp, #138]
 180 00fc 8DF88B10 		strb	r1, [sp, #139]
 181 0100 8DF88C30 		strb	r3, [sp, #140]
 182 0104 8DF88D10 		strb	r1, [sp, #141]
 183 0108 8DF88E10 		strb	r1, [sp, #142]
 184 010c E024     		movs	r4, #224
 185 010e 8DF88F40 		strb	r4, [sp, #143]
 186 0112 8DF89010 		strb	r1, [sp, #144]
 187 0116 8DF89140 		strb	r4, [sp, #145]
 188 011a 8DF89210 		strb	r1, [sp, #146]
 189 011e 8DF89340 		strb	r4, [sp, #147]
ARM GAS  C:\Users\info\AppData\Local\Temp\ccKQ3Zl2.s 			page 6


 190 0122 8DF89430 		strb	r3, [sp, #148]
 191 0126 8DF89500 		strb	r0, [sp, #149]
 192 012a 8DF89600 		strb	r0, [sp, #150]
 193 012e 8DF89700 		strb	r0, [sp, #151]
 194 0132 8DF89830 		strb	r3, [sp, #152]
 195 0136 8DF89940 		strb	r4, [sp, #153]
 196 013a 8DF89A10 		strb	r1, [sp, #154]
 197 013e 8DF89B10 		strb	r1, [sp, #155]
 198 0142 8DF89C10 		strb	r1, [sp, #156]
 199 0146 8DF89D40 		strb	r4, [sp, #157]
 200 014a 8DF89E30 		strb	r3, [sp, #158]
 201 014e 8DF89F00 		strb	r0, [sp, #159]
 202 0152 8DF8A030 		strb	r3, [sp, #160]
 203 0156 8DF8A100 		strb	r0, [sp, #161]
 204 015a 8DF8A230 		strb	r3, [sp, #162]
 205 015e 8DF8A330 		strb	r3, [sp, #163]
 206 0162 8DF8A400 		strb	r0, [sp, #164]
 207 0166 8DF8A530 		strb	r3, [sp, #165]
 208 016a 8DF8A600 		strb	r0, [sp, #166]
 209 016e 8DF8A700 		strb	r0, [sp, #167]
 210 0172 8DF85942 		strb	r4, [sp, #601]
 211 0176 6320     		movs	r0, #99
 212 0178 8DF85A02 		strb	r0, [sp, #602]
 213 017c 6424     		movs	r4, #100
 214 017e 8DF85C42 		strb	r4, [sp, #604]
 215 0182 0125     		movs	r5, #1
 216 0184 8DF85D52 		strb	r5, [sp, #605]
 217 0188 6521     		movs	r1, #101
 218 018a 8DF85E12 		strb	r1, [sp, #606]
 219 018e EE27     		movs	r7, #238
 220 0190 8DF85F72 		strb	r7, [sp, #607]
 221 0194 4FF03506 		mov	r6, #53
 222 0198 8DF86062 		strb	r6, [sp, #608]
 223 019c 8DF86172 		strb	r7, [sp, #609]
 224 01a0 1326     		movs	r6, #19
 225 01a2 8DF86262 		strb	r6, [sp, #610]
 226 01a6 8DF86322 		strb	r2, [sp, #611]
 227 01aa 8DF86402 		strb	r0, [sp, #612]
 228 01ae 8DF86642 		strb	r4, [sp, #614]
 229 01b2 4FF0020E 		mov	lr, #2
 230 01b6 8DF867E2 		strb	lr, [sp, #615]
 231 01ba 8DF86812 		strb	r1, [sp, #616]
 232 01be 8DF86972 		strb	r7, [sp, #617]
 233 01c2 4FF0660C 		mov	ip, #102
 234 01c6 8DF86AC2 		strb	ip, [sp, #618]
 235 01ca 8DF86B72 		strb	r7, [sp, #619]
 236 01ce 4FF0550E 		mov	lr, #85
 237 01d2 8DF86CE2 		strb	lr, [sp, #620]
 238 01d6 8DF86D82 		strb	r8, [sp, #621]
 239 01da 8DF86E62 		strb	r6, [sp, #622]
 240 01de 8DF86F22 		strb	r2, [sp, #623]
 241 01e2 8DF87002 		strb	r0, [sp, #624]
 242 01e6 8DF87242 		strb	r4, [sp, #626]
 243 01ea 4FF0030E 		mov	lr, #3
 244 01ee 8DF873E2 		strb	lr, [sp, #627]
 245 01f2 8DF87412 		strb	r1, [sp, #628]
 246 01f6 8DF87572 		strb	r7, [sp, #629]
ARM GAS  C:\Users\info\AppData\Local\Temp\ccKQ3Zl2.s 			page 7


 247 01fa 4FF0450E 		mov	lr, #69
 248 01fe 8DF876E2 		strb	lr, [sp, #630]
 249 0202 4FF0FD0E 		mov	lr, #253
 250 0206 8DF877E2 		strb	lr, [sp, #631]
 251 020a 8DF87862 		strb	r6, [sp, #632]
 252 020e 8DF87922 		strb	r2, [sp, #633]
 253 0212 8DF87A02 		strb	r0, [sp, #634]
 254 0216 8DF87C42 		strb	r4, [sp, #636]
 255 021a 4FF0040E 		mov	lr, #4
 256 021e 8DF87DE2 		strb	lr, [sp, #637]
 257 0222 8DF87E12 		strb	r1, [sp, #638]
 258 0226 8DF87F72 		strb	r7, [sp, #639]
 259 022a 4FF0750E 		mov	lr, #117
 260 022e 8DF880E2 		strb	lr, [sp, #640]
 261 0232 8DF88152 		strb	r5, [sp, #641]
 262 0236 4FF0350E 		mov	lr, #53
 263 023a 8DF882E2 		strb	lr, [sp, #642]
 264 023e 4FF0EF0B 		mov	fp, #239
 265 0242 8DF883B2 		strb	fp, [sp, #643]
 266 0246 8DF88462 		strb	r6, [sp, #644]
 267 024a 8DF88522 		strb	r2, [sp, #645]
 268 024e 8DF88602 		strb	r0, [sp, #646]
 269 0252 8DF88842 		strb	r4, [sp, #648]
 270 0256 4FF0050E 		mov	lr, #5
 271 025a 8DF889E2 		strb	lr, [sp, #649]
 272 025e 4FF06F08 		mov	r8, #111
 273 0262 8DF88A82 		strb	r8, [sp, #650]
 274 0266 8DF88B52 		strb	r5, [sp, #651]
 275 026a 8DF88C12 		strb	r1, [sp, #652]
 276 026e 8DF88D72 		strb	r7, [sp, #653]
 277 0272 8DF88EC2 		strb	ip, [sp, #654]
 278 0276 8DF88FB2 		strb	fp, [sp, #655]
 279 027a 4FF0850E 		mov	lr, #133
 280 027e 8DF890E2 		strb	lr, [sp, #656]
 281 0282 8DF89112 		strb	r1, [sp, #657]
 282 0286 4FF03F0A 		mov	r10, #63
 283 028a 8DF892A2 		strb	r10, [sp, #658]
 284 028e 8DF89462 		strb	r6, [sp, #660]
 285 0292 8DF89522 		strb	r2, [sp, #661]
 286 0296 8DF89602 		strb	r0, [sp, #662]
 287 029a 8DF89842 		strb	r4, [sp, #664]
 288 029e 4FF00609 		mov	r9, #6
 289 02a2 8DF89992 		strb	r9, [sp, #665]
 290 02a6 8DF89A82 		strb	r8, [sp, #666]
 291 02aa 8DF89C12 		strb	r1, [sp, #668]
 292 02ae 8DF89DB2 		strb	fp, [sp, #669]
 293 02b2 8DF89EC2 		strb	ip, [sp, #670]
 294 02b6 8DF89F72 		strb	r7, [sp, #671]
 295 02ba 8DF8A0E2 		strb	lr, [sp, #672]
 296 02be 8DF8A112 		strb	r1, [sp, #673]
 297 02c2 8DF8A2A2 		strb	r10, [sp, #674]
 298 02c6 8DF8A352 		strb	r5, [sp, #675]
 299 02ca 8DF8A462 		strb	r6, [sp, #676]
 300 02ce 8DF8A522 		strb	r2, [sp, #677]
 301 02d2 8DF8A682 		strb	r8, [sp, #678]
 302 02d6 8DF8A802 		strb	r0, [sp, #680]
 303 02da 8DF8AA42 		strb	r4, [sp, #682]
ARM GAS  C:\Users\info\AppData\Local\Temp\ccKQ3Zl2.s 			page 8


 304 02de 4FF00709 		mov	r9, #7
 305 02e2 8DF8AB92 		strb	r9, [sp, #683]
 306 02e6 8DF8AC12 		strb	r1, [sp, #684]
 307 02ea 8DF8AD72 		strb	r7, [sp, #685]
 308 02ee 8DF8AEC2 		strb	ip, [sp, #686]
 309 02f2 8DF8AFB2 		strb	fp, [sp, #687]
 310 02f6 8DF8B0E2 		strb	lr, [sp, #688]
 311 02fa 4FF06709 		mov	r9, #103
 312 02fe 8DF8B192 		strb	r9, [sp, #689]
 313 0302 8DF8B2A2 		strb	r10, [sp, #690]
 314 0306 8DF8B352 		strb	r5, [sp, #691]
 315 030a 8DF8B462 		strb	r6, [sp, #692]
 316 030e 8DF8B522 		strb	r2, [sp, #693]
 317 0312 8DF8B602 		strb	r0, [sp, #694]
 318 0316 8DF8B842 		strb	r4, [sp, #696]
 319 031a 4FF00809 		mov	r9, #8
 320 031e 8DF8B992 		strb	r9, [sp, #697]
 321 0322 8DF8BA82 		strb	r8, [sp, #698]
 322 0326 8DF8BB52 		strb	r5, [sp, #699]
 323 032a 8DF8BC12 		strb	r1, [sp, #700]
 324 032e 8DF8BDB2 		strb	fp, [sp, #701]
 325 0332 8DF8BEC2 		strb	ip, [sp, #702]
 326 0336 8DF8BF72 		strb	r7, [sp, #703]
 327 033a 8DF8C0E2 		strb	lr, [sp, #704]
 328 033e 4FF06707 		mov	r7, #103
 329 0342 8DF8C172 		strb	r7, [sp, #705]
 330 0346 8DF8C2A2 		strb	r10, [sp, #706]
 331 034a 8DF8C462 		strb	r6, [sp, #708]
 332 034e 8DF8C522 		strb	r2, [sp, #709]
 333 0352 8DF8C602 		strb	r0, [sp, #710]
 334 0356 8DF8C842 		strb	r4, [sp, #712]
 335 035a 0927     		movs	r7, #9
 336 035c 8DF8C972 		strb	r7, [sp, #713]
 337 0360 8DF8CA12 		strb	r1, [sp, #714]
 338 0364 8DF8CB32 		strb	r3, [sp, #715]
 339 0368 8DF8CCC2 		strb	ip, [sp, #716]
 340 036c 4FF00F09 		mov	r9, #15
 341 0370 8DF8CD92 		strb	r9, [sp, #717]
 342 0374 8DF8CEE2 		strb	lr, [sp, #718]
 343 0378 6127     		movs	r7, #97
 344 037a 8DF8CF72 		strb	r7, [sp, #719]
 345 037e 4FF03507 		mov	r7, #53
 346 0382 8DF8D072 		strb	r7, [sp, #720]
 347 0386 4FF0FF0B 		mov	fp, #255
 348 038a 8DF8D1B2 		strb	fp, [sp, #721]
 349 038e 8DF8D262 		strb	r6, [sp, #722]
 350 0392 8DF8D322 		strb	r2, [sp, #723]
 351 0396 8DF8D402 		strb	r0, [sp, #724]
 352 039a 8DF8D552 		strb	r5, [sp, #725]
 353 039e 8DF8D642 		strb	r4, [sp, #726]
 354 03a2 8DF8D812 		strb	r1, [sp, #728]
 355 03a6 8DF8D932 		strb	r3, [sp, #729]
 356 03aa 8DF8DAC2 		strb	ip, [sp, #730]
 357 03ae 8DF8DB92 		strb	r9, [sp, #731]
 358 03b2 8DF8DCE2 		strb	lr, [sp, #732]
 359 03b6 6227     		movs	r7, #98
 360 03b8 8DF8DD72 		strb	r7, [sp, #733]
ARM GAS  C:\Users\info\AppData\Local\Temp\ccKQ3Zl2.s 			page 9


 361 03bc 4FF03507 		mov	r7, #53
 362 03c0 8DF8DE72 		strb	r7, [sp, #734]
 363 03c4 8DF8E062 		strb	r6, [sp, #736]
 364 03c8 8DF8E122 		strb	r2, [sp, #737]
 365 03cc 8DF8E202 		strb	r0, [sp, #738]
 366 03d0 8DF8E352 		strb	r5, [sp, #739]
 367 03d4 8DF8E442 		strb	r4, [sp, #740]
 368 03d8 8DF8E552 		strb	r5, [sp, #741]
 369 03dc 8DF8E612 		strb	r1, [sp, #742]
 370 03e0 8DF8E732 		strb	r3, [sp, #743]
 371 03e4 8DF8E8C2 		strb	ip, [sp, #744]
 372 03e8 8DF8E992 		strb	r9, [sp, #745]
 373 03ec 8DF8EAE2 		strb	lr, [sp, #746]
 374 03f0 8DF8EB02 		strb	r0, [sp, #747]
 375 03f4 8DF8EC72 		strb	r7, [sp, #748]
 376 03f8 8DF8EDB2 		strb	fp, [sp, #749]
 377 03fc 02E0     		b	.L92
 378              	.L93:
 379 03fe 00BF     		.align	2
 380              	.L91:
 381 0400 00000000 		.word	isr_tmr_handler
 382              	.L92:
 383 0404 8DF8EE62 		strb	r6, [sp, #750]
 384 0408 8DF8EF22 		strb	r2, [sp, #751]
 385 040c 8DF8F082 		strb	r8, [sp, #752]
 386 0410 8DF8F202 		strb	r0, [sp, #754]
 387 0414 8DF8F352 		strb	r5, [sp, #755]
 388 0418 8DF8F442 		strb	r4, [sp, #756]
 389 041c 4FF00203 		mov	r3, #2
 390 0420 8DF8F532 		strb	r3, [sp, #757]
 391 0424 8DF8F612 		strb	r1, [sp, #758]
 392 0428 8123     		movs	r3, #129
 393 042a 8DF8F732 		strb	r3, [sp, #759]
 394 042e 8DF8F8E2 		strb	lr, [sp, #760]
 395 0432 0E27     		movs	r7, #14
 396 0434 8DF8F972 		strb	r7, [sp, #761]
 397 0438 8DF8FAA2 		strb	r10, [sp, #762]
 398 043c 8DF8FB52 		strb	r5, [sp, #763]
 399 0440 8DF8FC62 		strb	r6, [sp, #764]
 400 0444 8DF8FD22 		strb	r2, [sp, #765]
 401 0448 8DF8FE02 		strb	r0, [sp, #766]
 402 044c 8DF8FF52 		strb	r5, [sp, #767]
 403 0450 8DF80043 		strb	r4, [sp, #768]
 404 0454 4FF00303 		mov	r3, #3
 405 0458 8DF80133 		strb	r3, [sp, #769]
 406 045c 8DF80283 		strb	r8, [sp, #770]
 407 0460 8DF80353 		strb	r5, [sp, #771]
 408 0464 8DF80413 		strb	r1, [sp, #772]
 409 0468 4723     		movs	r3, #71
 410 046a 8DF80533 		strb	r3, [sp, #773]
 411 046e 8DF806E3 		strb	lr, [sp, #774]
 412 0472 8DF80773 		strb	r7, [sp, #775]
 413 0476 8DF808A3 		strb	r10, [sp, #776]
 414 047a 8DF80A63 		strb	r6, [sp, #778]
 415 047e 8DF80B23 		strb	r2, [sp, #779]
 416 0482 8DF80C03 		strb	r0, [sp, #780]
 417 0486 8DF80D53 		strb	r5, [sp, #781]
ARM GAS  C:\Users\info\AppData\Local\Temp\ccKQ3Zl2.s 			page 10


 418 048a 8DF80E43 		strb	r4, [sp, #782]
 419 048e 4FF00403 		mov	r3, #4
 420 0492 8DF80F33 		strb	r3, [sp, #783]
 421 0496 8DF81083 		strb	r8, [sp, #784]
 422 049a 8DF81213 		strb	r1, [sp, #786]
 423 049e 2846     		mov	r0, r5
 424 04a0 8DF81353 		strb	r5, [sp, #787]
 425 04a4 8DF814E3 		strb	lr, [sp, #788]
 426 04a8 0623     		movs	r3, #6
 427 04aa 8DF81533 		strb	r3, [sp, #789]
 428 04ae 5246     		mov	r2, r10
 429 04b0 8DF816A3 		strb	r10, [sp, #790]
 430 04b4 8DF81753 		strb	r5, [sp, #791]
 431 04b8 3146     		mov	r1, r6
 432 04ba 8DF81863 		strb	r6, [sp, #792]
 433 04be 1025     		movs	r5, #16
 434 04c0 8DF81953 		strb	r5, [sp, #793]
 435 04c4 4FF0630A 		mov	r10, #99
 436 04c8 8DF81AA3 		strb	r10, [sp, #794]
 437 04cc 8DF81B03 		strb	r0, [sp, #795]
 438 04d0 4FF0640C 		mov	ip, #100
 439 04d4 8DF81CC3 		strb	ip, [sp, #796]
 440 04d8 4FF00506 		mov	r6, #5
 441 04dc 8DF81D63 		strb	r6, [sp, #797]
 442 04e0 8DF81E83 		strb	r8, [sp, #798]
 443 04e4 8DF81F03 		strb	r0, [sp, #799]
 444 04e8 4FF06508 		mov	r8, #101
 445 04ec 8DF82083 		strb	r8, [sp, #800]
 446 04f0 4FF00206 		mov	r6, #2
 447 04f4 8DF82163 		strb	r6, [sp, #801]
 448 04f8 8DF822E3 		strb	lr, [sp, #802]
 449 04fc 8DF82333 		strb	r3, [sp, #803]
 450 0500 8DF82423 		strb	r2, [sp, #804]
 451 0504 8DF82613 		strb	r1, [sp, #806]
 452 0508 8DF82753 		strb	r5, [sp, #807]
 453 050c 8DF828A3 		strb	r10, [sp, #808]
 454 0510 8DF82903 		strb	r0, [sp, #809]
 455 0514 8DF82AC3 		strb	ip, [sp, #810]
 456 0518 8DF82B33 		strb	r3, [sp, #811]
 457 051c 6023     		movs	r3, #96
 458 051e 8DF82C33 		strb	r3, [sp, #812]
 459 0522 4FF01509 		mov	r9, #21
 460 0526 8DF82D93 		strb	r9, [sp, #813]
 461 052a 6127     		movs	r7, #97
 462 052c 8DF82E73 		strb	r7, [sp, #814]
 463 0530 4FF07802 		mov	r2, #120
 464 0534 8DF82F23 		strb	r2, [sp, #815]
 465 0538 4FF0A30E 		mov	lr, #163
 466 053c 8DF830E3 		strb	lr, [sp, #816]
 467 0540 D024     		movs	r4, #208
 468 0542 8DF83143 		strb	r4, [sp, #817]
 469 0546 F122     		movs	r2, #241
 470 0548 8DF83223 		strb	r2, [sp, #818]
 471 054c 5526     		movs	r6, #85
 472 054e 8DF83363 		strb	r6, [sp, #819]
 473 0552 8DF83423 		strb	r2, [sp, #820]
 474 0556 8DF83583 		strb	r8, [sp, #821]
ARM GAS  C:\Users\info\AppData\Local\Temp\ccKQ3Zl2.s 			page 11


 475 055a 3026     		movs	r6, #48
 476 055c 8DF83663 		strb	r6, [sp, #822]
 477 0560 8DF83793 		strb	r9, [sp, #823]
 478 0564 8DF83813 		strb	r1, [sp, #824]
 479 0568 8DF83953 		strb	r5, [sp, #825]
 480 056c 3122     		movs	r2, #49
 481 056e 8DF83A23 		strb	r2, [sp, #826]
 482 0572 4FF07802 		mov	r2, #120
 483 0576 8DF83B23 		strb	r2, [sp, #827]
 484 057a 8DF83C13 		strb	r1, [sp, #828]
 485 057e 8DF83D53 		strb	r5, [sp, #829]
 486 0582 8DF83EA3 		strb	r10, [sp, #830]
 487 0586 8DF83F03 		strb	r0, [sp, #831]
 488 058a 8DF840C3 		strb	ip, [sp, #832]
 489 058e 0722     		movs	r2, #7
 490 0590 8DF84123 		strb	r2, [sp, #833]
 491 0594 8DF84233 		strb	r3, [sp, #834]
 492 0598 8A22     		movs	r2, #138
 493 059a 8DF84323 		strb	r2, [sp, #835]
 494 059e 8DF844E3 		strb	lr, [sp, #836]
 495 05a2 8DF84543 		strb	r4, [sp, #837]
 496 05a6 F022     		movs	r2, #240
 497 05a8 8DF84623 		strb	r2, [sp, #838]
 498 05ac 4FF0330C 		mov	ip, #51
 499 05b0 8DF847C3 		strb	ip, [sp, #839]
 500 05b4 8DF848E3 		strb	lr, [sp, #840]
 501 05b8 8DF84943 		strb	r4, [sp, #841]
 502 05bc 8DF84A23 		strb	r2, [sp, #842]
 503 05c0 8DF84B83 		strb	r8, [sp, #843]
 504 05c4 8DF84C63 		strb	r6, [sp, #844]
 505 05c8 8DF84D03 		strb	r0, [sp, #845]
 506 05cc 8DF84E13 		strb	r1, [sp, #846]
 507 05d0 8DF84F53 		strb	r5, [sp, #847]
 508 05d4 8DF85033 		strb	r3, [sp, #848]
 509 05d8 8DF85103 		strb	r0, [sp, #849]
 510 05dc 8DF85223 		strb	r2, [sp, #850]
 511 05e0 4FF01E0B 		mov	fp, #30
 512 05e4 8DF853B3 		strb	fp, [sp, #851]
 513 05e8 8DF85423 		strb	r2, [sp, #852]
 514 05ec 8DF85583 		strb	r8, [sp, #853]
 515 05f0 8DF85663 		strb	r6, [sp, #854]
 516 05f4 4FF0030C 		mov	ip, #3
 517 05f8 8DF857C3 		strb	ip, [sp, #855]
 518 05fc 8DF85813 		strb	r1, [sp, #856]
 519 0600 8DF85953 		strb	r5, [sp, #857]
 520 0604 8DF85A33 		strb	r3, [sp, #858]
 521 0608 8DF85B03 		strb	r0, [sp, #859]
 522 060c 8DF85C23 		strb	r2, [sp, #860]
 523 0610 8DF85DB3 		strb	fp, [sp, #861]
 524 0614 8DF85E23 		strb	r2, [sp, #862]
 525 0618 8DF85F83 		strb	r8, [sp, #863]
 526 061c 8DF86063 		strb	r6, [sp, #864]
 527 0620 4FF0080C 		mov	ip, #8
 528 0624 8DF861C3 		strb	ip, [sp, #865]
 529 0628 8DF86213 		strb	r1, [sp, #866]
 530 062c 8DF86353 		strb	r5, [sp, #867]
 531 0630 8DF86413 		strb	r1, [sp, #868]
ARM GAS  C:\Users\info\AppData\Local\Temp\ccKQ3Zl2.s 			page 12


 532 0634 3220     		movs	r0, #50
 533 0636 8DF86503 		strb	r0, [sp, #869]
 534 063a 8DF86613 		strb	r1, [sp, #870]
 535 063e 4FF00E00 		mov	r0, #14
 536 0642 8DF86703 		strb	r0, [sp, #871]
 537 0646 8DF868E3 		strb	lr, [sp, #872]
 538 064a 2A20     		movs	r0, #42
 539 064c 8DF86903 		strb	r0, [sp, #873]
 540 0650 8DF86A33 		strb	r3, [sp, #874]
 541 0654 8DF86B13 		strb	r1, [sp, #875]
 542 0658 8DF86C73 		strb	r7, [sp, #876]
 543 065c 0920     		movs	r0, #9
 544 065e 8DF86D03 		strb	r0, [sp, #877]
 545 0662 8DF86E43 		strb	r4, [sp, #878]
 546 0666 4FF01808 		mov	r8, #24
 547 066a 8DF86F83 		strb	r8, [sp, #879]
 548 066e 6FF00C00 		mvn	r0, #12
 549 0672 8DF87003 		strb	r0, [sp, #880]
 550 0676 4FF02900 		mov	r0, #41
 551 067a 8DF87103 		strb	r0, [sp, #881]
 552 067e 8DF87233 		strb	r3, [sp, #882]
 553 0682 2225     		movs	r5, #34
 554 0684 8DF87353 		strb	r5, [sp, #883]
 555 0688 8DF87473 		strb	r7, [sp, #884]
 556 068c 0B25     		movs	r5, #11
 557 068e 8DF87553 		strb	r5, [sp, #885]
 558 0692 8DF87643 		strb	r4, [sp, #886]
 559 0696 8DF87793 		strb	r9, [sp, #887]
 560 069a 6FF00B00 		mvn	r0, #11
 561 069e 8DF87803 		strb	r0, [sp, #888]
 562 06a2 4FF02900 		mov	r0, #41
 563 06a6 8DF87903 		strb	r0, [sp, #889]
 564 06aa 8DF87A33 		strb	r3, [sp, #890]
 565 06ae 2820     		movs	r0, #40
 566 06b0 8DF87B03 		strb	r0, [sp, #891]
 567 06b4 8DF87C73 		strb	r7, [sp, #892]
 568 06b8 8DF87D53 		strb	r5, [sp, #893]
 569 06bc 8DF87E43 		strb	r4, [sp, #894]
 570 06c0 8DF87F93 		strb	r9, [sp, #895]
 571 06c4 8DF88013 		strb	r1, [sp, #896]
 572 06c8 4FF00E00 		mov	r0, #14
 573 06cc 8DF88103 		strb	r0, [sp, #897]
 574 06d0 FF20     		movs	r0, #255
 575 06d2 8DF88203 		strb	r0, [sp, #898]
 576 06d6 8DF88323 		strb	r2, [sp, #899]
 577 06da 8DF88423 		strb	r2, [sp, #900]
 578 06de 8DF88503 		strb	r0, [sp, #901]
 579 06e2 8DF88623 		strb	r2, [sp, #902]
 580 06e6 8DF88723 		strb	r2, [sp, #903]
 581 06ea 8DF88823 		strb	r2, [sp, #904]
 582 06ee 8DF88903 		strb	r0, [sp, #905]
 583 06f2 8DF88AE3 		strb	lr, [sp, #906]
 584 06f6 5820     		movs	r0, #88
 585 06f8 8DF88B03 		strb	r0, [sp, #907]
 586 06fc 8DF88C33 		strb	r3, [sp, #908]
 587 0700 8DF88D93 		strb	r9, [sp, #909]
 588 0704 8DF88E73 		strb	r7, [sp, #910]
ARM GAS  C:\Users\info\AppData\Local\Temp\ccKQ3Zl2.s 			page 13


 589 0708 8DF88F53 		strb	r5, [sp, #911]
 590 070c 8DF890A3 		strb	r10, [sp, #912]
 591 0710 8DF891C3 		strb	ip, [sp, #913]
 592 0714 8DF89243 		strb	r4, [sp, #914]
 593 0718 8DF89383 		strb	r8, [sp, #915]
 594 071c 7025     		movs	r5, #112
 595 071e 8DF89453 		strb	r5, [sp, #916]
 596 0722 8DF895C3 		strb	ip, [sp, #917]
 597 0726 6FF00C00 		mvn	r0, #12
 598 072a 8DF89603 		strb	r0, [sp, #918]
 599 072e 8DF897B3 		strb	fp, [sp, #919]
 600 0732 8DF89863 		strb	r6, [sp, #920]
 601 0736 2D20     		movs	r0, #45
 602 0738 8DF89903 		strb	r0, [sp, #921]
 603 073c 8DF89A13 		strb	r1, [sp, #922]
 604 0740 3A20     		movs	r0, #58
 605 0742 8DF89B03 		strb	r0, [sp, #923]
 606 0746 8DF89CE3 		strb	lr, [sp, #924]
 607 074a 8DF89D53 		strb	r5, [sp, #925]
 608 074e 8DF89E33 		strb	r3, [sp, #926]
 609 0752 4FF00200 		mov	r0, #2
 610 0756 8DF89F03 		strb	r0, [sp, #927]
 611 075a 8DF8A073 		strb	r7, [sp, #928]
 612 075e 8DF8A183 		strb	r8, [sp, #929]
 613 0762 8DF8A2A3 		strb	r10, [sp, #930]
 614 0766 8DF8A3C3 		strb	ip, [sp, #931]
 615 076a 8DF8A443 		strb	r4, [sp, #932]
 616 076e 8DF8A583 		strb	r8, [sp, #933]
 617 0772 8DF8A653 		strb	r5, [sp, #934]
 618 0776 4FF00500 		mov	r0, #5
 619 077a 8DF8A703 		strb	r0, [sp, #935]
 620 077e 6FF00C00 		mvn	r0, #12
 621 0782 8DF8A803 		strb	r0, [sp, #936]
 622 0786 8DF8A9B3 		strb	fp, [sp, #937]
 623 078a 8DF8AA63 		strb	r6, [sp, #938]
 624 078e 3E20     		movs	r0, #62
 625 0790 8DF8AB03 		strb	r0, [sp, #939]
 626 0794 8DF8AC13 		strb	r1, [sp, #940]
 627 0798 4C20     		movs	r0, #76
 628 079a 8DF8AD03 		strb	r0, [sp, #941]
 629 079e 8DF8AE13 		strb	r1, [sp, #942]
 630 07a2 4FF00E01 		mov	r1, #14
 631 07a6 8DF8AF13 		strb	r1, [sp, #943]
 632 07aa 8DF8B023 		strb	r2, [sp, #944]
 633 07ae 8821     		movs	r1, #136
 634 07b0 8DF8B113 		strb	r1, [sp, #945]
 635 07b4 8DF8B213 		strb	r1, [sp, #946]
 636 07b8 8DF8B323 		strb	r2, [sp, #947]
 637 07bc 8DF8B413 		strb	r1, [sp, #948]
 638 07c0 8DF8B513 		strb	r1, [sp, #949]
 639 07c4 8DF8B613 		strb	r1, [sp, #950]
 640 07c8 8DF8B723 		strb	r2, [sp, #951]
 641 07cc 4FF07802 		mov	r2, #120
 642 07d0 8DF8B823 		strb	r2, [sp, #952]
 643 07d4 8422     		movs	r2, #132
 644 07d6 8DF8B923 		strb	r2, [sp, #953]
 645 07da 8DF8BA23 		strb	r2, [sp, #954]
ARM GAS  C:\Users\info\AppData\Local\Temp\ccKQ3Zl2.s 			page 14


 646 07de 8DF8BB23 		strb	r2, [sp, #955]
 647 07e2 8DF8BC23 		strb	r2, [sp, #956]
 648 07e6 8DF8BD23 		strb	r2, [sp, #957]
 649 07ea 8DF8BE23 		strb	r2, [sp, #958]
 650 07ee 4FF07801 		mov	r1, #120
 651 07f2 8DF8BF13 		strb	r1, [sp, #959]
 652 07f6 8DF8C023 		strb	r2, [sp, #960]
 653 07fa C421     		movs	r1, #196
 654 07fc 8DF8C113 		strb	r1, [sp, #961]
 655 0800 A421     		movs	r1, #164
 656 0802 8DF8C213 		strb	r1, [sp, #962]
 657 0806 9421     		movs	r1, #148
 658 0808 8DF8C313 		strb	r1, [sp, #963]
 659 080c 8C21     		movs	r1, #140
 660 080e 8DF8C413 		strb	r1, [sp, #964]
 661 0812 8DF8C523 		strb	r2, [sp, #965]
 662 0816 8DF8C623 		strb	r2, [sp, #966]
 663 081a 8DF8C723 		strb	r2, [sp, #967]
 664 081e C024     		movs	r4, #192
 665 0820 8DF8C843 		strb	r4, [sp, #968]
 666 0824 A021     		movs	r1, #160
 667 0826 8DF8C913 		strb	r1, [sp, #969]
 668 082a 8DF8CA13 		strb	r1, [sp, #970]
 669 082e 8DF8CB43 		strb	r4, [sp, #971]
 670 0832 8DF8CC13 		strb	r1, [sp, #972]
 671 0836 8DF8CD13 		strb	r1, [sp, #973]
 672 083a 8DF8CE43 		strb	r4, [sp, #974]
 673 083e 8DF8D213 		strb	r1, [sp, #978]
 674 0842 8DF8D313 		strb	r1, [sp, #979]
 675 0846 E026     		movs	r6, #224
 676 0848 8DF8D463 		strb	r6, [sp, #980]
 677 084c 2022     		movs	r2, #32
 678 084e 8DF8D523 		strb	r2, [sp, #981]
 679 0852 8DF8D623 		strb	r2, [sp, #982]
 680 0856 8DF8D763 		strb	r6, [sp, #983]
 681 085a 8DF8E043 		strb	r4, [sp, #992]
 682 085e 8DF8E113 		strb	r1, [sp, #993]
 683 0862 8DF8E213 		strb	r1, [sp, #994]
 684 0866 8DF8E343 		strb	r4, [sp, #995]
 685 086a 8DF8E413 		strb	r1, [sp, #996]
 686 086e 8DF8E513 		strb	r1, [sp, #997]
 687 0872 8DF8E643 		strb	r4, [sp, #998]
 688 0876 8DF8EA33 		strb	r3, [sp, #1002]
 689 087a 8DF8EB13 		strb	r1, [sp, #1003]
 690 087e 8DF8EC43 		strb	r4, [sp, #1004]
 691 0882 8020     		movs	r0, #128
 692 0884 8DF8ED03 		strb	r0, [sp, #1005]
 693 0888 8DF8EE33 		strb	r3, [sp, #1006]
 694 088c 8DF8F233 		strb	r3, [sp, #1010]
 695 0890 8DF8F303 		strb	r0, [sp, #1011]
 696 0894 4025     		movs	r5, #64
 697 0896 8DF8F453 		strb	r5, [sp, #1012]
 698 089a 8DF8F523 		strb	r2, [sp, #1013]
 699 089e 8DF8F643 		strb	r4, [sp, #1014]
 700 08a2 8DF8F803 		strb	r0, [sp, #1016]
 701 08a6 8DF8F903 		strb	r0, [sp, #1017]
 702 08aa 8DF8FA43 		strb	r4, [sp, #1018]
ARM GAS  C:\Users\info\AppData\Local\Temp\ccKQ3Zl2.s 			page 15


 703 08ae 8DF8FB03 		strb	r0, [sp, #1019]
 704 08b2 8DF8FC03 		strb	r0, [sp, #1020]
 705 08b6 8DF8FD03 		strb	r0, [sp, #1021]
 706 08ba 8DF8FE33 		strb	r3, [sp, #1022]
 707 08be 8DF80064 		strb	r6, [sp, #1024]
 708 08c2 8DF80104 		strb	r0, [sp, #1025]
 709 08c6 8DF80204 		strb	r0, [sp, #1026]
 710 08ca 8DF80304 		strb	r0, [sp, #1027]
 711 08ce 8DF80404 		strb	r0, [sp, #1028]
 712 08d2 8DF80504 		strb	r0, [sp, #1029]
 713 08d6 8DF80664 		strb	r6, [sp, #1030]
 714 08da 8DF80A54 		strb	r5, [sp, #1034]
 715 08de 8DF80B14 		strb	r1, [sp, #1035]
 716 08e2 8DF80C14 		strb	r1, [sp, #1036]
 717 08e6 8DF80D14 		strb	r1, [sp, #1037]
 718 08ea 8DF80E54 		strb	r5, [sp, #1038]
 719 08ee 8DF81024 		strb	r2, [sp, #1040]
 720 08f2 8DF81124 		strb	r2, [sp, #1041]
 721 08f6 8DF81224 		strb	r2, [sp, #1042]
 722 08fa 8DF81334 		strb	r3, [sp, #1043]
 723 08fe 8DF81414 		strb	r1, [sp, #1044]
 724 0902 8DF81514 		strb	r1, [sp, #1045]
 725 0906 8DF81634 		strb	r3, [sp, #1046]
 726 090a 8DF81A34 		strb	r3, [sp, #1050]
 727 090e 8DF81B14 		strb	r1, [sp, #1051]
 728 0912 8DF81C44 		strb	r4, [sp, #1052]
 729 0916 8DF81D04 		strb	r0, [sp, #1053]
 730 091a 8DF81E34 		strb	r3, [sp, #1054]
 731 091e 8DF82334 		strb	r3, [sp, #1059]
 732 0922 8DF82454 		strb	r5, [sp, #1060]
 733 0926 8DF82554 		strb	r5, [sp, #1061]
 734 092a 5023     		movs	r3, #80
 735 092c 8DF82634 		strb	r3, [sp, #1062]
 736              	.LVL4:
  97:main.c        ****     
  98:main.c        ****     /* CHIP8 Register File*/
  99:main.c        ****     uint8_t v[16];
 100:main.c        ****     uint16_t i = 0;
 101:main.c        ****     uint16_t pc = 0x0200;
 102:main.c        ****     uint8_t sp = 0x00;
 103:main.c        ****     uint16_t stack[16] = {0};
 737              		.loc 1 103 0
 738 0930 0021     		movs	r1, #0
 739 0932 0AA8     		add	r0, sp, #40
 740 0934 FFF7FEFF 		bl	memset
 741              	.LVL5:
 742              	.LBB2:
 104:main.c        ****     
 105:main.c        ****     /* Clear screen */
 106:main.c        ****     for (uint8_t j = 0; j < 32; j++){
 743              		.loc 1 106 0
 744 0938 0023     		movs	r3, #0
 745 093a 08E0     		b	.L10
 746              	.LVL6:
 747              	.L11:
 107:main.c        ****         vram[j] = 0;
 748              		.loc 1 107 0 discriminator 3
ARM GAS  C:\Users\info\AppData\Local\Temp\ccKQ3Zl2.s 			page 16


 749 093c AB4A     		ldr	r2, .L94
 750 093e 02EBC302 		add	r2, r2, r3, lsl #3
 751 0942 0020     		movs	r0, #0
 752 0944 0021     		movs	r1, #0
 753 0946 C2E90001 		strd	r0, [r2]
 106:main.c        ****         vram[j] = 0;
 754              		.loc 1 106 0 discriminator 3
 755 094a 0133     		adds	r3, r3, #1
 756              	.LVL7:
 757 094c DBB2     		uxtb	r3, r3
 758              	.LVL8:
 759              	.L10:
 106:main.c        ****         vram[j] = 0;
 760              		.loc 1 106 0 is_stmt 0 discriminator 1
 761 094e 1F2B     		cmp	r3, #31
 762 0950 F4D9     		bls	.L11
 763              	.LBE2:
 108:main.c        ****     }
 109:main.c        ****     
 110:main.c        ****     /* Initialize Random Generator */
 111:main.c        ****     random_Enable();
 764              		.loc 1 111 0 is_stmt 1
 765 0952 FFF7FEFF 		bl	random_Enable
 766              	.LVL9:
 112:main.c        ****     random_Init();
 767              		.loc 1 112 0
 768 0956 FFF7FEFF 		bl	random_Init
 769              	.LVL10:
 113:main.c        ****     random_Start();
 770              		.loc 1 113 0
 771 095a FFF7FEFF 		bl	random_Start
 772              	.LVL11:
 102:main.c        ****     uint16_t stack[16] = {0};
 773              		.loc 1 102 0
 774 095e 4FF00008 		mov	r8, #0
 101:main.c        ****     uint8_t sp = 0x00;
 775              		.loc 1 101 0
 776 0962 4FF4007A 		mov	r10, #512
 100:main.c        ****     uint16_t pc = 0x0200;
 777              		.loc 1 100 0
 778 0966 C346     		mov	fp, r8
 779              	.LVL12:
 780              	.L12:
 781              	.LBB3:
 114:main.c        ****     
 115:main.c        ****     /* Emulate away.. */
 116:main.c        ****     while(1){
 117:main.c        ****         /* Get the instruction at the current address */
 118:main.c        ****         uint16_t instr = (ram[pc] << 8) | ram[pc+1];
 782              		.loc 1 118 0
 783 0968 16AB     		add	r3, sp, #88
 784 096a 13F80A60 		ldrb	r6, [r3, r10]	@ zero_extendqisi2
 785 096e 0AF10102 		add	r2, r10, #1
 786 0972 9B5C     		ldrb	r3, [r3, r2]	@ zero_extendqisi2
 787 0974 43EA0626 		orr	r6, r3, r6, lsl #8
 788 0978 36B2     		sxth	r6, r6
 789 097a B5B2     		uxth	r5, r6
ARM GAS  C:\Users\info\AppData\Local\Temp\ccKQ3Zl2.s 			page 17


 790              	.LVL13:
 119:main.c        ****         
 120:main.c        ****         /* Decode the opcodes */
 121:main.c        ****         uint8_t op3 = (instr & 0xf000) >> 12;
 791              		.loc 1 121 0
 792 097c 2A0B     		lsrs	r2, r5, #12
 793              	.LVL14:
 122:main.c        ****         uint8_t op2 = (instr & 0x0f00) >> 8;
 794              		.loc 1 122 0
 795 097e C5F30324 		ubfx	r4, r5, #8, #4
 796              	.LVL15:
 123:main.c        ****         uint8_t op10 = instr & 0x00ff;
 797              		.loc 1 123 0
 798 0982 F6B2     		uxtb	r6, r6
 799              	.LVL16:
 124:main.c        ****         uint8_t op0 = instr & 0x000f;
 800              		.loc 1 124 0
 801 0984 06F00F07 		and	r7, r6, #15
 802              	.LVL17:
 125:main.c        ****         
 126:main.c        ****         /* Decode the immediates */
 127:main.c        ****         uint16_t nnn = instr & 0x0fff;
 803              		.loc 1 127 0
 804 0988 C5F30B03 		ubfx	r3, r5, #0, #12
 805              	.LVL18:
 128:main.c        ****         uint8_t x = (instr & 0x0f00) >> 8;
 129:main.c        ****         uint8_t y = (instr & 0x00f0) >> 4;
 806              		.loc 1 129 0
 807 098c C5F30315 		ubfx	r5, r5, #4, #4
 808              	.LVL19:
 130:main.c        ****         uint8_t kk = instr & 0x00ff;
 131:main.c        ****         uint8_t n = instr & 0x000f;
 132:main.c        ****         
 133:main.c        ****         /* This flag is set if an invalid OP is encountered */
 134:main.c        ****         uint8_t invalid_op = 0;
 135:main.c        ****         
 136:main.c        ****         /* This flag is set if a new PC was set and must not be incremented */
 137:main.c        ****         uint8_t freeze_pc = 0;
 138:main.c        ****         
 139:main.c        ****         /* Branch on opcodes and execute */
 140:main.c        ****         switch(op3){
 809              		.loc 1 140 0
 810 0990 0F2A     		cmp	r2, #15
 811 0992 11D8     		bhi	.L13
 812 0994 DFE812F0 		tbh	[pc, r2, lsl #1]
 813              	.L15:
 814 0998 1300     		.2byte	(.L14-.L15)/2
 815 099a 4402     		.2byte	(.L68-.L15)/2
 816 099c 3D00     		.2byte	(.L17-.L15)/2
 817 099e 4C00     		.2byte	(.L18-.L15)/2
 818 09a0 5800     		.2byte	(.L19-.L15)/2
 819 09a2 6400     		.2byte	(.L20-.L15)/2
 820 09a4 8400     		.2byte	(.L21-.L15)/2
 821 09a6 8900     		.2byte	(.L22-.L15)/2
 822 09a8 9000     		.2byte	(.L23-.L15)/2
 823 09aa 7400     		.2byte	(.L24-.L15)/2
 824 09ac 0101     		.2byte	(.L25-.L15)/2
ARM GAS  C:\Users\info\AppData\Local\Temp\ccKQ3Zl2.s 			page 18


 825 09ae 3700     		.2byte	(.L26-.L15)/2
 826 09b0 0501     		.2byte	(.L27-.L15)/2
 827 09b2 7801     		.2byte	(.L69-.L15)/2
 828 09b4 9201     		.2byte	(.L29-.L15)/2
 829 09b6 B801     		.2byte	(.L30-.L15)/2
 830              		.p2align 1
 831              	.L13:
 137:main.c        ****         
 832              		.loc 1 137 0
 833 09b8 0023     		movs	r3, #0
 834              	.LVL20:
 141:main.c        ****         case OP3_SYSTEM:
 142:main.c        ****             /* System operations */
 143:main.c        ****             if (op2 != OP2_SYSTEM){
 144:main.c        ****                 invalid_op = 1;
 145:main.c        ****             } else {
 146:main.c        ****                 switch(op10){
 147:main.c        ****                 case OP10_SYSTEM_CLEAR:
 148:main.c        ****                     /* Clear screen */
 149:main.c        ****                     for (int j = 0; j < 32; j++){
 150:main.c        ****                         vram[j] = 0;
 151:main.c        ****                     }
 152:main.c        ****                     break;
 153:main.c        ****                 case OP10_SYSTEM_RETURN:
 154:main.c        ****                     /* Return from instruction */
 155:main.c        ****                     sp = (sp == 0x0) ? 0x0 : sp - 1;
 156:main.c        ****                     pc = stack[sp];
 157:main.c        ****                     freeze_pc = 1;
 158:main.c        ****                     break;
 159:main.c        ****                 default:
 160:main.c        ****                     invalid_op = 1;
 161:main.c        ****                     break;
 162:main.c        ****                 }
 163:main.c        ****             }
 164:main.c        ****             break;
 165:main.c        ****         case OP3_JUMP_ABSOLUTE:
 166:main.c        ****             /* Jump to absolute address nnn */
 167:main.c        ****             pc = nnn;
 168:main.c        ****             freeze_pc = 1;
 169:main.c        ****             break;
 170:main.c        ****         case OP3_JUMP_OFFSET:
 171:main.c        ****             /* Jump to absolute address nnn + offset V0 */
 172:main.c        ****             pc = nnn + v[0];
 173:main.c        ****             freeze_pc = 1;
 174:main.c        ****             break;
 175:main.c        ****         case OP3_CALL_SUBROUTINE:
 176:main.c        ****             /* Call subroutine at nnn */
 177:main.c        ****             stack[sp] = pc;
 178:main.c        ****             sp = (sp == 0xf) ? 0xf : sp + 1;
 179:main.c        ****             pc = nnn;
 180:main.c        ****             freeze_pc = 1;
 181:main.c        ****             break;
 182:main.c        ****         case OP3_SKIP_NEXT_EQ_IM:
 183:main.c        ****             /* Skip next instruction if Vx == kk */
 184:main.c        ****             if (v[x] == kk) {
 185:main.c        ****                 pc += 2;
 186:main.c        ****             }
ARM GAS  C:\Users\info\AppData\Local\Temp\ccKQ3Zl2.s 			page 19


 187:main.c        ****             break;
 188:main.c        ****         case OP3_SKIP_NEXT_NEQ_IM:
 189:main.c        ****             /* Skip next instruction if Vx != kk */
 190:main.c        ****             if (v[x] != kk) {
 191:main.c        ****                 pc += 2;
 192:main.c        ****             }
 193:main.c        ****             break;
 194:main.c        ****         case OP3_SKIP_NEXT_EQ:
 195:main.c        ****             /* Skip next instruction if Vx == Vy */
 196:main.c        ****             if (op0 == OP0_SKIP_NEXT){
 197:main.c        ****                 if (v[x] == v[y]) {
 198:main.c        ****                     pc += 2;
 199:main.c        ****                 }
 200:main.c        ****             } else {
 201:main.c        ****                 invalid_op = 1;
 202:main.c        ****             }
 203:main.c        ****             break;
 204:main.c        ****         case OP3_SKIP_NEXT_NEQ:
 205:main.c        ****             /* Skip next instruction if Vx != Vy */
 206:main.c        ****             if (op0 == OP0_SKIP_NEXT){
 207:main.c        ****                 if (v[x] != v[y]) {
 208:main.c        ****                     pc += 2;
 209:main.c        ****                 }
 210:main.c        ****             } else {
 211:main.c        ****                 invalid_op = 1;
 212:main.c        ****             }
 213:main.c        ****             break;
 214:main.c        ****         case OP3_LOAD_V:
 215:main.c        ****             /* Vx = kk */
 216:main.c        ****             v[x] = kk;
 217:main.c        ****             break;
 218:main.c        ****         case OP3_ADD_IM:
 219:main.c        ****             /* Vx += kk */
 220:main.c        ****             v[x] += kk;
 221:main.c        ****             break;
 222:main.c        ****         case OP3_ARITH:
 223:main.c        ****             /* Arithmetic operations */
 224:main.c        ****             switch(op0) {
 225:main.c        ****             case OP0_ARITH_LOAD:
 226:main.c        ****                 /* Vx = Vy */
 227:main.c        ****                 v[x] = v[y];
 228:main.c        ****                 break;
 229:main.c        ****             case OP0_ARITH_OR:
 230:main.c        ****                 /* Vx = Vx | Vy */
 231:main.c        ****                 v[x] |= v[y];
 232:main.c        ****                 break;
 233:main.c        ****             case OP0_ARITH_AND:
 234:main.c        ****                 /* Vx = Vx & Vy */
 235:main.c        ****                 v[x] &= v[y];
 236:main.c        ****                 break;
 237:main.c        ****             case OP0_ARITH_XOR:
 238:main.c        ****                 /* Vx = Vx ^ Vy */
 239:main.c        ****                 v[x] ^= v[y];
 240:main.c        ****                 break;
 241:main.c        ****             case OP0_ARITH_ADD:
 242:main.c        ****                 /* Vx = Vx + Vy */
 243:main.c        ****                 v[x] += v[y];
ARM GAS  C:\Users\info\AppData\Local\Temp\ccKQ3Zl2.s 			page 20


 244:main.c        ****                 break;
 245:main.c        ****             case OP0_ARITH_SUB:{
 246:main.c        ****                 /* Vx = Vx - Vy, Vf = not borrow */
 247:main.c        ****                 uint16_t vx = v[x];
 248:main.c        ****                 uint16_t vy = v[y];
 249:main.c        ****                 uint16_t diff = vx - vy;                                
 250:main.c        ****                 v[x] = diff;
 251:main.c        ****                 v[0xf] = (diff & 0x100) ? 0 : 1;
 252:main.c        ****                 break;
 253:main.c        ****             }
 254:main.c        ****             case OP0_ARITH_SHR:
 255:main.c        ****                 /* Vx = Vx >> Vy */
 256:main.c        ****                 v[0xf] = (v[x] & 0x01) ? 1 : 0;
 257:main.c        ****                 v[x] >>= 1;
 258:main.c        ****                 break;
 259:main.c        ****             case OP0_ARITH_SUBN:{
 260:main.c        ****                 /* Vx = Vy - Vx, Vf = not borrow */
 261:main.c        ****                 uint16_t vx = v[x];
 262:main.c        ****                 uint16_t vy = v[y];
 263:main.c        ****                 uint16_t diff = vy - vx;                                
 264:main.c        ****                 v[x] = diff;
 265:main.c        ****                 v[0xf] = (diff & 0x100) ? 0 : 1;
 266:main.c        ****                 break;
 267:main.c        ****             }
 268:main.c        ****             case OP0_ARITH_SHL:
 269:main.c        ****                 /* Vx = Vx << 1, Vf = carry */
 270:main.c        ****                 v[0xf] = (v[x] & 0x80) ? 1 : 0;
 271:main.c        ****                 v[x] <<= 1;
 272:main.c        ****                 break;
 273:main.c        ****             default:
 274:main.c        ****                 invalid_op = 1;
 275:main.c        ****                 break;
 276:main.c        ****             }
 277:main.c        ****             break;
 278:main.c        ****         case OP3_LOAD_I:
 279:main.c        ****             /* I = nnn */
 280:main.c        ****             i = nnn;
 281:main.c        ****             break;
 282:main.c        ****         case OP3_RANDOM:
 283:main.c        ****             /* Vx = (random byte) & kk */            
 284:main.c        ****             v[x] = random_Read() & kk;
 285:main.c        ****             break;
 286:main.c        ****         case OP3_DRAW:{
 287:main.c        ****             uint64_t collision = 0;
 288:main.c        ****             /* Draw sprite from I at (Vx, Vy), vf = collision, see reference */
 289:main.c        ****             for (int j = 0; j < n; j++){
 290:main.c        ****                 uint64_t row = 0;
 291:main.c        ****                 if (v[x] <= 56){
 292:main.c        ****                     row = ((uint64_t)ram[i + j]) << (56 - v[x]);
 293:main.c        ****                 } else {
 294:main.c        ****                     row = ((uint64_t)ram[i + j]) >> (v[x] - 56)
 295:main.c        ****                         | ((uint64_t)ram[i + j]) << (120 - v[x]);
 296:main.c        ****                 }
 297:main.c        ****                 collision |= vram[(v[y] + j) % 32] & row;
 298:main.c        ****                 vram[(v[y] + j) % 32] ^= row;
 299:main.c        ****             }
 300:main.c        ****             v[0xf] = collision ? 1 : 0;
ARM GAS  C:\Users\info\AppData\Local\Temp\ccKQ3Zl2.s 			page 21


 301:main.c        ****             break;
 302:main.c        ****         }
 303:main.c        ****         case OP3_KEYBOARD:
 304:main.c        ****             /* Keyboard operations */
 305:main.c        ****             switch(op10){
 306:main.c        ****             case OP10_KEYBOARD_EQ:
 307:main.c        ****                 /* Skip next instruction if Vx pressed */
 308:main.c        ****                 if (keys[v[x] & 0xf] == 1){
 309:main.c        ****                     pc += 2;
 310:main.c        ****                 }
 311:main.c        ****                 break;
 312:main.c        ****             case OP10_KEYBOARD_NEQ: 
 313:main.c        ****                 /* Skip next instruction if Vx not pressed */
 314:main.c        ****                 if (keys[v[x] & 0xf] == 0){
 315:main.c        ****                     pc += 2;
 316:main.c        ****                 }
 317:main.c        ****                 break;
 318:main.c        ****             default:
 319:main.c        ****                 invalid_op = 1;
 320:main.c        ****                 break;
 321:main.c        ****             }
 322:main.c        ****             break;
 323:main.c        ****         case OP3_SPECIAL:
 324:main.c        ****             /* Special instructions, see reference for each */
 325:main.c        ****             switch(op10){
 326:main.c        ****             case OP10_SPECIAL_LOAD_DELAY:
 327:main.c        ****                 /* Vx = delay timer */
 328:main.c        ****                 v[x] = tmr;
 329:main.c        ****                 break;
 330:main.c        ****             case OP10_SPECIAL_LOAD_KEYBOARD:
 331:main.c        ****                 /* Vx = keypress, blocks till something pressed */
 332:main.c        ****                 while (!keyflag);
 333:main.c        ****                 v[x] = lastkey;
 334:main.c        ****                 keyflag = 0;
 335:main.c        ****                 break;
 336:main.c        ****             case OP10_SPECIAL_SET_DELAY:
 337:main.c        ****                 /* delay timer = Vx */
 338:main.c        ****                 tmr = v[x];
 339:main.c        ****                 break;
 340:main.c        ****             case OP10_SPECIAL_SET_SOUND:
 341:main.c        ****                 /* sound timer = Vx */
 342:main.c        ****                 snd = v[x];
 343:main.c        ****                 break;
 344:main.c        ****             case OP10_SPECIAL_ADD_TO_I:
 345:main.c        ****                 /* I += Vx */
 346:main.c        ****                 i += v[x];
 347:main.c        ****                 break;
 348:main.c        ****             case OP10_SPECIAL_LOAD_FONT:
 349:main.c        ****                 /* I = location of sprite for hex digit Vx */
 350:main.c        ****                 i = (v[x] & 0xf) * 5;
 351:main.c        ****                 break;
 352:main.c        ****             case OP10_SPECIAL_LOAD_BCD:
 353:main.c        ****                 /* BCD hundreds to units of Vx in I to I+2 */
 354:main.c        ****                 ram[i] = (uint8_t)(v[x] / 100) % 10;
 355:main.c        ****                 ram[i+1] = (uint8_t)(v[x] / 10) % 10;
 356:main.c        ****                 ram[i+2] = (uint8_t)(v[x]) % 10;
 357:main.c        ****                 break;
ARM GAS  C:\Users\info\AppData\Local\Temp\ccKQ3Zl2.s 			page 22


 358:main.c        ****             case OP10_SPECIAL_LOAD_AT_I:
 359:main.c        ****                 /* Store V0 to Vx in I to I+x */
 360:main.c        ****                 for (uint8_t j = 0; j <= x; j++){
 361:main.c        ****                     ram[i + j] = v[j];
 362:main.c        ****                 }
 363:main.c        ****                 break;
 364:main.c        ****             case OP10_SPECIAL_SET_AT_I:
 365:main.c        ****                 /* Restore V0 to Vx from I to I+x */
 366:main.c        ****                 for (uint8_t j = 0; j <= x; j++){
 367:main.c        ****                     v[j] = ram[i + j];
 368:main.c        ****                 }
 369:main.c        ****                 break;
 370:main.c        ****             default:
 371:main.c        ****                 invalid_op = 1;
 372:main.c        ****                 break;
 373:main.c        ****             }
 374:main.c        ****             break;
 375:main.c        ****         default:
 376:main.c        ****             invalid_op = 1;
 835              		.loc 1 376 0
 836 09ba 0122     		movs	r2, #1
 837              	.LVL21:
 838 09bc 5EE2     		b	.L16
 839              	.LVL22:
 840              	.L14:
 143:main.c        ****                 invalid_op = 1;
 841              		.loc 1 143 0
 842 09be 002C     		cmp	r4, #0
 843 09c0 40F03282 		bne	.L70
 146:main.c        ****                 case OP10_SYSTEM_CLEAR:
 844              		.loc 1 146 0
 845 09c4 E02E     		cmp	r6, #224
 846 09c6 0BD0     		beq	.L72
 847 09c8 EE2E     		cmp	r6, #238
 848 09ca 0FD0     		beq	.L32
 849 09cc 2FE2     		b	.L87
 850              	.LVL23:
 851              	.L33:
 852              	.LBB4:
 150:main.c        ****                     }
 853              		.loc 1 150 0 discriminator 3
 854 09ce 874A     		ldr	r2, .L94
 855 09d0 02EBC302 		add	r2, r2, r3, lsl #3
 856 09d4 0020     		movs	r0, #0
 857 09d6 0021     		movs	r1, #0
 858 09d8 C2E90001 		strd	r0, [r2]
 149:main.c        ****                         vram[j] = 0;
 859              		.loc 1 149 0 discriminator 3
 860 09dc 0133     		adds	r3, r3, #1
 861              	.LVL24:
 862 09de 00E0     		b	.L31
 863              	.LVL25:
 864              	.L72:
 865              	.LBE4:
 146:main.c        ****                 case OP10_SYSTEM_CLEAR:
 866              		.loc 1 146 0
 867 09e0 0023     		movs	r3, #0
ARM GAS  C:\Users\info\AppData\Local\Temp\ccKQ3Zl2.s 			page 23


 868              	.LVL26:
 869              	.L31:
 870              	.LBB5:
 149:main.c        ****                         vram[j] = 0;
 871              		.loc 1 149 0 discriminator 1
 872 09e2 1F2B     		cmp	r3, #31
 873 09e4 F3DD     		ble	.L33
 874              	.LBE5:
 137:main.c        ****         
 875              		.loc 1 137 0
 876 09e6 0023     		movs	r3, #0
 877              	.LVL27:
 134:main.c        ****         
 878              		.loc 1 134 0
 879 09e8 1A46     		mov	r2, r3
 880 09ea 47E2     		b	.L16
 881              	.LVL28:
 882              	.L32:
 155:main.c        ****                     pc = stack[sp];
 883              		.loc 1 155 0
 884 09ec B8F1000F 		cmp	r8, #0
 885 09f0 03D0     		beq	.L34
 155:main.c        ****                     pc = stack[sp];
 886              		.loc 1 155 0 is_stmt 0 discriminator 1
 887 09f2 08F1FF38 		add	r8, r8, #-1
 888              	.LVL29:
 889 09f6 5FFA88F8 		uxtb	r8, r8
 890              	.L34:
 891              	.LVL30:
 156:main.c        ****                     freeze_pc = 1;
 892              		.loc 1 156 0 is_stmt 1 discriminator 4
 893 09fa 0AAB     		add	r3, sp, #40
 894              	.LVL31:
 895 09fc 33F818A0 		ldrh	r10, [r3, r8, lsl #1]
 896              	.LVL32:
 157:main.c        ****                     break;
 897              		.loc 1 157 0 discriminator 4
 898 0a00 0123     		movs	r3, #1
 134:main.c        ****         
 899              		.loc 1 134 0 discriminator 4
 900 0a02 0022     		movs	r2, #0
 901              	.LVL33:
 158:main.c        ****                 default:
 902              		.loc 1 158 0 discriminator 4
 903 0a04 3AE2     		b	.L16
 904              	.LVL34:
 905              	.L26:
 172:main.c        ****             freeze_pc = 1;
 906              		.loc 1 172 0
 907 0a06 9DF848A0 		ldrb	r10, [sp, #72]	@ zero_extendqisi2
 908              	.LVL35:
 909 0a0a 9A44     		add	r10, r10, r3
 910              	.LVL36:
 173:main.c        ****             break;
 911              		.loc 1 173 0
 912 0a0c 0123     		movs	r3, #1
 913              	.LVL37:
ARM GAS  C:\Users\info\AppData\Local\Temp\ccKQ3Zl2.s 			page 24


 134:main.c        ****         
 914              		.loc 1 134 0
 915 0a0e 0022     		movs	r2, #0
 916              	.LVL38:
 174:main.c        ****         case OP3_CALL_SUBROUTINE:
 917              		.loc 1 174 0
 918 0a10 34E2     		b	.L16
 919              	.LVL39:
 920              	.L17:
 177:main.c        ****             sp = (sp == 0xf) ? 0xf : sp + 1;
 921              		.loc 1 177 0
 922 0a12 0AAA     		add	r2, sp, #40
 923              	.LVL40:
 924 0a14 22F818A0 		strh	r10, [r2, r8, lsl #1]	@ movhi
 178:main.c        ****             pc = nnn;
 925              		.loc 1 178 0
 926 0a18 B8F10F0F 		cmp	r8, #15
 927 0a1c 00F00A82 		beq	.L73
 178:main.c        ****             pc = nnn;
 928              		.loc 1 178 0 is_stmt 0 discriminator 1
 929 0a20 08F10108 		add	r8, r8, #1
 930              	.LVL41:
 931 0a24 5FFA88F8 		uxtb	r8, r8
 179:main.c        ****             freeze_pc = 1;
 932              		.loc 1 179 0 is_stmt 1 discriminator 1
 933 0a28 9A46     		mov	r10, r3
 934              	.LVL42:
 180:main.c        ****             break;
 935              		.loc 1 180 0 discriminator 1
 936 0a2a 0123     		movs	r3, #1
 937              	.LVL43:
 134:main.c        ****         
 938              		.loc 1 134 0 discriminator 1
 939 0a2c 0022     		movs	r2, #0
 940 0a2e 25E2     		b	.L16
 941              	.LVL44:
 942              	.L18:
 184:main.c        ****                 pc += 2;
 943              		.loc 1 184 0
 944 0a30 12AB     		add	r3, sp, #72
 945              	.LVL45:
 946 0a32 1B5D     		ldrb	r3, [r3, r4]	@ zero_extendqisi2
 947 0a34 9E42     		cmp	r6, r3
 948 0a36 40F00182 		bne	.L74
 185:main.c        ****             }
 949              		.loc 1 185 0
 950 0a3a 0AF1020A 		add	r10, r10, #2
 951              	.LVL46:
 952 0a3e 1FFA8AFA 		uxth	r10, r10
 953              	.LVL47:
 137:main.c        ****         
 954              		.loc 1 137 0
 955 0a42 0023     		movs	r3, #0
 134:main.c        ****         
 956              		.loc 1 134 0
 957 0a44 1A46     		mov	r2, r3
 958              	.LVL48:
ARM GAS  C:\Users\info\AppData\Local\Temp\ccKQ3Zl2.s 			page 25


 959 0a46 19E2     		b	.L16
 960              	.LVL49:
 961              	.L19:
 190:main.c        ****                 pc += 2;
 962              		.loc 1 190 0
 963 0a48 12AB     		add	r3, sp, #72
 964              	.LVL50:
 965 0a4a 1B5D     		ldrb	r3, [r3, r4]	@ zero_extendqisi2
 966 0a4c 9E42     		cmp	r6, r3
 967 0a4e 00F0F881 		beq	.L75
 191:main.c        ****             }
 968              		.loc 1 191 0
 969 0a52 0AF1020A 		add	r10, r10, #2
 970              	.LVL51:
 971 0a56 1FFA8AFA 		uxth	r10, r10
 972              	.LVL52:
 137:main.c        ****         
 973              		.loc 1 137 0
 974 0a5a 0023     		movs	r3, #0
 134:main.c        ****         
 975              		.loc 1 134 0
 976 0a5c 1A46     		mov	r2, r3
 977              	.LVL53:
 978 0a5e 0DE2     		b	.L16
 979              	.LVL54:
 980              	.L20:
 196:main.c        ****                 if (v[x] == v[y]) {
 981              		.loc 1 196 0
 982 0a60 002F     		cmp	r7, #0
 983 0a62 40F0F181 		bne	.L76
 197:main.c        ****                     pc += 2;
 984              		.loc 1 197 0
 985 0a66 12AB     		add	r3, sp, #72
 986              	.LVL55:
 987 0a68 1A5D     		ldrb	r2, [r3, r4]	@ zero_extendqisi2
 988              	.LVL56:
 989 0a6a 5B5D     		ldrb	r3, [r3, r5]	@ zero_extendqisi2
 990 0a6c 9A42     		cmp	r2, r3
 991 0a6e 40F0EE81 		bne	.L77
 198:main.c        ****                 }
 992              		.loc 1 198 0
 993 0a72 0AF1020A 		add	r10, r10, #2
 994              	.LVL57:
 995 0a76 1FFA8AFA 		uxth	r10, r10
 996              	.LVL58:
 137:main.c        ****         
 997              		.loc 1 137 0
 998 0a7a 0023     		movs	r3, #0
 134:main.c        ****         
 999              		.loc 1 134 0
 1000 0a7c 1A46     		mov	r2, r3
 1001 0a7e FDE1     		b	.L16
 1002              	.LVL59:
 1003              	.L24:
 206:main.c        ****                 if (v[x] != v[y]) {
 1004              		.loc 1 206 0
 1005 0a80 002F     		cmp	r7, #0
ARM GAS  C:\Users\info\AppData\Local\Temp\ccKQ3Zl2.s 			page 26


 1006 0a82 40F0E781 		bne	.L78
 207:main.c        ****                     pc += 2;
 1007              		.loc 1 207 0
 1008 0a86 12AB     		add	r3, sp, #72
 1009              	.LVL60:
 1010 0a88 1A5D     		ldrb	r2, [r3, r4]	@ zero_extendqisi2
 1011              	.LVL61:
 1012 0a8a 5B5D     		ldrb	r3, [r3, r5]	@ zero_extendqisi2
 1013 0a8c 9A42     		cmp	r2, r3
 1014 0a8e 00F0E481 		beq	.L79
 208:main.c        ****                 }
 1015              		.loc 1 208 0
 1016 0a92 0AF1020A 		add	r10, r10, #2
 1017              	.LVL62:
 1018 0a96 1FFA8AFA 		uxth	r10, r10
 1019              	.LVL63:
 137:main.c        ****         
 1020              		.loc 1 137 0
 1021 0a9a 0023     		movs	r3, #0
 134:main.c        ****         
 1022              		.loc 1 134 0
 1023 0a9c 1A46     		mov	r2, r3
 1024 0a9e EDE1     		b	.L16
 1025              	.LVL64:
 1026              	.L21:
 216:main.c        ****             break;
 1027              		.loc 1 216 0
 1028 0aa0 12AB     		add	r3, sp, #72
 1029              	.LVL65:
 1030 0aa2 1E55     		strb	r6, [r3, r4]
 137:main.c        ****         
 1031              		.loc 1 137 0
 1032 0aa4 0023     		movs	r3, #0
 134:main.c        ****         
 1033              		.loc 1 134 0
 1034 0aa6 1A46     		mov	r2, r3
 1035              	.LVL66:
 217:main.c        ****         case OP3_ADD_IM:
 1036              		.loc 1 217 0
 1037 0aa8 E8E1     		b	.L16
 1038              	.LVL67:
 1039              	.L22:
 220:main.c        ****             break;
 1040              		.loc 1 220 0
 1041 0aaa 12AA     		add	r2, sp, #72
 1042              	.LVL68:
 1043 0aac 135D     		ldrb	r3, [r2, r4]	@ zero_extendqisi2
 1044              	.LVL69:
 1045 0aae 1E44     		add	r6, r6, r3
 1046              	.LVL70:
 1047 0ab0 1655     		strb	r6, [r2, r4]
 137:main.c        ****         
 1048              		.loc 1 137 0
 1049 0ab2 0023     		movs	r3, #0
 134:main.c        ****         
 1050              		.loc 1 134 0
 1051 0ab4 1A46     		mov	r2, r3
ARM GAS  C:\Users\info\AppData\Local\Temp\ccKQ3Zl2.s 			page 27


 221:main.c        ****         case OP3_ARITH:
 1052              		.loc 1 221 0
 1053 0ab6 E1E1     		b	.L16
 1054              	.LVL71:
 1055              	.L23:
 224:main.c        ****             case OP0_ARITH_LOAD:
 1056              		.loc 1 224 0
 1057 0ab8 0E2F     		cmp	r7, #14
 1058 0aba 00F2D181 		bhi	.L80
 1059 0abe DFE817F0 		tbh	[pc, r7, lsl #1]
 1060              	.LVL72:
 1061              	.L36:
 1062 0ac2 0F00     		.2byte	(.L35-.L36)/2
 1063 0ac4 1500     		.2byte	(.L37-.L36)/2
 1064 0ac6 1D00     		.2byte	(.L38-.L36)/2
 1065 0ac8 2500     		.2byte	(.L39-.L36)/2
 1066 0aca 2D00     		.2byte	(.L40-.L36)/2
 1067 0acc 3500     		.2byte	(.L41-.L36)/2
 1068 0ace 4500     		.2byte	(.L42-.L36)/2
 1069 0ad0 5100     		.2byte	(.L43-.L36)/2
 1070 0ad2 CF01     		.2byte	(.L80-.L36)/2
 1071 0ad4 CF01     		.2byte	(.L80-.L36)/2
 1072 0ad6 CF01     		.2byte	(.L80-.L36)/2
 1073 0ad8 CF01     		.2byte	(.L80-.L36)/2
 1074 0ada CF01     		.2byte	(.L80-.L36)/2
 1075 0adc CF01     		.2byte	(.L80-.L36)/2
 1076 0ade 6100     		.2byte	(.L44-.L36)/2
 1077              		.p2align 1
 1078              	.L35:
 227:main.c        ****                 break;
 1079              		.loc 1 227 0
 1080 0ae0 12AB     		add	r3, sp, #72
 1081 0ae2 5A5D     		ldrb	r2, [r3, r5]	@ zero_extendqisi2
 1082              	.LVL73:
 1083 0ae4 1A55     		strb	r2, [r3, r4]
 137:main.c        ****         
 1084              		.loc 1 137 0
 1085 0ae6 0023     		movs	r3, #0
 134:main.c        ****         
 1086              		.loc 1 134 0
 1087 0ae8 1A46     		mov	r2, r3
 228:main.c        ****             case OP0_ARITH_OR:
 1088              		.loc 1 228 0
 1089 0aea C7E1     		b	.L16
 1090              	.LVL74:
 1091              	.L37:
 231:main.c        ****                 break;
 1092              		.loc 1 231 0
 1093 0aec 12AB     		add	r3, sp, #72
 1094 0aee 595D     		ldrb	r1, [r3, r5]	@ zero_extendqisi2
 1095 0af0 1A5D     		ldrb	r2, [r3, r4]	@ zero_extendqisi2
 1096              	.LVL75:
 1097 0af2 0A43     		orrs	r2, r2, r1
 1098 0af4 1A55     		strb	r2, [r3, r4]
 137:main.c        ****         
 1099              		.loc 1 137 0
 1100 0af6 0023     		movs	r3, #0
ARM GAS  C:\Users\info\AppData\Local\Temp\ccKQ3Zl2.s 			page 28


 134:main.c        ****         
 1101              		.loc 1 134 0
 1102 0af8 1A46     		mov	r2, r3
 232:main.c        ****             case OP0_ARITH_AND:
 1103              		.loc 1 232 0
 1104 0afa BFE1     		b	.L16
 1105              	.LVL76:
 1106              	.L38:
 235:main.c        ****                 break;
 1107              		.loc 1 235 0
 1108 0afc 12AB     		add	r3, sp, #72
 1109 0afe 595D     		ldrb	r1, [r3, r5]	@ zero_extendqisi2
 1110 0b00 1A5D     		ldrb	r2, [r3, r4]	@ zero_extendqisi2
 1111              	.LVL77:
 1112 0b02 0A40     		ands	r2, r2, r1
 1113 0b04 1A55     		strb	r2, [r3, r4]
 137:main.c        ****         
 1114              		.loc 1 137 0
 1115 0b06 0023     		movs	r3, #0
 134:main.c        ****         
 1116              		.loc 1 134 0
 1117 0b08 1A46     		mov	r2, r3
 236:main.c        ****             case OP0_ARITH_XOR:
 1118              		.loc 1 236 0
 1119 0b0a B7E1     		b	.L16
 1120              	.LVL78:
 1121              	.L39:
 239:main.c        ****                 break;
 1122              		.loc 1 239 0
 1123 0b0c 12AB     		add	r3, sp, #72
 1124 0b0e 595D     		ldrb	r1, [r3, r5]	@ zero_extendqisi2
 1125 0b10 1A5D     		ldrb	r2, [r3, r4]	@ zero_extendqisi2
 1126              	.LVL79:
 1127 0b12 4A40     		eors	r2, r2, r1
 1128 0b14 1A55     		strb	r2, [r3, r4]
 137:main.c        ****         
 1129              		.loc 1 137 0
 1130 0b16 0023     		movs	r3, #0
 134:main.c        ****         
 1131              		.loc 1 134 0
 1132 0b18 1A46     		mov	r2, r3
 240:main.c        ****             case OP0_ARITH_ADD:
 1133              		.loc 1 240 0
 1134 0b1a AFE1     		b	.L16
 1135              	.LVL80:
 1136              	.L40:
 243:main.c        ****                 break;
 1137              		.loc 1 243 0
 1138 0b1c 12AB     		add	r3, sp, #72
 1139 0b1e 595D     		ldrb	r1, [r3, r5]	@ zero_extendqisi2
 1140 0b20 1A5D     		ldrb	r2, [r3, r4]	@ zero_extendqisi2
 1141              	.LVL81:
 1142 0b22 0A44     		add	r2, r2, r1
 1143 0b24 1A55     		strb	r2, [r3, r4]
 137:main.c        ****         
 1144              		.loc 1 137 0
 1145 0b26 0023     		movs	r3, #0
ARM GAS  C:\Users\info\AppData\Local\Temp\ccKQ3Zl2.s 			page 29


 134:main.c        ****         
 1146              		.loc 1 134 0
 1147 0b28 1A46     		mov	r2, r3
 244:main.c        ****             case OP0_ARITH_SUB:{
 1148              		.loc 1 244 0
 1149 0b2a A7E1     		b	.L16
 1150              	.LVL82:
 1151              	.L41:
 1152              	.LBB6:
 247:main.c        ****                 uint16_t vy = v[y];
 1153              		.loc 1 247 0
 1154 0b2c 12AA     		add	r2, sp, #72
 1155              	.LVL83:
 1156 0b2e 115D     		ldrb	r1, [r2, r4]	@ zero_extendqisi2
 1157              	.LVL84:
 248:main.c        ****                 uint16_t diff = vx - vy;                                
 1158              		.loc 1 248 0
 1159 0b30 505D     		ldrb	r0, [r2, r5]	@ zero_extendqisi2
 1160              	.LVL85:
 249:main.c        ****                 v[x] = diff;
 1161              		.loc 1 249 0
 1162 0b32 0B1A     		subs	r3, r1, r0
 1163              	.LVL86:
 250:main.c        ****                 v[0xf] = (diff & 0x100) ? 0 : 1;
 1164              		.loc 1 250 0
 1165 0b34 1355     		strb	r3, [r2, r4]
 251:main.c        ****                 break;
 1166              		.loc 1 251 0
 1167 0b36 C3F30723 		ubfx	r3, r3, #8, #8
 1168              	.LVL87:
 1169 0b3a 83F00103 		eor	r3, r3, #1
 1170 0b3e 03F00103 		and	r3, r3, #1
 1171 0b42 8DF85730 		strb	r3, [sp, #87]
 1172              	.LBE6:
 137:main.c        ****         
 1173              		.loc 1 137 0
 1174 0b46 0023     		movs	r3, #0
 134:main.c        ****         
 1175              		.loc 1 134 0
 1176 0b48 1A46     		mov	r2, r3
 1177              	.LBB7:
 252:main.c        ****             }
 1178              		.loc 1 252 0
 1179 0b4a 97E1     		b	.L16
 1180              	.LVL88:
 1181              	.L42:
 1182              	.LBE7:
 256:main.c        ****                 v[x] >>= 1;
 1183              		.loc 1 256 0
 1184 0b4c 12AB     		add	r3, sp, #72
 1185 0b4e 1A5D     		ldrb	r2, [r3, r4]	@ zero_extendqisi2
 1186              	.LVL89:
 1187 0b50 02F00102 		and	r2, r2, #1
 1188 0b54 8DF85720 		strb	r2, [sp, #87]
 257:main.c        ****                 break;
 1189              		.loc 1 257 0
 1190 0b58 1A5D     		ldrb	r2, [r3, r4]	@ zero_extendqisi2
ARM GAS  C:\Users\info\AppData\Local\Temp\ccKQ3Zl2.s 			page 30


 1191 0b5a 5208     		lsrs	r2, r2, #1
 1192 0b5c 1A55     		strb	r2, [r3, r4]
 137:main.c        ****         
 1193              		.loc 1 137 0
 1194 0b5e 0023     		movs	r3, #0
 134:main.c        ****         
 1195              		.loc 1 134 0
 1196 0b60 1A46     		mov	r2, r3
 258:main.c        ****             case OP0_ARITH_SUBN:{
 1197              		.loc 1 258 0
 1198 0b62 8BE1     		b	.L16
 1199              	.LVL90:
 1200              	.L43:
 1201              	.LBB8:
 261:main.c        ****                 uint16_t vy = v[y];
 1202              		.loc 1 261 0
 1203 0b64 12AA     		add	r2, sp, #72
 1204              	.LVL91:
 1205 0b66 105D     		ldrb	r0, [r2, r4]	@ zero_extendqisi2
 1206              	.LVL92:
 262:main.c        ****                 uint16_t diff = vy - vx;                                
 1207              		.loc 1 262 0
 1208 0b68 515D     		ldrb	r1, [r2, r5]	@ zero_extendqisi2
 1209              	.LVL93:
 263:main.c        ****                 v[x] = diff;
 1210              		.loc 1 263 0
 1211 0b6a 0B1A     		subs	r3, r1, r0
 1212              	.LVL94:
 264:main.c        ****                 v[0xf] = (diff & 0x100) ? 0 : 1;
 1213              		.loc 1 264 0
 1214 0b6c 1355     		strb	r3, [r2, r4]
 265:main.c        ****                 break;
 1215              		.loc 1 265 0
 1216 0b6e C3F30723 		ubfx	r3, r3, #8, #8
 1217              	.LVL95:
 1218 0b72 83F00103 		eor	r3, r3, #1
 1219 0b76 03F00103 		and	r3, r3, #1
 1220 0b7a 8DF85730 		strb	r3, [sp, #87]
 1221              	.LBE8:
 137:main.c        ****         
 1222              		.loc 1 137 0
 1223 0b7e 0023     		movs	r3, #0
 134:main.c        ****         
 1224              		.loc 1 134 0
 1225 0b80 1A46     		mov	r2, r3
 1226              	.LBB9:
 266:main.c        ****             }
 1227              		.loc 1 266 0
 1228 0b82 7BE1     		b	.L16
 1229              	.LVL96:
 1230              	.L44:
 1231              	.LBE9:
 270:main.c        ****                 v[x] <<= 1;
 1232              		.loc 1 270 0
 1233 0b84 12AB     		add	r3, sp, #72
 1234 0b86 1A5D     		ldrb	r2, [r3, r4]	@ zero_extendqisi2
 1235              	.LVL97:
ARM GAS  C:\Users\info\AppData\Local\Temp\ccKQ3Zl2.s 			page 31


 1236 0b88 D209     		lsrs	r2, r2, #7
 1237 0b8a 8DF85720 		strb	r2, [sp, #87]
 271:main.c        ****                 break;
 1238              		.loc 1 271 0
 1239 0b8e 1A5D     		ldrb	r2, [r3, r4]	@ zero_extendqisi2
 1240 0b90 5200     		lsls	r2, r2, #1
 1241 0b92 1A55     		strb	r2, [r3, r4]
 137:main.c        ****         
 1242              		.loc 1 137 0
 1243 0b94 0023     		movs	r3, #0
 134:main.c        ****         
 1244              		.loc 1 134 0
 1245 0b96 1A46     		mov	r2, r3
 272:main.c        ****             default:
 1246              		.loc 1 272 0
 1247 0b98 70E1     		b	.L16
 1248              	.LVL98:
 1249              	.L25:
 280:main.c        ****             break;
 1250              		.loc 1 280 0
 1251 0b9a 9B46     		mov	fp, r3
 137:main.c        ****         
 1252              		.loc 1 137 0
 1253 0b9c 0023     		movs	r3, #0
 1254              	.LVL99:
 134:main.c        ****         
 1255              		.loc 1 134 0
 1256 0b9e 1A46     		mov	r2, r3
 1257              	.LVL100:
 281:main.c        ****         case OP3_RANDOM:
 1258              		.loc 1 281 0
 1259 0ba0 6CE1     		b	.L16
 1260              	.LVL101:
 1261              	.L27:
 284:main.c        ****             break;
 1262              		.loc 1 284 0
 1263 0ba2 FFF7FEFF 		bl	random_Read
 1264              	.LVL102:
 1265 0ba6 3040     		ands	r0, r0, r6
 1266 0ba8 12AB     		add	r3, sp, #72
 1267 0baa 1855     		strb	r0, [r3, r4]
 137:main.c        ****         
 1268              		.loc 1 137 0
 1269 0bac 0023     		movs	r3, #0
 134:main.c        ****         
 1270              		.loc 1 134 0
 1271 0bae 1A46     		mov	r2, r3
 285:main.c        ****         case OP3_DRAW:{
 1272              		.loc 1 285 0
 1273 0bb0 64E1     		b	.L16
 1274              	.LVL103:
 1275              	.L48:
 1276              	.LBB10:
 1277              	.LBB11:
 1278              	.LBB12:
 291:main.c        ****                     row = ((uint64_t)ram[i + j]) << (56 - v[x]);
 1279              		.loc 1 291 0
ARM GAS  C:\Users\info\AppData\Local\Temp\ccKQ3Zl2.s 			page 32


 1280 0bb2 12AB     		add	r3, sp, #72
 1281 0bb4 099A     		ldr	r2, [sp, #36]
 1282 0bb6 995C     		ldrb	r1, [r3, r2]	@ zero_extendqisi2
 1283 0bb8 3829     		cmp	r1, #56
 1284 0bba 19D8     		bhi	.L45
 292:main.c        ****                 } else {
 1285              		.loc 1 292 0
 1286 0bbc 0BEB0603 		add	r3, fp, r6
 1287 0bc0 16AA     		add	r2, sp, #88
 1288              	.LVL104:
 1289 0bc2 D25C     		ldrb	r2, [r2, r3]	@ zero_extendqisi2
 1290              	.LVL105:
 1291 0bc4 C1F13801 		rsb	r1, r1, #56
 1292 0bc8 A1F12000 		sub	r0, r1, #32
 1293 0bcc C1F12003 		rsb	r3, r1, #32
 1294 0bd0 4FF00009 		mov	r9, #0
 1295 0bd4 02FA00F0 		lsl	r0, r2, r0
 1296 0bd8 49EA0009 		orr	r9, r9, r0
 1297 0bdc 22FA03F3 		lsr	r3, r2, r3
 1298 0be0 49EA0309 		orr	r9, r9, r3
 1299 0be4 02FA01F8 		lsl	r8, r2, r1
 1300              	.LVL106:
 1301 0be8 27E0     		b	.L46
 1302              	.L95:
 1303 0bea 00BF     		.align	2
 1304              	.L94:
 1305 0bec 00000000 		.word	vram
 1306              	.LVL107:
 1307              	.L45:
 294:main.c        ****                         | ((uint64_t)ram[i + j]) << (120 - v[x]);
 1308              		.loc 1 294 0
 1309 0bf0 0BEB0603 		add	r3, fp, r6
 1310 0bf4 16AA     		add	r2, sp, #88
 1311              	.LVL108:
 1312 0bf6 D25C     		ldrb	r2, [r2, r3]	@ zero_extendqisi2
 1313              	.LVL109:
 1314 0bf8 A1F13803 		sub	r3, r1, #56
 1315 0bfc 22FA03F0 		lsr	r0, r2, r3
 1316 0c00 0490     		str	r0, [sp, #16]
 1317 0c02 0020     		movs	r0, #0
 1318 0c04 0590     		str	r0, [sp, #20]
 295:main.c        ****                 }
 1319              		.loc 1 295 0
 1320 0c06 C1F17801 		rsb	r1, r1, #120
 1321 0c0a A1F12000 		sub	r0, r1, #32
 1322 0c0e C1F12003 		rsb	r3, r1, #32
 1323 0c12 0024     		movs	r4, #0
 1324 0c14 02FA00F0 		lsl	r0, r2, r0
 1325 0c18 0443     		orrs	r4, r4, r0
 1326 0c1a 22FA03F3 		lsr	r3, r2, r3
 1327 0c1e 2046     		mov	r0, r4
 1328 0c20 1843     		orrs	r0, r0, r3
 1329 0c22 0190     		str	r0, [sp, #4]
 1330 0c24 02FA01F3 		lsl	r3, r2, r1
 1331 0c28 0093     		str	r3, [sp]
 294:main.c        ****                         | ((uint64_t)ram[i + j]) << (120 - v[x]);
 1332              		.loc 1 294 0
ARM GAS  C:\Users\info\AppData\Local\Temp\ccKQ3Zl2.s 			page 33


 1333 0c2a DDE90489 		ldrd	r8, [sp, #16]
 1334 0c2e DDE90034 		ldrd	r3, [sp]
 1335 0c32 48EA0308 		orr	r8, r8, r3
 1336 0c36 49EA0409 		orr	r9, r9, r4
 1337              	.LVL110:
 1338              	.L46:
 297:main.c        ****                 vram[(v[y] + j) % 32] ^= row;
 1339              		.loc 1 297 0 discriminator 2
 1340 0c3a 12AB     		add	r3, sp, #72
 1341 0c3c 5B5D     		ldrb	r3, [r3, r5]	@ zero_extendqisi2
 1342 0c3e 03EB060E 		add	lr, r3, r6
 1343 0c42 994B     		ldr	r3, .L96
 1344 0c44 1EEA0303 		ands	r3, lr, r3
 1345 0c48 03D5     		bpl	.L47
 1346 0c4a 013B     		subs	r3, r3, #1
 1347 0c4c 63F01F03 		orn	r3, r3, #31
 1348 0c50 0133     		adds	r3, r3, #1
 1349              	.L47:
 1350 0c52 964A     		ldr	r2, .L96+4
 1351 0c54 02EBC30E 		add	lr, r2, r3, lsl #3
 1352 0c58 DEE90023 		ldrd	r2, [lr]
 1353 0c5c CDE90623 		strd	r2, [sp, #24]
 1354 0c60 02EA0800 		and	r0, r2, r8
 1355 0c64 03EA0901 		and	r1, r3, r9
 1356 0c68 DDE90234 		ldrd	r3, [sp, #8]
 1357 0c6c 0343     		orrs	r3, r3, r0
 1358 0c6e 0C43     		orrs	r4, r4, r1
 1359 0c70 CDE90234 		strd	r3, [sp, #8]
 1360              	.LVL111:
 298:main.c        ****             }
 1361              		.loc 1 298 0 discriminator 2
 1362 0c74 DDE90623 		ldrd	r2, [sp, #24]
 1363 0c78 82EA0802 		eor	r2, r2, r8
 1364 0c7c 83EA0903 		eor	r3, r3, r9
 1365              	.LVL112:
 1366 0c80 CEE90023 		strd	r2, [lr]
 1367              	.LBE12:
 289:main.c        ****                 uint64_t row = 0;
 1368              		.loc 1 289 0 discriminator 2
 1369 0c84 0136     		adds	r6, r6, #1
 1370              	.LVL113:
 1371 0c86 08E0     		b	.L28
 1372              	.LVL114:
 1373              	.L69:
 1374              	.LBE11:
 1375              	.LBE10:
 140:main.c        ****         case OP3_SYSTEM:
 1376              		.loc 1 140 0
 1377 0c88 0026     		movs	r6, #0
 1378              	.LVL115:
 1379 0c8a 0022     		movs	r2, #0
 1380              	.LVL116:
 1381 0c8c 0023     		movs	r3, #0
 1382              	.LVL117:
 1383 0c8e CDE90223 		strd	r2, [sp, #8]
 1384 0c92 C446     		mov	ip, r8
 1385 0c94 DDE90689 		ldrd	r8, [sp, #24]
ARM GAS  C:\Users\info\AppData\Local\Temp\ccKQ3Zl2.s 			page 34


 1386              	.LVL118:
 1387 0c98 0994     		str	r4, [sp, #36]
 1388              	.LVL119:
 1389              	.L28:
 1390              	.LBB14:
 1391              	.LBB13:
 289:main.c        ****                 uint64_t row = 0;
 1392              		.loc 1 289 0 discriminator 1
 1393 0c9a BE42     		cmp	r6, r7
 1394 0c9c 89DB     		blt	.L48
 1395 0c9e CDE90689 		strd	r8, [sp, #24]
 1396 0ca2 E046     		mov	r8, ip
 1397              	.LBE13:
 300:main.c        ****             break;
 1398              		.loc 1 300 0
 1399 0ca4 DDE90212 		ldrd	r1, [sp, #8]
 1400 0ca8 0B46     		mov	r3, r1
 1401 0caa 1343     		orrs	r3, r3, r2
 1402 0cac 14BF     		ite	ne
 1403 0cae 0123     		movne	r3, #1
 1404 0cb0 0023     		moveq	r3, #0
 1405 0cb2 8DF85730 		strb	r3, [sp, #87]
 1406              	.LBE14:
 137:main.c        ****         
 1407              		.loc 1 137 0
 1408 0cb6 0023     		movs	r3, #0
 134:main.c        ****         
 1409              		.loc 1 134 0
 1410 0cb8 1A46     		mov	r2, r3
 1411              	.LBB15:
 301:main.c        ****         }
 1412              		.loc 1 301 0
 1413 0cba DFE0     		b	.L16
 1414              	.LVL120:
 1415              	.L29:
 1416              	.LBE15:
 305:main.c        ****             case OP10_KEYBOARD_EQ:
 1417              		.loc 1 305 0
 1418 0cbc 9E2E     		cmp	r6, #158
 1419 0cbe 02D0     		beq	.L49
 1420 0cc0 A12E     		cmp	r6, #161
 1421 0cc2 11D0     		beq	.L50
 1422 0cc4 CFE0     		b	.L88
 1423              	.L49:
 308:main.c        ****                     pc += 2;
 1424              		.loc 1 308 0
 1425 0cc6 12AB     		add	r3, sp, #72
 1426              	.LVL121:
 1427 0cc8 1B5D     		ldrb	r3, [r3, r4]	@ zero_extendqisi2
 1428 0cca 03F00F03 		and	r3, r3, #15
 1429 0cce 784A     		ldr	r2, .L96+8
 1430              	.LVL122:
 1431 0cd0 1344     		add	r3, r3, r2
 1432 0cd2 1B79     		ldrb	r3, [r3, #4]	@ zero_extendqisi2
 1433 0cd4 012B     		cmp	r3, #1
 1434 0cd6 40F0C980 		bne	.L82
 309:main.c        ****                 }
ARM GAS  C:\Users\info\AppData\Local\Temp\ccKQ3Zl2.s 			page 35


 1435              		.loc 1 309 0
 1436 0cda 0AF1020A 		add	r10, r10, #2
 1437              	.LVL123:
 1438 0cde 1FFA8AFA 		uxth	r10, r10
 1439              	.LVL124:
 137:main.c        ****         
 1440              		.loc 1 137 0
 1441 0ce2 0023     		movs	r3, #0
 134:main.c        ****         
 1442              		.loc 1 134 0
 1443 0ce4 1A46     		mov	r2, r3
 1444 0ce6 C9E0     		b	.L16
 1445              	.LVL125:
 1446              	.L50:
 314:main.c        ****                     pc += 2;
 1447              		.loc 1 314 0
 1448 0ce8 12AB     		add	r3, sp, #72
 1449              	.LVL126:
 1450 0cea 1B5D     		ldrb	r3, [r3, r4]	@ zero_extendqisi2
 1451 0cec 03F00F03 		and	r3, r3, #15
 1452 0cf0 6F4A     		ldr	r2, .L96+8
 1453              	.LVL127:
 1454 0cf2 1344     		add	r3, r3, r2
 1455 0cf4 1B79     		ldrb	r3, [r3, #4]	@ zero_extendqisi2
 1456 0cf6 002B     		cmp	r3, #0
 1457 0cf8 40F0BB80 		bne	.L83
 315:main.c        ****                 }
 1458              		.loc 1 315 0
 1459 0cfc 0AF1020A 		add	r10, r10, #2
 1460              	.LVL128:
 1461 0d00 1FFA8AFA 		uxth	r10, r10
 1462              	.LVL129:
 134:main.c        ****         
 1463              		.loc 1 134 0
 1464 0d04 1A46     		mov	r2, r3
 1465 0d06 B9E0     		b	.L16
 1466              	.LVL130:
 1467              	.L30:
 325:main.c        ****             case OP10_SPECIAL_LOAD_DELAY:
 1468              		.loc 1 325 0
 1469 0d08 1E2E     		cmp	r6, #30
 1470 0d0a 37D0     		beq	.L51
 1471 0d0c 0AD8     		bhi	.L52
 1472 0d0e 0A2E     		cmp	r6, #10
 1473 0d10 1AD0     		beq	.L53
 1474 0d12 02D8     		bhi	.L54
 1475 0d14 072E     		cmp	r6, #7
 1476 0d16 10D0     		beq	.L55
 1477 0d18 AEE0     		b	.L84
 1478              	.L54:
 1479 0d1a 152E     		cmp	r6, #21
 1480 0d1c 20D0     		beq	.L56
 1481 0d1e 182E     		cmp	r6, #24
 1482 0d20 25D0     		beq	.L57
 1483 0d22 A9E0     		b	.L84
 1484              	.L52:
 1485 0d24 332E     		cmp	r6, #51
ARM GAS  C:\Users\info\AppData\Local\Temp\ccKQ3Zl2.s 			page 36


 1486 0d26 3BD0     		beq	.L58
 1487 0d28 02D8     		bhi	.L59
 1488 0d2a 292E     		cmp	r6, #41
 1489 0d2c 2ED0     		beq	.L60
 1490 0d2e A3E0     		b	.L84
 1491              	.L59:
 1492 0d30 552E     		cmp	r6, #85
 1493 0d32 60D0     		beq	.L85
 1494 0d34 652E     		cmp	r6, #101
 1495 0d36 6DD0     		beq	.L86
 1496 0d38 9EE0     		b	.L84
 1497              	.L55:
 328:main.c        ****                 break;
 1498              		.loc 1 328 0
 1499 0d3a 5D4B     		ldr	r3, .L96+8
 1500              	.LVL131:
 1501 0d3c 5A78     		ldrb	r2, [r3, #1]	@ zero_extendqisi2
 1502              	.LVL132:
 1503 0d3e 12AB     		add	r3, sp, #72
 1504 0d40 1A55     		strb	r2, [r3, r4]
 137:main.c        ****         
 1505              		.loc 1 137 0
 1506 0d42 0023     		movs	r3, #0
 134:main.c        ****         
 1507              		.loc 1 134 0
 1508 0d44 1A46     		mov	r2, r3
 329:main.c        ****             case OP10_SPECIAL_LOAD_KEYBOARD:
 1509              		.loc 1 329 0
 1510 0d46 99E0     		b	.L16
 1511              	.LVL133:
 1512              	.L53:
 332:main.c        ****                 v[x] = lastkey;
 1513              		.loc 1 332 0 discriminator 1
 1514 0d48 594B     		ldr	r3, .L96+8
 1515 0d4a 1B7D     		ldrb	r3, [r3, #20]	@ zero_extendqisi2
 1516 0d4c 002B     		cmp	r3, #0
 1517 0d4e FBD0     		beq	.L53
 333:main.c        ****                 keyflag = 0;
 1518              		.loc 1 333 0
 1519 0d50 574B     		ldr	r3, .L96+8
 1520 0d52 597D     		ldrb	r1, [r3, #21]	@ zero_extendqisi2
 1521 0d54 12AA     		add	r2, sp, #72
 1522              	.LVL134:
 1523 0d56 1155     		strb	r1, [r2, r4]
 334:main.c        ****                 break;
 1524              		.loc 1 334 0
 1525 0d58 0022     		movs	r2, #0
 1526 0d5a 1A75     		strb	r2, [r3, #20]
 137:main.c        ****         
 1527              		.loc 1 137 0
 1528 0d5c 1346     		mov	r3, r2
 335:main.c        ****             case OP10_SPECIAL_SET_DELAY:
 1529              		.loc 1 335 0
 1530 0d5e 8DE0     		b	.L16
 1531              	.LVL135:
 1532              	.L56:
 338:main.c        ****                 break;
ARM GAS  C:\Users\info\AppData\Local\Temp\ccKQ3Zl2.s 			page 37


 1533              		.loc 1 338 0
 1534 0d60 12AB     		add	r3, sp, #72
 1535              	.LVL136:
 1536 0d62 1A5D     		ldrb	r2, [r3, r4]	@ zero_extendqisi2
 1537              	.LVL137:
 1538 0d64 524B     		ldr	r3, .L96+8
 1539 0d66 5A70     		strb	r2, [r3, #1]
 137:main.c        ****         
 1540              		.loc 1 137 0
 1541 0d68 0023     		movs	r3, #0
 134:main.c        ****         
 1542              		.loc 1 134 0
 1543 0d6a 1A46     		mov	r2, r3
 339:main.c        ****             case OP10_SPECIAL_SET_SOUND:
 1544              		.loc 1 339 0
 1545 0d6c 86E0     		b	.L16
 1546              	.LVL138:
 1547              	.L57:
 342:main.c        ****                 break;
 1548              		.loc 1 342 0
 1549 0d6e 12AB     		add	r3, sp, #72
 1550              	.LVL139:
 1551 0d70 1A5D     		ldrb	r2, [r3, r4]	@ zero_extendqisi2
 1552              	.LVL140:
 1553 0d72 4F4B     		ldr	r3, .L96+8
 1554 0d74 1A70     		strb	r2, [r3]
 137:main.c        ****         
 1555              		.loc 1 137 0
 1556 0d76 0023     		movs	r3, #0
 134:main.c        ****         
 1557              		.loc 1 134 0
 1558 0d78 1A46     		mov	r2, r3
 343:main.c        ****             case OP10_SPECIAL_ADD_TO_I:
 1559              		.loc 1 343 0
 1560 0d7a 7FE0     		b	.L16
 1561              	.LVL141:
 1562              	.L51:
 346:main.c        ****                 break;
 1563              		.loc 1 346 0
 1564 0d7c 12AB     		add	r3, sp, #72
 1565              	.LVL142:
 1566 0d7e 1B5D     		ldrb	r3, [r3, r4]	@ zero_extendqisi2
 1567 0d80 9B44     		add	fp, fp, r3
 1568              	.LVL143:
 1569 0d82 1FFA8BFB 		uxth	fp, fp
 1570              	.LVL144:
 137:main.c        ****         
 1571              		.loc 1 137 0
 1572 0d86 0023     		movs	r3, #0
 134:main.c        ****         
 1573              		.loc 1 134 0
 1574 0d88 1A46     		mov	r2, r3
 1575              	.LVL145:
 347:main.c        ****             case OP10_SPECIAL_LOAD_FONT:
 1576              		.loc 1 347 0
 1577 0d8a 77E0     		b	.L16
 1578              	.LVL146:
ARM GAS  C:\Users\info\AppData\Local\Temp\ccKQ3Zl2.s 			page 38


 1579              	.L60:
 350:main.c        ****                 break;
 1580              		.loc 1 350 0
 1581 0d8c 12AB     		add	r3, sp, #72
 1582              	.LVL147:
 1583 0d8e 13F804B0 		ldrb	fp, [r3, r4]	@ zero_extendqisi2
 1584              	.LVL148:
 1585 0d92 0BF00F0B 		and	fp, fp, #15
 1586 0d96 0BEB8B0B 		add	fp, fp, fp, lsl #2
 1587              	.LVL149:
 137:main.c        ****         
 1588              		.loc 1 137 0
 1589 0d9a 0023     		movs	r3, #0
 134:main.c        ****         
 1590              		.loc 1 134 0
 1591 0d9c 1A46     		mov	r2, r3
 1592              	.LVL150:
 351:main.c        ****             case OP10_SPECIAL_LOAD_BCD:
 1593              		.loc 1 351 0
 1594 0d9e 6DE0     		b	.L16
 1595              	.LVL151:
 1596              	.L58:
 354:main.c        ****                 ram[i+1] = (uint8_t)(v[x] / 10) % 10;
 1597              		.loc 1 354 0
 1598 0da0 16A8     		add	r0, sp, #88
 1599              	.LVL152:
 1600 0da2 12AB     		add	r3, sp, #72
 1601              	.LVL153:
 1602 0da4 195D     		ldrb	r1, [r3, r4]	@ zero_extendqisi2
 1603 0da6 434A     		ldr	r2, .L96+12
 1604              	.LVL154:
 1605 0da8 A2FB0132 		umull	r3, r2, r2, r1
 1606 0dac 424B     		ldr	r3, .L96+16
 1607 0dae 5209     		lsrs	r2, r2, #5
 1608 0db0 00F80B20 		strb	r2, [r0, fp]
 1609              	.LVL155:
 355:main.c        ****                 ram[i+2] = (uint8_t)(v[x]) % 10;
 1610              		.loc 1 355 0
 1611 0db4 0BF10105 		add	r5, fp, #1
 1612              	.LVL156:
 1613 0db8 A3FB0142 		umull	r4, r2, r3, r1
 1614              	.LVL157:
 1615 0dbc D208     		lsrs	r2, r2, #3
 1616 0dbe D4B2     		uxtb	r4, r2
 1617 0dc0 A3FB0463 		umull	r6, r3, r3, r4
 1618              	.LVL158:
 1619 0dc4 DB08     		lsrs	r3, r3, #3
 1620 0dc6 03EB8303 		add	r3, r3, r3, lsl #2
 1621 0dca 5E00     		lsls	r6, r3, #1
 1622 0dcc A41B     		subs	r4, r4, r6
 1623 0dce 4455     		strb	r4, [r0, r5]
 356:main.c        ****                 break;
 1624              		.loc 1 356 0
 1625 0dd0 0BF10203 		add	r3, fp, #2
 1626 0dd4 02EB8202 		add	r2, r2, r2, lsl #2
 1627 0dd8 5400     		lsls	r4, r2, #1
 1628 0dda 091B     		subs	r1, r1, r4
ARM GAS  C:\Users\info\AppData\Local\Temp\ccKQ3Zl2.s 			page 39


 1629 0ddc C154     		strb	r1, [r0, r3]
 137:main.c        ****         
 1630              		.loc 1 137 0
 1631 0dde 0023     		movs	r3, #0
 134:main.c        ****         
 1632              		.loc 1 134 0
 1633 0de0 1A46     		mov	r2, r3
 357:main.c        ****             case OP10_SPECIAL_LOAD_AT_I:
 1634              		.loc 1 357 0
 1635 0de2 4BE0     		b	.L16
 1636              	.LVL159:
 1637              	.L63:
 1638              	.LBB16:
 361:main.c        ****                 }
 1639              		.loc 1 361 0 discriminator 3
 1640 0de4 0BEB0301 		add	r1, fp, r3
 1641 0de8 16AA     		add	r2, sp, #88
 1642 0dea 12A8     		add	r0, sp, #72
 1643 0dec C05C     		ldrb	r0, [r0, r3]	@ zero_extendqisi2
 1644 0dee 5054     		strb	r0, [r2, r1]
 360:main.c        ****                     ram[i + j] = v[j];
 1645              		.loc 1 360 0 discriminator 3
 1646 0df0 0133     		adds	r3, r3, #1
 1647              	.LVL160:
 1648 0df2 DBB2     		uxtb	r3, r3
 1649              	.LVL161:
 1650 0df4 00E0     		b	.L61
 1651              	.LVL162:
 1652              	.L85:
 1653              	.LBE16:
 325:main.c        ****             case OP10_SPECIAL_LOAD_DELAY:
 1654              		.loc 1 325 0
 1655 0df6 0023     		movs	r3, #0
 1656              	.LVL163:
 1657              	.L61:
 1658              	.LBB17:
 360:main.c        ****                     ram[i + j] = v[j];
 1659              		.loc 1 360 0 discriminator 1
 1660 0df8 A342     		cmp	r3, r4
 1661 0dfa F3D9     		bls	.L63
 1662              	.LBE17:
 137:main.c        ****         
 1663              		.loc 1 137 0
 1664 0dfc 0023     		movs	r3, #0
 1665              	.LVL164:
 134:main.c        ****         
 1666              		.loc 1 134 0
 1667 0dfe 1A46     		mov	r2, r3
 1668 0e00 3CE0     		b	.L16
 1669              	.LVL165:
 1670              	.L64:
 1671              	.LBB18:
 367:main.c        ****                 }
 1672              		.loc 1 367 0 discriminator 3
 1673 0e02 0BEB0301 		add	r1, fp, r3
 1674 0e06 16AA     		add	r2, sp, #88
 1675              	.LVL166:
ARM GAS  C:\Users\info\AppData\Local\Temp\ccKQ3Zl2.s 			page 40


 1676 0e08 515C     		ldrb	r1, [r2, r1]	@ zero_extendqisi2
 1677 0e0a 12AA     		add	r2, sp, #72
 1678              	.LVL167:
 1679 0e0c D154     		strb	r1, [r2, r3]
 366:main.c        ****                     v[j] = ram[i + j];
 1680              		.loc 1 366 0 discriminator 3
 1681 0e0e 0133     		adds	r3, r3, #1
 1682              	.LVL168:
 1683 0e10 DBB2     		uxtb	r3, r3
 1684              	.LVL169:
 1685 0e12 00E0     		b	.L62
 1686              	.LVL170:
 1687              	.L86:
 1688              	.LBE18:
 325:main.c        ****             case OP10_SPECIAL_LOAD_DELAY:
 1689              		.loc 1 325 0
 1690 0e14 0023     		movs	r3, #0
 1691              	.LVL171:
 1692              	.L62:
 1693              	.LBB19:
 366:main.c        ****                     v[j] = ram[i + j];
 1694              		.loc 1 366 0 discriminator 1
 1695 0e16 A342     		cmp	r3, r4
 1696 0e18 F3D9     		bls	.L64
 1697              	.LBE19:
 137:main.c        ****         
 1698              		.loc 1 137 0
 1699 0e1a 0023     		movs	r3, #0
 1700              	.LVL172:
 134:main.c        ****         
 1701              		.loc 1 134 0
 1702 0e1c 1A46     		mov	r2, r3
 1703              	.LBB20:
 1704 0e1e 2DE0     		b	.L16
 1705              	.LVL173:
 1706              	.L68:
 1707              	.LBE20:
 167:main.c        ****             freeze_pc = 1;
 1708              		.loc 1 167 0
 1709 0e20 9A46     		mov	r10, r3
 1710              	.LVL174:
 168:main.c        ****             break;
 1711              		.loc 1 168 0
 1712 0e22 0123     		movs	r3, #1
 1713              	.LVL175:
 134:main.c        ****         
 1714              		.loc 1 134 0
 1715 0e24 0022     		movs	r2, #0
 1716              	.LVL176:
 1717 0e26 29E0     		b	.L16
 1718              	.LVL177:
 1719              	.L70:
 137:main.c        ****         
 1720              		.loc 1 137 0
 1721 0e28 0023     		movs	r3, #0
 1722              	.LVL178:
 144:main.c        ****             } else {
ARM GAS  C:\Users\info\AppData\Local\Temp\ccKQ3Zl2.s 			page 41


 1723              		.loc 1 144 0
 1724 0e2a 0122     		movs	r2, #1
 1725              	.LVL179:
 1726 0e2c 26E0     		b	.L16
 1727              	.LVL180:
 1728              	.L87:
 137:main.c        ****         
 1729              		.loc 1 137 0
 1730 0e2e 0023     		movs	r3, #0
 1731              	.LVL181:
 160:main.c        ****                     break;
 1732              		.loc 1 160 0
 1733 0e30 0122     		movs	r2, #1
 1734              	.LVL182:
 1735 0e32 23E0     		b	.L16
 1736              	.LVL183:
 1737              	.L73:
 179:main.c        ****             freeze_pc = 1;
 1738              		.loc 1 179 0
 1739 0e34 9A46     		mov	r10, r3
 1740              	.LVL184:
 180:main.c        ****             break;
 1741              		.loc 1 180 0
 1742 0e36 0123     		movs	r3, #1
 1743              	.LVL185:
 134:main.c        ****         
 1744              		.loc 1 134 0
 1745 0e38 0022     		movs	r2, #0
 1746              	.LVL186:
 1747 0e3a 1FE0     		b	.L16
 1748              	.LVL187:
 1749              	.L74:
 137:main.c        ****         
 1750              		.loc 1 137 0
 1751 0e3c 0023     		movs	r3, #0
 134:main.c        ****         
 1752              		.loc 1 134 0
 1753 0e3e 1A46     		mov	r2, r3
 1754              	.LVL188:
 1755 0e40 1CE0     		b	.L16
 1756              	.LVL189:
 1757              	.L75:
 137:main.c        ****         
 1758              		.loc 1 137 0
 1759 0e42 0023     		movs	r3, #0
 134:main.c        ****         
 1760              		.loc 1 134 0
 1761 0e44 1A46     		mov	r2, r3
 1762              	.LVL190:
 1763 0e46 19E0     		b	.L16
 1764              	.LVL191:
 1765              	.L76:
 137:main.c        ****         
 1766              		.loc 1 137 0
 1767 0e48 0023     		movs	r3, #0
 1768              	.LVL192:
 201:main.c        ****             }
ARM GAS  C:\Users\info\AppData\Local\Temp\ccKQ3Zl2.s 			page 42


 1769              		.loc 1 201 0
 1770 0e4a 0122     		movs	r2, #1
 1771              	.LVL193:
 1772 0e4c 16E0     		b	.L16
 1773              	.L77:
 137:main.c        ****         
 1774              		.loc 1 137 0
 1775 0e4e 0023     		movs	r3, #0
 134:main.c        ****         
 1776              		.loc 1 134 0
 1777 0e50 1A46     		mov	r2, r3
 1778 0e52 13E0     		b	.L16
 1779              	.LVL194:
 1780              	.L78:
 137:main.c        ****         
 1781              		.loc 1 137 0
 1782 0e54 0023     		movs	r3, #0
 1783              	.LVL195:
 211:main.c        ****             }
 1784              		.loc 1 211 0
 1785 0e56 0122     		movs	r2, #1
 1786              	.LVL196:
 1787 0e58 10E0     		b	.L16
 1788              	.L79:
 137:main.c        ****         
 1789              		.loc 1 137 0
 1790 0e5a 0023     		movs	r3, #0
 134:main.c        ****         
 1791              		.loc 1 134 0
 1792 0e5c 1A46     		mov	r2, r3
 1793 0e5e 0DE0     		b	.L16
 1794              	.LVL197:
 1795              	.L80:
 137:main.c        ****         
 1796              		.loc 1 137 0
 1797 0e60 0023     		movs	r3, #0
 274:main.c        ****                 break;
 1798              		.loc 1 274 0
 1799 0e62 0122     		movs	r2, #1
 1800              	.LVL198:
 1801 0e64 0AE0     		b	.L16
 1802              	.LVL199:
 1803              	.L88:
 137:main.c        ****         
 1804              		.loc 1 137 0
 1805 0e66 0023     		movs	r3, #0
 1806              	.LVL200:
 319:main.c        ****                 break;
 1807              		.loc 1 319 0
 1808 0e68 0122     		movs	r2, #1
 1809              	.LVL201:
 1810 0e6a 07E0     		b	.L16
 1811              	.L82:
 137:main.c        ****         
 1812              		.loc 1 137 0
 1813 0e6c 0023     		movs	r3, #0
 134:main.c        ****         
ARM GAS  C:\Users\info\AppData\Local\Temp\ccKQ3Zl2.s 			page 43


 1814              		.loc 1 134 0
 1815 0e6e 1A46     		mov	r2, r3
 1816 0e70 04E0     		b	.L16
 1817              	.L83:
 137:main.c        ****         
 1818              		.loc 1 137 0
 1819 0e72 0023     		movs	r3, #0
 134:main.c        ****         
 1820              		.loc 1 134 0
 1821 0e74 1A46     		mov	r2, r3
 1822 0e76 01E0     		b	.L16
 1823              	.LVL202:
 1824              	.L84:
 137:main.c        ****         
 1825              		.loc 1 137 0
 1826 0e78 0023     		movs	r3, #0
 1827              	.LVL203:
 371:main.c        ****                 break;
 1828              		.loc 1 371 0
 1829 0e7a 0122     		movs	r2, #1
 1830              	.LVL204:
 1831              	.L16:
 377:main.c        ****             break;
 378:main.c        ****         }
 379:main.c        ****         if (invalid_op) {
 1832              		.loc 1 379 0
 1833 0e7c 62B1     		cbz	r2, .L65
 1834              	.LVL205:
 1835              	.L66:
 380:main.c        ****             /* Halt and dump core if invalid instruction received */
 381:main.c        ****             while(1){
 382:main.c        ****                 pin_led_Write(1);
 1836              		.loc 1 382 0 discriminator 1
 1837 0e7e 0120     		movs	r0, #1
 1838 0e80 FFF7FEFF 		bl	pin_led_Write
 1839              	.LVL206:
 383:main.c        ****                 CyDelay(100);
 1840              		.loc 1 383 0 discriminator 1
 1841 0e84 6420     		movs	r0, #100
 1842 0e86 FFF7FEFF 		bl	CyDelay
 1843              	.LVL207:
 384:main.c        ****                 pin_led_Write(0);
 1844              		.loc 1 384 0 discriminator 1
 1845 0e8a 0020     		movs	r0, #0
 1846 0e8c FFF7FEFF 		bl	pin_led_Write
 1847              	.LVL208:
 385:main.c        ****                 CyDelay(100);
 1848              		.loc 1 385 0 discriminator 1
 1849 0e90 6420     		movs	r0, #100
 1850 0e92 FFF7FEFF 		bl	CyDelay
 1851              	.LVL209:
 1852 0e96 F2E7     		b	.L66
 1853              	.LVL210:
 1854              	.L65:
 386:main.c        ****             }
 387:main.c        ****         }
 388:main.c        ****         if (!freeze_pc){
ARM GAS  C:\Users\info\AppData\Local\Temp\ccKQ3Zl2.s 			page 44


 1855              		.loc 1 388 0
 1856 0e98 002B     		cmp	r3, #0
 1857 0e9a 7FF465AD 		bne	.L12
 389:main.c        ****             /* Increment PC */
 390:main.c        ****             pc += 2;
 1858              		.loc 1 390 0
 1859 0e9e 0AF1020A 		add	r10, r10, #2
 1860              	.LVL211:
 1861 0ea2 1FFA8AFA 		uxth	r10, r10
 1862              	.LVL212:
 1863 0ea6 5FE5     		b	.L12
 1864              	.L97:
 1865              		.align	2
 1866              	.L96:
 1867 0ea8 1F000080 		.word	-2147483617
 1868 0eac 00000000 		.word	vram
 1869 0eb0 00000000 		.word	.LANCHOR0
 1870 0eb4 1F85EB51 		.word	1374389535
 1871 0eb8 CDCCCCCC 		.word	-858993459
 1872              	.LBE3:
 1873              		.cfi_endproc
 1874              	.LFE64:
 1875              		.size	main, .-main
 1876              		.global	led
 1877              		.global	keyflag
 1878              		.global	lastkey
 1879              		.global	keys
 1880              		.global	tmr
 1881              		.global	snd
 1882              		.comm	vram,256,8
 1883              		.bss
 1884              		.align	2
 1885              		.set	.LANCHOR0,. + 0
 1886              		.type	snd, %object
 1887              		.size	snd, 1
 1888              	snd:
 1889 0000 00       		.space	1
 1890              		.type	tmr, %object
 1891              		.size	tmr, 1
 1892              	tmr:
 1893 0001 00       		.space	1
 1894 0002 0000     		.space	2
 1895              		.type	keys, %object
 1896              		.size	keys, 16
 1897              	keys:
 1898 0004 00000000 		.space	16
 1898      00000000 
 1898      00000000 
 1898      00000000 
 1899              		.type	keyflag, %object
 1900              		.size	keyflag, 1
 1901              	keyflag:
 1902 0014 00       		.space	1
 1903              		.type	lastkey, %object
 1904              		.size	lastkey, 1
 1905              	lastkey:
 1906 0015 00       		.space	1
ARM GAS  C:\Users\info\AppData\Local\Temp\ccKQ3Zl2.s 			page 45


 1907              		.type	led, %object
 1908              		.size	led, 1
 1909              	led:
 1910 0016 00       		.space	1
 1911              		.text
 1912              	.Letext0:
 1913              		.file 2 "c:\\program files (x86)\\cypress\\psoc creator\\4.2\\psoc creator\\import\\gnu\\arm\\5.4.
 1914              		.file 3 "c:\\program files (x86)\\cypress\\psoc creator\\4.2\\psoc creator\\import\\gnu\\arm\\5.4.
 1915              		.file 4 "Generated_Source\\PSoC5/core_cm3.h"
 1916              		.file 5 "Generated_Source\\PSoC5/pin_snd.h"
 1917              		.file 6 "Generated_Source\\PSoC5/random.h"
 1918              		.file 7 "Generated_Source\\PSoC5/pin_led.h"
 1919              		.file 8 "Generated_Source\\PSoC5/CyLib.h"
 1920              		.file 9 "Generated_Source\\PSoC5/isr_timer.h"
 1921              		.section	.debug_info,"",%progbits
 1922              	.Ldebug_info0:
 1923 0000 47050000 		.4byte	0x547
 1924 0004 0400     		.2byte	0x4
 1925 0006 00000000 		.4byte	.Ldebug_abbrev0
 1926 000a 04       		.byte	0x4
 1927 000b 01       		.uleb128 0x1
 1928 000c 31020000 		.4byte	.LASF42
 1929 0010 0C       		.byte	0xc
 1930 0011 E2010000 		.4byte	.LASF43
 1931 0015 44000000 		.4byte	.LASF44
 1932 0019 B8000000 		.4byte	.Ldebug_ranges0+0xb8
 1933 001d 00000000 		.4byte	0
 1934 0021 00000000 		.4byte	.Ldebug_line0
 1935 0025 02       		.uleb128 0x2
 1936 0026 01       		.byte	0x1
 1937 0027 06       		.byte	0x6
 1938 0028 36010000 		.4byte	.LASF0
 1939 002c 03       		.uleb128 0x3
 1940 002d 05010000 		.4byte	.LASF3
 1941 0031 02       		.byte	0x2
 1942 0032 1D       		.byte	0x1d
 1943 0033 37000000 		.4byte	0x37
 1944 0037 02       		.uleb128 0x2
 1945 0038 01       		.byte	0x1
 1946 0039 08       		.byte	0x8
 1947 003a 28010000 		.4byte	.LASF1
 1948 003e 02       		.uleb128 0x2
 1949 003f 02       		.byte	0x2
 1950 0040 05       		.byte	0x5
 1951 0041 29000000 		.4byte	.LASF2
 1952 0045 03       		.uleb128 0x3
 1953 0046 AE000000 		.4byte	.LASF4
 1954 004a 02       		.byte	0x2
 1955 004b 2B       		.byte	0x2b
 1956 004c 50000000 		.4byte	0x50
 1957 0050 02       		.uleb128 0x2
 1958 0051 02       		.byte	0x2
 1959 0052 07       		.byte	0x7
 1960 0053 89010000 		.4byte	.LASF5
 1961 0057 03       		.uleb128 0x3
 1962 0058 0C020000 		.4byte	.LASF6
 1963 005c 02       		.byte	0x2
ARM GAS  C:\Users\info\AppData\Local\Temp\ccKQ3Zl2.s 			page 46


 1964 005d 3F       		.byte	0x3f
 1965 005e 62000000 		.4byte	0x62
 1966 0062 02       		.uleb128 0x2
 1967 0063 04       		.byte	0x4
 1968 0064 05       		.byte	0x5
 1969 0065 C1010000 		.4byte	.LASF7
 1970 0069 02       		.uleb128 0x2
 1971 006a 04       		.byte	0x4
 1972 006b 07       		.byte	0x7
 1973 006c E9010000 		.4byte	.LASF8
 1974 0070 02       		.uleb128 0x2
 1975 0071 08       		.byte	0x8
 1976 0072 05       		.byte	0x5
 1977 0073 D1000000 		.4byte	.LASF9
 1978 0077 03       		.uleb128 0x3
 1979 0078 D7010000 		.4byte	.LASF10
 1980 007c 02       		.byte	0x2
 1981 007d 5B       		.byte	0x5b
 1982 007e 82000000 		.4byte	0x82
 1983 0082 02       		.uleb128 0x2
 1984 0083 08       		.byte	0x8
 1985 0084 07       		.byte	0x7
 1986 0085 DF000000 		.4byte	.LASF11
 1987 0089 04       		.uleb128 0x4
 1988 008a 04       		.byte	0x4
 1989 008b 05       		.byte	0x5
 1990 008c 696E7400 		.ascii	"int\000"
 1991 0090 02       		.uleb128 0x2
 1992 0091 04       		.byte	0x4
 1993 0092 07       		.byte	0x7
 1994 0093 4A010000 		.4byte	.LASF12
 1995 0097 03       		.uleb128 0x3
 1996 0098 C3000000 		.4byte	.LASF13
 1997 009c 03       		.byte	0x3
 1998 009d 18       		.byte	0x18
 1999 009e 2C000000 		.4byte	0x2c
 2000 00a2 03       		.uleb128 0x3
 2001 00a3 B8010000 		.4byte	.LASF14
 2002 00a7 03       		.byte	0x3
 2003 00a8 24       		.byte	0x24
 2004 00a9 45000000 		.4byte	0x45
 2005 00ad 03       		.uleb128 0x3
 2006 00ae CF010000 		.4byte	.LASF15
 2007 00b2 03       		.byte	0x3
 2008 00b3 2C       		.byte	0x2c
 2009 00b4 57000000 		.4byte	0x57
 2010 00b8 03       		.uleb128 0x3
 2011 00b9 20000000 		.4byte	.LASF16
 2012 00bd 03       		.byte	0x3
 2013 00be 3C       		.byte	0x3c
 2014 00bf 77000000 		.4byte	0x77
 2015 00c3 02       		.uleb128 0x2
 2016 00c4 04       		.byte	0x4
 2017 00c5 04       		.byte	0x4
 2018 00c6 CB000000 		.4byte	.LASF17
 2019 00ca 02       		.uleb128 0x2
 2020 00cb 08       		.byte	0x8
ARM GAS  C:\Users\info\AppData\Local\Temp\ccKQ3Zl2.s 			page 47


 2021 00cc 04       		.byte	0x4
 2022 00cd FB010000 		.4byte	.LASF18
 2023 00d1 02       		.uleb128 0x2
 2024 00d2 01       		.byte	0x1
 2025 00d3 08       		.byte	0x8
 2026 00d4 B3010000 		.4byte	.LASF19
 2027 00d8 02       		.uleb128 0x2
 2028 00d9 08       		.byte	0x8
 2029 00da 04       		.byte	0x4
 2030 00db 38000000 		.4byte	.LASF20
 2031 00df 02       		.uleb128 0x2
 2032 00e0 04       		.byte	0x4
 2033 00e1 07       		.byte	0x7
 2034 00e2 16020000 		.4byte	.LASF21
 2035 00e6 05       		.uleb128 0x5
 2036 00e7 C7020000 		.4byte	.LASF45
 2037 00eb 01       		.byte	0x1
 2038 00ec 4E       		.byte	0x4e
 2039 00ed 00000000 		.4byte	.LFB63
 2040 00f1 34000000 		.4byte	.LFE63-.LFB63
 2041 00f5 01       		.uleb128 0x1
 2042 00f6 9C       		.byte	0x9c
 2043 00f7 1E010000 		.4byte	0x11e
 2044 00fb 06       		.uleb128 0x6
 2045 00fc 24000000 		.4byte	.LVL0
 2046 0100 E9040000 		.4byte	0x4e9
 2047 0104 0E010000 		.4byte	0x10e
 2048 0108 07       		.uleb128 0x7
 2049 0109 01       		.uleb128 0x1
 2050 010a 50       		.byte	0x50
 2051 010b 01       		.uleb128 0x1
 2052 010c 31       		.byte	0x31
 2053 010d 00       		.byte	0
 2054 010e 08       		.uleb128 0x8
 2055 010f 2C000000 		.4byte	.LVL1
 2056 0113 E9040000 		.4byte	0x4e9
 2057 0117 07       		.uleb128 0x7
 2058 0118 01       		.uleb128 0x1
 2059 0119 50       		.byte	0x50
 2060 011a 01       		.uleb128 0x1
 2061 011b 30       		.byte	0x30
 2062 011c 00       		.byte	0
 2063 011d 00       		.byte	0
 2064 011e 09       		.uleb128 0x9
 2065 011f CA010000 		.4byte	.LASF46
 2066 0123 01       		.byte	0x1
 2067 0124 58       		.byte	0x58
 2068 0125 89000000 		.4byte	0x89
 2069 0129 00000000 		.4byte	.LFB64
 2070 012d BC0E0000 		.4byte	.LFE64-.LFB64
 2071 0131 01       		.uleb128 0x1
 2072 0132 9C       		.byte	0x9c
 2073 0133 20040000 		.4byte	0x420
 2074 0137 0A       		.uleb128 0xa
 2075 0138 72616D00 		.ascii	"ram\000"
 2076 013c 01       		.byte	0x1
 2077 013d 60       		.byte	0x60
ARM GAS  C:\Users\info\AppData\Local\Temp\ccKQ3Zl2.s 			page 48


 2078 013e 20040000 		.4byte	0x420
 2079 0142 03       		.uleb128 0x3
 2080 0143 91       		.byte	0x91
 2081 0144 D85F     		.sleb128 -4136
 2082 0146 0A       		.uleb128 0xa
 2083 0147 7600     		.ascii	"v\000"
 2084 0149 01       		.byte	0x1
 2085 014a 63       		.byte	0x63
 2086 014b 31040000 		.4byte	0x431
 2087 014f 03       		.uleb128 0x3
 2088 0150 91       		.byte	0x91
 2089 0151 C85F     		.sleb128 -4152
 2090 0153 0B       		.uleb128 0xb
 2091 0154 6900     		.ascii	"i\000"
 2092 0156 01       		.byte	0x1
 2093 0157 64       		.byte	0x64
 2094 0158 A2000000 		.4byte	0xa2
 2095 015c 00000000 		.4byte	.LLST0
 2096 0160 0B       		.uleb128 0xb
 2097 0161 706300   		.ascii	"pc\000"
 2098 0164 01       		.byte	0x1
 2099 0165 65       		.byte	0x65
 2100 0166 A2000000 		.4byte	0xa2
 2101 016a 4B000000 		.4byte	.LLST1
 2102 016e 0B       		.uleb128 0xb
 2103 016f 737000   		.ascii	"sp\000"
 2104 0172 01       		.byte	0x1
 2105 0173 66       		.byte	0x66
 2106 0174 97000000 		.4byte	0x97
 2107 0178 0B010000 		.4byte	.LLST2
 2108 017c 0C       		.uleb128 0xc
 2109 017d 75010000 		.4byte	.LASF22
 2110 0181 01       		.byte	0x1
 2111 0182 67       		.byte	0x67
 2112 0183 41040000 		.4byte	0x441
 2113 0187 03       		.uleb128 0x3
 2114 0188 91       		.byte	0x91
 2115 0189 A85F     		.sleb128 -4184
 2116 018b 0D       		.uleb128 0xd
 2117 018c 38090000 		.4byte	.LBB2
 2118 0190 1A000000 		.4byte	.LBE2-.LBB2
 2119 0194 A6010000 		.4byte	0x1a6
 2120 0198 0B       		.uleb128 0xb
 2121 0199 6A00     		.ascii	"j\000"
 2122 019b 01       		.byte	0x1
 2123 019c 6A       		.byte	0x6a
 2124 019d 97000000 		.4byte	0x97
 2125 01a1 56010000 		.4byte	.LLST3
 2126 01a5 00       		.byte	0
 2127 01a6 0D       		.uleb128 0xd
 2128 01a7 68090000 		.4byte	.LBB3
 2129 01ab 54050000 		.4byte	.LBE3-.LBB3
 2130 01af AC030000 		.4byte	0x3ac
 2131 01b3 0E       		.uleb128 0xe
 2132 01b4 22010000 		.4byte	.LASF23
 2133 01b8 01       		.byte	0x1
 2134 01b9 76       		.byte	0x76
ARM GAS  C:\Users\info\AppData\Local\Temp\ccKQ3Zl2.s 			page 49


 2135 01ba A2000000 		.4byte	0xa2
 2136 01be 80010000 		.4byte	.LLST4
 2137 01c2 0B       		.uleb128 0xb
 2138 01c3 6F703300 		.ascii	"op3\000"
 2139 01c7 01       		.byte	0x1
 2140 01c8 79       		.byte	0x79
 2141 01c9 97000000 		.4byte	0x97
 2142 01cd E9050000 		.4byte	.LLST5
 2143 01d1 0B       		.uleb128 0xb
 2144 01d2 6F703200 		.ascii	"op2\000"
 2145 01d6 01       		.byte	0x1
 2146 01d7 7A       		.byte	0x7a
 2147 01d8 97000000 		.4byte	0x97
 2148 01dc 34100000 		.4byte	.LLST6
 2149 01e0 0E       		.uleb128 0xe
 2150 01e1 33000000 		.4byte	.LASF24
 2151 01e5 01       		.byte	0x1
 2152 01e6 7B       		.byte	0x7b
 2153 01e7 97000000 		.4byte	0x97
 2154 01eb 82100000 		.4byte	.LLST7
 2155 01ef 0A       		.uleb128 0xa
 2156 01f0 6F703000 		.ascii	"op0\000"
 2157 01f4 01       		.byte	0x1
 2158 01f5 7C       		.byte	0x7c
 2159 01f6 97000000 		.4byte	0x97
 2160 01fa 01       		.uleb128 0x1
 2161 01fb 57       		.byte	0x57
 2162 01fc 0B       		.uleb128 0xb
 2163 01fd 6E6E6E00 		.ascii	"nnn\000"
 2164 0201 01       		.byte	0x1
 2165 0202 7F       		.byte	0x7f
 2166 0203 A2000000 		.4byte	0xa2
 2167 0207 DB110000 		.4byte	.LLST8
 2168 020b 0B       		.uleb128 0xb
 2169 020c 7800     		.ascii	"x\000"
 2170 020e 01       		.byte	0x1
 2171 020f 80       		.byte	0x80
 2172 0210 97000000 		.4byte	0x97
 2173 0214 4D1B0000 		.4byte	.LLST9
 2174 0218 0B       		.uleb128 0xb
 2175 0219 7900     		.ascii	"y\000"
 2176 021b 01       		.byte	0x1
 2177 021c 81       		.byte	0x81
 2178 021d 97000000 		.4byte	0x97
 2179 0221 9B1B0000 		.4byte	.LLST10
 2180 0225 0B       		.uleb128 0xb
 2181 0226 6B6B00   		.ascii	"kk\000"
 2182 0229 01       		.byte	0x1
 2183 022a 82       		.byte	0x82
 2184 022b 97000000 		.4byte	0x97
 2185 022f B91B0000 		.4byte	.LLST11
 2186 0233 0A       		.uleb128 0xa
 2187 0234 6E00     		.ascii	"n\000"
 2188 0236 01       		.byte	0x1
 2189 0237 83       		.byte	0x83
 2190 0238 97000000 		.4byte	0x97
 2191 023c 01       		.uleb128 0x1
ARM GAS  C:\Users\info\AppData\Local\Temp\ccKQ3Zl2.s 			page 50


 2192 023d 57       		.byte	0x57
 2193 023e 0E       		.uleb128 0xe
 2194 023f 9C010000 		.4byte	.LASF25
 2195 0243 01       		.byte	0x1
 2196 0244 86       		.byte	0x86
 2197 0245 97000000 		.4byte	0x97
 2198 0249 121D0000 		.4byte	.LLST12
 2199 024d 0E       		.uleb128 0xe
 2200 024e 02020000 		.4byte	.LASF26
 2201 0252 01       		.byte	0x1
 2202 0253 89       		.byte	0x89
 2203 0254 97000000 		.4byte	0x97
 2204 0258 3C1D0000 		.4byte	.LLST13
 2205 025c 0F       		.uleb128 0xf
 2206 025d 00000000 		.4byte	.Ldebug_ranges0+0
 2207 0261 73020000 		.4byte	0x273
 2208 0265 0B       		.uleb128 0xb
 2209 0266 6A00     		.ascii	"j\000"
 2210 0268 01       		.byte	0x1
 2211 0269 95       		.byte	0x95
 2212 026a 89000000 		.4byte	0x89
 2213 026e 961D0000 		.4byte	.LLST14
 2214 0272 00       		.byte	0
 2215 0273 0F       		.uleb128 0xf
 2216 0274 18000000 		.4byte	.Ldebug_ranges0+0x18
 2217 0278 A8020000 		.4byte	0x2a8
 2218 027c 0B       		.uleb128 0xb
 2219 027d 767800   		.ascii	"vx\000"
 2220 0280 01       		.byte	0x1
 2221 0281 F7       		.byte	0xf7
 2222 0282 A2000000 		.4byte	0xa2
 2223 0286 B41D0000 		.4byte	.LLST15
 2224 028a 0B       		.uleb128 0xb
 2225 028b 767900   		.ascii	"vy\000"
 2226 028e 01       		.byte	0x1
 2227 028f F8       		.byte	0xf8
 2228 0290 A2000000 		.4byte	0xa2
 2229 0294 C71D0000 		.4byte	.LLST16
 2230 0298 0E       		.uleb128 0xe
 2231 0299 0E000000 		.4byte	.LASF27
 2232 029d 01       		.byte	0x1
 2233 029e F9       		.byte	0xf9
 2234 029f A2000000 		.4byte	0xa2
 2235 02a3 DA1D0000 		.4byte	.LLST17
 2236 02a7 00       		.byte	0
 2237 02a8 0F       		.uleb128 0xf
 2238 02a9 30000000 		.4byte	.Ldebug_ranges0+0x30
 2239 02ad E0020000 		.4byte	0x2e0
 2240 02b1 10       		.uleb128 0x10
 2241 02b2 767800   		.ascii	"vx\000"
 2242 02b5 01       		.byte	0x1
 2243 02b6 0501     		.2byte	0x105
 2244 02b8 A2000000 		.4byte	0xa2
 2245 02bc FD1D0000 		.4byte	.LLST18
 2246 02c0 10       		.uleb128 0x10
 2247 02c1 767900   		.ascii	"vy\000"
 2248 02c4 01       		.byte	0x1
ARM GAS  C:\Users\info\AppData\Local\Temp\ccKQ3Zl2.s 			page 51


 2249 02c5 0601     		.2byte	0x106
 2250 02c7 A2000000 		.4byte	0xa2
 2251 02cb 101E0000 		.4byte	.LLST19
 2252 02cf 11       		.uleb128 0x11
 2253 02d0 0E000000 		.4byte	.LASF27
 2254 02d4 01       		.byte	0x1
 2255 02d5 0701     		.2byte	0x107
 2256 02d7 A2000000 		.4byte	0xa2
 2257 02db 231E0000 		.4byte	.LLST20
 2258 02df 00       		.byte	0
 2259 02e0 0F       		.uleb128 0xf
 2260 02e1 48000000 		.4byte	.Ldebug_ranges0+0x48
 2261 02e5 28030000 		.4byte	0x328
 2262 02e9 11       		.uleb128 0x11
 2263 02ea B9000000 		.4byte	.LASF28
 2264 02ee 01       		.byte	0x1
 2265 02ef 1F01     		.2byte	0x11f
 2266 02f1 B8000000 		.4byte	0xb8
 2267 02f5 461E0000 		.4byte	.LLST21
 2268 02f9 12       		.uleb128 0x12
 2269 02fa 68000000 		.4byte	.Ldebug_ranges0+0x68
 2270 02fe 10       		.uleb128 0x10
 2271 02ff 6A00     		.ascii	"j\000"
 2272 0301 01       		.byte	0x1
 2273 0302 2101     		.2byte	0x121
 2274 0304 89000000 		.4byte	0x89
 2275 0308 851E0000 		.4byte	.LLST22
 2276 030c 13       		.uleb128 0x13
 2277 030d B20B0000 		.4byte	.LBB12
 2278 0311 D2000000 		.4byte	.LBE12-.LBB12
 2279 0315 10       		.uleb128 0x10
 2280 0316 726F7700 		.ascii	"row\000"
 2281 031a 01       		.byte	0x1
 2282 031b 2201     		.2byte	0x122
 2283 031d B8000000 		.4byte	0xb8
 2284 0321 A31E0000 		.4byte	.LLST23
 2285 0325 00       		.byte	0
 2286 0326 00       		.byte	0
 2287 0327 00       		.byte	0
 2288 0328 0F       		.uleb128 0xf
 2289 0329 80000000 		.4byte	.Ldebug_ranges0+0x80
 2290 032d 40030000 		.4byte	0x340
 2291 0331 10       		.uleb128 0x10
 2292 0332 6A00     		.ascii	"j\000"
 2293 0334 01       		.byte	0x1
 2294 0335 6801     		.2byte	0x168
 2295 0337 97000000 		.4byte	0x97
 2296 033b F31E0000 		.4byte	.LLST24
 2297 033f 00       		.byte	0
 2298 0340 0F       		.uleb128 0xf
 2299 0341 98000000 		.4byte	.Ldebug_ranges0+0x98
 2300 0345 58030000 		.4byte	0x358
 2301 0349 10       		.uleb128 0x10
 2302 034a 6A00     		.ascii	"j\000"
 2303 034c 01       		.byte	0x1
 2304 034d 6E01     		.2byte	0x16e
 2305 034f 97000000 		.4byte	0x97
ARM GAS  C:\Users\info\AppData\Local\Temp\ccKQ3Zl2.s 			page 52


 2306 0353 1C1F0000 		.4byte	.LLST25
 2307 0357 00       		.byte	0
 2308 0358 14       		.uleb128 0x14
 2309 0359 A60B0000 		.4byte	.LVL102
 2310 035d F4040000 		.4byte	0x4f4
 2311 0361 06       		.uleb128 0x6
 2312 0362 840E0000 		.4byte	.LVL206
 2313 0366 FF040000 		.4byte	0x4ff
 2314 036a 74030000 		.4byte	0x374
 2315 036e 07       		.uleb128 0x7
 2316 036f 01       		.uleb128 0x1
 2317 0370 50       		.byte	0x50
 2318 0371 01       		.uleb128 0x1
 2319 0372 31       		.byte	0x31
 2320 0373 00       		.byte	0
 2321 0374 06       		.uleb128 0x6
 2322 0375 8A0E0000 		.4byte	.LVL207
 2323 0379 0A050000 		.4byte	0x50a
 2324 037d 88030000 		.4byte	0x388
 2325 0381 07       		.uleb128 0x7
 2326 0382 01       		.uleb128 0x1
 2327 0383 50       		.byte	0x50
 2328 0384 02       		.uleb128 0x2
 2329 0385 08       		.byte	0x8
 2330 0386 64       		.byte	0x64
 2331 0387 00       		.byte	0
 2332 0388 06       		.uleb128 0x6
 2333 0389 900E0000 		.4byte	.LVL208
 2334 038d FF040000 		.4byte	0x4ff
 2335 0391 9B030000 		.4byte	0x39b
 2336 0395 07       		.uleb128 0x7
 2337 0396 01       		.uleb128 0x1
 2338 0397 50       		.byte	0x50
 2339 0398 01       		.uleb128 0x1
 2340 0399 30       		.byte	0x30
 2341 039a 00       		.byte	0
 2342 039b 08       		.uleb128 0x8
 2343 039c 960E0000 		.4byte	.LVL209
 2344 03a0 0A050000 		.4byte	0x50a
 2345 03a4 07       		.uleb128 0x7
 2346 03a5 01       		.uleb128 0x1
 2347 03a6 50       		.byte	0x50
 2348 03a7 02       		.uleb128 0x2
 2349 03a8 08       		.byte	0x8
 2350 03a9 64       		.byte	0x64
 2351 03aa 00       		.byte	0
 2352 03ab 00       		.byte	0
 2353 03ac 06       		.uleb128 0x6
 2354 03ad 10000000 		.4byte	.LVL2
 2355 03b1 15050000 		.4byte	0x515
 2356 03b5 C3030000 		.4byte	0x3c3
 2357 03b9 07       		.uleb128 0x7
 2358 03ba 01       		.uleb128 0x1
 2359 03bb 50       		.byte	0x50
 2360 03bc 05       		.uleb128 0x5
 2361 03bd 03       		.byte	0x3
 2362 03be 00000000 		.4byte	isr_tmr_handler
ARM GAS  C:\Users\info\AppData\Local\Temp\ccKQ3Zl2.s 			page 53


 2363 03c2 00       		.byte	0
 2364 03c3 06       		.uleb128 0x6
 2365 03c4 1E000000 		.4byte	.LVL3
 2366 03c8 20050000 		.4byte	0x520
 2367 03cc E4030000 		.4byte	0x3e4
 2368 03d0 07       		.uleb128 0x7
 2369 03d1 01       		.uleb128 0x1
 2370 03d2 50       		.byte	0x50
 2371 03d3 03       		.uleb128 0x3
 2372 03d4 91       		.byte	0x91
 2373 03d5 D85F     		.sleb128 -4136
 2374 03d7 07       		.uleb128 0x7
 2375 03d8 01       		.uleb128 0x1
 2376 03d9 51       		.byte	0x51
 2377 03da 01       		.uleb128 0x1
 2378 03db 30       		.byte	0x30
 2379 03dc 07       		.uleb128 0x7
 2380 03dd 01       		.uleb128 0x1
 2381 03de 52       		.byte	0x52
 2382 03df 03       		.uleb128 0x3
 2383 03e0 0A       		.byte	0xa
 2384 03e1 0010     		.2byte	0x1000
 2385 03e3 00       		.byte	0
 2386 03e4 06       		.uleb128 0x6
 2387 03e5 38090000 		.4byte	.LVL5
 2388 03e9 20050000 		.4byte	0x520
 2389 03ed 04040000 		.4byte	0x404
 2390 03f1 07       		.uleb128 0x7
 2391 03f2 01       		.uleb128 0x1
 2392 03f3 50       		.byte	0x50
 2393 03f4 03       		.uleb128 0x3
 2394 03f5 91       		.byte	0x91
 2395 03f6 A85F     		.sleb128 -4184
 2396 03f8 07       		.uleb128 0x7
 2397 03f9 01       		.uleb128 0x1
 2398 03fa 51       		.byte	0x51
 2399 03fb 01       		.uleb128 0x1
 2400 03fc 30       		.byte	0x30
 2401 03fd 07       		.uleb128 0x7
 2402 03fe 01       		.uleb128 0x1
 2403 03ff 52       		.byte	0x52
 2404 0400 02       		.uleb128 0x2
 2405 0401 08       		.byte	0x8
 2406 0402 20       		.byte	0x20
 2407 0403 00       		.byte	0
 2408 0404 14       		.uleb128 0x14
 2409 0405 56090000 		.4byte	.LVL9
 2410 0409 29050000 		.4byte	0x529
 2411 040d 14       		.uleb128 0x14
 2412 040e 5A090000 		.4byte	.LVL10
 2413 0412 34050000 		.4byte	0x534
 2414 0416 14       		.uleb128 0x14
 2415 0417 5E090000 		.4byte	.LVL11
 2416 041b 3F050000 		.4byte	0x53f
 2417 041f 00       		.byte	0
 2418 0420 15       		.uleb128 0x15
 2419 0421 97000000 		.4byte	0x97
ARM GAS  C:\Users\info\AppData\Local\Temp\ccKQ3Zl2.s 			page 54


 2420 0425 31040000 		.4byte	0x431
 2421 0429 16       		.uleb128 0x16
 2422 042a DF000000 		.4byte	0xdf
 2423 042e FF0F     		.2byte	0xfff
 2424 0430 00       		.byte	0
 2425 0431 15       		.uleb128 0x15
 2426 0432 97000000 		.4byte	0x97
 2427 0436 41040000 		.4byte	0x441
 2428 043a 17       		.uleb128 0x17
 2429 043b DF000000 		.4byte	0xdf
 2430 043f 0F       		.byte	0xf
 2431 0440 00       		.byte	0
 2432 0441 15       		.uleb128 0x15
 2433 0442 A2000000 		.4byte	0xa2
 2434 0446 51040000 		.4byte	0x451
 2435 044a 17       		.uleb128 0x17
 2436 044b DF000000 		.4byte	0xdf
 2437 044f 0F       		.byte	0xf
 2438 0450 00       		.byte	0
 2439 0451 18       		.uleb128 0x18
 2440 0452 24020000 		.4byte	.LASF29
 2441 0456 04       		.byte	0x4
 2442 0457 1207     		.2byte	0x712
 2443 0459 5D040000 		.4byte	0x45d
 2444 045d 19       		.uleb128 0x19
 2445 045e AD000000 		.4byte	0xad
 2446 0462 15       		.uleb128 0x15
 2447 0463 B8000000 		.4byte	0xb8
 2448 0467 72040000 		.4byte	0x472
 2449 046b 17       		.uleb128 0x17
 2450 046c DF000000 		.4byte	0xdf
 2451 0470 1F       		.byte	0x1f
 2452 0471 00       		.byte	0
 2453 0472 1A       		.uleb128 0x1a
 2454 0473 1F020000 		.4byte	.LASF30
 2455 0477 01       		.byte	0x1
 2456 0478 3B       		.byte	0x3b
 2457 0479 62040000 		.4byte	0x462
 2458 047d 05       		.uleb128 0x5
 2459 047e 03       		.byte	0x3
 2460 047f 00000000 		.4byte	vram
 2461 0483 1B       		.uleb128 0x1b
 2462 0484 736E6400 		.ascii	"snd\000"
 2463 0488 01       		.byte	0x1
 2464 0489 40       		.byte	0x40
 2465 048a 97000000 		.4byte	0x97
 2466 048e 05       		.uleb128 0x5
 2467 048f 03       		.byte	0x3
 2468 0490 00000000 		.4byte	snd
 2469 0494 1B       		.uleb128 0x1b
 2470 0495 746D7200 		.ascii	"tmr\000"
 2471 0499 01       		.byte	0x1
 2472 049a 40       		.byte	0x40
 2473 049b 97000000 		.4byte	0x97
 2474 049f 05       		.uleb128 0x5
 2475 04a0 03       		.byte	0x3
 2476 04a1 00000000 		.4byte	tmr
ARM GAS  C:\Users\info\AppData\Local\Temp\ccKQ3Zl2.s 			page 55


 2477 04a5 1A       		.uleb128 0x1a
 2478 04a6 1D010000 		.4byte	.LASF31
 2479 04aa 01       		.byte	0x1
 2480 04ab 49       		.byte	0x49
 2481 04ac 31040000 		.4byte	0x431
 2482 04b0 05       		.uleb128 0x5
 2483 04b1 03       		.byte	0x3
 2484 04b2 00000000 		.4byte	keys
 2485 04b6 1A       		.uleb128 0x1a
 2486 04b7 FD000000 		.4byte	.LASF32
 2487 04bb 01       		.byte	0x1
 2488 04bc 4A       		.byte	0x4a
 2489 04bd 97000000 		.4byte	0x97
 2490 04c1 05       		.uleb128 0x5
 2491 04c2 03       		.byte	0x3
 2492 04c3 00000000 		.4byte	lastkey
 2493 04c7 1A       		.uleb128 0x1a
 2494 04c8 42010000 		.4byte	.LASF33
 2495 04cc 01       		.byte	0x1
 2496 04cd 4A       		.byte	0x4a
 2497 04ce 97000000 		.4byte	0x97
 2498 04d2 05       		.uleb128 0x5
 2499 04d3 03       		.byte	0x3
 2500 04d4 00000000 		.4byte	keyflag
 2501 04d8 1B       		.uleb128 0x1b
 2502 04d9 6C656400 		.ascii	"led\000"
 2503 04dd 01       		.byte	0x1
 2504 04de 4C       		.byte	0x4c
 2505 04df 97000000 		.4byte	0x97
 2506 04e3 05       		.uleb128 0x5
 2507 04e4 03       		.byte	0x3
 2508 04e5 00000000 		.4byte	led
 2509 04e9 1C       		.uleb128 0x1c
 2510 04ea 0F010000 		.4byte	.LASF34
 2511 04ee 0F010000 		.4byte	.LASF34
 2512 04f2 05       		.byte	0x5
 2513 04f3 26       		.byte	0x26
 2514 04f4 1C       		.uleb128 0x1c
 2515 04f5 69010000 		.4byte	.LASF35
 2516 04f9 69010000 		.4byte	.LASF35
 2517 04fd 06       		.byte	0x6
 2518 04fe 6D       		.byte	0x6d
 2519 04ff 1C       		.uleb128 0x1c
 2520 0500 7B010000 		.4byte	.LASF36
 2521 0504 7B010000 		.4byte	.LASF36
 2522 0508 07       		.byte	0x7
 2523 0509 26       		.byte	0x26
 2524 050a 1C       		.uleb128 0x1c
 2525 050b BF020000 		.4byte	.LASF37
 2526 050f BF020000 		.4byte	.LASF37
 2527 0513 08       		.byte	0x8
 2528 0514 76       		.byte	0x76
 2529 0515 1C       		.uleb128 0x1c
 2530 0516 57010000 		.4byte	.LASF38
 2531 051a 57010000 		.4byte	.LASF38
 2532 051e 09       		.byte	0x9
 2533 051f 18       		.byte	0x18
ARM GAS  C:\Users\info\AppData\Local\Temp\ccKQ3Zl2.s 			page 56


 2534 0520 1D       		.uleb128 0x1d
 2535 0521 F6000000 		.4byte	.LASF47
 2536 0525 F6000000 		.4byte	.LASF47
 2537 0529 1C       		.uleb128 0x1c
 2538 052a 00000000 		.4byte	.LASF39
 2539 052e 00000000 		.4byte	.LASF39
 2540 0532 06       		.byte	0x6
 2541 0533 58       		.byte	0x58
 2542 0534 1C       		.uleb128 0x1c
 2543 0535 A7010000 		.4byte	.LASF40
 2544 0539 A7010000 		.4byte	.LASF40
 2545 053d 06       		.byte	0x6
 2546 053e 57       		.byte	0x57
 2547 053f 1C       		.uleb128 0x1c
 2548 0540 13000000 		.4byte	.LASF41
 2549 0544 13000000 		.4byte	.LASF41
 2550 0548 06       		.byte	0x6
 2551 0549 59       		.byte	0x59
 2552 054a 00       		.byte	0
 2553              		.section	.debug_abbrev,"",%progbits
 2554              	.Ldebug_abbrev0:
 2555 0000 01       		.uleb128 0x1
 2556 0001 11       		.uleb128 0x11
 2557 0002 01       		.byte	0x1
 2558 0003 25       		.uleb128 0x25
 2559 0004 0E       		.uleb128 0xe
 2560 0005 13       		.uleb128 0x13
 2561 0006 0B       		.uleb128 0xb
 2562 0007 03       		.uleb128 0x3
 2563 0008 0E       		.uleb128 0xe
 2564 0009 1B       		.uleb128 0x1b
 2565 000a 0E       		.uleb128 0xe
 2566 000b 55       		.uleb128 0x55
 2567 000c 17       		.uleb128 0x17
 2568 000d 11       		.uleb128 0x11
 2569 000e 01       		.uleb128 0x1
 2570 000f 10       		.uleb128 0x10
 2571 0010 17       		.uleb128 0x17
 2572 0011 00       		.byte	0
 2573 0012 00       		.byte	0
 2574 0013 02       		.uleb128 0x2
 2575 0014 24       		.uleb128 0x24
 2576 0015 00       		.byte	0
 2577 0016 0B       		.uleb128 0xb
 2578 0017 0B       		.uleb128 0xb
 2579 0018 3E       		.uleb128 0x3e
 2580 0019 0B       		.uleb128 0xb
 2581 001a 03       		.uleb128 0x3
 2582 001b 0E       		.uleb128 0xe
 2583 001c 00       		.byte	0
 2584 001d 00       		.byte	0
 2585 001e 03       		.uleb128 0x3
 2586 001f 16       		.uleb128 0x16
 2587 0020 00       		.byte	0
 2588 0021 03       		.uleb128 0x3
 2589 0022 0E       		.uleb128 0xe
 2590 0023 3A       		.uleb128 0x3a
ARM GAS  C:\Users\info\AppData\Local\Temp\ccKQ3Zl2.s 			page 57


 2591 0024 0B       		.uleb128 0xb
 2592 0025 3B       		.uleb128 0x3b
 2593 0026 0B       		.uleb128 0xb
 2594 0027 49       		.uleb128 0x49
 2595 0028 13       		.uleb128 0x13
 2596 0029 00       		.byte	0
 2597 002a 00       		.byte	0
 2598 002b 04       		.uleb128 0x4
 2599 002c 24       		.uleb128 0x24
 2600 002d 00       		.byte	0
 2601 002e 0B       		.uleb128 0xb
 2602 002f 0B       		.uleb128 0xb
 2603 0030 3E       		.uleb128 0x3e
 2604 0031 0B       		.uleb128 0xb
 2605 0032 03       		.uleb128 0x3
 2606 0033 08       		.uleb128 0x8
 2607 0034 00       		.byte	0
 2608 0035 00       		.byte	0
 2609 0036 05       		.uleb128 0x5
 2610 0037 2E       		.uleb128 0x2e
 2611 0038 01       		.byte	0x1
 2612 0039 3F       		.uleb128 0x3f
 2613 003a 19       		.uleb128 0x19
 2614 003b 03       		.uleb128 0x3
 2615 003c 0E       		.uleb128 0xe
 2616 003d 3A       		.uleb128 0x3a
 2617 003e 0B       		.uleb128 0xb
 2618 003f 3B       		.uleb128 0x3b
 2619 0040 0B       		.uleb128 0xb
 2620 0041 27       		.uleb128 0x27
 2621 0042 19       		.uleb128 0x19
 2622 0043 11       		.uleb128 0x11
 2623 0044 01       		.uleb128 0x1
 2624 0045 12       		.uleb128 0x12
 2625 0046 06       		.uleb128 0x6
 2626 0047 40       		.uleb128 0x40
 2627 0048 18       		.uleb128 0x18
 2628 0049 9742     		.uleb128 0x2117
 2629 004b 19       		.uleb128 0x19
 2630 004c 01       		.uleb128 0x1
 2631 004d 13       		.uleb128 0x13
 2632 004e 00       		.byte	0
 2633 004f 00       		.byte	0
 2634 0050 06       		.uleb128 0x6
 2635 0051 898201   		.uleb128 0x4109
 2636 0054 01       		.byte	0x1
 2637 0055 11       		.uleb128 0x11
 2638 0056 01       		.uleb128 0x1
 2639 0057 31       		.uleb128 0x31
 2640 0058 13       		.uleb128 0x13
 2641 0059 01       		.uleb128 0x1
 2642 005a 13       		.uleb128 0x13
 2643 005b 00       		.byte	0
 2644 005c 00       		.byte	0
 2645 005d 07       		.uleb128 0x7
 2646 005e 8A8201   		.uleb128 0x410a
 2647 0061 00       		.byte	0
ARM GAS  C:\Users\info\AppData\Local\Temp\ccKQ3Zl2.s 			page 58


 2648 0062 02       		.uleb128 0x2
 2649 0063 18       		.uleb128 0x18
 2650 0064 9142     		.uleb128 0x2111
 2651 0066 18       		.uleb128 0x18
 2652 0067 00       		.byte	0
 2653 0068 00       		.byte	0
 2654 0069 08       		.uleb128 0x8
 2655 006a 898201   		.uleb128 0x4109
 2656 006d 01       		.byte	0x1
 2657 006e 11       		.uleb128 0x11
 2658 006f 01       		.uleb128 0x1
 2659 0070 31       		.uleb128 0x31
 2660 0071 13       		.uleb128 0x13
 2661 0072 00       		.byte	0
 2662 0073 00       		.byte	0
 2663 0074 09       		.uleb128 0x9
 2664 0075 2E       		.uleb128 0x2e
 2665 0076 01       		.byte	0x1
 2666 0077 3F       		.uleb128 0x3f
 2667 0078 19       		.uleb128 0x19
 2668 0079 03       		.uleb128 0x3
 2669 007a 0E       		.uleb128 0xe
 2670 007b 3A       		.uleb128 0x3a
 2671 007c 0B       		.uleb128 0xb
 2672 007d 3B       		.uleb128 0x3b
 2673 007e 0B       		.uleb128 0xb
 2674 007f 27       		.uleb128 0x27
 2675 0080 19       		.uleb128 0x19
 2676 0081 49       		.uleb128 0x49
 2677 0082 13       		.uleb128 0x13
 2678 0083 8701     		.uleb128 0x87
 2679 0085 19       		.uleb128 0x19
 2680 0086 11       		.uleb128 0x11
 2681 0087 01       		.uleb128 0x1
 2682 0088 12       		.uleb128 0x12
 2683 0089 06       		.uleb128 0x6
 2684 008a 40       		.uleb128 0x40
 2685 008b 18       		.uleb128 0x18
 2686 008c 9742     		.uleb128 0x2117
 2687 008e 19       		.uleb128 0x19
 2688 008f 01       		.uleb128 0x1
 2689 0090 13       		.uleb128 0x13
 2690 0091 00       		.byte	0
 2691 0092 00       		.byte	0
 2692 0093 0A       		.uleb128 0xa
 2693 0094 34       		.uleb128 0x34
 2694 0095 00       		.byte	0
 2695 0096 03       		.uleb128 0x3
 2696 0097 08       		.uleb128 0x8
 2697 0098 3A       		.uleb128 0x3a
 2698 0099 0B       		.uleb128 0xb
 2699 009a 3B       		.uleb128 0x3b
 2700 009b 0B       		.uleb128 0xb
 2701 009c 49       		.uleb128 0x49
 2702 009d 13       		.uleb128 0x13
 2703 009e 02       		.uleb128 0x2
 2704 009f 18       		.uleb128 0x18
ARM GAS  C:\Users\info\AppData\Local\Temp\ccKQ3Zl2.s 			page 59


 2705 00a0 00       		.byte	0
 2706 00a1 00       		.byte	0
 2707 00a2 0B       		.uleb128 0xb
 2708 00a3 34       		.uleb128 0x34
 2709 00a4 00       		.byte	0
 2710 00a5 03       		.uleb128 0x3
 2711 00a6 08       		.uleb128 0x8
 2712 00a7 3A       		.uleb128 0x3a
 2713 00a8 0B       		.uleb128 0xb
 2714 00a9 3B       		.uleb128 0x3b
 2715 00aa 0B       		.uleb128 0xb
 2716 00ab 49       		.uleb128 0x49
 2717 00ac 13       		.uleb128 0x13
 2718 00ad 02       		.uleb128 0x2
 2719 00ae 17       		.uleb128 0x17
 2720 00af 00       		.byte	0
 2721 00b0 00       		.byte	0
 2722 00b1 0C       		.uleb128 0xc
 2723 00b2 34       		.uleb128 0x34
 2724 00b3 00       		.byte	0
 2725 00b4 03       		.uleb128 0x3
 2726 00b5 0E       		.uleb128 0xe
 2727 00b6 3A       		.uleb128 0x3a
 2728 00b7 0B       		.uleb128 0xb
 2729 00b8 3B       		.uleb128 0x3b
 2730 00b9 0B       		.uleb128 0xb
 2731 00ba 49       		.uleb128 0x49
 2732 00bb 13       		.uleb128 0x13
 2733 00bc 02       		.uleb128 0x2
 2734 00bd 18       		.uleb128 0x18
 2735 00be 00       		.byte	0
 2736 00bf 00       		.byte	0
 2737 00c0 0D       		.uleb128 0xd
 2738 00c1 0B       		.uleb128 0xb
 2739 00c2 01       		.byte	0x1
 2740 00c3 11       		.uleb128 0x11
 2741 00c4 01       		.uleb128 0x1
 2742 00c5 12       		.uleb128 0x12
 2743 00c6 06       		.uleb128 0x6
 2744 00c7 01       		.uleb128 0x1
 2745 00c8 13       		.uleb128 0x13
 2746 00c9 00       		.byte	0
 2747 00ca 00       		.byte	0
 2748 00cb 0E       		.uleb128 0xe
 2749 00cc 34       		.uleb128 0x34
 2750 00cd 00       		.byte	0
 2751 00ce 03       		.uleb128 0x3
 2752 00cf 0E       		.uleb128 0xe
 2753 00d0 3A       		.uleb128 0x3a
 2754 00d1 0B       		.uleb128 0xb
 2755 00d2 3B       		.uleb128 0x3b
 2756 00d3 0B       		.uleb128 0xb
 2757 00d4 49       		.uleb128 0x49
 2758 00d5 13       		.uleb128 0x13
 2759 00d6 02       		.uleb128 0x2
 2760 00d7 17       		.uleb128 0x17
 2761 00d8 00       		.byte	0
ARM GAS  C:\Users\info\AppData\Local\Temp\ccKQ3Zl2.s 			page 60


 2762 00d9 00       		.byte	0
 2763 00da 0F       		.uleb128 0xf
 2764 00db 0B       		.uleb128 0xb
 2765 00dc 01       		.byte	0x1
 2766 00dd 55       		.uleb128 0x55
 2767 00de 17       		.uleb128 0x17
 2768 00df 01       		.uleb128 0x1
 2769 00e0 13       		.uleb128 0x13
 2770 00e1 00       		.byte	0
 2771 00e2 00       		.byte	0
 2772 00e3 10       		.uleb128 0x10
 2773 00e4 34       		.uleb128 0x34
 2774 00e5 00       		.byte	0
 2775 00e6 03       		.uleb128 0x3
 2776 00e7 08       		.uleb128 0x8
 2777 00e8 3A       		.uleb128 0x3a
 2778 00e9 0B       		.uleb128 0xb
 2779 00ea 3B       		.uleb128 0x3b
 2780 00eb 05       		.uleb128 0x5
 2781 00ec 49       		.uleb128 0x49
 2782 00ed 13       		.uleb128 0x13
 2783 00ee 02       		.uleb128 0x2
 2784 00ef 17       		.uleb128 0x17
 2785 00f0 00       		.byte	0
 2786 00f1 00       		.byte	0
 2787 00f2 11       		.uleb128 0x11
 2788 00f3 34       		.uleb128 0x34
 2789 00f4 00       		.byte	0
 2790 00f5 03       		.uleb128 0x3
 2791 00f6 0E       		.uleb128 0xe
 2792 00f7 3A       		.uleb128 0x3a
 2793 00f8 0B       		.uleb128 0xb
 2794 00f9 3B       		.uleb128 0x3b
 2795 00fa 05       		.uleb128 0x5
 2796 00fb 49       		.uleb128 0x49
 2797 00fc 13       		.uleb128 0x13
 2798 00fd 02       		.uleb128 0x2
 2799 00fe 17       		.uleb128 0x17
 2800 00ff 00       		.byte	0
 2801 0100 00       		.byte	0
 2802 0101 12       		.uleb128 0x12
 2803 0102 0B       		.uleb128 0xb
 2804 0103 01       		.byte	0x1
 2805 0104 55       		.uleb128 0x55
 2806 0105 17       		.uleb128 0x17
 2807 0106 00       		.byte	0
 2808 0107 00       		.byte	0
 2809 0108 13       		.uleb128 0x13
 2810 0109 0B       		.uleb128 0xb
 2811 010a 01       		.byte	0x1
 2812 010b 11       		.uleb128 0x11
 2813 010c 01       		.uleb128 0x1
 2814 010d 12       		.uleb128 0x12
 2815 010e 06       		.uleb128 0x6
 2816 010f 00       		.byte	0
 2817 0110 00       		.byte	0
 2818 0111 14       		.uleb128 0x14
ARM GAS  C:\Users\info\AppData\Local\Temp\ccKQ3Zl2.s 			page 61


 2819 0112 898201   		.uleb128 0x4109
 2820 0115 00       		.byte	0
 2821 0116 11       		.uleb128 0x11
 2822 0117 01       		.uleb128 0x1
 2823 0118 31       		.uleb128 0x31
 2824 0119 13       		.uleb128 0x13
 2825 011a 00       		.byte	0
 2826 011b 00       		.byte	0
 2827 011c 15       		.uleb128 0x15
 2828 011d 01       		.uleb128 0x1
 2829 011e 01       		.byte	0x1
 2830 011f 49       		.uleb128 0x49
 2831 0120 13       		.uleb128 0x13
 2832 0121 01       		.uleb128 0x1
 2833 0122 13       		.uleb128 0x13
 2834 0123 00       		.byte	0
 2835 0124 00       		.byte	0
 2836 0125 16       		.uleb128 0x16
 2837 0126 21       		.uleb128 0x21
 2838 0127 00       		.byte	0
 2839 0128 49       		.uleb128 0x49
 2840 0129 13       		.uleb128 0x13
 2841 012a 2F       		.uleb128 0x2f
 2842 012b 05       		.uleb128 0x5
 2843 012c 00       		.byte	0
 2844 012d 00       		.byte	0
 2845 012e 17       		.uleb128 0x17
 2846 012f 21       		.uleb128 0x21
 2847 0130 00       		.byte	0
 2848 0131 49       		.uleb128 0x49
 2849 0132 13       		.uleb128 0x13
 2850 0133 2F       		.uleb128 0x2f
 2851 0134 0B       		.uleb128 0xb
 2852 0135 00       		.byte	0
 2853 0136 00       		.byte	0
 2854 0137 18       		.uleb128 0x18
 2855 0138 34       		.uleb128 0x34
 2856 0139 00       		.byte	0
 2857 013a 03       		.uleb128 0x3
 2858 013b 0E       		.uleb128 0xe
 2859 013c 3A       		.uleb128 0x3a
 2860 013d 0B       		.uleb128 0xb
 2861 013e 3B       		.uleb128 0x3b
 2862 013f 05       		.uleb128 0x5
 2863 0140 49       		.uleb128 0x49
 2864 0141 13       		.uleb128 0x13
 2865 0142 3F       		.uleb128 0x3f
 2866 0143 19       		.uleb128 0x19
 2867 0144 3C       		.uleb128 0x3c
 2868 0145 19       		.uleb128 0x19
 2869 0146 00       		.byte	0
 2870 0147 00       		.byte	0
 2871 0148 19       		.uleb128 0x19
 2872 0149 35       		.uleb128 0x35
 2873 014a 00       		.byte	0
 2874 014b 49       		.uleb128 0x49
 2875 014c 13       		.uleb128 0x13
ARM GAS  C:\Users\info\AppData\Local\Temp\ccKQ3Zl2.s 			page 62


 2876 014d 00       		.byte	0
 2877 014e 00       		.byte	0
 2878 014f 1A       		.uleb128 0x1a
 2879 0150 34       		.uleb128 0x34
 2880 0151 00       		.byte	0
 2881 0152 03       		.uleb128 0x3
 2882 0153 0E       		.uleb128 0xe
 2883 0154 3A       		.uleb128 0x3a
 2884 0155 0B       		.uleb128 0xb
 2885 0156 3B       		.uleb128 0x3b
 2886 0157 0B       		.uleb128 0xb
 2887 0158 49       		.uleb128 0x49
 2888 0159 13       		.uleb128 0x13
 2889 015a 3F       		.uleb128 0x3f
 2890 015b 19       		.uleb128 0x19
 2891 015c 02       		.uleb128 0x2
 2892 015d 18       		.uleb128 0x18
 2893 015e 00       		.byte	0
 2894 015f 00       		.byte	0
 2895 0160 1B       		.uleb128 0x1b
 2896 0161 34       		.uleb128 0x34
 2897 0162 00       		.byte	0
 2898 0163 03       		.uleb128 0x3
 2899 0164 08       		.uleb128 0x8
 2900 0165 3A       		.uleb128 0x3a
 2901 0166 0B       		.uleb128 0xb
 2902 0167 3B       		.uleb128 0x3b
 2903 0168 0B       		.uleb128 0xb
 2904 0169 49       		.uleb128 0x49
 2905 016a 13       		.uleb128 0x13
 2906 016b 3F       		.uleb128 0x3f
 2907 016c 19       		.uleb128 0x19
 2908 016d 02       		.uleb128 0x2
 2909 016e 18       		.uleb128 0x18
 2910 016f 00       		.byte	0
 2911 0170 00       		.byte	0
 2912 0171 1C       		.uleb128 0x1c
 2913 0172 2E       		.uleb128 0x2e
 2914 0173 00       		.byte	0
 2915 0174 3F       		.uleb128 0x3f
 2916 0175 19       		.uleb128 0x19
 2917 0176 3C       		.uleb128 0x3c
 2918 0177 19       		.uleb128 0x19
 2919 0178 6E       		.uleb128 0x6e
 2920 0179 0E       		.uleb128 0xe
 2921 017a 03       		.uleb128 0x3
 2922 017b 0E       		.uleb128 0xe
 2923 017c 3A       		.uleb128 0x3a
 2924 017d 0B       		.uleb128 0xb
 2925 017e 3B       		.uleb128 0x3b
 2926 017f 0B       		.uleb128 0xb
 2927 0180 00       		.byte	0
 2928 0181 00       		.byte	0
 2929 0182 1D       		.uleb128 0x1d
 2930 0183 2E       		.uleb128 0x2e
 2931 0184 00       		.byte	0
 2932 0185 3F       		.uleb128 0x3f
ARM GAS  C:\Users\info\AppData\Local\Temp\ccKQ3Zl2.s 			page 63


 2933 0186 19       		.uleb128 0x19
 2934 0187 3C       		.uleb128 0x3c
 2935 0188 19       		.uleb128 0x19
 2936 0189 6E       		.uleb128 0x6e
 2937 018a 0E       		.uleb128 0xe
 2938 018b 03       		.uleb128 0x3
 2939 018c 0E       		.uleb128 0xe
 2940 018d 00       		.byte	0
 2941 018e 00       		.byte	0
 2942 018f 00       		.byte	0
 2943              		.section	.debug_loc,"",%progbits
 2944              	.Ldebug_loc0:
 2945              	.LLST0:
 2946 0000 30090000 		.4byte	.LVL4
 2947 0004 68090000 		.4byte	.LVL12
 2948 0008 0200     		.2byte	0x2
 2949 000a 30       		.byte	0x30
 2950 000b 9F       		.byte	0x9f
 2951 000c 68090000 		.4byte	.LVL12
 2952 0010 9A0B0000 		.4byte	.LVL98
 2953 0014 0100     		.2byte	0x1
 2954 0016 5B       		.byte	0x5b
 2955 0017 9A0B0000 		.4byte	.LVL98
 2956 001b 9E0B0000 		.4byte	.LVL99
 2957 001f 0100     		.2byte	0x1
 2958 0021 53       		.byte	0x53
 2959 0022 9E0B0000 		.4byte	.LVL99
 2960 0026 820D0000 		.4byte	.LVL143
 2961 002a 0100     		.2byte	0x1
 2962 002c 5B       		.byte	0x5b
 2963 002d 860D0000 		.4byte	.LVL144
 2964 0031 920D0000 		.4byte	.LVL148
 2965 0035 0100     		.2byte	0x1
 2966 0037 5B       		.byte	0x5b
 2967 0038 9A0D0000 		.4byte	.LVL149
 2968 003c BC0E0000 		.4byte	.LFE64
 2969 0040 0100     		.2byte	0x1
 2970 0042 5B       		.byte	0x5b
 2971 0043 00000000 		.4byte	0
 2972 0047 00000000 		.4byte	0
 2973              	.LLST1:
 2974 004b 30090000 		.4byte	.LVL4
 2975 004f 68090000 		.4byte	.LVL12
 2976 0053 0400     		.2byte	0x4
 2977 0055 0A       		.byte	0xa
 2978 0056 0002     		.2byte	0x200
 2979 0058 9F       		.byte	0x9f
 2980 0059 68090000 		.4byte	.LVL12
 2981 005d 0A0A0000 		.4byte	.LVL35
 2982 0061 0100     		.2byte	0x1
 2983 0063 5A       		.byte	0x5a
 2984 0064 0C0A0000 		.4byte	.LVL36
 2985 0068 2A0A0000 		.4byte	.LVL42
 2986 006c 0100     		.2byte	0x1
 2987 006e 5A       		.byte	0x5a
 2988 006f 300A0000 		.4byte	.LVL44
 2989 0073 3E0A0000 		.4byte	.LVL46
ARM GAS  C:\Users\info\AppData\Local\Temp\ccKQ3Zl2.s 			page 64


 2990 0077 0100     		.2byte	0x1
 2991 0079 5A       		.byte	0x5a
 2992 007a 420A0000 		.4byte	.LVL47
 2993 007e 560A0000 		.4byte	.LVL51
 2994 0082 0100     		.2byte	0x1
 2995 0084 5A       		.byte	0x5a
 2996 0085 5A0A0000 		.4byte	.LVL52
 2997 0089 760A0000 		.4byte	.LVL57
 2998 008d 0100     		.2byte	0x1
 2999 008f 5A       		.byte	0x5a
 3000 0090 7A0A0000 		.4byte	.LVL58
 3001 0094 960A0000 		.4byte	.LVL62
 3002 0098 0100     		.2byte	0x1
 3003 009a 5A       		.byte	0x5a
 3004 009b 9A0A0000 		.4byte	.LVL63
 3005 009f DE0C0000 		.4byte	.LVL123
 3006 00a3 0100     		.2byte	0x1
 3007 00a5 5A       		.byte	0x5a
 3008 00a6 E20C0000 		.4byte	.LVL124
 3009 00aa 000D0000 		.4byte	.LVL128
 3010 00ae 0100     		.2byte	0x1
 3011 00b0 5A       		.byte	0x5a
 3012 00b1 040D0000 		.4byte	.LVL129
 3013 00b5 220E0000 		.4byte	.LVL174
 3014 00b9 0100     		.2byte	0x1
 3015 00bb 5A       		.byte	0x5a
 3016 00bc 280E0000 		.4byte	.LVL177
 3017 00c0 360E0000 		.4byte	.LVL184
 3018 00c4 0100     		.2byte	0x1
 3019 00c6 5A       		.byte	0x5a
 3020 00c7 360E0000 		.4byte	.LVL184
 3021 00cb 3A0E0000 		.4byte	.LVL186
 3022 00cf 0700     		.2byte	0x7
 3023 00d1 78       		.byte	0x78
 3024 00d2 00       		.sleb128 0
 3025 00d3 31       		.byte	0x31
 3026 00d4 24       		.byte	0x24
 3027 00d5 72       		.byte	0x72
 3028 00d6 00       		.sleb128 0
 3029 00d7 22       		.byte	0x22
 3030 00d8 3A0E0000 		.4byte	.LVL186
 3031 00dc 3C0E0000 		.4byte	.LVL187
 3032 00e0 0B00     		.2byte	0xb
 3033 00e2 78       		.byte	0x78
 3034 00e3 00       		.sleb128 0
 3035 00e4 31       		.byte	0x31
 3036 00e5 24       		.byte	0x24
 3037 00e6 91       		.byte	0x91
 3038 00e7 00       		.sleb128 0
 3039 00e8 22       		.byte	0x22
 3040 00e9 0A       		.byte	0xa
 3041 00ea 5810     		.2byte	0x1058
 3042 00ec 1C       		.byte	0x1c
 3043 00ed 3C0E0000 		.4byte	.LVL187
 3044 00f1 A20E0000 		.4byte	.LVL211
 3045 00f5 0100     		.2byte	0x1
 3046 00f7 5A       		.byte	0x5a
ARM GAS  C:\Users\info\AppData\Local\Temp\ccKQ3Zl2.s 			page 65


 3047 00f8 A60E0000 		.4byte	.LVL212
 3048 00fc BC0E0000 		.4byte	.LFE64
 3049 0100 0100     		.2byte	0x1
 3050 0102 5A       		.byte	0x5a
 3051 0103 00000000 		.4byte	0
 3052 0107 00000000 		.4byte	0
 3053              	.LLST2:
 3054 010b 30090000 		.4byte	.LVL4
 3055 010f 68090000 		.4byte	.LVL12
 3056 0113 0200     		.2byte	0x2
 3057 0115 30       		.byte	0x30
 3058 0116 9F       		.byte	0x9f
 3059 0117 68090000 		.4byte	.LVL12
 3060 011b F6090000 		.4byte	.LVL29
 3061 011f 0100     		.2byte	0x1
 3062 0121 58       		.byte	0x58
 3063 0122 FA090000 		.4byte	.LVL30
 3064 0126 240A0000 		.4byte	.LVL41
 3065 012a 0100     		.2byte	0x1
 3066 012c 58       		.byte	0x58
 3067 012d 300A0000 		.4byte	.LVL44
 3068 0131 B20B0000 		.4byte	.LVL103
 3069 0135 0100     		.2byte	0x1
 3070 0137 58       		.byte	0x58
 3071 0138 880C0000 		.4byte	.LVL114
 3072 013c 980C0000 		.4byte	.LVL118
 3073 0140 0100     		.2byte	0x1
 3074 0142 58       		.byte	0x58
 3075 0143 BC0C0000 		.4byte	.LVL120
 3076 0147 BC0E0000 		.4byte	.LFE64
 3077 014b 0100     		.2byte	0x1
 3078 014d 58       		.byte	0x58
 3079 014e 00000000 		.4byte	0
 3080 0152 00000000 		.4byte	0
 3081              	.LLST3:
 3082 0156 38090000 		.4byte	.LVL5
 3083 015a 3C090000 		.4byte	.LVL6
 3084 015e 0200     		.2byte	0x2
 3085 0160 30       		.byte	0x30
 3086 0161 9F       		.byte	0x9f
 3087 0162 3C090000 		.4byte	.LVL6
 3088 0166 4C090000 		.4byte	.LVL7
 3089 016a 0100     		.2byte	0x1
 3090 016c 53       		.byte	0x53
 3091 016d 4E090000 		.4byte	.LVL8
 3092 0171 55090000 		.4byte	.LVL9-1
 3093 0175 0100     		.2byte	0x1
 3094 0177 53       		.byte	0x53
 3095 0178 00000000 		.4byte	0
 3096 017c 00000000 		.4byte	0
 3097              	.LLST4:
 3098 0180 7C090000 		.4byte	.LVL13
 3099 0184 90090000 		.4byte	.LVL19
 3100 0188 0100     		.2byte	0x1
 3101 018a 55       		.byte	0x55
 3102 018b 90090000 		.4byte	.LVL19
 3103 018f 000A0000 		.4byte	.LVL32
ARM GAS  C:\Users\info\AppData\Local\Temp\ccKQ3Zl2.s 			page 66


 3104 0193 2000     		.2byte	0x20
 3105 0195 91       		.byte	0x91
 3106 0196 00       		.sleb128 0
 3107 0197 7A       		.byte	0x7a
 3108 0198 00       		.sleb128 0
 3109 0199 22       		.byte	0x22
 3110 019a 0A       		.byte	0xa
 3111 019b 2810     		.2byte	0x1028
 3112 019d 1C       		.byte	0x1c
 3113 019e 94       		.byte	0x94
 3114 019f 01       		.byte	0x1
 3115 01a0 08       		.byte	0x8
 3116 01a1 FF       		.byte	0xff
 3117 01a2 1A       		.byte	0x1a
 3118 01a3 38       		.byte	0x38
 3119 01a4 24       		.byte	0x24
 3120 01a5 91       		.byte	0x91
 3121 01a6 00       		.sleb128 0
 3122 01a7 7A       		.byte	0x7a
 3123 01a8 00       		.sleb128 0
 3124 01a9 22       		.byte	0x22
 3125 01aa 0A       		.byte	0xa
 3126 01ab 2710     		.2byte	0x1027
 3127 01ad 1C       		.byte	0x1c
 3128 01ae 94       		.byte	0x94
 3129 01af 01       		.byte	0x1
 3130 01b0 08       		.byte	0x8
 3131 01b1 FF       		.byte	0xff
 3132 01b2 1A       		.byte	0x1a
 3133 01b3 21       		.byte	0x21
 3134 01b4 9F       		.byte	0x9f
 3135 01b5 060A0000 		.4byte	.LVL34
 3136 01b9 0A0A0000 		.4byte	.LVL35
 3137 01bd 2000     		.2byte	0x20
 3138 01bf 91       		.byte	0x91
 3139 01c0 00       		.sleb128 0
 3140 01c1 7A       		.byte	0x7a
 3141 01c2 00       		.sleb128 0
 3142 01c3 22       		.byte	0x22
 3143 01c4 0A       		.byte	0xa
 3144 01c5 2810     		.2byte	0x1028
 3145 01c7 1C       		.byte	0x1c
 3146 01c8 94       		.byte	0x94
 3147 01c9 01       		.byte	0x1
 3148 01ca 08       		.byte	0x8
 3149 01cb FF       		.byte	0xff
 3150 01cc 1A       		.byte	0x1a
 3151 01cd 38       		.byte	0x38
 3152 01ce 24       		.byte	0x24
 3153 01cf 91       		.byte	0x91
 3154 01d0 00       		.sleb128 0
 3155 01d1 7A       		.byte	0x7a
 3156 01d2 00       		.sleb128 0
 3157 01d3 22       		.byte	0x22
 3158 01d4 0A       		.byte	0xa
 3159 01d5 2710     		.2byte	0x1027
 3160 01d7 1C       		.byte	0x1c
ARM GAS  C:\Users\info\AppData\Local\Temp\ccKQ3Zl2.s 			page 67


 3161 01d8 94       		.byte	0x94
 3162 01d9 01       		.byte	0x1
 3163 01da 08       		.byte	0x8
 3164 01db FF       		.byte	0xff
 3165 01dc 1A       		.byte	0x1a
 3166 01dd 21       		.byte	0x21
 3167 01de 9F       		.byte	0x9f
 3168 01df 120A0000 		.4byte	.LVL39
 3169 01e3 2A0A0000 		.4byte	.LVL42
 3170 01e7 2000     		.2byte	0x20
 3171 01e9 91       		.byte	0x91
 3172 01ea 00       		.sleb128 0
 3173 01eb 7A       		.byte	0x7a
 3174 01ec 00       		.sleb128 0
 3175 01ed 22       		.byte	0x22
 3176 01ee 0A       		.byte	0xa
 3177 01ef 2810     		.2byte	0x1028
 3178 01f1 1C       		.byte	0x1c
 3179 01f2 94       		.byte	0x94
 3180 01f3 01       		.byte	0x1
 3181 01f4 08       		.byte	0x8
 3182 01f5 FF       		.byte	0xff
 3183 01f6 1A       		.byte	0x1a
 3184 01f7 38       		.byte	0x38
 3185 01f8 24       		.byte	0x24
 3186 01f9 91       		.byte	0x91
 3187 01fa 00       		.sleb128 0
 3188 01fb 7A       		.byte	0x7a
 3189 01fc 00       		.sleb128 0
 3190 01fd 22       		.byte	0x22
 3191 01fe 0A       		.byte	0xa
 3192 01ff 2710     		.2byte	0x1027
 3193 0201 1C       		.byte	0x1c
 3194 0202 94       		.byte	0x94
 3195 0203 01       		.byte	0x1
 3196 0204 08       		.byte	0x8
 3197 0205 FF       		.byte	0xff
 3198 0206 1A       		.byte	0x1a
 3199 0207 21       		.byte	0x21
 3200 0208 9F       		.byte	0x9f
 3201 0209 300A0000 		.4byte	.LVL44
 3202 020d 3E0A0000 		.4byte	.LVL46
 3203 0211 2000     		.2byte	0x20
 3204 0213 91       		.byte	0x91
 3205 0214 00       		.sleb128 0
 3206 0215 7A       		.byte	0x7a
 3207 0216 00       		.sleb128 0
 3208 0217 22       		.byte	0x22
 3209 0218 0A       		.byte	0xa
 3210 0219 2810     		.2byte	0x1028
 3211 021b 1C       		.byte	0x1c
 3212 021c 94       		.byte	0x94
 3213 021d 01       		.byte	0x1
 3214 021e 08       		.byte	0x8
 3215 021f FF       		.byte	0xff
 3216 0220 1A       		.byte	0x1a
 3217 0221 38       		.byte	0x38
ARM GAS  C:\Users\info\AppData\Local\Temp\ccKQ3Zl2.s 			page 68


 3218 0222 24       		.byte	0x24
 3219 0223 91       		.byte	0x91
 3220 0224 00       		.sleb128 0
 3221 0225 7A       		.byte	0x7a
 3222 0226 00       		.sleb128 0
 3223 0227 22       		.byte	0x22
 3224 0228 0A       		.byte	0xa
 3225 0229 2710     		.2byte	0x1027
 3226 022b 1C       		.byte	0x1c
 3227 022c 94       		.byte	0x94
 3228 022d 01       		.byte	0x1
 3229 022e 08       		.byte	0x8
 3230 022f FF       		.byte	0xff
 3231 0230 1A       		.byte	0x1a
 3232 0231 21       		.byte	0x21
 3233 0232 9F       		.byte	0x9f
 3234 0233 3E0A0000 		.4byte	.LVL46
 3235 0237 420A0000 		.4byte	.LVL47
 3236 023b 2000     		.2byte	0x20
 3237 023d 91       		.byte	0x91
 3238 023e 00       		.sleb128 0
 3239 023f 7A       		.byte	0x7a
 3240 0240 00       		.sleb128 0
 3241 0241 22       		.byte	0x22
 3242 0242 0A       		.byte	0xa
 3243 0243 2A10     		.2byte	0x102a
 3244 0245 1C       		.byte	0x1c
 3245 0246 94       		.byte	0x94
 3246 0247 01       		.byte	0x1
 3247 0248 08       		.byte	0x8
 3248 0249 FF       		.byte	0xff
 3249 024a 1A       		.byte	0x1a
 3250 024b 38       		.byte	0x38
 3251 024c 24       		.byte	0x24
 3252 024d 91       		.byte	0x91
 3253 024e 00       		.sleb128 0
 3254 024f 7A       		.byte	0x7a
 3255 0250 00       		.sleb128 0
 3256 0251 22       		.byte	0x22
 3257 0252 0A       		.byte	0xa
 3258 0253 2910     		.2byte	0x1029
 3259 0255 1C       		.byte	0x1c
 3260 0256 94       		.byte	0x94
 3261 0257 01       		.byte	0x1
 3262 0258 08       		.byte	0x8
 3263 0259 FF       		.byte	0xff
 3264 025a 1A       		.byte	0x1a
 3265 025b 21       		.byte	0x21
 3266 025c 9F       		.byte	0x9f
 3267 025d 480A0000 		.4byte	.LVL49
 3268 0261 560A0000 		.4byte	.LVL51
 3269 0265 2000     		.2byte	0x20
 3270 0267 91       		.byte	0x91
 3271 0268 00       		.sleb128 0
 3272 0269 7A       		.byte	0x7a
 3273 026a 00       		.sleb128 0
 3274 026b 22       		.byte	0x22
ARM GAS  C:\Users\info\AppData\Local\Temp\ccKQ3Zl2.s 			page 69


 3275 026c 0A       		.byte	0xa
 3276 026d 2810     		.2byte	0x1028
 3277 026f 1C       		.byte	0x1c
 3278 0270 94       		.byte	0x94
 3279 0271 01       		.byte	0x1
 3280 0272 08       		.byte	0x8
 3281 0273 FF       		.byte	0xff
 3282 0274 1A       		.byte	0x1a
 3283 0275 38       		.byte	0x38
 3284 0276 24       		.byte	0x24
 3285 0277 91       		.byte	0x91
 3286 0278 00       		.sleb128 0
 3287 0279 7A       		.byte	0x7a
 3288 027a 00       		.sleb128 0
 3289 027b 22       		.byte	0x22
 3290 027c 0A       		.byte	0xa
 3291 027d 2710     		.2byte	0x1027
 3292 027f 1C       		.byte	0x1c
 3293 0280 94       		.byte	0x94
 3294 0281 01       		.byte	0x1
 3295 0282 08       		.byte	0x8
 3296 0283 FF       		.byte	0xff
 3297 0284 1A       		.byte	0x1a
 3298 0285 21       		.byte	0x21
 3299 0286 9F       		.byte	0x9f
 3300 0287 560A0000 		.4byte	.LVL51
 3301 028b 5A0A0000 		.4byte	.LVL52
 3302 028f 2000     		.2byte	0x20
 3303 0291 91       		.byte	0x91
 3304 0292 00       		.sleb128 0
 3305 0293 7A       		.byte	0x7a
 3306 0294 00       		.sleb128 0
 3307 0295 22       		.byte	0x22
 3308 0296 0A       		.byte	0xa
 3309 0297 2A10     		.2byte	0x102a
 3310 0299 1C       		.byte	0x1c
 3311 029a 94       		.byte	0x94
 3312 029b 01       		.byte	0x1
 3313 029c 08       		.byte	0x8
 3314 029d FF       		.byte	0xff
 3315 029e 1A       		.byte	0x1a
 3316 029f 38       		.byte	0x38
 3317 02a0 24       		.byte	0x24
 3318 02a1 91       		.byte	0x91
 3319 02a2 00       		.sleb128 0
 3320 02a3 7A       		.byte	0x7a
 3321 02a4 00       		.sleb128 0
 3322 02a5 22       		.byte	0x22
 3323 02a6 0A       		.byte	0xa
 3324 02a7 2910     		.2byte	0x1029
 3325 02a9 1C       		.byte	0x1c
 3326 02aa 94       		.byte	0x94
 3327 02ab 01       		.byte	0x1
 3328 02ac 08       		.byte	0x8
 3329 02ad FF       		.byte	0xff
 3330 02ae 1A       		.byte	0x1a
 3331 02af 21       		.byte	0x21
ARM GAS  C:\Users\info\AppData\Local\Temp\ccKQ3Zl2.s 			page 70


 3332 02b0 9F       		.byte	0x9f
 3333 02b1 600A0000 		.4byte	.LVL54
 3334 02b5 760A0000 		.4byte	.LVL57
 3335 02b9 2000     		.2byte	0x20
 3336 02bb 91       		.byte	0x91
 3337 02bc 00       		.sleb128 0
 3338 02bd 7A       		.byte	0x7a
 3339 02be 00       		.sleb128 0
 3340 02bf 22       		.byte	0x22
 3341 02c0 0A       		.byte	0xa
 3342 02c1 2810     		.2byte	0x1028
 3343 02c3 1C       		.byte	0x1c
 3344 02c4 94       		.byte	0x94
 3345 02c5 01       		.byte	0x1
 3346 02c6 08       		.byte	0x8
 3347 02c7 FF       		.byte	0xff
 3348 02c8 1A       		.byte	0x1a
 3349 02c9 38       		.byte	0x38
 3350 02ca 24       		.byte	0x24
 3351 02cb 91       		.byte	0x91
 3352 02cc 00       		.sleb128 0
 3353 02cd 7A       		.byte	0x7a
 3354 02ce 00       		.sleb128 0
 3355 02cf 22       		.byte	0x22
 3356 02d0 0A       		.byte	0xa
 3357 02d1 2710     		.2byte	0x1027
 3358 02d3 1C       		.byte	0x1c
 3359 02d4 94       		.byte	0x94
 3360 02d5 01       		.byte	0x1
 3361 02d6 08       		.byte	0x8
 3362 02d7 FF       		.byte	0xff
 3363 02d8 1A       		.byte	0x1a
 3364 02d9 21       		.byte	0x21
 3365 02da 9F       		.byte	0x9f
 3366 02db 760A0000 		.4byte	.LVL57
 3367 02df 7A0A0000 		.4byte	.LVL58
 3368 02e3 2000     		.2byte	0x20
 3369 02e5 91       		.byte	0x91
 3370 02e6 00       		.sleb128 0
 3371 02e7 7A       		.byte	0x7a
 3372 02e8 00       		.sleb128 0
 3373 02e9 22       		.byte	0x22
 3374 02ea 0A       		.byte	0xa
 3375 02eb 2A10     		.2byte	0x102a
 3376 02ed 1C       		.byte	0x1c
 3377 02ee 94       		.byte	0x94
 3378 02ef 01       		.byte	0x1
 3379 02f0 08       		.byte	0x8
 3380 02f1 FF       		.byte	0xff
 3381 02f2 1A       		.byte	0x1a
 3382 02f3 38       		.byte	0x38
 3383 02f4 24       		.byte	0x24
 3384 02f5 91       		.byte	0x91
 3385 02f6 00       		.sleb128 0
 3386 02f7 7A       		.byte	0x7a
 3387 02f8 00       		.sleb128 0
 3388 02f9 22       		.byte	0x22
ARM GAS  C:\Users\info\AppData\Local\Temp\ccKQ3Zl2.s 			page 71


 3389 02fa 0A       		.byte	0xa
 3390 02fb 2910     		.2byte	0x1029
 3391 02fd 1C       		.byte	0x1c
 3392 02fe 94       		.byte	0x94
 3393 02ff 01       		.byte	0x1
 3394 0300 08       		.byte	0x8
 3395 0301 FF       		.byte	0xff
 3396 0302 1A       		.byte	0x1a
 3397 0303 21       		.byte	0x21
 3398 0304 9F       		.byte	0x9f
 3399 0305 800A0000 		.4byte	.LVL59
 3400 0309 960A0000 		.4byte	.LVL62
 3401 030d 2000     		.2byte	0x20
 3402 030f 91       		.byte	0x91
 3403 0310 00       		.sleb128 0
 3404 0311 7A       		.byte	0x7a
 3405 0312 00       		.sleb128 0
 3406 0313 22       		.byte	0x22
 3407 0314 0A       		.byte	0xa
 3408 0315 2810     		.2byte	0x1028
 3409 0317 1C       		.byte	0x1c
 3410 0318 94       		.byte	0x94
 3411 0319 01       		.byte	0x1
 3412 031a 08       		.byte	0x8
 3413 031b FF       		.byte	0xff
 3414 031c 1A       		.byte	0x1a
 3415 031d 38       		.byte	0x38
 3416 031e 24       		.byte	0x24
 3417 031f 91       		.byte	0x91
 3418 0320 00       		.sleb128 0
 3419 0321 7A       		.byte	0x7a
 3420 0322 00       		.sleb128 0
 3421 0323 22       		.byte	0x22
 3422 0324 0A       		.byte	0xa
 3423 0325 2710     		.2byte	0x1027
 3424 0327 1C       		.byte	0x1c
 3425 0328 94       		.byte	0x94
 3426 0329 01       		.byte	0x1
 3427 032a 08       		.byte	0x8
 3428 032b FF       		.byte	0xff
 3429 032c 1A       		.byte	0x1a
 3430 032d 21       		.byte	0x21
 3431 032e 9F       		.byte	0x9f
 3432 032f 960A0000 		.4byte	.LVL62
 3433 0333 9A0A0000 		.4byte	.LVL63
 3434 0337 2000     		.2byte	0x20
 3435 0339 91       		.byte	0x91
 3436 033a 00       		.sleb128 0
 3437 033b 7A       		.byte	0x7a
 3438 033c 00       		.sleb128 0
 3439 033d 22       		.byte	0x22
 3440 033e 0A       		.byte	0xa
 3441 033f 2A10     		.2byte	0x102a
 3442 0341 1C       		.byte	0x1c
 3443 0342 94       		.byte	0x94
 3444 0343 01       		.byte	0x1
 3445 0344 08       		.byte	0x8
ARM GAS  C:\Users\info\AppData\Local\Temp\ccKQ3Zl2.s 			page 72


 3446 0345 FF       		.byte	0xff
 3447 0346 1A       		.byte	0x1a
 3448 0347 38       		.byte	0x38
 3449 0348 24       		.byte	0x24
 3450 0349 91       		.byte	0x91
 3451 034a 00       		.sleb128 0
 3452 034b 7A       		.byte	0x7a
 3453 034c 00       		.sleb128 0
 3454 034d 22       		.byte	0x22
 3455 034e 0A       		.byte	0xa
 3456 034f 2910     		.2byte	0x1029
 3457 0351 1C       		.byte	0x1c
 3458 0352 94       		.byte	0x94
 3459 0353 01       		.byte	0x1
 3460 0354 08       		.byte	0x8
 3461 0355 FF       		.byte	0xff
 3462 0356 1A       		.byte	0x1a
 3463 0357 21       		.byte	0x21
 3464 0358 9F       		.byte	0x9f
 3465 0359 A00A0000 		.4byte	.LVL64
 3466 035d C20B0000 		.4byte	.LVL104
 3467 0361 2000     		.2byte	0x20
 3468 0363 91       		.byte	0x91
 3469 0364 00       		.sleb128 0
 3470 0365 7A       		.byte	0x7a
 3471 0366 00       		.sleb128 0
 3472 0367 22       		.byte	0x22
 3473 0368 0A       		.byte	0xa
 3474 0369 2810     		.2byte	0x1028
 3475 036b 1C       		.byte	0x1c
 3476 036c 94       		.byte	0x94
 3477 036d 01       		.byte	0x1
 3478 036e 08       		.byte	0x8
 3479 036f FF       		.byte	0xff
 3480 0370 1A       		.byte	0x1a
 3481 0371 38       		.byte	0x38
 3482 0372 24       		.byte	0x24
 3483 0373 91       		.byte	0x91
 3484 0374 00       		.sleb128 0
 3485 0375 7A       		.byte	0x7a
 3486 0376 00       		.sleb128 0
 3487 0377 22       		.byte	0x22
 3488 0378 0A       		.byte	0xa
 3489 0379 2710     		.2byte	0x1027
 3490 037b 1C       		.byte	0x1c
 3491 037c 94       		.byte	0x94
 3492 037d 01       		.byte	0x1
 3493 037e 08       		.byte	0x8
 3494 037f FF       		.byte	0xff
 3495 0380 1A       		.byte	0x1a
 3496 0381 21       		.byte	0x21
 3497 0382 9F       		.byte	0x9f
 3498 0383 C20B0000 		.4byte	.LVL104
 3499 0387 C40B0000 		.4byte	.LVL105
 3500 038b 1A00     		.2byte	0x1a
 3501 038d 72       		.byte	0x72
 3502 038e 00       		.sleb128 0
ARM GAS  C:\Users\info\AppData\Local\Temp\ccKQ3Zl2.s 			page 73


 3503 038f 7A       		.byte	0x7a
 3504 0390 00       		.sleb128 0
 3505 0391 22       		.byte	0x22
 3506 0392 94       		.byte	0x94
 3507 0393 01       		.byte	0x1
 3508 0394 08       		.byte	0x8
 3509 0395 FF       		.byte	0xff
 3510 0396 1A       		.byte	0x1a
 3511 0397 38       		.byte	0x38
 3512 0398 24       		.byte	0x24
 3513 0399 72       		.byte	0x72
 3514 039a 00       		.sleb128 0
 3515 039b 7A       		.byte	0x7a
 3516 039c 00       		.sleb128 0
 3517 039d 22       		.byte	0x22
 3518 039e 23       		.byte	0x23
 3519 039f 01       		.uleb128 0x1
 3520 03a0 94       		.byte	0x94
 3521 03a1 01       		.byte	0x1
 3522 03a2 08       		.byte	0x8
 3523 03a3 FF       		.byte	0xff
 3524 03a4 1A       		.byte	0x1a
 3525 03a5 21       		.byte	0x21
 3526 03a6 9F       		.byte	0x9f
 3527 03a7 C40B0000 		.4byte	.LVL105
 3528 03ab F60B0000 		.4byte	.LVL108
 3529 03af 2000     		.2byte	0x20
 3530 03b1 91       		.byte	0x91
 3531 03b2 00       		.sleb128 0
 3532 03b3 7A       		.byte	0x7a
 3533 03b4 00       		.sleb128 0
 3534 03b5 22       		.byte	0x22
 3535 03b6 0A       		.byte	0xa
 3536 03b7 2810     		.2byte	0x1028
 3537 03b9 1C       		.byte	0x1c
 3538 03ba 94       		.byte	0x94
 3539 03bb 01       		.byte	0x1
 3540 03bc 08       		.byte	0x8
 3541 03bd FF       		.byte	0xff
 3542 03be 1A       		.byte	0x1a
 3543 03bf 38       		.byte	0x38
 3544 03c0 24       		.byte	0x24
 3545 03c1 91       		.byte	0x91
 3546 03c2 00       		.sleb128 0
 3547 03c3 7A       		.byte	0x7a
 3548 03c4 00       		.sleb128 0
 3549 03c5 22       		.byte	0x22
 3550 03c6 0A       		.byte	0xa
 3551 03c7 2710     		.2byte	0x1027
 3552 03c9 1C       		.byte	0x1c
 3553 03ca 94       		.byte	0x94
 3554 03cb 01       		.byte	0x1
 3555 03cc 08       		.byte	0x8
 3556 03cd FF       		.byte	0xff
 3557 03ce 1A       		.byte	0x1a
 3558 03cf 21       		.byte	0x21
 3559 03d0 9F       		.byte	0x9f
ARM GAS  C:\Users\info\AppData\Local\Temp\ccKQ3Zl2.s 			page 74


 3560 03d1 F60B0000 		.4byte	.LVL108
 3561 03d5 F80B0000 		.4byte	.LVL109
 3562 03d9 1A00     		.2byte	0x1a
 3563 03db 72       		.byte	0x72
 3564 03dc 00       		.sleb128 0
 3565 03dd 7A       		.byte	0x7a
 3566 03de 00       		.sleb128 0
 3567 03df 22       		.byte	0x22
 3568 03e0 94       		.byte	0x94
 3569 03e1 01       		.byte	0x1
 3570 03e2 08       		.byte	0x8
 3571 03e3 FF       		.byte	0xff
 3572 03e4 1A       		.byte	0x1a
 3573 03e5 38       		.byte	0x38
 3574 03e6 24       		.byte	0x24
 3575 03e7 72       		.byte	0x72
 3576 03e8 00       		.sleb128 0
 3577 03e9 7A       		.byte	0x7a
 3578 03ea 00       		.sleb128 0
 3579 03eb 22       		.byte	0x22
 3580 03ec 23       		.byte	0x23
 3581 03ed 01       		.uleb128 0x1
 3582 03ee 94       		.byte	0x94
 3583 03ef 01       		.byte	0x1
 3584 03f0 08       		.byte	0x8
 3585 03f1 FF       		.byte	0xff
 3586 03f2 1A       		.byte	0x1a
 3587 03f3 21       		.byte	0x21
 3588 03f4 9F       		.byte	0x9f
 3589 03f5 F80B0000 		.4byte	.LVL109
 3590 03f9 DE0C0000 		.4byte	.LVL123
 3591 03fd 2000     		.2byte	0x20
 3592 03ff 91       		.byte	0x91
 3593 0400 00       		.sleb128 0
 3594 0401 7A       		.byte	0x7a
 3595 0402 00       		.sleb128 0
 3596 0403 22       		.byte	0x22
 3597 0404 0A       		.byte	0xa
 3598 0405 2810     		.2byte	0x1028
 3599 0407 1C       		.byte	0x1c
 3600 0408 94       		.byte	0x94
 3601 0409 01       		.byte	0x1
 3602 040a 08       		.byte	0x8
 3603 040b FF       		.byte	0xff
 3604 040c 1A       		.byte	0x1a
 3605 040d 38       		.byte	0x38
 3606 040e 24       		.byte	0x24
 3607 040f 91       		.byte	0x91
 3608 0410 00       		.sleb128 0
 3609 0411 7A       		.byte	0x7a
 3610 0412 00       		.sleb128 0
 3611 0413 22       		.byte	0x22
 3612 0414 0A       		.byte	0xa
 3613 0415 2710     		.2byte	0x1027
 3614 0417 1C       		.byte	0x1c
 3615 0418 94       		.byte	0x94
 3616 0419 01       		.byte	0x1
ARM GAS  C:\Users\info\AppData\Local\Temp\ccKQ3Zl2.s 			page 75


 3617 041a 08       		.byte	0x8
 3618 041b FF       		.byte	0xff
 3619 041c 1A       		.byte	0x1a
 3620 041d 21       		.byte	0x21
 3621 041e 9F       		.byte	0x9f
 3622 041f DE0C0000 		.4byte	.LVL123
 3623 0423 E20C0000 		.4byte	.LVL124
 3624 0427 2000     		.2byte	0x20
 3625 0429 91       		.byte	0x91
 3626 042a 00       		.sleb128 0
 3627 042b 7A       		.byte	0x7a
 3628 042c 00       		.sleb128 0
 3629 042d 22       		.byte	0x22
 3630 042e 0A       		.byte	0xa
 3631 042f 2A10     		.2byte	0x102a
 3632 0431 1C       		.byte	0x1c
 3633 0432 94       		.byte	0x94
 3634 0433 01       		.byte	0x1
 3635 0434 08       		.byte	0x8
 3636 0435 FF       		.byte	0xff
 3637 0436 1A       		.byte	0x1a
 3638 0437 38       		.byte	0x38
 3639 0438 24       		.byte	0x24
 3640 0439 91       		.byte	0x91
 3641 043a 00       		.sleb128 0
 3642 043b 7A       		.byte	0x7a
 3643 043c 00       		.sleb128 0
 3644 043d 22       		.byte	0x22
 3645 043e 0A       		.byte	0xa
 3646 043f 2910     		.2byte	0x1029
 3647 0441 1C       		.byte	0x1c
 3648 0442 94       		.byte	0x94
 3649 0443 01       		.byte	0x1
 3650 0444 08       		.byte	0x8
 3651 0445 FF       		.byte	0xff
 3652 0446 1A       		.byte	0x1a
 3653 0447 21       		.byte	0x21
 3654 0448 9F       		.byte	0x9f
 3655 0449 E80C0000 		.4byte	.LVL125
 3656 044d 000D0000 		.4byte	.LVL128
 3657 0451 2000     		.2byte	0x20
 3658 0453 91       		.byte	0x91
 3659 0454 00       		.sleb128 0
 3660 0455 7A       		.byte	0x7a
 3661 0456 00       		.sleb128 0
 3662 0457 22       		.byte	0x22
 3663 0458 0A       		.byte	0xa
 3664 0459 2810     		.2byte	0x1028
 3665 045b 1C       		.byte	0x1c
 3666 045c 94       		.byte	0x94
 3667 045d 01       		.byte	0x1
 3668 045e 08       		.byte	0x8
 3669 045f FF       		.byte	0xff
 3670 0460 1A       		.byte	0x1a
 3671 0461 38       		.byte	0x38
 3672 0462 24       		.byte	0x24
 3673 0463 91       		.byte	0x91
ARM GAS  C:\Users\info\AppData\Local\Temp\ccKQ3Zl2.s 			page 76


 3674 0464 00       		.sleb128 0
 3675 0465 7A       		.byte	0x7a
 3676 0466 00       		.sleb128 0
 3677 0467 22       		.byte	0x22
 3678 0468 0A       		.byte	0xa
 3679 0469 2710     		.2byte	0x1027
 3680 046b 1C       		.byte	0x1c
 3681 046c 94       		.byte	0x94
 3682 046d 01       		.byte	0x1
 3683 046e 08       		.byte	0x8
 3684 046f FF       		.byte	0xff
 3685 0470 1A       		.byte	0x1a
 3686 0471 21       		.byte	0x21
 3687 0472 9F       		.byte	0x9f
 3688 0473 000D0000 		.4byte	.LVL128
 3689 0477 040D0000 		.4byte	.LVL129
 3690 047b 2000     		.2byte	0x20
 3691 047d 91       		.byte	0x91
 3692 047e 00       		.sleb128 0
 3693 047f 7A       		.byte	0x7a
 3694 0480 00       		.sleb128 0
 3695 0481 22       		.byte	0x22
 3696 0482 0A       		.byte	0xa
 3697 0483 2A10     		.2byte	0x102a
 3698 0485 1C       		.byte	0x1c
 3699 0486 94       		.byte	0x94
 3700 0487 01       		.byte	0x1
 3701 0488 08       		.byte	0x8
 3702 0489 FF       		.byte	0xff
 3703 048a 1A       		.byte	0x1a
 3704 048b 38       		.byte	0x38
 3705 048c 24       		.byte	0x24
 3706 048d 91       		.byte	0x91
 3707 048e 00       		.sleb128 0
 3708 048f 7A       		.byte	0x7a
 3709 0490 00       		.sleb128 0
 3710 0491 22       		.byte	0x22
 3711 0492 0A       		.byte	0xa
 3712 0493 2910     		.2byte	0x1029
 3713 0495 1C       		.byte	0x1c
 3714 0496 94       		.byte	0x94
 3715 0497 01       		.byte	0x1
 3716 0498 08       		.byte	0x8
 3717 0499 FF       		.byte	0xff
 3718 049a 1A       		.byte	0x1a
 3719 049b 21       		.byte	0x21
 3720 049c 9F       		.byte	0x9f
 3721 049d 080D0000 		.4byte	.LVL130
 3722 04a1 A20D0000 		.4byte	.LVL152
 3723 04a5 2000     		.2byte	0x20
 3724 04a7 91       		.byte	0x91
 3725 04a8 00       		.sleb128 0
 3726 04a9 7A       		.byte	0x7a
 3727 04aa 00       		.sleb128 0
 3728 04ab 22       		.byte	0x22
 3729 04ac 0A       		.byte	0xa
 3730 04ad 2810     		.2byte	0x1028
ARM GAS  C:\Users\info\AppData\Local\Temp\ccKQ3Zl2.s 			page 77


 3731 04af 1C       		.byte	0x1c
 3732 04b0 94       		.byte	0x94
 3733 04b1 01       		.byte	0x1
 3734 04b2 08       		.byte	0x8
 3735 04b3 FF       		.byte	0xff
 3736 04b4 1A       		.byte	0x1a
 3737 04b5 38       		.byte	0x38
 3738 04b6 24       		.byte	0x24
 3739 04b7 91       		.byte	0x91
 3740 04b8 00       		.sleb128 0
 3741 04b9 7A       		.byte	0x7a
 3742 04ba 00       		.sleb128 0
 3743 04bb 22       		.byte	0x22
 3744 04bc 0A       		.byte	0xa
 3745 04bd 2710     		.2byte	0x1027
 3746 04bf 1C       		.byte	0x1c
 3747 04c0 94       		.byte	0x94
 3748 04c1 01       		.byte	0x1
 3749 04c2 08       		.byte	0x8
 3750 04c3 FF       		.byte	0xff
 3751 04c4 1A       		.byte	0x1a
 3752 04c5 21       		.byte	0x21
 3753 04c6 9F       		.byte	0x9f
 3754 04c7 A20D0000 		.4byte	.LVL152
 3755 04cb B40D0000 		.4byte	.LVL155
 3756 04cf 1A00     		.2byte	0x1a
 3757 04d1 70       		.byte	0x70
 3758 04d2 00       		.sleb128 0
 3759 04d3 7A       		.byte	0x7a
 3760 04d4 00       		.sleb128 0
 3761 04d5 22       		.byte	0x22
 3762 04d6 94       		.byte	0x94
 3763 04d7 01       		.byte	0x1
 3764 04d8 08       		.byte	0x8
 3765 04d9 FF       		.byte	0xff
 3766 04da 1A       		.byte	0x1a
 3767 04db 38       		.byte	0x38
 3768 04dc 24       		.byte	0x24
 3769 04dd 70       		.byte	0x70
 3770 04de 00       		.sleb128 0
 3771 04df 7A       		.byte	0x7a
 3772 04e0 00       		.sleb128 0
 3773 04e1 22       		.byte	0x22
 3774 04e2 23       		.byte	0x23
 3775 04e3 01       		.uleb128 0x1
 3776 04e4 94       		.byte	0x94
 3777 04e5 01       		.byte	0x1
 3778 04e6 08       		.byte	0x8
 3779 04e7 FF       		.byte	0xff
 3780 04e8 1A       		.byte	0x1a
 3781 04e9 21       		.byte	0x21
 3782 04ea 9F       		.byte	0x9f
 3783 04eb F60D0000 		.4byte	.LVL162
 3784 04ef F80D0000 		.4byte	.LVL163
 3785 04f3 2000     		.2byte	0x20
 3786 04f5 91       		.byte	0x91
 3787 04f6 00       		.sleb128 0
ARM GAS  C:\Users\info\AppData\Local\Temp\ccKQ3Zl2.s 			page 78


 3788 04f7 7A       		.byte	0x7a
 3789 04f8 00       		.sleb128 0
 3790 04f9 22       		.byte	0x22
 3791 04fa 0A       		.byte	0xa
 3792 04fb 2810     		.2byte	0x1028
 3793 04fd 1C       		.byte	0x1c
 3794 04fe 94       		.byte	0x94
 3795 04ff 01       		.byte	0x1
 3796 0500 08       		.byte	0x8
 3797 0501 FF       		.byte	0xff
 3798 0502 1A       		.byte	0x1a
 3799 0503 38       		.byte	0x38
 3800 0504 24       		.byte	0x24
 3801 0505 91       		.byte	0x91
 3802 0506 00       		.sleb128 0
 3803 0507 7A       		.byte	0x7a
 3804 0508 00       		.sleb128 0
 3805 0509 22       		.byte	0x22
 3806 050a 0A       		.byte	0xa
 3807 050b 2710     		.2byte	0x1027
 3808 050d 1C       		.byte	0x1c
 3809 050e 94       		.byte	0x94
 3810 050f 01       		.byte	0x1
 3811 0510 08       		.byte	0x8
 3812 0511 FF       		.byte	0xff
 3813 0512 1A       		.byte	0x1a
 3814 0513 21       		.byte	0x21
 3815 0514 9F       		.byte	0x9f
 3816 0515 020E0000 		.4byte	.LVL165
 3817 0519 080E0000 		.4byte	.LVL166
 3818 051d 2000     		.2byte	0x20
 3819 051f 91       		.byte	0x91
 3820 0520 00       		.sleb128 0
 3821 0521 7A       		.byte	0x7a
 3822 0522 00       		.sleb128 0
 3823 0523 22       		.byte	0x22
 3824 0524 0A       		.byte	0xa
 3825 0525 2810     		.2byte	0x1028
 3826 0527 1C       		.byte	0x1c
 3827 0528 94       		.byte	0x94
 3828 0529 01       		.byte	0x1
 3829 052a 08       		.byte	0x8
 3830 052b FF       		.byte	0xff
 3831 052c 1A       		.byte	0x1a
 3832 052d 38       		.byte	0x38
 3833 052e 24       		.byte	0x24
 3834 052f 91       		.byte	0x91
 3835 0530 00       		.sleb128 0
 3836 0531 7A       		.byte	0x7a
 3837 0532 00       		.sleb128 0
 3838 0533 22       		.byte	0x22
 3839 0534 0A       		.byte	0xa
 3840 0535 2710     		.2byte	0x1027
 3841 0537 1C       		.byte	0x1c
 3842 0538 94       		.byte	0x94
 3843 0539 01       		.byte	0x1
 3844 053a 08       		.byte	0x8
ARM GAS  C:\Users\info\AppData\Local\Temp\ccKQ3Zl2.s 			page 79


 3845 053b FF       		.byte	0xff
 3846 053c 1A       		.byte	0x1a
 3847 053d 21       		.byte	0x21
 3848 053e 9F       		.byte	0x9f
 3849 053f 080E0000 		.4byte	.LVL166
 3850 0543 0C0E0000 		.4byte	.LVL167
 3851 0547 1A00     		.2byte	0x1a
 3852 0549 72       		.byte	0x72
 3853 054a 00       		.sleb128 0
 3854 054b 7A       		.byte	0x7a
 3855 054c 00       		.sleb128 0
 3856 054d 22       		.byte	0x22
 3857 054e 94       		.byte	0x94
 3858 054f 01       		.byte	0x1
 3859 0550 08       		.byte	0x8
 3860 0551 FF       		.byte	0xff
 3861 0552 1A       		.byte	0x1a
 3862 0553 38       		.byte	0x38
 3863 0554 24       		.byte	0x24
 3864 0555 72       		.byte	0x72
 3865 0556 00       		.sleb128 0
 3866 0557 7A       		.byte	0x7a
 3867 0558 00       		.sleb128 0
 3868 0559 22       		.byte	0x22
 3869 055a 23       		.byte	0x23
 3870 055b 01       		.uleb128 0x1
 3871 055c 94       		.byte	0x94
 3872 055d 01       		.byte	0x1
 3873 055e 08       		.byte	0x8
 3874 055f FF       		.byte	0xff
 3875 0560 1A       		.byte	0x1a
 3876 0561 21       		.byte	0x21
 3877 0562 9F       		.byte	0x9f
 3878 0563 0C0E0000 		.4byte	.LVL167
 3879 0567 220E0000 		.4byte	.LVL174
 3880 056b 2000     		.2byte	0x20
 3881 056d 91       		.byte	0x91
 3882 056e 00       		.sleb128 0
 3883 056f 7A       		.byte	0x7a
 3884 0570 00       		.sleb128 0
 3885 0571 22       		.byte	0x22
 3886 0572 0A       		.byte	0xa
 3887 0573 2810     		.2byte	0x1028
 3888 0575 1C       		.byte	0x1c
 3889 0576 94       		.byte	0x94
 3890 0577 01       		.byte	0x1
 3891 0578 08       		.byte	0x8
 3892 0579 FF       		.byte	0xff
 3893 057a 1A       		.byte	0x1a
 3894 057b 38       		.byte	0x38
 3895 057c 24       		.byte	0x24
 3896 057d 91       		.byte	0x91
 3897 057e 00       		.sleb128 0
 3898 057f 7A       		.byte	0x7a
 3899 0580 00       		.sleb128 0
 3900 0581 22       		.byte	0x22
 3901 0582 0A       		.byte	0xa
ARM GAS  C:\Users\info\AppData\Local\Temp\ccKQ3Zl2.s 			page 80


 3902 0583 2710     		.2byte	0x1027
 3903 0585 1C       		.byte	0x1c
 3904 0586 94       		.byte	0x94
 3905 0587 01       		.byte	0x1
 3906 0588 08       		.byte	0x8
 3907 0589 FF       		.byte	0xff
 3908 058a 1A       		.byte	0x1a
 3909 058b 21       		.byte	0x21
 3910 058c 9F       		.byte	0x9f
 3911 058d 280E0000 		.4byte	.LVL177
 3912 0591 360E0000 		.4byte	.LVL184
 3913 0595 2000     		.2byte	0x20
 3914 0597 91       		.byte	0x91
 3915 0598 00       		.sleb128 0
 3916 0599 7A       		.byte	0x7a
 3917 059a 00       		.sleb128 0
 3918 059b 22       		.byte	0x22
 3919 059c 0A       		.byte	0xa
 3920 059d 2810     		.2byte	0x1028
 3921 059f 1C       		.byte	0x1c
 3922 05a0 94       		.byte	0x94
 3923 05a1 01       		.byte	0x1
 3924 05a2 08       		.byte	0x8
 3925 05a3 FF       		.byte	0xff
 3926 05a4 1A       		.byte	0x1a
 3927 05a5 38       		.byte	0x38
 3928 05a6 24       		.byte	0x24
 3929 05a7 91       		.byte	0x91
 3930 05a8 00       		.sleb128 0
 3931 05a9 7A       		.byte	0x7a
 3932 05aa 00       		.sleb128 0
 3933 05ab 22       		.byte	0x22
 3934 05ac 0A       		.byte	0xa
 3935 05ad 2710     		.2byte	0x1027
 3936 05af 1C       		.byte	0x1c
 3937 05b0 94       		.byte	0x94
 3938 05b1 01       		.byte	0x1
 3939 05b2 08       		.byte	0x8
 3940 05b3 FF       		.byte	0xff
 3941 05b4 1A       		.byte	0x1a
 3942 05b5 21       		.byte	0x21
 3943 05b6 9F       		.byte	0x9f
 3944 05b7 3C0E0000 		.4byte	.LVL187
 3945 05bb 7C0E0000 		.4byte	.LVL204
 3946 05bf 2000     		.2byte	0x20
 3947 05c1 91       		.byte	0x91
 3948 05c2 00       		.sleb128 0
 3949 05c3 7A       		.byte	0x7a
 3950 05c4 00       		.sleb128 0
 3951 05c5 22       		.byte	0x22
 3952 05c6 0A       		.byte	0xa
 3953 05c7 2810     		.2byte	0x1028
 3954 05c9 1C       		.byte	0x1c
 3955 05ca 94       		.byte	0x94
 3956 05cb 01       		.byte	0x1
 3957 05cc 08       		.byte	0x8
 3958 05cd FF       		.byte	0xff
ARM GAS  C:\Users\info\AppData\Local\Temp\ccKQ3Zl2.s 			page 81


 3959 05ce 1A       		.byte	0x1a
 3960 05cf 38       		.byte	0x38
 3961 05d0 24       		.byte	0x24
 3962 05d1 91       		.byte	0x91
 3963 05d2 00       		.sleb128 0
 3964 05d3 7A       		.byte	0x7a
 3965 05d4 00       		.sleb128 0
 3966 05d5 22       		.byte	0x22
 3967 05d6 0A       		.byte	0xa
 3968 05d7 2710     		.2byte	0x1027
 3969 05d9 1C       		.byte	0x1c
 3970 05da 94       		.byte	0x94
 3971 05db 01       		.byte	0x1
 3972 05dc 08       		.byte	0x8
 3973 05dd FF       		.byte	0xff
 3974 05de 1A       		.byte	0x1a
 3975 05df 21       		.byte	0x21
 3976 05e0 9F       		.byte	0x9f
 3977 05e1 00000000 		.4byte	0
 3978 05e5 00000000 		.4byte	0
 3979              	.LLST5:
 3980 05e9 7E090000 		.4byte	.LVL14
 3981 05ed BC090000 		.4byte	.LVL21
 3982 05f1 0100     		.2byte	0x1
 3983 05f3 52       		.byte	0x52
 3984 05f4 BC090000 		.4byte	.LVL21
 3985 05f8 BE090000 		.4byte	.LVL22
 3986 05fc 2200     		.2byte	0x22
 3987 05fe 91       		.byte	0x91
 3988 05ff 00       		.sleb128 0
 3989 0600 7A       		.byte	0x7a
 3990 0601 00       		.sleb128 0
 3991 0602 22       		.byte	0x22
 3992 0603 0A       		.byte	0xa
 3993 0604 2810     		.2byte	0x1028
 3994 0606 1C       		.byte	0x1c
 3995 0607 94       		.byte	0x94
 3996 0608 01       		.byte	0x1
 3997 0609 08       		.byte	0x8
 3998 060a FF       		.byte	0xff
 3999 060b 1A       		.byte	0x1a
 4000 060c 38       		.byte	0x38
 4001 060d 24       		.byte	0x24
 4002 060e 91       		.byte	0x91
 4003 060f 00       		.sleb128 0
 4004 0610 7A       		.byte	0x7a
 4005 0611 00       		.sleb128 0
 4006 0612 22       		.byte	0x22
 4007 0613 0A       		.byte	0xa
 4008 0614 2710     		.2byte	0x1027
 4009 0616 1C       		.byte	0x1c
 4010 0617 94       		.byte	0x94
 4011 0618 01       		.byte	0x1
 4012 0619 08       		.byte	0x8
 4013 061a FF       		.byte	0xff
 4014 061b 1A       		.byte	0x1a
 4015 061c 21       		.byte	0x21
ARM GAS  C:\Users\info\AppData\Local\Temp\ccKQ3Zl2.s 			page 82


 4016 061d 3C       		.byte	0x3c
 4017 061e 25       		.byte	0x25
 4018 061f 9F       		.byte	0x9f
 4019 0620 BE090000 		.4byte	.LVL22
 4020 0624 CE090000 		.4byte	.LVL23
 4021 0628 0100     		.2byte	0x1
 4022 062a 52       		.byte	0x52
 4023 062b CE090000 		.4byte	.LVL23
 4024 062f E0090000 		.4byte	.LVL25
 4025 0633 2200     		.2byte	0x22
 4026 0635 91       		.byte	0x91
 4027 0636 00       		.sleb128 0
 4028 0637 7A       		.byte	0x7a
 4029 0638 00       		.sleb128 0
 4030 0639 22       		.byte	0x22
 4031 063a 0A       		.byte	0xa
 4032 063b 2810     		.2byte	0x1028
 4033 063d 1C       		.byte	0x1c
 4034 063e 94       		.byte	0x94
 4035 063f 01       		.byte	0x1
 4036 0640 08       		.byte	0x8
 4037 0641 FF       		.byte	0xff
 4038 0642 1A       		.byte	0x1a
 4039 0643 38       		.byte	0x38
 4040 0644 24       		.byte	0x24
 4041 0645 91       		.byte	0x91
 4042 0646 00       		.sleb128 0
 4043 0647 7A       		.byte	0x7a
 4044 0648 00       		.sleb128 0
 4045 0649 22       		.byte	0x22
 4046 064a 0A       		.byte	0xa
 4047 064b 2710     		.2byte	0x1027
 4048 064d 1C       		.byte	0x1c
 4049 064e 94       		.byte	0x94
 4050 064f 01       		.byte	0x1
 4051 0650 08       		.byte	0x8
 4052 0651 FF       		.byte	0xff
 4053 0652 1A       		.byte	0x1a
 4054 0653 21       		.byte	0x21
 4055 0654 3C       		.byte	0x3c
 4056 0655 25       		.byte	0x25
 4057 0656 9F       		.byte	0x9f
 4058 0657 E0090000 		.4byte	.LVL25
 4059 065b E2090000 		.4byte	.LVL26
 4060 065f 0100     		.2byte	0x1
 4061 0661 52       		.byte	0x52
 4062 0662 E2090000 		.4byte	.LVL26
 4063 0666 EC090000 		.4byte	.LVL28
 4064 066a 2200     		.2byte	0x22
 4065 066c 91       		.byte	0x91
 4066 066d 00       		.sleb128 0
 4067 066e 7A       		.byte	0x7a
 4068 066f 00       		.sleb128 0
 4069 0670 22       		.byte	0x22
 4070 0671 0A       		.byte	0xa
 4071 0672 2810     		.2byte	0x1028
 4072 0674 1C       		.byte	0x1c
ARM GAS  C:\Users\info\AppData\Local\Temp\ccKQ3Zl2.s 			page 83


 4073 0675 94       		.byte	0x94
 4074 0676 01       		.byte	0x1
 4075 0677 08       		.byte	0x8
 4076 0678 FF       		.byte	0xff
 4077 0679 1A       		.byte	0x1a
 4078 067a 38       		.byte	0x38
 4079 067b 24       		.byte	0x24
 4080 067c 91       		.byte	0x91
 4081 067d 00       		.sleb128 0
 4082 067e 7A       		.byte	0x7a
 4083 067f 00       		.sleb128 0
 4084 0680 22       		.byte	0x22
 4085 0681 0A       		.byte	0xa
 4086 0682 2710     		.2byte	0x1027
 4087 0684 1C       		.byte	0x1c
 4088 0685 94       		.byte	0x94
 4089 0686 01       		.byte	0x1
 4090 0687 08       		.byte	0x8
 4091 0688 FF       		.byte	0xff
 4092 0689 1A       		.byte	0x1a
 4093 068a 21       		.byte	0x21
 4094 068b 3C       		.byte	0x3c
 4095 068c 25       		.byte	0x25
 4096 068d 9F       		.byte	0x9f
 4097 068e EC090000 		.4byte	.LVL28
 4098 0692 040A0000 		.4byte	.LVL33
 4099 0696 0100     		.2byte	0x1
 4100 0698 52       		.byte	0x52
 4101 0699 060A0000 		.4byte	.LVL34
 4102 069d 100A0000 		.4byte	.LVL38
 4103 06a1 0100     		.2byte	0x1
 4104 06a3 52       		.byte	0x52
 4105 06a4 120A0000 		.4byte	.LVL39
 4106 06a8 140A0000 		.4byte	.LVL40
 4107 06ac 0100     		.2byte	0x1
 4108 06ae 52       		.byte	0x52
 4109 06af 140A0000 		.4byte	.LVL40
 4110 06b3 2A0A0000 		.4byte	.LVL42
 4111 06b7 2200     		.2byte	0x22
 4112 06b9 91       		.byte	0x91
 4113 06ba 00       		.sleb128 0
 4114 06bb 7A       		.byte	0x7a
 4115 06bc 00       		.sleb128 0
 4116 06bd 22       		.byte	0x22
 4117 06be 0A       		.byte	0xa
 4118 06bf 2810     		.2byte	0x1028
 4119 06c1 1C       		.byte	0x1c
 4120 06c2 94       		.byte	0x94
 4121 06c3 01       		.byte	0x1
 4122 06c4 08       		.byte	0x8
 4123 06c5 FF       		.byte	0xff
 4124 06c6 1A       		.byte	0x1a
 4125 06c7 38       		.byte	0x38
 4126 06c8 24       		.byte	0x24
 4127 06c9 91       		.byte	0x91
 4128 06ca 00       		.sleb128 0
 4129 06cb 7A       		.byte	0x7a
ARM GAS  C:\Users\info\AppData\Local\Temp\ccKQ3Zl2.s 			page 84


 4130 06cc 00       		.sleb128 0
 4131 06cd 22       		.byte	0x22
 4132 06ce 0A       		.byte	0xa
 4133 06cf 2710     		.2byte	0x1027
 4134 06d1 1C       		.byte	0x1c
 4135 06d2 94       		.byte	0x94
 4136 06d3 01       		.byte	0x1
 4137 06d4 08       		.byte	0x8
 4138 06d5 FF       		.byte	0xff
 4139 06d6 1A       		.byte	0x1a
 4140 06d7 21       		.byte	0x21
 4141 06d8 3C       		.byte	0x3c
 4142 06d9 25       		.byte	0x25
 4143 06da 9F       		.byte	0x9f
 4144 06db 300A0000 		.4byte	.LVL44
 4145 06df 460A0000 		.4byte	.LVL48
 4146 06e3 0100     		.2byte	0x1
 4147 06e5 52       		.byte	0x52
 4148 06e6 480A0000 		.4byte	.LVL49
 4149 06ea 5E0A0000 		.4byte	.LVL53
 4150 06ee 0100     		.2byte	0x1
 4151 06f0 52       		.byte	0x52
 4152 06f1 600A0000 		.4byte	.LVL54
 4153 06f5 6A0A0000 		.4byte	.LVL56
 4154 06f9 0100     		.2byte	0x1
 4155 06fb 52       		.byte	0x52
 4156 06fc 6A0A0000 		.4byte	.LVL56
 4157 0700 760A0000 		.4byte	.LVL57
 4158 0704 2200     		.2byte	0x22
 4159 0706 91       		.byte	0x91
 4160 0707 00       		.sleb128 0
 4161 0708 7A       		.byte	0x7a
 4162 0709 00       		.sleb128 0
 4163 070a 22       		.byte	0x22
 4164 070b 0A       		.byte	0xa
 4165 070c 2810     		.2byte	0x1028
 4166 070e 1C       		.byte	0x1c
 4167 070f 94       		.byte	0x94
 4168 0710 01       		.byte	0x1
 4169 0711 08       		.byte	0x8
 4170 0712 FF       		.byte	0xff
 4171 0713 1A       		.byte	0x1a
 4172 0714 38       		.byte	0x38
 4173 0715 24       		.byte	0x24
 4174 0716 91       		.byte	0x91
 4175 0717 00       		.sleb128 0
 4176 0718 7A       		.byte	0x7a
 4177 0719 00       		.sleb128 0
 4178 071a 22       		.byte	0x22
 4179 071b 0A       		.byte	0xa
 4180 071c 2710     		.2byte	0x1027
 4181 071e 1C       		.byte	0x1c
 4182 071f 94       		.byte	0x94
 4183 0720 01       		.byte	0x1
 4184 0721 08       		.byte	0x8
 4185 0722 FF       		.byte	0xff
 4186 0723 1A       		.byte	0x1a
ARM GAS  C:\Users\info\AppData\Local\Temp\ccKQ3Zl2.s 			page 85


 4187 0724 21       		.byte	0x21
 4188 0725 3C       		.byte	0x3c
 4189 0726 25       		.byte	0x25
 4190 0727 9F       		.byte	0x9f
 4191 0728 760A0000 		.4byte	.LVL57
 4192 072c 7A0A0000 		.4byte	.LVL58
 4193 0730 2200     		.2byte	0x22
 4194 0732 91       		.byte	0x91
 4195 0733 00       		.sleb128 0
 4196 0734 7A       		.byte	0x7a
 4197 0735 00       		.sleb128 0
 4198 0736 22       		.byte	0x22
 4199 0737 0A       		.byte	0xa
 4200 0738 2A10     		.2byte	0x102a
 4201 073a 1C       		.byte	0x1c
 4202 073b 94       		.byte	0x94
 4203 073c 01       		.byte	0x1
 4204 073d 08       		.byte	0x8
 4205 073e FF       		.byte	0xff
 4206 073f 1A       		.byte	0x1a
 4207 0740 38       		.byte	0x38
 4208 0741 24       		.byte	0x24
 4209 0742 91       		.byte	0x91
 4210 0743 00       		.sleb128 0
 4211 0744 7A       		.byte	0x7a
 4212 0745 00       		.sleb128 0
 4213 0746 22       		.byte	0x22
 4214 0747 0A       		.byte	0xa
 4215 0748 2910     		.2byte	0x1029
 4216 074a 1C       		.byte	0x1c
 4217 074b 94       		.byte	0x94
 4218 074c 01       		.byte	0x1
 4219 074d 08       		.byte	0x8
 4220 074e FF       		.byte	0xff
 4221 074f 1A       		.byte	0x1a
 4222 0750 21       		.byte	0x21
 4223 0751 3C       		.byte	0x3c
 4224 0752 25       		.byte	0x25
 4225 0753 9F       		.byte	0x9f
 4226 0754 800A0000 		.4byte	.LVL59
 4227 0758 8A0A0000 		.4byte	.LVL61
 4228 075c 0100     		.2byte	0x1
 4229 075e 52       		.byte	0x52
 4230 075f 8A0A0000 		.4byte	.LVL61
 4231 0763 960A0000 		.4byte	.LVL62
 4232 0767 2200     		.2byte	0x22
 4233 0769 91       		.byte	0x91
 4234 076a 00       		.sleb128 0
 4235 076b 7A       		.byte	0x7a
 4236 076c 00       		.sleb128 0
 4237 076d 22       		.byte	0x22
 4238 076e 0A       		.byte	0xa
 4239 076f 2810     		.2byte	0x1028
 4240 0771 1C       		.byte	0x1c
 4241 0772 94       		.byte	0x94
 4242 0773 01       		.byte	0x1
 4243 0774 08       		.byte	0x8
ARM GAS  C:\Users\info\AppData\Local\Temp\ccKQ3Zl2.s 			page 86


 4244 0775 FF       		.byte	0xff
 4245 0776 1A       		.byte	0x1a
 4246 0777 38       		.byte	0x38
 4247 0778 24       		.byte	0x24
 4248 0779 91       		.byte	0x91
 4249 077a 00       		.sleb128 0
 4250 077b 7A       		.byte	0x7a
 4251 077c 00       		.sleb128 0
 4252 077d 22       		.byte	0x22
 4253 077e 0A       		.byte	0xa
 4254 077f 2710     		.2byte	0x1027
 4255 0781 1C       		.byte	0x1c
 4256 0782 94       		.byte	0x94
 4257 0783 01       		.byte	0x1
 4258 0784 08       		.byte	0x8
 4259 0785 FF       		.byte	0xff
 4260 0786 1A       		.byte	0x1a
 4261 0787 21       		.byte	0x21
 4262 0788 3C       		.byte	0x3c
 4263 0789 25       		.byte	0x25
 4264 078a 9F       		.byte	0x9f
 4265 078b 960A0000 		.4byte	.LVL62
 4266 078f 9A0A0000 		.4byte	.LVL63
 4267 0793 2200     		.2byte	0x22
 4268 0795 91       		.byte	0x91
 4269 0796 00       		.sleb128 0
 4270 0797 7A       		.byte	0x7a
 4271 0798 00       		.sleb128 0
 4272 0799 22       		.byte	0x22
 4273 079a 0A       		.byte	0xa
 4274 079b 2A10     		.2byte	0x102a
 4275 079d 1C       		.byte	0x1c
 4276 079e 94       		.byte	0x94
 4277 079f 01       		.byte	0x1
 4278 07a0 08       		.byte	0x8
 4279 07a1 FF       		.byte	0xff
 4280 07a2 1A       		.byte	0x1a
 4281 07a3 38       		.byte	0x38
 4282 07a4 24       		.byte	0x24
 4283 07a5 91       		.byte	0x91
 4284 07a6 00       		.sleb128 0
 4285 07a7 7A       		.byte	0x7a
 4286 07a8 00       		.sleb128 0
 4287 07a9 22       		.byte	0x22
 4288 07aa 0A       		.byte	0xa
 4289 07ab 2910     		.2byte	0x1029
 4290 07ad 1C       		.byte	0x1c
 4291 07ae 94       		.byte	0x94
 4292 07af 01       		.byte	0x1
 4293 07b0 08       		.byte	0x8
 4294 07b1 FF       		.byte	0xff
 4295 07b2 1A       		.byte	0x1a
 4296 07b3 21       		.byte	0x21
 4297 07b4 3C       		.byte	0x3c
 4298 07b5 25       		.byte	0x25
 4299 07b6 9F       		.byte	0x9f
 4300 07b7 A00A0000 		.4byte	.LVL64
ARM GAS  C:\Users\info\AppData\Local\Temp\ccKQ3Zl2.s 			page 87


 4301 07bb A80A0000 		.4byte	.LVL66
 4302 07bf 0100     		.2byte	0x1
 4303 07c1 52       		.byte	0x52
 4304 07c2 A80A0000 		.4byte	.LVL66
 4305 07c6 AA0A0000 		.4byte	.LVL67
 4306 07ca 2200     		.2byte	0x22
 4307 07cc 91       		.byte	0x91
 4308 07cd 00       		.sleb128 0
 4309 07ce 7A       		.byte	0x7a
 4310 07cf 00       		.sleb128 0
 4311 07d0 22       		.byte	0x22
 4312 07d1 0A       		.byte	0xa
 4313 07d2 2810     		.2byte	0x1028
 4314 07d4 1C       		.byte	0x1c
 4315 07d5 94       		.byte	0x94
 4316 07d6 01       		.byte	0x1
 4317 07d7 08       		.byte	0x8
 4318 07d8 FF       		.byte	0xff
 4319 07d9 1A       		.byte	0x1a
 4320 07da 38       		.byte	0x38
 4321 07db 24       		.byte	0x24
 4322 07dc 91       		.byte	0x91
 4323 07dd 00       		.sleb128 0
 4324 07de 7A       		.byte	0x7a
 4325 07df 00       		.sleb128 0
 4326 07e0 22       		.byte	0x22
 4327 07e1 0A       		.byte	0xa
 4328 07e2 2710     		.2byte	0x1027
 4329 07e4 1C       		.byte	0x1c
 4330 07e5 94       		.byte	0x94
 4331 07e6 01       		.byte	0x1
 4332 07e7 08       		.byte	0x8
 4333 07e8 FF       		.byte	0xff
 4334 07e9 1A       		.byte	0x1a
 4335 07ea 21       		.byte	0x21
 4336 07eb 3C       		.byte	0x3c
 4337 07ec 25       		.byte	0x25
 4338 07ed 9F       		.byte	0x9f
 4339 07ee AA0A0000 		.4byte	.LVL67
 4340 07f2 AC0A0000 		.4byte	.LVL68
 4341 07f6 0100     		.2byte	0x1
 4342 07f8 52       		.byte	0x52
 4343 07f9 AC0A0000 		.4byte	.LVL68
 4344 07fd B80A0000 		.4byte	.LVL71
 4345 0801 2200     		.2byte	0x22
 4346 0803 91       		.byte	0x91
 4347 0804 00       		.sleb128 0
 4348 0805 7A       		.byte	0x7a
 4349 0806 00       		.sleb128 0
 4350 0807 22       		.byte	0x22
 4351 0808 0A       		.byte	0xa
 4352 0809 2810     		.2byte	0x1028
 4353 080b 1C       		.byte	0x1c
 4354 080c 94       		.byte	0x94
 4355 080d 01       		.byte	0x1
 4356 080e 08       		.byte	0x8
 4357 080f FF       		.byte	0xff
ARM GAS  C:\Users\info\AppData\Local\Temp\ccKQ3Zl2.s 			page 88


 4358 0810 1A       		.byte	0x1a
 4359 0811 38       		.byte	0x38
 4360 0812 24       		.byte	0x24
 4361 0813 91       		.byte	0x91
 4362 0814 00       		.sleb128 0
 4363 0815 7A       		.byte	0x7a
 4364 0816 00       		.sleb128 0
 4365 0817 22       		.byte	0x22
 4366 0818 0A       		.byte	0xa
 4367 0819 2710     		.2byte	0x1027
 4368 081b 1C       		.byte	0x1c
 4369 081c 94       		.byte	0x94
 4370 081d 01       		.byte	0x1
 4371 081e 08       		.byte	0x8
 4372 081f FF       		.byte	0xff
 4373 0820 1A       		.byte	0x1a
 4374 0821 21       		.byte	0x21
 4375 0822 3C       		.byte	0x3c
 4376 0823 25       		.byte	0x25
 4377 0824 9F       		.byte	0x9f
 4378 0825 B80A0000 		.4byte	.LVL71
 4379 0829 E40A0000 		.4byte	.LVL73
 4380 082d 0100     		.2byte	0x1
 4381 082f 52       		.byte	0x52
 4382 0830 E40A0000 		.4byte	.LVL73
 4383 0834 EC0A0000 		.4byte	.LVL74
 4384 0838 2200     		.2byte	0x22
 4385 083a 91       		.byte	0x91
 4386 083b 00       		.sleb128 0
 4387 083c 7A       		.byte	0x7a
 4388 083d 00       		.sleb128 0
 4389 083e 22       		.byte	0x22
 4390 083f 0A       		.byte	0xa
 4391 0840 2810     		.2byte	0x1028
 4392 0842 1C       		.byte	0x1c
 4393 0843 94       		.byte	0x94
 4394 0844 01       		.byte	0x1
 4395 0845 08       		.byte	0x8
 4396 0846 FF       		.byte	0xff
 4397 0847 1A       		.byte	0x1a
 4398 0848 38       		.byte	0x38
 4399 0849 24       		.byte	0x24
 4400 084a 91       		.byte	0x91
 4401 084b 00       		.sleb128 0
 4402 084c 7A       		.byte	0x7a
 4403 084d 00       		.sleb128 0
 4404 084e 22       		.byte	0x22
 4405 084f 0A       		.byte	0xa
 4406 0850 2710     		.2byte	0x1027
 4407 0852 1C       		.byte	0x1c
 4408 0853 94       		.byte	0x94
 4409 0854 01       		.byte	0x1
 4410 0855 08       		.byte	0x8
 4411 0856 FF       		.byte	0xff
 4412 0857 1A       		.byte	0x1a
 4413 0858 21       		.byte	0x21
 4414 0859 3C       		.byte	0x3c
ARM GAS  C:\Users\info\AppData\Local\Temp\ccKQ3Zl2.s 			page 89


 4415 085a 25       		.byte	0x25
 4416 085b 9F       		.byte	0x9f
 4417 085c EC0A0000 		.4byte	.LVL74
 4418 0860 F20A0000 		.4byte	.LVL75
 4419 0864 0100     		.2byte	0x1
 4420 0866 52       		.byte	0x52
 4421 0867 F20A0000 		.4byte	.LVL75
 4422 086b FC0A0000 		.4byte	.LVL76
 4423 086f 2200     		.2byte	0x22
 4424 0871 91       		.byte	0x91
 4425 0872 00       		.sleb128 0
 4426 0873 7A       		.byte	0x7a
 4427 0874 00       		.sleb128 0
 4428 0875 22       		.byte	0x22
 4429 0876 0A       		.byte	0xa
 4430 0877 2810     		.2byte	0x1028
 4431 0879 1C       		.byte	0x1c
 4432 087a 94       		.byte	0x94
 4433 087b 01       		.byte	0x1
 4434 087c 08       		.byte	0x8
 4435 087d FF       		.byte	0xff
 4436 087e 1A       		.byte	0x1a
 4437 087f 38       		.byte	0x38
 4438 0880 24       		.byte	0x24
 4439 0881 91       		.byte	0x91
 4440 0882 00       		.sleb128 0
 4441 0883 7A       		.byte	0x7a
 4442 0884 00       		.sleb128 0
 4443 0885 22       		.byte	0x22
 4444 0886 0A       		.byte	0xa
 4445 0887 2710     		.2byte	0x1027
 4446 0889 1C       		.byte	0x1c
 4447 088a 94       		.byte	0x94
 4448 088b 01       		.byte	0x1
 4449 088c 08       		.byte	0x8
 4450 088d FF       		.byte	0xff
 4451 088e 1A       		.byte	0x1a
 4452 088f 21       		.byte	0x21
 4453 0890 3C       		.byte	0x3c
 4454 0891 25       		.byte	0x25
 4455 0892 9F       		.byte	0x9f
 4456 0893 FC0A0000 		.4byte	.LVL76
 4457 0897 020B0000 		.4byte	.LVL77
 4458 089b 0100     		.2byte	0x1
 4459 089d 52       		.byte	0x52
 4460 089e 020B0000 		.4byte	.LVL77
 4461 08a2 0C0B0000 		.4byte	.LVL78
 4462 08a6 2200     		.2byte	0x22
 4463 08a8 91       		.byte	0x91
 4464 08a9 00       		.sleb128 0
 4465 08aa 7A       		.byte	0x7a
 4466 08ab 00       		.sleb128 0
 4467 08ac 22       		.byte	0x22
 4468 08ad 0A       		.byte	0xa
 4469 08ae 2810     		.2byte	0x1028
 4470 08b0 1C       		.byte	0x1c
 4471 08b1 94       		.byte	0x94
ARM GAS  C:\Users\info\AppData\Local\Temp\ccKQ3Zl2.s 			page 90


 4472 08b2 01       		.byte	0x1
 4473 08b3 08       		.byte	0x8
 4474 08b4 FF       		.byte	0xff
 4475 08b5 1A       		.byte	0x1a
 4476 08b6 38       		.byte	0x38
 4477 08b7 24       		.byte	0x24
 4478 08b8 91       		.byte	0x91
 4479 08b9 00       		.sleb128 0
 4480 08ba 7A       		.byte	0x7a
 4481 08bb 00       		.sleb128 0
 4482 08bc 22       		.byte	0x22
 4483 08bd 0A       		.byte	0xa
 4484 08be 2710     		.2byte	0x1027
 4485 08c0 1C       		.byte	0x1c
 4486 08c1 94       		.byte	0x94
 4487 08c2 01       		.byte	0x1
 4488 08c3 08       		.byte	0x8
 4489 08c4 FF       		.byte	0xff
 4490 08c5 1A       		.byte	0x1a
 4491 08c6 21       		.byte	0x21
 4492 08c7 3C       		.byte	0x3c
 4493 08c8 25       		.byte	0x25
 4494 08c9 9F       		.byte	0x9f
 4495 08ca 0C0B0000 		.4byte	.LVL78
 4496 08ce 120B0000 		.4byte	.LVL79
 4497 08d2 0100     		.2byte	0x1
 4498 08d4 52       		.byte	0x52
 4499 08d5 120B0000 		.4byte	.LVL79
 4500 08d9 1C0B0000 		.4byte	.LVL80
 4501 08dd 2200     		.2byte	0x22
 4502 08df 91       		.byte	0x91
 4503 08e0 00       		.sleb128 0
 4504 08e1 7A       		.byte	0x7a
 4505 08e2 00       		.sleb128 0
 4506 08e3 22       		.byte	0x22
 4507 08e4 0A       		.byte	0xa
 4508 08e5 2810     		.2byte	0x1028
 4509 08e7 1C       		.byte	0x1c
 4510 08e8 94       		.byte	0x94
 4511 08e9 01       		.byte	0x1
 4512 08ea 08       		.byte	0x8
 4513 08eb FF       		.byte	0xff
 4514 08ec 1A       		.byte	0x1a
 4515 08ed 38       		.byte	0x38
 4516 08ee 24       		.byte	0x24
 4517 08ef 91       		.byte	0x91
 4518 08f0 00       		.sleb128 0
 4519 08f1 7A       		.byte	0x7a
 4520 08f2 00       		.sleb128 0
 4521 08f3 22       		.byte	0x22
 4522 08f4 0A       		.byte	0xa
 4523 08f5 2710     		.2byte	0x1027
 4524 08f7 1C       		.byte	0x1c
 4525 08f8 94       		.byte	0x94
 4526 08f9 01       		.byte	0x1
 4527 08fa 08       		.byte	0x8
 4528 08fb FF       		.byte	0xff
ARM GAS  C:\Users\info\AppData\Local\Temp\ccKQ3Zl2.s 			page 91


 4529 08fc 1A       		.byte	0x1a
 4530 08fd 21       		.byte	0x21
 4531 08fe 3C       		.byte	0x3c
 4532 08ff 25       		.byte	0x25
 4533 0900 9F       		.byte	0x9f
 4534 0901 1C0B0000 		.4byte	.LVL80
 4535 0905 220B0000 		.4byte	.LVL81
 4536 0909 0100     		.2byte	0x1
 4537 090b 52       		.byte	0x52
 4538 090c 220B0000 		.4byte	.LVL81
 4539 0910 2C0B0000 		.4byte	.LVL82
 4540 0914 2200     		.2byte	0x22
 4541 0916 91       		.byte	0x91
 4542 0917 00       		.sleb128 0
 4543 0918 7A       		.byte	0x7a
 4544 0919 00       		.sleb128 0
 4545 091a 22       		.byte	0x22
 4546 091b 0A       		.byte	0xa
 4547 091c 2810     		.2byte	0x1028
 4548 091e 1C       		.byte	0x1c
 4549 091f 94       		.byte	0x94
 4550 0920 01       		.byte	0x1
 4551 0921 08       		.byte	0x8
 4552 0922 FF       		.byte	0xff
 4553 0923 1A       		.byte	0x1a
 4554 0924 38       		.byte	0x38
 4555 0925 24       		.byte	0x24
 4556 0926 91       		.byte	0x91
 4557 0927 00       		.sleb128 0
 4558 0928 7A       		.byte	0x7a
 4559 0929 00       		.sleb128 0
 4560 092a 22       		.byte	0x22
 4561 092b 0A       		.byte	0xa
 4562 092c 2710     		.2byte	0x1027
 4563 092e 1C       		.byte	0x1c
 4564 092f 94       		.byte	0x94
 4565 0930 01       		.byte	0x1
 4566 0931 08       		.byte	0x8
 4567 0932 FF       		.byte	0xff
 4568 0933 1A       		.byte	0x1a
 4569 0934 21       		.byte	0x21
 4570 0935 3C       		.byte	0x3c
 4571 0936 25       		.byte	0x25
 4572 0937 9F       		.byte	0x9f
 4573 0938 2C0B0000 		.4byte	.LVL82
 4574 093c 2E0B0000 		.4byte	.LVL83
 4575 0940 0100     		.2byte	0x1
 4576 0942 52       		.byte	0x52
 4577 0943 2E0B0000 		.4byte	.LVL83
 4578 0947 4C0B0000 		.4byte	.LVL88
 4579 094b 2200     		.2byte	0x22
 4580 094d 91       		.byte	0x91
 4581 094e 00       		.sleb128 0
 4582 094f 7A       		.byte	0x7a
 4583 0950 00       		.sleb128 0
 4584 0951 22       		.byte	0x22
 4585 0952 0A       		.byte	0xa
ARM GAS  C:\Users\info\AppData\Local\Temp\ccKQ3Zl2.s 			page 92


 4586 0953 2810     		.2byte	0x1028
 4587 0955 1C       		.byte	0x1c
 4588 0956 94       		.byte	0x94
 4589 0957 01       		.byte	0x1
 4590 0958 08       		.byte	0x8
 4591 0959 FF       		.byte	0xff
 4592 095a 1A       		.byte	0x1a
 4593 095b 38       		.byte	0x38
 4594 095c 24       		.byte	0x24
 4595 095d 91       		.byte	0x91
 4596 095e 00       		.sleb128 0
 4597 095f 7A       		.byte	0x7a
 4598 0960 00       		.sleb128 0
 4599 0961 22       		.byte	0x22
 4600 0962 0A       		.byte	0xa
 4601 0963 2710     		.2byte	0x1027
 4602 0965 1C       		.byte	0x1c
 4603 0966 94       		.byte	0x94
 4604 0967 01       		.byte	0x1
 4605 0968 08       		.byte	0x8
 4606 0969 FF       		.byte	0xff
 4607 096a 1A       		.byte	0x1a
 4608 096b 21       		.byte	0x21
 4609 096c 3C       		.byte	0x3c
 4610 096d 25       		.byte	0x25
 4611 096e 9F       		.byte	0x9f
 4612 096f 4C0B0000 		.4byte	.LVL88
 4613 0973 500B0000 		.4byte	.LVL89
 4614 0977 0100     		.2byte	0x1
 4615 0979 52       		.byte	0x52
 4616 097a 500B0000 		.4byte	.LVL89
 4617 097e 640B0000 		.4byte	.LVL90
 4618 0982 2200     		.2byte	0x22
 4619 0984 91       		.byte	0x91
 4620 0985 00       		.sleb128 0
 4621 0986 7A       		.byte	0x7a
 4622 0987 00       		.sleb128 0
 4623 0988 22       		.byte	0x22
 4624 0989 0A       		.byte	0xa
 4625 098a 2810     		.2byte	0x1028
 4626 098c 1C       		.byte	0x1c
 4627 098d 94       		.byte	0x94
 4628 098e 01       		.byte	0x1
 4629 098f 08       		.byte	0x8
 4630 0990 FF       		.byte	0xff
 4631 0991 1A       		.byte	0x1a
 4632 0992 38       		.byte	0x38
 4633 0993 24       		.byte	0x24
 4634 0994 91       		.byte	0x91
 4635 0995 00       		.sleb128 0
 4636 0996 7A       		.byte	0x7a
 4637 0997 00       		.sleb128 0
 4638 0998 22       		.byte	0x22
 4639 0999 0A       		.byte	0xa
 4640 099a 2710     		.2byte	0x1027
 4641 099c 1C       		.byte	0x1c
 4642 099d 94       		.byte	0x94
ARM GAS  C:\Users\info\AppData\Local\Temp\ccKQ3Zl2.s 			page 93


 4643 099e 01       		.byte	0x1
 4644 099f 08       		.byte	0x8
 4645 09a0 FF       		.byte	0xff
 4646 09a1 1A       		.byte	0x1a
 4647 09a2 21       		.byte	0x21
 4648 09a3 3C       		.byte	0x3c
 4649 09a4 25       		.byte	0x25
 4650 09a5 9F       		.byte	0x9f
 4651 09a6 640B0000 		.4byte	.LVL90
 4652 09aa 660B0000 		.4byte	.LVL91
 4653 09ae 0100     		.2byte	0x1
 4654 09b0 52       		.byte	0x52
 4655 09b1 660B0000 		.4byte	.LVL91
 4656 09b5 840B0000 		.4byte	.LVL96
 4657 09b9 2200     		.2byte	0x22
 4658 09bb 91       		.byte	0x91
 4659 09bc 00       		.sleb128 0
 4660 09bd 7A       		.byte	0x7a
 4661 09be 00       		.sleb128 0
 4662 09bf 22       		.byte	0x22
 4663 09c0 0A       		.byte	0xa
 4664 09c1 2810     		.2byte	0x1028
 4665 09c3 1C       		.byte	0x1c
 4666 09c4 94       		.byte	0x94
 4667 09c5 01       		.byte	0x1
 4668 09c6 08       		.byte	0x8
 4669 09c7 FF       		.byte	0xff
 4670 09c8 1A       		.byte	0x1a
 4671 09c9 38       		.byte	0x38
 4672 09ca 24       		.byte	0x24
 4673 09cb 91       		.byte	0x91
 4674 09cc 00       		.sleb128 0
 4675 09cd 7A       		.byte	0x7a
 4676 09ce 00       		.sleb128 0
 4677 09cf 22       		.byte	0x22
 4678 09d0 0A       		.byte	0xa
 4679 09d1 2710     		.2byte	0x1027
 4680 09d3 1C       		.byte	0x1c
 4681 09d4 94       		.byte	0x94
 4682 09d5 01       		.byte	0x1
 4683 09d6 08       		.byte	0x8
 4684 09d7 FF       		.byte	0xff
 4685 09d8 1A       		.byte	0x1a
 4686 09d9 21       		.byte	0x21
 4687 09da 3C       		.byte	0x3c
 4688 09db 25       		.byte	0x25
 4689 09dc 9F       		.byte	0x9f
 4690 09dd 840B0000 		.4byte	.LVL96
 4691 09e1 880B0000 		.4byte	.LVL97
 4692 09e5 0100     		.2byte	0x1
 4693 09e7 52       		.byte	0x52
 4694 09e8 880B0000 		.4byte	.LVL97
 4695 09ec 9A0B0000 		.4byte	.LVL98
 4696 09f0 2200     		.2byte	0x22
 4697 09f2 91       		.byte	0x91
 4698 09f3 00       		.sleb128 0
 4699 09f4 7A       		.byte	0x7a
ARM GAS  C:\Users\info\AppData\Local\Temp\ccKQ3Zl2.s 			page 94


 4700 09f5 00       		.sleb128 0
 4701 09f6 22       		.byte	0x22
 4702 09f7 0A       		.byte	0xa
 4703 09f8 2810     		.2byte	0x1028
 4704 09fa 1C       		.byte	0x1c
 4705 09fb 94       		.byte	0x94
 4706 09fc 01       		.byte	0x1
 4707 09fd 08       		.byte	0x8
 4708 09fe FF       		.byte	0xff
 4709 09ff 1A       		.byte	0x1a
 4710 0a00 38       		.byte	0x38
 4711 0a01 24       		.byte	0x24
 4712 0a02 91       		.byte	0x91
 4713 0a03 00       		.sleb128 0
 4714 0a04 7A       		.byte	0x7a
 4715 0a05 00       		.sleb128 0
 4716 0a06 22       		.byte	0x22
 4717 0a07 0A       		.byte	0xa
 4718 0a08 2710     		.2byte	0x1027
 4719 0a0a 1C       		.byte	0x1c
 4720 0a0b 94       		.byte	0x94
 4721 0a0c 01       		.byte	0x1
 4722 0a0d 08       		.byte	0x8
 4723 0a0e FF       		.byte	0xff
 4724 0a0f 1A       		.byte	0x1a
 4725 0a10 21       		.byte	0x21
 4726 0a11 3C       		.byte	0x3c
 4727 0a12 25       		.byte	0x25
 4728 0a13 9F       		.byte	0x9f
 4729 0a14 9A0B0000 		.4byte	.LVL98
 4730 0a18 A00B0000 		.4byte	.LVL100
 4731 0a1c 0100     		.2byte	0x1
 4732 0a1e 52       		.byte	0x52
 4733 0a1f A00B0000 		.4byte	.LVL100
 4734 0a23 A20B0000 		.4byte	.LVL101
 4735 0a27 2200     		.2byte	0x22
 4736 0a29 91       		.byte	0x91
 4737 0a2a 00       		.sleb128 0
 4738 0a2b 7A       		.byte	0x7a
 4739 0a2c 00       		.sleb128 0
 4740 0a2d 22       		.byte	0x22
 4741 0a2e 0A       		.byte	0xa
 4742 0a2f 2810     		.2byte	0x1028
 4743 0a31 1C       		.byte	0x1c
 4744 0a32 94       		.byte	0x94
 4745 0a33 01       		.byte	0x1
 4746 0a34 08       		.byte	0x8
 4747 0a35 FF       		.byte	0xff
 4748 0a36 1A       		.byte	0x1a
 4749 0a37 38       		.byte	0x38
 4750 0a38 24       		.byte	0x24
 4751 0a39 91       		.byte	0x91
 4752 0a3a 00       		.sleb128 0
 4753 0a3b 7A       		.byte	0x7a
 4754 0a3c 00       		.sleb128 0
 4755 0a3d 22       		.byte	0x22
 4756 0a3e 0A       		.byte	0xa
ARM GAS  C:\Users\info\AppData\Local\Temp\ccKQ3Zl2.s 			page 95


 4757 0a3f 2710     		.2byte	0x1027
 4758 0a41 1C       		.byte	0x1c
 4759 0a42 94       		.byte	0x94
 4760 0a43 01       		.byte	0x1
 4761 0a44 08       		.byte	0x8
 4762 0a45 FF       		.byte	0xff
 4763 0a46 1A       		.byte	0x1a
 4764 0a47 21       		.byte	0x21
 4765 0a48 3C       		.byte	0x3c
 4766 0a49 25       		.byte	0x25
 4767 0a4a 9F       		.byte	0x9f
 4768 0a4b A20B0000 		.4byte	.LVL101
 4769 0a4f A50B0000 		.4byte	.LVL102-1
 4770 0a53 0100     		.2byte	0x1
 4771 0a55 52       		.byte	0x52
 4772 0a56 A50B0000 		.4byte	.LVL102-1
 4773 0a5a C20B0000 		.4byte	.LVL104
 4774 0a5e 2200     		.2byte	0x22
 4775 0a60 91       		.byte	0x91
 4776 0a61 00       		.sleb128 0
 4777 0a62 7A       		.byte	0x7a
 4778 0a63 00       		.sleb128 0
 4779 0a64 22       		.byte	0x22
 4780 0a65 0A       		.byte	0xa
 4781 0a66 2810     		.2byte	0x1028
 4782 0a68 1C       		.byte	0x1c
 4783 0a69 94       		.byte	0x94
 4784 0a6a 01       		.byte	0x1
 4785 0a6b 08       		.byte	0x8
 4786 0a6c FF       		.byte	0xff
 4787 0a6d 1A       		.byte	0x1a
 4788 0a6e 38       		.byte	0x38
 4789 0a6f 24       		.byte	0x24
 4790 0a70 91       		.byte	0x91
 4791 0a71 00       		.sleb128 0
 4792 0a72 7A       		.byte	0x7a
 4793 0a73 00       		.sleb128 0
 4794 0a74 22       		.byte	0x22
 4795 0a75 0A       		.byte	0xa
 4796 0a76 2710     		.2byte	0x1027
 4797 0a78 1C       		.byte	0x1c
 4798 0a79 94       		.byte	0x94
 4799 0a7a 01       		.byte	0x1
 4800 0a7b 08       		.byte	0x8
 4801 0a7c FF       		.byte	0xff
 4802 0a7d 1A       		.byte	0x1a
 4803 0a7e 21       		.byte	0x21
 4804 0a7f 3C       		.byte	0x3c
 4805 0a80 25       		.byte	0x25
 4806 0a81 9F       		.byte	0x9f
 4807 0a82 C20B0000 		.4byte	.LVL104
 4808 0a86 C40B0000 		.4byte	.LVL105
 4809 0a8a 1C00     		.2byte	0x1c
 4810 0a8c 72       		.byte	0x72
 4811 0a8d 00       		.sleb128 0
 4812 0a8e 7A       		.byte	0x7a
 4813 0a8f 00       		.sleb128 0
ARM GAS  C:\Users\info\AppData\Local\Temp\ccKQ3Zl2.s 			page 96


 4814 0a90 22       		.byte	0x22
 4815 0a91 94       		.byte	0x94
 4816 0a92 01       		.byte	0x1
 4817 0a93 08       		.byte	0x8
 4818 0a94 FF       		.byte	0xff
 4819 0a95 1A       		.byte	0x1a
 4820 0a96 38       		.byte	0x38
 4821 0a97 24       		.byte	0x24
 4822 0a98 72       		.byte	0x72
 4823 0a99 00       		.sleb128 0
 4824 0a9a 7A       		.byte	0x7a
 4825 0a9b 00       		.sleb128 0
 4826 0a9c 22       		.byte	0x22
 4827 0a9d 23       		.byte	0x23
 4828 0a9e 01       		.uleb128 0x1
 4829 0a9f 94       		.byte	0x94
 4830 0aa0 01       		.byte	0x1
 4831 0aa1 08       		.byte	0x8
 4832 0aa2 FF       		.byte	0xff
 4833 0aa3 1A       		.byte	0x1a
 4834 0aa4 21       		.byte	0x21
 4835 0aa5 3C       		.byte	0x3c
 4836 0aa6 25       		.byte	0x25
 4837 0aa7 9F       		.byte	0x9f
 4838 0aa8 C40B0000 		.4byte	.LVL105
 4839 0aac F60B0000 		.4byte	.LVL108
 4840 0ab0 2200     		.2byte	0x22
 4841 0ab2 91       		.byte	0x91
 4842 0ab3 00       		.sleb128 0
 4843 0ab4 7A       		.byte	0x7a
 4844 0ab5 00       		.sleb128 0
 4845 0ab6 22       		.byte	0x22
 4846 0ab7 0A       		.byte	0xa
 4847 0ab8 2810     		.2byte	0x1028
 4848 0aba 1C       		.byte	0x1c
 4849 0abb 94       		.byte	0x94
 4850 0abc 01       		.byte	0x1
 4851 0abd 08       		.byte	0x8
 4852 0abe FF       		.byte	0xff
 4853 0abf 1A       		.byte	0x1a
 4854 0ac0 38       		.byte	0x38
 4855 0ac1 24       		.byte	0x24
 4856 0ac2 91       		.byte	0x91
 4857 0ac3 00       		.sleb128 0
 4858 0ac4 7A       		.byte	0x7a
 4859 0ac5 00       		.sleb128 0
 4860 0ac6 22       		.byte	0x22
 4861 0ac7 0A       		.byte	0xa
 4862 0ac8 2710     		.2byte	0x1027
 4863 0aca 1C       		.byte	0x1c
 4864 0acb 94       		.byte	0x94
 4865 0acc 01       		.byte	0x1
 4866 0acd 08       		.byte	0x8
 4867 0ace FF       		.byte	0xff
 4868 0acf 1A       		.byte	0x1a
 4869 0ad0 21       		.byte	0x21
 4870 0ad1 3C       		.byte	0x3c
ARM GAS  C:\Users\info\AppData\Local\Temp\ccKQ3Zl2.s 			page 97


 4871 0ad2 25       		.byte	0x25
 4872 0ad3 9F       		.byte	0x9f
 4873 0ad4 F60B0000 		.4byte	.LVL108
 4874 0ad8 F80B0000 		.4byte	.LVL109
 4875 0adc 1C00     		.2byte	0x1c
 4876 0ade 72       		.byte	0x72
 4877 0adf 00       		.sleb128 0
 4878 0ae0 7A       		.byte	0x7a
 4879 0ae1 00       		.sleb128 0
 4880 0ae2 22       		.byte	0x22
 4881 0ae3 94       		.byte	0x94
 4882 0ae4 01       		.byte	0x1
 4883 0ae5 08       		.byte	0x8
 4884 0ae6 FF       		.byte	0xff
 4885 0ae7 1A       		.byte	0x1a
 4886 0ae8 38       		.byte	0x38
 4887 0ae9 24       		.byte	0x24
 4888 0aea 72       		.byte	0x72
 4889 0aeb 00       		.sleb128 0
 4890 0aec 7A       		.byte	0x7a
 4891 0aed 00       		.sleb128 0
 4892 0aee 22       		.byte	0x22
 4893 0aef 23       		.byte	0x23
 4894 0af0 01       		.uleb128 0x1
 4895 0af1 94       		.byte	0x94
 4896 0af2 01       		.byte	0x1
 4897 0af3 08       		.byte	0x8
 4898 0af4 FF       		.byte	0xff
 4899 0af5 1A       		.byte	0x1a
 4900 0af6 21       		.byte	0x21
 4901 0af7 3C       		.byte	0x3c
 4902 0af8 25       		.byte	0x25
 4903 0af9 9F       		.byte	0x9f
 4904 0afa F80B0000 		.4byte	.LVL109
 4905 0afe 880C0000 		.4byte	.LVL114
 4906 0b02 2200     		.2byte	0x22
 4907 0b04 91       		.byte	0x91
 4908 0b05 00       		.sleb128 0
 4909 0b06 7A       		.byte	0x7a
 4910 0b07 00       		.sleb128 0
 4911 0b08 22       		.byte	0x22
 4912 0b09 0A       		.byte	0xa
 4913 0b0a 2810     		.2byte	0x1028
 4914 0b0c 1C       		.byte	0x1c
 4915 0b0d 94       		.byte	0x94
 4916 0b0e 01       		.byte	0x1
 4917 0b0f 08       		.byte	0x8
 4918 0b10 FF       		.byte	0xff
 4919 0b11 1A       		.byte	0x1a
 4920 0b12 38       		.byte	0x38
 4921 0b13 24       		.byte	0x24
 4922 0b14 91       		.byte	0x91
 4923 0b15 00       		.sleb128 0
 4924 0b16 7A       		.byte	0x7a
 4925 0b17 00       		.sleb128 0
 4926 0b18 22       		.byte	0x22
 4927 0b19 0A       		.byte	0xa
ARM GAS  C:\Users\info\AppData\Local\Temp\ccKQ3Zl2.s 			page 98


 4928 0b1a 2710     		.2byte	0x1027
 4929 0b1c 1C       		.byte	0x1c
 4930 0b1d 94       		.byte	0x94
 4931 0b1e 01       		.byte	0x1
 4932 0b1f 08       		.byte	0x8
 4933 0b20 FF       		.byte	0xff
 4934 0b21 1A       		.byte	0x1a
 4935 0b22 21       		.byte	0x21
 4936 0b23 3C       		.byte	0x3c
 4937 0b24 25       		.byte	0x25
 4938 0b25 9F       		.byte	0x9f
 4939 0b26 880C0000 		.4byte	.LVL114
 4940 0b2a 8C0C0000 		.4byte	.LVL116
 4941 0b2e 0100     		.2byte	0x1
 4942 0b30 52       		.byte	0x52
 4943 0b31 8C0C0000 		.4byte	.LVL116
 4944 0b35 BC0C0000 		.4byte	.LVL120
 4945 0b39 2200     		.2byte	0x22
 4946 0b3b 91       		.byte	0x91
 4947 0b3c 00       		.sleb128 0
 4948 0b3d 7A       		.byte	0x7a
 4949 0b3e 00       		.sleb128 0
 4950 0b3f 22       		.byte	0x22
 4951 0b40 0A       		.byte	0xa
 4952 0b41 2810     		.2byte	0x1028
 4953 0b43 1C       		.byte	0x1c
 4954 0b44 94       		.byte	0x94
 4955 0b45 01       		.byte	0x1
 4956 0b46 08       		.byte	0x8
 4957 0b47 FF       		.byte	0xff
 4958 0b48 1A       		.byte	0x1a
 4959 0b49 38       		.byte	0x38
 4960 0b4a 24       		.byte	0x24
 4961 0b4b 91       		.byte	0x91
 4962 0b4c 00       		.sleb128 0
 4963 0b4d 7A       		.byte	0x7a
 4964 0b4e 00       		.sleb128 0
 4965 0b4f 22       		.byte	0x22
 4966 0b50 0A       		.byte	0xa
 4967 0b51 2710     		.2byte	0x1027
 4968 0b53 1C       		.byte	0x1c
 4969 0b54 94       		.byte	0x94
 4970 0b55 01       		.byte	0x1
 4971 0b56 08       		.byte	0x8
 4972 0b57 FF       		.byte	0xff
 4973 0b58 1A       		.byte	0x1a
 4974 0b59 21       		.byte	0x21
 4975 0b5a 3C       		.byte	0x3c
 4976 0b5b 25       		.byte	0x25
 4977 0b5c 9F       		.byte	0x9f
 4978 0b5d BC0C0000 		.4byte	.LVL120
 4979 0b61 D00C0000 		.4byte	.LVL122
 4980 0b65 0100     		.2byte	0x1
 4981 0b67 52       		.byte	0x52
 4982 0b68 D00C0000 		.4byte	.LVL122
 4983 0b6c DE0C0000 		.4byte	.LVL123
 4984 0b70 2200     		.2byte	0x22
ARM GAS  C:\Users\info\AppData\Local\Temp\ccKQ3Zl2.s 			page 99


 4985 0b72 91       		.byte	0x91
 4986 0b73 00       		.sleb128 0
 4987 0b74 7A       		.byte	0x7a
 4988 0b75 00       		.sleb128 0
 4989 0b76 22       		.byte	0x22
 4990 0b77 0A       		.byte	0xa
 4991 0b78 2810     		.2byte	0x1028
 4992 0b7a 1C       		.byte	0x1c
 4993 0b7b 94       		.byte	0x94
 4994 0b7c 01       		.byte	0x1
 4995 0b7d 08       		.byte	0x8
 4996 0b7e FF       		.byte	0xff
 4997 0b7f 1A       		.byte	0x1a
 4998 0b80 38       		.byte	0x38
 4999 0b81 24       		.byte	0x24
 5000 0b82 91       		.byte	0x91
 5001 0b83 00       		.sleb128 0
 5002 0b84 7A       		.byte	0x7a
 5003 0b85 00       		.sleb128 0
 5004 0b86 22       		.byte	0x22
 5005 0b87 0A       		.byte	0xa
 5006 0b88 2710     		.2byte	0x1027
 5007 0b8a 1C       		.byte	0x1c
 5008 0b8b 94       		.byte	0x94
 5009 0b8c 01       		.byte	0x1
 5010 0b8d 08       		.byte	0x8
 5011 0b8e FF       		.byte	0xff
 5012 0b8f 1A       		.byte	0x1a
 5013 0b90 21       		.byte	0x21
 5014 0b91 3C       		.byte	0x3c
 5015 0b92 25       		.byte	0x25
 5016 0b93 9F       		.byte	0x9f
 5017 0b94 DE0C0000 		.4byte	.LVL123
 5018 0b98 E20C0000 		.4byte	.LVL124
 5019 0b9c 2200     		.2byte	0x22
 5020 0b9e 91       		.byte	0x91
 5021 0b9f 00       		.sleb128 0
 5022 0ba0 7A       		.byte	0x7a
 5023 0ba1 00       		.sleb128 0
 5024 0ba2 22       		.byte	0x22
 5025 0ba3 0A       		.byte	0xa
 5026 0ba4 2A10     		.2byte	0x102a
 5027 0ba6 1C       		.byte	0x1c
 5028 0ba7 94       		.byte	0x94
 5029 0ba8 01       		.byte	0x1
 5030 0ba9 08       		.byte	0x8
 5031 0baa FF       		.byte	0xff
 5032 0bab 1A       		.byte	0x1a
 5033 0bac 38       		.byte	0x38
 5034 0bad 24       		.byte	0x24
 5035 0bae 91       		.byte	0x91
 5036 0baf 00       		.sleb128 0
 5037 0bb0 7A       		.byte	0x7a
 5038 0bb1 00       		.sleb128 0
 5039 0bb2 22       		.byte	0x22
 5040 0bb3 0A       		.byte	0xa
 5041 0bb4 2910     		.2byte	0x1029
ARM GAS  C:\Users\info\AppData\Local\Temp\ccKQ3Zl2.s 			page 100


 5042 0bb6 1C       		.byte	0x1c
 5043 0bb7 94       		.byte	0x94
 5044 0bb8 01       		.byte	0x1
 5045 0bb9 08       		.byte	0x8
 5046 0bba FF       		.byte	0xff
 5047 0bbb 1A       		.byte	0x1a
 5048 0bbc 21       		.byte	0x21
 5049 0bbd 3C       		.byte	0x3c
 5050 0bbe 25       		.byte	0x25
 5051 0bbf 9F       		.byte	0x9f
 5052 0bc0 E80C0000 		.4byte	.LVL125
 5053 0bc4 F20C0000 		.4byte	.LVL127
 5054 0bc8 0100     		.2byte	0x1
 5055 0bca 52       		.byte	0x52
 5056 0bcb F20C0000 		.4byte	.LVL127
 5057 0bcf 000D0000 		.4byte	.LVL128
 5058 0bd3 2200     		.2byte	0x22
 5059 0bd5 91       		.byte	0x91
 5060 0bd6 00       		.sleb128 0
 5061 0bd7 7A       		.byte	0x7a
 5062 0bd8 00       		.sleb128 0
 5063 0bd9 22       		.byte	0x22
 5064 0bda 0A       		.byte	0xa
 5065 0bdb 2810     		.2byte	0x1028
 5066 0bdd 1C       		.byte	0x1c
 5067 0bde 94       		.byte	0x94
 5068 0bdf 01       		.byte	0x1
 5069 0be0 08       		.byte	0x8
 5070 0be1 FF       		.byte	0xff
 5071 0be2 1A       		.byte	0x1a
 5072 0be3 38       		.byte	0x38
 5073 0be4 24       		.byte	0x24
 5074 0be5 91       		.byte	0x91
 5075 0be6 00       		.sleb128 0
 5076 0be7 7A       		.byte	0x7a
 5077 0be8 00       		.sleb128 0
 5078 0be9 22       		.byte	0x22
 5079 0bea 0A       		.byte	0xa
 5080 0beb 2710     		.2byte	0x1027
 5081 0bed 1C       		.byte	0x1c
 5082 0bee 94       		.byte	0x94
 5083 0bef 01       		.byte	0x1
 5084 0bf0 08       		.byte	0x8
 5085 0bf1 FF       		.byte	0xff
 5086 0bf2 1A       		.byte	0x1a
 5087 0bf3 21       		.byte	0x21
 5088 0bf4 3C       		.byte	0x3c
 5089 0bf5 25       		.byte	0x25
 5090 0bf6 9F       		.byte	0x9f
 5091 0bf7 000D0000 		.4byte	.LVL128
 5092 0bfb 040D0000 		.4byte	.LVL129
 5093 0bff 2200     		.2byte	0x22
 5094 0c01 91       		.byte	0x91
 5095 0c02 00       		.sleb128 0
 5096 0c03 7A       		.byte	0x7a
 5097 0c04 00       		.sleb128 0
 5098 0c05 22       		.byte	0x22
ARM GAS  C:\Users\info\AppData\Local\Temp\ccKQ3Zl2.s 			page 101


 5099 0c06 0A       		.byte	0xa
 5100 0c07 2A10     		.2byte	0x102a
 5101 0c09 1C       		.byte	0x1c
 5102 0c0a 94       		.byte	0x94
 5103 0c0b 01       		.byte	0x1
 5104 0c0c 08       		.byte	0x8
 5105 0c0d FF       		.byte	0xff
 5106 0c0e 1A       		.byte	0x1a
 5107 0c0f 38       		.byte	0x38
 5108 0c10 24       		.byte	0x24
 5109 0c11 91       		.byte	0x91
 5110 0c12 00       		.sleb128 0
 5111 0c13 7A       		.byte	0x7a
 5112 0c14 00       		.sleb128 0
 5113 0c15 22       		.byte	0x22
 5114 0c16 0A       		.byte	0xa
 5115 0c17 2910     		.2byte	0x1029
 5116 0c19 1C       		.byte	0x1c
 5117 0c1a 94       		.byte	0x94
 5118 0c1b 01       		.byte	0x1
 5119 0c1c 08       		.byte	0x8
 5120 0c1d FF       		.byte	0xff
 5121 0c1e 1A       		.byte	0x1a
 5122 0c1f 21       		.byte	0x21
 5123 0c20 3C       		.byte	0x3c
 5124 0c21 25       		.byte	0x25
 5125 0c22 9F       		.byte	0x9f
 5126 0c23 080D0000 		.4byte	.LVL130
 5127 0c27 3E0D0000 		.4byte	.LVL132
 5128 0c2b 0100     		.2byte	0x1
 5129 0c2d 52       		.byte	0x52
 5130 0c2e 3E0D0000 		.4byte	.LVL132
 5131 0c32 480D0000 		.4byte	.LVL133
 5132 0c36 2200     		.2byte	0x22
 5133 0c38 91       		.byte	0x91
 5134 0c39 00       		.sleb128 0
 5135 0c3a 7A       		.byte	0x7a
 5136 0c3b 00       		.sleb128 0
 5137 0c3c 22       		.byte	0x22
 5138 0c3d 0A       		.byte	0xa
 5139 0c3e 2810     		.2byte	0x1028
 5140 0c40 1C       		.byte	0x1c
 5141 0c41 94       		.byte	0x94
 5142 0c42 01       		.byte	0x1
 5143 0c43 08       		.byte	0x8
 5144 0c44 FF       		.byte	0xff
 5145 0c45 1A       		.byte	0x1a
 5146 0c46 38       		.byte	0x38
 5147 0c47 24       		.byte	0x24
 5148 0c48 91       		.byte	0x91
 5149 0c49 00       		.sleb128 0
 5150 0c4a 7A       		.byte	0x7a
 5151 0c4b 00       		.sleb128 0
 5152 0c4c 22       		.byte	0x22
 5153 0c4d 0A       		.byte	0xa
 5154 0c4e 2710     		.2byte	0x1027
 5155 0c50 1C       		.byte	0x1c
ARM GAS  C:\Users\info\AppData\Local\Temp\ccKQ3Zl2.s 			page 102


 5156 0c51 94       		.byte	0x94
 5157 0c52 01       		.byte	0x1
 5158 0c53 08       		.byte	0x8
 5159 0c54 FF       		.byte	0xff
 5160 0c55 1A       		.byte	0x1a
 5161 0c56 21       		.byte	0x21
 5162 0c57 3C       		.byte	0x3c
 5163 0c58 25       		.byte	0x25
 5164 0c59 9F       		.byte	0x9f
 5165 0c5a 480D0000 		.4byte	.LVL133
 5166 0c5e 560D0000 		.4byte	.LVL134
 5167 0c62 0100     		.2byte	0x1
 5168 0c64 52       		.byte	0x52
 5169 0c65 560D0000 		.4byte	.LVL134
 5170 0c69 600D0000 		.4byte	.LVL135
 5171 0c6d 2200     		.2byte	0x22
 5172 0c6f 91       		.byte	0x91
 5173 0c70 00       		.sleb128 0
 5174 0c71 7A       		.byte	0x7a
 5175 0c72 00       		.sleb128 0
 5176 0c73 22       		.byte	0x22
 5177 0c74 0A       		.byte	0xa
 5178 0c75 2810     		.2byte	0x1028
 5179 0c77 1C       		.byte	0x1c
 5180 0c78 94       		.byte	0x94
 5181 0c79 01       		.byte	0x1
 5182 0c7a 08       		.byte	0x8
 5183 0c7b FF       		.byte	0xff
 5184 0c7c 1A       		.byte	0x1a
 5185 0c7d 38       		.byte	0x38
 5186 0c7e 24       		.byte	0x24
 5187 0c7f 91       		.byte	0x91
 5188 0c80 00       		.sleb128 0
 5189 0c81 7A       		.byte	0x7a
 5190 0c82 00       		.sleb128 0
 5191 0c83 22       		.byte	0x22
 5192 0c84 0A       		.byte	0xa
 5193 0c85 2710     		.2byte	0x1027
 5194 0c87 1C       		.byte	0x1c
 5195 0c88 94       		.byte	0x94
 5196 0c89 01       		.byte	0x1
 5197 0c8a 08       		.byte	0x8
 5198 0c8b FF       		.byte	0xff
 5199 0c8c 1A       		.byte	0x1a
 5200 0c8d 21       		.byte	0x21
 5201 0c8e 3C       		.byte	0x3c
 5202 0c8f 25       		.byte	0x25
 5203 0c90 9F       		.byte	0x9f
 5204 0c91 600D0000 		.4byte	.LVL135
 5205 0c95 640D0000 		.4byte	.LVL137
 5206 0c99 0100     		.2byte	0x1
 5207 0c9b 52       		.byte	0x52
 5208 0c9c 640D0000 		.4byte	.LVL137
 5209 0ca0 6E0D0000 		.4byte	.LVL138
 5210 0ca4 2200     		.2byte	0x22
 5211 0ca6 91       		.byte	0x91
 5212 0ca7 00       		.sleb128 0
ARM GAS  C:\Users\info\AppData\Local\Temp\ccKQ3Zl2.s 			page 103


 5213 0ca8 7A       		.byte	0x7a
 5214 0ca9 00       		.sleb128 0
 5215 0caa 22       		.byte	0x22
 5216 0cab 0A       		.byte	0xa
 5217 0cac 2810     		.2byte	0x1028
 5218 0cae 1C       		.byte	0x1c
 5219 0caf 94       		.byte	0x94
 5220 0cb0 01       		.byte	0x1
 5221 0cb1 08       		.byte	0x8
 5222 0cb2 FF       		.byte	0xff
 5223 0cb3 1A       		.byte	0x1a
 5224 0cb4 38       		.byte	0x38
 5225 0cb5 24       		.byte	0x24
 5226 0cb6 91       		.byte	0x91
 5227 0cb7 00       		.sleb128 0
 5228 0cb8 7A       		.byte	0x7a
 5229 0cb9 00       		.sleb128 0
 5230 0cba 22       		.byte	0x22
 5231 0cbb 0A       		.byte	0xa
 5232 0cbc 2710     		.2byte	0x1027
 5233 0cbe 1C       		.byte	0x1c
 5234 0cbf 94       		.byte	0x94
 5235 0cc0 01       		.byte	0x1
 5236 0cc1 08       		.byte	0x8
 5237 0cc2 FF       		.byte	0xff
 5238 0cc3 1A       		.byte	0x1a
 5239 0cc4 21       		.byte	0x21
 5240 0cc5 3C       		.byte	0x3c
 5241 0cc6 25       		.byte	0x25
 5242 0cc7 9F       		.byte	0x9f
 5243 0cc8 6E0D0000 		.4byte	.LVL138
 5244 0ccc 720D0000 		.4byte	.LVL140
 5245 0cd0 0100     		.2byte	0x1
 5246 0cd2 52       		.byte	0x52
 5247 0cd3 720D0000 		.4byte	.LVL140
 5248 0cd7 7C0D0000 		.4byte	.LVL141
 5249 0cdb 2200     		.2byte	0x22
 5250 0cdd 91       		.byte	0x91
 5251 0cde 00       		.sleb128 0
 5252 0cdf 7A       		.byte	0x7a
 5253 0ce0 00       		.sleb128 0
 5254 0ce1 22       		.byte	0x22
 5255 0ce2 0A       		.byte	0xa
 5256 0ce3 2810     		.2byte	0x1028
 5257 0ce5 1C       		.byte	0x1c
 5258 0ce6 94       		.byte	0x94
 5259 0ce7 01       		.byte	0x1
 5260 0ce8 08       		.byte	0x8
 5261 0ce9 FF       		.byte	0xff
 5262 0cea 1A       		.byte	0x1a
 5263 0ceb 38       		.byte	0x38
 5264 0cec 24       		.byte	0x24
 5265 0ced 91       		.byte	0x91
 5266 0cee 00       		.sleb128 0
 5267 0cef 7A       		.byte	0x7a
 5268 0cf0 00       		.sleb128 0
 5269 0cf1 22       		.byte	0x22
ARM GAS  C:\Users\info\AppData\Local\Temp\ccKQ3Zl2.s 			page 104


 5270 0cf2 0A       		.byte	0xa
 5271 0cf3 2710     		.2byte	0x1027
 5272 0cf5 1C       		.byte	0x1c
 5273 0cf6 94       		.byte	0x94
 5274 0cf7 01       		.byte	0x1
 5275 0cf8 08       		.byte	0x8
 5276 0cf9 FF       		.byte	0xff
 5277 0cfa 1A       		.byte	0x1a
 5278 0cfb 21       		.byte	0x21
 5279 0cfc 3C       		.byte	0x3c
 5280 0cfd 25       		.byte	0x25
 5281 0cfe 9F       		.byte	0x9f
 5282 0cff 7C0D0000 		.4byte	.LVL141
 5283 0d03 8A0D0000 		.4byte	.LVL145
 5284 0d07 0100     		.2byte	0x1
 5285 0d09 52       		.byte	0x52
 5286 0d0a 8A0D0000 		.4byte	.LVL145
 5287 0d0e 8C0D0000 		.4byte	.LVL146
 5288 0d12 2200     		.2byte	0x22
 5289 0d14 91       		.byte	0x91
 5290 0d15 00       		.sleb128 0
 5291 0d16 7A       		.byte	0x7a
 5292 0d17 00       		.sleb128 0
 5293 0d18 22       		.byte	0x22
 5294 0d19 0A       		.byte	0xa
 5295 0d1a 2810     		.2byte	0x1028
 5296 0d1c 1C       		.byte	0x1c
 5297 0d1d 94       		.byte	0x94
 5298 0d1e 01       		.byte	0x1
 5299 0d1f 08       		.byte	0x8
 5300 0d20 FF       		.byte	0xff
 5301 0d21 1A       		.byte	0x1a
 5302 0d22 38       		.byte	0x38
 5303 0d23 24       		.byte	0x24
 5304 0d24 91       		.byte	0x91
 5305 0d25 00       		.sleb128 0
 5306 0d26 7A       		.byte	0x7a
 5307 0d27 00       		.sleb128 0
 5308 0d28 22       		.byte	0x22
 5309 0d29 0A       		.byte	0xa
 5310 0d2a 2710     		.2byte	0x1027
 5311 0d2c 1C       		.byte	0x1c
 5312 0d2d 94       		.byte	0x94
 5313 0d2e 01       		.byte	0x1
 5314 0d2f 08       		.byte	0x8
 5315 0d30 FF       		.byte	0xff
 5316 0d31 1A       		.byte	0x1a
 5317 0d32 21       		.byte	0x21
 5318 0d33 3C       		.byte	0x3c
 5319 0d34 25       		.byte	0x25
 5320 0d35 9F       		.byte	0x9f
 5321 0d36 8C0D0000 		.4byte	.LVL146
 5322 0d3a 9E0D0000 		.4byte	.LVL150
 5323 0d3e 0100     		.2byte	0x1
 5324 0d40 52       		.byte	0x52
 5325 0d41 9E0D0000 		.4byte	.LVL150
 5326 0d45 A00D0000 		.4byte	.LVL151
ARM GAS  C:\Users\info\AppData\Local\Temp\ccKQ3Zl2.s 			page 105


 5327 0d49 2200     		.2byte	0x22
 5328 0d4b 91       		.byte	0x91
 5329 0d4c 00       		.sleb128 0
 5330 0d4d 7A       		.byte	0x7a
 5331 0d4e 00       		.sleb128 0
 5332 0d4f 22       		.byte	0x22
 5333 0d50 0A       		.byte	0xa
 5334 0d51 2810     		.2byte	0x1028
 5335 0d53 1C       		.byte	0x1c
 5336 0d54 94       		.byte	0x94
 5337 0d55 01       		.byte	0x1
 5338 0d56 08       		.byte	0x8
 5339 0d57 FF       		.byte	0xff
 5340 0d58 1A       		.byte	0x1a
 5341 0d59 38       		.byte	0x38
 5342 0d5a 24       		.byte	0x24
 5343 0d5b 91       		.byte	0x91
 5344 0d5c 00       		.sleb128 0
 5345 0d5d 7A       		.byte	0x7a
 5346 0d5e 00       		.sleb128 0
 5347 0d5f 22       		.byte	0x22
 5348 0d60 0A       		.byte	0xa
 5349 0d61 2710     		.2byte	0x1027
 5350 0d63 1C       		.byte	0x1c
 5351 0d64 94       		.byte	0x94
 5352 0d65 01       		.byte	0x1
 5353 0d66 08       		.byte	0x8
 5354 0d67 FF       		.byte	0xff
 5355 0d68 1A       		.byte	0x1a
 5356 0d69 21       		.byte	0x21
 5357 0d6a 3C       		.byte	0x3c
 5358 0d6b 25       		.byte	0x25
 5359 0d6c 9F       		.byte	0x9f
 5360 0d6d A00D0000 		.4byte	.LVL151
 5361 0d71 A80D0000 		.4byte	.LVL154
 5362 0d75 0100     		.2byte	0x1
 5363 0d77 52       		.byte	0x52
 5364 0d78 A80D0000 		.4byte	.LVL154
 5365 0d7c B40D0000 		.4byte	.LVL155
 5366 0d80 1C00     		.2byte	0x1c
 5367 0d82 70       		.byte	0x70
 5368 0d83 00       		.sleb128 0
 5369 0d84 7A       		.byte	0x7a
 5370 0d85 00       		.sleb128 0
 5371 0d86 22       		.byte	0x22
 5372 0d87 94       		.byte	0x94
 5373 0d88 01       		.byte	0x1
 5374 0d89 08       		.byte	0x8
 5375 0d8a FF       		.byte	0xff
 5376 0d8b 1A       		.byte	0x1a
 5377 0d8c 38       		.byte	0x38
 5378 0d8d 24       		.byte	0x24
 5379 0d8e 70       		.byte	0x70
 5380 0d8f 00       		.sleb128 0
 5381 0d90 7A       		.byte	0x7a
 5382 0d91 00       		.sleb128 0
 5383 0d92 22       		.byte	0x22
ARM GAS  C:\Users\info\AppData\Local\Temp\ccKQ3Zl2.s 			page 106


 5384 0d93 23       		.byte	0x23
 5385 0d94 01       		.uleb128 0x1
 5386 0d95 94       		.byte	0x94
 5387 0d96 01       		.byte	0x1
 5388 0d97 08       		.byte	0x8
 5389 0d98 FF       		.byte	0xff
 5390 0d99 1A       		.byte	0x1a
 5391 0d9a 21       		.byte	0x21
 5392 0d9b 3C       		.byte	0x3c
 5393 0d9c 25       		.byte	0x25
 5394 0d9d 9F       		.byte	0x9f
 5395 0d9e F60D0000 		.4byte	.LVL162
 5396 0da2 F80D0000 		.4byte	.LVL163
 5397 0da6 0100     		.2byte	0x1
 5398 0da8 52       		.byte	0x52
 5399 0da9 020E0000 		.4byte	.LVL165
 5400 0dad 080E0000 		.4byte	.LVL166
 5401 0db1 2200     		.2byte	0x22
 5402 0db3 91       		.byte	0x91
 5403 0db4 00       		.sleb128 0
 5404 0db5 7A       		.byte	0x7a
 5405 0db6 00       		.sleb128 0
 5406 0db7 22       		.byte	0x22
 5407 0db8 0A       		.byte	0xa
 5408 0db9 2810     		.2byte	0x1028
 5409 0dbb 1C       		.byte	0x1c
 5410 0dbc 94       		.byte	0x94
 5411 0dbd 01       		.byte	0x1
 5412 0dbe 08       		.byte	0x8
 5413 0dbf FF       		.byte	0xff
 5414 0dc0 1A       		.byte	0x1a
 5415 0dc1 38       		.byte	0x38
 5416 0dc2 24       		.byte	0x24
 5417 0dc3 91       		.byte	0x91
 5418 0dc4 00       		.sleb128 0
 5419 0dc5 7A       		.byte	0x7a
 5420 0dc6 00       		.sleb128 0
 5421 0dc7 22       		.byte	0x22
 5422 0dc8 0A       		.byte	0xa
 5423 0dc9 2710     		.2byte	0x1027
 5424 0dcb 1C       		.byte	0x1c
 5425 0dcc 94       		.byte	0x94
 5426 0dcd 01       		.byte	0x1
 5427 0dce 08       		.byte	0x8
 5428 0dcf FF       		.byte	0xff
 5429 0dd0 1A       		.byte	0x1a
 5430 0dd1 21       		.byte	0x21
 5431 0dd2 3C       		.byte	0x3c
 5432 0dd3 25       		.byte	0x25
 5433 0dd4 9F       		.byte	0x9f
 5434 0dd5 080E0000 		.4byte	.LVL166
 5435 0dd9 0C0E0000 		.4byte	.LVL167
 5436 0ddd 1C00     		.2byte	0x1c
 5437 0ddf 72       		.byte	0x72
 5438 0de0 00       		.sleb128 0
 5439 0de1 7A       		.byte	0x7a
 5440 0de2 00       		.sleb128 0
ARM GAS  C:\Users\info\AppData\Local\Temp\ccKQ3Zl2.s 			page 107


 5441 0de3 22       		.byte	0x22
 5442 0de4 94       		.byte	0x94
 5443 0de5 01       		.byte	0x1
 5444 0de6 08       		.byte	0x8
 5445 0de7 FF       		.byte	0xff
 5446 0de8 1A       		.byte	0x1a
 5447 0de9 38       		.byte	0x38
 5448 0dea 24       		.byte	0x24
 5449 0deb 72       		.byte	0x72
 5450 0dec 00       		.sleb128 0
 5451 0ded 7A       		.byte	0x7a
 5452 0dee 00       		.sleb128 0
 5453 0def 22       		.byte	0x22
 5454 0df0 23       		.byte	0x23
 5455 0df1 01       		.uleb128 0x1
 5456 0df2 94       		.byte	0x94
 5457 0df3 01       		.byte	0x1
 5458 0df4 08       		.byte	0x8
 5459 0df5 FF       		.byte	0xff
 5460 0df6 1A       		.byte	0x1a
 5461 0df7 21       		.byte	0x21
 5462 0df8 3C       		.byte	0x3c
 5463 0df9 25       		.byte	0x25
 5464 0dfa 9F       		.byte	0x9f
 5465 0dfb 0C0E0000 		.4byte	.LVL167
 5466 0dff 140E0000 		.4byte	.LVL170
 5467 0e03 2200     		.2byte	0x22
 5468 0e05 91       		.byte	0x91
 5469 0e06 00       		.sleb128 0
 5470 0e07 7A       		.byte	0x7a
 5471 0e08 00       		.sleb128 0
 5472 0e09 22       		.byte	0x22
 5473 0e0a 0A       		.byte	0xa
 5474 0e0b 2810     		.2byte	0x1028
 5475 0e0d 1C       		.byte	0x1c
 5476 0e0e 94       		.byte	0x94
 5477 0e0f 01       		.byte	0x1
 5478 0e10 08       		.byte	0x8
 5479 0e11 FF       		.byte	0xff
 5480 0e12 1A       		.byte	0x1a
 5481 0e13 38       		.byte	0x38
 5482 0e14 24       		.byte	0x24
 5483 0e15 91       		.byte	0x91
 5484 0e16 00       		.sleb128 0
 5485 0e17 7A       		.byte	0x7a
 5486 0e18 00       		.sleb128 0
 5487 0e19 22       		.byte	0x22
 5488 0e1a 0A       		.byte	0xa
 5489 0e1b 2710     		.2byte	0x1027
 5490 0e1d 1C       		.byte	0x1c
 5491 0e1e 94       		.byte	0x94
 5492 0e1f 01       		.byte	0x1
 5493 0e20 08       		.byte	0x8
 5494 0e21 FF       		.byte	0xff
 5495 0e22 1A       		.byte	0x1a
 5496 0e23 21       		.byte	0x21
 5497 0e24 3C       		.byte	0x3c
ARM GAS  C:\Users\info\AppData\Local\Temp\ccKQ3Zl2.s 			page 108


 5498 0e25 25       		.byte	0x25
 5499 0e26 9F       		.byte	0x9f
 5500 0e27 140E0000 		.4byte	.LVL170
 5501 0e2b 160E0000 		.4byte	.LVL171
 5502 0e2f 0100     		.2byte	0x1
 5503 0e31 52       		.byte	0x52
 5504 0e32 160E0000 		.4byte	.LVL171
 5505 0e36 200E0000 		.4byte	.LVL173
 5506 0e3a 2200     		.2byte	0x22
 5507 0e3c 91       		.byte	0x91
 5508 0e3d 00       		.sleb128 0
 5509 0e3e 7A       		.byte	0x7a
 5510 0e3f 00       		.sleb128 0
 5511 0e40 22       		.byte	0x22
 5512 0e41 0A       		.byte	0xa
 5513 0e42 2810     		.2byte	0x1028
 5514 0e44 1C       		.byte	0x1c
 5515 0e45 94       		.byte	0x94
 5516 0e46 01       		.byte	0x1
 5517 0e47 08       		.byte	0x8
 5518 0e48 FF       		.byte	0xff
 5519 0e49 1A       		.byte	0x1a
 5520 0e4a 38       		.byte	0x38
 5521 0e4b 24       		.byte	0x24
 5522 0e4c 91       		.byte	0x91
 5523 0e4d 00       		.sleb128 0
 5524 0e4e 7A       		.byte	0x7a
 5525 0e4f 00       		.sleb128 0
 5526 0e50 22       		.byte	0x22
 5527 0e51 0A       		.byte	0xa
 5528 0e52 2710     		.2byte	0x1027
 5529 0e54 1C       		.byte	0x1c
 5530 0e55 94       		.byte	0x94
 5531 0e56 01       		.byte	0x1
 5532 0e57 08       		.byte	0x8
 5533 0e58 FF       		.byte	0xff
 5534 0e59 1A       		.byte	0x1a
 5535 0e5a 21       		.byte	0x21
 5536 0e5b 3C       		.byte	0x3c
 5537 0e5c 25       		.byte	0x25
 5538 0e5d 9F       		.byte	0x9f
 5539 0e5e 200E0000 		.4byte	.LVL173
 5540 0e62 260E0000 		.4byte	.LVL176
 5541 0e66 0100     		.2byte	0x1
 5542 0e68 52       		.byte	0x52
 5543 0e69 280E0000 		.4byte	.LVL177
 5544 0e6d 2C0E0000 		.4byte	.LVL179
 5545 0e71 0100     		.2byte	0x1
 5546 0e73 52       		.byte	0x52
 5547 0e74 2C0E0000 		.4byte	.LVL179
 5548 0e78 2E0E0000 		.4byte	.LVL180
 5549 0e7c 2200     		.2byte	0x22
 5550 0e7e 91       		.byte	0x91
 5551 0e7f 00       		.sleb128 0
 5552 0e80 7A       		.byte	0x7a
 5553 0e81 00       		.sleb128 0
 5554 0e82 22       		.byte	0x22
ARM GAS  C:\Users\info\AppData\Local\Temp\ccKQ3Zl2.s 			page 109


 5555 0e83 0A       		.byte	0xa
 5556 0e84 2810     		.2byte	0x1028
 5557 0e86 1C       		.byte	0x1c
 5558 0e87 94       		.byte	0x94
 5559 0e88 01       		.byte	0x1
 5560 0e89 08       		.byte	0x8
 5561 0e8a FF       		.byte	0xff
 5562 0e8b 1A       		.byte	0x1a
 5563 0e8c 38       		.byte	0x38
 5564 0e8d 24       		.byte	0x24
 5565 0e8e 91       		.byte	0x91
 5566 0e8f 00       		.sleb128 0
 5567 0e90 7A       		.byte	0x7a
 5568 0e91 00       		.sleb128 0
 5569 0e92 22       		.byte	0x22
 5570 0e93 0A       		.byte	0xa
 5571 0e94 2710     		.2byte	0x1027
 5572 0e96 1C       		.byte	0x1c
 5573 0e97 94       		.byte	0x94
 5574 0e98 01       		.byte	0x1
 5575 0e99 08       		.byte	0x8
 5576 0e9a FF       		.byte	0xff
 5577 0e9b 1A       		.byte	0x1a
 5578 0e9c 21       		.byte	0x21
 5579 0e9d 3C       		.byte	0x3c
 5580 0e9e 25       		.byte	0x25
 5581 0e9f 9F       		.byte	0x9f
 5582 0ea0 2E0E0000 		.4byte	.LVL180
 5583 0ea4 320E0000 		.4byte	.LVL182
 5584 0ea8 0100     		.2byte	0x1
 5585 0eaa 52       		.byte	0x52
 5586 0eab 320E0000 		.4byte	.LVL182
 5587 0eaf 360E0000 		.4byte	.LVL184
 5588 0eb3 2200     		.2byte	0x22
 5589 0eb5 91       		.byte	0x91
 5590 0eb6 00       		.sleb128 0
 5591 0eb7 7A       		.byte	0x7a
 5592 0eb8 00       		.sleb128 0
 5593 0eb9 22       		.byte	0x22
 5594 0eba 0A       		.byte	0xa
 5595 0ebb 2810     		.2byte	0x1028
 5596 0ebd 1C       		.byte	0x1c
 5597 0ebe 94       		.byte	0x94
 5598 0ebf 01       		.byte	0x1
 5599 0ec0 08       		.byte	0x8
 5600 0ec1 FF       		.byte	0xff
 5601 0ec2 1A       		.byte	0x1a
 5602 0ec3 38       		.byte	0x38
 5603 0ec4 24       		.byte	0x24
 5604 0ec5 91       		.byte	0x91
 5605 0ec6 00       		.sleb128 0
 5606 0ec7 7A       		.byte	0x7a
 5607 0ec8 00       		.sleb128 0
 5608 0ec9 22       		.byte	0x22
 5609 0eca 0A       		.byte	0xa
 5610 0ecb 2710     		.2byte	0x1027
 5611 0ecd 1C       		.byte	0x1c
ARM GAS  C:\Users\info\AppData\Local\Temp\ccKQ3Zl2.s 			page 110


 5612 0ece 94       		.byte	0x94
 5613 0ecf 01       		.byte	0x1
 5614 0ed0 08       		.byte	0x8
 5615 0ed1 FF       		.byte	0xff
 5616 0ed2 1A       		.byte	0x1a
 5617 0ed3 21       		.byte	0x21
 5618 0ed4 3C       		.byte	0x3c
 5619 0ed5 25       		.byte	0x25
 5620 0ed6 9F       		.byte	0x9f
 5621 0ed7 3C0E0000 		.4byte	.LVL187
 5622 0edb 400E0000 		.4byte	.LVL188
 5623 0edf 0100     		.2byte	0x1
 5624 0ee1 52       		.byte	0x52
 5625 0ee2 400E0000 		.4byte	.LVL188
 5626 0ee6 420E0000 		.4byte	.LVL189
 5627 0eea 2200     		.2byte	0x22
 5628 0eec 91       		.byte	0x91
 5629 0eed 00       		.sleb128 0
 5630 0eee 7A       		.byte	0x7a
 5631 0eef 00       		.sleb128 0
 5632 0ef0 22       		.byte	0x22
 5633 0ef1 0A       		.byte	0xa
 5634 0ef2 2810     		.2byte	0x1028
 5635 0ef4 1C       		.byte	0x1c
 5636 0ef5 94       		.byte	0x94
 5637 0ef6 01       		.byte	0x1
 5638 0ef7 08       		.byte	0x8
 5639 0ef8 FF       		.byte	0xff
 5640 0ef9 1A       		.byte	0x1a
 5641 0efa 38       		.byte	0x38
 5642 0efb 24       		.byte	0x24
 5643 0efc 91       		.byte	0x91
 5644 0efd 00       		.sleb128 0
 5645 0efe 7A       		.byte	0x7a
 5646 0eff 00       		.sleb128 0
 5647 0f00 22       		.byte	0x22
 5648 0f01 0A       		.byte	0xa
 5649 0f02 2710     		.2byte	0x1027
 5650 0f04 1C       		.byte	0x1c
 5651 0f05 94       		.byte	0x94
 5652 0f06 01       		.byte	0x1
 5653 0f07 08       		.byte	0x8
 5654 0f08 FF       		.byte	0xff
 5655 0f09 1A       		.byte	0x1a
 5656 0f0a 21       		.byte	0x21
 5657 0f0b 3C       		.byte	0x3c
 5658 0f0c 25       		.byte	0x25
 5659 0f0d 9F       		.byte	0x9f
 5660 0f0e 420E0000 		.4byte	.LVL189
 5661 0f12 460E0000 		.4byte	.LVL190
 5662 0f16 0100     		.2byte	0x1
 5663 0f18 52       		.byte	0x52
 5664 0f19 460E0000 		.4byte	.LVL190
 5665 0f1d 480E0000 		.4byte	.LVL191
 5666 0f21 2200     		.2byte	0x22
 5667 0f23 91       		.byte	0x91
 5668 0f24 00       		.sleb128 0
ARM GAS  C:\Users\info\AppData\Local\Temp\ccKQ3Zl2.s 			page 111


 5669 0f25 7A       		.byte	0x7a
 5670 0f26 00       		.sleb128 0
 5671 0f27 22       		.byte	0x22
 5672 0f28 0A       		.byte	0xa
 5673 0f29 2810     		.2byte	0x1028
 5674 0f2b 1C       		.byte	0x1c
 5675 0f2c 94       		.byte	0x94
 5676 0f2d 01       		.byte	0x1
 5677 0f2e 08       		.byte	0x8
 5678 0f2f FF       		.byte	0xff
 5679 0f30 1A       		.byte	0x1a
 5680 0f31 38       		.byte	0x38
 5681 0f32 24       		.byte	0x24
 5682 0f33 91       		.byte	0x91
 5683 0f34 00       		.sleb128 0
 5684 0f35 7A       		.byte	0x7a
 5685 0f36 00       		.sleb128 0
 5686 0f37 22       		.byte	0x22
 5687 0f38 0A       		.byte	0xa
 5688 0f39 2710     		.2byte	0x1027
 5689 0f3b 1C       		.byte	0x1c
 5690 0f3c 94       		.byte	0x94
 5691 0f3d 01       		.byte	0x1
 5692 0f3e 08       		.byte	0x8
 5693 0f3f FF       		.byte	0xff
 5694 0f40 1A       		.byte	0x1a
 5695 0f41 21       		.byte	0x21
 5696 0f42 3C       		.byte	0x3c
 5697 0f43 25       		.byte	0x25
 5698 0f44 9F       		.byte	0x9f
 5699 0f45 480E0000 		.4byte	.LVL191
 5700 0f49 4C0E0000 		.4byte	.LVL193
 5701 0f4d 0100     		.2byte	0x1
 5702 0f4f 52       		.byte	0x52
 5703 0f50 4C0E0000 		.4byte	.LVL193
 5704 0f54 540E0000 		.4byte	.LVL194
 5705 0f58 2200     		.2byte	0x22
 5706 0f5a 91       		.byte	0x91
 5707 0f5b 00       		.sleb128 0
 5708 0f5c 7A       		.byte	0x7a
 5709 0f5d 00       		.sleb128 0
 5710 0f5e 22       		.byte	0x22
 5711 0f5f 0A       		.byte	0xa
 5712 0f60 2810     		.2byte	0x1028
 5713 0f62 1C       		.byte	0x1c
 5714 0f63 94       		.byte	0x94
 5715 0f64 01       		.byte	0x1
 5716 0f65 08       		.byte	0x8
 5717 0f66 FF       		.byte	0xff
 5718 0f67 1A       		.byte	0x1a
 5719 0f68 38       		.byte	0x38
 5720 0f69 24       		.byte	0x24
 5721 0f6a 91       		.byte	0x91
 5722 0f6b 00       		.sleb128 0
 5723 0f6c 7A       		.byte	0x7a
 5724 0f6d 00       		.sleb128 0
 5725 0f6e 22       		.byte	0x22
ARM GAS  C:\Users\info\AppData\Local\Temp\ccKQ3Zl2.s 			page 112


 5726 0f6f 0A       		.byte	0xa
 5727 0f70 2710     		.2byte	0x1027
 5728 0f72 1C       		.byte	0x1c
 5729 0f73 94       		.byte	0x94
 5730 0f74 01       		.byte	0x1
 5731 0f75 08       		.byte	0x8
 5732 0f76 FF       		.byte	0xff
 5733 0f77 1A       		.byte	0x1a
 5734 0f78 21       		.byte	0x21
 5735 0f79 3C       		.byte	0x3c
 5736 0f7a 25       		.byte	0x25
 5737 0f7b 9F       		.byte	0x9f
 5738 0f7c 540E0000 		.4byte	.LVL194
 5739 0f80 580E0000 		.4byte	.LVL196
 5740 0f84 0100     		.2byte	0x1
 5741 0f86 52       		.byte	0x52
 5742 0f87 580E0000 		.4byte	.LVL196
 5743 0f8b 600E0000 		.4byte	.LVL197
 5744 0f8f 2200     		.2byte	0x22
 5745 0f91 91       		.byte	0x91
 5746 0f92 00       		.sleb128 0
 5747 0f93 7A       		.byte	0x7a
 5748 0f94 00       		.sleb128 0
 5749 0f95 22       		.byte	0x22
 5750 0f96 0A       		.byte	0xa
 5751 0f97 2810     		.2byte	0x1028
 5752 0f99 1C       		.byte	0x1c
 5753 0f9a 94       		.byte	0x94
 5754 0f9b 01       		.byte	0x1
 5755 0f9c 08       		.byte	0x8
 5756 0f9d FF       		.byte	0xff
 5757 0f9e 1A       		.byte	0x1a
 5758 0f9f 38       		.byte	0x38
 5759 0fa0 24       		.byte	0x24
 5760 0fa1 91       		.byte	0x91
 5761 0fa2 00       		.sleb128 0
 5762 0fa3 7A       		.byte	0x7a
 5763 0fa4 00       		.sleb128 0
 5764 0fa5 22       		.byte	0x22
 5765 0fa6 0A       		.byte	0xa
 5766 0fa7 2710     		.2byte	0x1027
 5767 0fa9 1C       		.byte	0x1c
 5768 0faa 94       		.byte	0x94
 5769 0fab 01       		.byte	0x1
 5770 0fac 08       		.byte	0x8
 5771 0fad FF       		.byte	0xff
 5772 0fae 1A       		.byte	0x1a
 5773 0faf 21       		.byte	0x21
 5774 0fb0 3C       		.byte	0x3c
 5775 0fb1 25       		.byte	0x25
 5776 0fb2 9F       		.byte	0x9f
 5777 0fb3 600E0000 		.4byte	.LVL197
 5778 0fb7 640E0000 		.4byte	.LVL198
 5779 0fbb 0100     		.2byte	0x1
 5780 0fbd 52       		.byte	0x52
 5781 0fbe 640E0000 		.4byte	.LVL198
 5782 0fc2 660E0000 		.4byte	.LVL199
ARM GAS  C:\Users\info\AppData\Local\Temp\ccKQ3Zl2.s 			page 113


 5783 0fc6 2200     		.2byte	0x22
 5784 0fc8 91       		.byte	0x91
 5785 0fc9 00       		.sleb128 0
 5786 0fca 7A       		.byte	0x7a
 5787 0fcb 00       		.sleb128 0
 5788 0fcc 22       		.byte	0x22
 5789 0fcd 0A       		.byte	0xa
 5790 0fce 2810     		.2byte	0x1028
 5791 0fd0 1C       		.byte	0x1c
 5792 0fd1 94       		.byte	0x94
 5793 0fd2 01       		.byte	0x1
 5794 0fd3 08       		.byte	0x8
 5795 0fd4 FF       		.byte	0xff
 5796 0fd5 1A       		.byte	0x1a
 5797 0fd6 38       		.byte	0x38
 5798 0fd7 24       		.byte	0x24
 5799 0fd8 91       		.byte	0x91
 5800 0fd9 00       		.sleb128 0
 5801 0fda 7A       		.byte	0x7a
 5802 0fdb 00       		.sleb128 0
 5803 0fdc 22       		.byte	0x22
 5804 0fdd 0A       		.byte	0xa
 5805 0fde 2710     		.2byte	0x1027
 5806 0fe0 1C       		.byte	0x1c
 5807 0fe1 94       		.byte	0x94
 5808 0fe2 01       		.byte	0x1
 5809 0fe3 08       		.byte	0x8
 5810 0fe4 FF       		.byte	0xff
 5811 0fe5 1A       		.byte	0x1a
 5812 0fe6 21       		.byte	0x21
 5813 0fe7 3C       		.byte	0x3c
 5814 0fe8 25       		.byte	0x25
 5815 0fe9 9F       		.byte	0x9f
 5816 0fea 660E0000 		.4byte	.LVL199
 5817 0fee 6A0E0000 		.4byte	.LVL201
 5818 0ff2 0100     		.2byte	0x1
 5819 0ff4 52       		.byte	0x52
 5820 0ff5 6A0E0000 		.4byte	.LVL201
 5821 0ff9 780E0000 		.4byte	.LVL202
 5822 0ffd 2200     		.2byte	0x22
 5823 0fff 91       		.byte	0x91
 5824 1000 00       		.sleb128 0
 5825 1001 7A       		.byte	0x7a
 5826 1002 00       		.sleb128 0
 5827 1003 22       		.byte	0x22
 5828 1004 0A       		.byte	0xa
 5829 1005 2810     		.2byte	0x1028
 5830 1007 1C       		.byte	0x1c
 5831 1008 94       		.byte	0x94
 5832 1009 01       		.byte	0x1
 5833 100a 08       		.byte	0x8
 5834 100b FF       		.byte	0xff
 5835 100c 1A       		.byte	0x1a
 5836 100d 38       		.byte	0x38
 5837 100e 24       		.byte	0x24
 5838 100f 91       		.byte	0x91
 5839 1010 00       		.sleb128 0
ARM GAS  C:\Users\info\AppData\Local\Temp\ccKQ3Zl2.s 			page 114


 5840 1011 7A       		.byte	0x7a
 5841 1012 00       		.sleb128 0
 5842 1013 22       		.byte	0x22
 5843 1014 0A       		.byte	0xa
 5844 1015 2710     		.2byte	0x1027
 5845 1017 1C       		.byte	0x1c
 5846 1018 94       		.byte	0x94
 5847 1019 01       		.byte	0x1
 5848 101a 08       		.byte	0x8
 5849 101b FF       		.byte	0xff
 5850 101c 1A       		.byte	0x1a
 5851 101d 21       		.byte	0x21
 5852 101e 3C       		.byte	0x3c
 5853 101f 25       		.byte	0x25
 5854 1020 9F       		.byte	0x9f
 5855 1021 780E0000 		.4byte	.LVL202
 5856 1025 7C0E0000 		.4byte	.LVL204
 5857 1029 0100     		.2byte	0x1
 5858 102b 52       		.byte	0x52
 5859 102c 00000000 		.4byte	0
 5860 1030 00000000 		.4byte	0
 5861              	.LLST6:
 5862 1034 82090000 		.4byte	.LVL15
 5863 1038 B20B0000 		.4byte	.LVL103
 5864 103c 0100     		.2byte	0x1
 5865 103e 54       		.byte	0x54
 5866 103f B20B0000 		.4byte	.LVL103
 5867 1043 880C0000 		.4byte	.LVL114
 5868 1047 0300     		.2byte	0x3
 5869 1049 91       		.byte	0x91
 5870 104a A45F     		.sleb128 -4188
 5871 104c 880C0000 		.4byte	.LVL114
 5872 1050 9A0C0000 		.4byte	.LVL119
 5873 1054 0100     		.2byte	0x1
 5874 1056 54       		.byte	0x54
 5875 1057 9A0C0000 		.4byte	.LVL119
 5876 105b BC0C0000 		.4byte	.LVL120
 5877 105f 0300     		.2byte	0x3
 5878 1061 91       		.byte	0x91
 5879 1062 A45F     		.sleb128 -4188
 5880 1064 BC0C0000 		.4byte	.LVL120
 5881 1068 BC0D0000 		.4byte	.LVL157
 5882 106c 0100     		.2byte	0x1
 5883 106e 54       		.byte	0x54
 5884 106f E40D0000 		.4byte	.LVL159
 5885 1073 7C0E0000 		.4byte	.LVL204
 5886 1077 0100     		.2byte	0x1
 5887 1079 54       		.byte	0x54
 5888 107a 00000000 		.4byte	0
 5889 107e 00000000 		.4byte	0
 5890              	.LLST7:
 5891 1082 84090000 		.4byte	.LVL16
 5892 1086 B00A0000 		.4byte	.LVL70
 5893 108a 0100     		.2byte	0x1
 5894 108c 56       		.byte	0x56
 5895 108d B00A0000 		.4byte	.LVL70
 5896 1091 B80A0000 		.4byte	.LVL71
ARM GAS  C:\Users\info\AppData\Local\Temp\ccKQ3Zl2.s 			page 115


 5897 1095 2000     		.2byte	0x20
 5898 1097 91       		.byte	0x91
 5899 1098 00       		.sleb128 0
 5900 1099 7A       		.byte	0x7a
 5901 109a 00       		.sleb128 0
 5902 109b 22       		.byte	0x22
 5903 109c 0A       		.byte	0xa
 5904 109d 2810     		.2byte	0x1028
 5905 109f 1C       		.byte	0x1c
 5906 10a0 94       		.byte	0x94
 5907 10a1 01       		.byte	0x1
 5908 10a2 08       		.byte	0x8
 5909 10a3 FF       		.byte	0xff
 5910 10a4 1A       		.byte	0x1a
 5911 10a5 38       		.byte	0x38
 5912 10a6 24       		.byte	0x24
 5913 10a7 91       		.byte	0x91
 5914 10a8 00       		.sleb128 0
 5915 10a9 7A       		.byte	0x7a
 5916 10aa 00       		.sleb128 0
 5917 10ab 22       		.byte	0x22
 5918 10ac 0A       		.byte	0xa
 5919 10ad 2710     		.2byte	0x1027
 5920 10af 1C       		.byte	0x1c
 5921 10b0 94       		.byte	0x94
 5922 10b1 01       		.byte	0x1
 5923 10b2 08       		.byte	0x8
 5924 10b3 FF       		.byte	0xff
 5925 10b4 1A       		.byte	0x1a
 5926 10b5 21       		.byte	0x21
 5927 10b6 9F       		.byte	0x9f
 5928 10b7 B80A0000 		.4byte	.LVL71
 5929 10bb B20B0000 		.4byte	.LVL103
 5930 10bf 0100     		.2byte	0x1
 5931 10c1 56       		.byte	0x56
 5932 10c2 B20B0000 		.4byte	.LVL103
 5933 10c6 C20B0000 		.4byte	.LVL104
 5934 10ca 2000     		.2byte	0x20
 5935 10cc 91       		.byte	0x91
 5936 10cd 00       		.sleb128 0
 5937 10ce 7A       		.byte	0x7a
 5938 10cf 00       		.sleb128 0
 5939 10d0 22       		.byte	0x22
 5940 10d1 0A       		.byte	0xa
 5941 10d2 2810     		.2byte	0x1028
 5942 10d4 1C       		.byte	0x1c
 5943 10d5 94       		.byte	0x94
 5944 10d6 01       		.byte	0x1
 5945 10d7 08       		.byte	0x8
 5946 10d8 FF       		.byte	0xff
 5947 10d9 1A       		.byte	0x1a
 5948 10da 38       		.byte	0x38
 5949 10db 24       		.byte	0x24
 5950 10dc 91       		.byte	0x91
 5951 10dd 00       		.sleb128 0
 5952 10de 7A       		.byte	0x7a
 5953 10df 00       		.sleb128 0
ARM GAS  C:\Users\info\AppData\Local\Temp\ccKQ3Zl2.s 			page 116


 5954 10e0 22       		.byte	0x22
 5955 10e1 0A       		.byte	0xa
 5956 10e2 2710     		.2byte	0x1027
 5957 10e4 1C       		.byte	0x1c
 5958 10e5 94       		.byte	0x94
 5959 10e6 01       		.byte	0x1
 5960 10e7 08       		.byte	0x8
 5961 10e8 FF       		.byte	0xff
 5962 10e9 1A       		.byte	0x1a
 5963 10ea 21       		.byte	0x21
 5964 10eb 9F       		.byte	0x9f
 5965 10ec C20B0000 		.4byte	.LVL104
 5966 10f0 C40B0000 		.4byte	.LVL105
 5967 10f4 1A00     		.2byte	0x1a
 5968 10f6 72       		.byte	0x72
 5969 10f7 00       		.sleb128 0
 5970 10f8 7A       		.byte	0x7a
 5971 10f9 00       		.sleb128 0
 5972 10fa 22       		.byte	0x22
 5973 10fb 94       		.byte	0x94
 5974 10fc 01       		.byte	0x1
 5975 10fd 08       		.byte	0x8
 5976 10fe FF       		.byte	0xff
 5977 10ff 1A       		.byte	0x1a
 5978 1100 38       		.byte	0x38
 5979 1101 24       		.byte	0x24
 5980 1102 72       		.byte	0x72
 5981 1103 00       		.sleb128 0
 5982 1104 7A       		.byte	0x7a
 5983 1105 00       		.sleb128 0
 5984 1106 22       		.byte	0x22
 5985 1107 23       		.byte	0x23
 5986 1108 01       		.uleb128 0x1
 5987 1109 94       		.byte	0x94
 5988 110a 01       		.byte	0x1
 5989 110b 08       		.byte	0x8
 5990 110c FF       		.byte	0xff
 5991 110d 1A       		.byte	0x1a
 5992 110e 21       		.byte	0x21
 5993 110f 9F       		.byte	0x9f
 5994 1110 C40B0000 		.4byte	.LVL105
 5995 1114 F60B0000 		.4byte	.LVL108
 5996 1118 2000     		.2byte	0x20
 5997 111a 91       		.byte	0x91
 5998 111b 00       		.sleb128 0
 5999 111c 7A       		.byte	0x7a
 6000 111d 00       		.sleb128 0
 6001 111e 22       		.byte	0x22
 6002 111f 0A       		.byte	0xa
 6003 1120 2810     		.2byte	0x1028
 6004 1122 1C       		.byte	0x1c
 6005 1123 94       		.byte	0x94
 6006 1124 01       		.byte	0x1
 6007 1125 08       		.byte	0x8
 6008 1126 FF       		.byte	0xff
 6009 1127 1A       		.byte	0x1a
 6010 1128 38       		.byte	0x38
ARM GAS  C:\Users\info\AppData\Local\Temp\ccKQ3Zl2.s 			page 117


 6011 1129 24       		.byte	0x24
 6012 112a 91       		.byte	0x91
 6013 112b 00       		.sleb128 0
 6014 112c 7A       		.byte	0x7a
 6015 112d 00       		.sleb128 0
 6016 112e 22       		.byte	0x22
 6017 112f 0A       		.byte	0xa
 6018 1130 2710     		.2byte	0x1027
 6019 1132 1C       		.byte	0x1c
 6020 1133 94       		.byte	0x94
 6021 1134 01       		.byte	0x1
 6022 1135 08       		.byte	0x8
 6023 1136 FF       		.byte	0xff
 6024 1137 1A       		.byte	0x1a
 6025 1138 21       		.byte	0x21
 6026 1139 9F       		.byte	0x9f
 6027 113a F60B0000 		.4byte	.LVL108
 6028 113e F80B0000 		.4byte	.LVL109
 6029 1142 1A00     		.2byte	0x1a
 6030 1144 72       		.byte	0x72
 6031 1145 00       		.sleb128 0
 6032 1146 7A       		.byte	0x7a
 6033 1147 00       		.sleb128 0
 6034 1148 22       		.byte	0x22
 6035 1149 94       		.byte	0x94
 6036 114a 01       		.byte	0x1
 6037 114b 08       		.byte	0x8
 6038 114c FF       		.byte	0xff
 6039 114d 1A       		.byte	0x1a
 6040 114e 38       		.byte	0x38
 6041 114f 24       		.byte	0x24
 6042 1150 72       		.byte	0x72
 6043 1151 00       		.sleb128 0
 6044 1152 7A       		.byte	0x7a
 6045 1153 00       		.sleb128 0
 6046 1154 22       		.byte	0x22
 6047 1155 23       		.byte	0x23
 6048 1156 01       		.uleb128 0x1
 6049 1157 94       		.byte	0x94
 6050 1158 01       		.byte	0x1
 6051 1159 08       		.byte	0x8
 6052 115a FF       		.byte	0xff
 6053 115b 1A       		.byte	0x1a
 6054 115c 21       		.byte	0x21
 6055 115d 9F       		.byte	0x9f
 6056 115e F80B0000 		.4byte	.LVL109
 6057 1162 880C0000 		.4byte	.LVL114
 6058 1166 2000     		.2byte	0x20
 6059 1168 91       		.byte	0x91
 6060 1169 00       		.sleb128 0
 6061 116a 7A       		.byte	0x7a
 6062 116b 00       		.sleb128 0
 6063 116c 22       		.byte	0x22
 6064 116d 0A       		.byte	0xa
 6065 116e 2810     		.2byte	0x1028
 6066 1170 1C       		.byte	0x1c
 6067 1171 94       		.byte	0x94
ARM GAS  C:\Users\info\AppData\Local\Temp\ccKQ3Zl2.s 			page 118


 6068 1172 01       		.byte	0x1
 6069 1173 08       		.byte	0x8
 6070 1174 FF       		.byte	0xff
 6071 1175 1A       		.byte	0x1a
 6072 1176 38       		.byte	0x38
 6073 1177 24       		.byte	0x24
 6074 1178 91       		.byte	0x91
 6075 1179 00       		.sleb128 0
 6076 117a 7A       		.byte	0x7a
 6077 117b 00       		.sleb128 0
 6078 117c 22       		.byte	0x22
 6079 117d 0A       		.byte	0xa
 6080 117e 2710     		.2byte	0x1027
 6081 1180 1C       		.byte	0x1c
 6082 1181 94       		.byte	0x94
 6083 1182 01       		.byte	0x1
 6084 1183 08       		.byte	0x8
 6085 1184 FF       		.byte	0xff
 6086 1185 1A       		.byte	0x1a
 6087 1186 21       		.byte	0x21
 6088 1187 9F       		.byte	0x9f
 6089 1188 880C0000 		.4byte	.LVL114
 6090 118c 8A0C0000 		.4byte	.LVL115
 6091 1190 0100     		.2byte	0x1
 6092 1192 56       		.byte	0x56
 6093 1193 8A0C0000 		.4byte	.LVL115
 6094 1197 BC0C0000 		.4byte	.LVL120
 6095 119b 2000     		.2byte	0x20
 6096 119d 91       		.byte	0x91
 6097 119e 00       		.sleb128 0
 6098 119f 7A       		.byte	0x7a
 6099 11a0 00       		.sleb128 0
 6100 11a1 22       		.byte	0x22
 6101 11a2 0A       		.byte	0xa
 6102 11a3 2810     		.2byte	0x1028
 6103 11a5 1C       		.byte	0x1c
 6104 11a6 94       		.byte	0x94
 6105 11a7 01       		.byte	0x1
 6106 11a8 08       		.byte	0x8
 6107 11a9 FF       		.byte	0xff
 6108 11aa 1A       		.byte	0x1a
 6109 11ab 38       		.byte	0x38
 6110 11ac 24       		.byte	0x24
 6111 11ad 91       		.byte	0x91
 6112 11ae 00       		.sleb128 0
 6113 11af 7A       		.byte	0x7a
 6114 11b0 00       		.sleb128 0
 6115 11b1 22       		.byte	0x22
 6116 11b2 0A       		.byte	0xa
 6117 11b3 2710     		.2byte	0x1027
 6118 11b5 1C       		.byte	0x1c
 6119 11b6 94       		.byte	0x94
 6120 11b7 01       		.byte	0x1
 6121 11b8 08       		.byte	0x8
 6122 11b9 FF       		.byte	0xff
 6123 11ba 1A       		.byte	0x1a
 6124 11bb 21       		.byte	0x21
ARM GAS  C:\Users\info\AppData\Local\Temp\ccKQ3Zl2.s 			page 119


 6125 11bc 9F       		.byte	0x9f
 6126 11bd BC0C0000 		.4byte	.LVL120
 6127 11c1 C40D0000 		.4byte	.LVL158
 6128 11c5 0100     		.2byte	0x1
 6129 11c7 56       		.byte	0x56
 6130 11c8 E40D0000 		.4byte	.LVL159
 6131 11cc 7C0E0000 		.4byte	.LVL204
 6132 11d0 0100     		.2byte	0x1
 6133 11d2 56       		.byte	0x56
 6134 11d3 00000000 		.4byte	0
 6135 11d7 00000000 		.4byte	0
 6136              	.LLST8:
 6137 11db 8C090000 		.4byte	.LVL18
 6138 11df BA090000 		.4byte	.LVL20
 6139 11e3 0100     		.2byte	0x1
 6140 11e5 53       		.byte	0x53
 6141 11e6 BA090000 		.4byte	.LVL20
 6142 11ea BE090000 		.4byte	.LVL22
 6143 11ee 2600     		.2byte	0x26
 6144 11f0 91       		.byte	0x91
 6145 11f1 00       		.sleb128 0
 6146 11f2 7A       		.byte	0x7a
 6147 11f3 00       		.sleb128 0
 6148 11f4 22       		.byte	0x22
 6149 11f5 0A       		.byte	0xa
 6150 11f6 2810     		.2byte	0x1028
 6151 11f8 1C       		.byte	0x1c
 6152 11f9 94       		.byte	0x94
 6153 11fa 01       		.byte	0x1
 6154 11fb 08       		.byte	0x8
 6155 11fc FF       		.byte	0xff
 6156 11fd 1A       		.byte	0x1a
 6157 11fe 38       		.byte	0x38
 6158 11ff 24       		.byte	0x24
 6159 1200 91       		.byte	0x91
 6160 1201 00       		.sleb128 0
 6161 1202 7A       		.byte	0x7a
 6162 1203 00       		.sleb128 0
 6163 1204 22       		.byte	0x22
 6164 1205 0A       		.byte	0xa
 6165 1206 2710     		.2byte	0x1027
 6166 1208 1C       		.byte	0x1c
 6167 1209 94       		.byte	0x94
 6168 120a 01       		.byte	0x1
 6169 120b 08       		.byte	0x8
 6170 120c FF       		.byte	0xff
 6171 120d 1A       		.byte	0x1a
 6172 120e 21       		.byte	0x21
 6173 120f 09       		.byte	0x9
 6174 1210 F8       		.byte	0xf8
 6175 1211 24       		.byte	0x24
 6176 1212 09       		.byte	0x9
 6177 1213 F8       		.byte	0xf8
 6178 1214 25       		.byte	0x25
 6179 1215 9F       		.byte	0x9f
 6180 1216 BE090000 		.4byte	.LVL22
 6181 121a CE090000 		.4byte	.LVL23
ARM GAS  C:\Users\info\AppData\Local\Temp\ccKQ3Zl2.s 			page 120


 6182 121e 0100     		.2byte	0x1
 6183 1220 53       		.byte	0x53
 6184 1221 CE090000 		.4byte	.LVL23
 6185 1225 E0090000 		.4byte	.LVL25
 6186 1229 2600     		.2byte	0x26
 6187 122b 91       		.byte	0x91
 6188 122c 00       		.sleb128 0
 6189 122d 7A       		.byte	0x7a
 6190 122e 00       		.sleb128 0
 6191 122f 22       		.byte	0x22
 6192 1230 0A       		.byte	0xa
 6193 1231 2810     		.2byte	0x1028
 6194 1233 1C       		.byte	0x1c
 6195 1234 94       		.byte	0x94
 6196 1235 01       		.byte	0x1
 6197 1236 08       		.byte	0x8
 6198 1237 FF       		.byte	0xff
 6199 1238 1A       		.byte	0x1a
 6200 1239 38       		.byte	0x38
 6201 123a 24       		.byte	0x24
 6202 123b 91       		.byte	0x91
 6203 123c 00       		.sleb128 0
 6204 123d 7A       		.byte	0x7a
 6205 123e 00       		.sleb128 0
 6206 123f 22       		.byte	0x22
 6207 1240 0A       		.byte	0xa
 6208 1241 2710     		.2byte	0x1027
 6209 1243 1C       		.byte	0x1c
 6210 1244 94       		.byte	0x94
 6211 1245 01       		.byte	0x1
 6212 1246 08       		.byte	0x8
 6213 1247 FF       		.byte	0xff
 6214 1248 1A       		.byte	0x1a
 6215 1249 21       		.byte	0x21
 6216 124a 09       		.byte	0x9
 6217 124b F8       		.byte	0xf8
 6218 124c 24       		.byte	0x24
 6219 124d 09       		.byte	0x9
 6220 124e F8       		.byte	0xf8
 6221 124f 25       		.byte	0x25
 6222 1250 9F       		.byte	0x9f
 6223 1251 E0090000 		.4byte	.LVL25
 6224 1255 E2090000 		.4byte	.LVL26
 6225 1259 0100     		.2byte	0x1
 6226 125b 53       		.byte	0x53
 6227 125c E2090000 		.4byte	.LVL26
 6228 1260 EC090000 		.4byte	.LVL28
 6229 1264 2600     		.2byte	0x26
 6230 1266 91       		.byte	0x91
 6231 1267 00       		.sleb128 0
 6232 1268 7A       		.byte	0x7a
 6233 1269 00       		.sleb128 0
 6234 126a 22       		.byte	0x22
 6235 126b 0A       		.byte	0xa
 6236 126c 2810     		.2byte	0x1028
 6237 126e 1C       		.byte	0x1c
 6238 126f 94       		.byte	0x94
ARM GAS  C:\Users\info\AppData\Local\Temp\ccKQ3Zl2.s 			page 121


 6239 1270 01       		.byte	0x1
 6240 1271 08       		.byte	0x8
 6241 1272 FF       		.byte	0xff
 6242 1273 1A       		.byte	0x1a
 6243 1274 38       		.byte	0x38
 6244 1275 24       		.byte	0x24
 6245 1276 91       		.byte	0x91
 6246 1277 00       		.sleb128 0
 6247 1278 7A       		.byte	0x7a
 6248 1279 00       		.sleb128 0
 6249 127a 22       		.byte	0x22
 6250 127b 0A       		.byte	0xa
 6251 127c 2710     		.2byte	0x1027
 6252 127e 1C       		.byte	0x1c
 6253 127f 94       		.byte	0x94
 6254 1280 01       		.byte	0x1
 6255 1281 08       		.byte	0x8
 6256 1282 FF       		.byte	0xff
 6257 1283 1A       		.byte	0x1a
 6258 1284 21       		.byte	0x21
 6259 1285 09       		.byte	0x9
 6260 1286 F8       		.byte	0xf8
 6261 1287 24       		.byte	0x24
 6262 1288 09       		.byte	0x9
 6263 1289 F8       		.byte	0xf8
 6264 128a 25       		.byte	0x25
 6265 128b 9F       		.byte	0x9f
 6266 128c EC090000 		.4byte	.LVL28
 6267 1290 FC090000 		.4byte	.LVL31
 6268 1294 0100     		.2byte	0x1
 6269 1296 53       		.byte	0x53
 6270 1297 FC090000 		.4byte	.LVL31
 6271 129b 000A0000 		.4byte	.LVL32
 6272 129f 2600     		.2byte	0x26
 6273 12a1 91       		.byte	0x91
 6274 12a2 00       		.sleb128 0
 6275 12a3 7A       		.byte	0x7a
 6276 12a4 00       		.sleb128 0
 6277 12a5 22       		.byte	0x22
 6278 12a6 0A       		.byte	0xa
 6279 12a7 2810     		.2byte	0x1028
 6280 12a9 1C       		.byte	0x1c
 6281 12aa 94       		.byte	0x94
 6282 12ab 01       		.byte	0x1
 6283 12ac 08       		.byte	0x8
 6284 12ad FF       		.byte	0xff
 6285 12ae 1A       		.byte	0x1a
 6286 12af 38       		.byte	0x38
 6287 12b0 24       		.byte	0x24
 6288 12b1 91       		.byte	0x91
 6289 12b2 00       		.sleb128 0
 6290 12b3 7A       		.byte	0x7a
 6291 12b4 00       		.sleb128 0
 6292 12b5 22       		.byte	0x22
 6293 12b6 0A       		.byte	0xa
 6294 12b7 2710     		.2byte	0x1027
 6295 12b9 1C       		.byte	0x1c
ARM GAS  C:\Users\info\AppData\Local\Temp\ccKQ3Zl2.s 			page 122


 6296 12ba 94       		.byte	0x94
 6297 12bb 01       		.byte	0x1
 6298 12bc 08       		.byte	0x8
 6299 12bd FF       		.byte	0xff
 6300 12be 1A       		.byte	0x1a
 6301 12bf 21       		.byte	0x21
 6302 12c0 09       		.byte	0x9
 6303 12c1 F8       		.byte	0xf8
 6304 12c2 24       		.byte	0x24
 6305 12c3 09       		.byte	0x9
 6306 12c4 F8       		.byte	0xf8
 6307 12c5 25       		.byte	0x25
 6308 12c6 9F       		.byte	0x9f
 6309 12c7 060A0000 		.4byte	.LVL34
 6310 12cb 0E0A0000 		.4byte	.LVL37
 6311 12cf 0100     		.2byte	0x1
 6312 12d1 53       		.byte	0x53
 6313 12d2 120A0000 		.4byte	.LVL39
 6314 12d6 2C0A0000 		.4byte	.LVL43
 6315 12da 0100     		.2byte	0x1
 6316 12dc 53       		.byte	0x53
 6317 12dd 2C0A0000 		.4byte	.LVL43
 6318 12e1 300A0000 		.4byte	.LVL44
 6319 12e5 0100     		.2byte	0x1
 6320 12e7 5A       		.byte	0x5a
 6321 12e8 300A0000 		.4byte	.LVL44
 6322 12ec 320A0000 		.4byte	.LVL45
 6323 12f0 0100     		.2byte	0x1
 6324 12f2 53       		.byte	0x53
 6325 12f3 320A0000 		.4byte	.LVL45
 6326 12f7 3E0A0000 		.4byte	.LVL46
 6327 12fb 2600     		.2byte	0x26
 6328 12fd 91       		.byte	0x91
 6329 12fe 00       		.sleb128 0
 6330 12ff 7A       		.byte	0x7a
 6331 1300 00       		.sleb128 0
 6332 1301 22       		.byte	0x22
 6333 1302 0A       		.byte	0xa
 6334 1303 2810     		.2byte	0x1028
 6335 1305 1C       		.byte	0x1c
 6336 1306 94       		.byte	0x94
 6337 1307 01       		.byte	0x1
 6338 1308 08       		.byte	0x8
 6339 1309 FF       		.byte	0xff
 6340 130a 1A       		.byte	0x1a
 6341 130b 38       		.byte	0x38
 6342 130c 24       		.byte	0x24
 6343 130d 91       		.byte	0x91
 6344 130e 00       		.sleb128 0
 6345 130f 7A       		.byte	0x7a
 6346 1310 00       		.sleb128 0
 6347 1311 22       		.byte	0x22
 6348 1312 0A       		.byte	0xa
 6349 1313 2710     		.2byte	0x1027
 6350 1315 1C       		.byte	0x1c
 6351 1316 94       		.byte	0x94
 6352 1317 01       		.byte	0x1
ARM GAS  C:\Users\info\AppData\Local\Temp\ccKQ3Zl2.s 			page 123


 6353 1318 08       		.byte	0x8
 6354 1319 FF       		.byte	0xff
 6355 131a 1A       		.byte	0x1a
 6356 131b 21       		.byte	0x21
 6357 131c 09       		.byte	0x9
 6358 131d F8       		.byte	0xf8
 6359 131e 24       		.byte	0x24
 6360 131f 09       		.byte	0x9
 6361 1320 F8       		.byte	0xf8
 6362 1321 25       		.byte	0x25
 6363 1322 9F       		.byte	0x9f
 6364 1323 3E0A0000 		.4byte	.LVL46
 6365 1327 420A0000 		.4byte	.LVL47
 6366 132b 2600     		.2byte	0x26
 6367 132d 91       		.byte	0x91
 6368 132e 00       		.sleb128 0
 6369 132f 7A       		.byte	0x7a
 6370 1330 00       		.sleb128 0
 6371 1331 22       		.byte	0x22
 6372 1332 0A       		.byte	0xa
 6373 1333 2A10     		.2byte	0x102a
 6374 1335 1C       		.byte	0x1c
 6375 1336 94       		.byte	0x94
 6376 1337 01       		.byte	0x1
 6377 1338 08       		.byte	0x8
 6378 1339 FF       		.byte	0xff
 6379 133a 1A       		.byte	0x1a
 6380 133b 38       		.byte	0x38
 6381 133c 24       		.byte	0x24
 6382 133d 91       		.byte	0x91
 6383 133e 00       		.sleb128 0
 6384 133f 7A       		.byte	0x7a
 6385 1340 00       		.sleb128 0
 6386 1341 22       		.byte	0x22
 6387 1342 0A       		.byte	0xa
 6388 1343 2910     		.2byte	0x1029
 6389 1345 1C       		.byte	0x1c
 6390 1346 94       		.byte	0x94
 6391 1347 01       		.byte	0x1
 6392 1348 08       		.byte	0x8
 6393 1349 FF       		.byte	0xff
 6394 134a 1A       		.byte	0x1a
 6395 134b 21       		.byte	0x21
 6396 134c 09       		.byte	0x9
 6397 134d F8       		.byte	0xf8
 6398 134e 24       		.byte	0x24
 6399 134f 09       		.byte	0x9
 6400 1350 F8       		.byte	0xf8
 6401 1351 25       		.byte	0x25
 6402 1352 9F       		.byte	0x9f
 6403 1353 480A0000 		.4byte	.LVL49
 6404 1357 4A0A0000 		.4byte	.LVL50
 6405 135b 0100     		.2byte	0x1
 6406 135d 53       		.byte	0x53
 6407 135e 4A0A0000 		.4byte	.LVL50
 6408 1362 560A0000 		.4byte	.LVL51
 6409 1366 2600     		.2byte	0x26
ARM GAS  C:\Users\info\AppData\Local\Temp\ccKQ3Zl2.s 			page 124


 6410 1368 91       		.byte	0x91
 6411 1369 00       		.sleb128 0
 6412 136a 7A       		.byte	0x7a
 6413 136b 00       		.sleb128 0
 6414 136c 22       		.byte	0x22
 6415 136d 0A       		.byte	0xa
 6416 136e 2810     		.2byte	0x1028
 6417 1370 1C       		.byte	0x1c
 6418 1371 94       		.byte	0x94
 6419 1372 01       		.byte	0x1
 6420 1373 08       		.byte	0x8
 6421 1374 FF       		.byte	0xff
 6422 1375 1A       		.byte	0x1a
 6423 1376 38       		.byte	0x38
 6424 1377 24       		.byte	0x24
 6425 1378 91       		.byte	0x91
 6426 1379 00       		.sleb128 0
 6427 137a 7A       		.byte	0x7a
 6428 137b 00       		.sleb128 0
 6429 137c 22       		.byte	0x22
 6430 137d 0A       		.byte	0xa
 6431 137e 2710     		.2byte	0x1027
 6432 1380 1C       		.byte	0x1c
 6433 1381 94       		.byte	0x94
 6434 1382 01       		.byte	0x1
 6435 1383 08       		.byte	0x8
 6436 1384 FF       		.byte	0xff
 6437 1385 1A       		.byte	0x1a
 6438 1386 21       		.byte	0x21
 6439 1387 09       		.byte	0x9
 6440 1388 F8       		.byte	0xf8
 6441 1389 24       		.byte	0x24
 6442 138a 09       		.byte	0x9
 6443 138b F8       		.byte	0xf8
 6444 138c 25       		.byte	0x25
 6445 138d 9F       		.byte	0x9f
 6446 138e 560A0000 		.4byte	.LVL51
 6447 1392 5A0A0000 		.4byte	.LVL52
 6448 1396 2600     		.2byte	0x26
 6449 1398 91       		.byte	0x91
 6450 1399 00       		.sleb128 0
 6451 139a 7A       		.byte	0x7a
 6452 139b 00       		.sleb128 0
 6453 139c 22       		.byte	0x22
 6454 139d 0A       		.byte	0xa
 6455 139e 2A10     		.2byte	0x102a
 6456 13a0 1C       		.byte	0x1c
 6457 13a1 94       		.byte	0x94
 6458 13a2 01       		.byte	0x1
 6459 13a3 08       		.byte	0x8
 6460 13a4 FF       		.byte	0xff
 6461 13a5 1A       		.byte	0x1a
 6462 13a6 38       		.byte	0x38
 6463 13a7 24       		.byte	0x24
 6464 13a8 91       		.byte	0x91
 6465 13a9 00       		.sleb128 0
 6466 13aa 7A       		.byte	0x7a
ARM GAS  C:\Users\info\AppData\Local\Temp\ccKQ3Zl2.s 			page 125


 6467 13ab 00       		.sleb128 0
 6468 13ac 22       		.byte	0x22
 6469 13ad 0A       		.byte	0xa
 6470 13ae 2910     		.2byte	0x1029
 6471 13b0 1C       		.byte	0x1c
 6472 13b1 94       		.byte	0x94
 6473 13b2 01       		.byte	0x1
 6474 13b3 08       		.byte	0x8
 6475 13b4 FF       		.byte	0xff
 6476 13b5 1A       		.byte	0x1a
 6477 13b6 21       		.byte	0x21
 6478 13b7 09       		.byte	0x9
 6479 13b8 F8       		.byte	0xf8
 6480 13b9 24       		.byte	0x24
 6481 13ba 09       		.byte	0x9
 6482 13bb F8       		.byte	0xf8
 6483 13bc 25       		.byte	0x25
 6484 13bd 9F       		.byte	0x9f
 6485 13be 600A0000 		.4byte	.LVL54
 6486 13c2 680A0000 		.4byte	.LVL55
 6487 13c6 0100     		.2byte	0x1
 6488 13c8 53       		.byte	0x53
 6489 13c9 680A0000 		.4byte	.LVL55
 6490 13cd 760A0000 		.4byte	.LVL57
 6491 13d1 2600     		.2byte	0x26
 6492 13d3 91       		.byte	0x91
 6493 13d4 00       		.sleb128 0
 6494 13d5 7A       		.byte	0x7a
 6495 13d6 00       		.sleb128 0
 6496 13d7 22       		.byte	0x22
 6497 13d8 0A       		.byte	0xa
 6498 13d9 2810     		.2byte	0x1028
 6499 13db 1C       		.byte	0x1c
 6500 13dc 94       		.byte	0x94
 6501 13dd 01       		.byte	0x1
 6502 13de 08       		.byte	0x8
 6503 13df FF       		.byte	0xff
 6504 13e0 1A       		.byte	0x1a
 6505 13e1 38       		.byte	0x38
 6506 13e2 24       		.byte	0x24
 6507 13e3 91       		.byte	0x91
 6508 13e4 00       		.sleb128 0
 6509 13e5 7A       		.byte	0x7a
 6510 13e6 00       		.sleb128 0
 6511 13e7 22       		.byte	0x22
 6512 13e8 0A       		.byte	0xa
 6513 13e9 2710     		.2byte	0x1027
 6514 13eb 1C       		.byte	0x1c
 6515 13ec 94       		.byte	0x94
 6516 13ed 01       		.byte	0x1
 6517 13ee 08       		.byte	0x8
 6518 13ef FF       		.byte	0xff
 6519 13f0 1A       		.byte	0x1a
 6520 13f1 21       		.byte	0x21
 6521 13f2 09       		.byte	0x9
 6522 13f3 F8       		.byte	0xf8
 6523 13f4 24       		.byte	0x24
ARM GAS  C:\Users\info\AppData\Local\Temp\ccKQ3Zl2.s 			page 126


 6524 13f5 09       		.byte	0x9
 6525 13f6 F8       		.byte	0xf8
 6526 13f7 25       		.byte	0x25
 6527 13f8 9F       		.byte	0x9f
 6528 13f9 760A0000 		.4byte	.LVL57
 6529 13fd 7A0A0000 		.4byte	.LVL58
 6530 1401 2600     		.2byte	0x26
 6531 1403 91       		.byte	0x91
 6532 1404 00       		.sleb128 0
 6533 1405 7A       		.byte	0x7a
 6534 1406 00       		.sleb128 0
 6535 1407 22       		.byte	0x22
 6536 1408 0A       		.byte	0xa
 6537 1409 2A10     		.2byte	0x102a
 6538 140b 1C       		.byte	0x1c
 6539 140c 94       		.byte	0x94
 6540 140d 01       		.byte	0x1
 6541 140e 08       		.byte	0x8
 6542 140f FF       		.byte	0xff
 6543 1410 1A       		.byte	0x1a
 6544 1411 38       		.byte	0x38
 6545 1412 24       		.byte	0x24
 6546 1413 91       		.byte	0x91
 6547 1414 00       		.sleb128 0
 6548 1415 7A       		.byte	0x7a
 6549 1416 00       		.sleb128 0
 6550 1417 22       		.byte	0x22
 6551 1418 0A       		.byte	0xa
 6552 1419 2910     		.2byte	0x1029
 6553 141b 1C       		.byte	0x1c
 6554 141c 94       		.byte	0x94
 6555 141d 01       		.byte	0x1
 6556 141e 08       		.byte	0x8
 6557 141f FF       		.byte	0xff
 6558 1420 1A       		.byte	0x1a
 6559 1421 21       		.byte	0x21
 6560 1422 09       		.byte	0x9
 6561 1423 F8       		.byte	0xf8
 6562 1424 24       		.byte	0x24
 6563 1425 09       		.byte	0x9
 6564 1426 F8       		.byte	0xf8
 6565 1427 25       		.byte	0x25
 6566 1428 9F       		.byte	0x9f
 6567 1429 800A0000 		.4byte	.LVL59
 6568 142d 880A0000 		.4byte	.LVL60
 6569 1431 0100     		.2byte	0x1
 6570 1433 53       		.byte	0x53
 6571 1434 880A0000 		.4byte	.LVL60
 6572 1438 960A0000 		.4byte	.LVL62
 6573 143c 2600     		.2byte	0x26
 6574 143e 91       		.byte	0x91
 6575 143f 00       		.sleb128 0
 6576 1440 7A       		.byte	0x7a
 6577 1441 00       		.sleb128 0
 6578 1442 22       		.byte	0x22
 6579 1443 0A       		.byte	0xa
 6580 1444 2810     		.2byte	0x1028
ARM GAS  C:\Users\info\AppData\Local\Temp\ccKQ3Zl2.s 			page 127


 6581 1446 1C       		.byte	0x1c
 6582 1447 94       		.byte	0x94
 6583 1448 01       		.byte	0x1
 6584 1449 08       		.byte	0x8
 6585 144a FF       		.byte	0xff
 6586 144b 1A       		.byte	0x1a
 6587 144c 38       		.byte	0x38
 6588 144d 24       		.byte	0x24
 6589 144e 91       		.byte	0x91
 6590 144f 00       		.sleb128 0
 6591 1450 7A       		.byte	0x7a
 6592 1451 00       		.sleb128 0
 6593 1452 22       		.byte	0x22
 6594 1453 0A       		.byte	0xa
 6595 1454 2710     		.2byte	0x1027
 6596 1456 1C       		.byte	0x1c
 6597 1457 94       		.byte	0x94
 6598 1458 01       		.byte	0x1
 6599 1459 08       		.byte	0x8
 6600 145a FF       		.byte	0xff
 6601 145b 1A       		.byte	0x1a
 6602 145c 21       		.byte	0x21
 6603 145d 09       		.byte	0x9
 6604 145e F8       		.byte	0xf8
 6605 145f 24       		.byte	0x24
 6606 1460 09       		.byte	0x9
 6607 1461 F8       		.byte	0xf8
 6608 1462 25       		.byte	0x25
 6609 1463 9F       		.byte	0x9f
 6610 1464 960A0000 		.4byte	.LVL62
 6611 1468 9A0A0000 		.4byte	.LVL63
 6612 146c 2600     		.2byte	0x26
 6613 146e 91       		.byte	0x91
 6614 146f 00       		.sleb128 0
 6615 1470 7A       		.byte	0x7a
 6616 1471 00       		.sleb128 0
 6617 1472 22       		.byte	0x22
 6618 1473 0A       		.byte	0xa
 6619 1474 2A10     		.2byte	0x102a
 6620 1476 1C       		.byte	0x1c
 6621 1477 94       		.byte	0x94
 6622 1478 01       		.byte	0x1
 6623 1479 08       		.byte	0x8
 6624 147a FF       		.byte	0xff
 6625 147b 1A       		.byte	0x1a
 6626 147c 38       		.byte	0x38
 6627 147d 24       		.byte	0x24
 6628 147e 91       		.byte	0x91
 6629 147f 00       		.sleb128 0
 6630 1480 7A       		.byte	0x7a
 6631 1481 00       		.sleb128 0
 6632 1482 22       		.byte	0x22
 6633 1483 0A       		.byte	0xa
 6634 1484 2910     		.2byte	0x1029
 6635 1486 1C       		.byte	0x1c
 6636 1487 94       		.byte	0x94
 6637 1488 01       		.byte	0x1
ARM GAS  C:\Users\info\AppData\Local\Temp\ccKQ3Zl2.s 			page 128


 6638 1489 08       		.byte	0x8
 6639 148a FF       		.byte	0xff
 6640 148b 1A       		.byte	0x1a
 6641 148c 21       		.byte	0x21
 6642 148d 09       		.byte	0x9
 6643 148e F8       		.byte	0xf8
 6644 148f 24       		.byte	0x24
 6645 1490 09       		.byte	0x9
 6646 1491 F8       		.byte	0xf8
 6647 1492 25       		.byte	0x25
 6648 1493 9F       		.byte	0x9f
 6649 1494 A00A0000 		.4byte	.LVL64
 6650 1498 A20A0000 		.4byte	.LVL65
 6651 149c 0100     		.2byte	0x1
 6652 149e 53       		.byte	0x53
 6653 149f A20A0000 		.4byte	.LVL65
 6654 14a3 AA0A0000 		.4byte	.LVL67
 6655 14a7 2600     		.2byte	0x26
 6656 14a9 91       		.byte	0x91
 6657 14aa 00       		.sleb128 0
 6658 14ab 7A       		.byte	0x7a
 6659 14ac 00       		.sleb128 0
 6660 14ad 22       		.byte	0x22
 6661 14ae 0A       		.byte	0xa
 6662 14af 2810     		.2byte	0x1028
 6663 14b1 1C       		.byte	0x1c
 6664 14b2 94       		.byte	0x94
 6665 14b3 01       		.byte	0x1
 6666 14b4 08       		.byte	0x8
 6667 14b5 FF       		.byte	0xff
 6668 14b6 1A       		.byte	0x1a
 6669 14b7 38       		.byte	0x38
 6670 14b8 24       		.byte	0x24
 6671 14b9 91       		.byte	0x91
 6672 14ba 00       		.sleb128 0
 6673 14bb 7A       		.byte	0x7a
 6674 14bc 00       		.sleb128 0
 6675 14bd 22       		.byte	0x22
 6676 14be 0A       		.byte	0xa
 6677 14bf 2710     		.2byte	0x1027
 6678 14c1 1C       		.byte	0x1c
 6679 14c2 94       		.byte	0x94
 6680 14c3 01       		.byte	0x1
 6681 14c4 08       		.byte	0x8
 6682 14c5 FF       		.byte	0xff
 6683 14c6 1A       		.byte	0x1a
 6684 14c7 21       		.byte	0x21
 6685 14c8 09       		.byte	0x9
 6686 14c9 F8       		.byte	0xf8
 6687 14ca 24       		.byte	0x24
 6688 14cb 09       		.byte	0x9
 6689 14cc F8       		.byte	0xf8
 6690 14cd 25       		.byte	0x25
 6691 14ce 9F       		.byte	0x9f
 6692 14cf AA0A0000 		.4byte	.LVL67
 6693 14d3 AE0A0000 		.4byte	.LVL69
 6694 14d7 0100     		.2byte	0x1
ARM GAS  C:\Users\info\AppData\Local\Temp\ccKQ3Zl2.s 			page 129


 6695 14d9 53       		.byte	0x53
 6696 14da AE0A0000 		.4byte	.LVL69
 6697 14de B80A0000 		.4byte	.LVL71
 6698 14e2 2600     		.2byte	0x26
 6699 14e4 91       		.byte	0x91
 6700 14e5 00       		.sleb128 0
 6701 14e6 7A       		.byte	0x7a
 6702 14e7 00       		.sleb128 0
 6703 14e8 22       		.byte	0x22
 6704 14e9 0A       		.byte	0xa
 6705 14ea 2810     		.2byte	0x1028
 6706 14ec 1C       		.byte	0x1c
 6707 14ed 94       		.byte	0x94
 6708 14ee 01       		.byte	0x1
 6709 14ef 08       		.byte	0x8
 6710 14f0 FF       		.byte	0xff
 6711 14f1 1A       		.byte	0x1a
 6712 14f2 38       		.byte	0x38
 6713 14f3 24       		.byte	0x24
 6714 14f4 91       		.byte	0x91
 6715 14f5 00       		.sleb128 0
 6716 14f6 7A       		.byte	0x7a
 6717 14f7 00       		.sleb128 0
 6718 14f8 22       		.byte	0x22
 6719 14f9 0A       		.byte	0xa
 6720 14fa 2710     		.2byte	0x1027
 6721 14fc 1C       		.byte	0x1c
 6722 14fd 94       		.byte	0x94
 6723 14fe 01       		.byte	0x1
 6724 14ff 08       		.byte	0x8
 6725 1500 FF       		.byte	0xff
 6726 1501 1A       		.byte	0x1a
 6727 1502 21       		.byte	0x21
 6728 1503 09       		.byte	0x9
 6729 1504 F8       		.byte	0xf8
 6730 1505 24       		.byte	0x24
 6731 1506 09       		.byte	0x9
 6732 1507 F8       		.byte	0xf8
 6733 1508 25       		.byte	0x25
 6734 1509 9F       		.byte	0x9f
 6735 150a B80A0000 		.4byte	.LVL71
 6736 150e C20A0000 		.4byte	.LVL72
 6737 1512 0100     		.2byte	0x1
 6738 1514 53       		.byte	0x53
 6739 1515 C20A0000 		.4byte	.LVL72
 6740 1519 9A0B0000 		.4byte	.LVL98
 6741 151d 2600     		.2byte	0x26
 6742 151f 91       		.byte	0x91
 6743 1520 00       		.sleb128 0
 6744 1521 7A       		.byte	0x7a
 6745 1522 00       		.sleb128 0
 6746 1523 22       		.byte	0x22
 6747 1524 0A       		.byte	0xa
 6748 1525 2810     		.2byte	0x1028
 6749 1527 1C       		.byte	0x1c
 6750 1528 94       		.byte	0x94
 6751 1529 01       		.byte	0x1
ARM GAS  C:\Users\info\AppData\Local\Temp\ccKQ3Zl2.s 			page 130


 6752 152a 08       		.byte	0x8
 6753 152b FF       		.byte	0xff
 6754 152c 1A       		.byte	0x1a
 6755 152d 38       		.byte	0x38
 6756 152e 24       		.byte	0x24
 6757 152f 91       		.byte	0x91
 6758 1530 00       		.sleb128 0
 6759 1531 7A       		.byte	0x7a
 6760 1532 00       		.sleb128 0
 6761 1533 22       		.byte	0x22
 6762 1534 0A       		.byte	0xa
 6763 1535 2710     		.2byte	0x1027
 6764 1537 1C       		.byte	0x1c
 6765 1538 94       		.byte	0x94
 6766 1539 01       		.byte	0x1
 6767 153a 08       		.byte	0x8
 6768 153b FF       		.byte	0xff
 6769 153c 1A       		.byte	0x1a
 6770 153d 21       		.byte	0x21
 6771 153e 09       		.byte	0x9
 6772 153f F8       		.byte	0xf8
 6773 1540 24       		.byte	0x24
 6774 1541 09       		.byte	0x9
 6775 1542 F8       		.byte	0xf8
 6776 1543 25       		.byte	0x25
 6777 1544 9F       		.byte	0x9f
 6778 1545 9A0B0000 		.4byte	.LVL98
 6779 1549 9E0B0000 		.4byte	.LVL99
 6780 154d 0100     		.2byte	0x1
 6781 154f 53       		.byte	0x53
 6782 1550 9E0B0000 		.4byte	.LVL99
 6783 1554 A20B0000 		.4byte	.LVL101
 6784 1558 0100     		.2byte	0x1
 6785 155a 5B       		.byte	0x5b
 6786 155b A20B0000 		.4byte	.LVL101
 6787 155f A50B0000 		.4byte	.LVL102-1
 6788 1563 0100     		.2byte	0x1
 6789 1565 53       		.byte	0x53
 6790 1566 A50B0000 		.4byte	.LVL102-1
 6791 156a C20B0000 		.4byte	.LVL104
 6792 156e 2600     		.2byte	0x26
 6793 1570 91       		.byte	0x91
 6794 1571 00       		.sleb128 0
 6795 1572 7A       		.byte	0x7a
 6796 1573 00       		.sleb128 0
 6797 1574 22       		.byte	0x22
 6798 1575 0A       		.byte	0xa
 6799 1576 2810     		.2byte	0x1028
 6800 1578 1C       		.byte	0x1c
 6801 1579 94       		.byte	0x94
 6802 157a 01       		.byte	0x1
 6803 157b 08       		.byte	0x8
 6804 157c FF       		.byte	0xff
 6805 157d 1A       		.byte	0x1a
 6806 157e 38       		.byte	0x38
 6807 157f 24       		.byte	0x24
 6808 1580 91       		.byte	0x91
ARM GAS  C:\Users\info\AppData\Local\Temp\ccKQ3Zl2.s 			page 131


 6809 1581 00       		.sleb128 0
 6810 1582 7A       		.byte	0x7a
 6811 1583 00       		.sleb128 0
 6812 1584 22       		.byte	0x22
 6813 1585 0A       		.byte	0xa
 6814 1586 2710     		.2byte	0x1027
 6815 1588 1C       		.byte	0x1c
 6816 1589 94       		.byte	0x94
 6817 158a 01       		.byte	0x1
 6818 158b 08       		.byte	0x8
 6819 158c FF       		.byte	0xff
 6820 158d 1A       		.byte	0x1a
 6821 158e 21       		.byte	0x21
 6822 158f 09       		.byte	0x9
 6823 1590 F8       		.byte	0xf8
 6824 1591 24       		.byte	0x24
 6825 1592 09       		.byte	0x9
 6826 1593 F8       		.byte	0xf8
 6827 1594 25       		.byte	0x25
 6828 1595 9F       		.byte	0x9f
 6829 1596 C20B0000 		.4byte	.LVL104
 6830 159a C40B0000 		.4byte	.LVL105
 6831 159e 2000     		.2byte	0x20
 6832 15a0 72       		.byte	0x72
 6833 15a1 00       		.sleb128 0
 6834 15a2 7A       		.byte	0x7a
 6835 15a3 00       		.sleb128 0
 6836 15a4 22       		.byte	0x22
 6837 15a5 94       		.byte	0x94
 6838 15a6 01       		.byte	0x1
 6839 15a7 08       		.byte	0x8
 6840 15a8 FF       		.byte	0xff
 6841 15a9 1A       		.byte	0x1a
 6842 15aa 38       		.byte	0x38
 6843 15ab 24       		.byte	0x24
 6844 15ac 72       		.byte	0x72
 6845 15ad 00       		.sleb128 0
 6846 15ae 7A       		.byte	0x7a
 6847 15af 00       		.sleb128 0
 6848 15b0 22       		.byte	0x22
 6849 15b1 23       		.byte	0x23
 6850 15b2 01       		.uleb128 0x1
 6851 15b3 94       		.byte	0x94
 6852 15b4 01       		.byte	0x1
 6853 15b5 08       		.byte	0x8
 6854 15b6 FF       		.byte	0xff
 6855 15b7 1A       		.byte	0x1a
 6856 15b8 21       		.byte	0x21
 6857 15b9 09       		.byte	0x9
 6858 15ba F8       		.byte	0xf8
 6859 15bb 24       		.byte	0x24
 6860 15bc 09       		.byte	0x9
 6861 15bd F8       		.byte	0xf8
 6862 15be 25       		.byte	0x25
 6863 15bf 9F       		.byte	0x9f
 6864 15c0 C40B0000 		.4byte	.LVL105
 6865 15c4 F60B0000 		.4byte	.LVL108
ARM GAS  C:\Users\info\AppData\Local\Temp\ccKQ3Zl2.s 			page 132


 6866 15c8 2600     		.2byte	0x26
 6867 15ca 91       		.byte	0x91
 6868 15cb 00       		.sleb128 0
 6869 15cc 7A       		.byte	0x7a
 6870 15cd 00       		.sleb128 0
 6871 15ce 22       		.byte	0x22
 6872 15cf 0A       		.byte	0xa
 6873 15d0 2810     		.2byte	0x1028
 6874 15d2 1C       		.byte	0x1c
 6875 15d3 94       		.byte	0x94
 6876 15d4 01       		.byte	0x1
 6877 15d5 08       		.byte	0x8
 6878 15d6 FF       		.byte	0xff
 6879 15d7 1A       		.byte	0x1a
 6880 15d8 38       		.byte	0x38
 6881 15d9 24       		.byte	0x24
 6882 15da 91       		.byte	0x91
 6883 15db 00       		.sleb128 0
 6884 15dc 7A       		.byte	0x7a
 6885 15dd 00       		.sleb128 0
 6886 15de 22       		.byte	0x22
 6887 15df 0A       		.byte	0xa
 6888 15e0 2710     		.2byte	0x1027
 6889 15e2 1C       		.byte	0x1c
 6890 15e3 94       		.byte	0x94
 6891 15e4 01       		.byte	0x1
 6892 15e5 08       		.byte	0x8
 6893 15e6 FF       		.byte	0xff
 6894 15e7 1A       		.byte	0x1a
 6895 15e8 21       		.byte	0x21
 6896 15e9 09       		.byte	0x9
 6897 15ea F8       		.byte	0xf8
 6898 15eb 24       		.byte	0x24
 6899 15ec 09       		.byte	0x9
 6900 15ed F8       		.byte	0xf8
 6901 15ee 25       		.byte	0x25
 6902 15ef 9F       		.byte	0x9f
 6903 15f0 F60B0000 		.4byte	.LVL108
 6904 15f4 F80B0000 		.4byte	.LVL109
 6905 15f8 2000     		.2byte	0x20
 6906 15fa 72       		.byte	0x72
 6907 15fb 00       		.sleb128 0
 6908 15fc 7A       		.byte	0x7a
 6909 15fd 00       		.sleb128 0
 6910 15fe 22       		.byte	0x22
 6911 15ff 94       		.byte	0x94
 6912 1600 01       		.byte	0x1
 6913 1601 08       		.byte	0x8
 6914 1602 FF       		.byte	0xff
 6915 1603 1A       		.byte	0x1a
 6916 1604 38       		.byte	0x38
 6917 1605 24       		.byte	0x24
 6918 1606 72       		.byte	0x72
 6919 1607 00       		.sleb128 0
 6920 1608 7A       		.byte	0x7a
 6921 1609 00       		.sleb128 0
 6922 160a 22       		.byte	0x22
ARM GAS  C:\Users\info\AppData\Local\Temp\ccKQ3Zl2.s 			page 133


 6923 160b 23       		.byte	0x23
 6924 160c 01       		.uleb128 0x1
 6925 160d 94       		.byte	0x94
 6926 160e 01       		.byte	0x1
 6927 160f 08       		.byte	0x8
 6928 1610 FF       		.byte	0xff
 6929 1611 1A       		.byte	0x1a
 6930 1612 21       		.byte	0x21
 6931 1613 09       		.byte	0x9
 6932 1614 F8       		.byte	0xf8
 6933 1615 24       		.byte	0x24
 6934 1616 09       		.byte	0x9
 6935 1617 F8       		.byte	0xf8
 6936 1618 25       		.byte	0x25
 6937 1619 9F       		.byte	0x9f
 6938 161a F80B0000 		.4byte	.LVL109
 6939 161e 880C0000 		.4byte	.LVL114
 6940 1622 2600     		.2byte	0x26
 6941 1624 91       		.byte	0x91
 6942 1625 00       		.sleb128 0
 6943 1626 7A       		.byte	0x7a
 6944 1627 00       		.sleb128 0
 6945 1628 22       		.byte	0x22
 6946 1629 0A       		.byte	0xa
 6947 162a 2810     		.2byte	0x1028
 6948 162c 1C       		.byte	0x1c
 6949 162d 94       		.byte	0x94
 6950 162e 01       		.byte	0x1
 6951 162f 08       		.byte	0x8
 6952 1630 FF       		.byte	0xff
 6953 1631 1A       		.byte	0x1a
 6954 1632 38       		.byte	0x38
 6955 1633 24       		.byte	0x24
 6956 1634 91       		.byte	0x91
 6957 1635 00       		.sleb128 0
 6958 1636 7A       		.byte	0x7a
 6959 1637 00       		.sleb128 0
 6960 1638 22       		.byte	0x22
 6961 1639 0A       		.byte	0xa
 6962 163a 2710     		.2byte	0x1027
 6963 163c 1C       		.byte	0x1c
 6964 163d 94       		.byte	0x94
 6965 163e 01       		.byte	0x1
 6966 163f 08       		.byte	0x8
 6967 1640 FF       		.byte	0xff
 6968 1641 1A       		.byte	0x1a
 6969 1642 21       		.byte	0x21
 6970 1643 09       		.byte	0x9
 6971 1644 F8       		.byte	0xf8
 6972 1645 24       		.byte	0x24
 6973 1646 09       		.byte	0x9
 6974 1647 F8       		.byte	0xf8
 6975 1648 25       		.byte	0x25
 6976 1649 9F       		.byte	0x9f
 6977 164a 880C0000 		.4byte	.LVL114
 6978 164e 8E0C0000 		.4byte	.LVL117
 6979 1652 0100     		.2byte	0x1
ARM GAS  C:\Users\info\AppData\Local\Temp\ccKQ3Zl2.s 			page 134


 6980 1654 53       		.byte	0x53
 6981 1655 8E0C0000 		.4byte	.LVL117
 6982 1659 BC0C0000 		.4byte	.LVL120
 6983 165d 2600     		.2byte	0x26
 6984 165f 91       		.byte	0x91
 6985 1660 00       		.sleb128 0
 6986 1661 7A       		.byte	0x7a
 6987 1662 00       		.sleb128 0
 6988 1663 22       		.byte	0x22
 6989 1664 0A       		.byte	0xa
 6990 1665 2810     		.2byte	0x1028
 6991 1667 1C       		.byte	0x1c
 6992 1668 94       		.byte	0x94
 6993 1669 01       		.byte	0x1
 6994 166a 08       		.byte	0x8
 6995 166b FF       		.byte	0xff
 6996 166c 1A       		.byte	0x1a
 6997 166d 38       		.byte	0x38
 6998 166e 24       		.byte	0x24
 6999 166f 91       		.byte	0x91
 7000 1670 00       		.sleb128 0
 7001 1671 7A       		.byte	0x7a
 7002 1672 00       		.sleb128 0
 7003 1673 22       		.byte	0x22
 7004 1674 0A       		.byte	0xa
 7005 1675 2710     		.2byte	0x1027
 7006 1677 1C       		.byte	0x1c
 7007 1678 94       		.byte	0x94
 7008 1679 01       		.byte	0x1
 7009 167a 08       		.byte	0x8
 7010 167b FF       		.byte	0xff
 7011 167c 1A       		.byte	0x1a
 7012 167d 21       		.byte	0x21
 7013 167e 09       		.byte	0x9
 7014 167f F8       		.byte	0xf8
 7015 1680 24       		.byte	0x24
 7016 1681 09       		.byte	0x9
 7017 1682 F8       		.byte	0xf8
 7018 1683 25       		.byte	0x25
 7019 1684 9F       		.byte	0x9f
 7020 1685 BC0C0000 		.4byte	.LVL120
 7021 1689 C80C0000 		.4byte	.LVL121
 7022 168d 0100     		.2byte	0x1
 7023 168f 53       		.byte	0x53
 7024 1690 C80C0000 		.4byte	.LVL121
 7025 1694 DE0C0000 		.4byte	.LVL123
 7026 1698 2600     		.2byte	0x26
 7027 169a 91       		.byte	0x91
 7028 169b 00       		.sleb128 0
 7029 169c 7A       		.byte	0x7a
 7030 169d 00       		.sleb128 0
 7031 169e 22       		.byte	0x22
 7032 169f 0A       		.byte	0xa
 7033 16a0 2810     		.2byte	0x1028
 7034 16a2 1C       		.byte	0x1c
 7035 16a3 94       		.byte	0x94
 7036 16a4 01       		.byte	0x1
ARM GAS  C:\Users\info\AppData\Local\Temp\ccKQ3Zl2.s 			page 135


 7037 16a5 08       		.byte	0x8
 7038 16a6 FF       		.byte	0xff
 7039 16a7 1A       		.byte	0x1a
 7040 16a8 38       		.byte	0x38
 7041 16a9 24       		.byte	0x24
 7042 16aa 91       		.byte	0x91
 7043 16ab 00       		.sleb128 0
 7044 16ac 7A       		.byte	0x7a
 7045 16ad 00       		.sleb128 0
 7046 16ae 22       		.byte	0x22
 7047 16af 0A       		.byte	0xa
 7048 16b0 2710     		.2byte	0x1027
 7049 16b2 1C       		.byte	0x1c
 7050 16b3 94       		.byte	0x94
 7051 16b4 01       		.byte	0x1
 7052 16b5 08       		.byte	0x8
 7053 16b6 FF       		.byte	0xff
 7054 16b7 1A       		.byte	0x1a
 7055 16b8 21       		.byte	0x21
 7056 16b9 09       		.byte	0x9
 7057 16ba F8       		.byte	0xf8
 7058 16bb 24       		.byte	0x24
 7059 16bc 09       		.byte	0x9
 7060 16bd F8       		.byte	0xf8
 7061 16be 25       		.byte	0x25
 7062 16bf 9F       		.byte	0x9f
 7063 16c0 DE0C0000 		.4byte	.LVL123
 7064 16c4 E20C0000 		.4byte	.LVL124
 7065 16c8 2600     		.2byte	0x26
 7066 16ca 91       		.byte	0x91
 7067 16cb 00       		.sleb128 0
 7068 16cc 7A       		.byte	0x7a
 7069 16cd 00       		.sleb128 0
 7070 16ce 22       		.byte	0x22
 7071 16cf 0A       		.byte	0xa
 7072 16d0 2A10     		.2byte	0x102a
 7073 16d2 1C       		.byte	0x1c
 7074 16d3 94       		.byte	0x94
 7075 16d4 01       		.byte	0x1
 7076 16d5 08       		.byte	0x8
 7077 16d6 FF       		.byte	0xff
 7078 16d7 1A       		.byte	0x1a
 7079 16d8 38       		.byte	0x38
 7080 16d9 24       		.byte	0x24
 7081 16da 91       		.byte	0x91
 7082 16db 00       		.sleb128 0
 7083 16dc 7A       		.byte	0x7a
 7084 16dd 00       		.sleb128 0
 7085 16de 22       		.byte	0x22
 7086 16df 0A       		.byte	0xa
 7087 16e0 2910     		.2byte	0x1029
 7088 16e2 1C       		.byte	0x1c
 7089 16e3 94       		.byte	0x94
 7090 16e4 01       		.byte	0x1
 7091 16e5 08       		.byte	0x8
 7092 16e6 FF       		.byte	0xff
 7093 16e7 1A       		.byte	0x1a
ARM GAS  C:\Users\info\AppData\Local\Temp\ccKQ3Zl2.s 			page 136


 7094 16e8 21       		.byte	0x21
 7095 16e9 09       		.byte	0x9
 7096 16ea F8       		.byte	0xf8
 7097 16eb 24       		.byte	0x24
 7098 16ec 09       		.byte	0x9
 7099 16ed F8       		.byte	0xf8
 7100 16ee 25       		.byte	0x25
 7101 16ef 9F       		.byte	0x9f
 7102 16f0 E80C0000 		.4byte	.LVL125
 7103 16f4 EA0C0000 		.4byte	.LVL126
 7104 16f8 0100     		.2byte	0x1
 7105 16fa 53       		.byte	0x53
 7106 16fb EA0C0000 		.4byte	.LVL126
 7107 16ff 000D0000 		.4byte	.LVL128
 7108 1703 2600     		.2byte	0x26
 7109 1705 91       		.byte	0x91
 7110 1706 00       		.sleb128 0
 7111 1707 7A       		.byte	0x7a
 7112 1708 00       		.sleb128 0
 7113 1709 22       		.byte	0x22
 7114 170a 0A       		.byte	0xa
 7115 170b 2810     		.2byte	0x1028
 7116 170d 1C       		.byte	0x1c
 7117 170e 94       		.byte	0x94
 7118 170f 01       		.byte	0x1
 7119 1710 08       		.byte	0x8
 7120 1711 FF       		.byte	0xff
 7121 1712 1A       		.byte	0x1a
 7122 1713 38       		.byte	0x38
 7123 1714 24       		.byte	0x24
 7124 1715 91       		.byte	0x91
 7125 1716 00       		.sleb128 0
 7126 1717 7A       		.byte	0x7a
 7127 1718 00       		.sleb128 0
 7128 1719 22       		.byte	0x22
 7129 171a 0A       		.byte	0xa
 7130 171b 2710     		.2byte	0x1027
 7131 171d 1C       		.byte	0x1c
 7132 171e 94       		.byte	0x94
 7133 171f 01       		.byte	0x1
 7134 1720 08       		.byte	0x8
 7135 1721 FF       		.byte	0xff
 7136 1722 1A       		.byte	0x1a
 7137 1723 21       		.byte	0x21
 7138 1724 09       		.byte	0x9
 7139 1725 F8       		.byte	0xf8
 7140 1726 24       		.byte	0x24
 7141 1727 09       		.byte	0x9
 7142 1728 F8       		.byte	0xf8
 7143 1729 25       		.byte	0x25
 7144 172a 9F       		.byte	0x9f
 7145 172b 000D0000 		.4byte	.LVL128
 7146 172f 040D0000 		.4byte	.LVL129
 7147 1733 2600     		.2byte	0x26
 7148 1735 91       		.byte	0x91
 7149 1736 00       		.sleb128 0
 7150 1737 7A       		.byte	0x7a
ARM GAS  C:\Users\info\AppData\Local\Temp\ccKQ3Zl2.s 			page 137


 7151 1738 00       		.sleb128 0
 7152 1739 22       		.byte	0x22
 7153 173a 0A       		.byte	0xa
 7154 173b 2A10     		.2byte	0x102a
 7155 173d 1C       		.byte	0x1c
 7156 173e 94       		.byte	0x94
 7157 173f 01       		.byte	0x1
 7158 1740 08       		.byte	0x8
 7159 1741 FF       		.byte	0xff
 7160 1742 1A       		.byte	0x1a
 7161 1743 38       		.byte	0x38
 7162 1744 24       		.byte	0x24
 7163 1745 91       		.byte	0x91
 7164 1746 00       		.sleb128 0
 7165 1747 7A       		.byte	0x7a
 7166 1748 00       		.sleb128 0
 7167 1749 22       		.byte	0x22
 7168 174a 0A       		.byte	0xa
 7169 174b 2910     		.2byte	0x1029
 7170 174d 1C       		.byte	0x1c
 7171 174e 94       		.byte	0x94
 7172 174f 01       		.byte	0x1
 7173 1750 08       		.byte	0x8
 7174 1751 FF       		.byte	0xff
 7175 1752 1A       		.byte	0x1a
 7176 1753 21       		.byte	0x21
 7177 1754 09       		.byte	0x9
 7178 1755 F8       		.byte	0xf8
 7179 1756 24       		.byte	0x24
 7180 1757 09       		.byte	0x9
 7181 1758 F8       		.byte	0xf8
 7182 1759 25       		.byte	0x25
 7183 175a 9F       		.byte	0x9f
 7184 175b 080D0000 		.4byte	.LVL130
 7185 175f 3C0D0000 		.4byte	.LVL131
 7186 1763 0100     		.2byte	0x1
 7187 1765 53       		.byte	0x53
 7188 1766 3C0D0000 		.4byte	.LVL131
 7189 176a 600D0000 		.4byte	.LVL135
 7190 176e 2600     		.2byte	0x26
 7191 1770 91       		.byte	0x91
 7192 1771 00       		.sleb128 0
 7193 1772 7A       		.byte	0x7a
 7194 1773 00       		.sleb128 0
 7195 1774 22       		.byte	0x22
 7196 1775 0A       		.byte	0xa
 7197 1776 2810     		.2byte	0x1028
 7198 1778 1C       		.byte	0x1c
 7199 1779 94       		.byte	0x94
 7200 177a 01       		.byte	0x1
 7201 177b 08       		.byte	0x8
 7202 177c FF       		.byte	0xff
 7203 177d 1A       		.byte	0x1a
 7204 177e 38       		.byte	0x38
 7205 177f 24       		.byte	0x24
 7206 1780 91       		.byte	0x91
 7207 1781 00       		.sleb128 0
ARM GAS  C:\Users\info\AppData\Local\Temp\ccKQ3Zl2.s 			page 138


 7208 1782 7A       		.byte	0x7a
 7209 1783 00       		.sleb128 0
 7210 1784 22       		.byte	0x22
 7211 1785 0A       		.byte	0xa
 7212 1786 2710     		.2byte	0x1027
 7213 1788 1C       		.byte	0x1c
 7214 1789 94       		.byte	0x94
 7215 178a 01       		.byte	0x1
 7216 178b 08       		.byte	0x8
 7217 178c FF       		.byte	0xff
 7218 178d 1A       		.byte	0x1a
 7219 178e 21       		.byte	0x21
 7220 178f 09       		.byte	0x9
 7221 1790 F8       		.byte	0xf8
 7222 1791 24       		.byte	0x24
 7223 1792 09       		.byte	0x9
 7224 1793 F8       		.byte	0xf8
 7225 1794 25       		.byte	0x25
 7226 1795 9F       		.byte	0x9f
 7227 1796 600D0000 		.4byte	.LVL135
 7228 179a 620D0000 		.4byte	.LVL136
 7229 179e 0100     		.2byte	0x1
 7230 17a0 53       		.byte	0x53
 7231 17a1 620D0000 		.4byte	.LVL136
 7232 17a5 6E0D0000 		.4byte	.LVL138
 7233 17a9 2600     		.2byte	0x26
 7234 17ab 91       		.byte	0x91
 7235 17ac 00       		.sleb128 0
 7236 17ad 7A       		.byte	0x7a
 7237 17ae 00       		.sleb128 0
 7238 17af 22       		.byte	0x22
 7239 17b0 0A       		.byte	0xa
 7240 17b1 2810     		.2byte	0x1028
 7241 17b3 1C       		.byte	0x1c
 7242 17b4 94       		.byte	0x94
 7243 17b5 01       		.byte	0x1
 7244 17b6 08       		.byte	0x8
 7245 17b7 FF       		.byte	0xff
 7246 17b8 1A       		.byte	0x1a
 7247 17b9 38       		.byte	0x38
 7248 17ba 24       		.byte	0x24
 7249 17bb 91       		.byte	0x91
 7250 17bc 00       		.sleb128 0
 7251 17bd 7A       		.byte	0x7a
 7252 17be 00       		.sleb128 0
 7253 17bf 22       		.byte	0x22
 7254 17c0 0A       		.byte	0xa
 7255 17c1 2710     		.2byte	0x1027
 7256 17c3 1C       		.byte	0x1c
 7257 17c4 94       		.byte	0x94
 7258 17c5 01       		.byte	0x1
 7259 17c6 08       		.byte	0x8
 7260 17c7 FF       		.byte	0xff
 7261 17c8 1A       		.byte	0x1a
 7262 17c9 21       		.byte	0x21
 7263 17ca 09       		.byte	0x9
 7264 17cb F8       		.byte	0xf8
ARM GAS  C:\Users\info\AppData\Local\Temp\ccKQ3Zl2.s 			page 139


 7265 17cc 24       		.byte	0x24
 7266 17cd 09       		.byte	0x9
 7267 17ce F8       		.byte	0xf8
 7268 17cf 25       		.byte	0x25
 7269 17d0 9F       		.byte	0x9f
 7270 17d1 6E0D0000 		.4byte	.LVL138
 7271 17d5 700D0000 		.4byte	.LVL139
 7272 17d9 0100     		.2byte	0x1
 7273 17db 53       		.byte	0x53
 7274 17dc 700D0000 		.4byte	.LVL139
 7275 17e0 7C0D0000 		.4byte	.LVL141
 7276 17e4 2600     		.2byte	0x26
 7277 17e6 91       		.byte	0x91
 7278 17e7 00       		.sleb128 0
 7279 17e8 7A       		.byte	0x7a
 7280 17e9 00       		.sleb128 0
 7281 17ea 22       		.byte	0x22
 7282 17eb 0A       		.byte	0xa
 7283 17ec 2810     		.2byte	0x1028
 7284 17ee 1C       		.byte	0x1c
 7285 17ef 94       		.byte	0x94
 7286 17f0 01       		.byte	0x1
 7287 17f1 08       		.byte	0x8
 7288 17f2 FF       		.byte	0xff
 7289 17f3 1A       		.byte	0x1a
 7290 17f4 38       		.byte	0x38
 7291 17f5 24       		.byte	0x24
 7292 17f6 91       		.byte	0x91
 7293 17f7 00       		.sleb128 0
 7294 17f8 7A       		.byte	0x7a
 7295 17f9 00       		.sleb128 0
 7296 17fa 22       		.byte	0x22
 7297 17fb 0A       		.byte	0xa
 7298 17fc 2710     		.2byte	0x1027
 7299 17fe 1C       		.byte	0x1c
 7300 17ff 94       		.byte	0x94
 7301 1800 01       		.byte	0x1
 7302 1801 08       		.byte	0x8
 7303 1802 FF       		.byte	0xff
 7304 1803 1A       		.byte	0x1a
 7305 1804 21       		.byte	0x21
 7306 1805 09       		.byte	0x9
 7307 1806 F8       		.byte	0xf8
 7308 1807 24       		.byte	0x24
 7309 1808 09       		.byte	0x9
 7310 1809 F8       		.byte	0xf8
 7311 180a 25       		.byte	0x25
 7312 180b 9F       		.byte	0x9f
 7313 180c 7C0D0000 		.4byte	.LVL141
 7314 1810 7E0D0000 		.4byte	.LVL142
 7315 1814 0100     		.2byte	0x1
 7316 1816 53       		.byte	0x53
 7317 1817 7E0D0000 		.4byte	.LVL142
 7318 181b 8C0D0000 		.4byte	.LVL146
 7319 181f 2600     		.2byte	0x26
 7320 1821 91       		.byte	0x91
 7321 1822 00       		.sleb128 0
ARM GAS  C:\Users\info\AppData\Local\Temp\ccKQ3Zl2.s 			page 140


 7322 1823 7A       		.byte	0x7a
 7323 1824 00       		.sleb128 0
 7324 1825 22       		.byte	0x22
 7325 1826 0A       		.byte	0xa
 7326 1827 2810     		.2byte	0x1028
 7327 1829 1C       		.byte	0x1c
 7328 182a 94       		.byte	0x94
 7329 182b 01       		.byte	0x1
 7330 182c 08       		.byte	0x8
 7331 182d FF       		.byte	0xff
 7332 182e 1A       		.byte	0x1a
 7333 182f 38       		.byte	0x38
 7334 1830 24       		.byte	0x24
 7335 1831 91       		.byte	0x91
 7336 1832 00       		.sleb128 0
 7337 1833 7A       		.byte	0x7a
 7338 1834 00       		.sleb128 0
 7339 1835 22       		.byte	0x22
 7340 1836 0A       		.byte	0xa
 7341 1837 2710     		.2byte	0x1027
 7342 1839 1C       		.byte	0x1c
 7343 183a 94       		.byte	0x94
 7344 183b 01       		.byte	0x1
 7345 183c 08       		.byte	0x8
 7346 183d FF       		.byte	0xff
 7347 183e 1A       		.byte	0x1a
 7348 183f 21       		.byte	0x21
 7349 1840 09       		.byte	0x9
 7350 1841 F8       		.byte	0xf8
 7351 1842 24       		.byte	0x24
 7352 1843 09       		.byte	0x9
 7353 1844 F8       		.byte	0xf8
 7354 1845 25       		.byte	0x25
 7355 1846 9F       		.byte	0x9f
 7356 1847 8C0D0000 		.4byte	.LVL146
 7357 184b 8E0D0000 		.4byte	.LVL147
 7358 184f 0100     		.2byte	0x1
 7359 1851 53       		.byte	0x53
 7360 1852 8E0D0000 		.4byte	.LVL147
 7361 1856 A00D0000 		.4byte	.LVL151
 7362 185a 2600     		.2byte	0x26
 7363 185c 91       		.byte	0x91
 7364 185d 00       		.sleb128 0
 7365 185e 7A       		.byte	0x7a
 7366 185f 00       		.sleb128 0
 7367 1860 22       		.byte	0x22
 7368 1861 0A       		.byte	0xa
 7369 1862 2810     		.2byte	0x1028
 7370 1864 1C       		.byte	0x1c
 7371 1865 94       		.byte	0x94
 7372 1866 01       		.byte	0x1
 7373 1867 08       		.byte	0x8
 7374 1868 FF       		.byte	0xff
 7375 1869 1A       		.byte	0x1a
 7376 186a 38       		.byte	0x38
 7377 186b 24       		.byte	0x24
 7378 186c 91       		.byte	0x91
ARM GAS  C:\Users\info\AppData\Local\Temp\ccKQ3Zl2.s 			page 141


 7379 186d 00       		.sleb128 0
 7380 186e 7A       		.byte	0x7a
 7381 186f 00       		.sleb128 0
 7382 1870 22       		.byte	0x22
 7383 1871 0A       		.byte	0xa
 7384 1872 2710     		.2byte	0x1027
 7385 1874 1C       		.byte	0x1c
 7386 1875 94       		.byte	0x94
 7387 1876 01       		.byte	0x1
 7388 1877 08       		.byte	0x8
 7389 1878 FF       		.byte	0xff
 7390 1879 1A       		.byte	0x1a
 7391 187a 21       		.byte	0x21
 7392 187b 09       		.byte	0x9
 7393 187c F8       		.byte	0xf8
 7394 187d 24       		.byte	0x24
 7395 187e 09       		.byte	0x9
 7396 187f F8       		.byte	0xf8
 7397 1880 25       		.byte	0x25
 7398 1881 9F       		.byte	0x9f
 7399 1882 A00D0000 		.4byte	.LVL151
 7400 1886 A40D0000 		.4byte	.LVL153
 7401 188a 0100     		.2byte	0x1
 7402 188c 53       		.byte	0x53
 7403 188d A40D0000 		.4byte	.LVL153
 7404 1891 B40D0000 		.4byte	.LVL155
 7405 1895 2000     		.2byte	0x20
 7406 1897 70       		.byte	0x70
 7407 1898 00       		.sleb128 0
 7408 1899 7A       		.byte	0x7a
 7409 189a 00       		.sleb128 0
 7410 189b 22       		.byte	0x22
 7411 189c 94       		.byte	0x94
 7412 189d 01       		.byte	0x1
 7413 189e 08       		.byte	0x8
 7414 189f FF       		.byte	0xff
 7415 18a0 1A       		.byte	0x1a
 7416 18a1 38       		.byte	0x38
 7417 18a2 24       		.byte	0x24
 7418 18a3 70       		.byte	0x70
 7419 18a4 00       		.sleb128 0
 7420 18a5 7A       		.byte	0x7a
 7421 18a6 00       		.sleb128 0
 7422 18a7 22       		.byte	0x22
 7423 18a8 23       		.byte	0x23
 7424 18a9 01       		.uleb128 0x1
 7425 18aa 94       		.byte	0x94
 7426 18ab 01       		.byte	0x1
 7427 18ac 08       		.byte	0x8
 7428 18ad FF       		.byte	0xff
 7429 18ae 1A       		.byte	0x1a
 7430 18af 21       		.byte	0x21
 7431 18b0 09       		.byte	0x9
 7432 18b1 F8       		.byte	0xf8
 7433 18b2 24       		.byte	0x24
 7434 18b3 09       		.byte	0x9
 7435 18b4 F8       		.byte	0xf8
ARM GAS  C:\Users\info\AppData\Local\Temp\ccKQ3Zl2.s 			page 142


 7436 18b5 25       		.byte	0x25
 7437 18b6 9F       		.byte	0x9f
 7438 18b7 F60D0000 		.4byte	.LVL162
 7439 18bb F80D0000 		.4byte	.LVL163
 7440 18bf 0100     		.2byte	0x1
 7441 18c1 53       		.byte	0x53
 7442 18c2 020E0000 		.4byte	.LVL165
 7443 18c6 080E0000 		.4byte	.LVL166
 7444 18ca 2600     		.2byte	0x26
 7445 18cc 91       		.byte	0x91
 7446 18cd 00       		.sleb128 0
 7447 18ce 7A       		.byte	0x7a
 7448 18cf 00       		.sleb128 0
 7449 18d0 22       		.byte	0x22
 7450 18d1 0A       		.byte	0xa
 7451 18d2 2810     		.2byte	0x1028
 7452 18d4 1C       		.byte	0x1c
 7453 18d5 94       		.byte	0x94
 7454 18d6 01       		.byte	0x1
 7455 18d7 08       		.byte	0x8
 7456 18d8 FF       		.byte	0xff
 7457 18d9 1A       		.byte	0x1a
 7458 18da 38       		.byte	0x38
 7459 18db 24       		.byte	0x24
 7460 18dc 91       		.byte	0x91
 7461 18dd 00       		.sleb128 0
 7462 18de 7A       		.byte	0x7a
 7463 18df 00       		.sleb128 0
 7464 18e0 22       		.byte	0x22
 7465 18e1 0A       		.byte	0xa
 7466 18e2 2710     		.2byte	0x1027
 7467 18e4 1C       		.byte	0x1c
 7468 18e5 94       		.byte	0x94
 7469 18e6 01       		.byte	0x1
 7470 18e7 08       		.byte	0x8
 7471 18e8 FF       		.byte	0xff
 7472 18e9 1A       		.byte	0x1a
 7473 18ea 21       		.byte	0x21
 7474 18eb 09       		.byte	0x9
 7475 18ec F8       		.byte	0xf8
 7476 18ed 24       		.byte	0x24
 7477 18ee 09       		.byte	0x9
 7478 18ef F8       		.byte	0xf8
 7479 18f0 25       		.byte	0x25
 7480 18f1 9F       		.byte	0x9f
 7481 18f2 080E0000 		.4byte	.LVL166
 7482 18f6 0C0E0000 		.4byte	.LVL167
 7483 18fa 2000     		.2byte	0x20
 7484 18fc 72       		.byte	0x72
 7485 18fd 00       		.sleb128 0
 7486 18fe 7A       		.byte	0x7a
 7487 18ff 00       		.sleb128 0
 7488 1900 22       		.byte	0x22
 7489 1901 94       		.byte	0x94
 7490 1902 01       		.byte	0x1
 7491 1903 08       		.byte	0x8
 7492 1904 FF       		.byte	0xff
ARM GAS  C:\Users\info\AppData\Local\Temp\ccKQ3Zl2.s 			page 143


 7493 1905 1A       		.byte	0x1a
 7494 1906 38       		.byte	0x38
 7495 1907 24       		.byte	0x24
 7496 1908 72       		.byte	0x72
 7497 1909 00       		.sleb128 0
 7498 190a 7A       		.byte	0x7a
 7499 190b 00       		.sleb128 0
 7500 190c 22       		.byte	0x22
 7501 190d 23       		.byte	0x23
 7502 190e 01       		.uleb128 0x1
 7503 190f 94       		.byte	0x94
 7504 1910 01       		.byte	0x1
 7505 1911 08       		.byte	0x8
 7506 1912 FF       		.byte	0xff
 7507 1913 1A       		.byte	0x1a
 7508 1914 21       		.byte	0x21
 7509 1915 09       		.byte	0x9
 7510 1916 F8       		.byte	0xf8
 7511 1917 24       		.byte	0x24
 7512 1918 09       		.byte	0x9
 7513 1919 F8       		.byte	0xf8
 7514 191a 25       		.byte	0x25
 7515 191b 9F       		.byte	0x9f
 7516 191c 0C0E0000 		.4byte	.LVL167
 7517 1920 140E0000 		.4byte	.LVL170
 7518 1924 2600     		.2byte	0x26
 7519 1926 91       		.byte	0x91
 7520 1927 00       		.sleb128 0
 7521 1928 7A       		.byte	0x7a
 7522 1929 00       		.sleb128 0
 7523 192a 22       		.byte	0x22
 7524 192b 0A       		.byte	0xa
 7525 192c 2810     		.2byte	0x1028
 7526 192e 1C       		.byte	0x1c
 7527 192f 94       		.byte	0x94
 7528 1930 01       		.byte	0x1
 7529 1931 08       		.byte	0x8
 7530 1932 FF       		.byte	0xff
 7531 1933 1A       		.byte	0x1a
 7532 1934 38       		.byte	0x38
 7533 1935 24       		.byte	0x24
 7534 1936 91       		.byte	0x91
 7535 1937 00       		.sleb128 0
 7536 1938 7A       		.byte	0x7a
 7537 1939 00       		.sleb128 0
 7538 193a 22       		.byte	0x22
 7539 193b 0A       		.byte	0xa
 7540 193c 2710     		.2byte	0x1027
 7541 193e 1C       		.byte	0x1c
 7542 193f 94       		.byte	0x94
 7543 1940 01       		.byte	0x1
 7544 1941 08       		.byte	0x8
 7545 1942 FF       		.byte	0xff
 7546 1943 1A       		.byte	0x1a
 7547 1944 21       		.byte	0x21
 7548 1945 09       		.byte	0x9
 7549 1946 F8       		.byte	0xf8
ARM GAS  C:\Users\info\AppData\Local\Temp\ccKQ3Zl2.s 			page 144


 7550 1947 24       		.byte	0x24
 7551 1948 09       		.byte	0x9
 7552 1949 F8       		.byte	0xf8
 7553 194a 25       		.byte	0x25
 7554 194b 9F       		.byte	0x9f
 7555 194c 140E0000 		.4byte	.LVL170
 7556 1950 160E0000 		.4byte	.LVL171
 7557 1954 0100     		.2byte	0x1
 7558 1956 53       		.byte	0x53
 7559 1957 160E0000 		.4byte	.LVL171
 7560 195b 200E0000 		.4byte	.LVL173
 7561 195f 2600     		.2byte	0x26
 7562 1961 91       		.byte	0x91
 7563 1962 00       		.sleb128 0
 7564 1963 7A       		.byte	0x7a
 7565 1964 00       		.sleb128 0
 7566 1965 22       		.byte	0x22
 7567 1966 0A       		.byte	0xa
 7568 1967 2810     		.2byte	0x1028
 7569 1969 1C       		.byte	0x1c
 7570 196a 94       		.byte	0x94
 7571 196b 01       		.byte	0x1
 7572 196c 08       		.byte	0x8
 7573 196d FF       		.byte	0xff
 7574 196e 1A       		.byte	0x1a
 7575 196f 38       		.byte	0x38
 7576 1970 24       		.byte	0x24
 7577 1971 91       		.byte	0x91
 7578 1972 00       		.sleb128 0
 7579 1973 7A       		.byte	0x7a
 7580 1974 00       		.sleb128 0
 7581 1975 22       		.byte	0x22
 7582 1976 0A       		.byte	0xa
 7583 1977 2710     		.2byte	0x1027
 7584 1979 1C       		.byte	0x1c
 7585 197a 94       		.byte	0x94
 7586 197b 01       		.byte	0x1
 7587 197c 08       		.byte	0x8
 7588 197d FF       		.byte	0xff
 7589 197e 1A       		.byte	0x1a
 7590 197f 21       		.byte	0x21
 7591 1980 09       		.byte	0x9
 7592 1981 F8       		.byte	0xf8
 7593 1982 24       		.byte	0x24
 7594 1983 09       		.byte	0x9
 7595 1984 F8       		.byte	0xf8
 7596 1985 25       		.byte	0x25
 7597 1986 9F       		.byte	0x9f
 7598 1987 200E0000 		.4byte	.LVL173
 7599 198b 240E0000 		.4byte	.LVL175
 7600 198f 0100     		.2byte	0x1
 7601 1991 53       		.byte	0x53
 7602 1992 240E0000 		.4byte	.LVL175
 7603 1996 280E0000 		.4byte	.LVL177
 7604 199a 0100     		.2byte	0x1
 7605 199c 5A       		.byte	0x5a
 7606 199d 280E0000 		.4byte	.LVL177
ARM GAS  C:\Users\info\AppData\Local\Temp\ccKQ3Zl2.s 			page 145


 7607 19a1 2A0E0000 		.4byte	.LVL178
 7608 19a5 0100     		.2byte	0x1
 7609 19a7 53       		.byte	0x53
 7610 19a8 2A0E0000 		.4byte	.LVL178
 7611 19ac 2E0E0000 		.4byte	.LVL180
 7612 19b0 2600     		.2byte	0x26
 7613 19b2 91       		.byte	0x91
 7614 19b3 00       		.sleb128 0
 7615 19b4 7A       		.byte	0x7a
 7616 19b5 00       		.sleb128 0
 7617 19b6 22       		.byte	0x22
 7618 19b7 0A       		.byte	0xa
 7619 19b8 2810     		.2byte	0x1028
 7620 19ba 1C       		.byte	0x1c
 7621 19bb 94       		.byte	0x94
 7622 19bc 01       		.byte	0x1
 7623 19bd 08       		.byte	0x8
 7624 19be FF       		.byte	0xff
 7625 19bf 1A       		.byte	0x1a
 7626 19c0 38       		.byte	0x38
 7627 19c1 24       		.byte	0x24
 7628 19c2 91       		.byte	0x91
 7629 19c3 00       		.sleb128 0
 7630 19c4 7A       		.byte	0x7a
 7631 19c5 00       		.sleb128 0
 7632 19c6 22       		.byte	0x22
 7633 19c7 0A       		.byte	0xa
 7634 19c8 2710     		.2byte	0x1027
 7635 19ca 1C       		.byte	0x1c
 7636 19cb 94       		.byte	0x94
 7637 19cc 01       		.byte	0x1
 7638 19cd 08       		.byte	0x8
 7639 19ce FF       		.byte	0xff
 7640 19cf 1A       		.byte	0x1a
 7641 19d0 21       		.byte	0x21
 7642 19d1 09       		.byte	0x9
 7643 19d2 F8       		.byte	0xf8
 7644 19d3 24       		.byte	0x24
 7645 19d4 09       		.byte	0x9
 7646 19d5 F8       		.byte	0xf8
 7647 19d6 25       		.byte	0x25
 7648 19d7 9F       		.byte	0x9f
 7649 19d8 2E0E0000 		.4byte	.LVL180
 7650 19dc 300E0000 		.4byte	.LVL181
 7651 19e0 0100     		.2byte	0x1
 7652 19e2 53       		.byte	0x53
 7653 19e3 300E0000 		.4byte	.LVL181
 7654 19e7 340E0000 		.4byte	.LVL183
 7655 19eb 2600     		.2byte	0x26
 7656 19ed 91       		.byte	0x91
 7657 19ee 00       		.sleb128 0
 7658 19ef 7A       		.byte	0x7a
 7659 19f0 00       		.sleb128 0
 7660 19f1 22       		.byte	0x22
 7661 19f2 0A       		.byte	0xa
 7662 19f3 2810     		.2byte	0x1028
 7663 19f5 1C       		.byte	0x1c
ARM GAS  C:\Users\info\AppData\Local\Temp\ccKQ3Zl2.s 			page 146


 7664 19f6 94       		.byte	0x94
 7665 19f7 01       		.byte	0x1
 7666 19f8 08       		.byte	0x8
 7667 19f9 FF       		.byte	0xff
 7668 19fa 1A       		.byte	0x1a
 7669 19fb 38       		.byte	0x38
 7670 19fc 24       		.byte	0x24
 7671 19fd 91       		.byte	0x91
 7672 19fe 00       		.sleb128 0
 7673 19ff 7A       		.byte	0x7a
 7674 1a00 00       		.sleb128 0
 7675 1a01 22       		.byte	0x22
 7676 1a02 0A       		.byte	0xa
 7677 1a03 2710     		.2byte	0x1027
 7678 1a05 1C       		.byte	0x1c
 7679 1a06 94       		.byte	0x94
 7680 1a07 01       		.byte	0x1
 7681 1a08 08       		.byte	0x8
 7682 1a09 FF       		.byte	0xff
 7683 1a0a 1A       		.byte	0x1a
 7684 1a0b 21       		.byte	0x21
 7685 1a0c 09       		.byte	0x9
 7686 1a0d F8       		.byte	0xf8
 7687 1a0e 24       		.byte	0x24
 7688 1a0f 09       		.byte	0x9
 7689 1a10 F8       		.byte	0xf8
 7690 1a11 25       		.byte	0x25
 7691 1a12 9F       		.byte	0x9f
 7692 1a13 340E0000 		.4byte	.LVL183
 7693 1a17 380E0000 		.4byte	.LVL185
 7694 1a1b 0100     		.2byte	0x1
 7695 1a1d 53       		.byte	0x53
 7696 1a1e 380E0000 		.4byte	.LVL185
 7697 1a22 3C0E0000 		.4byte	.LVL187
 7698 1a26 0100     		.2byte	0x1
 7699 1a28 5A       		.byte	0x5a
 7700 1a29 3C0E0000 		.4byte	.LVL187
 7701 1a2d 480E0000 		.4byte	.LVL191
 7702 1a31 2600     		.2byte	0x26
 7703 1a33 91       		.byte	0x91
 7704 1a34 00       		.sleb128 0
 7705 1a35 7A       		.byte	0x7a
 7706 1a36 00       		.sleb128 0
 7707 1a37 22       		.byte	0x22
 7708 1a38 0A       		.byte	0xa
 7709 1a39 2810     		.2byte	0x1028
 7710 1a3b 1C       		.byte	0x1c
 7711 1a3c 94       		.byte	0x94
 7712 1a3d 01       		.byte	0x1
 7713 1a3e 08       		.byte	0x8
 7714 1a3f FF       		.byte	0xff
 7715 1a40 1A       		.byte	0x1a
 7716 1a41 38       		.byte	0x38
 7717 1a42 24       		.byte	0x24
 7718 1a43 91       		.byte	0x91
 7719 1a44 00       		.sleb128 0
 7720 1a45 7A       		.byte	0x7a
ARM GAS  C:\Users\info\AppData\Local\Temp\ccKQ3Zl2.s 			page 147


 7721 1a46 00       		.sleb128 0
 7722 1a47 22       		.byte	0x22
 7723 1a48 0A       		.byte	0xa
 7724 1a49 2710     		.2byte	0x1027
 7725 1a4b 1C       		.byte	0x1c
 7726 1a4c 94       		.byte	0x94
 7727 1a4d 01       		.byte	0x1
 7728 1a4e 08       		.byte	0x8
 7729 1a4f FF       		.byte	0xff
 7730 1a50 1A       		.byte	0x1a
 7731 1a51 21       		.byte	0x21
 7732 1a52 09       		.byte	0x9
 7733 1a53 F8       		.byte	0xf8
 7734 1a54 24       		.byte	0x24
 7735 1a55 09       		.byte	0x9
 7736 1a56 F8       		.byte	0xf8
 7737 1a57 25       		.byte	0x25
 7738 1a58 9F       		.byte	0x9f
 7739 1a59 480E0000 		.4byte	.LVL191
 7740 1a5d 4A0E0000 		.4byte	.LVL192
 7741 1a61 0100     		.2byte	0x1
 7742 1a63 53       		.byte	0x53
 7743 1a64 4A0E0000 		.4byte	.LVL192
 7744 1a68 540E0000 		.4byte	.LVL194
 7745 1a6c 2600     		.2byte	0x26
 7746 1a6e 91       		.byte	0x91
 7747 1a6f 00       		.sleb128 0
 7748 1a70 7A       		.byte	0x7a
 7749 1a71 00       		.sleb128 0
 7750 1a72 22       		.byte	0x22
 7751 1a73 0A       		.byte	0xa
 7752 1a74 2810     		.2byte	0x1028
 7753 1a76 1C       		.byte	0x1c
 7754 1a77 94       		.byte	0x94
 7755 1a78 01       		.byte	0x1
 7756 1a79 08       		.byte	0x8
 7757 1a7a FF       		.byte	0xff
 7758 1a7b 1A       		.byte	0x1a
 7759 1a7c 38       		.byte	0x38
 7760 1a7d 24       		.byte	0x24
 7761 1a7e 91       		.byte	0x91
 7762 1a7f 00       		.sleb128 0
 7763 1a80 7A       		.byte	0x7a
 7764 1a81 00       		.sleb128 0
 7765 1a82 22       		.byte	0x22
 7766 1a83 0A       		.byte	0xa
 7767 1a84 2710     		.2byte	0x1027
 7768 1a86 1C       		.byte	0x1c
 7769 1a87 94       		.byte	0x94
 7770 1a88 01       		.byte	0x1
 7771 1a89 08       		.byte	0x8
 7772 1a8a FF       		.byte	0xff
 7773 1a8b 1A       		.byte	0x1a
 7774 1a8c 21       		.byte	0x21
 7775 1a8d 09       		.byte	0x9
 7776 1a8e F8       		.byte	0xf8
 7777 1a8f 24       		.byte	0x24
ARM GAS  C:\Users\info\AppData\Local\Temp\ccKQ3Zl2.s 			page 148


 7778 1a90 09       		.byte	0x9
 7779 1a91 F8       		.byte	0xf8
 7780 1a92 25       		.byte	0x25
 7781 1a93 9F       		.byte	0x9f
 7782 1a94 540E0000 		.4byte	.LVL194
 7783 1a98 560E0000 		.4byte	.LVL195
 7784 1a9c 0100     		.2byte	0x1
 7785 1a9e 53       		.byte	0x53
 7786 1a9f 560E0000 		.4byte	.LVL195
 7787 1aa3 660E0000 		.4byte	.LVL199
 7788 1aa7 2600     		.2byte	0x26
 7789 1aa9 91       		.byte	0x91
 7790 1aaa 00       		.sleb128 0
 7791 1aab 7A       		.byte	0x7a
 7792 1aac 00       		.sleb128 0
 7793 1aad 22       		.byte	0x22
 7794 1aae 0A       		.byte	0xa
 7795 1aaf 2810     		.2byte	0x1028
 7796 1ab1 1C       		.byte	0x1c
 7797 1ab2 94       		.byte	0x94
 7798 1ab3 01       		.byte	0x1
 7799 1ab4 08       		.byte	0x8
 7800 1ab5 FF       		.byte	0xff
 7801 1ab6 1A       		.byte	0x1a
 7802 1ab7 38       		.byte	0x38
 7803 1ab8 24       		.byte	0x24
 7804 1ab9 91       		.byte	0x91
 7805 1aba 00       		.sleb128 0
 7806 1abb 7A       		.byte	0x7a
 7807 1abc 00       		.sleb128 0
 7808 1abd 22       		.byte	0x22
 7809 1abe 0A       		.byte	0xa
 7810 1abf 2710     		.2byte	0x1027
 7811 1ac1 1C       		.byte	0x1c
 7812 1ac2 94       		.byte	0x94
 7813 1ac3 01       		.byte	0x1
 7814 1ac4 08       		.byte	0x8
 7815 1ac5 FF       		.byte	0xff
 7816 1ac6 1A       		.byte	0x1a
 7817 1ac7 21       		.byte	0x21
 7818 1ac8 09       		.byte	0x9
 7819 1ac9 F8       		.byte	0xf8
 7820 1aca 24       		.byte	0x24
 7821 1acb 09       		.byte	0x9
 7822 1acc F8       		.byte	0xf8
 7823 1acd 25       		.byte	0x25
 7824 1ace 9F       		.byte	0x9f
 7825 1acf 660E0000 		.4byte	.LVL199
 7826 1ad3 680E0000 		.4byte	.LVL200
 7827 1ad7 0100     		.2byte	0x1
 7828 1ad9 53       		.byte	0x53
 7829 1ada 680E0000 		.4byte	.LVL200
 7830 1ade 780E0000 		.4byte	.LVL202
 7831 1ae2 2600     		.2byte	0x26
 7832 1ae4 91       		.byte	0x91
 7833 1ae5 00       		.sleb128 0
 7834 1ae6 7A       		.byte	0x7a
ARM GAS  C:\Users\info\AppData\Local\Temp\ccKQ3Zl2.s 			page 149


 7835 1ae7 00       		.sleb128 0
 7836 1ae8 22       		.byte	0x22
 7837 1ae9 0A       		.byte	0xa
 7838 1aea 2810     		.2byte	0x1028
 7839 1aec 1C       		.byte	0x1c
 7840 1aed 94       		.byte	0x94
 7841 1aee 01       		.byte	0x1
 7842 1aef 08       		.byte	0x8
 7843 1af0 FF       		.byte	0xff
 7844 1af1 1A       		.byte	0x1a
 7845 1af2 38       		.byte	0x38
 7846 1af3 24       		.byte	0x24
 7847 1af4 91       		.byte	0x91
 7848 1af5 00       		.sleb128 0
 7849 1af6 7A       		.byte	0x7a
 7850 1af7 00       		.sleb128 0
 7851 1af8 22       		.byte	0x22
 7852 1af9 0A       		.byte	0xa
 7853 1afa 2710     		.2byte	0x1027
 7854 1afc 1C       		.byte	0x1c
 7855 1afd 94       		.byte	0x94
 7856 1afe 01       		.byte	0x1
 7857 1aff 08       		.byte	0x8
 7858 1b00 FF       		.byte	0xff
 7859 1b01 1A       		.byte	0x1a
 7860 1b02 21       		.byte	0x21
 7861 1b03 09       		.byte	0x9
 7862 1b04 F8       		.byte	0xf8
 7863 1b05 24       		.byte	0x24
 7864 1b06 09       		.byte	0x9
 7865 1b07 F8       		.byte	0xf8
 7866 1b08 25       		.byte	0x25
 7867 1b09 9F       		.byte	0x9f
 7868 1b0a 780E0000 		.4byte	.LVL202
 7869 1b0e 7A0E0000 		.4byte	.LVL203
 7870 1b12 0100     		.2byte	0x1
 7871 1b14 53       		.byte	0x53
 7872 1b15 7A0E0000 		.4byte	.LVL203
 7873 1b19 7C0E0000 		.4byte	.LVL204
 7874 1b1d 2600     		.2byte	0x26
 7875 1b1f 91       		.byte	0x91
 7876 1b20 00       		.sleb128 0
 7877 1b21 7A       		.byte	0x7a
 7878 1b22 00       		.sleb128 0
 7879 1b23 22       		.byte	0x22
 7880 1b24 0A       		.byte	0xa
 7881 1b25 2810     		.2byte	0x1028
 7882 1b27 1C       		.byte	0x1c
 7883 1b28 94       		.byte	0x94
 7884 1b29 01       		.byte	0x1
 7885 1b2a 08       		.byte	0x8
 7886 1b2b FF       		.byte	0xff
 7887 1b2c 1A       		.byte	0x1a
 7888 1b2d 38       		.byte	0x38
 7889 1b2e 24       		.byte	0x24
 7890 1b2f 91       		.byte	0x91
 7891 1b30 00       		.sleb128 0
ARM GAS  C:\Users\info\AppData\Local\Temp\ccKQ3Zl2.s 			page 150


 7892 1b31 7A       		.byte	0x7a
 7893 1b32 00       		.sleb128 0
 7894 1b33 22       		.byte	0x22
 7895 1b34 0A       		.byte	0xa
 7896 1b35 2710     		.2byte	0x1027
 7897 1b37 1C       		.byte	0x1c
 7898 1b38 94       		.byte	0x94
 7899 1b39 01       		.byte	0x1
 7900 1b3a 08       		.byte	0x8
 7901 1b3b FF       		.byte	0xff
 7902 1b3c 1A       		.byte	0x1a
 7903 1b3d 21       		.byte	0x21
 7904 1b3e 09       		.byte	0x9
 7905 1b3f F8       		.byte	0xf8
 7906 1b40 24       		.byte	0x24
 7907 1b41 09       		.byte	0x9
 7908 1b42 F8       		.byte	0xf8
 7909 1b43 25       		.byte	0x25
 7910 1b44 9F       		.byte	0x9f
 7911 1b45 00000000 		.4byte	0
 7912 1b49 00000000 		.4byte	0
 7913              	.LLST9:
 7914 1b4d 8C090000 		.4byte	.LVL18
 7915 1b51 B20B0000 		.4byte	.LVL103
 7916 1b55 0100     		.2byte	0x1
 7917 1b57 54       		.byte	0x54
 7918 1b58 B20B0000 		.4byte	.LVL103
 7919 1b5c 880C0000 		.4byte	.LVL114
 7920 1b60 0300     		.2byte	0x3
 7921 1b62 91       		.byte	0x91
 7922 1b63 A45F     		.sleb128 -4188
 7923 1b65 880C0000 		.4byte	.LVL114
 7924 1b69 9A0C0000 		.4byte	.LVL119
 7925 1b6d 0100     		.2byte	0x1
 7926 1b6f 54       		.byte	0x54
 7927 1b70 9A0C0000 		.4byte	.LVL119
 7928 1b74 BC0C0000 		.4byte	.LVL120
 7929 1b78 0300     		.2byte	0x3
 7930 1b7a 91       		.byte	0x91
 7931 1b7b A45F     		.sleb128 -4188
 7932 1b7d BC0C0000 		.4byte	.LVL120
 7933 1b81 BC0D0000 		.4byte	.LVL157
 7934 1b85 0100     		.2byte	0x1
 7935 1b87 54       		.byte	0x54
 7936 1b88 E40D0000 		.4byte	.LVL159
 7937 1b8c 7C0E0000 		.4byte	.LVL204
 7938 1b90 0100     		.2byte	0x1
 7939 1b92 54       		.byte	0x54
 7940 1b93 00000000 		.4byte	0
 7941 1b97 00000000 		.4byte	0
 7942              	.LLST10:
 7943 1b9b 90090000 		.4byte	.LVL19
 7944 1b9f B80D0000 		.4byte	.LVL156
 7945 1ba3 0100     		.2byte	0x1
 7946 1ba5 55       		.byte	0x55
 7947 1ba6 E40D0000 		.4byte	.LVL159
 7948 1baa 7C0E0000 		.4byte	.LVL204
ARM GAS  C:\Users\info\AppData\Local\Temp\ccKQ3Zl2.s 			page 151


 7949 1bae 0100     		.2byte	0x1
 7950 1bb0 55       		.byte	0x55
 7951 1bb1 00000000 		.4byte	0
 7952 1bb5 00000000 		.4byte	0
 7953              	.LLST11:
 7954 1bb9 90090000 		.4byte	.LVL19
 7955 1bbd B00A0000 		.4byte	.LVL70
 7956 1bc1 0100     		.2byte	0x1
 7957 1bc3 56       		.byte	0x56
 7958 1bc4 B00A0000 		.4byte	.LVL70
 7959 1bc8 B80A0000 		.4byte	.LVL71
 7960 1bcc 2000     		.2byte	0x20
 7961 1bce 91       		.byte	0x91
 7962 1bcf 00       		.sleb128 0
 7963 1bd0 7A       		.byte	0x7a
 7964 1bd1 00       		.sleb128 0
 7965 1bd2 22       		.byte	0x22
 7966 1bd3 0A       		.byte	0xa
 7967 1bd4 2810     		.2byte	0x1028
 7968 1bd6 1C       		.byte	0x1c
 7969 1bd7 94       		.byte	0x94
 7970 1bd8 01       		.byte	0x1
 7971 1bd9 08       		.byte	0x8
 7972 1bda FF       		.byte	0xff
 7973 1bdb 1A       		.byte	0x1a
 7974 1bdc 38       		.byte	0x38
 7975 1bdd 24       		.byte	0x24
 7976 1bde 91       		.byte	0x91
 7977 1bdf 00       		.sleb128 0
 7978 1be0 7A       		.byte	0x7a
 7979 1be1 00       		.sleb128 0
 7980 1be2 22       		.byte	0x22
 7981 1be3 0A       		.byte	0xa
 7982 1be4 2710     		.2byte	0x1027
 7983 1be6 1C       		.byte	0x1c
 7984 1be7 94       		.byte	0x94
 7985 1be8 01       		.byte	0x1
 7986 1be9 08       		.byte	0x8
 7987 1bea FF       		.byte	0xff
 7988 1beb 1A       		.byte	0x1a
 7989 1bec 21       		.byte	0x21
 7990 1bed 9F       		.byte	0x9f
 7991 1bee B80A0000 		.4byte	.LVL71
 7992 1bf2 B20B0000 		.4byte	.LVL103
 7993 1bf6 0100     		.2byte	0x1
 7994 1bf8 56       		.byte	0x56
 7995 1bf9 B20B0000 		.4byte	.LVL103
 7996 1bfd C20B0000 		.4byte	.LVL104
 7997 1c01 2000     		.2byte	0x20
 7998 1c03 91       		.byte	0x91
 7999 1c04 00       		.sleb128 0
 8000 1c05 7A       		.byte	0x7a
 8001 1c06 00       		.sleb128 0
 8002 1c07 22       		.byte	0x22
 8003 1c08 0A       		.byte	0xa
 8004 1c09 2810     		.2byte	0x1028
 8005 1c0b 1C       		.byte	0x1c
ARM GAS  C:\Users\info\AppData\Local\Temp\ccKQ3Zl2.s 			page 152


 8006 1c0c 94       		.byte	0x94
 8007 1c0d 01       		.byte	0x1
 8008 1c0e 08       		.byte	0x8
 8009 1c0f FF       		.byte	0xff
 8010 1c10 1A       		.byte	0x1a
 8011 1c11 38       		.byte	0x38
 8012 1c12 24       		.byte	0x24
 8013 1c13 91       		.byte	0x91
 8014 1c14 00       		.sleb128 0
 8015 1c15 7A       		.byte	0x7a
 8016 1c16 00       		.sleb128 0
 8017 1c17 22       		.byte	0x22
 8018 1c18 0A       		.byte	0xa
 8019 1c19 2710     		.2byte	0x1027
 8020 1c1b 1C       		.byte	0x1c
 8021 1c1c 94       		.byte	0x94
 8022 1c1d 01       		.byte	0x1
 8023 1c1e 08       		.byte	0x8
 8024 1c1f FF       		.byte	0xff
 8025 1c20 1A       		.byte	0x1a
 8026 1c21 21       		.byte	0x21
 8027 1c22 9F       		.byte	0x9f
 8028 1c23 C20B0000 		.4byte	.LVL104
 8029 1c27 C40B0000 		.4byte	.LVL105
 8030 1c2b 1A00     		.2byte	0x1a
 8031 1c2d 72       		.byte	0x72
 8032 1c2e 00       		.sleb128 0
 8033 1c2f 7A       		.byte	0x7a
 8034 1c30 00       		.sleb128 0
 8035 1c31 22       		.byte	0x22
 8036 1c32 94       		.byte	0x94
 8037 1c33 01       		.byte	0x1
 8038 1c34 08       		.byte	0x8
 8039 1c35 FF       		.byte	0xff
 8040 1c36 1A       		.byte	0x1a
 8041 1c37 38       		.byte	0x38
 8042 1c38 24       		.byte	0x24
 8043 1c39 72       		.byte	0x72
 8044 1c3a 00       		.sleb128 0
 8045 1c3b 7A       		.byte	0x7a
 8046 1c3c 00       		.sleb128 0
 8047 1c3d 22       		.byte	0x22
 8048 1c3e 23       		.byte	0x23
 8049 1c3f 01       		.uleb128 0x1
 8050 1c40 94       		.byte	0x94
 8051 1c41 01       		.byte	0x1
 8052 1c42 08       		.byte	0x8
 8053 1c43 FF       		.byte	0xff
 8054 1c44 1A       		.byte	0x1a
 8055 1c45 21       		.byte	0x21
 8056 1c46 9F       		.byte	0x9f
 8057 1c47 C40B0000 		.4byte	.LVL105
 8058 1c4b F60B0000 		.4byte	.LVL108
 8059 1c4f 2000     		.2byte	0x20
 8060 1c51 91       		.byte	0x91
 8061 1c52 00       		.sleb128 0
 8062 1c53 7A       		.byte	0x7a
ARM GAS  C:\Users\info\AppData\Local\Temp\ccKQ3Zl2.s 			page 153


 8063 1c54 00       		.sleb128 0
 8064 1c55 22       		.byte	0x22
 8065 1c56 0A       		.byte	0xa
 8066 1c57 2810     		.2byte	0x1028
 8067 1c59 1C       		.byte	0x1c
 8068 1c5a 94       		.byte	0x94
 8069 1c5b 01       		.byte	0x1
 8070 1c5c 08       		.byte	0x8
 8071 1c5d FF       		.byte	0xff
 8072 1c5e 1A       		.byte	0x1a
 8073 1c5f 38       		.byte	0x38
 8074 1c60 24       		.byte	0x24
 8075 1c61 91       		.byte	0x91
 8076 1c62 00       		.sleb128 0
 8077 1c63 7A       		.byte	0x7a
 8078 1c64 00       		.sleb128 0
 8079 1c65 22       		.byte	0x22
 8080 1c66 0A       		.byte	0xa
 8081 1c67 2710     		.2byte	0x1027
 8082 1c69 1C       		.byte	0x1c
 8083 1c6a 94       		.byte	0x94
 8084 1c6b 01       		.byte	0x1
 8085 1c6c 08       		.byte	0x8
 8086 1c6d FF       		.byte	0xff
 8087 1c6e 1A       		.byte	0x1a
 8088 1c6f 21       		.byte	0x21
 8089 1c70 9F       		.byte	0x9f
 8090 1c71 F60B0000 		.4byte	.LVL108
 8091 1c75 F80B0000 		.4byte	.LVL109
 8092 1c79 1A00     		.2byte	0x1a
 8093 1c7b 72       		.byte	0x72
 8094 1c7c 00       		.sleb128 0
 8095 1c7d 7A       		.byte	0x7a
 8096 1c7e 00       		.sleb128 0
 8097 1c7f 22       		.byte	0x22
 8098 1c80 94       		.byte	0x94
 8099 1c81 01       		.byte	0x1
 8100 1c82 08       		.byte	0x8
 8101 1c83 FF       		.byte	0xff
 8102 1c84 1A       		.byte	0x1a
 8103 1c85 38       		.byte	0x38
 8104 1c86 24       		.byte	0x24
 8105 1c87 72       		.byte	0x72
 8106 1c88 00       		.sleb128 0
 8107 1c89 7A       		.byte	0x7a
 8108 1c8a 00       		.sleb128 0
 8109 1c8b 22       		.byte	0x22
 8110 1c8c 23       		.byte	0x23
 8111 1c8d 01       		.uleb128 0x1
 8112 1c8e 94       		.byte	0x94
 8113 1c8f 01       		.byte	0x1
 8114 1c90 08       		.byte	0x8
 8115 1c91 FF       		.byte	0xff
 8116 1c92 1A       		.byte	0x1a
 8117 1c93 21       		.byte	0x21
 8118 1c94 9F       		.byte	0x9f
 8119 1c95 F80B0000 		.4byte	.LVL109
ARM GAS  C:\Users\info\AppData\Local\Temp\ccKQ3Zl2.s 			page 154


 8120 1c99 880C0000 		.4byte	.LVL114
 8121 1c9d 2000     		.2byte	0x20
 8122 1c9f 91       		.byte	0x91
 8123 1ca0 00       		.sleb128 0
 8124 1ca1 7A       		.byte	0x7a
 8125 1ca2 00       		.sleb128 0
 8126 1ca3 22       		.byte	0x22
 8127 1ca4 0A       		.byte	0xa
 8128 1ca5 2810     		.2byte	0x1028
 8129 1ca7 1C       		.byte	0x1c
 8130 1ca8 94       		.byte	0x94
 8131 1ca9 01       		.byte	0x1
 8132 1caa 08       		.byte	0x8
 8133 1cab FF       		.byte	0xff
 8134 1cac 1A       		.byte	0x1a
 8135 1cad 38       		.byte	0x38
 8136 1cae 24       		.byte	0x24
 8137 1caf 91       		.byte	0x91
 8138 1cb0 00       		.sleb128 0
 8139 1cb1 7A       		.byte	0x7a
 8140 1cb2 00       		.sleb128 0
 8141 1cb3 22       		.byte	0x22
 8142 1cb4 0A       		.byte	0xa
 8143 1cb5 2710     		.2byte	0x1027
 8144 1cb7 1C       		.byte	0x1c
 8145 1cb8 94       		.byte	0x94
 8146 1cb9 01       		.byte	0x1
 8147 1cba 08       		.byte	0x8
 8148 1cbb FF       		.byte	0xff
 8149 1cbc 1A       		.byte	0x1a
 8150 1cbd 21       		.byte	0x21
 8151 1cbe 9F       		.byte	0x9f
 8152 1cbf 880C0000 		.4byte	.LVL114
 8153 1cc3 8A0C0000 		.4byte	.LVL115
 8154 1cc7 0100     		.2byte	0x1
 8155 1cc9 56       		.byte	0x56
 8156 1cca 8A0C0000 		.4byte	.LVL115
 8157 1cce BC0C0000 		.4byte	.LVL120
 8158 1cd2 2000     		.2byte	0x20
 8159 1cd4 91       		.byte	0x91
 8160 1cd5 00       		.sleb128 0
 8161 1cd6 7A       		.byte	0x7a
 8162 1cd7 00       		.sleb128 0
 8163 1cd8 22       		.byte	0x22
 8164 1cd9 0A       		.byte	0xa
 8165 1cda 2810     		.2byte	0x1028
 8166 1cdc 1C       		.byte	0x1c
 8167 1cdd 94       		.byte	0x94
 8168 1cde 01       		.byte	0x1
 8169 1cdf 08       		.byte	0x8
 8170 1ce0 FF       		.byte	0xff
 8171 1ce1 1A       		.byte	0x1a
 8172 1ce2 38       		.byte	0x38
 8173 1ce3 24       		.byte	0x24
 8174 1ce4 91       		.byte	0x91
 8175 1ce5 00       		.sleb128 0
 8176 1ce6 7A       		.byte	0x7a
ARM GAS  C:\Users\info\AppData\Local\Temp\ccKQ3Zl2.s 			page 155


 8177 1ce7 00       		.sleb128 0
 8178 1ce8 22       		.byte	0x22
 8179 1ce9 0A       		.byte	0xa
 8180 1cea 2710     		.2byte	0x1027
 8181 1cec 1C       		.byte	0x1c
 8182 1ced 94       		.byte	0x94
 8183 1cee 01       		.byte	0x1
 8184 1cef 08       		.byte	0x8
 8185 1cf0 FF       		.byte	0xff
 8186 1cf1 1A       		.byte	0x1a
 8187 1cf2 21       		.byte	0x21
 8188 1cf3 9F       		.byte	0x9f
 8189 1cf4 BC0C0000 		.4byte	.LVL120
 8190 1cf8 C40D0000 		.4byte	.LVL158
 8191 1cfc 0100     		.2byte	0x1
 8192 1cfe 56       		.byte	0x56
 8193 1cff E40D0000 		.4byte	.LVL159
 8194 1d03 7C0E0000 		.4byte	.LVL204
 8195 1d07 0100     		.2byte	0x1
 8196 1d09 56       		.byte	0x56
 8197 1d0a 00000000 		.4byte	0
 8198 1d0e 00000000 		.4byte	0
 8199              	.LLST12:
 8200 1d12 90090000 		.4byte	.LVL19
 8201 1d16 7C0E0000 		.4byte	.LVL204
 8202 1d1a 0200     		.2byte	0x2
 8203 1d1c 30       		.byte	0x30
 8204 1d1d 9F       		.byte	0x9f
 8205 1d1e 7C0E0000 		.4byte	.LVL204
 8206 1d22 7E0E0000 		.4byte	.LVL205
 8207 1d26 0100     		.2byte	0x1
 8208 1d28 52       		.byte	0x52
 8209 1d29 980E0000 		.4byte	.LVL210
 8210 1d2d BC0E0000 		.4byte	.LFE64
 8211 1d31 0100     		.2byte	0x1
 8212 1d33 52       		.byte	0x52
 8213 1d34 00000000 		.4byte	0
 8214 1d38 00000000 		.4byte	0
 8215              	.LLST13:
 8216 1d3c 90090000 		.4byte	.LVL19
 8217 1d40 000A0000 		.4byte	.LVL32
 8218 1d44 0200     		.2byte	0x2
 8219 1d46 30       		.byte	0x30
 8220 1d47 9F       		.byte	0x9f
 8221 1d48 000A0000 		.4byte	.LVL32
 8222 1d4c 060A0000 		.4byte	.LVL34
 8223 1d50 0200     		.2byte	0x2
 8224 1d52 31       		.byte	0x31
 8225 1d53 9F       		.byte	0x9f
 8226 1d54 060A0000 		.4byte	.LVL34
 8227 1d58 0C0A0000 		.4byte	.LVL36
 8228 1d5c 0200     		.2byte	0x2
 8229 1d5e 30       		.byte	0x30
 8230 1d5f 9F       		.byte	0x9f
 8231 1d60 0C0A0000 		.4byte	.LVL36
 8232 1d64 120A0000 		.4byte	.LVL39
 8233 1d68 0200     		.2byte	0x2
ARM GAS  C:\Users\info\AppData\Local\Temp\ccKQ3Zl2.s 			page 156


 8234 1d6a 31       		.byte	0x31
 8235 1d6b 9F       		.byte	0x9f
 8236 1d6c 120A0000 		.4byte	.LVL39
 8237 1d70 7C0E0000 		.4byte	.LVL204
 8238 1d74 0200     		.2byte	0x2
 8239 1d76 30       		.byte	0x30
 8240 1d77 9F       		.byte	0x9f
 8241 1d78 7C0E0000 		.4byte	.LVL204
 8242 1d7c 7E0E0000 		.4byte	.LVL205
 8243 1d80 0100     		.2byte	0x1
 8244 1d82 53       		.byte	0x53
 8245 1d83 980E0000 		.4byte	.LVL210
 8246 1d87 BC0E0000 		.4byte	.LFE64
 8247 1d8b 0100     		.2byte	0x1
 8248 1d8d 53       		.byte	0x53
 8249 1d8e 00000000 		.4byte	0
 8250 1d92 00000000 		.4byte	0
 8251              	.LLST14:
 8252 1d96 CE090000 		.4byte	.LVL23
 8253 1d9a E0090000 		.4byte	.LVL25
 8254 1d9e 0100     		.2byte	0x1
 8255 1da0 53       		.byte	0x53
 8256 1da1 E2090000 		.4byte	.LVL26
 8257 1da5 E8090000 		.4byte	.LVL27
 8258 1da9 0100     		.2byte	0x1
 8259 1dab 53       		.byte	0x53
 8260 1dac 00000000 		.4byte	0
 8261 1db0 00000000 		.4byte	0
 8262              	.LLST15:
 8263 1db4 300B0000 		.4byte	.LVL84
 8264 1db8 4C0B0000 		.4byte	.LVL88
 8265 1dbc 0100     		.2byte	0x1
 8266 1dbe 51       		.byte	0x51
 8267 1dbf 00000000 		.4byte	0
 8268 1dc3 00000000 		.4byte	0
 8269              	.LLST16:
 8270 1dc7 320B0000 		.4byte	.LVL85
 8271 1dcb 4C0B0000 		.4byte	.LVL88
 8272 1dcf 0100     		.2byte	0x1
 8273 1dd1 50       		.byte	0x50
 8274 1dd2 00000000 		.4byte	0
 8275 1dd6 00000000 		.4byte	0
 8276              	.LLST17:
 8277 1dda 340B0000 		.4byte	.LVL86
 8278 1dde 3A0B0000 		.4byte	.LVL87
 8279 1de2 0100     		.2byte	0x1
 8280 1de4 53       		.byte	0x53
 8281 1de5 3A0B0000 		.4byte	.LVL87
 8282 1de9 4C0B0000 		.4byte	.LVL88
 8283 1ded 0600     		.2byte	0x6
 8284 1def 71       		.byte	0x71
 8285 1df0 00       		.sleb128 0
 8286 1df1 70       		.byte	0x70
 8287 1df2 00       		.sleb128 0
 8288 1df3 1C       		.byte	0x1c
 8289 1df4 9F       		.byte	0x9f
 8290 1df5 00000000 		.4byte	0
ARM GAS  C:\Users\info\AppData\Local\Temp\ccKQ3Zl2.s 			page 157


 8291 1df9 00000000 		.4byte	0
 8292              	.LLST18:
 8293 1dfd 680B0000 		.4byte	.LVL92
 8294 1e01 840B0000 		.4byte	.LVL96
 8295 1e05 0100     		.2byte	0x1
 8296 1e07 50       		.byte	0x50
 8297 1e08 00000000 		.4byte	0
 8298 1e0c 00000000 		.4byte	0
 8299              	.LLST19:
 8300 1e10 6A0B0000 		.4byte	.LVL93
 8301 1e14 840B0000 		.4byte	.LVL96
 8302 1e18 0100     		.2byte	0x1
 8303 1e1a 51       		.byte	0x51
 8304 1e1b 00000000 		.4byte	0
 8305 1e1f 00000000 		.4byte	0
 8306              	.LLST20:
 8307 1e23 6C0B0000 		.4byte	.LVL94
 8308 1e27 720B0000 		.4byte	.LVL95
 8309 1e2b 0100     		.2byte	0x1
 8310 1e2d 53       		.byte	0x53
 8311 1e2e 720B0000 		.4byte	.LVL95
 8312 1e32 840B0000 		.4byte	.LVL96
 8313 1e36 0600     		.2byte	0x6
 8314 1e38 71       		.byte	0x71
 8315 1e39 00       		.sleb128 0
 8316 1e3a 70       		.byte	0x70
 8317 1e3b 00       		.sleb128 0
 8318 1e3c 1C       		.byte	0x1c
 8319 1e3d 9F       		.byte	0x9f
 8320 1e3e 00000000 		.4byte	0
 8321 1e42 00000000 		.4byte	0
 8322              	.LLST21:
 8323 1e46 B20B0000 		.4byte	.LVL103
 8324 1e4a 740C0000 		.4byte	.LVL111
 8325 1e4e 0300     		.2byte	0x3
 8326 1e50 91       		.byte	0x91
 8327 1e51 885F     		.sleb128 -4216
 8328 1e53 740C0000 		.4byte	.LVL111
 8329 1e57 800C0000 		.4byte	.LVL112
 8330 1e5b 0600     		.2byte	0x6
 8331 1e5d 53       		.byte	0x53
 8332 1e5e 93       		.byte	0x93
 8333 1e5f 04       		.uleb128 0x4
 8334 1e60 54       		.byte	0x54
 8335 1e61 93       		.byte	0x93
 8336 1e62 04       		.uleb128 0x4
 8337 1e63 800C0000 		.4byte	.LVL112
 8338 1e67 880C0000 		.4byte	.LVL114
 8339 1e6b 0300     		.2byte	0x3
 8340 1e6d 91       		.byte	0x91
 8341 1e6e 885F     		.sleb128 -4216
 8342 1e70 9A0C0000 		.4byte	.LVL119
 8343 1e74 BC0C0000 		.4byte	.LVL120
 8344 1e78 0300     		.2byte	0x3
 8345 1e7a 91       		.byte	0x91
 8346 1e7b 885F     		.sleb128 -4216
 8347 1e7d 00000000 		.4byte	0
ARM GAS  C:\Users\info\AppData\Local\Temp\ccKQ3Zl2.s 			page 158


 8348 1e81 00000000 		.4byte	0
 8349              	.LLST22:
 8350 1e85 B20B0000 		.4byte	.LVL103
 8351 1e89 880C0000 		.4byte	.LVL114
 8352 1e8d 0100     		.2byte	0x1
 8353 1e8f 56       		.byte	0x56
 8354 1e90 9A0C0000 		.4byte	.LVL119
 8355 1e94 BC0C0000 		.4byte	.LVL120
 8356 1e98 0100     		.2byte	0x1
 8357 1e9a 56       		.byte	0x56
 8358 1e9b 00000000 		.4byte	0
 8359 1e9f 00000000 		.4byte	0
 8360              	.LLST23:
 8361 1ea3 B20B0000 		.4byte	.LVL103
 8362 1ea7 E80B0000 		.4byte	.LVL106
 8363 1eab 0A00     		.2byte	0xa
 8364 1ead 9E       		.byte	0x9e
 8365 1eae 08       		.uleb128 0x8
 8366 1eaf 00000000 		.8byte	0
 8366      00000000 
 8367 1eb7 E80B0000 		.4byte	.LVL106
 8368 1ebb F00B0000 		.4byte	.LVL107
 8369 1ebf 0600     		.2byte	0x6
 8370 1ec1 58       		.byte	0x58
 8371 1ec2 93       		.byte	0x93
 8372 1ec3 04       		.uleb128 0x4
 8373 1ec4 59       		.byte	0x59
 8374 1ec5 93       		.byte	0x93
 8375 1ec6 04       		.uleb128 0x4
 8376 1ec7 F00B0000 		.4byte	.LVL107
 8377 1ecb 3A0C0000 		.4byte	.LVL110
 8378 1ecf 0A00     		.2byte	0xa
 8379 1ed1 9E       		.byte	0x9e
 8380 1ed2 08       		.uleb128 0x8
 8381 1ed3 00000000 		.8byte	0
 8381      00000000 
 8382 1edb 3A0C0000 		.4byte	.LVL110
 8383 1edf 880C0000 		.4byte	.LVL114
 8384 1ee3 0600     		.2byte	0x6
 8385 1ee5 58       		.byte	0x58
 8386 1ee6 93       		.byte	0x93
 8387 1ee7 04       		.uleb128 0x4
 8388 1ee8 59       		.byte	0x59
 8389 1ee9 93       		.byte	0x93
 8390 1eea 04       		.uleb128 0x4
 8391 1eeb 00000000 		.4byte	0
 8392 1eef 00000000 		.4byte	0
 8393              	.LLST24:
 8394 1ef3 E40D0000 		.4byte	.LVL159
 8395 1ef7 F20D0000 		.4byte	.LVL160
 8396 1efb 0100     		.2byte	0x1
 8397 1efd 53       		.byte	0x53
 8398 1efe F40D0000 		.4byte	.LVL161
 8399 1f02 F60D0000 		.4byte	.LVL162
 8400 1f06 0100     		.2byte	0x1
 8401 1f08 53       		.byte	0x53
 8402 1f09 F80D0000 		.4byte	.LVL163
ARM GAS  C:\Users\info\AppData\Local\Temp\ccKQ3Zl2.s 			page 159


 8403 1f0d FE0D0000 		.4byte	.LVL164
 8404 1f11 0100     		.2byte	0x1
 8405 1f13 53       		.byte	0x53
 8406 1f14 00000000 		.4byte	0
 8407 1f18 00000000 		.4byte	0
 8408              	.LLST25:
 8409 1f1c 020E0000 		.4byte	.LVL165
 8410 1f20 100E0000 		.4byte	.LVL168
 8411 1f24 0100     		.2byte	0x1
 8412 1f26 53       		.byte	0x53
 8413 1f27 120E0000 		.4byte	.LVL169
 8414 1f2b 140E0000 		.4byte	.LVL170
 8415 1f2f 0100     		.2byte	0x1
 8416 1f31 53       		.byte	0x53
 8417 1f32 160E0000 		.4byte	.LVL171
 8418 1f36 1C0E0000 		.4byte	.LVL172
 8419 1f3a 0100     		.2byte	0x1
 8420 1f3c 53       		.byte	0x53
 8421 1f3d 00000000 		.4byte	0
 8422 1f41 00000000 		.4byte	0
 8423              		.section	.debug_aranges,"",%progbits
 8424 0000 24000000 		.4byte	0x24
 8425 0004 0200     		.2byte	0x2
 8426 0006 00000000 		.4byte	.Ldebug_info0
 8427 000a 04       		.byte	0x4
 8428 000b 00       		.byte	0
 8429 000c 0000     		.2byte	0
 8430 000e 0000     		.2byte	0
 8431 0010 00000000 		.4byte	.LFB63
 8432 0014 34000000 		.4byte	.LFE63-.LFB63
 8433 0018 00000000 		.4byte	.LFB64
 8434 001c BC0E0000 		.4byte	.LFE64-.LFB64
 8435 0020 00000000 		.4byte	0
 8436 0024 00000000 		.4byte	0
 8437              		.section	.debug_ranges,"",%progbits
 8438              	.Ldebug_ranges0:
 8439 0000 CE090000 		.4byte	.LBB4
 8440 0004 E0090000 		.4byte	.LBE4
 8441 0008 E2090000 		.4byte	.LBB5
 8442 000c E6090000 		.4byte	.LBE5
 8443 0010 00000000 		.4byte	0
 8444 0014 00000000 		.4byte	0
 8445 0018 2C0B0000 		.4byte	.LBB6
 8446 001c 460B0000 		.4byte	.LBE6
 8447 0020 4A0B0000 		.4byte	.LBB7
 8448 0024 4C0B0000 		.4byte	.LBE7
 8449 0028 00000000 		.4byte	0
 8450 002c 00000000 		.4byte	0
 8451 0030 640B0000 		.4byte	.LBB8
 8452 0034 7E0B0000 		.4byte	.LBE8
 8453 0038 820B0000 		.4byte	.LBB9
 8454 003c 840B0000 		.4byte	.LBE9
 8455 0040 00000000 		.4byte	0
 8456 0044 00000000 		.4byte	0
 8457 0048 B20B0000 		.4byte	.LBB10
 8458 004c 880C0000 		.4byte	.LBE10
 8459 0050 9A0C0000 		.4byte	.LBB14
ARM GAS  C:\Users\info\AppData\Local\Temp\ccKQ3Zl2.s 			page 160


 8460 0054 B60C0000 		.4byte	.LBE14
 8461 0058 BA0C0000 		.4byte	.LBB15
 8462 005c BC0C0000 		.4byte	.LBE15
 8463 0060 00000000 		.4byte	0
 8464 0064 00000000 		.4byte	0
 8465 0068 B20B0000 		.4byte	.LBB11
 8466 006c 880C0000 		.4byte	.LBE11
 8467 0070 9A0C0000 		.4byte	.LBB13
 8468 0074 A40C0000 		.4byte	.LBE13
 8469 0078 00000000 		.4byte	0
 8470 007c 00000000 		.4byte	0
 8471 0080 E40D0000 		.4byte	.LBB16
 8472 0084 F60D0000 		.4byte	.LBE16
 8473 0088 F80D0000 		.4byte	.LBB17
 8474 008c FC0D0000 		.4byte	.LBE17
 8475 0090 00000000 		.4byte	0
 8476 0094 00000000 		.4byte	0
 8477 0098 020E0000 		.4byte	.LBB18
 8478 009c 140E0000 		.4byte	.LBE18
 8479 00a0 160E0000 		.4byte	.LBB19
 8480 00a4 1A0E0000 		.4byte	.LBE19
 8481 00a8 1E0E0000 		.4byte	.LBB20
 8482 00ac 200E0000 		.4byte	.LBE20
 8483 00b0 00000000 		.4byte	0
 8484 00b4 00000000 		.4byte	0
 8485 00b8 00000000 		.4byte	.LFB63
 8486 00bc 34000000 		.4byte	.LFE63
 8487 00c0 00000000 		.4byte	.LFB64
 8488 00c4 BC0E0000 		.4byte	.LFE64
 8489 00c8 00000000 		.4byte	0
 8490 00cc 00000000 		.4byte	0
 8491              		.section	.debug_line,"",%progbits
 8492              	.Ldebug_line0:
 8493 0000 37040000 		.section	.debug_str,"MS",%progbits,1
 8493      02007F01 
 8493      00000201 
 8493      FB0E0D00 
 8493      01010101 
 8494              	.LASF39:
 8495 0000 72616E64 		.ascii	"random_Enable\000"
 8495      6F6D5F45 
 8495      6E61626C 
 8495      6500
 8496              	.LASF27:
 8497 000e 64696666 		.ascii	"diff\000"
 8497      00
 8498              	.LASF41:
 8499 0013 72616E64 		.ascii	"random_Start\000"
 8499      6F6D5F53 
 8499      74617274 
 8499      00
 8500              	.LASF16:
 8501 0020 75696E74 		.ascii	"uint64_t\000"
 8501      36345F74 
 8501      00
 8502              	.LASF2:
 8503 0029 73686F72 		.ascii	"short int\000"
ARM GAS  C:\Users\info\AppData\Local\Temp\ccKQ3Zl2.s 			page 161


 8503      7420696E 
 8503      7400
 8504              	.LASF24:
 8505 0033 6F703130 		.ascii	"op10\000"
 8505      00
 8506              	.LASF20:
 8507 0038 6C6F6E67 		.ascii	"long double\000"
 8507      20646F75 
 8507      626C6500 
 8508              	.LASF44:
 8509 0044 433A5C55 		.ascii	"C:\\Users\\info\\Desktop\\Spring 2019 Classes\\6.11"
 8509      73657273 
 8509      5C696E66 
 8509      6F5C4465 
 8509      736B746F 
 8510 0072 355C362E 		.ascii	"5\\6.115-final\\PSoCCreator\\Final Project\\FinalEm"
 8510      3131352D 
 8510      66696E61 
 8510      6C5C5053 
 8510      6F434372 
 8511 00a1 756C6174 		.ascii	"ulator.cydsn\000"
 8511      6F722E63 
 8511      7964736E 
 8511      00
 8512              	.LASF4:
 8513 00ae 5F5F7569 		.ascii	"__uint16_t\000"
 8513      6E743136 
 8513      5F7400
 8514              	.LASF28:
 8515 00b9 636F6C6C 		.ascii	"collision\000"
 8515      6973696F 
 8515      6E00
 8516              	.LASF13:
 8517 00c3 75696E74 		.ascii	"uint8_t\000"
 8517      385F7400 
 8518              	.LASF17:
 8519 00cb 666C6F61 		.ascii	"float\000"
 8519      7400
 8520              	.LASF9:
 8521 00d1 6C6F6E67 		.ascii	"long long int\000"
 8521      206C6F6E 
 8521      6720696E 
 8521      7400
 8522              	.LASF11:
 8523 00df 6C6F6E67 		.ascii	"long long unsigned int\000"
 8523      206C6F6E 
 8523      6720756E 
 8523      7369676E 
 8523      65642069 
 8524              	.LASF47:
 8525 00f6 6D656D73 		.ascii	"memset\000"
 8525      657400
 8526              	.LASF32:
 8527 00fd 6C617374 		.ascii	"lastkey\000"
 8527      6B657900 
 8528              	.LASF3:
 8529 0105 5F5F7569 		.ascii	"__uint8_t\000"
ARM GAS  C:\Users\info\AppData\Local\Temp\ccKQ3Zl2.s 			page 162


 8529      6E74385F 
 8529      7400
 8530              	.LASF34:
 8531 010f 70696E5F 		.ascii	"pin_snd_Write\000"
 8531      736E645F 
 8531      57726974 
 8531      6500
 8532              	.LASF31:
 8533 011d 6B657973 		.ascii	"keys\000"
 8533      00
 8534              	.LASF23:
 8535 0122 696E7374 		.ascii	"instr\000"
 8535      7200
 8536              	.LASF1:
 8537 0128 756E7369 		.ascii	"unsigned char\000"
 8537      676E6564 
 8537      20636861 
 8537      7200
 8538              	.LASF0:
 8539 0136 7369676E 		.ascii	"signed char\000"
 8539      65642063 
 8539      68617200 
 8540              	.LASF33:
 8541 0142 6B657966 		.ascii	"keyflag\000"
 8541      6C616700 
 8542              	.LASF12:
 8543 014a 756E7369 		.ascii	"unsigned int\000"
 8543      676E6564 
 8543      20696E74 
 8543      00
 8544              	.LASF38:
 8545 0157 6973725F 		.ascii	"isr_timer_StartEx\000"
 8545      74696D65 
 8545      725F5374 
 8545      61727445 
 8545      7800
 8546              	.LASF35:
 8547 0169 72616E64 		.ascii	"random_Read\000"
 8547      6F6D5F52 
 8547      65616400 
 8548              	.LASF22:
 8549 0175 73746163 		.ascii	"stack\000"
 8549      6B00
 8550              	.LASF36:
 8551 017b 70696E5F 		.ascii	"pin_led_Write\000"
 8551      6C65645F 
 8551      57726974 
 8551      6500
 8552              	.LASF5:
 8553 0189 73686F72 		.ascii	"short unsigned int\000"
 8553      7420756E 
 8553      7369676E 
 8553      65642069 
 8553      6E7400
 8554              	.LASF25:
 8555 019c 696E7661 		.ascii	"invalid_op\000"
 8555      6C69645F 
ARM GAS  C:\Users\info\AppData\Local\Temp\ccKQ3Zl2.s 			page 163


 8555      6F7000
 8556              	.LASF40:
 8557 01a7 72616E64 		.ascii	"random_Init\000"
 8557      6F6D5F49 
 8557      6E697400 
 8558              	.LASF19:
 8559 01b3 63686172 		.ascii	"char\000"
 8559      00
 8560              	.LASF14:
 8561 01b8 75696E74 		.ascii	"uint16_t\000"
 8561      31365F74 
 8561      00
 8562              	.LASF7:
 8563 01c1 6C6F6E67 		.ascii	"long int\000"
 8563      20696E74 
 8563      00
 8564              	.LASF46:
 8565 01ca 6D61696E 		.ascii	"main\000"
 8565      00
 8566              	.LASF15:
 8567 01cf 696E7433 		.ascii	"int32_t\000"
 8567      325F7400 
 8568              	.LASF10:
 8569 01d7 5F5F7569 		.ascii	"__uint64_t\000"
 8569      6E743634 
 8569      5F7400
 8570              	.LASF43:
 8571 01e2 6D61696E 		.ascii	"main.c\000"
 8571      2E6300
 8572              	.LASF8:
 8573 01e9 6C6F6E67 		.ascii	"long unsigned int\000"
 8573      20756E73 
 8573      69676E65 
 8573      6420696E 
 8573      7400
 8574              	.LASF18:
 8575 01fb 646F7562 		.ascii	"double\000"
 8575      6C6500
 8576              	.LASF26:
 8577 0202 66726565 		.ascii	"freeze_pc\000"
 8577      7A655F70 
 8577      6300
 8578              	.LASF6:
 8579 020c 5F5F696E 		.ascii	"__int32_t\000"
 8579      7433325F 
 8579      7400
 8580              	.LASF21:
 8581 0216 73697A65 		.ascii	"sizetype\000"
 8581      74797065 
 8581      00
 8582              	.LASF30:
 8583 021f 7672616D 		.ascii	"vram\000"
 8583      00
 8584              	.LASF29:
 8585 0224 49544D5F 		.ascii	"ITM_RxBuffer\000"
 8585      52784275 
 8585      66666572 
ARM GAS  C:\Users\info\AppData\Local\Temp\ccKQ3Zl2.s 			page 164


 8585      00
 8586              	.LASF42:
 8587 0231 474E5520 		.ascii	"GNU C11 5.4.1 20160609 (release) [ARM/embedded-5-br"
 8587      43313120 
 8587      352E342E 
 8587      31203230 
 8587      31363036 
 8588 0264 616E6368 		.ascii	"anch revision 237715] -mcpu=cortex-m3 -mthumb -g -O"
 8588      20726576 
 8588      6973696F 
 8588      6E203233 
 8588      37373135 
 8589 0297 67202D66 		.ascii	"g -ffunction-sections -ffat-lto-objects\000"
 8589      66756E63 
 8589      74696F6E 
 8589      2D736563 
 8589      74696F6E 
 8590              	.LASF37:
 8591 02bf 43794465 		.ascii	"CyDelay\000"
 8591      6C617900 
 8592              	.LASF45:
 8593 02c7 6973725F 		.ascii	"isr_tmr_handler\000"
 8593      746D725F 
 8593      68616E64 
 8593      6C657200 
 8594              		.ident	"GCC: (GNU Tools for ARM Embedded Processors) 5.4.1 20160609 (release) [ARM/embedded-5-bran
