ARM GAS  C:\Users\info\AppData\Local\Temp\ccqSJUfY.s 			page 1


   1              		.syntax unified
   2              		.cpu cortex-m3
   3              		.fpu softvfp
   4              		.eabi_attribute 20, 1
   5              		.eabi_attribute 21, 1
   6              		.eabi_attribute 23, 3
   7              		.eabi_attribute 24, 1
   8              		.eabi_attribute 25, 1
   9              		.eabi_attribute 26, 1
  10              		.eabi_attribute 30, 1
  11              		.eabi_attribute 34, 1
  12              		.eabi_attribute 18, 4
  13              		.thumb
  14              		.syntax unified
  15              		.file	"main.c"
  16              		.text
  17              	.Ltext0:
  18              		.cfi_sections	.debug_frame
  19              		.section	.text.newline,"ax",%progbits
  20              		.align	2
  21              		.global	newline
  22              		.thumb
  23              		.thumb_func
  24              		.type	newline, %function
  25              	newline:
  26              	.LFB63:
  27              		.file 1 "main.c"
   1:main.c        **** /* ============================================================================
   2:main.c        ****  * CHIP8 Emulator
   3:main.c        ****  * Written By Keshav Gupta, April 2019
   4:main.c        ****  * Technical Reference: http://devernay.free.fr/hacks/chip8/C8TECH10.HTM
   5:main.c        ****  * ============================================================================
   6:main.c        **** */
   7:main.c        **** 
   8:main.c        **** /*
   9:main.c        **** TODO
  10:main.c        **** 
  11:main.c        **** Implement Keyboard
  12:main.c        **** Implement VGA
  13:main.c        **** 
  14:main.c        **** Replace SRAM with EEPROM (or other funcitonality to change roms nicely
  15:main.c        **** */
  16:main.c        **** 
  17:main.c        **** #include "project.h"
  18:main.c        **** #include "ram_init_data.h"
  19:main.c        **** 
  20:main.c        **** /* Instruction Opcodes */
  21:main.c        **** #define OP3_SYSTEM 0x0
  22:main.c        **** #define OP3_JUMP_ABSOLUTE 0x1
  23:main.c        **** #define OP3_JUMP_OFFSET 0xb
  24:main.c        **** #define OP3_CALL_SUBROUTINE 0x2
  25:main.c        **** #define OP3_SKIP_NEXT_EQ_IM 0x3
  26:main.c        **** #define OP3_SKIP_NEXT_NEQ_IM 0x4
  27:main.c        **** #define OP3_SKIP_NEXT_EQ 0x5
  28:main.c        **** #define OP3_SKIP_NEXT_NEQ 0x9
  29:main.c        **** #define OP3_LOAD_V 0x6
  30:main.c        **** #define OP3_ADD_IM 0x7
ARM GAS  C:\Users\info\AppData\Local\Temp\ccqSJUfY.s 			page 2


  31:main.c        **** #define OP3_ARITH 0x8
  32:main.c        **** #define OP3_LOAD_I 0xa
  33:main.c        **** #define OP3_RANDOM 0xc
  34:main.c        **** #define OP3_DRAW 0xd
  35:main.c        **** #define OP3_KEYBOARD 0xe
  36:main.c        **** #define OP3_SPECIAL 0xf
  37:main.c        **** 
  38:main.c        **** #define OP2_SYSTEM 0x0
  39:main.c        **** 
  40:main.c        **** #define OP10_SYSTEM_CLEAR 0xe0
  41:main.c        **** #define OP10_SYSTEM_RETURN 0xee
  42:main.c        **** #define OP10_KEYBOARD_EQ 0x9e
  43:main.c        **** #define OP10_KEYBOARD_NEQ 0xa1
  44:main.c        **** #define OP10_SPECIAL_LOAD_DELAY 0x07
  45:main.c        **** #define OP10_SPECIAL_LOAD_KEYBOARD 0x0a
  46:main.c        **** #define OP10_SPECIAL_SET_DELAY 0x15
  47:main.c        **** #define OP10_SPECIAL_SET_SOUND 0x18
  48:main.c        **** #define OP10_SPECIAL_ADD_TO_I 0x1e
  49:main.c        **** #define OP10_SPECIAL_LOAD_FONT 0x29
  50:main.c        **** #define OP10_SPECIAL_LOAD_BCD 0x33
  51:main.c        **** #define OP10_SPECIAL_LOAD_AT_I 0x55
  52:main.c        **** #define OP10_SPECIAL_SET_AT_I 0x65
  53:main.c        **** 
  54:main.c        **** #define OP0_SKIP_NEXT 0x0
  55:main.c        **** #define OP0_ARITH_LOAD 0x0
  56:main.c        **** #define OP0_ARITH_OR 0x1
  57:main.c        **** #define OP0_ARITH_AND 0x2
  58:main.c        **** #define OP0_ARITH_XOR 0x3
  59:main.c        **** #define OP0_ARITH_ADD 0x4
  60:main.c        **** #define OP0_ARITH_SUB 0x5
  61:main.c        **** #define OP0_ARITH_SHR 0x6
  62:main.c        **** #define OP0_ARITH_SUBN 0x7
  63:main.c        **** #define OP0_ARITH_SHL 0xe
  64:main.c        **** 
  65:main.c        **** /* 
  66:main.c        ****    CHIP8 Keyboard 
  67:main.c        ****    keys stores the current state of each key
  68:main.c        ****        (1 = down, 0 = up)
  69:main.c        ****    lastkey stores the last key that was pressed
  70:main.c        ****    leyflag = 1 if new data available in lastkey
  71:main.c        ****        must be reset to 0 when data used
  72:main.c        **** */
  73:main.c        **** uint8_t keys[16] = {0};
  74:main.c        **** uint8_t lastkey = 0, keyflag = 0;
  75:main.c        **** 
  76:main.c        **** /* 
  77:main.c        ****    CHIP8 Video
  78:main.c        ****    Each row is one 64bit number
  79:main.c        **** */
  80:main.c        **** uint64_t vram[32];
  81:main.c        **** 
  82:main.c        **** /* 
  83:main.c        ****    The following code snippet (concerning VGA) is courtesy of
  84:main.c        ****    the 6.115 Staff. It has been modified to suit this application.
  85:main.c        **** 
  86:main.c        ****    Video buffer gets its own SRAM to prevent bus contention.
  87:main.c        ****    The user-facing buffer is in regular system RAM.
ARM GAS  C:\Users\info\AppData\Local\Temp\ccqSJUfY.s 			page 3


  88:main.c        ****    This is set in the custom linker script (custom.ld).
  89:main.c        **** */
  90:main.c        **** uint8_t vbuf[96][128] __attribute__ ((section(".vram")));
  91:main.c        **** 
  92:main.c        **** /* 
  93:main.c        ****    Now we set up the DMA to copy pixels from vbuf to the screen.
  94:main.c        ****    For timing, we rely on the fact that it takes the DMA exactly
  95:main.c        ****    8 clocks to move each byte. After each line the DMA is updated
  96:main.c        ****    to point to the next line in vbuf.
  97:main.c        **** */
  98:main.c        **** uint8_t dma_chan, dma_td;
  99:main.c        **** volatile int vga_update_flag = 1;
 100:main.c        **** 
 101:main.c        **** CY_ISR(newline) {
  28              		.loc 1 101 0
  29              		.cfi_startproc
  30              		@ args = 0, pretend = 0, frame = 0
  31              		@ frame_needed = 0, uses_anonymous_args = 0
  32 0000 F8B5     		push	{r3, r4, r5, r6, r7, lr}
  33              		.cfi_def_cfa_offset 24
  34              		.cfi_offset 3, -24
  35              		.cfi_offset 4, -20
  36              		.cfi_offset 5, -16
  37              		.cfi_offset 6, -12
  38              		.cfi_offset 7, -8
  39              		.cfi_offset 14, -4
 102:main.c        ****     uint16 line = 805 - VERT_ReadCounter();
  40              		.loc 1 102 0
  41 0002 FFF7FEFF 		bl	VERT_ReadCounter
  42              	.LVL0:
  43 0006 C0F54970 		rsb	r0, r0, #804
  44 000a 0130     		adds	r0, r0, #1
  45 000c 80B2     		uxth	r0, r0
  46              	.LVL1:
 103:main.c        ****     if (line % 8 == 0) {
  47              		.loc 1 103 0
  48 000e 10F0070F 		tst	r0, #7
  49 0012 67D1     		bne	.L1
 104:main.c        ****         if (line < 768) {
  50              		.loc 1 104 0
  51 0014 B0F5407F 		cmp	r0, #768
  52 0018 0DD2     		bcs	.L3
 105:main.c        ****             CY_SET_REG16(CY_DMA_TDMEM_STRUCT_PTR[dma_td].TD1,
  53              		.loc 1 105 0
  54 001a 334B     		ldr	r3, .L13
  55 001c 1B78     		ldrb	r3, [r3]	@ zero_extendqisi2
  56 001e DB00     		lsls	r3, r3, #3
  57 0020 03F18043 		add	r3, r3, #1073741824
  58 0024 03F5F043 		add	r3, r3, #30720
  59 0028 C008     		lsrs	r0, r0, #3
  60              	.LVL2:
  61 002a 304A     		ldr	r2, .L13+4
  62 002c 02EBC010 		add	r0, r2, r0, lsl #7
  63 0030 82B2     		uxth	r2, r0
  64 0032 9A80     		strh	r2, [r3, #4]	@ movhi
  65 0034 F8BD     		pop	{r3, r4, r5, r6, r7, pc}
  66              	.LVL3:
ARM GAS  C:\Users\info\AppData\Local\Temp\ccqSJUfY.s 			page 4


  67              	.L3:
 106:main.c        ****                          LO16((uint32) vbuf[line / 8]));
 107:main.c        ****         } else if (line == 768 && vga_update_flag) {
  68              		.loc 1 107 0
  69 0036 B0F5407F 		cmp	r0, #768
  70 003a 53D1     		bne	.L1
  71              		.loc 1 107 0 is_stmt 0 discriminator 1
  72 003c 2C4B     		ldr	r3, .L13+8
  73 003e 1B68     		ldr	r3, [r3]
  74 0040 002B     		cmp	r3, #0
  75 0042 4FD0     		beq	.L1
 108:main.c        ****             /* Refresh buffer during vsync */
 109:main.c        ****             CyDmaChDisable(dma_chan);
  76              		.loc 1 109 0 is_stmt 1
  77 0044 2B4B     		ldr	r3, .L13+12
  78 0046 1878     		ldrb	r0, [r3]	@ zero_extendqisi2
  79              	.LVL4:
  80 0048 FFF7FEFF 		bl	CyDmaChDisable
  81              	.LVL5:
 110:main.c        ****             if (vga_update_flag) {
  82              		.loc 1 110 0
  83 004c 284B     		ldr	r3, .L13+8
  84 004e 1B68     		ldr	r3, [r3]
  85 0050 002B     		cmp	r3, #0
  86 0052 3CD1     		bne	.L9
  87 0054 41E0     		b	.L5
  88              	.LVL6:
  89              	.L7:
  90              	.LBB2:
  91              	.LBB3:
  92              	.LBB4:
 111:main.c        ****                 uint8_t pixel;
 112:main.c        ****                 uint64_t temprow;
 113:main.c        ****                 for (uint8_t x = 0; x < 64; x++){
 114:main.c        ****                     for (uint8_t y = 0; y < 48; y++){
 115:main.c        ****                         if (y < 8 || y >= 40) {
  93              		.loc 1 115 0
  94 0056 A3F10802 		sub	r2, r3, #8
  95 005a D2B2     		uxtb	r2, r2
  96 005c 1F2A     		cmp	r2, #31
  97 005e 1CD8     		bhi	.L10
 116:main.c        ****                             pixel = 0;
 117:main.c        ****                         } else {
 118:main.c        ****                             temprow = vram[y - 8] & (((uint64_t)1) << (63-x));
  98              		.loc 1 118 0
  99 0060 A3F10802 		sub	r2, r3, #8
 100 0064 2449     		ldr	r1, .L13+16
 101 0066 01EBC202 		add	r2, r1, r2, lsl #3
 102 006a D2E90001 		ldrd	r0, [r2]
 103 006e C7F13F02 		rsb	r2, r7, #63
 104 0072 0126     		movs	r6, #1
 105 0074 A2F1200C 		sub	ip, r2, #32
 106 0078 C2F1200E 		rsb	lr, r2, #32
 107 007c 06FA0CF5 		lsl	r5, r6, ip
 108 0080 26FA0EFE 		lsr	lr, r6, lr
 109 0084 45EA0E05 		orr	r5, r5, lr
 110 0088 06FA02F4 		lsl	r4, r6, r2
ARM GAS  C:\Users\info\AppData\Local\Temp\ccqSJUfY.s 			page 5


 111 008c 2040     		ands	r0, r0, r4
 112 008e 2940     		ands	r1, r1, r5
 113              	.LVL7:
 119:main.c        ****                             pixel = (temprow) ? 1 : 0;
 114              		.loc 1 119 0
 115 0090 50EA0102 		orrs	r2, r0, r1
 116 0094 08BF     		it	eq
 117 0096 0026     		moveq	r6, #0
 118              	.LVL8:
 119 0098 00E0     		b	.L6
 120              	.LVL9:
 121              	.L10:
 116:main.c        ****                             pixel = 0;
 122              		.loc 1 116 0
 123 009a 0026     		movs	r6, #0
 124              	.L6:
 125              	.LVL10:
 120:main.c        ****                         }
 121:main.c        ****                         vbuf[2*y][2*x] = pixel;
 126              		.loc 1 121 0 discriminator 2
 127 009c 5900     		lsls	r1, r3, #1
 128 009e 7A00     		lsls	r2, r7, #1
 129 00a0 1248     		ldr	r0, .L13+4
 130 00a2 00EB032E 		add	lr, r0, r3, lsl #8
 131 00a6 0EF81760 		strb	r6, [lr, r7, lsl #1]
 122:main.c        ****                         vbuf[2*y+1][2*x] = pixel;
 132              		.loc 1 122 0 discriminator 2
 133 00aa 0131     		adds	r1, r1, #1
 134 00ac 00EBC111 		add	r1, r0, r1, lsl #7
 135 00b0 01F81760 		strb	r6, [r1, r7, lsl #1]
 123:main.c        ****                         vbuf[2*y][2*x+1] = pixel;
 136              		.loc 1 123 0 discriminator 2
 137 00b4 0132     		adds	r2, r2, #1
 138 00b6 0EF80260 		strb	r6, [lr, r2]
 124:main.c        ****                         vbuf[2*y+1][2*x+1] = pixel;
 139              		.loc 1 124 0 discriminator 2
 140 00ba 8E54     		strb	r6, [r1, r2]
 114:main.c        ****                         if (y < 8 || y >= 40) {
 141              		.loc 1 114 0 discriminator 2
 142 00bc 0133     		adds	r3, r3, #1
 143              	.LVL11:
 144 00be DBB2     		uxtb	r3, r3
 145              	.LVL12:
 146 00c0 00E0     		b	.L8
 147              	.LVL13:
 148              	.L11:
 149              	.LBE4:
 150 00c2 0023     		movs	r3, #0
 151              	.L8:
 152              	.LVL14:
 153              	.LBB5:
 114:main.c        ****                         if (y < 8 || y >= 40) {
 154              		.loc 1 114 0 is_stmt 0 discriminator 1
 155 00c4 2F2B     		cmp	r3, #47
 156 00c6 C6D9     		bls	.L7
 157              	.LBE5:
 113:main.c        ****                     for (uint8_t y = 0; y < 48; y++){
ARM GAS  C:\Users\info\AppData\Local\Temp\ccqSJUfY.s 			page 6


 158              		.loc 1 113 0 is_stmt 1 discriminator 2
 159 00c8 0137     		adds	r7, r7, #1
 160              	.LVL15:
 161 00ca FFB2     		uxtb	r7, r7
 162              	.LVL16:
 163 00cc 00E0     		b	.L4
 164              	.LVL17:
 165              	.L9:
 166              	.LBE3:
 167              	.LBE2:
 168 00ce 0027     		movs	r7, #0
 169              	.L4:
 170              	.LVL18:
 171              	.LBB7:
 172              	.LBB6:
 113:main.c        ****                     for (uint8_t y = 0; y < 48; y++){
 173              		.loc 1 113 0 is_stmt 0 discriminator 1
 174 00d0 3F2F     		cmp	r7, #63
 175 00d2 F6D9     		bls	.L11
 176              	.LBE6:
 125:main.c        ****                     }
 126:main.c        ****                 }
 127:main.c        ****                 vga_update_flag = 0;
 177              		.loc 1 127 0 is_stmt 1
 178 00d4 0022     		movs	r2, #0
 179 00d6 064B     		ldr	r3, .L13+8
 180 00d8 1A60     		str	r2, [r3]
 181              	.LVL19:
 182              	.L5:
 183              	.LBE7:
 128:main.c        ****             }
 129:main.c        ****             CyDmaChEnable(dma_chan, 1);
 184              		.loc 1 129 0
 185 00da 0121     		movs	r1, #1
 186 00dc 054B     		ldr	r3, .L13+12
 187 00de 1878     		ldrb	r0, [r3]	@ zero_extendqisi2
 188 00e0 FFF7FEFF 		bl	CyDmaChEnable
 189              	.LVL20:
 190              	.L1:
 191 00e4 F8BD     		pop	{r3, r4, r5, r6, r7, pc}
 192              	.L14:
 193 00e6 00BF     		.align	2
 194              	.L13:
 195 00e8 00000000 		.word	dma_td
 196 00ec 00000000 		.word	.LANCHOR0
 197 00f0 00000000 		.word	.LANCHOR1
 198 00f4 00000000 		.word	dma_chan
 199 00f8 00000000 		.word	vram
 200              		.cfi_endproc
 201              	.LFE63:
 202              		.size	newline, .-newline
 203              		.section	.text.isr_tmr_handler,"ax",%progbits
 204              		.align	2
 205              		.global	isr_tmr_handler
 206              		.thumb
 207              		.thumb_func
 208              		.type	isr_tmr_handler, %function
ARM GAS  C:\Users\info\AppData\Local\Temp\ccqSJUfY.s 			page 7


 209              	isr_tmr_handler:
 210              	.LFB64:
 130:main.c        ****         }
 131:main.c        ****     }
 132:main.c        **** }
 133:main.c        **** 
 134:main.c        **** /* 
 135:main.c        ****    CHIP8 Timers 
 136:main.c        ****    Decrement each at 60Hz if not zero
 137:main.c        **** */
 138:main.c        **** uint8_t snd = 0, tmr = 0;
 139:main.c        **** 
 140:main.c        **** CY_ISR(isr_tmr_handler){
 211              		.loc 1 140 0
 212              		.cfi_startproc
 213              		@ args = 0, pretend = 0, frame = 0
 214              		@ frame_needed = 0, uses_anonymous_args = 0
 215 0000 08B5     		push	{r3, lr}
 216              		.cfi_def_cfa_offset 8
 217              		.cfi_offset 3, -8
 218              		.cfi_offset 14, -4
 141:main.c        ****     snd = (snd == 0) ? 0 : snd - 1;
 219              		.loc 1 141 0
 220 0002 0B4B     		ldr	r3, .L21
 221 0004 1B78     		ldrb	r3, [r3]	@ zero_extendqisi2
 222 0006 0BB1     		cbz	r3, .L16
 223              		.loc 1 141 0 is_stmt 0 discriminator 1
 224 0008 013B     		subs	r3, r3, #1
 225 000a DBB2     		uxtb	r3, r3
 226              	.L16:
 227              		.loc 1 141 0 discriminator 4
 228 000c 084A     		ldr	r2, .L21
 229 000e 1370     		strb	r3, [r2]
 142:main.c        ****     tmr = (tmr == 0) ? 0 : tmr - 1;
 230              		.loc 1 142 0 is_stmt 1 discriminator 4
 231 0010 5278     		ldrb	r2, [r2, #1]	@ zero_extendqisi2
 232 0012 0AB1     		cbz	r2, .L17
 233              		.loc 1 142 0 is_stmt 0 discriminator 1
 234 0014 013A     		subs	r2, r2, #1
 235 0016 D2B2     		uxtb	r2, r2
 236              	.L17:
 237              		.loc 1 142 0 discriminator 4
 238 0018 0549     		ldr	r1, .L21
 239 001a 4A70     		strb	r2, [r1, #1]
 143:main.c        ****     if (snd) {
 240              		.loc 1 143 0 is_stmt 1 discriminator 4
 241 001c 1BB1     		cbz	r3, .L18
 144:main.c        ****         pin_snd_Write(1);
 242              		.loc 1 144 0
 243 001e 0120     		movs	r0, #1
 244 0020 FFF7FEFF 		bl	pin_snd_Write
 245              	.LVL21:
 246 0024 08BD     		pop	{r3, pc}
 247              	.L18:
 145:main.c        ****     } else {
 146:main.c        ****         pin_snd_Write(0);
 248              		.loc 1 146 0
ARM GAS  C:\Users\info\AppData\Local\Temp\ccqSJUfY.s 			page 8


 249 0026 0020     		movs	r0, #0
 250 0028 FFF7FEFF 		bl	pin_snd_Write
 251              	.LVL22:
 252 002c 08BD     		pop	{r3, pc}
 253              	.L22:
 254 002e 00BF     		.align	2
 255              	.L21:
 256 0030 00000000 		.word	.LANCHOR2
 257              		.cfi_endproc
 258              	.LFE64:
 259              		.size	isr_tmr_handler, .-isr_tmr_handler
 260              		.section	.text.main,"ax",%progbits
 261              		.align	2
 262              		.global	main
 263              		.thumb
 264              		.thumb_func
 265              		.type	main, %function
 266              	main:
 267              	.LFB65:
 147:main.c        ****     }
 148:main.c        **** }
 149:main.c        **** 
 150:main.c        **** int main(void){
 268              		.loc 1 150 0
 269              		.cfi_startproc
 270              		@ args = 0, pretend = 0, frame = 4184
 271              		@ frame_needed = 0, uses_anonymous_args = 0
 272 0000 2DE9F04F 		push	{r4, r5, r6, r7, r8, r9, r10, fp, lr}
 273              		.cfi_def_cfa_offset 36
 274              		.cfi_offset 4, -36
 275              		.cfi_offset 5, -32
 276              		.cfi_offset 6, -28
 277              		.cfi_offset 7, -24
 278              		.cfi_offset 8, -20
 279              		.cfi_offset 9, -16
 280              		.cfi_offset 10, -12
 281              		.cfi_offset 11, -8
 282              		.cfi_offset 14, -4
 283 0004 ADF5825D 		sub	sp, sp, #4160
 284              		.cfi_def_cfa_offset 4196
 285 0008 87B0     		sub	sp, sp, #28
 286              		.cfi_def_cfa_offset 4224
 151:main.c        ****     /* Start the interrupts */
 152:main.c        ****     isr_timer_StartEx(isr_tmr_handler);
 287              		.loc 1 152 0
 288 000a F948     		ldr	r0, .L105
 289 000c FFF7FEFF 		bl	isr_timer_StartEx
 290              	.LVL23:
 153:main.c        ****     
 154:main.c        ****     /* Initialize the DMA */
 155:main.c        ****     dma_td = CyDmaTdAllocate();
 291              		.loc 1 155 0
 292 0010 FFF7FEFF 		bl	CyDmaTdAllocate
 293              	.LVL24:
 294 0014 F74C     		ldr	r4, .L105+4
 295 0016 2070     		strb	r0, [r4]
 156:main.c        ****     dma_chan = DMA_DmaInitialize(1, 0, HI16(CYDEV_SRAM_BASE),
ARM GAS  C:\Users\info\AppData\Local\Temp\ccqSJUfY.s 			page 9


 296              		.loc 1 156 0
 297 0018 4FF48043 		mov	r3, #16384
 298 001c 41F6FF72 		movw	r2, #8191
 299 0020 0021     		movs	r1, #0
 300 0022 0120     		movs	r0, #1
 301 0024 FFF7FEFF 		bl	DMA_DmaInitialize
 302              	.LVL25:
 303 0028 F34D     		ldr	r5, .L105+8
 304 002a 2870     		strb	r0, [r5]
 157:main.c        ****                                  HI16(CYDEV_PERIPH_BASE));
 158:main.c        ****     CyDmaTdSetConfiguration(dma_td, 128, dma_td, 
 305              		.loc 1 158 0
 306 002c 2078     		ldrb	r0, [r4]	@ zero_extendqisi2
 307 002e 0523     		movs	r3, #5
 308 0030 0246     		mov	r2, r0
 309 0032 8021     		movs	r1, #128
 310 0034 FFF7FEFF 		bl	CyDmaTdSetConfiguration
 311              	.LVL26:
 159:main.c        ****                             DMA__TD_TERMOUT_EN | TD_INC_SRC_ADR);
 160:main.c        ****     CyDmaTdSetAddress(dma_td, 0, LO16((uint32) PIXEL_Control_PTR));
 312              		.loc 1 160 0
 313 0038 46F27F42 		movw	r2, #25727
 314 003c 0021     		movs	r1, #0
 315 003e 2078     		ldrb	r0, [r4]	@ zero_extendqisi2
 316 0040 FFF7FEFF 		bl	CyDmaTdSetAddress
 317              	.LVL27:
 161:main.c        ****     CyDmaChSetInitialTd(dma_chan, dma_td);
 318              		.loc 1 161 0
 319 0044 2178     		ldrb	r1, [r4]	@ zero_extendqisi2
 320 0046 2878     		ldrb	r0, [r5]	@ zero_extendqisi2
 321 0048 FFF7FEFF 		bl	CyDmaChSetInitialTd
 322              	.LVL28:
 162:main.c        ****     CyDmaChEnable(dma_chan, 1);
 323              		.loc 1 162 0
 324 004c 0121     		movs	r1, #1
 325 004e 2878     		ldrb	r0, [r5]	@ zero_extendqisi2
 326 0050 FFF7FEFF 		bl	CyDmaChEnable
 327              	.LVL29:
 163:main.c        ****     
 164:main.c        ****     /* Start all of the timing counters */
 165:main.c        ****     HORIZ_Start();
 328              		.loc 1 165 0
 329 0054 FFF7FEFF 		bl	HORIZ_Start
 330              	.LVL30:
 166:main.c        ****     VERT_Start();
 331              		.loc 1 166 0
 332 0058 FFF7FEFF 		bl	VERT_Start
 333              	.LVL31:
 167:main.c        ****     HSYNC_Start();
 334              		.loc 1 167 0
 335 005c FFF7FEFF 		bl	HSYNC_Start
 336              	.LVL32:
 168:main.c        ****     VSYNC_Start();
 337              		.loc 1 168 0
 338 0060 FFF7FEFF 		bl	VSYNC_Start
 339              	.LVL33:
 169:main.c        ****     NEWLINE_StartEx(newline);
ARM GAS  C:\Users\info\AppData\Local\Temp\ccqSJUfY.s 			page 10


 340              		.loc 1 169 0
 341 0064 E548     		ldr	r0, .L105+12
 342 0066 FFF7FEFF 		bl	NEWLINE_StartEx
 343              	.LVL34:
 170:main.c        ****     
 171:main.c        ****     /* Enable global interrupts */
 172:main.c        ****     CyGlobalIntEnable;
 344              		.loc 1 172 0
 345              		.syntax unified
 346              	@ 172 "main.c" 1
 347 006a 62B6     		CPSIE   i
 348              	@ 0 "" 2
 173:main.c        ****     
 174:main.c        ****     /* CHIP8 RAM*/
 175:main.c        ****     uint8_t ram[4096] = RAM_INITIAL_DATA;
 349              		.loc 1 175 0
 350              		.thumb
 351              		.syntax unified
 352 006c 4FF48052 		mov	r2, #4096
 353 0070 0021     		movs	r1, #0
 354 0072 16A8     		add	r0, sp, #88
 355 0074 FFF7FEFF 		bl	memset
 356              	.LVL35:
 357 0078 F023     		movs	r3, #240
 358 007a 8DF85830 		strb	r3, [sp, #88]
 359 007e 9021     		movs	r1, #144
 360 0080 8DF85910 		strb	r1, [sp, #89]
 361 0084 8DF85A10 		strb	r1, [sp, #90]
 362 0088 8DF85B10 		strb	r1, [sp, #91]
 363 008c 8DF85C30 		strb	r3, [sp, #92]
 364 0090 2024     		movs	r4, #32
 365 0092 8DF85D40 		strb	r4, [sp, #93]
 366 0096 4FF06008 		mov	r8, #96
 367 009a 8DF85E80 		strb	r8, [sp, #94]
 368 009e 8DF85F40 		strb	r4, [sp, #95]
 369 00a2 8DF86040 		strb	r4, [sp, #96]
 370 00a6 7022     		movs	r2, #112
 371 00a8 8DF86120 		strb	r2, [sp, #97]
 372 00ac 8DF86230 		strb	r3, [sp, #98]
 373 00b0 1022     		movs	r2, #16
 374 00b2 8DF86320 		strb	r2, [sp, #99]
 375 00b6 8DF86430 		strb	r3, [sp, #100]
 376 00ba 8020     		movs	r0, #128
 377 00bc 8DF86500 		strb	r0, [sp, #101]
 378 00c0 8DF86630 		strb	r3, [sp, #102]
 379 00c4 8DF86730 		strb	r3, [sp, #103]
 380 00c8 8DF86820 		strb	r2, [sp, #104]
 381 00cc 8DF86930 		strb	r3, [sp, #105]
 382 00d0 8DF86A20 		strb	r2, [sp, #106]
 383 00d4 8DF86B30 		strb	r3, [sp, #107]
 384 00d8 8DF86C10 		strb	r1, [sp, #108]
 385 00dc 8DF86D10 		strb	r1, [sp, #109]
 386 00e0 8DF86E30 		strb	r3, [sp, #110]
 387 00e4 8DF86F20 		strb	r2, [sp, #111]
 388 00e8 8DF87020 		strb	r2, [sp, #112]
 389 00ec 8DF87130 		strb	r3, [sp, #113]
 390 00f0 8DF87200 		strb	r0, [sp, #114]
ARM GAS  C:\Users\info\AppData\Local\Temp\ccqSJUfY.s 			page 11


 391 00f4 8DF87330 		strb	r3, [sp, #115]
 392 00f8 8DF87420 		strb	r2, [sp, #116]
 393 00fc 8DF87530 		strb	r3, [sp, #117]
 394 0100 8DF87630 		strb	r3, [sp, #118]
 395 0104 8DF87700 		strb	r0, [sp, #119]
 396 0108 8DF87830 		strb	r3, [sp, #120]
 397 010c 8DF87910 		strb	r1, [sp, #121]
 398 0110 8DF87A30 		strb	r3, [sp, #122]
 399 0114 8DF87B30 		strb	r3, [sp, #123]
 400 0118 8DF87C20 		strb	r2, [sp, #124]
 401 011c 8DF87D40 		strb	r4, [sp, #125]
 402 0120 4024     		movs	r4, #64
 403 0122 8DF87E40 		strb	r4, [sp, #126]
 404 0126 8DF87F40 		strb	r4, [sp, #127]
 405 012a 8DF88030 		strb	r3, [sp, #128]
 406 012e 8DF88110 		strb	r1, [sp, #129]
 407 0132 8DF88230 		strb	r3, [sp, #130]
 408 0136 8DF88310 		strb	r1, [sp, #131]
 409 013a 8DF88430 		strb	r3, [sp, #132]
 410 013e 8DF88530 		strb	r3, [sp, #133]
 411 0142 8DF88610 		strb	r1, [sp, #134]
 412 0146 8DF88730 		strb	r3, [sp, #135]
 413 014a 8DF88820 		strb	r2, [sp, #136]
 414 014e 8DF88930 		strb	r3, [sp, #137]
 415 0152 8DF88A30 		strb	r3, [sp, #138]
 416 0156 8DF88B10 		strb	r1, [sp, #139]
 417 015a 8DF88C30 		strb	r3, [sp, #140]
 418 015e 8DF88D10 		strb	r1, [sp, #141]
 419 0162 8DF88E10 		strb	r1, [sp, #142]
 420 0166 E024     		movs	r4, #224
 421 0168 8DF88F40 		strb	r4, [sp, #143]
 422 016c 8DF89010 		strb	r1, [sp, #144]
 423 0170 8DF89140 		strb	r4, [sp, #145]
 424 0174 8DF89210 		strb	r1, [sp, #146]
 425 0178 8DF89340 		strb	r4, [sp, #147]
 426 017c 8DF89430 		strb	r3, [sp, #148]
 427 0180 8DF89500 		strb	r0, [sp, #149]
 428 0184 8DF89600 		strb	r0, [sp, #150]
 429 0188 8DF89700 		strb	r0, [sp, #151]
 430 018c 8DF89830 		strb	r3, [sp, #152]
 431 0190 8DF89940 		strb	r4, [sp, #153]
 432 0194 8DF89A10 		strb	r1, [sp, #154]
 433 0198 8DF89B10 		strb	r1, [sp, #155]
 434 019c 8DF89C10 		strb	r1, [sp, #156]
 435 01a0 8DF89D40 		strb	r4, [sp, #157]
 436 01a4 8DF89E30 		strb	r3, [sp, #158]
 437 01a8 8DF89F00 		strb	r0, [sp, #159]
 438 01ac 8DF8A030 		strb	r3, [sp, #160]
 439 01b0 8DF8A100 		strb	r0, [sp, #161]
 440 01b4 8DF8A230 		strb	r3, [sp, #162]
 441 01b8 8DF8A330 		strb	r3, [sp, #163]
 442 01bc 8DF8A400 		strb	r0, [sp, #164]
 443 01c0 8DF8A530 		strb	r3, [sp, #165]
 444 01c4 8DF8A600 		strb	r0, [sp, #166]
 445 01c8 8DF8A700 		strb	r0, [sp, #167]
 446 01cc 8DF85942 		strb	r4, [sp, #601]
 447 01d0 6320     		movs	r0, #99
ARM GAS  C:\Users\info\AppData\Local\Temp\ccqSJUfY.s 			page 12


 448 01d2 8DF85A02 		strb	r0, [sp, #602]
 449 01d6 6425     		movs	r5, #100
 450 01d8 8DF85C52 		strb	r5, [sp, #604]
 451 01dc 0124     		movs	r4, #1
 452 01de 8DF85D42 		strb	r4, [sp, #605]
 453 01e2 6521     		movs	r1, #101
 454 01e4 8DF85E12 		strb	r1, [sp, #606]
 455 01e8 EE27     		movs	r7, #238
 456 01ea 8DF85F72 		strb	r7, [sp, #607]
 457 01ee 4FF0350B 		mov	fp, #53
 458 01f2 8DF860B2 		strb	fp, [sp, #608]
 459 01f6 8DF86172 		strb	r7, [sp, #609]
 460 01fa 1326     		movs	r6, #19
 461 01fc 8DF86262 		strb	r6, [sp, #610]
 462 0200 8DF86322 		strb	r2, [sp, #611]
 463 0204 8DF86402 		strb	r0, [sp, #612]
 464 0208 8DF86652 		strb	r5, [sp, #614]
 465 020c 4FF0020E 		mov	lr, #2
 466 0210 8DF867E2 		strb	lr, [sp, #615]
 467 0214 8DF86812 		strb	r1, [sp, #616]
 468 0218 8DF86972 		strb	r7, [sp, #617]
 469 021c 4FF0660C 		mov	ip, #102
 470 0220 8DF86AC2 		strb	ip, [sp, #618]
 471 0224 8DF86B72 		strb	r7, [sp, #619]
 472 0228 4FF0550E 		mov	lr, #85
 473 022c 8DF86CE2 		strb	lr, [sp, #620]
 474 0230 8DF86D82 		strb	r8, [sp, #621]
 475 0234 8DF86E62 		strb	r6, [sp, #622]
 476 0238 8DF86F22 		strb	r2, [sp, #623]
 477 023c 8DF87002 		strb	r0, [sp, #624]
 478 0240 8DF87252 		strb	r5, [sp, #626]
 479 0244 4FF0030E 		mov	lr, #3
 480 0248 8DF873E2 		strb	lr, [sp, #627]
 481 024c 8DF87412 		strb	r1, [sp, #628]
 482 0250 8DF87572 		strb	r7, [sp, #629]
 483 0254 4FF0450E 		mov	lr, #69
 484 0258 8DF876E2 		strb	lr, [sp, #630]
 485 025c 4FF0FD0E 		mov	lr, #253
 486 0260 8DF877E2 		strb	lr, [sp, #631]
 487 0264 8DF87862 		strb	r6, [sp, #632]
 488 0268 8DF87922 		strb	r2, [sp, #633]
 489 026c 8DF87A02 		strb	r0, [sp, #634]
 490 0270 8DF87C52 		strb	r5, [sp, #636]
 491 0274 4FF0040E 		mov	lr, #4
 492 0278 8DF87DE2 		strb	lr, [sp, #637]
 493 027c 8DF87E12 		strb	r1, [sp, #638]
 494 0280 8DF87F72 		strb	r7, [sp, #639]
 495 0284 4FF0750E 		mov	lr, #117
 496 0288 8DF880E2 		strb	lr, [sp, #640]
 497 028c 8DF88142 		strb	r4, [sp, #641]
 498 0290 8DF882B2 		strb	fp, [sp, #642]
 499 0294 4FF0EF0A 		mov	r10, #239
 500 0298 8DF883A2 		strb	r10, [sp, #643]
 501 029c 8DF88462 		strb	r6, [sp, #644]
 502 02a0 8DF88522 		strb	r2, [sp, #645]
 503 02a4 8DF88602 		strb	r0, [sp, #646]
 504 02a8 8DF88852 		strb	r5, [sp, #648]
ARM GAS  C:\Users\info\AppData\Local\Temp\ccqSJUfY.s 			page 13


 505 02ac 4FF0050E 		mov	lr, #5
 506 02b0 8DF889E2 		strb	lr, [sp, #649]
 507 02b4 4FF06F08 		mov	r8, #111
 508 02b8 8DF88A82 		strb	r8, [sp, #650]
 509 02bc 8DF88B42 		strb	r4, [sp, #651]
 510 02c0 8DF88C12 		strb	r1, [sp, #652]
 511 02c4 8DF88D72 		strb	r7, [sp, #653]
 512 02c8 8DF88EC2 		strb	ip, [sp, #654]
 513 02cc 8DF88FA2 		strb	r10, [sp, #655]
 514 02d0 4FF0850E 		mov	lr, #133
 515 02d4 8DF890E2 		strb	lr, [sp, #656]
 516 02d8 8DF89112 		strb	r1, [sp, #657]
 517 02dc 4FF03F09 		mov	r9, #63
 518 02e0 8DF89292 		strb	r9, [sp, #658]
 519 02e4 8DF89462 		strb	r6, [sp, #660]
 520 02e8 8DF89522 		strb	r2, [sp, #661]
 521 02ec 8DF89602 		strb	r0, [sp, #662]
 522 02f0 8DF89852 		strb	r5, [sp, #664]
 523 02f4 4FF00609 		mov	r9, #6
 524 02f8 8DF89992 		strb	r9, [sp, #665]
 525 02fc 8DF89A82 		strb	r8, [sp, #666]
 526 0300 8DF89C12 		strb	r1, [sp, #668]
 527 0304 8DF89DA2 		strb	r10, [sp, #669]
 528 0308 8DF89EC2 		strb	ip, [sp, #670]
 529 030c 8DF89F72 		strb	r7, [sp, #671]
 530 0310 8DF8A0E2 		strb	lr, [sp, #672]
 531 0314 8DF8A112 		strb	r1, [sp, #673]
 532 0318 4FF03F09 		mov	r9, #63
 533 031c 8DF8A292 		strb	r9, [sp, #674]
 534 0320 8DF8A342 		strb	r4, [sp, #675]
 535 0324 8DF8A462 		strb	r6, [sp, #676]
 536 0328 8DF8A522 		strb	r2, [sp, #677]
 537 032c 8DF8A682 		strb	r8, [sp, #678]
 538 0330 8DF8A802 		strb	r0, [sp, #680]
 539 0334 8DF8AA52 		strb	r5, [sp, #682]
 540 0338 4FF00709 		mov	r9, #7
 541 033c 8DF8AB92 		strb	r9, [sp, #683]
 542 0340 8DF8AC12 		strb	r1, [sp, #684]
 543 0344 8DF8AD72 		strb	r7, [sp, #685]
 544 0348 8DF8AEC2 		strb	ip, [sp, #686]
 545 034c 8DF8AFA2 		strb	r10, [sp, #687]
 546 0350 8DF8B0E2 		strb	lr, [sp, #688]
 547 0354 4FF06709 		mov	r9, #103
 548 0358 8DF8B192 		strb	r9, [sp, #689]
 549 035c 4FF03F09 		mov	r9, #63
 550 0360 8DF8B292 		strb	r9, [sp, #690]
 551 0364 8DF8B342 		strb	r4, [sp, #691]
 552 0368 8DF8B462 		strb	r6, [sp, #692]
 553 036c 8DF8B522 		strb	r2, [sp, #693]
 554 0370 8DF8B602 		strb	r0, [sp, #694]
 555 0374 8DF8B852 		strb	r5, [sp, #696]
 556 0378 4FF00809 		mov	r9, #8
 557 037c 8DF8B992 		strb	r9, [sp, #697]
 558 0380 8DF8BA82 		strb	r8, [sp, #698]
 559 0384 8DF8BB42 		strb	r4, [sp, #699]
 560 0388 8DF8BC12 		strb	r1, [sp, #700]
 561 038c 8DF8BDA2 		strb	r10, [sp, #701]
ARM GAS  C:\Users\info\AppData\Local\Temp\ccqSJUfY.s 			page 14


 562 0390 8DF8BEC2 		strb	ip, [sp, #702]
 563 0394 8DF8BF72 		strb	r7, [sp, #703]
 564 0398 8DF8C0E2 		strb	lr, [sp, #704]
 565 039c 4FF06707 		mov	r7, #103
 566 03a0 8DF8C172 		strb	r7, [sp, #705]
 567 03a4 4FF03F07 		mov	r7, #63
 568 03a8 8DF8C272 		strb	r7, [sp, #706]
 569 03ac 8DF8C462 		strb	r6, [sp, #708]
 570 03b0 8DF8C522 		strb	r2, [sp, #709]
 571 03b4 8DF8C602 		strb	r0, [sp, #710]
 572 03b8 8DF8C852 		strb	r5, [sp, #712]
 573 03bc 0927     		movs	r7, #9
 574 03be 8DF8C972 		strb	r7, [sp, #713]
 575 03c2 8DF8CA12 		strb	r1, [sp, #714]
 576 03c6 8DF8CB32 		strb	r3, [sp, #715]
 577 03ca 8DF8CCC2 		strb	ip, [sp, #716]
 578 03ce 4FF00F09 		mov	r9, #15
 579 03d2 8DF8CD92 		strb	r9, [sp, #717]
 580 03d6 8DF8CEE2 		strb	lr, [sp, #718]
 581 03da 6127     		movs	r7, #97
 582 03dc 8DF8CF72 		strb	r7, [sp, #719]
 583 03e0 8DF8D0B2 		strb	fp, [sp, #720]
 584 03e4 4FF0FF0A 		mov	r10, #255
 585 03e8 8DF8D1A2 		strb	r10, [sp, #721]
 586 03ec 08E0     		b	.L106
 587              	.L107:
 588 03ee 00BF     		.align	2
 589              	.L105:
 590 03f0 00000000 		.word	isr_tmr_handler
 591 03f4 00000000 		.word	dma_td
 592 03f8 00000000 		.word	dma_chan
 593 03fc 00000000 		.word	newline
 594              	.L106:
 595 0400 8DF8D262 		strb	r6, [sp, #722]
 596 0404 8DF8D322 		strb	r2, [sp, #723]
 597 0408 8DF8D402 		strb	r0, [sp, #724]
 598 040c 8DF8D542 		strb	r4, [sp, #725]
 599 0410 8DF8D652 		strb	r5, [sp, #726]
 600 0414 8DF8D812 		strb	r1, [sp, #728]
 601 0418 8DF8D932 		strb	r3, [sp, #729]
 602 041c 8DF8DAC2 		strb	ip, [sp, #730]
 603 0420 8DF8DB92 		strb	r9, [sp, #731]
 604 0424 8DF8DCE2 		strb	lr, [sp, #732]
 605 0428 6227     		movs	r7, #98
 606 042a 8DF8DD72 		strb	r7, [sp, #733]
 607 042e 8DF8DEB2 		strb	fp, [sp, #734]
 608 0432 8DF8E062 		strb	r6, [sp, #736]
 609 0436 8DF8E122 		strb	r2, [sp, #737]
 610 043a 8DF8E202 		strb	r0, [sp, #738]
 611 043e 8DF8E342 		strb	r4, [sp, #739]
 612 0442 8DF8E452 		strb	r5, [sp, #740]
 613 0446 8DF8E542 		strb	r4, [sp, #741]
 614 044a 8DF8E612 		strb	r1, [sp, #742]
 615 044e 8DF8E732 		strb	r3, [sp, #743]
 616 0452 8DF8E8C2 		strb	ip, [sp, #744]
 617 0456 8DF8E992 		strb	r9, [sp, #745]
 618 045a 8DF8EAE2 		strb	lr, [sp, #746]
ARM GAS  C:\Users\info\AppData\Local\Temp\ccqSJUfY.s 			page 15


 619 045e 8DF8EB02 		strb	r0, [sp, #747]
 620 0462 8DF8ECB2 		strb	fp, [sp, #748]
 621 0466 8DF8EDA2 		strb	r10, [sp, #749]
 622 046a 8DF8EE62 		strb	r6, [sp, #750]
 623 046e 8DF8EF22 		strb	r2, [sp, #751]
 624 0472 8DF8F082 		strb	r8, [sp, #752]
 625 0476 8DF8F202 		strb	r0, [sp, #754]
 626 047a 8DF8F342 		strb	r4, [sp, #755]
 627 047e 8DF8F452 		strb	r5, [sp, #756]
 628 0482 4FF00203 		mov	r3, #2
 629 0486 8DF8F532 		strb	r3, [sp, #757]
 630 048a 8DF8F612 		strb	r1, [sp, #758]
 631 048e 8123     		movs	r3, #129
 632 0490 8DF8F732 		strb	r3, [sp, #759]
 633 0494 8DF8F8E2 		strb	lr, [sp, #760]
 634 0498 0E23     		movs	r3, #14
 635 049a 8DF8F932 		strb	r3, [sp, #761]
 636 049e 4FF03F03 		mov	r3, #63
 637 04a2 8DF8FA32 		strb	r3, [sp, #762]
 638 04a6 8DF8FB42 		strb	r4, [sp, #763]
 639 04aa 8DF8FC62 		strb	r6, [sp, #764]
 640 04ae 8DF8FD22 		strb	r2, [sp, #765]
 641 04b2 8DF8FE02 		strb	r0, [sp, #766]
 642 04b6 8DF8FF42 		strb	r4, [sp, #767]
 643 04ba 8DF80053 		strb	r5, [sp, #768]
 644 04be 4FF00303 		mov	r3, #3
 645 04c2 8DF80133 		strb	r3, [sp, #769]
 646 04c6 8DF80283 		strb	r8, [sp, #770]
 647 04ca 8DF80343 		strb	r4, [sp, #771]
 648 04ce 8DF80413 		strb	r1, [sp, #772]
 649 04d2 4723     		movs	r3, #71
 650 04d4 8DF80533 		strb	r3, [sp, #773]
 651 04d8 7446     		mov	r4, lr
 652 04da 8DF806E3 		strb	lr, [sp, #774]
 653 04de 4FF00E03 		mov	r3, #14
 654 04e2 8DF80733 		strb	r3, [sp, #775]
 655 04e6 3F21     		movs	r1, #63
 656 04e8 8DF80813 		strb	r1, [sp, #776]
 657 04ec 3246     		mov	r2, r6
 658 04ee 8DF80A63 		strb	r6, [sp, #778]
 659 04f2 1025     		movs	r5, #16
 660 04f4 8DF80B53 		strb	r5, [sp, #779]
 661 04f8 0746     		mov	r7, r0
 662 04fa 8DF80C03 		strb	r0, [sp, #780]
 663 04fe 0120     		movs	r0, #1
 664 0500 8DF80D03 		strb	r0, [sp, #781]
 665 0504 4FF06409 		mov	r9, #100
 666 0508 8DF80E93 		strb	r9, [sp, #782]
 667 050c 0423     		movs	r3, #4
 668 050e 8DF80F33 		strb	r3, [sp, #783]
 669 0512 4646     		mov	r6, r8
 670 0514 8DF81083 		strb	r8, [sp, #784]
 671 0518 4FF06508 		mov	r8, #101
 672 051c 8DF81283 		strb	r8, [sp, #786]
 673 0520 8DF81303 		strb	r0, [sp, #787]
 674 0524 8DF814E3 		strb	lr, [sp, #788]
 675 0528 0623     		movs	r3, #6
ARM GAS  C:\Users\info\AppData\Local\Temp\ccqSJUfY.s 			page 16


 676 052a 8DF81533 		strb	r3, [sp, #789]
 677 052e 8DF81613 		strb	r1, [sp, #790]
 678 0532 8DF81703 		strb	r0, [sp, #791]
 679 0536 8DF81823 		strb	r2, [sp, #792]
 680 053a 8DF81953 		strb	r5, [sp, #793]
 681 053e 8DF81A73 		strb	r7, [sp, #794]
 682 0542 8DF81B03 		strb	r0, [sp, #795]
 683 0546 8DF81C93 		strb	r9, [sp, #796]
 684 054a 4FF0050E 		mov	lr, #5
 685 054e 8DF81DE3 		strb	lr, [sp, #797]
 686 0552 8DF81E63 		strb	r6, [sp, #798]
 687 0556 8DF81F03 		strb	r0, [sp, #799]
 688 055a 8DF82083 		strb	r8, [sp, #800]
 689 055e 4FF00206 		mov	r6, #2
 690 0562 8DF82163 		strb	r6, [sp, #801]
 691 0566 8DF82243 		strb	r4, [sp, #802]
 692 056a 8DF82333 		strb	r3, [sp, #803]
 693 056e 8DF82413 		strb	r1, [sp, #804]
 694 0572 8DF82623 		strb	r2, [sp, #806]
 695 0576 8DF82753 		strb	r5, [sp, #807]
 696 057a 8DF82873 		strb	r7, [sp, #808]
 697 057e 8DF82903 		strb	r0, [sp, #809]
 698 0582 8DF82A93 		strb	r9, [sp, #810]
 699 0586 8DF82B33 		strb	r3, [sp, #811]
 700 058a 6023     		movs	r3, #96
 701 058c 8DF82C33 		strb	r3, [sp, #812]
 702 0590 4FF0150A 		mov	r10, #21
 703 0594 8DF82DA3 		strb	r10, [sp, #813]
 704 0598 4FF0610E 		mov	lr, #97
 705 059c 8DF82EE3 		strb	lr, [sp, #814]
 706 05a0 4FF07801 		mov	r1, #120
 707 05a4 8DF82F13 		strb	r1, [sp, #815]
 708 05a8 4FF0A30C 		mov	ip, #163
 709 05ac 8DF830C3 		strb	ip, [sp, #816]
 710 05b0 D024     		movs	r4, #208
 711 05b2 8DF83143 		strb	r4, [sp, #817]
 712 05b6 F121     		movs	r1, #241
 713 05b8 8DF83213 		strb	r1, [sp, #818]
 714 05bc 5526     		movs	r6, #85
 715 05be 8DF83363 		strb	r6, [sp, #819]
 716 05c2 8DF83413 		strb	r1, [sp, #820]
 717 05c6 8DF83583 		strb	r8, [sp, #821]
 718 05ca 3026     		movs	r6, #48
 719 05cc 8DF83663 		strb	r6, [sp, #822]
 720 05d0 8DF837A3 		strb	r10, [sp, #823]
 721 05d4 8DF83823 		strb	r2, [sp, #824]
 722 05d8 8DF83953 		strb	r5, [sp, #825]
 723 05dc 3121     		movs	r1, #49
 724 05de 8DF83A13 		strb	r1, [sp, #826]
 725 05e2 4FF07801 		mov	r1, #120
 726 05e6 8DF83B13 		strb	r1, [sp, #827]
 727 05ea 8DF83C23 		strb	r2, [sp, #828]
 728 05ee 8DF83D53 		strb	r5, [sp, #829]
 729 05f2 8DF83E73 		strb	r7, [sp, #830]
 730 05f6 8DF83F03 		strb	r0, [sp, #831]
 731 05fa 8DF84093 		strb	r9, [sp, #832]
 732 05fe 0721     		movs	r1, #7
ARM GAS  C:\Users\info\AppData\Local\Temp\ccqSJUfY.s 			page 17


 733 0600 8DF84113 		strb	r1, [sp, #833]
 734 0604 8DF84233 		strb	r3, [sp, #834]
 735 0608 8A21     		movs	r1, #138
 736 060a 8DF84313 		strb	r1, [sp, #835]
 737 060e 8DF844C3 		strb	ip, [sp, #836]
 738 0612 8DF84543 		strb	r4, [sp, #837]
 739 0616 F021     		movs	r1, #240
 740 0618 8DF84613 		strb	r1, [sp, #838]
 741 061c 4FF03309 		mov	r9, #51
 742 0620 8DF84793 		strb	r9, [sp, #839]
 743 0624 8DF848C3 		strb	ip, [sp, #840]
 744 0628 8DF84943 		strb	r4, [sp, #841]
 745 062c 8DF84A13 		strb	r1, [sp, #842]
 746 0630 8DF84B83 		strb	r8, [sp, #843]
 747 0634 8DF84C63 		strb	r6, [sp, #844]
 748 0638 8DF84D03 		strb	r0, [sp, #845]
 749 063c 8DF84E23 		strb	r2, [sp, #846]
 750 0640 8DF84F53 		strb	r5, [sp, #847]
 751 0644 8DF85033 		strb	r3, [sp, #848]
 752 0648 8DF85103 		strb	r0, [sp, #849]
 753 064c 8DF85213 		strb	r1, [sp, #850]
 754 0650 4FF01E0B 		mov	fp, #30
 755 0654 8DF853B3 		strb	fp, [sp, #851]
 756 0658 8DF85413 		strb	r1, [sp, #852]
 757 065c 8DF85583 		strb	r8, [sp, #853]
 758 0660 8DF85663 		strb	r6, [sp, #854]
 759 0664 4FF00309 		mov	r9, #3
 760 0668 8DF85793 		strb	r9, [sp, #855]
 761 066c 8DF85823 		strb	r2, [sp, #856]
 762 0670 8DF85953 		strb	r5, [sp, #857]
 763 0674 8DF85A33 		strb	r3, [sp, #858]
 764 0678 8DF85B03 		strb	r0, [sp, #859]
 765 067c 8DF85C13 		strb	r1, [sp, #860]
 766 0680 8DF85DB3 		strb	fp, [sp, #861]
 767 0684 8DF85E13 		strb	r1, [sp, #862]
 768 0688 8DF85F83 		strb	r8, [sp, #863]
 769 068c 8DF86063 		strb	r6, [sp, #864]
 770 0690 4FF00808 		mov	r8, #8
 771 0694 8DF86183 		strb	r8, [sp, #865]
 772 0698 8DF86223 		strb	r2, [sp, #866]
 773 069c 8DF86353 		strb	r5, [sp, #867]
 774 06a0 8DF86423 		strb	r2, [sp, #868]
 775 06a4 3220     		movs	r0, #50
 776 06a6 8DF86503 		strb	r0, [sp, #869]
 777 06aa 8DF86623 		strb	r2, [sp, #870]
 778 06ae 4FF00E00 		mov	r0, #14
 779 06b2 8DF86703 		strb	r0, [sp, #871]
 780 06b6 8DF868C3 		strb	ip, [sp, #872]
 781 06ba 2A20     		movs	r0, #42
 782 06bc 8DF86903 		strb	r0, [sp, #873]
 783 06c0 8DF86A33 		strb	r3, [sp, #874]
 784 06c4 8DF86B23 		strb	r2, [sp, #875]
 785 06c8 8DF86CE3 		strb	lr, [sp, #876]
 786 06cc 0920     		movs	r0, #9
 787 06ce 8DF86D03 		strb	r0, [sp, #877]
 788 06d2 8DF86E43 		strb	r4, [sp, #878]
 789 06d6 4FF01809 		mov	r9, #24
ARM GAS  C:\Users\info\AppData\Local\Temp\ccqSJUfY.s 			page 18


 790 06da 8DF86F93 		strb	r9, [sp, #879]
 791 06de 6FF00C00 		mvn	r0, #12
 792 06e2 8DF87003 		strb	r0, [sp, #880]
 793 06e6 4FF02900 		mov	r0, #41
 794 06ea 8DF87103 		strb	r0, [sp, #881]
 795 06ee 8DF87233 		strb	r3, [sp, #882]
 796 06f2 2225     		movs	r5, #34
 797 06f4 8DF87353 		strb	r5, [sp, #883]
 798 06f8 8DF874E3 		strb	lr, [sp, #884]
 799 06fc 0B25     		movs	r5, #11
 800 06fe 8DF87553 		strb	r5, [sp, #885]
 801 0702 8DF87643 		strb	r4, [sp, #886]
 802 0706 8DF877A3 		strb	r10, [sp, #887]
 803 070a 6FF00B00 		mvn	r0, #11
 804 070e 8DF87803 		strb	r0, [sp, #888]
 805 0712 4FF02900 		mov	r0, #41
 806 0716 8DF87903 		strb	r0, [sp, #889]
 807 071a 8DF87A33 		strb	r3, [sp, #890]
 808 071e 2820     		movs	r0, #40
 809 0720 8DF87B03 		strb	r0, [sp, #891]
 810 0724 8DF87CE3 		strb	lr, [sp, #892]
 811 0728 8DF87D53 		strb	r5, [sp, #893]
 812 072c 8DF87E43 		strb	r4, [sp, #894]
 813 0730 8DF87FA3 		strb	r10, [sp, #895]
 814 0734 8DF88023 		strb	r2, [sp, #896]
 815 0738 4FF00E00 		mov	r0, #14
 816 073c 8DF88103 		strb	r0, [sp, #897]
 817 0740 FF20     		movs	r0, #255
 818 0742 8DF88203 		strb	r0, [sp, #898]
 819 0746 8DF88313 		strb	r1, [sp, #899]
 820 074a 8DF88413 		strb	r1, [sp, #900]
 821 074e 8DF88503 		strb	r0, [sp, #901]
 822 0752 8DF88613 		strb	r1, [sp, #902]
 823 0756 8DF88713 		strb	r1, [sp, #903]
 824 075a 8DF88813 		strb	r1, [sp, #904]
 825 075e 8DF88903 		strb	r0, [sp, #905]
 826 0762 8DF88AC3 		strb	ip, [sp, #906]
 827 0766 5820     		movs	r0, #88
 828 0768 8DF88B03 		strb	r0, [sp, #907]
 829 076c 8DF88C33 		strb	r3, [sp, #908]
 830 0770 8DF88DA3 		strb	r10, [sp, #909]
 831 0774 8DF88EE3 		strb	lr, [sp, #910]
 832 0778 8DF88F53 		strb	r5, [sp, #911]
 833 077c 8DF89073 		strb	r7, [sp, #912]
 834 0780 8DF89183 		strb	r8, [sp, #913]
 835 0784 8DF89243 		strb	r4, [sp, #914]
 836 0788 8DF89393 		strb	r9, [sp, #915]
 837 078c 7025     		movs	r5, #112
 838 078e 8DF89453 		strb	r5, [sp, #916]
 839 0792 8DF89583 		strb	r8, [sp, #917]
 840 0796 6FF00C00 		mvn	r0, #12
 841 079a 8DF89603 		strb	r0, [sp, #918]
 842 079e 8DF897B3 		strb	fp, [sp, #919]
 843 07a2 8DF89863 		strb	r6, [sp, #920]
 844 07a6 2D20     		movs	r0, #45
 845 07a8 8DF89903 		strb	r0, [sp, #921]
 846 07ac 8DF89A23 		strb	r2, [sp, #922]
ARM GAS  C:\Users\info\AppData\Local\Temp\ccqSJUfY.s 			page 19


 847 07b0 3A20     		movs	r0, #58
 848 07b2 8DF89B03 		strb	r0, [sp, #923]
 849 07b6 8DF89CC3 		strb	ip, [sp, #924]
 850 07ba 8DF89D53 		strb	r5, [sp, #925]
 851 07be 8DF89E33 		strb	r3, [sp, #926]
 852 07c2 4FF00200 		mov	r0, #2
 853 07c6 8DF89F03 		strb	r0, [sp, #927]
 854 07ca 8DF8A0E3 		strb	lr, [sp, #928]
 855 07ce 8DF8A193 		strb	r9, [sp, #929]
 856 07d2 8DF8A273 		strb	r7, [sp, #930]
 857 07d6 8DF8A383 		strb	r8, [sp, #931]
 858 07da 8DF8A443 		strb	r4, [sp, #932]
 859 07de 8DF8A593 		strb	r9, [sp, #933]
 860 07e2 8DF8A653 		strb	r5, [sp, #934]
 861 07e6 4FF00500 		mov	r0, #5
 862 07ea 8DF8A703 		strb	r0, [sp, #935]
 863 07ee 6FF00C00 		mvn	r0, #12
 864 07f2 8DF8A803 		strb	r0, [sp, #936]
 865 07f6 8DF8A9B3 		strb	fp, [sp, #937]
 866 07fa 8DF8AA63 		strb	r6, [sp, #938]
 867 07fe 3E20     		movs	r0, #62
 868 0800 8DF8AB03 		strb	r0, [sp, #939]
 869 0804 8DF8AC23 		strb	r2, [sp, #940]
 870 0808 4C20     		movs	r0, #76
 871 080a 8DF8AD03 		strb	r0, [sp, #941]
 872 080e 8DF8AE23 		strb	r2, [sp, #942]
 873 0812 4FF00E02 		mov	r2, #14
 874 0816 8DF8AF23 		strb	r2, [sp, #943]
 875 081a 8DF8B013 		strb	r1, [sp, #944]
 876 081e 8822     		movs	r2, #136
 877 0820 8DF8B123 		strb	r2, [sp, #945]
 878 0824 8DF8B223 		strb	r2, [sp, #946]
 879 0828 8DF8B313 		strb	r1, [sp, #947]
 880 082c 8DF8B423 		strb	r2, [sp, #948]
 881 0830 8DF8B523 		strb	r2, [sp, #949]
 882 0834 8DF8B623 		strb	r2, [sp, #950]
 883 0838 8DF8B713 		strb	r1, [sp, #951]
 884 083c 4FF07802 		mov	r2, #120
 885 0840 8DF8B823 		strb	r2, [sp, #952]
 886 0844 8422     		movs	r2, #132
 887 0846 8DF8B923 		strb	r2, [sp, #953]
 888 084a 8DF8BA23 		strb	r2, [sp, #954]
 889 084e 8DF8BB23 		strb	r2, [sp, #955]
 890 0852 8DF8BC23 		strb	r2, [sp, #956]
 891 0856 8DF8BD23 		strb	r2, [sp, #957]
 892 085a 8DF8BE23 		strb	r2, [sp, #958]
 893 085e 4FF07801 		mov	r1, #120
 894 0862 8DF8BF13 		strb	r1, [sp, #959]
 895 0866 8DF8C023 		strb	r2, [sp, #960]
 896 086a C421     		movs	r1, #196
 897 086c 8DF8C113 		strb	r1, [sp, #961]
 898 0870 A421     		movs	r1, #164
 899 0872 8DF8C213 		strb	r1, [sp, #962]
 900 0876 9421     		movs	r1, #148
 901 0878 8DF8C313 		strb	r1, [sp, #963]
 902 087c 8C21     		movs	r1, #140
 903 087e 8DF8C413 		strb	r1, [sp, #964]
ARM GAS  C:\Users\info\AppData\Local\Temp\ccqSJUfY.s 			page 20


 904 0882 8DF8C523 		strb	r2, [sp, #965]
 905 0886 8DF8C623 		strb	r2, [sp, #966]
 906 088a 8DF8C723 		strb	r2, [sp, #967]
 907 088e C020     		movs	r0, #192
 908 0890 8DF8C803 		strb	r0, [sp, #968]
 909 0894 A022     		movs	r2, #160
 910 0896 8DF8C923 		strb	r2, [sp, #969]
 911 089a 8DF8CA23 		strb	r2, [sp, #970]
 912 089e 8DF8CB03 		strb	r0, [sp, #971]
 913 08a2 8DF8CC23 		strb	r2, [sp, #972]
 914 08a6 8DF8CD23 		strb	r2, [sp, #973]
 915 08aa 8DF8CE03 		strb	r0, [sp, #974]
 916 08ae 8DF8D223 		strb	r2, [sp, #978]
 917 08b2 8DF8D323 		strb	r2, [sp, #979]
 918 08b6 E025     		movs	r5, #224
 919 08b8 8DF8D453 		strb	r5, [sp, #980]
 920 08bc 2024     		movs	r4, #32
 921 08be 8DF8D543 		strb	r4, [sp, #981]
 922 08c2 8DF8D643 		strb	r4, [sp, #982]
 923 08c6 8DF8D753 		strb	r5, [sp, #983]
 924 08ca 8DF8E003 		strb	r0, [sp, #992]
 925 08ce 8DF8E123 		strb	r2, [sp, #993]
 926 08d2 8DF8E223 		strb	r2, [sp, #994]
 927 08d6 8DF8E303 		strb	r0, [sp, #995]
 928 08da 8DF8E423 		strb	r2, [sp, #996]
 929 08de 8DF8E523 		strb	r2, [sp, #997]
 930 08e2 8DF8E603 		strb	r0, [sp, #998]
 931 08e6 8DF8EA33 		strb	r3, [sp, #1002]
 932 08ea 8DF8EB23 		strb	r2, [sp, #1003]
 933 08ee 8DF8EC03 		strb	r0, [sp, #1004]
 934 08f2 8021     		movs	r1, #128
 935 08f4 8DF8ED13 		strb	r1, [sp, #1005]
 936 08f8 8DF8EE33 		strb	r3, [sp, #1006]
 937 08fc 8DF8F233 		strb	r3, [sp, #1010]
 938 0900 8DF8F313 		strb	r1, [sp, #1011]
 939 0904 4026     		movs	r6, #64
 940 0906 8DF8F463 		strb	r6, [sp, #1012]
 941 090a 8DF8F543 		strb	r4, [sp, #1013]
 942 090e 8DF8F603 		strb	r0, [sp, #1014]
 943 0912 8DF8F813 		strb	r1, [sp, #1016]
 944 0916 8DF8F913 		strb	r1, [sp, #1017]
 945 091a 8DF8FA03 		strb	r0, [sp, #1018]
 946 091e 8DF8FB13 		strb	r1, [sp, #1019]
 947 0922 8DF8FC13 		strb	r1, [sp, #1020]
 948 0926 8DF8FD13 		strb	r1, [sp, #1021]
 949 092a 8DF8FE33 		strb	r3, [sp, #1022]
 950 092e 8DF80054 		strb	r5, [sp, #1024]
 951 0932 8DF80114 		strb	r1, [sp, #1025]
 952 0936 8DF80214 		strb	r1, [sp, #1026]
 953 093a 8DF80314 		strb	r1, [sp, #1027]
 954 093e 8DF80414 		strb	r1, [sp, #1028]
 955 0942 8DF80514 		strb	r1, [sp, #1029]
 956 0946 8DF80654 		strb	r5, [sp, #1030]
 957 094a 8DF80A64 		strb	r6, [sp, #1034]
 958 094e 8DF80B24 		strb	r2, [sp, #1035]
 959 0952 8DF80C24 		strb	r2, [sp, #1036]
 960 0956 8DF80D24 		strb	r2, [sp, #1037]
ARM GAS  C:\Users\info\AppData\Local\Temp\ccqSJUfY.s 			page 21


 961 095a 8DF80E64 		strb	r6, [sp, #1038]
 962 095e 8DF81044 		strb	r4, [sp, #1040]
 963 0962 8DF81144 		strb	r4, [sp, #1041]
 964 0966 8DF81244 		strb	r4, [sp, #1042]
 965 096a 8DF81334 		strb	r3, [sp, #1043]
 966 096e 8DF81424 		strb	r2, [sp, #1044]
 967 0972 8DF81524 		strb	r2, [sp, #1045]
 968 0976 8DF81634 		strb	r3, [sp, #1046]
 969 097a 8DF81A34 		strb	r3, [sp, #1050]
 970 097e 8DF81B24 		strb	r2, [sp, #1051]
 971 0982 8DF81C04 		strb	r0, [sp, #1052]
 972 0986 8DF81D14 		strb	r1, [sp, #1053]
 973 098a 6023     		movs	r3, #96
 974 098c 8DF81E34 		strb	r3, [sp, #1054]
 975 0990 8DF82334 		strb	r3, [sp, #1059]
 976 0994 8DF82464 		strb	r6, [sp, #1060]
 977 0998 8DF82564 		strb	r6, [sp, #1061]
 978 099c 5023     		movs	r3, #80
 979 099e 8DF82634 		strb	r3, [sp, #1062]
 980              	.LVL36:
 176:main.c        ****     
 177:main.c        ****     /* CHIP8 Register File*/
 178:main.c        ****     uint8_t v[16];
 179:main.c        ****     uint16_t i = 0;
 180:main.c        ****     uint16_t pc = 0x0200;
 181:main.c        ****     uint8_t sp = 0x00;
 182:main.c        ****     uint16_t stack[16] = {0};
 981              		.loc 1 182 0
 982 09a2 2246     		mov	r2, r4
 983 09a4 0021     		movs	r1, #0
 984 09a6 0AA8     		add	r0, sp, #40
 985 09a8 FFF7FEFF 		bl	memset
 986              	.LVL37:
 987              	.LBB8:
 183:main.c        ****     
 184:main.c        ****     /* Clear screen */
 185:main.c        ****     for (uint8_t j = 0; j < 32; j++){
 988              		.loc 1 185 0
 989 09ac 0023     		movs	r3, #0
 990 09ae 08E0     		b	.L24
 991              	.LVL38:
 992              	.L25:
 186:main.c        ****         vram[j] = 0;
 993              		.loc 1 186 0 discriminator 3
 994 09b0 AC4A     		ldr	r2, .L108
 995 09b2 02EBC302 		add	r2, r2, r3, lsl #3
 996 09b6 0020     		movs	r0, #0
 997 09b8 0021     		movs	r1, #0
 998 09ba C2E90001 		strd	r0, [r2]
 185:main.c        ****         vram[j] = 0;
 999              		.loc 1 185 0 discriminator 3
 1000 09be 0133     		adds	r3, r3, #1
 1001              	.LVL39:
 1002 09c0 DBB2     		uxtb	r3, r3
 1003              	.LVL40:
 1004              	.L24:
 185:main.c        ****         vram[j] = 0;
ARM GAS  C:\Users\info\AppData\Local\Temp\ccqSJUfY.s 			page 22


 1005              		.loc 1 185 0 is_stmt 0 discriminator 1
 1006 09c2 1F2B     		cmp	r3, #31
 1007 09c4 F4D9     		bls	.L25
 1008              	.LBE8:
 187:main.c        ****     }
 188:main.c        ****     
 189:main.c        ****     /* Initialize Random Generator */
 190:main.c        ****     random_Enable();
 1009              		.loc 1 190 0 is_stmt 1
 1010 09c6 FFF7FEFF 		bl	random_Enable
 1011              	.LVL41:
 191:main.c        ****     random_Init();
 1012              		.loc 1 191 0
 1013 09ca FFF7FEFF 		bl	random_Init
 1014              	.LVL42:
 192:main.c        ****     random_Start();
 1015              		.loc 1 192 0
 1016 09ce FFF7FEFF 		bl	random_Start
 1017              	.LVL43:
 193:main.c        ****     
 194:main.c        ****     /* Turn on LED to indicate execution */
 195:main.c        ****     pin_led_Write(1);
 1018              		.loc 1 195 0
 1019 09d2 0120     		movs	r0, #1
 1020 09d4 FFF7FEFF 		bl	pin_led_Write
 1021              	.LVL44:
 181:main.c        ****     uint16_t stack[16] = {0};
 1022              		.loc 1 181 0
 1023 09d8 4FF00008 		mov	r8, #0
 180:main.c        ****     uint8_t sp = 0x00;
 1024              		.loc 1 180 0
 1025 09dc 4FF4007A 		mov	r10, #512
 179:main.c        ****     uint16_t pc = 0x0200;
 1026              		.loc 1 179 0
 1027 09e0 C346     		mov	fp, r8
 1028              	.LVL45:
 1029              	.L26:
 1030              	.LBB9:
 196:main.c        ****     
 197:main.c        ****     /* Emulate away.. */
 198:main.c        ****     while(1){
 199:main.c        ****         /* Get the instruction at the current address */
 200:main.c        ****         uint16_t instr = (ram[pc] << 8) | ram[pc+1];
 1031              		.loc 1 200 0
 1032 09e2 16AB     		add	r3, sp, #88
 1033 09e4 13F80A60 		ldrb	r6, [r3, r10]	@ zero_extendqisi2
 1034 09e8 0AF10102 		add	r2, r10, #1
 1035 09ec 9B5C     		ldrb	r3, [r3, r2]	@ zero_extendqisi2
 1036 09ee 43EA0626 		orr	r6, r3, r6, lsl #8
 1037 09f2 36B2     		sxth	r6, r6
 1038 09f4 B5B2     		uxth	r5, r6
 1039              	.LVL46:
 201:main.c        ****         
 202:main.c        ****         /* Decode the opcodes */
 203:main.c        ****         uint8_t op3 = (instr & 0xf000) >> 12;
 1040              		.loc 1 203 0
 1041 09f6 2A0B     		lsrs	r2, r5, #12
ARM GAS  C:\Users\info\AppData\Local\Temp\ccqSJUfY.s 			page 23


 1042              	.LVL47:
 204:main.c        ****         uint8_t op2 = (instr & 0x0f00) >> 8;
 1043              		.loc 1 204 0
 1044 09f8 C5F30324 		ubfx	r4, r5, #8, #4
 1045              	.LVL48:
 205:main.c        ****         uint8_t op10 = instr & 0x00ff;
 1046              		.loc 1 205 0
 1047 09fc F6B2     		uxtb	r6, r6
 1048              	.LVL49:
 206:main.c        ****         uint8_t op0 = instr & 0x000f;
 1049              		.loc 1 206 0
 1050 09fe 06F00F07 		and	r7, r6, #15
 1051              	.LVL50:
 207:main.c        ****         
 208:main.c        ****         /* Decode the immediates */
 209:main.c        ****         uint16_t nnn = instr & 0x0fff;
 1052              		.loc 1 209 0
 1053 0a02 C5F30B03 		ubfx	r3, r5, #0, #12
 1054              	.LVL51:
 210:main.c        ****         uint8_t x = (instr & 0x0f00) >> 8;
 211:main.c        ****         uint8_t y = (instr & 0x00f0) >> 4;
 1055              		.loc 1 211 0
 1056 0a06 C5F30315 		ubfx	r5, r5, #4, #4
 1057              	.LVL52:
 212:main.c        ****         uint8_t kk = instr & 0x00ff;
 213:main.c        ****         uint8_t n = instr & 0x000f;
 214:main.c        ****         
 215:main.c        ****         /* This flag is set if an invalid OP is encountered */
 216:main.c        ****         uint8_t invalid_op = 0;
 217:main.c        ****         
 218:main.c        ****         /* This flag is set if a new PC was set and must not be incremented */
 219:main.c        ****         uint8_t freeze_pc = 0;
 220:main.c        ****         
 221:main.c        ****         /* Branch on opcodes and execute */
 222:main.c        ****         switch(op3){
 1058              		.loc 1 222 0
 1059 0a0a 0F2A     		cmp	r2, #15
 1060 0a0c 11D8     		bhi	.L27
 1061 0a0e DFE812F0 		tbh	[pc, r2, lsl #1]
 1062              	.L29:
 1063 0a12 1300     		.2byte	(.L28-.L29)/2
 1064 0a14 4602     		.2byte	(.L82-.L29)/2
 1065 0a16 3D00     		.2byte	(.L31-.L29)/2
 1066 0a18 4C00     		.2byte	(.L32-.L29)/2
 1067 0a1a 5800     		.2byte	(.L33-.L29)/2
 1068 0a1c 6400     		.2byte	(.L34-.L29)/2
 1069 0a1e 8400     		.2byte	(.L35-.L29)/2
 1070 0a20 8900     		.2byte	(.L36-.L29)/2
 1071 0a22 9000     		.2byte	(.L37-.L29)/2
 1072 0a24 7400     		.2byte	(.L38-.L29)/2
 1073 0a26 0101     		.2byte	(.L39-.L29)/2
 1074 0a28 3700     		.2byte	(.L40-.L29)/2
 1075 0a2a 0501     		.2byte	(.L41-.L29)/2
 1076 0a2c 7701     		.2byte	(.L83-.L29)/2
 1077 0a2e 9401     		.2byte	(.L43-.L29)/2
 1078 0a30 BA01     		.2byte	(.L44-.L29)/2
 1079              		.p2align 1
ARM GAS  C:\Users\info\AppData\Local\Temp\ccqSJUfY.s 			page 24


 1080              	.L27:
 219:main.c        ****         
 1081              		.loc 1 219 0
 1082 0a32 0023     		movs	r3, #0
 1083              	.LVL53:
 223:main.c        ****         case OP3_SYSTEM:
 224:main.c        ****             /* System operations */
 225:main.c        ****             if (op2 != OP2_SYSTEM){
 226:main.c        ****                 invalid_op = 1;
 227:main.c        ****             } else {
 228:main.c        ****                 switch(op10){
 229:main.c        ****                 case OP10_SYSTEM_CLEAR:
 230:main.c        ****                     /* Clear screen */
 231:main.c        ****                     for (int j = 0; j < 32; j++){
 232:main.c        ****                         vram[j] = 0;
 233:main.c        ****                     }
 234:main.c        ****                     break;
 235:main.c        ****                 case OP10_SYSTEM_RETURN:
 236:main.c        ****                     /* Return from instruction */
 237:main.c        ****                     sp = (sp == 0x0) ? 0x0 : sp - 1;
 238:main.c        ****                     pc = stack[sp];
 239:main.c        ****                     freeze_pc = 1;
 240:main.c        ****                     break;
 241:main.c        ****                 default:
 242:main.c        ****                     invalid_op = 1;
 243:main.c        ****                     break;
 244:main.c        ****                 }
 245:main.c        ****             }
 246:main.c        ****             break;
 247:main.c        ****         case OP3_JUMP_ABSOLUTE:
 248:main.c        ****             /* Jump to absolute address nnn */
 249:main.c        ****             pc = nnn;
 250:main.c        ****             freeze_pc = 1;
 251:main.c        ****             break;
 252:main.c        ****         case OP3_JUMP_OFFSET:
 253:main.c        ****             /* Jump to absolute address nnn + offset V0 */
 254:main.c        ****             pc = nnn + v[0];
 255:main.c        ****             freeze_pc = 1;
 256:main.c        ****             break;
 257:main.c        ****         case OP3_CALL_SUBROUTINE:
 258:main.c        ****             /* Call subroutine at nnn */
 259:main.c        ****             stack[sp] = pc;
 260:main.c        ****             sp = (sp == 0xf) ? 0xf : sp + 1;
 261:main.c        ****             pc = nnn;
 262:main.c        ****             freeze_pc = 1;
 263:main.c        ****             break;
 264:main.c        ****         case OP3_SKIP_NEXT_EQ_IM:
 265:main.c        ****             /* Skip next instruction if Vx == kk */
 266:main.c        ****             if (v[x] == kk) {
 267:main.c        ****                 pc += 2;
 268:main.c        ****             }
 269:main.c        ****             break;
 270:main.c        ****         case OP3_SKIP_NEXT_NEQ_IM:
 271:main.c        ****             /* Skip next instruction if Vx != kk */
 272:main.c        ****             if (v[x] != kk) {
 273:main.c        ****                 pc += 2;
 274:main.c        ****             }
ARM GAS  C:\Users\info\AppData\Local\Temp\ccqSJUfY.s 			page 25


 275:main.c        ****             break;
 276:main.c        ****         case OP3_SKIP_NEXT_EQ:
 277:main.c        ****             /* Skip next instruction if Vx == Vy */
 278:main.c        ****             if (op0 == OP0_SKIP_NEXT){
 279:main.c        ****                 if (v[x] == v[y]) {
 280:main.c        ****                     pc += 2;
 281:main.c        ****                 }
 282:main.c        ****             } else {
 283:main.c        ****                 invalid_op = 1;
 284:main.c        ****             }
 285:main.c        ****             break;
 286:main.c        ****         case OP3_SKIP_NEXT_NEQ:
 287:main.c        ****             /* Skip next instruction if Vx != Vy */
 288:main.c        ****             if (op0 == OP0_SKIP_NEXT){
 289:main.c        ****                 if (v[x] != v[y]) {
 290:main.c        ****                     pc += 2;
 291:main.c        ****                 }
 292:main.c        ****             } else {
 293:main.c        ****                 invalid_op = 1;
 294:main.c        ****             }
 295:main.c        ****             break;
 296:main.c        ****         case OP3_LOAD_V:
 297:main.c        ****             /* Vx = kk */
 298:main.c        ****             v[x] = kk;
 299:main.c        ****             break;
 300:main.c        ****         case OP3_ADD_IM:
 301:main.c        ****             /* Vx += kk */
 302:main.c        ****             v[x] += kk;
 303:main.c        ****             break;
 304:main.c        ****         case OP3_ARITH:
 305:main.c        ****             /* Arithmetic operations */
 306:main.c        ****             switch(op0) {
 307:main.c        ****             case OP0_ARITH_LOAD:
 308:main.c        ****                 /* Vx = Vy */
 309:main.c        ****                 v[x] = v[y];
 310:main.c        ****                 break;
 311:main.c        ****             case OP0_ARITH_OR:
 312:main.c        ****                 /* Vx = Vx | Vy */
 313:main.c        ****                 v[x] |= v[y];
 314:main.c        ****                 break;
 315:main.c        ****             case OP0_ARITH_AND:
 316:main.c        ****                 /* Vx = Vx & Vy */
 317:main.c        ****                 v[x] &= v[y];
 318:main.c        ****                 break;
 319:main.c        ****             case OP0_ARITH_XOR:
 320:main.c        ****                 /* Vx = Vx ^ Vy */
 321:main.c        ****                 v[x] ^= v[y];
 322:main.c        ****                 break;
 323:main.c        ****             case OP0_ARITH_ADD:
 324:main.c        ****                 /* Vx = Vx + Vy */
 325:main.c        ****                 v[x] += v[y];
 326:main.c        ****                 break;
 327:main.c        ****             case OP0_ARITH_SUB:{
 328:main.c        ****                 /* Vx = Vx - Vy, Vf = not borrow */
 329:main.c        ****                 uint16_t vx = v[x];
 330:main.c        ****                 uint16_t vy = v[y];
 331:main.c        ****                 uint16_t diff = vx - vy;                                
ARM GAS  C:\Users\info\AppData\Local\Temp\ccqSJUfY.s 			page 26


 332:main.c        ****                 v[x] = diff;
 333:main.c        ****                 v[0xf] = (diff & 0x100) ? 0 : 1;
 334:main.c        ****                 break;
 335:main.c        ****             }
 336:main.c        ****             case OP0_ARITH_SHR:
 337:main.c        ****                 /* Vx = Vx >> Vy */
 338:main.c        ****                 v[0xf] = (v[x] & 0x01) ? 1 : 0;
 339:main.c        ****                 v[x] >>= 1;
 340:main.c        ****                 break;
 341:main.c        ****             case OP0_ARITH_SUBN:{
 342:main.c        ****                 /* Vx = Vy - Vx, Vf = not borrow */
 343:main.c        ****                 uint16_t vx = v[x];
 344:main.c        ****                 uint16_t vy = v[y];
 345:main.c        ****                 uint16_t diff = vy - vx;                                
 346:main.c        ****                 v[x] = diff;
 347:main.c        ****                 v[0xf] = (diff & 0x100) ? 0 : 1;
 348:main.c        ****                 break;
 349:main.c        ****             }
 350:main.c        ****             case OP0_ARITH_SHL:
 351:main.c        ****                 /* Vx = Vx << 1, Vf = carry */
 352:main.c        ****                 v[0xf] = (v[x] & 0x80) ? 1 : 0;
 353:main.c        ****                 v[x] <<= 1;
 354:main.c        ****                 break;
 355:main.c        ****             default:
 356:main.c        ****                 invalid_op = 1;
 357:main.c        ****                 break;
 358:main.c        ****             }
 359:main.c        ****             break;
 360:main.c        ****         case OP3_LOAD_I:
 361:main.c        ****             /* I = nnn */
 362:main.c        ****             i = nnn;
 363:main.c        ****             break;
 364:main.c        ****         case OP3_RANDOM:
 365:main.c        ****             /* Vx = (random byte) & kk */            
 366:main.c        ****             v[x] = random_Read() & kk;
 367:main.c        ****             break;
 368:main.c        ****         case OP3_DRAW:{
 369:main.c        ****             uint64_t collision = 0;
 370:main.c        ****             /* Draw sprite from I at (Vx, Vy), vf = collision, see reference */
 371:main.c        ****             for (int j = 0; j < n; j++){
 372:main.c        ****                 uint64_t row = 0;
 373:main.c        ****                 if (v[x] <= 56){
 374:main.c        ****                     row = ((uint64_t)ram[i + j]) << (56 - v[x]);
 375:main.c        ****                 } else {
 376:main.c        ****                     row = ((uint64_t)ram[i + j]) >> (v[x] - 56)
 377:main.c        ****                         | ((uint64_t)ram[i + j]) << (120 - v[x]);
 378:main.c        ****                 }
 379:main.c        ****                 collision |= vram[(v[y] + j) % 32] & row;
 380:main.c        ****                 vram[(v[y] + j) % 32] ^= row;
 381:main.c        ****             }
 382:main.c        ****             v[0xf] = collision ? 1 : 0;
 383:main.c        ****             vga_update_flag = 1;
 384:main.c        ****             break;
 385:main.c        ****         }
 386:main.c        ****         case OP3_KEYBOARD:
 387:main.c        ****             /* Keyboard operations */
 388:main.c        ****             switch(op10){
ARM GAS  C:\Users\info\AppData\Local\Temp\ccqSJUfY.s 			page 27


 389:main.c        ****             case OP10_KEYBOARD_EQ:
 390:main.c        ****                 /* Skip next instruction if Vx pressed */
 391:main.c        ****                 if (keys[v[x] & 0xf] == 1){
 392:main.c        ****                     pc += 2;
 393:main.c        ****                 }
 394:main.c        ****                 break;
 395:main.c        ****             case OP10_KEYBOARD_NEQ: 
 396:main.c        ****                 /* Skip next instruction if Vx not pressed */
 397:main.c        ****                 if (keys[v[x] & 0xf] == 0){
 398:main.c        ****                     pc += 2;
 399:main.c        ****                 }
 400:main.c        ****                 break;
 401:main.c        ****             default:
 402:main.c        ****                 invalid_op = 1;
 403:main.c        ****                 break;
 404:main.c        ****             }
 405:main.c        ****             break;
 406:main.c        ****         case OP3_SPECIAL:
 407:main.c        ****             /* Special instructions, see reference for each */
 408:main.c        ****             switch(op10){
 409:main.c        ****             case OP10_SPECIAL_LOAD_DELAY:
 410:main.c        ****                 /* Vx = delay timer */
 411:main.c        ****                 v[x] = tmr;
 412:main.c        ****                 break;
 413:main.c        ****             case OP10_SPECIAL_LOAD_KEYBOARD:
 414:main.c        ****                 /* Vx = keypress, blocks till something pressed */
 415:main.c        ****                 while (!keyflag);
 416:main.c        ****                 v[x] = lastkey;
 417:main.c        ****                 keyflag = 0;
 418:main.c        ****                 break;
 419:main.c        ****             case OP10_SPECIAL_SET_DELAY:
 420:main.c        ****                 /* delay timer = Vx */
 421:main.c        ****                 tmr = v[x];
 422:main.c        ****                 break;
 423:main.c        ****             case OP10_SPECIAL_SET_SOUND:
 424:main.c        ****                 /* sound timer = Vx */
 425:main.c        ****                 snd = v[x];
 426:main.c        ****                 break;
 427:main.c        ****             case OP10_SPECIAL_ADD_TO_I:
 428:main.c        ****                 /* I += Vx */
 429:main.c        ****                 i += v[x];
 430:main.c        ****                 break;
 431:main.c        ****             case OP10_SPECIAL_LOAD_FONT:
 432:main.c        ****                 /* I = location of sprite for hex digit Vx */
 433:main.c        ****                 i = (v[x] & 0xf) * 5;
 434:main.c        ****                 break;
 435:main.c        ****             case OP10_SPECIAL_LOAD_BCD:
 436:main.c        ****                 /* BCD hundreds to units of Vx in I to I+2 */
 437:main.c        ****                 ram[i] = (uint8_t)(v[x] / 100) % 10;
 438:main.c        ****                 ram[i+1] = (uint8_t)(v[x] / 10) % 10;
 439:main.c        ****                 ram[i+2] = (uint8_t)(v[x]) % 10;
 440:main.c        ****                 break;
 441:main.c        ****             case OP10_SPECIAL_LOAD_AT_I:
 442:main.c        ****                 /* Store V0 to Vx in I to I+x */
 443:main.c        ****                 for (uint8_t j = 0; j <= x; j++){
 444:main.c        ****                     ram[i + j] = v[j];
 445:main.c        ****                 }
ARM GAS  C:\Users\info\AppData\Local\Temp\ccqSJUfY.s 			page 28


 446:main.c        ****                 break;
 447:main.c        ****             case OP10_SPECIAL_SET_AT_I:
 448:main.c        ****                 /* Restore V0 to Vx from I to I+x */
 449:main.c        ****                 for (uint8_t j = 0; j <= x; j++){
 450:main.c        ****                     v[j] = ram[i + j];
 451:main.c        ****                 }
 452:main.c        ****                 break;
 453:main.c        ****             default:
 454:main.c        ****                 invalid_op = 1;
 455:main.c        ****                 break;
 456:main.c        ****             }
 457:main.c        ****             break;
 458:main.c        ****         default:
 459:main.c        ****             invalid_op = 1;
 1084              		.loc 1 459 0
 1085 0a34 0122     		movs	r2, #1
 1086              	.LVL54:
 1087 0a36 60E2     		b	.L30
 1088              	.LVL55:
 1089              	.L28:
 225:main.c        ****                 invalid_op = 1;
 1090              		.loc 1 225 0
 1091 0a38 002C     		cmp	r4, #0
 1092 0a3a 40F03482 		bne	.L84
 228:main.c        ****                 case OP10_SYSTEM_CLEAR:
 1093              		.loc 1 228 0
 1094 0a3e E02E     		cmp	r6, #224
 1095 0a40 0BD0     		beq	.L86
 1096 0a42 EE2E     		cmp	r6, #238
 1097 0a44 0FD0     		beq	.L46
 1098 0a46 31E2     		b	.L101
 1099              	.LVL56:
 1100              	.L47:
 1101              	.LBB10:
 232:main.c        ****                     }
 1102              		.loc 1 232 0 discriminator 3
 1103 0a48 864A     		ldr	r2, .L108
 1104 0a4a 02EBC302 		add	r2, r2, r3, lsl #3
 1105 0a4e 0020     		movs	r0, #0
 1106 0a50 0021     		movs	r1, #0
 1107 0a52 C2E90001 		strd	r0, [r2]
 231:main.c        ****                         vram[j] = 0;
 1108              		.loc 1 231 0 discriminator 3
 1109 0a56 0133     		adds	r3, r3, #1
 1110              	.LVL57:
 1111 0a58 00E0     		b	.L45
 1112              	.LVL58:
 1113              	.L86:
 1114              	.LBE10:
 228:main.c        ****                 case OP10_SYSTEM_CLEAR:
 1115              		.loc 1 228 0
 1116 0a5a 0023     		movs	r3, #0
 1117              	.LVL59:
 1118              	.L45:
 1119              	.LBB11:
 231:main.c        ****                         vram[j] = 0;
 1120              		.loc 1 231 0 discriminator 1
ARM GAS  C:\Users\info\AppData\Local\Temp\ccqSJUfY.s 			page 29


 1121 0a5c 1F2B     		cmp	r3, #31
 1122 0a5e F3DD     		ble	.L47
 1123              	.LBE11:
 219:main.c        ****         
 1124              		.loc 1 219 0
 1125 0a60 0023     		movs	r3, #0
 1126              	.LVL60:
 216:main.c        ****         
 1127              		.loc 1 216 0
 1128 0a62 1A46     		mov	r2, r3
 1129 0a64 49E2     		b	.L30
 1130              	.LVL61:
 1131              	.L46:
 237:main.c        ****                     pc = stack[sp];
 1132              		.loc 1 237 0
 1133 0a66 B8F1000F 		cmp	r8, #0
 1134 0a6a 03D0     		beq	.L48
 237:main.c        ****                     pc = stack[sp];
 1135              		.loc 1 237 0 is_stmt 0 discriminator 1
 1136 0a6c 08F1FF38 		add	r8, r8, #-1
 1137              	.LVL62:
 1138 0a70 5FFA88F8 		uxtb	r8, r8
 1139              	.L48:
 1140              	.LVL63:
 238:main.c        ****                     freeze_pc = 1;
 1141              		.loc 1 238 0 is_stmt 1 discriminator 4
 1142 0a74 0AAB     		add	r3, sp, #40
 1143              	.LVL64:
 1144 0a76 33F818A0 		ldrh	r10, [r3, r8, lsl #1]
 1145              	.LVL65:
 239:main.c        ****                     break;
 1146              		.loc 1 239 0 discriminator 4
 1147 0a7a 0123     		movs	r3, #1
 216:main.c        ****         
 1148              		.loc 1 216 0 discriminator 4
 1149 0a7c 0022     		movs	r2, #0
 1150              	.LVL66:
 240:main.c        ****                 default:
 1151              		.loc 1 240 0 discriminator 4
 1152 0a7e 3CE2     		b	.L30
 1153              	.LVL67:
 1154              	.L40:
 254:main.c        ****             freeze_pc = 1;
 1155              		.loc 1 254 0
 1156 0a80 9DF848A0 		ldrb	r10, [sp, #72]	@ zero_extendqisi2
 1157              	.LVL68:
 1158 0a84 9A44     		add	r10, r10, r3
 1159              	.LVL69:
 255:main.c        ****             break;
 1160              		.loc 1 255 0
 1161 0a86 0123     		movs	r3, #1
 1162              	.LVL70:
 216:main.c        ****         
 1163              		.loc 1 216 0
 1164 0a88 0022     		movs	r2, #0
 1165              	.LVL71:
 256:main.c        ****         case OP3_CALL_SUBROUTINE:
ARM GAS  C:\Users\info\AppData\Local\Temp\ccqSJUfY.s 			page 30


 1166              		.loc 1 256 0
 1167 0a8a 36E2     		b	.L30
 1168              	.LVL72:
 1169              	.L31:
 259:main.c        ****             sp = (sp == 0xf) ? 0xf : sp + 1;
 1170              		.loc 1 259 0
 1171 0a8c 0AAA     		add	r2, sp, #40
 1172              	.LVL73:
 1173 0a8e 22F818A0 		strh	r10, [r2, r8, lsl #1]	@ movhi
 260:main.c        ****             pc = nnn;
 1174              		.loc 1 260 0
 1175 0a92 B8F10F0F 		cmp	r8, #15
 1176 0a96 00F00C82 		beq	.L87
 260:main.c        ****             pc = nnn;
 1177              		.loc 1 260 0 is_stmt 0 discriminator 1
 1178 0a9a 08F10108 		add	r8, r8, #1
 1179              	.LVL74:
 1180 0a9e 5FFA88F8 		uxtb	r8, r8
 261:main.c        ****             freeze_pc = 1;
 1181              		.loc 1 261 0 is_stmt 1 discriminator 1
 1182 0aa2 9A46     		mov	r10, r3
 1183              	.LVL75:
 262:main.c        ****             break;
 1184              		.loc 1 262 0 discriminator 1
 1185 0aa4 0123     		movs	r3, #1
 1186              	.LVL76:
 216:main.c        ****         
 1187              		.loc 1 216 0 discriminator 1
 1188 0aa6 0022     		movs	r2, #0
 1189 0aa8 27E2     		b	.L30
 1190              	.LVL77:
 1191              	.L32:
 266:main.c        ****                 pc += 2;
 1192              		.loc 1 266 0
 1193 0aaa 12AB     		add	r3, sp, #72
 1194              	.LVL78:
 1195 0aac 1B5D     		ldrb	r3, [r3, r4]	@ zero_extendqisi2
 1196 0aae 9E42     		cmp	r6, r3
 1197 0ab0 40F00382 		bne	.L88
 267:main.c        ****             }
 1198              		.loc 1 267 0
 1199 0ab4 0AF1020A 		add	r10, r10, #2
 1200              	.LVL79:
 1201 0ab8 1FFA8AFA 		uxth	r10, r10
 1202              	.LVL80:
 219:main.c        ****         
 1203              		.loc 1 219 0
 1204 0abc 0023     		movs	r3, #0
 216:main.c        ****         
 1205              		.loc 1 216 0
 1206 0abe 1A46     		mov	r2, r3
 1207              	.LVL81:
 1208 0ac0 1BE2     		b	.L30
 1209              	.LVL82:
 1210              	.L33:
 272:main.c        ****                 pc += 2;
 1211              		.loc 1 272 0
ARM GAS  C:\Users\info\AppData\Local\Temp\ccqSJUfY.s 			page 31


 1212 0ac2 12AB     		add	r3, sp, #72
 1213              	.LVL83:
 1214 0ac4 1B5D     		ldrb	r3, [r3, r4]	@ zero_extendqisi2
 1215 0ac6 9E42     		cmp	r6, r3
 1216 0ac8 00F0FA81 		beq	.L89
 273:main.c        ****             }
 1217              		.loc 1 273 0
 1218 0acc 0AF1020A 		add	r10, r10, #2
 1219              	.LVL84:
 1220 0ad0 1FFA8AFA 		uxth	r10, r10
 1221              	.LVL85:
 219:main.c        ****         
 1222              		.loc 1 219 0
 1223 0ad4 0023     		movs	r3, #0
 216:main.c        ****         
 1224              		.loc 1 216 0
 1225 0ad6 1A46     		mov	r2, r3
 1226              	.LVL86:
 1227 0ad8 0FE2     		b	.L30
 1228              	.LVL87:
 1229              	.L34:
 278:main.c        ****                 if (v[x] == v[y]) {
 1230              		.loc 1 278 0
 1231 0ada 002F     		cmp	r7, #0
 1232 0adc 40F0F381 		bne	.L90
 279:main.c        ****                     pc += 2;
 1233              		.loc 1 279 0
 1234 0ae0 12AB     		add	r3, sp, #72
 1235              	.LVL88:
 1236 0ae2 1A5D     		ldrb	r2, [r3, r4]	@ zero_extendqisi2
 1237              	.LVL89:
 1238 0ae4 5B5D     		ldrb	r3, [r3, r5]	@ zero_extendqisi2
 1239 0ae6 9A42     		cmp	r2, r3
 1240 0ae8 40F0F081 		bne	.L91
 280:main.c        ****                 }
 1241              		.loc 1 280 0
 1242 0aec 0AF1020A 		add	r10, r10, #2
 1243              	.LVL90:
 1244 0af0 1FFA8AFA 		uxth	r10, r10
 1245              	.LVL91:
 219:main.c        ****         
 1246              		.loc 1 219 0
 1247 0af4 0023     		movs	r3, #0
 216:main.c        ****         
 1248              		.loc 1 216 0
 1249 0af6 1A46     		mov	r2, r3
 1250 0af8 FFE1     		b	.L30
 1251              	.LVL92:
 1252              	.L38:
 288:main.c        ****                 if (v[x] != v[y]) {
 1253              		.loc 1 288 0
 1254 0afa 002F     		cmp	r7, #0
 1255 0afc 40F0E981 		bne	.L92
 289:main.c        ****                     pc += 2;
 1256              		.loc 1 289 0
 1257 0b00 12AB     		add	r3, sp, #72
 1258              	.LVL93:
ARM GAS  C:\Users\info\AppData\Local\Temp\ccqSJUfY.s 			page 32


 1259 0b02 1A5D     		ldrb	r2, [r3, r4]	@ zero_extendqisi2
 1260              	.LVL94:
 1261 0b04 5B5D     		ldrb	r3, [r3, r5]	@ zero_extendqisi2
 1262 0b06 9A42     		cmp	r2, r3
 1263 0b08 00F0E681 		beq	.L93
 290:main.c        ****                 }
 1264              		.loc 1 290 0
 1265 0b0c 0AF1020A 		add	r10, r10, #2
 1266              	.LVL95:
 1267 0b10 1FFA8AFA 		uxth	r10, r10
 1268              	.LVL96:
 219:main.c        ****         
 1269              		.loc 1 219 0
 1270 0b14 0023     		movs	r3, #0
 216:main.c        ****         
 1271              		.loc 1 216 0
 1272 0b16 1A46     		mov	r2, r3
 1273 0b18 EFE1     		b	.L30
 1274              	.LVL97:
 1275              	.L35:
 298:main.c        ****             break;
 1276              		.loc 1 298 0
 1277 0b1a 12AB     		add	r3, sp, #72
 1278              	.LVL98:
 1279 0b1c 1E55     		strb	r6, [r3, r4]
 219:main.c        ****         
 1280              		.loc 1 219 0
 1281 0b1e 0023     		movs	r3, #0
 216:main.c        ****         
 1282              		.loc 1 216 0
 1283 0b20 1A46     		mov	r2, r3
 1284              	.LVL99:
 299:main.c        ****         case OP3_ADD_IM:
 1285              		.loc 1 299 0
 1286 0b22 EAE1     		b	.L30
 1287              	.LVL100:
 1288              	.L36:
 302:main.c        ****             break;
 1289              		.loc 1 302 0
 1290 0b24 12AA     		add	r2, sp, #72
 1291              	.LVL101:
 1292 0b26 135D     		ldrb	r3, [r2, r4]	@ zero_extendqisi2
 1293              	.LVL102:
 1294 0b28 1E44     		add	r6, r6, r3
 1295              	.LVL103:
 1296 0b2a 1655     		strb	r6, [r2, r4]
 219:main.c        ****         
 1297              		.loc 1 219 0
 1298 0b2c 0023     		movs	r3, #0
 216:main.c        ****         
 1299              		.loc 1 216 0
 1300 0b2e 1A46     		mov	r2, r3
 303:main.c        ****         case OP3_ARITH:
 1301              		.loc 1 303 0
 1302 0b30 E3E1     		b	.L30
 1303              	.LVL104:
 1304              	.L37:
ARM GAS  C:\Users\info\AppData\Local\Temp\ccqSJUfY.s 			page 33


 306:main.c        ****             case OP0_ARITH_LOAD:
 1305              		.loc 1 306 0
 1306 0b32 0E2F     		cmp	r7, #14
 1307 0b34 00F2D381 		bhi	.L94
 1308 0b38 DFE817F0 		tbh	[pc, r7, lsl #1]
 1309              	.LVL105:
 1310              	.L50:
 1311 0b3c 0F00     		.2byte	(.L49-.L50)/2
 1312 0b3e 1500     		.2byte	(.L51-.L50)/2
 1313 0b40 1D00     		.2byte	(.L52-.L50)/2
 1314 0b42 2500     		.2byte	(.L53-.L50)/2
 1315 0b44 2D00     		.2byte	(.L54-.L50)/2
 1316 0b46 3500     		.2byte	(.L55-.L50)/2
 1317 0b48 4500     		.2byte	(.L56-.L50)/2
 1318 0b4a 5100     		.2byte	(.L57-.L50)/2
 1319 0b4c D101     		.2byte	(.L94-.L50)/2
 1320 0b4e D101     		.2byte	(.L94-.L50)/2
 1321 0b50 D101     		.2byte	(.L94-.L50)/2
 1322 0b52 D101     		.2byte	(.L94-.L50)/2
 1323 0b54 D101     		.2byte	(.L94-.L50)/2
 1324 0b56 D101     		.2byte	(.L94-.L50)/2
 1325 0b58 6100     		.2byte	(.L58-.L50)/2
 1326              		.p2align 1
 1327              	.L49:
 309:main.c        ****                 break;
 1328              		.loc 1 309 0
 1329 0b5a 12AB     		add	r3, sp, #72
 1330 0b5c 5A5D     		ldrb	r2, [r3, r5]	@ zero_extendqisi2
 1331              	.LVL106:
 1332 0b5e 1A55     		strb	r2, [r3, r4]
 219:main.c        ****         
 1333              		.loc 1 219 0
 1334 0b60 0023     		movs	r3, #0
 216:main.c        ****         
 1335              		.loc 1 216 0
 1336 0b62 1A46     		mov	r2, r3
 310:main.c        ****             case OP0_ARITH_OR:
 1337              		.loc 1 310 0
 1338 0b64 C9E1     		b	.L30
 1339              	.LVL107:
 1340              	.L51:
 313:main.c        ****                 break;
 1341              		.loc 1 313 0
 1342 0b66 12AB     		add	r3, sp, #72
 1343 0b68 595D     		ldrb	r1, [r3, r5]	@ zero_extendqisi2
 1344 0b6a 1A5D     		ldrb	r2, [r3, r4]	@ zero_extendqisi2
 1345              	.LVL108:
 1346 0b6c 0A43     		orrs	r2, r2, r1
 1347 0b6e 1A55     		strb	r2, [r3, r4]
 219:main.c        ****         
 1348              		.loc 1 219 0
 1349 0b70 0023     		movs	r3, #0
 216:main.c        ****         
 1350              		.loc 1 216 0
 1351 0b72 1A46     		mov	r2, r3
 314:main.c        ****             case OP0_ARITH_AND:
 1352              		.loc 1 314 0
ARM GAS  C:\Users\info\AppData\Local\Temp\ccqSJUfY.s 			page 34


 1353 0b74 C1E1     		b	.L30
 1354              	.LVL109:
 1355              	.L52:
 317:main.c        ****                 break;
 1356              		.loc 1 317 0
 1357 0b76 12AB     		add	r3, sp, #72
 1358 0b78 595D     		ldrb	r1, [r3, r5]	@ zero_extendqisi2
 1359 0b7a 1A5D     		ldrb	r2, [r3, r4]	@ zero_extendqisi2
 1360              	.LVL110:
 1361 0b7c 0A40     		ands	r2, r2, r1
 1362 0b7e 1A55     		strb	r2, [r3, r4]
 219:main.c        ****         
 1363              		.loc 1 219 0
 1364 0b80 0023     		movs	r3, #0
 216:main.c        ****         
 1365              		.loc 1 216 0
 1366 0b82 1A46     		mov	r2, r3
 318:main.c        ****             case OP0_ARITH_XOR:
 1367              		.loc 1 318 0
 1368 0b84 B9E1     		b	.L30
 1369              	.LVL111:
 1370              	.L53:
 321:main.c        ****                 break;
 1371              		.loc 1 321 0
 1372 0b86 12AB     		add	r3, sp, #72
 1373 0b88 595D     		ldrb	r1, [r3, r5]	@ zero_extendqisi2
 1374 0b8a 1A5D     		ldrb	r2, [r3, r4]	@ zero_extendqisi2
 1375              	.LVL112:
 1376 0b8c 4A40     		eors	r2, r2, r1
 1377 0b8e 1A55     		strb	r2, [r3, r4]
 219:main.c        ****         
 1378              		.loc 1 219 0
 1379 0b90 0023     		movs	r3, #0
 216:main.c        ****         
 1380              		.loc 1 216 0
 1381 0b92 1A46     		mov	r2, r3
 322:main.c        ****             case OP0_ARITH_ADD:
 1382              		.loc 1 322 0
 1383 0b94 B1E1     		b	.L30
 1384              	.LVL113:
 1385              	.L54:
 325:main.c        ****                 break;
 1386              		.loc 1 325 0
 1387 0b96 12AB     		add	r3, sp, #72
 1388 0b98 595D     		ldrb	r1, [r3, r5]	@ zero_extendqisi2
 1389 0b9a 1A5D     		ldrb	r2, [r3, r4]	@ zero_extendqisi2
 1390              	.LVL114:
 1391 0b9c 0A44     		add	r2, r2, r1
 1392 0b9e 1A55     		strb	r2, [r3, r4]
 219:main.c        ****         
 1393              		.loc 1 219 0
 1394 0ba0 0023     		movs	r3, #0
 216:main.c        ****         
 1395              		.loc 1 216 0
 1396 0ba2 1A46     		mov	r2, r3
 326:main.c        ****             case OP0_ARITH_SUB:{
 1397              		.loc 1 326 0
ARM GAS  C:\Users\info\AppData\Local\Temp\ccqSJUfY.s 			page 35


 1398 0ba4 A9E1     		b	.L30
 1399              	.LVL115:
 1400              	.L55:
 1401              	.LBB12:
 329:main.c        ****                 uint16_t vy = v[y];
 1402              		.loc 1 329 0
 1403 0ba6 12AA     		add	r2, sp, #72
 1404              	.LVL116:
 1405 0ba8 115D     		ldrb	r1, [r2, r4]	@ zero_extendqisi2
 1406              	.LVL117:
 330:main.c        ****                 uint16_t diff = vx - vy;                                
 1407              		.loc 1 330 0
 1408 0baa 505D     		ldrb	r0, [r2, r5]	@ zero_extendqisi2
 1409              	.LVL118:
 331:main.c        ****                 v[x] = diff;
 1410              		.loc 1 331 0
 1411 0bac 0B1A     		subs	r3, r1, r0
 1412              	.LVL119:
 332:main.c        ****                 v[0xf] = (diff & 0x100) ? 0 : 1;
 1413              		.loc 1 332 0
 1414 0bae 1355     		strb	r3, [r2, r4]
 333:main.c        ****                 break;
 1415              		.loc 1 333 0
 1416 0bb0 C3F30723 		ubfx	r3, r3, #8, #8
 1417              	.LVL120:
 1418 0bb4 83F00103 		eor	r3, r3, #1
 1419 0bb8 03F00103 		and	r3, r3, #1
 1420 0bbc 8DF85730 		strb	r3, [sp, #87]
 1421              	.LBE12:
 219:main.c        ****         
 1422              		.loc 1 219 0
 1423 0bc0 0023     		movs	r3, #0
 216:main.c        ****         
 1424              		.loc 1 216 0
 1425 0bc2 1A46     		mov	r2, r3
 1426              	.LBB13:
 334:main.c        ****             }
 1427              		.loc 1 334 0
 1428 0bc4 99E1     		b	.L30
 1429              	.LVL121:
 1430              	.L56:
 1431              	.LBE13:
 338:main.c        ****                 v[x] >>= 1;
 1432              		.loc 1 338 0
 1433 0bc6 12AB     		add	r3, sp, #72
 1434 0bc8 1A5D     		ldrb	r2, [r3, r4]	@ zero_extendqisi2
 1435              	.LVL122:
 1436 0bca 02F00102 		and	r2, r2, #1
 1437 0bce 8DF85720 		strb	r2, [sp, #87]
 339:main.c        ****                 break;
 1438              		.loc 1 339 0
 1439 0bd2 1A5D     		ldrb	r2, [r3, r4]	@ zero_extendqisi2
 1440 0bd4 5208     		lsrs	r2, r2, #1
 1441 0bd6 1A55     		strb	r2, [r3, r4]
 219:main.c        ****         
 1442              		.loc 1 219 0
 1443 0bd8 0023     		movs	r3, #0
ARM GAS  C:\Users\info\AppData\Local\Temp\ccqSJUfY.s 			page 36


 216:main.c        ****         
 1444              		.loc 1 216 0
 1445 0bda 1A46     		mov	r2, r3
 340:main.c        ****             case OP0_ARITH_SUBN:{
 1446              		.loc 1 340 0
 1447 0bdc 8DE1     		b	.L30
 1448              	.LVL123:
 1449              	.L57:
 1450              	.LBB14:
 343:main.c        ****                 uint16_t vy = v[y];
 1451              		.loc 1 343 0
 1452 0bde 12AA     		add	r2, sp, #72
 1453              	.LVL124:
 1454 0be0 105D     		ldrb	r0, [r2, r4]	@ zero_extendqisi2
 1455              	.LVL125:
 344:main.c        ****                 uint16_t diff = vy - vx;                                
 1456              		.loc 1 344 0
 1457 0be2 515D     		ldrb	r1, [r2, r5]	@ zero_extendqisi2
 1458              	.LVL126:
 345:main.c        ****                 v[x] = diff;
 1459              		.loc 1 345 0
 1460 0be4 0B1A     		subs	r3, r1, r0
 1461              	.LVL127:
 346:main.c        ****                 v[0xf] = (diff & 0x100) ? 0 : 1;
 1462              		.loc 1 346 0
 1463 0be6 1355     		strb	r3, [r2, r4]
 347:main.c        ****                 break;
 1464              		.loc 1 347 0
 1465 0be8 C3F30723 		ubfx	r3, r3, #8, #8
 1466              	.LVL128:
 1467 0bec 83F00103 		eor	r3, r3, #1
 1468 0bf0 03F00103 		and	r3, r3, #1
 1469 0bf4 8DF85730 		strb	r3, [sp, #87]
 1470              	.LBE14:
 219:main.c        ****         
 1471              		.loc 1 219 0
 1472 0bf8 0023     		movs	r3, #0
 216:main.c        ****         
 1473              		.loc 1 216 0
 1474 0bfa 1A46     		mov	r2, r3
 1475              	.LBB15:
 348:main.c        ****             }
 1476              		.loc 1 348 0
 1477 0bfc 7DE1     		b	.L30
 1478              	.LVL129:
 1479              	.L58:
 1480              	.LBE15:
 352:main.c        ****                 v[x] <<= 1;
 1481              		.loc 1 352 0
 1482 0bfe 12AB     		add	r3, sp, #72
 1483 0c00 1A5D     		ldrb	r2, [r3, r4]	@ zero_extendqisi2
 1484              	.LVL130:
 1485 0c02 D209     		lsrs	r2, r2, #7
 1486 0c04 8DF85720 		strb	r2, [sp, #87]
 353:main.c        ****                 break;
 1487              		.loc 1 353 0
 1488 0c08 1A5D     		ldrb	r2, [r3, r4]	@ zero_extendqisi2
ARM GAS  C:\Users\info\AppData\Local\Temp\ccqSJUfY.s 			page 37


 1489 0c0a 5200     		lsls	r2, r2, #1
 1490 0c0c 1A55     		strb	r2, [r3, r4]
 219:main.c        ****         
 1491              		.loc 1 219 0
 1492 0c0e 0023     		movs	r3, #0
 216:main.c        ****         
 1493              		.loc 1 216 0
 1494 0c10 1A46     		mov	r2, r3
 354:main.c        ****             default:
 1495              		.loc 1 354 0
 1496 0c12 72E1     		b	.L30
 1497              	.LVL131:
 1498              	.L39:
 362:main.c        ****             break;
 1499              		.loc 1 362 0
 1500 0c14 9B46     		mov	fp, r3
 219:main.c        ****         
 1501              		.loc 1 219 0
 1502 0c16 0023     		movs	r3, #0
 1503              	.LVL132:
 216:main.c        ****         
 1504              		.loc 1 216 0
 1505 0c18 1A46     		mov	r2, r3
 1506              	.LVL133:
 363:main.c        ****         case OP3_RANDOM:
 1507              		.loc 1 363 0
 1508 0c1a 6EE1     		b	.L30
 1509              	.LVL134:
 1510              	.L41:
 366:main.c        ****             break;
 1511              		.loc 1 366 0
 1512 0c1c FFF7FEFF 		bl	random_Read
 1513              	.LVL135:
 1514 0c20 3040     		ands	r0, r0, r6
 1515 0c22 12AB     		add	r3, sp, #72
 1516 0c24 1855     		strb	r0, [r3, r4]
 219:main.c        ****         
 1517              		.loc 1 219 0
 1518 0c26 0023     		movs	r3, #0
 216:main.c        ****         
 1519              		.loc 1 216 0
 1520 0c28 1A46     		mov	r2, r3
 367:main.c        ****         case OP3_DRAW:{
 1521              		.loc 1 367 0
 1522 0c2a 66E1     		b	.L30
 1523              	.LVL136:
 1524              	.L62:
 1525              	.LBB16:
 1526              	.LBB17:
 1527              	.LBB18:
 373:main.c        ****                     row = ((uint64_t)ram[i + j]) << (56 - v[x]);
 1528              		.loc 1 373 0
 1529 0c2c 12AB     		add	r3, sp, #72
 1530 0c2e 099A     		ldr	r2, [sp, #36]
 1531 0c30 995C     		ldrb	r1, [r3, r2]	@ zero_extendqisi2
 1532 0c32 3829     		cmp	r1, #56
 1533 0c34 18D8     		bhi	.L59
ARM GAS  C:\Users\info\AppData\Local\Temp\ccqSJUfY.s 			page 38


 374:main.c        ****                 } else {
 1534              		.loc 1 374 0
 1535 0c36 0BEB0603 		add	r3, fp, r6
 1536 0c3a 16AA     		add	r2, sp, #88
 1537              	.LVL137:
 1538 0c3c D25C     		ldrb	r2, [r2, r3]	@ zero_extendqisi2
 1539              	.LVL138:
 1540 0c3e C1F13801 		rsb	r1, r1, #56
 1541 0c42 A1F12000 		sub	r0, r1, #32
 1542 0c46 C1F12003 		rsb	r3, r1, #32
 1543 0c4a 4FF00009 		mov	r9, #0
 1544 0c4e 02FA00F0 		lsl	r0, r2, r0
 1545 0c52 49EA0009 		orr	r9, r9, r0
 1546 0c56 22FA03F3 		lsr	r3, r2, r3
 1547 0c5a 49EA0309 		orr	r9, r9, r3
 1548 0c5e 02FA01F8 		lsl	r8, r2, r1
 1549              	.LVL139:
 1550 0c62 26E0     		b	.L60
 1551              	.L109:
 1552              		.align	2
 1553              	.L108:
 1554 0c64 00000000 		.word	vram
 1555              	.LVL140:
 1556              	.L59:
 376:main.c        ****                         | ((uint64_t)ram[i + j]) << (120 - v[x]);
 1557              		.loc 1 376 0
 1558 0c68 0BEB0603 		add	r3, fp, r6
 1559 0c6c 16AA     		add	r2, sp, #88
 1560              	.LVL141:
 1561 0c6e D25C     		ldrb	r2, [r2, r3]	@ zero_extendqisi2
 1562              	.LVL142:
 1563 0c70 A1F13803 		sub	r3, r1, #56
 1564 0c74 22FA03F0 		lsr	r0, r2, r3
 1565 0c78 0490     		str	r0, [sp, #16]
 1566 0c7a 0020     		movs	r0, #0
 1567 0c7c 0590     		str	r0, [sp, #20]
 377:main.c        ****                 }
 1568              		.loc 1 377 0
 1569 0c7e C1F17801 		rsb	r1, r1, #120
 1570 0c82 A1F12000 		sub	r0, r1, #32
 1571 0c86 C1F12003 		rsb	r3, r1, #32
 1572 0c8a 0024     		movs	r4, #0
 1573 0c8c 02FA00F0 		lsl	r0, r2, r0
 1574 0c90 0443     		orrs	r4, r4, r0
 1575 0c92 22FA03F3 		lsr	r3, r2, r3
 1576 0c96 2046     		mov	r0, r4
 1577 0c98 1843     		orrs	r0, r0, r3
 1578 0c9a 0190     		str	r0, [sp, #4]
 1579 0c9c 02FA01F3 		lsl	r3, r2, r1
 1580 0ca0 0093     		str	r3, [sp]
 376:main.c        ****                         | ((uint64_t)ram[i + j]) << (120 - v[x]);
 1581              		.loc 1 376 0
 1582 0ca2 DDE90489 		ldrd	r8, [sp, #16]
 1583 0ca6 DDE90034 		ldrd	r3, [sp]
 1584 0caa 48EA0308 		orr	r8, r8, r3
 1585 0cae 49EA0409 		orr	r9, r9, r4
 1586              	.LVL143:
ARM GAS  C:\Users\info\AppData\Local\Temp\ccqSJUfY.s 			page 39


 1587              	.L60:
 379:main.c        ****                 vram[(v[y] + j) % 32] ^= row;
 1588              		.loc 1 379 0 discriminator 2
 1589 0cb2 12AB     		add	r3, sp, #72
 1590 0cb4 5B5D     		ldrb	r3, [r3, r5]	@ zero_extendqisi2
 1591 0cb6 03EB060E 		add	lr, r3, r6
 1592 0cba 964B     		ldr	r3, .L110
 1593 0cbc 1EEA0303 		ands	r3, lr, r3
 1594 0cc0 03D5     		bpl	.L61
 1595 0cc2 013B     		subs	r3, r3, #1
 1596 0cc4 63F01F03 		orn	r3, r3, #31
 1597 0cc8 0133     		adds	r3, r3, #1
 1598              	.L61:
 1599 0cca 934A     		ldr	r2, .L110+4
 1600 0ccc 02EBC30E 		add	lr, r2, r3, lsl #3
 1601 0cd0 DEE90023 		ldrd	r2, [lr]
 1602 0cd4 CDE90623 		strd	r2, [sp, #24]
 1603 0cd8 02EA0800 		and	r0, r2, r8
 1604 0cdc 03EA0901 		and	r1, r3, r9
 1605 0ce0 DDE90234 		ldrd	r3, [sp, #8]
 1606 0ce4 0343     		orrs	r3, r3, r0
 1607 0ce6 0C43     		orrs	r4, r4, r1
 1608 0ce8 CDE90234 		strd	r3, [sp, #8]
 1609              	.LVL144:
 380:main.c        ****             }
 1610              		.loc 1 380 0 discriminator 2
 1611 0cec DDE90623 		ldrd	r2, [sp, #24]
 1612 0cf0 82EA0802 		eor	r2, r2, r8
 1613 0cf4 83EA0903 		eor	r3, r3, r9
 1614              	.LVL145:
 1615 0cf8 CEE90023 		strd	r2, [lr]
 1616              	.LBE18:
 371:main.c        ****                 uint64_t row = 0;
 1617              		.loc 1 371 0 discriminator 2
 1618 0cfc 0136     		adds	r6, r6, #1
 1619              	.LVL146:
 1620 0cfe 08E0     		b	.L42
 1621              	.LVL147:
 1622              	.L83:
 1623              	.LBE17:
 1624              	.LBE16:
 222:main.c        ****         case OP3_SYSTEM:
 1625              		.loc 1 222 0
 1626 0d00 0026     		movs	r6, #0
 1627              	.LVL148:
 1628 0d02 0022     		movs	r2, #0
 1629              	.LVL149:
 1630 0d04 0023     		movs	r3, #0
 1631              	.LVL150:
 1632 0d06 CDE90223 		strd	r2, [sp, #8]
 1633 0d0a C446     		mov	ip, r8
 1634 0d0c DDE90689 		ldrd	r8, [sp, #24]
 1635              	.LVL151:
 1636 0d10 0994     		str	r4, [sp, #36]
 1637              	.LVL152:
 1638              	.L42:
 1639              	.LBB20:
ARM GAS  C:\Users\info\AppData\Local\Temp\ccqSJUfY.s 			page 40


 1640              	.LBB19:
 371:main.c        ****                 uint64_t row = 0;
 1641              		.loc 1 371 0 discriminator 1
 1642 0d12 BE42     		cmp	r6, r7
 1643 0d14 8ADB     		blt	.L62
 1644 0d16 CDE90689 		strd	r8, [sp, #24]
 1645 0d1a E046     		mov	r8, ip
 1646              	.LBE19:
 382:main.c        ****             vga_update_flag = 1;
 1647              		.loc 1 382 0
 1648 0d1c DDE90212 		ldrd	r1, [sp, #8]
 1649 0d20 0B46     		mov	r3, r1
 1650 0d22 1343     		orrs	r3, r3, r2
 1651 0d24 14BF     		ite	ne
 1652 0d26 0123     		movne	r3, #1
 1653 0d28 0023     		moveq	r3, #0
 1654 0d2a 8DF85730 		strb	r3, [sp, #87]
 383:main.c        ****             break;
 1655              		.loc 1 383 0
 1656 0d2e 0122     		movs	r2, #1
 1657 0d30 7A4B     		ldr	r3, .L110+8
 1658 0d32 1A60     		str	r2, [r3]
 1659              	.LBE20:
 219:main.c        ****         
 1660              		.loc 1 219 0
 1661 0d34 0023     		movs	r3, #0
 216:main.c        ****         
 1662              		.loc 1 216 0
 1663 0d36 1A46     		mov	r2, r3
 1664              	.LBB21:
 384:main.c        ****         }
 1665              		.loc 1 384 0
 1666 0d38 DFE0     		b	.L30
 1667              	.LVL153:
 1668              	.L43:
 1669              	.LBE21:
 388:main.c        ****             case OP10_KEYBOARD_EQ:
 1670              		.loc 1 388 0
 1671 0d3a 9E2E     		cmp	r6, #158
 1672 0d3c 02D0     		beq	.L63
 1673 0d3e A12E     		cmp	r6, #161
 1674 0d40 11D0     		beq	.L64
 1675 0d42 CFE0     		b	.L102
 1676              	.L63:
 391:main.c        ****                     pc += 2;
 1677              		.loc 1 391 0
 1678 0d44 12AB     		add	r3, sp, #72
 1679              	.LVL154:
 1680 0d46 1B5D     		ldrb	r3, [r3, r4]	@ zero_extendqisi2
 1681 0d48 03F00F03 		and	r3, r3, #15
 1682 0d4c 744A     		ldr	r2, .L110+12
 1683              	.LVL155:
 1684 0d4e 1344     		add	r3, r3, r2
 1685 0d50 1B79     		ldrb	r3, [r3, #4]	@ zero_extendqisi2
 1686 0d52 012B     		cmp	r3, #1
 1687 0d54 40F0C980 		bne	.L96
 392:main.c        ****                 }
ARM GAS  C:\Users\info\AppData\Local\Temp\ccqSJUfY.s 			page 41


 1688              		.loc 1 392 0
 1689 0d58 0AF1020A 		add	r10, r10, #2
 1690              	.LVL156:
 1691 0d5c 1FFA8AFA 		uxth	r10, r10
 1692              	.LVL157:
 219:main.c        ****         
 1693              		.loc 1 219 0
 1694 0d60 0023     		movs	r3, #0
 216:main.c        ****         
 1695              		.loc 1 216 0
 1696 0d62 1A46     		mov	r2, r3
 1697 0d64 C9E0     		b	.L30
 1698              	.LVL158:
 1699              	.L64:
 397:main.c        ****                     pc += 2;
 1700              		.loc 1 397 0
 1701 0d66 12AB     		add	r3, sp, #72
 1702              	.LVL159:
 1703 0d68 1B5D     		ldrb	r3, [r3, r4]	@ zero_extendqisi2
 1704 0d6a 03F00F03 		and	r3, r3, #15
 1705 0d6e 6C4A     		ldr	r2, .L110+12
 1706              	.LVL160:
 1707 0d70 1344     		add	r3, r3, r2
 1708 0d72 1B79     		ldrb	r3, [r3, #4]	@ zero_extendqisi2
 1709 0d74 002B     		cmp	r3, #0
 1710 0d76 40F0BB80 		bne	.L97
 398:main.c        ****                 }
 1711              		.loc 1 398 0
 1712 0d7a 0AF1020A 		add	r10, r10, #2
 1713              	.LVL161:
 1714 0d7e 1FFA8AFA 		uxth	r10, r10
 1715              	.LVL162:
 216:main.c        ****         
 1716              		.loc 1 216 0
 1717 0d82 1A46     		mov	r2, r3
 1718 0d84 B9E0     		b	.L30
 1719              	.LVL163:
 1720              	.L44:
 408:main.c        ****             case OP10_SPECIAL_LOAD_DELAY:
 1721              		.loc 1 408 0
 1722 0d86 1E2E     		cmp	r6, #30
 1723 0d88 37D0     		beq	.L65
 1724 0d8a 0AD8     		bhi	.L66
 1725 0d8c 0A2E     		cmp	r6, #10
 1726 0d8e 1AD0     		beq	.L67
 1727 0d90 02D8     		bhi	.L68
 1728 0d92 072E     		cmp	r6, #7
 1729 0d94 10D0     		beq	.L69
 1730 0d96 AEE0     		b	.L98
 1731              	.L68:
 1732 0d98 152E     		cmp	r6, #21
 1733 0d9a 20D0     		beq	.L70
 1734 0d9c 182E     		cmp	r6, #24
 1735 0d9e 25D0     		beq	.L71
 1736 0da0 A9E0     		b	.L98
 1737              	.L66:
 1738 0da2 332E     		cmp	r6, #51
ARM GAS  C:\Users\info\AppData\Local\Temp\ccqSJUfY.s 			page 42


 1739 0da4 3BD0     		beq	.L72
 1740 0da6 02D8     		bhi	.L73
 1741 0da8 292E     		cmp	r6, #41
 1742 0daa 2ED0     		beq	.L74
 1743 0dac A3E0     		b	.L98
 1744              	.L73:
 1745 0dae 552E     		cmp	r6, #85
 1746 0db0 60D0     		beq	.L99
 1747 0db2 652E     		cmp	r6, #101
 1748 0db4 6DD0     		beq	.L100
 1749 0db6 9EE0     		b	.L98
 1750              	.L69:
 411:main.c        ****                 break;
 1751              		.loc 1 411 0
 1752 0db8 594B     		ldr	r3, .L110+12
 1753              	.LVL164:
 1754 0dba 5A78     		ldrb	r2, [r3, #1]	@ zero_extendqisi2
 1755              	.LVL165:
 1756 0dbc 12AB     		add	r3, sp, #72
 1757 0dbe 1A55     		strb	r2, [r3, r4]
 219:main.c        ****         
 1758              		.loc 1 219 0
 1759 0dc0 0023     		movs	r3, #0
 216:main.c        ****         
 1760              		.loc 1 216 0
 1761 0dc2 1A46     		mov	r2, r3
 412:main.c        ****             case OP10_SPECIAL_LOAD_KEYBOARD:
 1762              		.loc 1 412 0
 1763 0dc4 99E0     		b	.L30
 1764              	.LVL166:
 1765              	.L67:
 415:main.c        ****                 v[x] = lastkey;
 1766              		.loc 1 415 0 discriminator 1
 1767 0dc6 564B     		ldr	r3, .L110+12
 1768 0dc8 1B7D     		ldrb	r3, [r3, #20]	@ zero_extendqisi2
 1769 0dca 002B     		cmp	r3, #0
 1770 0dcc FBD0     		beq	.L67
 416:main.c        ****                 keyflag = 0;
 1771              		.loc 1 416 0
 1772 0dce 544B     		ldr	r3, .L110+12
 1773 0dd0 597D     		ldrb	r1, [r3, #21]	@ zero_extendqisi2
 1774 0dd2 12AA     		add	r2, sp, #72
 1775              	.LVL167:
 1776 0dd4 1155     		strb	r1, [r2, r4]
 417:main.c        ****                 break;
 1777              		.loc 1 417 0
 1778 0dd6 0022     		movs	r2, #0
 1779 0dd8 1A75     		strb	r2, [r3, #20]
 219:main.c        ****         
 1780              		.loc 1 219 0
 1781 0dda 1346     		mov	r3, r2
 418:main.c        ****             case OP10_SPECIAL_SET_DELAY:
 1782              		.loc 1 418 0
 1783 0ddc 8DE0     		b	.L30
 1784              	.LVL168:
 1785              	.L70:
 421:main.c        ****                 break;
ARM GAS  C:\Users\info\AppData\Local\Temp\ccqSJUfY.s 			page 43


 1786              		.loc 1 421 0
 1787 0dde 12AB     		add	r3, sp, #72
 1788              	.LVL169:
 1789 0de0 1A5D     		ldrb	r2, [r3, r4]	@ zero_extendqisi2
 1790              	.LVL170:
 1791 0de2 4F4B     		ldr	r3, .L110+12
 1792 0de4 5A70     		strb	r2, [r3, #1]
 219:main.c        ****         
 1793              		.loc 1 219 0
 1794 0de6 0023     		movs	r3, #0
 216:main.c        ****         
 1795              		.loc 1 216 0
 1796 0de8 1A46     		mov	r2, r3
 422:main.c        ****             case OP10_SPECIAL_SET_SOUND:
 1797              		.loc 1 422 0
 1798 0dea 86E0     		b	.L30
 1799              	.LVL171:
 1800              	.L71:
 425:main.c        ****                 break;
 1801              		.loc 1 425 0
 1802 0dec 12AB     		add	r3, sp, #72
 1803              	.LVL172:
 1804 0dee 1A5D     		ldrb	r2, [r3, r4]	@ zero_extendqisi2
 1805              	.LVL173:
 1806 0df0 4B4B     		ldr	r3, .L110+12
 1807 0df2 1A70     		strb	r2, [r3]
 219:main.c        ****         
 1808              		.loc 1 219 0
 1809 0df4 0023     		movs	r3, #0
 216:main.c        ****         
 1810              		.loc 1 216 0
 1811 0df6 1A46     		mov	r2, r3
 426:main.c        ****             case OP10_SPECIAL_ADD_TO_I:
 1812              		.loc 1 426 0
 1813 0df8 7FE0     		b	.L30
 1814              	.LVL174:
 1815              	.L65:
 429:main.c        ****                 break;
 1816              		.loc 1 429 0
 1817 0dfa 12AB     		add	r3, sp, #72
 1818              	.LVL175:
 1819 0dfc 1B5D     		ldrb	r3, [r3, r4]	@ zero_extendqisi2
 1820 0dfe 9B44     		add	fp, fp, r3
 1821              	.LVL176:
 1822 0e00 1FFA8BFB 		uxth	fp, fp
 1823              	.LVL177:
 219:main.c        ****         
 1824              		.loc 1 219 0
 1825 0e04 0023     		movs	r3, #0
 216:main.c        ****         
 1826              		.loc 1 216 0
 1827 0e06 1A46     		mov	r2, r3
 1828              	.LVL178:
 430:main.c        ****             case OP10_SPECIAL_LOAD_FONT:
 1829              		.loc 1 430 0
 1830 0e08 77E0     		b	.L30
 1831              	.LVL179:
ARM GAS  C:\Users\info\AppData\Local\Temp\ccqSJUfY.s 			page 44


 1832              	.L74:
 433:main.c        ****                 break;
 1833              		.loc 1 433 0
 1834 0e0a 12AB     		add	r3, sp, #72
 1835              	.LVL180:
 1836 0e0c 13F804B0 		ldrb	fp, [r3, r4]	@ zero_extendqisi2
 1837              	.LVL181:
 1838 0e10 0BF00F0B 		and	fp, fp, #15
 1839 0e14 0BEB8B0B 		add	fp, fp, fp, lsl #2
 1840              	.LVL182:
 219:main.c        ****         
 1841              		.loc 1 219 0
 1842 0e18 0023     		movs	r3, #0
 216:main.c        ****         
 1843              		.loc 1 216 0
 1844 0e1a 1A46     		mov	r2, r3
 1845              	.LVL183:
 434:main.c        ****             case OP10_SPECIAL_LOAD_BCD:
 1846              		.loc 1 434 0
 1847 0e1c 6DE0     		b	.L30
 1848              	.LVL184:
 1849              	.L72:
 437:main.c        ****                 ram[i+1] = (uint8_t)(v[x] / 10) % 10;
 1850              		.loc 1 437 0
 1851 0e1e 16A8     		add	r0, sp, #88
 1852              	.LVL185:
 1853 0e20 12AB     		add	r3, sp, #72
 1854              	.LVL186:
 1855 0e22 195D     		ldrb	r1, [r3, r4]	@ zero_extendqisi2
 1856 0e24 3F4A     		ldr	r2, .L110+16
 1857              	.LVL187:
 1858 0e26 A2FB0132 		umull	r3, r2, r2, r1
 1859 0e2a 3F4B     		ldr	r3, .L110+20
 1860 0e2c 5209     		lsrs	r2, r2, #5
 1861 0e2e 00F80B20 		strb	r2, [r0, fp]
 1862              	.LVL188:
 438:main.c        ****                 ram[i+2] = (uint8_t)(v[x]) % 10;
 1863              		.loc 1 438 0
 1864 0e32 0BF10105 		add	r5, fp, #1
 1865              	.LVL189:
 1866 0e36 A3FB0142 		umull	r4, r2, r3, r1
 1867              	.LVL190:
 1868 0e3a D208     		lsrs	r2, r2, #3
 1869 0e3c D4B2     		uxtb	r4, r2
 1870 0e3e A3FB0463 		umull	r6, r3, r3, r4
 1871              	.LVL191:
 1872 0e42 DB08     		lsrs	r3, r3, #3
 1873 0e44 03EB8303 		add	r3, r3, r3, lsl #2
 1874 0e48 5E00     		lsls	r6, r3, #1
 1875 0e4a A41B     		subs	r4, r4, r6
 1876 0e4c 4455     		strb	r4, [r0, r5]
 439:main.c        ****                 break;
 1877              		.loc 1 439 0
 1878 0e4e 0BF10203 		add	r3, fp, #2
 1879 0e52 02EB8202 		add	r2, r2, r2, lsl #2
 1880 0e56 5400     		lsls	r4, r2, #1
 1881 0e58 091B     		subs	r1, r1, r4
ARM GAS  C:\Users\info\AppData\Local\Temp\ccqSJUfY.s 			page 45


 1882 0e5a C154     		strb	r1, [r0, r3]
 219:main.c        ****         
 1883              		.loc 1 219 0
 1884 0e5c 0023     		movs	r3, #0
 216:main.c        ****         
 1885              		.loc 1 216 0
 1886 0e5e 1A46     		mov	r2, r3
 440:main.c        ****             case OP10_SPECIAL_LOAD_AT_I:
 1887              		.loc 1 440 0
 1888 0e60 4BE0     		b	.L30
 1889              	.LVL192:
 1890              	.L77:
 1891              	.LBB22:
 444:main.c        ****                 }
 1892              		.loc 1 444 0 discriminator 3
 1893 0e62 0BEB0301 		add	r1, fp, r3
 1894 0e66 16AA     		add	r2, sp, #88
 1895 0e68 12A8     		add	r0, sp, #72
 1896 0e6a C05C     		ldrb	r0, [r0, r3]	@ zero_extendqisi2
 1897 0e6c 5054     		strb	r0, [r2, r1]
 443:main.c        ****                     ram[i + j] = v[j];
 1898              		.loc 1 443 0 discriminator 3
 1899 0e6e 0133     		adds	r3, r3, #1
 1900              	.LVL193:
 1901 0e70 DBB2     		uxtb	r3, r3
 1902              	.LVL194:
 1903 0e72 00E0     		b	.L75
 1904              	.LVL195:
 1905              	.L99:
 1906              	.LBE22:
 408:main.c        ****             case OP10_SPECIAL_LOAD_DELAY:
 1907              		.loc 1 408 0
 1908 0e74 0023     		movs	r3, #0
 1909              	.LVL196:
 1910              	.L75:
 1911              	.LBB23:
 443:main.c        ****                     ram[i + j] = v[j];
 1912              		.loc 1 443 0 discriminator 1
 1913 0e76 A342     		cmp	r3, r4
 1914 0e78 F3D9     		bls	.L77
 1915              	.LBE23:
 219:main.c        ****         
 1916              		.loc 1 219 0
 1917 0e7a 0023     		movs	r3, #0
 1918              	.LVL197:
 216:main.c        ****         
 1919              		.loc 1 216 0
 1920 0e7c 1A46     		mov	r2, r3
 1921 0e7e 3CE0     		b	.L30
 1922              	.LVL198:
 1923              	.L78:
 1924              	.LBB24:
 450:main.c        ****                 }
 1925              		.loc 1 450 0 discriminator 3
 1926 0e80 0BEB0301 		add	r1, fp, r3
 1927 0e84 16AA     		add	r2, sp, #88
 1928              	.LVL199:
ARM GAS  C:\Users\info\AppData\Local\Temp\ccqSJUfY.s 			page 46


 1929 0e86 515C     		ldrb	r1, [r2, r1]	@ zero_extendqisi2
 1930 0e88 12AA     		add	r2, sp, #72
 1931              	.LVL200:
 1932 0e8a D154     		strb	r1, [r2, r3]
 449:main.c        ****                     v[j] = ram[i + j];
 1933              		.loc 1 449 0 discriminator 3
 1934 0e8c 0133     		adds	r3, r3, #1
 1935              	.LVL201:
 1936 0e8e DBB2     		uxtb	r3, r3
 1937              	.LVL202:
 1938 0e90 00E0     		b	.L76
 1939              	.LVL203:
 1940              	.L100:
 1941              	.LBE24:
 408:main.c        ****             case OP10_SPECIAL_LOAD_DELAY:
 1942              		.loc 1 408 0
 1943 0e92 0023     		movs	r3, #0
 1944              	.LVL204:
 1945              	.L76:
 1946              	.LBB25:
 449:main.c        ****                     v[j] = ram[i + j];
 1947              		.loc 1 449 0 discriminator 1
 1948 0e94 A342     		cmp	r3, r4
 1949 0e96 F3D9     		bls	.L78
 1950              	.LBE25:
 219:main.c        ****         
 1951              		.loc 1 219 0
 1952 0e98 0023     		movs	r3, #0
 1953              	.LVL205:
 216:main.c        ****         
 1954              		.loc 1 216 0
 1955 0e9a 1A46     		mov	r2, r3
 1956              	.LBB26:
 1957 0e9c 2DE0     		b	.L30
 1958              	.LVL206:
 1959              	.L82:
 1960              	.LBE26:
 249:main.c        ****             freeze_pc = 1;
 1961              		.loc 1 249 0
 1962 0e9e 9A46     		mov	r10, r3
 1963              	.LVL207:
 250:main.c        ****             break;
 1964              		.loc 1 250 0
 1965 0ea0 0123     		movs	r3, #1
 1966              	.LVL208:
 216:main.c        ****         
 1967              		.loc 1 216 0
 1968 0ea2 0022     		movs	r2, #0
 1969              	.LVL209:
 1970 0ea4 29E0     		b	.L30
 1971              	.LVL210:
 1972              	.L84:
 219:main.c        ****         
 1973              		.loc 1 219 0
 1974 0ea6 0023     		movs	r3, #0
 1975              	.LVL211:
 226:main.c        ****             } else {
ARM GAS  C:\Users\info\AppData\Local\Temp\ccqSJUfY.s 			page 47


 1976              		.loc 1 226 0
 1977 0ea8 0122     		movs	r2, #1
 1978              	.LVL212:
 1979 0eaa 26E0     		b	.L30
 1980              	.LVL213:
 1981              	.L101:
 219:main.c        ****         
 1982              		.loc 1 219 0
 1983 0eac 0023     		movs	r3, #0
 1984              	.LVL214:
 242:main.c        ****                     break;
 1985              		.loc 1 242 0
 1986 0eae 0122     		movs	r2, #1
 1987              	.LVL215:
 1988 0eb0 23E0     		b	.L30
 1989              	.LVL216:
 1990              	.L87:
 261:main.c        ****             freeze_pc = 1;
 1991              		.loc 1 261 0
 1992 0eb2 9A46     		mov	r10, r3
 1993              	.LVL217:
 262:main.c        ****             break;
 1994              		.loc 1 262 0
 1995 0eb4 0123     		movs	r3, #1
 1996              	.LVL218:
 216:main.c        ****         
 1997              		.loc 1 216 0
 1998 0eb6 0022     		movs	r2, #0
 1999              	.LVL219:
 2000 0eb8 1FE0     		b	.L30
 2001              	.LVL220:
 2002              	.L88:
 219:main.c        ****         
 2003              		.loc 1 219 0
 2004 0eba 0023     		movs	r3, #0
 216:main.c        ****         
 2005              		.loc 1 216 0
 2006 0ebc 1A46     		mov	r2, r3
 2007              	.LVL221:
 2008 0ebe 1CE0     		b	.L30
 2009              	.LVL222:
 2010              	.L89:
 219:main.c        ****         
 2011              		.loc 1 219 0
 2012 0ec0 0023     		movs	r3, #0
 216:main.c        ****         
 2013              		.loc 1 216 0
 2014 0ec2 1A46     		mov	r2, r3
 2015              	.LVL223:
 2016 0ec4 19E0     		b	.L30
 2017              	.LVL224:
 2018              	.L90:
 219:main.c        ****         
 2019              		.loc 1 219 0
 2020 0ec6 0023     		movs	r3, #0
 2021              	.LVL225:
 283:main.c        ****             }
ARM GAS  C:\Users\info\AppData\Local\Temp\ccqSJUfY.s 			page 48


 2022              		.loc 1 283 0
 2023 0ec8 0122     		movs	r2, #1
 2024              	.LVL226:
 2025 0eca 16E0     		b	.L30
 2026              	.L91:
 219:main.c        ****         
 2027              		.loc 1 219 0
 2028 0ecc 0023     		movs	r3, #0
 216:main.c        ****         
 2029              		.loc 1 216 0
 2030 0ece 1A46     		mov	r2, r3
 2031 0ed0 13E0     		b	.L30
 2032              	.LVL227:
 2033              	.L92:
 219:main.c        ****         
 2034              		.loc 1 219 0
 2035 0ed2 0023     		movs	r3, #0
 2036              	.LVL228:
 293:main.c        ****             }
 2037              		.loc 1 293 0
 2038 0ed4 0122     		movs	r2, #1
 2039              	.LVL229:
 2040 0ed6 10E0     		b	.L30
 2041              	.L93:
 219:main.c        ****         
 2042              		.loc 1 219 0
 2043 0ed8 0023     		movs	r3, #0
 216:main.c        ****         
 2044              		.loc 1 216 0
 2045 0eda 1A46     		mov	r2, r3
 2046 0edc 0DE0     		b	.L30
 2047              	.LVL230:
 2048              	.L94:
 219:main.c        ****         
 2049              		.loc 1 219 0
 2050 0ede 0023     		movs	r3, #0
 356:main.c        ****                 break;
 2051              		.loc 1 356 0
 2052 0ee0 0122     		movs	r2, #1
 2053              	.LVL231:
 2054 0ee2 0AE0     		b	.L30
 2055              	.LVL232:
 2056              	.L102:
 219:main.c        ****         
 2057              		.loc 1 219 0
 2058 0ee4 0023     		movs	r3, #0
 2059              	.LVL233:
 402:main.c        ****                 break;
 2060              		.loc 1 402 0
 2061 0ee6 0122     		movs	r2, #1
 2062              	.LVL234:
 2063 0ee8 07E0     		b	.L30
 2064              	.L96:
 219:main.c        ****         
 2065              		.loc 1 219 0
 2066 0eea 0023     		movs	r3, #0
 216:main.c        ****         
ARM GAS  C:\Users\info\AppData\Local\Temp\ccqSJUfY.s 			page 49


 2067              		.loc 1 216 0
 2068 0eec 1A46     		mov	r2, r3
 2069 0eee 04E0     		b	.L30
 2070              	.L97:
 219:main.c        ****         
 2071              		.loc 1 219 0
 2072 0ef0 0023     		movs	r3, #0
 216:main.c        ****         
 2073              		.loc 1 216 0
 2074 0ef2 1A46     		mov	r2, r3
 2075 0ef4 01E0     		b	.L30
 2076              	.LVL235:
 2077              	.L98:
 219:main.c        ****         
 2078              		.loc 1 219 0
 2079 0ef6 0023     		movs	r3, #0
 2080              	.LVL236:
 454:main.c        ****                 break;
 2081              		.loc 1 454 0
 2082 0ef8 0122     		movs	r2, #1
 2083              	.LVL237:
 2084              	.L30:
 460:main.c        ****             break;
 461:main.c        ****         }
 462:main.c        ****         if (invalid_op) {
 2085              		.loc 1 462 0
 2086 0efa 1AB1     		cbz	r2, .L79
 2087              	.LVL238:
 2088              	.L80:
 463:main.c        ****             /* Turn off LED if invalid instruction received */
 464:main.c        ****             while(1){
 465:main.c        ****                 pin_led_Write(0);
 2089              		.loc 1 465 0 discriminator 1
 2090 0efc 0020     		movs	r0, #0
 2091 0efe FFF7FEFF 		bl	pin_led_Write
 2092              	.LVL239:
 2093 0f02 FBE7     		b	.L80
 2094              	.LVL240:
 2095              	.L79:
 466:main.c        ****             }
 467:main.c        ****         }
 468:main.c        ****         if (!freeze_pc){
 2096              		.loc 1 468 0
 2097 0f04 002B     		cmp	r3, #0
 2098 0f06 7FF46CAD 		bne	.L26
 469:main.c        ****             /* Increment PC */
 470:main.c        ****             pc += 2;
 2099              		.loc 1 470 0
 2100 0f0a 0AF1020A 		add	r10, r10, #2
 2101              	.LVL241:
 2102 0f0e 1FFA8AFA 		uxth	r10, r10
 2103              	.LVL242:
 2104 0f12 66E5     		b	.L26
 2105              	.L111:
 2106              		.align	2
 2107              	.L110:
 2108 0f14 1F000080 		.word	-2147483617
ARM GAS  C:\Users\info\AppData\Local\Temp\ccqSJUfY.s 			page 50


 2109 0f18 00000000 		.word	vram
 2110 0f1c 00000000 		.word	.LANCHOR1
 2111 0f20 00000000 		.word	.LANCHOR2
 2112 0f24 1F85EB51 		.word	1374389535
 2113 0f28 CDCCCCCC 		.word	-858993459
 2114              	.LBE9:
 2115              		.cfi_endproc
 2116              	.LFE65:
 2117              		.size	main, .-main
 2118              		.global	tmr
 2119              		.global	snd
 2120              		.global	vga_update_flag
 2121              		.comm	dma_td,1,1
 2122              		.comm	dma_chan,1,1
 2123              		.global	vbuf
 2124              		.comm	vram,256,8
 2125              		.global	keyflag
 2126              		.global	lastkey
 2127              		.global	keys
 2128              		.data
 2129              		.align	2
 2130              		.set	.LANCHOR1,. + 0
 2131              		.type	vga_update_flag, %object
 2132              		.size	vga_update_flag, 4
 2133              	vga_update_flag:
 2134 0000 01000000 		.word	1
 2135              		.section	.vram,"aw",%progbits
 2136              		.align	2
 2137              		.set	.LANCHOR0,. + 0
 2138              		.type	vbuf, %object
 2139              		.size	vbuf, 12288
 2140              	vbuf:
 2141 0000 00000000 		.space	12288
 2141      00000000 
 2141      00000000 
 2141      00000000 
 2141      00000000 
 2142              		.bss
 2143              		.align	2
 2144              		.set	.LANCHOR2,. + 0
 2145              		.type	snd, %object
 2146              		.size	snd, 1
 2147              	snd:
 2148 0000 00       		.space	1
 2149              		.type	tmr, %object
 2150              		.size	tmr, 1
 2151              	tmr:
 2152 0001 00       		.space	1
 2153 0002 0000     		.space	2
 2154              		.type	keys, %object
 2155              		.size	keys, 16
 2156              	keys:
 2157 0004 00000000 		.space	16
 2157      00000000 
 2157      00000000 
 2157      00000000 
 2158              		.type	keyflag, %object
ARM GAS  C:\Users\info\AppData\Local\Temp\ccqSJUfY.s 			page 51


 2159              		.size	keyflag, 1
 2160              	keyflag:
 2161 0014 00       		.space	1
 2162              		.type	lastkey, %object
 2163              		.size	lastkey, 1
 2164              	lastkey:
 2165 0015 00       		.space	1
 2166              		.text
 2167              	.Letext0:
 2168              		.file 2 "c:\\program files (x86)\\cypress\\psoc creator\\4.2\\psoc creator\\import\\gnu\\arm\\5.4.
 2169              		.file 3 "c:\\program files (x86)\\cypress\\psoc creator\\4.2\\psoc creator\\import\\gnu\\arm\\5.4.
 2170              		.file 4 "Generated_Source\\PSoC5/cytypes.h"
 2171              		.file 5 "Generated_Source\\PSoC5/CYDMAC.H"
 2172              		.file 6 "Generated_Source\\PSoC5/core_cm3.h"
 2173              		.file 7 "Generated_Source\\PSoC5/VERT.h"
 2174              		.file 8 "Generated_Source\\PSoC5/pin_snd.h"
 2175              		.file 9 "Generated_Source\\PSoC5/random.h"
 2176              		.file 10 "Generated_Source\\PSoC5/pin_led.h"
 2177              		.file 11 "Generated_Source\\PSoC5/isr_timer.h"
 2178              		.file 12 "Generated_Source\\PSoC5/DMA_dma.h"
 2179              		.file 13 "Generated_Source\\PSoC5/HORIZ.h"
 2180              		.file 14 "Generated_Source\\PSoC5/HSYNC.h"
 2181              		.file 15 "Generated_Source\\PSoC5/VSYNC.h"
 2182              		.file 16 "Generated_Source\\PSoC5/NEWLINE.h"