ARM GAS  C:\Users\info\AppData\Local\Temp\cc2MOP3A.s 			page 1


   1              		.syntax unified
   2              		.cpu cortex-m3
   3              		.fpu softvfp
   4              		.eabi_attribute 20, 1
   5              		.eabi_attribute 21, 1
   6              		.eabi_attribute 23, 3
   7              		.eabi_attribute 24, 1
   8              		.eabi_attribute 25, 1
   9              		.eabi_attribute 26, 1
  10              		.eabi_attribute 30, 1
  11              		.eabi_attribute 34, 1
  12              		.eabi_attribute 18, 4
  13              		.thumb
  14              		.syntax unified
  15              		.file	"NEWLINE.c"
  16              		.text
  17              	.Ltext0:
  18              		.section	.gnu.lto_.profile.792a7831,"",%progbits
  19 0000 789C6361 		.ascii	"x\234ca`d`e`\000\222\023\031\265\000\002]\000\310"
  19      60646065 
  19      60009213 
  19      19B50002 
  19      5D00C8
  20              		.text
  21              		.section	.gnu.lto_.inline.792a7831,"",%progbits
  22 0000 789C6361 		.ascii	"x\234ca`d\000\001]\010\005\006\274\014\014\314L\214"
  22      60640001 
  22      5D080506 
  22      BC0C0CCC 
  22      4C8C
  23 0012 0C4C4026 		.ascii	"\014L@&\333\002y\020\005T\304\312\002\024aY \017\027"
  23      DB027910 
  23      0554C4CA 
  23      02146159 
  23      200F17
  24 0025 62C21462 		.ascii	"b\302\024b\306\024b\301\024be`a\006\0121]\340\207\013"
  24      C61462C1 
  24      14626560 
  24      61060A31 
  24      5DE0870B 
  25 0039 B161AA62 		.ascii	"\261a\252b\307T\305\301\300\251\203\346,.\220C\270A"
  25      C754C5C1 
  25      C0A983E6 
  25      2C2E9043 
  25      B841
  26 004b EE839060 		.ascii	"\356\203\220`\001N\202\352&\370\201E\270\030\330\304"
  26      014E82EA 
  26      26F88145 
  26      B818D8C4 
  27 005b 51152299 		.ascii	"Q\025\"\231\302\203\351\000^L!\006\000\252\364\024V"
  27      C283E900 
  27      5E4C2106 
  27      00AAF414 
  27      56
  28              		.text
  29              		.section	.gnu.lto_.jmpfuncs.792a7831,"",%progbits
  30 0000 789C458A 		.ascii	"x\234E\212\333\015\000 \014\002O\255\317\3504\356\277"
ARM GAS  C:\Users\info\AppData\Local\Temp\cc2MOP3A.s 			page 2


  30      DB0D0020 
  30      0C024FAD 
  30      CFE834EE 
  30      BF
  31 0011 9B6DF8F0 		.ascii	"\233m\370\360\022 \001\214Dp\371\034\227\267\031\012"
  31      1220018C 
  31      4470F91C 
  31      97B7190A 
  32 0021 185468D0 		.ascii	"\030Th\320ah\237\212\025\266u\177\027\033\000\226"
  32      61689F8A 
  32      15B6757F 
  32      171B0096 
  33              		.text
  34              		.section	.gnu.lto_.pureconst.792a7831,"",%progbits
  35 0000 789C05C1 		.ascii	"x\234\005\301I\022\000 \010\004\261A\301\255\344N\265"
  35      49120020 
  35      0804B141 
  35      C1ADE44E 
  35      B5
  36 0011 FFFFA789 		.ascii	"\377\377\247\211\313\364$\245d\264\3508\301`\262j\327"
  36      CBF424A5 
  36      64B4E838 
  36      C160B26A 
  36      D7
  37 0022 A94BF201 		.ascii	"\251K\362\001\025\017\001\233"
  37      150F019B 
  38              		.text
  39              		.section	.gnu.lto_NEWLINE_Interrupt.792a7831,"",%progbits
  40 0000 789C6361 		.ascii	"x\234ca`d\000\201j V\006bi fdf`d\232p\216\201\241\221"
  40      60640081 
  40      6A205606 
  40      62692066 
  40      64666064 
  41 001a 83899111 		.ascii	"\203\211\221\021\304h\340`d\250gb\254g\374\312\364\227"
  41      C468E060 
  41      64A86762 
  41      AC67FCCA 
  41      F497
  42 002c 89F150FB 		.ascii	"\211\361P\373\263\235L\232\313\033\200\340A\353&\316"
  42      B39D4C9A 
  42      CB1B80E0 
  42      41EB26CE 
  43 003c 86150718 		.ascii	"\206\025\007\030[\231\031\030\3763\201Mb`\\\316\250"
  43      5B991918 
  43      FE33814D 
  43      62605CCE 
  43      A8
  44 004d C90054F6 		.ascii	"\311\000T\366h\343\277\251\274l- e\012\020I\306\025"
  44      68E3BFA9 
  44      BC6C2D20 
  44      650A1049 
  44      C615
  45 005f 8C6C20EB 		.ascii	"\214l \353\326\007\035h\370\377\277\271\341\300$\356"
  45      D6071D68 
  45      F8FFBFB9 
  45      E1C024EE 
  46 006f 97624089 		.ascii	"\227b@\211\017@\014\262\346#\023\023\210f~\305\310\004"
ARM GAS  C:\Users\info\AppData\Local\Temp\cc2MOP3A.s 			page 3


  46      0F400CB2 
  46      E6231313 
  46      88667EC5 
  46      C804
  47 0081 520A36ED 		.ascii	"R\0126\355\003\023#H\014\250B\321=5/\265(\261$5%>8\277"
  47      03132348 
  47      0CA842D1 
  47      3D352FB5 
  47      28B12435 
  48 0099 B4283935 		.ascii	"\264(95& 8\337\3314\306\3175\334\307\323\317U/\231\001"
  48      262038DF 
  48      D934C6CF 
  48      35DCC7D3 
  48      CF552F99 
  49 00ae 00877437 		.ascii	"\000\207t7\331"
  49      D9
  50              		.text
  51              		.section	.gnu.lto_NEWLINE_SetVector.792a7831,"",%progbits
  52 0000 789C5590 		.ascii	"x\234U\220OHTq\020\307\347\373\373\355\272\253\321\353"
  52      4F485471 
  52      10C7E7FB 
  52      FBEDBAAB 
  52      D1EB
  53 0012 D6450F1B 		.ascii	"\326E\017\033$\"D\340\241\213W\221\010d\211\224,0d\333"
  53      242244E0 
  53      A18B5791 
  53      08648994 
  53      2C3064DB 
  54 0026 7D376BE1 		.ascii	"}7k\341\251g\177\356\333\207\022\030^\022\324\304(\312"
  54      A9677FEE 
  54      DB871218 
  54      5E12D4C4 
  54      28CA
  55 0038 F55FBA2D 		.ascii	"\365_\272-\221^\354)\324\311\\\304N\036D\024\366`\220"
  55      915EEC29 
  55      D4C95CC4 
  55      4E1E4414 
  55      F66090
  56 004b 0A1622D5 		.ascii	"\012\026\"\3256\363\244C\003?\3467\303\314g\2763!\002"
  56      36F3A443 
  56      033FE637 
  56      C3CC67BE 
  56      332102
  57 005e 8915D935 		.ascii	"\211\025\3315\262\257\346\007MP\303\033D\375Q\005\310"
  57      B2AFE607 
  57      4D50C31B 
  57      44FD5105 
  57      C8
  58 006f C744417D 		.ascii	"\307DA}\012}\370\241~+\254\015\224\226U\375\224a\333"
  58      0A7DF8A1 
  58      7E2BAC0D 
  58      949655FD 
  58      9461DB
  59 0082 F54A0D26 		.ascii	"\365J\015&\347\303\323De\025\220\010S\250\347\252\315"
  59      E7C3D344 
  59      65159008 
  59      53A8E7AA 
ARM GAS  C:\Users\info\AppData\Local\Temp\cc2MOP3A.s 			page 4


  59      CD
  60 0093 ECE2737D 		.ascii	"\354\342s}\242<\015\2048<\3762\266oI\250\020\343\360"
  60      A23C0D84 
  60      383CFE32 
  60      B66F49A8 
  60      10E3F0
  61 00a6 6BFE7043 		.ascii	"k\376pC\351\253 \376\317~\377\274\025\255{mL\306\230"
  61      E9AB20FE 
  61      CF7EFFBC 
  61      15AD7B6D 
  61      4CC698
  62 00b9 71DB547A 		.ascii	"q\333TzZc\006\232y\230F\015r\250!N\021fQ'\345\247\343"
  62      5A63069A 
  62      7998460D 
  62      72A8214E 
  62      11665127 
  63 00d0 1F5E44F4 		.ascii	"\037^D\364\265\240u\376\315\246w\251\366\225\264\372"
  63      B5A075FE 
  63      CDA677A9 
  63      F695B4FA 
  64 00e0 EF9F5E1E 		.ascii	"\357\237^\0365~6\346\351\020\346\376o\027\343\352\275"
  64      357E36E6 
  64      E910E6FE 
  64      6F17E3EA 
  64      BD
  65 00f1 FC9F6717 		.ascii	"\374\237g\027+\262\"<\206y\324\236K\306[T\360\366\220"
  65      2BB2223C 
  65      8679D49E 
  65      4BC65B54 
  65      F0F690
  66 0104 CCC21DDF 		.ascii	"\314\302\035\337\224\313\256\361\013\326\352\212\025"
  66      94CBAEF1 
  66      0BD6EA8A 
  66      15
  67 0111 66042779 		.ascii	"f\004'y\003\031MG\\-\3278VJ\274.!s\366\244\264|O\000"
  67      03194D47 
  67      5C2DD738 
  67      564ABC2E 
  67      2173F6A4 
  68 0129 AE96CB8C 		.ascii	"\256\226\313\214xk\305\210,\031\016\324\255\377\332"
  68      786BC588 
  68      2C190ED4 
  68      ADFFDA
  69 0138 FA163D0F 		.ascii	"\372\026=\017\007\267]cqjp}u\247j\022\023\375\"\342"
  69      07B75D63 
  69      716A707D 
  69      75A76A12 
  69      13FD22E2 
  70 014c 0189D645 		.ascii	"\001\211\326E\026\271 \"\221\307$h\017\031s?\320\304"
  70      16B92022 
  70      91C72468 
  70      0F19733F 
  70      D0C4
  71 015e A3194B3C 		.ascii	"\243\031K<f,_,4H\216\011/\177\272C\027\004\032\202/"
  71      662C5F2C 
  71      34488E09 
  71      2F7FBA43 
ARM GAS  C:\Users\info\AppData\Local\Temp\cc2MOP3A.s 			page 5


  71      17041A82 
  72 0173 433E1DE6 		.ascii	"C>\035\346\226\302\377\210\355r)n\302\273\000X`\240"
  72      96C2FF88 
  72      ED72296E 
  72      C2BB0058 
  72      60A0
  73 0185 CBA73B40 		.ascii	"\313\247;@\306\377\030\027@p\212#\005Y\200\327\271r"
  73      C6FF1817 
  73      40708A23 
  73      055980D7 
  73      B972
  74 0197 D37E6C3B 		.ascii	"\323~l;\211\036;\325\331\232\356u\222v\307\355\326t"
  74      891E3BD5 
  74      D99AEE75 
  74      9276C7ED 
  74      D674
  75 01a9 D38D8E78 		.ascii	"\323\215\216xs{\313\255x\363\365$E\022\251\224cww[N"
  75      737BCBAD 
  75      78F3F524 
  75      4512A994 
  75      6377775B 
  76 01be E2D15D3B 		.ascii	"\342\321];\331\223v\332\022\017\273\354\277\017\276"
  76      D99376DA 
  76      120FBBEC 
  76      BF0FBE
  77 01cd B318     		.ascii	"\263\030"
  78              		.text
  79              		.section	.gnu.lto_NEWLINE_GetVector.792a7831,"",%progbits
  80 0000 789C5550 		.ascii	"x\234UPK(\204Q\024\276\337\275\303Ld\306\312\206\305"
  80      4B288451 
  80      14BEDFBD 
  80      C34C64C6 
  80      CA86C5
  81 0013 28163616 		.ascii	"(\0266\026J\331K(MB\036E\032\343\337a2\261v\315?\177"
  81      4AD94B28 
  81      4D421E45 
  81      1AE3DF61 
  81      32B176CD 
  82 0029 A18484BC 		.ascii	"\241\204\204\274Ey?W,,~\312\316#\354,$\312\202\205G"
  82      45793F57 
  82      2C2C7ECA 
  82      CE23EC2C 
  82      24CA8285 
  83 003e 48C23867 		.ascii	"H\3028g\330\270u;\367\234\316\367\272\016\001\301g\204"
  83      D8B8753B 
  83      F79CCEF7 
  83      BA0E01C1 
  83      6784
  84 0050 4A0ED554 		.ascii	"J\016\325T\272P\002\262\377X\210N\227\004\370\241]\020"
  84      BA5002B2 
  84      FF58884E 
  84      9704F8A1 
  84      5D10
  85 0062 1D121D78 		.ascii	"\035\022\035x\225_\022\247\221\315\011\365\"-ZsP\373"
  85      955F12A7 
  85      91CD09F5 
  85      222D5A73 
ARM GAS  C:\Users\info\AppData\Local\Temp\cc2MOP3A.s 			page 6


  85      50FB
  86 0074 743476E3 		.ascii	"t4v\343\346\026\360R;\256\317\272\235Y\013Z\207\365"
  86      E616F052 
  86      3BAECFBA 
  86      9D590B5A 
  86      87F5
  87 0086 95F5DC3A 		.ascii	"\225\365\334:`ZE\226\222\"*\005\026\221\206\005\244"
  87      605A4596 
  87      92222A05 
  87      16918605 
  87      A4
  88 0097 B1C412B2 		.ascii	"\261\304\022\262\004-\277\217o\3178U\006\370\2756\177"
  88      042DBF8F 
  88      6FCF3855 
  88      06F8BD36 
  88      7F
  89 00a8 6A7932E7 		.ascii	"jy2\347\030h\017\365\245\214j;\342\265\224\3022\324"
  89      18680FF5 
  89      A58C6A3B 
  89      E2B594C2 
  89      32D4
  90 00ba 7FB0E0ED 		.ascii	"\177\260\340\355\353\255\357\241\244\370\210\246\343"
  90      EBADEFA1 
  90      A4F888A6 
  90      E3
  91 00c7 C50A3259 		.ascii	"\305\0122Y\200xW\021OI\300\223\2152[G\243\246\266\007"
  91      80785711 
  91      4F49C093 
  91      8D325B47 
  91      A3A6B607 
  92 00db 3D7B531E 		.ascii	"={S\036\007Q\320P\0116#\036\351r\260')\271\252[\204"
  92      0751D050 
  92      0936231E 
  92      E972B027 
  92      29B9AA5B 
  93 00f0 3F7A6E77 		.ascii	"?znw\253\031o*\0169l\355\23789\225#f\356\360\363\374"
  93      AB196F2A 
  93      0E396CED 
  93      9F383995 
  93      2366EEF0 
  94 0106 DEF5DB76 		.ascii	"\336\365\333v]\230\332M\243\256\303\275\313\204iLv\262"
  94      5D98DA4D 
  94      A3AEC3BD 
  94      CB84694C 
  94      76B2
  95 0118 873AC156 		.ascii	"\207:\301V\327\311\343\032{\304\006\246!\256\021\326"
  95      D7C9E31A 
  95      7BC406A6 
  95      21AE11D6 
  96 0128 35314BA4 		.ascii	"51K\244L\264\"&\363\266\233\367+\243\210d\366\315\354"
  96      4CB42226 
  96      F3B69BF7 
  96      2BA38864 
  96      F6CDEC
  97 013b 4D645E05 		.ascii	"Md^\005\233u\016\036\026w\342\376H\223\311*\241\260"
  97      9B750E1E 
  97      1677E2FE 
ARM GAS  C:\Users\info\AppData\Local\Temp\cc2MOP3A.s 			page 7


  97      4893C92A 
  97      A1B0
  98 014d 1963DC62 		.ascii	"\031c\334b\306;\310?,\177\303\243\004\273\247,\351\205"
  98      C63BC83F 
  98      2C7FC3A3 
  98      04BBA72C 
  98      E985
  99 015f 468B11F2 		.ascii	"F\213\021\362\267\031\215\365\345\301\366P\300\250-"
  99      B7198DF5 
  99      E5C1F650 
  99      C0A82D
 100 016e 2D0FE6E7 		.ascii	"-\017\346\347\326\372\012\252J\212}\005\331\001\341"
 100      D6FA0AAA 
 100      4A8A7D05 
 100      D901E1
 101 017d 0EF99B2B 		.ascii	"\016\371\233+\215@[0T\341oh2~\000\323\223\233\276"
 101      8D405B30 
 101      54E16F68 
 101      327E00D3 
 101      939BBE
 102              		.text
 103              		.section	.gnu.lto_NEWLINE_SetPriority.792a7831,"",%progbits
 104 0000 789C2550 		.ascii	"x\234%P\277KBQ\030\375\316\275j\206\325\320\332\033"
 104      BF4B4251 
 104      18FDCEBD 
 104      6A86D5D0 
 104      DA1B
 105 0012 0A021122 		.ascii	"\012\002\021\"\242\037CsH\004!\241C\213\021aop\311x"
 105      A21F4373 
 105      480421A1 
 105      438B1161 
 105      6F70C978 
 106 0026 D8D0E4D5 		.ascii	"\330\320\344\325\347\263\265\206\014\012\021B\321~\212"
 106      E7B3B586 
 106      0C0A1142 
 106      D17E8A
 107 0035 632DBD84 		.ascii	"c-\275\204\302 \354_\210\006\207 0(\\*\273W?\3708\337"
 107      C220EC5F 
 107      88068720 
 107      30285C2A 
 107      BB573FF8 
 108 004b BDDF39E7 		.ascii	"\275\3379\347\036\256\203@\252\346%LH\034\221\015N`"
 108      1EAE8340 
 108      AAE6254C 
 108      481C910D 
 108      4E60
 109 005d FB0DA2A4 		.ascii	"\373\015\242\244\233\001j\020nP\202!\201o\366\313P\333"
 109      9B016A10 
 109      6E508221 
 109      816FF6CB 
 109      50DB
 110 006f 6BDE305F 		.ascii	"k\3360_I\310z}8\235\026e\033\026'\352\260\256\023\241"
 110      49C87A7D 
 110      389D1665 
 110      1B1627EA 
 110      B0AE13A1 
 111 0083 049F64B5 		.ascii	"\004\237d\265\037+\031'\037\007\3119W,\024\372\275E"
ARM GAS  C:\Users\info\AppData\Local\Temp\cc2MOP3A.s 			page 8


 111      1F2B1927 
 111      1F07C939 
 111      572C14FA 
 111      BD45
 112 0095 2152421C 		.ascii	"!RB\034\254\011nq\240\014.\025\230\3210\245\221\274"
 112      AC096E71 
 112      A00C2E15 
 112      98D130A5 
 112      91BC
 113 00a7 209CC1AB 		.ascii	" \234\301\253\310o\325\277\303AWZ\331\217\366Lq\016"
 113      C86FD5BF 
 113      C341575A 
 113      D98FF64C 
 113      710E
 114 00b9 978A5909 		.ascii	"\227\212Y\011\332\242\3231\205}4|\177<\354\004\224\204"
 114      DAA2D331 
 114      857D347C 
 114      7F3CEC04 
 114      9484
 115 00cb 49B124B5 		.ascii	"I\261$\265d\253\250\237\214)\344M\230\255L\263n(\255"
 115      64ABA89F 
 115      8C29E44D 
 115      98AD4CB3 
 115      6E28AD
 116 00de C999C921 		.ascii	"\311\231\311!\255\237\012\267?\003_\314\342\034N\\@"
 116      AD9F0AB7 
 116      3F035FCC 
 116      E21C4E5C 
 116      40
 117 00ef A3266A59 		.ascii	"\243&jY(\212\\f\255\332K\237Z:\272\231\357\332\325\331"
 117      288A5C66 
 117      ADDA4B9F 
 117      5A3ABA99 
 117      EFDAD5D9 
 118 0103 DE49D44D 		.ascii	"\336I\324M1\244\2025\236?<y\344\222\351\244\020\036"
 118      31A48235 
 118      9E3F3C79 
 118      E492E9A4 
 118      101E
 119 0115 8B3B7105 		.ascii	"\213;q\005\015\227\322\206p\215<\3443\364\216\224}\022"
 119      0D97D286 
 119      708D3CE4 
 119      33F48E94 
 119      7D12
 120 0127 548EDDBF 		.ascii	"T\216\335\277h1\25042\333\330\242\276\245\033\033q}"
 120      6831A834 
 120      32DBD8A2 
 120      BEA51B1B 
 120      717D
 121 0139 733D14DB 		.ascii	"s=\024\3331\"zx%\024[\230\013\007\374\253\313K\001\377"
 121      31227A78 
 121      25145B98 
 121      0B07FCAB 
 121      CB4B01FF 
 122 014d 6484DCDB 		.ascii	"d\204\334\333F4fD\343\273\377\203\037yM"
 122      46346644 
 122      E3BBFF83 
ARM GAS  C:\Users\info\AppData\Local\Temp\cc2MOP3A.s 			page 9


 122      1F794D
 123              		.text
 124              		.section	.gnu.lto_NEWLINE_GetPriority.792a7831,"",%progbits
 125 0000 789C4D8F 		.ascii	"x\234M\217\277K\302Q\024\305\337yOK*\035j\314\241 \207"
 125      BF4BC251 
 125      14C5DF79 
 125      4F4B2A1D 
 125      6ACCA120 
 126 0015 2022A896 		.ascii	" \"\250\226\326\210\010B\244\240\026!\302\034Z2\304"
 126      D6880842 
 126      A4A01621 
 126      C21C5A32 
 126      C4
 127 0026 86269F7E 		.ascii	"\206&\237~\375:DC\024\345\024\016\005\331oZ[\372\346"
 127      FD3A4443 
 127      14E5140E 
 127      05D96F5A 
 127      5BFAE6
 128 0039 108651D0 		.ascii	"\020\206Q\320_\020\015\016Aa\251\010Q\331\275\332\320"
 128      5F100D0E 
 128      4161A908 
 128      51D9BDDA 
 128      D0
 129 004a 85C7BDEF 		.ascii	"\205\307\275\357q\316y\237k\023\020\\3\324\372\250w"
 129      71CE799F 
 129      6B13105C 
 129      33D4FAA8 
 129      77
 130 005b D2811290 		.ascii	"\322\201\022\220\033\367B\304\034\022\340A; \242\022"
 130      1BF742C4 
 130      1C12E041 
 130      3B20A212 
 131 006b 5154E4B7 		.ascii	"QT\344\267D\276\232[o\351=\320:\256\237\314\263\221"
 131      44BE9A5B 
 131      6FE93DD0 
 131      3AAE9FCC 
 131      B391
 132 007d 54C682A9 		.ascii	"T\306\202\251\204\250I\201A7\006\334\034q\200^A\322"
 132      84A84981 
 132      413706DC 
 132      1C71805E 
 132      41D2
 133 008f EACD79D2 		.ascii	"\352\315y\322\256z\300s\246\264e\330<{l\263*\217\316"
 133      AE7AC073 
 133      A6B465D8 
 133      3C7B6CB3 
 133      2A8FCE
 134 00a2 94B6625D 		.ascii	"\224\266b]\344C\006\352\277U\260\366\371\342g\333\331"
 134      E44306EA 
 134      BF55B0F6 
 134      F9E267DB 
 134      D9
 135 00b3 94D0545D 		.ascii	"\224\320T]8\204\207\303)\365\010M\304\011~9\237\262"
 135      388487C3 
 135      29F5084D 
 135      C4097E39 
 135      9FB2
ARM GAS  C:\Users\info\AppData\Local\Temp\cc2MOP3A.s 			page 10


 136 00c5 74AD6668 		.ascii	"t\255fh\253\324~\275\321a\223\302T\314\315ZQ$1c\277"
 136      ABD47EBD 
 136      D16193C2 
 136      54CCCD5A 
 136      51243163 
 137 00da 4BC95D15 		.ascii	"K\311]\025\220\375\\{\313\373\330o(^a\307\314>4\227"
 137      90FD5C7B 
 137      CBFBD86F 
 137      285E61C7 
 137      CC3E3497 
 138 00ee A5A9641D 		.ascii	"\245\251d\035\355\252z1\324\270\351\234\241]\014p\177"
 138      EDAA7A31 
 138      D4B8E99C 
 138      A15D0C70 
 138      7F
 139 00ff F7DA9AC6 		.ascii	"\367\332\232\306n,A\273)\234\300\215c\020\036N\221\206"
 139      6E2C41BB 
 139      299CC08D 
 139      63101E4E 
 139      9186
 140 0111 28C0F848 		.ascii	"(\300\370H\226\321\310S\215\310\333\375\313\2576\016"
 140      96D1C853 
 140      8DC8DBFD 
 140      CBAF360E 
 141 0121 B1C18E33 		.ascii	"\261\301\2163\322>C\326\201\011\211D\342\005q\253\266"
 141      D23E43D6 
 141      81098944 
 141      E20571AB 
 141      B6
 142 0132 E9FAF3F0 		.ascii	"\351\372\363\360\236E\372\234\360\010\266{<\270\024"
 142      9E45FA9C 
 142      F008B67B 
 142      3CB814
 143 0141 0CCF4782 		.ascii	"\014\317G\202\013s\323\241\225p \350\367M\207F\207\375"
 143      0B73D3A1 
 143      957020E8 
 143      F74D8746 
 143      87FD
 144 0153 DEB1D9C9 		.ascii	"\336\261\331\311\011\357X\177@8\226\303\213\241\360"
 144      09EF587F 
 144      403896C3 
 144      8BA1F0
 145 0162 6264F517 		.ascii	"bd\365\027\014u\202b"
 145      0C758262 
 146              		.text
 147              		.section	.gnu.lto_NEWLINE_Enable.792a7831,"",%progbits
 148 0000 789C6361 		.ascii	"x\234ca`d\000\201'@\254\014\304\322@\314\310\314\300"
 148      60640081 
 148      2740AC0C 
 148      C4D240CC 
 148      C8CCC0
 149 0013 C834E11C 		.ascii	"\3104\341\034\003C#\007\023##\210\321\300\301\310P\317"
 149      03432307 
 149      13232388 
 149      D1C0C1C8 
 149      50CF
 150 0025 C458CFF8 		.ascii	"\304X\317\370\225\351/\023\343\241\366g;\2314\2277\000"
ARM GAS  C:\Users\info\AppData\Local\Temp\cc2MOP3A.s 			page 11


 150      95E92F13 
 150      E3A1F667 
 150      3B993497 
 150      3700
 151 0037 C183A7BB 		.ascii	"\301\203\247\273\214\032V\034`lef`\370\317\0046\211"
 151      8C1A561C 
 151      606C6566 
 151      60F8CF04 
 151      3689
 152 0049 817139A3 		.ascii	"\201q9\243&\003P\331\243\215\377\246\362\262\265\200"
 152      260350D9 
 152      A38DFFA6 
 152      F2B2B580 
 153 0059 94294024 		.ascii	"\224)@$\031W0\262\201\254[\037t\240\341\377\377\346"
 153      195730B2 
 153      81AC5B1F 
 153      74A0E1FF 
 153      FFE6
 154 006b 86033785 		.ascii	"\206\0037\205\017\336\023\006j\375\000\224\005\331\363"
 154      0FDE1306 
 154      6AFD0094 
 154      05D9F3
 155 007a 91890944 		.ascii	"\221\211\011D3?c<\364e\303\367%\354 \015@\223\246\265"
 155      333F633C 
 155      F465C3F7 
 155      25EC200D 
 155      4093A6B5 
 156 008e 1E3ACFFE 		.ascii	"\036:\317\376\205\251\225\231\221\021d\360\226\205\357"
 156      85A99599 
 156      911164F0 
 156      9685EF
 157 009d 7EF040B8 		.ascii	"~\360@\270\015\207\232\033\370\200B\267_\177{\316:\237"
 157      0D879A1B 
 157      F88042B7 
 157      5F7F7BCE 
 157      3A9F
 158 00af 716E634B 		.ascii	"qncKcC\003w+3\023\343*F\031\306\225\2142@KW3\316g\004"
 158      63430377 
 158      2B3313E3 
 158      2A4619C6 
 158      958C3240 
 159 00c9 2AD9DA7E 		.ascii	"*\331\332~f#\027H\027\320O\214k\2002\257\030\233\016"
 159      66231748 
 159      17D04F8C 
 159      6B8032AF 
 159      189B0E
 160 00dc DC0F0659 		.ascii	"\334\017\006Y\001v\366\007&F\220\335@\227(\272\247\346"
 160      0176F607 
 160      264690DD 
 160      409728BA 
 160      A7E6
 161 00ee A5162596 		.ascii	"\245\026%\226\244\246\304\007\347\227\026%\247\306\004"
 161      A4A6C407 
 161      E7971625 
 161      A7C604
 162 00fd 04E73B9B 		.ascii	"\004\347;\233\306\370\271\206\373x\372\271\352%3\000"
 162      C6F8B986 
ARM GAS  C:\Users\info\AppData\Local\Temp\cc2MOP3A.s 			page 12


 162      FB78FAB9 
 162      EA253300 
 163 010d 0021C061 		.ascii	"\000!\300a\037"
 163      1F
 164              		.text
 165              		.section	.gnu.lto_NEWLINE_GetState.792a7831,"",%progbits
 166 0000 789C2D4E 		.ascii	"x\234-N;H\003Q\020\334y\357\022CP\313 \230B\261J#\202"
 166      3B480351 
 166      10DC79EF 
 166      124350CB 
 166      209842B1 
 167 0017 D8889D04 		.ascii	"\330\210\235\004\021$\210)l\002\"\361Z\003A\353\274"
 167      11248829 
 167      6C0222F1 
 167      5A0341EB 
 167      BC
 168 0028 E47204C4 		.ascii	"\344r\004\304\302F\255$X%~@\202\012\2261\225\240h-\202"
 168      C246AD24 
 168      58257E40 
 168      820A9631 
 168      95A0682D 
 169 003d 88C8090A 		.ascii	"\210\310\011\012\242\342\017Q\317]\343\302cw\347\315"
 169      A2E20F51 
 169      CF5DE3C2 
 169      6377E7CD 
 170 004d CE8C4520 		.ascii	"\316\214E \251\016n=\334;\371A\023\324\322)Q>\244\000"
 170      A90E6E3D 
 170      DC3BF941 
 170      13D4D229 
 170      513EA400 
 171 0061 194C0894 		.ascii	"\031L\010\224S\310\341U}+\034\277\037-\206c\025c\012"
 171      53C8E155 
 171      7D2B1CBF 
 171      1F2D8663 
 171      15630A
 172 0074 E6CAF506 		.ascii	"\346\312\365\006W\253u\270\232\310W\204\376(\372\242"
 172      57AB75B8 
 172      9AC85784 
 172      FE28FAA2 
 173 0084 2251418C 		.ascii	"\"QA\214\230z]\373Yn\013\026\015W\227\020\370\247\212"
 173      987A5DFB 
 173      596E0B16 
 173      0D579710 
 173      F8A78A
 174 0097 A058EE4C 		.ascii	"\240X\356L\324\215\357;\246\276\0339<\210\004\024\271"
 174      D48DEF3B 
 174      A6BE1B39 
 174      3C880414 
 174      B9
 175 00a8 9A7D5DAD 		.ascii	"\232}]\255,\0221zd\262X?)%]{h|.\\\236\017\311\275\243"
 175      2C12317A 
 175      64B2583F 
 175      29255D7B 
 175      687C2E5C 
 176 00c1 25C68ADB 		.ascii	"%\306\212\3338kyQ\256\326\020\253\275\365\207\217\326"
 176      386B7951 
 176      AED610AB 
ARM GAS  C:\Users\info\AppData\Local\Temp\cc2MOP3A.s 			page 13


 176      BDF5878F 
 176      D6
 177 00d2 E66A1A8E 		.ascii	"\346j\032\216ig\350\342\376\3556P\306Z\276\310\001-"
 177      6967E8E2 
 177      FEED3650 
 177      C65ABEC8 
 177      012D
 178 00e4 6C228A0D 		.ascii	"l\"\212\015p<l\241\014\362Px.\335\240)\250Y\223\021"
 178      703C6CA1 
 178      0CF25078 
 178      2EDDA029 
 178      A8599311 
 179 00f8 E72BD8DC 		.ascii	"\347+\330\334-\206Xa\277tR\013\213(\001\330\346\333"
 179      2D865861 
 179      BF74520B 
 179      8B2801D8 
 179      E6DB
 180 010a 3BA87F02 		.ascii	";\250\177\002\375\205\204\204\343\250\335#\366\254\235"
 180      FD858484 
 180      E3A8DD23 
 180      F6AC9D
 181 0119 9D9EB367 		.ascii	"\235\236\263g\246\222\231\371l\332N\215'3\303\003\251"
 181      A69299F9 
 181      6CDA4E8D 
 181      2733C303 
 181      A9
 182 012a 447C726C 		.ascii	"D|rl4\021\357M\323/\311\206iu"
 182      3411EF4D 
 182      D32FC986 
 182      6975
 183              		.text
 184              		.section	.gnu.lto_NEWLINE_Disable.792a7831,"",%progbits
 185 0000 789C6361 		.ascii	"x\234ca`d\000\201'@\254\014\304\322@\314\310\314\300"
 185      60640081 
 185      2740AC0C 
 185      C4D240CC 
 185      C8CCC0
 186 0013 C834E11C 		.ascii	"\3104\341\034\003C#\007\023##\210\321\300\301\310P\317"
 186      03432307 
 186      13232388 
 186      D1C0C1C8 
 186      50CF
 187 0025 C458CFF8 		.ascii	"\304X\317\370\225\351/\023\343\241\366g;\2314\2277\000"
 187      95E92F13 
 187      E3A1F667 
 187      3B993497 
 187      3700
 188 0037 C183A5EF 		.ascii	"\301\203\245\357\215\032V\034`lef`\370\317\0046\211"
 188      8D1A561C 
 188      606C6566 
 188      60F8CF04 
 188      3689
 189 0049 817139A3 		.ascii	"\201q9\243&\003P\331\243\215\377\246\362\262\265\200"
 189      260350D9 
 189      A38DFFA6 
 189      F2B2B580 
 190 0059 94294024 		.ascii	"\224)@$\031W0\262\201\254[\037t\240\341\377\377\346"
ARM GAS  C:\Users\info\AppData\Local\Temp\cc2MOP3A.s 			page 14


 190      195730B2 
 190      81AC5B1F 
 190      74A0E1FF 
 190      FFE6
 191 006b 86037FC5 		.ascii	"\206\003\177\305\016N\022\007j\375\000\224\005\331\363"
 191      0E4E1207 
 191      6AFD0094 
 191      05D9F3
 192 007a 91890944 		.ascii	"\221\211\011D3?c<\364e\303\223\245\354 \015@\223\246"
 192      333F633C 
 192      F465C393 
 192      A5EC200D 
 192      4093A6
 193 008d B51E3ACF 		.ascii	"\265\036:\317\376\205\251\225\231\221\021dp\333\236"
 193      FE85A995 
 193      99911164 
 193      70DB9E
 194 009c 7DFD4C10 		.ascii	"}\375L\020n\303\341\346\006>\240\320\316\311\327\376"
 194      6EC3E1E6 
 194      063EA0D0 
 194      CEC9D7FE 
 195 00ac B1CE679C 		.ascii	"\261\316g\234\333\330\322\330\320\300\335\312\314\304"
 195      DBD8D2D8 
 195      D0C0DDCA 
 195      CCC4
 196 00ba B88A5186 		.ascii	"\270\212Q\206q%\243\014\320\322\325\214\363\031\201"
 196      7125A30C 
 196      D0D2D58C 
 196      F31981
 197 00c9 4AB6B69F 		.ascii	"J\266\266\237\331\310\005\322\005\364\023\343\032\240"
 197      D9C805D2 
 197      05F413E3 
 197      1AA0
 198 00d7 CC2BC6A6 		.ascii	"\314+\306\246\003\223\303AV\200\235\375\201\211\021"
 198      0393C341 
 198      56809DFD 
 198      818911
 199 00e6 6437D025 		.ascii	"d7\320%\212\356\251y\251E\211%\251)\361\301\371\245"
 199      8AEEA979 
 199      A9458925 
 199      A929F1C1 
 199      F9A5
 200 00f8 45C9A931 		.ascii	"E\311\2511\001\301\371\316\2461~\256\341>\236~\256z"
 200      01C1F9CE 
 200      A6317EAE 
 200      E13E9E7E 
 200      AE7A
 201 010a C90C0052 		.ascii	"\311\014\000R\330_a"
 201      D85F61
 202              		.text
 203              		.section	.gnu.lto_NEWLINE_Start.792a7831,"",%progbits
 204 0000 789C758F 		.ascii	"x\234u\2171K\003A\020\205\347\315\336]\256P\261\327"
 204      314B0341 
 204      1085E7CD 
 204      DE5DAE50 
 204      B1D7
 205 0012 42B14A63 		.ascii	"B\261Jc\347/\220(\202\0041\205\010\001\221x\255\201"
ARM GAS  C:\Users\info\AppData\Local\Temp\cc2MOP3A.s 			page 15


 205      E72F9028 
 205      82043185 
 205      08019178 
 205      AD81
 206 0024 A0F5AD26 		.ascii	"\240\365\255&\207\226Zh%XIb4\212\202\305Y\035\026\226"
 206      87965A68 
 206      25584962 
 206      348A82C5 
 206      591D1696 
 207 0038 FE011B11 		.ascii	"\376\001\033\021\221(\026\021\264\222\363\234\275XX"
 207      91281611 
 207      B492F39C 
 207      BD5858
 208 0047 98816516 		.ascii	"\230\201e\026\346\275o\346Y\0042\265(mL\372\220<(\002"
 208      E6BD6FE6 
 208      590432B5 
 208      286D4CFA 
 208      903C2802 
 209 005b EFDC116D 		.ascii	"\357\334\021m\270\014\230\217vA>\303\307'\307\214\233"
 209      B80C988F 
 209      76413EC3 
 209      C727C78C 
 209      9B
 210 006c ADE790B3 		.ascii	"\255\347\220\263u-\365pt\250t#B\240\210\022NI\204:\262"
 210      752DF570 
 210      74A87423 
 210      42A08812 
 210      4E49843A 
 211 0081 24B2C78B 		.ascii	"$\262\307\213\357\275~\247fd#\335!\032p\314\272\363"
 211      EFBD7EA7 
 211      666423DD 
 211      211A70CC 
 211      BAF3
 212 0093 F9482749 		.ascii	"\371H'IUG\261\375\322\347\020udh\326\2743\233\256\332"
 212      5547B1FD 
 212      D2E71075 
 212      6468D6BC 
 212      339BAEDA 
 213 00a7 A846BBB7 		.ascii	"\250F\273\267l\344\006\024\206o\367\031?\326\333Z\017"
 213      6CE40614 
 213      866FF719 
 213      3FD6DB5A 
 213      0F
 214 00b8 060A090B 		.ascii	"\006\012\011\013\003\307\360)PLm\324\242}\347\177\251"
 214      03C7F029 
 214      504C6DD4 
 214      A27DE77F 
 214      A9
 215 00c9 4A044868 		.ascii	"J\004Hh\212\364\317\314M\031*\265\340\004~\240\254\224"
 215      8AF4CFCC 
 215      4D192AB5 
 215      E0047EA0 
 215      AC94
 216 00db 72D08362 		.ascii	"r\320\203b'l\011\345\264Ky\372j]\017|p\240\034\311\322"
 216      276C09E5 
 216      B44B79FA 
 216      6A5D0F7C 
ARM GAS  C:\Users\info\AppData\Local\Temp\cc2MOP3A.s 			page 16


 216      70A01CC9 
 217 00f0 C270A032 		.ascii	"\302p\2402d\356\275\354\341\226U\266\270\317~\317}\305"
 217      64EEBDEC 
 217      E19655B6 
 217      B8CF7ECF 
 217      7DC5
 218 0102 66743595 		.ascii	"ft5\225JMu$\213$\226+G\247\275U\257\262\274\346\255"
 218      4A4D7524 
 218      8B24962B 
 218      47A7BD55 
 218      AFB2BCE6 
 219 0117 2C15CAEB 		.ascii	",\025\312\353\225\222W\234+\224''\212\371\334\302\354"
 219      9592579C 
 219      2B942727 
 219      8AF9DCC2 
 219      EC
 220 0128 4C3E375E 		.ascii	"L>7^\242\037\201\222\205\333"
 220      A21F8192 
 220      85DB
 221              		.text
 222              		.section	.gnu.lto_NEWLINE_StartEx.792a7831,"",%progbits
 223 0000 789C7590 		.ascii	"x\234u\220\277KBQ\024\307\317\367^\363iP\264\347`\020"
 223      BF4B4251 
 223      14C7CFF7 
 223      5EF36950 
 223      B4E76010 
 224 0014 8404D1D2 		.ascii	"\204\004\321\322_\020\022AD\344\320\"\204\344[\023\264"
 224      5F101241 
 224      44E4D022 
 224      84E45B13 
 224      B4
 225 0025 666FEAA3 		.ascii	"fo\352\243\306\226\010\242\241%\264\314J\032\302hx5"
 225      C69608A2 
 225      A125B4CC 
 225      4A1AC268 
 225      7835
 226 0037 D494D08F 		.ascii	"\324\224\320\217!r\211\212\220\210R\250\226\260\327"
 226      2172898A 
 226      908852A8 
 226      96B0D7
 227 0046 B9D65807 		.ascii	"\271\326X\007.\347\236\367>\347{\276\347\272\010\244"
 227      2EE79EF7 
 227      3EE77BBE 
 227      E7BA08A4 
 228 0056 638D532F 		.ascii	"c\215S/\347N>\220\004\261X&\232\363\010@_\224\007\224"
 228      E74E3E90 
 228      04B15826 
 228      9AF30840 
 228      5F940794 
 229 006a 1448E25D 		.ascii	"\024H\342]4\004\216\347\037K\"\220U\034\267\326G\277"
 229      34048EE7 
 229      1F4B2290 
 229      551CB7D6 
 229      47BF
 230 007c CAD9B024 		.ascii	"\312\331\260$\221#\232J\204,\002L\235gvW\345\233\260"
 230      91239A4A 
 230      842C024C 
ARM GAS  C:\Users\info\AppData\Local\Temp\cc2MOP3A.s 			page 17


 230      9D677657 
 230      E59BB0
 231 008f 24E0E2B2 		.ascii	"$\340\342\262~\266r\337\256K\001?\227W\305\327\262\220"
 231      7EB672DF 
 231      AE4B013F 
 231      9757C5D7 
 231      B290
 232 00a1 DD20BEE7 		.ascii	"\335 \276\347_N.==\353J\245\224Z6\225\327\222\022\233"
 232      5F4E2E3D 
 232      3DEB4AA5 
 232      945A3695 
 232      D792129B 
 233 00b5 90AC870D 		.ascii	"\220\254\207\015\370\220\203\217\370\023!\217\036\215"
 233      F890838F 
 233      F813218F 
 233      1E8D
 234 00c3 DF15BF96 		.ascii	"\337\025\277\226\332\334\031=\336\3773\024[p\3535v\306"
 234      DADC193D 
 234      DEFF3314 
 234      5B70EB35 
 234      76C6
 235 00d5 6DE53869 		.ascii	"m\3458ie\357\031G7\206\301\223u\013\325\230\321[\324"
 235      65EF1947 
 235      3786C193 
 235      750BD598 
 235      D15BD4
 236 00e8 85D05956 		.ascii	"\205\320YV\221\266\367O\205\356\322z\245\322s\305H6"
 236      91B6F74F 
 236      85EED27A 
 236      A5D273C5 
 236      4836
 237 00fa D482521D 		.ascii	"\324\202R\035\226t9\202\245P@\222\207\266P\025\031\373"
 237      96743982 
 237      A5504092 
 237      87B65015 
 237      19FB
 238 010c D0F81B75 		.ascii	"\320\370\033u;,H\330f4-\245%\215&}\361\017\355q\004"
 238      3B2C48D8 
 238      66342DA5 
 238      258D267D 
 238      F10FED71 
 239 0121 3F127698 		.ascii	"?\022v\230\346\177\017\237\205\203\346sx\331\372.|\226"
 239      E67F0F9F 
 239      8583E673 
 239      78D9FA2E 
 239      7C96
 240 0133 6C25EDEB 		.ascii	"l%\355\353\372\237n\266\345\342\356\342\257\255'\244"
 240      FA9F6EB6 
 240      E5E2EEE2 
 240      AFAD27A4 
 241 0143 ECCA5013 		.ascii	"\354\312P\023\325Qc\317\274\031\273\351\0322\247\315"
 241      D55163CF 
 241      BC19BBE9 
 241      1A32A7CD 
 242 0153 7864C68C 		.ascii	"xd\306\214N\206b\263\361)3<\026\212\015\016\204G\203"
 242      4E8662B3 
 242      F129333C 
ARM GAS  C:\Users\info\AppData\Local\Temp\cc2MOP3A.s 			page 18


 242      168A0D0E 
 242      844783
 243 0166 1323C3A3 		.ascii	"\023#\303\243\301\276)2\"\321h\334L$\276\001\206\007"
 243      C1BE2932 
 243      22D168DC 
 243      4C24BE01 
 243      8607
 244 0178 A05C     		.ascii	"\240\\"
 245              		.text
 246              		.section	.gnu.lto_NEWLINE_Stop.792a7831,"",%progbits
 247 0000 789C6361 		.ascii	"x\234ca`d\000\201\217@\254\014\304\322@\314\310\314"
 247      60640081 
 247      8F40AC0C 
 247      C4D240CC 
 247      C8CC
 248 0012 C0C834E1 		.ascii	"\300\3104\341\034\003C#\007\023##\210\321\300\301\310"
 248      1C034323 
 248      07132323 
 248      88D1C0C1 
 248      C8
 249 0023 50CFC458 		.ascii	"P\317\304X\317\370\225\351/\023\343\241\366g;\2314\227"
 249      CFF895E9 
 249      2F13E3A1 
 249      F6673B99 
 249      3497
 250 0035 3700C183 		.ascii	"7\000\301\203\243\213\015\033V\034`lef`\370\317\004"
 250      A38B0D1B 
 250      561C606C 
 250      656660F8 
 250      CF04
 251 0047 36898171 		.ascii	"6\211\201q9\243&\003P\331\243\215\377\246\362\262\265"
 251      39A32603 
 251      50D9A38D 
 251      FFA6F2B2 
 251      B5
 252 0058 80942940 		.ascii	"\200\224)@$\031W0\262\201\254[\037t\240\341\377\377"
 252      24195730 
 252      B281AC5B 
 252      1F74A0E1 
 252      FFFF
 253 006a E68603F3 		.ascii	"\346\206\003\363\271\016\356\342ba`\370\000\224\005"
 253      B90EEEE2 
 253      626160F8 
 253      009405
 254 0079 D9F39189 		.ascii	"\331\363\221\211\011D3\277`l>\260\371\024\023H=\310"
 254      094433BF 
 254      606C3EB0 
 254      F9141348 
 254      3DC8
 255 008b A49D3BDF 		.ascii	"\244\235;\337\334f\257\377\333\320\321\320 \320\312"
 255      DC66AFFF 
 255      DBD0D1D0 
 255      20D0CA
 256 009a CCF89F09 		.ascii	"\314\370\237\011h\010\343J\306z\206Vf&\206\027\214-"
 256      6808E34A 
 256      C67A8656 
 256      66268617 
ARM GAS  C:\Users\info\AppData\Local\Temp\cc2MOP3A.s 			page 19


 256      8C2D
 257 00ac 07767061 		.ascii	"\007vpaW\312\374\037h \003\343*\240R$9\016\260\031\314"
 257      57CAFC1F 
 257      682003E3 
 257      2AA05224 
 257      390EB019 
 258 00c1 602D8CAB 		.ascii	"`-\214\253\031\353[\231Y\030^16\035\330\355\005\026"
 258      19EB5B99 
 258      59185E31 
 258      361DD8ED 
 258      0516
 259 00d3 02810F40 		.ascii	"\002\201\017@+\200\016\001jVtO\315K-J,IM\211\017\316"
 259      2B800E01 
 259      6A56744F 
 259      CD4B2D4A 
 259      2C494D89 
 260 00e9 2F2D4A4E 		.ascii	"/-JN\215\011\010\316w6\215\361s\015\367\361\364s\325"
 260      8D0908CE 
 260      77368DF1 
 260      730DF7F1 
 260      F473D5
 261 00fc 4B660000 		.ascii	"Kf\000\000\316\001cT"
 261      CE016354 
 262              		.text
 263              		.section	.gnu.lto_NEWLINE_SetPending.792a7831,"",%progbits
 264 0000 789C6361 		.ascii	"x\234ca`d\000\201'@\254\014\304\322@\314\310\314\300"
 264      60640081 
 264      2740AC0C 
 264      C4D240CC 
 264      C8CCC0
 265 0013 C834E11C 		.ascii	"\3104\341\034\003C#\007\023##\210\321\300\301\310P\317"
 265      03432307 
 265      13232388 
 265      D1C0C1C8 
 265      50CF
 266 0025 C458CFF8 		.ascii	"\304X\317\370\225\351/\023\343\241\366g;\2314\2277\000"
 266      95E92F13 
 266      E3A1F667 
 266      3B993497 
 266      3700
 267 0037 C183D67F 		.ascii	"\301\203\326\177F\015+\0160\266230\374g\002\233\304"
 267      460D2B0E 
 267      30B63233 
 267      30FC6702 
 267      9BC4
 268 0049 C0B89C51 		.ascii	"\300\270\234Q\223\001\250\354\321\306\177Sy\331Z@\312"
 268      9301A8EC 
 268      D1C67F53 
 268      79D95A40 
 268      CA
 269 005a 1420928C 		.ascii	"\024 \222\214+\030\331@\326\255\017:\320\360\377\177"
 269      2B18D940 
 269      D6AD0F3A 
 269      D0F0FF7F 
 270 006a 73C381CF 		.ascii	"s\303\201\317\342\007\277\211\003\265~\000\312\202\354"
 270      E207BF89 
 270      03B57E00 
ARM GAS  C:\Users\info\AppData\Local\Temp\cc2MOP3A.s 			page 20


 270      CA82EC
 271 0079 F9C8C404 		.ascii	"\371\310\304\004\242\231\2371\036\372\262\341\357Rv"
 271      A2999F31 
 271      1EFAB2E1 
 271      EF5276
 272 0088 9006A049 		.ascii	"\220\006\240I\323Z\017\235g\377\302\324\312\314\310"
 272      D35A0F9D 
 272      67FFC2D4 
 272      CACCC8
 273 0097 083278C6 		.ascii	"\0102x\306\201\3169L\020n\303\221\346\006>\240\320\273"
 273      81CE394C 
 273      106EC391 
 273      E6063EA0 
 273      D0BB
 274 00a9 9D9F97F1 		.ascii	"\235\237\227\361\317g\234\333\330\322\330\320\300\335"
 274      CF679CDB 
 274      D8D2D8D0 
 274      C0DD
 275 00b7 CACCC4B8 		.ascii	"\312\314\304\270\212Q\206q%\243\014\320\322\325\214"
 275      8A518671 
 275      25A30CD0 
 275      D2D58C
 276 00c6 F319814A 		.ascii	"\363\031\201J\266\266\237\331\310\005\322\005\364\023"
 276      B6B69FD9 
 276      C805D205 
 276      F413
 277 00d4 E31AA0CC 		.ascii	"\343\032\240\314+\306\246\003\337\303AV\200\235\375"
 277      2BC6A603 
 277      DFC34156 
 277      809DFD
 278 00e3 81891164 		.ascii	"\201\211\021d7\320%\212\356\251y\251E\211%\251)\361"
 278      37D0258A 
 278      EEA979A9 
 278      458925A9 
 278      29F1
 279 00f5 C1F9A545 		.ascii	"\301\371\245E\311\2511\001\301\371\316\2461~\256\341"
 279      C9A93101 
 279      C1F9CEA6 
 279      317EAEE1 
 280 0105 3E9E7EAE 		.ascii	">\236~\256z\311\014\000\261\224`A"
 280      7AC90C00 
 280      B1946041 
 281              		.text
 282              		.section	.gnu.lto_NEWLINE_ClearPending.792a7831,"",%progbits
 283 0000 789C6361 		.ascii	"x\234ca`d\000\201'@\254\014\304\322@\314\310\314\300"
 283      60640081 
 283      2740AC0C 
 283      C4D240CC 
 283      C8CCC0
 284 0013 C834E11C 		.ascii	"\3104\341\034\003C#\007\023##\210\321\300\301\310P\317"
 284      03432307 
 284      13232388 
 284      D1C0C1C8 
 284      50CF
 285 0025 C458CFF8 		.ascii	"\304X\317\370\225\351/\023\343\241\366g;\2314\2277\000"
 285      95E92F13 
 285      E3A1F667 
ARM GAS  C:\Users\info\AppData\Local\Temp\cc2MOP3A.s 			page 21


 285      3B993497 
 285      3700
 286 0037 C183A5AB 		.ascii	"\301\203\245\253\214\033V\034`lef`\370\317\0046\211"
 286      8C1B561C 
 286      606C6566 
 286      60F8CF04 
 286      3689
 287 0049 817139A3 		.ascii	"\201q9\243&\003P\331\243\215\377\246\362\262\265\200"
 287      260350D9 
 287      A38DFFA6 
 287      F2B2B580 
 288 0059 94294024 		.ascii	"\224)@$\031W0\262\201\254[\037t\240\341\377\377\346"
 288      195730B2 
 288      81AC5B1F 
 288      74A0E1FF 
 288      FFE6
 289 006b 860357A5 		.ascii	"\206\003W\245\016\336\220\002j\375\000\224\005\331\363"
 289      0EDE9002 
 289      6AFD0094 
 289      05D9F3
 290 007a 91890944 		.ascii	"\221\211\011D3?c<\364\345\303\325e\354 \015@\223\246"
 290      333F633C 
 290      F4E5C3D5 
 290      65EC200D 
 290      4093A6
 291 008d B51E3ACF 		.ascii	"\265\036:\317\376\205\251\225\231\221\021d\360\256_"
 291      FE85A995 
 291      99911164 
 291      F0AE5F
 292 009c BDCDCC10 		.ascii	"\275\315\314\020n\303\321\346\006>\240\320\226\203\267"
 292      6EC3D1E6 
 292      063EA0D0 
 292      9683B7
 293 00ab FB99E733 		.ascii	"\373\231\3473\316mlilh\340nefb\\\305(\303\270\222Q\006"
 293      CE6D6C69 
 293      6C68E06E 
 293      6566625C 
 293      C528C3B8 
 294 00c2 68E96AC6 		.ascii	"h\351j\306\371\214@%[\333\317l\344\002\351\002\372\211"
 294      F98C4025 
 294      5BDBCF6C 
 294      E402E902 
 294      FA89
 295 00d4 710D50E6 		.ascii	"q\015P\346\025c\323\201\233Q +\300\316\376\300\304\010"
 295      1563D381 
 295      9B51202B 
 295      C0CEFEC0 
 295      C408
 296 00e6 B21BE812 		.ascii	"\262\033\350\022E\367\324\274\324\242\304\222\324\224"
 296      45F7D4BC 
 296      D4A2C492 
 296      D494
 297 00f4 F8E0FCD2 		.ascii	"\370\340\374\322\242\344\324\230\200\340|g\323\030?"
 297      A2E4D498 
 297      80E07C67 
 297      D3183F
 298 0103 D7701F4F 		.ascii	"\327p\037O?W\275d\006\000ZV_\262"
ARM GAS  C:\Users\info\AppData\Local\Temp\cc2MOP3A.s 			page 22


 298      3F57BD64 
 298      06005A56 
 298      5FB2
 299              		.text
 300              		.section	.gnu.lto_.symbol_nodes.792a7831,"",%progbits
 301 0000 789C55CB 		.ascii	"x\234U\313\333\015\3020\020D\321Y?b\257\223\364@*\241"
 301      DB0DC230 
 301      1044D159 
 301      3F62AF93 
 301      F4402AA1 
 302 0014 B489A820 		.ascii	"\264\211\250 %D|R\006\005P\003P\010\3021\026\322~\215"
 302      25447C52 
 302      06055003 
 302      5008C231 
 302      16D27E8D 
 303 0028 74EE6E80 		.ascii	"t\356n\200\340,\000\234'\260=\200:\267}\251\020(\177"
 303      E02C009C 
 303      27B03D80 
 303      3AB77DA9 
 303      10287F
 304 003b 580F8874 		.ascii	"X\017\210t\026\006z\013\211\301Bf\264\240\034,\024&"
 304      16067A0B 
 304      89C14266 
 304      B4A01C2C 
 304      1426
 305 004d 0B60B620 		.ascii	"\013`\266 T\013\216\305\200\314\034\033\000\353~\252"
 305      540B8EC5 
 305      80CC1C1B 
 305      00EB7EAA 
 306 005d 072327FB 		.ascii	"\007#'\3731q6\340s\302\365\371\021\237\005\367\266\036"
 306      317136E0 
 306      73C2F5F9 
 306      119F05F7 
 306      B61E
 307 006f EFB61197 		.ascii	"\357\266\021\227W]\355]{\327\336\265\367\322{\371u|"
 307      575DED5D 
 307      7BD7DEB5 
 307      F7D27BF9 
 307      757C
 308 0081 01CE034E 		.ascii	"\001\316\003N\031"
 308      19
 309              		.text
 310              		.section	.gnu.lto_.refs.792a7831,"",%progbits
 311 0000 789C6361 		.ascii	"x\234ca`d\340f```\344`b`b\344b\342fb\000\000\001\365"
 311      6064E066 
 311      606060E4 
 311      60626062 
 311      E462E266 
 312 0019 0038     		.ascii	"\0008"
 313              		.text
 314              		.section	.gnu.lto_.decls.792a7831,"",%progbits
 315 0000 789C8D55 		.ascii	"x\234\215U[LTG\030>\377\236\335\005\227\005*\032\343"
 315      5B4C5447 
 315      183EFF9E 
 315      DD059705 
 315      2A1AE3
 316 0013 030FD434 		.ascii	"\003\017\3244\201\207\206VM\023\337\332D\251\2324hC"
ARM GAS  C:\Users\info\AppData\Local\Temp\cc2MOP3A.s 			page 23


 316      81878656 
 316      4D13DFDA 
 316      44A99A34 
 316      6843
 317 0025 6A5F4C2C 		.ascii	"j_L,\302\321\222\0220\313\222\224\267CQ\021l\025\254"
 317      C2D19212 
 317      30CB9294 
 317      B7435111 
 317      6C15AC
 318 0038 A05C8CB4 		.ascii	"\240\\\214\264\017*\212\200r\021)\245\013\002.7\271"
 318      0F2A8A80 
 318      721129A5 
 318      0B022E37 
 318      B9
 319 0049 C9451059 		.ascii	"\311E\020YD\020,Z\260\304T\021\351?s\3460\263\272\250"
 319      44102C5A 
 319      B0C45411 
 319      E93F73E6 
 319      30B3BAA8 
 320 005d 93FC7BCE 		.ascii	"\223\374{\316\314\371\376\357\373\346\237\313\032%\220"
 320      CCF9FEEF 
 320      FBE69FCB 
 320      1A2590
 321 006c 486B5E21 		.ascii	"Hk^!I\373\360\365;Y\222\026\261\371\341\330.\2117\322"
 321      49FBF0F5 
 321      3B599216 
 321      B1F9E1D8 
 321      2E8937D2 
 322 0080 BF8C5181 		.ascii	"\277\214Q\201Q\205Q\207\321\200\321\204\341\304h\301"
 322      51855187 
 322      D180D184 
 322      E1C468C1 
 323 0090 68C3B885 		.ascii	"h\303\270\205\321\211\321\215q\033\243Oz\263\021\036"
 323      D189D18D 
 323      711BA34F 
 323      7AB3111E 
 324 00a0 10F8818D 		.ascii	"\020\370\201\215\275\336\210\226\231\341\0020Vc\\\301"
 324      BDDE8896 
 324      99E10230 
 324      56635CC1 
 325 00b0 E8C71810 		.ascii	"\350\307\030\020r+<\344\022\217\246w\344Uy\310\253\023"
 325      722B3CE4 
 325      128FA677 
 325      E45579C8 
 325      AB13
 326 00c2 346B3102 		.ascii	"4k1\0021v`\014c\014\011\271u\036r\033\230\246\236\247"
 326      3176600C 
 326      630C09B9 
 326      751E721B 
 326      98A69EA7 
 327 00d6 E7EC14F2 		.ascii	"\347\354\024\362\032<\344\221\032\312L\363!\306\204"
 327      1A3CE491 
 327      1ACA4CF3 
 327      21C684
 328 00e5 806FF280 		.ascii	"\200o\362\200w\012:\301L\353\365<\247\207\274\226\267"
 328      770A3AC1 
 328      4CEBF53C 
ARM GAS  C:\Users\info\AppData\Local\Temp\cc2MOP3A.s 			page 24


 328      A787BC96 
 328      B7
 329 00f6 E8B478C0 		.ascii	"\350\264x\300\223\365\364f\370\022\214\"\214I\214r\214"
 329      93F5F466 
 329      F8128C22 
 329      8C498C72 
 329      8C
 330 0107 29A6EB60 		.ascii	")\246\353`X3\303\023\036\262\036d=\353\226\361O\366"
 330      5833C313 
 330      1EB21E64 
 330      3DEB96F1 
 330      4FF6
 331 0119 888FF4E6 		.ascii	"\210\217\364\346\272\276K\303\304ru\215\345\370;\031"
 331      BABE4BC3 
 331      C472758D 
 331      E5F83B19 
 332 0129 D6936FD2 		.ascii	"\326\223o\322\214\014\243\363t{\340 {w\271Z\335\366"
 332      8C0CA3F3 
 332      747BE020 
 332      7B77B95A 
 332      DDF6
 333 013b 80EF7B0B 		.ascii	"\200\357{\013\336\323\031X0@\312\375G\005\336Cp\007"
 333      DED31958 
 333      3040CAFD 
 333      4705DE43 
 333      7007
 334 014d 4002DA24 		.ascii	"@\002\332$v\026%2\302\236\344\005\264\216A\347\203%"
 334      76162532 
 334      C29EE405 
 334      B48E41E7 
 334      8325
 335 015f 66F642E1 		.ascii	"f\366B\341 \031(\036\204\017n8z\256i\343C\260\324t$"
 335      2019281E 
 335      840F6E38 
 335      7AAE69E3 
 335      43B0D474 
 336 0174 B8931256 		.ascii	"\270\223\022V\336\305\276\201'\010|\314=\323\007Q\226"
 336      DEC5BE81 
 336      27087CCC 
 336      3DD30751 
 336      96
 337 0185 52CBFAA4 		.ascii	"R\313\372\244\347G\263\032\0142r\342\373\310\363\013"
 337      E747B31A 
 337      0C3272E2 
 337      FBC8F30B 
 338 0195 5F8616A9 		.ascii	"_\206\026\251\3302T\325\3601\257L\327\301\322|y\316"
 338      D83254D5 
 338      F031AF4C 
 338      D7C1D27C 
 338      79CE
 339 01a7 00011630 		.ascii	"\000\001\0260bw\266=w\314\017\273\253-\020\204\335\205"
 339      6277B63D 
 339      77CC0FBB 
 339      AB2D1084 
 339      DD85
 340 01b9 E6BC5CC3 		.ascii	"\346\274\\\303\332l\232\227\242\006\031a\327\032\270"
 340      DA6C9A97 
ARM GAS  C:\Users\info\AppData\Local\Temp\cc2MOP3A.s 			page 25


 340      A2061961 
 340      D71AB8
 341 01c8 04817011 		.ascii	"\004\201p\021p\263@\021\254\305\337\275F\215)gz|\321"
 341      70B34011 
 341      ACC5DFBD 
 341      468D2967 
 341      7A7CD1
 342 01db 6B5D813A 		.ascii	"k]\201:S\252\272\346\013\326d\246\250NL\013\"(\270\000"
 342      53AABAE6 
 342      0BD664A6 
 342      A84E4C0B 
 342      2228B800 
 343 01ef 32144228 		.ascii	"2\024B(\261\210\257\344q\036\206\320\374eX\207\231\267"
 343      B188AFE4 
 343      711E86D0 
 343      FC655887 
 343      99B7
 344 0201 EA9A7A2D 		.ascii	"\352\232z-\362\347\324h\356\235\374Vok\272\252\376D"
 344      F2E7D468 
 344      EE9DFC56 
 344      6F6BBAAA 
 344      FE44
 345 0213 1403B6D1 		.ascii	"\024\003\266\321t.Y\002VF\204\330\307\343\207\312|\344"
 345      742E5902 
 345      564684D8 
 345      C7E387CA 
 345      7CE4
 346 0225 AF499E61 		.ascii	"\257I\236anj\342\027#XC\226\311\204\253\020\"$\237#"
 346      6E6AE217 
 346      23584396 
 346      C984AB10 
 346      22249F23 
 347 0239 33722D1C 		.ascii	"3r-\034\216\316\035$\026\257\340\207Rn\021q\232@zcA"
 347      8ECE1D24 
 347      16AFE087 
 347      526E1171 
 347      9A407A63 
 348 024e B5C5889B 		.ascii	"\265\305\210\233\201\"p\2428\3662\253\362\207e+RN+R"
 348      812270A2 
 348      38F632AB 
 348      F287652B 
 348      524E2B52 
 349 0262 06AC2417 		.ascii	"\006\254$\027]ym\376X\022\027)\211+0[/\011\302\240\230"
 349      5D796DFE 
 349      58121729 
 349      892B305B 
 349      2F09C2A0 
 350 0277 EB158B25 		.ascii	"\353\025\213%\251\240%I[\254r\371\312*\320\232\244\217"
 350      A9A02549 
 350      5BAC72F9 
 350      CA2AD09A 
 350      A48F
 351 0289 D69F9745 		.ascii	"\326\237\227EM\342\206\213^s[\206\023%\251\275D\263"
 351      4DE2868B 
 351      5E735B86 
 351      1325A9BD 
 351      44B3
ARM GAS  C:\Users\info\AppData\Local\Temp\cc2MOP3A.s 			page 26


 352 029b A0547564 		.ascii	"\240Tud\036\367\317Q\035\0071/\200\240\240\222kV\212"
 352      1EF7CF51 
 352      1D07312F 
 352      80A0A092 
 352      6B568A
 353 02ae 9A555433 		.ascii	"\232UT3%onV\226Oh\232%\207\036\024z\343F\010\264\300"
 353      256F6E56 
 353      964F689A 
 353      25871E14 
 353      7AE34608 
 354 02c4 2290FEF4 		.ascii	"\"\220\376\364\365\347\276Z\237.v\346\330+\037\371\034"
 354      F5E7BE5A 
 354      9F2E76E6 
 354      D82B1FF9 
 354      1C
 355 02d5 C51A7AC6 		.ascii	"\305\032z\306.M\031!\304\242Wu\337\251T\334dP\013\026"
 355      2E4D1921 
 355      C4A25775 
 355      DFA954DC 
 355      64500B16 
 356 02e9 A8E18A81 		.ascii	"\250\341\212\201\026\374=B\226g\346w\325\274V\202\215"
 356      16FC3D42 
 356      9667E677 
 356      D5BC5682 
 356      8D
 357 02fa 81F029AE 		.ascii	"\201\360)\256\314\237\2702\310JP\360\007N\252\032'\205"
 357      CC9FB832 
 357      C84A50F0 
 357      074EAA1A 
 357      2785
 358 030c 0AE3A7CE 		.ascii	"\012\343\247\316\376m\246\265'<Z\355\213\252\357N\233"
 358      FE6DA6B5 
 358      273C5AED 
 358      8BAAEF4E 
 358      9B
 359 031d 972DBE83 		.ascii	"\227-\276\203\326\341/\275\370\203C\323\341z\355/|\264"
 359      D6E12FBD 
 359      F88343D3 
 359      E17AED2F 
 359      7CB4
 360 032f 547B44C1 		.ascii	"T{D\301u\356\352\272X\207:Z\207\236\332W\251^r\221V"
 360      75EEEABA 
 360      58873A5A 
 360      879EDA57 
 360      A95E7291 
 361 0344 87CEA38D 		.ascii	"\207\316\243\215)\376\242$q\3035o\270\325\376l\362\243"
 361      29FEA224 
 361      71C3356F 
 361      B8D5FE6C 
 361      F2A3
 362 0356 177EACF6 		.ascii	"\027~\254\366\263\3352\253\275\201\240\240\236k\326"
 362      B3DD32AB 
 362      BD81A0A0 
 362      9E6BD6
 363 0365 8B9A0D54 		.ascii	"\213\232\015T\363jwg\003\310\016M3\273\243\261\306K"
 363      F36A7767 
 363      03C80E4D 
ARM GAS  C:\Users\info\AppData\Local\Temp\cc2MOP3A.s 			page 27


 363      33BBA3B1 
 363      C64B
 364 0377 B3EEE8FF 		.ascii	"\263\356\350\377\225\323\220\015\335\310i\032E\232&"
 364      95D3900D 
 364      DDC8691A 
 364      459A26
 365 0386 4AF3F265 		.ascii	"J\363\362e\375\003/\271C\243i\033,}bfn\256\364\271\273"
 365      FD032FB9 
 365      43A3691B 
 365      2C7D6266 
 365      6EAEF4B9 
 366 039b B9C9696E 		.ascii	"\271\311in\2124NJS\323\2640\006\262K\243)z\334\320f"
 366      8A344E4A 
 366      53D3B430 
 366      06B24BA3 
 366      297ADCD0 
 367 03b0 666EE6B3 		.ascii	"fn\346\263\335\3354s\232f\221\246\205\3224f\317e\372"
 367      DDDD3473 
 367      9A6691A6 
 367      85D23466 
 367      CF65FA
 368 03c3 C8331ACD 		.ascii	"\3103\032\315\261\254\247\223\336\314\315\013EMC\016"
 368      B1ACA793 
 368      DECCCD0B 
 368      454D430E 
 369 03d3 23E568E5 		.ascii	"#\345h\345\034\255\"G\033\345\030*+.\267\310\2574\216"
 369      1CAD2247 
 369      1BE5182A 
 369      2B2EB7C8 
 369      AF348E
 370 03e6 DE9AD493 		.ascii	"\336\232\324\223\3008JoZ\325\214dU\375\202\236\246v"
 370      C0384A6F 
 370      5AD58C64 
 370      55FD829E 
 370      A676
 371 03f8 4ED22E92 		.ascii	"N\322.\222\334\242$\265/\272\362\254\3621\355*\374\347"
 371      DCA224B5 
 371      2FBAF2AC 
 371      F231ED2A 
 371      FCE7
 372 040a 69F1AC6E 		.ascii	"i\361\254n$\277E'!N:8I\207H\322II\016\325\016\224\231"
 372      24BF4527 
 372      214E3A38 
 372      498748D2 
 372      49490ED5 
 373 0421 E43C8D24 		.ascii	"\344<\215$\255?\243\224\220\270T\325Q\326hud\000e\350"
 373      AD3FA394 
 373      90B854D5 
 373      51D66875 
 373      640065E8 
 374 0435 E20C5DA0 		.ascii	"\342\014]\240]\304\320M\263'\3063\252\254\362e-;7\335"
 374      5DC4D04D 
 374      B327C633 
 374      AAACF265 
 374      2D3B37DD 
 375 0449 75D8A4EF 		.ascii	"u\330\244\357\223S\356%\355\341\024=\242\211\333\224"
 375      9353EE25 
ARM GAS  C:\Users\info\AppData\Local\Temp\cc2MOP3A.s 			page 28


 375      EDE1143D 
 375      A289DB94 
 376 0459 E67CC549 		.ascii	"\346|\305I\247\237\354\320h\252\317\014\234\2660\232"
 376      A79FECD0 
 376      68AACF0C 
 376      9CB6309A 
 377 0469 EE417126 		.ascii	"\356Aq&\275\234\244W$\351\243$G\262j\347}\305;\326\375"
 377      BD9CA457 
 377      24E9A324 
 377      47B26AE7 
 377      7DC53BD6 
 378 047e 3EE9A7D7 		.ascii	">\351\247\327\037}\"\370\231\253\365\270\227\010\356"
 378      1F7D22F8 
 378      99ABF5B8 
 378      9708EE
 379 048d 77030F30 		.ascii	"w\003\0170\360\000\005\317\035\374\267\317l\301C\236"
 379      F00005CF 
 379      1DFCB7CF 
 379      6CC1439E 
 380 049d F27E87BC 		.ascii	"\362~\207\274}\352\267E/\271\227N\307P\226\225\223\345"
 380      7DEAB745 
 380      2FB9974E 
 380      C7509695 
 380      93E5
 381 04af 0596100F 		.ascii	"\005\226\020\017\351w=\244\353\267\315\216\334\023\311"
 381      E9773DA4 
 381      EBB7CD8E 
 381      DC13C9
 382 04be 78AE87F0 		.ascii	"x\256\207\360\\\016\362i\337\001\213v&\013\237\334p"
 382      5C0EF269 
 382      DF018B76 
 382      260B9FDC 
 382      70
 383 04cf 80E87FC8 		.ascii	"\200\350\177\310\355\000\0173\377\303\324\377\260\263"
 383      ED000F33 
 383      FFC3D4FF 
 383      B0B3
 384 04dd F012F937 		.ascii	"\360\022\3717\014\306[\017\233\277p\361\005k\027_\313"
 384      0CC65B0F 
 384      9BBF70F1 
 384      056B175F 
 384      CB
 385 04ee C8F8D315 		.ascii	"\310\370\323\025\362\240\346\270;gz\304\2549f\354\022"
 385      F2A0E6B8 
 385      3B677AC4 
 385      AC3966EC 
 385      12
 386 04ff FFC7B98F 		.ascii	"\377\307\271\217\236\203\231\347\021\034\274\247{v\234"
 386      9E8399E7 
 386      111CBCA7 
 386      7B769C
 387 050e 19095455 		.ascii	"\031\011TUo\030E#.\3568\230\031N\033\315\0324i5|\037"
 387      6F184523 
 387      2EEE3898 
 387      194E1BCD 
 387      1A346935 
 388 0524 4AB20FEE 		.ascii	"J\262\017\356\251\371&yT\363\324{\364\332iY\277\214"
ARM GAS  C:\Users\info\AppData\Local\Temp\cc2MOP3A.s 			page 29


 388      A9F92679 
 388      54F3D47B 
 388      F4DA6959 
 388      BF8C
 389 0536 1D5D8FB6 		.ascii	"\035]\217\266\341\326\002\230@\255\007\\k\014\330e\374"
 389      E1D60298 
 389      40AD075C 
 389      6B0CD865 
 389      FC
 390 0547 A6C6B867 		.ascii	"\246\306\270g\215g\3775\377l\025\3138\341V\306\207\254"
 390      8D67FF35 
 390      FF6C15CB 
 390      38E156C6 
 390      87AC
 391 0559 8C0F6919 		.ascii	"\214\017i\031\317V%\027\272\325\274\334\355O|\222\201"
 391      CF562517 
 391      BAD5BCDC 
 391      ED4F7C92 
 391      81
 392 056a 272978A6 		.ascii	"')x\246\316y\303_\004;\334\300S\014L\236+\303\303\276"
 392      CE79C35F 
 392      043BDCC0 
 392      530C4C9E 
 392      2BC3C3BE 
 393 057e FD6A7B78 		.ascii	"\375j{x\330\236\355qv\305fK<`\367\336\032\376M\320\346"
 393      D89EED71 
 393      76C5664B 
 393      3C60F7DE 
 393      1AFE4DD0 
 394 0593 F5EBA50F 		.ascii	"\365\353\245\017\267*q\212-\322\256D\357\211\210O\264"
 394      B72A718A 
 394      2DD2AE44 
 394      EF89884F 
 394      B4
 395 05a4 4529BB77 		.ascii	"E)\273wF\304o\376l7\313\010\215\342\311\021\212}\227"
 395      46C46FFE 
 395      6C37CB08 
 395      8DE2C911 
 395      8A7D97
 396 05b7 12658FB7 		.ascii	"\022e\217\267Y\243\222b\022l\221\321\3216%!a\031\202"
 396      59A39262 
 396      126C91D1 
 396      D1362521 
 396      611982
 397 05ca 4FA292EC 		.ascii	"O\242\222\354I\007\224\204\320\3579\301V\235`\225@\271"
 397      49079484 
 397      D0EF39C1 
 397      569D6095 
 397      40B9
 398 05dc D316136F 		.ascii	"\323\026\023o\213\261'\231\022c\342\354\233V\011X\375"
 398      8BB12799 
 398      1263E2EC 
 398      9B560958 
 398      FD
 399 05ed 8B9F3E16 		.ascii	"\213\237>\026\026\027\2717V\371@\200D\330Q\330_\037"
 399      1617B937 
 399      56F94080 
ARM GAS  C:\Users\info\AppData\Local\Temp\cc2MOP3A.s 			page 30


 399      44D851D8 
 399      5F1F
 400 05ff D8129340 		.ascii	"\330\022\223@\000\276K\354\366H\233\335\337\255\027"
 400      00BE4BEC 
 400      F6489BDD 
 400      DFAD17
 401 060e F6A395F7 		.ascii	"\366\243\225\367\343\017\254\304\202lQ\366E&\306\332"
 401      E30FACC4 
 401      826C51F6 
 401      4526C6DA 
 402 061e B745C645 		.ascii	"\267E\306E\307*\266\000\321\232\022\027\035\023\267"
 402      C72AB600 
 402      D19A1217 
 402      1D13B7
 403 062d 7FB53EB4 		.ascii	"\177\265>\2649V\211\264\261A\243M\331\277\311L<o\334"
 403      395689B4 
 403      B141A34D 
 403      D9BFC94C 
 403      3C6FDC
 404 0640 60C2F78D 		.ascii	"`\302\367\215\033\376\007>\261\240\230"
 404      1BFE073E 
 404      B1A098
 405              		.text
 406              		.section	.gnu.lto_.symtab.792a7831,"",%progbits
 407 0000 4E45574C 		.ascii	"NEWLINE_Interrupt\000"
 407      494E455F 
 407      496E7465 
 407      72727570 
 407      7400
 408 0012 00       		.ascii	"\000"
 409 0013 00       		.ascii	"\000"
 410 0014 00       		.ascii	"\000"
 411 0015 00000000 		.ascii	"\000\000\000\000\000\000\000\000"
 411      00000000 
 412 001d AD000000 		.ascii	"\255\000\000\000"
 413 0021 4E45574C 		.ascii	"NEWLINE_SetVector\000"
 413      494E455F 
 413      53657456 
 413      6563746F 
 413      7200
 414 0033 00       		.ascii	"\000"
 415 0034 00       		.ascii	"\000"
 416 0035 00       		.ascii	"\000"
 417 0036 00000000 		.ascii	"\000\000\000\000\000\000\000\000"
 417      00000000 
 418 003e B5000000 		.ascii	"\265\000\000\000"
 419 0042 4E45574C 		.ascii	"NEWLINE_GetVector\000"
 419      494E455F 
 419      47657456 
 419      6563746F 
 419      7200
 420 0054 00       		.ascii	"\000"
 421 0055 00       		.ascii	"\000"
 422 0056 00       		.ascii	"\000"
 423 0057 00000000 		.ascii	"\000\000\000\000\000\000\000\000"
 423      00000000 
 424 005f B8000000 		.ascii	"\270\000\000\000"
ARM GAS  C:\Users\info\AppData\Local\Temp\cc2MOP3A.s 			page 31


 425 0063 4E45574C 		.ascii	"NEWLINE_SetPriority\000"
 425      494E455F 
 425      53657450 
 425      72696F72 
 425      69747900 
 426 0077 00       		.ascii	"\000"
 427 0078 00       		.ascii	"\000"
 428 0079 00       		.ascii	"\000"
 429 007a 00000000 		.ascii	"\000\000\000\000\000\000\000\000"
 429      00000000 
 430 0082 C1000000 		.ascii	"\301\000\000\000"
 431 0086 4E45574C 		.ascii	"NEWLINE_GetPriority\000"
 431      494E455F 
 431      47657450 
 431      72696F72 
 431      69747900 
 432 009a 00       		.ascii	"\000"
 433 009b 00       		.ascii	"\000"
 434 009c 00       		.ascii	"\000"
 435 009d 00000000 		.ascii	"\000\000\000\000\000\000\000\000"
 435      00000000 
 436 00a5 C4000000 		.ascii	"\304\000\000\000"
 437 00a9 4E45574C 		.ascii	"NEWLINE_Enable\000"
 437      494E455F 
 437      456E6162 
 437      6C6500
 438 00b8 00       		.ascii	"\000"
 439 00b9 00       		.ascii	"\000"
 440 00ba 00       		.ascii	"\000"
 441 00bb 00000000 		.ascii	"\000\000\000\000\000\000\000\000"
 441      00000000 
 442 00c3 C6000000 		.ascii	"\306\000\000\000"
 443 00c7 4E45574C 		.ascii	"NEWLINE_GetState\000"
 443      494E455F 
 443      47657453 
 443      74617465 
 443      00
 444 00d8 00       		.ascii	"\000"
 445 00d9 00       		.ascii	"\000"
 446 00da 00       		.ascii	"\000"
 447 00db 00000000 		.ascii	"\000\000\000\000\000\000\000\000"
 447      00000000 
 448 00e3 C8000000 		.ascii	"\310\000\000\000"
 449 00e7 4E45574C 		.ascii	"NEWLINE_Disable\000"
 449      494E455F 
 449      44697361 
 449      626C6500 
 450 00f7 00       		.ascii	"\000"
 451 00f8 00       		.ascii	"\000"
 452 00f9 00       		.ascii	"\000"
 453 00fa 00000000 		.ascii	"\000\000\000\000\000\000\000\000"
 453      00000000 
 454 0102 CA000000 		.ascii	"\312\000\000\000"
 455 0106 4E45574C 		.ascii	"NEWLINE_Start\000"
 455      494E455F 
 455      53746172 
 455      7400
ARM GAS  C:\Users\info\AppData\Local\Temp\cc2MOP3A.s 			page 32


 456 0114 00       		.ascii	"\000"
 457 0115 00       		.ascii	"\000"
 458 0116 00       		.ascii	"\000"
 459 0117 00000000 		.ascii	"\000\000\000\000\000\000\000\000"
 459      00000000 
 460 011f CC000000 		.ascii	"\314\000\000\000"
 461 0123 4E45574C 		.ascii	"NEWLINE_StartEx\000"
 461      494E455F 
 461      53746172 
 461      74457800 
 462 0133 00       		.ascii	"\000"
 463 0134 00       		.ascii	"\000"
 464 0135 00       		.ascii	"\000"
 465 0136 00000000 		.ascii	"\000\000\000\000\000\000\000\000"
 465      00000000 
 466 013e CE000000 		.ascii	"\316\000\000\000"
 467 0142 4E45574C 		.ascii	"NEWLINE_Stop\000"
 467      494E455F 
 467      53746F70 
 467      00
 468 014f 00       		.ascii	"\000"
 469 0150 00       		.ascii	"\000"
 470 0151 00       		.ascii	"\000"
 471 0152 00000000 		.ascii	"\000\000\000\000\000\000\000\000"
 471      00000000 
 472 015a D0000000 		.ascii	"\320\000\000\000"
 473 015e 4E45574C 		.ascii	"NEWLINE_SetPending\000"
 473      494E455F 
 473      53657450 
 473      656E6469 
 473      6E6700
 474 0171 00       		.ascii	"\000"
 475 0172 00       		.ascii	"\000"
 476 0173 00       		.ascii	"\000"
 477 0174 00000000 		.ascii	"\000\000\000\000\000\000\000\000"
 477      00000000 
 478 017c D4000000 		.ascii	"\324\000\000\000"
 479 0180 4E45574C 		.ascii	"NEWLINE_ClearPending\000"
 479      494E455F 
 479      436C6561 
 479      7250656E 
 479      64696E67 
 480 0195 00       		.ascii	"\000"
 481 0196 00       		.ascii	"\000"
 482 0197 00       		.ascii	"\000"
 483 0198 00000000 		.ascii	"\000\000\000\000\000\000\000\000"
 483      00000000 
 484 01a0 D6000000 		.ascii	"\326\000\000\000"
 485 01a4 496E7444 		.ascii	"IntDefaultHandler\000"
 485      65666175 
 485      6C744861 
 485      6E646C65 
 485      7200
 486 01b6 00       		.ascii	"\000"
 487 01b7 02       		.ascii	"\002"
 488 01b8 00       		.ascii	"\000"
 489 01b9 00000000 		.ascii	"\000\000\000\000\000\000\000\000"
ARM GAS  C:\Users\info\AppData\Local\Temp\cc2MOP3A.s 			page 33


 489      00000000 
 490 01c1 D2000000 		.ascii	"\322\000\000\000"
 491              		.text
 492              		.section	.gnu.lto_.opts,"",%progbits
 493 0000 272D666D 		.ascii	"'-fmath-errno' '-fsigned-zeros' '-ftrapping-math' '"
 493      6174682D 
 493      6572726E 
 493      6F272027 
 493      2D667369 
 494 0033 2D666E6F 		.ascii	"-fno-trapv' '-fno-strict-overflow' '-fno-openmp' '-"
 494      2D747261 
 494      70762720 
 494      272D666E 
 494      6F2D7374 
 495 0066 666E6F2D 		.ascii	"fno-openacc' '-mcpu=cortex-m3' '-mthumb' '-g' '-Og'"
 495      6F70656E 
 495      61636327 
 495      20272D6D 
 495      6370753D 
 496 0099 20272D66 		.ascii	" '-ffunction-sections' '-ffat-lto-objects' '-flto'\000"
 496      66756E63 
 496      74696F6E 
 496      2D736563 
 496      74696F6E 
 497              		.text
 498              		.cfi_sections	.debug_frame
 499              		.section	.text.NEWLINE_Interrupt,"ax",%progbits
 500              		.align	2
 501              		.global	NEWLINE_Interrupt
 502              		.thumb
 503              		.thumb_func
 504              		.type	NEWLINE_Interrupt, %function
 505              	NEWLINE_Interrupt:
 506              	.LFB3:
 507              		.file 1 "Generated_Source\\PSoC5\\NEWLINE.c"
   1:Generated_Source\PSoC5/NEWLINE.c **** /*******************************************************************************
   2:Generated_Source\PSoC5/NEWLINE.c **** * File Name: NEWLINE.c  
   3:Generated_Source\PSoC5/NEWLINE.c **** * Version 1.70
   4:Generated_Source\PSoC5/NEWLINE.c **** *
   5:Generated_Source\PSoC5/NEWLINE.c **** *  Description:
   6:Generated_Source\PSoC5/NEWLINE.c **** *   API for controlling the state of an interrupt.
   7:Generated_Source\PSoC5/NEWLINE.c **** *
   8:Generated_Source\PSoC5/NEWLINE.c **** *
   9:Generated_Source\PSoC5/NEWLINE.c **** *  Note:
  10:Generated_Source\PSoC5/NEWLINE.c **** *
  11:Generated_Source\PSoC5/NEWLINE.c **** ********************************************************************************
  12:Generated_Source\PSoC5/NEWLINE.c **** * Copyright 2008-2015, Cypress Semiconductor Corporation.  All rights reserved.
  13:Generated_Source\PSoC5/NEWLINE.c **** * You may use this file only in accordance with the license, terms, conditions, 
  14:Generated_Source\PSoC5/NEWLINE.c **** * disclaimers, and limitations in the end user license agreement accompanying 
  15:Generated_Source\PSoC5/NEWLINE.c **** * the software package with which this file was provided.
  16:Generated_Source\PSoC5/NEWLINE.c **** *******************************************************************************/
  17:Generated_Source\PSoC5/NEWLINE.c **** 
  18:Generated_Source\PSoC5/NEWLINE.c **** 
  19:Generated_Source\PSoC5/NEWLINE.c **** #include <cydevice_trm.h>
  20:Generated_Source\PSoC5/NEWLINE.c **** #include <CyLib.h>
  21:Generated_Source\PSoC5/NEWLINE.c **** #include <NEWLINE.h>
  22:Generated_Source\PSoC5/NEWLINE.c **** #include "cyapicallbacks.h"
ARM GAS  C:\Users\info\AppData\Local\Temp\cc2MOP3A.s 			page 34


  23:Generated_Source\PSoC5/NEWLINE.c **** 
  24:Generated_Source\PSoC5/NEWLINE.c **** #if !defined(NEWLINE__REMOVED) /* Check for removal by optimization */
  25:Generated_Source\PSoC5/NEWLINE.c **** 
  26:Generated_Source\PSoC5/NEWLINE.c **** /*******************************************************************************
  27:Generated_Source\PSoC5/NEWLINE.c **** *  Place your includes, defines and code here 
  28:Generated_Source\PSoC5/NEWLINE.c **** ********************************************************************************/
  29:Generated_Source\PSoC5/NEWLINE.c **** /* `#START NEWLINE_intc` */
  30:Generated_Source\PSoC5/NEWLINE.c **** 
  31:Generated_Source\PSoC5/NEWLINE.c **** /* `#END` */
  32:Generated_Source\PSoC5/NEWLINE.c **** 
  33:Generated_Source\PSoC5/NEWLINE.c **** #ifndef CYINT_IRQ_BASE
  34:Generated_Source\PSoC5/NEWLINE.c **** #define CYINT_IRQ_BASE      16
  35:Generated_Source\PSoC5/NEWLINE.c **** #endif /* CYINT_IRQ_BASE */
  36:Generated_Source\PSoC5/NEWLINE.c **** #ifndef CYINT_VECT_TABLE
  37:Generated_Source\PSoC5/NEWLINE.c **** #define CYINT_VECT_TABLE    ((cyisraddress **) CYREG_NVIC_VECT_OFFSET)
  38:Generated_Source\PSoC5/NEWLINE.c **** #endif /* CYINT_VECT_TABLE */
  39:Generated_Source\PSoC5/NEWLINE.c **** 
  40:Generated_Source\PSoC5/NEWLINE.c **** /* Declared in startup, used to set unused interrupts to. */
  41:Generated_Source\PSoC5/NEWLINE.c **** CY_ISR_PROTO(IntDefaultHandler);
  42:Generated_Source\PSoC5/NEWLINE.c **** 
  43:Generated_Source\PSoC5/NEWLINE.c **** 
  44:Generated_Source\PSoC5/NEWLINE.c **** /*******************************************************************************
  45:Generated_Source\PSoC5/NEWLINE.c **** * Function Name: NEWLINE_Start
  46:Generated_Source\PSoC5/NEWLINE.c **** ********************************************************************************
  47:Generated_Source\PSoC5/NEWLINE.c **** *
  48:Generated_Source\PSoC5/NEWLINE.c **** * Summary:
  49:Generated_Source\PSoC5/NEWLINE.c **** *  Set up the interrupt and enable it. This function disables the interrupt, 
  50:Generated_Source\PSoC5/NEWLINE.c **** *  sets the default interrupt vector, sets the priority from the value in the
  51:Generated_Source\PSoC5/NEWLINE.c **** *  Design Wide Resources Interrupt Editor, then enables the interrupt to the 
  52:Generated_Source\PSoC5/NEWLINE.c **** *  interrupt controller.
  53:Generated_Source\PSoC5/NEWLINE.c **** *
  54:Generated_Source\PSoC5/NEWLINE.c **** * Parameters:  
  55:Generated_Source\PSoC5/NEWLINE.c **** *   None
  56:Generated_Source\PSoC5/NEWLINE.c **** *
  57:Generated_Source\PSoC5/NEWLINE.c **** * Return:
  58:Generated_Source\PSoC5/NEWLINE.c **** *   None
  59:Generated_Source\PSoC5/NEWLINE.c **** *
  60:Generated_Source\PSoC5/NEWLINE.c **** *******************************************************************************/
  61:Generated_Source\PSoC5/NEWLINE.c **** void NEWLINE_Start(void)
  62:Generated_Source\PSoC5/NEWLINE.c **** {
  63:Generated_Source\PSoC5/NEWLINE.c ****     /* For all we know the interrupt is active. */
  64:Generated_Source\PSoC5/NEWLINE.c ****     NEWLINE_Disable();
  65:Generated_Source\PSoC5/NEWLINE.c **** 
  66:Generated_Source\PSoC5/NEWLINE.c ****     /* Set the ISR to point to the NEWLINE Interrupt. */
  67:Generated_Source\PSoC5/NEWLINE.c ****     NEWLINE_SetVector(&NEWLINE_Interrupt);
  68:Generated_Source\PSoC5/NEWLINE.c **** 
  69:Generated_Source\PSoC5/NEWLINE.c ****     /* Set the priority. */
  70:Generated_Source\PSoC5/NEWLINE.c ****     NEWLINE_SetPriority((uint8)NEWLINE_INTC_PRIOR_NUMBER);
  71:Generated_Source\PSoC5/NEWLINE.c **** 
  72:Generated_Source\PSoC5/NEWLINE.c ****     /* Enable it. */
  73:Generated_Source\PSoC5/NEWLINE.c ****     NEWLINE_Enable();
  74:Generated_Source\PSoC5/NEWLINE.c **** }
  75:Generated_Source\PSoC5/NEWLINE.c **** 
  76:Generated_Source\PSoC5/NEWLINE.c **** 
  77:Generated_Source\PSoC5/NEWLINE.c **** /*******************************************************************************
  78:Generated_Source\PSoC5/NEWLINE.c **** * Function Name: NEWLINE_StartEx
  79:Generated_Source\PSoC5/NEWLINE.c **** ********************************************************************************
ARM GAS  C:\Users\info\AppData\Local\Temp\cc2MOP3A.s 			page 35


  80:Generated_Source\PSoC5/NEWLINE.c **** *
  81:Generated_Source\PSoC5/NEWLINE.c **** * Summary:
  82:Generated_Source\PSoC5/NEWLINE.c **** *  Sets up the interrupt and enables it. This function disables the interrupt,
  83:Generated_Source\PSoC5/NEWLINE.c **** *  sets the interrupt vector based on the address passed in, sets the priority 
  84:Generated_Source\PSoC5/NEWLINE.c **** *  from the value in the Design Wide Resources Interrupt Editor, then enables 
  85:Generated_Source\PSoC5/NEWLINE.c **** *  the interrupt to the interrupt controller.
  86:Generated_Source\PSoC5/NEWLINE.c **** *  
  87:Generated_Source\PSoC5/NEWLINE.c **** *  When defining ISR functions, the CY_ISR and CY_ISR_PROTO macros should be 
  88:Generated_Source\PSoC5/NEWLINE.c **** *  used to provide consistent definition across compilers:
  89:Generated_Source\PSoC5/NEWLINE.c **** *  
  90:Generated_Source\PSoC5/NEWLINE.c **** *  Function definition example:
  91:Generated_Source\PSoC5/NEWLINE.c **** *   CY_ISR(MyISR)
  92:Generated_Source\PSoC5/NEWLINE.c **** *   {
  93:Generated_Source\PSoC5/NEWLINE.c **** *   }
  94:Generated_Source\PSoC5/NEWLINE.c **** *   Function prototype example:
  95:Generated_Source\PSoC5/NEWLINE.c **** *   CY_ISR_PROTO(MyISR);
  96:Generated_Source\PSoC5/NEWLINE.c **** *
  97:Generated_Source\PSoC5/NEWLINE.c **** * Parameters:  
  98:Generated_Source\PSoC5/NEWLINE.c **** *   address: Address of the ISR to set in the interrupt vector table.
  99:Generated_Source\PSoC5/NEWLINE.c **** *
 100:Generated_Source\PSoC5/NEWLINE.c **** * Return:
 101:Generated_Source\PSoC5/NEWLINE.c **** *   None
 102:Generated_Source\PSoC5/NEWLINE.c **** *
 103:Generated_Source\PSoC5/NEWLINE.c **** *******************************************************************************/
 104:Generated_Source\PSoC5/NEWLINE.c **** void NEWLINE_StartEx(cyisraddress address)
 105:Generated_Source\PSoC5/NEWLINE.c **** {
 106:Generated_Source\PSoC5/NEWLINE.c ****     /* For all we know the interrupt is active. */
 107:Generated_Source\PSoC5/NEWLINE.c ****     NEWLINE_Disable();
 108:Generated_Source\PSoC5/NEWLINE.c **** 
 109:Generated_Source\PSoC5/NEWLINE.c ****     /* Set the ISR to point to the NEWLINE Interrupt. */
 110:Generated_Source\PSoC5/NEWLINE.c ****     NEWLINE_SetVector(address);
 111:Generated_Source\PSoC5/NEWLINE.c **** 
 112:Generated_Source\PSoC5/NEWLINE.c ****     /* Set the priority. */
 113:Generated_Source\PSoC5/NEWLINE.c ****     NEWLINE_SetPriority((uint8)NEWLINE_INTC_PRIOR_NUMBER);
 114:Generated_Source\PSoC5/NEWLINE.c **** 
 115:Generated_Source\PSoC5/NEWLINE.c ****     /* Enable it. */
 116:Generated_Source\PSoC5/NEWLINE.c ****     NEWLINE_Enable();
 117:Generated_Source\PSoC5/NEWLINE.c **** }
 118:Generated_Source\PSoC5/NEWLINE.c **** 
 119:Generated_Source\PSoC5/NEWLINE.c **** 
 120:Generated_Source\PSoC5/NEWLINE.c **** /*******************************************************************************
 121:Generated_Source\PSoC5/NEWLINE.c **** * Function Name: NEWLINE_Stop
 122:Generated_Source\PSoC5/NEWLINE.c **** ********************************************************************************
 123:Generated_Source\PSoC5/NEWLINE.c **** *
 124:Generated_Source\PSoC5/NEWLINE.c **** * Summary:
 125:Generated_Source\PSoC5/NEWLINE.c **** *   Disables and removes the interrupt.
 126:Generated_Source\PSoC5/NEWLINE.c **** *
 127:Generated_Source\PSoC5/NEWLINE.c **** * Parameters:  
 128:Generated_Source\PSoC5/NEWLINE.c **** *   None
 129:Generated_Source\PSoC5/NEWLINE.c **** *
 130:Generated_Source\PSoC5/NEWLINE.c **** * Return:
 131:Generated_Source\PSoC5/NEWLINE.c **** *   None
 132:Generated_Source\PSoC5/NEWLINE.c **** *
 133:Generated_Source\PSoC5/NEWLINE.c **** *******************************************************************************/
 134:Generated_Source\PSoC5/NEWLINE.c **** void NEWLINE_Stop(void)
 135:Generated_Source\PSoC5/NEWLINE.c **** {
 136:Generated_Source\PSoC5/NEWLINE.c ****     /* Disable this interrupt. */
ARM GAS  C:\Users\info\AppData\Local\Temp\cc2MOP3A.s 			page 36


 137:Generated_Source\PSoC5/NEWLINE.c ****     NEWLINE_Disable();
 138:Generated_Source\PSoC5/NEWLINE.c **** 
 139:Generated_Source\PSoC5/NEWLINE.c ****     /* Set the ISR to point to the passive one. */
 140:Generated_Source\PSoC5/NEWLINE.c ****     NEWLINE_SetVector(&IntDefaultHandler);
 141:Generated_Source\PSoC5/NEWLINE.c **** }
 142:Generated_Source\PSoC5/NEWLINE.c **** 
 143:Generated_Source\PSoC5/NEWLINE.c **** 
 144:Generated_Source\PSoC5/NEWLINE.c **** /*******************************************************************************
 145:Generated_Source\PSoC5/NEWLINE.c **** * Function Name: NEWLINE_Interrupt
 146:Generated_Source\PSoC5/NEWLINE.c **** ********************************************************************************
 147:Generated_Source\PSoC5/NEWLINE.c **** *
 148:Generated_Source\PSoC5/NEWLINE.c **** * Summary:
 149:Generated_Source\PSoC5/NEWLINE.c **** *   The default Interrupt Service Routine for NEWLINE.
 150:Generated_Source\PSoC5/NEWLINE.c **** *
 151:Generated_Source\PSoC5/NEWLINE.c **** *   Add custom code between the coments to keep the next version of this file
 152:Generated_Source\PSoC5/NEWLINE.c **** *   from over writting your code.
 153:Generated_Source\PSoC5/NEWLINE.c **** *
 154:Generated_Source\PSoC5/NEWLINE.c **** * Parameters:  
 155:Generated_Source\PSoC5/NEWLINE.c **** *
 156:Generated_Source\PSoC5/NEWLINE.c **** * Return:
 157:Generated_Source\PSoC5/NEWLINE.c **** *   None
 158:Generated_Source\PSoC5/NEWLINE.c **** *
 159:Generated_Source\PSoC5/NEWLINE.c **** *******************************************************************************/
 160:Generated_Source\PSoC5/NEWLINE.c **** CY_ISR(NEWLINE_Interrupt)
 161:Generated_Source\PSoC5/NEWLINE.c **** {
 508              		.loc 1 161 0
 509              		.cfi_startproc
 510              		@ args = 0, pretend = 0, frame = 0
 511              		@ frame_needed = 0, uses_anonymous_args = 0
 512              		@ link register save eliminated.
 513 0000 7047     		bx	lr
 514              		.cfi_endproc
 515              	.LFE3:
 516              		.size	NEWLINE_Interrupt, .-NEWLINE_Interrupt
 517 0002 00BF     		.section	.text.NEWLINE_SetVector,"ax",%progbits
 518              		.align	2
 519              		.global	NEWLINE_SetVector
 520              		.thumb
 521              		.thumb_func
 522              		.type	NEWLINE_SetVector, %function
 523              	NEWLINE_SetVector:
 524              	.LFB4:
 162:Generated_Source\PSoC5/NEWLINE.c ****     #ifdef NEWLINE_INTERRUPT_INTERRUPT_CALLBACK
 163:Generated_Source\PSoC5/NEWLINE.c ****         NEWLINE_Interrupt_InterruptCallback();
 164:Generated_Source\PSoC5/NEWLINE.c ****     #endif /* NEWLINE_INTERRUPT_INTERRUPT_CALLBACK */ 
 165:Generated_Source\PSoC5/NEWLINE.c **** 
 166:Generated_Source\PSoC5/NEWLINE.c ****     /*  Place your Interrupt code here. */
 167:Generated_Source\PSoC5/NEWLINE.c ****     /* `#START NEWLINE_Interrupt` */
 168:Generated_Source\PSoC5/NEWLINE.c **** 
 169:Generated_Source\PSoC5/NEWLINE.c ****     /* `#END` */
 170:Generated_Source\PSoC5/NEWLINE.c **** }
 171:Generated_Source\PSoC5/NEWLINE.c **** 
 172:Generated_Source\PSoC5/NEWLINE.c **** 
 173:Generated_Source\PSoC5/NEWLINE.c **** /*******************************************************************************
 174:Generated_Source\PSoC5/NEWLINE.c **** * Function Name: NEWLINE_SetVector
 175:Generated_Source\PSoC5/NEWLINE.c **** ********************************************************************************
 176:Generated_Source\PSoC5/NEWLINE.c **** *
ARM GAS  C:\Users\info\AppData\Local\Temp\cc2MOP3A.s 			page 37


 177:Generated_Source\PSoC5/NEWLINE.c **** * Summary:
 178:Generated_Source\PSoC5/NEWLINE.c **** *   Change the ISR vector for the Interrupt. Note calling NEWLINE_Start
 179:Generated_Source\PSoC5/NEWLINE.c **** *   will override any effect this method would have had. To set the vector 
 180:Generated_Source\PSoC5/NEWLINE.c **** *   before the component has been started use NEWLINE_StartEx instead.
 181:Generated_Source\PSoC5/NEWLINE.c **** * 
 182:Generated_Source\PSoC5/NEWLINE.c **** *   When defining ISR functions, the CY_ISR and CY_ISR_PROTO macros should be 
 183:Generated_Source\PSoC5/NEWLINE.c **** *   used to provide consistent definition across compilers:
 184:Generated_Source\PSoC5/NEWLINE.c **** *
 185:Generated_Source\PSoC5/NEWLINE.c **** *   Function definition example:
 186:Generated_Source\PSoC5/NEWLINE.c **** *   CY_ISR(MyISR)
 187:Generated_Source\PSoC5/NEWLINE.c **** *   {
 188:Generated_Source\PSoC5/NEWLINE.c **** *   }
 189:Generated_Source\PSoC5/NEWLINE.c **** *
 190:Generated_Source\PSoC5/NEWLINE.c **** *   Function prototype example:
 191:Generated_Source\PSoC5/NEWLINE.c **** *     CY_ISR_PROTO(MyISR);
 192:Generated_Source\PSoC5/NEWLINE.c **** *
 193:Generated_Source\PSoC5/NEWLINE.c **** * Parameters:
 194:Generated_Source\PSoC5/NEWLINE.c **** *   address: Address of the ISR to set in the interrupt vector table.
 195:Generated_Source\PSoC5/NEWLINE.c **** *
 196:Generated_Source\PSoC5/NEWLINE.c **** * Return:
 197:Generated_Source\PSoC5/NEWLINE.c **** *   None
 198:Generated_Source\PSoC5/NEWLINE.c **** *
 199:Generated_Source\PSoC5/NEWLINE.c **** *******************************************************************************/
 200:Generated_Source\PSoC5/NEWLINE.c **** void NEWLINE_SetVector(cyisraddress address)
 201:Generated_Source\PSoC5/NEWLINE.c **** {
 525              		.loc 1 201 0
 526              		.cfi_startproc
 527              		@ args = 0, pretend = 0, frame = 0
 528              		@ frame_needed = 0, uses_anonymous_args = 0
 529              		@ link register save eliminated.
 530              	.LVL0:
 202:Generated_Source\PSoC5/NEWLINE.c ****     cyisraddress * ramVectorTable;
 203:Generated_Source\PSoC5/NEWLINE.c **** 
 204:Generated_Source\PSoC5/NEWLINE.c ****     ramVectorTable = (cyisraddress *) *CYINT_VECT_TABLE;
 531              		.loc 1 204 0
 532 0000 014B     		ldr	r3, .L3
 533 0002 1B68     		ldr	r3, [r3]
 534              	.LVL1:
 205:Generated_Source\PSoC5/NEWLINE.c **** 
 206:Generated_Source\PSoC5/NEWLINE.c ****     ramVectorTable[CYINT_IRQ_BASE + (uint32)NEWLINE__INTC_NUMBER] = address;
 535              		.loc 1 206 0
 536 0004 1864     		str	r0, [r3, #64]
 537 0006 7047     		bx	lr
 538              	.L4:
 539              		.align	2
 540              	.L3:
 541 0008 08ED00E0 		.word	-536810232
 542              		.cfi_endproc
 543              	.LFE4:
 544              		.size	NEWLINE_SetVector, .-NEWLINE_SetVector
 545              		.section	.text.NEWLINE_GetVector,"ax",%progbits
 546              		.align	2
 547              		.global	NEWLINE_GetVector
 548              		.thumb
 549              		.thumb_func
 550              		.type	NEWLINE_GetVector, %function
 551              	NEWLINE_GetVector:
ARM GAS  C:\Users\info\AppData\Local\Temp\cc2MOP3A.s 			page 38


 552              	.LFB5:
 207:Generated_Source\PSoC5/NEWLINE.c **** }
 208:Generated_Source\PSoC5/NEWLINE.c **** 
 209:Generated_Source\PSoC5/NEWLINE.c **** 
 210:Generated_Source\PSoC5/NEWLINE.c **** /*******************************************************************************
 211:Generated_Source\PSoC5/NEWLINE.c **** * Function Name: NEWLINE_GetVector
 212:Generated_Source\PSoC5/NEWLINE.c **** ********************************************************************************
 213:Generated_Source\PSoC5/NEWLINE.c **** *
 214:Generated_Source\PSoC5/NEWLINE.c **** * Summary:
 215:Generated_Source\PSoC5/NEWLINE.c **** *   Gets the "address" of the current ISR vector for the Interrupt.
 216:Generated_Source\PSoC5/NEWLINE.c **** *
 217:Generated_Source\PSoC5/NEWLINE.c **** * Parameters:
 218:Generated_Source\PSoC5/NEWLINE.c **** *   None
 219:Generated_Source\PSoC5/NEWLINE.c **** *
 220:Generated_Source\PSoC5/NEWLINE.c **** * Return:
 221:Generated_Source\PSoC5/NEWLINE.c **** *   Address of the ISR in the interrupt vector table.
 222:Generated_Source\PSoC5/NEWLINE.c **** *
 223:Generated_Source\PSoC5/NEWLINE.c **** *******************************************************************************/
 224:Generated_Source\PSoC5/NEWLINE.c **** cyisraddress NEWLINE_GetVector(void)
 225:Generated_Source\PSoC5/NEWLINE.c **** {
 553              		.loc 1 225 0
 554              		.cfi_startproc
 555              		@ args = 0, pretend = 0, frame = 0
 556              		@ frame_needed = 0, uses_anonymous_args = 0
 557              		@ link register save eliminated.
 226:Generated_Source\PSoC5/NEWLINE.c ****     cyisraddress * ramVectorTable;
 227:Generated_Source\PSoC5/NEWLINE.c **** 
 228:Generated_Source\PSoC5/NEWLINE.c ****     ramVectorTable = (cyisraddress *) *CYINT_VECT_TABLE;
 558              		.loc 1 228 0
 559 0000 014B     		ldr	r3, .L6
 560 0002 1B68     		ldr	r3, [r3]
 561              	.LVL2:
 229:Generated_Source\PSoC5/NEWLINE.c **** 
 230:Generated_Source\PSoC5/NEWLINE.c ****     return ramVectorTable[CYINT_IRQ_BASE + (uint32)NEWLINE__INTC_NUMBER];
 231:Generated_Source\PSoC5/NEWLINE.c **** }
 562              		.loc 1 231 0
 563 0004 186C     		ldr	r0, [r3, #64]
 564 0006 7047     		bx	lr
 565              	.L7:
 566              		.align	2
 567              	.L6:
 568 0008 08ED00E0 		.word	-536810232
 569              		.cfi_endproc
 570              	.LFE5:
 571              		.size	NEWLINE_GetVector, .-NEWLINE_GetVector
 572              		.section	.text.NEWLINE_SetPriority,"ax",%progbits
 573              		.align	2
 574              		.global	NEWLINE_SetPriority
 575              		.thumb
 576              		.thumb_func
 577              		.type	NEWLINE_SetPriority, %function
 578              	NEWLINE_SetPriority:
 579              	.LFB6:
 232:Generated_Source\PSoC5/NEWLINE.c **** 
 233:Generated_Source\PSoC5/NEWLINE.c **** 
 234:Generated_Source\PSoC5/NEWLINE.c **** /*******************************************************************************
 235:Generated_Source\PSoC5/NEWLINE.c **** * Function Name: NEWLINE_SetPriority
ARM GAS  C:\Users\info\AppData\Local\Temp\cc2MOP3A.s 			page 39


 236:Generated_Source\PSoC5/NEWLINE.c **** ********************************************************************************
 237:Generated_Source\PSoC5/NEWLINE.c **** *
 238:Generated_Source\PSoC5/NEWLINE.c **** * Summary:
 239:Generated_Source\PSoC5/NEWLINE.c **** *   Sets the Priority of the Interrupt. 
 240:Generated_Source\PSoC5/NEWLINE.c **** *
 241:Generated_Source\PSoC5/NEWLINE.c **** *   Note calling NEWLINE_Start or NEWLINE_StartEx will 
 242:Generated_Source\PSoC5/NEWLINE.c **** *   override any effect this API would have had. This API should only be called
 243:Generated_Source\PSoC5/NEWLINE.c **** *   after NEWLINE_Start or NEWLINE_StartEx has been called. 
 244:Generated_Source\PSoC5/NEWLINE.c **** *   To set the initial priority for the component, use the Design-Wide Resources
 245:Generated_Source\PSoC5/NEWLINE.c **** *   Interrupt Editor.
 246:Generated_Source\PSoC5/NEWLINE.c **** *
 247:Generated_Source\PSoC5/NEWLINE.c **** *   Note This API has no effect on Non-maskable interrupt NMI).
 248:Generated_Source\PSoC5/NEWLINE.c **** *
 249:Generated_Source\PSoC5/NEWLINE.c **** * Parameters:
 250:Generated_Source\PSoC5/NEWLINE.c **** *   priority: Priority of the interrupt, 0 being the highest priority
 251:Generated_Source\PSoC5/NEWLINE.c **** *             PSoC 3 and PSoC 5LP: Priority is from 0 to 7.
 252:Generated_Source\PSoC5/NEWLINE.c **** *             PSoC 4: Priority is from 0 to 3.
 253:Generated_Source\PSoC5/NEWLINE.c **** *
 254:Generated_Source\PSoC5/NEWLINE.c **** * Return:
 255:Generated_Source\PSoC5/NEWLINE.c **** *   None
 256:Generated_Source\PSoC5/NEWLINE.c **** *
 257:Generated_Source\PSoC5/NEWLINE.c **** *******************************************************************************/
 258:Generated_Source\PSoC5/NEWLINE.c **** void NEWLINE_SetPriority(uint8 priority)
 259:Generated_Source\PSoC5/NEWLINE.c **** {
 580              		.loc 1 259 0
 581              		.cfi_startproc
 582              		@ args = 0, pretend = 0, frame = 0
 583              		@ frame_needed = 0, uses_anonymous_args = 0
 584              		@ link register save eliminated.
 585              	.LVL3:
 260:Generated_Source\PSoC5/NEWLINE.c ****     *NEWLINE_INTC_PRIOR = priority << 5;
 586              		.loc 1 260 0
 587 0000 4001     		lsls	r0, r0, #5
 588              	.LVL4:
 589 0002 C0B2     		uxtb	r0, r0
 590 0004 014B     		ldr	r3, .L9
 591 0006 1870     		strb	r0, [r3]
 592 0008 7047     		bx	lr
 593              	.L10:
 594 000a 00BF     		.align	2
 595              	.L9:
 596 000c 00E400E0 		.word	-536812544
 597              		.cfi_endproc
 598              	.LFE6:
 599              		.size	NEWLINE_SetPriority, .-NEWLINE_SetPriority
 600              		.section	.text.NEWLINE_GetPriority,"ax",%progbits
 601              		.align	2
 602              		.global	NEWLINE_GetPriority
 603              		.thumb
 604              		.thumb_func
 605              		.type	NEWLINE_GetPriority, %function
 606              	NEWLINE_GetPriority:
 607              	.LFB7:
 261:Generated_Source\PSoC5/NEWLINE.c **** }
 262:Generated_Source\PSoC5/NEWLINE.c **** 
 263:Generated_Source\PSoC5/NEWLINE.c **** 
 264:Generated_Source\PSoC5/NEWLINE.c **** /*******************************************************************************
ARM GAS  C:\Users\info\AppData\Local\Temp\cc2MOP3A.s 			page 40


 265:Generated_Source\PSoC5/NEWLINE.c **** * Function Name: NEWLINE_GetPriority
 266:Generated_Source\PSoC5/NEWLINE.c **** ********************************************************************************
 267:Generated_Source\PSoC5/NEWLINE.c **** *
 268:Generated_Source\PSoC5/NEWLINE.c **** * Summary:
 269:Generated_Source\PSoC5/NEWLINE.c **** *   Gets the Priority of the Interrupt.
 270:Generated_Source\PSoC5/NEWLINE.c **** *
 271:Generated_Source\PSoC5/NEWLINE.c **** * Parameters:
 272:Generated_Source\PSoC5/NEWLINE.c **** *   None
 273:Generated_Source\PSoC5/NEWLINE.c **** *
 274:Generated_Source\PSoC5/NEWLINE.c **** * Return:
 275:Generated_Source\PSoC5/NEWLINE.c **** *   Priority of the interrupt, 0 being the highest priority
 276:Generated_Source\PSoC5/NEWLINE.c **** *    PSoC 3 and PSoC 5LP: Priority is from 0 to 7.
 277:Generated_Source\PSoC5/NEWLINE.c **** *    PSoC 4: Priority is from 0 to 3.
 278:Generated_Source\PSoC5/NEWLINE.c **** *
 279:Generated_Source\PSoC5/NEWLINE.c **** *******************************************************************************/
 280:Generated_Source\PSoC5/NEWLINE.c **** uint8 NEWLINE_GetPriority(void)
 281:Generated_Source\PSoC5/NEWLINE.c **** {
 608              		.loc 1 281 0
 609              		.cfi_startproc
 610              		@ args = 0, pretend = 0, frame = 0
 611              		@ frame_needed = 0, uses_anonymous_args = 0
 612              		@ link register save eliminated.
 282:Generated_Source\PSoC5/NEWLINE.c ****     uint8 priority;
 283:Generated_Source\PSoC5/NEWLINE.c **** 
 284:Generated_Source\PSoC5/NEWLINE.c **** 
 285:Generated_Source\PSoC5/NEWLINE.c ****     priority = *NEWLINE_INTC_PRIOR >> 5;
 613              		.loc 1 285 0
 614 0000 014B     		ldr	r3, .L12
 615 0002 1878     		ldrb	r0, [r3]	@ zero_extendqisi2
 616              	.LVL5:
 286:Generated_Source\PSoC5/NEWLINE.c **** 
 287:Generated_Source\PSoC5/NEWLINE.c ****     return priority;
 288:Generated_Source\PSoC5/NEWLINE.c **** }
 617              		.loc 1 288 0
 618 0004 4009     		lsrs	r0, r0, #5
 619              	.LVL6:
 620 0006 7047     		bx	lr
 621              	.L13:
 622              		.align	2
 623              	.L12:
 624 0008 00E400E0 		.word	-536812544
 625              		.cfi_endproc
 626              	.LFE7:
 627              		.size	NEWLINE_GetPriority, .-NEWLINE_GetPriority
 628              		.section	.text.NEWLINE_Enable,"ax",%progbits
 629              		.align	2
 630              		.global	NEWLINE_Enable
 631              		.thumb
 632              		.thumb_func
 633              		.type	NEWLINE_Enable, %function
 634              	NEWLINE_Enable:
 635              	.LFB8:
 289:Generated_Source\PSoC5/NEWLINE.c **** 
 290:Generated_Source\PSoC5/NEWLINE.c **** 
 291:Generated_Source\PSoC5/NEWLINE.c **** /*******************************************************************************
 292:Generated_Source\PSoC5/NEWLINE.c **** * Function Name: NEWLINE_Enable
 293:Generated_Source\PSoC5/NEWLINE.c **** ********************************************************************************
ARM GAS  C:\Users\info\AppData\Local\Temp\cc2MOP3A.s 			page 41


 294:Generated_Source\PSoC5/NEWLINE.c **** *
 295:Generated_Source\PSoC5/NEWLINE.c **** * Summary:
 296:Generated_Source\PSoC5/NEWLINE.c **** *   Enables the interrupt to the interrupt controller. Do not call this function
 297:Generated_Source\PSoC5/NEWLINE.c **** *   unless ISR_Start() has been called or the functionality of the ISR_Start() 
 298:Generated_Source\PSoC5/NEWLINE.c **** *   function, which sets the vector and the priority, has been called.
 299:Generated_Source\PSoC5/NEWLINE.c **** *
 300:Generated_Source\PSoC5/NEWLINE.c **** * Parameters:
 301:Generated_Source\PSoC5/NEWLINE.c **** *   None
 302:Generated_Source\PSoC5/NEWLINE.c **** *
 303:Generated_Source\PSoC5/NEWLINE.c **** * Return:
 304:Generated_Source\PSoC5/NEWLINE.c **** *   None
 305:Generated_Source\PSoC5/NEWLINE.c **** *
 306:Generated_Source\PSoC5/NEWLINE.c **** *******************************************************************************/
 307:Generated_Source\PSoC5/NEWLINE.c **** void NEWLINE_Enable(void)
 308:Generated_Source\PSoC5/NEWLINE.c **** {
 636              		.loc 1 308 0
 637              		.cfi_startproc
 638              		@ args = 0, pretend = 0, frame = 0
 639              		@ frame_needed = 0, uses_anonymous_args = 0
 640              		@ link register save eliminated.
 309:Generated_Source\PSoC5/NEWLINE.c ****     /* Enable the general interrupt. */
 310:Generated_Source\PSoC5/NEWLINE.c ****     *NEWLINE_INTC_SET_EN = NEWLINE__INTC_MASK;
 641              		.loc 1 310 0
 642 0000 0122     		movs	r2, #1
 643 0002 014B     		ldr	r3, .L15
 644 0004 1A60     		str	r2, [r3]
 645 0006 7047     		bx	lr
 646              	.L16:
 647              		.align	2
 648              	.L15:
 649 0008 00E100E0 		.word	-536813312
 650              		.cfi_endproc
 651              	.LFE8:
 652              		.size	NEWLINE_Enable, .-NEWLINE_Enable
 653              		.section	.text.NEWLINE_GetState,"ax",%progbits
 654              		.align	2
 655              		.global	NEWLINE_GetState
 656              		.thumb
 657              		.thumb_func
 658              		.type	NEWLINE_GetState, %function
 659              	NEWLINE_GetState:
 660              	.LFB9:
 311:Generated_Source\PSoC5/NEWLINE.c **** }
 312:Generated_Source\PSoC5/NEWLINE.c **** 
 313:Generated_Source\PSoC5/NEWLINE.c **** 
 314:Generated_Source\PSoC5/NEWLINE.c **** /*******************************************************************************
 315:Generated_Source\PSoC5/NEWLINE.c **** * Function Name: NEWLINE_GetState
 316:Generated_Source\PSoC5/NEWLINE.c **** ********************************************************************************
 317:Generated_Source\PSoC5/NEWLINE.c **** *
 318:Generated_Source\PSoC5/NEWLINE.c **** * Summary:
 319:Generated_Source\PSoC5/NEWLINE.c **** *   Gets the state (enabled, disabled) of the Interrupt.
 320:Generated_Source\PSoC5/NEWLINE.c **** *
 321:Generated_Source\PSoC5/NEWLINE.c **** * Parameters:
 322:Generated_Source\PSoC5/NEWLINE.c **** *   None
 323:Generated_Source\PSoC5/NEWLINE.c **** *
 324:Generated_Source\PSoC5/NEWLINE.c **** * Return:
 325:Generated_Source\PSoC5/NEWLINE.c **** *   1 if enabled, 0 if disabled.
ARM GAS  C:\Users\info\AppData\Local\Temp\cc2MOP3A.s 			page 42


 326:Generated_Source\PSoC5/NEWLINE.c **** *
 327:Generated_Source\PSoC5/NEWLINE.c **** *******************************************************************************/
 328:Generated_Source\PSoC5/NEWLINE.c **** uint8 NEWLINE_GetState(void)
 329:Generated_Source\PSoC5/NEWLINE.c **** {
 661              		.loc 1 329 0
 662              		.cfi_startproc
 663              		@ args = 0, pretend = 0, frame = 0
 664              		@ frame_needed = 0, uses_anonymous_args = 0
 665              		@ link register save eliminated.
 330:Generated_Source\PSoC5/NEWLINE.c ****     /* Get the state of the general interrupt. */
 331:Generated_Source\PSoC5/NEWLINE.c ****     return ((*NEWLINE_INTC_SET_EN & (uint32)NEWLINE__INTC_MASK) != 0u) ? 1u:0u;
 666              		.loc 1 331 0
 667 0000 024B     		ldr	r3, .L18
 668 0002 1868     		ldr	r0, [r3]
 332:Generated_Source\PSoC5/NEWLINE.c **** }
 669              		.loc 1 332 0
 670 0004 00F00100 		and	r0, r0, #1
 671 0008 7047     		bx	lr
 672              	.L19:
 673 000a 00BF     		.align	2
 674              	.L18:
 675 000c 00E100E0 		.word	-536813312
 676              		.cfi_endproc
 677              	.LFE9:
 678              		.size	NEWLINE_GetState, .-NEWLINE_GetState
 679              		.section	.text.NEWLINE_Disable,"ax",%progbits
 680              		.align	2
 681              		.global	NEWLINE_Disable
 682              		.thumb
 683              		.thumb_func
 684              		.type	NEWLINE_Disable, %function
 685              	NEWLINE_Disable:
 686              	.LFB10:
 333:Generated_Source\PSoC5/NEWLINE.c **** 
 334:Generated_Source\PSoC5/NEWLINE.c **** 
 335:Generated_Source\PSoC5/NEWLINE.c **** /*******************************************************************************
 336:Generated_Source\PSoC5/NEWLINE.c **** * Function Name: NEWLINE_Disable
 337:Generated_Source\PSoC5/NEWLINE.c **** ********************************************************************************
 338:Generated_Source\PSoC5/NEWLINE.c **** *
 339:Generated_Source\PSoC5/NEWLINE.c **** * Summary:
 340:Generated_Source\PSoC5/NEWLINE.c **** *   Disables the Interrupt in the interrupt controller.
 341:Generated_Source\PSoC5/NEWLINE.c **** *
 342:Generated_Source\PSoC5/NEWLINE.c **** * Parameters:
 343:Generated_Source\PSoC5/NEWLINE.c **** *   None
 344:Generated_Source\PSoC5/NEWLINE.c **** *
 345:Generated_Source\PSoC5/NEWLINE.c **** * Return:
 346:Generated_Source\PSoC5/NEWLINE.c **** *   None
 347:Generated_Source\PSoC5/NEWLINE.c **** *
 348:Generated_Source\PSoC5/NEWLINE.c **** *******************************************************************************/
 349:Generated_Source\PSoC5/NEWLINE.c **** void NEWLINE_Disable(void)
 350:Generated_Source\PSoC5/NEWLINE.c **** {
 687              		.loc 1 350 0
 688              		.cfi_startproc
 689              		@ args = 0, pretend = 0, frame = 0
 690              		@ frame_needed = 0, uses_anonymous_args = 0
 691              		@ link register save eliminated.
 351:Generated_Source\PSoC5/NEWLINE.c ****     /* Disable the general interrupt. */
ARM GAS  C:\Users\info\AppData\Local\Temp\cc2MOP3A.s 			page 43


 352:Generated_Source\PSoC5/NEWLINE.c ****     *NEWLINE_INTC_CLR_EN = NEWLINE__INTC_MASK;
 692              		.loc 1 352 0
 693 0000 0122     		movs	r2, #1
 694 0002 014B     		ldr	r3, .L21
 695 0004 1A60     		str	r2, [r3]
 696 0006 7047     		bx	lr
 697              	.L22:
 698              		.align	2
 699              	.L21:
 700 0008 80E100E0 		.word	-536813184
 701              		.cfi_endproc
 702              	.LFE10:
 703              		.size	NEWLINE_Disable, .-NEWLINE_Disable
 704              		.section	.text.NEWLINE_Start,"ax",%progbits
 705              		.align	2
 706              		.global	NEWLINE_Start
 707              		.thumb
 708              		.thumb_func
 709              		.type	NEWLINE_Start, %function
 710              	NEWLINE_Start:
 711              	.LFB0:
  62:Generated_Source\PSoC5/NEWLINE.c ****     /* For all we know the interrupt is active. */
 712              		.loc 1 62 0
 713              		.cfi_startproc
 714              		@ args = 0, pretend = 0, frame = 0
 715              		@ frame_needed = 0, uses_anonymous_args = 0
 716 0000 08B5     		push	{r3, lr}
 717              		.cfi_def_cfa_offset 8
 718              		.cfi_offset 3, -8
 719              		.cfi_offset 14, -4
  64:Generated_Source\PSoC5/NEWLINE.c **** 
 720              		.loc 1 64 0
 721 0002 FFF7FEFF 		bl	NEWLINE_Disable
 722              	.LVL7:
  67:Generated_Source\PSoC5/NEWLINE.c **** 
 723              		.loc 1 67 0
 724 0006 0448     		ldr	r0, .L25
 725 0008 FFF7FEFF 		bl	NEWLINE_SetVector
 726              	.LVL8:
  70:Generated_Source\PSoC5/NEWLINE.c **** 
 727              		.loc 1 70 0
 728 000c 0620     		movs	r0, #6
 729 000e FFF7FEFF 		bl	NEWLINE_SetPriority
 730              	.LVL9:
  73:Generated_Source\PSoC5/NEWLINE.c **** }
 731              		.loc 1 73 0
 732 0012 FFF7FEFF 		bl	NEWLINE_Enable
 733              	.LVL10:
 734 0016 08BD     		pop	{r3, pc}
 735              	.L26:
 736              		.align	2
 737              	.L25:
 738 0018 00000000 		.word	NEWLINE_Interrupt
 739              		.cfi_endproc
 740              	.LFE0:
 741              		.size	NEWLINE_Start, .-NEWLINE_Start
 742              		.section	.text.NEWLINE_StartEx,"ax",%progbits
ARM GAS  C:\Users\info\AppData\Local\Temp\cc2MOP3A.s 			page 44


 743              		.align	2
 744              		.global	NEWLINE_StartEx
 745              		.thumb
 746              		.thumb_func
 747              		.type	NEWLINE_StartEx, %function
 748              	NEWLINE_StartEx:
 749              	.LFB1:
 105:Generated_Source\PSoC5/NEWLINE.c ****     /* For all we know the interrupt is active. */
 750              		.loc 1 105 0
 751              		.cfi_startproc
 752              		@ args = 0, pretend = 0, frame = 0
 753              		@ frame_needed = 0, uses_anonymous_args = 0
 754              	.LVL11:
 755 0000 10B5     		push	{r4, lr}
 756              		.cfi_def_cfa_offset 8
 757              		.cfi_offset 4, -8
 758              		.cfi_offset 14, -4
 759 0002 0446     		mov	r4, r0
 107:Generated_Source\PSoC5/NEWLINE.c **** 
 760              		.loc 1 107 0
 761 0004 FFF7FEFF 		bl	NEWLINE_Disable
 762              	.LVL12:
 110:Generated_Source\PSoC5/NEWLINE.c **** 
 763              		.loc 1 110 0
 764 0008 2046     		mov	r0, r4
 765 000a FFF7FEFF 		bl	NEWLINE_SetVector
 766              	.LVL13:
 113:Generated_Source\PSoC5/NEWLINE.c **** 
 767              		.loc 1 113 0
 768 000e 0620     		movs	r0, #6
 769 0010 FFF7FEFF 		bl	NEWLINE_SetPriority
 770              	.LVL14:
 116:Generated_Source\PSoC5/NEWLINE.c **** }
 771              		.loc 1 116 0
 772 0014 FFF7FEFF 		bl	NEWLINE_Enable
 773              	.LVL15:
 774 0018 10BD     		pop	{r4, pc}
 775              		.cfi_endproc
 776              	.LFE1:
 777              		.size	NEWLINE_StartEx, .-NEWLINE_StartEx
 778 001a 00BF     		.section	.text.NEWLINE_Stop,"ax",%progbits
 779              		.align	2
 780              		.global	NEWLINE_Stop
 781              		.thumb
 782              		.thumb_func
 783              		.type	NEWLINE_Stop, %function
 784              	NEWLINE_Stop:
 785              	.LFB2:
 135:Generated_Source\PSoC5/NEWLINE.c ****     /* Disable this interrupt. */
 786              		.loc 1 135 0
 787              		.cfi_startproc
 788              		@ args = 0, pretend = 0, frame = 0
 789              		@ frame_needed = 0, uses_anonymous_args = 0
 790 0000 08B5     		push	{r3, lr}
 791              		.cfi_def_cfa_offset 8
 792              		.cfi_offset 3, -8
 793              		.cfi_offset 14, -4
ARM GAS  C:\Users\info\AppData\Local\Temp\cc2MOP3A.s 			page 45


 137:Generated_Source\PSoC5/NEWLINE.c **** 
 794              		.loc 1 137 0
 795 0002 FFF7FEFF 		bl	NEWLINE_Disable
 796              	.LVL16:
 140:Generated_Source\PSoC5/NEWLINE.c **** }
 797              		.loc 1 140 0
 798 0006 0248     		ldr	r0, .L31
 799 0008 FFF7FEFF 		bl	NEWLINE_SetVector
 800              	.LVL17:
 801 000c 08BD     		pop	{r3, pc}
 802              	.L32:
 803 000e 00BF     		.align	2
 804              	.L31:
 805 0010 00000000 		.word	IntDefaultHandler
 806              		.cfi_endproc
 807              	.LFE2:
 808              		.size	NEWLINE_Stop, .-NEWLINE_Stop
 809              		.section	.text.NEWLINE_SetPending,"ax",%progbits
 810              		.align	2
 811              		.global	NEWLINE_SetPending
 812              		.thumb
 813              		.thumb_func
 814              		.type	NEWLINE_SetPending, %function
 815              	NEWLINE_SetPending:
 816              	.LFB11:
 353:Generated_Source\PSoC5/NEWLINE.c **** }
 354:Generated_Source\PSoC5/NEWLINE.c **** 
 355:Generated_Source\PSoC5/NEWLINE.c **** 
 356:Generated_Source\PSoC5/NEWLINE.c **** /*******************************************************************************
 357:Generated_Source\PSoC5/NEWLINE.c **** * Function Name: NEWLINE_SetPending
 358:Generated_Source\PSoC5/NEWLINE.c **** ********************************************************************************
 359:Generated_Source\PSoC5/NEWLINE.c **** *
 360:Generated_Source\PSoC5/NEWLINE.c **** * Summary:
 361:Generated_Source\PSoC5/NEWLINE.c **** *   Causes the Interrupt to enter the pending state, a software method of
 362:Generated_Source\PSoC5/NEWLINE.c **** *   generating the interrupt.
 363:Generated_Source\PSoC5/NEWLINE.c **** *
 364:Generated_Source\PSoC5/NEWLINE.c **** * Parameters:
 365:Generated_Source\PSoC5/NEWLINE.c **** *   None
 366:Generated_Source\PSoC5/NEWLINE.c **** *
 367:Generated_Source\PSoC5/NEWLINE.c **** * Return:
 368:Generated_Source\PSoC5/NEWLINE.c **** *   None
 369:Generated_Source\PSoC5/NEWLINE.c **** *
 370:Generated_Source\PSoC5/NEWLINE.c **** * Side Effects:
 371:Generated_Source\PSoC5/NEWLINE.c **** *   If interrupts are enabled and the interrupt is set up properly, the ISR is
 372:Generated_Source\PSoC5/NEWLINE.c **** *   entered (depending on the priority of this interrupt and other pending 
 373:Generated_Source\PSoC5/NEWLINE.c **** *   interrupts).
 374:Generated_Source\PSoC5/NEWLINE.c **** *
 375:Generated_Source\PSoC5/NEWLINE.c **** *******************************************************************************/
 376:Generated_Source\PSoC5/NEWLINE.c **** void NEWLINE_SetPending(void)
 377:Generated_Source\PSoC5/NEWLINE.c **** {
 817              		.loc 1 377 0
 818              		.cfi_startproc
 819              		@ args = 0, pretend = 0, frame = 0
 820              		@ frame_needed = 0, uses_anonymous_args = 0
 821              		@ link register save eliminated.
 378:Generated_Source\PSoC5/NEWLINE.c ****     *NEWLINE_INTC_SET_PD = NEWLINE__INTC_MASK;
 822              		.loc 1 378 0
ARM GAS  C:\Users\info\AppData\Local\Temp\cc2MOP3A.s 			page 46


 823 0000 0122     		movs	r2, #1
 824 0002 014B     		ldr	r3, .L34
 825 0004 1A60     		str	r2, [r3]
 826 0006 7047     		bx	lr
 827              	.L35:
 828              		.align	2
 829              	.L34:
 830 0008 00E200E0 		.word	-536813056
 831              		.cfi_endproc
 832              	.LFE11:
 833              		.size	NEWLINE_SetPending, .-NEWLINE_SetPending
 834              		.section	.text.NEWLINE_ClearPending,"ax",%progbits
 835              		.align	2
 836              		.global	NEWLINE_ClearPending
 837              		.thumb
 838              		.thumb_func
 839              		.type	NEWLINE_ClearPending, %function
 840              	NEWLINE_ClearPending:
 841              	.LFB12:
 379:Generated_Source\PSoC5/NEWLINE.c **** }
 380:Generated_Source\PSoC5/NEWLINE.c **** 
 381:Generated_Source\PSoC5/NEWLINE.c **** 
 382:Generated_Source\PSoC5/NEWLINE.c **** /*******************************************************************************
 383:Generated_Source\PSoC5/NEWLINE.c **** * Function Name: NEWLINE_ClearPending
 384:Generated_Source\PSoC5/NEWLINE.c **** ********************************************************************************
 385:Generated_Source\PSoC5/NEWLINE.c **** *
 386:Generated_Source\PSoC5/NEWLINE.c **** * Summary:
 387:Generated_Source\PSoC5/NEWLINE.c **** *   Clears a pending interrupt in the interrupt controller.
 388:Generated_Source\PSoC5/NEWLINE.c **** *
 389:Generated_Source\PSoC5/NEWLINE.c **** *   Note Some interrupt sources are clear-on-read and require the block 
 390:Generated_Source\PSoC5/NEWLINE.c **** *   interrupt/status register to be read/cleared with the appropriate block API 
 391:Generated_Source\PSoC5/NEWLINE.c **** *   (GPIO, UART, and so on). Otherwise the ISR will continue to remain in 
 392:Generated_Source\PSoC5/NEWLINE.c **** *   pending state even though the interrupt itself is cleared using this API.
 393:Generated_Source\PSoC5/NEWLINE.c **** *
 394:Generated_Source\PSoC5/NEWLINE.c **** * Parameters:
 395:Generated_Source\PSoC5/NEWLINE.c **** *   None
 396:Generated_Source\PSoC5/NEWLINE.c **** *
 397:Generated_Source\PSoC5/NEWLINE.c **** * Return:
 398:Generated_Source\PSoC5/NEWLINE.c **** *   None
 399:Generated_Source\PSoC5/NEWLINE.c **** *
 400:Generated_Source\PSoC5/NEWLINE.c **** *******************************************************************************/
 401:Generated_Source\PSoC5/NEWLINE.c **** void NEWLINE_ClearPending(void)
 402:Generated_Source\PSoC5/NEWLINE.c **** {
 842              		.loc 1 402 0
 843              		.cfi_startproc
 844              		@ args = 0, pretend = 0, frame = 0
 845              		@ frame_needed = 0, uses_anonymous_args = 0
 846              		@ link register save eliminated.
 403:Generated_Source\PSoC5/NEWLINE.c ****     *NEWLINE_INTC_CLR_PD = NEWLINE__INTC_MASK;
 847              		.loc 1 403 0
 848 0000 0122     		movs	r2, #1
 849 0002 014B     		ldr	r3, .L37
 850 0004 1A60     		str	r2, [r3]
 851 0006 7047     		bx	lr
 852              	.L38:
 853              		.align	2
 854              	.L37:
ARM GAS  C:\Users\info\AppData\Local\Temp\cc2MOP3A.s 			page 47


 855 0008 80E200E0 		.word	-536812928
 856              		.cfi_endproc
 857              	.LFE12:
 858              		.size	NEWLINE_ClearPending, .-NEWLINE_ClearPending
 859              		.text
 860              	.Letext0:
 861              		.file 2 "Generated_Source\\PSoC5/cytypes.h"