ARM GAS  C:\Users\info\AppData\Local\Temp\ccylKrox.s 			page 1


   1              		.syntax unified
   2              		.cpu cortex-m3
   3              		.fpu softvfp
   4              		.eabi_attribute 20, 1
   5              		.eabi_attribute 21, 1
   6              		.eabi_attribute 23, 3
   7              		.eabi_attribute 24, 1
   8              		.eabi_attribute 25, 1
   9              		.eabi_attribute 26, 1
  10              		.eabi_attribute 30, 1
  11              		.eabi_attribute 34, 1
  12              		.eabi_attribute 18, 4
  13              		.thumb
  14              		.syntax unified
  15              		.file	"PIXEL_PM.c"
  16              		.text
  17              	.Ltext0:
  18              		.section	.gnu.lto_.profile.792a78b6,"",%progbits
  19 0000 789C6361 		.ascii	"x\234ca`d`a`\000\222\012\\\000\000\264\0005"
  19      60646061 
  19      6000920A 
  19      5C0000B4 
  19      0035
  20              		.text
  21              		.section	.gnu.lto_.inline.792a78b6,"",%progbits
  22 0000 789C6361 		.ascii	"x\234ca`d\000\2010\006\004`a``ead`bY \317\300\266@\236"
  22      60640081 
  22      30060460 
  22      61606065 
  22      61646062 
  23 001b 0924C684 		.ascii	"\011$\306\204)\304\314\300\302\003\024\002\262`\"\214"
  23      29C4CCC0 
  23      C2031402 
  23      B260228C 
  24 002b 5C60DD58 		.ascii	"\\`\335X\205\031\000\";\005_"
  24      85190022 
  24      3B055F
  25              		.text
  26              		.section	.gnu.lto_.jmpfuncs.792a78b6,"",%progbits
  27 0000 789C6361 		.ascii	"x\234ca`d\000\001\001\006\004`\001b&\006\006f(\223\001"
  27      60640001 
  27      01060460 
  27      01622606 
  27      06662893 
  28 0015 00031D00 		.ascii	"\000\003\035\000#"
  28      23
  29              		.text
  30              		.section	.gnu.lto_.pureconst.792a78b6,"",%progbits
  31 0000 789C6361 		.ascii	"x\234ca`d\340d```a\220b\222b\226`\221\000\000\002\265"
  31      6064E064 
  31      60606061 
  31      90629262 
  31      96609100 
  32 0017 0080     		.ascii	"\000\200"
  33              		.text
  34              		.section	.gnu.lto_PIXEL_SaveConfig.792a78b6,"",%progbits
  35 0000 789C4D50 		.ascii	"x\234MP\277K\202Q\024}\347\275\317\037\031A{B\021-."
ARM GAS  C:\Users\info\AppData\Local\Temp\ccylKrox.s 			page 2


  35      BF4B8251 
  35      147DE7BD 
  35      CF1F1941 
  35      7B42112D 
  36 0015 39F51744 		.ascii	"9\365\027DTP \2714\010\022\366\255\011R\263\317\037"
  36      545020B9 
  36      340812F6 
  36      AD0952B3 
  36      CF1F
  37 0027 1F6543B5 		.ascii	"\037eC\265\370m\341\250if\321Pn\"\015\015aS5\270T\203"
  37      F86DE1A8 
  37      6966D150 
  37      6E220D0D 
  37      615335B8 
  38 003d 831418D4 		.ascii	"\203\024\030\324\022\250\335\373\271t\341q\337;\367"
  38      12A8DDFB 
  38      B974E171 
  38      DF3BF7
  39 004c BC73EEBD 		.ascii	"\274s\356\275\206\200\340X\2414Gy\212\016\224\200<i"
  39      8680E058 
  39      A1344779 
  39      8A0E9480 
  39      3C69
  40 005e 0991F24A 		.ascii	"\011\221\362J\200/\332\013\221\224H\342G\366%\232\373"
  40      802FDA0B 
  40      919448E2 
  40      47F6259A 
  40      FB
  41 006f 9DBA0C14 		.ascii	"\235\272\014\0245\305\253e+]j\300RB\014\245\243$PD@"
  41      35C5AB65 
  41      2B5D6AC0 
  41      52420CA5 
  41      A3245044 
  42 0084 10EDFD6A 		.ascii	"\020\355\375j\220\237pg\23163*\242\0047\333\3256\032"
  42      909F7067 
  42      9936332A 
  42      A20437DB 
  42      D5361A
  43 0097 7A38CCE8 		.ascii	"z8\314\350\306\265\353S\032RX\212\320\0361\330\353K"
  43      C6B5EB53 
  43      1A52588A 
  43      D01E31D8 
  43      EB4B
  44 00a9 4ACEAA83 		.ascii	"J\316\252\203\346\357\341s~\214?e\024\373\332V\363\321"
  44      E6EFE173 
  44      7E8C3F65 
  44      14FBDA56 
  44      F3D1
  45 00bb F32D2D25 		.ascii	"\363--%\301\372\307\245v\3057z\016\357S\332 \250l\267"
  45      C1FAC7A5 
  45      76C5377A 
  45      0EEF53DA 
  45      20A86CB7 
  46 00cf 5EC60B38 		.ascii	"^\306\0138Me\251#\2052\3748\203\237\214+(@t\220\266"
  46      4D65A923 
  46      8532FC38 
  46      839F8C2B 
ARM GAS  C:\Users\info\AppData\Local\Temp\ccylKrox.s 			page 3


  46      28407490 
  47 00e4 DFA659EF 		.ascii	"\337\246Y\357\277\230\341\210\325\353\037mO\262\257"
  47      BF98E188 
  47      D5EB1F6D 
  47      4FB2AF
  48 00f3 0FB49E24 		.ascii	"\017\264\236$,G\3630\334}x\272\363\261\240vp\027\252"
  48      2C47F330 
  48      DC7D78BA 
  48      F3B1A076 
  48      7017AA
  49 0106 B4847396 		.ascii	"\264\204s\226\244\342\321\355e\316\033\254\362\200:"
  49      A4E2D1ED 
  49      65CE1BAC 
  49      F2803A
  50 0115 6C29372E 		.ascii	"l)7.\310e\340l\0015\004\251i\321E\272q\343bKg5=\352"
  50      C865E06C 
  50      013504A9 
  50      69D145BA 
  50      71E3624B 
  51 012d 9C6623CA 		.ascii	"\234f#\312\354\262\271c&\266v\315\355h8\276\227\210"
  51      ECB2B963 
  51      26B676CD 
  51      ED6838BE 
  51      9788
  52 013f 99915038 		.ascii	"\231\221P8\276\270\020\011\255n.\255EC\353\3631\361"
  52      BEB81009 
  52      AD6E2EAD 
  52      4543EBF3 
  52      31F1
  53 0151 07AB487E 		.ascii	"\007\253H~\273"
  53      BB
  54              		.text
  55              		.section	.gnu.lto_PIXEL_backup.792a78b6,"",%progbits
  56 0000 789C6361 		.ascii	"x\234ca`d\000\001] \206\260\030\030\37621\256\177\263"
  56      60640001 
  56      5D2086B0 
  56      1818FE32 
  56      31AE7FB3 
  57 0014 F327EF17 		.ascii	"\363'\357\027\246Vf\240 \220\273sn\373m>\213m\015\035"
  57      A65666A0 
  57      2090BB73 
  57      6EFB6D3E 
  57      8B6D0D1D 
  58 0028 0B1A045A 		.ascii	"\013\032\004Z\231\031\377110.g\224a`\\\301h\301\000"
  58      9919FF31 
  58      31302E67 
  58      9461605C 
  58      C168C100 
  59 003c 00C3A010 		.ascii	"\000\303\240\020)"
  59      29
  60              		.text
  61              		.section	.gnu.lto_PIXEL_RestoreConfig.792a78b6,"",%progbits
  62 0000 789C4D90 		.ascii	"x\234M\220\273O\002A\020\306\367\333=\340\202\222X\331"
  62      BB4F0241 
  62      10C6F7DB 
  62      3DE08292 
  62      58D9
ARM GAS  C:\Users\info\AppData\Local\Temp\ccylKrox.s 			page 4


  63 0012 48618C0D 		.ascii	"Ha\214\015\205R\371\027\370\212F\023\"\215\005\0111"
  63      8552F917 
  63      F88A4613 
  63      228D0509 
  63      31
  64 0023 78AD2444 		.ascii	"x\255$Dk\226\307Ei|\024^g\010\205\001AE;\261\361B,,"
  64      6B96C745 
  64      697C145E 
  64      67088501 
  64      41453BB1 
  65 003b 0C56C682 		.ascii	"\014V\306\202\306XP\020\013H\264\204s\366h\234d3\273"
  65      C6585010 
  65      0B48B484 
  65      73F6689C 
  65      6433BB
  66 004e DFCCCEEF 		.ascii	"\337\314\316\357\333\325\030\230\212%J\263\224\247h"
  66      DBD51898 
  66      8A254AB3 
  66      94A768
  67 005d 4130F0D3 		.ascii	"A0\360\323\026c\031\235\003j#u\2604G\032\277|\300\321"
  67      1663199D 
  67      036A2375 
  67      B034471A 
  67      BF7CC0D1 
  68 0071 3CEC3478 		.ascii	"<\3544x\250,)>/\213BVl\230\2021\207\273\223\030\312"
  68      A82C293E 
  68      2F8B4256 
  68      6C988231 
  68      87BB9318 
  69 0086 08316AFB 		.ascii	"\0101j\373\272\037\236\007\274y\3256=*\242\002\257\302"
  69      BA1F9E07 
  69      BC79D536 
  69      3D2AA202 
  69      AFC2
  70 0098 D5B76CE9 		.ascii	"\325\267l\35189i\017<\245q\2153S\220\332\243\016\305"
  70      3839690F 
  70      3CA5718D 
  70      335390DA 
  70      A30EC5
  71 00ab EA73AEB2 		.ascii	"\352s\256\262\350 \373\330\177ZWwrBa-\263\371\346\373"
  71      E820FBD8 
  71      7F5A5777 
  71      7242612D 
  71      B3F9E6FB 
  72 00bf E1A6E050 		.ascii	"\341\246\340P\343\033\215\357\266/=\220GRN\220V \007"
  72      E31B8DEF 
  72      B62F3D90 
  72      47524E90 
  72      562007
  73 00d2 4AEEBEBE 		.ascii	"J\356\276\276?\373\213\270\310HW\027\250\222\355+\004"
  73      3FFB8BB8 
  73      C8485717 
  73      A892ED2B 
  73      04
  74 00e3 DDE2F1C3 		.ascii	"\335\342\361\303]A\017\317\231BC\015E\014]\307\270F"
  74      5D410FCF 
  74      9942430D 
ARM GAS  C:\Users\info\AppData\Local\Temp\ccylKrox.s 			page 5


  74      450C5DC7 
  74      B846
  75 00f5 9875D0B4 		.ascii	"\230u\320\264J\223\012\366\237\344qI'\225v\315?::/\031"
  75      4A930AF6 
  75      9FE47149 
  75      279576CD 
  75      3F3A3A2F 
  76 010a A99154B5 		.ascii	"\251\221T\265Z\037c\212\222'N\300\024^\334\"\210\033"
  76      5A1F638A 
  76      92274EC0 
  76      145EDC22 
  76      881B
  77 011c 85419D26 		.ascii	"\205A\235&\223c\326E\326>[Q#\335o\351\221mz\027!gV\215"
  77      9363D645 
  77      D63E5B51 
  77      23DD6FE9 
  77      916D7A17 
  78 0134 3D23B5B3 		.ascii	"=#\265\263o\354\306\243\311\203T\302\210E\242\311\305"
  78      6FECC6A3 
  78      C98354C2 
  78      8845A2C9 
  78      C5
  79 0145 8558646D 		.ascii	"\205Xdm{y#\036\331\234O\260?\036r|\261"
  79      7B79231E 
  79      D99C4FB0 
  79      3F1E727C 
  79      B1
  80              		.text
  81              		.section	.gnu.lto_PIXEL_Sleep.792a78b6,"",%progbits
  82 0000 789C6361 		.ascii	"x\234ca`d\000\201\325@\254\002\304\322@\314\310\314"
  82      60640081 
  82      D540AC02 
  82      C4D240CC 
  82      C8CC
  83 0012 C0C834E1 		.ascii	"\300\3104\341\034\003C#\007\023##\210\321\300\301\310"
  83      1C034323 
  83      07132323 
  83      88D1C0C1 
  83      C8
  84 0023 50CFC458 		.ascii	"P\317\304X\317\370\225\351/\023\343\241\366g;\2314\227"
  84      CFF895E9 
  84      2F13E3A1 
  84      F6673B99 
  84      3497
  85 0035 3700C183 		.ascii	"7\000\301\203\245\257\014\032V\034`lef`\370\317\004"
  85      A5AF0C1A 
  85      561C606C 
  85      656660F8 
  85      CF04
  86 0047 36898171 		.ascii	"6\211\201q9\243&\003P\331\243\215\377\246\362\262\265"
  86      39A32603 
  86      50D9A38D 
  86      FFA6F2B2 
  86      B5
  87 0058 80942940 		.ascii	"\200\224)@$\031W0\262\201\254[\037t\240\341\377\377"
  87      24195730 
  87      B281AC5B 
ARM GAS  C:\Users\info\AppData\Local\Temp\ccylKrox.s 			page 6


  87      1F74A0E1 
  87      FFFF
  88 006a E6860357 		.ascii	"\346\206\003W\331\016\336`\003j\375\000\224\005\331"
  88      D90EDE60 
  88      036AFD00 
  88      9405D9
  89 0079 F3918909 		.ascii	"\363\221\211\011D3\277`l>p\375\030\023H=\310\244\235"
  89      4433BF60 
  89      6C3E70FD 
  89      1813483D 
  89      C8A49D
  90 008c 3BDFDC66 		.ascii	";\337\334f\257\377\333\320\321\320 \320\312\314\370"
  90      AFFFDBD0 
  90      D1D020D0 
  90      CACCF8
  91 009b 9F096808 		.ascii	"\237\011h\010\343J\306z\206Vf&\206W\214M\007n\272\201"
  91      E34AC67A 
  91      86566626 
  91      86578C4D 
  91      076EBA81 
  92 00af 9582C007 		.ascii	"\225\202\300\007\240$\320\010\240\201J\356\251y\251"
  92      A024D008 
  92      A0814AEE 
  92      A979A9
  93 00be 458925A9 		.ascii	"E\211%\251)\361\301\371\245E\311\2511\001\301\371\316"
  93      29F1C1F9 
  93      A545C9A9 
  93      3101C1F9 
  93      CE
  94 00cf A631019E 		.ascii	"\2461\001\236\021\256>\361\001\276z\311\014\000\033"
  94      11AE3EF1 
  94      01BE7AC9 
  94      0C001B
  95 00de 714BC2   		.ascii	"qK\302"
  96              		.text
  97              		.section	.gnu.lto_PIXEL_Wakeup.792a78b6,"",%progbits
  98 0000 789C6361 		.ascii	"x\234ca`d\000\201\325@\254\002\304\322@\314\310\314"
  98      60640081 
  98      D540AC02 
  98      C4D240CC 
  98      C8CC
  99 0012 C0C834E1 		.ascii	"\300\3104\341\034\003C#\007\023##\210\321\300\301\310"
  99      1C034323 
  99      07132323 
  99      88D1C0C1 
  99      C8
 100 0023 50CFC458 		.ascii	"P\317\304X\317\370\225\351/\023\343\241\366g;\2314\227"
 100      CFF895E9 
 100      2F13E3A1 
 100      F6673B99 
 100      3497
 101 0035 3700C183 		.ascii	"7\000\301\203\245\237\015\032V\034`lef`\370\317\004"
 101      A59F0D1A 
 101      561C606C 
 101      656660F8 
 101      CF04
 102 0047 36898171 		.ascii	"6\211\201q9\243&\003P\331\243\215\377\246\362\262\265"
ARM GAS  C:\Users\info\AppData\Local\Temp\ccylKrox.s 			page 7


 102      39A32603 
 102      50D9A38D 
 102      FFA6F2B2 
 102      B5
 103 0058 80942940 		.ascii	"\200\224)@$\031W0\262\201\254[\037t\240\341\377\377"
 103      24195730 
 103      B281AC5B 
 103      1F74A0E1 
 103      FFFF
 104 006a E6860373 		.ascii	"\346\206\003s\331\017n`\007j\375\000\224\005\331\363"
 104      D90F6E60 
 104      076AFD00 
 104      9405D9F3 
 105 007a 91890944 		.ascii	"\221\211\011D3\277`l>0\3778\023H=\310\244\235;\337\334"
 105      33BF606C 
 105      3E30FF38 
 105      13483DC8 
 105      A49D3BDF 
 106 008f 66AFFFDB 		.ascii	"f\257\377\333\320\321\320 \320\312\314\370\237\011h"
 106      D0D1D020 
 106      D0CACCF8 
 106      9F0968
 107 009e 08E34AC6 		.ascii	"\010\343J\306z\206Vf&\206W\214M\0076\272\203\225\202"
 107      7A865666 
 107      2686578C 
 107      4D0736BA 
 107      839582
 108 00b1 C007A024 		.ascii	"\300\007\240$\320\010\240\201J\356\251y\251E\211%\251"
 108      D008A081 
 108      4AEEA979 
 108      A9458925 
 108      A9
 109 00c2 29F1C1F9 		.ascii	")\361\301\371\245E\311\2511\001\301\371\316\2461\001"
 109      A545C9A9 
 109      3101C1F9 
 109      CEA63101 
 110 00d2 9E11AE3E 		.ascii	"\236\021\256>\361\001\276z\311\014\000\325tK\017"
 110      F101BE7A 
 110      C90C00D5 
 110      744B0F
 111              		.text
 112              		.section	.gnu.lto_.symbol_nodes.792a78b6,"",%progbits
 113 0000 789C5589 		.ascii	"x\234U\211A\021\200@\014\304\322\335b\000\007\030\303"
 113      41118040 
 113      0CC4D2DD 
 113      62000718 
 113      C3
 114 0011 4A4F021A 		.ascii	"JO\002\032x\"\006\015(a\270\341\327|2\223$\301\316D"
 114      7822060D 
 114      2861B8E1 
 114      D77C3293 
 114      24C1CE44 
 115 0025 5170DC30 		.ascii	"Qp\3340u\215\015\026\030+X\252hC.\365\220\345\026l8"
 115      758D0D16 
 115      182B58AA 
 115      68432EF5 
 115      90E5166C 
ARM GAS  C:\Users\info\AppData\Local\Temp\ccylKrox.s 			page 8


 116 003a 9F379CFA 		.ascii	"\2377\234\372\315\007\214J\024\303"
 116      CD078C4A 
 116      14C3
 117              		.text
 118              		.section	.gnu.lto_.refs.792a78b6,"",%progbits
 119 0000 789C6361 		.ascii	"x\234ca`d\340f`\000\222\214\214L\214L@\222\001\000\001"
 119      6064E066 
 119      6000928C 
 119      8C4C8C4C 
 119      40920100 
 120 0015 54001B   		.ascii	"T\000\033"
 121              		.text
 122              		.section	.gnu.lto_.decls.792a78b6,"",%progbits
 123 0000 789C8D54 		.ascii	"x\234\215T}LSW\024\277\347\275\332v\317j\214,\013\177"
 123      7D4C5357 
 123      14BFE7BD 
 123      DA76CF6A 
 123      8C2C0B7F 
 124 0014 34594734 		.ascii	"4YG4#Y\2022C\342\177N\033?\226mJ,\270\375AB\260>\035"
 124      23598232 
 124      43E27F4E 
 124      1B3F966D 
 124      4A2CB8FD 
 125 002d 9150538B 		.ascii	"\221PS\213\011\377]>\374\302l\301%nR\311\206\037q\202"
 125      09FF5D3E 
 125      FCC26CC1 
 125      256E52C9 
 125      861F7182 
 126 0041 40C1AA88 		.ascii	"@\301\252\210\"\024A\320\0200:\203\032\2156`4\356+\030"
 126      221441D0 
 126      10303A83 
 126      1A8D3660 
 126      34EE2B18 
 127 0055 881123C3 		.ascii	"\210\021#\303s\356\273\365=L1;\355\351\275\347\335\337"
 127      73EEBBF5 
 127      3D4C313B 
 127      EDE9BDE7 
 127      DDDF
 128 0067 F9FDCE3D 		.ascii	"\371\375\316=\367\276\332\0300\262\2549\214=\3011\017"
 128      F7BEDA18 
 128      30B2AC39 
 128      8C3DC131 
 128      0F
 129 0078 C369343B 		.ascii	"\303i4;\31671\323l\350M\350\021\364V\364(:ev\263\231"
 129      CE3731D3 
 129      6CE84DE8 
 129      11F456F4 
 129      283A6576 
 130 008e 461887CC 		.ascii	"F\030\207\314u\243\367\241\367\242\367\243w\241_\224"
 130      75A3F7A1 
 130      F7A2F7A3 
 130      77A15F94 
 131 009e 791D726C 		.ascii	"y\035rl\232\205\207bErtYr\222Y\344\035M\253VB\337\252"
 131      9A858762 
 131      45727459 
 131      729259E4 
 131      1D4DAB56 
ARM GAS  C:\Users\info\AppData\Local\Temp\ccylKrox.s 			page 9


 132 00b5 19994593 		.ascii	"\031\231E\223\366\245J\236k\350\215\362\271\"\327\232"
 132      F6A54A9E 
 132      6BE88DF2 
 132      B922D79A 
 133 00c5 926847DF 		.ascii	"\222hG\337\223\023\225Z\357\332\224\002\025#\177\326"
 133      9313955A 
 133      EFDA9402 
 133      15237FD6 
 134 00d5 39EFC33D 		.ascii	"9\357\303=\000\006\302\230<\007FO\344H\0230\002\205"
 134      0006C298 
 134      3C07464F 
 134      E4481330 
 134      0285
 135 00e7 C99A0D14 		.ascii	"\311\232\015\024$\250@|\360\253\010<X\026f\340\304\231"
 135      24A8407C 
 135      F0AB083C 
 135      581666E0 
 135      C499
 136 00f9 0A331FC1 		.ascii	"\0123\037\301[K a&)\261\232!\306\212\231`\341\223\325"
 136      5B4B2061 
 136      2629B19A 
 136      21C68A99 
 136      60E193D5 
 137 010d 4B7DB0CA 		.ascii	"K}\260\312\012j5\261\351\037:\243q\227\212\2348\177"
 137      0A6A35B1 
 137      E91F3AA3 
 137      71978A9C 
 137      387F
 138 011f 34796A4D 		.ascii	"4yjMF#G\253\346\\\371\314\354\314\315\312\226ZuB\201"
 138      462347AB 
 138      E65CF9CC 
 138      ECCCCDCA 
 138      965A7542 
 139 0134 851AD830 		.ascii	"\205\032\3300|>\030\036\235\217\341\207\032x0\234\272"
 139      7C3E181E 
 139      9D8FE187 
 139      1A78309C 
 139      BA
 140 0145 7E24ACA4 		.ascii	"~$\254\244\376,\362*\270\307\006\233>\202\323\340\206"
 140      FE2CF22A 
 140      B8C7069B 
 140      3E82D3E0 
 140      86
 141 0156 06C08387 		.ascii	"\006\300\203\207FH\305\337\3156\203\351\345\253\247"
 141      4648C5DF 
 141      CD3683E9 
 141      E5ABA7
 142 0165 BFD9D3EA 		.ascii	"\277\331\323\352x\274\205\307'\343\237\327\360X%\246"
 142      78BC85C7 
 142      27E39FD7 
 142      F05825A6 
 143 0175 29848253 		.ascii	")\204\202S\240B=dP\2118\245\341w\270\217\3057A\032f"
 143      A0423D64 
 143      508938A5 
 143      E177B88F 
 143      C537411A 
 144 018a DEF8F5F6 		.ascii	"\336\370\365\366\003PW\210B\273\367\336\031\377\300"
ARM GAS  C:\Users\info\AppData\Local\Temp\ccylKrox.s 			page 10


 144      03505788 
 144      42BBF7DE 
 144      19FFC0
 145 0199 6089BDD2 		.ascii	"`\211\275\322\371~\244\260\011\212f\223\242\331J\021"
 145      F97EA4B0 
 145      098A6693 
 145      A2D94A11 
 146 01a9 11146D23 		.ascii	"\021\024m#\2616\207\352\023\024\347+_\377E\024uHq\253"
 146      B13687EA 
 146      1314E72B 
 146      5FFF4514 
 146      754871AB 
 147 01bd CFC5ABCB 		.ascii	"\317\305\253\3138\377Bp\264\230\034-V\216V\301\321\365"
 147      38FF4270 
 147      B4981C2D 
 147      568E56C1 
 147      D1F5
 148 01cf CFDDEAF9 		.ascii	"\317\335\352\371j\276\340\030h\250\352qJ\216p\277\225"
 148      6ABEE018 
 148      68A8EA71 
 148      4A8E70BF 
 148      95
 149 01e0 E38CC971 		.ascii	"\343\214\311q\306\312\021\025\034/\206F<j\221\240\370"
 149      C6CA1115 
 149      1C2F8646 
 149      3C6A91A0 
 149      F8
 150 01f1 71F4E143 		.ascii	"q\364\341C\273Z*\346\221\335\217\353\235\330V\267\006"
 150      BB5A2AE6 
 150      91DD8FEB 
 150      9DD856B7 
 150      06
 151 0202 D340F1DF 		.ascii	"\323@\361\337\355\223\363\214\230\226k\016\216\3767"
 151      ED93F38C 
 151      98966B0E 
 151      8EFE37
 152 0211 57DD0314 		.ascii	"W\335\003\024(\177\214\236~f\203t\355$u=\336^\265\365"
 152      287F8C9E 
 152      7E668374 
 152      ED24753D 
 152      DE5EB5F5 
 153 0225 97BDD4C6 		.ascii	"\227\275\324\306\213\240\301\005S\333\255\341\357>\316"
 153      8BA0C105 
 153      53DBADE1 
 153      EF3ECE
 154 0234 CBF9D831 		.ascii	"\313\371\3301nOe\260\314\015K\335\014\332!\235X\011"
 154      6E4F65B0 
 154      CC0D4BDD 
 154      0CDA219D 
 154      5809
 155 0246 056D7852 		.ascii	"\005mxR\347\361\244\246\0245\032\276\320\011\220\262"
 155      E7F1A4A6 
 155      14351ABE 
 155      D00990B2 
 156 0256 28FD20B1 		.ascii	"(\375 \261\216\225sNw\307\310ap\011R(\003.cr\007,\022"
 156      8E95734E 
 156      77C7C861 
ARM GAS  C:\Users\info\AppData\Local\Temp\ccylKrox.s 			page 11


 156      70095228 
 156      032E6372 
 157 026d 77E31871 		.ascii	"w\343\030q\307/\037\370\364H3\347\025v\241\177\016\365"
 157      C72F1FF8 
 157      F44833E7 
 157      1576A17F 
 157      0EF5
 158 027f 092BB596 		.ascii	"\011+\265\226Pn&\375\005\210Zc5:\347N\0020Y\245\274"
 158      506E26FD 
 158      05885A63 
 158      353AE74E 
 158      023059A5 
 159 0294 6313574F 		.ascii	"c\023WO\034v\250C\306\366\356\364\334lp@J\262B \206"
 159      1C76A843 
 159      C6F6EEF4 
 159      DC6C7040 
 159      4AB24220 
 160 02a9 FAC96A31 		.ascii	"\372\311j1\350[\347a\033\272p\271\323l\003\211\011\215"
 160      E85BE761 
 160      1BBA70B9 
 160      D36C0389 
 160      098D
 161 02bb B2DAB161 		.ascii	"\262\332\261au\361q\316\361\352Lv\024\216\227\363u\002"
 161      75F171CE 
 161      F1EA4C76 
 161      148E97F3 
 161      7502
 162 02cd 7BD6C0BE 		.ascii	"{\326\300\276\335*\3059\012\203nXL\225U\216\017\333"
 162      DD2AC539 
 162      0A836E58 
 162      4C95558E 
 162      0FDB
 163 02df 356C63C5 		.ascii	"5lc\305\377j#\014>;:\355PG\214\235D\017\325\034r\200"
 163      FF6A230C 
 163      3E3B3AED 
 163      50478C9D 
 163      440FD51C 
 164 02f5 969E24FD 		.ascii	"\226\236$\375j\222\364\304yn\010\377T\306=\320\213\375"
 164      6A92F4C4 
 164      796E08FF 
 164      54C63DD0 
 164      8BFD
 165 0307 EC313772 		.ascii	"\35417r\0054c#\365\377\366\304\300UE\335\307Wn\341:"
 165      05346323 
 165      F5FFF6C4 
 165      C05545DD 
 165      C7576EE1 
 166 031c 0134DFB9 		.ascii	"\0014\337\271>p\2117\035G\004\337>\334[?\003L[6\301"
 166      3E708937 
 166      1D4704DF 
 166      3EDC5B3F 
 166      034C5B36 
 167 0331 FD12DC2F 		.ascii	"\375\022\334/\300\341{\265\003N+\230\256\263\011\276"
 167      C0E17BB5 
 167      034E2B98 
 167      AEB309BE 
 168 0341 06AE4431 		.ascii	"\006\256D18e\013\262\277\374n\365\327\371\276\202]\272"
ARM GAS  C:\Users\info\AppData\Local\Temp\ccylKrox.s 			page 12


 168      38650BB2 
 168      BFFC6EF5 
 168      D7F9BE82 
 168      5DBA
 169 0353 3750BCB5 		.ascii	"7P\274\265p\233s\355\372\\\21773\223\245\255\325\213"
 169      709B73ED 
 169      FA5C8F37 
 169      3393A5AD 
 169      D58B
 170 0365 F5604148 		.ascii	"\365`AH\337\222\357\013\224\004\375z^\266/\340\315\312"
 170      DF92EF0B 
 170      9404FD7A 
 170      5EB62FE0 
 170      CDCA
 171 0377 3312B2BF 		.ascii	"3\022\262\277\311\360\263\024c\276Q\337\031\012\004"
 171      C9F0B314 
 171      63BE51DF 
 171      190A04
 172 0386 65FE5C49 		.ascii	"e\376\\IX\244\353;\\\306\374\333\202\355zI\"\330\\\340"
 172      58A4EB3B 
 172      5CC6FCDB 
 172      82ED7A49 
 172      22D85CE0 
 173 039a DF8E813F 		.ascii	"\337\216\201?P\034\012\006\212|!\024\230SRX\034Z\376"
 173      501C0A06 
 173      8A7C2114 
 173      98535258 
 173      1C5AFE
 174 03ad C92C7AFE 		.ascii	"\311,z\376\322P\351\016}g\306\367\354\343\367U\204\353"
 174      D250E90E 
 174      7D67C6F7 
 174      ECE3F755 
 174      84EB
 175 03bf B29C552B 		.ascii	"\262\234U+\275_\345f\347\373r6\346zslA}\333\3627%\377"
 175      BD5FE566 
 175      E7FB7236 
 175      E67A736C 
 175      417DDBF2 
 176 03d6 CA5F     		.ascii	"\312_"
 177              		.text
 178              		.section	.gnu.lto_.symtab.792a78b6,"",%progbits
 179 0000 50495845 		.ascii	"PIXEL_SaveConfig\000"
 179      4C5F5361 
 179      7665436F 
 179      6E666967 
 179      00
 180 0011 00       		.ascii	"\000"
 181 0012 00       		.ascii	"\000"
 182 0013 00       		.ascii	"\000"
 183 0014 00000000 		.ascii	"\000\000\000\000\000\000\000\000"
 183      00000000 
 184 001c AD000000 		.ascii	"\255\000\000\000"
 185 0020 50495845 		.ascii	"PIXEL_RestoreConfig\000"
 185      4C5F5265 
 185      73746F72 
 185      65436F6E 
 185      66696700 
ARM GAS  C:\Users\info\AppData\Local\Temp\ccylKrox.s 			page 13


 186 0034 00       		.ascii	"\000"
 187 0035 00       		.ascii	"\000"
 188 0036 00       		.ascii	"\000"
 189 0037 00000000 		.ascii	"\000\000\000\000\000\000\000\000"
 189      00000000 
 190 003f AF000000 		.ascii	"\257\000\000\000"
 191 0043 50495845 		.ascii	"PIXEL_Sleep\000"
 191      4C5F536C 
 191      65657000 
 192 004f 00       		.ascii	"\000"
 193 0050 00       		.ascii	"\000"
 194 0051 00       		.ascii	"\000"
 195 0052 00000000 		.ascii	"\000\000\000\000\000\000\000\000"
 195      00000000 
 196 005a B1000000 		.ascii	"\261\000\000\000"
 197 005e 50495845 		.ascii	"PIXEL_Wakeup\000"
 197      4C5F5761 
 197      6B657570 
 197      00
 198 006b 00       		.ascii	"\000"
 199 006c 00       		.ascii	"\000"
 200 006d 00       		.ascii	"\000"
 201 006e 00000000 		.ascii	"\000\000\000\000\000\000\000\000"
 201      00000000 
 202 0076 B3000000 		.ascii	"\263\000\000\000"
 203              		.text
 204              		.section	.gnu.lto_.opts,"",%progbits
 205 0000 272D666D 		.ascii	"'-fmath-errno' '-fsigned-zeros' '-ftrapping-math' '"
 205      6174682D 
 205      6572726E 
 205      6F272027 
 205      2D667369 
 206 0033 2D666E6F 		.ascii	"-fno-trapv' '-fno-strict-overflow' '-fno-openmp' '-"
 206      2D747261 
 206      70762720 
 206      272D666E 
 206      6F2D7374 
 207 0066 666E6F2D 		.ascii	"fno-openacc' '-mcpu=cortex-m3' '-mthumb' '-g' '-Og'"
 207      6F70656E 
 207      61636327 
 207      20272D6D 
 207      6370753D 
 208 0099 20272D66 		.ascii	" '-ffunction-sections' '-ffat-lto-objects' '-flto'\000"
 208      66756E63 
 208      74696F6E 
 208      2D736563 
 208      74696F6E 
 209              		.text
 210              		.cfi_sections	.debug_frame
 211              		.section	.text.PIXEL_SaveConfig,"ax",%progbits
 212              		.align	2
 213              		.global	PIXEL_SaveConfig
 214              		.thumb
 215              		.thumb_func
 216              		.type	PIXEL_SaveConfig, %function
 217              	PIXEL_SaveConfig:
 218              	.LFB0:
ARM GAS  C:\Users\info\AppData\Local\Temp\ccylKrox.s 			page 14


 219              		.file 1 "Generated_Source\\PSoC5\\PIXEL_PM.c"
   1:Generated_Source\PSoC5/PIXEL_PM.c **** /*******************************************************************************
   2:Generated_Source\PSoC5/PIXEL_PM.c **** * File Name: PIXEL_PM.c
   3:Generated_Source\PSoC5/PIXEL_PM.c **** * Version 1.80
   4:Generated_Source\PSoC5/PIXEL_PM.c **** *
   5:Generated_Source\PSoC5/PIXEL_PM.c **** * Description:
   6:Generated_Source\PSoC5/PIXEL_PM.c **** *  This file contains the setup, control, and status commands to support 
   7:Generated_Source\PSoC5/PIXEL_PM.c **** *  the component operation in the low power mode. 
   8:Generated_Source\PSoC5/PIXEL_PM.c **** *
   9:Generated_Source\PSoC5/PIXEL_PM.c **** * Note:
  10:Generated_Source\PSoC5/PIXEL_PM.c **** *
  11:Generated_Source\PSoC5/PIXEL_PM.c **** ********************************************************************************
  12:Generated_Source\PSoC5/PIXEL_PM.c **** * Copyright 2015, Cypress Semiconductor Corporation.  All rights reserved.
  13:Generated_Source\PSoC5/PIXEL_PM.c **** * You may use this file only in accordance with the license, terms, conditions, 
  14:Generated_Source\PSoC5/PIXEL_PM.c **** * disclaimers, and limitations in the end user license agreement accompanying 
  15:Generated_Source\PSoC5/PIXEL_PM.c **** * the software package with which this file was provided.
  16:Generated_Source\PSoC5/PIXEL_PM.c **** *******************************************************************************/
  17:Generated_Source\PSoC5/PIXEL_PM.c **** 
  18:Generated_Source\PSoC5/PIXEL_PM.c **** #include "PIXEL.h"
  19:Generated_Source\PSoC5/PIXEL_PM.c **** 
  20:Generated_Source\PSoC5/PIXEL_PM.c **** /* Check for removal by optimization */
  21:Generated_Source\PSoC5/PIXEL_PM.c **** #if !defined(PIXEL_Sync_ctrl_reg__REMOVED)
  22:Generated_Source\PSoC5/PIXEL_PM.c **** 
  23:Generated_Source\PSoC5/PIXEL_PM.c **** static PIXEL_BACKUP_STRUCT  PIXEL_backup = {0u};
  24:Generated_Source\PSoC5/PIXEL_PM.c **** 
  25:Generated_Source\PSoC5/PIXEL_PM.c ****     
  26:Generated_Source\PSoC5/PIXEL_PM.c **** /*******************************************************************************
  27:Generated_Source\PSoC5/PIXEL_PM.c **** * Function Name: PIXEL_SaveConfig
  28:Generated_Source\PSoC5/PIXEL_PM.c **** ********************************************************************************
  29:Generated_Source\PSoC5/PIXEL_PM.c **** *
  30:Generated_Source\PSoC5/PIXEL_PM.c **** * Summary:
  31:Generated_Source\PSoC5/PIXEL_PM.c **** *  Saves the control register value.
  32:Generated_Source\PSoC5/PIXEL_PM.c **** *
  33:Generated_Source\PSoC5/PIXEL_PM.c **** * Parameters:
  34:Generated_Source\PSoC5/PIXEL_PM.c **** *  None
  35:Generated_Source\PSoC5/PIXEL_PM.c **** *
  36:Generated_Source\PSoC5/PIXEL_PM.c **** * Return:
  37:Generated_Source\PSoC5/PIXEL_PM.c **** *  None
  38:Generated_Source\PSoC5/PIXEL_PM.c **** *
  39:Generated_Source\PSoC5/PIXEL_PM.c **** *******************************************************************************/
  40:Generated_Source\PSoC5/PIXEL_PM.c **** void PIXEL_SaveConfig(void) 
  41:Generated_Source\PSoC5/PIXEL_PM.c **** {
 220              		.loc 1 41 0
 221              		.cfi_startproc
 222              		@ args = 0, pretend = 0, frame = 0
 223              		@ frame_needed = 0, uses_anonymous_args = 0
 224              		@ link register save eliminated.
  42:Generated_Source\PSoC5/PIXEL_PM.c ****     PIXEL_backup.controlState = PIXEL_Control;
 225              		.loc 1 42 0
 226 0000 024B     		ldr	r3, .L2
 227 0002 1A78     		ldrb	r2, [r3]	@ zero_extendqisi2
 228 0004 024B     		ldr	r3, .L2+4
 229 0006 1A70     		strb	r2, [r3]
 230 0008 7047     		bx	lr
 231              	.L3:
 232 000a 00BF     		.align	2
 233              	.L2:
ARM GAS  C:\Users\info\AppData\Local\Temp\ccylKrox.s 			page 15


 234 000c 7F640040 		.word	1073767551
 235 0010 00000000 		.word	.LANCHOR0
 236              		.cfi_endproc
 237              	.LFE0:
 238              		.size	PIXEL_SaveConfig, .-PIXEL_SaveConfig
 239              		.section	.text.PIXEL_RestoreConfig,"ax",%progbits
 240              		.align	2
 241              		.global	PIXEL_RestoreConfig
 242              		.thumb
 243              		.thumb_func
 244              		.type	PIXEL_RestoreConfig, %function
 245              	PIXEL_RestoreConfig:
 246              	.LFB1:
  43:Generated_Source\PSoC5/PIXEL_PM.c **** }
  44:Generated_Source\PSoC5/PIXEL_PM.c **** 
  45:Generated_Source\PSoC5/PIXEL_PM.c **** 
  46:Generated_Source\PSoC5/PIXEL_PM.c **** /*******************************************************************************
  47:Generated_Source\PSoC5/PIXEL_PM.c **** * Function Name: PIXEL_RestoreConfig
  48:Generated_Source\PSoC5/PIXEL_PM.c **** ********************************************************************************
  49:Generated_Source\PSoC5/PIXEL_PM.c **** *
  50:Generated_Source\PSoC5/PIXEL_PM.c **** * Summary:
  51:Generated_Source\PSoC5/PIXEL_PM.c **** *  Restores the control register value.
  52:Generated_Source\PSoC5/PIXEL_PM.c **** *
  53:Generated_Source\PSoC5/PIXEL_PM.c **** * Parameters:
  54:Generated_Source\PSoC5/PIXEL_PM.c **** *  None
  55:Generated_Source\PSoC5/PIXEL_PM.c **** *
  56:Generated_Source\PSoC5/PIXEL_PM.c **** * Return:
  57:Generated_Source\PSoC5/PIXEL_PM.c **** *  None
  58:Generated_Source\PSoC5/PIXEL_PM.c **** *
  59:Generated_Source\PSoC5/PIXEL_PM.c **** *
  60:Generated_Source\PSoC5/PIXEL_PM.c **** *******************************************************************************/
  61:Generated_Source\PSoC5/PIXEL_PM.c **** void PIXEL_RestoreConfig(void) 
  62:Generated_Source\PSoC5/PIXEL_PM.c **** {
 247              		.loc 1 62 0
 248              		.cfi_startproc
 249              		@ args = 0, pretend = 0, frame = 0
 250              		@ frame_needed = 0, uses_anonymous_args = 0
 251              		@ link register save eliminated.
  63:Generated_Source\PSoC5/PIXEL_PM.c ****      PIXEL_Control = PIXEL_backup.controlState;
 252              		.loc 1 63 0
 253 0000 024B     		ldr	r3, .L5
 254 0002 1A78     		ldrb	r2, [r3]	@ zero_extendqisi2
 255 0004 024B     		ldr	r3, .L5+4
 256 0006 1A70     		strb	r2, [r3]
 257 0008 7047     		bx	lr
 258              	.L6:
 259 000a 00BF     		.align	2
 260              	.L5:
 261 000c 00000000 		.word	.LANCHOR0
 262 0010 7F640040 		.word	1073767551
 263              		.cfi_endproc
 264              	.LFE1:
 265              		.size	PIXEL_RestoreConfig, .-PIXEL_RestoreConfig
 266              		.section	.text.PIXEL_Sleep,"ax",%progbits
 267              		.align	2
 268              		.global	PIXEL_Sleep
 269              		.thumb
ARM GAS  C:\Users\info\AppData\Local\Temp\ccylKrox.s 			page 16


 270              		.thumb_func
 271              		.type	PIXEL_Sleep, %function
 272              	PIXEL_Sleep:
 273              	.LFB2:
  64:Generated_Source\PSoC5/PIXEL_PM.c **** }
  65:Generated_Source\PSoC5/PIXEL_PM.c **** 
  66:Generated_Source\PSoC5/PIXEL_PM.c **** 
  67:Generated_Source\PSoC5/PIXEL_PM.c **** /*******************************************************************************
  68:Generated_Source\PSoC5/PIXEL_PM.c **** * Function Name: PIXEL_Sleep
  69:Generated_Source\PSoC5/PIXEL_PM.c **** ********************************************************************************
  70:Generated_Source\PSoC5/PIXEL_PM.c **** *
  71:Generated_Source\PSoC5/PIXEL_PM.c **** * Summary:
  72:Generated_Source\PSoC5/PIXEL_PM.c **** *  Prepares the component for entering the low power mode.
  73:Generated_Source\PSoC5/PIXEL_PM.c **** *
  74:Generated_Source\PSoC5/PIXEL_PM.c **** * Parameters:
  75:Generated_Source\PSoC5/PIXEL_PM.c **** *  None
  76:Generated_Source\PSoC5/PIXEL_PM.c **** *
  77:Generated_Source\PSoC5/PIXEL_PM.c **** * Return:
  78:Generated_Source\PSoC5/PIXEL_PM.c **** *  None
  79:Generated_Source\PSoC5/PIXEL_PM.c **** *
  80:Generated_Source\PSoC5/PIXEL_PM.c **** *******************************************************************************/
  81:Generated_Source\PSoC5/PIXEL_PM.c **** void PIXEL_Sleep(void) 
  82:Generated_Source\PSoC5/PIXEL_PM.c **** {
 274              		.loc 1 82 0
 275              		.cfi_startproc
 276              		@ args = 0, pretend = 0, frame = 0
 277              		@ frame_needed = 0, uses_anonymous_args = 0
 278 0000 08B5     		push	{r3, lr}
 279              		.cfi_def_cfa_offset 8
 280              		.cfi_offset 3, -8
 281              		.cfi_offset 14, -4
  83:Generated_Source\PSoC5/PIXEL_PM.c ****     PIXEL_SaveConfig();
 282              		.loc 1 83 0
 283 0002 FFF7FEFF 		bl	PIXEL_SaveConfig
 284              	.LVL0:
 285 0006 08BD     		pop	{r3, pc}
 286              		.cfi_endproc
 287              	.LFE2:
 288              		.size	PIXEL_Sleep, .-PIXEL_Sleep
 289              		.section	.text.PIXEL_Wakeup,"ax",%progbits
 290              		.align	2
 291              		.global	PIXEL_Wakeup
 292              		.thumb
 293              		.thumb_func
 294              		.type	PIXEL_Wakeup, %function
 295              	PIXEL_Wakeup:
 296              	.LFB3:
  84:Generated_Source\PSoC5/PIXEL_PM.c **** }
  85:Generated_Source\PSoC5/PIXEL_PM.c **** 
  86:Generated_Source\PSoC5/PIXEL_PM.c **** 
  87:Generated_Source\PSoC5/PIXEL_PM.c **** /*******************************************************************************
  88:Generated_Source\PSoC5/PIXEL_PM.c **** * Function Name: PIXEL_Wakeup
  89:Generated_Source\PSoC5/PIXEL_PM.c **** ********************************************************************************
  90:Generated_Source\PSoC5/PIXEL_PM.c **** *
  91:Generated_Source\PSoC5/PIXEL_PM.c **** * Summary:
  92:Generated_Source\PSoC5/PIXEL_PM.c **** *  Restores the component after waking up from the low power mode.
  93:Generated_Source\PSoC5/PIXEL_PM.c **** *
ARM GAS  C:\Users\info\AppData\Local\Temp\ccylKrox.s 			page 17


  94:Generated_Source\PSoC5/PIXEL_PM.c **** * Parameters:
  95:Generated_Source\PSoC5/PIXEL_PM.c **** *  None
  96:Generated_Source\PSoC5/PIXEL_PM.c **** *
  97:Generated_Source\PSoC5/PIXEL_PM.c **** * Return:
  98:Generated_Source\PSoC5/PIXEL_PM.c **** *  None
  99:Generated_Source\PSoC5/PIXEL_PM.c **** *
 100:Generated_Source\PSoC5/PIXEL_PM.c **** *******************************************************************************/
 101:Generated_Source\PSoC5/PIXEL_PM.c **** void PIXEL_Wakeup(void)  
 102:Generated_Source\PSoC5/PIXEL_PM.c **** {
 297              		.loc 1 102 0
 298              		.cfi_startproc
 299              		@ args = 0, pretend = 0, frame = 0
 300              		@ frame_needed = 0, uses_anonymous_args = 0
 301 0000 08B5     		push	{r3, lr}
 302              		.cfi_def_cfa_offset 8
 303              		.cfi_offset 3, -8
 304              		.cfi_offset 14, -4
 103:Generated_Source\PSoC5/PIXEL_PM.c ****     PIXEL_RestoreConfig();
 305              		.loc 1 103 0
 306 0002 FFF7FEFF 		bl	PIXEL_RestoreConfig
 307              	.LVL1:
 308 0006 08BD     		pop	{r3, pc}
 309              		.cfi_endproc
 310              	.LFE3:
 311              		.size	PIXEL_Wakeup, .-PIXEL_Wakeup
 312              		.bss
 313              		.align	2
 314              		.set	.LANCHOR0,. + 0
 315              		.type	PIXEL_backup, %object
 316              		.size	PIXEL_backup, 1
 317              	PIXEL_backup:
 318 0000 00       		.space	1
 319              		.text
 320              	.Letext0:
 321              		.file 2 "Generated_Source\\PSoC5\\cytypes.h"
 322              		.file 3 "Generated_Source\\PSoC5\\PIXEL.h"