ARM GAS  C:\Users\info\AppData\Local\Temp\ccXhp9ac.s 			page 1


   1              		.syntax unified
   2              		.cpu cortex-m3
   3              		.fpu softvfp
   4              		.eabi_attribute 20, 1
   5              		.eabi_attribute 21, 1
   6              		.eabi_attribute 23, 3
   7              		.eabi_attribute 24, 1
   8              		.eabi_attribute 25, 1
   9              		.eabi_attribute 26, 1
  10              		.eabi_attribute 30, 1
  11              		.eabi_attribute 34, 1
  12              		.eabi_attribute 18, 4
  13              		.thumb
  14              		.syntax unified
  15              		.file	"processor.c"
  16              		.text
  17              	.Ltext0:
  18              		.cfi_sections	.debug_frame
  19              		.section	.text.execute,"ax",%progbits
  20              		.align	2
  21              		.global	execute
  22              		.thumb
  23              		.thumb_func
  24              		.type	execute, %function
  25              	execute:
  26              	.LFB63:
  27              		.file 1 "processor.c"
   1:processor.c   **** #include "project.h"
   2:processor.c   **** #include "opcodes.h"
   3:processor.c   **** #include "chip8.h"
   4:processor.c   **** 
   5:processor.c   **** void execute(uint8_t ram[], uint64_t vram[32], uint8_t* snd, 
   6:processor.c   ****                         uint8_t* tmr, volatile uint8_t* vga_update_flag){
  28              		.loc 1 6 0
  29              		.cfi_startproc
  30              		@ args = 4, pretend = 0, frame = 96
  31              		@ frame_needed = 0, uses_anonymous_args = 0
  32              	.LVL0:
  33 0000 2DE9F04F 		push	{r4, r5, r6, r7, r8, r9, r10, fp, lr}
  34              		.cfi_def_cfa_offset 36
  35              		.cfi_offset 4, -36
  36              		.cfi_offset 5, -32
  37              		.cfi_offset 6, -28
  38              		.cfi_offset 7, -24
  39              		.cfi_offset 8, -20
  40              		.cfi_offset 9, -16
  41              		.cfi_offset 10, -12
  42              		.cfi_offset 11, -8
  43              		.cfi_offset 14, -4
  44 0004 99B0     		sub	sp, sp, #100
  45              		.cfi_def_cfa_offset 136
  46 0006 0746     		mov	r7, r0
  47 0008 8A46     		mov	r10, r1
  48 000a 0B92     		str	r2, [sp, #44]
  49 000c 0A93     		str	r3, [sp, #40]
  50              	.LVL1:
   7:processor.c   ****     /* CHIP8 Register File*/
ARM GAS  C:\Users\info\AppData\Local\Temp\ccXhp9ac.s 			page 2


   8:processor.c   ****     uint8_t v[16];
   9:processor.c   ****     uint16_t i = 0;
  10:processor.c   ****     uint16_t pc = 0x0200;
  11:processor.c   ****     uint8_t sp = 0x00;
  12:processor.c   ****     uint16_t stack[16] = {0};
  51              		.loc 1 12 0
  52 000e 2022     		movs	r2, #32
  53              	.LVL2:
  54 0010 0021     		movs	r1, #0
  55              	.LVL3:
  56 0012 0CA8     		add	r0, sp, #48
  57              	.LVL4:
  58 0014 FFF7FEFF 		bl	memset
  59              	.LVL5:
  60              	.LBB2:
  13:processor.c   ****     
  14:processor.c   ****     /* Clear screen */
  15:processor.c   ****     for (uint8_t j = 0; j < 32; j++){
  61              		.loc 1 15 0
  62 0018 0023     		movs	r3, #0
  63 001a 07E0     		b	.L2
  64              	.LVL6:
  65              	.L3:
  16:processor.c   ****         vram[j] = 0;
  66              		.loc 1 16 0 discriminator 3
  67 001c 0AEBC302 		add	r2, r10, r3, lsl #3
  68 0020 0020     		movs	r0, #0
  69 0022 0021     		movs	r1, #0
  70 0024 C2E90001 		strd	r0, [r2]
  15:processor.c   ****         vram[j] = 0;
  71              		.loc 1 15 0 discriminator 3
  72 0028 0133     		adds	r3, r3, #1
  73              	.LVL7:
  74 002a DBB2     		uxtb	r3, r3
  75              	.LVL8:
  76              	.L2:
  15:processor.c   ****         vram[j] = 0;
  77              		.loc 1 15 0 is_stmt 0 discriminator 1
  78 002c 1F2B     		cmp	r3, #31
  79 002e F5D9     		bls	.L3
  80 0030 0023     		movs	r3, #0
  81              	.LVL9:
  82 0032 0893     		str	r3, [sp, #32]
  83 0034 4FF4007B 		mov	fp, #512
  84 0038 0693     		str	r3, [sp, #24]
  85 003a 5546     		mov	r5, r10
  86 003c BA46     		mov	r10, r7
  87              	.LVL10:
  88              	.L4:
  89              	.LBE2:
  90              	.LBB3:
  17:processor.c   ****     }
  18:processor.c   ****     
  19:processor.c   ****     /* Emulate away.. */
  20:processor.c   ****     while(1){
  21:processor.c   ****         /* Get the instruction at the current address */
  22:processor.c   ****         uint16_t instr = (ram[pc] << 8) | ram[pc+1];
ARM GAS  C:\Users\info\AppData\Local\Temp\ccXhp9ac.s 			page 3


  91              		.loc 1 22 0 is_stmt 1
  92 003e 1AF80B60 		ldrb	r6, [r10, fp]	@ zero_extendqisi2
  93 0042 0AEB0B03 		add	r3, r10, fp
  94 0046 5B78     		ldrb	r3, [r3, #1]	@ zero_extendqisi2
  95 0048 43EA0626 		orr	r6, r3, r6, lsl #8
  96 004c 36B2     		sxth	r6, r6
  97 004e B3B2     		uxth	r3, r6
  98              	.LVL11:
  23:processor.c   ****         
  24:processor.c   ****         /* Decode the opcodes */
  25:processor.c   ****         uint8_t op3 = (instr & 0xf000) >> 12;
  99              		.loc 1 25 0
 100 0050 1A0B     		lsrs	r2, r3, #12
 101              	.LVL12:
  26:processor.c   ****         uint8_t op2 = (instr & 0x0f00) >> 8;
 102              		.loc 1 26 0
 103 0052 C3F30324 		ubfx	r4, r3, #8, #4
 104              	.LVL13:
  27:processor.c   ****         uint8_t op10 = instr & 0x00ff;
 105              		.loc 1 27 0
 106 0056 F6B2     		uxtb	r6, r6
 107              	.LVL14:
  28:processor.c   ****         uint8_t op0 = instr & 0x000f;
 108              		.loc 1 28 0
 109 0058 06F00F0C 		and	ip, r6, #15
 110              	.LVL15:
  29:processor.c   ****         
  30:processor.c   ****         /* Decode the immediates */
  31:processor.c   ****         uint16_t nnn = instr & 0x0fff;
 111              		.loc 1 31 0
 112 005c C3F30B01 		ubfx	r1, r3, #0, #12
 113              	.LVL16:
  32:processor.c   ****         uint8_t x = (instr & 0x0f00) >> 8;
  33:processor.c   ****         uint8_t y = (instr & 0x00f0) >> 4;
 114              		.loc 1 33 0
 115 0060 C3F30313 		ubfx	r3, r3, #4, #4
 116              	.LVL17:
  34:processor.c   ****         uint8_t kk = instr & 0x00ff;
  35:processor.c   ****         uint8_t n = instr & 0x000f;
  36:processor.c   ****         
  37:processor.c   ****         /* This flag is set if an invalid OP is encountered */
  38:processor.c   ****         uint8_t invalid_op = 0;
  39:processor.c   ****         
  40:processor.c   ****         /* This flag is set if a new PC was set and must not be incremented */
  41:processor.c   ****         uint8_t freeze_pc = 0;
  42:processor.c   ****         
  43:processor.c   ****         /* Branch on opcodes and execute */
  44:processor.c   ****         switch(op3){
 117              		.loc 1 44 0
 118 0064 0F2A     		cmp	r2, #15
 119 0066 11D8     		bhi	.L5
 120 0068 DFE812F0 		tbh	[pc, r2, lsl #1]
 121              	.L7:
 122 006c 1300     		.2byte	(.L6-.L7)/2
 123 006e 7E02     		.2byte	(.L58-.L7)/2
 124 0070 3D00     		.2byte	(.L9-.L7)/2
 125 0072 4E00     		.2byte	(.L10-.L7)/2
ARM GAS  C:\Users\info\AppData\Local\Temp\ccXhp9ac.s 			page 4


 126 0074 5C00     		.2byte	(.L11-.L7)/2
 127 0076 6A00     		.2byte	(.L12-.L7)/2
 128 0078 9600     		.2byte	(.L13-.L7)/2
 129 007a 9D00     		.2byte	(.L14-.L7)/2
 130 007c A700     		.2byte	(.L15-.L7)/2
 131 007e 8000     		.2byte	(.L16-.L7)/2
 132 0080 4801     		.2byte	(.L17-.L7)/2
 133 0082 3700     		.2byte	(.L18-.L7)/2
 134 0084 4C01     		.2byte	(.L19-.L7)/2
 135 0086 BE01     		.2byte	(.L59-.L7)/2
 136 0088 E201     		.2byte	(.L21-.L7)/2
 137 008a EA01     		.2byte	(.L22-.L7)/2
 138              		.p2align 1
 139              	.L5:
  41:processor.c   ****         
 140              		.loc 1 41 0
 141 008c 0023     		movs	r3, #0
 142              	.LVL18:
  45:processor.c   ****         case OP3_SYSTEM:
  46:processor.c   ****             /* System operations */
  47:processor.c   ****             if (op2 != OP2_SYSTEM){
  48:processor.c   ****                 invalid_op = 1;
  49:processor.c   ****             } else {
  50:processor.c   ****                 switch(op10){
  51:processor.c   ****                 case OP10_SYSTEM_CLEAR:
  52:processor.c   ****                     /* Clear screen */
  53:processor.c   ****                     for (int j = 0; j < 32; j++){
  54:processor.c   ****                         vram[j] = 0;
  55:processor.c   ****                     }
  56:processor.c   ****                     break;
  57:processor.c   ****                 case OP10_SYSTEM_RETURN:
  58:processor.c   ****                     /* Return from instruction */
  59:processor.c   ****                     sp = (sp == 0x0) ? 0x0 : sp - 1;
  60:processor.c   ****                     pc = stack[sp];
  61:processor.c   ****                     freeze_pc = 1;
  62:processor.c   ****                     break;
  63:processor.c   ****                 default:
  64:processor.c   ****                     invalid_op = 1;
  65:processor.c   ****                     break;
  66:processor.c   ****                 }
  67:processor.c   ****             }
  68:processor.c   ****             break;
  69:processor.c   ****         case OP3_JUMP_ABSOLUTE:
  70:processor.c   ****             /* Jump to absolute address nnn */
  71:processor.c   ****             pc = nnn;
  72:processor.c   ****             freeze_pc = 1;
  73:processor.c   ****             break;
  74:processor.c   ****         case OP3_JUMP_OFFSET:
  75:processor.c   ****             /* Jump to absolute address nnn + offset V0 */
  76:processor.c   ****             pc = nnn + v[0];
  77:processor.c   ****             freeze_pc = 1;
  78:processor.c   ****             break;
  79:processor.c   ****         case OP3_CALL_SUBROUTINE:
  80:processor.c   ****             /* Call subroutine at nnn */
  81:processor.c   ****             stack[sp] = pc;
  82:processor.c   ****             sp = (sp == 0xf) ? 0xf : sp + 1;
  83:processor.c   ****             pc = nnn;
ARM GAS  C:\Users\info\AppData\Local\Temp\ccXhp9ac.s 			page 5


  84:processor.c   ****             freeze_pc = 1;
  85:processor.c   ****             break;
  86:processor.c   ****         case OP3_SKIP_NEXT_EQ_IM:
  87:processor.c   ****             /* Skip next instruction if Vx == kk */
  88:processor.c   ****             if (v[x] == kk) {
  89:processor.c   ****                 pc += 2;
  90:processor.c   ****             }
  91:processor.c   ****             break;
  92:processor.c   ****         case OP3_SKIP_NEXT_NEQ_IM:
  93:processor.c   ****             /* Skip next instruction if Vx != kk */
  94:processor.c   ****             if (v[x] != kk) {
  95:processor.c   ****                 pc += 2;
  96:processor.c   ****             }
  97:processor.c   ****             break;
  98:processor.c   ****         case OP3_SKIP_NEXT_EQ:
  99:processor.c   ****             /* Skip next instruction if Vx == Vy */
 100:processor.c   ****             if (op0 == OP0_SKIP_NEXT){
 101:processor.c   ****                 if (v[x] == v[y]) {
 102:processor.c   ****                     pc += 2;
 103:processor.c   ****                 }
 104:processor.c   ****             } else {
 105:processor.c   ****                 invalid_op = 1;
 106:processor.c   ****             }
 107:processor.c   ****             break;
 108:processor.c   ****         case OP3_SKIP_NEXT_NEQ:
 109:processor.c   ****             /* Skip next instruction if Vx != Vy */
 110:processor.c   ****             if (op0 == OP0_SKIP_NEXT){
 111:processor.c   ****                 if (v[x] != v[y]) {
 112:processor.c   ****                     pc += 2;
 113:processor.c   ****                 }
 114:processor.c   ****             } else {
 115:processor.c   ****                 invalid_op = 1;
 116:processor.c   ****             }
 117:processor.c   ****             break;
 118:processor.c   ****         case OP3_LOAD_V:
 119:processor.c   ****             /* Vx = kk */
 120:processor.c   ****             v[x] = kk;
 121:processor.c   ****             break;
 122:processor.c   ****         case OP3_ADD_IM:
 123:processor.c   ****             /* Vx += kk */
 124:processor.c   ****             v[x] += kk;
 125:processor.c   ****             break;
 126:processor.c   ****         case OP3_ARITH:
 127:processor.c   ****             /* Arithmetic operations */
 128:processor.c   ****             switch(op0) {
 129:processor.c   ****             case OP0_ARITH_LOAD:
 130:processor.c   ****                 /* Vx = Vy */
 131:processor.c   ****                 v[x] = v[y];
 132:processor.c   ****                 break;
 133:processor.c   ****             case OP0_ARITH_OR:
 134:processor.c   ****                 /* Vx = Vx | Vy */
 135:processor.c   ****                 v[x] |= v[y];
 136:processor.c   ****                 break;
 137:processor.c   ****             case OP0_ARITH_AND:
 138:processor.c   ****                 /* Vx = Vx & Vy */
 139:processor.c   ****                 v[x] &= v[y];
 140:processor.c   ****                 break;
ARM GAS  C:\Users\info\AppData\Local\Temp\ccXhp9ac.s 			page 6


 141:processor.c   ****             case OP0_ARITH_XOR:
 142:processor.c   ****                 /* Vx = Vx ^ Vy */
 143:processor.c   ****                 v[x] ^= v[y];
 144:processor.c   ****                 break;
 145:processor.c   ****             case OP0_ARITH_ADD:
 146:processor.c   ****                 /* Vx = Vx + Vy */
 147:processor.c   ****                 v[x] += v[y];
 148:processor.c   ****                 break;
 149:processor.c   ****             case OP0_ARITH_SUB:{
 150:processor.c   ****                 /* Vx = Vx - Vy, Vf = not borrow */
 151:processor.c   ****                 uint16_t vx = v[x];
 152:processor.c   ****                 uint16_t vy = v[y];
 153:processor.c   ****                 uint16_t diff = vx - vy;                                
 154:processor.c   ****                 v[x] = diff;
 155:processor.c   ****                 v[0xf] = (diff & 0x100) ? 0 : 1;
 156:processor.c   ****                 break;
 157:processor.c   ****             }
 158:processor.c   ****             case OP0_ARITH_SHR:
 159:processor.c   ****                 /* Vx = Vx >> Vy */
 160:processor.c   ****                 v[0xf] = (v[x] & 0x01) ? 1 : 0;
 161:processor.c   ****                 v[x] >>= 1;
 162:processor.c   ****                 break;
 163:processor.c   ****             case OP0_ARITH_SUBN:{
 164:processor.c   ****                 /* Vx = Vy - Vx, Vf = not borrow */
 165:processor.c   ****                 uint16_t vx = v[x];
 166:processor.c   ****                 uint16_t vy = v[y];
 167:processor.c   ****                 uint16_t diff = vy - vx;                                
 168:processor.c   ****                 v[x] = diff;
 169:processor.c   ****                 v[0xf] = (diff & 0x100) ? 0 : 1;
 170:processor.c   ****                 break;
 171:processor.c   ****             }
 172:processor.c   ****             case OP0_ARITH_SHL:
 173:processor.c   ****                 /* Vx = Vx << 1, Vf = carry */
 174:processor.c   ****                 v[0xf] = (v[x] & 0x80) ? 1 : 0;
 175:processor.c   ****                 v[x] <<= 1;
 176:processor.c   ****                 break;
 177:processor.c   ****             default:
 178:processor.c   ****                 invalid_op = 1;
 179:processor.c   ****                 break;
 180:processor.c   ****             }
 181:processor.c   ****             break;
 182:processor.c   ****         case OP3_LOAD_I:
 183:processor.c   ****             /* I = nnn */
 184:processor.c   ****             i = nnn;
 185:processor.c   ****             break;
 186:processor.c   ****         case OP3_RANDOM:
 187:processor.c   ****             /* Vx = (random byte) & kk */            
 188:processor.c   ****             v[x] = random_Read() & kk;
 189:processor.c   ****             break;
 190:processor.c   ****         case OP3_DRAW:{
 191:processor.c   ****             uint64_t collision = 0;
 192:processor.c   ****             /* Draw sprite from I at (Vx, Vy), vf = collision, see reference */
 193:processor.c   ****             for (int j = 0; j < n; j++){
 194:processor.c   ****                 uint64_t row = 0;
 195:processor.c   ****                 if (v[x] <= 56){
 196:processor.c   ****                     row = ((uint64_t)ram[i + j]) << (56 - v[x]);
 197:processor.c   ****                 } else {
ARM GAS  C:\Users\info\AppData\Local\Temp\ccXhp9ac.s 			page 7


 198:processor.c   ****                     row = ((uint64_t)ram[i + j]) >> (v[x] - 56)
 199:processor.c   ****                         | ((uint64_t)ram[i + j]) << (120 - v[x]);
 200:processor.c   ****                 }
 201:processor.c   ****                 collision |= vram[(v[y] + j) % 32] & row;
 202:processor.c   ****                 vram[(v[y] + j) % 32] ^= row;
 203:processor.c   ****             }
 204:processor.c   ****             v[0xf] = collision ? 1 : 0;
 205:processor.c   ****             *vga_update_flag = 1;
 206:processor.c   ****             break;
 207:processor.c   ****         }
 208:processor.c   ****         case OP3_KEYBOARD:
 209:processor.c   ****             /* Keyboard operations */
 210:processor.c   ****             switch(op10){
 211:processor.c   ****             case OP10_KEYBOARD_EQ:
 212:processor.c   ****                 /* Skip next instruction if Vx pressed */
 213:processor.c   ****                 break;
 214:processor.c   ****             case OP10_KEYBOARD_NEQ: 
 215:processor.c   ****                 /* Skip next instruction if Vx not pressed */
 216:processor.c   ****                 break;
 217:processor.c   ****             default:
 218:processor.c   ****                 invalid_op = 1;
 219:processor.c   ****                 break;
 220:processor.c   ****             }
 221:processor.c   ****             break;
 222:processor.c   ****         case OP3_SPECIAL:
 223:processor.c   ****             /* Special instructions, see reference for each */
 224:processor.c   ****             switch(op10){
 225:processor.c   ****             case OP10_SPECIAL_LOAD_DELAY:
 226:processor.c   ****                 /* Vx = delay timer */
 227:processor.c   ****                 v[x] = *tmr;
 228:processor.c   ****                 break;
 229:processor.c   ****             case OP10_SPECIAL_LOAD_KEYBOARD:
 230:processor.c   ****                 /* Vx = keypress, blocks till something pressed */
 231:processor.c   ****                 break;
 232:processor.c   ****             case OP10_SPECIAL_SET_DELAY:
 233:processor.c   ****                 /* delay timer = Vx */
 234:processor.c   ****                 *tmr = v[x];
 235:processor.c   ****                 break;
 236:processor.c   ****             case OP10_SPECIAL_SET_SOUND:
 237:processor.c   ****                 /* sound timer = Vx */
 238:processor.c   ****                 *snd = v[x];
 239:processor.c   ****                 break;
 240:processor.c   ****             case OP10_SPECIAL_ADD_TO_I:
 241:processor.c   ****                 /* I += Vx */
 242:processor.c   ****                 i += v[x];
 243:processor.c   ****                 break;
 244:processor.c   ****             case OP10_SPECIAL_LOAD_FONT:
 245:processor.c   ****                 /* I = location of sprite for hex digit Vx */
 246:processor.c   ****                 i = (v[x] & 0xf) * 5;
 247:processor.c   ****                 break;
 248:processor.c   ****             case OP10_SPECIAL_LOAD_BCD:
 249:processor.c   ****                 /* BCD hundreds to units of Vx in I to I+2 */
 250:processor.c   ****                 ram[i] = (uint8_t)(v[x] / 100) % 10;
 251:processor.c   ****                 ram[i+1] = (uint8_t)(v[x] / 10) % 10;
 252:processor.c   ****                 ram[i+2] = (uint8_t)(v[x]) % 10;
 253:processor.c   ****                 break;
 254:processor.c   ****             case OP10_SPECIAL_LOAD_AT_I:
ARM GAS  C:\Users\info\AppData\Local\Temp\ccXhp9ac.s 			page 8


 255:processor.c   ****                 /* Store V0 to Vx in I to I+x */
 256:processor.c   ****                 for (uint8_t j = 0; j <= x; j++){
 257:processor.c   ****                     ram[i + j] = v[j];
 258:processor.c   ****                 }
 259:processor.c   ****                 break;
 260:processor.c   ****             case OP10_SPECIAL_SET_AT_I:
 261:processor.c   ****                 /* Restore V0 to Vx from I to I+x */
 262:processor.c   ****                 for (uint8_t j = 0; j <= x; j++){
 263:processor.c   ****                     v[j] = ram[i + j];
 264:processor.c   ****                 }
 265:processor.c   ****                 break;
 266:processor.c   ****             default:
 267:processor.c   ****                 invalid_op = 1;
 268:processor.c   ****                 break;
 269:processor.c   ****             }
 270:processor.c   ****             break;
 271:processor.c   ****         default:
 272:processor.c   ****             invalid_op = 1;
 143              		.loc 1 272 0
 144 008e 0122     		movs	r2, #1
 145              	.LVL19:
 146 0090 92E2     		b	.L8
 147              	.LVL20:
 148              	.L6:
  47:processor.c   ****                 invalid_op = 1;
 149              		.loc 1 47 0
 150 0092 002C     		cmp	r4, #0
 151 0094 40F06C82 		bne	.L60
  50:processor.c   ****                 case OP10_SYSTEM_CLEAR:
 152              		.loc 1 50 0
 153 0098 E02E     		cmp	r6, #224
 154 009a 0AD0     		beq	.L62
 155 009c EE2E     		cmp	r6, #238
 156 009e 0ED0     		beq	.L24
 157 00a0 69E2     		b	.L75
 158              	.LVL21:
 159              	.L25:
 160              	.LBB4:
  54:processor.c   ****                     }
 161              		.loc 1 54 0 discriminator 3
 162 00a2 05EBC302 		add	r2, r5, r3, lsl #3
 163 00a6 0020     		movs	r0, #0
 164 00a8 0021     		movs	r1, #0
 165 00aa C2E90001 		strd	r0, [r2]
  53:processor.c   ****                         vram[j] = 0;
 166              		.loc 1 53 0 discriminator 3
 167 00ae 0133     		adds	r3, r3, #1
 168              	.LVL22:
 169 00b0 00E0     		b	.L23
 170              	.LVL23:
 171              	.L62:
 172              	.LBE4:
  50:processor.c   ****                 case OP10_SYSTEM_CLEAR:
 173              		.loc 1 50 0
 174 00b2 0023     		movs	r3, #0
 175              	.LVL24:
 176              	.L23:
ARM GAS  C:\Users\info\AppData\Local\Temp\ccXhp9ac.s 			page 9


 177              	.LBB5:
  53:processor.c   ****                         vram[j] = 0;
 178              		.loc 1 53 0 discriminator 1
 179 00b4 1F2B     		cmp	r3, #31
 180 00b6 F4DD     		ble	.L25
 181              	.LBE5:
  41:processor.c   ****         
 182              		.loc 1 41 0
 183 00b8 0023     		movs	r3, #0
 184              	.LVL25:
  38:processor.c   ****         
 185              		.loc 1 38 0
 186 00ba 1A46     		mov	r2, r3
 187 00bc 7CE2     		b	.L8
 188              	.LVL26:
 189              	.L24:
  59:processor.c   ****                     pc = stack[sp];
 190              		.loc 1 59 0
 191 00be 089B     		ldr	r3, [sp, #32]
 192              	.LVL27:
 193 00c0 13B1     		cbz	r3, .L26
  59:processor.c   ****                     pc = stack[sp];
 194              		.loc 1 59 0 is_stmt 0 discriminator 1
 195 00c2 013B     		subs	r3, r3, #1
 196 00c4 DBB2     		uxtb	r3, r3
 197 00c6 0893     		str	r3, [sp, #32]
 198              	.LVL28:
 199              	.L26:
  60:processor.c   ****                     freeze_pc = 1;
 200              		.loc 1 60 0 is_stmt 1 discriminator 4
 201 00c8 18AA     		add	r2, sp, #96
 202              	.LVL29:
 203 00ca 089B     		ldr	r3, [sp, #32]
 204 00cc 02EB4303 		add	r3, r2, r3, lsl #1
 205 00d0 33F830BC 		ldrh	fp, [r3, #-48]
 206              	.LVL30:
  61:processor.c   ****                     break;
 207              		.loc 1 61 0 discriminator 4
 208 00d4 0123     		movs	r3, #1
  38:processor.c   ****         
 209              		.loc 1 38 0 discriminator 4
 210 00d6 0022     		movs	r2, #0
  62:processor.c   ****                 default:
 211              		.loc 1 62 0 discriminator 4
 212 00d8 6EE2     		b	.L8
 213              	.LVL31:
 214              	.L18:
  76:processor.c   ****             freeze_pc = 1;
 215              		.loc 1 76 0
 216 00da 9DF850B0 		ldrb	fp, [sp, #80]	@ zero_extendqisi2
 217              	.LVL32:
 218 00de 8B44     		add	fp, fp, r1
 219              	.LVL33:
  77:processor.c   ****             break;
 220              		.loc 1 77 0
 221 00e0 0123     		movs	r3, #1
 222              	.LVL34:
ARM GAS  C:\Users\info\AppData\Local\Temp\ccXhp9ac.s 			page 10


  38:processor.c   ****         
 223              		.loc 1 38 0
 224 00e2 0022     		movs	r2, #0
 225              	.LVL35:
  78:processor.c   ****         case OP3_CALL_SUBROUTINE:
 226              		.loc 1 78 0
 227 00e4 68E2     		b	.L8
 228              	.LVL36:
 229              	.L9:
  81:processor.c   ****             sp = (sp == 0xf) ? 0xf : sp + 1;
 230              		.loc 1 81 0
 231 00e6 18A8     		add	r0, sp, #96
 232 00e8 089A     		ldr	r2, [sp, #32]
 233              	.LVL37:
 234 00ea 00EB4203 		add	r3, r0, r2, lsl #1
 235              	.LVL38:
 236 00ee 23F830BC 		strh	fp, [r3, #-48]	@ movhi
  82:processor.c   ****             pc = nnn;
 237              		.loc 1 82 0
 238 00f2 1346     		mov	r3, r2
 239 00f4 0F2A     		cmp	r2, #15
 240 00f6 00F04182 		beq	.L63
  82:processor.c   ****             pc = nnn;
 241              		.loc 1 82 0 is_stmt 0 discriminator 1
 242 00fa 0133     		adds	r3, r3, #1
 243 00fc DBB2     		uxtb	r3, r3
 244 00fe 0893     		str	r3, [sp, #32]
 245              	.LVL39:
  83:processor.c   ****             freeze_pc = 1;
 246              		.loc 1 83 0 is_stmt 1 discriminator 1
 247 0100 8B46     		mov	fp, r1
 248              	.LVL40:
  84:processor.c   ****             break;
 249              		.loc 1 84 0 discriminator 1
 250 0102 0123     		movs	r3, #1
  38:processor.c   ****         
 251              		.loc 1 38 0 discriminator 1
 252 0104 0022     		movs	r2, #0
 253              	.LVL41:
 254 0106 57E2     		b	.L8
 255              	.LVL42:
 256              	.L10:
  88:processor.c   ****                 pc += 2;
 257              		.loc 1 88 0
 258 0108 18AB     		add	r3, sp, #96
 259              	.LVL43:
 260 010a 1C44     		add	r4, r4, r3
 261              	.LVL44:
 262 010c 14F8103C 		ldrb	r3, [r4, #-16]	@ zero_extendqisi2
 263 0110 9E42     		cmp	r6, r3
 264 0112 40F03782 		bne	.L64
  89:processor.c   ****             }
 265              		.loc 1 89 0
 266 0116 0BF1020B 		add	fp, fp, #2
 267              	.LVL45:
 268 011a 1FFA8BFB 		uxth	fp, fp
 269              	.LVL46:
ARM GAS  C:\Users\info\AppData\Local\Temp\ccXhp9ac.s 			page 11


  41:processor.c   ****         
 270              		.loc 1 41 0
 271 011e 0023     		movs	r3, #0
  38:processor.c   ****         
 272              		.loc 1 38 0
 273 0120 1A46     		mov	r2, r3
 274              	.LVL47:
 275 0122 49E2     		b	.L8
 276              	.LVL48:
 277              	.L11:
  94:processor.c   ****                 pc += 2;
 278              		.loc 1 94 0
 279 0124 18AB     		add	r3, sp, #96
 280              	.LVL49:
 281 0126 1C44     		add	r4, r4, r3
 282              	.LVL50:
 283 0128 14F8103C 		ldrb	r3, [r4, #-16]	@ zero_extendqisi2
 284 012c 9E42     		cmp	r6, r3
 285 012e 00F02C82 		beq	.L65
  95:processor.c   ****             }
 286              		.loc 1 95 0
 287 0132 0BF1020B 		add	fp, fp, #2
 288              	.LVL51:
 289 0136 1FFA8BFB 		uxth	fp, fp
 290              	.LVL52:
  41:processor.c   ****         
 291              		.loc 1 41 0
 292 013a 0023     		movs	r3, #0
  38:processor.c   ****         
 293              		.loc 1 38 0
 294 013c 1A46     		mov	r2, r3
 295              	.LVL53:
 296 013e 3BE2     		b	.L8
 297              	.LVL54:
 298              	.L12:
 100:processor.c   ****                 if (v[x] == v[y]) {
 299              		.loc 1 100 0
 300 0140 BCF1000F 		cmp	ip, #0
 301 0144 40F02482 		bne	.L66
 101:processor.c   ****                     pc += 2;
 302              		.loc 1 101 0
 303 0148 18AA     		add	r2, sp, #96
 304              	.LVL55:
 305 014a 1444     		add	r4, r4, r2
 306              	.LVL56:
 307 014c 14F8102C 		ldrb	r2, [r4, #-16]	@ zero_extendqisi2
 308 0150 18A9     		add	r1, sp, #96
 309              	.LVL57:
 310 0152 0B44     		add	r3, r3, r1
 311              	.LVL58:
 312 0154 13F8103C 		ldrb	r3, [r3, #-16]	@ zero_extendqisi2
 313 0158 9A42     		cmp	r2, r3
 314 015a 40F01C82 		bne	.L67
 102:processor.c   ****                 }
 315              		.loc 1 102 0
 316 015e 0BF1020B 		add	fp, fp, #2
 317              	.LVL59:
ARM GAS  C:\Users\info\AppData\Local\Temp\ccXhp9ac.s 			page 12


 318 0162 1FFA8BFB 		uxth	fp, fp
 319              	.LVL60:
  41:processor.c   ****         
 320              		.loc 1 41 0
 321 0166 0023     		movs	r3, #0
  38:processor.c   ****         
 322              		.loc 1 38 0
 323 0168 1A46     		mov	r2, r3
 324 016a 25E2     		b	.L8
 325              	.LVL61:
 326              	.L16:
 110:processor.c   ****                 if (v[x] != v[y]) {
 327              		.loc 1 110 0
 328 016c BCF1000F 		cmp	ip, #0
 329 0170 40F01482 		bne	.L68
 111:processor.c   ****                     pc += 2;
 330              		.loc 1 111 0
 331 0174 18AA     		add	r2, sp, #96
 332              	.LVL62:
 333 0176 1444     		add	r4, r4, r2
 334              	.LVL63:
 335 0178 14F8102C 		ldrb	r2, [r4, #-16]	@ zero_extendqisi2
 336 017c 18A9     		add	r1, sp, #96
 337              	.LVL64:
 338 017e 0B44     		add	r3, r3, r1
 339              	.LVL65:
 340 0180 13F8103C 		ldrb	r3, [r3, #-16]	@ zero_extendqisi2
 341 0184 9A42     		cmp	r2, r3
 342 0186 00F00C82 		beq	.L69
 112:processor.c   ****                 }
 343              		.loc 1 112 0
 344 018a 0BF1020B 		add	fp, fp, #2
 345              	.LVL66:
 346 018e 1FFA8BFB 		uxth	fp, fp
 347              	.LVL67:
  41:processor.c   ****         
 348              		.loc 1 41 0
 349 0192 0023     		movs	r3, #0
  38:processor.c   ****         
 350              		.loc 1 38 0
 351 0194 1A46     		mov	r2, r3
 352 0196 0FE2     		b	.L8
 353              	.LVL68:
 354              	.L13:
 120:processor.c   ****             break;
 355              		.loc 1 120 0
 356 0198 18AB     		add	r3, sp, #96
 357              	.LVL69:
 358 019a 1C44     		add	r4, r4, r3
 359              	.LVL70:
 360 019c 04F8106C 		strb	r6, [r4, #-16]
  41:processor.c   ****         
 361              		.loc 1 41 0
 362 01a0 0023     		movs	r3, #0
  38:processor.c   ****         
 363              		.loc 1 38 0
 364 01a2 1A46     		mov	r2, r3
ARM GAS  C:\Users\info\AppData\Local\Temp\ccXhp9ac.s 			page 13


 365              	.LVL71:
 121:processor.c   ****         case OP3_ADD_IM:
 366              		.loc 1 121 0
 367 01a4 08E2     		b	.L8
 368              	.LVL72:
 369              	.L14:
 124:processor.c   ****             break;
 370              		.loc 1 124 0
 371 01a6 18AB     		add	r3, sp, #96
 372              	.LVL73:
 373 01a8 1C44     		add	r4, r4, r3
 374              	.LVL74:
 375 01aa 14F8103C 		ldrb	r3, [r4, #-16]	@ zero_extendqisi2
 376 01ae 1E44     		add	r6, r6, r3
 377              	.LVL75:
 378 01b0 04F8106C 		strb	r6, [r4, #-16]
  41:processor.c   ****         
 379              		.loc 1 41 0
 380 01b4 0023     		movs	r3, #0
  38:processor.c   ****         
 381              		.loc 1 38 0
 382 01b6 1A46     		mov	r2, r3
 383              	.LVL76:
 125:processor.c   ****         case OP3_ARITH:
 384              		.loc 1 125 0
 385 01b8 FEE1     		b	.L8
 386              	.LVL77:
 387              	.L15:
 128:processor.c   ****             case OP0_ARITH_LOAD:
 388              		.loc 1 128 0
 389 01ba BCF10E0F 		cmp	ip, #14
 390 01be 00F2F381 		bhi	.L70
 391 01c2 DFE81CF0 		tbh	[pc, ip, lsl #1]
 392              	.LVL78:
 393              	.L28:
 394 01c6 0F00     		.2byte	(.L27-.L28)/2
 395 01c8 1900     		.2byte	(.L29-.L28)/2
 396 01ca 2700     		.2byte	(.L30-.L28)/2
 397 01cc 3500     		.2byte	(.L31-.L28)/2
 398 01ce 4300     		.2byte	(.L32-.L28)/2
 399 01d0 5100     		.2byte	(.L33-.L28)/2
 400 01d2 6700     		.2byte	(.L34-.L28)/2
 401 01d4 7700     		.2byte	(.L35-.L28)/2
 402 01d6 F101     		.2byte	(.L70-.L28)/2
 403 01d8 F101     		.2byte	(.L70-.L28)/2
 404 01da F101     		.2byte	(.L70-.L28)/2
 405 01dc F101     		.2byte	(.L70-.L28)/2
 406 01de F101     		.2byte	(.L70-.L28)/2
 407 01e0 F101     		.2byte	(.L70-.L28)/2
 408 01e2 8C00     		.2byte	(.L36-.L28)/2
 409              		.p2align 1
 410              	.L27:
 131:processor.c   ****                 break;
 411              		.loc 1 131 0
 412 01e4 18AA     		add	r2, sp, #96
 413 01e6 1344     		add	r3, r3, r2
 414              	.LVL79:
ARM GAS  C:\Users\info\AppData\Local\Temp\ccXhp9ac.s 			page 14


 415 01e8 13F8103C 		ldrb	r3, [r3, #-16]	@ zero_extendqisi2
 416 01ec 1444     		add	r4, r4, r2
 417              	.LVL80:
 418 01ee 04F8103C 		strb	r3, [r4, #-16]
  41:processor.c   ****         
 419              		.loc 1 41 0
 420 01f2 0023     		movs	r3, #0
  38:processor.c   ****         
 421              		.loc 1 38 0
 422 01f4 1A46     		mov	r2, r3
 132:processor.c   ****             case OP0_ARITH_OR:
 423              		.loc 1 132 0
 424 01f6 DFE1     		b	.L8
 425              	.LVL81:
 426              	.L29:
 135:processor.c   ****                 break;
 427              		.loc 1 135 0
 428 01f8 18AA     		add	r2, sp, #96
 429 01fa 1344     		add	r3, r3, r2
 430              	.LVL82:
 431 01fc 13F8102C 		ldrb	r2, [r3, #-16]	@ zero_extendqisi2
 432 0200 18AB     		add	r3, sp, #96
 433 0202 1C44     		add	r4, r4, r3
 434              	.LVL83:
 435 0204 14F8103C 		ldrb	r3, [r4, #-16]	@ zero_extendqisi2
 436 0208 1343     		orrs	r3, r3, r2
 437 020a 04F8103C 		strb	r3, [r4, #-16]
  41:processor.c   ****         
 438              		.loc 1 41 0
 439 020e 0023     		movs	r3, #0
  38:processor.c   ****         
 440              		.loc 1 38 0
 441 0210 1A46     		mov	r2, r3
 136:processor.c   ****             case OP0_ARITH_AND:
 442              		.loc 1 136 0
 443 0212 D1E1     		b	.L8
 444              	.LVL84:
 445              	.L30:
 139:processor.c   ****                 break;
 446              		.loc 1 139 0
 447 0214 18AA     		add	r2, sp, #96
 448 0216 1344     		add	r3, r3, r2
 449              	.LVL85:
 450 0218 13F8102C 		ldrb	r2, [r3, #-16]	@ zero_extendqisi2
 451 021c 18AB     		add	r3, sp, #96
 452 021e 1C44     		add	r4, r4, r3
 453              	.LVL86:
 454 0220 14F8103C 		ldrb	r3, [r4, #-16]	@ zero_extendqisi2
 455 0224 1340     		ands	r3, r3, r2
 456 0226 04F8103C 		strb	r3, [r4, #-16]
  41:processor.c   ****         
 457              		.loc 1 41 0
 458 022a 0023     		movs	r3, #0
  38:processor.c   ****         
 459              		.loc 1 38 0
 460 022c 1A46     		mov	r2, r3
 140:processor.c   ****             case OP0_ARITH_XOR:
ARM GAS  C:\Users\info\AppData\Local\Temp\ccXhp9ac.s 			page 15


 461              		.loc 1 140 0
 462 022e C3E1     		b	.L8
 463              	.LVL87:
 464              	.L31:
 143:processor.c   ****                 break;
 465              		.loc 1 143 0
 466 0230 18AA     		add	r2, sp, #96
 467 0232 1344     		add	r3, r3, r2
 468              	.LVL88:
 469 0234 13F8102C 		ldrb	r2, [r3, #-16]	@ zero_extendqisi2
 470 0238 18AB     		add	r3, sp, #96
 471 023a 1C44     		add	r4, r4, r3
 472              	.LVL89:
 473 023c 14F8103C 		ldrb	r3, [r4, #-16]	@ zero_extendqisi2
 474 0240 5340     		eors	r3, r3, r2
 475 0242 04F8103C 		strb	r3, [r4, #-16]
  41:processor.c   ****         
 476              		.loc 1 41 0
 477 0246 0023     		movs	r3, #0
  38:processor.c   ****         
 478              		.loc 1 38 0
 479 0248 1A46     		mov	r2, r3
 144:processor.c   ****             case OP0_ARITH_ADD:
 480              		.loc 1 144 0
 481 024a B5E1     		b	.L8
 482              	.LVL90:
 483              	.L32:
 147:processor.c   ****                 break;
 484              		.loc 1 147 0
 485 024c 18AA     		add	r2, sp, #96
 486 024e 1344     		add	r3, r3, r2
 487              	.LVL91:
 488 0250 13F8102C 		ldrb	r2, [r3, #-16]	@ zero_extendqisi2
 489 0254 18AB     		add	r3, sp, #96
 490 0256 1C44     		add	r4, r4, r3
 491              	.LVL92:
 492 0258 14F8103C 		ldrb	r3, [r4, #-16]	@ zero_extendqisi2
 493 025c 1344     		add	r3, r3, r2
 494 025e 04F8103C 		strb	r3, [r4, #-16]
  41:processor.c   ****         
 495              		.loc 1 41 0
 496 0262 0023     		movs	r3, #0
  38:processor.c   ****         
 497              		.loc 1 38 0
 498 0264 1A46     		mov	r2, r3
 148:processor.c   ****             case OP0_ARITH_SUB:{
 499              		.loc 1 148 0
 500 0266 A7E1     		b	.L8
 501              	.LVL93:
 502              	.L33:
 503              	.LBB6:
 151:processor.c   ****                 uint16_t vy = v[y];
 504              		.loc 1 151 0
 505 0268 18AA     		add	r2, sp, #96
 506 026a 1444     		add	r4, r4, r2
 507              	.LVL94:
 508 026c 14F8102C 		ldrb	r2, [r4, #-16]	@ zero_extendqisi2
ARM GAS  C:\Users\info\AppData\Local\Temp\ccXhp9ac.s 			page 16


 509              	.LVL95:
 152:processor.c   ****                 uint16_t diff = vx - vy;                                
 510              		.loc 1 152 0
 511 0270 18A9     		add	r1, sp, #96
 512              	.LVL96:
 513 0272 0B44     		add	r3, r3, r1
 514              	.LVL97:
 515 0274 13F8101C 		ldrb	r1, [r3, #-16]	@ zero_extendqisi2
 516              	.LVL98:
 153:processor.c   ****                 v[x] = diff;
 517              		.loc 1 153 0
 518 0278 531A     		subs	r3, r2, r1
 519              	.LVL99:
 154:processor.c   ****                 v[0xf] = (diff & 0x100) ? 0 : 1;
 520              		.loc 1 154 0
 521 027a 04F8103C 		strb	r3, [r4, #-16]
 155:processor.c   ****                 break;
 522              		.loc 1 155 0
 523 027e C3F30723 		ubfx	r3, r3, #8, #8
 524              	.LVL100:
 525 0282 83F00103 		eor	r3, r3, #1
 526 0286 03F00103 		and	r3, r3, #1
 527 028a 8DF85F30 		strb	r3, [sp, #95]
 528              	.LBE6:
  41:processor.c   ****         
 529              		.loc 1 41 0
 530 028e 0023     		movs	r3, #0
  38:processor.c   ****         
 531              		.loc 1 38 0
 532 0290 1A46     		mov	r2, r3
 533              	.LVL101:
 534              	.LBB7:
 156:processor.c   ****             }
 535              		.loc 1 156 0
 536 0292 91E1     		b	.L8
 537              	.LVL102:
 538              	.L34:
 539              	.LBE7:
 160:processor.c   ****                 v[x] >>= 1;
 540              		.loc 1 160 0
 541 0294 18AB     		add	r3, sp, #96
 542              	.LVL103:
 543 0296 1C44     		add	r4, r4, r3
 544              	.LVL104:
 545 0298 14F8103C 		ldrb	r3, [r4, #-16]	@ zero_extendqisi2
 546 029c 03F00103 		and	r3, r3, #1
 547 02a0 8DF85F30 		strb	r3, [sp, #95]
 161:processor.c   ****                 break;
 548              		.loc 1 161 0
 549 02a4 14F8103C 		ldrb	r3, [r4, #-16]	@ zero_extendqisi2
 550 02a8 5B08     		lsrs	r3, r3, #1
 551 02aa 04F8103C 		strb	r3, [r4, #-16]
  41:processor.c   ****         
 552              		.loc 1 41 0
 553 02ae 0023     		movs	r3, #0
  38:processor.c   ****         
 554              		.loc 1 38 0
ARM GAS  C:\Users\info\AppData\Local\Temp\ccXhp9ac.s 			page 17


 555 02b0 1A46     		mov	r2, r3
 162:processor.c   ****             case OP0_ARITH_SUBN:{
 556              		.loc 1 162 0
 557 02b2 81E1     		b	.L8
 558              	.LVL105:
 559              	.L35:
 560              	.LBB8:
 165:processor.c   ****                 uint16_t vy = v[y];
 561              		.loc 1 165 0
 562 02b4 18AA     		add	r2, sp, #96
 563 02b6 1444     		add	r4, r4, r2
 564              	.LVL106:
 565 02b8 14F8101C 		ldrb	r1, [r4, #-16]	@ zero_extendqisi2
 566              	.LVL107:
 166:processor.c   ****                 uint16_t diff = vy - vx;                                
 567              		.loc 1 166 0
 568 02bc 1344     		add	r3, r3, r2
 569              	.LVL108:
 570 02be 13F8102C 		ldrb	r2, [r3, #-16]	@ zero_extendqisi2
 571              	.LVL109:
 167:processor.c   ****                 v[x] = diff;
 572              		.loc 1 167 0
 573 02c2 531A     		subs	r3, r2, r1
 574              	.LVL110:
 168:processor.c   ****                 v[0xf] = (diff & 0x100) ? 0 : 1;
 575              		.loc 1 168 0
 576 02c4 04F8103C 		strb	r3, [r4, #-16]
 169:processor.c   ****                 break;
 577              		.loc 1 169 0
 578 02c8 C3F30723 		ubfx	r3, r3, #8, #8
 579              	.LVL111:
 580 02cc 83F00103 		eor	r3, r3, #1
 581 02d0 03F00103 		and	r3, r3, #1
 582 02d4 8DF85F30 		strb	r3, [sp, #95]
 583              	.LBE8:
  41:processor.c   ****         
 584              		.loc 1 41 0
 585 02d8 0023     		movs	r3, #0
  38:processor.c   ****         
 586              		.loc 1 38 0
 587 02da 1A46     		mov	r2, r3
 588              	.LVL112:
 589              	.LBB9:
 170:processor.c   ****             }
 590              		.loc 1 170 0
 591 02dc 6CE1     		b	.L8
 592              	.LVL113:
 593              	.L36:
 594              	.LBE9:
 174:processor.c   ****                 v[x] <<= 1;
 595              		.loc 1 174 0
 596 02de 18AB     		add	r3, sp, #96
 597              	.LVL114:
 598 02e0 1C44     		add	r4, r4, r3
 599              	.LVL115:
 600 02e2 14F8103C 		ldrb	r3, [r4, #-16]	@ zero_extendqisi2
 601 02e6 DB09     		lsrs	r3, r3, #7
ARM GAS  C:\Users\info\AppData\Local\Temp\ccXhp9ac.s 			page 18


 602 02e8 8DF85F30 		strb	r3, [sp, #95]
 175:processor.c   ****                 break;
 603              		.loc 1 175 0
 604 02ec 14F8103C 		ldrb	r3, [r4, #-16]	@ zero_extendqisi2
 605 02f0 5B00     		lsls	r3, r3, #1
 606 02f2 04F8103C 		strb	r3, [r4, #-16]
  41:processor.c   ****         
 607              		.loc 1 41 0
 608 02f6 0023     		movs	r3, #0
  38:processor.c   ****         
 609              		.loc 1 38 0
 610 02f8 1A46     		mov	r2, r3
 176:processor.c   ****             default:
 611              		.loc 1 176 0
 612 02fa 5DE1     		b	.L8
 613              	.LVL116:
 614              	.L17:
 184:processor.c   ****             break;
 615              		.loc 1 184 0
 616 02fc 0691     		str	r1, [sp, #24]
  41:processor.c   ****         
 617              		.loc 1 41 0
 618 02fe 0023     		movs	r3, #0
 619              	.LVL117:
  38:processor.c   ****         
 620              		.loc 1 38 0
 621 0300 1A46     		mov	r2, r3
 622              	.LVL118:
 185:processor.c   ****         case OP3_RANDOM:
 623              		.loc 1 185 0
 624 0302 59E1     		b	.L8
 625              	.LVL119:
 626              	.L19:
 188:processor.c   ****             break;
 627              		.loc 1 188 0
 628 0304 FFF7FEFF 		bl	random_Read
 629              	.LVL120:
 630 0308 18AB     		add	r3, sp, #96
 631 030a 1C44     		add	r4, r4, r3
 632              	.LVL121:
 633 030c 3040     		ands	r0, r0, r6
 634 030e 04F8100C 		strb	r0, [r4, #-16]
  41:processor.c   ****         
 635              		.loc 1 41 0
 636 0312 0023     		movs	r3, #0
  38:processor.c   ****         
 637              		.loc 1 38 0
 638 0314 1A46     		mov	r2, r3
 189:processor.c   ****         case OP3_DRAW:{
 639              		.loc 1 189 0
 640 0316 4FE1     		b	.L8
 641              	.LVL122:
 642              	.L40:
 643              	.LBB10:
 644              	.LBB11:
 645              	.LBB12:
 195:processor.c   ****                     row = ((uint64_t)ram[i + j]) << (56 - v[x]);
ARM GAS  C:\Users\info\AppData\Local\Temp\ccXhp9ac.s 			page 19


 646              		.loc 1 195 0
 647 0318 18A9     		add	r1, sp, #96
 648 031a 3944     		add	r1, r1, r7
 649 031c 11F8104C 		ldrb	r4, [r1, #-16]	@ zero_extendqisi2
 650 0320 382C     		cmp	r4, #56
 651 0322 15D8     		bhi	.L37
 196:processor.c   ****                 } else {
 652              		.loc 1 196 0
 653 0324 0699     		ldr	r1, [sp, #24]
 654 0326 1144     		add	r1, r1, r2
 655 0328 585C     		ldrb	r0, [r3, r1]	@ zero_extendqisi2
 656 032a C4F13804 		rsb	r4, r4, #56
 657 032e A4F12005 		sub	r5, r4, #32
 658 0332 C4F12001 		rsb	r1, r4, #32
 659 0336 4FF00009 		mov	r9, #0
 660 033a 00FA05F5 		lsl	r5, r0, r5
 661 033e 49EA0509 		orr	r9, r9, r5
 662 0342 20FA01F1 		lsr	r1, r0, r1
 663 0346 49EA0109 		orr	r9, r9, r1
 664 034a 00FA04F8 		lsl	r8, r0, r4
 665              	.LVL123:
 666 034e 21E0     		b	.L38
 667              	.LVL124:
 668              	.L37:
 198:processor.c   ****                         | ((uint64_t)ram[i + j]) << (120 - v[x]);
 669              		.loc 1 198 0
 670 0350 0699     		ldr	r1, [sp, #24]
 671 0352 1144     		add	r1, r1, r2
 672 0354 585C     		ldrb	r0, [r3, r1]	@ zero_extendqisi2
 673 0356 A4F13801 		sub	r1, r4, #56
 674 035a 20FA01F5 		lsr	r5, r0, r1
 675 035e 0495     		str	r5, [sp, #16]
 676 0360 0025     		movs	r5, #0
 677 0362 0595     		str	r5, [sp, #20]
 199:processor.c   ****                 }
 678              		.loc 1 199 0
 679 0364 C4F17804 		rsb	r4, r4, #120
 680 0368 A4F12005 		sub	r5, r4, #32
 681 036c C4F12001 		rsb	r1, r4, #32
 682 0370 4FF0000B 		mov	fp, #0
 683 0374 00FA05F5 		lsl	r5, r0, r5
 684 0378 4BEA050B 		orr	fp, fp, r5
 685 037c 20FA01F1 		lsr	r1, r0, r1
 686 0380 4BEA010B 		orr	fp, fp, r1
 687 0384 00FA04FA 		lsl	r10, r0, r4
 198:processor.c   ****                         | ((uint64_t)ram[i + j]) << (120 - v[x]);
 688              		.loc 1 198 0
 689 0388 DDE90489 		ldrd	r8, [sp, #16]
 690 038c 48EA0A08 		orr	r8, r8, r10
 691 0390 49EA0B09 		orr	r9, r9, fp
 692              	.LVL125:
 693              	.L38:
 201:processor.c   ****                 vram[(v[y] + j) % 32] ^= row;
 694              		.loc 1 201 0 discriminator 2
 695 0394 18A9     		add	r1, sp, #96
 696 0396 0798     		ldr	r0, [sp, #28]
 697 0398 0144     		add	r1, r1, r0
ARM GAS  C:\Users\info\AppData\Local\Temp\ccXhp9ac.s 			page 20


 698 039a 11F8101C 		ldrb	r1, [r1, #-16]	@ zero_extendqisi2
 699 039e 1144     		add	r1, r1, r2
 700 03a0 8B48     		ldr	r0, .L78
 701 03a2 11EA000E 		ands	lr, r1, r0
 702 03a6 05D5     		bpl	.L39
 703 03a8 0EF1FF3E 		add	lr, lr, #-1
 704 03ac 6EF01F0E 		orn	lr, lr, #31
 705 03b0 0EF1010E 		add	lr, lr, #1
 706              	.L39:
 707 03b4 06EBCE0E 		add	lr, r6, lr, lsl #3
 708 03b8 DEE90001 		ldrd	r0, [lr]
 709 03bc CDE90201 		strd	r0, [sp, #8]
 710 03c0 00EA0804 		and	r4, r0, r8
 711 03c4 01EA0905 		and	r5, r1, r9
 712 03c8 DDE90001 		ldrd	r0, [sp]
 713 03cc 2043     		orrs	r0, r0, r4
 714 03ce 2943     		orrs	r1, r1, r5
 715 03d0 CDE90001 		strd	r0, [sp]
 716              	.LVL126:
 202:processor.c   ****             }
 717              		.loc 1 202 0 discriminator 2
 718 03d4 DDE90201 		ldrd	r0, [sp, #8]
 719              	.LVL127:
 720 03d8 80EA0800 		eor	r0, r0, r8
 721 03dc 81EA0901 		eor	r1, r1, r9
 722 03e0 CEE90001 		strd	r0, [lr]
 723              	.LBE12:
 193:processor.c   ****                 uint64_t row = 0;
 724              		.loc 1 193 0 discriminator 2
 725 03e4 0132     		adds	r2, r2, #1
 726              	.LVL128:
 727 03e6 0CE0     		b	.L20
 728              	.LVL129:
 729              	.L59:
 730              	.LBE11:
 731              	.LBE10:
  44:processor.c   ****         case OP3_SYSTEM:
 732              		.loc 1 44 0
 733 03e8 0022     		movs	r2, #0
 734              	.LVL130:
 735 03ea 0020     		movs	r0, #0
 736 03ec 0021     		movs	r1, #0
 737              	.LVL131:
 738 03ee CDE90001 		strd	r0, [sp]
 739 03f2 CDF824B0 		str	fp, [sp, #36]
 740 03f6 2746     		mov	r7, r4
 741 03f8 0793     		str	r3, [sp, #28]
 742 03fa 5346     		mov	r3, r10
 743              	.LVL132:
 744 03fc DDE902AB 		ldrd	r10, [sp, #8]
 745              	.LVL133:
 746 0400 2E46     		mov	r6, r5
 747              	.LVL134:
 748              	.L20:
 749              	.LBB14:
 750              	.LBB13:
 193:processor.c   ****                 uint64_t row = 0;
ARM GAS  C:\Users\info\AppData\Local\Temp\ccXhp9ac.s 			page 21


 751              		.loc 1 193 0 discriminator 1
 752 0402 6245     		cmp	r2, ip
 753 0404 88DB     		blt	.L40
 754 0406 CDE902AB 		strd	r10, [sp, #8]
 755 040a DDF824B0 		ldr	fp, [sp, #36]
 756 040e 9A46     		mov	r10, r3
 757 0410 3546     		mov	r5, r6
 758              	.LBE13:
 204:processor.c   ****             *vga_update_flag = 1;
 759              		.loc 1 204 0
 760 0412 DDE90012 		ldrd	r1, [sp]
 761 0416 0B46     		mov	r3, r1
 762              	.LVL135:
 763 0418 1343     		orrs	r3, r3, r2
 764 041a 14BF     		ite	ne
 765 041c 0123     		movne	r3, #1
 766 041e 0023     		moveq	r3, #0
 767 0420 8DF85F30 		strb	r3, [sp, #95]
 205:processor.c   ****             break;
 768              		.loc 1 205 0
 769 0424 0123     		movs	r3, #1
 770 0426 229A     		ldr	r2, [sp, #136]
 771              	.LVL136:
 772 0428 1370     		strb	r3, [r2]
 773              	.LBE14:
  41:processor.c   ****         
 774              		.loc 1 41 0
 775 042a 0023     		movs	r3, #0
  38:processor.c   ****         
 776              		.loc 1 38 0
 777 042c 1A46     		mov	r2, r3
 778              	.LBB15:
 206:processor.c   ****         }
 779              		.loc 1 206 0
 780 042e C3E0     		b	.L8
 781              	.LVL137:
 782              	.L21:
 783              	.LBE15:
 210:processor.c   ****             case OP10_KEYBOARD_EQ:
 784              		.loc 1 210 0
 785 0430 9E2E     		cmp	r6, #158
 786 0432 02D0     		beq	.L41
 787 0434 A12E     		cmp	r6, #161
 788 0436 40F0BA80 		bne	.L76
 789              	.L41:
  41:processor.c   ****         
 790              		.loc 1 41 0
 791 043a 0023     		movs	r3, #0
 792              	.LVL138:
  38:processor.c   ****         
 793              		.loc 1 38 0
 794 043c 1A46     		mov	r2, r3
 795              	.LVL139:
 796 043e BBE0     		b	.L8
 797              	.LVL140:
 798              	.L22:
 224:processor.c   ****             case OP10_SPECIAL_LOAD_DELAY:
ARM GAS  C:\Users\info\AppData\Local\Temp\ccXhp9ac.s 			page 22


 799              		.loc 1 224 0
 800 0440 1E2E     		cmp	r6, #30
 801 0442 34D0     		beq	.L42
 802 0444 0AD8     		bhi	.L43
 803 0446 0A2E     		cmp	r6, #10
 804 0448 13D0     		beq	.L44
 805 044a 02D8     		bhi	.L45
 806 044c 072E     		cmp	r6, #7
 807 044e 13D0     		beq	.L46
 808 0450 B0E0     		b	.L72
 809              	.L45:
 810 0452 152E     		cmp	r6, #21
 811 0454 19D0     		beq	.L47
 812 0456 182E     		cmp	r6, #24
 813 0458 20D0     		beq	.L48
 814 045a ABE0     		b	.L72
 815              	.L43:
 816 045c 332E     		cmp	r6, #51
 817 045e 3DD0     		beq	.L49
 818 0460 02D8     		bhi	.L50
 819 0462 292E     		cmp	r6, #41
 820 0464 2ED0     		beq	.L51
 821 0466 A5E0     		b	.L72
 822              	.L50:
 823 0468 552E     		cmp	r6, #85
 824 046a 65D0     		beq	.L73
 825 046c 652E     		cmp	r6, #101
 826 046e 74D0     		beq	.L74
 827 0470 A0E0     		b	.L72
 828              	.L44:
  41:processor.c   ****         
 829              		.loc 1 41 0
 830 0472 0023     		movs	r3, #0
 831              	.LVL141:
  38:processor.c   ****         
 832              		.loc 1 38 0
 833 0474 1A46     		mov	r2, r3
 834              	.LVL142:
 835 0476 9FE0     		b	.L8
 836              	.LVL143:
 837              	.L46:
 227:processor.c   ****                 break;
 838              		.loc 1 227 0
 839 0478 0A9B     		ldr	r3, [sp, #40]
 840              	.LVL144:
 841 047a 1B78     		ldrb	r3, [r3]	@ zero_extendqisi2
 842 047c 18AA     		add	r2, sp, #96
 843              	.LVL145:
 844 047e 1444     		add	r4, r4, r2
 845              	.LVL146:
 846 0480 04F8103C 		strb	r3, [r4, #-16]
  41:processor.c   ****         
 847              		.loc 1 41 0
 848 0484 0023     		movs	r3, #0
  38:processor.c   ****         
 849              		.loc 1 38 0
 850 0486 1A46     		mov	r2, r3
ARM GAS  C:\Users\info\AppData\Local\Temp\ccXhp9ac.s 			page 23


 228:processor.c   ****             case OP10_SPECIAL_LOAD_KEYBOARD:
 851              		.loc 1 228 0
 852 0488 96E0     		b	.L8
 853              	.LVL147:
 854              	.L47:
 234:processor.c   ****                 break;
 855              		.loc 1 234 0
 856 048a 18AB     		add	r3, sp, #96
 857              	.LVL148:
 858 048c 1C44     		add	r4, r4, r3
 859              	.LVL149:
 860 048e 14F8103C 		ldrb	r3, [r4, #-16]	@ zero_extendqisi2
 861 0492 0A9A     		ldr	r2, [sp, #40]
 862              	.LVL150:
 863 0494 1370     		strb	r3, [r2]
 864              	.LVL151:
  41:processor.c   ****         
 865              		.loc 1 41 0
 866 0496 0023     		movs	r3, #0
  38:processor.c   ****         
 867              		.loc 1 38 0
 868 0498 1A46     		mov	r2, r3
 235:processor.c   ****             case OP10_SPECIAL_SET_SOUND:
 869              		.loc 1 235 0
 870 049a 8DE0     		b	.L8
 871              	.LVL152:
 872              	.L48:
 238:processor.c   ****                 break;
 873              		.loc 1 238 0
 874 049c 18AB     		add	r3, sp, #96
 875              	.LVL153:
 876 049e 1C44     		add	r4, r4, r3
 877              	.LVL154:
 878 04a0 14F8103C 		ldrb	r3, [r4, #-16]	@ zero_extendqisi2
 879 04a4 0B9A     		ldr	r2, [sp, #44]
 880              	.LVL155:
 881 04a6 1370     		strb	r3, [r2]
 882              	.LVL156:
  41:processor.c   ****         
 883              		.loc 1 41 0
 884 04a8 0023     		movs	r3, #0
  38:processor.c   ****         
 885              		.loc 1 38 0
 886 04aa 1A46     		mov	r2, r3
 239:processor.c   ****             case OP10_SPECIAL_ADD_TO_I:
 887              		.loc 1 239 0
 888 04ac 84E0     		b	.L8
 889              	.LVL157:
 890              	.L42:
 242:processor.c   ****                 break;
 891              		.loc 1 242 0
 892 04ae 18AB     		add	r3, sp, #96
 893              	.LVL158:
 894 04b0 1C44     		add	r4, r4, r3
 895              	.LVL159:
 896 04b2 14F8103C 		ldrb	r3, [r4, #-16]	@ zero_extendqisi2
 897 04b6 069A     		ldr	r2, [sp, #24]
ARM GAS  C:\Users\info\AppData\Local\Temp\ccXhp9ac.s 			page 24


 898              	.LVL160:
 899 04b8 1A44     		add	r2, r2, r3
 900 04ba 93B2     		uxth	r3, r2
 901 04bc 0693     		str	r3, [sp, #24]
 902              	.LVL161:
  41:processor.c   ****         
 903              		.loc 1 41 0
 904 04be 0023     		movs	r3, #0
  38:processor.c   ****         
 905              		.loc 1 38 0
 906 04c0 1A46     		mov	r2, r3
 243:processor.c   ****             case OP10_SPECIAL_LOAD_FONT:
 907              		.loc 1 243 0
 908 04c2 79E0     		b	.L8
 909              	.LVL162:
 910              	.L51:
 246:processor.c   ****                 break;
 911              		.loc 1 246 0
 912 04c4 18AB     		add	r3, sp, #96
 913              	.LVL163:
 914 04c6 1C44     		add	r4, r4, r3
 915              	.LVL164:
 916 04c8 14F8103C 		ldrb	r3, [r4, #-16]	@ zero_extendqisi2
 917 04cc 03F00F03 		and	r3, r3, #15
 918 04d0 03EB8303 		add	r3, r3, r3, lsl #2
 919 04d4 0693     		str	r3, [sp, #24]
 920              	.LVL165:
  41:processor.c   ****         
 921              		.loc 1 41 0
 922 04d6 0023     		movs	r3, #0
  38:processor.c   ****         
 923              		.loc 1 38 0
 924 04d8 1A46     		mov	r2, r3
 925              	.LVL166:
 247:processor.c   ****             case OP10_SPECIAL_LOAD_BCD:
 926              		.loc 1 247 0
 927 04da 6DE0     		b	.L8
 928              	.LVL167:
 929              	.L49:
 250:processor.c   ****                 ram[i+1] = (uint8_t)(v[x] / 10) % 10;
 930              		.loc 1 250 0
 931 04dc 18AB     		add	r3, sp, #96
 932              	.LVL168:
 933 04de 1C44     		add	r4, r4, r3
 934              	.LVL169:
 935 04e0 14F8101C 		ldrb	r1, [r4, #-16]	@ zero_extendqisi2
 936              	.LVL170:
 937 04e4 3B4A     		ldr	r2, .L78+4
 938              	.LVL171:
 939 04e6 A2FB0132 		umull	r3, r2, r2, r1
 940 04ea 3B4B     		ldr	r3, .L78+8
 941 04ec 5209     		lsrs	r2, r2, #5
 942 04ee 069F     		ldr	r7, [sp, #24]
 943 04f0 0AF80720 		strb	r2, [r10, r7]
 944              	.LVL172:
 251:processor.c   ****                 ram[i+2] = (uint8_t)(v[x]) % 10;
 945              		.loc 1 251 0
ARM GAS  C:\Users\info\AppData\Local\Temp\ccXhp9ac.s 			page 25


 946 04f4 7C1C     		adds	r4, r7, #1
 947 04f6 A3FB0102 		umull	r0, r2, r3, r1
 948 04fa D208     		lsrs	r2, r2, #3
 949 04fc D0B2     		uxtb	r0, r2
 950 04fe A3FB0063 		umull	r6, r3, r3, r0
 951              	.LVL173:
 952 0502 DB08     		lsrs	r3, r3, #3
 953 0504 03EB8303 		add	r3, r3, r3, lsl #2
 954 0508 5E00     		lsls	r6, r3, #1
 955 050a 801B     		subs	r0, r0, r6
 956 050c 0AF80400 		strb	r0, [r10, r4]
 252:processor.c   ****                 break;
 957              		.loc 1 252 0
 958 0510 BB1C     		adds	r3, r7, #2
 959 0512 02EB8202 		add	r2, r2, r2, lsl #2
 960 0516 5000     		lsls	r0, r2, #1
 961 0518 091A     		subs	r1, r1, r0
 962 051a 0AF80310 		strb	r1, [r10, r3]
  41:processor.c   ****         
 963              		.loc 1 41 0
 964 051e 0023     		movs	r3, #0
  38:processor.c   ****         
 965              		.loc 1 38 0
 966 0520 1A46     		mov	r2, r3
 253:processor.c   ****             case OP10_SPECIAL_LOAD_AT_I:
 967              		.loc 1 253 0
 968 0522 49E0     		b	.L8
 969              	.LVL174:
 970              	.L54:
 971              	.LBB16:
 257:processor.c   ****                 }
 972              		.loc 1 257 0 discriminator 3
 973 0524 C218     		adds	r2, r0, r3
 974 0526 18A9     		add	r1, sp, #96
 975 0528 1944     		add	r1, r1, r3
 976 052a 11F8101C 		ldrb	r1, [r1, #-16]	@ zero_extendqisi2
 977 052e 0AF80210 		strb	r1, [r10, r2]
 256:processor.c   ****                     ram[i + j] = v[j];
 978              		.loc 1 256 0 discriminator 3
 979 0532 0133     		adds	r3, r3, #1
 980              	.LVL175:
 981 0534 DBB2     		uxtb	r3, r3
 982              	.LVL176:
 983 0536 01E0     		b	.L52
 984              	.LVL177:
 985              	.L73:
 986              	.LBE16:
 224:processor.c   ****             case OP10_SPECIAL_LOAD_DELAY:
 987              		.loc 1 224 0
 988 0538 0023     		movs	r3, #0
 989              	.LVL178:
 990 053a 0698     		ldr	r0, [sp, #24]
 991              	.LVL179:
 992              	.L52:
 993              	.LBB17:
 256:processor.c   ****                     ram[i + j] = v[j];
 994              		.loc 1 256 0 discriminator 1
ARM GAS  C:\Users\info\AppData\Local\Temp\ccXhp9ac.s 			page 26


 995 053c A342     		cmp	r3, r4
 996 053e F1D9     		bls	.L54
 997              	.LBE17:
  41:processor.c   ****         
 998              		.loc 1 41 0
 999 0540 0023     		movs	r3, #0
 1000              	.LVL180:
  38:processor.c   ****         
 1001              		.loc 1 38 0
 1002 0542 1A46     		mov	r2, r3
 1003 0544 38E0     		b	.L8
 1004              	.LVL181:
 1005              	.L55:
 1006              	.LBB18:
 263:processor.c   ****                 }
 1007              		.loc 1 263 0 discriminator 3
 1008 0546 C218     		adds	r2, r0, r3
 1009 0548 1AF80210 		ldrb	r1, [r10, r2]	@ zero_extendqisi2
 1010 054c 18AA     		add	r2, sp, #96
 1011 054e 1A44     		add	r2, r2, r3
 1012 0550 02F8101C 		strb	r1, [r2, #-16]
 262:processor.c   ****                     v[j] = ram[i + j];
 1013              		.loc 1 262 0 discriminator 3
 1014 0554 0133     		adds	r3, r3, #1
 1015              	.LVL182:
 1016 0556 DBB2     		uxtb	r3, r3
 1017              	.LVL183:
 1018 0558 01E0     		b	.L53
 1019              	.LVL184:
 1020              	.L74:
 1021              	.LBE18:
 224:processor.c   ****             case OP10_SPECIAL_LOAD_DELAY:
 1022              		.loc 1 224 0
 1023 055a 0023     		movs	r3, #0
 1024              	.LVL185:
 1025 055c 0698     		ldr	r0, [sp, #24]
 1026              	.LVL186:
 1027              	.L53:
 1028              	.LBB19:
 262:processor.c   ****                     v[j] = ram[i + j];
 1029              		.loc 1 262 0 discriminator 1
 1030 055e A342     		cmp	r3, r4
 1031 0560 F1D9     		bls	.L55
 1032              	.LBE19:
  41:processor.c   ****         
 1033              		.loc 1 41 0
 1034 0562 0023     		movs	r3, #0
 1035              	.LVL187:
  38:processor.c   ****         
 1036              		.loc 1 38 0
 1037 0564 1A46     		mov	r2, r3
 1038              	.LBB20:
 1039 0566 27E0     		b	.L8
 1040              	.LVL188:
 1041              	.L58:
 1042              	.LBE20:
  71:processor.c   ****             freeze_pc = 1;
ARM GAS  C:\Users\info\AppData\Local\Temp\ccXhp9ac.s 			page 27


 1043              		.loc 1 71 0
 1044 0568 8B46     		mov	fp, r1
 1045              	.LVL189:
  72:processor.c   ****             break;
 1046              		.loc 1 72 0
 1047 056a 0123     		movs	r3, #1
 1048              	.LVL190:
  38:processor.c   ****         
 1049              		.loc 1 38 0
 1050 056c 0022     		movs	r2, #0
 1051              	.LVL191:
 1052 056e 23E0     		b	.L8
 1053              	.LVL192:
 1054              	.L60:
  41:processor.c   ****         
 1055              		.loc 1 41 0
 1056 0570 0023     		movs	r3, #0
 1057              	.LVL193:
  48:processor.c   ****             } else {
 1058              		.loc 1 48 0
 1059 0572 0122     		movs	r2, #1
 1060              	.LVL194:
 1061 0574 20E0     		b	.L8
 1062              	.LVL195:
 1063              	.L75:
  41:processor.c   ****         
 1064              		.loc 1 41 0
 1065 0576 0023     		movs	r3, #0
 1066              	.LVL196:
  64:processor.c   ****                     break;
 1067              		.loc 1 64 0
 1068 0578 0122     		movs	r2, #1
 1069              	.LVL197:
 1070 057a 1DE0     		b	.L8
 1071              	.L63:
  83:processor.c   ****             freeze_pc = 1;
 1072              		.loc 1 83 0
 1073 057c 8B46     		mov	fp, r1
 1074              	.LVL198:
  84:processor.c   ****             break;
 1075              		.loc 1 84 0
 1076 057e 0123     		movs	r3, #1
  38:processor.c   ****         
 1077              		.loc 1 38 0
 1078 0580 0022     		movs	r2, #0
 1079              	.LVL199:
 1080 0582 19E0     		b	.L8
 1081              	.LVL200:
 1082              	.L64:
  41:processor.c   ****         
 1083              		.loc 1 41 0
 1084 0584 0023     		movs	r3, #0
  38:processor.c   ****         
 1085              		.loc 1 38 0
 1086 0586 1A46     		mov	r2, r3
 1087              	.LVL201:
 1088 0588 16E0     		b	.L8
ARM GAS  C:\Users\info\AppData\Local\Temp\ccXhp9ac.s 			page 28


 1089              	.LVL202:
 1090              	.L65:
  41:processor.c   ****         
 1091              		.loc 1 41 0
 1092 058a 0023     		movs	r3, #0
  38:processor.c   ****         
 1093              		.loc 1 38 0
 1094 058c 1A46     		mov	r2, r3
 1095              	.LVL203:
 1096 058e 13E0     		b	.L8
 1097              	.LVL204:
 1098              	.L66:
  41:processor.c   ****         
 1099              		.loc 1 41 0
 1100 0590 0023     		movs	r3, #0
 1101              	.LVL205:
 105:processor.c   ****             }
 1102              		.loc 1 105 0
 1103 0592 0122     		movs	r2, #1
 1104              	.LVL206:
 1105 0594 10E0     		b	.L8
 1106              	.LVL207:
 1107              	.L67:
  41:processor.c   ****         
 1108              		.loc 1 41 0
 1109 0596 0023     		movs	r3, #0
  38:processor.c   ****         
 1110              		.loc 1 38 0
 1111 0598 1A46     		mov	r2, r3
 1112 059a 0DE0     		b	.L8
 1113              	.LVL208:
 1114              	.L68:
  41:processor.c   ****         
 1115              		.loc 1 41 0
 1116 059c 0023     		movs	r3, #0
 1117              	.LVL209:
 115:processor.c   ****             }
 1118              		.loc 1 115 0
 1119 059e 0122     		movs	r2, #1
 1120              	.LVL210:
 1121 05a0 0AE0     		b	.L8
 1122              	.LVL211:
 1123              	.L69:
  41:processor.c   ****         
 1124              		.loc 1 41 0
 1125 05a2 0023     		movs	r3, #0
  38:processor.c   ****         
 1126              		.loc 1 38 0
 1127 05a4 1A46     		mov	r2, r3
 1128 05a6 07E0     		b	.L8
 1129              	.LVL212:
 1130              	.L70:
  41:processor.c   ****         
 1131              		.loc 1 41 0
 1132 05a8 0023     		movs	r3, #0
 1133              	.LVL213:
 178:processor.c   ****                 break;
ARM GAS  C:\Users\info\AppData\Local\Temp\ccXhp9ac.s 			page 29


 1134              		.loc 1 178 0
 1135 05aa 0122     		movs	r2, #1
 1136 05ac 04E0     		b	.L8
 1137              	.LVL214:
 1138              	.L76:
  41:processor.c   ****         
 1139              		.loc 1 41 0
 1140 05ae 0023     		movs	r3, #0
 1141              	.LVL215:
 218:processor.c   ****                 break;
 1142              		.loc 1 218 0
 1143 05b0 0122     		movs	r2, #1
 1144              	.LVL216:
 1145 05b2 01E0     		b	.L8
 1146              	.LVL217:
 1147              	.L72:
  41:processor.c   ****         
 1148              		.loc 1 41 0
 1149 05b4 0023     		movs	r3, #0
 1150              	.LVL218:
 267:processor.c   ****                 break;
 1151              		.loc 1 267 0
 1152 05b6 0122     		movs	r2, #1
 1153              	.LVL219:
 1154              	.L8:
 273:processor.c   ****             break;
 274:processor.c   ****         }
 275:processor.c   ****         if (invalid_op) {
 1155              		.loc 1 275 0
 1156 05b8 3AB9     		cbnz	r2, .L1
 276:processor.c   ****             /* Return to indicate error */
 277:processor.c   ****             return;
 278:processor.c   ****         }
 279:processor.c   ****         if (!freeze_pc){
 1157              		.loc 1 279 0
 1158 05ba 002B     		cmp	r3, #0
 1159 05bc 7FF43FAD 		bne	.L4
 280:processor.c   ****             /* Increment PC */
 281:processor.c   ****             pc += 2;
 1160              		.loc 1 281 0
 1161 05c0 0BF1020B 		add	fp, fp, #2
 1162              	.LVL220:
 1163 05c4 1FFA8BFB 		uxth	fp, fp
 1164              	.LVL221:
 1165 05c8 39E5     		b	.L4
 1166              	.L1:
 1167              	.LBE3:
 282:processor.c   ****         }
 283:processor.c   ****     }
 284:processor.c   **** }
 1168              		.loc 1 284 0
 1169 05ca 19B0     		add	sp, sp, #100
 1170              		.cfi_def_cfa_offset 36
 1171              		@ sp needed
 1172 05cc BDE8F08F 		pop	{r4, r5, r6, r7, r8, r9, r10, fp, pc}
 1173              	.LVL222:
 1174              	.L79:
ARM GAS  C:\Users\info\AppData\Local\Temp\ccXhp9ac.s 			page 30


 1175              		.align	2
 1176              	.L78:
 1177 05d0 1F000080 		.word	-2147483617
 1178 05d4 1F85EB51 		.word	1374389535
 1179 05d8 CDCCCCCC 		.word	-858993459
 1180              		.cfi_endproc
 1181              	.LFE63:
 1182              		.size	execute, .-execute
 1183              		.text
 1184              	.Letext0:
 1185              		.file 2 "c:\\program files (x86)\\cypress\\psoc creator\\4.2\\psoc creator\\import\\gnu\\arm\\5.4.
 1186              		.file 3 "c:\\program files (x86)\\cypress\\psoc creator\\4.2\\psoc creator\\import\\gnu\\arm\\5.4.
 1187              		.file 4 "Generated_Source\\PSoC5/core_cm3.h"
 1188              		.file 5 "Generated_Source\\PSoC5/random.h"