ARM GAS  C:\Users\info\AppData\Local\Temp\ccl9i4Az.s 			page 1


   1              		.syntax unified
   2              		.cpu cortex-m3
   3              		.fpu softvfp
   4              		.eabi_attribute 20, 1
   5              		.eabi_attribute 21, 1
   6              		.eabi_attribute 23, 3
   7              		.eabi_attribute 24, 1
   8              		.eabi_attribute 25, 1
   9              		.eabi_attribute 26, 1
  10              		.eabi_attribute 30, 1
  11              		.eabi_attribute 34, 1
  12              		.eabi_attribute 18, 4
  13              		.thumb
  14              		.syntax unified
  15              		.file	"procr.c"
  16              		.text
  17              	.Ltext0:
  18              		.section	.gnu.lto_.profile.792a684e,"",%progbits
  19 0000 789C6361 		.ascii	"x\234ca`d`c`\000\222\323\23160\001\000\004X\001X"
  19      60646063 
  19      600092D3 
  19      99363001 
  19      00045801 
  20              		.text
  21              		.section	.gnu.lto_.inline.792a684e,"",%progbits
  22 0000 789C6361 		.ascii	"x\234ca`d\000\001C\006\004`d0\330\304\264\204\215\221"
  22      60640001 
  22      43060460 
  22      6430D8C4 
  22      B4848D91 
  23 0014 81E918CB 		.ascii	"\201\351\030\313\217\005\011\014\\\017T\231@\342L\334"
  23      8F05090C 
  23      5C0F5499 
  23      40E24CDC 
  24 0024 40B5CC3C 		.ascii	"@\265\314<\214\014\214\023\374\240\024X\210\001\000"
  24      8C0C8C13 
  24      FCA01458 
  24      880100
  25 0033 F3820796 		.ascii	"\363\202\007\226"
  26              		.text
  27              		.section	.gnu.lto_.jmpfuncs.792a684e,"",%progbits
  28 0000 789C6361 		.ascii	"x\234ca`d\000\001N\006\004`\2041\000\001r\000\020"
  28      60640001 
  28      4E060460 
  28      84310001 
  28      720010
  29              		.text
  30              		.section	.gnu.lto_.pureconst.792a684e,"",%progbits
  31 0000 789C6361 		.ascii	"x\234ca`d`f`\000\222R\000\000r\000$"
  31      60646066 
  31      60009252 
  31      00007200 
  31      24
  32              		.text
  33              		.section	.gnu.lto_execute.792a684e,"",%progbits
  34 0000 789C9D7B 		.ascii	"x\234\235{\011\\U\327\265\367\331\347\334\003\227\313"
  34      095C55D7 
ARM GAS  C:\Users\info\AppData\Local\Temp\ccl9i4Az.s 			page 2


  34      B5F7D9E7 
  34      DC0397CB 
  35 0010 858BF384 		.ascii	"\205\213\363\204\363<\304y\300)\2616&\372\265\257m\332"
  35      F33CC479 
  35      C029B136 
  35      26FAB5AF 
  35      6DDA
  36 0022 A66DDABC 		.ascii	"\246m\332\274\246~\211\311\363\313\240\321\324$m^\274"
  36      A67E89C9 
  36      F3CBA0D1 
  36      D4246D5E 
  36      BC
  37 0033 7001C7E0 		.ascii	"p\001\307\340\014\242\210\242\250\2508\305\001TT@\305"
  37      0CA288A2 
  37      A8A838C5 
  37      01545440 
  37      C5
  38 0044 09510901 		.ascii	"\011Q\011\001\025\234\3218\020\025DT\242\370\326\260"
  38      159CD138 
  38      10154454 
  38      A2F8D6B0 
  39 0054 CF9D4DF2 		.ascii	"\317\235M\362>~?\026{\257\275\376k\257\265\366\332\303"
  39      3E7E3F16 
  39      7BAFBDFE 
  39      6BAFB5F6 
  39      DAC3
  40 0066 D9E76052 		.ascii	"\331\347`R\204\202?wG)\312\034\370;\331\244(\342\377"
  40      84823F77 
  40      4729CA1C 
  40      F83BD9A4 
  40      28E2FF
  41 0079 28429D5B 		.ascii	"(B\235[\240(\221fU\230\270\240q!\307lR\265\313\307\025"
  41      A0289166 
  41      5598B8A0 
  41      7121C76C 
  41      52B5CBC7 
  42 008e C56E7979 		.ascii	"\305nyy\263\252\330\255\007\0251\012\033\204\316\177"
  42      B3AAD8AD 
  42      0715310A 
  42      1B84CE7F 
  43 009e 7F7148A9 		.ascii	"\177qH\2517\"\337\244\330\315\001DC\210\332\210\326"
  43      3722DFA4 
  43      D8CD0144 
  43      4388DA88 
  43      D6
  44 00af 23DA8068 		.ascii	"#\332\200h#\242-\210\206\023mI\264)\321\316DC\211v!"
  44      23A22D88 
  44      86136D49 
  44      B429D1CE 
  44      44438976 
  45 00c4 FA02D15E 		.ascii	"\372\002\321^D\3733G\274J\035\007\250#\242\003\301\236"
  45      44FB3347 
  45      BC4A1D07 
  45      A823A203 
  45      C19E
  46 00d6 C0D987C1 		.ascii	"\300\331\207\301,k\2406\"\24694\007\021\265pY\274B\242"
  46      2C6BA036 
ARM GAS  C:\Users\info\AppData\Local\Temp\ccl9i4Az.s 			page 3


  46      22A63934 
  46      0711B570 
  46      59BC42A2 
  47 00ea 66FE9B63 		.ascii	"f\376\233c\316ST3{1\202\274\260\250\301\323;C\315\212"
  47      CE535433 
  47      7B3182BC 
  47      B0A8C1D3 
  47      3B43CD8A 
  48 00fe D41A2CAC 		.ascii	"\324\032,\254\354\264U\214\340B\210Q\0105\01265lE\004"
  48      ECB4558C 
  48      E0428851 
  48      08350A36 
  48      356C4504 
  49 0112 E2EF3502 		.ascii	"\342\3575\002D\230\301\256\247\326G\206e\0046Z\353\033"
  49      4498C1AE 
  49      A7D64786 
  49      6504365A 
  49      EB1B
  50 0124 EC066A43 		.ascii	"\354\006jC7\351\206\006\273\221\332\230\214\266\220"
  50      37E98606 
  50      BB91DA98 
  50      8CB690
  51 0133 07D6C66A 		.ascii	"\007\326\306j\0237p\023C\252\251\332\314]\252\231\332"
  51      13377013 
  51      43AAA9DA 
  51      CC5DAA99 
  51      DA
  52 0144 DC4D5773 		.ascii	"\334MWsC\252\205Q\0107\012--#n\000\300\334\212hk\242"
  52      43AA8551 
  52      08370A2D 
  52      2D236E00 
  52      C0DC8A68 
  53 015a 6D88B625 		.ascii	"m\210\266%\332\216h{\242\035\210v$\332\211Q\206\232"
  53      DA8E687B 
  53      A21D8876 
  53      24DA8951 
  53      869A
  54 016c D646A18D 		.ascii	"\326F\241\215Qhk\024\332\031\205\366F\241\203Q\350h"
  54      51686B14 
  54      DA1985F6 
  54      46A18351 
  54      E868
  55 017e 143A1985 		.ascii	"\024:\031\205\316F\241\213Q\350\252v\243\250w\247\250"
  55      CE46A18B 
  55      51E8AA76 
  55      A3A877A7 
  55      A8
  56 018f 77133D98 		.ascii	"w\023=\230\335\335(\364\340\021\3161\037V\324\256\034"
  56      DDDD28F4 
  56      E011CE31 
  56      1F56D4AE 
  56      1C
  57 01a0 829E1482 		.ascii	"\202\236\024\202\236\206\206^r\260{\023\355\313e\265"
  57      9E86865E 
  57      72B07B13 
  57      EDCB65B5 
  58 01b0 0F691D41 		.ascii	"\017i\035AZ\373\030\242}\325~n\354~\006\273\277\014"
ARM GAS  C:\Users\info\AppData\Local\Temp\ccl9i4Az.s 			page 4


  58      5AFB18A2 
  58      7DD57E6E 
  58      EC7E06BB 
  58      BF0C
  59 01c2 D200A203 		.ascii	"\322\000\242\003\211\016\"\032At0\321!D\207\022\035"
  59      890E221A 
  59      417430D1 
  59      21448712 
  59      1D
  60 01d3 4EF425A6 		.ascii	"N\364%\246b\014%\326p1\232\376\0160\324\0164\012\203"
  60      620C25D6 
  60      70319AFE 
  60      0E30D40E 
  60      340A83
  61 01e6 8C428451 		.ascii	"\214B\204Q\030l\024\206\030\205\241Fa\030\253\3111\037"
  61      186C1486 
  61      1885A146 
  61      6118ABC9 
  61      311F
  62 01f8 51D461EE 		.ascii	"Q\324a\356c\376\"\367\223c>\252\250/\2727d+\352/)\373"
  62      63FE22F7 
  62      93633EAA 
  62      A82FBA37 
  62      642BEA2F 
  63 020e 7FC1D99F 		.ascii	"\177\301\331\237\243\250#\311M\235\334\314\205y\311"
  63      A3A823C9 
  63      4D9DDCCC 
  63      8579C9
  64 021d AA0F2842 		.ascii	"\252\017(B`\311n\026\312TU3\035T\364C\312\013\001\201"
  64      60C96E16 
  64      CA545533 
  64      1D54F443 
  64      CA0B0181 
  65 0231 4130172C 		.ascii	"A0\027,\301\326\220P[X\275\372\015\0326j\334\244i\263"
  65      C1D69050 
  65      5B58BDFA 
  65      0D1A366A 
  65      DCA469B3 
  66 0245 E62DC25B 		.ascii	"\346-\302[\266j\335\246m\273\366\035:v\352\334\245k"
  66      B66ADDA6 
  66      6DBBF61D 
  66      3A76EADC 
  66      A56B
  67 0257 B7EE3D0E 		.ascii	"\267\356=\016+={\365\356\323\267_\377\227\206\017\030"
  67      2B3D7BF5 
  67      EED3B75F 
  67      FF97860F 
  67      18
  68 0268 382862F0 		.ascii	"8(b\360\220\241\303\216(/\036U\262\225\034%W\001\345"
  68      90A1C38E 
  68      282F1E55 
  68      B2951C25 
  68      5701E5
  69 027b 53034D0A 		.ascii	"S\003M\012\377\034\222\177\225\243F\341\210Q\000\023"
  69      FF1C927F 
  69      95A346E1 
  69      88510013 
ARM GAS  C:\Users\info\AppData\Local\Temp\ccl9i4Az.s 			page 5


  70 028b 45B6493C 		.ascii	"E\266I<\203\237@b\344\031-\017\324\247\252\310\235v"
  70      839F4062 
  70      E4192D0F 
  70      D4A7AAC8 
  70      9D76
  71 029d 7D97DA75 		.ascii	"}\227\332u\255\035~.\255n6\263w\214\246(\317T\026\020"
  71      AD1D7E2E 
  71      AD6E36B3 
  71      778CA628 
  71      CF541610 
  72 02b1 6B455710 		.ascii	"kEW\0209\035\275%I\253Vc4!LP\255<\261\344j(VU\321\006"
  72      391DBD25 
  72      49AB5663 
  72      34214C50 
  72      AD3CB1E4 
  73 02cb AA55B7E2 		.ascii	"\252U\267\342\017\231\265`\241@\371v\336\222s\346\316"
  73      0F99B560 
  73      A140F976 
  73      DE9273E6 
  73      CE
  74 02dc ABEDF628 		.ascii	"\253\355\366(\273\375\374;\366\240\030M\023\353\205"
  74      BBFDFC3B 
  74      F6A0184D 
  74      13EB85
  75 02eb 06FAC43A 		.ascii	"\006\372\304:\021.\322D\270\002,El\020\235A:zMm\205"
  75      112ED244 
  75      B8022C45 
  75      6C109D41 
  75      3A7A4D6D 
  76 0300 45B311B2 		.ascii	"E\263\021\262d\376\311\223\241\022\271l\034\"M\"\335"
  76      64FEC993 
  76      A112B96C 
  76      1C224D22 
  76      DD
  77 0311 1B6952C4 		.ascii	"\033iR\304FB\256\312_rNh\015\011\031\365CL\236M\"\357"
  77      4642AECA 
  77      5F724E68 
  77      0D0919F5 
  77      434C9E4D 
  78 0327 8FE33E37 		.ascii	"\217\343>7\371\351s3!\027~?\367Q\220\326\224\220\363"
  78      F9E97333 
  78      21177E3F 
  78      F75190D6 
  78      9490F3
  79 033a 56ADBF2D 		.ascii	"V\255\277-\221\331'\012\255\366\271\002\261[\374`\267"
  79      91D9270A 
  79      ADF6B902 
  79      B15BFC60 
  79      B7
  80 034b 1236F2C8 		.ascii	"\0226\362\310\366\356Z8A\343J\357_P=:\325\305\327\336"
  80      F6EE5A38 
  80      41E34AEF 
  80      5F503D3A 
  80      D5C5D7DE 
  81 035f 405D11DB 		.ascii	"@]\021\333Dg\305=d\202B\266\351\306\376$\013G\320\216"
  81      4467C53D 
  81      648242B6 
ARM GAS  C:\Users\info\AppData\Local\Temp\ccl9i4Az.s 			page 6


  81      E9C6FE24 
  81      0B47D08E 
  82 0373 63507E2D 		.ascii	"cP~-\251<H\353A\232/\237=\375uH\307U8\036\331\273>\213"
  82      A93C48EB 
  82      419A2F9F 
  82      3DFD7548 
  82      C755381E 
  83 038b B46747B5 		.ascii	"\264gG\265\211\321\002\304NV\276\003\224o\007\345\370"
  83      89D102C4 
  83      4E56BE03 
  83      946F07E5 
  83      F8
  84 039c 03C2F3D3 		.ascii	"\003\302\363\323O\225\004h}\011xm\341\264\276\210\003"
  84      4F950468 
  84      7D09786D 
  84      E1B4BE88 
  84      03
  85 03ad 67323E49 		.ascii	"g2>I\260gG\002.Pd2\256_\270\350\355D\035z\3660\333\306"
  85      B0674702 
  85      2E506432 
  85      AE5FB8E8 
  85      ED441D7A 
  86 03c5 D660EF85 		.ascii	"\326`\357\205\367\362\227\005\2635aP\215OX\177&H\033"
  86      F7F29705 
  86      B3356150 
  86      8D4F587F 
  86      26481B
  87 03d8 403ABFDA 		.ascii	"@:\277\332}\362\212U*\335\361\331b6\306,\262X\351\036"
  87      7DF28A55 
  87      2ADDF1D9 
  87      6236C62C 
  87      B258E91E 
  88 03ec 3066B7CB 		.ascii	"0f\267\313\230\325\307\017\354\013\325\"\010\3700\371"
  88      98D5C70F 
  88      EC0BD522 
  88      08F830F9 
  89 03fc 6EAD01FC 		.ascii	"n\255\001\374\372\037\366\230\021\010\333\347\027\346"
  89      FA1FF698 
  89      1108DBE7 
  89      17E6
  90 040a EC5E50F7 		.ascii	"\354^P\367;\257\037\3153b#\240\036\273\352\300\343\020"
  90      3BAF1FCD 
  90      336223A0 
  90      1EBBEAC0 
  90      E310
  91 041c 6D08694D 		.ascii	"m\010iM\315>\264\327\210\315\326O\"\331\307 \221\313"
  91      CD3EB4D7 
  91      88CDD64F 
  91      22D9C720 
  91      91CB
  92 042e 7A73406F 		.ascii	"zs@o\266K\357\225\255u\213B\002\242Q\270\2158 :\212"
  92      B64BEF95 
  92      AD758B42 
  92      02A251B8 
  92      8D38203A 
  93 0443 FDF0BB17 		.ascii	"\375\360\273\027~w\301o\206\350\310Y.\016\212\000\330"
  93      7E77C16F 
ARM GAS  C:\Users\info\AppData\Local\Temp\ccl9i4Az.s 			page 7


  93      86E8C859 
  93      2E0E8A00 
  93      D8
  94 0454 8C9B9184 		.ascii	"\214\233\221\204[+(\310,|\2607D\033F=\037\336\273\266"
  94      5B2B28C8 
  94      2C7CB037 
  94      441B463D 
  94      1FDEBBB6 
  95 0468 2644FAB3 		.ascii	"&D\372\263?M8\303{\310;\274\"\217\260\253\022W\346\204"
  95      3F4D38C3 
  95      7BC83BBC 
  95      228FB0AB 
  95      1257E684 
  96 047c 6A2F12F6 		.ascii	"j/\022\366\374\366RG\260\304^0bq\3307\026\342\010A\027"
  96      FCF65247 
  96      B0C45E30 
  96      6271D837 
  96      16E20841 
  97 0491 9D8D5EAC 		.ascii	"\235\215^\254j/\023t\326\305\325K\204\204>Huu{\324\247"
  97      6A2F1374 
  97      D6C5D54B 
  97      84843E48 
  97      75757BD4 
  98 04a6 DB6384CD 		.ascii	"\333c\204\315\311\270\271E\327F\023\2666\346\352S]b"
  98      C9B8B945 
  98      D74613B6 
  98      36E6EA53 
  98      5D62
  99 04b8 6BDEB43B 		.ascii	"k\336\264;F \360\270\0170\237\201\033\277\177]\3735"
  99      4620F0B8 
  99      0F309F81 
  99      1BBF7F5D 
  99      FB35
 100 04ca E11C3B76 		.ascii	"\341\034;v\276'a\217\014\330\011\037X\001\301j\256\254"
 100      BE27618F 
 100      0CD8091F 
 100      5801C16A 
 100      AEAC
 101 04dc DD61D15E 		.ascii	"\335a\321^#\334\375E\321\007\014[k\015\340I\037\340"
 101      23DCFD45 
 101      D1070C5B 
 101      6B0DE049 
 101      1FE0
 102 04ee 290266CD 		.ascii	")\002f\315<\376\304\254\275\316s\351\320\334\006\022"
 102      3CFEC4AC 
 102      BDCE73E9 
 102      D0DC0612 
 103 04fe B7F03F25 		.ascii	"\267\360?%\356\264\017\256\220p?\344\034;\034\254\375"
 103      EEB40FAE 
 103      90703FE4 
 103      1C3B1CAC 
 103      FD
 104 050f 997145D7 		.ascii	"\231qE\327\2762:L6\200\337\370\000\213\010\270\362\374"
 104      BE323A4C 
 104      3680DFF8 
 104      008B08B8 
 104      F2FC
ARM GAS  C:\Users\info\AppData\Local\Temp\ccl9i4Az.s 			page 8


 105 0521 5347B0F6 		.ascii	"SG\260\366\177\011x\354\352\262Xc@\266\033\300o}\200"
 105      7F0978EC 
 105      EAB25863 
 105      40B61BC0 
 105      6F7D80
 106 0534 C5045CBD 		.ascii	"\305\004\\\275oi\221&s\356\374c\221h\317\216\206!\260"
 106      6F699126 
 106      73EEFC63 
 106      9168CF8E 
 106      8621B0
 107 0547 18236FCC 		.ascii	"\030#o\314vB\224\020\"z\377\262mV\355\003\352\352h\346"
 107      76429410 
 107      227AFFB2 
 107      6D56ED03 
 107      EAEA68E6 
 108 055b C30D36D9 		.ascii	"\303\0156\331U\345\314\226\316\031t\306\317\360\237"
 108      55E5CC96 
 108      CE1974C6 
 108      CFF09F
 109 056a 2574F937 		.ascii	"%t\3717\207+Tm\002\241\317\024\235\331gd]\325L\253\375"
 109      872B546D 
 109      02A1CF14 
 109      9DD96764 
 109      5DD54CAB 
 110 057f 94DD8CE0 		.ascii	"\224\335\214\340s~\300\245\234v7\257\337\260i\223\010"
 110      737EC0A5 
 110      9C7637AF 
 110      DFB06993 
 110      08
 111 0590 7C775F69 		.ascii	"|w_iJ\220\004W\273\300e~\300\347\011\354nk\322,'\300"
 111      4A900457 
 111      BBC0657E 
 111      C0E709EC 
 111      6E6BD22C 
 112 05a6 9FA91708 		.ascii	"\237\251\027\010\340n^\362\254\0375\357\"\001\334M\332"
 112      E06E5EF2 
 112      AC1F35EF 
 112      2201DC4D 
 112      DA
 113 05b7 32EB474D 		.ascii	"2\353GM\272D\200%{\252\217\351\2746\230\241\232qgCF"
 113      BA448025 
 113      7BAA8FE9 
 113      BC3698A1 
 113      9A716743 
 114 05cc 08AF0DD9 		.ascii	"\010\257\015\3314\305K\276\353\241}J\336\226\255N\376"
 114      34C54BBE 
 114      EBA17D4A 
 114      DE96AD4E 
 114      FE
 115 05dd DE18D379 		.ascii	"\336\030\323yqM\226\330\263\027\333M1\260-]e\345W@\371"
 115      714D96D8 
 115      B317DB4D 
 115      31B02D5D 
 115      65E55740 
 116 05f2 654379B9 		.ascii	"eCy\271\317\310.,\200\345?\322\374\274\201\275F\200"
 116      CFC82E2C 
 116      80E53FD2 
ARM GAS  C:\Users\info\AppData\Local\Temp\ccl9i4Az.s 			page 9


 116      FCBC81BD 
 116      4680
 117 0604 59DF9F9D 		.ascii	"Y\337\237\235\247k\221\202:,|xi\276\341KB\\KW\207\327"
 117      A76B9182 
 117      3A2C7C78 
 117      69BEE14B 
 117      425C4B57 
 118 061a FD74F81D 		.ascii	"\375t\370\035\341\335\027\221\255\363[\377\310\"r\303"
 118      E1DD1791 
 118      ADF35BFF 
 118      C82272C3 
 119 062a 473EAB30 		.ascii	"G>\2530\330\276\005\303\345O\374\246\350\270\371\367"
 119      D8BE05C3 
 119      E54FFCA6 
 119      E8B8F9F7 
 120 063a D9F667CF 		.ascii	"\331\366g\317\034\366\354\215\235r\022\377\220\256\012"
 120      1CF6EC8D 
 120      9D7212FF 
 120      90AE0A
 121 0649 05573395 		.ascii	"\005W3\225\250F\324D\024\366$X\341\002\210\006\322j"
 121      A846D444 
 121      14F62458 
 121      E1028806 
 121      D26A
 122 065b 65A62912 		.ascii	"e\246)\022D\371n\241\034\016\246\010Y\311\355\0202>"
 122      44F96EA1 
 122      1C0EA608 
 122      59C9ED10 
 122      323E
 123 066d 944CB251 		.ascii	"\224L\262QOa\204m\012\373\233\265\031\020ss$-\201\204"
 123      4F61846D 
 123      0AFB9BB5 
 123      19107373 
 123      242D8184 
 124 0681 B442D25A 		.ascii	"\264B\322Z\340\036\335\006w\353v\244\277=\365\333\001"
 124      E01EDD06 
 124      77EB76A4 
 124      BF3DF5DB 
 124      01
 125 0692 18B0B2E2 		.ascii	"\030\260\262\342\316\337\011\367\324\316\210\357\002"
 125      CEDF09F7 
 125      D4CE88EF 
 125      02
 126 069f C4D21549 		.ascii	"\304\322\025I7 \241\335Q\246\007\266\276\200\255=\221"
 126      3720A1DD 
 126      51A607B6 
 126      BE80AD3D 
 126      91
 127 06b0 D70B496F 		.ascii	"\327\013IoZ\033\373@\321\326\227\226\272~\210\351\217"
 127      5A1BFB40 
 127      D1D69796 
 127      BA7E88E9 
 127      8F
 128 06c1 64004A0E 		.ascii	"d\000J\016\244el\020\255J\021\264\304\014\246N\207\240"
 128      A4656C10 
 128      AD4A11B4 
 128      C40CA64E 
ARM GAS  C:\Users\info\AppData\Local\Temp\ccl9i4Az.s 			page 10


 128      87A0
 129 06d3 C4509418 		.ascii	"\304P\224\030F\013\310p\342\276\210f\276\204d\004Z9"
 129      460BC870 
 129      E2BE8866 
 129      BE846404 
 129      5A39
 130 06e5 927CFE25 		.ascii	"\222|\376%\024\003_F\371Q$\364\012\242^\305\036GS}\014"
 130      14035F46 
 130      F95124F4 
 130      0AA25EC5 
 130      1E47537D 
 131 06fa 36FD0A85 		.ascii	"6\375\012\205~\215\245\377\300\346\337P\313o\261\376"
 131      7E8DA5FF 
 131      C0E6DF50 
 131      CB6FB1FE 
 132 070a 3BACBF46 		.ascii	";\254\277F\365\337c\375\017X\377#\226^\307\322\237\250"
 132      F5DF63FD 
 132      0F58FF23 
 132      965EC7D2 
 132      9FA8
 133 071c E5CF58FF 		.ascii	"\345\317X\377\013\326\337\300\322_\261\3647jy\023\353"
 133      0BD6DFC0 
 133      D25FB1F4 
 133      376A7913 
 133      EB
 134 072d 7FA7E25B 		.ascii	"\177\247\342[X\374\0076\215E2\016\253\357b\351=,\375"
 134      58FC0736 
 134      8D45320E 
 134      ABEF62E9 
 134      3D2CFD
 135 0740 1796C623 		.ascii	"\027\226\306#y\037\253\037 \371\020\253\023\2604\021"
 135      791FAB1F 
 135      20F910AB 
 135      13B03411 
 136 0750 4B1F0309 		.ascii	"K\037\003\011\233\004\244\336d\254\376\223\206k\012"
 136      9B04A4DE 
 136      64ACFE93 
 136      866B0A
 137 075f 163F45F2 		.ascii	"\026?E\3629\012\376\013K\377\246y\374\005\326\377\033"
 137      390AFE0B 
 137      4BFFA679 
 137      FC05D6FF 
 137      1B
 138 0770 EB5FD234 		.ascii	"\353_\3224\235Js/JPT\034\002\033\242\221\326\213\241"
 138      9D4A732F 
 138      4A50541C 
 138      021BA291 
 138      D68BA1
 139 0783 F234A496 		.ascii	"\3624\244\226\351T\236It\026\265\316\246r\234\240\324"
 139      E9549E49 
 139      7416B5CE 
 139      A6729CA0 
 139      D4
 140 0794 994395B9 		.ascii	"\231C\225\271D\347\023`\001\225\027\012Z\345\026\021"
 140      44E71360 
 140      0195170A 
 140      5AE51611 
ARM GAS  C:\Users\info\AppData\Local\Temp\ccl9i4Az.s 			page 11


 141 07a4 2B9E5809 		.ascii	"+\236X\011\202\326\256\305\202V\241DAI\227DM\313Hq2"
 141      82D6AEC5 
 141      8256A144 
 141      41499744 
 141      4DCB4871 
 142 07b9 955708CA 		.ascii	"\225W\010\312\300\024B\256$\326**\247Ry5\3214\342\254"
 142      C01442AE 
 142      24D62A2A 
 142      A7527935 
 142      D134E2AC 
 143 07cd A3F27A   		.ascii	"\243\362z"
 144 07d0 2A6FA072 		.ascii	"*o\240r:\321M\202'\0125l!\326V*\177M\345mDw\020'\203"
 144      3AD14D82 
 144      270A356C 
 144      21D6562A 
 144      7F4DE56D 
 145 07e9 CA994477 		.ascii	"\312\231Dw\023g\017\321,\342\354\245\362>\242\373\221"
 145      13670FD1 
 145      2CE2ECA5 
 145      F23EA2FB 
 145      91
 146 07fa C2A90393 		.ascii	"\302\251\003\2236\207Zs\221\326?@\255\007\211\036\022"
 146      36875A73 
 146      91D63F40 
 146      AD07891E 
 146      12
 147 080b 3487F2A8 		.ascii	"4\207\362\250r\230\350\021\202\035%\3301\202\035'X>"
 147      7298E811 
 147      821D25D8 
 147      31821D27 
 147      583E
 148 081d B59E205A 		.ascii	"\265\236 Z@\234\223T>E\345\323\254\250\220X\337\020"
 148      409C9354 
 148      3E45E5D3 
 148      ACA89058 
 148      DF10
 149 082f AC88CADF 		.ascii	"\254\210\312\337\022-&Z\2024\344\014\321\263HM\347\010"
 149      122D265A 
 149      8234E40C 
 149      D1B3484D 
 149      E708
 150 0841 5C4AB48C 		.ascii	"\\J\264\214\007\350<U.r\264/Q\234/\223\276\253B\340"
 150      07E83C55 
 150      2E72B42F 
 150      519C2F93 
 150      BEAB42E0 
 151 0855 99F59AA0 		.ascii	"\231\365\232\240\254\271N\032\277\243\226\233Do\361"
 151      ACB94E1A 
 151      BFA3969B 
 151      446FF1
 152 0864 BA729B1A 		.ascii	"\272r\233\032*\210u\207\350]n\270\307\177*\251\375>"
 152      2A887587 
 152      E85D6EB8 
 152      C77F2AA9 
 152      FD3E
 153 0876 B53CA072 		.ascii	"\265<\240r\015(\206S\364Cb=&V-\321\037\210>\241\200"
 153      0D288653 
ARM GAS  C:\Users\info\AppData\Local\Temp\ccl9i4Az.s 			page 12


 153      F443623D 
 153      26562DD1 
 153      1F883EA1 
 154 088b 3CA580D4 		.ascii	"<\245\200\324\221\214]\245\341\212T\2619\212\250\203"
 154      918C5DA5 
 154      E18A54B1 
 154      398AA883 
 155 089b 68345211 		.ascii	"h4R\021\203T\213Ej\235\256Rr\314\240\206\231\3240\213"
 155      83548B45 
 155      6A9DAE52 
 155      72CCA086 
 155      99D4308B 
 156 08af 446753F3 		.ascii	"DgS\363WD\343\210\316%\231y$3\2378\013\210.\"~<\361"
 156      5744E388 
 156      CE259979 
 156      24339F38 
 156      0B882E22 
 157 08c6 13889348 		.ascii	"\023\210\223H\032\226Py)\257\243IX\261-\343J2\265/\247"
 157      1A965079 
 157      29AFA349 
 157      58B12DE3 
 157      4A32B52F 
 158 08db F615D490 		.ascii	"\366\025\324\220\302\015+\251a\0255\244\252\002\237"
 158      C20D2BA9 
 158      611535A4 
 158      AA029F
 159 08ea 3BD6106B 		.ascii	";\326\020k-\261\326\261\224\242\334\203\343\347fU\251"
 159      2DB1D6B1 
 159      94A2DC83 
 159      E3E76655 
 159      A9
 160 08fb 5455F8A3 		.ascii	"TU\370\243]\021Q\331\333>\243\323\350~Z\374\343crO\006"
 160      5D1151D9 
 160      DB3EA3D3 
 160      E87E5AFC 
 160      E363724F 
 161 0910 E25E07CF 		.ascii	"\342^\007\317\216\342\026l$(\321\237\004\366\222\300"
 161      8EE2166C 
 161      2428D19F 
 161      04F692C0 
 162 0920 B67DD33E 		.ascii	"\266}\323>\344v\273I\334\226\002\031\237\220\304.O\025"
 162      E476BB49 
 162      DC960219 
 162      9F90C42E 
 162      4F15
 163 0932 81A0A202 		.ascii	"\201\240\242\002$\256\213\250\262\255q\255H\204\317"
 163      24AE8BA8 
 163      B2AD71AD 
 163      4884CF
 164 0941 B8C72E9D 		.ascii	"\270\307.\235(\026\021;\355\323\333\300C\206\"\276\027"
 164      2816113B 
 164      EDD3DBC0 
 164      438622BE 
 164      17
 165 0952 11A4068E 		.ascii	"\021\244\006\216\270\336'hX\311\351\260\014\333\315"
 165      B8DE2768 
 165      58C9E9B0 
ARM GAS  C:\Users\info\AppData\Local\Temp\ccl9i4Az.s 			page 13


 165      0CDBCD
 166 0961 1D804395 		.ascii	"\035\200C\225T*\340\200\246\\>\256h\240\274jZ^\241\206"
 166      542AE080 
 166      A65C3EAE 
 166      68A0BC6A 
 166      5A5EA186 
 167 0975 CD0EADA5 		.ascii	"\315\016\255\245C\013\204\376\034K\002\270\336\012X"
 167      430B84FE 
 167      1C4B02B8 
 167      DE0A58
 168 0984 EE1B7A88 		.ascii	"\356\033z\2100\213\273d\222#I\212\264qh\255A\020\255"
 168      308BBB64 
 168      9223498A 
 168      B47168AD 
 168      4110AD
 169 0997 ACBED410 		.ascii	"\254\276\324\020y\356>\230\370\271\342\360\261\351\326"
 169      79EE3E98 
 169      F8B9E2F0 
 169      B1E9D6
 170 09a6 E5625924 		.ascii	"\345bY$\032\205+{0\340\304=4DT\212\345\302\035\001\217"
 170      1A852B7B 
 170      30E0C43D 
 170      3444548A 
 170      E5C21D01 
 171 09bb A4A28ABB 		.ascii	"\244\242\212\273\210\217\255K\011\342^\332\201a \265"
 171      888FAD4B 
 171      09E25EDA 
 171      816120B5 
 172 09cb 635AFE56 		.ascii	"cZ\376V\013\307F\210\373\024=\325p\014\204\310/\223"
 172      0BC74688 
 172      FB143DD5 
 172      700C84C8 
 172      2F93
 173 09dd 020FEF38 		.ascii	"\002\017\35782a\012\263\003\225\313\"\372\244\2431k"
 173      32610AB3 
 173      0395CB22 
 173      FAA4A331 
 173      6B
 174 09ee 423559D9 		.ascii	"B5Y\331)'uV\323ZT\363v_%\00214j\232\016\212\264\264"
 174      29277556 
 174      D35A54F3 
 174      765F2502 
 174      31346A9A 
 175 0a06 20D0F432 		.ascii	" \320\3642\014\261\200\206\277\343H\232\222\016\004"
 175      0CB18086 
 175      BFE3489A 
 175      920E04
 176 0a15 5689A52A 		.ascii	"V\211\245*\016\232)U\253\022\377DqS\326\252@\220\324"
 176      0E9A2955 
 176      AB12FF44 
 176      7153D6AA 
 176      4090D4
 177 0a28 955B4D34 		.ascii	"\225[M4\220\034\356\320\324_\010 #\301\207{P0am\235"
 177      901CEED0 
 177      D45F0820 
 177      23C1877B 
 177      5030616D 
ARM GAS  C:\Users\info\AppData\Local\Temp\ccl9i4Az.s 			page 14


 178 0a3d 3A322931 		.ascii	":2)1\0058\327\240\022\200\234\200\221\002P\243\224\304"
 178      0538D7A0 
 178      12809C80 
 178      910250A3 
 178      94C4
 179 0a4f E6820DDD 		.ascii	"\346\202\015\335\205\206\352\012W\366bE\223\225\375"
 179      8586EA0A 
 179      57F66245 
 179      9395FD
 180 0a5e 5811188E 		.ascii	"X\021\030\216'\261wr5\260\376\251}a|\250\026\303\007"
 180      27B17772 
 180      35B0FEA9 
 180      7D617CA8 
 180      16C307
 181 0a71 9A9A9DA7 		.ascii	"\232\232\235\247S\214\347\205\304\325\256g\215\007~"
 181      538CE785 
 181      C4D5AE67 
 181      8D077E
 182 0a80 9E203332 		.ascii	"\236 32\343f\204j\323\030\230\223\263~\256q\364\212"
 182      E366846A 
 182      D3189893 
 182      B37EAE71 
 182      F48A
 183 0a92 378ED30F 		.ascii	"7\216\323\017\375\240\226\354\236\026e\321f2\312\221"
 183      FDA096EC 
 183      9E1665D1 
 183      6632CA91 
 184 0aa2 59B2C738 		.ascii	"Y\262\3078m\3167P\217\375\240\362\327\337\330\030\254"
 184      6DCE3750 
 184      8FFDA0F2 
 184      D7DFD818 
 184      AC
 185 0ab3 CD66D495 		.ascii	"\315f\324\225o\262\267\230\214c\336:\341<O\377\340\367"
 185      6FB2B798 
 185      8C63DE3A 
 185      E13C4FFF 
 185      E0F7
 186 0ac5 D1D22381 		.ascii	"\321\322#\201\341\004\201G\007<)\3409\001O\011\342\011"
 186      E1048147 
 186      073C29E0 
 186      39014F09 
 186      E209
 187 0ad7 FCD6C22F 		.ascii	"\374\326\302/\234\015\304#\370\255\201_8\014\341Q\310"
 187      9C0DC423 
 187      F8AD815F 
 187      380CE151 
 187      C8
 188 0ae8 48F6A738 		.ascii	"H\366\2478\324\355!\212\240o\335\206\322\252\020\236"
 188      D4ED218A 
 188      A06FDD86 
 188      D2AA109E 
 189 0af8 73CF5A8B 		.ascii	"s\317Z\213:9\347J'\242\020\307\272\275B\323\240\356"
 189      3A39E74A 
 189      27A210C7 
 189      BABD42D3 
 189      A0EE
 190 0b0a 4A20033B 		.ascii	"J \003;0\013s\234\352\235\034\032Hu@\251Z\013\263:\273"
ARM GAS  C:\Users\info\AppData\Local\Temp\ccl9i4Az.s 			page 15


 190      300B739C 
 190      EA9D1C1A 
 190      487540A9 
 190      5A0BB33A 
 191 0b1f E7ACE691 		.ascii	"\347\254\346\221\345\002b\002\030\361\214\362\333\256"
 191      E5026202 
 191      18F18CF2 
 191      DBAE
 192 0b2d 2E17ACBE 		.ascii	".\027\254\276\314\304\320.\200F\355\367\244\366\256"
 192      CCC4D02E 
 192      8046EDF7 
 192      A4F6AE
 193 0b3c C0729F64 		.ascii	"\300r\237d\026\230d\221j8\203\212T\026\352\006r<'\252"
 193      16986491 
 193      6A38838A 
 193      5416EA06 
 193      723C27AA 
 194 0b50 75E67407 		.ascii	"u\346t\007\2130\340nv\366 ;\273\273\333\371\202\217"
 194      8B30E06E 
 194      76F6203B 
 194      BBBBDBF9 
 194      828F
 195 0b62 613DA461 		.ascii	"a=\244aQN\303\214>z\2028\252{$\325\365\242n{\222\220"
 195      514EC38C 
 195      3E7A8238 
 195      AA7B24D5 
 195      F5A26E7B 
 196 0b78 8C4C6FE0 		.ascii	"\214Lo\340\322\244\303\330\035\301\330\365FDUl\261#"
 196      D2A4C3D8 
 196      1DC1D8F5 
 196      4644556C 
 196      B123
 197 0b8a 9825FA00 		.ascii	"\230%\372\000\013\037\371n,<+\330\033\253p\030\336\344"
 197      0B1FF96E 
 197      2C3C2BD8 
 197      1BAB7018 
 197      DEE4
 198 0b9c CB9EFA82 		.ascii	"\313\236\372\202\234S\3151T\323\227\005.\030j\372\031"
 198      9C53CD31 
 198      54D39705 
 198      2E186AFA 
 198      19
 199 0bad 9AA52DFD 		.ascii	"\232\245-\375\201\345\212\212\241g\0004\320\324\220"
 199      81E58A8A 
 199      A1670034 
 199      D0D490
 200 0bbc 52038105 		.ascii	"R\003\201\005\235\247\257\251\344\253\222@a\023\321"
 200      9DA7AFA9 
 200      E4AB9240 
 200      6113D1
 201 0bcb 6AB8B3AB 		.ascii	"j\270\263\253|\354j \353\270\2421f\220\273K\005(0\210"
 201      7CEC6A20 
 201      EBB8A231 
 201      6690BB4B 
 201      05283088 
 202 0bdf 67DB2D29 		.ascii	"g\333-)\020\001\034\017-\247P(\202\205\362R\345p\014"
 202      10011C0F 
ARM GAS  C:\Users\info\AppData\Local\Temp\ccl9i4Az.s 			page 16


 202      2DA75028 
 202      8285F252 
 202      E5700C
 203 0bf2 06836572 		.ascii	"\006\203er\261\324\023\224\032L\271\266`\265 V\255\321"
 203      B1D41394 
 203      1A4CB9B6 
 203      60B52056 
 203      ADD1
 204 0c04 3D06AC3C 		.ascii	"=\006\254<\210\201C\3003\367\353:\2130\301>\351\345"
 204      888143C0 
 204      33F7EB3A 
 204      8B30C13E 
 204      E9E5
 205 0c16 E8509073 		.ascii	"\350P\220swt\030\260<l*D\325\303\250\267x\356\354\021"
 205      777418B0 
 205      3C6C2A44 
 205      D5C3A8B7 
 205      78EEEC11 
 206 0c2a BB829CC5 		.ascii	"\273\202\234\305\314\251a\273\221\223\314\234\"\271"
 206      CCA961BB 
 206      9193CC9C 
 206      22B9
 207 0c38 1F206B3B 		.ascii	"\037 k;\263\212%\353\232Xo\317,\261\312\361\302l?\233"
 207      B38A25EB 
 207      9A586FCF 
 207      2CB1CAF1 
 207      C26C3F9B 
 208 0c4c 7A439F27 		.ascii	"zC\237'\346D\302\314\314\276P\037o\034\025\273FO2\261"
 208      E644C2CC 
 208      CCBE501F 
 208      6F1C15BB 
 208      464F32B1 
 209 0c60 EA3C5CC3 		.ascii	"\352<\\\303\223\327\314H\323\014\211,\3106\336\277\354"
 209      93D7CC48 
 209      D30C892C 
 209      C836DEBF 
 209      EC
 210 0c71 1ABE3711 		.ascii	"\032\2767\021\323X\250\"g\306\305`C()\000\205\356\223"
 210      D358A822 
 210      67C6C560 
 210      43282900 
 210      85EE93
 211 0c84 10DDEB4C 		.ascii	"\020\335\353Lg\241\254\345\263\327\311u\036\357\272"
 211      67A1ACE5 
 211      B3D7C975 
 211      1EEFBA
 212 0c93 D6DEDB74 		.ascii	"\326\336\333t<\324\300\234\"\314\014\0251\330=\234\035"
 212      3CD4C09C 
 212      22CC0C15 
 212      31D83D9C 
 212      1D
 213 0ca4 08332329 		.ascii	"\0103#)q\203\3347q\326\307]\333\276\307\3464\2270\263"
 213      7183DC37 
 213      71D6C75D 
 213      DBBEC7E6 
 213      349730B3 
 214 0cb8 088397AF 		.ascii	"\010\203\227\257b6cr.}]\031\314\030\274#\335uj\345\375"
ARM GAS  C:\Users\info\AppData\Local\Temp\ccl9i4Az.s 			page 17


 214      62366372 
 214      2E7D5D19 
 214      CC18BC23 
 214      DD756AE5 
 215 0ccd 4003534B 		.ascii	"@\003SK\230\257\010\243#&\2161u\267/\337\016a\214\216"
 215      98AF08A3 
 215      23268E31 
 215      75B72FDF 
 215      0E618C8E 
 216 0ce1 AB55D2D3 		.ascii	"\253U\322\3233\316\260\304\007\"f\016a\002\0203\227"
 216      33CEB0C4 
 216      0722660E 
 216      61021033 
 216      97
 217 0cf2 31D7D20E 		.ascii	"1\327\322\016\\\225\376\340\366\230Q\221]nv\332F\230"
 217      5C95FEE0 
 217      F6985191 
 217      5D6E76DA 
 217      4698
 218 0d04 7984C1AB 		.ascii	"y\204\301\253^1\2371G\217%\244Y\031\203{\326\211\253"
 218      5E319F31 
 218      478F25A4 
 218      5919837B 
 218      D689AB
 219 0d17 0F2B820C 		.ascii	"\017+\202\014L\015a\026\020\306\214\230\205\214\231"
 219      4C0D6116 
 219      10C68C98 
 219      858C99
 220 0d26 595B1267 		.ascii	"Y[\022gf\014>y\257Y_\224\340\034\220:\302,\"L\020b\342"
 220      660C3E79 
 220      AF595F94 
 220      E01C903A 
 220      C22C224C 
 221 0d3d 19137F62 		.ascii	"\031\023\177b\336\356\000\306\004\341\315rEi\27100\273"
 221      DEEE00C6 
 221      04E1CD72 
 221      4569B930 
 221      30BB
 222 0d4f 09934018 		.ascii	"\011\223@\030\013b\0263\346DJz\201\304X\3602wF\311j"
 222      0B621633 
 222      E6444A7A 
 222      81C458F0 
 222      327746C9 
 223 0d64 973FC188 		.ascii	"\227?\301\210I$L0b\2260\346\207G\005{\345\370\004\343"
 223      49244C30 
 223      629630E6 
 223      8747057B 
 223      E5F804E3 
 224 0d78 A2B4E8FA 		.ascii	"\242\264\350\372\212\000\003\263\223b\275\2240V\304"
 224      8A0003B3 
 224      9362BD94 
 224      3056C4
 225 0d87 2431C671 		.ascii	"$1\306q\340\354V\351\217\025\273-\277\365\304\351O\015"
 225      E0EC56E9 
 225      8F15BB2D 
 225      BFF5C4E9 
 225      4F0D
ARM GAS  C:\Users\info\AppData\Local\Temp\ccl9i4Az.s 			page 18


 226 0d99 F5B38C30 		.ascii	"\365\263\2140!\210If\314\275]\253\323T\306\204`\350"
 226      21884966 
 226      CCBD5DAB 
 226      D354C684 
 226      60E8
 227 0dab 77264E77 		.ascii	"w&Nw\305\2000\313\011\023\212\230\025\214\371\276xC"
 227      C58030CB 
 227      09138A98 
 227      158CF9BE 
 227      7843
 228 0dbd BAC69850 		.ascii	"\272\306\230P\250>(8\227f50\205\241\210I!\214\0151+"
 228      A83E2838 
 228      97663530 
 228      85A18849 
 228      218C0D31 
 229 0dd2 65B66F5F 		.ascii	"e\266o_\2730\304\020ZbC\241h\022\012C\241U \204\207"
 229      BB30C410 
 229      5A6243A1 
 229      68120A43 
 229      A1552084 
 230 0de7 0AD8ECFF 		.ascii	"\012\330\354\377\3762\220\341:\354\377\232C[\252b\355"
 230      FE3290E1 
 230      3AECFF9A 
 230      435BAA62 
 230      ED
 231 0df8 9EC02A9C 		.ascii	"\236\300*\2344\376\211\265kP\203\343\300\013\312!\241"
 231      34FE89B5 
 231      6B5083E3 
 231      C00BCA21 
 231      A1
 232 0e09 958BC830 		.ascii	"\225\213\31006\256J\304\011<\011\215\232]\231\011\177"
 232      36AE4AC4 
 232      093C098D 
 232      9A5D9909 
 232      7F
 233 0e1a 1385E816 		.ascii	"\023\205\350\026>*\365c\020\0140\004qr\342\354\202\363"
 233      3E2AF563 
 233      100C3004 
 233      7172E2EC 
 233      82F3
 234 0e2c 4DA963D5 		.ascii	"M\251c\325\001\271V\014\004\3436W\354zLIj\205\343T\252"
 234      01B9560C 
 234      04E33657 
 234      EC7A4C49 
 234      6A85E354 
 235 0e41 CA7B6BA5 		.ascii	"\312{k\245\032\250l\023\320]tv\011\257H\260@x\317\354"
 235      1AA86C13 
 235      D05D7476 
 235      09AF48B0 
 235      4078CFEC 
 236 0e55 B901EE33 		.ascii	"\271\001\3563{5\373Z\\\2647Ep|.a}\335\331\033\233M\006"
 236      7B35FB5A 
 236      5CB43745 
 236      707C2E61 
 236      7DDDD91B 
 237 0e6c E20CCDF4 		.ascii	"\342\014\315\3645\344{=z\377\300\240\334m\323b\344@"
 237      35E47B3D 
ARM GAS  C:\Users\info\AppData\Local\Temp\ccl9i4Az.s 			page 19


 237      7AFFC0A0 
 237      DC6DD362 
 237      E440
 238 0e7e DCC1FAE6 		.ascii	"\334\301\372\346\323;\262\235\031\\M\2404\002\325G\320"
 238      D33BB29D 
 238      195C4DA0 
 238      3402D547 
 238      D0
 239 0e8f 3A0A18D8 		.ascii	":\012\030\330\030\244\0143\242P\017\243\020\205\216"
 239      18A40C33 
 239      A2500FA3 
 239      10858E
 240 0e9e 07569CB0 		.ascii	"\007V\234\260A\233Y\251\015\345#k]q\240\367Q\241\004"
 240      419B59A9 
 240      0DE5236B 
 240      5D71A0F7 
 240      51A104
 241 0eb1 B7FFA7B4 		.ascii	"\267\377\247\264\375\257W\301\265\027\035\220\263|\230"
 241      FDAF57C1 
 241      B5171D90 
 241      B37C98
 242 0ec0 A5FA4BC0 		.ascii	"\245\372K\300r;\275\022o\004\235^_\342\323k\007\344"
 242      723BBD12 
 242      6F049D5E 
 242      5FE2D36B 
 242      07E4
 243 0ed2 791F57FF 		.ascii	"y\037W\377\315\307\325\021\362\270\272\001vM\327\371"
 243      CDC7D511 
 243      F2B8BA01 
 243      764DD7F9 
 244 0ee2 B4E67A30 		.ascii	"\264\346z0\353\031\011}\211\356\274\034\003\203\236"
 244      EB19097D 
 244      89EEBC1C 
 244      03839E
 245 0ef1 C2B591E4 		.ascii	"\302\265\221\344\317+\312\016\233<\345\021\327\302\307"
 245      CF2BCA0E 
 245      9B3CE511 
 245      D7C2C7
 246 0f00 D19D8291 		.ascii	"\321\235\202\2218\177\026\244n\332\025\302k\177k\221"
 246      387F16A4 
 246      6EDA15C2 
 246      6B7F6B91 
 247 0f10 AECAF3A8 		.ascii	"\256\312\363\250\305\241E\211 \310\217\221\346\033\301"
 247      C5A14589 
 247      20C88F91 
 247      E61BC1
 248 0f1f A0C82203 		.ascii	"\240\310\"\003\303\243^\237G\375\376\001\271K\351n\303"
 248      C3A35E9F 
 248      47FDFE01 
 248      B94BE96E 
 248      C3
 249 0f30 1CACB4D2 		.ascii	"\034\254\264\322\320>\271Y\374\022Z\241\227o\034\007"
 249      D03EB959 
 249      FC125AA1 
 249      976F1C07 
 250 0f40 4FCA247F 		.ascii	"O\312$\177&\304F\225\037\003\254\240\325\330D\350\024"
 250      26C44695 
ARM GAS  C:\Users\info\AppData\Local\Temp\ccl9i4Az.s 			page 20


 250      1F03ACA0 
 250      D5D844E8 
 250      14
 251 0f51 1AC63BCF 		.ascii	"\032\306;\317\235\207r\313\177Y\262\366\245\2043c\024"
 251      9D8772CB 
 251      7F59B2F6 
 251      A5843363 
 251      14
 252 0f62 E8FAF674 		.ascii	"\350\372\366tdvH\237\315\030 \373T<Ye \364e\312\231"
 252      6476489F 
 252      CD1820FB 
 252      543C5965 
 252      20F465CA 
 253 0f77 4D2AEEED 		.ascii	"M*\356\355Q\366\217]\007\254Q\264\303<}\352\332bp\315"
 253      51F68F5D 
 253      07AC51B4 
 253      C33C7DEA 
 253      DA6270CD 
 254 0f8b 071FC3C0 		.ascii	"\007\037\303\300\272\340\3749\241\270QX\320\234\020"
 254      BAE0FC39 
 254      A1B85158 
 254      D09C10
 255 0f9a CFDC5609 		.ascii	"\317\334V\011\2705"
 255      B835
 256 0fa0 B6A14B17 		.ascii	"\266\241K\027o\251\333\362\232x\352\002l\250'\326JV"
 256      6FA9DBF2 
 256      9A78EA02 
 256      6CA827D6 
 256      4A56
 257 0fb2 5716CC93 		.ascii	"W\026\314\223\216\274\002v\227l*H\265\366\351\2051\300"
 257      8EBC0276 
 257      976C2A48 
 257      B5F6E985 
 257      31C0
 258 0fc4 5707DD28 		.ascii	"W\007\335(bb3XLN\037\224S\350U\220V\334\"8\232\366\367"
 258      62623358 
 258      4C4E1F94 
 258      53E85590 
 258      56DC2238 
 259 0fdb 579DBB2D 		.ascii	"W\235\273-\0312\232\014\331\353\307\020\233\247!\032"
 259      19329A0C 
 259      D9EBC710 
 259      9BA7211A 
 260 0feb 2B2F5EF2 		.ascii	"+/^\362G\3266\006\217\372\300\212\277LP\257p\276\356"
 260      47D63606 
 260      8FFAC08A 
 260      BF4C50AF 
 260      70BEEE
 261 0ffe 0CE7     		.ascii	"\014\347"
 262 1000 18326E8B 		.ascii	"\0302n\213\332\007\217\2434\332\233\277\352\"G\033\337"
 262      DA078FA3 
 262      34DA9BBF 
 262      EA22471B 
 262      DF
 263 1011 4755556F 		.ascii	"GUUo\012\3409n\023[\235\203\037\246\304\011\367\321"
 263      0AE0396E 
 263      135B9D83 
ARM GAS  C:\Users\info\AppData\Local\Temp\ccl9i4Az.s 			page 21


 263      1FA6C409 
 263      F7D1
 264 1023 FF15E686 		.ascii	"\377\025\346\206aY=O\313LlY\301Ri\331\257\345\351h\237"
 264      61593D4F 
 264      CB4C6C59 
 264      C15269D9 
 264      AFE5E968 
 265 1038 5C1DFE03 		.ascii	"\\\035\376\003m\313\230\363\2053b BF}\015\021\003\213"
 265      6DCB98F3 
 265      85336220 
 265      42467D0D 
 265      11038B
 266 104b CE39561A 		.ascii	"\3169V\032\353\010\010K\003\352+\203\250\377\330\342"
 266      EB08084B 
 266      03EA2B83 
 266      A8FFD8E2 
 267 105b A57FE1C6 		.ascii	"\245\177\341\306\337\200\003\356\273\272\031\302\270"
 267      DF8003EE 
 267      BBBA19C2 
 267      B8
 268 1068 CDEDF042 		.ascii	"\315\355\360B\341\374\015\201\033x\032\250\313\223\271"
 268      E1FC0D81 
 268      1B781AA8 
 268      CB93B9
 269 1077 61E06FBD 		.ascii	"a\340o\275\014\374\235\257\201\277%\003\267\263\201"
 269      0CFC9DAF 
 269      81BF2503 
 269      B7B381
 270 1086 A5EE06FE 		.ascii	"\245\356\006\376N\032\330\320\210Pl^\222\264\3605\260"
 270      4E1AD8D0 
 270      88506C5E 
 270      92B4F035 
 270      B0
 271 1097 D0D7A4D7 		.ascii	"\320\327\244\327H\274\221\247I\001\354xF\234\034\212"
 271      48BC91A7 
 271      4901EC78 
 271      469C1C8A 
 272 10a7 08B789D7 		.ascii	"\010\267\211\327\030\327W\262\270&\351Mn\376\275\227"
 272      18D757B2 
 272      B826E94D 
 272      6EFEBD97 
 273 10b7 C57FF0B5 		.ascii	"\305\177\360\265\370\367d\361\016#\011\253\345\214\376"
 273      F8F764F1 
 273      0E2309AB 
 273      E58CFE
 274 10c6 231EE8DC 		.ascii	"#\036\350\334\220\257\373\"\377H\310\235\306`|m\364"
 274      90AFFB22 
 274      FF48C89D 
 274      C6607C6D 
 274      F4
 275 10d7 01C2D2A2 		.ascii	"\001\302\322\242&J_v\265.i\"7\376\311\257\253\177\""
 275      264A5F76 
 275      B52E6922 
 275      37FEC9AF 
 275      AB7F22
 276 10ea E9A69EAE 		.ascii	"\351\246\236\256ZX\3553\177\2566s\272\232\227,]\375"
 276      5A58ED33 
ARM GAS  C:\Users\info\AppData\Local\Temp\ccl9i4Az.s 			page 22


 276      7FAE3673 
 276      BA9A972C 
 276      5DFD
 277 10fc B397AB7F 		.ascii	"\263\227\253\177\3615\370\317dp\206\267\253ox\271\372"
 277      F135F8CF 
 277      647086B7 
 277      AB6F78B9 
 277      FA
 278 110d 575FE41B 		.ascii	"W_\344\033\204\3144\206\325p\365/ ,-j\256D\312a-H\226"
 278      84CC3486 
 278      D570F52F 
 278      202C2D6A 
 278      AE44CA61 
 279 1124 BEFECDAF 		.ascii	"\276\376\315\257\257\177#\361\026\236\276\006\312\251"
 279      AF7F23F1 
 279      169EBE06 
 279      CAA9
 280 1132 B07C1843 		.ascii	"\260|\030C\337\224\316\304\24742&)\032\304st\270\323"
 280      DF94CEC4 
 280      A7343226 
 280      291AC473 
 280      74B8D3
 281 1145 AC37C9AC 		.ascii	"\2547\311\254]8G\007\221\332pO\265f\271\232.\227\011"
 281      5D384707 
 281      91DA704F 
 281      B566B99A 
 281      2E9709
 282 1158 FC96578C 		.ascii	"\374\226W\214\376\341\2418\314\251\367-\322\273\233"
 282      FEE1A138 
 282      CCA9F72D 
 282      D2BB9B
 283 1167 02E59CCA 		.ascii	"\002\345\234\312c)\215\377Af\011\037\253\274\301{\320"
 283      63298DFF 
 283      4166091F 
 283      ABBCC17B 
 283      D0
 284 1178 A8B16454 		.ascii	"\250\261dTKO\243\202\340t\277\324\236\271\362\2464\""
 284      4B4FA382 
 284      E074BFD4 
 284      9EB9F2A6 
 284      3422
 285 118a C2FB1050 		.ascii	"\302\373\020P\024\354~\010\310\362s\274_hq\035\357\033"
 285      14EC7E08 
 285      C8F273BC 
 285      5F68711D 
 285      EF1B
 286 119c A0D05E7F 		.ascii	"\240\320^\177\307{\213\353x\337\020\205\366\261\220"
 286      C77B8BEB 
 286      78DF1085 
 286      F6B190
 287 11ab C7797EBB 		.ascii	"\307y~\273\305u\236o\204B\373Y\310\343\000\237eq\035"
 287      C5759E6F 
 287      8442FB59 
 287      C8E3009F 
 287      65711D
 288 11be E01BA350 		.ascii	"\340\033\243P6\013y\234\330\213,\256\023{\023\024\312"
 288      360B799C 
ARM GAS  C:\Users\info\AppData\Local\Temp\ccl9i4Az.s 			page 23


 288      D88B2CAE 
 288      137B1314 
 288      CA
 289 11cf 61218F23 		.ascii	"a!\217#z\231\305uDo\212B\271,\344q&\257\263\270\316"
 289      7A99C575 
 289      446F8A42 
 289      B92CE471 
 289      26AFB3B8 
 290 11e4 E4CD50E8 		.ascii	"\344\315P\350\200<\367\272\037\302\027\007\273\016\341"
 290      803CF7BA 
 290      1FC21707 
 290      BB0EE1
 291 11f3 CD51E820 		.ascii	"\315Q\350 \013y\234\036w\007\273N\217-P\350\220q\316"
 291      0B799C1E 
 291      7707BB4E 
 291      8F2D50E8 
 291      9071CE
 292 1206 69A53474 		.ascii	"i\2454t\033\222\006\234'\327\323d\236\274\357|N\315"
 292      1B92069C 
 292      27D7D364 
 292      9EBCEF7C 
 292      4ECD
 293 1218 9773E403 		.ascii	"\227s\344\003\2579\362\241\357\034\371\200\206+\217"
 293      AF39F2A1 
 293      EF1CF980 
 293      862B8F
 294 1227 67577C4A 		.ascii	"gW|J\023\337\304}\335)\373>\311\036\306\034\371\220"
 294      13DFC47D 
 294      DD29FB3E 
 294      C91EC61C 
 294      F990
 295 1239 EC69ED61 		.ascii	"\354i\355aOC\356<o\235\234\333\343\274\362\366\335\347"
 295      4F43EE3C 
 295      6F9D9CDB 
 295      E3BCF2F6 
 295      DDE7
 296 124b A4DE3852 		.ascii	"\244\3368R{\304\230\340E\322\370\367\274\214\377/_\343"
 296      7BC498E0 
 296      45D2F8F7 
 296      BC8CFF2F 
 296      5FE3
 297 125d DF23E451 		.ascii	"\337#\344Q\316\370G\261\325r+\036\017}\201\374O\346"
 297      CEF847B1 
 297      D5722B1E 
 297      0F7D81FC 
 297      4FE6
 298 126f 3C777C0C 		.ascii	"<w|\014\375\031O\376\264\361\360\247\221|\350\357\312"
 298      FD194FFE 
 298      B4F1F0A7 
 298      917CE8EF 
 298      CA
 299 1280 5A370B2F 		.ascii	"Z7\013/\177\266\210\347\350\335L\037\375\211\343\336"
 299      7FB688E7 
 299      E8DD4C1F 
 299      FD89E3DE 
 300 1290 1E6D155E 		.ascii	"\036m\025^.}-|}\332\312\340|v\352\211\323\251m\002{"
 300      2E7D2D7C 
ARM GAS  C:\Users\info\AppData\Local\Temp\ccl9i4Az.s 			page 24


 300      7DDACAE0 
 300      7C76EA89 
 300      D3A96D02 
 301 12a5 44CC4FFA 		.ascii	"D\314O\372%\373?\201\216m\343\314i\353\341Yc\266+\267"
 301      25FB3F81 
 301      8E6DE3CC 
 301      69EBE159 
 301      63B62BB7 
 302 12b9 1BAB4EF3 		.ascii	"\033\253N\363\366l\335\363<Kc\315\005\336\236\255\367"
 302      F66CDDF3 
 302      3C4B63CD 
 302      05DE9EAD 
 302      F7
 303 12ca F66C831F 		.ascii	"\366l\203\037\317\3263\370${V\353\364,\035\357;\005"
 303      CFD633F8 
 303      247B56EB 
 303      F42C1DEF 
 303      3B05
 304 12dc 627ED233 		.ascii	"b~\3223\331\377)\364,\235=k\347\341Y\0239f\322\263\024"
 304      D9FF29F4 
 304      2C9D3D6B 
 304      E7E15913 
 304      3966D2B3 
 305 12f1 6FCF563E 		.ascii	"o\317V>\317\263\024\326|\332\333\263U\336\236\245\372"
 305      CFB314D6 
 305      7CDADBB3 
 305      55DE9EA5 
 305      FA
 306 1302 F16C1583 		.ascii	"\361l\025\203\013\345\322\353\364l\265\300\036\021\363"
 306      0BE5D2EB 
 306      F46CB5C0 
 306      1E11F3
 307 1311 939EC9FE 		.ascii	"\223\236\311\376\277A\317V\263g\355=<k*g\327\206\271"
 307      BF41CF56 
 307      B367ED3D 
 307      3C6B2A67 
 307      D786B9
 308 1324 3E37F667 		.ascii	">7\366g\341\034Y\012\277\347]O3E\370\2340\337\315{b"
 308      E11C590A 
 308      BFE75D4F 
 308      3345F89C 
 308      30DFCD7B 
 309 1339 2CF063FB 		.ascii	",\360c\373|\356\370[7\307Iv\241@y\332\005\241\216} "
 309      7CEEF85B 
 309      37C74976 
 309      A14079DA 
 309      05A18E7D 
 310 134e 4FEE7860 		.ascii	"O\356x`\004K-r\013\0171\342\375t\261\210\273(\366\356"
 310      044B2D72 
 310      0B0F31E2 
 310      FD74B188 
 310      BB28F6EE 
 311 1362 2241A0BC 		.ascii	"\"A\240\274\263\213R\224M\240{\353\305\261\205\335Y"
 311      B38B5294 
 311      4DA07BEB 
 311      C5B185DD 
 311      59
ARM GAS  C:\Users\info\AppData\Local\Temp\ccl9i4Az.s 			page 25


 312 1373 66B16053 		.ascii	"f\261`S\022\\r\347Qn1\313\275\2428\264\231d)\251\002"
 312      125C72E7 
 312      516E31CB 
 312      BDA238B4 
 312      996429A9 
 313 1388 F585332F 		.ascii	"\365\2053/lx\023\345\236\267\212I\207K0\3223\371\226"
 313      6C7813E5 
 313      9EB78A49 
 313      874B30D2 
 313      33F996
 314 139b 1CB53447 		.ascii	"\034\2654G\235\200\251\272\026\371H\225\257[Tq\206n"
 314      9D80A9BA 
 314      16F94895 
 314      AF5B5471 
 314      866E
 315 13ad D51CDBA7 		.ascii	"\325\034\333\247]\337\260[z\270\014\272jN/j\370\222"
 315      5DDFB05B 
 315      7AB80CBA 
 315      6A4E2F6A 
 315      F892
 316 13bf 9398C902 		.ascii	"\223\230\311\002\033x\015\015\227\275;\017\333\026a"
 316      1B780D0D 
 316      97BD3B0F 
 316      DB1661
 317 13ce 83EAFCBA 		.ascii	"\203\352\374\272=\231\201^\326\210\263|8\022\347\320"
 317      3D99815E 
 317      D688B37C 
 317      3812E7D0 
 318 13de 9A641EF7 		.ascii	"\232d\036\367\016\036\343\336L\206<\3753\316\251i\336"
 318      0E1EE3DE 
 318      4C863CFD 
 318      33CEA969 
 318      DE
 319 13ef 293DDD4F 		.ascii	")=\335O\304\247\261\217\245r\021A\377\034B\212n?x8\326"
 319      C4A7B18F 
 319      A5721141 
 319      FF1C428A 
 319      6E3F7838 
 320 1404 CCCF0042 		.ascii	"\314\317\000B\224\261\177;\247\225\313;\311Y\002E\351"
 320      94B17F3B 
 320      A795CB3B 
 320      C9590245 
 320      E9
 321 1415 D0E67687 		.ascii	"\320\346v\207;[`\213\341\036g\361\217\372s\036\375\231"
 321      3B5B608B 
 321      E11E67F1 
 321      8FFA731E 
 321      FD99
 322 1427 4D887D5B 		.ascii	"M\210}[\257]\221\312\347<o\366I{/\260\275\306\005\356"
 322      AF5D91CA 
 322      E73C6FF6 
 322      497B2FB0 
 322      BDC605EE 
 323 143b 5C81107C 		.ascii	"\\\201\020|F\376\251\331#\361\027\261\327\271\034\305"
 323      46FEA9D9 
 323      23F117B1 
 323      D7B91CC5 
ARM GAS  C:\Users\info\AppData\Local\Temp\ccl9i4Az.s 			page 26


 324 144b 8E1E516C 		.ascii	"\216\036Ql\316Q\254I\367\235=\027\300\354\213\360{\311"
 324      CE51AC49 
 324      F79D3D17 
 324      C0EC8BF0 
 324      7BC9
 325 145d 357B2EE1 		.ascii	"5{.\341\220~\356\2123\325\377\345\033\346\317\251\327"
 325      907EEE8A 
 325      33D5FFE5 
 325      1BE6CFA9 
 325      D7
 326 146e CB6E794D 		.ascii	"\313nyM\222\377\006a\312V\250\241z\340\310g\022\350"
 326      92FF0661 
 326      CA56A8A1 
 326      7AE0C867 
 326      12E8
 327 1480 9E45BE70 		.ascii	"\236E\276pM\033\252\377\267\257\362/H\371\025o\345_"
 327      4D1BAAFF 
 327      B7AFF22F 
 327      48F9156F 
 327      E55F
 328 1492 82B053F9 		.ascii	"\202\260S\371E\024\374\222gL\356\013,0\225d\376\355"
 328      4514FC92 
 328      674CEE0B 
 328      2C309564 
 328      FEED
 329 14a4 94B98432 		.ascii	"\224\271\2042S\235\263\245)\340\321>\232*\005\033\337"
 329      539DB3A5 
 329      29E0D13E 
 329      9A2A051B 
 329      DF
 330 14b5 4499E74D 		.ascii	"D\231\347M\025\366\357*F\265\2513\221\232\2016\327\274"
 330      15F6EF2A 
 330      46B5A933 
 330      919A8136 
 330      D7BC
 331 14c7 28DEB85B 		.ascii	"(\336\270[\272\020\015\243\325\314m^\0203F`\203\221"
 331      BA100DA3 
 331      D5CC6D5E 
 331      10334660 
 331      8391
 332 14d9 38DCD58F 		.ascii	"8\334\325\217&N9v\026\303C\330\311c\010[\310\030n\224"
 332      264E3976 
 332      16C343D8 
 332      C963085B 
 332      C8186E94 
 333 14ed 136182D7 		.ascii	"\023a\202\327<\230\350\033\302\011\244\362\232\363Q"
 333      3C98E81B 
 333      C209A4F2 
 333      9AF351
 334 14fc 5DA6E1C7 		.ascii	"]\246\341\307 L7:\316\254\237\004L\367\2673aB\021\327"
 334      204C373A 
 334      CEAC9F04 
 334      4CF7B733 
 334      614211D7 
 335 1510 3DA7C064 		.ascii	"=\247\300d\220\372_L\200\357\320\217\311\234\377\325"
 335      90FA5F4C 
 335      80EFD08F 
ARM GAS  C:\Users\info\AppData\Local\Temp\ccl9i4Az.s 			page 27


 335      C99CFFD5 
 336 1520 46FE4F79 		.ascii	"F\376OyN\372\262\23578\373\215w<\237\262\274s\272\206"
 336      4EFAB29D 
 336      3738FB8D 
 336      773C9FB2 
 336      BC73BA86 
 337 1534 C074BDA9 		.ascii	"\300t\275\251\376\364\\`e\267\260\377O)\214\235=O\362"
 337      FEF45C60 
 337      65B7B0FF 
 337      4F298C9D 
 337      3D4FF2
 338 1547 C1740771 		.ascii	"\301t\007q\377\270\215\236n\366\363\375\010\312u\361"
 338      FFB88D9E 
 338      6EF6F3FD 
 338      08CA75F1 
 339 1557 940B918F 		.ascii	"\224\013\221\217!\233\345\323\315\016Zxn\010\207\375"
 339      219BE5D3 
 339      CD0E5A78 
 339      6E0887FD 
 340 1567 0D6664D0 		.ascii	"\015fd\320izWEi\340\324\247\366\351dB\203g*\014\235"
 340      697A5745 
 340      69E0D4A7 
 340      F6E96442 
 340      83672A0C 
 341 157c B8AD4E55 		.ascii	"\270\255NUb\350<\010\007\030\343UQ\246\240G\221\214"
 341      62E83C08 
 341      0718E355 
 341      51A6A047 
 341      918C
 342 158e E7ED856E 		.ascii	"\347\355\205nOH;x:W\240\017\231\234\013]\225\2436zw"
 342      4F483B78 
 342      3A57A00F 
 342      999C0B5D 
 342      95A3367A 
 343 15a3 9E10D7D2 		.ascii	"\236\020\327\322{\006\227;g\256w\3135l\371^\365\323"
 343      7B06973B 
 343      67AE77CB 
 343      356CF95E 
 343      F5D3
 344 15b5 F21DB6DC 		.ascii	"\362\035\266\334\301\026q\027&\011T\345\025\035\236"
 344      C1167117 
 344      260954E5 
 344      151D9E
 345 15c4 A833DF44 		.ascii	"\2503\337D\246C\333\343\266\326\022#\313\317Z\273\207"
 345      A643DBE3 
 345      B6D61223 
 345      CBCF5ABB 
 345      87
 346 15d5 8DBDC78F 		.ascii	"\215\275\307\217\231'\3611\323%\233v=)\316\312\213m"
 346      9927F131 
 346      D3259B76 
 346      3D29CECA 
 346      8B6D
 347 15e7 84A8743E 		.ascii	"\204\250t>\011wS\256\005\362\223\360\235\314L)\277W"
 347      097753AE 
 347      05F293F0 
 347      9DCC4C29 
ARM GAS  C:\Users\info\AppData\Local\Temp\ccl9i4Az.s 			page 28


 347      BF57
 348 15f9 C897B6F0 		.ascii	"\310\227\266\360\350F\214}\300\260\"_\036\352uf\357"
 348      E8468C7D 
 348      C0B0225F 
 348      1EEA7566 
 348      EF
 349 160a 17D8246F 		.ascii	"\027\330$o$\211\223-\350%\336~!\337\342\0213G\370\274"
 349      2489932D 
 349      E825DE7E 
 349      21DFE211 
 349      3347F8BC 
 350 161e C6CB16F2 		.ascii	"\306\313\026\362=^\225\363=^\271\306\322\271\002\021"
 350      3D5E95F3 
 350      3D5EB9C6 
 350      D2B90211 
 351 162e B2A340E6 		.ascii	"\262\243@\346\035\020\350\004-\034\262\243\203\036."
 351      1D10E804 
 351      2D1CB2A3 
 351      831E2E
 352 163d 59C0A5FB 		.ascii	"Y\300\245\373j8\012R\336\306\346Ke\207\004+<\310{\266"
 352      6A380A52 
 352      DEC6E64B 
 352      6587042B 
 352      3CC87BB6 
 353 1651 8C2FF2C9 		.ascii	"\214/\362\311\371\356N\347\353\234\316\347y;\177\230"
 353      F9EE4EE7 
 353      EB9CCEE7 
 353      793B7F98 
 354 1661 9DCFF372 		.ascii	"\235\317\363r\376\210\300&w\347\217\262\363G<\234?\346"
 354      FE88C026 
 354      77E78FB2 
 354      F3473C9C 
 354      3FE6
 355 1673 EBFC51C3 		.ascii	"\353\374Q\303\371j\037\347\217\013D0\257L:\237\357t"
 355      F96A1FE7 
 355      8F0B4430 
 355      AF4C3A9F 
 355      EF74
 356 1685 DEB0E884 		.ascii	"\336\260\350\204@.\276??5\375\231\014\300h\361\200\027"
 356      402EBE3F 
 356      3F35FD99 
 356      0CC068F1 
 356      8017
 357 1697 C2AAD822 		.ascii	"\302\252\330\")V X\341\011y\220\311\333U-}<\211\340"
 357      29562058 
 357      E1097990 
 357      C9DB552D 
 357      7D3C89E0 
 358 16ab E997A77D 		.ascii	"\351\227\247}ca\360#E\324`\370\362e\370\014\015\247"
 358      6361F023 
 358      45D460F8 
 358      F265F80C 
 358      0DA7
 359 16bd A4869382 		.ascii	"\244\206\223\202\037k\3522'q\303i\301\352Oy\305\365"
 359      1F6BEA32 
 359      2771C369 
 359      C1EA4F79 
ARM GAS  C:\Users\info\AppData\Local\Temp\ccl9i4Az.s 			page 29


 359      C5F5
 360 16cf 34C7B587 		.ascii	"4\307\265\207\234\"a\012\263\345\004.\336\265D\032P"
 360      9C22610A 
 360      B3E5042E 
 360      DEB5441A 
 360      50
 361 16e0 E8765823 		.ascii	"\350vX#\3067~\322\271\220\323\371\241\261h\032\221/"
 361      C6377ED2 
 361      B990D3F9 
 361      A1B1681A 
 361      912F
 362 16f2 1228EF1E 		.ascii	"\022(\357\036\220oy\210\212\210\231\211/\231\211],\260"
 362      906F7988 
 362      8A889989 
 362      2F99895D 
 362      2CB0
 363 1704 E9A9DBB7 		.ascii	"\351\251\333\267\360\026\321F<r\276\2356\261X\211@Q"
 363      F016D146 
 363      3C72BE9D 
 363      36B15889 
 363      4051
 364 1716 852FDB89 		.ascii	"\205/\333\211sF \327\355\272\235\270g\005\335\267\237"
 364      734620D7 
 364      EDBA9DB8 
 364      6705DDB7 
 364      9F
 365 1727 F118DF73 		.ascii	"\361\030\337s^\343\033\214r\362\272\3751\217/\254<\345"
 365      5EE31B8C 
 365      72F2BAFD 
 365      318F2FAC 
 365      3CE5
 366 1739 524529A8 		.ascii	"RE)\250\010A\020\307\263L\016{\031\260\203\261\325\031"
 366      084110C7 
 366      B34C0E7B 
 366      19B083B1 
 366      D519
 367 174b CD720C40 		.ascii	"\315r\014@\231\340\307\223\013\273\222e\230\316\273"
 367      99E0C793 
 367      0BBB9265 
 367      98CEBB
 368 175a E171E5BA 		.ascii	"\341q\345\272\353q\345\357\325}-t\217\020~\022(\316"
 368      EB71E5EF 
 368      D57D2D74 
 368      8F107E12 
 368      28CE
 369 176c 84E0DF41 		.ascii	"\204\340\337A%\0271Z\306}?ppmB.^i\207\340\334\350VV"
 369      2517315A 
 369      C67D3F70 
 369      706D422E 
 369      5E6987E0 
 370 1784 592E7030 		.ascii	"Y.p0\273W\343\033\233W\225\270z\362\035\000IZ\345\307"
 370      BB57E31B 
 370      9B5795B8 
 370      7AF21D00 
 370      495AE5C7 
 371 1798 1D6463B0 		.ascii	"\035dc\260\034\332\314/Y\371n\201oia\371)pLa\216\025"
 371      1CDACC2F 
ARM GAS  C:\Users\info\AppData\Local\Temp\ccl9i4Az.s 			page 30


 371      59F96E81 
 371      6F6961F9 
 371      29704C61 
 372 17ae 99389255 		.ascii	"\2318\222U\002\254\213\023/\010\364\254G\372\375\012"
 372      02AC8B13 
 372      2F08F4AC 
 372      47FAFD0A 
 373 17be 58E7A031 		.ascii	"X\347\2401\2218\027\201S\271\035\277M\352\211\213?\235"
 373      91381781 
 373      53B91DBF 
 373      4DEA898B 
 373      3F9D
 374 17d0 04EFEC5A 		.ascii	"\004\357\354Z,p\315th\2270@\316e1\220\231\227\0056\360"
 374      2C70CD74 
 374      68973040 
 374      CE653190 
 374      99970536 
 375 17e5 4ED81859 		.ascii	"N\330\030Y^;\341p\357\235\360\007\\\305/#\"\267z\313"
 375      5E3BE170 
 375      EF9DF007 
 375      5CC52F23 
 375      22B77ACB 
 376 17f9 C9AB8112 		.ascii	"\311\253\201\022\343\334ku\372\022\"\2452q\216\206/"
 376      E3DC6B75 
 376      FA1222A5 
 376      32718E86 
 376      2F
 377 180a 50A223F9 		.ascii	"P\242#\371{\237F\016\355\252\020OP\011\0146}\360\343"
 377      7B9F460E 
 377      EDAA104F 
 377      50090C36 
 377      7DF0E3
 378 181d FC94A711 		.ascii	"\374\224\247\021l\205u\362eD/\317]\313\246\340\273\252"
 378      6C8575F2 
 378      65442FCF 
 378      5DCBA6E0 
 378      BBAA
 379 182f E2507983 		.ascii	"\342Py\203\353\363\252\312\346~K\365\214o_\022\212\236"
 379      EBF3AACA 
 379      E67E4BF5 
 379      8C6F5F12 
 379      8A9E
 380 1841 7CC92F39 		.ascii	"|\311/9\222\261\032\223v\"\303\371\232\361\014\275\312"
 380      92B11A93 
 380      7622C3F9 
 380      9AF10CBD 
 380      CA
 381 1852 B36B7819 		.ascii	"\263kx\031\203\035\212H\215_\351\226\335\275,\337\214"
 381      831D8A48 
 381      8D5FE996 
 381      DDBD2CDF 
 381      8C
 382 1863 A460FD78 		.ascii	"\244`\375xu\331\035\347\375T5\201\242\010\324\022A\016"
 382      75D91DE7 
 382      FD543581 
 382      A208D412 
 382      410E
ARM GAS  C:\Users\info\AppData\Local\Temp\ccl9i4Az.s 			page 31


 383 1875 4DDEE0F4 		.ascii	"M\336\340\364Vr\0257k\345\234\250\331\375W\266\367\266"
 383      56721537 
 383      6BE59CA8 
 383      D9FD57B6 
 383      F7B6
 384 1887 F7E1BEC2 		.ascii	"\367\341\276\302\317\014\275\31534Z\353\003\273\261"
 384      CF0CBDCD 
 384      33345AEB 
 384      03BBB1
 385 1896 FC40E48E 		.ascii	"\374@\344\216\357^\334\370\231\252\202X\014\234\375"
 385      EF5EDCF8 
 385      99AA8258 
 385      0C9CFD
 386 18a5 504F0C3C 		.ascii	"PO\014<\033{\\\203\336\021nW\263}\224\266\362\316w\267"
 386      1B7B5C83 
 386      DE116E57 
 386      B37D94B6 
 386      F2CE77B7 
 387 18b9 BC07BD2B 		.ascii	"\274\007\275+\374^\204\336e?\372z\372\321Rn\234{\344"
 387      FC5E84DE 
 387      653FFA7A 
 387      FAD1526E 
 387      9C7BE4
 388 18cc D5CF756F 		.ascii	"\325\317uo?\276\363\343\307u\366#\326\335\217\233\317"
 388      3FBEF3E3 
 388      C775F623 
 388      D6DD8F9B 
 388      CF
 389 18dd F5631AF9 		.ascii	"\365c\032\371\361\235\341\207\353\346\372\246\273\037"
 389      F19DE187 
 389      EBE6FAA6 
 389      BB1F
 390 18eb FD0C3FEE 		.ascii	"\375\014?\356\354\221~\334\362\357\307-\366\243\277"
 390      EC917EDC 
 390      F2EFC72D 
 390      F6A3BF
 391 18fa 67F684D1 		.ascii	"g\366\204\321-\347\243\373\306-\247O\376\024y|\3040"
 391      2DE7A3FB 
 391      C62DA74F 
 391      FE14797C 
 391      C430
 392 190c 5DF3BDE2 		.ascii	"]\363\275\342\333bs]\361\265B\241\031,\344\361\302;"
 392      DB62735D 
 392      F1B542A1 
 392      192CE4F1 
 392      C23B
 393 191e D3E67AE1 		.ascii	"\323\346z\341\335\032\205f\262\320\222\323\213S\345"
 393      DD1A8566 
 393      B2D092D3 
 393      8B53E5
 394 192d 57668DA0 		.ascii	"Wf\215\240\2722o\375^\327G\014\204\231EI\325\0061\263"
 394      BA326FFD 
 394      5ED7470C 
 394      84994549 
 394      D50631B3 
 395 1941 19733FBD 		.ascii	"\031s?\275d\216\374P\240)&\346\236y\361\026g\366\022"
 395      648EFC50 
ARM GAS  C:\Users\info\AppData\Local\Temp\ccl9i4Az.s 			page 32


 395      A02926E6 
 395      9E79F116 
 395      67F612
 396 1954 E62BC2B4 		.ascii	"\346+\302\264EL\034c\242g<,\011bL+\250\326\226\177\357"
 396      454C1C63 
 396      A2673C2C 
 396      09624C2B 
 396      A8D6967F 
 397 1969 84DC23C8 		.ascii	"\204\334#\310\034\202\340\327qb.C\322\027\345\231\030"
 397      1C82E0D7 
 397      71622E43 
 397      D217E599 
 397      18
 398 197a 81FF2936 		.ascii	"\201\377)6\263$w\271s\216<\"\310<\202\264G\310|\206"
 398      B32477B9 
 398      738E3C22 
 398      C83C82B4 
 398      47C87C86 
 399 198e 7CB776FD 		.ascii	"|\267v\375v\371\372\036?WY\220R\210_}\310\211X\237\302"
 399      76F9FA1E 
 399      3F575990 
 399      52885F7D 
 399      C889589F 
 400 19a3 44980E88 		.ascii	"D\230\016\210Y(#P\271-U~*\361-\256\013\337\336~0\313"
 400      59282350 
 400      B92D557E 
 400      2AF12DAE 
 400      0BDFDE7E 
 401 19b9 79A59B44 		.ascii	"y\245\233D\240E\004\352\210\240x\006\225V\314\315\226"
 401      A04504EA 
 401      88A07806 
 401      9556CCCD 
 401      96
 402 19ca 1D5D4350 		.ascii	"\035]CP\335\332\350\256\316P\023&\2010\235\020\263\330"
 402      DDDAE8AE 
 402      CE501326 
 402      81309D10 
 402      B3D8
 403 19dc 988B2FC9 		.ascii	"\230\213/\311\307\013n\250\022\233\004^N\367\257X\360"
 403      C70B6EA8 
 403      129B045E 
 403      4EF7AF58 
 403      F0
 404 19ed 185FAD0F 		.ascii	"\030_\255\017w\265v\304\326\025\334\032\275\000\033"
 404      77B576C4 
 404      D615DC1A 
 404      BD001B
 405 19fc 07783C99 		.ascii	"\007x<\231\264\222\253\361^y\021\373\300\310\376\332"
 405      B492ABF1 
 405      5E7911FB 
 405      C0C8FEDA 
 406 1a0c 9907E535 		.ascii	"\231\007\3455\322C\337\003I\215q I\324\226\213\237q"
 406      D243DF03 
 406      498D7120 
 406      49D4968B 
 406      9F71
 407 1a1e FBFA80A7 		.ascii	"\373\372\200\247\313\022\374\\\352!{0\320\303\214\326"
ARM GAS  C:\Users\info\AppData\Local\Temp\ccl9i4Az.s 			page 33


 407      CB12FC5C 
 407      EA217B30 
 407      D0C38CD6 
 408 1a2e 6C46D570 		.ascii	"lF\325p\356\262\322y^\377\230\031\367}\347V\323g*d\262"
 408      EEB2D279 
 408      5EFF9819 
 408      F77DE756 
 408      D3672A64 
 409 1a43 58AAE179 		.ascii	"X\252\341y\275\331\3170\242\222\215HB#\356\263\021\203"
 409      BDD9CF30 
 409      A2928D48 
 409      4223EEB3 
 409      1183
 410 1a55 3C8C6823 		.ascii	"<\214h#c\261o\022w\272F\365Z\011\326\252\276+\301\032"
 410      63B16F12 
 410      77BA46F5 
 410      5A09D6AA 
 410      BE2BC11A 
 411 1a69 FA3744B1 		.ascii	"\3727D\261L\363\272\205\366x\253\216_\332\273\207-Y"
 411      4CF3BA85 
 411      F678AB8E 
 411      5FDABB87 
 411      2D59
 412 1a7b C38D76AD 		.ascii	"\303\215v\255JFDx\030\321V.\253\206\021+\275\215X\345"
 412      4A464478 
 412      18D1562E 
 412      AB86112B 
 412      BD8D58E5 
 413 1a8f C788956C 		.ascii	"\307\210\225l\304\362\237cD\252*\215XAF\254b#\006{\030"
 413      C4F29F63 
 413      44AA2A8D 
 413      584146AC 
 413      6223067B 
 414 1aa4 D14E4662 		.ascii	"\321NFb\377\337\271\317do#\226\3731\"\231\215H\321\344"
 414      FFDFB9CF 
 414      646F2396 
 414      FB312299 
 414      8D48D1E4 
 415 1ab8 E9AB4C3E 		.ascii	"\351\253L><\255PQ^q{\261\223\002\034\201\015\316u\215"
 415      3CAD5051 
 415      5E717BB1 
 415      93021C81 
 415      0DCE758D 
 416 1acc 1EE552D8 		.ascii	"\036\345R\330\224!\036\246\310\217\025k\014S\022\275"
 416      94211EA6 
 416      C88F156B 
 416      0C5312BD 
 417 1adc 4D59E2C7 		.ascii	"MY\342\307\224D6e\245\346\272CJ\022(J/\216=\254KR\261"
 417      94443665 
 417      A5E6BA43 
 417      4A12284A 
 417      2F8E3DAC 
 418 1af3 4D9EE588 		.ascii	"M\236\345\210\263\0149\250\324\371\351\223Y\350b\225"
 418      B30C39A8 
 418      D4F9E993 
 418      59E86295 
 419 1b03 16EE69ED 		.ascii	"\026\356i\3552\266v\250\207\265\035d\340\216\310\027"
ARM GAS  C:\Users\info\AppData\Local\Temp\ccl9i4Az.s 			page 34


 419      32B676A8 
 419      87B51D64 
 419      E08EC817 
 420 1b13 AD3354F9 		.ascii	"\2553T\371l`|\2638S\245#\377\014\225\005+\344\3361\313"
 420      6C607CB3 
 420      3853A523 
 420      FF0C9505 
 420      2BE4DE31 
 421 1b28 DBABD97E 		.ascii	"\333\253\331~\274\232\305^\245\262W[b\215{\336\257T"
 421      BC9AC55E 
 421      A5B2575B 
 421      628D7BDE 
 421      AF54
 422 1b3a 297F6C55 		.ascii	")\177lUM\256\316Ol\345\212XM[4\234n\215\211\034\247"
 422      4DAECE4F 
 422      6CE58A58 
 422      4D5B349C 
 422      6E8D891C 
 423 1b4f A22CC83D 		.ascii	"\242,\310=\275w\352\251|\262\263\2105\232\347s\271G"
 423      BD77EAA9 
 423      7CB2B388 
 423      359AE773 
 423      B947
 424 1b61 CEBCC139 		.ascii	"\316\274\30193\323\310\231\265\2243q<\232\261\347F\313"
 424      33D3C899 
 424      B5943371 
 424      3C9AB1E7 
 424      46CB
 425 1b73 CB2E153D 		.ascii	"\313.\025=\362\372:s\036{:Wec\313\245\021\363\311X\331"
 425      F2FA3A73 
 425      1E7B3A57 
 425      6563CBA5 
 425      11F3C958 
 426 1b88 2B186738 		.ascii	"+\030g8\261@\305\266\237e\315<\303\2324\262f\201\264"
 426      B140C5B6 
 426      9F65CD3C 
 426      C39A34B2 
 426      6681B4
 427 1b9b E68AB466 		.ascii	"\346\212\264f\021[\263[x\230\023\317\346,R=\273Mp7\347"
 427      115BB35B 
 427      789813CF 
 427      E62C523D 
 427      BB4D7037 
 428 1bb0 C7BB8D37 		.ascii	"\307\273\2157\272]G\335&\360\370\017S\016\313\027\303"
 428      BA5D47DD 
 428      26F0F80F 
 428      530ECB17 
 428      C3
 429 1bc1 0547A778 		.ascii	"\005G\247x?\251\337p\373FG\203\336\"e:\340\211\224\030"
 429      3FA9DF70 
 429      FB464783 
 429      DE22653A 
 429      E0899418 
 430 1bd5 51C00895 		.ascii	"Q\300\010\225S\203\030\016\225\245\242d\202\300\330"
 430      5383180E 
 430      95A5A264 
 430      82C0D8
ARM GAS  C:\Users\info\AppData\Local\Temp\ccl9i4Az.s 			page 35


 431 1be4 113F5AC5 		.ascii	"\021?Z\3056\351\020qb\330\241h\022\334w\271#sc\375\344"
 431      36E91071 
 431      62D8A168 
 431      12DC77B9 
 431      237363FD 
 432 1bf9 4D14E7CD 		.ascii	"M\024\347\315\006cu\350\200\242\336N~\314N\306\030N"
 432      066375E8 
 432      80A2DE4E 
 432      7ECC4EC6 
 432      184E
 433 1c0b A69393B1 		.ascii	"\246\223\223\2612\266yG\263\004w0\035-v~\214\016,t\022"
 433      32B67947 
 433      B3047730 
 433      1D2D767E 
 433      8C0E2C74 
 434 1c20 D9148DD1 		.ascii	"\331\024\215\321J\251\220'\177b\207\362\275\302\032"
 434      4AA99027 
 434      7F6287F2 
 434      BDC21A
 435 1c2f 090EC52C 		.ascii	"\011\016\305,\247\203=\224V\210\341x\257\253\016\243"
 435      A7833D94 
 435      5688E178 
 435      AFAB0EA3 
 436 1c3f CF7D5E74 		.ascii	"\317}^t\306\261\356\350B\237\213\316\233\256@nDE\217"
 436      C6B1EEE8 
 436      429F8BCE 
 436      9BAE406E 
 436      44458F
 437 1c52 852B90C4 		.ascii	"\205+\220\304\250\005\206M\006\222\030?\010\226\252"
 437      A805864D 
 437      0692183F 
 437      0896AA
 438 1c61 950FC74F 		.ascii	"\225\017\307O4\346?\021\330&\003I\234\247\374\024\376"
 438      34E63F11 
 438      D8260349 
 438      9CA7FC14 
 438      FE
 439 1c72 C4784A23 		.ascii	"\304xJ#f\235\357\246\367\324X\275797\275\226(\354\271"
 439      669DEFA6 
 439      F7D458BD 
 439      373937BD 
 439      9628ECB9 
 440 1c86 DFFCA733 		.ascii	"\337\374\2473\354\265\274\337l\306\375\246N>S\325`\034"
 440      ECB5BCDF 
 440      6CC6FDA6 
 440      4E3E53D5 
 440      601C
 441 1c98 A9033BC4 		.ascii	"\251\003;\304\321\346\214#\260\320GdS\034\307\270\342"
 441      D1E68C23 
 441      B0D04764 
 441      531CC7B8 
 441      E2
 442 1ca9 486C9B33 		.ascii	"Hl\2333\216\004\2669\343\010\245M\342%\201\300\027)"
 442      8E04B639 
 442      E308A54D 
 442      E22581C0 
 442      1729
ARM GAS  C:\Users\info\AppData\Local\Temp\ccl9i4Az.s 			page 36


 443 1cbb 8E239484 		.ascii	"\216#\224\204\346\306\346\257\310\347\256bT\021$+EX"
 443      E6C6E6AF 
 443      C8E7AE62 
 443      5411242B 
 443      4558
 444 1ccd 312B6E1F 		.ascii	"1+n\037\342\007\270\177\210or\377\020_\345c\367\335"
 444      E207B87F 
 444      886F72FF 
 444      105FE563 
 444      F7DD
 445 1cdf D5F25B28 		.ascii	"\325\362[(\263q\\\255\022\230\311\257\340(\204 \011"
 445      B3715CAD 
 445      1298C9AF 
 445      E0288420 
 445      09
 446 1cf0 45624352 		.ascii	"EbCR\037IC$\215\2204E\322\002I8\222\326@\006wN\272\370"
 446      1F494324 
 446      8D903445 
 446      D2024938 
 446      92D64006 
 447 1d08 0594BB20 		.ascii	"\005\224\273 \243'\222~H\006\"\031\205$\000I \022+\222"
 447      A327927E 
 447      48062219 
 447      85240049 
 447      20122B92 
 448 1d1c 7A481A20 		.ascii	"zH\032 i\202\2441\222\346H\232!i\205\244%\222NH:\"\351"
 448      6982A431 
 448      92E6489A 
 448      216985A4 
 448      25924E48 
 449 1d33 80A43D92 		.ascii	"\200\244=\222vH\332\"i\203\244\017\222\276Hz#\351\205"
 449      7648DA22 
 449      6983A40F 
 449      92BE487A 
 449      23E985
 450 1d46 640092FE 		.ascii	"d\000\222\376H\306 \031\215d(\276\022Q\207T<\303\367"
 450      48C62019 
 450      8D6428BE 
 450      12518754 
 450      3CC3F7
 451 1d59 7B29EAE0 		.ascii	"{)\352\340\324\251\300\214\300\226AH\302\340\301\322"
 451      D4A9C08C 
 451      C0964148 
 451      C2E0C1D2 
 452 1d69 0447F357 		.ascii	"\004G\363W\312b /\006\207\314\336\266\002\330\243C\213"
 452      CA62202F 
 452      0687CCDE 
 452      B602D8A3 
 452      438B
 453 1d7b FA41CD76 		.ascii	"\372A\315vp\200C\373M\375\364\014|\343\371Z\303\350"
 453      708043FB 
 453      4DFDF40C 
 453      7CE3F95A 
 453      C3E8
 454 1d8d C120D888 		.ascii	"\301 \330\210\004\3337\205}\250}\013$\341HZ#\351\214"
 454      04DB3785 
 454      7DA87D0B 
ARM GAS  C:\Users\info\AppData\Local\Temp\ccl9i4Az.s 			page 37


 454      24E1485A 
 454      23E98C
 455 1da0 A40B929E 		.ascii	"\244\013\222\236\012\036\355\373\225=\304g\327\366\003"
 455      0A1EEDFB 
 455      953DC467 
 455      D7F603
 456 1daf 19320A5B 		.ascii	"\0312\012[\002\220\004\002\031e-\233\0033\247}=nl\000"
 456      02900402 
 456      19652D9B 
 456      0333A77D 
 456      3D6E6C00 
 457 1dc3 AC3F3579 		.ascii	"\254?5y\262\213\000\215\211\367\267\346I{\251\332\214"
 457      B28B008D 
 457      89F7B7E6 
 457      497BA9DA 
 457      8C
 458 1dd4 455A21B4 		.ascii	"EZ!\264%\222NH:\"\351\200\244=\222vH\332\"i\243\340"
 458      25924E48 
 458      3A22E980 
 458      A43D9276 
 458      48DA2269 
 459 1dea F3519F27 		.ascii	"\363Q\237'\017\010\334\227\301\275\261\245\027\222\001"
 459      0F08DC97 
 459      C1BDB1A5 
 459      179201
 460 1df9 48FA2319 		.ascii	"H\372#\031\203d4\222\241H\206 \031\214$\002\311  \203"
 460      83643492 
 460      A1488620 
 460      198C2402 
 460      C9202083 
 461 1e0d C3F277AC 		.ascii	"\303\362w\254\200\010A\276\350\230!:f\210\036*\360{"
 461      800841BE 
 461      E898213A 
 461      66881E2A 
 461      F07B
 462 1e1f 51DB7608 		.ascii	"Q\333v\010\216\2169\242c\216\350\230#:\346\210\2169"
 462      8E8E39A2 
 462      638EE898 
 462      233AE688 
 462      8E39
 463 1e31 A2638EE8 		.ascii	"\242c\216\350\230#zg$\230!:f\210\216\031\242c\206\350"
 463      98237A67 
 463      2498213A 
 463      66888E19 
 463      A26386E8 
 464 1e45 98213A66 		.ascii	"\230!:f\210\216\031\022f\315\307\200\350\230#:\346\210"
 464      888E1912 
 464      66CDC780 
 464      E898233A 
 464      E688
 465 1e57 8E39A263 		.ascii	"\2169\242c\216\350\230#:\346\210\2169\242c\216\350\230"
 465      8EE89823 
 465      3AE6888E 
 465      39A2638E 
 465      E898
 466 1e69 233AE688 		.ascii	"#:\346\210\2169\242c\216\350\230#:\346\210\2169\242"
 466      8E39A263 
ARM GAS  C:\Users\info\AppData\Local\Temp\ccl9i4Az.s 			page 38


 466      8EE89823 
 466      3AE6888E 
 466      39A2
 467 1e7b 638EE898 		.ascii	"c\216\350\230#:\346\210\2169\242c\216\350\230#:\346"
 467      233AE688 
 467      8E39A263 
 467      8EE89823 
 467      3AE6
 468 1e8d 888E39A2 		.ascii	"\210\2169\242c\216\350C\220\014F\202\331\241cv\374*"
 468      638EE843 
 468      900C4682 
 468      D9A16376 
 468      FC2A
 469 1e9f 2C8BDC37 		.ascii	",\213\3347\343\231\373\225'\353,\3707\204>\036\011%"
 469      E399FB95 
 469      27EB2CF8 
 469      37843E1E 
 469      0925
 470 1eb1 6A235A9F 		.ascii	"j#Z\237hC\372^\244Q\372\236{\364\017>M\017\016Gn\013"
 470      6843FA5E 
 470      A451FA9E 
 470      7BF40F3E 
 470      4D0F0E47 
 471 1ec7 890A2799 		.ascii	"\211\012'\231\326D;\023\355B\264'\321~D\007\222\206"
 471      D6443B13 
 471      ED42B427 
 471      D17E4407 
 471      9286
 472 1ed9 51B3132E 		.ascii	"Q\263\023.\223\206\200\244\257hU\011L\332\272B\305v"
 472      938680A4 
 472      AF685509 
 472      4CDABA42 
 472      C576
 473 1eeb ABD4558F 		.ascii	"\253\324U\217\244\033\020mB\2641\321\346D\233\021mE"
 473      A41B106D 
 473      42B431D1 
 473      E6449B11 
 473      6D45
 474 1efd BA5A669D 		.ascii	"\272Zf\235\277G\017\014\235$\264#5v \332\236h;\242m"
 474      BF470F0C 
 474      9D24B423 
 474      357620DA 
 474      9E683BA2 
 475 1f12 89B621DA 		.ascii	"\211\266!\332\207h_\242\275IM\257\244\307\254f\000\252"
 475      87685FA2 
 475      BD494DAF 
 475      A4C7AC66 
 475      00AA
 476 1f24 0146FFAC 		.ascii	"\001F\377\254E\225\304\030#\365\216&\351\241D\207\020"
 476      4595C418 
 476      23F58E26 
 476      E9A14487 
 476      10
 477 1f35 1D4C3482 		.ascii	"\035L4\202\350 \242a\260\324\004Q$S\203QIH\322\266,"
 477      E820A261 
 477      B0D40451 
 477      24538351 
ARM GAS  C:\Users\info\AppData\Local\Temp\ccl9i4Az.s 			page 39


 477      4948D2B6 
 478 1f4a 7234B4BC 		.ascii	"r4\264\274\037\376\261\025\015\240h\246o\260\310x\002"
 478      1FFEB115 
 478      0DA068A6 
 478      6FB0C878 
 478      02
 479 1f5b 6D44B429 		.ascii	"mD\264)\321\026\312\377\"\222@G\021\015 \032H\216X+"
 479      D116CAFF 
 479      22924047 
 479      110D201A 
 479      488E582B 
 480 1f6f EEDA2882 		.ascii	"\356\332(\202\262\217\237\214!\320\226D;)\377\237\341"
 480      B28F9F8C 
 480      21D09644 
 480      3B29FF9F 
 480      E1
 481 1f80 03DA8BE8 		.ascii	"\003\332\213\350\000\242\375\211\216Q~V\320\300\342"
 481      00A2FD89 
 481      8E517E56 
 481      D0C0E2
 482 1f8f B0B21D59 		.ascii	"\260\262\035Y\370\250\367\013\374?-\376\246\315X\301"
 482      F8A8F70B 
 482      FC3F2DFE 
 482      A6CD58C1 
 483 1f9f 83       		.ascii	"\203"
 484 1fa0 DC2E1C46 		.ascii	"\334.\034F*\017\202\345\027d\371\277\223_O\300\262n"
 484      2A0F82E5 
 484      1764F9BF 
 484      935F4FC0 
 484      B26E
 485 1fb2 F2BD7158 		.ascii	"\362\275qX\307\273\322/\225M*\000r\313t\372\357\274"
 485      C7BBD22F 
 485      954D2A00 
 485      72CB74FA 
 485      EFBC
 486 1fc4 03F4DF79 		.ascii	"\003\364\337y\211\227\262\347\353\370\337y\260K\006"
 486      8997B2E7 
 486      EBF8DF79 
 486      B04B06
 487 1fd3 29620BFD 		.ascii	")b\013\375\253\210!\222\341#\002\221\335\012\"\267D"
 487      AB882192 
 487      E1230291 
 487      DD0A22B7 
 487      44
 488 1fe4 54F60F85 		.ascii	"T\366\017\205\241\274\247+\370\217\206\002\224C7\346"
 488      A1BCA72B 
 488      F88F8602 
 488      944337E6 
 489 1ff4 899326BC 		.ascii	"\211\223&\274=\251\347\333\2126i\354"
 489      3DA9E7DB 
 489      8A3669EC 
 490 2000 87A62940 		.ascii	"\207\246)@\264\311\037\275\243}\362\341$\333\224\367"
 490      B4C91FBD 
 490      A37DF2E1 
 490      24DB94F7 
 491 2010 C6BEF5CF 		.ascii	"\306\276\365\317\211\357\214\375d\334[\357~0\366=}\362"
 491      89EF8CFD 
ARM GAS  C:\Users\info\AppData\Local\Temp\ccl9i4Az.s 			page 40


 491      64DC5BEF 
 491      7E30F63D 
 491      7DF2
 492 2022 2763DF7E 		.ascii	"'c\337~_\235<Q\235\370\266\030/\246\210\377\247\217"
 492      5F9D3C51 
 492      9DF8B618 
 492      2FA688FF 
 492      A78F
 493 2034 FF68F227 		.ascii	"\377h\362'\223\264\011\023\373\301o_\323\204\211}zC"
 493      93B40913 
 493      FBC16F5F 
 493      D384897D 
 493      7A43
 494 2046 A1B7F8DC 		.ascii	"\241\267\370\3342\376\243)c?\030\377\316[\023&\006\275"
 494      32FEA329 
 494      633F18FF 
 494      CE5B1326 
 494      06BD
 495 2058 3B69DCB8 		.ascii	";i\334\270\177\215{k\342\333\352\224\317\324)\237\233"
 495      7F8D7B6B 
 495      E2DBEA94 
 495      CFD4299F 
 495      9B
 496 2069 DE19FFEE 		.ascii	"\336\031\377\356\273AoO\370\340\203\361\223\307O\370"
 496      BB416F4F 
 496      F8E083F1 
 496      93C74FF8 
 497 2079 489B34E1 		.ascii	"H\2334\341S\361\221\372\376\373\3423\355\243\217>\372"
 497      53F191FA 
 497      FEFBE233 
 497      EDA38F3E 
 497      FA
 498 208a 1F40BA2A 		.ascii	"\037@\272*\335"
 498      DD
 499              		.text
 500              		.section	.gnu.lto_.symbol_nodes.792a684e,"",%progbits
 501 0000 789C6361 		.ascii	"x\234ca`dHg\000\002&\373z\006\206\011\347\030\030\200"
 501      60644867 
 501      000226FB 
 501      7A068609 
 501      E7181880 
 502 0014 D4AA0645 		.ascii	"\324\252\006E\006\006\306C\014\365\214`\021\006\206"
 502      0606C643 
 502      0CF58C60 
 502      110686
 503 0023 860605A0 		.ascii	"\206\006\005\240\300A\206z&\024\201\003\014\365\314"
 503      C041867A 
 503      26148103 
 503      0CF5CC
 504 0032 C802CC40 		.ascii	"\310\002\314@\270\344\373\305\225\314\314\014L\014-"
 504      B8E4FBC5 
 504      95CCCC0C 
 504      4C0C2D
 505 0041 DB4F5983 		.ascii	"\333OY\203\350'\273@4#\303\223G\227$\030\000\000\006"
 505      E827BB40 
 505      3423C393 
 505      47972418 
ARM GAS  C:\Users\info\AppData\Local\Temp\ccl9i4Az.s 			page 41


 505      000006
 506 0054 1A57     		.ascii	"\032W"
 507              		.text
 508              		.section	.gnu.lto_.refs.792a684e,"",%progbits
 509 0000 789C6361 		.ascii	"x\234ca`\004B \000\000\0009\000\007"
 509      60044220 
 509      00000039 
 509      0007
 510              		.text
 511              		.section	.gnu.lto_.decls.792a684e,"",%progbits
 512 0000 789CBD96 		.ascii	"x\234\275\226{PS\331\035\307s\356\015\220\334\360Z\326"
 512      7B5053D9 
 512      1DC773EE 
 512      0D90DCF0 
 512      5AD6
 513 0012 5A6BF307 		.ascii	"Zk\363\007\325\031\232\375c\261l]\307\351t\372\330\235"
 513      D5199AFD 
 513      63B16C5D 
 513      C7E974FA 
 513      D89D
 514 0024 E976FA47 		.ascii	"\351v\372G\273\323\235\332\1772\223\301\020W\246B\230"
 514      BBD39DDA 
 514      7F3293C1 
 514      1057A642 
 514      98
 515 0035 10DAE5AF 		.ascii	"\020\332\345\257^\010\012\242\273\300\202\274\304\005"
 515      5E080AA2 
 515      BBC082BC 
 515      C405
 516 0043 5D411EF2 		.ascii	"]A\036\362FX\020$\273\212\362\026\004\037<\024\020\026"
 516      46581024 
 516      BB8AF216 
 516      041F3C14 
 516      1016
 517 0055 6115881A 		.ascii	"a\025\210\032yK\372\273\277{/I\2702\355_\275\372\015"
 517      794BFABB 
 517      BF7B2F49 
 517      B832ED5F 
 517      BDFA0D
 518 0068 F79C7CCE 		.ascii	"\367\234|\316\357y\316\001\271\214\310\270\347\357~"
 518      EF79CE01 
 518      B98CC8B8 
 518      E7EF7E
 519 0077 32593BBC 		.ascii	"2Y;\274\036\0059\340\241`\356\220\314\371\310A\355\240"
 519      1E0539E0 
 519      A160EE90 
 519      CCF9C841 
 519      EDA0
 520 0089 2ED06DD0 		.ascii	".\320m\320]\231\364\341\276\337-\254\013\000\355\000"
 520      5D99F4E1 
 520      BEDF2DAC 
 520      0B00ED00 
 521 0099 35806E80 		.ascii	"5\200n\200\256\200\246@\265\240\307\240'\240\217A\327"
 521      AE80A640 
 521      B5A0C7A0 
 521      27A08F41 
 521      D7
ARM GAS  C:\Users\info\AppData\Local\Temp\ccl9i4Az.s 			page 42


 522 00aa 416AD05F 		.ascii	"Aj\320_@3\240 \320S\320\002H\003z\011\032\004\325\201"
 522      4033A020 
 522      D053D002 
 522      48037A09 
 522      1A04D581 
 523 00be ECA05ED0 		.ascii	"\354\240^\320+P\347\226\270\356\012qq\361\375\034\264"
 523      2B50E796 
 523      B8EE0A71 
 523      71F1FD1C 
 523      B4
 524 00cf 085A022D 		.ascii	"\010Z\002-\203V@\253\2405\320:\3505h\003\344\340\014"
 524      835640AB 
 524      A035D03A 
 524      E8356803 
 524      E4E00C
 525 00e2 40BE0444 		.ascii	"@\276\004D\201h\220\034\344\001\362\004y\201\024 %\210"
 525      8168901C 
 525      E401F204 
 525      79811420 
 525      2588
 526 00f4 01A940DE 		.ascii	"\001\251@\336 \037\220/\310\017\344\017z\013\024\000"
 526      201F902F 
 526      C80FE40F 
 526      7A0B1400 
 527 0104 7A1BB403 		.ascii	"z\033\264\003\364#\320N\320\217A\273@?\001\355\006\375"
 527      F423D04E 
 527      D08F41BB 
 527      403F01ED 
 527      06FD
 528 0116 14A426EE 		.ascii	"\024\244&\3565{M\021\313\343\037\012\024#d\010\302 "
 528      357B4D11 
 528      CBE31F0A 
 528      14236408 
 528      C220
 529 0128 F8C8849E 		.ascii	"\370\310\204\236p\201\021\341\247\030'|RB\330\002\265"
 529      708111E1 
 529      A718277C 
 529      5242D802 
 529      B5
 530 0139 6990E03F 		.ascii	"i\220\340?\370O!O\\\276p\343\260\277\3708\247\310\346"
 530      F84F214F 
 530      5CBE70E3 
 530      B0BFF838 
 530      A7C8E6
 531 014c 2392C4DD 		.ascii	"#\222\304\335(\301\012\211C\030S\316\005.\366\204\350"
 531      28C10A89 
 531      431853CE 
 531      052EF684 
 531      E8
 532 015d 05FFC4D5 		.ascii	"\005\377\304\325-\232\246\305\244\357n\024v\371\322"
 532      2D9AA6C5 
 532      A4EF6E14 
 532      76F9D2
 533 016c 6013DEC7 		.ascii	"`\023\336\307V\212\377\020|\231\205'\225e\251\335\316"
 533      568AFF10 
 533      7C998527 
 533      9565A9DD 
ARM GAS  C:\Users\info\AppData\Local\Temp\ccl9i4Az.s 			page 43


 533      CE
 534 017d CAF42754 		.ascii	"\312\364'T\345\321v\212\0040D\016\303\347=\271\223\276"
 534      E5D1768A 
 534      0430440E 
 534      C3E73DB9 
 534      93BE
 535 018f 30DCC190 		.ascii	"0\334\301\220@\030V\036\237*Q\300P\315\020\007\341\306"
 535      4018561E 
 535      9F2A51C0 
 535      50CD1007 
 535      E1C6
 536 01a1 CF1A577C 		.ascii	"\317\032W|\3701\267\270\316\372\262\\N\277\315\275S"
 536      F831B7B8 
 536      CEFAB25C 
 536      4EBFCDBD 
 536      53
 537 01b2 FDB5436D 		.ascii	"\375\265CmJ\242a\2128'\343k\366\337[X\226\220*\302\220"
 537      4AA2618A 
 537      3827E36B 
 537      F6DF5B58 
 537      96902AC2 
 538 01c7 0A429312 		.ascii	"\012B\223\022\022\314\305\247f\3403\211e\343Y\333\005"
 538      12CCC5A7 
 538      66E03389 
 538      65E359DB 
 538      05
 539 01d8 D673978C 		.ascii	"\326s\227\214\374RM~\241\226\221J\242\341lr\024)'jr"
 539      FC524D7E 
 539      A196914A 
 539      A2E16C72 
 539      1429276A 
 540 01ed 99A839FB 		.ascii	"\231\2509\373%\371\3057|\350\002\202\016\3462\236&\321"
 540      25F9C537 
 540      7CE80282 
 540      0EE6329E 
 540      26D1
 541 01ff 9B0EAA4F 		.ascii	"\233\016\252O\251\313X\326\237\324\202\203j\247\003"
 541      A9CB58D6 
 541      9FD48283 
 541      6AA703
 542 020e F0F7660F 		.ascii	"\360\367f\0175o\366p\376dm*\303\000o\371\337\370k\347"
 542      356FF670 
 542      FE646D2A 
 542      C3006FF9 
 542      DFF86BE7 
 543 0222 66BA7DBD 		.ascii	"f\272}\275\2239\373\251\0266\340\217\244\016\374\227"
 543      9339FBA9 
 543      1636E08F 
 543      A40EFC97 
 544 0232 C1F7A5F0 		.ascii	"\301\367\245\360\275\214\\!\336B]\007o\217Xi9\305\317"
 544      BD8C5C21 
 544      DE425D07 
 544      6F8F5869 
 544      39C5CF
 545 0245 91C3726E 		.ascii	"\221\303rn\316\221\373<\333\313uq\255\333\342\206\315"
 545      CE91FB3C 
 545      DBCB7571 
ARM GAS  C:\Users\info\AppData\Local\Temp\ccl9i4Az.s 			page 44


 545      ADDBE286 
 545      CD
 546 0256 C5F7EDB5 		.ascii	"\305\367\355\265u\036\270\030\346H=\301\325}\017\353"
 546      751EB818 
 546      E6483DC1 
 546      D57D0FEB 
 547 0266 CFF96E4E 		.ascii	"\317\371nN~\303O\316\025\366\326(\241!\032\206\374\333"
 547      7EC34FCE 
 547      15F6D628 
 547      A1211A86 
 547      FCDB
 548 0278 A53F1ABE 		.ascii	"\245?\032\276?yi\217\263\224t>\277\005r\257\332;=\370"
 548      3F79698F 
 548      B394743E 
 548      BF0572AF 
 548      DA3B3DF8 
 549 028c 4E2B60D8 		.ascii	"N+`\3300_\326\340\303w\332\312\225\367\364\354d\251"
 549      305FD6E0 
 549      C377DACA 
 549      95F7F4EC 
 549      64A9
 550 029e 1F613458 		.ascii	"\037a4X\273\002\013\273'.DF\256Ap-\020\034\261B94B9"
 550      BB020BBB 
 550      272E4446 
 550      AE41702D 
 550      101CB142 
 551 02b6 AEC26413 		.ascii	"\256\302d\023L\012\235~\346\323\3105\242\025riv6B\303"
 551      4C0A9D7E 
 551      E6D3C835 
 551      A2157269 
 551      763642C3 
 552 02ca F0A92426 		.ascii	"\360\251$&\024\247\250\350R\014\201\352,l_\241\\Z\370"
 552      14A7A8E8 
 552      520C81EA 
 552      2C6C5FA1 
 552      5C5AF8
 553 02dd 9BCBDCCA 		.ascii	"\233\313\334\312\353\260\362[\347\312Vg\013%a|\367\206"
 553      EBB0F25B 
 553      E7CA5667 
 553      0B25617C 
 553      F786
 554 02ef 30B87AAD 		.ascii	"0\270z\255Y\262|\\\013{\335\255\26076\013{\246\254\265"
 554      59B27C5C 
 554      0B7BDDAD 
 554      B037360B 
 554      7BA6ACB5 
 555 0303 D80B6B08 		.ascii	"\330\013k\010s\244\221\257\341T~J\215b\263\260m\374"
 555      73A491AF 
 555      E1547E4A 
 555      8D62B3B0 
 555      6DFC
 556 0315 E4862D8E 		.ascii	"\344\206-\216\245we\342\211\261\260\201rrh\247\213\305"
 556      A57765E2 
 556      89B1B081 
 556      727268A7 
 556      8BC5
 557 0327 5B64177C 		.ascii	"[d\027|\336$r\336lQ\312\354\212rO\001[P\305\216\337"
ARM GAS  C:\Users\info\AppData\Local\Temp\ccl9i4Az.s 			page 45


 557      DE2472DE 
 557      6C51CAEC 
 557      8A724F01 
 557      5B50C58E 
 558 033c 1F782F87 		.ascii	"\037x/\207\265&\300:\212\303H\26133x\345~\\\"#pn\333"
 558      B526C03A 
 558      8AC348B1 
 558      333378E5 
 558      7E5C2223 
 559 0353 C91E5839 		.ascii	"\311\036X9d)jf\350f\276C\375\205E-n>\335\367G'\347T"
 559      64296A66 
 559      E866BE43 
 559      FD85452D 
 559      6E3EDDF7 
 560 036b 4864A434 		.ascii	"Hd\2444\277\314\003<\216C\035\317f\372\346\324\260\011"
 560      BFCC033C 
 560      8E431DCF 
 560      66FAE6D4 
 560      B009
 561 037d 4A0E201D 		.ascii	"J\016 \035Nw\035\204\277\012H\027\272:\236\362\250\322"
 561      4E771D84 
 561      BF0A4817 
 561      BA3A9EF2 
 561      A8D2
 562 038f 87EEE55D 		.ascii	"\207\356\345]M,\264\344\360\205\340|\360\333s\230m{"
 562      4D2CB4E4 
 562      F085E07C 
 562      F0DB7398 
 562      6D7B
 563 03a1 E0BBBDFB 		.ascii	"\340\273\275\373^\314\271G\31491}\372!\305G`\255\017"
 563      5ECCB947 
 563      CC39317D 
 563      FA21C547 
 563      60AD0F
 564 03b4 03EFF03D 		.ascii	"\003\357\360=\351vz\357\026\275\337F\357\243\003\367"
 564      E9767AEF 
 564      16BDDF46 
 564      EFA303F7 
 565 03c4 1A687A98 		.ascii	"\032hz\230\367\236\2236\271\241\242\247\371M10Y6+\337"
 565      F79E9336 
 565      B9A1A2A7 
 565      F94D3130 
 565      59362BDF 
 566 03d8 DC148D59 		.ascii	"\334\024\215YG\262\022\271\332\015\200\363\376\377~"
 566      47B212B9 
 566      DA0D80F3 
 566      FEFF7E
 567 03e7 73DC79F3 		.ascii	"s\334y\3639\355;\325f\361s\315e\300-\227A\314\345\260"
 567      39ED3BD5 
 567      66F173CD 
 567      65C02D97 
 567      41CCE5B0 
 568 03fb 90CA9C8D 		.ascii	"\220\312\234\215\315\360\026\212\3312\034Y\375\365\011"
 568      CDF0168A 
 568      D9321C59 
 568      FDF509
 569 040a 6B2A4188 		.ascii	"k*A\210\3649#\350\023\023\272\213\011U\274\260Wx\362"
ARM GAS  C:\Users\info\AppData\Local\Temp\ccl9i4Az.s 			page 46


 569      F43923E8 
 569      1313BA8B 
 569      0955BCB0 
 569      5778F2
 570 041d C7C90F86 		.ascii	"\307\311\017\206-7\355\260\351\222\004\207\260\005\003"
 570      2D37EDB0 
 570      E9920487 
 570      B00503
 571 042c 5CFDDDE7 		.ascii	"\\\375\335\347\3664\331\247&\367\370\360\304k6\200\277"
 571      F634D9A7 
 571      26F7F8F0 
 571      C46B3680 
 571      BF
 572 043d 662B665A 		.ascii	"f+fZ\363\030\376,\262\024\214\013W\327l\334\245\034"
 572      F318FE2C 
 572      B2148C0B 
 572      57D76CDC 
 572      A51C
 573 044f 04D7AE83 		.ascii	"\004\327\256\203v9\327A\374\271n\355\352(\362\246+i"
 573      7639D741 
 573      FCB96EED 
 573      EA28F2A6 
 573      2B69
 574 0461 1CB43996 		.ascii	"\034\2649\226\254~\274-n\355\035[\3679\025o\313\037"
 574      AC7EBC2D 
 574      6EED1D5B 
 574      F739156F 
 574      CB1F
 575 0473 AA7BE7BB 		.ascii	"\252{\347\273\354\327*\361X\303-\307hd\344\021\304\365"
 575      ECD72AF1 
 575      58C32DC7 
 575      6864E411 
 575      C4F5
 576 0485 903B4EE3 		.ascii	"\220;N\343P\274 \241x#09\354r\252\377\204\367\367\030"
 576      50BC20A1 
 576      78233039 
 576      EC72AAFF 
 576      84F7F718 
 577 0499 946DD459 		.ascii	"\224m\324Y\203 \341T_K\033\231f\350&\014\200\2728\311"
 577      8320E154 
 577      5F4B1B99 
 577      66E8260C 
 577      80BA38C9 
 578 04ad 5E956FE7 		.ascii	"^\225o\347br[\027\325\247\202\360\370?\006\027\023N"
 578      62725B17 
 578      D5A782F0 
 578      F83F0617 
 578      134E
 579 04bf 176344F0 		.ascii	"\027cD\360a=\325?O\007\244\012\277\263~G!8\004&\036"
 579      613DD53F 
 579      4F07A40A 
 579      BFB37E47 
 579      21380426 
 580 04d4 6049A748 		.ascii	"`I\247H\200XX\034\270\244\036\200\251\223\372\351\216"
 580      8058581C 
 580      B8A41E80 
 580      A993FAE9 
ARM GAS  C:\Users\info\AppData\Local\Temp\ccl9i4Az.s 			page 47


 580      8E
 581 04e5 9B6255B9 		.ascii	"\233bU\271_^\263_Z\332\210\323 \301\375=\015\006\277"
 581      5F5EB35F 
 581      5ADA88D3 
 581      20C1FD3D 
 581      0D06BF
 582 04f8 47834F5C 		.ascii	"G\203O\\\015>\341\014\322\255C\023)P<5\001\210`o\267"
 582      0D3EE10C 
 582      D2AD4313 
 582      29503C35 
 582      0188606F 
 583 050d A4272333 		.ascii	"\244'#3\330\331\037`<\013\343\\\026(\233\303\341\205"
 583      D8D91F60 
 583      3C0BE35C 
 583      16289BC3 
 583      E185
 584 051f F33862D3 		.ascii	"\3638b\323.\374\032G\334\007\330\2741P\331\312\270\331"
 584      2EFC1A47 
 584      DC07D8BC 
 584      3150D9CA 
 584      B8D9
 585 0531 B4C5BB6C 		.ascii	"\264\305\273lh\031y\212\026\237\301\327s\242E\266\237"
 585      6819798A 
 585      169FC1D7 
 585      73A245B6 
 585      9F
 586 0542 E0346FFE 		.ascii	"\3404o\376\267\370\316}@R=m\003\331^\364u\354\204|\266"
 586      B7F8CE7D 
 586      40523D6D 
 586      03D95EF4 
 586      75EC847C 
 587 0557 F27C2643 		.ascii	"\362|&C\224\274mM\"\236\226\370\202@\262yZ^@7\026\210"
 587      94BC6D4D 
 587      229E96F8 
 587      8240B279 
 587      5A5E4037 
 588 056d 12ECDB00 		.ascii	"\022\354\333\000y\216\366\0258\203\246\375\361\265H"
 588      798EF615 
 588      3883A6FD 
 588      F1B548
 589 057c FC3341C6 		.ascii	"\3743A\306\015\311\274\260\357\271\262\300\030|\226"
 589      0DC9BCB0 
 589      EFB9B2C0 
 589      187C96
 590 058b 76DFECA5 		.ascii	"v\337\354\245]\257[\356\24487\373K\376\272\345~\002"
 590      5DAF5BEE 
 590      A43837FB 
 590      4BFEBAE5 
 590      7E02
 591 059d 5CDE99D9 		.ascii	"\\\336\231\331\354\341\012\367\272\301v\001\266#|\266"
 591      ECE10AF7 
 591      BAC17601 
 591      B6237CB6 
 592 05ad 3537CECF 		.ascii	"57\316\317\025\356t\203_\011\360+\204\227\353\227\355"
 592      15EE7483 
 592      5F09F02B 
 592      8497EB97 
ARM GAS  C:\Users\info\AppData\Local\Temp\ccl9i4Az.s 			page 48


 592      ED
 593 05be CABDE7F9 		.ascii	"\312\275\347\371h\223!\332C;\361Z\345C]${\201\271\230"
 593      689321DA 
 593      433BF15A 
 593      E5435D24 
 593      7B81B998 
 594 05d2 3B934078 		.ascii	";\223@xf\374~\372\276\034\266\317\337\035[Bl0\261'C"
 594      66FC7EFA 
 594      BE1CB6CF 
 594      DF1D5B42 
 594      6C30B127 
 595 05e7 C563D63C 		.ascii	"\305c\326<\317d\312\235YF\246\2468g\220\022\230>\011"
 595      CF64CA9D 
 595      5946A6A6 
 595      38679012 
 595      983E09
 596 05fa B3824CFF 		.ascii	"\263\202L\377l\343\204\\`\036I\230Ud\332\226:\312Ef"
 596      6CE3845C 
 596      601E4998 
 596      5564DA96 
 596      3ACA4566 
 597 060e 55C2AC21 		.ascii	"U\302\254!S\325\323\361\255\217\300dzme\326\221\211"
 597      53D5D3F1 
 597      AD8FC064 
 597      7A6D65D6 
 597      9189
 598 0620 CFB995A3 		.ascii	"\317\271\225\243\020}I\230\327\310\334*\311\316\026"
 598      107D4998 
 598      D7C8DC2A 
 598      C9CE16
 599 062f 7D2D4A98 		.ascii	"}-J\230\015d\252O\274<I\013\314\206\204q \223\347\370"
 599      0D64AA4F 
 599      BC3C490B 
 599      CC868471 
 599      2093E7F8 
 600 0643 625AF4D5 		.ascii	"bZ\364\325$aX\212c\306,q\327\304\372<Rme\342\220i\256"
 600      2461588A 
 600      63C62C71 
 600      D7C4FA3C 
 600      526D65E2 
 601 065a 4DBBC408 		.ascii	"M\273\304\010L\275$\367xd\322\272\306\036\212\276\026"
 601      4CBD24F7 
 601      7864D2BA 
 601      C61E8ABE 
 601      16
 602 066b 25762CC8 		.ascii	"%v,\310\014\227W\365ym\333\372\004d*l\353\033b<w|\267"
 602      0C9757F5 
 602      796DDBFA 
 602      04642A6C 
 602      EB1B623C 
 603 0682 DA398ECC 		.ascii	"\3329\216\314\222#a]\260c\315\365\333\312\234@\246\276"
 603      9223615D 
 603      B063CDF5 
 603      DBCA9C40 
 603      A6BE
 604 0694 3D6F52B5 		.ascii	"=oR\265\255\257DdN\256\314\247\213\373\347U!a\213\025"
 604      ADAF4464 
ARM GAS  C:\Users\info\AppData\Local\Temp\ccl9i4Az.s 			page 49


 604      4EAECCA7 
 604      8BFBE755 
 604      21618B15 
 605 06a8 EE541252 		.ascii	"\356T\022R\2473\222z\375\004\352L\247\257\204:\211\324"
 605      A733927A 
 605      FD04EA4C 
 605      A7AF843A 
 605      89D4
 606 06ba A5F4B439 		.ascii	"\245\364\2649\245\270\027\231\2551%\363\371\327.~.Z"
 606      A5B81799 
 606      AD3125F3 
 606      F9D72E7E 
 606      2E5A
 607 06cc AA9330A7 		.ascii	"\252\2230\247\220\351\030\252[\025\353\330,aN#S\225"
 607      90E918AA 
 607      5B15EBD8 
 607      2C614E23 
 607      5395
 608 06de D15CE729 		.ascii	"\321\\\347)0\203\022\346sd2G\277\272\"\3466*a\276@\246"
 608      308312E6 
 608      73643247 
 608      BFBA22E6 
 608      362A61BE 
 609 06f4 60E152A1 		.ascii	"`\341R\241\030\363\206\204IAf\243\344\302\224h'[\322"
 609      18F38684 
 609      494166A3 
 609      E4C29468 
 609      275BD2
 610 0707 D75464E6 		.ascii	"\327Td\346/\\l\020\3554I\2304d\276_}1)\356\327\007\222"
 610      2F5C6C10 
 610      ED344998 
 610      3464BE5F 
 610      7D3129EE 
 611 071e BE7E89CC 		.ascii	"\276~\211\314Z\323z\203p\354\255v\011\223\216\314\231"
 611      5AD37A83 
 611      70ECAD76 
 611      09938ECC 
 611      99
 612 072f D1857C91 		.ascii	"\321\205|\221\251\222\364>\003\231\316\224\206s\276"
 612      A992F43E 
 612      0399CE94 
 612      8673BE
 613 073e 02F38D84 		.ascii	"\002\363\215\2049\203\314\305\342\376&\261\206}\022"
 613      3983CCC5 
 613      E2FE26B1 
 613      867D12
 614 074d 261399A4 		.ascii	"&\023\231\244\344\257>\020C\226 Y\210\324VX\276\026"
 614      E4AF3E10 
 614      43962059 
 614      88D45658 
 614      BE16
 615 075f C3B14998 		.ascii	"\303\261I\230ld&\352K\222\304\324\227%L\0162\263e\347"
 615      6C6426EA 
 615      4B92C4D4 
 615      97254C0E 
 615      32B365E7 
 616 0773 47C4239F 		.ascii	"G\304#\237\032\260\225\311E\346y}\261m\373\233\363,"
ARM GAS  C:\Users\info\AppData\Local\Temp\ccl9i4Az.s 			page 50


 616      1AB095C9 
 616      45E6797D 
 616      B16DFB9B 
 616      F32C
 617 0785 1F4FDFD4 		.ascii	"\037O\337\324=\305\266L\036\265W\346e\370\314\240\217"
 617      3DC5B64C 
 617      1EB557E6 
 617      65F8CCA0 
 617      8F
 618 0796 311B141F 		.ascii	"1\033\024\037\375\371o\201\037\206\204\310\224:]Lx\244"
 618      FDF96F81 
 618      1F8684C8 
 618      943A5D4C 
 618      78A4
 619 07a8 F9A0CE1C 		.ascii	"\371\240\316\034G\364\277\322F\231\214\237\232B#\002"
 619      47F4BFD2 
 619      46998C9F 
 619      9A422302 
 620 07b8 8F841F33 		.ascii	"\217\204\0373D\007j>;x\340\035\255>6\312d\210\216\326"
 620      44076A3E 
 620      3B78E01D 
 620      AD3E36CA 
 620      64888ED6 
 621 07cc 46451BF5 		.ascii	"FE\033\365"
 622 07d0 817A9321 		.ascii	"\201z\223!\324l4i\367\007\277\347>\021\036\021e4\231"
 622      D46C3469 
 622      F707BFE7 
 622      3E111E11 
 622      653499
 623 07e3 B59F46C6 		.ascii	"\265\237F\306hCM\021\332\367\203\367\007\207po\357F"
 623      68434D11 
 623      DAF783F7 
 623      0787706F 
 623      EF46
 624 07f5 1A230DEF 		.ascii	"\032#\015\357\032B\017\207k\303#\365\307b\302\014\332"
 624      1A420F87 
 624      6BC323F5 
 624      C762C20C 
 624      DA
 625 0806 8850FDD1 		.ascii	"\210P\375\321\360H\203V\027f8\022\032s\314\2543\307"
 625      F0488356 
 625      17663812 
 625      1A73CCAC 
 625      33C7
 626 0818 4619A283 		.ascii	"F\031\242\203\217\312\274\204P\376\371\377\212$:6Z\253"
 626      8FCABC84 
 626      50FEF9FF 
 626      8A243A36 
 626      5AAB
 627 082a 8B368781 		.ascii	"\2136\207\201[p\317\360\2658\260_gVl\276@\034zS\260"
 627      5B70CFF0 
 627      B538B05F 
 627      67566CBE 
 627      401C7A53 
 628 083f 5EA6F857 		.ascii	"^\246\370Wh\270Y\367\017C\254\002\202\217:\010\270\012"
 628      68B859F7 
 628      0F43AC02 
ARM GAS  C:\Users\info\AppData\Local\Temp\ccl9i4Az.s 			page 51


 628      828F3A08 
 628      B80A
 629 0851 063A0CC8 		.ascii	"\006:\014\310\020\2462\205F\206\031#t\1775\204\206y"
 629      10A63285 
 629      46861923 
 629      747F3584 
 629      8679
 630 0863 60163FFB 		.ascii	"`\026?\373\310\020i0\205\232\015a\272O\2141&\275A\373"
 630      C8106930 
 630      859A0D61 
 630      BA4F8C31 
 630      26BD41FB 
 631 0877 F127C60F 		.ascii	"\361'\306\017\337\337\247\217\025\263\015\334\206\340"
 631      DFDFA78F 
 631      15B30DDC 
 631      86E0
 632 0885 4D39E309 		.ascii	"M9\343\0119 \304\303\275x\350>0\032\217\375\007\"\244"
 632      3920C4C3 
 632      BD78E83E 
 632      301A8FFD 
 632      0722A4
 633 0898 3985     		.ascii	"9\205"
 634              		.text
 635              		.section	.gnu.lto_.symtab.792a684e,"",%progbits
 636 0000 65786563 		.ascii	"execute\000"
 636      75746500 
 637 0008 00       		.ascii	"\000"
 638 0009 00       		.ascii	"\000"
 639 000a 00       		.ascii	"\000"
 640 000b 00000000 		.ascii	"\000\000\000\000\000\000\000\000"
 640      00000000 
 641 0013 C8000000 		.ascii	"\310\000\000\000"
 642 0017 77616974 		.ascii	"wait_key\000"
 642      5F6B6579 
 642      00
 643 0020 00       		.ascii	"\000"
 644 0021 02       		.ascii	"\002"
 645 0022 00       		.ascii	"\000"
 646 0023 00000000 		.ascii	"\000\000\000\000\000\000\000\000"
 646      00000000 
 647 002b CB000000 		.ascii	"\313\000\000\000"
 648 002f 6B65795F 		.ascii	"key_pressed\000"
 648      70726573 
 648      73656400 
 649 003b 00       		.ascii	"\000"
 650 003c 02       		.ascii	"\002"
 651 003d 00       		.ascii	"\000"
 652 003e 00000000 		.ascii	"\000\000\000\000\000\000\000\000"
 652      00000000 
 653 0046 CF000000 		.ascii	"\317\000\000\000"
 654 004a 72616E64 		.ascii	"random_Read\000"
 654      6F6D5F52 
 654      65616400 
 655 0056 00       		.ascii	"\000"
 656 0057 02       		.ascii	"\002"
 657 0058 00       		.ascii	"\000"
 658 0059 00000000 		.ascii	"\000\000\000\000\000\000\000\000"
ARM GAS  C:\Users\info\AppData\Local\Temp\ccl9i4Az.s 			page 52


 658      00000000 
 659 0061 D5000000 		.ascii	"\325\000\000\000"
 660              		.text
 661              		.section	.gnu.lto_.opts,"",%progbits
 662 0000 272D666D 		.ascii	"'-fmath-errno' '-fsigned-zeros' '-ftrapping-math' '"
 662      6174682D 
 662      6572726E 
 662      6F272027 
 662      2D667369 
 663 0033 2D666E6F 		.ascii	"-fno-trapv' '-fno-strict-overflow' '-fno-openmp' '-"
 663      2D747261 
 663      70762720 
 663      272D666E 
 663      6F2D7374 
 664 0066 666E6F2D 		.ascii	"fno-openacc' '-mcpu=cortex-m3' '-mthumb' '-g' '-Og'"
 664      6F70656E 
 664      61636327 
 664      20272D6D 
 664      6370753D 
 665 0099 20272D66 		.ascii	" '-ffunction-sections' '-ffat-lto-objects' '-flto'\000"
 665      66756E63 
 665      74696F6E 
 665      2D736563 
 665      74696F6E 
 666              		.text
 667              		.cfi_sections	.debug_frame
 668              		.section	.text.execute,"ax",%progbits
 669              		.align	2
 670              		.global	execute
 671              		.thumb
 672              		.thumb_func
 673              		.type	execute, %function
 674              	execute:
 675              	.LFB63:
 676              		.file 1 "procr.c"
   1:procr.c       **** #include "project.h"
   2:procr.c       **** #include "opcodes.h"
   3:procr.c       **** #include "chip8.h"
   4:procr.c       **** 
   5:procr.c       **** void execute(uint8_t ram[], uint64_t vram[32], uint8_t* snd, 
   6:procr.c       ****                         uint8_t* tmr, volatile uint8_t* vga_update_flag){
 677              		.loc 1 6 0
 678              		.cfi_startproc
 679              		@ args = 4, pretend = 0, frame = 96
 680              		@ frame_needed = 0, uses_anonymous_args = 0
 681              	.LVL0:
 682 0000 2DE9F04F 		push	{r4, r5, r6, r7, r8, r9, r10, fp, lr}
 683              		.cfi_def_cfa_offset 36
 684              		.cfi_offset 4, -36
 685              		.cfi_offset 5, -32
 686              		.cfi_offset 6, -28
 687              		.cfi_offset 7, -24
 688              		.cfi_offset 8, -20
 689              		.cfi_offset 9, -16
 690              		.cfi_offset 10, -12
 691              		.cfi_offset 11, -8
 692              		.cfi_offset 14, -4
ARM GAS  C:\Users\info\AppData\Local\Temp\ccl9i4Az.s 			page 53


 693 0004 99B0     		sub	sp, sp, #100
 694              		.cfi_def_cfa_offset 136
 695 0006 0746     		mov	r7, r0
 696 0008 8B46     		mov	fp, r1
 697 000a 0B92     		str	r2, [sp, #44]
 698 000c 0A93     		str	r3, [sp, #40]
 699              	.LVL1:
   7:procr.c       ****     /* CHIP8 Register File*/
   8:procr.c       ****     uint8_t v[16];
   9:procr.c       ****     uint16_t i = 0;
  10:procr.c       ****     uint16_t pc = 0x0200;
  11:procr.c       ****     uint8_t sp = 0x00;
  12:procr.c       ****     uint16_t stack[16] = {0};
 700              		.loc 1 12 0
 701 000e 2022     		movs	r2, #32
 702              	.LVL2:
 703 0010 0021     		movs	r1, #0
 704              	.LVL3:
 705 0012 0CA8     		add	r0, sp, #48
 706              	.LVL4:
 707 0014 FFF7FEFF 		bl	memset
 708              	.LVL5:
 709              	.LBB2:
  13:procr.c       ****     
  14:procr.c       ****     /* Clear screen */
  15:procr.c       ****     for (uint8_t j = 0; j < 32; j++){
 710              		.loc 1 15 0
 711 0018 0023     		movs	r3, #0
 712 001a 07E0     		b	.L2
 713              	.LVL6:
 714              	.L3:
  16:procr.c       ****         vram[j] = 0;
 715              		.loc 1 16 0 discriminator 3
 716 001c 0BEBC302 		add	r2, fp, r3, lsl #3
 717 0020 0020     		movs	r0, #0
 718 0022 0021     		movs	r1, #0
 719 0024 C2E90001 		strd	r0, [r2]
  15:procr.c       ****         vram[j] = 0;
 720              		.loc 1 15 0 discriminator 3
 721 0028 0133     		adds	r3, r3, #1
 722              	.LVL7:
 723 002a DBB2     		uxtb	r3, r3
 724              	.LVL8:
 725              	.L2:
  15:procr.c       ****         vram[j] = 0;
 726              		.loc 1 15 0 is_stmt 0 discriminator 1
 727 002c 1F2B     		cmp	r3, #31
 728 002e F5D9     		bls	.L3
 729 0030 0023     		movs	r3, #0
 730              	.LVL9:
 731 0032 0893     		str	r3, [sp, #32]
 732 0034 4FF4007A 		mov	r10, #512
 733 0038 0693     		str	r3, [sp, #24]
 734 003a 5D46     		mov	r5, fp
 735 003c BB46     		mov	fp, r7
 736              	.LVL10:
 737              	.L4:
ARM GAS  C:\Users\info\AppData\Local\Temp\ccl9i4Az.s 			page 54


 738              	.LBE2:
 739              	.LBB3:
  17:procr.c       ****     }
  18:procr.c       ****     
  19:procr.c       ****     /* Emulate away.. */
  20:procr.c       ****     while(1){
  21:procr.c       ****         pc &= 0x0fff;
 740              		.loc 1 21 0 is_stmt 1
 741 003e CAF30B0A 		ubfx	r10, r10, #0, #12
 742              	.LVL11:
  22:procr.c       ****         /* Get the instruction at the current address */
  23:procr.c       ****         uint16_t instr = (ram[pc] << 8) | ram[pc+1];
 743              		.loc 1 23 0
 744 0042 1BF80A60 		ldrb	r6, [fp, r10]	@ zero_extendqisi2
 745 0046 0BEB0A03 		add	r3, fp, r10
 746 004a 5B78     		ldrb	r3, [r3, #1]	@ zero_extendqisi2
 747 004c 43EA0626 		orr	r6, r3, r6, lsl #8
 748 0050 36B2     		sxth	r6, r6
 749 0052 B3B2     		uxth	r3, r6
 750              	.LVL12:
  24:procr.c       ****         
  25:procr.c       ****         /* Decode the opcodes */
  26:procr.c       ****         uint8_t op3 = (instr & 0xf000) >> 12;
 751              		.loc 1 26 0
 752 0054 1A0B     		lsrs	r2, r3, #12
 753              	.LVL13:
  27:procr.c       ****         uint8_t op2 = (instr & 0x0f00) >> 8;
 754              		.loc 1 27 0
 755 0056 C3F30324 		ubfx	r4, r3, #8, #4
 756              	.LVL14:
  28:procr.c       ****         uint8_t op10 = instr & 0x00ff;
 757              		.loc 1 28 0
 758 005a F6B2     		uxtb	r6, r6
 759              	.LVL15:
  29:procr.c       ****         uint8_t op0 = instr & 0x000f;
 760              		.loc 1 29 0
 761 005c 06F00F0C 		and	ip, r6, #15
 762              	.LVL16:
  30:procr.c       ****         
  31:procr.c       ****         /* Decode the immediates */
  32:procr.c       ****         uint16_t nnn = instr & 0x0fff;
 763              		.loc 1 32 0
 764 0060 C3F30B01 		ubfx	r1, r3, #0, #12
 765              	.LVL17:
  33:procr.c       ****         uint8_t x = (instr & 0x0f00) >> 8;
  34:procr.c       ****         uint8_t y = (instr & 0x00f0) >> 4;
 766              		.loc 1 34 0
 767 0064 C3F30313 		ubfx	r3, r3, #4, #4
 768              	.LVL18:
  35:procr.c       ****         uint8_t kk = instr & 0x00ff;
  36:procr.c       ****         uint8_t n = instr & 0x000f;
  37:procr.c       ****         
  38:procr.c       ****         /* This flag is set if an invalid OP is encountered */
  39:procr.c       ****         uint8_t invalid_op = 0;
  40:procr.c       ****         
  41:procr.c       ****         /* This flag is set if a new PC was set and must not be incremented */
  42:procr.c       ****         uint8_t freeze_pc = 0;
ARM GAS  C:\Users\info\AppData\Local\Temp\ccl9i4Az.s 			page 55


  43:procr.c       ****         
  44:procr.c       ****         /* Branch on opcodes and execute */
  45:procr.c       ****         switch(op3){
 769              		.loc 1 45 0
 770 0068 0F2A     		cmp	r2, #15
 771 006a 11D8     		bhi	.L5
 772 006c DFE812F0 		tbh	[pc, r2, lsl #1]
 773              	.L7:
 774 0070 1300     		.2byte	(.L6-.L7)/2
 775 0072 A102     		.2byte	(.L59-.L7)/2
 776 0074 3D00     		.2byte	(.L9-.L7)/2
 777 0076 4E00     		.2byte	(.L10-.L7)/2
 778 0078 5C00     		.2byte	(.L11-.L7)/2
 779 007a 6A00     		.2byte	(.L12-.L7)/2
 780 007c 9600     		.2byte	(.L13-.L7)/2
 781 007e 9D00     		.2byte	(.L14-.L7)/2
 782 0080 A700     		.2byte	(.L15-.L7)/2
 783 0082 8000     		.2byte	(.L16-.L7)/2
 784 0084 4801     		.2byte	(.L17-.L7)/2
 785 0086 3700     		.2byte	(.L18-.L7)/2
 786 0088 4C01     		.2byte	(.L19-.L7)/2
 787 008a BE01     		.2byte	(.L60-.L7)/2
 788 008c E201     		.2byte	(.L21-.L7)/2
 789 008e 0702     		.2byte	(.L22-.L7)/2
 790              		.p2align 1
 791              	.L5:
  42:procr.c       ****         
 792              		.loc 1 42 0
 793 0090 0023     		movs	r3, #0
 794              	.LVL19:
  46:procr.c       ****         case OP3_SYSTEM:
  47:procr.c       ****             /* System operations */
  48:procr.c       ****             if (op2 != OP2_SYSTEM){
  49:procr.c       ****                 invalid_op = 1;
  50:procr.c       ****             } else {
  51:procr.c       ****                 switch(op10){
  52:procr.c       ****                 case OP10_SYSTEM_CLEAR:
  53:procr.c       ****                     /* Clear screen */
  54:procr.c       ****                     for (int j = 0; j < 32; j++){
  55:procr.c       ****                         vram[j] = 0;
  56:procr.c       ****                     }
  57:procr.c       ****                     break;
  58:procr.c       ****                 case OP10_SYSTEM_RETURN:
  59:procr.c       ****                     /* Return from instruction */
  60:procr.c       ****                     sp = (sp == 0x0) ? 0x0 : sp - 1;
  61:procr.c       ****                     pc = stack[sp];
  62:procr.c       ****                     freeze_pc = 1;
  63:procr.c       ****                     break;
  64:procr.c       ****                 default:
  65:procr.c       ****                     invalid_op = 1;
  66:procr.c       ****                     break;
  67:procr.c       ****                 }
  68:procr.c       ****             }
  69:procr.c       ****             break;
  70:procr.c       ****         case OP3_JUMP_ABSOLUTE:
  71:procr.c       ****             /* Jump to absolute address nnn */
  72:procr.c       ****             pc = nnn;
ARM GAS  C:\Users\info\AppData\Local\Temp\ccl9i4Az.s 			page 56


  73:procr.c       ****             freeze_pc = 1;
  74:procr.c       ****             break;
  75:procr.c       ****         case OP3_JUMP_OFFSET:
  76:procr.c       ****             /* Jump to absolute address nnn + offset V0 */
  77:procr.c       ****             pc = nnn + v[0];
  78:procr.c       ****             freeze_pc = 1;
  79:procr.c       ****             break;
  80:procr.c       ****         case OP3_CALL_SUBROUTINE:
  81:procr.c       ****             /* Call subroutine at nnn */
  82:procr.c       ****             stack[sp] = pc;
  83:procr.c       ****             sp = (sp == 0xf) ? 0xf : sp + 1;
  84:procr.c       ****             pc = nnn;
  85:procr.c       ****             freeze_pc = 1;
  86:procr.c       ****             break;
  87:procr.c       ****         case OP3_SKIP_NEXT_EQ_IM:
  88:procr.c       ****             /* Skip next instruction if Vx == kk */
  89:procr.c       ****             if (v[x] == kk) {
  90:procr.c       ****                 pc += 2;
  91:procr.c       ****             }
  92:procr.c       ****             break;
  93:procr.c       ****         case OP3_SKIP_NEXT_NEQ_IM:
  94:procr.c       ****             /* Skip next instruction if Vx != kk */
  95:procr.c       ****             if (v[x] != kk) {
  96:procr.c       ****                 pc += 2;
  97:procr.c       ****             }
  98:procr.c       ****             break;
  99:procr.c       ****         case OP3_SKIP_NEXT_EQ:
 100:procr.c       ****             /* Skip next instruction if Vx == Vy */
 101:procr.c       ****             if (op0 == OP0_SKIP_NEXT){
 102:procr.c       ****                 if (v[x] == v[y]) {
 103:procr.c       ****                     pc += 2;
 104:procr.c       ****                 }
 105:procr.c       ****             } else {
 106:procr.c       ****                 invalid_op = 1;
 107:procr.c       ****             }
 108:procr.c       ****             break;
 109:procr.c       ****         case OP3_SKIP_NEXT_NEQ:
 110:procr.c       ****             /* Skip next instruction if Vx != Vy */
 111:procr.c       ****             if (op0 == OP0_SKIP_NEXT){
 112:procr.c       ****                 if (v[x] != v[y]) {
 113:procr.c       ****                     pc += 2;
 114:procr.c       ****                 }
 115:procr.c       ****             } else {
 116:procr.c       ****                 invalid_op = 1;
 117:procr.c       ****             }
 118:procr.c       ****             break;
 119:procr.c       ****         case OP3_LOAD_V:
 120:procr.c       ****             /* Vx = kk */
 121:procr.c       ****             v[x] = kk;
 122:procr.c       ****             break;
 123:procr.c       ****         case OP3_ADD_IM:
 124:procr.c       ****             /* Vx += kk */
 125:procr.c       ****             v[x] += kk;
 126:procr.c       ****             break;
 127:procr.c       ****         case OP3_ARITH:
 128:procr.c       ****             /* Arithmetic operations */
 129:procr.c       ****             switch(op0) {
ARM GAS  C:\Users\info\AppData\Local\Temp\ccl9i4Az.s 			page 57


 130:procr.c       ****             case OP0_ARITH_LOAD:
 131:procr.c       ****                 /* Vx = Vy */
 132:procr.c       ****                 v[x] = v[y];
 133:procr.c       ****                 break;
 134:procr.c       ****             case OP0_ARITH_OR:
 135:procr.c       ****                 /* Vx = Vx | Vy */
 136:procr.c       ****                 v[x] |= v[y];
 137:procr.c       ****                 break;
 138:procr.c       ****             case OP0_ARITH_AND:
 139:procr.c       ****                 /* Vx = Vx & Vy */
 140:procr.c       ****                 v[x] &= v[y];
 141:procr.c       ****                 break;
 142:procr.c       ****             case OP0_ARITH_XOR:
 143:procr.c       ****                 /* Vx = Vx ^ Vy */
 144:procr.c       ****                 v[x] ^= v[y];
 145:procr.c       ****                 break;
 146:procr.c       ****             case OP0_ARITH_ADD:
 147:procr.c       ****                 /* Vx = Vx + Vy */
 148:procr.c       ****                 v[x] += v[y];
 149:procr.c       ****                 break;
 150:procr.c       ****             case OP0_ARITH_SUB:{
 151:procr.c       ****                 /* Vx = Vx - Vy, Vf = not borrow */
 152:procr.c       ****                 uint16_t vx = v[x];
 153:procr.c       ****                 uint16_t vy = v[y];
 154:procr.c       ****                 uint16_t diff = vx - vy;                                
 155:procr.c       ****                 v[x] = diff;
 156:procr.c       ****                 v[0xf] = (diff & 0x100) ? 0 : 1;
 157:procr.c       ****                 break;
 158:procr.c       ****             }
 159:procr.c       ****             case OP0_ARITH_SHR:
 160:procr.c       ****                 /* Vx = Vx >> Vy */
 161:procr.c       ****                 v[0xf] = (v[x] & 0x01) ? 1 : 0;
 162:procr.c       ****                 v[x] >>= 1;
 163:procr.c       ****                 break;
 164:procr.c       ****             case OP0_ARITH_SUBN:{
 165:procr.c       ****                 /* Vx = Vy - Vx, Vf = not borrow */
 166:procr.c       ****                 uint16_t vx = v[x];
 167:procr.c       ****                 uint16_t vy = v[y];
 168:procr.c       ****                 uint16_t diff = vy - vx;                                
 169:procr.c       ****                 v[x] = diff;
 170:procr.c       ****                 v[0xf] = (diff & 0x100) ? 0 : 1;
 171:procr.c       ****                 break;
 172:procr.c       ****             }
 173:procr.c       ****             case OP0_ARITH_SHL:
 174:procr.c       ****                 /* Vx = Vx << 1, Vf = carry */
 175:procr.c       ****                 v[0xf] = (v[x] & 0x80) ? 1 : 0;
 176:procr.c       ****                 v[x] <<= 1;
 177:procr.c       ****                 break;
 178:procr.c       ****             default:
 179:procr.c       ****                 invalid_op = 1;
 180:procr.c       ****                 break;
 181:procr.c       ****             }
 182:procr.c       ****             break;
 183:procr.c       ****         case OP3_LOAD_I:
 184:procr.c       ****             /* I = nnn */
 185:procr.c       ****             i = nnn;
 186:procr.c       ****             break;
ARM GAS  C:\Users\info\AppData\Local\Temp\ccl9i4Az.s 			page 58


 187:procr.c       ****         case OP3_RANDOM:
 188:procr.c       ****             /* Vx = (random byte) & kk */            
 189:procr.c       ****             v[x] = random_Read() & kk;
 190:procr.c       ****             break;
 191:procr.c       ****         case OP3_DRAW:{
 192:procr.c       ****             uint64_t collision = 0;
 193:procr.c       ****             /* Draw sprite from I at (Vx, Vy), vf = collision, see reference */
 194:procr.c       ****             for (int j = 0; j < n; j++){
 195:procr.c       ****                 uint64_t row = 0;
 196:procr.c       ****                 if (v[x] <= 56){
 197:procr.c       ****                     row = ((uint64_t)ram[i + j]) << (56 - v[x]);
 198:procr.c       ****                 } else {
 199:procr.c       ****                     row = ((uint64_t)ram[i + j]) >> (v[x] - 56)
 200:procr.c       ****                         | ((uint64_t)ram[i + j]) << (120 - v[x]);
 201:procr.c       ****                 }
 202:procr.c       ****                 collision |= vram[(v[y] + j) % 32] & row;
 203:procr.c       ****                 vram[(v[y] + j) % 32] ^= row;
 204:procr.c       ****             }
 205:procr.c       ****             v[0xf] = collision ? 1 : 0;
 206:procr.c       ****             *vga_update_flag = 1;
 207:procr.c       ****             break;
 208:procr.c       ****         }
 209:procr.c       ****         case OP3_KEYBOARD:
 210:procr.c       ****             /* Keyboard operations */
 211:procr.c       ****             switch(op10){
 212:procr.c       ****             case OP10_KEYBOARD_EQ:
 213:procr.c       ****                 /* Skip next instruction if Vx pressed */
 214:procr.c       ****                 if (key_pressed(v[x])){
 215:procr.c       ****                     pc += 2;
 216:procr.c       ****                 }
 217:procr.c       ****                 break;
 218:procr.c       ****             case OP10_KEYBOARD_NEQ: 
 219:procr.c       ****                 /* Skip next instruction if Vx not pressed */
 220:procr.c       ****                 if (!key_pressed(v[x])){
 221:procr.c       ****                     pc += 2;
 222:procr.c       ****                 }
 223:procr.c       ****                 break;
 224:procr.c       ****             default:
 225:procr.c       ****                 invalid_op = 1;
 226:procr.c       ****                 break;
 227:procr.c       ****             }
 228:procr.c       ****             break;
 229:procr.c       ****         case OP3_SPECIAL:
 230:procr.c       ****             /* Special instructions, see reference for each */
 231:procr.c       ****             switch(op10){
 232:procr.c       ****             case OP10_SPECIAL_LOAD_DELAY:
 233:procr.c       ****                 /* Vx = delay timer */
 234:procr.c       ****                 v[x] = *tmr;
 235:procr.c       ****                 break;
 236:procr.c       ****             case OP10_SPECIAL_LOAD_KEYBOARD:
 237:procr.c       ****                 /* Vx = keypress, blocks till something pressed */
 238:procr.c       ****                 v[x] = wait_key();
 239:procr.c       ****                 break;
 240:procr.c       ****             case OP10_SPECIAL_SET_DELAY:
 241:procr.c       ****                 /* delay timer = Vx */
 242:procr.c       ****                 *tmr = v[x];
 243:procr.c       ****                 break;
ARM GAS  C:\Users\info\AppData\Local\Temp\ccl9i4Az.s 			page 59


 244:procr.c       ****             case OP10_SPECIAL_SET_SOUND:
 245:procr.c       ****                 /* sound timer = Vx */
 246:procr.c       ****                 *snd = v[x];
 247:procr.c       ****                 break;
 248:procr.c       ****             case OP10_SPECIAL_ADD_TO_I:
 249:procr.c       ****                 /* I += Vx */
 250:procr.c       ****                 i += v[x];
 251:procr.c       ****                 break;
 252:procr.c       ****             case OP10_SPECIAL_LOAD_FONT:
 253:procr.c       ****                 /* I = location of sprite for hex digit Vx */
 254:procr.c       ****                 i = (v[x] & 0xf) * 5;
 255:procr.c       ****                 break;
 256:procr.c       ****             case OP10_SPECIAL_LOAD_BCD:
 257:procr.c       ****                 /* BCD hundreds to units of Vx in I to I+2 */
 258:procr.c       ****                 ram[i] = (uint8_t)(v[x] / 100) % 10;
 259:procr.c       ****                 ram[i+1] = (uint8_t)(v[x] / 10) % 10;
 260:procr.c       ****                 ram[i+2] = (uint8_t)(v[x]) % 10;
 261:procr.c       ****                 break;
 262:procr.c       ****             case OP10_SPECIAL_LOAD_AT_I:
 263:procr.c       ****                 /* Store V0 to Vx in I to I+x */
 264:procr.c       ****                 for (uint8_t j = 0; j <= x; j++){
 265:procr.c       ****                     ram[i + j] = v[j];
 266:procr.c       ****                 }
 267:procr.c       ****                 break;
 268:procr.c       ****             case OP10_SPECIAL_SET_AT_I:
 269:procr.c       ****                 /* Restore V0 to Vx from I to I+x */
 270:procr.c       ****                 for (uint8_t j = 0; j <= x; j++){
 271:procr.c       ****                     v[j] = ram[i + j];
 272:procr.c       ****                 }
 273:procr.c       ****                 break;
 274:procr.c       ****             default:
 275:procr.c       ****                 invalid_op = 1;
 276:procr.c       ****                 break;
 277:procr.c       ****             }
 278:procr.c       ****             break;
 279:procr.c       ****         default:
 280:procr.c       ****             invalid_op = 1;
 795              		.loc 1 280 0
 796 0092 0122     		movs	r2, #1
 797              	.LVL20:
 798 0094 BBE2     		b	.L8
 799              	.LVL21:
 800              	.L6:
  48:procr.c       ****                 invalid_op = 1;
 801              		.loc 1 48 0
 802 0096 002C     		cmp	r4, #0
 803 0098 40F08F82 		bne	.L61
  51:procr.c       ****                 case OP10_SYSTEM_CLEAR:
 804              		.loc 1 51 0
 805 009c E02E     		cmp	r6, #224
 806 009e 0AD0     		beq	.L63
 807 00a0 EE2E     		cmp	r6, #238
 808 00a2 0ED0     		beq	.L24
 809 00a4 8CE2     		b	.L78
 810              	.LVL22:
 811              	.L25:
 812              	.LBB4:
ARM GAS  C:\Users\info\AppData\Local\Temp\ccl9i4Az.s 			page 60


  55:procr.c       ****                     }
 813              		.loc 1 55 0 discriminator 3
 814 00a6 05EBC302 		add	r2, r5, r3, lsl #3
 815 00aa 0020     		movs	r0, #0
 816 00ac 0021     		movs	r1, #0
 817 00ae C2E90001 		strd	r0, [r2]
  54:procr.c       ****                         vram[j] = 0;
 818              		.loc 1 54 0 discriminator 3
 819 00b2 0133     		adds	r3, r3, #1
 820              	.LVL23:
 821 00b4 00E0     		b	.L23
 822              	.LVL24:
 823              	.L63:
 824              	.LBE4:
  51:procr.c       ****                 case OP10_SYSTEM_CLEAR:
 825              		.loc 1 51 0
 826 00b6 0023     		movs	r3, #0
 827              	.LVL25:
 828              	.L23:
 829              	.LBB5:
  54:procr.c       ****                         vram[j] = 0;
 830              		.loc 1 54 0 discriminator 1
 831 00b8 1F2B     		cmp	r3, #31
 832 00ba F4DD     		ble	.L25
 833              	.LBE5:
  42:procr.c       ****         
 834              		.loc 1 42 0
 835 00bc 0023     		movs	r3, #0
 836              	.LVL26:
  39:procr.c       ****         
 837              		.loc 1 39 0
 838 00be 1A46     		mov	r2, r3
 839 00c0 A5E2     		b	.L8
 840              	.LVL27:
 841              	.L24:
  60:procr.c       ****                     pc = stack[sp];
 842              		.loc 1 60 0
 843 00c2 089B     		ldr	r3, [sp, #32]
 844              	.LVL28:
 845 00c4 13B1     		cbz	r3, .L26
  60:procr.c       ****                     pc = stack[sp];
 846              		.loc 1 60 0 is_stmt 0 discriminator 1
 847 00c6 013B     		subs	r3, r3, #1
 848 00c8 DBB2     		uxtb	r3, r3
 849 00ca 0893     		str	r3, [sp, #32]
 850              	.LVL29:
 851              	.L26:
  61:procr.c       ****                     freeze_pc = 1;
 852              		.loc 1 61 0 is_stmt 1 discriminator 4
 853 00cc 18AA     		add	r2, sp, #96
 854              	.LVL30:
 855 00ce 089B     		ldr	r3, [sp, #32]
 856 00d0 02EB4303 		add	r3, r2, r3, lsl #1
 857 00d4 33F830AC 		ldrh	r10, [r3, #-48]
 858              	.LVL31:
  62:procr.c       ****                     break;
 859              		.loc 1 62 0 discriminator 4
ARM GAS  C:\Users\info\AppData\Local\Temp\ccl9i4Az.s 			page 61


 860 00d8 0123     		movs	r3, #1
  39:procr.c       ****         
 861              		.loc 1 39 0 discriminator 4
 862 00da 0022     		movs	r2, #0
  63:procr.c       ****                 default:
 863              		.loc 1 63 0 discriminator 4
 864 00dc 97E2     		b	.L8
 865              	.LVL32:
 866              	.L18:
  77:procr.c       ****             freeze_pc = 1;
 867              		.loc 1 77 0
 868 00de 9DF850A0 		ldrb	r10, [sp, #80]	@ zero_extendqisi2
 869              	.LVL33:
 870 00e2 8A44     		add	r10, r10, r1
 871              	.LVL34:
  78:procr.c       ****             break;
 872              		.loc 1 78 0
 873 00e4 0123     		movs	r3, #1
 874              	.LVL35:
  39:procr.c       ****         
 875              		.loc 1 39 0
 876 00e6 0022     		movs	r2, #0
 877              	.LVL36:
  79:procr.c       ****         case OP3_CALL_SUBROUTINE:
 878              		.loc 1 79 0
 879 00e8 91E2     		b	.L8
 880              	.LVL37:
 881              	.L9:
  82:procr.c       ****             sp = (sp == 0xf) ? 0xf : sp + 1;
 882              		.loc 1 82 0
 883 00ea 18A8     		add	r0, sp, #96
 884 00ec 089A     		ldr	r2, [sp, #32]
 885              	.LVL38:
 886 00ee 00EB4203 		add	r3, r0, r2, lsl #1
 887              	.LVL39:
 888 00f2 23F830AC 		strh	r10, [r3, #-48]	@ movhi
  83:procr.c       ****             pc = nnn;
 889              		.loc 1 83 0
 890 00f6 1346     		mov	r3, r2
 891 00f8 0F2A     		cmp	r2, #15
 892 00fa 00F06482 		beq	.L64
  83:procr.c       ****             pc = nnn;
 893              		.loc 1 83 0 is_stmt 0 discriminator 1
 894 00fe 0133     		adds	r3, r3, #1
 895 0100 DBB2     		uxtb	r3, r3
 896 0102 0893     		str	r3, [sp, #32]
 897              	.LVL40:
  84:procr.c       ****             freeze_pc = 1;
 898              		.loc 1 84 0 is_stmt 1 discriminator 1
 899 0104 8A46     		mov	r10, r1
 900              	.LVL41:
  85:procr.c       ****             break;
 901              		.loc 1 85 0 discriminator 1
 902 0106 0123     		movs	r3, #1
  39:procr.c       ****         
 903              		.loc 1 39 0 discriminator 1
 904 0108 0022     		movs	r2, #0
ARM GAS  C:\Users\info\AppData\Local\Temp\ccl9i4Az.s 			page 62


 905              	.LVL42:
 906 010a 80E2     		b	.L8
 907              	.LVL43:
 908              	.L10:
  89:procr.c       ****                 pc += 2;
 909              		.loc 1 89 0
 910 010c 18AB     		add	r3, sp, #96
 911              	.LVL44:
 912 010e 1C44     		add	r4, r4, r3
 913              	.LVL45:
 914 0110 14F8103C 		ldrb	r3, [r4, #-16]	@ zero_extendqisi2
 915 0114 9E42     		cmp	r6, r3
 916 0116 40F05A82 		bne	.L65
  90:procr.c       ****             }
 917              		.loc 1 90 0
 918 011a 0AF1020A 		add	r10, r10, #2
 919              	.LVL46:
 920 011e 1FFA8AFA 		uxth	r10, r10
 921              	.LVL47:
  42:procr.c       ****         
 922              		.loc 1 42 0
 923 0122 0023     		movs	r3, #0
  39:procr.c       ****         
 924              		.loc 1 39 0
 925 0124 1A46     		mov	r2, r3
 926              	.LVL48:
 927 0126 72E2     		b	.L8
 928              	.LVL49:
 929              	.L11:
  95:procr.c       ****                 pc += 2;
 930              		.loc 1 95 0
 931 0128 18AB     		add	r3, sp, #96
 932              	.LVL50:
 933 012a 1C44     		add	r4, r4, r3
 934              	.LVL51:
 935 012c 14F8103C 		ldrb	r3, [r4, #-16]	@ zero_extendqisi2
 936 0130 9E42     		cmp	r6, r3
 937 0132 00F04F82 		beq	.L66
  96:procr.c       ****             }
 938              		.loc 1 96 0
 939 0136 0AF1020A 		add	r10, r10, #2
 940              	.LVL52:
 941 013a 1FFA8AFA 		uxth	r10, r10
 942              	.LVL53:
  42:procr.c       ****         
 943              		.loc 1 42 0
 944 013e 0023     		movs	r3, #0
  39:procr.c       ****         
 945              		.loc 1 39 0
 946 0140 1A46     		mov	r2, r3
 947              	.LVL54:
 948 0142 64E2     		b	.L8
 949              	.LVL55:
 950              	.L12:
 101:procr.c       ****                 if (v[x] == v[y]) {
 951              		.loc 1 101 0
 952 0144 BCF1000F 		cmp	ip, #0
ARM GAS  C:\Users\info\AppData\Local\Temp\ccl9i4Az.s 			page 63


 953 0148 40F04782 		bne	.L67
 102:procr.c       ****                     pc += 2;
 954              		.loc 1 102 0
 955 014c 18AA     		add	r2, sp, #96
 956              	.LVL56:
 957 014e 1444     		add	r4, r4, r2
 958              	.LVL57:
 959 0150 14F8102C 		ldrb	r2, [r4, #-16]	@ zero_extendqisi2
 960 0154 18A9     		add	r1, sp, #96
 961              	.LVL58:
 962 0156 0B44     		add	r3, r3, r1
 963              	.LVL59:
 964 0158 13F8103C 		ldrb	r3, [r3, #-16]	@ zero_extendqisi2
 965 015c 9A42     		cmp	r2, r3
 966 015e 40F03F82 		bne	.L68
 103:procr.c       ****                 }
 967              		.loc 1 103 0
 968 0162 0AF1020A 		add	r10, r10, #2
 969              	.LVL60:
 970 0166 1FFA8AFA 		uxth	r10, r10
 971              	.LVL61:
  42:procr.c       ****         
 972              		.loc 1 42 0
 973 016a 0023     		movs	r3, #0
  39:procr.c       ****         
 974              		.loc 1 39 0
 975 016c 1A46     		mov	r2, r3
 976 016e 4EE2     		b	.L8
 977              	.LVL62:
 978              	.L16:
 111:procr.c       ****                 if (v[x] != v[y]) {
 979              		.loc 1 111 0
 980 0170 BCF1000F 		cmp	ip, #0
 981 0174 40F03782 		bne	.L69
 112:procr.c       ****                     pc += 2;
 982              		.loc 1 112 0
 983 0178 18AA     		add	r2, sp, #96
 984              	.LVL63:
 985 017a 1444     		add	r4, r4, r2
 986              	.LVL64:
 987 017c 14F8102C 		ldrb	r2, [r4, #-16]	@ zero_extendqisi2
 988 0180 18A9     		add	r1, sp, #96
 989              	.LVL65:
 990 0182 0B44     		add	r3, r3, r1
 991              	.LVL66:
 992 0184 13F8103C 		ldrb	r3, [r3, #-16]	@ zero_extendqisi2
 993 0188 9A42     		cmp	r2, r3
 994 018a 00F02F82 		beq	.L70
 113:procr.c       ****                 }
 995              		.loc 1 113 0
 996 018e 0AF1020A 		add	r10, r10, #2
 997              	.LVL67:
 998 0192 1FFA8AFA 		uxth	r10, r10
 999              	.LVL68:
  42:procr.c       ****         
 1000              		.loc 1 42 0
 1001 0196 0023     		movs	r3, #0
ARM GAS  C:\Users\info\AppData\Local\Temp\ccl9i4Az.s 			page 64


  39:procr.c       ****         
 1002              		.loc 1 39 0
 1003 0198 1A46     		mov	r2, r3
 1004 019a 38E2     		b	.L8
 1005              	.LVL69:
 1006              	.L13:
 121:procr.c       ****             break;
 1007              		.loc 1 121 0
 1008 019c 18AB     		add	r3, sp, #96
 1009              	.LVL70:
 1010 019e 1C44     		add	r4, r4, r3
 1011              	.LVL71:
 1012 01a0 04F8106C 		strb	r6, [r4, #-16]
  42:procr.c       ****         
 1013              		.loc 1 42 0
 1014 01a4 0023     		movs	r3, #0
  39:procr.c       ****         
 1015              		.loc 1 39 0
 1016 01a6 1A46     		mov	r2, r3
 1017              	.LVL72:
 122:procr.c       ****         case OP3_ADD_IM:
 1018              		.loc 1 122 0
 1019 01a8 31E2     		b	.L8
 1020              	.LVL73:
 1021              	.L14:
 125:procr.c       ****             break;
 1022              		.loc 1 125 0
 1023 01aa 18AB     		add	r3, sp, #96
 1024              	.LVL74:
 1025 01ac 1C44     		add	r4, r4, r3
 1026              	.LVL75:
 1027 01ae 14F8103C 		ldrb	r3, [r4, #-16]	@ zero_extendqisi2
 1028 01b2 1E44     		add	r6, r6, r3
 1029              	.LVL76:
 1030 01b4 04F8106C 		strb	r6, [r4, #-16]
  42:procr.c       ****         
 1031              		.loc 1 42 0
 1032 01b8 0023     		movs	r3, #0
  39:procr.c       ****         
 1033              		.loc 1 39 0
 1034 01ba 1A46     		mov	r2, r3
 1035              	.LVL77:
 126:procr.c       ****         case OP3_ARITH:
 1036              		.loc 1 126 0
 1037 01bc 27E2     		b	.L8
 1038              	.LVL78:
 1039              	.L15:
 129:procr.c       ****             case OP0_ARITH_LOAD:
 1040              		.loc 1 129 0
 1041 01be BCF10E0F 		cmp	ip, #14
 1042 01c2 00F21682 		bhi	.L71
 1043 01c6 DFE81CF0 		tbh	[pc, ip, lsl #1]
 1044              	.LVL79:
 1045              	.L28:
 1046 01ca 0F00     		.2byte	(.L27-.L28)/2
 1047 01cc 1900     		.2byte	(.L29-.L28)/2
 1048 01ce 2700     		.2byte	(.L30-.L28)/2
ARM GAS  C:\Users\info\AppData\Local\Temp\ccl9i4Az.s 			page 65


 1049 01d0 3500     		.2byte	(.L31-.L28)/2
 1050 01d2 4300     		.2byte	(.L32-.L28)/2
 1051 01d4 5100     		.2byte	(.L33-.L28)/2
 1052 01d6 6700     		.2byte	(.L34-.L28)/2
 1053 01d8 7700     		.2byte	(.L35-.L28)/2
 1054 01da 1402     		.2byte	(.L71-.L28)/2
 1055 01dc 1402     		.2byte	(.L71-.L28)/2
 1056 01de 1402     		.2byte	(.L71-.L28)/2
 1057 01e0 1402     		.2byte	(.L71-.L28)/2
 1058 01e2 1402     		.2byte	(.L71-.L28)/2
 1059 01e4 1402     		.2byte	(.L71-.L28)/2
 1060 01e6 8C00     		.2byte	(.L36-.L28)/2
 1061              		.p2align 1
 1062              	.L27:
 132:procr.c       ****                 break;
 1063              		.loc 1 132 0
 1064 01e8 18AA     		add	r2, sp, #96
 1065 01ea 1344     		add	r3, r3, r2
 1066              	.LVL80:
 1067 01ec 13F8103C 		ldrb	r3, [r3, #-16]	@ zero_extendqisi2
 1068 01f0 1444     		add	r4, r4, r2
 1069              	.LVL81:
 1070 01f2 04F8103C 		strb	r3, [r4, #-16]
  42:procr.c       ****         
 1071              		.loc 1 42 0
 1072 01f6 0023     		movs	r3, #0
  39:procr.c       ****         
 1073              		.loc 1 39 0
 1074 01f8 1A46     		mov	r2, r3
 133:procr.c       ****             case OP0_ARITH_OR:
 1075              		.loc 1 133 0
 1076 01fa 08E2     		b	.L8
 1077              	.LVL82:
 1078              	.L29:
 136:procr.c       ****                 break;
 1079              		.loc 1 136 0
 1080 01fc 18AA     		add	r2, sp, #96
 1081 01fe 1344     		add	r3, r3, r2
 1082              	.LVL83:
 1083 0200 13F8102C 		ldrb	r2, [r3, #-16]	@ zero_extendqisi2
 1084 0204 18AB     		add	r3, sp, #96
 1085 0206 1C44     		add	r4, r4, r3
 1086              	.LVL84:
 1087 0208 14F8103C 		ldrb	r3, [r4, #-16]	@ zero_extendqisi2
 1088 020c 1343     		orrs	r3, r3, r2
 1089 020e 04F8103C 		strb	r3, [r4, #-16]
  42:procr.c       ****         
 1090              		.loc 1 42 0
 1091 0212 0023     		movs	r3, #0
  39:procr.c       ****         
 1092              		.loc 1 39 0
 1093 0214 1A46     		mov	r2, r3
 137:procr.c       ****             case OP0_ARITH_AND:
 1094              		.loc 1 137 0
 1095 0216 FAE1     		b	.L8
 1096              	.LVL85:
 1097              	.L30:
ARM GAS  C:\Users\info\AppData\Local\Temp\ccl9i4Az.s 			page 66


 140:procr.c       ****                 break;
 1098              		.loc 1 140 0
 1099 0218 18AA     		add	r2, sp, #96
 1100 021a 1344     		add	r3, r3, r2
 1101              	.LVL86:
 1102 021c 13F8102C 		ldrb	r2, [r3, #-16]	@ zero_extendqisi2
 1103 0220 18AB     		add	r3, sp, #96
 1104 0222 1C44     		add	r4, r4, r3
 1105              	.LVL87:
 1106 0224 14F8103C 		ldrb	r3, [r4, #-16]	@ zero_extendqisi2
 1107 0228 1340     		ands	r3, r3, r2
 1108 022a 04F8103C 		strb	r3, [r4, #-16]
  42:procr.c       ****         
 1109              		.loc 1 42 0
 1110 022e 0023     		movs	r3, #0
  39:procr.c       ****         
 1111              		.loc 1 39 0
 1112 0230 1A46     		mov	r2, r3
 141:procr.c       ****             case OP0_ARITH_XOR:
 1113              		.loc 1 141 0
 1114 0232 ECE1     		b	.L8
 1115              	.LVL88:
 1116              	.L31:
 144:procr.c       ****                 break;
 1117              		.loc 1 144 0
 1118 0234 18AA     		add	r2, sp, #96
 1119 0236 1344     		add	r3, r3, r2
 1120              	.LVL89:
 1121 0238 13F8102C 		ldrb	r2, [r3, #-16]	@ zero_extendqisi2
 1122 023c 18AB     		add	r3, sp, #96
 1123 023e 1C44     		add	r4, r4, r3
 1124              	.LVL90:
 1125 0240 14F8103C 		ldrb	r3, [r4, #-16]	@ zero_extendqisi2
 1126 0244 5340     		eors	r3, r3, r2
 1127 0246 04F8103C 		strb	r3, [r4, #-16]
  42:procr.c       ****         
 1128              		.loc 1 42 0
 1129 024a 0023     		movs	r3, #0
  39:procr.c       ****         
 1130              		.loc 1 39 0
 1131 024c 1A46     		mov	r2, r3
 145:procr.c       ****             case OP0_ARITH_ADD:
 1132              		.loc 1 145 0
 1133 024e DEE1     		b	.L8
 1134              	.LVL91:
 1135              	.L32:
 148:procr.c       ****                 break;
 1136              		.loc 1 148 0
 1137 0250 18AA     		add	r2, sp, #96
 1138 0252 1344     		add	r3, r3, r2
 1139              	.LVL92:
 1140 0254 13F8102C 		ldrb	r2, [r3, #-16]	@ zero_extendqisi2
 1141 0258 18AB     		add	r3, sp, #96
 1142 025a 1C44     		add	r4, r4, r3
 1143              	.LVL93:
 1144 025c 14F8103C 		ldrb	r3, [r4, #-16]	@ zero_extendqisi2
 1145 0260 1344     		add	r3, r3, r2
ARM GAS  C:\Users\info\AppData\Local\Temp\ccl9i4Az.s 			page 67


 1146 0262 04F8103C 		strb	r3, [r4, #-16]
  42:procr.c       ****         
 1147              		.loc 1 42 0
 1148 0266 0023     		movs	r3, #0
  39:procr.c       ****         
 1149              		.loc 1 39 0
 1150 0268 1A46     		mov	r2, r3
 149:procr.c       ****             case OP0_ARITH_SUB:{
 1151              		.loc 1 149 0
 1152 026a D0E1     		b	.L8
 1153              	.LVL94:
 1154              	.L33:
 1155              	.LBB6:
 152:procr.c       ****                 uint16_t vy = v[y];
 1156              		.loc 1 152 0
 1157 026c 18AA     		add	r2, sp, #96
 1158 026e 1444     		add	r4, r4, r2
 1159              	.LVL95:
 1160 0270 14F8102C 		ldrb	r2, [r4, #-16]	@ zero_extendqisi2
 1161              	.LVL96:
 153:procr.c       ****                 uint16_t diff = vx - vy;                                
 1162              		.loc 1 153 0
 1163 0274 18A9     		add	r1, sp, #96
 1164              	.LVL97:
 1165 0276 0B44     		add	r3, r3, r1
 1166              	.LVL98:
 1167 0278 13F8101C 		ldrb	r1, [r3, #-16]	@ zero_extendqisi2
 1168              	.LVL99:
 154:procr.c       ****                 v[x] = diff;
 1169              		.loc 1 154 0
 1170 027c 531A     		subs	r3, r2, r1
 1171              	.LVL100:
 155:procr.c       ****                 v[0xf] = (diff & 0x100) ? 0 : 1;
 1172              		.loc 1 155 0
 1173 027e 04F8103C 		strb	r3, [r4, #-16]
 156:procr.c       ****                 break;
 1174              		.loc 1 156 0
 1175 0282 C3F30723 		ubfx	r3, r3, #8, #8
 1176              	.LVL101:
 1177 0286 83F00103 		eor	r3, r3, #1
 1178 028a 03F00103 		and	r3, r3, #1
 1179 028e 8DF85F30 		strb	r3, [sp, #95]
 1180              	.LBE6:
  42:procr.c       ****         
 1181              		.loc 1 42 0
 1182 0292 0023     		movs	r3, #0
  39:procr.c       ****         
 1183              		.loc 1 39 0
 1184 0294 1A46     		mov	r2, r3
 1185              	.LVL102:
 1186              	.LBB7:
 157:procr.c       ****             }
 1187              		.loc 1 157 0
 1188 0296 BAE1     		b	.L8
 1189              	.LVL103:
 1190              	.L34:
 1191              	.LBE7:
ARM GAS  C:\Users\info\AppData\Local\Temp\ccl9i4Az.s 			page 68


 161:procr.c       ****                 v[x] >>= 1;
 1192              		.loc 1 161 0
 1193 0298 18AB     		add	r3, sp, #96
 1194              	.LVL104:
 1195 029a 1C44     		add	r4, r4, r3
 1196              	.LVL105:
 1197 029c 14F8103C 		ldrb	r3, [r4, #-16]	@ zero_extendqisi2
 1198 02a0 03F00103 		and	r3, r3, #1
 1199 02a4 8DF85F30 		strb	r3, [sp, #95]
 162:procr.c       ****                 break;
 1200              		.loc 1 162 0
 1201 02a8 14F8103C 		ldrb	r3, [r4, #-16]	@ zero_extendqisi2
 1202 02ac 5B08     		lsrs	r3, r3, #1
 1203 02ae 04F8103C 		strb	r3, [r4, #-16]
  42:procr.c       ****         
 1204              		.loc 1 42 0
 1205 02b2 0023     		movs	r3, #0
  39:procr.c       ****         
 1206              		.loc 1 39 0
 1207 02b4 1A46     		mov	r2, r3
 163:procr.c       ****             case OP0_ARITH_SUBN:{
 1208              		.loc 1 163 0
 1209 02b6 AAE1     		b	.L8
 1210              	.LVL106:
 1211              	.L35:
 1212              	.LBB8:
 166:procr.c       ****                 uint16_t vy = v[y];
 1213              		.loc 1 166 0
 1214 02b8 18AA     		add	r2, sp, #96
 1215 02ba 1444     		add	r4, r4, r2
 1216              	.LVL107:
 1217 02bc 14F8101C 		ldrb	r1, [r4, #-16]	@ zero_extendqisi2
 1218              	.LVL108:
 167:procr.c       ****                 uint16_t diff = vy - vx;                                
 1219              		.loc 1 167 0
 1220 02c0 1344     		add	r3, r3, r2
 1221              	.LVL109:
 1222 02c2 13F8102C 		ldrb	r2, [r3, #-16]	@ zero_extendqisi2
 1223              	.LVL110:
 168:procr.c       ****                 v[x] = diff;
 1224              		.loc 1 168 0
 1225 02c6 531A     		subs	r3, r2, r1
 1226              	.LVL111:
 169:procr.c       ****                 v[0xf] = (diff & 0x100) ? 0 : 1;
 1227              		.loc 1 169 0
 1228 02c8 04F8103C 		strb	r3, [r4, #-16]
 170:procr.c       ****                 break;
 1229              		.loc 1 170 0
 1230 02cc C3F30723 		ubfx	r3, r3, #8, #8
 1231              	.LVL112:
 1232 02d0 83F00103 		eor	r3, r3, #1
 1233 02d4 03F00103 		and	r3, r3, #1
 1234 02d8 8DF85F30 		strb	r3, [sp, #95]
 1235              	.LBE8:
  42:procr.c       ****         
 1236              		.loc 1 42 0
 1237 02dc 0023     		movs	r3, #0
ARM GAS  C:\Users\info\AppData\Local\Temp\ccl9i4Az.s 			page 69


  39:procr.c       ****         
 1238              		.loc 1 39 0
 1239 02de 1A46     		mov	r2, r3
 1240              	.LVL113:
 1241              	.LBB9:
 171:procr.c       ****             }
 1242              		.loc 1 171 0
 1243 02e0 95E1     		b	.L8
 1244              	.LVL114:
 1245              	.L36:
 1246              	.LBE9:
 175:procr.c       ****                 v[x] <<= 1;
 1247              		.loc 1 175 0
 1248 02e2 18AB     		add	r3, sp, #96
 1249              	.LVL115:
 1250 02e4 1C44     		add	r4, r4, r3
 1251              	.LVL116:
 1252 02e6 14F8103C 		ldrb	r3, [r4, #-16]	@ zero_extendqisi2
 1253 02ea DB09     		lsrs	r3, r3, #7
 1254 02ec 8DF85F30 		strb	r3, [sp, #95]
 176:procr.c       ****                 break;
 1255              		.loc 1 176 0
 1256 02f0 14F8103C 		ldrb	r3, [r4, #-16]	@ zero_extendqisi2
 1257 02f4 5B00     		lsls	r3, r3, #1
 1258 02f6 04F8103C 		strb	r3, [r4, #-16]
  42:procr.c       ****         
 1259              		.loc 1 42 0
 1260 02fa 0023     		movs	r3, #0
  39:procr.c       ****         
 1261              		.loc 1 39 0
 1262 02fc 1A46     		mov	r2, r3
 177:procr.c       ****             default:
 1263              		.loc 1 177 0
 1264 02fe 86E1     		b	.L8
 1265              	.LVL117:
 1266              	.L17:
 185:procr.c       ****             break;
 1267              		.loc 1 185 0
 1268 0300 0691     		str	r1, [sp, #24]
  42:procr.c       ****         
 1269              		.loc 1 42 0
 1270 0302 0023     		movs	r3, #0
 1271              	.LVL118:
  39:procr.c       ****         
 1272              		.loc 1 39 0
 1273 0304 1A46     		mov	r2, r3
 1274              	.LVL119:
 186:procr.c       ****         case OP3_RANDOM:
 1275              		.loc 1 186 0
 1276 0306 82E1     		b	.L8
 1277              	.LVL120:
 1278              	.L19:
 189:procr.c       ****             break;
 1279              		.loc 1 189 0
 1280 0308 FFF7FEFF 		bl	random_Read
 1281              	.LVL121:
 1282 030c 18AB     		add	r3, sp, #96
ARM GAS  C:\Users\info\AppData\Local\Temp\ccl9i4Az.s 			page 70


 1283 030e 1C44     		add	r4, r4, r3
 1284              	.LVL122:
 1285 0310 3040     		ands	r0, r0, r6
 1286 0312 04F8100C 		strb	r0, [r4, #-16]
  42:procr.c       ****         
 1287              		.loc 1 42 0
 1288 0316 0023     		movs	r3, #0
  39:procr.c       ****         
 1289              		.loc 1 39 0
 1290 0318 1A46     		mov	r2, r3
 190:procr.c       ****         case OP3_DRAW:{
 1291              		.loc 1 190 0
 1292 031a 78E1     		b	.L8
 1293              	.LVL123:
 1294              	.L40:
 1295              	.LBB10:
 1296              	.LBB11:
 1297              	.LBB12:
 196:procr.c       ****                     row = ((uint64_t)ram[i + j]) << (56 - v[x]);
 1298              		.loc 1 196 0
 1299 031c 18A9     		add	r1, sp, #96
 1300 031e 3944     		add	r1, r1, r7
 1301 0320 11F8104C 		ldrb	r4, [r1, #-16]	@ zero_extendqisi2
 1302 0324 382C     		cmp	r4, #56
 1303 0326 15D8     		bhi	.L37
 197:procr.c       ****                 } else {
 1304              		.loc 1 197 0
 1305 0328 0699     		ldr	r1, [sp, #24]
 1306 032a 1144     		add	r1, r1, r2
 1307 032c 585C     		ldrb	r0, [r3, r1]	@ zero_extendqisi2
 1308 032e C4F13804 		rsb	r4, r4, #56
 1309 0332 A4F12005 		sub	r5, r4, #32
 1310 0336 C4F12001 		rsb	r1, r4, #32
 1311 033a 4FF00009 		mov	r9, #0
 1312 033e 00FA05F5 		lsl	r5, r0, r5
 1313 0342 49EA0509 		orr	r9, r9, r5
 1314 0346 20FA01F1 		lsr	r1, r0, r1
 1315 034a 49EA0109 		orr	r9, r9, r1
 1316 034e 00FA04F8 		lsl	r8, r0, r4
 1317              	.LVL124:
 1318 0352 21E0     		b	.L38
 1319              	.LVL125:
 1320              	.L37:
 199:procr.c       ****                         | ((uint64_t)ram[i + j]) << (120 - v[x]);
 1321              		.loc 1 199 0
 1322 0354 0699     		ldr	r1, [sp, #24]
 1323 0356 1144     		add	r1, r1, r2
 1324 0358 585C     		ldrb	r0, [r3, r1]	@ zero_extendqisi2
 1325 035a A4F13801 		sub	r1, r4, #56
 1326 035e 20FA01F5 		lsr	r5, r0, r1
 1327 0362 0495     		str	r5, [sp, #16]
 1328 0364 0025     		movs	r5, #0
 1329 0366 0595     		str	r5, [sp, #20]
 200:procr.c       ****                 }
 1330              		.loc 1 200 0
 1331 0368 C4F17804 		rsb	r4, r4, #120
 1332 036c A4F12005 		sub	r5, r4, #32
ARM GAS  C:\Users\info\AppData\Local\Temp\ccl9i4Az.s 			page 71


 1333 0370 C4F12001 		rsb	r1, r4, #32
 1334 0374 4FF0000B 		mov	fp, #0
 1335 0378 00FA05F5 		lsl	r5, r0, r5
 1336 037c 4BEA050B 		orr	fp, fp, r5
 1337 0380 20FA01F1 		lsr	r1, r0, r1
 1338 0384 4BEA010B 		orr	fp, fp, r1
 1339 0388 00FA04FA 		lsl	r10, r0, r4
 199:procr.c       ****                         | ((uint64_t)ram[i + j]) << (120 - v[x]);
 1340              		.loc 1 199 0
 1341 038c DDE90489 		ldrd	r8, [sp, #16]
 1342 0390 48EA0A08 		orr	r8, r8, r10
 1343 0394 49EA0B09 		orr	r9, r9, fp
 1344              	.LVL126:
 1345              	.L38:
 202:procr.c       ****                 vram[(v[y] + j) % 32] ^= row;
 1346              		.loc 1 202 0 discriminator 2
 1347 0398 18A9     		add	r1, sp, #96
 1348 039a 0798     		ldr	r0, [sp, #28]
 1349 039c 0144     		add	r1, r1, r0
 1350 039e 11F8101C 		ldrb	r1, [r1, #-16]	@ zero_extendqisi2
 1351 03a2 1144     		add	r1, r1, r2
 1352 03a4 A048     		ldr	r0, .L81
 1353 03a6 11EA000E 		ands	lr, r1, r0
 1354 03aa 05D5     		bpl	.L39
 1355 03ac 0EF1FF3E 		add	lr, lr, #-1
 1356 03b0 6EF01F0E 		orn	lr, lr, #31
 1357 03b4 0EF1010E 		add	lr, lr, #1
 1358              	.L39:
 1359 03b8 06EBCE0E 		add	lr, r6, lr, lsl #3
 1360 03bc DEE90001 		ldrd	r0, [lr]
 1361 03c0 CDE90201 		strd	r0, [sp, #8]
 1362 03c4 00EA0804 		and	r4, r0, r8
 1363 03c8 01EA0905 		and	r5, r1, r9
 1364 03cc DDE90001 		ldrd	r0, [sp]
 1365 03d0 2043     		orrs	r0, r0, r4
 1366 03d2 2943     		orrs	r1, r1, r5
 1367 03d4 CDE90001 		strd	r0, [sp]
 1368              	.LVL127:
 203:procr.c       ****             }
 1369              		.loc 1 203 0 discriminator 2
 1370 03d8 DDE90201 		ldrd	r0, [sp, #8]
 1371              	.LVL128:
 1372 03dc 80EA0800 		eor	r0, r0, r8
 1373 03e0 81EA0901 		eor	r1, r1, r9
 1374 03e4 CEE90001 		strd	r0, [lr]
 1375              	.LBE12:
 194:procr.c       ****                 uint64_t row = 0;
 1376              		.loc 1 194 0 discriminator 2
 1377 03e8 0132     		adds	r2, r2, #1
 1378              	.LVL129:
 1379 03ea 0CE0     		b	.L20
 1380              	.LVL130:
 1381              	.L60:
 1382              	.LBE11:
 1383              	.LBE10:
  45:procr.c       ****         case OP3_SYSTEM:
 1384              		.loc 1 45 0
ARM GAS  C:\Users\info\AppData\Local\Temp\ccl9i4Az.s 			page 72


 1385 03ec 0022     		movs	r2, #0
 1386              	.LVL131:
 1387 03ee 0020     		movs	r0, #0
 1388 03f0 0021     		movs	r1, #0
 1389              	.LVL132:
 1390 03f2 CDE90001 		strd	r0, [sp]
 1391 03f6 CDF824A0 		str	r10, [sp, #36]
 1392 03fa 2746     		mov	r7, r4
 1393 03fc 0793     		str	r3, [sp, #28]
 1394 03fe 5B46     		mov	r3, fp
 1395              	.LVL133:
 1396 0400 DDE902AB 		ldrd	r10, [sp, #8]
 1397              	.LVL134:
 1398 0404 2E46     		mov	r6, r5
 1399              	.LVL135:
 1400              	.L20:
 1401              	.LBB14:
 1402              	.LBB13:
 194:procr.c       ****                 uint64_t row = 0;
 1403              		.loc 1 194 0 discriminator 1
 1404 0406 6245     		cmp	r2, ip
 1405 0408 88DB     		blt	.L40
 1406 040a CDE902AB 		strd	r10, [sp, #8]
 1407 040e DDF824A0 		ldr	r10, [sp, #36]
 1408 0412 9B46     		mov	fp, r3
 1409 0414 3546     		mov	r5, r6
 1410              	.LBE13:
 205:procr.c       ****             *vga_update_flag = 1;
 1411              		.loc 1 205 0
 1412 0416 DDE90012 		ldrd	r1, [sp]
 1413 041a 0B46     		mov	r3, r1
 1414              	.LVL136:
 1415 041c 1343     		orrs	r3, r3, r2
 1416 041e 14BF     		ite	ne
 1417 0420 0123     		movne	r3, #1
 1418 0422 0023     		moveq	r3, #0
 1419 0424 8DF85F30 		strb	r3, [sp, #95]
 206:procr.c       ****             break;
 1420              		.loc 1 206 0
 1421 0428 0123     		movs	r3, #1
 1422 042a 229A     		ldr	r2, [sp, #136]
 1423              	.LVL137:
 1424 042c 1370     		strb	r3, [r2]
 1425              	.LBE14:
  42:procr.c       ****         
 1426              		.loc 1 42 0
 1427 042e 0023     		movs	r3, #0
  39:procr.c       ****         
 1428              		.loc 1 39 0
 1429 0430 1A46     		mov	r2, r3
 1430              	.LBB15:
 207:procr.c       ****         }
 1431              		.loc 1 207 0
 1432 0432 ECE0     		b	.L8
 1433              	.LVL138:
 1434              	.L21:
 1435              	.LBE15:
ARM GAS  C:\Users\info\AppData\Local\Temp\ccl9i4Az.s 			page 73


 211:procr.c       ****             case OP10_KEYBOARD_EQ:
 1436              		.loc 1 211 0
 1437 0434 9E2E     		cmp	r6, #158
 1438 0436 02D0     		beq	.L41
 1439 0438 A12E     		cmp	r6, #161
 1440 043a 10D0     		beq	.L42
 1441 043c DCE0     		b	.L79
 1442              	.L41:
 214:procr.c       ****                     pc += 2;
 1443              		.loc 1 214 0
 1444 043e 18AB     		add	r3, sp, #96
 1445              	.LVL139:
 1446 0440 1C44     		add	r4, r4, r3
 1447              	.LVL140:
 1448 0442 14F8100C 		ldrb	r0, [r4, #-16]	@ zero_extendqisi2
 1449 0446 FFF7FEFF 		bl	key_pressed
 1450              	.LVL141:
 1451 044a 0028     		cmp	r0, #0
 1452 044c 00F0D780 		beq	.L73
 215:procr.c       ****                 }
 1453              		.loc 1 215 0
 1454 0450 0AF1020A 		add	r10, r10, #2
 1455              	.LVL142:
 1456 0454 1FFA8AFA 		uxth	r10, r10
 1457              	.LVL143:
  42:procr.c       ****         
 1458              		.loc 1 42 0
 1459 0458 0023     		movs	r3, #0
  39:procr.c       ****         
 1460              		.loc 1 39 0
 1461 045a 1A46     		mov	r2, r3
 1462 045c D7E0     		b	.L8
 1463              	.LVL144:
 1464              	.L42:
 220:procr.c       ****                     pc += 2;
 1465              		.loc 1 220 0
 1466 045e 18AB     		add	r3, sp, #96
 1467              	.LVL145:
 1468 0460 1C44     		add	r4, r4, r3
 1469              	.LVL146:
 1470 0462 14F8100C 		ldrb	r0, [r4, #-16]	@ zero_extendqisi2
 1471 0466 FFF7FEFF 		bl	key_pressed
 1472              	.LVL147:
 1473 046a 0028     		cmp	r0, #0
 1474 046c 40F0CA80 		bne	.L74
 221:procr.c       ****                 }
 1475              		.loc 1 221 0
 1476 0470 0AF1020A 		add	r10, r10, #2
 1477              	.LVL148:
 1478 0474 1FFA8AFA 		uxth	r10, r10
 1479              	.LVL149:
  42:procr.c       ****         
 1480              		.loc 1 42 0
 1481 0478 0023     		movs	r3, #0
  39:procr.c       ****         
 1482              		.loc 1 39 0
 1483 047a 1A46     		mov	r2, r3
ARM GAS  C:\Users\info\AppData\Local\Temp\ccl9i4Az.s 			page 74


 1484 047c C7E0     		b	.L8
 1485              	.LVL150:
 1486              	.L22:
 231:procr.c       ****             case OP10_SPECIAL_LOAD_DELAY:
 1487              		.loc 1 231 0
 1488 047e 1E2E     		cmp	r6, #30
 1489 0480 3AD0     		beq	.L43
 1490 0482 0AD8     		bhi	.L44
 1491 0484 0A2E     		cmp	r6, #10
 1492 0486 1CD0     		beq	.L45
 1493 0488 02D8     		bhi	.L46
 1494 048a 072E     		cmp	r6, #7
 1495 048c 10D0     		beq	.L47
 1496 048e BCE0     		b	.L75
 1497              	.L46:
 1498 0490 152E     		cmp	r6, #21
 1499 0492 1FD0     		beq	.L48
 1500 0494 182E     		cmp	r6, #24
 1501 0496 26D0     		beq	.L49
 1502 0498 B7E0     		b	.L75
 1503              	.L44:
 1504 049a 332E     		cmp	r6, #51
 1505 049c 43D0     		beq	.L50
 1506 049e 02D8     		bhi	.L51
 1507 04a0 292E     		cmp	r6, #41
 1508 04a2 34D0     		beq	.L52
 1509 04a4 B1E0     		b	.L75
 1510              	.L51:
 1511 04a6 552E     		cmp	r6, #85
 1512 04a8 6BD0     		beq	.L76
 1513 04aa 652E     		cmp	r6, #101
 1514 04ac 7AD0     		beq	.L77
 1515 04ae ACE0     		b	.L75
 1516              	.L47:
 234:procr.c       ****                 break;
 1517              		.loc 1 234 0
 1518 04b0 0A9B     		ldr	r3, [sp, #40]
 1519              	.LVL151:
 1520 04b2 1B78     		ldrb	r3, [r3]	@ zero_extendqisi2
 1521 04b4 18AA     		add	r2, sp, #96
 1522              	.LVL152:
 1523 04b6 1444     		add	r4, r4, r2
 1524              	.LVL153:
 1525 04b8 04F8103C 		strb	r3, [r4, #-16]
  42:procr.c       ****         
 1526              		.loc 1 42 0
 1527 04bc 0023     		movs	r3, #0
  39:procr.c       ****         
 1528              		.loc 1 39 0
 1529 04be 1A46     		mov	r2, r3
 235:procr.c       ****             case OP10_SPECIAL_LOAD_KEYBOARD:
 1530              		.loc 1 235 0
 1531 04c0 A5E0     		b	.L8
 1532              	.LVL154:
 1533              	.L45:
 238:procr.c       ****                 break;
 1534              		.loc 1 238 0
ARM GAS  C:\Users\info\AppData\Local\Temp\ccl9i4Az.s 			page 75


 1535 04c2 FFF7FEFF 		bl	wait_key
 1536              	.LVL155:
 1537 04c6 18AB     		add	r3, sp, #96
 1538 04c8 1C44     		add	r4, r4, r3
 1539              	.LVL156:
 1540 04ca 04F8100C 		strb	r0, [r4, #-16]
  42:procr.c       ****         
 1541              		.loc 1 42 0
 1542 04ce 0023     		movs	r3, #0
  39:procr.c       ****         
 1543              		.loc 1 39 0
 1544 04d0 1A46     		mov	r2, r3
 239:procr.c       ****             case OP10_SPECIAL_SET_DELAY:
 1545              		.loc 1 239 0
 1546 04d2 9CE0     		b	.L8
 1547              	.LVL157:
 1548              	.L48:
 242:procr.c       ****                 break;
 1549              		.loc 1 242 0
 1550 04d4 18AB     		add	r3, sp, #96
 1551              	.LVL158:
 1552 04d6 1C44     		add	r4, r4, r3
 1553              	.LVL159:
 1554 04d8 14F8103C 		ldrb	r3, [r4, #-16]	@ zero_extendqisi2
 1555 04dc 0A9A     		ldr	r2, [sp, #40]
 1556              	.LVL160:
 1557 04de 1370     		strb	r3, [r2]
 1558              	.LVL161:
  42:procr.c       ****         
 1559              		.loc 1 42 0
 1560 04e0 0023     		movs	r3, #0
  39:procr.c       ****         
 1561              		.loc 1 39 0
 1562 04e2 1A46     		mov	r2, r3
 243:procr.c       ****             case OP10_SPECIAL_SET_SOUND:
 1563              		.loc 1 243 0
 1564 04e4 93E0     		b	.L8
 1565              	.LVL162:
 1566              	.L49:
 246:procr.c       ****                 break;
 1567              		.loc 1 246 0
 1568 04e6 18AB     		add	r3, sp, #96
 1569              	.LVL163:
 1570 04e8 1C44     		add	r4, r4, r3
 1571              	.LVL164:
 1572 04ea 14F8103C 		ldrb	r3, [r4, #-16]	@ zero_extendqisi2
 1573 04ee 0B9A     		ldr	r2, [sp, #44]
 1574              	.LVL165:
 1575 04f0 1370     		strb	r3, [r2]
 1576              	.LVL166:
  42:procr.c       ****         
 1577              		.loc 1 42 0
 1578 04f2 0023     		movs	r3, #0
  39:procr.c       ****         
 1579              		.loc 1 39 0
 1580 04f4 1A46     		mov	r2, r3
 247:procr.c       ****             case OP10_SPECIAL_ADD_TO_I:
ARM GAS  C:\Users\info\AppData\Local\Temp\ccl9i4Az.s 			page 76


 1581              		.loc 1 247 0
 1582 04f6 8AE0     		b	.L8
 1583              	.LVL167:
 1584              	.L43:
 250:procr.c       ****                 break;
 1585              		.loc 1 250 0
 1586 04f8 18AB     		add	r3, sp, #96
 1587              	.LVL168:
 1588 04fa 1C44     		add	r4, r4, r3
 1589              	.LVL169:
 1590 04fc 14F8103C 		ldrb	r3, [r4, #-16]	@ zero_extendqisi2
 1591 0500 069A     		ldr	r2, [sp, #24]
 1592              	.LVL170:
 1593 0502 1A44     		add	r2, r2, r3
 1594 0504 93B2     		uxth	r3, r2
 1595 0506 0693     		str	r3, [sp, #24]
 1596              	.LVL171:
  42:procr.c       ****         
 1597              		.loc 1 42 0
 1598 0508 0023     		movs	r3, #0
  39:procr.c       ****         
 1599              		.loc 1 39 0
 1600 050a 1A46     		mov	r2, r3
 251:procr.c       ****             case OP10_SPECIAL_LOAD_FONT:
 1601              		.loc 1 251 0
 1602 050c 7FE0     		b	.L8
 1603              	.LVL172:
 1604              	.L52:
 254:procr.c       ****                 break;
 1605              		.loc 1 254 0
 1606 050e 18AB     		add	r3, sp, #96
 1607              	.LVL173:
 1608 0510 1C44     		add	r4, r4, r3
 1609              	.LVL174:
 1610 0512 14F8103C 		ldrb	r3, [r4, #-16]	@ zero_extendqisi2
 1611 0516 03F00F03 		and	r3, r3, #15
 1612 051a 03EB8303 		add	r3, r3, r3, lsl #2
 1613 051e 0693     		str	r3, [sp, #24]
 1614              	.LVL175:
  42:procr.c       ****         
 1615              		.loc 1 42 0
 1616 0520 0023     		movs	r3, #0
  39:procr.c       ****         
 1617              		.loc 1 39 0
 1618 0522 1A46     		mov	r2, r3
 1619              	.LVL176:
 255:procr.c       ****             case OP10_SPECIAL_LOAD_BCD:
 1620              		.loc 1 255 0
 1621 0524 73E0     		b	.L8
 1622              	.LVL177:
 1623              	.L50:
 258:procr.c       ****                 ram[i+1] = (uint8_t)(v[x] / 10) % 10;
 1624              		.loc 1 258 0
 1625 0526 18AB     		add	r3, sp, #96
 1626              	.LVL178:
 1627 0528 1C44     		add	r4, r4, r3
 1628              	.LVL179:
ARM GAS  C:\Users\info\AppData\Local\Temp\ccl9i4Az.s 			page 77


 1629 052a 14F8101C 		ldrb	r1, [r4, #-16]	@ zero_extendqisi2
 1630              	.LVL180:
 1631 052e 3F4A     		ldr	r2, .L81+4
 1632              	.LVL181:
 1633 0530 A2FB0132 		umull	r3, r2, r2, r1
 1634 0534 3E4B     		ldr	r3, .L81+8
 1635 0536 5209     		lsrs	r2, r2, #5
 1636 0538 069F     		ldr	r7, [sp, #24]
 1637 053a 0BF80720 		strb	r2, [fp, r7]
 1638              	.LVL182:
 259:procr.c       ****                 ram[i+2] = (uint8_t)(v[x]) % 10;
 1639              		.loc 1 259 0
 1640 053e 7C1C     		adds	r4, r7, #1
 1641 0540 A3FB0102 		umull	r0, r2, r3, r1
 1642 0544 D208     		lsrs	r2, r2, #3
 1643 0546 D0B2     		uxtb	r0, r2
 1644 0548 A3FB0063 		umull	r6, r3, r3, r0
 1645              	.LVL183:
 1646 054c DB08     		lsrs	r3, r3, #3
 1647 054e 03EB8303 		add	r3, r3, r3, lsl #2
 1648 0552 5E00     		lsls	r6, r3, #1
 1649 0554 801B     		subs	r0, r0, r6
 1650 0556 0BF80400 		strb	r0, [fp, r4]
 260:procr.c       ****                 break;
 1651              		.loc 1 260 0
 1652 055a BB1C     		adds	r3, r7, #2
 1653 055c 02EB8202 		add	r2, r2, r2, lsl #2
 1654 0560 5000     		lsls	r0, r2, #1
 1655 0562 091A     		subs	r1, r1, r0
 1656 0564 0BF80310 		strb	r1, [fp, r3]
  42:procr.c       ****         
 1657              		.loc 1 42 0
 1658 0568 0023     		movs	r3, #0
  39:procr.c       ****         
 1659              		.loc 1 39 0
 1660 056a 1A46     		mov	r2, r3
 261:procr.c       ****             case OP10_SPECIAL_LOAD_AT_I:
 1661              		.loc 1 261 0
 1662 056c 4FE0     		b	.L8
 1663              	.LVL184:
 1664              	.L55:
 1665              	.LBB16:
 265:procr.c       ****                 }
 1666              		.loc 1 265 0 discriminator 3
 1667 056e C218     		adds	r2, r0, r3
 1668 0570 18A9     		add	r1, sp, #96
 1669 0572 1944     		add	r1, r1, r3
 1670 0574 11F8101C 		ldrb	r1, [r1, #-16]	@ zero_extendqisi2
 1671 0578 0BF80210 		strb	r1, [fp, r2]
 264:procr.c       ****                     ram[i + j] = v[j];
 1672              		.loc 1 264 0 discriminator 3
 1673 057c 0133     		adds	r3, r3, #1
 1674              	.LVL185:
 1675 057e DBB2     		uxtb	r3, r3
 1676              	.LVL186:
 1677 0580 01E0     		b	.L53
 1678              	.LVL187:
ARM GAS  C:\Users\info\AppData\Local\Temp\ccl9i4Az.s 			page 78


 1679              	.L76:
 1680              	.LBE16:
 231:procr.c       ****             case OP10_SPECIAL_LOAD_DELAY:
 1681              		.loc 1 231 0
 1682 0582 0023     		movs	r3, #0
 1683              	.LVL188:
 1684 0584 0698     		ldr	r0, [sp, #24]
 1685              	.LVL189:
 1686              	.L53:
 1687              	.LBB17:
 264:procr.c       ****                     ram[i + j] = v[j];
 1688              		.loc 1 264 0 discriminator 1
 1689 0586 A342     		cmp	r3, r4
 1690 0588 F1D9     		bls	.L55
 1691              	.LBE17:
  42:procr.c       ****         
 1692              		.loc 1 42 0
 1693 058a 0023     		movs	r3, #0
 1694              	.LVL190:
  39:procr.c       ****         
 1695              		.loc 1 39 0
 1696 058c 1A46     		mov	r2, r3
 1697 058e 3EE0     		b	.L8
 1698              	.LVL191:
 1699              	.L56:
 1700              	.LBB18:
 271:procr.c       ****                 }
 1701              		.loc 1 271 0 discriminator 3
 1702 0590 C218     		adds	r2, r0, r3
 1703 0592 1BF80210 		ldrb	r1, [fp, r2]	@ zero_extendqisi2
 1704 0596 18AA     		add	r2, sp, #96
 1705 0598 1A44     		add	r2, r2, r3
 1706 059a 02F8101C 		strb	r1, [r2, #-16]
 270:procr.c       ****                     v[j] = ram[i + j];
 1707              		.loc 1 270 0 discriminator 3
 1708 059e 0133     		adds	r3, r3, #1
 1709              	.LVL192:
 1710 05a0 DBB2     		uxtb	r3, r3
 1711              	.LVL193:
 1712 05a2 01E0     		b	.L54
 1713              	.LVL194:
 1714              	.L77:
 1715              	.LBE18:
 231:procr.c       ****             case OP10_SPECIAL_LOAD_DELAY:
 1716              		.loc 1 231 0
 1717 05a4 0023     		movs	r3, #0
 1718              	.LVL195:
 1719 05a6 0698     		ldr	r0, [sp, #24]
 1720              	.LVL196:
 1721              	.L54:
 1722              	.LBB19:
 270:procr.c       ****                     v[j] = ram[i + j];
 1723              		.loc 1 270 0 discriminator 1
 1724 05a8 A342     		cmp	r3, r4
 1725 05aa F1D9     		bls	.L56
 1726              	.LBE19:
  42:procr.c       ****         
ARM GAS  C:\Users\info\AppData\Local\Temp\ccl9i4Az.s 			page 79


 1727              		.loc 1 42 0
 1728 05ac 0023     		movs	r3, #0
 1729              	.LVL197:
  39:procr.c       ****         
 1730              		.loc 1 39 0
 1731 05ae 1A46     		mov	r2, r3
 1732              	.LBB20:
 1733 05b0 2DE0     		b	.L8
 1734              	.LVL198:
 1735              	.L59:
 1736              	.LBE20:
  72:procr.c       ****             freeze_pc = 1;
 1737              		.loc 1 72 0
 1738 05b2 8A46     		mov	r10, r1
 1739              	.LVL199:
  73:procr.c       ****             break;
 1740              		.loc 1 73 0
 1741 05b4 0123     		movs	r3, #1
 1742              	.LVL200:
  39:procr.c       ****         
 1743              		.loc 1 39 0
 1744 05b6 0022     		movs	r2, #0
 1745              	.LVL201:
 1746 05b8 29E0     		b	.L8
 1747              	.LVL202:
 1748              	.L61:
  42:procr.c       ****         
 1749              		.loc 1 42 0
 1750 05ba 0023     		movs	r3, #0
 1751              	.LVL203:
  49:procr.c       ****             } else {
 1752              		.loc 1 49 0
 1753 05bc 0122     		movs	r2, #1
 1754              	.LVL204:
 1755 05be 26E0     		b	.L8
 1756              	.LVL205:
 1757              	.L78:
  42:procr.c       ****         
 1758              		.loc 1 42 0
 1759 05c0 0023     		movs	r3, #0
 1760              	.LVL206:
  65:procr.c       ****                     break;
 1761              		.loc 1 65 0
 1762 05c2 0122     		movs	r2, #1
 1763              	.LVL207:
 1764 05c4 23E0     		b	.L8
 1765              	.L64:
  84:procr.c       ****             freeze_pc = 1;
 1766              		.loc 1 84 0
 1767 05c6 8A46     		mov	r10, r1
 1768              	.LVL208:
  85:procr.c       ****             break;
 1769              		.loc 1 85 0
 1770 05c8 0123     		movs	r3, #1
  39:procr.c       ****         
 1771              		.loc 1 39 0
 1772 05ca 0022     		movs	r2, #0
ARM GAS  C:\Users\info\AppData\Local\Temp\ccl9i4Az.s 			page 80


 1773              	.LVL209:
 1774 05cc 1FE0     		b	.L8
 1775              	.LVL210:
 1776              	.L65:
  42:procr.c       ****         
 1777              		.loc 1 42 0
 1778 05ce 0023     		movs	r3, #0
  39:procr.c       ****         
 1779              		.loc 1 39 0
 1780 05d0 1A46     		mov	r2, r3
 1781              	.LVL211:
 1782 05d2 1CE0     		b	.L8
 1783              	.LVL212:
 1784              	.L66:
  42:procr.c       ****         
 1785              		.loc 1 42 0
 1786 05d4 0023     		movs	r3, #0
  39:procr.c       ****         
 1787              		.loc 1 39 0
 1788 05d6 1A46     		mov	r2, r3
 1789              	.LVL213:
 1790 05d8 19E0     		b	.L8
 1791              	.LVL214:
 1792              	.L67:
  42:procr.c       ****         
 1793              		.loc 1 42 0
 1794 05da 0023     		movs	r3, #0
 1795              	.LVL215:
 106:procr.c       ****             }
 1796              		.loc 1 106 0
 1797 05dc 0122     		movs	r2, #1
 1798              	.LVL216:
 1799 05de 16E0     		b	.L8
 1800              	.LVL217:
 1801              	.L68:
  42:procr.c       ****         
 1802              		.loc 1 42 0
 1803 05e0 0023     		movs	r3, #0
  39:procr.c       ****         
 1804              		.loc 1 39 0
 1805 05e2 1A46     		mov	r2, r3
 1806 05e4 13E0     		b	.L8
 1807              	.LVL218:
 1808              	.L69:
  42:procr.c       ****         
 1809              		.loc 1 42 0
 1810 05e6 0023     		movs	r3, #0
 1811              	.LVL219:
 116:procr.c       ****             }
 1812              		.loc 1 116 0
 1813 05e8 0122     		movs	r2, #1
 1814              	.LVL220:
 1815 05ea 10E0     		b	.L8
 1816              	.LVL221:
 1817              	.L70:
  42:procr.c       ****         
 1818              		.loc 1 42 0
ARM GAS  C:\Users\info\AppData\Local\Temp\ccl9i4Az.s 			page 81


 1819 05ec 0023     		movs	r3, #0
  39:procr.c       ****         
 1820              		.loc 1 39 0
 1821 05ee 1A46     		mov	r2, r3
 1822 05f0 0DE0     		b	.L8
 1823              	.LVL222:
 1824              	.L71:
  42:procr.c       ****         
 1825              		.loc 1 42 0
 1826 05f2 0023     		movs	r3, #0
 1827              	.LVL223:
 179:procr.c       ****                 break;
 1828              		.loc 1 179 0
 1829 05f4 0122     		movs	r2, #1
 1830 05f6 0AE0     		b	.L8
 1831              	.LVL224:
 1832              	.L79:
  42:procr.c       ****         
 1833              		.loc 1 42 0
 1834 05f8 0023     		movs	r3, #0
 1835              	.LVL225:
 225:procr.c       ****                 break;
 1836              		.loc 1 225 0
 1837 05fa 0122     		movs	r2, #1
 1838              	.LVL226:
 1839 05fc 07E0     		b	.L8
 1840              	.LVL227:
 1841              	.L73:
  42:procr.c       ****         
 1842              		.loc 1 42 0
 1843 05fe 0023     		movs	r3, #0
  39:procr.c       ****         
 1844              		.loc 1 39 0
 1845 0600 1A46     		mov	r2, r3
 1846 0602 04E0     		b	.L8
 1847              	.L74:
  42:procr.c       ****         
 1848              		.loc 1 42 0
 1849 0604 0023     		movs	r3, #0
  39:procr.c       ****         
 1850              		.loc 1 39 0
 1851 0606 1A46     		mov	r2, r3
 1852 0608 01E0     		b	.L8
 1853              	.LVL228:
 1854              	.L75:
  42:procr.c       ****         
 1855              		.loc 1 42 0
 1856 060a 0023     		movs	r3, #0
 1857              	.LVL229:
 275:procr.c       ****                 break;
 1858              		.loc 1 275 0
 1859 060c 0122     		movs	r2, #1
 1860              	.LVL230:
 1861              	.L8:
 281:procr.c       ****             break;
 282:procr.c       ****         }
 283:procr.c       ****         if (invalid_op) {
ARM GAS  C:\Users\info\AppData\Local\Temp\ccl9i4Az.s 			page 82


 1862              		.loc 1 283 0
 1863 060e 3AB9     		cbnz	r2, .L1
 284:procr.c       ****             /* Return to indicate error */
 285:procr.c       ****             return;
 286:procr.c       ****         }
 287:procr.c       ****         if (!freeze_pc){
 1864              		.loc 1 287 0
 1865 0610 002B     		cmp	r3, #0
 1866 0612 7FF414AD 		bne	.L4
 288:procr.c       ****             /* Increment PC */
 289:procr.c       ****             pc += 2;
 1867              		.loc 1 289 0
 1868 0616 0AF1020A 		add	r10, r10, #2
 1869              	.LVL231:
 1870 061a 1FFA8AFA 		uxth	r10, r10
 1871              	.LVL232:
 1872 061e 0EE5     		b	.L4
 1873              	.L1:
 1874              	.LBE3:
 290:procr.c       ****         }
 291:procr.c       ****     }
 292:procr.c       **** }
 1875              		.loc 1 292 0
 1876 0620 19B0     		add	sp, sp, #100
 1877              		.cfi_def_cfa_offset 36
 1878              		@ sp needed
 1879 0622 BDE8F08F 		pop	{r4, r5, r6, r7, r8, r9, r10, fp, pc}
 1880              	.LVL233:
 1881              	.L82:
 1882 0626 00BF     		.align	2
 1883              	.L81:
 1884 0628 1F000080 		.word	-2147483617
 1885 062c 1F85EB51 		.word	1374389535
 1886 0630 CDCCCCCC 		.word	-858993459
 1887              		.cfi_endproc
 1888              	.LFE63:
 1889              		.size	execute, .-execute
 1890              		.text
 1891              	.Letext0:
 1892              		.file 2 "c:\\program files (x86)\\cypress\\psoc creator\\4.2\\psoc creator\\import\\gnu\\arm\\5.4.
 1893              		.file 3 "c:\\program files (x86)\\cypress\\psoc creator\\4.2\\psoc creator\\import\\gnu\\arm\\5.4.
 1894              		.file 4 "Generated_Source\\PSoC5/random.h"
 1895              		.file 5 "chip8.h"
 1896              		.file 6 "Generated_Source\\PSoC5/core_cm3.h"
 1897              		.section	.debug_info,"",%progbits
 1898              	.Ldebug_info0:
 1899 0000 20040000 		.4byte	0x420
 1900 0004 0400     		.2byte	0x4
 1901 0006 00000000 		.4byte	.Ldebug_abbrev0
 1902 000a 04       		.byte	0x4
 1903 000b 01       		.uleb128 0x1
 1904 000c 49000000 		.4byte	.LASF34
 1905 0010 0C       		.byte	0xc
 1906 0011 02020000 		.4byte	.LASF35
 1907 0015 7D010000 		.4byte	.LASF36
 1908 0019 B8000000 		.4byte	.Ldebug_ranges0+0xb8
 1909 001d 00000000 		.4byte	0
ARM GAS  C:\Users\info\AppData\Local\Temp\ccl9i4Az.s 			page 83


 1910 0021 00000000 		.4byte	.Ldebug_line0
 1911 0025 02       		.uleb128 0x2
 1912 0026 01       		.byte	0x1
 1913 0027 06       		.byte	0x6
 1914 0028 0C000000 		.4byte	.LASF0
 1915 002c 03       		.uleb128 0x3
 1916 002d 18000000 		.4byte	.LASF3
 1917 0031 02       		.byte	0x2
 1918 0032 1D       		.byte	0x1d
 1919 0033 37000000 		.4byte	0x37
 1920 0037 02       		.uleb128 0x2
 1921 0038 01       		.byte	0x1
 1922 0039 08       		.byte	0x8
 1923 003a 13010000 		.4byte	.LASF1
 1924 003e 02       		.uleb128 0x2
 1925 003f 02       		.byte	0x2
 1926 0040 05       		.byte	0x5
 1927 0041 30020000 		.4byte	.LASF2
 1928 0045 03       		.uleb128 0x3
 1929 0046 48010000 		.4byte	.LASF4
 1930 004a 02       		.byte	0x2
 1931 004b 2B       		.byte	0x2b
 1932 004c 50000000 		.4byte	0x50
 1933 0050 02       		.uleb128 0x2
 1934 0051 02       		.byte	0x2
 1935 0052 07       		.byte	0x7
 1936 0053 60020000 		.4byte	.LASF5
 1937 0057 03       		.uleb128 0x3
 1938 0058 27000000 		.4byte	.LASF6
 1939 005c 02       		.byte	0x2
 1940 005d 3F       		.byte	0x3f
 1941 005e 62000000 		.4byte	0x62
 1942 0062 02       		.uleb128 0x2
 1943 0063 04       		.byte	0x4
 1944 0064 05       		.byte	0x5
 1945 0065 F9010000 		.4byte	.LASF7
 1946 0069 02       		.uleb128 0x2
 1947 006a 04       		.byte	0x4
 1948 006b 07       		.byte	0x7
 1949 006c 31010000 		.4byte	.LASF8
 1950 0070 02       		.uleb128 0x2
 1951 0071 08       		.byte	0x8
 1952 0072 05       		.byte	0x5
 1953 0073 1D020000 		.4byte	.LASF9
 1954 0077 03       		.uleb128 0x3
 1955 0078 49020000 		.4byte	.LASF10
 1956 007c 02       		.byte	0x2
 1957 007d 5B       		.byte	0x5b
 1958 007e 82000000 		.4byte	0x82
 1959 0082 02       		.uleb128 0x2
 1960 0083 08       		.byte	0x8
 1961 0084 07       		.byte	0x7
 1962 0085 FC000000 		.4byte	.LASF11
 1963 0089 04       		.uleb128 0x4
 1964 008a 04       		.byte	0x4
 1965 008b 05       		.byte	0x5
 1966 008c 696E7400 		.ascii	"int\000"
ARM GAS  C:\Users\info\AppData\Local\Temp\ccl9i4Az.s 			page 84


 1967 0090 02       		.uleb128 0x2
 1968 0091 04       		.byte	0x4
 1969 0092 07       		.byte	0x7
 1970 0093 70010000 		.4byte	.LASF12
 1971 0097 03       		.uleb128 0x3
 1972 0098 F1010000 		.4byte	.LASF13
 1973 009c 03       		.byte	0x3
 1974 009d 18       		.byte	0x18
 1975 009e 2C000000 		.4byte	0x2c
 1976 00a2 03       		.uleb128 0x3
 1977 00a3 40020000 		.4byte	.LASF14
 1978 00a7 03       		.byte	0x3
 1979 00a8 24       		.byte	0x24
 1980 00a9 45000000 		.4byte	0x45
 1981 00ad 03       		.uleb128 0x3
 1982 00ae EE000000 		.4byte	.LASF15
 1983 00b2 03       		.byte	0x3
 1984 00b3 2C       		.byte	0x2c
 1985 00b4 57000000 		.4byte	0x57
 1986 00b8 03       		.uleb128 0x3
 1987 00b9 E5000000 		.4byte	.LASF16
 1988 00bd 03       		.byte	0x3
 1989 00be 3C       		.byte	0x3c
 1990 00bf 77000000 		.4byte	0x77
 1991 00c3 02       		.uleb128 0x2
 1992 00c4 04       		.byte	0x4
 1993 00c5 04       		.byte	0x4
 1994 00c6 F6000000 		.4byte	.LASF17
 1995 00ca 02       		.uleb128 0x2
 1996 00cb 08       		.byte	0x8
 1997 00cc 04       		.byte	0x4
 1998 00cd 53010000 		.4byte	.LASF18
 1999 00d1 02       		.uleb128 0x2
 2000 00d2 01       		.byte	0x1
 2001 00d3 08       		.byte	0x8
 2002 00d4 2B020000 		.4byte	.LASF19
 2003 00d8 02       		.uleb128 0x2
 2004 00d9 08       		.byte	0x8
 2005 00da 04       		.byte	0x4
 2006 00db 54020000 		.4byte	.LASF20
 2007 00df 02       		.uleb128 0x2
 2008 00e0 04       		.byte	0x4
 2009 00e1 07       		.byte	0x7
 2010 00e2 14020000 		.4byte	.LASF21
 2011 00e6 05       		.uleb128 0x5
 2012 00e7 97000000 		.4byte	0x97
 2013 00eb 06       		.uleb128 0x6
 2014 00ec DD000000 		.4byte	.LASF37
 2015 00f0 01       		.byte	0x1
 2016 00f1 05       		.byte	0x5
 2017 00f2 00000000 		.4byte	.LFB63
 2018 00f6 34060000 		.4byte	.LFE63-.LFB63
 2019 00fa 01       		.uleb128 0x1
 2020 00fb 9C       		.byte	0x9c
 2021 00fc B6030000 		.4byte	0x3b6
 2022 0100 07       		.uleb128 0x7
 2023 0101 72616D00 		.ascii	"ram\000"
ARM GAS  C:\Users\info\AppData\Local\Temp\ccl9i4Az.s 			page 85


 2024 0105 01       		.byte	0x1
 2025 0106 05       		.byte	0x5
 2026 0107 B6030000 		.4byte	0x3b6
 2027 010b 00000000 		.4byte	.LLST0
 2028 010f 08       		.uleb128 0x8
 2029 0110 73020000 		.4byte	.LASF22
 2030 0114 01       		.byte	0x1
 2031 0115 05       		.byte	0x5
 2032 0116 BC030000 		.4byte	0x3bc
 2033 011a 63000000 		.4byte	.LLST1
 2034 011e 07       		.uleb128 0x7
 2035 011f 736E6400 		.ascii	"snd\000"
 2036 0123 01       		.byte	0x1
 2037 0124 05       		.byte	0x5
 2038 0125 B6030000 		.4byte	0x3b6
 2039 0129 C6000000 		.4byte	.LLST2
 2040 012d 07       		.uleb128 0x7
 2041 012e 746D7200 		.ascii	"tmr\000"
 2042 0132 01       		.byte	0x1
 2043 0133 06       		.byte	0x6
 2044 0134 B6030000 		.4byte	0x3b6
 2045 0138 F3000000 		.4byte	.LLST3
 2046 013c 08       		.uleb128 0x8
 2047 013d 21010000 		.4byte	.LASF23
 2048 0141 01       		.byte	0x1
 2049 0142 06       		.byte	0x6
 2050 0143 C2030000 		.4byte	0x3c2
 2051 0147 20010000 		.4byte	.LLST4
 2052 014b 09       		.uleb128 0x9
 2053 014c 7600     		.ascii	"v\000"
 2054 014e 01       		.byte	0x1
 2055 014f 08       		.byte	0x8
 2056 0150 C8030000 		.4byte	0x3c8
 2057 0154 02       		.uleb128 0x2
 2058 0155 91       		.byte	0x91
 2059 0156 48       		.sleb128 -56
 2060 0157 0A       		.uleb128 0xa
 2061 0158 6900     		.ascii	"i\000"
 2062 015a 01       		.byte	0x1
 2063 015b 09       		.byte	0x9
 2064 015c A2000000 		.4byte	0xa2
 2065 0160 40010000 		.4byte	.LLST5
 2066 0164 0A       		.uleb128 0xa
 2067 0165 706300   		.ascii	"pc\000"
 2068 0168 01       		.byte	0x1
 2069 0169 0A       		.byte	0xa
 2070 016a A2000000 		.4byte	0xa2
 2071 016e 86010000 		.4byte	.LLST6
 2072 0172 0A       		.uleb128 0xa
 2073 0173 737000   		.ascii	"sp\000"
 2074 0176 01       		.byte	0x1
 2075 0177 0B       		.byte	0xb
 2076 0178 97000000 		.4byte	0x97
 2077 017c DC020000 		.4byte	.LLST7
 2078 0180 0B       		.uleb128 0xb
 2079 0181 43000000 		.4byte	.LASF24
 2080 0185 01       		.byte	0x1
ARM GAS  C:\Users\info\AppData\Local\Temp\ccl9i4Az.s 			page 86


 2081 0186 0C       		.byte	0xc
 2082 0187 D8030000 		.4byte	0x3d8
 2083 018b 03       		.uleb128 0x3
 2084 018c 91       		.byte	0x91
 2085 018d A87F     		.sleb128 -88
 2086 018f 0C       		.uleb128 0xc
 2087 0190 18000000 		.4byte	.LBB2
 2088 0194 26000000 		.4byte	.LBE2-.LBB2
 2089 0198 AA010000 		.4byte	0x1aa
 2090 019c 0A       		.uleb128 0xa
 2091 019d 6A00     		.ascii	"j\000"
 2092 019f 01       		.byte	0x1
 2093 01a0 0F       		.byte	0xf
 2094 01a1 97000000 		.4byte	0x97
 2095 01a5 17030000 		.4byte	.LLST8
 2096 01a9 00       		.byte	0
 2097 01aa 0C       		.uleb128 0xc
 2098 01ab 3E000000 		.4byte	.LBB3
 2099 01af E2050000 		.4byte	.LBE3-.LBB3
 2100 01b3 99030000 		.4byte	0x399
 2101 01b7 0D       		.uleb128 0xd
 2102 01b8 3A020000 		.4byte	.LASF25
 2103 01bc 01       		.byte	0x1
 2104 01bd 17       		.byte	0x17
 2105 01be A2000000 		.4byte	0xa2
 2106 01c2 41030000 		.4byte	.LLST9
 2107 01c6 0A       		.uleb128 0xa
 2108 01c7 6F703300 		.ascii	"op3\000"
 2109 01cb 01       		.byte	0x1
 2110 01cc 1A       		.byte	0x1a
 2111 01cd 97000000 		.4byte	0x97
 2112 01d1 2C070000 		.4byte	.LLST10
 2113 01d5 0A       		.uleb128 0xa
 2114 01d6 6F703200 		.ascii	"op2\000"
 2115 01da 01       		.byte	0x1
 2116 01db 1B       		.byte	0x1b
 2117 01dc 97000000 		.4byte	0x97
 2118 01e0 F00C0000 		.4byte	.LLST11
 2119 01e4 0D       		.uleb128 0xd
 2120 01e5 22000000 		.4byte	.LASF26
 2121 01e9 01       		.byte	0x1
 2122 01ea 1C       		.byte	0x1c
 2123 01eb 97000000 		.4byte	0x97
 2124 01ef FD120000 		.4byte	.LLST12
 2125 01f3 0A       		.uleb128 0xa
 2126 01f4 6F703000 		.ascii	"op0\000"
 2127 01f8 01       		.byte	0x1
 2128 01f9 1D       		.byte	0x1d
 2129 01fa 97000000 		.4byte	0x97
 2130 01fe 60130000 		.4byte	.LLST13
 2131 0202 0A       		.uleb128 0xa
 2132 0203 6E6E6E00 		.ascii	"nnn\000"
 2133 0207 01       		.byte	0x1
 2134 0208 20       		.byte	0x20
 2135 0209 A2000000 		.4byte	0xa2
 2136 020d F5130000 		.4byte	.LLST14
 2137 0211 0A       		.uleb128 0xa
ARM GAS  C:\Users\info\AppData\Local\Temp\ccl9i4Az.s 			page 87


 2138 0212 7800     		.ascii	"x\000"
 2139 0214 01       		.byte	0x1
 2140 0215 21       		.byte	0x21
 2141 0216 97000000 		.4byte	0x97
 2142 021a ED160000 		.4byte	.LLST15
 2143 021e 0A       		.uleb128 0xa
 2144 021f 7900     		.ascii	"y\000"
 2145 0221 01       		.byte	0x1
 2146 0222 22       		.byte	0x22
 2147 0223 97000000 		.4byte	0x97
 2148 0227 FA1C0000 		.4byte	.LLST16
 2149 022b 0A       		.uleb128 0xa
 2150 022c 6B6B00   		.ascii	"kk\000"
 2151 022f 01       		.byte	0x1
 2152 0230 23       		.byte	0x23
 2153 0231 97000000 		.4byte	0x97
 2154 0235 63250000 		.4byte	.LLST17
 2155 0239 0A       		.uleb128 0xa
 2156 023a 6E00     		.ascii	"n\000"
 2157 023c 01       		.byte	0x1
 2158 023d 24       		.byte	0x24
 2159 023e 97000000 		.4byte	0x97
 2160 0242 C6250000 		.4byte	.LLST18
 2161 0246 0D       		.uleb128 0xd
 2162 0247 31000000 		.4byte	.LASF27
 2163 024b 01       		.byte	0x1
 2164 024c 27       		.byte	0x27
 2165 024d 97000000 		.4byte	0x97
 2166 0251 5B260000 		.4byte	.LLST19
 2167 0255 0D       		.uleb128 0xd
 2168 0256 E7010000 		.4byte	.LASF28
 2169 025a 01       		.byte	0x1
 2170 025b 2A       		.byte	0x2a
 2171 025c 97000000 		.4byte	0x97
 2172 0260 7A260000 		.4byte	.LLST20
 2173 0264 0E       		.uleb128 0xe
 2174 0265 00000000 		.4byte	.Ldebug_ranges0+0
 2175 0269 7B020000 		.4byte	0x27b
 2176 026d 0A       		.uleb128 0xa
 2177 026e 6A00     		.ascii	"j\000"
 2178 0270 01       		.byte	0x1
 2179 0271 36       		.byte	0x36
 2180 0272 89000000 		.4byte	0x89
 2181 0276 C9260000 		.4byte	.LLST21
 2182 027a 00       		.byte	0
 2183 027b 0E       		.uleb128 0xe
 2184 027c 18000000 		.4byte	.Ldebug_ranges0+0x18
 2185 0280 B0020000 		.4byte	0x2b0
 2186 0284 0A       		.uleb128 0xa
 2187 0285 767800   		.ascii	"vx\000"
 2188 0288 01       		.byte	0x1
 2189 0289 98       		.byte	0x98
 2190 028a A2000000 		.4byte	0xa2
 2191 028e E7260000 		.4byte	.LLST22
 2192 0292 0A       		.uleb128 0xa
 2193 0293 767900   		.ascii	"vy\000"
 2194 0296 01       		.byte	0x1
ARM GAS  C:\Users\info\AppData\Local\Temp\ccl9i4Az.s 			page 88


 2195 0297 99       		.byte	0x99
 2196 0298 A2000000 		.4byte	0xa2
 2197 029c FA260000 		.4byte	.LLST23
 2198 02a0 0D       		.uleb128 0xd
 2199 02a1 43010000 		.4byte	.LASF29
 2200 02a5 01       		.byte	0x1
 2201 02a6 9A       		.byte	0x9a
 2202 02a7 A2000000 		.4byte	0xa2
 2203 02ab 0D270000 		.4byte	.LLST24
 2204 02af 00       		.byte	0
 2205 02b0 0E       		.uleb128 0xe
 2206 02b1 30000000 		.4byte	.Ldebug_ranges0+0x30
 2207 02b5 E5020000 		.4byte	0x2e5
 2208 02b9 0A       		.uleb128 0xa
 2209 02ba 767800   		.ascii	"vx\000"
 2210 02bd 01       		.byte	0x1
 2211 02be A6       		.byte	0xa6
 2212 02bf A2000000 		.4byte	0xa2
 2213 02c3 30270000 		.4byte	.LLST25
 2214 02c7 0A       		.uleb128 0xa
 2215 02c8 767900   		.ascii	"vy\000"
 2216 02cb 01       		.byte	0x1
 2217 02cc A7       		.byte	0xa7
 2218 02cd A2000000 		.4byte	0xa2
 2219 02d1 43270000 		.4byte	.LLST26
 2220 02d5 0D       		.uleb128 0xd
 2221 02d6 43010000 		.4byte	.LASF29
 2222 02da 01       		.byte	0x1
 2223 02db A8       		.byte	0xa8
 2224 02dc A2000000 		.4byte	0xa2
 2225 02e0 56270000 		.4byte	.LLST27
 2226 02e4 00       		.byte	0
 2227 02e5 0E       		.uleb128 0xe
 2228 02e6 48000000 		.4byte	.Ldebug_ranges0+0x48
 2229 02ea 2A030000 		.4byte	0x32a
 2230 02ee 0D       		.uleb128 0xd
 2231 02ef 0A020000 		.4byte	.LASF30
 2232 02f3 01       		.byte	0x1
 2233 02f4 C0       		.byte	0xc0
 2234 02f5 B8000000 		.4byte	0xb8
 2235 02f9 79270000 		.4byte	.LLST28
 2236 02fd 0F       		.uleb128 0xf
 2237 02fe 68000000 		.4byte	.Ldebug_ranges0+0x68
 2238 0302 0A       		.uleb128 0xa
 2239 0303 6A00     		.ascii	"j\000"
 2240 0305 01       		.byte	0x1
 2241 0306 C2       		.byte	0xc2
 2242 0307 89000000 		.4byte	0x89
 2243 030b B5270000 		.4byte	.LLST29
 2244 030f 10       		.uleb128 0x10
 2245 0310 1C030000 		.4byte	.LBB12
 2246 0314 CC000000 		.4byte	.LBE12-.LBB12
 2247 0318 0A       		.uleb128 0xa
 2248 0319 726F7700 		.ascii	"row\000"
 2249 031d 01       		.byte	0x1
 2250 031e C3       		.byte	0xc3
 2251 031f B8000000 		.4byte	0xb8
ARM GAS  C:\Users\info\AppData\Local\Temp\ccl9i4Az.s 			page 89


 2252 0323 D3270000 		.4byte	.LLST30
 2253 0327 00       		.byte	0
 2254 0328 00       		.byte	0
 2255 0329 00       		.byte	0
 2256 032a 0E       		.uleb128 0xe
 2257 032b 80000000 		.4byte	.Ldebug_ranges0+0x80
 2258 032f 42030000 		.4byte	0x342
 2259 0333 11       		.uleb128 0x11
 2260 0334 6A00     		.ascii	"j\000"
 2261 0336 01       		.byte	0x1
 2262 0337 0801     		.2byte	0x108
 2263 0339 97000000 		.4byte	0x97
 2264 033d 23280000 		.4byte	.LLST31
 2265 0341 00       		.byte	0
 2266 0342 0E       		.uleb128 0xe
 2267 0343 98000000 		.4byte	.Ldebug_ranges0+0x98
 2268 0347 5A030000 		.4byte	0x35a
 2269 034b 11       		.uleb128 0x11
 2270 034c 6A00     		.ascii	"j\000"
 2271 034e 01       		.byte	0x1
 2272 034f 0E01     		.2byte	0x10e
 2273 0351 97000000 		.4byte	0x97
 2274 0355 4C280000 		.4byte	.LLST32
 2275 0359 00       		.byte	0
 2276 035a 12       		.uleb128 0x12
 2277 035b 0C030000 		.4byte	.LVL121
 2278 035f F9030000 		.4byte	0x3f9
 2279 0363 13       		.uleb128 0x13
 2280 0364 4A040000 		.4byte	.LVL141
 2281 0368 04040000 		.4byte	0x404
 2282 036c 79030000 		.4byte	0x379
 2283 0370 14       		.uleb128 0x14
 2284 0371 01       		.uleb128 0x1
 2285 0372 50       		.byte	0x50
 2286 0373 04       		.uleb128 0x4
 2287 0374 74       		.byte	0x74
 2288 0375 70       		.sleb128 -16
 2289 0376 94       		.byte	0x94
 2290 0377 01       		.byte	0x1
 2291 0378 00       		.byte	0
 2292 0379 13       		.uleb128 0x13
 2293 037a 6A040000 		.4byte	.LVL147
 2294 037e 04040000 		.4byte	0x404
 2295 0382 8F030000 		.4byte	0x38f
 2296 0386 14       		.uleb128 0x14
 2297 0387 01       		.uleb128 0x1
 2298 0388 50       		.byte	0x50
 2299 0389 04       		.uleb128 0x4
 2300 038a 74       		.byte	0x74
 2301 038b 70       		.sleb128 -16
 2302 038c 94       		.byte	0x94
 2303 038d 01       		.byte	0x1
 2304 038e 00       		.byte	0
 2305 038f 12       		.uleb128 0x12
 2306 0390 C6040000 		.4byte	.LVL155
 2307 0394 0F040000 		.4byte	0x40f
 2308 0398 00       		.byte	0
ARM GAS  C:\Users\info\AppData\Local\Temp\ccl9i4Az.s 			page 90


 2309 0399 15       		.uleb128 0x15
 2310 039a 18000000 		.4byte	.LVL5
 2311 039e 1A040000 		.4byte	0x41a
 2312 03a2 14       		.uleb128 0x14
 2313 03a3 01       		.uleb128 0x1
 2314 03a4 50       		.byte	0x50
 2315 03a5 03       		.uleb128 0x3
 2316 03a6 91       		.byte	0x91
 2317 03a7 A87F     		.sleb128 -88
 2318 03a9 14       		.uleb128 0x14
 2319 03aa 01       		.uleb128 0x1
 2320 03ab 51       		.byte	0x51
 2321 03ac 01       		.uleb128 0x1
 2322 03ad 30       		.byte	0x30
 2323 03ae 14       		.uleb128 0x14
 2324 03af 01       		.uleb128 0x1
 2325 03b0 52       		.byte	0x52
 2326 03b1 02       		.uleb128 0x2
 2327 03b2 08       		.byte	0x8
 2328 03b3 20       		.byte	0x20
 2329 03b4 00       		.byte	0
 2330 03b5 00       		.byte	0
 2331 03b6 16       		.uleb128 0x16
 2332 03b7 04       		.byte	0x4
 2333 03b8 97000000 		.4byte	0x97
 2334 03bc 16       		.uleb128 0x16
 2335 03bd 04       		.byte	0x4
 2336 03be B8000000 		.4byte	0xb8
 2337 03c2 16       		.uleb128 0x16
 2338 03c3 04       		.byte	0x4
 2339 03c4 E6000000 		.4byte	0xe6
 2340 03c8 17       		.uleb128 0x17
 2341 03c9 97000000 		.4byte	0x97
 2342 03cd D8030000 		.4byte	0x3d8
 2343 03d1 18       		.uleb128 0x18
 2344 03d2 DF000000 		.4byte	0xdf
 2345 03d6 0F       		.byte	0xf
 2346 03d7 00       		.byte	0
 2347 03d8 17       		.uleb128 0x17
 2348 03d9 A2000000 		.4byte	0xa2
 2349 03dd E8030000 		.4byte	0x3e8
 2350 03e1 18       		.uleb128 0x18
 2351 03e2 DF000000 		.4byte	0xdf
 2352 03e6 0F       		.byte	0xf
 2353 03e7 00       		.byte	0
 2354 03e8 19       		.uleb128 0x19
 2355 03e9 5A010000 		.4byte	.LASF38
 2356 03ed 06       		.byte	0x6
 2357 03ee 1207     		.2byte	0x712
 2358 03f0 F4030000 		.4byte	0x3f4
 2359 03f4 05       		.uleb128 0x5
 2360 03f5 AD000000 		.4byte	0xad
 2361 03f9 1A       		.uleb128 0x1a
 2362 03fa 78020000 		.4byte	.LASF31
 2363 03fe 78020000 		.4byte	.LASF31
 2364 0402 04       		.byte	0x4
 2365 0403 6D       		.byte	0x6d
ARM GAS  C:\Users\info\AppData\Local\Temp\ccl9i4Az.s 			page 91


 2366 0404 1A       		.uleb128 0x1a
 2367 0405 00000000 		.4byte	.LASF32
 2368 0409 00000000 		.4byte	.LASF32
 2369 040d 05       		.byte	0x5
 2370 040e 0B       		.byte	0xb
 2371 040f 1A       		.uleb128 0x1a
 2372 0410 67010000 		.4byte	.LASF33
 2373 0414 67010000 		.4byte	.LASF33
 2374 0418 05       		.byte	0x5
 2375 0419 0C       		.byte	0xc
 2376 041a 1B       		.uleb128 0x1b
 2377 041b 3C000000 		.4byte	.LASF39
 2378 041f 3C000000 		.4byte	.LASF39
 2379 0423 00       		.byte	0
 2380              		.section	.debug_abbrev,"",%progbits
 2381              	.Ldebug_abbrev0:
 2382 0000 01       		.uleb128 0x1
 2383 0001 11       		.uleb128 0x11
 2384 0002 01       		.byte	0x1
 2385 0003 25       		.uleb128 0x25
 2386 0004 0E       		.uleb128 0xe
 2387 0005 13       		.uleb128 0x13
 2388 0006 0B       		.uleb128 0xb
 2389 0007 03       		.uleb128 0x3
 2390 0008 0E       		.uleb128 0xe
 2391 0009 1B       		.uleb128 0x1b
 2392 000a 0E       		.uleb128 0xe
 2393 000b 55       		.uleb128 0x55
 2394 000c 17       		.uleb128 0x17
 2395 000d 11       		.uleb128 0x11
 2396 000e 01       		.uleb128 0x1
 2397 000f 10       		.uleb128 0x10
 2398 0010 17       		.uleb128 0x17
 2399 0011 00       		.byte	0
 2400 0012 00       		.byte	0
 2401 0013 02       		.uleb128 0x2
 2402 0014 24       		.uleb128 0x24
 2403 0015 00       		.byte	0
 2404 0016 0B       		.uleb128 0xb
 2405 0017 0B       		.uleb128 0xb
 2406 0018 3E       		.uleb128 0x3e
 2407 0019 0B       		.uleb128 0xb
 2408 001a 03       		.uleb128 0x3
 2409 001b 0E       		.uleb128 0xe
 2410 001c 00       		.byte	0
 2411 001d 00       		.byte	0
 2412 001e 03       		.uleb128 0x3
 2413 001f 16       		.uleb128 0x16
 2414 0020 00       		.byte	0
 2415 0021 03       		.uleb128 0x3
 2416 0022 0E       		.uleb128 0xe
 2417 0023 3A       		.uleb128 0x3a
 2418 0024 0B       		.uleb128 0xb
 2419 0025 3B       		.uleb128 0x3b
 2420 0026 0B       		.uleb128 0xb
 2421 0027 49       		.uleb128 0x49
 2422 0028 13       		.uleb128 0x13
ARM GAS  C:\Users\info\AppData\Local\Temp\ccl9i4Az.s 			page 92


 2423 0029 00       		.byte	0
 2424 002a 00       		.byte	0
 2425 002b 04       		.uleb128 0x4
 2426 002c 24       		.uleb128 0x24
 2427 002d 00       		.byte	0
 2428 002e 0B       		.uleb128 0xb
 2429 002f 0B       		.uleb128 0xb
 2430 0030 3E       		.uleb128 0x3e
 2431 0031 0B       		.uleb128 0xb
 2432 0032 03       		.uleb128 0x3
 2433 0033 08       		.uleb128 0x8
 2434 0034 00       		.byte	0
 2435 0035 00       		.byte	0
 2436 0036 05       		.uleb128 0x5
 2437 0037 35       		.uleb128 0x35
 2438 0038 00       		.byte	0
 2439 0039 49       		.uleb128 0x49
 2440 003a 13       		.uleb128 0x13
 2441 003b 00       		.byte	0
 2442 003c 00       		.byte	0
 2443 003d 06       		.uleb128 0x6
 2444 003e 2E       		.uleb128 0x2e
 2445 003f 01       		.byte	0x1
 2446 0040 3F       		.uleb128 0x3f
 2447 0041 19       		.uleb128 0x19
 2448 0042 03       		.uleb128 0x3
 2449 0043 0E       		.uleb128 0xe
 2450 0044 3A       		.uleb128 0x3a
 2451 0045 0B       		.uleb128 0xb
 2452 0046 3B       		.uleb128 0x3b
 2453 0047 0B       		.uleb128 0xb
 2454 0048 27       		.uleb128 0x27
 2455 0049 19       		.uleb128 0x19
 2456 004a 11       		.uleb128 0x11
 2457 004b 01       		.uleb128 0x1
 2458 004c 12       		.uleb128 0x12
 2459 004d 06       		.uleb128 0x6
 2460 004e 40       		.uleb128 0x40
 2461 004f 18       		.uleb128 0x18
 2462 0050 9742     		.uleb128 0x2117
 2463 0052 19       		.uleb128 0x19
 2464 0053 01       		.uleb128 0x1
 2465 0054 13       		.uleb128 0x13
 2466 0055 00       		.byte	0
 2467 0056 00       		.byte	0
 2468 0057 07       		.uleb128 0x7
 2469 0058 05       		.uleb128 0x5
 2470 0059 00       		.byte	0
 2471 005a 03       		.uleb128 0x3
 2472 005b 08       		.uleb128 0x8
 2473 005c 3A       		.uleb128 0x3a
 2474 005d 0B       		.uleb128 0xb
 2475 005e 3B       		.uleb128 0x3b
 2476 005f 0B       		.uleb128 0xb
 2477 0060 49       		.uleb128 0x49
 2478 0061 13       		.uleb128 0x13
 2479 0062 02       		.uleb128 0x2
ARM GAS  C:\Users\info\AppData\Local\Temp\ccl9i4Az.s 			page 93


 2480 0063 17       		.uleb128 0x17
 2481 0064 00       		.byte	0
 2482 0065 00       		.byte	0
 2483 0066 08       		.uleb128 0x8
 2484 0067 05       		.uleb128 0x5
 2485 0068 00       		.byte	0
 2486 0069 03       		.uleb128 0x3
 2487 006a 0E       		.uleb128 0xe
 2488 006b 3A       		.uleb128 0x3a
 2489 006c 0B       		.uleb128 0xb
 2490 006d 3B       		.uleb128 0x3b
 2491 006e 0B       		.uleb128 0xb
 2492 006f 49       		.uleb128 0x49
 2493 0070 13       		.uleb128 0x13
 2494 0071 02       		.uleb128 0x2
 2495 0072 17       		.uleb128 0x17
 2496 0073 00       		.byte	0
 2497 0074 00       		.byte	0
 2498 0075 09       		.uleb128 0x9
 2499 0076 34       		.uleb128 0x34
 2500 0077 00       		.byte	0
 2501 0078 03       		.uleb128 0x3
 2502 0079 08       		.uleb128 0x8
 2503 007a 3A       		.uleb128 0x3a
 2504 007b 0B       		.uleb128 0xb
 2505 007c 3B       		.uleb128 0x3b
 2506 007d 0B       		.uleb128 0xb
 2507 007e 49       		.uleb128 0x49
 2508 007f 13       		.uleb128 0x13
 2509 0080 02       		.uleb128 0x2
 2510 0081 18       		.uleb128 0x18
 2511 0082 00       		.byte	0
 2512 0083 00       		.byte	0
 2513 0084 0A       		.uleb128 0xa
 2514 0085 34       		.uleb128 0x34
 2515 0086 00       		.byte	0
 2516 0087 03       		.uleb128 0x3
 2517 0088 08       		.uleb128 0x8
 2518 0089 3A       		.uleb128 0x3a
 2519 008a 0B       		.uleb128 0xb
 2520 008b 3B       		.uleb128 0x3b
 2521 008c 0B       		.uleb128 0xb
 2522 008d 49       		.uleb128 0x49
 2523 008e 13       		.uleb128 0x13
 2524 008f 02       		.uleb128 0x2
 2525 0090 17       		.uleb128 0x17
 2526 0091 00       		.byte	0
 2527 0092 00       		.byte	0
 2528 0093 0B       		.uleb128 0xb
 2529 0094 34       		.uleb128 0x34
 2530 0095 00       		.byte	0
 2531 0096 03       		.uleb128 0x3
 2532 0097 0E       		.uleb128 0xe
 2533 0098 3A       		.uleb128 0x3a
 2534 0099 0B       		.uleb128 0xb
 2535 009a 3B       		.uleb128 0x3b
 2536 009b 0B       		.uleb128 0xb
ARM GAS  C:\Users\info\AppData\Local\Temp\ccl9i4Az.s 			page 94


 2537 009c 49       		.uleb128 0x49
 2538 009d 13       		.uleb128 0x13
 2539 009e 02       		.uleb128 0x2
 2540 009f 18       		.uleb128 0x18
 2541 00a0 00       		.byte	0
 2542 00a1 00       		.byte	0
 2543 00a2 0C       		.uleb128 0xc
 2544 00a3 0B       		.uleb128 0xb
 2545 00a4 01       		.byte	0x1
 2546 00a5 11       		.uleb128 0x11
 2547 00a6 01       		.uleb128 0x1
 2548 00a7 12       		.uleb128 0x12
 2549 00a8 06       		.uleb128 0x6
 2550 00a9 01       		.uleb128 0x1
 2551 00aa 13       		.uleb128 0x13
 2552 00ab 00       		.byte	0
 2553 00ac 00       		.byte	0
 2554 00ad 0D       		.uleb128 0xd
 2555 00ae 34       		.uleb128 0x34
 2556 00af 00       		.byte	0
 2557 00b0 03       		.uleb128 0x3
 2558 00b1 0E       		.uleb128 0xe
 2559 00b2 3A       		.uleb128 0x3a
 2560 00b3 0B       		.uleb128 0xb
 2561 00b4 3B       		.uleb128 0x3b
 2562 00b5 0B       		.uleb128 0xb
 2563 00b6 49       		.uleb128 0x49
 2564 00b7 13       		.uleb128 0x13
 2565 00b8 02       		.uleb128 0x2
 2566 00b9 17       		.uleb128 0x17
 2567 00ba 00       		.byte	0
 2568 00bb 00       		.byte	0
 2569 00bc 0E       		.uleb128 0xe
 2570 00bd 0B       		.uleb128 0xb
 2571 00be 01       		.byte	0x1
 2572 00bf 55       		.uleb128 0x55
 2573 00c0 17       		.uleb128 0x17
 2574 00c1 01       		.uleb128 0x1
 2575 00c2 13       		.uleb128 0x13
 2576 00c3 00       		.byte	0
 2577 00c4 00       		.byte	0
 2578 00c5 0F       		.uleb128 0xf
 2579 00c6 0B       		.uleb128 0xb
 2580 00c7 01       		.byte	0x1
 2581 00c8 55       		.uleb128 0x55
 2582 00c9 17       		.uleb128 0x17
 2583 00ca 00       		.byte	0
 2584 00cb 00       		.byte	0
 2585 00cc 10       		.uleb128 0x10
 2586 00cd 0B       		.uleb128 0xb
 2587 00ce 01       		.byte	0x1
 2588 00cf 11       		.uleb128 0x11
 2589 00d0 01       		.uleb128 0x1
 2590 00d1 12       		.uleb128 0x12
 2591 00d2 06       		.uleb128 0x6
 2592 00d3 00       		.byte	0
 2593 00d4 00       		.byte	0
ARM GAS  C:\Users\info\AppData\Local\Temp\ccl9i4Az.s 			page 95


 2594 00d5 11       		.uleb128 0x11
 2595 00d6 34       		.uleb128 0x34
 2596 00d7 00       		.byte	0
 2597 00d8 03       		.uleb128 0x3
 2598 00d9 08       		.uleb128 0x8
 2599 00da 3A       		.uleb128 0x3a
 2600 00db 0B       		.uleb128 0xb
 2601 00dc 3B       		.uleb128 0x3b
 2602 00dd 05       		.uleb128 0x5
 2603 00de 49       		.uleb128 0x49
 2604 00df 13       		.uleb128 0x13
 2605 00e0 02       		.uleb128 0x2
 2606 00e1 17       		.uleb128 0x17
 2607 00e2 00       		.byte	0
 2608 00e3 00       		.byte	0
 2609 00e4 12       		.uleb128 0x12
 2610 00e5 898201   		.uleb128 0x4109
 2611 00e8 00       		.byte	0
 2612 00e9 11       		.uleb128 0x11
 2613 00ea 01       		.uleb128 0x1
 2614 00eb 31       		.uleb128 0x31
 2615 00ec 13       		.uleb128 0x13
 2616 00ed 00       		.byte	0
 2617 00ee 00       		.byte	0
 2618 00ef 13       		.uleb128 0x13
 2619 00f0 898201   		.uleb128 0x4109
 2620 00f3 01       		.byte	0x1
 2621 00f4 11       		.uleb128 0x11
 2622 00f5 01       		.uleb128 0x1
 2623 00f6 31       		.uleb128 0x31
 2624 00f7 13       		.uleb128 0x13
 2625 00f8 01       		.uleb128 0x1
 2626 00f9 13       		.uleb128 0x13
 2627 00fa 00       		.byte	0
 2628 00fb 00       		.byte	0
 2629 00fc 14       		.uleb128 0x14
 2630 00fd 8A8201   		.uleb128 0x410a
 2631 0100 00       		.byte	0
 2632 0101 02       		.uleb128 0x2
 2633 0102 18       		.uleb128 0x18
 2634 0103 9142     		.uleb128 0x2111
 2635 0105 18       		.uleb128 0x18
 2636 0106 00       		.byte	0
 2637 0107 00       		.byte	0
 2638 0108 15       		.uleb128 0x15
 2639 0109 898201   		.uleb128 0x4109
 2640 010c 01       		.byte	0x1
 2641 010d 11       		.uleb128 0x11
 2642 010e 01       		.uleb128 0x1
 2643 010f 31       		.uleb128 0x31
 2644 0110 13       		.uleb128 0x13
 2645 0111 00       		.byte	0
 2646 0112 00       		.byte	0
 2647 0113 16       		.uleb128 0x16
 2648 0114 0F       		.uleb128 0xf
 2649 0115 00       		.byte	0
 2650 0116 0B       		.uleb128 0xb
ARM GAS  C:\Users\info\AppData\Local\Temp\ccl9i4Az.s 			page 96


 2651 0117 0B       		.uleb128 0xb
 2652 0118 49       		.uleb128 0x49
 2653 0119 13       		.uleb128 0x13
 2654 011a 00       		.byte	0
 2655 011b 00       		.byte	0
 2656 011c 17       		.uleb128 0x17
 2657 011d 01       		.uleb128 0x1
 2658 011e 01       		.byte	0x1
 2659 011f 49       		.uleb128 0x49
 2660 0120 13       		.uleb128 0x13
 2661 0121 01       		.uleb128 0x1
 2662 0122 13       		.uleb128 0x13
 2663 0123 00       		.byte	0
 2664 0124 00       		.byte	0
 2665 0125 18       		.uleb128 0x18
 2666 0126 21       		.uleb128 0x21
 2667 0127 00       		.byte	0
 2668 0128 49       		.uleb128 0x49
 2669 0129 13       		.uleb128 0x13
 2670 012a 2F       		.uleb128 0x2f
 2671 012b 0B       		.uleb128 0xb
 2672 012c 00       		.byte	0
 2673 012d 00       		.byte	0
 2674 012e 19       		.uleb128 0x19
 2675 012f 34       		.uleb128 0x34
 2676 0130 00       		.byte	0
 2677 0131 03       		.uleb128 0x3
 2678 0132 0E       		.uleb128 0xe
 2679 0133 3A       		.uleb128 0x3a
 2680 0134 0B       		.uleb128 0xb
 2681 0135 3B       		.uleb128 0x3b
 2682 0136 05       		.uleb128 0x5
 2683 0137 49       		.uleb128 0x49
 2684 0138 13       		.uleb128 0x13
 2685 0139 3F       		.uleb128 0x3f
 2686 013a 19       		.uleb128 0x19
 2687 013b 3C       		.uleb128 0x3c
 2688 013c 19       		.uleb128 0x19
 2689 013d 00       		.byte	0
 2690 013e 00       		.byte	0
 2691 013f 1A       		.uleb128 0x1a
 2692 0140 2E       		.uleb128 0x2e
 2693 0141 00       		.byte	0
 2694 0142 3F       		.uleb128 0x3f
 2695 0143 19       		.uleb128 0x19
 2696 0144 3C       		.uleb128 0x3c
 2697 0145 19       		.uleb128 0x19
 2698 0146 6E       		.uleb128 0x6e
 2699 0147 0E       		.uleb128 0xe
 2700 0148 03       		.uleb128 0x3
 2701 0149 0E       		.uleb128 0xe
 2702 014a 3A       		.uleb128 0x3a
 2703 014b 0B       		.uleb128 0xb
 2704 014c 3B       		.uleb128 0x3b
 2705 014d 0B       		.uleb128 0xb
 2706 014e 00       		.byte	0
 2707 014f 00       		.byte	0
ARM GAS  C:\Users\info\AppData\Local\Temp\ccl9i4Az.s 			page 97


 2708 0150 1B       		.uleb128 0x1b
 2709 0151 2E       		.uleb128 0x2e
 2710 0152 00       		.byte	0
 2711 0153 3F       		.uleb128 0x3f
 2712 0154 19       		.uleb128 0x19
 2713 0155 3C       		.uleb128 0x3c
 2714 0156 19       		.uleb128 0x19
 2715 0157 6E       		.uleb128 0x6e
 2716 0158 0E       		.uleb128 0xe
 2717 0159 03       		.uleb128 0x3
 2718 015a 0E       		.uleb128 0xe
 2719 015b 00       		.byte	0
 2720 015c 00       		.byte	0
 2721 015d 00       		.byte	0
 2722              		.section	.debug_loc,"",%progbits
 2723              	.Ldebug_loc0:
 2724              	.LLST0:
 2725 0000 00000000 		.4byte	.LVL0
 2726 0004 14000000 		.4byte	.LVL4
 2727 0008 0100     		.2byte	0x1
 2728 000a 50       		.byte	0x50
 2729 000b 14000000 		.4byte	.LVL4
 2730 000f 3E000000 		.4byte	.LVL10
 2731 0013 0100     		.2byte	0x1
 2732 0015 57       		.byte	0x57
 2733 0016 3E000000 		.4byte	.LVL10
 2734 001a 1C030000 		.4byte	.LVL123
 2735 001e 0100     		.2byte	0x1
 2736 0020 5B       		.byte	0x5b
 2737 0021 1C030000 		.4byte	.LVL123
 2738 0025 EC030000 		.4byte	.LVL130
 2739 0029 0100     		.2byte	0x1
 2740 002b 53       		.byte	0x53
 2741 002c EC030000 		.4byte	.LVL130
 2742 0030 06040000 		.4byte	.LVL135
 2743 0034 0100     		.2byte	0x1
 2744 0036 5B       		.byte	0x5b
 2745 0037 06040000 		.4byte	.LVL135
 2746 003b 1C040000 		.4byte	.LVL136
 2747 003f 0100     		.2byte	0x1
 2748 0041 53       		.byte	0x53
 2749 0042 1C040000 		.4byte	.LVL136
 2750 0046 26060000 		.4byte	.LVL233
 2751 004a 0100     		.2byte	0x1
 2752 004c 5B       		.byte	0x5b
 2753 004d 26060000 		.4byte	.LVL233
 2754 0051 34060000 		.4byte	.LFE63
 2755 0055 0400     		.2byte	0x4
 2756 0057 F3       		.byte	0xf3
 2757 0058 01       		.uleb128 0x1
 2758 0059 50       		.byte	0x50
 2759 005a 9F       		.byte	0x9f
 2760 005b 00000000 		.4byte	0
 2761 005f 00000000 		.4byte	0
 2762              	.LLST1:
 2763 0063 00000000 		.4byte	.LVL0
 2764 0067 12000000 		.4byte	.LVL3
ARM GAS  C:\Users\info\AppData\Local\Temp\ccl9i4Az.s 			page 98


 2765 006b 0100     		.2byte	0x1
 2766 006d 51       		.byte	0x51
 2767 006e 12000000 		.4byte	.LVL3
 2768 0072 3E000000 		.4byte	.LVL10
 2769 0076 0100     		.2byte	0x1
 2770 0078 5B       		.byte	0x5b
 2771 0079 3E000000 		.4byte	.LVL10
 2772 007d 1C030000 		.4byte	.LVL123
 2773 0081 0100     		.2byte	0x1
 2774 0083 55       		.byte	0x55
 2775 0084 1C030000 		.4byte	.LVL123
 2776 0088 EC030000 		.4byte	.LVL130
 2777 008c 0100     		.2byte	0x1
 2778 008e 56       		.byte	0x56
 2779 008f EC030000 		.4byte	.LVL130
 2780 0093 06040000 		.4byte	.LVL135
 2781 0097 0100     		.2byte	0x1
 2782 0099 55       		.byte	0x55
 2783 009a 06040000 		.4byte	.LVL135
 2784 009e 34040000 		.4byte	.LVL138
 2785 00a2 0100     		.2byte	0x1
 2786 00a4 56       		.byte	0x56
 2787 00a5 34040000 		.4byte	.LVL138
 2788 00a9 26060000 		.4byte	.LVL233
 2789 00ad 0100     		.2byte	0x1
 2790 00af 55       		.byte	0x55
 2791 00b0 26060000 		.4byte	.LVL233
 2792 00b4 34060000 		.4byte	.LFE63
 2793 00b8 0400     		.2byte	0x4
 2794 00ba F3       		.byte	0xf3
 2795 00bb 01       		.uleb128 0x1
 2796 00bc 51       		.byte	0x51
 2797 00bd 9F       		.byte	0x9f
 2798 00be 00000000 		.4byte	0
 2799 00c2 00000000 		.4byte	0
 2800              	.LLST2:
 2801 00c6 00000000 		.4byte	.LVL0
 2802 00ca 10000000 		.4byte	.LVL2
 2803 00ce 0100     		.2byte	0x1
 2804 00d0 52       		.byte	0x52
 2805 00d1 10000000 		.4byte	.LVL2
 2806 00d5 26060000 		.4byte	.LVL233
 2807 00d9 0300     		.2byte	0x3
 2808 00db 91       		.byte	0x91
 2809 00dc A47F     		.sleb128 -92
 2810 00de 26060000 		.4byte	.LVL233
 2811 00e2 34060000 		.4byte	.LFE63
 2812 00e6 0300     		.2byte	0x3
 2813 00e8 7D       		.byte	0x7d
 2814 00e9 A47F     		.sleb128 -92
 2815 00eb 00000000 		.4byte	0
 2816 00ef 00000000 		.4byte	0
 2817              	.LLST3:
 2818 00f3 00000000 		.4byte	.LVL0
 2819 00f7 17000000 		.4byte	.LVL5-1
 2820 00fb 0100     		.2byte	0x1
 2821 00fd 53       		.byte	0x53
ARM GAS  C:\Users\info\AppData\Local\Temp\ccl9i4Az.s 			page 99


 2822 00fe 17000000 		.4byte	.LVL5-1
 2823 0102 26060000 		.4byte	.LVL233
 2824 0106 0300     		.2byte	0x3
 2825 0108 91       		.byte	0x91
 2826 0109 A07F     		.sleb128 -96
 2827 010b 26060000 		.4byte	.LVL233
 2828 010f 34060000 		.4byte	.LFE63
 2829 0113 0300     		.2byte	0x3
 2830 0115 7D       		.byte	0x7d
 2831 0116 A07F     		.sleb128 -96
 2832 0118 00000000 		.4byte	0
 2833 011c 00000000 		.4byte	0
 2834              	.LLST4:
 2835 0120 00000000 		.4byte	.LVL0
 2836 0124 26060000 		.4byte	.LVL233
 2837 0128 0200     		.2byte	0x2
 2838 012a 91       		.byte	0x91
 2839 012b 00       		.sleb128 0
 2840 012c 26060000 		.4byte	.LVL233
 2841 0130 34060000 		.4byte	.LFE63
 2842 0134 0200     		.2byte	0x2
 2843 0136 7D       		.byte	0x7d
 2844 0137 00       		.sleb128 0
 2845 0138 00000000 		.4byte	0
 2846 013c 00000000 		.4byte	0
 2847              	.LLST5:
 2848 0140 0E000000 		.4byte	.LVL1
 2849 0144 3E000000 		.4byte	.LVL10
 2850 0148 0200     		.2byte	0x2
 2851 014a 30       		.byte	0x30
 2852 014b 9F       		.byte	0x9f
 2853 014c 3E000000 		.4byte	.LVL10
 2854 0150 00030000 		.4byte	.LVL117
 2855 0154 0300     		.2byte	0x3
 2856 0156 91       		.byte	0x91
 2857 0157 907F     		.sleb128 -112
 2858 0159 00030000 		.4byte	.LVL117
 2859 015d 08030000 		.4byte	.LVL120
 2860 0161 0100     		.2byte	0x1
 2861 0163 51       		.byte	0x51
 2862 0164 08030000 		.4byte	.LVL120
 2863 0168 26060000 		.4byte	.LVL233
 2864 016c 0300     		.2byte	0x3
 2865 016e 91       		.byte	0x91
 2866 016f 907F     		.sleb128 -112
 2867 0171 26060000 		.4byte	.LVL233
 2868 0175 34060000 		.4byte	.LFE63
 2869 0179 0300     		.2byte	0x3
 2870 017b 7D       		.byte	0x7d
 2871 017c 907F     		.sleb128 -112
 2872 017e 00000000 		.4byte	0
 2873 0182 00000000 		.4byte	0
 2874              	.LLST6:
 2875 0186 0E000000 		.4byte	.LVL1
 2876 018a 3E000000 		.4byte	.LVL10
 2877 018e 0400     		.2byte	0x4
 2878 0190 0A       		.byte	0xa
ARM GAS  C:\Users\info\AppData\Local\Temp\ccl9i4Az.s 			page 100


 2879 0191 0002     		.2byte	0x200
 2880 0193 9F       		.byte	0x9f
 2881 0194 3E000000 		.4byte	.LVL10
 2882 0198 E2000000 		.4byte	.LVL33
 2883 019c 0100     		.2byte	0x1
 2884 019e 5A       		.byte	0x5a
 2885 019f E4000000 		.4byte	.LVL34
 2886 01a3 06010000 		.4byte	.LVL41
 2887 01a7 0100     		.2byte	0x1
 2888 01a9 5A       		.byte	0x5a
 2889 01aa 06010000 		.4byte	.LVL41
 2890 01ae 0A010000 		.4byte	.LVL42
 2891 01b2 0A00     		.2byte	0xa
 2892 01b4 72       		.byte	0x72
 2893 01b5 00       		.sleb128 0
 2894 01b6 31       		.byte	0x31
 2895 01b7 24       		.byte	0x24
 2896 01b8 70       		.byte	0x70
 2897 01b9 00       		.sleb128 0
 2898 01ba 22       		.byte	0x22
 2899 01bb 08       		.byte	0x8
 2900 01bc 30       		.byte	0x30
 2901 01bd 1C       		.byte	0x1c
 2902 01be 0C010000 		.4byte	.LVL43
 2903 01c2 1E010000 		.4byte	.LVL46
 2904 01c6 0100     		.2byte	0x1
 2905 01c8 5A       		.byte	0x5a
 2906 01c9 1E010000 		.4byte	.LVL46
 2907 01cd 22010000 		.4byte	.LVL47
 2908 01d1 0300     		.2byte	0x3
 2909 01d3 7A       		.byte	0x7a
 2910 01d4 7E       		.sleb128 -2
 2911 01d5 9F       		.byte	0x9f
 2912 01d6 22010000 		.4byte	.LVL47
 2913 01da 3A010000 		.4byte	.LVL52
 2914 01de 0100     		.2byte	0x1
 2915 01e0 5A       		.byte	0x5a
 2916 01e1 3A010000 		.4byte	.LVL52
 2917 01e5 3E010000 		.4byte	.LVL53
 2918 01e9 0300     		.2byte	0x3
 2919 01eb 7A       		.byte	0x7a
 2920 01ec 7E       		.sleb128 -2
 2921 01ed 9F       		.byte	0x9f
 2922 01ee 3E010000 		.4byte	.LVL53
 2923 01f2 66010000 		.4byte	.LVL60
 2924 01f6 0100     		.2byte	0x1
 2925 01f8 5A       		.byte	0x5a
 2926 01f9 66010000 		.4byte	.LVL60
 2927 01fd 6A010000 		.4byte	.LVL61
 2928 0201 0300     		.2byte	0x3
 2929 0203 7A       		.byte	0x7a
 2930 0204 7E       		.sleb128 -2
 2931 0205 9F       		.byte	0x9f
 2932 0206 6A010000 		.4byte	.LVL61
 2933 020a 92010000 		.4byte	.LVL67
 2934 020e 0100     		.2byte	0x1
 2935 0210 5A       		.byte	0x5a
ARM GAS  C:\Users\info\AppData\Local\Temp\ccl9i4Az.s 			page 101


 2936 0211 92010000 		.4byte	.LVL67
 2937 0215 96010000 		.4byte	.LVL68
 2938 0219 0300     		.2byte	0x3
 2939 021b 7A       		.byte	0x7a
 2940 021c 7E       		.sleb128 -2
 2941 021d 9F       		.byte	0x9f
 2942 021e 96010000 		.4byte	.LVL68
 2943 0222 1C030000 		.4byte	.LVL123
 2944 0226 0100     		.2byte	0x1
 2945 0228 5A       		.byte	0x5a
 2946 0229 1C030000 		.4byte	.LVL123
 2947 022d EC030000 		.4byte	.LVL130
 2948 0231 0300     		.2byte	0x3
 2949 0233 91       		.byte	0x91
 2950 0234 9C7F     		.sleb128 -100
 2951 0236 EC030000 		.4byte	.LVL130
 2952 023a 04040000 		.4byte	.LVL134
 2953 023e 0100     		.2byte	0x1
 2954 0240 5A       		.byte	0x5a
 2955 0241 04040000 		.4byte	.LVL134
 2956 0245 34040000 		.4byte	.LVL138
 2957 0249 0300     		.2byte	0x3
 2958 024b 91       		.byte	0x91
 2959 024c 9C7F     		.sleb128 -100
 2960 024e 34040000 		.4byte	.LVL138
 2961 0252 54040000 		.4byte	.LVL142
 2962 0256 0100     		.2byte	0x1
 2963 0258 5A       		.byte	0x5a
 2964 0259 54040000 		.4byte	.LVL142
 2965 025d 58040000 		.4byte	.LVL143
 2966 0261 0300     		.2byte	0x3
 2967 0263 7A       		.byte	0x7a
 2968 0264 7E       		.sleb128 -2
 2969 0265 9F       		.byte	0x9f
 2970 0266 58040000 		.4byte	.LVL143
 2971 026a 74040000 		.4byte	.LVL148
 2972 026e 0100     		.2byte	0x1
 2973 0270 5A       		.byte	0x5a
 2974 0271 74040000 		.4byte	.LVL148
 2975 0275 78040000 		.4byte	.LVL149
 2976 0279 0300     		.2byte	0x3
 2977 027b 7A       		.byte	0x7a
 2978 027c 7E       		.sleb128 -2
 2979 027d 9F       		.byte	0x9f
 2980 027e 78040000 		.4byte	.LVL149
 2981 0282 B4050000 		.4byte	.LVL199
 2982 0286 0100     		.2byte	0x1
 2983 0288 5A       		.byte	0x5a
 2984 0289 BA050000 		.4byte	.LVL202
 2985 028d C8050000 		.4byte	.LVL208
 2986 0291 0100     		.2byte	0x1
 2987 0293 5A       		.byte	0x5a
 2988 0294 C8050000 		.4byte	.LVL208
 2989 0298 CC050000 		.4byte	.LVL209
 2990 029c 0A00     		.2byte	0xa
 2991 029e 72       		.byte	0x72
 2992 029f 00       		.sleb128 0
ARM GAS  C:\Users\info\AppData\Local\Temp\ccl9i4Az.s 			page 102


 2993 02a0 31       		.byte	0x31
 2994 02a1 24       		.byte	0x24
 2995 02a2 70       		.byte	0x70
 2996 02a3 00       		.sleb128 0
 2997 02a4 22       		.byte	0x22
 2998 02a5 08       		.byte	0x8
 2999 02a6 30       		.byte	0x30
 3000 02a7 1C       		.byte	0x1c
 3001 02a8 CC050000 		.4byte	.LVL209
 3002 02ac CE050000 		.4byte	.LVL210
 3003 02b0 0C00     		.2byte	0xc
 3004 02b2 91       		.byte	0x91
 3005 02b3 987F     		.sleb128 -104
 3006 02b5 06       		.byte	0x6
 3007 02b6 31       		.byte	0x31
 3008 02b7 24       		.byte	0x24
 3009 02b8 70       		.byte	0x70
 3010 02b9 00       		.sleb128 0
 3011 02ba 22       		.byte	0x22
 3012 02bb 08       		.byte	0x8
 3013 02bc 30       		.byte	0x30
 3014 02bd 1C       		.byte	0x1c
 3015 02be CE050000 		.4byte	.LVL210
 3016 02c2 1A060000 		.4byte	.LVL231
 3017 02c6 0100     		.2byte	0x1
 3018 02c8 5A       		.byte	0x5a
 3019 02c9 1E060000 		.4byte	.LVL232
 3020 02cd 26060000 		.4byte	.LVL233
 3021 02d1 0100     		.2byte	0x1
 3022 02d3 5A       		.byte	0x5a
 3023 02d4 00000000 		.4byte	0
 3024 02d8 00000000 		.4byte	0
 3025              	.LLST7:
 3026 02dc 0E000000 		.4byte	.LVL1
 3027 02e0 3E000000 		.4byte	.LVL10
 3028 02e4 0200     		.2byte	0x2
 3029 02e6 30       		.byte	0x30
 3030 02e7 9F       		.byte	0x9f
 3031 02e8 3E000000 		.4byte	.LVL10
 3032 02ec 04010000 		.4byte	.LVL40
 3033 02f0 0300     		.2byte	0x3
 3034 02f2 91       		.byte	0x91
 3035 02f3 987F     		.sleb128 -104
 3036 02f5 0C010000 		.4byte	.LVL43
 3037 02f9 26060000 		.4byte	.LVL233
 3038 02fd 0300     		.2byte	0x3
 3039 02ff 91       		.byte	0x91
 3040 0300 987F     		.sleb128 -104
 3041 0302 26060000 		.4byte	.LVL233
 3042 0306 34060000 		.4byte	.LFE63
 3043 030a 0300     		.2byte	0x3
 3044 030c 7D       		.byte	0x7d
 3045 030d 987F     		.sleb128 -104
 3046 030f 00000000 		.4byte	0
 3047 0313 00000000 		.4byte	0
 3048              	.LLST8:
 3049 0317 18000000 		.4byte	.LVL5
ARM GAS  C:\Users\info\AppData\Local\Temp\ccl9i4Az.s 			page 103


 3050 031b 1C000000 		.4byte	.LVL6
 3051 031f 0200     		.2byte	0x2
 3052 0321 30       		.byte	0x30
 3053 0322 9F       		.byte	0x9f
 3054 0323 1C000000 		.4byte	.LVL6
 3055 0327 2A000000 		.4byte	.LVL7
 3056 032b 0100     		.2byte	0x1
 3057 032d 53       		.byte	0x53
 3058 032e 2C000000 		.4byte	.LVL8
 3059 0332 32000000 		.4byte	.LVL9
 3060 0336 0100     		.2byte	0x1
 3061 0338 53       		.byte	0x53
 3062 0339 00000000 		.4byte	0
 3063 033d 00000000 		.4byte	0
 3064              	.LLST9:
 3065 0341 54000000 		.4byte	.LVL12
 3066 0345 68000000 		.4byte	.LVL18
 3067 0349 0100     		.2byte	0x1
 3068 034b 53       		.byte	0x53
 3069 034c 68000000 		.4byte	.LVL18
 3070 0350 A6000000 		.4byte	.LVL22
 3071 0354 1A00     		.2byte	0x1a
 3072 0356 7B       		.byte	0x7b
 3073 0357 00       		.sleb128 0
 3074 0358 7A       		.byte	0x7a
 3075 0359 00       		.sleb128 0
 3076 035a 22       		.byte	0x22
 3077 035b 94       		.byte	0x94
 3078 035c 01       		.byte	0x1
 3079 035d 08       		.byte	0x8
 3080 035e FF       		.byte	0xff
 3081 035f 1A       		.byte	0x1a
 3082 0360 38       		.byte	0x38
 3083 0361 24       		.byte	0x24
 3084 0362 7B       		.byte	0x7b
 3085 0363 00       		.sleb128 0
 3086 0364 7A       		.byte	0x7a
 3087 0365 00       		.sleb128 0
 3088 0366 22       		.byte	0x22
 3089 0367 23       		.byte	0x23
 3090 0368 01       		.uleb128 0x1
 3091 0369 94       		.byte	0x94
 3092 036a 01       		.byte	0x1
 3093 036b 08       		.byte	0x8
 3094 036c FF       		.byte	0xff
 3095 036d 1A       		.byte	0x1a
 3096 036e 21       		.byte	0x21
 3097 036f 9F       		.byte	0x9f
 3098 0370 B6000000 		.4byte	.LVL24
 3099 0374 B8000000 		.4byte	.LVL25
 3100 0378 1A00     		.2byte	0x1a
 3101 037a 7B       		.byte	0x7b
 3102 037b 00       		.sleb128 0
 3103 037c 7A       		.byte	0x7a
 3104 037d 00       		.sleb128 0
 3105 037e 22       		.byte	0x22
 3106 037f 94       		.byte	0x94
ARM GAS  C:\Users\info\AppData\Local\Temp\ccl9i4Az.s 			page 104


 3107 0380 01       		.byte	0x1
 3108 0381 08       		.byte	0x8
 3109 0382 FF       		.byte	0xff
 3110 0383 1A       		.byte	0x1a
 3111 0384 38       		.byte	0x38
 3112 0385 24       		.byte	0x24
 3113 0386 7B       		.byte	0x7b
 3114 0387 00       		.sleb128 0
 3115 0388 7A       		.byte	0x7a
 3116 0389 00       		.sleb128 0
 3117 038a 22       		.byte	0x22
 3118 038b 23       		.byte	0x23
 3119 038c 01       		.uleb128 0x1
 3120 038d 94       		.byte	0x94
 3121 038e 01       		.byte	0x1
 3122 038f 08       		.byte	0x8
 3123 0390 FF       		.byte	0xff
 3124 0391 1A       		.byte	0x1a
 3125 0392 21       		.byte	0x21
 3126 0393 9F       		.byte	0x9f
 3127 0394 C2000000 		.4byte	.LVL27
 3128 0398 D8000000 		.4byte	.LVL31
 3129 039c 1A00     		.2byte	0x1a
 3130 039e 7B       		.byte	0x7b
 3131 039f 00       		.sleb128 0
 3132 03a0 7A       		.byte	0x7a
 3133 03a1 00       		.sleb128 0
 3134 03a2 22       		.byte	0x22
 3135 03a3 94       		.byte	0x94
 3136 03a4 01       		.byte	0x1
 3137 03a5 08       		.byte	0x8
 3138 03a6 FF       		.byte	0xff
 3139 03a7 1A       		.byte	0x1a
 3140 03a8 38       		.byte	0x38
 3141 03a9 24       		.byte	0x24
 3142 03aa 7B       		.byte	0x7b
 3143 03ab 00       		.sleb128 0
 3144 03ac 7A       		.byte	0x7a
 3145 03ad 00       		.sleb128 0
 3146 03ae 22       		.byte	0x22
 3147 03af 23       		.byte	0x23
 3148 03b0 01       		.uleb128 0x1
 3149 03b1 94       		.byte	0x94
 3150 03b2 01       		.byte	0x1
 3151 03b3 08       		.byte	0x8
 3152 03b4 FF       		.byte	0xff
 3153 03b5 1A       		.byte	0x1a
 3154 03b6 21       		.byte	0x21
 3155 03b7 9F       		.byte	0x9f
 3156 03b8 DE000000 		.4byte	.LVL32
 3157 03bc E2000000 		.4byte	.LVL33
 3158 03c0 1A00     		.2byte	0x1a
 3159 03c2 7B       		.byte	0x7b
 3160 03c3 00       		.sleb128 0
 3161 03c4 7A       		.byte	0x7a
 3162 03c5 00       		.sleb128 0
 3163 03c6 22       		.byte	0x22
ARM GAS  C:\Users\info\AppData\Local\Temp\ccl9i4Az.s 			page 105


 3164 03c7 94       		.byte	0x94
 3165 03c8 01       		.byte	0x1
 3166 03c9 08       		.byte	0x8
 3167 03ca FF       		.byte	0xff
 3168 03cb 1A       		.byte	0x1a
 3169 03cc 38       		.byte	0x38
 3170 03cd 24       		.byte	0x24
 3171 03ce 7B       		.byte	0x7b
 3172 03cf 00       		.sleb128 0
 3173 03d0 7A       		.byte	0x7a
 3174 03d1 00       		.sleb128 0
 3175 03d2 22       		.byte	0x22
 3176 03d3 23       		.byte	0x23
 3177 03d4 01       		.uleb128 0x1
 3178 03d5 94       		.byte	0x94
 3179 03d6 01       		.byte	0x1
 3180 03d7 08       		.byte	0x8
 3181 03d8 FF       		.byte	0xff
 3182 03d9 1A       		.byte	0x1a
 3183 03da 21       		.byte	0x21
 3184 03db 9F       		.byte	0x9f
 3185 03dc EA000000 		.4byte	.LVL37
 3186 03e0 06010000 		.4byte	.LVL41
 3187 03e4 1A00     		.2byte	0x1a
 3188 03e6 7B       		.byte	0x7b
 3189 03e7 00       		.sleb128 0
 3190 03e8 7A       		.byte	0x7a
 3191 03e9 00       		.sleb128 0
 3192 03ea 22       		.byte	0x22
 3193 03eb 94       		.byte	0x94
 3194 03ec 01       		.byte	0x1
 3195 03ed 08       		.byte	0x8
 3196 03ee FF       		.byte	0xff
 3197 03ef 1A       		.byte	0x1a
 3198 03f0 38       		.byte	0x38
 3199 03f1 24       		.byte	0x24
 3200 03f2 7B       		.byte	0x7b
 3201 03f3 00       		.sleb128 0
 3202 03f4 7A       		.byte	0x7a
 3203 03f5 00       		.sleb128 0
 3204 03f6 22       		.byte	0x22
 3205 03f7 23       		.byte	0x23
 3206 03f8 01       		.uleb128 0x1
 3207 03f9 94       		.byte	0x94
 3208 03fa 01       		.byte	0x1
 3209 03fb 08       		.byte	0x8
 3210 03fc FF       		.byte	0xff
 3211 03fd 1A       		.byte	0x1a
 3212 03fe 21       		.byte	0x21
 3213 03ff 9F       		.byte	0x9f
 3214 0400 0C010000 		.4byte	.LVL43
 3215 0404 1E010000 		.4byte	.LVL46
 3216 0408 1A00     		.2byte	0x1a
 3217 040a 7B       		.byte	0x7b
 3218 040b 00       		.sleb128 0
 3219 040c 7A       		.byte	0x7a
 3220 040d 00       		.sleb128 0
ARM GAS  C:\Users\info\AppData\Local\Temp\ccl9i4Az.s 			page 106


 3221 040e 22       		.byte	0x22
 3222 040f 94       		.byte	0x94
 3223 0410 01       		.byte	0x1
 3224 0411 08       		.byte	0x8
 3225 0412 FF       		.byte	0xff
 3226 0413 1A       		.byte	0x1a
 3227 0414 38       		.byte	0x38
 3228 0415 24       		.byte	0x24
 3229 0416 7B       		.byte	0x7b
 3230 0417 00       		.sleb128 0
 3231 0418 7A       		.byte	0x7a
 3232 0419 00       		.sleb128 0
 3233 041a 22       		.byte	0x22
 3234 041b 23       		.byte	0x23
 3235 041c 01       		.uleb128 0x1
 3236 041d 94       		.byte	0x94
 3237 041e 01       		.byte	0x1
 3238 041f 08       		.byte	0x8
 3239 0420 FF       		.byte	0xff
 3240 0421 1A       		.byte	0x1a
 3241 0422 21       		.byte	0x21
 3242 0423 9F       		.byte	0x9f
 3243 0424 1E010000 		.4byte	.LVL46
 3244 0428 22010000 		.4byte	.LVL47
 3245 042c 1C00     		.2byte	0x1c
 3246 042e 7B       		.byte	0x7b
 3247 042f 00       		.sleb128 0
 3248 0430 7A       		.byte	0x7a
 3249 0431 00       		.sleb128 0
 3250 0432 22       		.byte	0x22
 3251 0433 32       		.byte	0x32
 3252 0434 1C       		.byte	0x1c
 3253 0435 94       		.byte	0x94
 3254 0436 01       		.byte	0x1
 3255 0437 08       		.byte	0x8
 3256 0438 FF       		.byte	0xff
 3257 0439 1A       		.byte	0x1a
 3258 043a 38       		.byte	0x38
 3259 043b 24       		.byte	0x24
 3260 043c 7B       		.byte	0x7b
 3261 043d 00       		.sleb128 0
 3262 043e 7A       		.byte	0x7a
 3263 043f 00       		.sleb128 0
 3264 0440 22       		.byte	0x22
 3265 0441 31       		.byte	0x31
 3266 0442 1C       		.byte	0x1c
 3267 0443 94       		.byte	0x94
 3268 0444 01       		.byte	0x1
 3269 0445 08       		.byte	0x8
 3270 0446 FF       		.byte	0xff
 3271 0447 1A       		.byte	0x1a
 3272 0448 21       		.byte	0x21
 3273 0449 9F       		.byte	0x9f
 3274 044a 28010000 		.4byte	.LVL49
 3275 044e 3A010000 		.4byte	.LVL52
 3276 0452 1A00     		.2byte	0x1a
 3277 0454 7B       		.byte	0x7b
ARM GAS  C:\Users\info\AppData\Local\Temp\ccl9i4Az.s 			page 107


 3278 0455 00       		.sleb128 0
 3279 0456 7A       		.byte	0x7a
 3280 0457 00       		.sleb128 0
 3281 0458 22       		.byte	0x22
 3282 0459 94       		.byte	0x94
 3283 045a 01       		.byte	0x1
 3284 045b 08       		.byte	0x8
 3285 045c FF       		.byte	0xff
 3286 045d 1A       		.byte	0x1a
 3287 045e 38       		.byte	0x38
 3288 045f 24       		.byte	0x24
 3289 0460 7B       		.byte	0x7b
 3290 0461 00       		.sleb128 0
 3291 0462 7A       		.byte	0x7a
 3292 0463 00       		.sleb128 0
 3293 0464 22       		.byte	0x22
 3294 0465 23       		.byte	0x23
 3295 0466 01       		.uleb128 0x1
 3296 0467 94       		.byte	0x94
 3297 0468 01       		.byte	0x1
 3298 0469 08       		.byte	0x8
 3299 046a FF       		.byte	0xff
 3300 046b 1A       		.byte	0x1a
 3301 046c 21       		.byte	0x21
 3302 046d 9F       		.byte	0x9f
 3303 046e 3A010000 		.4byte	.LVL52
 3304 0472 3E010000 		.4byte	.LVL53
 3305 0476 1C00     		.2byte	0x1c
 3306 0478 7B       		.byte	0x7b
 3307 0479 00       		.sleb128 0
 3308 047a 7A       		.byte	0x7a
 3309 047b 00       		.sleb128 0
 3310 047c 22       		.byte	0x22
 3311 047d 32       		.byte	0x32
 3312 047e 1C       		.byte	0x1c
 3313 047f 94       		.byte	0x94
 3314 0480 01       		.byte	0x1
 3315 0481 08       		.byte	0x8
 3316 0482 FF       		.byte	0xff
 3317 0483 1A       		.byte	0x1a
 3318 0484 38       		.byte	0x38
 3319 0485 24       		.byte	0x24
 3320 0486 7B       		.byte	0x7b
 3321 0487 00       		.sleb128 0
 3322 0488 7A       		.byte	0x7a
 3323 0489 00       		.sleb128 0
 3324 048a 22       		.byte	0x22
 3325 048b 31       		.byte	0x31
 3326 048c 1C       		.byte	0x1c
 3327 048d 94       		.byte	0x94
 3328 048e 01       		.byte	0x1
 3329 048f 08       		.byte	0x8
 3330 0490 FF       		.byte	0xff
 3331 0491 1A       		.byte	0x1a
 3332 0492 21       		.byte	0x21
 3333 0493 9F       		.byte	0x9f
 3334 0494 44010000 		.4byte	.LVL55
ARM GAS  C:\Users\info\AppData\Local\Temp\ccl9i4Az.s 			page 108


 3335 0498 66010000 		.4byte	.LVL60
 3336 049c 1A00     		.2byte	0x1a
 3337 049e 7B       		.byte	0x7b
 3338 049f 00       		.sleb128 0
 3339 04a0 7A       		.byte	0x7a
 3340 04a1 00       		.sleb128 0
 3341 04a2 22       		.byte	0x22
 3342 04a3 94       		.byte	0x94
 3343 04a4 01       		.byte	0x1
 3344 04a5 08       		.byte	0x8
 3345 04a6 FF       		.byte	0xff
 3346 04a7 1A       		.byte	0x1a
 3347 04a8 38       		.byte	0x38
 3348 04a9 24       		.byte	0x24
 3349 04aa 7B       		.byte	0x7b
 3350 04ab 00       		.sleb128 0
 3351 04ac 7A       		.byte	0x7a
 3352 04ad 00       		.sleb128 0
 3353 04ae 22       		.byte	0x22
 3354 04af 23       		.byte	0x23
 3355 04b0 01       		.uleb128 0x1
 3356 04b1 94       		.byte	0x94
 3357 04b2 01       		.byte	0x1
 3358 04b3 08       		.byte	0x8
 3359 04b4 FF       		.byte	0xff
 3360 04b5 1A       		.byte	0x1a
 3361 04b6 21       		.byte	0x21
 3362 04b7 9F       		.byte	0x9f
 3363 04b8 66010000 		.4byte	.LVL60
 3364 04bc 6A010000 		.4byte	.LVL61
 3365 04c0 1C00     		.2byte	0x1c
 3366 04c2 7B       		.byte	0x7b
 3367 04c3 00       		.sleb128 0
 3368 04c4 7A       		.byte	0x7a
 3369 04c5 00       		.sleb128 0
 3370 04c6 22       		.byte	0x22
 3371 04c7 32       		.byte	0x32
 3372 04c8 1C       		.byte	0x1c
 3373 04c9 94       		.byte	0x94
 3374 04ca 01       		.byte	0x1
 3375 04cb 08       		.byte	0x8
 3376 04cc FF       		.byte	0xff
 3377 04cd 1A       		.byte	0x1a
 3378 04ce 38       		.byte	0x38
 3379 04cf 24       		.byte	0x24
 3380 04d0 7B       		.byte	0x7b
 3381 04d1 00       		.sleb128 0
 3382 04d2 7A       		.byte	0x7a
 3383 04d3 00       		.sleb128 0
 3384 04d4 22       		.byte	0x22
 3385 04d5 31       		.byte	0x31
 3386 04d6 1C       		.byte	0x1c
 3387 04d7 94       		.byte	0x94
 3388 04d8 01       		.byte	0x1
 3389 04d9 08       		.byte	0x8
 3390 04da FF       		.byte	0xff
 3391 04db 1A       		.byte	0x1a
ARM GAS  C:\Users\info\AppData\Local\Temp\ccl9i4Az.s 			page 109


 3392 04dc 21       		.byte	0x21
 3393 04dd 9F       		.byte	0x9f
 3394 04de 70010000 		.4byte	.LVL62
 3395 04e2 92010000 		.4byte	.LVL67
 3396 04e6 1A00     		.2byte	0x1a
 3397 04e8 7B       		.byte	0x7b
 3398 04e9 00       		.sleb128 0
 3399 04ea 7A       		.byte	0x7a
 3400 04eb 00       		.sleb128 0
 3401 04ec 22       		.byte	0x22
 3402 04ed 94       		.byte	0x94
 3403 04ee 01       		.byte	0x1
 3404 04ef 08       		.byte	0x8
 3405 04f0 FF       		.byte	0xff
 3406 04f1 1A       		.byte	0x1a
 3407 04f2 38       		.byte	0x38
 3408 04f3 24       		.byte	0x24
 3409 04f4 7B       		.byte	0x7b
 3410 04f5 00       		.sleb128 0
 3411 04f6 7A       		.byte	0x7a
 3412 04f7 00       		.sleb128 0
 3413 04f8 22       		.byte	0x22
 3414 04f9 23       		.byte	0x23
 3415 04fa 01       		.uleb128 0x1
 3416 04fb 94       		.byte	0x94
 3417 04fc 01       		.byte	0x1
 3418 04fd 08       		.byte	0x8
 3419 04fe FF       		.byte	0xff
 3420 04ff 1A       		.byte	0x1a
 3421 0500 21       		.byte	0x21
 3422 0501 9F       		.byte	0x9f
 3423 0502 92010000 		.4byte	.LVL67
 3424 0506 96010000 		.4byte	.LVL68
 3425 050a 1C00     		.2byte	0x1c
 3426 050c 7B       		.byte	0x7b
 3427 050d 00       		.sleb128 0
 3428 050e 7A       		.byte	0x7a
 3429 050f 00       		.sleb128 0
 3430 0510 22       		.byte	0x22
 3431 0511 32       		.byte	0x32
 3432 0512 1C       		.byte	0x1c
 3433 0513 94       		.byte	0x94
 3434 0514 01       		.byte	0x1
 3435 0515 08       		.byte	0x8
 3436 0516 FF       		.byte	0xff
 3437 0517 1A       		.byte	0x1a
 3438 0518 38       		.byte	0x38
 3439 0519 24       		.byte	0x24
 3440 051a 7B       		.byte	0x7b
 3441 051b 00       		.sleb128 0
 3442 051c 7A       		.byte	0x7a
 3443 051d 00       		.sleb128 0
 3444 051e 22       		.byte	0x22
 3445 051f 31       		.byte	0x31
 3446 0520 1C       		.byte	0x1c
 3447 0521 94       		.byte	0x94
 3448 0522 01       		.byte	0x1
ARM GAS  C:\Users\info\AppData\Local\Temp\ccl9i4Az.s 			page 110


 3449 0523 08       		.byte	0x8
 3450 0524 FF       		.byte	0xff
 3451 0525 1A       		.byte	0x1a
 3452 0526 21       		.byte	0x21
 3453 0527 9F       		.byte	0x9f
 3454 0528 9C010000 		.4byte	.LVL69
 3455 052c 0B030000 		.4byte	.LVL121-1
 3456 0530 1A00     		.2byte	0x1a
 3457 0532 7B       		.byte	0x7b
 3458 0533 00       		.sleb128 0
 3459 0534 7A       		.byte	0x7a
 3460 0535 00       		.sleb128 0
 3461 0536 22       		.byte	0x22
 3462 0537 94       		.byte	0x94
 3463 0538 01       		.byte	0x1
 3464 0539 08       		.byte	0x8
 3465 053a FF       		.byte	0xff
 3466 053b 1A       		.byte	0x1a
 3467 053c 38       		.byte	0x38
 3468 053d 24       		.byte	0x24
 3469 053e 7B       		.byte	0x7b
 3470 053f 00       		.sleb128 0
 3471 0540 7A       		.byte	0x7a
 3472 0541 00       		.sleb128 0
 3473 0542 22       		.byte	0x22
 3474 0543 23       		.byte	0x23
 3475 0544 01       		.uleb128 0x1
 3476 0545 94       		.byte	0x94
 3477 0546 01       		.byte	0x1
 3478 0547 08       		.byte	0x8
 3479 0548 FF       		.byte	0xff
 3480 0549 1A       		.byte	0x1a
 3481 054a 21       		.byte	0x21
 3482 054b 9F       		.byte	0x9f
 3483 054c EC030000 		.4byte	.LVL130
 3484 0550 04040000 		.4byte	.LVL134
 3485 0554 1A00     		.2byte	0x1a
 3486 0556 7B       		.byte	0x7b
 3487 0557 00       		.sleb128 0
 3488 0558 7A       		.byte	0x7a
 3489 0559 00       		.sleb128 0
 3490 055a 22       		.byte	0x22
 3491 055b 94       		.byte	0x94
 3492 055c 01       		.byte	0x1
 3493 055d 08       		.byte	0x8
 3494 055e FF       		.byte	0xff
 3495 055f 1A       		.byte	0x1a
 3496 0560 38       		.byte	0x38
 3497 0561 24       		.byte	0x24
 3498 0562 7B       		.byte	0x7b
 3499 0563 00       		.sleb128 0
 3500 0564 7A       		.byte	0x7a
 3501 0565 00       		.sleb128 0
 3502 0566 22       		.byte	0x22
 3503 0567 23       		.byte	0x23
 3504 0568 01       		.uleb128 0x1
 3505 0569 94       		.byte	0x94
ARM GAS  C:\Users\info\AppData\Local\Temp\ccl9i4Az.s 			page 111


 3506 056a 01       		.byte	0x1
 3507 056b 08       		.byte	0x8
 3508 056c FF       		.byte	0xff
 3509 056d 1A       		.byte	0x1a
 3510 056e 21       		.byte	0x21
 3511 056f 9F       		.byte	0x9f
 3512 0570 04040000 		.4byte	.LVL134
 3513 0574 06040000 		.4byte	.LVL135
 3514 0578 1E00     		.2byte	0x1e
 3515 057a 7B       		.byte	0x7b
 3516 057b 00       		.sleb128 0
 3517 057c 91       		.byte	0x91
 3518 057d 9C7F     		.sleb128 -100
 3519 057f 06       		.byte	0x6
 3520 0580 22       		.byte	0x22
 3521 0581 94       		.byte	0x94
 3522 0582 01       		.byte	0x1
 3523 0583 08       		.byte	0x8
 3524 0584 FF       		.byte	0xff
 3525 0585 1A       		.byte	0x1a
 3526 0586 38       		.byte	0x38
 3527 0587 24       		.byte	0x24
 3528 0588 7B       		.byte	0x7b
 3529 0589 00       		.sleb128 0
 3530 058a 91       		.byte	0x91
 3531 058b 9C7F     		.sleb128 -100
 3532 058d 06       		.byte	0x6
 3533 058e 22       		.byte	0x22
 3534 058f 23       		.byte	0x23
 3535 0590 01       		.uleb128 0x1
 3536 0591 94       		.byte	0x94
 3537 0592 01       		.byte	0x1
 3538 0593 08       		.byte	0x8
 3539 0594 FF       		.byte	0xff
 3540 0595 1A       		.byte	0x1a
 3541 0596 21       		.byte	0x21
 3542 0597 9F       		.byte	0x9f
 3543 0598 34040000 		.4byte	.LVL138
 3544 059c 49040000 		.4byte	.LVL141-1
 3545 05a0 1A00     		.2byte	0x1a
 3546 05a2 7B       		.byte	0x7b
 3547 05a3 00       		.sleb128 0
 3548 05a4 7A       		.byte	0x7a
 3549 05a5 00       		.sleb128 0
 3550 05a6 22       		.byte	0x22
 3551 05a7 94       		.byte	0x94
 3552 05a8 01       		.byte	0x1
 3553 05a9 08       		.byte	0x8
 3554 05aa FF       		.byte	0xff
 3555 05ab 1A       		.byte	0x1a
 3556 05ac 38       		.byte	0x38
 3557 05ad 24       		.byte	0x24
 3558 05ae 7B       		.byte	0x7b
 3559 05af 00       		.sleb128 0
 3560 05b0 7A       		.byte	0x7a
 3561 05b1 00       		.sleb128 0
 3562 05b2 22       		.byte	0x22
ARM GAS  C:\Users\info\AppData\Local\Temp\ccl9i4Az.s 			page 112


 3563 05b3 23       		.byte	0x23
 3564 05b4 01       		.uleb128 0x1
 3565 05b5 94       		.byte	0x94
 3566 05b6 01       		.byte	0x1
 3567 05b7 08       		.byte	0x8
 3568 05b8 FF       		.byte	0xff
 3569 05b9 1A       		.byte	0x1a
 3570 05ba 21       		.byte	0x21
 3571 05bb 9F       		.byte	0x9f
 3572 05bc 5E040000 		.4byte	.LVL144
 3573 05c0 69040000 		.4byte	.LVL147-1
 3574 05c4 1A00     		.2byte	0x1a
 3575 05c6 7B       		.byte	0x7b
 3576 05c7 00       		.sleb128 0
 3577 05c8 7A       		.byte	0x7a
 3578 05c9 00       		.sleb128 0
 3579 05ca 22       		.byte	0x22
 3580 05cb 94       		.byte	0x94
 3581 05cc 01       		.byte	0x1
 3582 05cd 08       		.byte	0x8
 3583 05ce FF       		.byte	0xff
 3584 05cf 1A       		.byte	0x1a
 3585 05d0 38       		.byte	0x38
 3586 05d1 24       		.byte	0x24
 3587 05d2 7B       		.byte	0x7b
 3588 05d3 00       		.sleb128 0
 3589 05d4 7A       		.byte	0x7a
 3590 05d5 00       		.sleb128 0
 3591 05d6 22       		.byte	0x22
 3592 05d7 23       		.byte	0x23
 3593 05d8 01       		.uleb128 0x1
 3594 05d9 94       		.byte	0x94
 3595 05da 01       		.byte	0x1
 3596 05db 08       		.byte	0x8
 3597 05dc FF       		.byte	0xff
 3598 05dd 1A       		.byte	0x1a
 3599 05de 21       		.byte	0x21
 3600 05df 9F       		.byte	0x9f
 3601 05e0 7E040000 		.4byte	.LVL150
 3602 05e4 C5040000 		.4byte	.LVL155-1
 3603 05e8 1A00     		.2byte	0x1a
 3604 05ea 7B       		.byte	0x7b
 3605 05eb 00       		.sleb128 0
 3606 05ec 7A       		.byte	0x7a
 3607 05ed 00       		.sleb128 0
 3608 05ee 22       		.byte	0x22
 3609 05ef 94       		.byte	0x94
 3610 05f0 01       		.byte	0x1
 3611 05f1 08       		.byte	0x8
 3612 05f2 FF       		.byte	0xff
 3613 05f3 1A       		.byte	0x1a
 3614 05f4 38       		.byte	0x38
 3615 05f5 24       		.byte	0x24
 3616 05f6 7B       		.byte	0x7b
 3617 05f7 00       		.sleb128 0
 3618 05f8 7A       		.byte	0x7a
 3619 05f9 00       		.sleb128 0
ARM GAS  C:\Users\info\AppData\Local\Temp\ccl9i4Az.s 			page 113


 3620 05fa 22       		.byte	0x22
 3621 05fb 23       		.byte	0x23
 3622 05fc 01       		.uleb128 0x1
 3623 05fd 94       		.byte	0x94
 3624 05fe 01       		.byte	0x1
 3625 05ff 08       		.byte	0x8
 3626 0600 FF       		.byte	0xff
 3627 0601 1A       		.byte	0x1a
 3628 0602 21       		.byte	0x21
 3629 0603 9F       		.byte	0x9f
 3630 0604 D4040000 		.4byte	.LVL157
 3631 0608 E0040000 		.4byte	.LVL161
 3632 060c 1A00     		.2byte	0x1a
 3633 060e 7B       		.byte	0x7b
 3634 060f 00       		.sleb128 0
 3635 0610 7A       		.byte	0x7a
 3636 0611 00       		.sleb128 0
 3637 0612 22       		.byte	0x22
 3638 0613 94       		.byte	0x94
 3639 0614 01       		.byte	0x1
 3640 0615 08       		.byte	0x8
 3641 0616 FF       		.byte	0xff
 3642 0617 1A       		.byte	0x1a
 3643 0618 38       		.byte	0x38
 3644 0619 24       		.byte	0x24
 3645 061a 7B       		.byte	0x7b
 3646 061b 00       		.sleb128 0
 3647 061c 7A       		.byte	0x7a
 3648 061d 00       		.sleb128 0
 3649 061e 22       		.byte	0x22
 3650 061f 23       		.byte	0x23
 3651 0620 01       		.uleb128 0x1
 3652 0621 94       		.byte	0x94
 3653 0622 01       		.byte	0x1
 3654 0623 08       		.byte	0x8
 3655 0624 FF       		.byte	0xff
 3656 0625 1A       		.byte	0x1a
 3657 0626 21       		.byte	0x21
 3658 0627 9F       		.byte	0x9f
 3659 0628 E6040000 		.4byte	.LVL162
 3660 062c F2040000 		.4byte	.LVL166
 3661 0630 1A00     		.2byte	0x1a
 3662 0632 7B       		.byte	0x7b
 3663 0633 00       		.sleb128 0
 3664 0634 7A       		.byte	0x7a
 3665 0635 00       		.sleb128 0
 3666 0636 22       		.byte	0x22
 3667 0637 94       		.byte	0x94
 3668 0638 01       		.byte	0x1
 3669 0639 08       		.byte	0x8
 3670 063a FF       		.byte	0xff
 3671 063b 1A       		.byte	0x1a
 3672 063c 38       		.byte	0x38
 3673 063d 24       		.byte	0x24
 3674 063e 7B       		.byte	0x7b
 3675 063f 00       		.sleb128 0
 3676 0640 7A       		.byte	0x7a
ARM GAS  C:\Users\info\AppData\Local\Temp\ccl9i4Az.s 			page 114


 3677 0641 00       		.sleb128 0
 3678 0642 22       		.byte	0x22
 3679 0643 23       		.byte	0x23
 3680 0644 01       		.uleb128 0x1
 3681 0645 94       		.byte	0x94
 3682 0646 01       		.byte	0x1
 3683 0647 08       		.byte	0x8
 3684 0648 FF       		.byte	0xff
 3685 0649 1A       		.byte	0x1a
 3686 064a 21       		.byte	0x21
 3687 064b 9F       		.byte	0x9f
 3688 064c F8040000 		.4byte	.LVL167
 3689 0650 3E050000 		.4byte	.LVL182
 3690 0654 1A00     		.2byte	0x1a
 3691 0656 7B       		.byte	0x7b
 3692 0657 00       		.sleb128 0
 3693 0658 7A       		.byte	0x7a
 3694 0659 00       		.sleb128 0
 3695 065a 22       		.byte	0x22
 3696 065b 94       		.byte	0x94
 3697 065c 01       		.byte	0x1
 3698 065d 08       		.byte	0x8
 3699 065e FF       		.byte	0xff
 3700 065f 1A       		.byte	0x1a
 3701 0660 38       		.byte	0x38
 3702 0661 24       		.byte	0x24
 3703 0662 7B       		.byte	0x7b
 3704 0663 00       		.sleb128 0
 3705 0664 7A       		.byte	0x7a
 3706 0665 00       		.sleb128 0
 3707 0666 22       		.byte	0x22
 3708 0667 23       		.byte	0x23
 3709 0668 01       		.uleb128 0x1
 3710 0669 94       		.byte	0x94
 3711 066a 01       		.byte	0x1
 3712 066b 08       		.byte	0x8
 3713 066c FF       		.byte	0xff
 3714 066d 1A       		.byte	0x1a
 3715 066e 21       		.byte	0x21
 3716 066f 9F       		.byte	0x9f
 3717 0670 82050000 		.4byte	.LVL187
 3718 0674 86050000 		.4byte	.LVL189
 3719 0678 1A00     		.2byte	0x1a
 3720 067a 7B       		.byte	0x7b
 3721 067b 00       		.sleb128 0
 3722 067c 7A       		.byte	0x7a
 3723 067d 00       		.sleb128 0
 3724 067e 22       		.byte	0x22
 3725 067f 94       		.byte	0x94
 3726 0680 01       		.byte	0x1
 3727 0681 08       		.byte	0x8
 3728 0682 FF       		.byte	0xff
 3729 0683 1A       		.byte	0x1a
 3730 0684 38       		.byte	0x38
 3731 0685 24       		.byte	0x24
 3732 0686 7B       		.byte	0x7b
 3733 0687 00       		.sleb128 0
ARM GAS  C:\Users\info\AppData\Local\Temp\ccl9i4Az.s 			page 115


 3734 0688 7A       		.byte	0x7a
 3735 0689 00       		.sleb128 0
 3736 068a 22       		.byte	0x22
 3737 068b 23       		.byte	0x23
 3738 068c 01       		.uleb128 0x1
 3739 068d 94       		.byte	0x94
 3740 068e 01       		.byte	0x1
 3741 068f 08       		.byte	0x8
 3742 0690 FF       		.byte	0xff
 3743 0691 1A       		.byte	0x1a
 3744 0692 21       		.byte	0x21
 3745 0693 9F       		.byte	0x9f
 3746 0694 90050000 		.4byte	.LVL191
 3747 0698 B4050000 		.4byte	.LVL199
 3748 069c 1A00     		.2byte	0x1a
 3749 069e 7B       		.byte	0x7b
 3750 069f 00       		.sleb128 0
 3751 06a0 7A       		.byte	0x7a
 3752 06a1 00       		.sleb128 0
 3753 06a2 22       		.byte	0x22
 3754 06a3 94       		.byte	0x94
 3755 06a4 01       		.byte	0x1
 3756 06a5 08       		.byte	0x8
 3757 06a6 FF       		.byte	0xff
 3758 06a7 1A       		.byte	0x1a
 3759 06a8 38       		.byte	0x38
 3760 06a9 24       		.byte	0x24
 3761 06aa 7B       		.byte	0x7b
 3762 06ab 00       		.sleb128 0
 3763 06ac 7A       		.byte	0x7a
 3764 06ad 00       		.sleb128 0
 3765 06ae 22       		.byte	0x22
 3766 06af 23       		.byte	0x23
 3767 06b0 01       		.uleb128 0x1
 3768 06b1 94       		.byte	0x94
 3769 06b2 01       		.byte	0x1
 3770 06b3 08       		.byte	0x8
 3771 06b4 FF       		.byte	0xff
 3772 06b5 1A       		.byte	0x1a
 3773 06b6 21       		.byte	0x21
 3774 06b7 9F       		.byte	0x9f
 3775 06b8 BA050000 		.4byte	.LVL202
 3776 06bc C8050000 		.4byte	.LVL208
 3777 06c0 1A00     		.2byte	0x1a
 3778 06c2 7B       		.byte	0x7b
 3779 06c3 00       		.sleb128 0
 3780 06c4 7A       		.byte	0x7a
 3781 06c5 00       		.sleb128 0
 3782 06c6 22       		.byte	0x22
 3783 06c7 94       		.byte	0x94
 3784 06c8 01       		.byte	0x1
 3785 06c9 08       		.byte	0x8
 3786 06ca FF       		.byte	0xff
 3787 06cb 1A       		.byte	0x1a
 3788 06cc 38       		.byte	0x38
 3789 06cd 24       		.byte	0x24
 3790 06ce 7B       		.byte	0x7b
ARM GAS  C:\Users\info\AppData\Local\Temp\ccl9i4Az.s 			page 116


 3791 06cf 00       		.sleb128 0
 3792 06d0 7A       		.byte	0x7a
 3793 06d1 00       		.sleb128 0
 3794 06d2 22       		.byte	0x22
 3795 06d3 23       		.byte	0x23
 3796 06d4 01       		.uleb128 0x1
 3797 06d5 94       		.byte	0x94
 3798 06d6 01       		.byte	0x1
 3799 06d7 08       		.byte	0x8
 3800 06d8 FF       		.byte	0xff
 3801 06d9 1A       		.byte	0x1a
 3802 06da 21       		.byte	0x21
 3803 06db 9F       		.byte	0x9f
 3804 06dc CE050000 		.4byte	.LVL210
 3805 06e0 FE050000 		.4byte	.LVL227
 3806 06e4 1A00     		.2byte	0x1a
 3807 06e6 7B       		.byte	0x7b
 3808 06e7 00       		.sleb128 0
 3809 06e8 7A       		.byte	0x7a
 3810 06e9 00       		.sleb128 0
 3811 06ea 22       		.byte	0x22
 3812 06eb 94       		.byte	0x94
 3813 06ec 01       		.byte	0x1
 3814 06ed 08       		.byte	0x8
 3815 06ee FF       		.byte	0xff
 3816 06ef 1A       		.byte	0x1a
 3817 06f0 38       		.byte	0x38
 3818 06f1 24       		.byte	0x24
 3819 06f2 7B       		.byte	0x7b
 3820 06f3 00       		.sleb128 0
 3821 06f4 7A       		.byte	0x7a
 3822 06f5 00       		.sleb128 0
 3823 06f6 22       		.byte	0x22
 3824 06f7 23       		.byte	0x23
 3825 06f8 01       		.uleb128 0x1
 3826 06f9 94       		.byte	0x94
 3827 06fa 01       		.byte	0x1
 3828 06fb 08       		.byte	0x8
 3829 06fc FF       		.byte	0xff
 3830 06fd 1A       		.byte	0x1a
 3831 06fe 21       		.byte	0x21
 3832 06ff 9F       		.byte	0x9f
 3833 0700 0A060000 		.4byte	.LVL228
 3834 0704 0E060000 		.4byte	.LVL230
 3835 0708 1A00     		.2byte	0x1a
 3836 070a 7B       		.byte	0x7b
 3837 070b 00       		.sleb128 0
 3838 070c 7A       		.byte	0x7a
 3839 070d 00       		.sleb128 0
 3840 070e 22       		.byte	0x22
 3841 070f 94       		.byte	0x94
 3842 0710 01       		.byte	0x1
 3843 0711 08       		.byte	0x8
 3844 0712 FF       		.byte	0xff
 3845 0713 1A       		.byte	0x1a
 3846 0714 38       		.byte	0x38
 3847 0715 24       		.byte	0x24
ARM GAS  C:\Users\info\AppData\Local\Temp\ccl9i4Az.s 			page 117


 3848 0716 7B       		.byte	0x7b
 3849 0717 00       		.sleb128 0
 3850 0718 7A       		.byte	0x7a
 3851 0719 00       		.sleb128 0
 3852 071a 22       		.byte	0x22
 3853 071b 23       		.byte	0x23
 3854 071c 01       		.uleb128 0x1
 3855 071d 94       		.byte	0x94
 3856 071e 01       		.byte	0x1
 3857 071f 08       		.byte	0x8
 3858 0720 FF       		.byte	0xff
 3859 0721 1A       		.byte	0x1a
 3860 0722 21       		.byte	0x21
 3861 0723 9F       		.byte	0x9f
 3862 0724 00000000 		.4byte	0
 3863 0728 00000000 		.4byte	0
 3864              	.LLST10:
 3865 072c 56000000 		.4byte	.LVL13
 3866 0730 94000000 		.4byte	.LVL20
 3867 0734 0100     		.2byte	0x1
 3868 0736 52       		.byte	0x52
 3869 0737 94000000 		.4byte	.LVL20
 3870 073b 96000000 		.4byte	.LVL21
 3871 073f 1C00     		.2byte	0x1c
 3872 0741 7B       		.byte	0x7b
 3873 0742 00       		.sleb128 0
 3874 0743 7A       		.byte	0x7a
 3875 0744 00       		.sleb128 0
 3876 0745 22       		.byte	0x22
 3877 0746 94       		.byte	0x94
 3878 0747 01       		.byte	0x1
 3879 0748 08       		.byte	0x8
 3880 0749 FF       		.byte	0xff
 3881 074a 1A       		.byte	0x1a
 3882 074b 38       		.byte	0x38
 3883 074c 24       		.byte	0x24
 3884 074d 7B       		.byte	0x7b
 3885 074e 00       		.sleb128 0
 3886 074f 7A       		.byte	0x7a
 3887 0750 00       		.sleb128 0
 3888 0751 22       		.byte	0x22
 3889 0752 23       		.byte	0x23
 3890 0753 01       		.uleb128 0x1
 3891 0754 94       		.byte	0x94
 3892 0755 01       		.byte	0x1
 3893 0756 08       		.byte	0x8
 3894 0757 FF       		.byte	0xff
 3895 0758 1A       		.byte	0x1a
 3896 0759 21       		.byte	0x21
 3897 075a 3C       		.byte	0x3c
 3898 075b 25       		.byte	0x25
 3899 075c 9F       		.byte	0x9f
 3900 075d 96000000 		.4byte	.LVL21
 3901 0761 A6000000 		.4byte	.LVL22
 3902 0765 0100     		.2byte	0x1
 3903 0767 52       		.byte	0x52
 3904 0768 B6000000 		.4byte	.LVL24
ARM GAS  C:\Users\info\AppData\Local\Temp\ccl9i4Az.s 			page 118


 3905 076c B8000000 		.4byte	.LVL25
 3906 0770 0100     		.2byte	0x1
 3907 0772 52       		.byte	0x52
 3908 0773 C2000000 		.4byte	.LVL27
 3909 0777 CE000000 		.4byte	.LVL30
 3910 077b 0100     		.2byte	0x1
 3911 077d 52       		.byte	0x52
 3912 077e CE000000 		.4byte	.LVL30
 3913 0782 D8000000 		.4byte	.LVL31
 3914 0786 1C00     		.2byte	0x1c
 3915 0788 7B       		.byte	0x7b
 3916 0789 00       		.sleb128 0
 3917 078a 7A       		.byte	0x7a
 3918 078b 00       		.sleb128 0
 3919 078c 22       		.byte	0x22
 3920 078d 94       		.byte	0x94
 3921 078e 01       		.byte	0x1
 3922 078f 08       		.byte	0x8
 3923 0790 FF       		.byte	0xff
 3924 0791 1A       		.byte	0x1a
 3925 0792 38       		.byte	0x38
 3926 0793 24       		.byte	0x24
 3927 0794 7B       		.byte	0x7b
 3928 0795 00       		.sleb128 0
 3929 0796 7A       		.byte	0x7a
 3930 0797 00       		.sleb128 0
 3931 0798 22       		.byte	0x22
 3932 0799 23       		.byte	0x23
 3933 079a 01       		.uleb128 0x1
 3934 079b 94       		.byte	0x94
 3935 079c 01       		.byte	0x1
 3936 079d 08       		.byte	0x8
 3937 079e FF       		.byte	0xff
 3938 079f 1A       		.byte	0x1a
 3939 07a0 21       		.byte	0x21
 3940 07a1 3C       		.byte	0x3c
 3941 07a2 25       		.byte	0x25
 3942 07a3 9F       		.byte	0x9f
 3943 07a4 DE000000 		.4byte	.LVL32
 3944 07a8 E8000000 		.4byte	.LVL36
 3945 07ac 0100     		.2byte	0x1
 3946 07ae 52       		.byte	0x52
 3947 07af EA000000 		.4byte	.LVL37
 3948 07b3 EE000000 		.4byte	.LVL38
 3949 07b7 0100     		.2byte	0x1
 3950 07b9 52       		.byte	0x52
 3951 07ba EE000000 		.4byte	.LVL38
 3952 07be 06010000 		.4byte	.LVL41
 3953 07c2 1C00     		.2byte	0x1c
 3954 07c4 7B       		.byte	0x7b
 3955 07c5 00       		.sleb128 0
 3956 07c6 7A       		.byte	0x7a
 3957 07c7 00       		.sleb128 0
 3958 07c8 22       		.byte	0x22
 3959 07c9 94       		.byte	0x94
 3960 07ca 01       		.byte	0x1
 3961 07cb 08       		.byte	0x8
ARM GAS  C:\Users\info\AppData\Local\Temp\ccl9i4Az.s 			page 119


 3962 07cc FF       		.byte	0xff
 3963 07cd 1A       		.byte	0x1a
 3964 07ce 38       		.byte	0x38
 3965 07cf 24       		.byte	0x24
 3966 07d0 7B       		.byte	0x7b
 3967 07d1 00       		.sleb128 0
 3968 07d2 7A       		.byte	0x7a
 3969 07d3 00       		.sleb128 0
 3970 07d4 22       		.byte	0x22
 3971 07d5 23       		.byte	0x23
 3972 07d6 01       		.uleb128 0x1
 3973 07d7 94       		.byte	0x94
 3974 07d8 01       		.byte	0x1
 3975 07d9 08       		.byte	0x8
 3976 07da FF       		.byte	0xff
 3977 07db 1A       		.byte	0x1a
 3978 07dc 21       		.byte	0x21
 3979 07dd 3C       		.byte	0x3c
 3980 07de 25       		.byte	0x25
 3981 07df 9F       		.byte	0x9f
 3982 07e0 0C010000 		.4byte	.LVL43
 3983 07e4 26010000 		.4byte	.LVL48
 3984 07e8 0100     		.2byte	0x1
 3985 07ea 52       		.byte	0x52
 3986 07eb 28010000 		.4byte	.LVL49
 3987 07ef 42010000 		.4byte	.LVL54
 3988 07f3 0100     		.2byte	0x1
 3989 07f5 52       		.byte	0x52
 3990 07f6 44010000 		.4byte	.LVL55
 3991 07fa 4E010000 		.4byte	.LVL56
 3992 07fe 0100     		.2byte	0x1
 3993 0800 52       		.byte	0x52
 3994 0801 4E010000 		.4byte	.LVL56
 3995 0805 66010000 		.4byte	.LVL60
 3996 0809 1C00     		.2byte	0x1c
 3997 080b 7B       		.byte	0x7b
 3998 080c 00       		.sleb128 0
 3999 080d 7A       		.byte	0x7a
 4000 080e 00       		.sleb128 0
 4001 080f 22       		.byte	0x22
 4002 0810 94       		.byte	0x94
 4003 0811 01       		.byte	0x1
 4004 0812 08       		.byte	0x8
 4005 0813 FF       		.byte	0xff
 4006 0814 1A       		.byte	0x1a
 4007 0815 38       		.byte	0x38
 4008 0816 24       		.byte	0x24
 4009 0817 7B       		.byte	0x7b
 4010 0818 00       		.sleb128 0
 4011 0819 7A       		.byte	0x7a
 4012 081a 00       		.sleb128 0
 4013 081b 22       		.byte	0x22
 4014 081c 23       		.byte	0x23
 4015 081d 01       		.uleb128 0x1
 4016 081e 94       		.byte	0x94
 4017 081f 01       		.byte	0x1
 4018 0820 08       		.byte	0x8
ARM GAS  C:\Users\info\AppData\Local\Temp\ccl9i4Az.s 			page 120


 4019 0821 FF       		.byte	0xff
 4020 0822 1A       		.byte	0x1a
 4021 0823 21       		.byte	0x21
 4022 0824 3C       		.byte	0x3c
 4023 0825 25       		.byte	0x25
 4024 0826 9F       		.byte	0x9f
 4025 0827 66010000 		.4byte	.LVL60
 4026 082b 6A010000 		.4byte	.LVL61
 4027 082f 1E00     		.2byte	0x1e
 4028 0831 7B       		.byte	0x7b
 4029 0832 00       		.sleb128 0
 4030 0833 7A       		.byte	0x7a
 4031 0834 00       		.sleb128 0
 4032 0835 22       		.byte	0x22
 4033 0836 32       		.byte	0x32
 4034 0837 1C       		.byte	0x1c
 4035 0838 94       		.byte	0x94
 4036 0839 01       		.byte	0x1
 4037 083a 08       		.byte	0x8
 4038 083b FF       		.byte	0xff
 4039 083c 1A       		.byte	0x1a
 4040 083d 38       		.byte	0x38
 4041 083e 24       		.byte	0x24
 4042 083f 7B       		.byte	0x7b
 4043 0840 00       		.sleb128 0
 4044 0841 7A       		.byte	0x7a
 4045 0842 00       		.sleb128 0
 4046 0843 22       		.byte	0x22
 4047 0844 31       		.byte	0x31
 4048 0845 1C       		.byte	0x1c
 4049 0846 94       		.byte	0x94
 4050 0847 01       		.byte	0x1
 4051 0848 08       		.byte	0x8
 4052 0849 FF       		.byte	0xff
 4053 084a 1A       		.byte	0x1a
 4054 084b 21       		.byte	0x21
 4055 084c 3C       		.byte	0x3c
 4056 084d 25       		.byte	0x25
 4057 084e 9F       		.byte	0x9f
 4058 084f 70010000 		.4byte	.LVL62
 4059 0853 7A010000 		.4byte	.LVL63
 4060 0857 0100     		.2byte	0x1
 4061 0859 52       		.byte	0x52
 4062 085a 7A010000 		.4byte	.LVL63
 4063 085e 92010000 		.4byte	.LVL67
 4064 0862 1C00     		.2byte	0x1c
 4065 0864 7B       		.byte	0x7b
 4066 0865 00       		.sleb128 0
 4067 0866 7A       		.byte	0x7a
 4068 0867 00       		.sleb128 0
 4069 0868 22       		.byte	0x22
 4070 0869 94       		.byte	0x94
 4071 086a 01       		.byte	0x1
 4072 086b 08       		.byte	0x8
 4073 086c FF       		.byte	0xff
 4074 086d 1A       		.byte	0x1a
 4075 086e 38       		.byte	0x38
ARM GAS  C:\Users\info\AppData\Local\Temp\ccl9i4Az.s 			page 121


 4076 086f 24       		.byte	0x24
 4077 0870 7B       		.byte	0x7b
 4078 0871 00       		.sleb128 0
 4079 0872 7A       		.byte	0x7a
 4080 0873 00       		.sleb128 0
 4081 0874 22       		.byte	0x22
 4082 0875 23       		.byte	0x23
 4083 0876 01       		.uleb128 0x1
 4084 0877 94       		.byte	0x94
 4085 0878 01       		.byte	0x1
 4086 0879 08       		.byte	0x8
 4087 087a FF       		.byte	0xff
 4088 087b 1A       		.byte	0x1a
 4089 087c 21       		.byte	0x21
 4090 087d 3C       		.byte	0x3c
 4091 087e 25       		.byte	0x25
 4092 087f 9F       		.byte	0x9f
 4093 0880 92010000 		.4byte	.LVL67
 4094 0884 96010000 		.4byte	.LVL68
 4095 0888 1E00     		.2byte	0x1e
 4096 088a 7B       		.byte	0x7b
 4097 088b 00       		.sleb128 0
 4098 088c 7A       		.byte	0x7a
 4099 088d 00       		.sleb128 0
 4100 088e 22       		.byte	0x22
 4101 088f 32       		.byte	0x32
 4102 0890 1C       		.byte	0x1c
 4103 0891 94       		.byte	0x94
 4104 0892 01       		.byte	0x1
 4105 0893 08       		.byte	0x8
 4106 0894 FF       		.byte	0xff
 4107 0895 1A       		.byte	0x1a
 4108 0896 38       		.byte	0x38
 4109 0897 24       		.byte	0x24
 4110 0898 7B       		.byte	0x7b
 4111 0899 00       		.sleb128 0
 4112 089a 7A       		.byte	0x7a
 4113 089b 00       		.sleb128 0
 4114 089c 22       		.byte	0x22
 4115 089d 31       		.byte	0x31
 4116 089e 1C       		.byte	0x1c
 4117 089f 94       		.byte	0x94
 4118 08a0 01       		.byte	0x1
 4119 08a1 08       		.byte	0x8
 4120 08a2 FF       		.byte	0xff
 4121 08a3 1A       		.byte	0x1a
 4122 08a4 21       		.byte	0x21
 4123 08a5 3C       		.byte	0x3c
 4124 08a6 25       		.byte	0x25
 4125 08a7 9F       		.byte	0x9f
 4126 08a8 9C010000 		.4byte	.LVL69
 4127 08ac A8010000 		.4byte	.LVL72
 4128 08b0 0100     		.2byte	0x1
 4129 08b2 52       		.byte	0x52
 4130 08b3 A8010000 		.4byte	.LVL72
 4131 08b7 AA010000 		.4byte	.LVL73
 4132 08bb 1C00     		.2byte	0x1c
ARM GAS  C:\Users\info\AppData\Local\Temp\ccl9i4Az.s 			page 122


 4133 08bd 7B       		.byte	0x7b
 4134 08be 00       		.sleb128 0
 4135 08bf 7A       		.byte	0x7a
 4136 08c0 00       		.sleb128 0
 4137 08c1 22       		.byte	0x22
 4138 08c2 94       		.byte	0x94
 4139 08c3 01       		.byte	0x1
 4140 08c4 08       		.byte	0x8
 4141 08c5 FF       		.byte	0xff
 4142 08c6 1A       		.byte	0x1a
 4143 08c7 38       		.byte	0x38
 4144 08c8 24       		.byte	0x24
 4145 08c9 7B       		.byte	0x7b
 4146 08ca 00       		.sleb128 0
 4147 08cb 7A       		.byte	0x7a
 4148 08cc 00       		.sleb128 0
 4149 08cd 22       		.byte	0x22
 4150 08ce 23       		.byte	0x23
 4151 08cf 01       		.uleb128 0x1
 4152 08d0 94       		.byte	0x94
 4153 08d1 01       		.byte	0x1
 4154 08d2 08       		.byte	0x8
 4155 08d3 FF       		.byte	0xff
 4156 08d4 1A       		.byte	0x1a
 4157 08d5 21       		.byte	0x21
 4158 08d6 3C       		.byte	0x3c
 4159 08d7 25       		.byte	0x25
 4160 08d8 9F       		.byte	0x9f
 4161 08d9 AA010000 		.4byte	.LVL73
 4162 08dd BC010000 		.4byte	.LVL77
 4163 08e1 0100     		.2byte	0x1
 4164 08e3 52       		.byte	0x52
 4165 08e4 BC010000 		.4byte	.LVL77
 4166 08e8 BE010000 		.4byte	.LVL78
 4167 08ec 1C00     		.2byte	0x1c
 4168 08ee 7B       		.byte	0x7b
 4169 08ef 00       		.sleb128 0
 4170 08f0 7A       		.byte	0x7a
 4171 08f1 00       		.sleb128 0
 4172 08f2 22       		.byte	0x22
 4173 08f3 94       		.byte	0x94
 4174 08f4 01       		.byte	0x1
 4175 08f5 08       		.byte	0x8
 4176 08f6 FF       		.byte	0xff
 4177 08f7 1A       		.byte	0x1a
 4178 08f8 38       		.byte	0x38
 4179 08f9 24       		.byte	0x24
 4180 08fa 7B       		.byte	0x7b
 4181 08fb 00       		.sleb128 0
 4182 08fc 7A       		.byte	0x7a
 4183 08fd 00       		.sleb128 0
 4184 08fe 22       		.byte	0x22
 4185 08ff 23       		.byte	0x23
 4186 0900 01       		.uleb128 0x1
 4187 0901 94       		.byte	0x94
 4188 0902 01       		.byte	0x1
 4189 0903 08       		.byte	0x8
ARM GAS  C:\Users\info\AppData\Local\Temp\ccl9i4Az.s 			page 123


 4190 0904 FF       		.byte	0xff
 4191 0905 1A       		.byte	0x1a
 4192 0906 21       		.byte	0x21
 4193 0907 3C       		.byte	0x3c
 4194 0908 25       		.byte	0x25
 4195 0909 9F       		.byte	0x9f
 4196 090a BE010000 		.4byte	.LVL78
 4197 090e CA010000 		.4byte	.LVL79
 4198 0912 0100     		.2byte	0x1
 4199 0914 52       		.byte	0x52
 4200 0915 CA010000 		.4byte	.LVL79
 4201 0919 00030000 		.4byte	.LVL117
 4202 091d 1C00     		.2byte	0x1c
 4203 091f 7B       		.byte	0x7b
 4204 0920 00       		.sleb128 0
 4205 0921 7A       		.byte	0x7a
 4206 0922 00       		.sleb128 0
 4207 0923 22       		.byte	0x22
 4208 0924 94       		.byte	0x94
 4209 0925 01       		.byte	0x1
 4210 0926 08       		.byte	0x8
 4211 0927 FF       		.byte	0xff
 4212 0928 1A       		.byte	0x1a
 4213 0929 38       		.byte	0x38
 4214 092a 24       		.byte	0x24
 4215 092b 7B       		.byte	0x7b
 4216 092c 00       		.sleb128 0
 4217 092d 7A       		.byte	0x7a
 4218 092e 00       		.sleb128 0
 4219 092f 22       		.byte	0x22
 4220 0930 23       		.byte	0x23
 4221 0931 01       		.uleb128 0x1
 4222 0932 94       		.byte	0x94
 4223 0933 01       		.byte	0x1
 4224 0934 08       		.byte	0x8
 4225 0935 FF       		.byte	0xff
 4226 0936 1A       		.byte	0x1a
 4227 0937 21       		.byte	0x21
 4228 0938 3C       		.byte	0x3c
 4229 0939 25       		.byte	0x25
 4230 093a 9F       		.byte	0x9f
 4231 093b 00030000 		.4byte	.LVL117
 4232 093f 06030000 		.4byte	.LVL119
 4233 0943 0100     		.2byte	0x1
 4234 0945 52       		.byte	0x52
 4235 0946 06030000 		.4byte	.LVL119
 4236 094a 08030000 		.4byte	.LVL120
 4237 094e 1C00     		.2byte	0x1c
 4238 0950 7B       		.byte	0x7b
 4239 0951 00       		.sleb128 0
 4240 0952 7A       		.byte	0x7a
 4241 0953 00       		.sleb128 0
 4242 0954 22       		.byte	0x22
 4243 0955 94       		.byte	0x94
 4244 0956 01       		.byte	0x1
 4245 0957 08       		.byte	0x8
 4246 0958 FF       		.byte	0xff
ARM GAS  C:\Users\info\AppData\Local\Temp\ccl9i4Az.s 			page 124


 4247 0959 1A       		.byte	0x1a
 4248 095a 38       		.byte	0x38
 4249 095b 24       		.byte	0x24
 4250 095c 7B       		.byte	0x7b
 4251 095d 00       		.sleb128 0
 4252 095e 7A       		.byte	0x7a
 4253 095f 00       		.sleb128 0
 4254 0960 22       		.byte	0x22
 4255 0961 23       		.byte	0x23
 4256 0962 01       		.uleb128 0x1
 4257 0963 94       		.byte	0x94
 4258 0964 01       		.byte	0x1
 4259 0965 08       		.byte	0x8
 4260 0966 FF       		.byte	0xff
 4261 0967 1A       		.byte	0x1a
 4262 0968 21       		.byte	0x21
 4263 0969 3C       		.byte	0x3c
 4264 096a 25       		.byte	0x25
 4265 096b 9F       		.byte	0x9f
 4266 096c 08030000 		.4byte	.LVL120
 4267 0970 0B030000 		.4byte	.LVL121-1
 4268 0974 0100     		.2byte	0x1
 4269 0976 52       		.byte	0x52
 4270 0977 EC030000 		.4byte	.LVL130
 4271 097b EE030000 		.4byte	.LVL131
 4272 097f 0100     		.2byte	0x1
 4273 0981 52       		.byte	0x52
 4274 0982 EE030000 		.4byte	.LVL131
 4275 0986 04040000 		.4byte	.LVL134
 4276 098a 1C00     		.2byte	0x1c
 4277 098c 7B       		.byte	0x7b
 4278 098d 00       		.sleb128 0
 4279 098e 7A       		.byte	0x7a
 4280 098f 00       		.sleb128 0
 4281 0990 22       		.byte	0x22
 4282 0991 94       		.byte	0x94
 4283 0992 01       		.byte	0x1
 4284 0993 08       		.byte	0x8
 4285 0994 FF       		.byte	0xff
 4286 0995 1A       		.byte	0x1a
 4287 0996 38       		.byte	0x38
 4288 0997 24       		.byte	0x24
 4289 0998 7B       		.byte	0x7b
 4290 0999 00       		.sleb128 0
 4291 099a 7A       		.byte	0x7a
 4292 099b 00       		.sleb128 0
 4293 099c 22       		.byte	0x22
 4294 099d 23       		.byte	0x23
 4295 099e 01       		.uleb128 0x1
 4296 099f 94       		.byte	0x94
 4297 09a0 01       		.byte	0x1
 4298 09a1 08       		.byte	0x8
 4299 09a2 FF       		.byte	0xff
 4300 09a3 1A       		.byte	0x1a
 4301 09a4 21       		.byte	0x21
 4302 09a5 3C       		.byte	0x3c
 4303 09a6 25       		.byte	0x25
ARM GAS  C:\Users\info\AppData\Local\Temp\ccl9i4Az.s 			page 125


 4304 09a7 9F       		.byte	0x9f
 4305 09a8 04040000 		.4byte	.LVL134
 4306 09ac 06040000 		.4byte	.LVL135
 4307 09b0 2000     		.2byte	0x20
 4308 09b2 7B       		.byte	0x7b
 4309 09b3 00       		.sleb128 0
 4310 09b4 91       		.byte	0x91
 4311 09b5 9C7F     		.sleb128 -100
 4312 09b7 06       		.byte	0x6
 4313 09b8 22       		.byte	0x22
 4314 09b9 94       		.byte	0x94
 4315 09ba 01       		.byte	0x1
 4316 09bb 08       		.byte	0x8
 4317 09bc FF       		.byte	0xff
 4318 09bd 1A       		.byte	0x1a
 4319 09be 38       		.byte	0x38
 4320 09bf 24       		.byte	0x24
 4321 09c0 7B       		.byte	0x7b
 4322 09c1 00       		.sleb128 0
 4323 09c2 91       		.byte	0x91
 4324 09c3 9C7F     		.sleb128 -100
 4325 09c5 06       		.byte	0x6
 4326 09c6 22       		.byte	0x22
 4327 09c7 23       		.byte	0x23
 4328 09c8 01       		.uleb128 0x1
 4329 09c9 94       		.byte	0x94
 4330 09ca 01       		.byte	0x1
 4331 09cb 08       		.byte	0x8
 4332 09cc FF       		.byte	0xff
 4333 09cd 1A       		.byte	0x1a
 4334 09ce 21       		.byte	0x21
 4335 09cf 3C       		.byte	0x3c
 4336 09d0 25       		.byte	0x25
 4337 09d1 9F       		.byte	0x9f
 4338 09d2 34040000 		.4byte	.LVL138
 4339 09d6 49040000 		.4byte	.LVL141-1
 4340 09da 0100     		.2byte	0x1
 4341 09dc 52       		.byte	0x52
 4342 09dd 5E040000 		.4byte	.LVL144
 4343 09e1 69040000 		.4byte	.LVL147-1
 4344 09e5 0100     		.2byte	0x1
 4345 09e7 52       		.byte	0x52
 4346 09e8 7E040000 		.4byte	.LVL150
 4347 09ec B6040000 		.4byte	.LVL152
 4348 09f0 0100     		.2byte	0x1
 4349 09f2 52       		.byte	0x52
 4350 09f3 B6040000 		.4byte	.LVL152
 4351 09f7 C2040000 		.4byte	.LVL154
 4352 09fb 1C00     		.2byte	0x1c
 4353 09fd 7B       		.byte	0x7b
 4354 09fe 00       		.sleb128 0
 4355 09ff 7A       		.byte	0x7a
 4356 0a00 00       		.sleb128 0
 4357 0a01 22       		.byte	0x22
 4358 0a02 94       		.byte	0x94
 4359 0a03 01       		.byte	0x1
 4360 0a04 08       		.byte	0x8
ARM GAS  C:\Users\info\AppData\Local\Temp\ccl9i4Az.s 			page 126


 4361 0a05 FF       		.byte	0xff
 4362 0a06 1A       		.byte	0x1a
 4363 0a07 38       		.byte	0x38
 4364 0a08 24       		.byte	0x24
 4365 0a09 7B       		.byte	0x7b
 4366 0a0a 00       		.sleb128 0
 4367 0a0b 7A       		.byte	0x7a
 4368 0a0c 00       		.sleb128 0
 4369 0a0d 22       		.byte	0x22
 4370 0a0e 23       		.byte	0x23
 4371 0a0f 01       		.uleb128 0x1
 4372 0a10 94       		.byte	0x94
 4373 0a11 01       		.byte	0x1
 4374 0a12 08       		.byte	0x8
 4375 0a13 FF       		.byte	0xff
 4376 0a14 1A       		.byte	0x1a
 4377 0a15 21       		.byte	0x21
 4378 0a16 3C       		.byte	0x3c
 4379 0a17 25       		.byte	0x25
 4380 0a18 9F       		.byte	0x9f
 4381 0a19 C2040000 		.4byte	.LVL154
 4382 0a1d C5040000 		.4byte	.LVL155-1
 4383 0a21 0100     		.2byte	0x1
 4384 0a23 52       		.byte	0x52
 4385 0a24 D4040000 		.4byte	.LVL157
 4386 0a28 DE040000 		.4byte	.LVL160
 4387 0a2c 0100     		.2byte	0x1
 4388 0a2e 52       		.byte	0x52
 4389 0a2f DE040000 		.4byte	.LVL160
 4390 0a33 E0040000 		.4byte	.LVL161
 4391 0a37 1C00     		.2byte	0x1c
 4392 0a39 7B       		.byte	0x7b
 4393 0a3a 00       		.sleb128 0
 4394 0a3b 7A       		.byte	0x7a
 4395 0a3c 00       		.sleb128 0
 4396 0a3d 22       		.byte	0x22
 4397 0a3e 94       		.byte	0x94
 4398 0a3f 01       		.byte	0x1
 4399 0a40 08       		.byte	0x8
 4400 0a41 FF       		.byte	0xff
 4401 0a42 1A       		.byte	0x1a
 4402 0a43 38       		.byte	0x38
 4403 0a44 24       		.byte	0x24
 4404 0a45 7B       		.byte	0x7b
 4405 0a46 00       		.sleb128 0
 4406 0a47 7A       		.byte	0x7a
 4407 0a48 00       		.sleb128 0
 4408 0a49 22       		.byte	0x22
 4409 0a4a 23       		.byte	0x23
 4410 0a4b 01       		.uleb128 0x1
 4411 0a4c 94       		.byte	0x94
 4412 0a4d 01       		.byte	0x1
 4413 0a4e 08       		.byte	0x8
 4414 0a4f FF       		.byte	0xff
 4415 0a50 1A       		.byte	0x1a
 4416 0a51 21       		.byte	0x21
 4417 0a52 3C       		.byte	0x3c
ARM GAS  C:\Users\info\AppData\Local\Temp\ccl9i4Az.s 			page 127


 4418 0a53 25       		.byte	0x25
 4419 0a54 9F       		.byte	0x9f
 4420 0a55 E6040000 		.4byte	.LVL162
 4421 0a59 F0040000 		.4byte	.LVL165
 4422 0a5d 0100     		.2byte	0x1
 4423 0a5f 52       		.byte	0x52
 4424 0a60 F0040000 		.4byte	.LVL165
 4425 0a64 F2040000 		.4byte	.LVL166
 4426 0a68 1C00     		.2byte	0x1c
 4427 0a6a 7B       		.byte	0x7b
 4428 0a6b 00       		.sleb128 0
 4429 0a6c 7A       		.byte	0x7a
 4430 0a6d 00       		.sleb128 0
 4431 0a6e 22       		.byte	0x22
 4432 0a6f 94       		.byte	0x94
 4433 0a70 01       		.byte	0x1
 4434 0a71 08       		.byte	0x8
 4435 0a72 FF       		.byte	0xff
 4436 0a73 1A       		.byte	0x1a
 4437 0a74 38       		.byte	0x38
 4438 0a75 24       		.byte	0x24
 4439 0a76 7B       		.byte	0x7b
 4440 0a77 00       		.sleb128 0
 4441 0a78 7A       		.byte	0x7a
 4442 0a79 00       		.sleb128 0
 4443 0a7a 22       		.byte	0x22
 4444 0a7b 23       		.byte	0x23
 4445 0a7c 01       		.uleb128 0x1
 4446 0a7d 94       		.byte	0x94
 4447 0a7e 01       		.byte	0x1
 4448 0a7f 08       		.byte	0x8
 4449 0a80 FF       		.byte	0xff
 4450 0a81 1A       		.byte	0x1a
 4451 0a82 21       		.byte	0x21
 4452 0a83 3C       		.byte	0x3c
 4453 0a84 25       		.byte	0x25
 4454 0a85 9F       		.byte	0x9f
 4455 0a86 F8040000 		.4byte	.LVL167
 4456 0a8a 02050000 		.4byte	.LVL170
 4457 0a8e 0100     		.2byte	0x1
 4458 0a90 52       		.byte	0x52
 4459 0a91 02050000 		.4byte	.LVL170
 4460 0a95 0E050000 		.4byte	.LVL172
 4461 0a99 1C00     		.2byte	0x1c
 4462 0a9b 7B       		.byte	0x7b
 4463 0a9c 00       		.sleb128 0
 4464 0a9d 7A       		.byte	0x7a
 4465 0a9e 00       		.sleb128 0
 4466 0a9f 22       		.byte	0x22
 4467 0aa0 94       		.byte	0x94
 4468 0aa1 01       		.byte	0x1
 4469 0aa2 08       		.byte	0x8
 4470 0aa3 FF       		.byte	0xff
 4471 0aa4 1A       		.byte	0x1a
 4472 0aa5 38       		.byte	0x38
 4473 0aa6 24       		.byte	0x24
 4474 0aa7 7B       		.byte	0x7b
ARM GAS  C:\Users\info\AppData\Local\Temp\ccl9i4Az.s 			page 128


 4475 0aa8 00       		.sleb128 0
 4476 0aa9 7A       		.byte	0x7a
 4477 0aaa 00       		.sleb128 0
 4478 0aab 22       		.byte	0x22
 4479 0aac 23       		.byte	0x23
 4480 0aad 01       		.uleb128 0x1
 4481 0aae 94       		.byte	0x94
 4482 0aaf 01       		.byte	0x1
 4483 0ab0 08       		.byte	0x8
 4484 0ab1 FF       		.byte	0xff
 4485 0ab2 1A       		.byte	0x1a
 4486 0ab3 21       		.byte	0x21
 4487 0ab4 3C       		.byte	0x3c
 4488 0ab5 25       		.byte	0x25
 4489 0ab6 9F       		.byte	0x9f
 4490 0ab7 0E050000 		.4byte	.LVL172
 4491 0abb 24050000 		.4byte	.LVL176
 4492 0abf 0100     		.2byte	0x1
 4493 0ac1 52       		.byte	0x52
 4494 0ac2 24050000 		.4byte	.LVL176
 4495 0ac6 26050000 		.4byte	.LVL177
 4496 0aca 1C00     		.2byte	0x1c
 4497 0acc 7B       		.byte	0x7b
 4498 0acd 00       		.sleb128 0
 4499 0ace 7A       		.byte	0x7a
 4500 0acf 00       		.sleb128 0
 4501 0ad0 22       		.byte	0x22
 4502 0ad1 94       		.byte	0x94
 4503 0ad2 01       		.byte	0x1
 4504 0ad3 08       		.byte	0x8
 4505 0ad4 FF       		.byte	0xff
 4506 0ad5 1A       		.byte	0x1a
 4507 0ad6 38       		.byte	0x38
 4508 0ad7 24       		.byte	0x24
 4509 0ad8 7B       		.byte	0x7b
 4510 0ad9 00       		.sleb128 0
 4511 0ada 7A       		.byte	0x7a
 4512 0adb 00       		.sleb128 0
 4513 0adc 22       		.byte	0x22
 4514 0add 23       		.byte	0x23
 4515 0ade 01       		.uleb128 0x1
 4516 0adf 94       		.byte	0x94
 4517 0ae0 01       		.byte	0x1
 4518 0ae1 08       		.byte	0x8
 4519 0ae2 FF       		.byte	0xff
 4520 0ae3 1A       		.byte	0x1a
 4521 0ae4 21       		.byte	0x21
 4522 0ae5 3C       		.byte	0x3c
 4523 0ae6 25       		.byte	0x25
 4524 0ae7 9F       		.byte	0x9f
 4525 0ae8 26050000 		.4byte	.LVL177
 4526 0aec 30050000 		.4byte	.LVL181
 4527 0af0 0100     		.2byte	0x1
 4528 0af2 52       		.byte	0x52
 4529 0af3 30050000 		.4byte	.LVL181
 4530 0af7 3E050000 		.4byte	.LVL182
 4531 0afb 1C00     		.2byte	0x1c
ARM GAS  C:\Users\info\AppData\Local\Temp\ccl9i4Az.s 			page 129


 4532 0afd 7B       		.byte	0x7b
 4533 0afe 00       		.sleb128 0
 4534 0aff 7A       		.byte	0x7a
 4535 0b00 00       		.sleb128 0
 4536 0b01 22       		.byte	0x22
 4537 0b02 94       		.byte	0x94
 4538 0b03 01       		.byte	0x1
 4539 0b04 08       		.byte	0x8
 4540 0b05 FF       		.byte	0xff
 4541 0b06 1A       		.byte	0x1a
 4542 0b07 38       		.byte	0x38
 4543 0b08 24       		.byte	0x24
 4544 0b09 7B       		.byte	0x7b
 4545 0b0a 00       		.sleb128 0
 4546 0b0b 7A       		.byte	0x7a
 4547 0b0c 00       		.sleb128 0
 4548 0b0d 22       		.byte	0x22
 4549 0b0e 23       		.byte	0x23
 4550 0b0f 01       		.uleb128 0x1
 4551 0b10 94       		.byte	0x94
 4552 0b11 01       		.byte	0x1
 4553 0b12 08       		.byte	0x8
 4554 0b13 FF       		.byte	0xff
 4555 0b14 1A       		.byte	0x1a
 4556 0b15 21       		.byte	0x21
 4557 0b16 3C       		.byte	0x3c
 4558 0b17 25       		.byte	0x25
 4559 0b18 9F       		.byte	0x9f
 4560 0b19 82050000 		.4byte	.LVL187
 4561 0b1d 86050000 		.4byte	.LVL189
 4562 0b21 0100     		.2byte	0x1
 4563 0b23 52       		.byte	0x52
 4564 0b24 90050000 		.4byte	.LVL191
 4565 0b28 A4050000 		.4byte	.LVL194
 4566 0b2c 1C00     		.2byte	0x1c
 4567 0b2e 7B       		.byte	0x7b
 4568 0b2f 00       		.sleb128 0
 4569 0b30 7A       		.byte	0x7a
 4570 0b31 00       		.sleb128 0
 4571 0b32 22       		.byte	0x22
 4572 0b33 94       		.byte	0x94
 4573 0b34 01       		.byte	0x1
 4574 0b35 08       		.byte	0x8
 4575 0b36 FF       		.byte	0xff
 4576 0b37 1A       		.byte	0x1a
 4577 0b38 38       		.byte	0x38
 4578 0b39 24       		.byte	0x24
 4579 0b3a 7B       		.byte	0x7b
 4580 0b3b 00       		.sleb128 0
 4581 0b3c 7A       		.byte	0x7a
 4582 0b3d 00       		.sleb128 0
 4583 0b3e 22       		.byte	0x22
 4584 0b3f 23       		.byte	0x23
 4585 0b40 01       		.uleb128 0x1
 4586 0b41 94       		.byte	0x94
 4587 0b42 01       		.byte	0x1
 4588 0b43 08       		.byte	0x8
ARM GAS  C:\Users\info\AppData\Local\Temp\ccl9i4Az.s 			page 130


 4589 0b44 FF       		.byte	0xff
 4590 0b45 1A       		.byte	0x1a
 4591 0b46 21       		.byte	0x21
 4592 0b47 3C       		.byte	0x3c
 4593 0b48 25       		.byte	0x25
 4594 0b49 9F       		.byte	0x9f
 4595 0b4a A4050000 		.4byte	.LVL194
 4596 0b4e A8050000 		.4byte	.LVL196
 4597 0b52 0100     		.2byte	0x1
 4598 0b54 52       		.byte	0x52
 4599 0b55 A8050000 		.4byte	.LVL196
 4600 0b59 B2050000 		.4byte	.LVL198
 4601 0b5d 1C00     		.2byte	0x1c
 4602 0b5f 7B       		.byte	0x7b
 4603 0b60 00       		.sleb128 0
 4604 0b61 7A       		.byte	0x7a
 4605 0b62 00       		.sleb128 0
 4606 0b63 22       		.byte	0x22
 4607 0b64 94       		.byte	0x94
 4608 0b65 01       		.byte	0x1
 4609 0b66 08       		.byte	0x8
 4610 0b67 FF       		.byte	0xff
 4611 0b68 1A       		.byte	0x1a
 4612 0b69 38       		.byte	0x38
 4613 0b6a 24       		.byte	0x24
 4614 0b6b 7B       		.byte	0x7b
 4615 0b6c 00       		.sleb128 0
 4616 0b6d 7A       		.byte	0x7a
 4617 0b6e 00       		.sleb128 0
 4618 0b6f 22       		.byte	0x22
 4619 0b70 23       		.byte	0x23
 4620 0b71 01       		.uleb128 0x1
 4621 0b72 94       		.byte	0x94
 4622 0b73 01       		.byte	0x1
 4623 0b74 08       		.byte	0x8
 4624 0b75 FF       		.byte	0xff
 4625 0b76 1A       		.byte	0x1a
 4626 0b77 21       		.byte	0x21
 4627 0b78 3C       		.byte	0x3c
 4628 0b79 25       		.byte	0x25
 4629 0b7a 9F       		.byte	0x9f
 4630 0b7b B2050000 		.4byte	.LVL198
 4631 0b7f B8050000 		.4byte	.LVL201
 4632 0b83 0100     		.2byte	0x1
 4633 0b85 52       		.byte	0x52
 4634 0b86 BA050000 		.4byte	.LVL202
 4635 0b8a BE050000 		.4byte	.LVL204
 4636 0b8e 0100     		.2byte	0x1
 4637 0b90 52       		.byte	0x52
 4638 0b91 BE050000 		.4byte	.LVL204
 4639 0b95 C0050000 		.4byte	.LVL205
 4640 0b99 1C00     		.2byte	0x1c
 4641 0b9b 7B       		.byte	0x7b
 4642 0b9c 00       		.sleb128 0
 4643 0b9d 7A       		.byte	0x7a
 4644 0b9e 00       		.sleb128 0
 4645 0b9f 22       		.byte	0x22
ARM GAS  C:\Users\info\AppData\Local\Temp\ccl9i4Az.s 			page 131


 4646 0ba0 94       		.byte	0x94
 4647 0ba1 01       		.byte	0x1
 4648 0ba2 08       		.byte	0x8
 4649 0ba3 FF       		.byte	0xff
 4650 0ba4 1A       		.byte	0x1a
 4651 0ba5 38       		.byte	0x38
 4652 0ba6 24       		.byte	0x24
 4653 0ba7 7B       		.byte	0x7b
 4654 0ba8 00       		.sleb128 0
 4655 0ba9 7A       		.byte	0x7a
 4656 0baa 00       		.sleb128 0
 4657 0bab 22       		.byte	0x22
 4658 0bac 23       		.byte	0x23
 4659 0bad 01       		.uleb128 0x1
 4660 0bae 94       		.byte	0x94
 4661 0baf 01       		.byte	0x1
 4662 0bb0 08       		.byte	0x8
 4663 0bb1 FF       		.byte	0xff
 4664 0bb2 1A       		.byte	0x1a
 4665 0bb3 21       		.byte	0x21
 4666 0bb4 3C       		.byte	0x3c
 4667 0bb5 25       		.byte	0x25
 4668 0bb6 9F       		.byte	0x9f
 4669 0bb7 C0050000 		.4byte	.LVL205
 4670 0bbb C4050000 		.4byte	.LVL207
 4671 0bbf 0100     		.2byte	0x1
 4672 0bc1 52       		.byte	0x52
 4673 0bc2 C4050000 		.4byte	.LVL207
 4674 0bc6 C8050000 		.4byte	.LVL208
 4675 0bca 1C00     		.2byte	0x1c
 4676 0bcc 7B       		.byte	0x7b
 4677 0bcd 00       		.sleb128 0
 4678 0bce 7A       		.byte	0x7a
 4679 0bcf 00       		.sleb128 0
 4680 0bd0 22       		.byte	0x22
 4681 0bd1 94       		.byte	0x94
 4682 0bd2 01       		.byte	0x1
 4683 0bd3 08       		.byte	0x8
 4684 0bd4 FF       		.byte	0xff
 4685 0bd5 1A       		.byte	0x1a
 4686 0bd6 38       		.byte	0x38
 4687 0bd7 24       		.byte	0x24
 4688 0bd8 7B       		.byte	0x7b
 4689 0bd9 00       		.sleb128 0
 4690 0bda 7A       		.byte	0x7a
 4691 0bdb 00       		.sleb128 0
 4692 0bdc 22       		.byte	0x22
 4693 0bdd 23       		.byte	0x23
 4694 0bde 01       		.uleb128 0x1
 4695 0bdf 94       		.byte	0x94
 4696 0be0 01       		.byte	0x1
 4697 0be1 08       		.byte	0x8
 4698 0be2 FF       		.byte	0xff
 4699 0be3 1A       		.byte	0x1a
 4700 0be4 21       		.byte	0x21
 4701 0be5 3C       		.byte	0x3c
 4702 0be6 25       		.byte	0x25
ARM GAS  C:\Users\info\AppData\Local\Temp\ccl9i4Az.s 			page 132


 4703 0be7 9F       		.byte	0x9f
 4704 0be8 CE050000 		.4byte	.LVL210
 4705 0bec D2050000 		.4byte	.LVL211
 4706 0bf0 0100     		.2byte	0x1
 4707 0bf2 52       		.byte	0x52
 4708 0bf3 D2050000 		.4byte	.LVL211
 4709 0bf7 D4050000 		.4byte	.LVL212
 4710 0bfb 1C00     		.2byte	0x1c
 4711 0bfd 7B       		.byte	0x7b
 4712 0bfe 00       		.sleb128 0
 4713 0bff 7A       		.byte	0x7a
 4714 0c00 00       		.sleb128 0
 4715 0c01 22       		.byte	0x22
 4716 0c02 94       		.byte	0x94
 4717 0c03 01       		.byte	0x1
 4718 0c04 08       		.byte	0x8
 4719 0c05 FF       		.byte	0xff
 4720 0c06 1A       		.byte	0x1a
 4721 0c07 38       		.byte	0x38
 4722 0c08 24       		.byte	0x24
 4723 0c09 7B       		.byte	0x7b
 4724 0c0a 00       		.sleb128 0
 4725 0c0b 7A       		.byte	0x7a
 4726 0c0c 00       		.sleb128 0
 4727 0c0d 22       		.byte	0x22
 4728 0c0e 23       		.byte	0x23
 4729 0c0f 01       		.uleb128 0x1
 4730 0c10 94       		.byte	0x94
 4731 0c11 01       		.byte	0x1
 4732 0c12 08       		.byte	0x8
 4733 0c13 FF       		.byte	0xff
 4734 0c14 1A       		.byte	0x1a
 4735 0c15 21       		.byte	0x21
 4736 0c16 3C       		.byte	0x3c
 4737 0c17 25       		.byte	0x25
 4738 0c18 9F       		.byte	0x9f
 4739 0c19 D4050000 		.4byte	.LVL212
 4740 0c1d D8050000 		.4byte	.LVL213
 4741 0c21 0100     		.2byte	0x1
 4742 0c23 52       		.byte	0x52
 4743 0c24 D8050000 		.4byte	.LVL213
 4744 0c28 DA050000 		.4byte	.LVL214
 4745 0c2c 1C00     		.2byte	0x1c
 4746 0c2e 7B       		.byte	0x7b
 4747 0c2f 00       		.sleb128 0
 4748 0c30 7A       		.byte	0x7a
 4749 0c31 00       		.sleb128 0
 4750 0c32 22       		.byte	0x22
 4751 0c33 94       		.byte	0x94
 4752 0c34 01       		.byte	0x1
 4753 0c35 08       		.byte	0x8
 4754 0c36 FF       		.byte	0xff
 4755 0c37 1A       		.byte	0x1a
 4756 0c38 38       		.byte	0x38
 4757 0c39 24       		.byte	0x24
 4758 0c3a 7B       		.byte	0x7b
 4759 0c3b 00       		.sleb128 0
ARM GAS  C:\Users\info\AppData\Local\Temp\ccl9i4Az.s 			page 133


 4760 0c3c 7A       		.byte	0x7a
 4761 0c3d 00       		.sleb128 0
 4762 0c3e 22       		.byte	0x22
 4763 0c3f 23       		.byte	0x23
 4764 0c40 01       		.uleb128 0x1
 4765 0c41 94       		.byte	0x94
 4766 0c42 01       		.byte	0x1
 4767 0c43 08       		.byte	0x8
 4768 0c44 FF       		.byte	0xff
 4769 0c45 1A       		.byte	0x1a
 4770 0c46 21       		.byte	0x21
 4771 0c47 3C       		.byte	0x3c
 4772 0c48 25       		.byte	0x25
 4773 0c49 9F       		.byte	0x9f
 4774 0c4a DA050000 		.4byte	.LVL214
 4775 0c4e DE050000 		.4byte	.LVL216
 4776 0c52 0100     		.2byte	0x1
 4777 0c54 52       		.byte	0x52
 4778 0c55 DE050000 		.4byte	.LVL216
 4779 0c59 E6050000 		.4byte	.LVL218
 4780 0c5d 1C00     		.2byte	0x1c
 4781 0c5f 7B       		.byte	0x7b
 4782 0c60 00       		.sleb128 0
 4783 0c61 7A       		.byte	0x7a
 4784 0c62 00       		.sleb128 0
 4785 0c63 22       		.byte	0x22
 4786 0c64 94       		.byte	0x94
 4787 0c65 01       		.byte	0x1
 4788 0c66 08       		.byte	0x8
 4789 0c67 FF       		.byte	0xff
 4790 0c68 1A       		.byte	0x1a
 4791 0c69 38       		.byte	0x38
 4792 0c6a 24       		.byte	0x24
 4793 0c6b 7B       		.byte	0x7b
 4794 0c6c 00       		.sleb128 0
 4795 0c6d 7A       		.byte	0x7a
 4796 0c6e 00       		.sleb128 0
 4797 0c6f 22       		.byte	0x22
 4798 0c70 23       		.byte	0x23
 4799 0c71 01       		.uleb128 0x1
 4800 0c72 94       		.byte	0x94
 4801 0c73 01       		.byte	0x1
 4802 0c74 08       		.byte	0x8
 4803 0c75 FF       		.byte	0xff
 4804 0c76 1A       		.byte	0x1a
 4805 0c77 21       		.byte	0x21
 4806 0c78 3C       		.byte	0x3c
 4807 0c79 25       		.byte	0x25
 4808 0c7a 9F       		.byte	0x9f
 4809 0c7b E6050000 		.4byte	.LVL218
 4810 0c7f EA050000 		.4byte	.LVL220
 4811 0c83 0100     		.2byte	0x1
 4812 0c85 52       		.byte	0x52
 4813 0c86 EA050000 		.4byte	.LVL220
 4814 0c8a F8050000 		.4byte	.LVL224
 4815 0c8e 1C00     		.2byte	0x1c
 4816 0c90 7B       		.byte	0x7b
ARM GAS  C:\Users\info\AppData\Local\Temp\ccl9i4Az.s 			page 134


 4817 0c91 00       		.sleb128 0
 4818 0c92 7A       		.byte	0x7a
 4819 0c93 00       		.sleb128 0
 4820 0c94 22       		.byte	0x22
 4821 0c95 94       		.byte	0x94
 4822 0c96 01       		.byte	0x1
 4823 0c97 08       		.byte	0x8
 4824 0c98 FF       		.byte	0xff
 4825 0c99 1A       		.byte	0x1a
 4826 0c9a 38       		.byte	0x38
 4827 0c9b 24       		.byte	0x24
 4828 0c9c 7B       		.byte	0x7b
 4829 0c9d 00       		.sleb128 0
 4830 0c9e 7A       		.byte	0x7a
 4831 0c9f 00       		.sleb128 0
 4832 0ca0 22       		.byte	0x22
 4833 0ca1 23       		.byte	0x23
 4834 0ca2 01       		.uleb128 0x1
 4835 0ca3 94       		.byte	0x94
 4836 0ca4 01       		.byte	0x1
 4837 0ca5 08       		.byte	0x8
 4838 0ca6 FF       		.byte	0xff
 4839 0ca7 1A       		.byte	0x1a
 4840 0ca8 21       		.byte	0x21
 4841 0ca9 3C       		.byte	0x3c
 4842 0caa 25       		.byte	0x25
 4843 0cab 9F       		.byte	0x9f
 4844 0cac F8050000 		.4byte	.LVL224
 4845 0cb0 FC050000 		.4byte	.LVL226
 4846 0cb4 0100     		.2byte	0x1
 4847 0cb6 52       		.byte	0x52
 4848 0cb7 FC050000 		.4byte	.LVL226
 4849 0cbb FE050000 		.4byte	.LVL227
 4850 0cbf 1C00     		.2byte	0x1c
 4851 0cc1 7B       		.byte	0x7b
 4852 0cc2 00       		.sleb128 0
 4853 0cc3 7A       		.byte	0x7a
 4854 0cc4 00       		.sleb128 0
 4855 0cc5 22       		.byte	0x22
 4856 0cc6 94       		.byte	0x94
 4857 0cc7 01       		.byte	0x1
 4858 0cc8 08       		.byte	0x8
 4859 0cc9 FF       		.byte	0xff
 4860 0cca 1A       		.byte	0x1a
 4861 0ccb 38       		.byte	0x38
 4862 0ccc 24       		.byte	0x24
 4863 0ccd 7B       		.byte	0x7b
 4864 0cce 00       		.sleb128 0
 4865 0ccf 7A       		.byte	0x7a
 4866 0cd0 00       		.sleb128 0
 4867 0cd1 22       		.byte	0x22
 4868 0cd2 23       		.byte	0x23
 4869 0cd3 01       		.uleb128 0x1
 4870 0cd4 94       		.byte	0x94
 4871 0cd5 01       		.byte	0x1
 4872 0cd6 08       		.byte	0x8
 4873 0cd7 FF       		.byte	0xff
ARM GAS  C:\Users\info\AppData\Local\Temp\ccl9i4Az.s 			page 135


 4874 0cd8 1A       		.byte	0x1a
 4875 0cd9 21       		.byte	0x21
 4876 0cda 3C       		.byte	0x3c
 4877 0cdb 25       		.byte	0x25
 4878 0cdc 9F       		.byte	0x9f
 4879 0cdd 0A060000 		.4byte	.LVL228
 4880 0ce1 0E060000 		.4byte	.LVL230
 4881 0ce5 0100     		.2byte	0x1
 4882 0ce7 52       		.byte	0x52
 4883 0ce8 00000000 		.4byte	0
 4884 0cec 00000000 		.4byte	0
 4885              	.LLST11:
 4886 0cf0 5A000000 		.4byte	.LVL14
 4887 0cf4 10010000 		.4byte	.LVL45
 4888 0cf8 0100     		.2byte	0x1
 4889 0cfa 54       		.byte	0x54
 4890 0cfb 10010000 		.4byte	.LVL45
 4891 0cff 1E010000 		.4byte	.LVL46
 4892 0d03 1D00     		.2byte	0x1d
 4893 0d05 7B       		.byte	0x7b
 4894 0d06 00       		.sleb128 0
 4895 0d07 7A       		.byte	0x7a
 4896 0d08 00       		.sleb128 0
 4897 0d09 22       		.byte	0x22
 4898 0d0a 94       		.byte	0x94
 4899 0d0b 01       		.byte	0x1
 4900 0d0c 08       		.byte	0x8
 4901 0d0d FF       		.byte	0xff
 4902 0d0e 1A       		.byte	0x1a
 4903 0d0f 38       		.byte	0x38
 4904 0d10 24       		.byte	0x24
 4905 0d11 7B       		.byte	0x7b
 4906 0d12 00       		.sleb128 0
 4907 0d13 7A       		.byte	0x7a
 4908 0d14 00       		.sleb128 0
 4909 0d15 22       		.byte	0x22
 4910 0d16 23       		.byte	0x23
 4911 0d17 01       		.uleb128 0x1
 4912 0d18 94       		.byte	0x94
 4913 0d19 01       		.byte	0x1
 4914 0d1a 08       		.byte	0x8
 4915 0d1b FF       		.byte	0xff
 4916 0d1c 1A       		.byte	0x1a
 4917 0d1d 21       		.byte	0x21
 4918 0d1e 09       		.byte	0x9
 4919 0d1f F8       		.byte	0xf8
 4920 0d20 24       		.byte	0x24
 4921 0d21 9F       		.byte	0x9f
 4922 0d22 1E010000 		.4byte	.LVL46
 4923 0d26 22010000 		.4byte	.LVL47
 4924 0d2a 1F00     		.2byte	0x1f
 4925 0d2c 7B       		.byte	0x7b
 4926 0d2d 00       		.sleb128 0
 4927 0d2e 7A       		.byte	0x7a
 4928 0d2f 00       		.sleb128 0
 4929 0d30 22       		.byte	0x22
 4930 0d31 32       		.byte	0x32
ARM GAS  C:\Users\info\AppData\Local\Temp\ccl9i4Az.s 			page 136


 4931 0d32 1C       		.byte	0x1c
 4932 0d33 94       		.byte	0x94
 4933 0d34 01       		.byte	0x1
 4934 0d35 08       		.byte	0x8
 4935 0d36 FF       		.byte	0xff
 4936 0d37 1A       		.byte	0x1a
 4937 0d38 38       		.byte	0x38
 4938 0d39 24       		.byte	0x24
 4939 0d3a 7B       		.byte	0x7b
 4940 0d3b 00       		.sleb128 0
 4941 0d3c 7A       		.byte	0x7a
 4942 0d3d 00       		.sleb128 0
 4943 0d3e 22       		.byte	0x22
 4944 0d3f 31       		.byte	0x31
 4945 0d40 1C       		.byte	0x1c
 4946 0d41 94       		.byte	0x94
 4947 0d42 01       		.byte	0x1
 4948 0d43 08       		.byte	0x8
 4949 0d44 FF       		.byte	0xff
 4950 0d45 1A       		.byte	0x1a
 4951 0d46 21       		.byte	0x21
 4952 0d47 09       		.byte	0x9
 4953 0d48 F8       		.byte	0xf8
 4954 0d49 24       		.byte	0x24
 4955 0d4a 9F       		.byte	0x9f
 4956 0d4b 28010000 		.4byte	.LVL49
 4957 0d4f 2C010000 		.4byte	.LVL51
 4958 0d53 0100     		.2byte	0x1
 4959 0d55 54       		.byte	0x54
 4960 0d56 2C010000 		.4byte	.LVL51
 4961 0d5a 3A010000 		.4byte	.LVL52
 4962 0d5e 1D00     		.2byte	0x1d
 4963 0d60 7B       		.byte	0x7b
 4964 0d61 00       		.sleb128 0
 4965 0d62 7A       		.byte	0x7a
 4966 0d63 00       		.sleb128 0
 4967 0d64 22       		.byte	0x22
 4968 0d65 94       		.byte	0x94
 4969 0d66 01       		.byte	0x1
 4970 0d67 08       		.byte	0x8
 4971 0d68 FF       		.byte	0xff
 4972 0d69 1A       		.byte	0x1a
 4973 0d6a 38       		.byte	0x38
 4974 0d6b 24       		.byte	0x24
 4975 0d6c 7B       		.byte	0x7b
 4976 0d6d 00       		.sleb128 0
 4977 0d6e 7A       		.byte	0x7a
 4978 0d6f 00       		.sleb128 0
 4979 0d70 22       		.byte	0x22
 4980 0d71 23       		.byte	0x23
 4981 0d72 01       		.uleb128 0x1
 4982 0d73 94       		.byte	0x94
 4983 0d74 01       		.byte	0x1
 4984 0d75 08       		.byte	0x8
 4985 0d76 FF       		.byte	0xff
 4986 0d77 1A       		.byte	0x1a
 4987 0d78 21       		.byte	0x21
ARM GAS  C:\Users\info\AppData\Local\Temp\ccl9i4Az.s 			page 137


 4988 0d79 09       		.byte	0x9
 4989 0d7a F8       		.byte	0xf8
 4990 0d7b 24       		.byte	0x24
 4991 0d7c 9F       		.byte	0x9f
 4992 0d7d 3A010000 		.4byte	.LVL52
 4993 0d81 3E010000 		.4byte	.LVL53
 4994 0d85 1F00     		.2byte	0x1f
 4995 0d87 7B       		.byte	0x7b
 4996 0d88 00       		.sleb128 0
 4997 0d89 7A       		.byte	0x7a
 4998 0d8a 00       		.sleb128 0
 4999 0d8b 22       		.byte	0x22
 5000 0d8c 32       		.byte	0x32
 5001 0d8d 1C       		.byte	0x1c
 5002 0d8e 94       		.byte	0x94
 5003 0d8f 01       		.byte	0x1
 5004 0d90 08       		.byte	0x8
 5005 0d91 FF       		.byte	0xff
 5006 0d92 1A       		.byte	0x1a
 5007 0d93 38       		.byte	0x38
 5008 0d94 24       		.byte	0x24
 5009 0d95 7B       		.byte	0x7b
 5010 0d96 00       		.sleb128 0
 5011 0d97 7A       		.byte	0x7a
 5012 0d98 00       		.sleb128 0
 5013 0d99 22       		.byte	0x22
 5014 0d9a 31       		.byte	0x31
 5015 0d9b 1C       		.byte	0x1c
 5016 0d9c 94       		.byte	0x94
 5017 0d9d 01       		.byte	0x1
 5018 0d9e 08       		.byte	0x8
 5019 0d9f FF       		.byte	0xff
 5020 0da0 1A       		.byte	0x1a
 5021 0da1 21       		.byte	0x21
 5022 0da2 09       		.byte	0x9
 5023 0da3 F8       		.byte	0xf8
 5024 0da4 24       		.byte	0x24
 5025 0da5 9F       		.byte	0x9f
 5026 0da6 44010000 		.4byte	.LVL55
 5027 0daa 50010000 		.4byte	.LVL57
 5028 0dae 0100     		.2byte	0x1
 5029 0db0 54       		.byte	0x54
 5030 0db1 50010000 		.4byte	.LVL57
 5031 0db5 66010000 		.4byte	.LVL60
 5032 0db9 1D00     		.2byte	0x1d
 5033 0dbb 7B       		.byte	0x7b
 5034 0dbc 00       		.sleb128 0
 5035 0dbd 7A       		.byte	0x7a
 5036 0dbe 00       		.sleb128 0
 5037 0dbf 22       		.byte	0x22
 5038 0dc0 94       		.byte	0x94
 5039 0dc1 01       		.byte	0x1
 5040 0dc2 08       		.byte	0x8
 5041 0dc3 FF       		.byte	0xff
 5042 0dc4 1A       		.byte	0x1a
 5043 0dc5 38       		.byte	0x38
 5044 0dc6 24       		.byte	0x24
ARM GAS  C:\Users\info\AppData\Local\Temp\ccl9i4Az.s 			page 138


 5045 0dc7 7B       		.byte	0x7b
 5046 0dc8 00       		.sleb128 0
 5047 0dc9 7A       		.byte	0x7a
 5048 0dca 00       		.sleb128 0
 5049 0dcb 22       		.byte	0x22
 5050 0dcc 23       		.byte	0x23
 5051 0dcd 01       		.uleb128 0x1
 5052 0dce 94       		.byte	0x94
 5053 0dcf 01       		.byte	0x1
 5054 0dd0 08       		.byte	0x8
 5055 0dd1 FF       		.byte	0xff
 5056 0dd2 1A       		.byte	0x1a
 5057 0dd3 21       		.byte	0x21
 5058 0dd4 09       		.byte	0x9
 5059 0dd5 F8       		.byte	0xf8
 5060 0dd6 24       		.byte	0x24
 5061 0dd7 9F       		.byte	0x9f
 5062 0dd8 66010000 		.4byte	.LVL60
 5063 0ddc 6A010000 		.4byte	.LVL61
 5064 0de0 1F00     		.2byte	0x1f
 5065 0de2 7B       		.byte	0x7b
 5066 0de3 00       		.sleb128 0
 5067 0de4 7A       		.byte	0x7a
 5068 0de5 00       		.sleb128 0
 5069 0de6 22       		.byte	0x22
 5070 0de7 32       		.byte	0x32
 5071 0de8 1C       		.byte	0x1c
 5072 0de9 94       		.byte	0x94
 5073 0dea 01       		.byte	0x1
 5074 0deb 08       		.byte	0x8
 5075 0dec FF       		.byte	0xff
 5076 0ded 1A       		.byte	0x1a
 5077 0dee 38       		.byte	0x38
 5078 0def 24       		.byte	0x24
 5079 0df0 7B       		.byte	0x7b
 5080 0df1 00       		.sleb128 0
 5081 0df2 7A       		.byte	0x7a
 5082 0df3 00       		.sleb128 0
 5083 0df4 22       		.byte	0x22
 5084 0df5 31       		.byte	0x31
 5085 0df6 1C       		.byte	0x1c
 5086 0df7 94       		.byte	0x94
 5087 0df8 01       		.byte	0x1
 5088 0df9 08       		.byte	0x8
 5089 0dfa FF       		.byte	0xff
 5090 0dfb 1A       		.byte	0x1a
 5091 0dfc 21       		.byte	0x21
 5092 0dfd 09       		.byte	0x9
 5093 0dfe F8       		.byte	0xf8
 5094 0dff 24       		.byte	0x24
 5095 0e00 9F       		.byte	0x9f
 5096 0e01 70010000 		.4byte	.LVL62
 5097 0e05 7C010000 		.4byte	.LVL64
 5098 0e09 0100     		.2byte	0x1
 5099 0e0b 54       		.byte	0x54
 5100 0e0c 7C010000 		.4byte	.LVL64
 5101 0e10 92010000 		.4byte	.LVL67
ARM GAS  C:\Users\info\AppData\Local\Temp\ccl9i4Az.s 			page 139


 5102 0e14 1D00     		.2byte	0x1d
 5103 0e16 7B       		.byte	0x7b
 5104 0e17 00       		.sleb128 0
 5105 0e18 7A       		.byte	0x7a
 5106 0e19 00       		.sleb128 0
 5107 0e1a 22       		.byte	0x22
 5108 0e1b 94       		.byte	0x94
 5109 0e1c 01       		.byte	0x1
 5110 0e1d 08       		.byte	0x8
 5111 0e1e FF       		.byte	0xff
 5112 0e1f 1A       		.byte	0x1a
 5113 0e20 38       		.byte	0x38
 5114 0e21 24       		.byte	0x24
 5115 0e22 7B       		.byte	0x7b
 5116 0e23 00       		.sleb128 0
 5117 0e24 7A       		.byte	0x7a
 5118 0e25 00       		.sleb128 0
 5119 0e26 22       		.byte	0x22
 5120 0e27 23       		.byte	0x23
 5121 0e28 01       		.uleb128 0x1
 5122 0e29 94       		.byte	0x94
 5123 0e2a 01       		.byte	0x1
 5124 0e2b 08       		.byte	0x8
 5125 0e2c FF       		.byte	0xff
 5126 0e2d 1A       		.byte	0x1a
 5127 0e2e 21       		.byte	0x21
 5128 0e2f 09       		.byte	0x9
 5129 0e30 F8       		.byte	0xf8
 5130 0e31 24       		.byte	0x24
 5131 0e32 9F       		.byte	0x9f
 5132 0e33 92010000 		.4byte	.LVL67
 5133 0e37 96010000 		.4byte	.LVL68
 5134 0e3b 1F00     		.2byte	0x1f
 5135 0e3d 7B       		.byte	0x7b
 5136 0e3e 00       		.sleb128 0
 5137 0e3f 7A       		.byte	0x7a
 5138 0e40 00       		.sleb128 0
 5139 0e41 22       		.byte	0x22
 5140 0e42 32       		.byte	0x32
 5141 0e43 1C       		.byte	0x1c
 5142 0e44 94       		.byte	0x94
 5143 0e45 01       		.byte	0x1
 5144 0e46 08       		.byte	0x8
 5145 0e47 FF       		.byte	0xff
 5146 0e48 1A       		.byte	0x1a
 5147 0e49 38       		.byte	0x38
 5148 0e4a 24       		.byte	0x24
 5149 0e4b 7B       		.byte	0x7b
 5150 0e4c 00       		.sleb128 0
 5151 0e4d 7A       		.byte	0x7a
 5152 0e4e 00       		.sleb128 0
 5153 0e4f 22       		.byte	0x22
 5154 0e50 31       		.byte	0x31
 5155 0e51 1C       		.byte	0x1c
 5156 0e52 94       		.byte	0x94
 5157 0e53 01       		.byte	0x1
 5158 0e54 08       		.byte	0x8
ARM GAS  C:\Users\info\AppData\Local\Temp\ccl9i4Az.s 			page 140


 5159 0e55 FF       		.byte	0xff
 5160 0e56 1A       		.byte	0x1a
 5161 0e57 21       		.byte	0x21
 5162 0e58 09       		.byte	0x9
 5163 0e59 F8       		.byte	0xf8
 5164 0e5a 24       		.byte	0x24
 5165 0e5b 9F       		.byte	0x9f
 5166 0e5c 9C010000 		.4byte	.LVL69
 5167 0e60 A0010000 		.4byte	.LVL71
 5168 0e64 0100     		.2byte	0x1
 5169 0e66 54       		.byte	0x54
 5170 0e67 A0010000 		.4byte	.LVL71
 5171 0e6b AA010000 		.4byte	.LVL73
 5172 0e6f 1D00     		.2byte	0x1d
 5173 0e71 7B       		.byte	0x7b
 5174 0e72 00       		.sleb128 0
 5175 0e73 7A       		.byte	0x7a
 5176 0e74 00       		.sleb128 0
 5177 0e75 22       		.byte	0x22
 5178 0e76 94       		.byte	0x94
 5179 0e77 01       		.byte	0x1
 5180 0e78 08       		.byte	0x8
 5181 0e79 FF       		.byte	0xff
 5182 0e7a 1A       		.byte	0x1a
 5183 0e7b 38       		.byte	0x38
 5184 0e7c 24       		.byte	0x24
 5185 0e7d 7B       		.byte	0x7b
 5186 0e7e 00       		.sleb128 0
 5187 0e7f 7A       		.byte	0x7a
 5188 0e80 00       		.sleb128 0
 5189 0e81 22       		.byte	0x22
 5190 0e82 23       		.byte	0x23
 5191 0e83 01       		.uleb128 0x1
 5192 0e84 94       		.byte	0x94
 5193 0e85 01       		.byte	0x1
 5194 0e86 08       		.byte	0x8
 5195 0e87 FF       		.byte	0xff
 5196 0e88 1A       		.byte	0x1a
 5197 0e89 21       		.byte	0x21
 5198 0e8a 09       		.byte	0x9
 5199 0e8b F8       		.byte	0xf8
 5200 0e8c 24       		.byte	0x24
 5201 0e8d 9F       		.byte	0x9f
 5202 0e8e AA010000 		.4byte	.LVL73
 5203 0e92 AE010000 		.4byte	.LVL75
 5204 0e96 0100     		.2byte	0x1
 5205 0e98 54       		.byte	0x54
 5206 0e99 AE010000 		.4byte	.LVL75
 5207 0e9d BE010000 		.4byte	.LVL78
 5208 0ea1 1D00     		.2byte	0x1d
 5209 0ea3 7B       		.byte	0x7b
 5210 0ea4 00       		.sleb128 0
 5211 0ea5 7A       		.byte	0x7a
 5212 0ea6 00       		.sleb128 0
 5213 0ea7 22       		.byte	0x22
 5214 0ea8 94       		.byte	0x94
 5215 0ea9 01       		.byte	0x1
ARM GAS  C:\Users\info\AppData\Local\Temp\ccl9i4Az.s 			page 141


 5216 0eaa 08       		.byte	0x8
 5217 0eab FF       		.byte	0xff
 5218 0eac 1A       		.byte	0x1a
 5219 0ead 38       		.byte	0x38
 5220 0eae 24       		.byte	0x24
 5221 0eaf 7B       		.byte	0x7b
 5222 0eb0 00       		.sleb128 0
 5223 0eb1 7A       		.byte	0x7a
 5224 0eb2 00       		.sleb128 0
 5225 0eb3 22       		.byte	0x22
 5226 0eb4 23       		.byte	0x23
 5227 0eb5 01       		.uleb128 0x1
 5228 0eb6 94       		.byte	0x94
 5229 0eb7 01       		.byte	0x1
 5230 0eb8 08       		.byte	0x8
 5231 0eb9 FF       		.byte	0xff
 5232 0eba 1A       		.byte	0x1a
 5233 0ebb 21       		.byte	0x21
 5234 0ebc 09       		.byte	0x9
 5235 0ebd F8       		.byte	0xf8
 5236 0ebe 24       		.byte	0x24
 5237 0ebf 9F       		.byte	0x9f
 5238 0ec0 BE010000 		.4byte	.LVL78
 5239 0ec4 F2010000 		.4byte	.LVL81
 5240 0ec8 0100     		.2byte	0x1
 5241 0eca 54       		.byte	0x54
 5242 0ecb F2010000 		.4byte	.LVL81
 5243 0ecf FC010000 		.4byte	.LVL82
 5244 0ed3 1D00     		.2byte	0x1d
 5245 0ed5 7B       		.byte	0x7b
 5246 0ed6 00       		.sleb128 0
 5247 0ed7 7A       		.byte	0x7a
 5248 0ed8 00       		.sleb128 0
 5249 0ed9 22       		.byte	0x22
 5250 0eda 94       		.byte	0x94
 5251 0edb 01       		.byte	0x1
 5252 0edc 08       		.byte	0x8
 5253 0edd FF       		.byte	0xff
 5254 0ede 1A       		.byte	0x1a
 5255 0edf 38       		.byte	0x38
 5256 0ee0 24       		.byte	0x24
 5257 0ee1 7B       		.byte	0x7b
 5258 0ee2 00       		.sleb128 0
 5259 0ee3 7A       		.byte	0x7a
 5260 0ee4 00       		.sleb128 0
 5261 0ee5 22       		.byte	0x22
 5262 0ee6 23       		.byte	0x23
 5263 0ee7 01       		.uleb128 0x1
 5264 0ee8 94       		.byte	0x94
 5265 0ee9 01       		.byte	0x1
 5266 0eea 08       		.byte	0x8
 5267 0eeb FF       		.byte	0xff
 5268 0eec 1A       		.byte	0x1a
 5269 0eed 21       		.byte	0x21
 5270 0eee 09       		.byte	0x9
 5271 0eef F8       		.byte	0xf8
 5272 0ef0 24       		.byte	0x24
ARM GAS  C:\Users\info\AppData\Local\Temp\ccl9i4Az.s 			page 142


 5273 0ef1 9F       		.byte	0x9f
 5274 0ef2 FC010000 		.4byte	.LVL82
 5275 0ef6 08020000 		.4byte	.LVL84
 5276 0efa 0100     		.2byte	0x1
 5277 0efc 54       		.byte	0x54
 5278 0efd 08020000 		.4byte	.LVL84
 5279 0f01 18020000 		.4byte	.LVL85
 5280 0f05 1D00     		.2byte	0x1d
 5281 0f07 7B       		.byte	0x7b
 5282 0f08 00       		.sleb128 0
 5283 0f09 7A       		.byte	0x7a
 5284 0f0a 00       		.sleb128 0
 5285 0f0b 22       		.byte	0x22
 5286 0f0c 94       		.byte	0x94
 5287 0f0d 01       		.byte	0x1
 5288 0f0e 08       		.byte	0x8
 5289 0f0f FF       		.byte	0xff
 5290 0f10 1A       		.byte	0x1a
 5291 0f11 38       		.byte	0x38
 5292 0f12 24       		.byte	0x24
 5293 0f13 7B       		.byte	0x7b
 5294 0f14 00       		.sleb128 0
 5295 0f15 7A       		.byte	0x7a
 5296 0f16 00       		.sleb128 0
 5297 0f17 22       		.byte	0x22
 5298 0f18 23       		.byte	0x23
 5299 0f19 01       		.uleb128 0x1
 5300 0f1a 94       		.byte	0x94
 5301 0f1b 01       		.byte	0x1
 5302 0f1c 08       		.byte	0x8
 5303 0f1d FF       		.byte	0xff
 5304 0f1e 1A       		.byte	0x1a
 5305 0f1f 21       		.byte	0x21
 5306 0f20 09       		.byte	0x9
 5307 0f21 F8       		.byte	0xf8
 5308 0f22 24       		.byte	0x24
 5309 0f23 9F       		.byte	0x9f
 5310 0f24 18020000 		.4byte	.LVL85
 5311 0f28 24020000 		.4byte	.LVL87
 5312 0f2c 0100     		.2byte	0x1
 5313 0f2e 54       		.byte	0x54
 5314 0f2f 24020000 		.4byte	.LVL87
 5315 0f33 34020000 		.4byte	.LVL88
 5316 0f37 1D00     		.2byte	0x1d
 5317 0f39 7B       		.byte	0x7b
 5318 0f3a 00       		.sleb128 0
 5319 0f3b 7A       		.byte	0x7a
 5320 0f3c 00       		.sleb128 0
 5321 0f3d 22       		.byte	0x22
 5322 0f3e 94       		.byte	0x94
 5323 0f3f 01       		.byte	0x1
 5324 0f40 08       		.byte	0x8
 5325 0f41 FF       		.byte	0xff
 5326 0f42 1A       		.byte	0x1a
 5327 0f43 38       		.byte	0x38
 5328 0f44 24       		.byte	0x24
 5329 0f45 7B       		.byte	0x7b
ARM GAS  C:\Users\info\AppData\Local\Temp\ccl9i4Az.s 			page 143


 5330 0f46 00       		.sleb128 0
 5331 0f47 7A       		.byte	0x7a
 5332 0f48 00       		.sleb128 0
 5333 0f49 22       		.byte	0x22
 5334 0f4a 23       		.byte	0x23
 5335 0f4b 01       		.uleb128 0x1
 5336 0f4c 94       		.byte	0x94
 5337 0f4d 01       		.byte	0x1
 5338 0f4e 08       		.byte	0x8
 5339 0f4f FF       		.byte	0xff
 5340 0f50 1A       		.byte	0x1a
 5341 0f51 21       		.byte	0x21
 5342 0f52 09       		.byte	0x9
 5343 0f53 F8       		.byte	0xf8
 5344 0f54 24       		.byte	0x24
 5345 0f55 9F       		.byte	0x9f
 5346 0f56 34020000 		.4byte	.LVL88
 5347 0f5a 40020000 		.4byte	.LVL90
 5348 0f5e 0100     		.2byte	0x1
 5349 0f60 54       		.byte	0x54
 5350 0f61 40020000 		.4byte	.LVL90
 5351 0f65 50020000 		.4byte	.LVL91
 5352 0f69 1D00     		.2byte	0x1d
 5353 0f6b 7B       		.byte	0x7b
 5354 0f6c 00       		.sleb128 0
 5355 0f6d 7A       		.byte	0x7a
 5356 0f6e 00       		.sleb128 0
 5357 0f6f 22       		.byte	0x22
 5358 0f70 94       		.byte	0x94
 5359 0f71 01       		.byte	0x1
 5360 0f72 08       		.byte	0x8
 5361 0f73 FF       		.byte	0xff
 5362 0f74 1A       		.byte	0x1a
 5363 0f75 38       		.byte	0x38
 5364 0f76 24       		.byte	0x24
 5365 0f77 7B       		.byte	0x7b
 5366 0f78 00       		.sleb128 0
 5367 0f79 7A       		.byte	0x7a
 5368 0f7a 00       		.sleb128 0
 5369 0f7b 22       		.byte	0x22
 5370 0f7c 23       		.byte	0x23
 5371 0f7d 01       		.uleb128 0x1
 5372 0f7e 94       		.byte	0x94
 5373 0f7f 01       		.byte	0x1
 5374 0f80 08       		.byte	0x8
 5375 0f81 FF       		.byte	0xff
 5376 0f82 1A       		.byte	0x1a
 5377 0f83 21       		.byte	0x21
 5378 0f84 09       		.byte	0x9
 5379 0f85 F8       		.byte	0xf8
 5380 0f86 24       		.byte	0x24
 5381 0f87 9F       		.byte	0x9f
 5382 0f88 50020000 		.4byte	.LVL91
 5383 0f8c 5C020000 		.4byte	.LVL93
 5384 0f90 0100     		.2byte	0x1
 5385 0f92 54       		.byte	0x54
 5386 0f93 5C020000 		.4byte	.LVL93
ARM GAS  C:\Users\info\AppData\Local\Temp\ccl9i4Az.s 			page 144


 5387 0f97 6C020000 		.4byte	.LVL94
 5388 0f9b 1D00     		.2byte	0x1d
 5389 0f9d 7B       		.byte	0x7b
 5390 0f9e 00       		.sleb128 0
 5391 0f9f 7A       		.byte	0x7a
 5392 0fa0 00       		.sleb128 0
 5393 0fa1 22       		.byte	0x22
 5394 0fa2 94       		.byte	0x94
 5395 0fa3 01       		.byte	0x1
 5396 0fa4 08       		.byte	0x8
 5397 0fa5 FF       		.byte	0xff
 5398 0fa6 1A       		.byte	0x1a
 5399 0fa7 38       		.byte	0x38
 5400 0fa8 24       		.byte	0x24
 5401 0fa9 7B       		.byte	0x7b
 5402 0faa 00       		.sleb128 0
 5403 0fab 7A       		.byte	0x7a
 5404 0fac 00       		.sleb128 0
 5405 0fad 22       		.byte	0x22
 5406 0fae 23       		.byte	0x23
 5407 0faf 01       		.uleb128 0x1
 5408 0fb0 94       		.byte	0x94
 5409 0fb1 01       		.byte	0x1
 5410 0fb2 08       		.byte	0x8
 5411 0fb3 FF       		.byte	0xff
 5412 0fb4 1A       		.byte	0x1a
 5413 0fb5 21       		.byte	0x21
 5414 0fb6 09       		.byte	0x9
 5415 0fb7 F8       		.byte	0xf8
 5416 0fb8 24       		.byte	0x24
 5417 0fb9 9F       		.byte	0x9f
 5418 0fba 6C020000 		.4byte	.LVL94
 5419 0fbe 70020000 		.4byte	.LVL95
 5420 0fc2 0100     		.2byte	0x1
 5421 0fc4 54       		.byte	0x54
 5422 0fc5 70020000 		.4byte	.LVL95
 5423 0fc9 98020000 		.4byte	.LVL103
 5424 0fcd 1D00     		.2byte	0x1d
 5425 0fcf 7B       		.byte	0x7b
 5426 0fd0 00       		.sleb128 0
 5427 0fd1 7A       		.byte	0x7a
 5428 0fd2 00       		.sleb128 0
 5429 0fd3 22       		.byte	0x22
 5430 0fd4 94       		.byte	0x94
 5431 0fd5 01       		.byte	0x1
 5432 0fd6 08       		.byte	0x8
 5433 0fd7 FF       		.byte	0xff
 5434 0fd8 1A       		.byte	0x1a
 5435 0fd9 38       		.byte	0x38
 5436 0fda 24       		.byte	0x24
 5437 0fdb 7B       		.byte	0x7b
 5438 0fdc 00       		.sleb128 0
 5439 0fdd 7A       		.byte	0x7a
 5440 0fde 00       		.sleb128 0
 5441 0fdf 22       		.byte	0x22
 5442 0fe0 23       		.byte	0x23
 5443 0fe1 01       		.uleb128 0x1
ARM GAS  C:\Users\info\AppData\Local\Temp\ccl9i4Az.s 			page 145


 5444 0fe2 94       		.byte	0x94
 5445 0fe3 01       		.byte	0x1
 5446 0fe4 08       		.byte	0x8
 5447 0fe5 FF       		.byte	0xff
 5448 0fe6 1A       		.byte	0x1a
 5449 0fe7 21       		.byte	0x21
 5450 0fe8 09       		.byte	0x9
 5451 0fe9 F8       		.byte	0xf8
 5452 0fea 24       		.byte	0x24
 5453 0feb 9F       		.byte	0x9f
 5454 0fec 98020000 		.4byte	.LVL103
 5455 0ff0 9C020000 		.4byte	.LVL105
 5456 0ff4 0100     		.2byte	0x1
 5457 0ff6 54       		.byte	0x54
 5458 0ff7 9C020000 		.4byte	.LVL105
 5459 0ffb B8020000 		.4byte	.LVL106
 5460 0fff 1D00     		.2byte	0x1d
 5461 1001 7B       		.byte	0x7b
 5462 1002 00       		.sleb128 0
 5463 1003 7A       		.byte	0x7a
 5464 1004 00       		.sleb128 0
 5465 1005 22       		.byte	0x22
 5466 1006 94       		.byte	0x94
 5467 1007 01       		.byte	0x1
 5468 1008 08       		.byte	0x8
 5469 1009 FF       		.byte	0xff
 5470 100a 1A       		.byte	0x1a
 5471 100b 38       		.byte	0x38
 5472 100c 24       		.byte	0x24
 5473 100d 7B       		.byte	0x7b
 5474 100e 00       		.sleb128 0
 5475 100f 7A       		.byte	0x7a
 5476 1010 00       		.sleb128 0
 5477 1011 22       		.byte	0x22
 5478 1012 23       		.byte	0x23
 5479 1013 01       		.uleb128 0x1
 5480 1014 94       		.byte	0x94
 5481 1015 01       		.byte	0x1
 5482 1016 08       		.byte	0x8
 5483 1017 FF       		.byte	0xff
 5484 1018 1A       		.byte	0x1a
 5485 1019 21       		.byte	0x21
 5486 101a 09       		.byte	0x9
 5487 101b F8       		.byte	0xf8
 5488 101c 24       		.byte	0x24
 5489 101d 9F       		.byte	0x9f
 5490 101e B8020000 		.4byte	.LVL106
 5491 1022 BC020000 		.4byte	.LVL107
 5492 1026 0100     		.2byte	0x1
 5493 1028 54       		.byte	0x54
 5494 1029 BC020000 		.4byte	.LVL107
 5495 102d E2020000 		.4byte	.LVL114
 5496 1031 1D00     		.2byte	0x1d
 5497 1033 7B       		.byte	0x7b
 5498 1034 00       		.sleb128 0
 5499 1035 7A       		.byte	0x7a
 5500 1036 00       		.sleb128 0
ARM GAS  C:\Users\info\AppData\Local\Temp\ccl9i4Az.s 			page 146


 5501 1037 22       		.byte	0x22
 5502 1038 94       		.byte	0x94
 5503 1039 01       		.byte	0x1
 5504 103a 08       		.byte	0x8
 5505 103b FF       		.byte	0xff
 5506 103c 1A       		.byte	0x1a
 5507 103d 38       		.byte	0x38
 5508 103e 24       		.byte	0x24
 5509 103f 7B       		.byte	0x7b
 5510 1040 00       		.sleb128 0
 5511 1041 7A       		.byte	0x7a
 5512 1042 00       		.sleb128 0
 5513 1043 22       		.byte	0x22
 5514 1044 23       		.byte	0x23
 5515 1045 01       		.uleb128 0x1
 5516 1046 94       		.byte	0x94
 5517 1047 01       		.byte	0x1
 5518 1048 08       		.byte	0x8
 5519 1049 FF       		.byte	0xff
 5520 104a 1A       		.byte	0x1a
 5521 104b 21       		.byte	0x21
 5522 104c 09       		.byte	0x9
 5523 104d F8       		.byte	0xf8
 5524 104e 24       		.byte	0x24
 5525 104f 9F       		.byte	0x9f
 5526 1050 E2020000 		.4byte	.LVL114
 5527 1054 E6020000 		.4byte	.LVL116
 5528 1058 0100     		.2byte	0x1
 5529 105a 54       		.byte	0x54
 5530 105b E6020000 		.4byte	.LVL116
 5531 105f 00030000 		.4byte	.LVL117
 5532 1063 1D00     		.2byte	0x1d
 5533 1065 7B       		.byte	0x7b
 5534 1066 00       		.sleb128 0
 5535 1067 7A       		.byte	0x7a
 5536 1068 00       		.sleb128 0
 5537 1069 22       		.byte	0x22
 5538 106a 94       		.byte	0x94
 5539 106b 01       		.byte	0x1
 5540 106c 08       		.byte	0x8
 5541 106d FF       		.byte	0xff
 5542 106e 1A       		.byte	0x1a
 5543 106f 38       		.byte	0x38
 5544 1070 24       		.byte	0x24
 5545 1071 7B       		.byte	0x7b
 5546 1072 00       		.sleb128 0
 5547 1073 7A       		.byte	0x7a
 5548 1074 00       		.sleb128 0
 5549 1075 22       		.byte	0x22
 5550 1076 23       		.byte	0x23
 5551 1077 01       		.uleb128 0x1
 5552 1078 94       		.byte	0x94
 5553 1079 01       		.byte	0x1
 5554 107a 08       		.byte	0x8
 5555 107b FF       		.byte	0xff
 5556 107c 1A       		.byte	0x1a
 5557 107d 21       		.byte	0x21
ARM GAS  C:\Users\info\AppData\Local\Temp\ccl9i4Az.s 			page 147


 5558 107e 09       		.byte	0x9
 5559 107f F8       		.byte	0xf8
 5560 1080 24       		.byte	0x24
 5561 1081 9F       		.byte	0x9f
 5562 1082 00030000 		.4byte	.LVL117
 5563 1086 10030000 		.4byte	.LVL122
 5564 108a 0100     		.2byte	0x1
 5565 108c 54       		.byte	0x54
 5566 108d 1C030000 		.4byte	.LVL123
 5567 1091 EC030000 		.4byte	.LVL130
 5568 1095 0100     		.2byte	0x1
 5569 1097 57       		.byte	0x57
 5570 1098 EC030000 		.4byte	.LVL130
 5571 109c 06040000 		.4byte	.LVL135
 5572 10a0 0100     		.2byte	0x1
 5573 10a2 54       		.byte	0x54
 5574 10a3 06040000 		.4byte	.LVL135
 5575 10a7 34040000 		.4byte	.LVL138
 5576 10ab 0100     		.2byte	0x1
 5577 10ad 57       		.byte	0x57
 5578 10ae 34040000 		.4byte	.LVL138
 5579 10b2 42040000 		.4byte	.LVL140
 5580 10b6 0100     		.2byte	0x1
 5581 10b8 54       		.byte	0x54
 5582 10b9 42040000 		.4byte	.LVL140
 5583 10bd 49040000 		.4byte	.LVL141-1
 5584 10c1 1D00     		.2byte	0x1d
 5585 10c3 7B       		.byte	0x7b
 5586 10c4 00       		.sleb128 0
 5587 10c5 7A       		.byte	0x7a
 5588 10c6 00       		.sleb128 0
 5589 10c7 22       		.byte	0x22
 5590 10c8 94       		.byte	0x94
 5591 10c9 01       		.byte	0x1
 5592 10ca 08       		.byte	0x8
 5593 10cb FF       		.byte	0xff
 5594 10cc 1A       		.byte	0x1a
 5595 10cd 38       		.byte	0x38
 5596 10ce 24       		.byte	0x24
 5597 10cf 7B       		.byte	0x7b
 5598 10d0 00       		.sleb128 0
 5599 10d1 7A       		.byte	0x7a
 5600 10d2 00       		.sleb128 0
 5601 10d3 22       		.byte	0x22
 5602 10d4 23       		.byte	0x23
 5603 10d5 01       		.uleb128 0x1
 5604 10d6 94       		.byte	0x94
 5605 10d7 01       		.byte	0x1
 5606 10d8 08       		.byte	0x8
 5607 10d9 FF       		.byte	0xff
 5608 10da 1A       		.byte	0x1a
 5609 10db 21       		.byte	0x21
 5610 10dc 09       		.byte	0x9
 5611 10dd F8       		.byte	0xf8
 5612 10de 24       		.byte	0x24
 5613 10df 9F       		.byte	0x9f
 5614 10e0 5E040000 		.4byte	.LVL144
ARM GAS  C:\Users\info\AppData\Local\Temp\ccl9i4Az.s 			page 148


 5615 10e4 62040000 		.4byte	.LVL146
 5616 10e8 0100     		.2byte	0x1
 5617 10ea 54       		.byte	0x54
 5618 10eb 62040000 		.4byte	.LVL146
 5619 10ef 69040000 		.4byte	.LVL147-1
 5620 10f3 1D00     		.2byte	0x1d
 5621 10f5 7B       		.byte	0x7b
 5622 10f6 00       		.sleb128 0
 5623 10f7 7A       		.byte	0x7a
 5624 10f8 00       		.sleb128 0
 5625 10f9 22       		.byte	0x22
 5626 10fa 94       		.byte	0x94
 5627 10fb 01       		.byte	0x1
 5628 10fc 08       		.byte	0x8
 5629 10fd FF       		.byte	0xff
 5630 10fe 1A       		.byte	0x1a
 5631 10ff 38       		.byte	0x38
 5632 1100 24       		.byte	0x24
 5633 1101 7B       		.byte	0x7b
 5634 1102 00       		.sleb128 0
 5635 1103 7A       		.byte	0x7a
 5636 1104 00       		.sleb128 0
 5637 1105 22       		.byte	0x22
 5638 1106 23       		.byte	0x23
 5639 1107 01       		.uleb128 0x1
 5640 1108 94       		.byte	0x94
 5641 1109 01       		.byte	0x1
 5642 110a 08       		.byte	0x8
 5643 110b FF       		.byte	0xff
 5644 110c 1A       		.byte	0x1a
 5645 110d 21       		.byte	0x21
 5646 110e 09       		.byte	0x9
 5647 110f F8       		.byte	0xf8
 5648 1110 24       		.byte	0x24
 5649 1111 9F       		.byte	0x9f
 5650 1112 7E040000 		.4byte	.LVL150
 5651 1116 B8040000 		.4byte	.LVL153
 5652 111a 0100     		.2byte	0x1
 5653 111c 54       		.byte	0x54
 5654 111d B8040000 		.4byte	.LVL153
 5655 1121 C2040000 		.4byte	.LVL154
 5656 1125 1D00     		.2byte	0x1d
 5657 1127 7B       		.byte	0x7b
 5658 1128 00       		.sleb128 0
 5659 1129 7A       		.byte	0x7a
 5660 112a 00       		.sleb128 0
 5661 112b 22       		.byte	0x22
 5662 112c 94       		.byte	0x94
 5663 112d 01       		.byte	0x1
 5664 112e 08       		.byte	0x8
 5665 112f FF       		.byte	0xff
 5666 1130 1A       		.byte	0x1a
 5667 1131 38       		.byte	0x38
 5668 1132 24       		.byte	0x24
 5669 1133 7B       		.byte	0x7b
 5670 1134 00       		.sleb128 0
 5671 1135 7A       		.byte	0x7a
ARM GAS  C:\Users\info\AppData\Local\Temp\ccl9i4Az.s 			page 149


 5672 1136 00       		.sleb128 0
 5673 1137 22       		.byte	0x22
 5674 1138 23       		.byte	0x23
 5675 1139 01       		.uleb128 0x1
 5676 113a 94       		.byte	0x94
 5677 113b 01       		.byte	0x1
 5678 113c 08       		.byte	0x8
 5679 113d FF       		.byte	0xff
 5680 113e 1A       		.byte	0x1a
 5681 113f 21       		.byte	0x21
 5682 1140 09       		.byte	0x9
 5683 1141 F8       		.byte	0xf8
 5684 1142 24       		.byte	0x24
 5685 1143 9F       		.byte	0x9f
 5686 1144 C2040000 		.4byte	.LVL154
 5687 1148 CA040000 		.4byte	.LVL156
 5688 114c 0100     		.2byte	0x1
 5689 114e 54       		.byte	0x54
 5690 114f D4040000 		.4byte	.LVL157
 5691 1153 D8040000 		.4byte	.LVL159
 5692 1157 0100     		.2byte	0x1
 5693 1159 54       		.byte	0x54
 5694 115a D8040000 		.4byte	.LVL159
 5695 115e E0040000 		.4byte	.LVL161
 5696 1162 1D00     		.2byte	0x1d
 5697 1164 7B       		.byte	0x7b
 5698 1165 00       		.sleb128 0
 5699 1166 7A       		.byte	0x7a
 5700 1167 00       		.sleb128 0
 5701 1168 22       		.byte	0x22
 5702 1169 94       		.byte	0x94
 5703 116a 01       		.byte	0x1
 5704 116b 08       		.byte	0x8
 5705 116c FF       		.byte	0xff
 5706 116d 1A       		.byte	0x1a
 5707 116e 38       		.byte	0x38
 5708 116f 24       		.byte	0x24
 5709 1170 7B       		.byte	0x7b
 5710 1171 00       		.sleb128 0
 5711 1172 7A       		.byte	0x7a
 5712 1173 00       		.sleb128 0
 5713 1174 22       		.byte	0x22
 5714 1175 23       		.byte	0x23
 5715 1176 01       		.uleb128 0x1
 5716 1177 94       		.byte	0x94
 5717 1178 01       		.byte	0x1
 5718 1179 08       		.byte	0x8
 5719 117a FF       		.byte	0xff
 5720 117b 1A       		.byte	0x1a
 5721 117c 21       		.byte	0x21
 5722 117d 09       		.byte	0x9
 5723 117e F8       		.byte	0xf8
 5724 117f 24       		.byte	0x24
 5725 1180 9F       		.byte	0x9f
 5726 1181 E6040000 		.4byte	.LVL162
 5727 1185 EA040000 		.4byte	.LVL164
 5728 1189 0100     		.2byte	0x1
ARM GAS  C:\Users\info\AppData\Local\Temp\ccl9i4Az.s 			page 150


 5729 118b 54       		.byte	0x54
 5730 118c EA040000 		.4byte	.LVL164
 5731 1190 F2040000 		.4byte	.LVL166
 5732 1194 1D00     		.2byte	0x1d
 5733 1196 7B       		.byte	0x7b
 5734 1197 00       		.sleb128 0
 5735 1198 7A       		.byte	0x7a
 5736 1199 00       		.sleb128 0
 5737 119a 22       		.byte	0x22
 5738 119b 94       		.byte	0x94
 5739 119c 01       		.byte	0x1
 5740 119d 08       		.byte	0x8
 5741 119e FF       		.byte	0xff
 5742 119f 1A       		.byte	0x1a
 5743 11a0 38       		.byte	0x38
 5744 11a1 24       		.byte	0x24
 5745 11a2 7B       		.byte	0x7b
 5746 11a3 00       		.sleb128 0
 5747 11a4 7A       		.byte	0x7a
 5748 11a5 00       		.sleb128 0
 5749 11a6 22       		.byte	0x22
 5750 11a7 23       		.byte	0x23
 5751 11a8 01       		.uleb128 0x1
 5752 11a9 94       		.byte	0x94
 5753 11aa 01       		.byte	0x1
 5754 11ab 08       		.byte	0x8
 5755 11ac FF       		.byte	0xff
 5756 11ad 1A       		.byte	0x1a
 5757 11ae 21       		.byte	0x21
 5758 11af 09       		.byte	0x9
 5759 11b0 F8       		.byte	0xf8
 5760 11b1 24       		.byte	0x24
 5761 11b2 9F       		.byte	0x9f
 5762 11b3 F8040000 		.4byte	.LVL167
 5763 11b7 FC040000 		.4byte	.LVL169
 5764 11bb 0100     		.2byte	0x1
 5765 11bd 54       		.byte	0x54
 5766 11be FC040000 		.4byte	.LVL169
 5767 11c2 0E050000 		.4byte	.LVL172
 5768 11c6 1D00     		.2byte	0x1d
 5769 11c8 7B       		.byte	0x7b
 5770 11c9 00       		.sleb128 0
 5771 11ca 7A       		.byte	0x7a
 5772 11cb 00       		.sleb128 0
 5773 11cc 22       		.byte	0x22
 5774 11cd 94       		.byte	0x94
 5775 11ce 01       		.byte	0x1
 5776 11cf 08       		.byte	0x8
 5777 11d0 FF       		.byte	0xff
 5778 11d1 1A       		.byte	0x1a
 5779 11d2 38       		.byte	0x38
 5780 11d3 24       		.byte	0x24
 5781 11d4 7B       		.byte	0x7b
 5782 11d5 00       		.sleb128 0
 5783 11d6 7A       		.byte	0x7a
 5784 11d7 00       		.sleb128 0
 5785 11d8 22       		.byte	0x22
ARM GAS  C:\Users\info\AppData\Local\Temp\ccl9i4Az.s 			page 151


 5786 11d9 23       		.byte	0x23
 5787 11da 01       		.uleb128 0x1
 5788 11db 94       		.byte	0x94
 5789 11dc 01       		.byte	0x1
 5790 11dd 08       		.byte	0x8
 5791 11de FF       		.byte	0xff
 5792 11df 1A       		.byte	0x1a
 5793 11e0 21       		.byte	0x21
 5794 11e1 09       		.byte	0x9
 5795 11e2 F8       		.byte	0xf8
 5796 11e3 24       		.byte	0x24
 5797 11e4 9F       		.byte	0x9f
 5798 11e5 0E050000 		.4byte	.LVL172
 5799 11e9 12050000 		.4byte	.LVL174
 5800 11ed 0100     		.2byte	0x1
 5801 11ef 54       		.byte	0x54
 5802 11f0 12050000 		.4byte	.LVL174
 5803 11f4 26050000 		.4byte	.LVL177
 5804 11f8 1D00     		.2byte	0x1d
 5805 11fa 7B       		.byte	0x7b
 5806 11fb 00       		.sleb128 0
 5807 11fc 7A       		.byte	0x7a
 5808 11fd 00       		.sleb128 0
 5809 11fe 22       		.byte	0x22
 5810 11ff 94       		.byte	0x94
 5811 1200 01       		.byte	0x1
 5812 1201 08       		.byte	0x8
 5813 1202 FF       		.byte	0xff
 5814 1203 1A       		.byte	0x1a
 5815 1204 38       		.byte	0x38
 5816 1205 24       		.byte	0x24
 5817 1206 7B       		.byte	0x7b
 5818 1207 00       		.sleb128 0
 5819 1208 7A       		.byte	0x7a
 5820 1209 00       		.sleb128 0
 5821 120a 22       		.byte	0x22
 5822 120b 23       		.byte	0x23
 5823 120c 01       		.uleb128 0x1
 5824 120d 94       		.byte	0x94
 5825 120e 01       		.byte	0x1
 5826 120f 08       		.byte	0x8
 5827 1210 FF       		.byte	0xff
 5828 1211 1A       		.byte	0x1a
 5829 1212 21       		.byte	0x21
 5830 1213 09       		.byte	0x9
 5831 1214 F8       		.byte	0xf8
 5832 1215 24       		.byte	0x24
 5833 1216 9F       		.byte	0x9f
 5834 1217 26050000 		.4byte	.LVL177
 5835 121b 2A050000 		.4byte	.LVL179
 5836 121f 0100     		.2byte	0x1
 5837 1221 54       		.byte	0x54
 5838 1222 2A050000 		.4byte	.LVL179
 5839 1226 3E050000 		.4byte	.LVL182
 5840 122a 1D00     		.2byte	0x1d
 5841 122c 7B       		.byte	0x7b
 5842 122d 00       		.sleb128 0
ARM GAS  C:\Users\info\AppData\Local\Temp\ccl9i4Az.s 			page 152


 5843 122e 7A       		.byte	0x7a
 5844 122f 00       		.sleb128 0
 5845 1230 22       		.byte	0x22
 5846 1231 94       		.byte	0x94
 5847 1232 01       		.byte	0x1
 5848 1233 08       		.byte	0x8
 5849 1234 FF       		.byte	0xff
 5850 1235 1A       		.byte	0x1a
 5851 1236 38       		.byte	0x38
 5852 1237 24       		.byte	0x24
 5853 1238 7B       		.byte	0x7b
 5854 1239 00       		.sleb128 0
 5855 123a 7A       		.byte	0x7a
 5856 123b 00       		.sleb128 0
 5857 123c 22       		.byte	0x22
 5858 123d 23       		.byte	0x23
 5859 123e 01       		.uleb128 0x1
 5860 123f 94       		.byte	0x94
 5861 1240 01       		.byte	0x1
 5862 1241 08       		.byte	0x8
 5863 1242 FF       		.byte	0xff
 5864 1243 1A       		.byte	0x1a
 5865 1244 21       		.byte	0x21
 5866 1245 09       		.byte	0x9
 5867 1246 F8       		.byte	0xf8
 5868 1247 24       		.byte	0x24
 5869 1248 9F       		.byte	0x9f
 5870 1249 6E050000 		.4byte	.LVL184
 5871 124d CE050000 		.4byte	.LVL210
 5872 1251 0100     		.2byte	0x1
 5873 1253 54       		.byte	0x54
 5874 1254 CE050000 		.4byte	.LVL210
 5875 1258 DA050000 		.4byte	.LVL214
 5876 125c 1D00     		.2byte	0x1d
 5877 125e 7B       		.byte	0x7b
 5878 125f 00       		.sleb128 0
 5879 1260 7A       		.byte	0x7a
 5880 1261 00       		.sleb128 0
 5881 1262 22       		.byte	0x22
 5882 1263 94       		.byte	0x94
 5883 1264 01       		.byte	0x1
 5884 1265 08       		.byte	0x8
 5885 1266 FF       		.byte	0xff
 5886 1267 1A       		.byte	0x1a
 5887 1268 38       		.byte	0x38
 5888 1269 24       		.byte	0x24
 5889 126a 7B       		.byte	0x7b
 5890 126b 00       		.sleb128 0
 5891 126c 7A       		.byte	0x7a
 5892 126d 00       		.sleb128 0
 5893 126e 22       		.byte	0x22
 5894 126f 23       		.byte	0x23
 5895 1270 01       		.uleb128 0x1
 5896 1271 94       		.byte	0x94
 5897 1272 01       		.byte	0x1
 5898 1273 08       		.byte	0x8
 5899 1274 FF       		.byte	0xff
ARM GAS  C:\Users\info\AppData\Local\Temp\ccl9i4Az.s 			page 153


 5900 1275 1A       		.byte	0x1a
 5901 1276 21       		.byte	0x21
 5902 1277 09       		.byte	0x9
 5903 1278 F8       		.byte	0xf8
 5904 1279 24       		.byte	0x24
 5905 127a 9F       		.byte	0x9f
 5906 127b DA050000 		.4byte	.LVL214
 5907 127f E0050000 		.4byte	.LVL217
 5908 1283 0100     		.2byte	0x1
 5909 1285 54       		.byte	0x54
 5910 1286 E0050000 		.4byte	.LVL217
 5911 128a E6050000 		.4byte	.LVL218
 5912 128e 1D00     		.2byte	0x1d
 5913 1290 7B       		.byte	0x7b
 5914 1291 00       		.sleb128 0
 5915 1292 7A       		.byte	0x7a
 5916 1293 00       		.sleb128 0
 5917 1294 22       		.byte	0x22
 5918 1295 94       		.byte	0x94
 5919 1296 01       		.byte	0x1
 5920 1297 08       		.byte	0x8
 5921 1298 FF       		.byte	0xff
 5922 1299 1A       		.byte	0x1a
 5923 129a 38       		.byte	0x38
 5924 129b 24       		.byte	0x24
 5925 129c 7B       		.byte	0x7b
 5926 129d 00       		.sleb128 0
 5927 129e 7A       		.byte	0x7a
 5928 129f 00       		.sleb128 0
 5929 12a0 22       		.byte	0x22
 5930 12a1 23       		.byte	0x23
 5931 12a2 01       		.uleb128 0x1
 5932 12a3 94       		.byte	0x94
 5933 12a4 01       		.byte	0x1
 5934 12a5 08       		.byte	0x8
 5935 12a6 FF       		.byte	0xff
 5936 12a7 1A       		.byte	0x1a
 5937 12a8 21       		.byte	0x21
 5938 12a9 09       		.byte	0x9
 5939 12aa F8       		.byte	0xf8
 5940 12ab 24       		.byte	0x24
 5941 12ac 9F       		.byte	0x9f
 5942 12ad E6050000 		.4byte	.LVL218
 5943 12b1 EC050000 		.4byte	.LVL221
 5944 12b5 0100     		.2byte	0x1
 5945 12b7 54       		.byte	0x54
 5946 12b8 EC050000 		.4byte	.LVL221
 5947 12bc F2050000 		.4byte	.LVL222
 5948 12c0 1D00     		.2byte	0x1d
 5949 12c2 7B       		.byte	0x7b
 5950 12c3 00       		.sleb128 0
 5951 12c4 7A       		.byte	0x7a
 5952 12c5 00       		.sleb128 0
 5953 12c6 22       		.byte	0x22
 5954 12c7 94       		.byte	0x94
 5955 12c8 01       		.byte	0x1
 5956 12c9 08       		.byte	0x8
ARM GAS  C:\Users\info\AppData\Local\Temp\ccl9i4Az.s 			page 154


 5957 12ca FF       		.byte	0xff
 5958 12cb 1A       		.byte	0x1a
 5959 12cc 38       		.byte	0x38
 5960 12cd 24       		.byte	0x24
 5961 12ce 7B       		.byte	0x7b
 5962 12cf 00       		.sleb128 0
 5963 12d0 7A       		.byte	0x7a
 5964 12d1 00       		.sleb128 0
 5965 12d2 22       		.byte	0x22
 5966 12d3 23       		.byte	0x23
 5967 12d4 01       		.uleb128 0x1
 5968 12d5 94       		.byte	0x94
 5969 12d6 01       		.byte	0x1
 5970 12d7 08       		.byte	0x8
 5971 12d8 FF       		.byte	0xff
 5972 12d9 1A       		.byte	0x1a
 5973 12da 21       		.byte	0x21
 5974 12db 09       		.byte	0x9
 5975 12dc F8       		.byte	0xf8
 5976 12dd 24       		.byte	0x24
 5977 12de 9F       		.byte	0x9f
 5978 12df F2050000 		.4byte	.LVL222
 5979 12e3 FE050000 		.4byte	.LVL227
 5980 12e7 0100     		.2byte	0x1
 5981 12e9 54       		.byte	0x54
 5982 12ea 0A060000 		.4byte	.LVL228
 5983 12ee 0E060000 		.4byte	.LVL230
 5984 12f2 0100     		.2byte	0x1
 5985 12f4 54       		.byte	0x54
 5986 12f5 00000000 		.4byte	0
 5987 12f9 00000000 		.4byte	0
 5988              	.LLST12:
 5989 12fd 5C000000 		.4byte	.LVL15
 5990 1301 B4010000 		.4byte	.LVL76
 5991 1305 0100     		.2byte	0x1
 5992 1307 56       		.byte	0x56
 5993 1308 B4010000 		.4byte	.LVL76
 5994 130c BE010000 		.4byte	.LVL78
 5995 1310 1A00     		.2byte	0x1a
 5996 1312 7B       		.byte	0x7b
 5997 1313 00       		.sleb128 0
 5998 1314 7A       		.byte	0x7a
 5999 1315 00       		.sleb128 0
 6000 1316 22       		.byte	0x22
 6001 1317 94       		.byte	0x94
 6002 1318 01       		.byte	0x1
 6003 1319 08       		.byte	0x8
 6004 131a FF       		.byte	0xff
 6005 131b 1A       		.byte	0x1a
 6006 131c 38       		.byte	0x38
 6007 131d 24       		.byte	0x24
 6008 131e 7B       		.byte	0x7b
 6009 131f 00       		.sleb128 0
 6010 1320 7A       		.byte	0x7a
 6011 1321 00       		.sleb128 0
 6012 1322 22       		.byte	0x22
 6013 1323 23       		.byte	0x23
ARM GAS  C:\Users\info\AppData\Local\Temp\ccl9i4Az.s 			page 155


 6014 1324 01       		.uleb128 0x1
 6015 1325 94       		.byte	0x94
 6016 1326 01       		.byte	0x1
 6017 1327 08       		.byte	0x8
 6018 1328 FF       		.byte	0xff
 6019 1329 1A       		.byte	0x1a
 6020 132a 21       		.byte	0x21
 6021 132b 9F       		.byte	0x9f
 6022 132c BE010000 		.4byte	.LVL78
 6023 1330 1C030000 		.4byte	.LVL123
 6024 1334 0100     		.2byte	0x1
 6025 1336 56       		.byte	0x56
 6026 1337 EC030000 		.4byte	.LVL130
 6027 133b 06040000 		.4byte	.LVL135
 6028 133f 0100     		.2byte	0x1
 6029 1341 56       		.byte	0x56
 6030 1342 34040000 		.4byte	.LVL138
 6031 1346 4C050000 		.4byte	.LVL183
 6032 134a 0100     		.2byte	0x1
 6033 134c 56       		.byte	0x56
 6034 134d 6E050000 		.4byte	.LVL184
 6035 1351 0E060000 		.4byte	.LVL230
 6036 1355 0100     		.2byte	0x1
 6037 1357 56       		.byte	0x56
 6038 1358 00000000 		.4byte	0
 6039 135c 00000000 		.4byte	0
 6040              	.LLST13:
 6041 1360 60000000 		.4byte	.LVL16
 6042 1364 0B030000 		.4byte	.LVL121-1
 6043 1368 0100     		.2byte	0x1
 6044 136a 5C       		.byte	0x5c
 6045 136b 0B030000 		.4byte	.LVL121-1
 6046 136f 1C030000 		.4byte	.LVL123
 6047 1373 0500     		.2byte	0x5
 6048 1375 76       		.byte	0x76
 6049 1376 00       		.sleb128 0
 6050 1377 3F       		.byte	0x3f
 6051 1378 1A       		.byte	0x1a
 6052 1379 9F       		.byte	0x9f
 6053 137a 1C030000 		.4byte	.LVL123
 6054 137e 49040000 		.4byte	.LVL141-1
 6055 1382 0100     		.2byte	0x1
 6056 1384 5C       		.byte	0x5c
 6057 1385 49040000 		.4byte	.LVL141-1
 6058 1389 5E040000 		.4byte	.LVL144
 6059 138d 0500     		.2byte	0x5
 6060 138f 76       		.byte	0x76
 6061 1390 00       		.sleb128 0
 6062 1391 3F       		.byte	0x3f
 6063 1392 1A       		.byte	0x1a
 6064 1393 9F       		.byte	0x9f
 6065 1394 5E040000 		.4byte	.LVL144
 6066 1398 69040000 		.4byte	.LVL147-1
 6067 139c 0100     		.2byte	0x1
 6068 139e 5C       		.byte	0x5c
 6069 139f 69040000 		.4byte	.LVL147-1
 6070 13a3 7E040000 		.4byte	.LVL150
ARM GAS  C:\Users\info\AppData\Local\Temp\ccl9i4Az.s 			page 156


 6071 13a7 0500     		.2byte	0x5
 6072 13a9 76       		.byte	0x76
 6073 13aa 00       		.sleb128 0
 6074 13ab 3F       		.byte	0x3f
 6075 13ac 1A       		.byte	0x1a
 6076 13ad 9F       		.byte	0x9f
 6077 13ae 7E040000 		.4byte	.LVL150
 6078 13b2 C5040000 		.4byte	.LVL155-1
 6079 13b6 0100     		.2byte	0x1
 6080 13b8 5C       		.byte	0x5c
 6081 13b9 C5040000 		.4byte	.LVL155-1
 6082 13bd D4040000 		.4byte	.LVL157
 6083 13c1 0500     		.2byte	0x5
 6084 13c3 76       		.byte	0x76
 6085 13c4 00       		.sleb128 0
 6086 13c5 3F       		.byte	0x3f
 6087 13c6 1A       		.byte	0x1a
 6088 13c7 9F       		.byte	0x9f
 6089 13c8 D4040000 		.4byte	.LVL157
 6090 13cc FE050000 		.4byte	.LVL227
 6091 13d0 0100     		.2byte	0x1
 6092 13d2 5C       		.byte	0x5c
 6093 13d3 FE050000 		.4byte	.LVL227
 6094 13d7 0A060000 		.4byte	.LVL228
 6095 13db 0500     		.2byte	0x5
 6096 13dd 76       		.byte	0x76
 6097 13de 00       		.sleb128 0
 6098 13df 3F       		.byte	0x3f
 6099 13e0 1A       		.byte	0x1a
 6100 13e1 9F       		.byte	0x9f
 6101 13e2 0A060000 		.4byte	.LVL228
 6102 13e6 0E060000 		.4byte	.LVL230
 6103 13ea 0100     		.2byte	0x1
 6104 13ec 5C       		.byte	0x5c
 6105 13ed 00000000 		.4byte	0
 6106 13f1 00000000 		.4byte	0
 6107              	.LLST14:
 6108 13f5 64000000 		.4byte	.LVL17
 6109 13f9 A6000000 		.4byte	.LVL22
 6110 13fd 0100     		.2byte	0x1
 6111 13ff 51       		.byte	0x51
 6112 1400 B6000000 		.4byte	.LVL24
 6113 1404 B8000000 		.4byte	.LVL25
 6114 1408 0100     		.2byte	0x1
 6115 140a 51       		.byte	0x51
 6116 140b C2000000 		.4byte	.LVL27
 6117 140f 56010000 		.4byte	.LVL58
 6118 1413 0100     		.2byte	0x1
 6119 1415 51       		.byte	0x51
 6120 1416 56010000 		.4byte	.LVL58
 6121 141a 66010000 		.4byte	.LVL60
 6122 141e 2000     		.2byte	0x20
 6123 1420 7B       		.byte	0x7b
 6124 1421 00       		.sleb128 0
 6125 1422 7A       		.byte	0x7a
 6126 1423 00       		.sleb128 0
 6127 1424 22       		.byte	0x22
ARM GAS  C:\Users\info\AppData\Local\Temp\ccl9i4Az.s 			page 157


 6128 1425 94       		.byte	0x94
 6129 1426 01       		.byte	0x1
 6130 1427 08       		.byte	0x8
 6131 1428 FF       		.byte	0xff
 6132 1429 1A       		.byte	0x1a
 6133 142a 38       		.byte	0x38
 6134 142b 24       		.byte	0x24
 6135 142c 7B       		.byte	0x7b
 6136 142d 00       		.sleb128 0
 6137 142e 7A       		.byte	0x7a
 6138 142f 00       		.sleb128 0
 6139 1430 22       		.byte	0x22
 6140 1431 23       		.byte	0x23
 6141 1432 01       		.uleb128 0x1
 6142 1433 94       		.byte	0x94
 6143 1434 01       		.byte	0x1
 6144 1435 08       		.byte	0x8
 6145 1436 FF       		.byte	0xff
 6146 1437 1A       		.byte	0x1a
 6147 1438 21       		.byte	0x21
 6148 1439 09       		.byte	0x9
 6149 143a F8       		.byte	0xf8
 6150 143b 24       		.byte	0x24
 6151 143c 09       		.byte	0x9
 6152 143d F8       		.byte	0xf8
 6153 143e 25       		.byte	0x25
 6154 143f 9F       		.byte	0x9f
 6155 1440 66010000 		.4byte	.LVL60
 6156 1444 6A010000 		.4byte	.LVL61
 6157 1448 2200     		.2byte	0x22
 6158 144a 7B       		.byte	0x7b
 6159 144b 00       		.sleb128 0
 6160 144c 7A       		.byte	0x7a
 6161 144d 00       		.sleb128 0
 6162 144e 22       		.byte	0x22
 6163 144f 32       		.byte	0x32
 6164 1450 1C       		.byte	0x1c
 6165 1451 94       		.byte	0x94
 6166 1452 01       		.byte	0x1
 6167 1453 08       		.byte	0x8
 6168 1454 FF       		.byte	0xff
 6169 1455 1A       		.byte	0x1a
 6170 1456 38       		.byte	0x38
 6171 1457 24       		.byte	0x24
 6172 1458 7B       		.byte	0x7b
 6173 1459 00       		.sleb128 0
 6174 145a 7A       		.byte	0x7a
 6175 145b 00       		.sleb128 0
 6176 145c 22       		.byte	0x22
 6177 145d 31       		.byte	0x31
 6178 145e 1C       		.byte	0x1c
 6179 145f 94       		.byte	0x94
 6180 1460 01       		.byte	0x1
 6181 1461 08       		.byte	0x8
 6182 1462 FF       		.byte	0xff
 6183 1463 1A       		.byte	0x1a
 6184 1464 21       		.byte	0x21
ARM GAS  C:\Users\info\AppData\Local\Temp\ccl9i4Az.s 			page 158


 6185 1465 09       		.byte	0x9
 6186 1466 F8       		.byte	0xf8
 6187 1467 24       		.byte	0x24
 6188 1468 09       		.byte	0x9
 6189 1469 F8       		.byte	0xf8
 6190 146a 25       		.byte	0x25
 6191 146b 9F       		.byte	0x9f
 6192 146c 70010000 		.4byte	.LVL62
 6193 1470 82010000 		.4byte	.LVL65
 6194 1474 0100     		.2byte	0x1
 6195 1476 51       		.byte	0x51
 6196 1477 82010000 		.4byte	.LVL65
 6197 147b 92010000 		.4byte	.LVL67
 6198 147f 2000     		.2byte	0x20
 6199 1481 7B       		.byte	0x7b
 6200 1482 00       		.sleb128 0
 6201 1483 7A       		.byte	0x7a
 6202 1484 00       		.sleb128 0
 6203 1485 22       		.byte	0x22
 6204 1486 94       		.byte	0x94
 6205 1487 01       		.byte	0x1
 6206 1488 08       		.byte	0x8
 6207 1489 FF       		.byte	0xff
 6208 148a 1A       		.byte	0x1a
 6209 148b 38       		.byte	0x38
 6210 148c 24       		.byte	0x24
 6211 148d 7B       		.byte	0x7b
 6212 148e 00       		.sleb128 0
 6213 148f 7A       		.byte	0x7a
 6214 1490 00       		.sleb128 0
 6215 1491 22       		.byte	0x22
 6216 1492 23       		.byte	0x23
 6217 1493 01       		.uleb128 0x1
 6218 1494 94       		.byte	0x94
 6219 1495 01       		.byte	0x1
 6220 1496 08       		.byte	0x8
 6221 1497 FF       		.byte	0xff
 6222 1498 1A       		.byte	0x1a
 6223 1499 21       		.byte	0x21
 6224 149a 09       		.byte	0x9
 6225 149b F8       		.byte	0xf8
 6226 149c 24       		.byte	0x24
 6227 149d 09       		.byte	0x9
 6228 149e F8       		.byte	0xf8
 6229 149f 25       		.byte	0x25
 6230 14a0 9F       		.byte	0x9f
 6231 14a1 92010000 		.4byte	.LVL67
 6232 14a5 96010000 		.4byte	.LVL68
 6233 14a9 2200     		.2byte	0x22
 6234 14ab 7B       		.byte	0x7b
 6235 14ac 00       		.sleb128 0
 6236 14ad 7A       		.byte	0x7a
 6237 14ae 00       		.sleb128 0
 6238 14af 22       		.byte	0x22
 6239 14b0 32       		.byte	0x32
 6240 14b1 1C       		.byte	0x1c
 6241 14b2 94       		.byte	0x94
ARM GAS  C:\Users\info\AppData\Local\Temp\ccl9i4Az.s 			page 159


 6242 14b3 01       		.byte	0x1
 6243 14b4 08       		.byte	0x8
 6244 14b5 FF       		.byte	0xff
 6245 14b6 1A       		.byte	0x1a
 6246 14b7 38       		.byte	0x38
 6247 14b8 24       		.byte	0x24
 6248 14b9 7B       		.byte	0x7b
 6249 14ba 00       		.sleb128 0
 6250 14bb 7A       		.byte	0x7a
 6251 14bc 00       		.sleb128 0
 6252 14bd 22       		.byte	0x22
 6253 14be 31       		.byte	0x31
 6254 14bf 1C       		.byte	0x1c
 6255 14c0 94       		.byte	0x94
 6256 14c1 01       		.byte	0x1
 6257 14c2 08       		.byte	0x8
 6258 14c3 FF       		.byte	0xff
 6259 14c4 1A       		.byte	0x1a
 6260 14c5 21       		.byte	0x21
 6261 14c6 09       		.byte	0x9
 6262 14c7 F8       		.byte	0xf8
 6263 14c8 24       		.byte	0x24
 6264 14c9 09       		.byte	0x9
 6265 14ca F8       		.byte	0xf8
 6266 14cb 25       		.byte	0x25
 6267 14cc 9F       		.byte	0x9f
 6268 14cd 9C010000 		.4byte	.LVL69
 6269 14d1 76020000 		.4byte	.LVL97
 6270 14d5 0100     		.2byte	0x1
 6271 14d7 51       		.byte	0x51
 6272 14d8 76020000 		.4byte	.LVL97
 6273 14dc 98020000 		.4byte	.LVL103
 6274 14e0 2000     		.2byte	0x20
 6275 14e2 7B       		.byte	0x7b
 6276 14e3 00       		.sleb128 0
 6277 14e4 7A       		.byte	0x7a
 6278 14e5 00       		.sleb128 0
 6279 14e6 22       		.byte	0x22
 6280 14e7 94       		.byte	0x94
 6281 14e8 01       		.byte	0x1
 6282 14e9 08       		.byte	0x8
 6283 14ea FF       		.byte	0xff
 6284 14eb 1A       		.byte	0x1a
 6285 14ec 38       		.byte	0x38
 6286 14ed 24       		.byte	0x24
 6287 14ee 7B       		.byte	0x7b
 6288 14ef 00       		.sleb128 0
 6289 14f0 7A       		.byte	0x7a
 6290 14f1 00       		.sleb128 0
 6291 14f2 22       		.byte	0x22
 6292 14f3 23       		.byte	0x23
 6293 14f4 01       		.uleb128 0x1
 6294 14f5 94       		.byte	0x94
 6295 14f6 01       		.byte	0x1
 6296 14f7 08       		.byte	0x8
 6297 14f8 FF       		.byte	0xff
 6298 14f9 1A       		.byte	0x1a
ARM GAS  C:\Users\info\AppData\Local\Temp\ccl9i4Az.s 			page 160


 6299 14fa 21       		.byte	0x21
 6300 14fb 09       		.byte	0x9
 6301 14fc F8       		.byte	0xf8
 6302 14fd 24       		.byte	0x24
 6303 14fe 09       		.byte	0x9
 6304 14ff F8       		.byte	0xf8
 6305 1500 25       		.byte	0x25
 6306 1501 9F       		.byte	0x9f
 6307 1502 98020000 		.4byte	.LVL103
 6308 1506 C0020000 		.4byte	.LVL108
 6309 150a 0100     		.2byte	0x1
 6310 150c 51       		.byte	0x51
 6311 150d C0020000 		.4byte	.LVL108
 6312 1511 E2020000 		.4byte	.LVL114
 6313 1515 2000     		.2byte	0x20
 6314 1517 7B       		.byte	0x7b
 6315 1518 00       		.sleb128 0
 6316 1519 7A       		.byte	0x7a
 6317 151a 00       		.sleb128 0
 6318 151b 22       		.byte	0x22
 6319 151c 94       		.byte	0x94
 6320 151d 01       		.byte	0x1
 6321 151e 08       		.byte	0x8
 6322 151f FF       		.byte	0xff
 6323 1520 1A       		.byte	0x1a
 6324 1521 38       		.byte	0x38
 6325 1522 24       		.byte	0x24
 6326 1523 7B       		.byte	0x7b
 6327 1524 00       		.sleb128 0
 6328 1525 7A       		.byte	0x7a
 6329 1526 00       		.sleb128 0
 6330 1527 22       		.byte	0x22
 6331 1528 23       		.byte	0x23
 6332 1529 01       		.uleb128 0x1
 6333 152a 94       		.byte	0x94
 6334 152b 01       		.byte	0x1
 6335 152c 08       		.byte	0x8
 6336 152d FF       		.byte	0xff
 6337 152e 1A       		.byte	0x1a
 6338 152f 21       		.byte	0x21
 6339 1530 09       		.byte	0x9
 6340 1531 F8       		.byte	0xf8
 6341 1532 24       		.byte	0x24
 6342 1533 09       		.byte	0x9
 6343 1534 F8       		.byte	0xf8
 6344 1535 25       		.byte	0x25
 6345 1536 9F       		.byte	0x9f
 6346 1537 E2020000 		.4byte	.LVL114
 6347 153b 0B030000 		.4byte	.LVL121-1
 6348 153f 0100     		.2byte	0x1
 6349 1541 51       		.byte	0x51
 6350 1542 EC030000 		.4byte	.LVL130
 6351 1546 F2030000 		.4byte	.LVL132
 6352 154a 0100     		.2byte	0x1
 6353 154c 51       		.byte	0x51
 6354 154d F2030000 		.4byte	.LVL132
 6355 1551 04040000 		.4byte	.LVL134
ARM GAS  C:\Users\info\AppData\Local\Temp\ccl9i4Az.s 			page 161


 6356 1555 2000     		.2byte	0x20
 6357 1557 7B       		.byte	0x7b
 6358 1558 00       		.sleb128 0
 6359 1559 7A       		.byte	0x7a
 6360 155a 00       		.sleb128 0
 6361 155b 22       		.byte	0x22
 6362 155c 94       		.byte	0x94
 6363 155d 01       		.byte	0x1
 6364 155e 08       		.byte	0x8
 6365 155f FF       		.byte	0xff
 6366 1560 1A       		.byte	0x1a
 6367 1561 38       		.byte	0x38
 6368 1562 24       		.byte	0x24
 6369 1563 7B       		.byte	0x7b
 6370 1564 00       		.sleb128 0
 6371 1565 7A       		.byte	0x7a
 6372 1566 00       		.sleb128 0
 6373 1567 22       		.byte	0x22
 6374 1568 23       		.byte	0x23
 6375 1569 01       		.uleb128 0x1
 6376 156a 94       		.byte	0x94
 6377 156b 01       		.byte	0x1
 6378 156c 08       		.byte	0x8
 6379 156d FF       		.byte	0xff
 6380 156e 1A       		.byte	0x1a
 6381 156f 21       		.byte	0x21
 6382 1570 09       		.byte	0x9
 6383 1571 F8       		.byte	0xf8
 6384 1572 24       		.byte	0x24
 6385 1573 09       		.byte	0x9
 6386 1574 F8       		.byte	0xf8
 6387 1575 25       		.byte	0x25
 6388 1576 9F       		.byte	0x9f
 6389 1577 04040000 		.4byte	.LVL134
 6390 157b 06040000 		.4byte	.LVL135
 6391 157f 2400     		.2byte	0x24
 6392 1581 7B       		.byte	0x7b
 6393 1582 00       		.sleb128 0
 6394 1583 91       		.byte	0x91
 6395 1584 9C7F     		.sleb128 -100
 6396 1586 06       		.byte	0x6
 6397 1587 22       		.byte	0x22
 6398 1588 94       		.byte	0x94
 6399 1589 01       		.byte	0x1
 6400 158a 08       		.byte	0x8
 6401 158b FF       		.byte	0xff
 6402 158c 1A       		.byte	0x1a
 6403 158d 38       		.byte	0x38
 6404 158e 24       		.byte	0x24
 6405 158f 7B       		.byte	0x7b
 6406 1590 00       		.sleb128 0
 6407 1591 91       		.byte	0x91
 6408 1592 9C7F     		.sleb128 -100
 6409 1594 06       		.byte	0x6
 6410 1595 22       		.byte	0x22
 6411 1596 23       		.byte	0x23
 6412 1597 01       		.uleb128 0x1
ARM GAS  C:\Users\info\AppData\Local\Temp\ccl9i4Az.s 			page 162


 6413 1598 94       		.byte	0x94
 6414 1599 01       		.byte	0x1
 6415 159a 08       		.byte	0x8
 6416 159b FF       		.byte	0xff
 6417 159c 1A       		.byte	0x1a
 6418 159d 21       		.byte	0x21
 6419 159e 09       		.byte	0x9
 6420 159f F8       		.byte	0xf8
 6421 15a0 24       		.byte	0x24
 6422 15a1 09       		.byte	0x9
 6423 15a2 F8       		.byte	0xf8
 6424 15a3 25       		.byte	0x25
 6425 15a4 9F       		.byte	0x9f
 6426 15a5 34040000 		.4byte	.LVL138
 6427 15a9 49040000 		.4byte	.LVL141-1
 6428 15ad 0100     		.2byte	0x1
 6429 15af 51       		.byte	0x51
 6430 15b0 5E040000 		.4byte	.LVL144
 6431 15b4 69040000 		.4byte	.LVL147-1
 6432 15b8 0100     		.2byte	0x1
 6433 15ba 51       		.byte	0x51
 6434 15bb 7E040000 		.4byte	.LVL150
 6435 15bf C5040000 		.4byte	.LVL155-1
 6436 15c3 0100     		.2byte	0x1
 6437 15c5 51       		.byte	0x51
 6438 15c6 D4040000 		.4byte	.LVL157
 6439 15ca 2E050000 		.4byte	.LVL180
 6440 15ce 0100     		.2byte	0x1
 6441 15d0 51       		.byte	0x51
 6442 15d1 2E050000 		.4byte	.LVL180
 6443 15d5 3E050000 		.4byte	.LVL182
 6444 15d9 2000     		.2byte	0x20
 6445 15db 7B       		.byte	0x7b
 6446 15dc 00       		.sleb128 0
 6447 15dd 7A       		.byte	0x7a
 6448 15de 00       		.sleb128 0
 6449 15df 22       		.byte	0x22
 6450 15e0 94       		.byte	0x94
 6451 15e1 01       		.byte	0x1
 6452 15e2 08       		.byte	0x8
 6453 15e3 FF       		.byte	0xff
 6454 15e4 1A       		.byte	0x1a
 6455 15e5 38       		.byte	0x38
 6456 15e6 24       		.byte	0x24
 6457 15e7 7B       		.byte	0x7b
 6458 15e8 00       		.sleb128 0
 6459 15e9 7A       		.byte	0x7a
 6460 15ea 00       		.sleb128 0
 6461 15eb 22       		.byte	0x22
 6462 15ec 23       		.byte	0x23
 6463 15ed 01       		.uleb128 0x1
 6464 15ee 94       		.byte	0x94
 6465 15ef 01       		.byte	0x1
 6466 15f0 08       		.byte	0x8
 6467 15f1 FF       		.byte	0xff
 6468 15f2 1A       		.byte	0x1a
 6469 15f3 21       		.byte	0x21
ARM GAS  C:\Users\info\AppData\Local\Temp\ccl9i4Az.s 			page 163


 6470 15f4 09       		.byte	0x9
 6471 15f5 F8       		.byte	0xf8
 6472 15f6 24       		.byte	0x24
 6473 15f7 09       		.byte	0x9
 6474 15f8 F8       		.byte	0xf8
 6475 15f9 25       		.byte	0x25
 6476 15fa 9F       		.byte	0x9f
 6477 15fb 82050000 		.4byte	.LVL187
 6478 15ff 86050000 		.4byte	.LVL189
 6479 1603 0100     		.2byte	0x1
 6480 1605 51       		.byte	0x51
 6481 1606 90050000 		.4byte	.LVL191
 6482 160a A4050000 		.4byte	.LVL194
 6483 160e 2000     		.2byte	0x20
 6484 1610 7B       		.byte	0x7b
 6485 1611 00       		.sleb128 0
 6486 1612 7A       		.byte	0x7a
 6487 1613 00       		.sleb128 0
 6488 1614 22       		.byte	0x22
 6489 1615 94       		.byte	0x94
 6490 1616 01       		.byte	0x1
 6491 1617 08       		.byte	0x8
 6492 1618 FF       		.byte	0xff
 6493 1619 1A       		.byte	0x1a
 6494 161a 38       		.byte	0x38
 6495 161b 24       		.byte	0x24
 6496 161c 7B       		.byte	0x7b
 6497 161d 00       		.sleb128 0
 6498 161e 7A       		.byte	0x7a
 6499 161f 00       		.sleb128 0
 6500 1620 22       		.byte	0x22
 6501 1621 23       		.byte	0x23
 6502 1622 01       		.uleb128 0x1
 6503 1623 94       		.byte	0x94
 6504 1624 01       		.byte	0x1
 6505 1625 08       		.byte	0x8
 6506 1626 FF       		.byte	0xff
 6507 1627 1A       		.byte	0x1a
 6508 1628 21       		.byte	0x21
 6509 1629 09       		.byte	0x9
 6510 162a F8       		.byte	0xf8
 6511 162b 24       		.byte	0x24
 6512 162c 09       		.byte	0x9
 6513 162d F8       		.byte	0xf8
 6514 162e 25       		.byte	0x25
 6515 162f 9F       		.byte	0x9f
 6516 1630 A4050000 		.4byte	.LVL194
 6517 1634 A8050000 		.4byte	.LVL196
 6518 1638 0100     		.2byte	0x1
 6519 163a 51       		.byte	0x51
 6520 163b A8050000 		.4byte	.LVL196
 6521 163f B2050000 		.4byte	.LVL198
 6522 1643 2000     		.2byte	0x20
 6523 1645 7B       		.byte	0x7b
 6524 1646 00       		.sleb128 0
 6525 1647 7A       		.byte	0x7a
 6526 1648 00       		.sleb128 0
ARM GAS  C:\Users\info\AppData\Local\Temp\ccl9i4Az.s 			page 164


 6527 1649 22       		.byte	0x22
 6528 164a 94       		.byte	0x94
 6529 164b 01       		.byte	0x1
 6530 164c 08       		.byte	0x8
 6531 164d FF       		.byte	0xff
 6532 164e 1A       		.byte	0x1a
 6533 164f 38       		.byte	0x38
 6534 1650 24       		.byte	0x24
 6535 1651 7B       		.byte	0x7b
 6536 1652 00       		.sleb128 0
 6537 1653 7A       		.byte	0x7a
 6538 1654 00       		.sleb128 0
 6539 1655 22       		.byte	0x22
 6540 1656 23       		.byte	0x23
 6541 1657 01       		.uleb128 0x1
 6542 1658 94       		.byte	0x94
 6543 1659 01       		.byte	0x1
 6544 165a 08       		.byte	0x8
 6545 165b FF       		.byte	0xff
 6546 165c 1A       		.byte	0x1a
 6547 165d 21       		.byte	0x21
 6548 165e 09       		.byte	0x9
 6549 165f F8       		.byte	0xf8
 6550 1660 24       		.byte	0x24
 6551 1661 09       		.byte	0x9
 6552 1662 F8       		.byte	0xf8
 6553 1663 25       		.byte	0x25
 6554 1664 9F       		.byte	0x9f
 6555 1665 B2050000 		.4byte	.LVL198
 6556 1669 E0050000 		.4byte	.LVL217
 6557 166d 0100     		.2byte	0x1
 6558 166f 51       		.byte	0x51
 6559 1670 E0050000 		.4byte	.LVL217
 6560 1674 E6050000 		.4byte	.LVL218
 6561 1678 2000     		.2byte	0x20
 6562 167a 7B       		.byte	0x7b
 6563 167b 00       		.sleb128 0
 6564 167c 7A       		.byte	0x7a
 6565 167d 00       		.sleb128 0
 6566 167e 22       		.byte	0x22
 6567 167f 94       		.byte	0x94
 6568 1680 01       		.byte	0x1
 6569 1681 08       		.byte	0x8
 6570 1682 FF       		.byte	0xff
 6571 1683 1A       		.byte	0x1a
 6572 1684 38       		.byte	0x38
 6573 1685 24       		.byte	0x24
 6574 1686 7B       		.byte	0x7b
 6575 1687 00       		.sleb128 0
 6576 1688 7A       		.byte	0x7a
 6577 1689 00       		.sleb128 0
 6578 168a 22       		.byte	0x22
 6579 168b 23       		.byte	0x23
 6580 168c 01       		.uleb128 0x1
 6581 168d 94       		.byte	0x94
 6582 168e 01       		.byte	0x1
 6583 168f 08       		.byte	0x8
ARM GAS  C:\Users\info\AppData\Local\Temp\ccl9i4Az.s 			page 165


 6584 1690 FF       		.byte	0xff
 6585 1691 1A       		.byte	0x1a
 6586 1692 21       		.byte	0x21
 6587 1693 09       		.byte	0x9
 6588 1694 F8       		.byte	0xf8
 6589 1695 24       		.byte	0x24
 6590 1696 09       		.byte	0x9
 6591 1697 F8       		.byte	0xf8
 6592 1698 25       		.byte	0x25
 6593 1699 9F       		.byte	0x9f
 6594 169a E6050000 		.4byte	.LVL218
 6595 169e EC050000 		.4byte	.LVL221
 6596 16a2 0100     		.2byte	0x1
 6597 16a4 51       		.byte	0x51
 6598 16a5 EC050000 		.4byte	.LVL221
 6599 16a9 F2050000 		.4byte	.LVL222
 6600 16ad 2000     		.2byte	0x20
 6601 16af 7B       		.byte	0x7b
 6602 16b0 00       		.sleb128 0
 6603 16b1 7A       		.byte	0x7a
 6604 16b2 00       		.sleb128 0
 6605 16b3 22       		.byte	0x22
 6606 16b4 94       		.byte	0x94
 6607 16b5 01       		.byte	0x1
 6608 16b6 08       		.byte	0x8
 6609 16b7 FF       		.byte	0xff
 6610 16b8 1A       		.byte	0x1a
 6611 16b9 38       		.byte	0x38
 6612 16ba 24       		.byte	0x24
 6613 16bb 7B       		.byte	0x7b
 6614 16bc 00       		.sleb128 0
 6615 16bd 7A       		.byte	0x7a
 6616 16be 00       		.sleb128 0
 6617 16bf 22       		.byte	0x22
 6618 16c0 23       		.byte	0x23
 6619 16c1 01       		.uleb128 0x1
 6620 16c2 94       		.byte	0x94
 6621 16c3 01       		.byte	0x1
 6622 16c4 08       		.byte	0x8
 6623 16c5 FF       		.byte	0xff
 6624 16c6 1A       		.byte	0x1a
 6625 16c7 21       		.byte	0x21
 6626 16c8 09       		.byte	0x9
 6627 16c9 F8       		.byte	0xf8
 6628 16ca 24       		.byte	0x24
 6629 16cb 09       		.byte	0x9
 6630 16cc F8       		.byte	0xf8
 6631 16cd 25       		.byte	0x25
 6632 16ce 9F       		.byte	0x9f
 6633 16cf F2050000 		.4byte	.LVL222
 6634 16d3 FE050000 		.4byte	.LVL227
 6635 16d7 0100     		.2byte	0x1
 6636 16d9 51       		.byte	0x51
 6637 16da 0A060000 		.4byte	.LVL228
 6638 16de 0E060000 		.4byte	.LVL230
 6639 16e2 0100     		.2byte	0x1
 6640 16e4 51       		.byte	0x51
ARM GAS  C:\Users\info\AppData\Local\Temp\ccl9i4Az.s 			page 166


 6641 16e5 00000000 		.4byte	0
 6642 16e9 00000000 		.4byte	0
 6643              	.LLST15:
 6644 16ed 64000000 		.4byte	.LVL17
 6645 16f1 10010000 		.4byte	.LVL45
 6646 16f5 0100     		.2byte	0x1
 6647 16f7 54       		.byte	0x54
 6648 16f8 10010000 		.4byte	.LVL45
 6649 16fc 1E010000 		.4byte	.LVL46
 6650 1700 1D00     		.2byte	0x1d
 6651 1702 7B       		.byte	0x7b
 6652 1703 00       		.sleb128 0
 6653 1704 7A       		.byte	0x7a
 6654 1705 00       		.sleb128 0
 6655 1706 22       		.byte	0x22
 6656 1707 94       		.byte	0x94
 6657 1708 01       		.byte	0x1
 6658 1709 08       		.byte	0x8
 6659 170a FF       		.byte	0xff
 6660 170b 1A       		.byte	0x1a
 6661 170c 38       		.byte	0x38
 6662 170d 24       		.byte	0x24
 6663 170e 7B       		.byte	0x7b
 6664 170f 00       		.sleb128 0
 6665 1710 7A       		.byte	0x7a
 6666 1711 00       		.sleb128 0
 6667 1712 22       		.byte	0x22
 6668 1713 23       		.byte	0x23
 6669 1714 01       		.uleb128 0x1
 6670 1715 94       		.byte	0x94
 6671 1716 01       		.byte	0x1
 6672 1717 08       		.byte	0x8
 6673 1718 FF       		.byte	0xff
 6674 1719 1A       		.byte	0x1a
 6675 171a 21       		.byte	0x21
 6676 171b 09       		.byte	0x9
 6677 171c F8       		.byte	0xf8
 6678 171d 24       		.byte	0x24
 6679 171e 9F       		.byte	0x9f
 6680 171f 1E010000 		.4byte	.LVL46
 6681 1723 22010000 		.4byte	.LVL47
 6682 1727 1F00     		.2byte	0x1f
 6683 1729 7B       		.byte	0x7b
 6684 172a 00       		.sleb128 0
 6685 172b 7A       		.byte	0x7a
 6686 172c 00       		.sleb128 0
 6687 172d 22       		.byte	0x22
 6688 172e 32       		.byte	0x32
 6689 172f 1C       		.byte	0x1c
 6690 1730 94       		.byte	0x94
 6691 1731 01       		.byte	0x1
 6692 1732 08       		.byte	0x8
 6693 1733 FF       		.byte	0xff
 6694 1734 1A       		.byte	0x1a
 6695 1735 38       		.byte	0x38
 6696 1736 24       		.byte	0x24
 6697 1737 7B       		.byte	0x7b
ARM GAS  C:\Users\info\AppData\Local\Temp\ccl9i4Az.s 			page 167


 6698 1738 00       		.sleb128 0
 6699 1739 7A       		.byte	0x7a
 6700 173a 00       		.sleb128 0
 6701 173b 22       		.byte	0x22
 6702 173c 31       		.byte	0x31
 6703 173d 1C       		.byte	0x1c
 6704 173e 94       		.byte	0x94
 6705 173f 01       		.byte	0x1
 6706 1740 08       		.byte	0x8
 6707 1741 FF       		.byte	0xff
 6708 1742 1A       		.byte	0x1a
 6709 1743 21       		.byte	0x21
 6710 1744 09       		.byte	0x9
 6711 1745 F8       		.byte	0xf8
 6712 1746 24       		.byte	0x24
 6713 1747 9F       		.byte	0x9f
 6714 1748 28010000 		.4byte	.LVL49
 6715 174c 2C010000 		.4byte	.LVL51
 6716 1750 0100     		.2byte	0x1
 6717 1752 54       		.byte	0x54
 6718 1753 2C010000 		.4byte	.LVL51
 6719 1757 3A010000 		.4byte	.LVL52
 6720 175b 1D00     		.2byte	0x1d
 6721 175d 7B       		.byte	0x7b
 6722 175e 00       		.sleb128 0
 6723 175f 7A       		.byte	0x7a
 6724 1760 00       		.sleb128 0
 6725 1761 22       		.byte	0x22
 6726 1762 94       		.byte	0x94
 6727 1763 01       		.byte	0x1
 6728 1764 08       		.byte	0x8
 6729 1765 FF       		.byte	0xff
 6730 1766 1A       		.byte	0x1a
 6731 1767 38       		.byte	0x38
 6732 1768 24       		.byte	0x24
 6733 1769 7B       		.byte	0x7b
 6734 176a 00       		.sleb128 0
 6735 176b 7A       		.byte	0x7a
 6736 176c 00       		.sleb128 0
 6737 176d 22       		.byte	0x22
 6738 176e 23       		.byte	0x23
 6739 176f 01       		.uleb128 0x1
 6740 1770 94       		.byte	0x94
 6741 1771 01       		.byte	0x1
 6742 1772 08       		.byte	0x8
 6743 1773 FF       		.byte	0xff
 6744 1774 1A       		.byte	0x1a
 6745 1775 21       		.byte	0x21
 6746 1776 09       		.byte	0x9
 6747 1777 F8       		.byte	0xf8
 6748 1778 24       		.byte	0x24
 6749 1779 9F       		.byte	0x9f
 6750 177a 3A010000 		.4byte	.LVL52
 6751 177e 3E010000 		.4byte	.LVL53
 6752 1782 1F00     		.2byte	0x1f
 6753 1784 7B       		.byte	0x7b
 6754 1785 00       		.sleb128 0
ARM GAS  C:\Users\info\AppData\Local\Temp\ccl9i4Az.s 			page 168


 6755 1786 7A       		.byte	0x7a
 6756 1787 00       		.sleb128 0
 6757 1788 22       		.byte	0x22
 6758 1789 32       		.byte	0x32
 6759 178a 1C       		.byte	0x1c
 6760 178b 94       		.byte	0x94
 6761 178c 01       		.byte	0x1
 6762 178d 08       		.byte	0x8
 6763 178e FF       		.byte	0xff
 6764 178f 1A       		.byte	0x1a
 6765 1790 38       		.byte	0x38
 6766 1791 24       		.byte	0x24
 6767 1792 7B       		.byte	0x7b
 6768 1793 00       		.sleb128 0
 6769 1794 7A       		.byte	0x7a
 6770 1795 00       		.sleb128 0
 6771 1796 22       		.byte	0x22
 6772 1797 31       		.byte	0x31
 6773 1798 1C       		.byte	0x1c
 6774 1799 94       		.byte	0x94
 6775 179a 01       		.byte	0x1
 6776 179b 08       		.byte	0x8
 6777 179c FF       		.byte	0xff
 6778 179d 1A       		.byte	0x1a
 6779 179e 21       		.byte	0x21
 6780 179f 09       		.byte	0x9
 6781 17a0 F8       		.byte	0xf8
 6782 17a1 24       		.byte	0x24
 6783 17a2 9F       		.byte	0x9f
 6784 17a3 44010000 		.4byte	.LVL55
 6785 17a7 50010000 		.4byte	.LVL57
 6786 17ab 0100     		.2byte	0x1
 6787 17ad 54       		.byte	0x54
 6788 17ae 50010000 		.4byte	.LVL57
 6789 17b2 66010000 		.4byte	.LVL60
 6790 17b6 1D00     		.2byte	0x1d
 6791 17b8 7B       		.byte	0x7b
 6792 17b9 00       		.sleb128 0
 6793 17ba 7A       		.byte	0x7a
 6794 17bb 00       		.sleb128 0
 6795 17bc 22       		.byte	0x22
 6796 17bd 94       		.byte	0x94
 6797 17be 01       		.byte	0x1
 6798 17bf 08       		.byte	0x8
 6799 17c0 FF       		.byte	0xff
 6800 17c1 1A       		.byte	0x1a
 6801 17c2 38       		.byte	0x38
 6802 17c3 24       		.byte	0x24
 6803 17c4 7B       		.byte	0x7b
 6804 17c5 00       		.sleb128 0
 6805 17c6 7A       		.byte	0x7a
 6806 17c7 00       		.sleb128 0
 6807 17c8 22       		.byte	0x22
 6808 17c9 23       		.byte	0x23
 6809 17ca 01       		.uleb128 0x1
 6810 17cb 94       		.byte	0x94
 6811 17cc 01       		.byte	0x1
ARM GAS  C:\Users\info\AppData\Local\Temp\ccl9i4Az.s 			page 169


 6812 17cd 08       		.byte	0x8
 6813 17ce FF       		.byte	0xff
 6814 17cf 1A       		.byte	0x1a
 6815 17d0 21       		.byte	0x21
 6816 17d1 09       		.byte	0x9
 6817 17d2 F8       		.byte	0xf8
 6818 17d3 24       		.byte	0x24
 6819 17d4 9F       		.byte	0x9f
 6820 17d5 66010000 		.4byte	.LVL60
 6821 17d9 6A010000 		.4byte	.LVL61
 6822 17dd 1F00     		.2byte	0x1f
 6823 17df 7B       		.byte	0x7b
 6824 17e0 00       		.sleb128 0
 6825 17e1 7A       		.byte	0x7a
 6826 17e2 00       		.sleb128 0
 6827 17e3 22       		.byte	0x22
 6828 17e4 32       		.byte	0x32
 6829 17e5 1C       		.byte	0x1c
 6830 17e6 94       		.byte	0x94
 6831 17e7 01       		.byte	0x1
 6832 17e8 08       		.byte	0x8
 6833 17e9 FF       		.byte	0xff
 6834 17ea 1A       		.byte	0x1a
 6835 17eb 38       		.byte	0x38
 6836 17ec 24       		.byte	0x24
 6837 17ed 7B       		.byte	0x7b
 6838 17ee 00       		.sleb128 0
 6839 17ef 7A       		.byte	0x7a
 6840 17f0 00       		.sleb128 0
 6841 17f1 22       		.byte	0x22
 6842 17f2 31       		.byte	0x31
 6843 17f3 1C       		.byte	0x1c
 6844 17f4 94       		.byte	0x94
 6845 17f5 01       		.byte	0x1
 6846 17f6 08       		.byte	0x8
 6847 17f7 FF       		.byte	0xff
 6848 17f8 1A       		.byte	0x1a
 6849 17f9 21       		.byte	0x21
 6850 17fa 09       		.byte	0x9
 6851 17fb F8       		.byte	0xf8
 6852 17fc 24       		.byte	0x24
 6853 17fd 9F       		.byte	0x9f
 6854 17fe 70010000 		.4byte	.LVL62
 6855 1802 7C010000 		.4byte	.LVL64
 6856 1806 0100     		.2byte	0x1
 6857 1808 54       		.byte	0x54
 6858 1809 7C010000 		.4byte	.LVL64
 6859 180d 92010000 		.4byte	.LVL67
 6860 1811 1D00     		.2byte	0x1d
 6861 1813 7B       		.byte	0x7b
 6862 1814 00       		.sleb128 0
 6863 1815 7A       		.byte	0x7a
 6864 1816 00       		.sleb128 0
 6865 1817 22       		.byte	0x22
 6866 1818 94       		.byte	0x94
 6867 1819 01       		.byte	0x1
 6868 181a 08       		.byte	0x8
ARM GAS  C:\Users\info\AppData\Local\Temp\ccl9i4Az.s 			page 170


 6869 181b FF       		.byte	0xff
 6870 181c 1A       		.byte	0x1a
 6871 181d 38       		.byte	0x38
 6872 181e 24       		.byte	0x24
 6873 181f 7B       		.byte	0x7b
 6874 1820 00       		.sleb128 0
 6875 1821 7A       		.byte	0x7a
 6876 1822 00       		.sleb128 0
 6877 1823 22       		.byte	0x22
 6878 1824 23       		.byte	0x23
 6879 1825 01       		.uleb128 0x1
 6880 1826 94       		.byte	0x94
 6881 1827 01       		.byte	0x1
 6882 1828 08       		.byte	0x8
 6883 1829 FF       		.byte	0xff
 6884 182a 1A       		.byte	0x1a
 6885 182b 21       		.byte	0x21
 6886 182c 09       		.byte	0x9
 6887 182d F8       		.byte	0xf8
 6888 182e 24       		.byte	0x24
 6889 182f 9F       		.byte	0x9f
 6890 1830 92010000 		.4byte	.LVL67
 6891 1834 96010000 		.4byte	.LVL68
 6892 1838 1F00     		.2byte	0x1f
 6893 183a 7B       		.byte	0x7b
 6894 183b 00       		.sleb128 0
 6895 183c 7A       		.byte	0x7a
 6896 183d 00       		.sleb128 0
 6897 183e 22       		.byte	0x22
 6898 183f 32       		.byte	0x32
 6899 1840 1C       		.byte	0x1c
 6900 1841 94       		.byte	0x94
 6901 1842 01       		.byte	0x1
 6902 1843 08       		.byte	0x8
 6903 1844 FF       		.byte	0xff
 6904 1845 1A       		.byte	0x1a
 6905 1846 38       		.byte	0x38
 6906 1847 24       		.byte	0x24
 6907 1848 7B       		.byte	0x7b
 6908 1849 00       		.sleb128 0
 6909 184a 7A       		.byte	0x7a
 6910 184b 00       		.sleb128 0
 6911 184c 22       		.byte	0x22
 6912 184d 31       		.byte	0x31
 6913 184e 1C       		.byte	0x1c
 6914 184f 94       		.byte	0x94
 6915 1850 01       		.byte	0x1
 6916 1851 08       		.byte	0x8
 6917 1852 FF       		.byte	0xff
 6918 1853 1A       		.byte	0x1a
 6919 1854 21       		.byte	0x21
 6920 1855 09       		.byte	0x9
 6921 1856 F8       		.byte	0xf8
 6922 1857 24       		.byte	0x24
 6923 1858 9F       		.byte	0x9f
 6924 1859 9C010000 		.4byte	.LVL69
 6925 185d A0010000 		.4byte	.LVL71
ARM GAS  C:\Users\info\AppData\Local\Temp\ccl9i4Az.s 			page 171


 6926 1861 0100     		.2byte	0x1
 6927 1863 54       		.byte	0x54
 6928 1864 A0010000 		.4byte	.LVL71
 6929 1868 AA010000 		.4byte	.LVL73
 6930 186c 1D00     		.2byte	0x1d
 6931 186e 7B       		.byte	0x7b
 6932 186f 00       		.sleb128 0
 6933 1870 7A       		.byte	0x7a
 6934 1871 00       		.sleb128 0
 6935 1872 22       		.byte	0x22
 6936 1873 94       		.byte	0x94
 6937 1874 01       		.byte	0x1
 6938 1875 08       		.byte	0x8
 6939 1876 FF       		.byte	0xff
 6940 1877 1A       		.byte	0x1a
 6941 1878 38       		.byte	0x38
 6942 1879 24       		.byte	0x24
 6943 187a 7B       		.byte	0x7b
 6944 187b 00       		.sleb128 0
 6945 187c 7A       		.byte	0x7a
 6946 187d 00       		.sleb128 0
 6947 187e 22       		.byte	0x22
 6948 187f 23       		.byte	0x23
 6949 1880 01       		.uleb128 0x1
 6950 1881 94       		.byte	0x94
 6951 1882 01       		.byte	0x1
 6952 1883 08       		.byte	0x8
 6953 1884 FF       		.byte	0xff
 6954 1885 1A       		.byte	0x1a
 6955 1886 21       		.byte	0x21
 6956 1887 09       		.byte	0x9
 6957 1888 F8       		.byte	0xf8
 6958 1889 24       		.byte	0x24
 6959 188a 9F       		.byte	0x9f
 6960 188b AA010000 		.4byte	.LVL73
 6961 188f AE010000 		.4byte	.LVL75
 6962 1893 0100     		.2byte	0x1
 6963 1895 54       		.byte	0x54
 6964 1896 AE010000 		.4byte	.LVL75
 6965 189a BE010000 		.4byte	.LVL78
 6966 189e 1D00     		.2byte	0x1d
 6967 18a0 7B       		.byte	0x7b
 6968 18a1 00       		.sleb128 0
 6969 18a2 7A       		.byte	0x7a
 6970 18a3 00       		.sleb128 0
 6971 18a4 22       		.byte	0x22
 6972 18a5 94       		.byte	0x94
 6973 18a6 01       		.byte	0x1
 6974 18a7 08       		.byte	0x8
 6975 18a8 FF       		.byte	0xff
 6976 18a9 1A       		.byte	0x1a
 6977 18aa 38       		.byte	0x38
 6978 18ab 24       		.byte	0x24
 6979 18ac 7B       		.byte	0x7b
 6980 18ad 00       		.sleb128 0
 6981 18ae 7A       		.byte	0x7a
 6982 18af 00       		.sleb128 0
ARM GAS  C:\Users\info\AppData\Local\Temp\ccl9i4Az.s 			page 172


 6983 18b0 22       		.byte	0x22
 6984 18b1 23       		.byte	0x23
 6985 18b2 01       		.uleb128 0x1
 6986 18b3 94       		.byte	0x94
 6987 18b4 01       		.byte	0x1
 6988 18b5 08       		.byte	0x8
 6989 18b6 FF       		.byte	0xff
 6990 18b7 1A       		.byte	0x1a
 6991 18b8 21       		.byte	0x21
 6992 18b9 09       		.byte	0x9
 6993 18ba F8       		.byte	0xf8
 6994 18bb 24       		.byte	0x24
 6995 18bc 9F       		.byte	0x9f
 6996 18bd BE010000 		.4byte	.LVL78
 6997 18c1 F2010000 		.4byte	.LVL81
 6998 18c5 0100     		.2byte	0x1
 6999 18c7 54       		.byte	0x54
 7000 18c8 F2010000 		.4byte	.LVL81
 7001 18cc FC010000 		.4byte	.LVL82
 7002 18d0 1D00     		.2byte	0x1d
 7003 18d2 7B       		.byte	0x7b
 7004 18d3 00       		.sleb128 0
 7005 18d4 7A       		.byte	0x7a
 7006 18d5 00       		.sleb128 0
 7007 18d6 22       		.byte	0x22
 7008 18d7 94       		.byte	0x94
 7009 18d8 01       		.byte	0x1
 7010 18d9 08       		.byte	0x8
 7011 18da FF       		.byte	0xff
 7012 18db 1A       		.byte	0x1a
 7013 18dc 38       		.byte	0x38
 7014 18dd 24       		.byte	0x24
 7015 18de 7B       		.byte	0x7b
 7016 18df 00       		.sleb128 0
 7017 18e0 7A       		.byte	0x7a
 7018 18e1 00       		.sleb128 0
 7019 18e2 22       		.byte	0x22
 7020 18e3 23       		.byte	0x23
 7021 18e4 01       		.uleb128 0x1
 7022 18e5 94       		.byte	0x94
 7023 18e6 01       		.byte	0x1
 7024 18e7 08       		.byte	0x8
 7025 18e8 FF       		.byte	0xff
 7026 18e9 1A       		.byte	0x1a
 7027 18ea 21       		.byte	0x21
 7028 18eb 09       		.byte	0x9
 7029 18ec F8       		.byte	0xf8
 7030 18ed 24       		.byte	0x24
 7031 18ee 9F       		.byte	0x9f
 7032 18ef FC010000 		.4byte	.LVL82
 7033 18f3 08020000 		.4byte	.LVL84
 7034 18f7 0100     		.2byte	0x1
 7035 18f9 54       		.byte	0x54
 7036 18fa 08020000 		.4byte	.LVL84
 7037 18fe 18020000 		.4byte	.LVL85
 7038 1902 1D00     		.2byte	0x1d
 7039 1904 7B       		.byte	0x7b
ARM GAS  C:\Users\info\AppData\Local\Temp\ccl9i4Az.s 			page 173


 7040 1905 00       		.sleb128 0
 7041 1906 7A       		.byte	0x7a
 7042 1907 00       		.sleb128 0
 7043 1908 22       		.byte	0x22
 7044 1909 94       		.byte	0x94
 7045 190a 01       		.byte	0x1
 7046 190b 08       		.byte	0x8
 7047 190c FF       		.byte	0xff
 7048 190d 1A       		.byte	0x1a
 7049 190e 38       		.byte	0x38
 7050 190f 24       		.byte	0x24
 7051 1910 7B       		.byte	0x7b
 7052 1911 00       		.sleb128 0
 7053 1912 7A       		.byte	0x7a
 7054 1913 00       		.sleb128 0
 7055 1914 22       		.byte	0x22
 7056 1915 23       		.byte	0x23
 7057 1916 01       		.uleb128 0x1
 7058 1917 94       		.byte	0x94
 7059 1918 01       		.byte	0x1
 7060 1919 08       		.byte	0x8
 7061 191a FF       		.byte	0xff
 7062 191b 1A       		.byte	0x1a
 7063 191c 21       		.byte	0x21
 7064 191d 09       		.byte	0x9
 7065 191e F8       		.byte	0xf8
 7066 191f 24       		.byte	0x24
 7067 1920 9F       		.byte	0x9f
 7068 1921 18020000 		.4byte	.LVL85
 7069 1925 24020000 		.4byte	.LVL87
 7070 1929 0100     		.2byte	0x1
 7071 192b 54       		.byte	0x54
 7072 192c 24020000 		.4byte	.LVL87
 7073 1930 34020000 		.4byte	.LVL88
 7074 1934 1D00     		.2byte	0x1d
 7075 1936 7B       		.byte	0x7b
 7076 1937 00       		.sleb128 0
 7077 1938 7A       		.byte	0x7a
 7078 1939 00       		.sleb128 0
 7079 193a 22       		.byte	0x22
 7080 193b 94       		.byte	0x94
 7081 193c 01       		.byte	0x1
 7082 193d 08       		.byte	0x8
 7083 193e FF       		.byte	0xff
 7084 193f 1A       		.byte	0x1a
 7085 1940 38       		.byte	0x38
 7086 1941 24       		.byte	0x24
 7087 1942 7B       		.byte	0x7b
 7088 1943 00       		.sleb128 0
 7089 1944 7A       		.byte	0x7a
 7090 1945 00       		.sleb128 0
 7091 1946 22       		.byte	0x22
 7092 1947 23       		.byte	0x23
 7093 1948 01       		.uleb128 0x1
 7094 1949 94       		.byte	0x94
 7095 194a 01       		.byte	0x1
 7096 194b 08       		.byte	0x8
ARM GAS  C:\Users\info\AppData\Local\Temp\ccl9i4Az.s 			page 174


 7097 194c FF       		.byte	0xff
 7098 194d 1A       		.byte	0x1a
 7099 194e 21       		.byte	0x21
 7100 194f 09       		.byte	0x9
 7101 1950 F8       		.byte	0xf8
 7102 1951 24       		.byte	0x24
 7103 1952 9F       		.byte	0x9f
 7104 1953 34020000 		.4byte	.LVL88
 7105 1957 40020000 		.4byte	.LVL90
 7106 195b 0100     		.2byte	0x1
 7107 195d 54       		.byte	0x54
 7108 195e 40020000 		.4byte	.LVL90
 7109 1962 50020000 		.4byte	.LVL91
 7110 1966 1D00     		.2byte	0x1d
 7111 1968 7B       		.byte	0x7b
 7112 1969 00       		.sleb128 0
 7113 196a 7A       		.byte	0x7a
 7114 196b 00       		.sleb128 0
 7115 196c 22       		.byte	0x22
 7116 196d 94       		.byte	0x94
 7117 196e 01       		.byte	0x1
 7118 196f 08       		.byte	0x8
 7119 1970 FF       		.byte	0xff
 7120 1971 1A       		.byte	0x1a
 7121 1972 38       		.byte	0x38
 7122 1973 24       		.byte	0x24
 7123 1974 7B       		.byte	0x7b
 7124 1975 00       		.sleb128 0
 7125 1976 7A       		.byte	0x7a
 7126 1977 00       		.sleb128 0
 7127 1978 22       		.byte	0x22
 7128 1979 23       		.byte	0x23
 7129 197a 01       		.uleb128 0x1
 7130 197b 94       		.byte	0x94
 7131 197c 01       		.byte	0x1
 7132 197d 08       		.byte	0x8
 7133 197e FF       		.byte	0xff
 7134 197f 1A       		.byte	0x1a
 7135 1980 21       		.byte	0x21
 7136 1981 09       		.byte	0x9
 7137 1982 F8       		.byte	0xf8
 7138 1983 24       		.byte	0x24
 7139 1984 9F       		.byte	0x9f
 7140 1985 50020000 		.4byte	.LVL91
 7141 1989 5C020000 		.4byte	.LVL93
 7142 198d 0100     		.2byte	0x1
 7143 198f 54       		.byte	0x54
 7144 1990 5C020000 		.4byte	.LVL93
 7145 1994 6C020000 		.4byte	.LVL94
 7146 1998 1D00     		.2byte	0x1d
 7147 199a 7B       		.byte	0x7b
 7148 199b 00       		.sleb128 0
 7149 199c 7A       		.byte	0x7a
 7150 199d 00       		.sleb128 0
 7151 199e 22       		.byte	0x22
 7152 199f 94       		.byte	0x94
 7153 19a0 01       		.byte	0x1
ARM GAS  C:\Users\info\AppData\Local\Temp\ccl9i4Az.s 			page 175


 7154 19a1 08       		.byte	0x8
 7155 19a2 FF       		.byte	0xff
 7156 19a3 1A       		.byte	0x1a
 7157 19a4 38       		.byte	0x38
 7158 19a5 24       		.byte	0x24
 7159 19a6 7B       		.byte	0x7b
 7160 19a7 00       		.sleb128 0
 7161 19a8 7A       		.byte	0x7a
 7162 19a9 00       		.sleb128 0
 7163 19aa 22       		.byte	0x22
 7164 19ab 23       		.byte	0x23
 7165 19ac 01       		.uleb128 0x1
 7166 19ad 94       		.byte	0x94
 7167 19ae 01       		.byte	0x1
 7168 19af 08       		.byte	0x8
 7169 19b0 FF       		.byte	0xff
 7170 19b1 1A       		.byte	0x1a
 7171 19b2 21       		.byte	0x21
 7172 19b3 09       		.byte	0x9
 7173 19b4 F8       		.byte	0xf8
 7174 19b5 24       		.byte	0x24
 7175 19b6 9F       		.byte	0x9f
 7176 19b7 6C020000 		.4byte	.LVL94
 7177 19bb 70020000 		.4byte	.LVL95
 7178 19bf 0100     		.2byte	0x1
 7179 19c1 54       		.byte	0x54
 7180 19c2 70020000 		.4byte	.LVL95
 7181 19c6 98020000 		.4byte	.LVL103
 7182 19ca 1D00     		.2byte	0x1d
 7183 19cc 7B       		.byte	0x7b
 7184 19cd 00       		.sleb128 0
 7185 19ce 7A       		.byte	0x7a
 7186 19cf 00       		.sleb128 0
 7187 19d0 22       		.byte	0x22
 7188 19d1 94       		.byte	0x94
 7189 19d2 01       		.byte	0x1
 7190 19d3 08       		.byte	0x8
 7191 19d4 FF       		.byte	0xff
 7192 19d5 1A       		.byte	0x1a
 7193 19d6 38       		.byte	0x38
 7194 19d7 24       		.byte	0x24
 7195 19d8 7B       		.byte	0x7b
 7196 19d9 00       		.sleb128 0
 7197 19da 7A       		.byte	0x7a
 7198 19db 00       		.sleb128 0
 7199 19dc 22       		.byte	0x22
 7200 19dd 23       		.byte	0x23
 7201 19de 01       		.uleb128 0x1
 7202 19df 94       		.byte	0x94
 7203 19e0 01       		.byte	0x1
 7204 19e1 08       		.byte	0x8
 7205 19e2 FF       		.byte	0xff
 7206 19e3 1A       		.byte	0x1a
 7207 19e4 21       		.byte	0x21
 7208 19e5 09       		.byte	0x9
 7209 19e6 F8       		.byte	0xf8
 7210 19e7 24       		.byte	0x24
ARM GAS  C:\Users\info\AppData\Local\Temp\ccl9i4Az.s 			page 176


 7211 19e8 9F       		.byte	0x9f
 7212 19e9 98020000 		.4byte	.LVL103
 7213 19ed 9C020000 		.4byte	.LVL105
 7214 19f1 0100     		.2byte	0x1
 7215 19f3 54       		.byte	0x54
 7216 19f4 9C020000 		.4byte	.LVL105
 7217 19f8 B8020000 		.4byte	.LVL106
 7218 19fc 1D00     		.2byte	0x1d
 7219 19fe 7B       		.byte	0x7b
 7220 19ff 00       		.sleb128 0
 7221 1a00 7A       		.byte	0x7a
 7222 1a01 00       		.sleb128 0
 7223 1a02 22       		.byte	0x22
 7224 1a03 94       		.byte	0x94
 7225 1a04 01       		.byte	0x1
 7226 1a05 08       		.byte	0x8
 7227 1a06 FF       		.byte	0xff
 7228 1a07 1A       		.byte	0x1a
 7229 1a08 38       		.byte	0x38
 7230 1a09 24       		.byte	0x24
 7231 1a0a 7B       		.byte	0x7b
 7232 1a0b 00       		.sleb128 0
 7233 1a0c 7A       		.byte	0x7a
 7234 1a0d 00       		.sleb128 0
 7235 1a0e 22       		.byte	0x22
 7236 1a0f 23       		.byte	0x23
 7237 1a10 01       		.uleb128 0x1
 7238 1a11 94       		.byte	0x94
 7239 1a12 01       		.byte	0x1
 7240 1a13 08       		.byte	0x8
 7241 1a14 FF       		.byte	0xff
 7242 1a15 1A       		.byte	0x1a
 7243 1a16 21       		.byte	0x21
 7244 1a17 09       		.byte	0x9
 7245 1a18 F8       		.byte	0xf8
 7246 1a19 24       		.byte	0x24
 7247 1a1a 9F       		.byte	0x9f
 7248 1a1b B8020000 		.4byte	.LVL106
 7249 1a1f BC020000 		.4byte	.LVL107
 7250 1a23 0100     		.2byte	0x1
 7251 1a25 54       		.byte	0x54
 7252 1a26 BC020000 		.4byte	.LVL107
 7253 1a2a E2020000 		.4byte	.LVL114
 7254 1a2e 1D00     		.2byte	0x1d
 7255 1a30 7B       		.byte	0x7b
 7256 1a31 00       		.sleb128 0
 7257 1a32 7A       		.byte	0x7a
 7258 1a33 00       		.sleb128 0
 7259 1a34 22       		.byte	0x22
 7260 1a35 94       		.byte	0x94
 7261 1a36 01       		.byte	0x1
 7262 1a37 08       		.byte	0x8
 7263 1a38 FF       		.byte	0xff
 7264 1a39 1A       		.byte	0x1a
 7265 1a3a 38       		.byte	0x38
 7266 1a3b 24       		.byte	0x24
 7267 1a3c 7B       		.byte	0x7b
ARM GAS  C:\Users\info\AppData\Local\Temp\ccl9i4Az.s 			page 177


 7268 1a3d 00       		.sleb128 0
 7269 1a3e 7A       		.byte	0x7a
 7270 1a3f 00       		.sleb128 0
 7271 1a40 22       		.byte	0x22
 7272 1a41 23       		.byte	0x23
 7273 1a42 01       		.uleb128 0x1
 7274 1a43 94       		.byte	0x94
 7275 1a44 01       		.byte	0x1
 7276 1a45 08       		.byte	0x8
 7277 1a46 FF       		.byte	0xff
 7278 1a47 1A       		.byte	0x1a
 7279 1a48 21       		.byte	0x21
 7280 1a49 09       		.byte	0x9
 7281 1a4a F8       		.byte	0xf8
 7282 1a4b 24       		.byte	0x24
 7283 1a4c 9F       		.byte	0x9f
 7284 1a4d E2020000 		.4byte	.LVL114
 7285 1a51 E6020000 		.4byte	.LVL116
 7286 1a55 0100     		.2byte	0x1
 7287 1a57 54       		.byte	0x54
 7288 1a58 E6020000 		.4byte	.LVL116
 7289 1a5c 00030000 		.4byte	.LVL117
 7290 1a60 1D00     		.2byte	0x1d
 7291 1a62 7B       		.byte	0x7b
 7292 1a63 00       		.sleb128 0
 7293 1a64 7A       		.byte	0x7a
 7294 1a65 00       		.sleb128 0
 7295 1a66 22       		.byte	0x22
 7296 1a67 94       		.byte	0x94
 7297 1a68 01       		.byte	0x1
 7298 1a69 08       		.byte	0x8
 7299 1a6a FF       		.byte	0xff
 7300 1a6b 1A       		.byte	0x1a
 7301 1a6c 38       		.byte	0x38
 7302 1a6d 24       		.byte	0x24
 7303 1a6e 7B       		.byte	0x7b
 7304 1a6f 00       		.sleb128 0
 7305 1a70 7A       		.byte	0x7a
 7306 1a71 00       		.sleb128 0
 7307 1a72 22       		.byte	0x22
 7308 1a73 23       		.byte	0x23
 7309 1a74 01       		.uleb128 0x1
 7310 1a75 94       		.byte	0x94
 7311 1a76 01       		.byte	0x1
 7312 1a77 08       		.byte	0x8
 7313 1a78 FF       		.byte	0xff
 7314 1a79 1A       		.byte	0x1a
 7315 1a7a 21       		.byte	0x21
 7316 1a7b 09       		.byte	0x9
 7317 1a7c F8       		.byte	0xf8
 7318 1a7d 24       		.byte	0x24
 7319 1a7e 9F       		.byte	0x9f
 7320 1a7f 00030000 		.4byte	.LVL117
 7321 1a83 10030000 		.4byte	.LVL122
 7322 1a87 0100     		.2byte	0x1
 7323 1a89 54       		.byte	0x54
 7324 1a8a 1C030000 		.4byte	.LVL123
ARM GAS  C:\Users\info\AppData\Local\Temp\ccl9i4Az.s 			page 178


 7325 1a8e EC030000 		.4byte	.LVL130
 7326 1a92 0100     		.2byte	0x1
 7327 1a94 57       		.byte	0x57
 7328 1a95 EC030000 		.4byte	.LVL130
 7329 1a99 06040000 		.4byte	.LVL135
 7330 1a9d 0100     		.2byte	0x1
 7331 1a9f 54       		.byte	0x54
 7332 1aa0 06040000 		.4byte	.LVL135
 7333 1aa4 34040000 		.4byte	.LVL138
 7334 1aa8 0100     		.2byte	0x1
 7335 1aaa 57       		.byte	0x57
 7336 1aab 34040000 		.4byte	.LVL138
 7337 1aaf 42040000 		.4byte	.LVL140
 7338 1ab3 0100     		.2byte	0x1
 7339 1ab5 54       		.byte	0x54
 7340 1ab6 42040000 		.4byte	.LVL140
 7341 1aba 49040000 		.4byte	.LVL141-1
 7342 1abe 1D00     		.2byte	0x1d
 7343 1ac0 7B       		.byte	0x7b
 7344 1ac1 00       		.sleb128 0
 7345 1ac2 7A       		.byte	0x7a
 7346 1ac3 00       		.sleb128 0
 7347 1ac4 22       		.byte	0x22
 7348 1ac5 94       		.byte	0x94
 7349 1ac6 01       		.byte	0x1
 7350 1ac7 08       		.byte	0x8
 7351 1ac8 FF       		.byte	0xff
 7352 1ac9 1A       		.byte	0x1a
 7353 1aca 38       		.byte	0x38
 7354 1acb 24       		.byte	0x24
 7355 1acc 7B       		.byte	0x7b
 7356 1acd 00       		.sleb128 0
 7357 1ace 7A       		.byte	0x7a
 7358 1acf 00       		.sleb128 0
 7359 1ad0 22       		.byte	0x22
 7360 1ad1 23       		.byte	0x23
 7361 1ad2 01       		.uleb128 0x1
 7362 1ad3 94       		.byte	0x94
 7363 1ad4 01       		.byte	0x1
 7364 1ad5 08       		.byte	0x8
 7365 1ad6 FF       		.byte	0xff
 7366 1ad7 1A       		.byte	0x1a
 7367 1ad8 21       		.byte	0x21
 7368 1ad9 09       		.byte	0x9
 7369 1ada F8       		.byte	0xf8
 7370 1adb 24       		.byte	0x24
 7371 1adc 9F       		.byte	0x9f
 7372 1add 5E040000 		.4byte	.LVL144
 7373 1ae1 62040000 		.4byte	.LVL146
 7374 1ae5 0100     		.2byte	0x1
 7375 1ae7 54       		.byte	0x54
 7376 1ae8 62040000 		.4byte	.LVL146
 7377 1aec 69040000 		.4byte	.LVL147-1
 7378 1af0 1D00     		.2byte	0x1d
 7379 1af2 7B       		.byte	0x7b
 7380 1af3 00       		.sleb128 0
 7381 1af4 7A       		.byte	0x7a
ARM GAS  C:\Users\info\AppData\Local\Temp\ccl9i4Az.s 			page 179


 7382 1af5 00       		.sleb128 0
 7383 1af6 22       		.byte	0x22
 7384 1af7 94       		.byte	0x94
 7385 1af8 01       		.byte	0x1
 7386 1af9 08       		.byte	0x8
 7387 1afa FF       		.byte	0xff
 7388 1afb 1A       		.byte	0x1a
 7389 1afc 38       		.byte	0x38
 7390 1afd 24       		.byte	0x24
 7391 1afe 7B       		.byte	0x7b
 7392 1aff 00       		.sleb128 0
 7393 1b00 7A       		.byte	0x7a
 7394 1b01 00       		.sleb128 0
 7395 1b02 22       		.byte	0x22
 7396 1b03 23       		.byte	0x23
 7397 1b04 01       		.uleb128 0x1
 7398 1b05 94       		.byte	0x94
 7399 1b06 01       		.byte	0x1
 7400 1b07 08       		.byte	0x8
 7401 1b08 FF       		.byte	0xff
 7402 1b09 1A       		.byte	0x1a
 7403 1b0a 21       		.byte	0x21
 7404 1b0b 09       		.byte	0x9
 7405 1b0c F8       		.byte	0xf8
 7406 1b0d 24       		.byte	0x24
 7407 1b0e 9F       		.byte	0x9f
 7408 1b0f 7E040000 		.4byte	.LVL150
 7409 1b13 B8040000 		.4byte	.LVL153
 7410 1b17 0100     		.2byte	0x1
 7411 1b19 54       		.byte	0x54
 7412 1b1a B8040000 		.4byte	.LVL153
 7413 1b1e C2040000 		.4byte	.LVL154
 7414 1b22 1D00     		.2byte	0x1d
 7415 1b24 7B       		.byte	0x7b
 7416 1b25 00       		.sleb128 0
 7417 1b26 7A       		.byte	0x7a
 7418 1b27 00       		.sleb128 0
 7419 1b28 22       		.byte	0x22
 7420 1b29 94       		.byte	0x94
 7421 1b2a 01       		.byte	0x1
 7422 1b2b 08       		.byte	0x8
 7423 1b2c FF       		.byte	0xff
 7424 1b2d 1A       		.byte	0x1a
 7425 1b2e 38       		.byte	0x38
 7426 1b2f 24       		.byte	0x24
 7427 1b30 7B       		.byte	0x7b
 7428 1b31 00       		.sleb128 0
 7429 1b32 7A       		.byte	0x7a
 7430 1b33 00       		.sleb128 0
 7431 1b34 22       		.byte	0x22
 7432 1b35 23       		.byte	0x23
 7433 1b36 01       		.uleb128 0x1
 7434 1b37 94       		.byte	0x94
 7435 1b38 01       		.byte	0x1
 7436 1b39 08       		.byte	0x8
 7437 1b3a FF       		.byte	0xff
 7438 1b3b 1A       		.byte	0x1a
ARM GAS  C:\Users\info\AppData\Local\Temp\ccl9i4Az.s 			page 180


 7439 1b3c 21       		.byte	0x21
 7440 1b3d 09       		.byte	0x9
 7441 1b3e F8       		.byte	0xf8
 7442 1b3f 24       		.byte	0x24
 7443 1b40 9F       		.byte	0x9f
 7444 1b41 C2040000 		.4byte	.LVL154
 7445 1b45 CA040000 		.4byte	.LVL156
 7446 1b49 0100     		.2byte	0x1
 7447 1b4b 54       		.byte	0x54
 7448 1b4c D4040000 		.4byte	.LVL157
 7449 1b50 D8040000 		.4byte	.LVL159
 7450 1b54 0100     		.2byte	0x1
 7451 1b56 54       		.byte	0x54
 7452 1b57 D8040000 		.4byte	.LVL159
 7453 1b5b E0040000 		.4byte	.LVL161
 7454 1b5f 1D00     		.2byte	0x1d
 7455 1b61 7B       		.byte	0x7b
 7456 1b62 00       		.sleb128 0
 7457 1b63 7A       		.byte	0x7a
 7458 1b64 00       		.sleb128 0
 7459 1b65 22       		.byte	0x22
 7460 1b66 94       		.byte	0x94
 7461 1b67 01       		.byte	0x1
 7462 1b68 08       		.byte	0x8
 7463 1b69 FF       		.byte	0xff
 7464 1b6a 1A       		.byte	0x1a
 7465 1b6b 38       		.byte	0x38
 7466 1b6c 24       		.byte	0x24
 7467 1b6d 7B       		.byte	0x7b
 7468 1b6e 00       		.sleb128 0
 7469 1b6f 7A       		.byte	0x7a
 7470 1b70 00       		.sleb128 0
 7471 1b71 22       		.byte	0x22
 7472 1b72 23       		.byte	0x23
 7473 1b73 01       		.uleb128 0x1
 7474 1b74 94       		.byte	0x94
 7475 1b75 01       		.byte	0x1
 7476 1b76 08       		.byte	0x8
 7477 1b77 FF       		.byte	0xff
 7478 1b78 1A       		.byte	0x1a
 7479 1b79 21       		.byte	0x21
 7480 1b7a 09       		.byte	0x9
 7481 1b7b F8       		.byte	0xf8
 7482 1b7c 24       		.byte	0x24
 7483 1b7d 9F       		.byte	0x9f
 7484 1b7e E6040000 		.4byte	.LVL162
 7485 1b82 EA040000 		.4byte	.LVL164
 7486 1b86 0100     		.2byte	0x1
 7487 1b88 54       		.byte	0x54
 7488 1b89 EA040000 		.4byte	.LVL164
 7489 1b8d F2040000 		.4byte	.LVL166
 7490 1b91 1D00     		.2byte	0x1d
 7491 1b93 7B       		.byte	0x7b
 7492 1b94 00       		.sleb128 0
 7493 1b95 7A       		.byte	0x7a
 7494 1b96 00       		.sleb128 0
 7495 1b97 22       		.byte	0x22
ARM GAS  C:\Users\info\AppData\Local\Temp\ccl9i4Az.s 			page 181


 7496 1b98 94       		.byte	0x94
 7497 1b99 01       		.byte	0x1
 7498 1b9a 08       		.byte	0x8
 7499 1b9b FF       		.byte	0xff
 7500 1b9c 1A       		.byte	0x1a
 7501 1b9d 38       		.byte	0x38
 7502 1b9e 24       		.byte	0x24
 7503 1b9f 7B       		.byte	0x7b
 7504 1ba0 00       		.sleb128 0
 7505 1ba1 7A       		.byte	0x7a
 7506 1ba2 00       		.sleb128 0
 7507 1ba3 22       		.byte	0x22
 7508 1ba4 23       		.byte	0x23
 7509 1ba5 01       		.uleb128 0x1
 7510 1ba6 94       		.byte	0x94
 7511 1ba7 01       		.byte	0x1
 7512 1ba8 08       		.byte	0x8
 7513 1ba9 FF       		.byte	0xff
 7514 1baa 1A       		.byte	0x1a
 7515 1bab 21       		.byte	0x21
 7516 1bac 09       		.byte	0x9
 7517 1bad F8       		.byte	0xf8
 7518 1bae 24       		.byte	0x24
 7519 1baf 9F       		.byte	0x9f
 7520 1bb0 F8040000 		.4byte	.LVL167
 7521 1bb4 FC040000 		.4byte	.LVL169
 7522 1bb8 0100     		.2byte	0x1
 7523 1bba 54       		.byte	0x54
 7524 1bbb FC040000 		.4byte	.LVL169
 7525 1bbf 0E050000 		.4byte	.LVL172
 7526 1bc3 1D00     		.2byte	0x1d
 7527 1bc5 7B       		.byte	0x7b
 7528 1bc6 00       		.sleb128 0
 7529 1bc7 7A       		.byte	0x7a
 7530 1bc8 00       		.sleb128 0
 7531 1bc9 22       		.byte	0x22
 7532 1bca 94       		.byte	0x94
 7533 1bcb 01       		.byte	0x1
 7534 1bcc 08       		.byte	0x8
 7535 1bcd FF       		.byte	0xff
 7536 1bce 1A       		.byte	0x1a
 7537 1bcf 38       		.byte	0x38
 7538 1bd0 24       		.byte	0x24
 7539 1bd1 7B       		.byte	0x7b
 7540 1bd2 00       		.sleb128 0
 7541 1bd3 7A       		.byte	0x7a
 7542 1bd4 00       		.sleb128 0
 7543 1bd5 22       		.byte	0x22
 7544 1bd6 23       		.byte	0x23
 7545 1bd7 01       		.uleb128 0x1
 7546 1bd8 94       		.byte	0x94
 7547 1bd9 01       		.byte	0x1
 7548 1bda 08       		.byte	0x8
 7549 1bdb FF       		.byte	0xff
 7550 1bdc 1A       		.byte	0x1a
 7551 1bdd 21       		.byte	0x21
 7552 1bde 09       		.byte	0x9
ARM GAS  C:\Users\info\AppData\Local\Temp\ccl9i4Az.s 			page 182


 7553 1bdf F8       		.byte	0xf8
 7554 1be0 24       		.byte	0x24
 7555 1be1 9F       		.byte	0x9f
 7556 1be2 0E050000 		.4byte	.LVL172
 7557 1be6 12050000 		.4byte	.LVL174
 7558 1bea 0100     		.2byte	0x1
 7559 1bec 54       		.byte	0x54
 7560 1bed 12050000 		.4byte	.LVL174
 7561 1bf1 26050000 		.4byte	.LVL177
 7562 1bf5 1D00     		.2byte	0x1d
 7563 1bf7 7B       		.byte	0x7b
 7564 1bf8 00       		.sleb128 0
 7565 1bf9 7A       		.byte	0x7a
 7566 1bfa 00       		.sleb128 0
 7567 1bfb 22       		.byte	0x22
 7568 1bfc 94       		.byte	0x94
 7569 1bfd 01       		.byte	0x1
 7570 1bfe 08       		.byte	0x8
 7571 1bff FF       		.byte	0xff
 7572 1c00 1A       		.byte	0x1a
 7573 1c01 38       		.byte	0x38
 7574 1c02 24       		.byte	0x24
 7575 1c03 7B       		.byte	0x7b
 7576 1c04 00       		.sleb128 0
 7577 1c05 7A       		.byte	0x7a
 7578 1c06 00       		.sleb128 0
 7579 1c07 22       		.byte	0x22
 7580 1c08 23       		.byte	0x23
 7581 1c09 01       		.uleb128 0x1
 7582 1c0a 94       		.byte	0x94
 7583 1c0b 01       		.byte	0x1
 7584 1c0c 08       		.byte	0x8
 7585 1c0d FF       		.byte	0xff
 7586 1c0e 1A       		.byte	0x1a
 7587 1c0f 21       		.byte	0x21
 7588 1c10 09       		.byte	0x9
 7589 1c11 F8       		.byte	0xf8
 7590 1c12 24       		.byte	0x24
 7591 1c13 9F       		.byte	0x9f
 7592 1c14 26050000 		.4byte	.LVL177
 7593 1c18 2A050000 		.4byte	.LVL179
 7594 1c1c 0100     		.2byte	0x1
 7595 1c1e 54       		.byte	0x54
 7596 1c1f 2A050000 		.4byte	.LVL179
 7597 1c23 3E050000 		.4byte	.LVL182
 7598 1c27 1D00     		.2byte	0x1d
 7599 1c29 7B       		.byte	0x7b
 7600 1c2a 00       		.sleb128 0
 7601 1c2b 7A       		.byte	0x7a
 7602 1c2c 00       		.sleb128 0
 7603 1c2d 22       		.byte	0x22
 7604 1c2e 94       		.byte	0x94
 7605 1c2f 01       		.byte	0x1
 7606 1c30 08       		.byte	0x8
 7607 1c31 FF       		.byte	0xff
 7608 1c32 1A       		.byte	0x1a
 7609 1c33 38       		.byte	0x38
ARM GAS  C:\Users\info\AppData\Local\Temp\ccl9i4Az.s 			page 183


 7610 1c34 24       		.byte	0x24
 7611 1c35 7B       		.byte	0x7b
 7612 1c36 00       		.sleb128 0
 7613 1c37 7A       		.byte	0x7a
 7614 1c38 00       		.sleb128 0
 7615 1c39 22       		.byte	0x22
 7616 1c3a 23       		.byte	0x23
 7617 1c3b 01       		.uleb128 0x1
 7618 1c3c 94       		.byte	0x94
 7619 1c3d 01       		.byte	0x1
 7620 1c3e 08       		.byte	0x8
 7621 1c3f FF       		.byte	0xff
 7622 1c40 1A       		.byte	0x1a
 7623 1c41 21       		.byte	0x21
 7624 1c42 09       		.byte	0x9
 7625 1c43 F8       		.byte	0xf8
 7626 1c44 24       		.byte	0x24
 7627 1c45 9F       		.byte	0x9f
 7628 1c46 6E050000 		.4byte	.LVL184
 7629 1c4a CE050000 		.4byte	.LVL210
 7630 1c4e 0100     		.2byte	0x1
 7631 1c50 54       		.byte	0x54
 7632 1c51 CE050000 		.4byte	.LVL210
 7633 1c55 DA050000 		.4byte	.LVL214
 7634 1c59 1D00     		.2byte	0x1d
 7635 1c5b 7B       		.byte	0x7b
 7636 1c5c 00       		.sleb128 0
 7637 1c5d 7A       		.byte	0x7a
 7638 1c5e 00       		.sleb128 0
 7639 1c5f 22       		.byte	0x22
 7640 1c60 94       		.byte	0x94
 7641 1c61 01       		.byte	0x1
 7642 1c62 08       		.byte	0x8
 7643 1c63 FF       		.byte	0xff
 7644 1c64 1A       		.byte	0x1a
 7645 1c65 38       		.byte	0x38
 7646 1c66 24       		.byte	0x24
 7647 1c67 7B       		.byte	0x7b
 7648 1c68 00       		.sleb128 0
 7649 1c69 7A       		.byte	0x7a
 7650 1c6a 00       		.sleb128 0
 7651 1c6b 22       		.byte	0x22
 7652 1c6c 23       		.byte	0x23
 7653 1c6d 01       		.uleb128 0x1
 7654 1c6e 94       		.byte	0x94
 7655 1c6f 01       		.byte	0x1
 7656 1c70 08       		.byte	0x8
 7657 1c71 FF       		.byte	0xff
 7658 1c72 1A       		.byte	0x1a
 7659 1c73 21       		.byte	0x21
 7660 1c74 09       		.byte	0x9
 7661 1c75 F8       		.byte	0xf8
 7662 1c76 24       		.byte	0x24
 7663 1c77 9F       		.byte	0x9f
 7664 1c78 DA050000 		.4byte	.LVL214
 7665 1c7c E0050000 		.4byte	.LVL217
 7666 1c80 0100     		.2byte	0x1
ARM GAS  C:\Users\info\AppData\Local\Temp\ccl9i4Az.s 			page 184


 7667 1c82 54       		.byte	0x54
 7668 1c83 E0050000 		.4byte	.LVL217
 7669 1c87 E6050000 		.4byte	.LVL218
 7670 1c8b 1D00     		.2byte	0x1d
 7671 1c8d 7B       		.byte	0x7b
 7672 1c8e 00       		.sleb128 0
 7673 1c8f 7A       		.byte	0x7a
 7674 1c90 00       		.sleb128 0
 7675 1c91 22       		.byte	0x22
 7676 1c92 94       		.byte	0x94
 7677 1c93 01       		.byte	0x1
 7678 1c94 08       		.byte	0x8
 7679 1c95 FF       		.byte	0xff
 7680 1c96 1A       		.byte	0x1a
 7681 1c97 38       		.byte	0x38
 7682 1c98 24       		.byte	0x24
 7683 1c99 7B       		.byte	0x7b
 7684 1c9a 00       		.sleb128 0
 7685 1c9b 7A       		.byte	0x7a
 7686 1c9c 00       		.sleb128 0
 7687 1c9d 22       		.byte	0x22
 7688 1c9e 23       		.byte	0x23
 7689 1c9f 01       		.uleb128 0x1
 7690 1ca0 94       		.byte	0x94
 7691 1ca1 01       		.byte	0x1
 7692 1ca2 08       		.byte	0x8
 7693 1ca3 FF       		.byte	0xff
 7694 1ca4 1A       		.byte	0x1a
 7695 1ca5 21       		.byte	0x21
 7696 1ca6 09       		.byte	0x9
 7697 1ca7 F8       		.byte	0xf8
 7698 1ca8 24       		.byte	0x24
 7699 1ca9 9F       		.byte	0x9f
 7700 1caa E6050000 		.4byte	.LVL218
 7701 1cae EC050000 		.4byte	.LVL221
 7702 1cb2 0100     		.2byte	0x1
 7703 1cb4 54       		.byte	0x54
 7704 1cb5 EC050000 		.4byte	.LVL221
 7705 1cb9 F2050000 		.4byte	.LVL222
 7706 1cbd 1D00     		.2byte	0x1d
 7707 1cbf 7B       		.byte	0x7b
 7708 1cc0 00       		.sleb128 0
 7709 1cc1 7A       		.byte	0x7a
 7710 1cc2 00       		.sleb128 0
 7711 1cc3 22       		.byte	0x22
 7712 1cc4 94       		.byte	0x94
 7713 1cc5 01       		.byte	0x1
 7714 1cc6 08       		.byte	0x8
 7715 1cc7 FF       		.byte	0xff
 7716 1cc8 1A       		.byte	0x1a
 7717 1cc9 38       		.byte	0x38
 7718 1cca 24       		.byte	0x24
 7719 1ccb 7B       		.byte	0x7b
 7720 1ccc 00       		.sleb128 0
 7721 1ccd 7A       		.byte	0x7a
 7722 1cce 00       		.sleb128 0
 7723 1ccf 22       		.byte	0x22
ARM GAS  C:\Users\info\AppData\Local\Temp\ccl9i4Az.s 			page 185


 7724 1cd0 23       		.byte	0x23
 7725 1cd1 01       		.uleb128 0x1
 7726 1cd2 94       		.byte	0x94
 7727 1cd3 01       		.byte	0x1
 7728 1cd4 08       		.byte	0x8
 7729 1cd5 FF       		.byte	0xff
 7730 1cd6 1A       		.byte	0x1a
 7731 1cd7 21       		.byte	0x21
 7732 1cd8 09       		.byte	0x9
 7733 1cd9 F8       		.byte	0xf8
 7734 1cda 24       		.byte	0x24
 7735 1cdb 9F       		.byte	0x9f
 7736 1cdc F2050000 		.4byte	.LVL222
 7737 1ce0 FE050000 		.4byte	.LVL227
 7738 1ce4 0100     		.2byte	0x1
 7739 1ce6 54       		.byte	0x54
 7740 1ce7 0A060000 		.4byte	.LVL228
 7741 1ceb 0E060000 		.4byte	.LVL230
 7742 1cef 0100     		.2byte	0x1
 7743 1cf1 54       		.byte	0x54
 7744 1cf2 00000000 		.4byte	0
 7745 1cf6 00000000 		.4byte	0
 7746              	.LLST16:
 7747 1cfa 68000000 		.4byte	.LVL18
 7748 1cfe 92000000 		.4byte	.LVL19
 7749 1d02 0100     		.2byte	0x1
 7750 1d04 53       		.byte	0x53
 7751 1d05 92000000 		.4byte	.LVL19
 7752 1d09 96000000 		.4byte	.LVL21
 7753 1d0d 1D00     		.2byte	0x1d
 7754 1d0f 7B       		.byte	0x7b
 7755 1d10 00       		.sleb128 0
 7756 1d11 7A       		.byte	0x7a
 7757 1d12 00       		.sleb128 0
 7758 1d13 22       		.byte	0x22
 7759 1d14 94       		.byte	0x94
 7760 1d15 01       		.byte	0x1
 7761 1d16 08       		.byte	0x8
 7762 1d17 FF       		.byte	0xff
 7763 1d18 1A       		.byte	0x1a
 7764 1d19 38       		.byte	0x38
 7765 1d1a 24       		.byte	0x24
 7766 1d1b 7B       		.byte	0x7b
 7767 1d1c 00       		.sleb128 0
 7768 1d1d 7A       		.byte	0x7a
 7769 1d1e 00       		.sleb128 0
 7770 1d1f 22       		.byte	0x22
 7771 1d20 23       		.byte	0x23
 7772 1d21 01       		.uleb128 0x1
 7773 1d22 94       		.byte	0x94
 7774 1d23 01       		.byte	0x1
 7775 1d24 08       		.byte	0x8
 7776 1d25 FF       		.byte	0xff
 7777 1d26 1A       		.byte	0x1a
 7778 1d27 21       		.byte	0x21
 7779 1d28 09       		.byte	0x9
 7780 1d29 FC       		.byte	0xfc
ARM GAS  C:\Users\info\AppData\Local\Temp\ccl9i4Az.s 			page 186


 7781 1d2a 24       		.byte	0x24
 7782 1d2b 9F       		.byte	0x9f
 7783 1d2c 96000000 		.4byte	.LVL21
 7784 1d30 A6000000 		.4byte	.LVL22
 7785 1d34 0100     		.2byte	0x1
 7786 1d36 53       		.byte	0x53
 7787 1d37 B6000000 		.4byte	.LVL24
 7788 1d3b B8000000 		.4byte	.LVL25
 7789 1d3f 0100     		.2byte	0x1
 7790 1d41 53       		.byte	0x53
 7791 1d42 C2000000 		.4byte	.LVL27
 7792 1d46 C4000000 		.4byte	.LVL28
 7793 1d4a 0100     		.2byte	0x1
 7794 1d4c 53       		.byte	0x53
 7795 1d4d C4000000 		.4byte	.LVL28
 7796 1d51 D8000000 		.4byte	.LVL31
 7797 1d55 1D00     		.2byte	0x1d
 7798 1d57 7B       		.byte	0x7b
 7799 1d58 00       		.sleb128 0
 7800 1d59 7A       		.byte	0x7a
 7801 1d5a 00       		.sleb128 0
 7802 1d5b 22       		.byte	0x22
 7803 1d5c 94       		.byte	0x94
 7804 1d5d 01       		.byte	0x1
 7805 1d5e 08       		.byte	0x8
 7806 1d5f FF       		.byte	0xff
 7807 1d60 1A       		.byte	0x1a
 7808 1d61 38       		.byte	0x38
 7809 1d62 24       		.byte	0x24
 7810 1d63 7B       		.byte	0x7b
 7811 1d64 00       		.sleb128 0
 7812 1d65 7A       		.byte	0x7a
 7813 1d66 00       		.sleb128 0
 7814 1d67 22       		.byte	0x22
 7815 1d68 23       		.byte	0x23
 7816 1d69 01       		.uleb128 0x1
 7817 1d6a 94       		.byte	0x94
 7818 1d6b 01       		.byte	0x1
 7819 1d6c 08       		.byte	0x8
 7820 1d6d FF       		.byte	0xff
 7821 1d6e 1A       		.byte	0x1a
 7822 1d6f 21       		.byte	0x21
 7823 1d70 09       		.byte	0x9
 7824 1d71 FC       		.byte	0xfc
 7825 1d72 24       		.byte	0x24
 7826 1d73 9F       		.byte	0x9f
 7827 1d74 DE000000 		.4byte	.LVL32
 7828 1d78 E6000000 		.4byte	.LVL35
 7829 1d7c 0100     		.2byte	0x1
 7830 1d7e 53       		.byte	0x53
 7831 1d7f EA000000 		.4byte	.LVL37
 7832 1d83 F2000000 		.4byte	.LVL39
 7833 1d87 0100     		.2byte	0x1
 7834 1d89 53       		.byte	0x53
 7835 1d8a F2000000 		.4byte	.LVL39
 7836 1d8e 06010000 		.4byte	.LVL41
 7837 1d92 1D00     		.2byte	0x1d
ARM GAS  C:\Users\info\AppData\Local\Temp\ccl9i4Az.s 			page 187


 7838 1d94 7B       		.byte	0x7b
 7839 1d95 00       		.sleb128 0
 7840 1d96 7A       		.byte	0x7a
 7841 1d97 00       		.sleb128 0
 7842 1d98 22       		.byte	0x22
 7843 1d99 94       		.byte	0x94
 7844 1d9a 01       		.byte	0x1
 7845 1d9b 08       		.byte	0x8
 7846 1d9c FF       		.byte	0xff
 7847 1d9d 1A       		.byte	0x1a
 7848 1d9e 38       		.byte	0x38
 7849 1d9f 24       		.byte	0x24
 7850 1da0 7B       		.byte	0x7b
 7851 1da1 00       		.sleb128 0
 7852 1da2 7A       		.byte	0x7a
 7853 1da3 00       		.sleb128 0
 7854 1da4 22       		.byte	0x22
 7855 1da5 23       		.byte	0x23
 7856 1da6 01       		.uleb128 0x1
 7857 1da7 94       		.byte	0x94
 7858 1da8 01       		.byte	0x1
 7859 1da9 08       		.byte	0x8
 7860 1daa FF       		.byte	0xff
 7861 1dab 1A       		.byte	0x1a
 7862 1dac 21       		.byte	0x21
 7863 1dad 09       		.byte	0x9
 7864 1dae FC       		.byte	0xfc
 7865 1daf 24       		.byte	0x24
 7866 1db0 9F       		.byte	0x9f
 7867 1db1 0C010000 		.4byte	.LVL43
 7868 1db5 0E010000 		.4byte	.LVL44
 7869 1db9 0100     		.2byte	0x1
 7870 1dbb 53       		.byte	0x53
 7871 1dbc 0E010000 		.4byte	.LVL44
 7872 1dc0 1E010000 		.4byte	.LVL46
 7873 1dc4 1D00     		.2byte	0x1d
 7874 1dc6 7B       		.byte	0x7b
 7875 1dc7 00       		.sleb128 0
 7876 1dc8 7A       		.byte	0x7a
 7877 1dc9 00       		.sleb128 0
 7878 1dca 22       		.byte	0x22
 7879 1dcb 94       		.byte	0x94
 7880 1dcc 01       		.byte	0x1
 7881 1dcd 08       		.byte	0x8
 7882 1dce FF       		.byte	0xff
 7883 1dcf 1A       		.byte	0x1a
 7884 1dd0 38       		.byte	0x38
 7885 1dd1 24       		.byte	0x24
 7886 1dd2 7B       		.byte	0x7b
 7887 1dd3 00       		.sleb128 0
 7888 1dd4 7A       		.byte	0x7a
 7889 1dd5 00       		.sleb128 0
 7890 1dd6 22       		.byte	0x22
 7891 1dd7 23       		.byte	0x23
 7892 1dd8 01       		.uleb128 0x1
 7893 1dd9 94       		.byte	0x94
 7894 1dda 01       		.byte	0x1
ARM GAS  C:\Users\info\AppData\Local\Temp\ccl9i4Az.s 			page 188


 7895 1ddb 08       		.byte	0x8
 7896 1ddc FF       		.byte	0xff
 7897 1ddd 1A       		.byte	0x1a
 7898 1dde 21       		.byte	0x21
 7899 1ddf 09       		.byte	0x9
 7900 1de0 FC       		.byte	0xfc
 7901 1de1 24       		.byte	0x24
 7902 1de2 9F       		.byte	0x9f
 7903 1de3 1E010000 		.4byte	.LVL46
 7904 1de7 22010000 		.4byte	.LVL47
 7905 1deb 1F00     		.2byte	0x1f
 7906 1ded 7B       		.byte	0x7b
 7907 1dee 00       		.sleb128 0
 7908 1def 7A       		.byte	0x7a
 7909 1df0 00       		.sleb128 0
 7910 1df1 22       		.byte	0x22
 7911 1df2 32       		.byte	0x32
 7912 1df3 1C       		.byte	0x1c
 7913 1df4 94       		.byte	0x94
 7914 1df5 01       		.byte	0x1
 7915 1df6 08       		.byte	0x8
 7916 1df7 FF       		.byte	0xff
 7917 1df8 1A       		.byte	0x1a
 7918 1df9 38       		.byte	0x38
 7919 1dfa 24       		.byte	0x24
 7920 1dfb 7B       		.byte	0x7b
 7921 1dfc 00       		.sleb128 0
 7922 1dfd 7A       		.byte	0x7a
 7923 1dfe 00       		.sleb128 0
 7924 1dff 22       		.byte	0x22
 7925 1e00 31       		.byte	0x31
 7926 1e01 1C       		.byte	0x1c
 7927 1e02 94       		.byte	0x94
 7928 1e03 01       		.byte	0x1
 7929 1e04 08       		.byte	0x8
 7930 1e05 FF       		.byte	0xff
 7931 1e06 1A       		.byte	0x1a
 7932 1e07 21       		.byte	0x21
 7933 1e08 09       		.byte	0x9
 7934 1e09 FC       		.byte	0xfc
 7935 1e0a 24       		.byte	0x24
 7936 1e0b 9F       		.byte	0x9f
 7937 1e0c 28010000 		.4byte	.LVL49
 7938 1e10 2A010000 		.4byte	.LVL50
 7939 1e14 0100     		.2byte	0x1
 7940 1e16 53       		.byte	0x53
 7941 1e17 2A010000 		.4byte	.LVL50
 7942 1e1b 3A010000 		.4byte	.LVL52
 7943 1e1f 1D00     		.2byte	0x1d
 7944 1e21 7B       		.byte	0x7b
 7945 1e22 00       		.sleb128 0
 7946 1e23 7A       		.byte	0x7a
 7947 1e24 00       		.sleb128 0
 7948 1e25 22       		.byte	0x22
 7949 1e26 94       		.byte	0x94
 7950 1e27 01       		.byte	0x1
 7951 1e28 08       		.byte	0x8
ARM GAS  C:\Users\info\AppData\Local\Temp\ccl9i4Az.s 			page 189


 7952 1e29 FF       		.byte	0xff
 7953 1e2a 1A       		.byte	0x1a
 7954 1e2b 38       		.byte	0x38
 7955 1e2c 24       		.byte	0x24
 7956 1e2d 7B       		.byte	0x7b
 7957 1e2e 00       		.sleb128 0
 7958 1e2f 7A       		.byte	0x7a
 7959 1e30 00       		.sleb128 0
 7960 1e31 22       		.byte	0x22
 7961 1e32 23       		.byte	0x23
 7962 1e33 01       		.uleb128 0x1
 7963 1e34 94       		.byte	0x94
 7964 1e35 01       		.byte	0x1
 7965 1e36 08       		.byte	0x8
 7966 1e37 FF       		.byte	0xff
 7967 1e38 1A       		.byte	0x1a
 7968 1e39 21       		.byte	0x21
 7969 1e3a 09       		.byte	0x9
 7970 1e3b FC       		.byte	0xfc
 7971 1e3c 24       		.byte	0x24
 7972 1e3d 9F       		.byte	0x9f
 7973 1e3e 3A010000 		.4byte	.LVL52
 7974 1e42 3E010000 		.4byte	.LVL53
 7975 1e46 1F00     		.2byte	0x1f
 7976 1e48 7B       		.byte	0x7b
 7977 1e49 00       		.sleb128 0
 7978 1e4a 7A       		.byte	0x7a
 7979 1e4b 00       		.sleb128 0
 7980 1e4c 22       		.byte	0x22
 7981 1e4d 32       		.byte	0x32
 7982 1e4e 1C       		.byte	0x1c
 7983 1e4f 94       		.byte	0x94
 7984 1e50 01       		.byte	0x1
 7985 1e51 08       		.byte	0x8
 7986 1e52 FF       		.byte	0xff
 7987 1e53 1A       		.byte	0x1a
 7988 1e54 38       		.byte	0x38
 7989 1e55 24       		.byte	0x24
 7990 1e56 7B       		.byte	0x7b
 7991 1e57 00       		.sleb128 0
 7992 1e58 7A       		.byte	0x7a
 7993 1e59 00       		.sleb128 0
 7994 1e5a 22       		.byte	0x22
 7995 1e5b 31       		.byte	0x31
 7996 1e5c 1C       		.byte	0x1c
 7997 1e5d 94       		.byte	0x94
 7998 1e5e 01       		.byte	0x1
 7999 1e5f 08       		.byte	0x8
 8000 1e60 FF       		.byte	0xff
 8001 1e61 1A       		.byte	0x1a
 8002 1e62 21       		.byte	0x21
 8003 1e63 09       		.byte	0x9
 8004 1e64 FC       		.byte	0xfc
 8005 1e65 24       		.byte	0x24
 8006 1e66 9F       		.byte	0x9f
 8007 1e67 44010000 		.4byte	.LVL55
 8008 1e6b 58010000 		.4byte	.LVL59
ARM GAS  C:\Users\info\AppData\Local\Temp\ccl9i4Az.s 			page 190


 8009 1e6f 0100     		.2byte	0x1
 8010 1e71 53       		.byte	0x53
 8011 1e72 58010000 		.4byte	.LVL59
 8012 1e76 66010000 		.4byte	.LVL60
 8013 1e7a 1D00     		.2byte	0x1d
 8014 1e7c 7B       		.byte	0x7b
 8015 1e7d 00       		.sleb128 0
 8016 1e7e 7A       		.byte	0x7a
 8017 1e7f 00       		.sleb128 0
 8018 1e80 22       		.byte	0x22
 8019 1e81 94       		.byte	0x94
 8020 1e82 01       		.byte	0x1
 8021 1e83 08       		.byte	0x8
 8022 1e84 FF       		.byte	0xff
 8023 1e85 1A       		.byte	0x1a
 8024 1e86 38       		.byte	0x38
 8025 1e87 24       		.byte	0x24
 8026 1e88 7B       		.byte	0x7b
 8027 1e89 00       		.sleb128 0
 8028 1e8a 7A       		.byte	0x7a
 8029 1e8b 00       		.sleb128 0
 8030 1e8c 22       		.byte	0x22
 8031 1e8d 23       		.byte	0x23
 8032 1e8e 01       		.uleb128 0x1
 8033 1e8f 94       		.byte	0x94
 8034 1e90 01       		.byte	0x1
 8035 1e91 08       		.byte	0x8
 8036 1e92 FF       		.byte	0xff
 8037 1e93 1A       		.byte	0x1a
 8038 1e94 21       		.byte	0x21
 8039 1e95 09       		.byte	0x9
 8040 1e96 FC       		.byte	0xfc
 8041 1e97 24       		.byte	0x24
 8042 1e98 9F       		.byte	0x9f
 8043 1e99 66010000 		.4byte	.LVL60
 8044 1e9d 6A010000 		.4byte	.LVL61
 8045 1ea1 1F00     		.2byte	0x1f
 8046 1ea3 7B       		.byte	0x7b
 8047 1ea4 00       		.sleb128 0
 8048 1ea5 7A       		.byte	0x7a
 8049 1ea6 00       		.sleb128 0
 8050 1ea7 22       		.byte	0x22
 8051 1ea8 32       		.byte	0x32
 8052 1ea9 1C       		.byte	0x1c
 8053 1eaa 94       		.byte	0x94
 8054 1eab 01       		.byte	0x1
 8055 1eac 08       		.byte	0x8
 8056 1ead FF       		.byte	0xff
 8057 1eae 1A       		.byte	0x1a
 8058 1eaf 38       		.byte	0x38
 8059 1eb0 24       		.byte	0x24
 8060 1eb1 7B       		.byte	0x7b
 8061 1eb2 00       		.sleb128 0
 8062 1eb3 7A       		.byte	0x7a
 8063 1eb4 00       		.sleb128 0
 8064 1eb5 22       		.byte	0x22
 8065 1eb6 31       		.byte	0x31
ARM GAS  C:\Users\info\AppData\Local\Temp\ccl9i4Az.s 			page 191


 8066 1eb7 1C       		.byte	0x1c
 8067 1eb8 94       		.byte	0x94
 8068 1eb9 01       		.byte	0x1
 8069 1eba 08       		.byte	0x8
 8070 1ebb FF       		.byte	0xff
 8071 1ebc 1A       		.byte	0x1a
 8072 1ebd 21       		.byte	0x21
 8073 1ebe 09       		.byte	0x9
 8074 1ebf FC       		.byte	0xfc
 8075 1ec0 24       		.byte	0x24
 8076 1ec1 9F       		.byte	0x9f
 8077 1ec2 70010000 		.4byte	.LVL62
 8078 1ec6 84010000 		.4byte	.LVL66
 8079 1eca 0100     		.2byte	0x1
 8080 1ecc 53       		.byte	0x53
 8081 1ecd 84010000 		.4byte	.LVL66
 8082 1ed1 92010000 		.4byte	.LVL67
 8083 1ed5 1D00     		.2byte	0x1d
 8084 1ed7 7B       		.byte	0x7b
 8085 1ed8 00       		.sleb128 0
 8086 1ed9 7A       		.byte	0x7a
 8087 1eda 00       		.sleb128 0
 8088 1edb 22       		.byte	0x22
 8089 1edc 94       		.byte	0x94
 8090 1edd 01       		.byte	0x1
 8091 1ede 08       		.byte	0x8
 8092 1edf FF       		.byte	0xff
 8093 1ee0 1A       		.byte	0x1a
 8094 1ee1 38       		.byte	0x38
 8095 1ee2 24       		.byte	0x24
 8096 1ee3 7B       		.byte	0x7b
 8097 1ee4 00       		.sleb128 0
 8098 1ee5 7A       		.byte	0x7a
 8099 1ee6 00       		.sleb128 0
 8100 1ee7 22       		.byte	0x22
 8101 1ee8 23       		.byte	0x23
 8102 1ee9 01       		.uleb128 0x1
 8103 1eea 94       		.byte	0x94
 8104 1eeb 01       		.byte	0x1
 8105 1eec 08       		.byte	0x8
 8106 1eed FF       		.byte	0xff
 8107 1eee 1A       		.byte	0x1a
 8108 1eef 21       		.byte	0x21
 8109 1ef0 09       		.byte	0x9
 8110 1ef1 FC       		.byte	0xfc
 8111 1ef2 24       		.byte	0x24
 8112 1ef3 9F       		.byte	0x9f
 8113 1ef4 92010000 		.4byte	.LVL67
 8114 1ef8 96010000 		.4byte	.LVL68
 8115 1efc 1F00     		.2byte	0x1f
 8116 1efe 7B       		.byte	0x7b
 8117 1eff 00       		.sleb128 0
 8118 1f00 7A       		.byte	0x7a
 8119 1f01 00       		.sleb128 0
 8120 1f02 22       		.byte	0x22
 8121 1f03 32       		.byte	0x32
 8122 1f04 1C       		.byte	0x1c
ARM GAS  C:\Users\info\AppData\Local\Temp\ccl9i4Az.s 			page 192


 8123 1f05 94       		.byte	0x94
 8124 1f06 01       		.byte	0x1
 8125 1f07 08       		.byte	0x8
 8126 1f08 FF       		.byte	0xff
 8127 1f09 1A       		.byte	0x1a
 8128 1f0a 38       		.byte	0x38
 8129 1f0b 24       		.byte	0x24
 8130 1f0c 7B       		.byte	0x7b
 8131 1f0d 00       		.sleb128 0
 8132 1f0e 7A       		.byte	0x7a
 8133 1f0f 00       		.sleb128 0
 8134 1f10 22       		.byte	0x22
 8135 1f11 31       		.byte	0x31
 8136 1f12 1C       		.byte	0x1c
 8137 1f13 94       		.byte	0x94
 8138 1f14 01       		.byte	0x1
 8139 1f15 08       		.byte	0x8
 8140 1f16 FF       		.byte	0xff
 8141 1f17 1A       		.byte	0x1a
 8142 1f18 21       		.byte	0x21
 8143 1f19 09       		.byte	0x9
 8144 1f1a FC       		.byte	0xfc
 8145 1f1b 24       		.byte	0x24
 8146 1f1c 9F       		.byte	0x9f
 8147 1f1d 9C010000 		.4byte	.LVL69
 8148 1f21 9E010000 		.4byte	.LVL70
 8149 1f25 0100     		.2byte	0x1
 8150 1f27 53       		.byte	0x53
 8151 1f28 9E010000 		.4byte	.LVL70
 8152 1f2c AA010000 		.4byte	.LVL73
 8153 1f30 1D00     		.2byte	0x1d
 8154 1f32 7B       		.byte	0x7b
 8155 1f33 00       		.sleb128 0
 8156 1f34 7A       		.byte	0x7a
 8157 1f35 00       		.sleb128 0
 8158 1f36 22       		.byte	0x22
 8159 1f37 94       		.byte	0x94
 8160 1f38 01       		.byte	0x1
 8161 1f39 08       		.byte	0x8
 8162 1f3a FF       		.byte	0xff
 8163 1f3b 1A       		.byte	0x1a
 8164 1f3c 38       		.byte	0x38
 8165 1f3d 24       		.byte	0x24
 8166 1f3e 7B       		.byte	0x7b
 8167 1f3f 00       		.sleb128 0
 8168 1f40 7A       		.byte	0x7a
 8169 1f41 00       		.sleb128 0
 8170 1f42 22       		.byte	0x22
 8171 1f43 23       		.byte	0x23
 8172 1f44 01       		.uleb128 0x1
 8173 1f45 94       		.byte	0x94
 8174 1f46 01       		.byte	0x1
 8175 1f47 08       		.byte	0x8
 8176 1f48 FF       		.byte	0xff
 8177 1f49 1A       		.byte	0x1a
 8178 1f4a 21       		.byte	0x21
 8179 1f4b 09       		.byte	0x9
ARM GAS  C:\Users\info\AppData\Local\Temp\ccl9i4Az.s 			page 193


 8180 1f4c FC       		.byte	0xfc
 8181 1f4d 24       		.byte	0x24
 8182 1f4e 9F       		.byte	0x9f
 8183 1f4f AA010000 		.4byte	.LVL73
 8184 1f53 AC010000 		.4byte	.LVL74
 8185 1f57 0100     		.2byte	0x1
 8186 1f59 53       		.byte	0x53
 8187 1f5a AC010000 		.4byte	.LVL74
 8188 1f5e BE010000 		.4byte	.LVL78
 8189 1f62 1D00     		.2byte	0x1d
 8190 1f64 7B       		.byte	0x7b
 8191 1f65 00       		.sleb128 0
 8192 1f66 7A       		.byte	0x7a
 8193 1f67 00       		.sleb128 0
 8194 1f68 22       		.byte	0x22
 8195 1f69 94       		.byte	0x94
 8196 1f6a 01       		.byte	0x1
 8197 1f6b 08       		.byte	0x8
 8198 1f6c FF       		.byte	0xff
 8199 1f6d 1A       		.byte	0x1a
 8200 1f6e 38       		.byte	0x38
 8201 1f6f 24       		.byte	0x24
 8202 1f70 7B       		.byte	0x7b
 8203 1f71 00       		.sleb128 0
 8204 1f72 7A       		.byte	0x7a
 8205 1f73 00       		.sleb128 0
 8206 1f74 22       		.byte	0x22
 8207 1f75 23       		.byte	0x23
 8208 1f76 01       		.uleb128 0x1
 8209 1f77 94       		.byte	0x94
 8210 1f78 01       		.byte	0x1
 8211 1f79 08       		.byte	0x8
 8212 1f7a FF       		.byte	0xff
 8213 1f7b 1A       		.byte	0x1a
 8214 1f7c 21       		.byte	0x21
 8215 1f7d 09       		.byte	0x9
 8216 1f7e FC       		.byte	0xfc
 8217 1f7f 24       		.byte	0x24
 8218 1f80 9F       		.byte	0x9f
 8219 1f81 BE010000 		.4byte	.LVL78
 8220 1f85 EC010000 		.4byte	.LVL80
 8221 1f89 0100     		.2byte	0x1
 8222 1f8b 53       		.byte	0x53
 8223 1f8c EC010000 		.4byte	.LVL80
 8224 1f90 FC010000 		.4byte	.LVL82
 8225 1f94 1D00     		.2byte	0x1d
 8226 1f96 7B       		.byte	0x7b
 8227 1f97 00       		.sleb128 0
 8228 1f98 7A       		.byte	0x7a
 8229 1f99 00       		.sleb128 0
 8230 1f9a 22       		.byte	0x22
 8231 1f9b 94       		.byte	0x94
 8232 1f9c 01       		.byte	0x1
 8233 1f9d 08       		.byte	0x8
 8234 1f9e FF       		.byte	0xff
 8235 1f9f 1A       		.byte	0x1a
 8236 1fa0 38       		.byte	0x38
ARM GAS  C:\Users\info\AppData\Local\Temp\ccl9i4Az.s 			page 194


 8237 1fa1 24       		.byte	0x24
 8238 1fa2 7B       		.byte	0x7b
 8239 1fa3 00       		.sleb128 0
 8240 1fa4 7A       		.byte	0x7a
 8241 1fa5 00       		.sleb128 0
 8242 1fa6 22       		.byte	0x22
 8243 1fa7 23       		.byte	0x23
 8244 1fa8 01       		.uleb128 0x1
 8245 1fa9 94       		.byte	0x94
 8246 1faa 01       		.byte	0x1
 8247 1fab 08       		.byte	0x8
 8248 1fac FF       		.byte	0xff
 8249 1fad 1A       		.byte	0x1a
 8250 1fae 21       		.byte	0x21
 8251 1faf 09       		.byte	0x9
 8252 1fb0 FC       		.byte	0xfc
 8253 1fb1 24       		.byte	0x24
 8254 1fb2 9F       		.byte	0x9f
 8255 1fb3 FC010000 		.4byte	.LVL82
 8256 1fb7 00020000 		.4byte	.LVL83
 8257 1fbb 0100     		.2byte	0x1
 8258 1fbd 53       		.byte	0x53
 8259 1fbe 00020000 		.4byte	.LVL83
 8260 1fc2 18020000 		.4byte	.LVL85
 8261 1fc6 1D00     		.2byte	0x1d
 8262 1fc8 7B       		.byte	0x7b
 8263 1fc9 00       		.sleb128 0
 8264 1fca 7A       		.byte	0x7a
 8265 1fcb 00       		.sleb128 0
 8266 1fcc 22       		.byte	0x22
 8267 1fcd 94       		.byte	0x94
 8268 1fce 01       		.byte	0x1
 8269 1fcf 08       		.byte	0x8
 8270 1fd0 FF       		.byte	0xff
 8271 1fd1 1A       		.byte	0x1a
 8272 1fd2 38       		.byte	0x38
 8273 1fd3 24       		.byte	0x24
 8274 1fd4 7B       		.byte	0x7b
 8275 1fd5 00       		.sleb128 0
 8276 1fd6 7A       		.byte	0x7a
 8277 1fd7 00       		.sleb128 0
 8278 1fd8 22       		.byte	0x22
 8279 1fd9 23       		.byte	0x23
 8280 1fda 01       		.uleb128 0x1
 8281 1fdb 94       		.byte	0x94
 8282 1fdc 01       		.byte	0x1
 8283 1fdd 08       		.byte	0x8
 8284 1fde FF       		.byte	0xff
 8285 1fdf 1A       		.byte	0x1a
 8286 1fe0 21       		.byte	0x21
 8287 1fe1 09       		.byte	0x9
 8288 1fe2 FC       		.byte	0xfc
 8289 1fe3 24       		.byte	0x24
 8290 1fe4 9F       		.byte	0x9f
 8291 1fe5 18020000 		.4byte	.LVL85
 8292 1fe9 1C020000 		.4byte	.LVL86
 8293 1fed 0100     		.2byte	0x1
ARM GAS  C:\Users\info\AppData\Local\Temp\ccl9i4Az.s 			page 195


 8294 1fef 53       		.byte	0x53
 8295 1ff0 1C020000 		.4byte	.LVL86
 8296 1ff4 34020000 		.4byte	.LVL88
 8297 1ff8 1D00     		.2byte	0x1d
 8298 1ffa 7B       		.byte	0x7b
 8299 1ffb 00       		.sleb128 0
 8300 1ffc 7A       		.byte	0x7a
 8301 1ffd 00       		.sleb128 0
 8302 1ffe 22       		.byte	0x22
 8303 1fff 94       		.byte	0x94
 8304 2000 01       		.byte	0x1
 8305 2001 08       		.byte	0x8
 8306 2002 FF       		.byte	0xff
 8307 2003 1A       		.byte	0x1a
 8308 2004 38       		.byte	0x38
 8309 2005 24       		.byte	0x24
 8310 2006 7B       		.byte	0x7b
 8311 2007 00       		.sleb128 0
 8312 2008 7A       		.byte	0x7a
 8313 2009 00       		.sleb128 0
 8314 200a 22       		.byte	0x22
 8315 200b 23       		.byte	0x23
 8316 200c 01       		.uleb128 0x1
 8317 200d 94       		.byte	0x94
 8318 200e 01       		.byte	0x1
 8319 200f 08       		.byte	0x8
 8320 2010 FF       		.byte	0xff
 8321 2011 1A       		.byte	0x1a
 8322 2012 21       		.byte	0x21
 8323 2013 09       		.byte	0x9
 8324 2014 FC       		.byte	0xfc
 8325 2015 24       		.byte	0x24
 8326 2016 9F       		.byte	0x9f
 8327 2017 34020000 		.4byte	.LVL88
 8328 201b 38020000 		.4byte	.LVL89
 8329 201f 0100     		.2byte	0x1
 8330 2021 53       		.byte	0x53
 8331 2022 38020000 		.4byte	.LVL89
 8332 2026 50020000 		.4byte	.LVL91
 8333 202a 1D00     		.2byte	0x1d
 8334 202c 7B       		.byte	0x7b
 8335 202d 00       		.sleb128 0
 8336 202e 7A       		.byte	0x7a
 8337 202f 00       		.sleb128 0
 8338 2030 22       		.byte	0x22
 8339 2031 94       		.byte	0x94
 8340 2032 01       		.byte	0x1
 8341 2033 08       		.byte	0x8
 8342 2034 FF       		.byte	0xff
 8343 2035 1A       		.byte	0x1a
 8344 2036 38       		.byte	0x38
 8345 2037 24       		.byte	0x24
 8346 2038 7B       		.byte	0x7b
 8347 2039 00       		.sleb128 0
 8348 203a 7A       		.byte	0x7a
 8349 203b 00       		.sleb128 0
 8350 203c 22       		.byte	0x22
ARM GAS  C:\Users\info\AppData\Local\Temp\ccl9i4Az.s 			page 196


 8351 203d 23       		.byte	0x23
 8352 203e 01       		.uleb128 0x1
 8353 203f 94       		.byte	0x94
 8354 2040 01       		.byte	0x1
 8355 2041 08       		.byte	0x8
 8356 2042 FF       		.byte	0xff
 8357 2043 1A       		.byte	0x1a
 8358 2044 21       		.byte	0x21
 8359 2045 09       		.byte	0x9
 8360 2046 FC       		.byte	0xfc
 8361 2047 24       		.byte	0x24
 8362 2048 9F       		.byte	0x9f
 8363 2049 50020000 		.4byte	.LVL91
 8364 204d 54020000 		.4byte	.LVL92
 8365 2051 0100     		.2byte	0x1
 8366 2053 53       		.byte	0x53
 8367 2054 54020000 		.4byte	.LVL92
 8368 2058 6C020000 		.4byte	.LVL94
 8369 205c 1D00     		.2byte	0x1d
 8370 205e 7B       		.byte	0x7b
 8371 205f 00       		.sleb128 0
 8372 2060 7A       		.byte	0x7a
 8373 2061 00       		.sleb128 0
 8374 2062 22       		.byte	0x22
 8375 2063 94       		.byte	0x94
 8376 2064 01       		.byte	0x1
 8377 2065 08       		.byte	0x8
 8378 2066 FF       		.byte	0xff
 8379 2067 1A       		.byte	0x1a
 8380 2068 38       		.byte	0x38
 8381 2069 24       		.byte	0x24
 8382 206a 7B       		.byte	0x7b
 8383 206b 00       		.sleb128 0
 8384 206c 7A       		.byte	0x7a
 8385 206d 00       		.sleb128 0
 8386 206e 22       		.byte	0x22
 8387 206f 23       		.byte	0x23
 8388 2070 01       		.uleb128 0x1
 8389 2071 94       		.byte	0x94
 8390 2072 01       		.byte	0x1
 8391 2073 08       		.byte	0x8
 8392 2074 FF       		.byte	0xff
 8393 2075 1A       		.byte	0x1a
 8394 2076 21       		.byte	0x21
 8395 2077 09       		.byte	0x9
 8396 2078 FC       		.byte	0xfc
 8397 2079 24       		.byte	0x24
 8398 207a 9F       		.byte	0x9f
 8399 207b 6C020000 		.4byte	.LVL94
 8400 207f 78020000 		.4byte	.LVL98
 8401 2083 0100     		.2byte	0x1
 8402 2085 53       		.byte	0x53
 8403 2086 78020000 		.4byte	.LVL98
 8404 208a 98020000 		.4byte	.LVL103
 8405 208e 1D00     		.2byte	0x1d
 8406 2090 7B       		.byte	0x7b
 8407 2091 00       		.sleb128 0
ARM GAS  C:\Users\info\AppData\Local\Temp\ccl9i4Az.s 			page 197


 8408 2092 7A       		.byte	0x7a
 8409 2093 00       		.sleb128 0
 8410 2094 22       		.byte	0x22
 8411 2095 94       		.byte	0x94
 8412 2096 01       		.byte	0x1
 8413 2097 08       		.byte	0x8
 8414 2098 FF       		.byte	0xff
 8415 2099 1A       		.byte	0x1a
 8416 209a 38       		.byte	0x38
 8417 209b 24       		.byte	0x24
 8418 209c 7B       		.byte	0x7b
 8419 209d 00       		.sleb128 0
 8420 209e 7A       		.byte	0x7a
 8421 209f 00       		.sleb128 0
 8422 20a0 22       		.byte	0x22
 8423 20a1 23       		.byte	0x23
 8424 20a2 01       		.uleb128 0x1
 8425 20a3 94       		.byte	0x94
 8426 20a4 01       		.byte	0x1
 8427 20a5 08       		.byte	0x8
 8428 20a6 FF       		.byte	0xff
 8429 20a7 1A       		.byte	0x1a
 8430 20a8 21       		.byte	0x21
 8431 20a9 09       		.byte	0x9
 8432 20aa FC       		.byte	0xfc
 8433 20ab 24       		.byte	0x24
 8434 20ac 9F       		.byte	0x9f
 8435 20ad 98020000 		.4byte	.LVL103
 8436 20b1 9A020000 		.4byte	.LVL104
 8437 20b5 0100     		.2byte	0x1
 8438 20b7 53       		.byte	0x53
 8439 20b8 9A020000 		.4byte	.LVL104
 8440 20bc B8020000 		.4byte	.LVL106
 8441 20c0 1D00     		.2byte	0x1d
 8442 20c2 7B       		.byte	0x7b
 8443 20c3 00       		.sleb128 0
 8444 20c4 7A       		.byte	0x7a
 8445 20c5 00       		.sleb128 0
 8446 20c6 22       		.byte	0x22
 8447 20c7 94       		.byte	0x94
 8448 20c8 01       		.byte	0x1
 8449 20c9 08       		.byte	0x8
 8450 20ca FF       		.byte	0xff
 8451 20cb 1A       		.byte	0x1a
 8452 20cc 38       		.byte	0x38
 8453 20cd 24       		.byte	0x24
 8454 20ce 7B       		.byte	0x7b
 8455 20cf 00       		.sleb128 0
 8456 20d0 7A       		.byte	0x7a
 8457 20d1 00       		.sleb128 0
 8458 20d2 22       		.byte	0x22
 8459 20d3 23       		.byte	0x23
 8460 20d4 01       		.uleb128 0x1
 8461 20d5 94       		.byte	0x94
 8462 20d6 01       		.byte	0x1
 8463 20d7 08       		.byte	0x8
 8464 20d8 FF       		.byte	0xff
ARM GAS  C:\Users\info\AppData\Local\Temp\ccl9i4Az.s 			page 198


 8465 20d9 1A       		.byte	0x1a
 8466 20da 21       		.byte	0x21
 8467 20db 09       		.byte	0x9
 8468 20dc FC       		.byte	0xfc
 8469 20dd 24       		.byte	0x24
 8470 20de 9F       		.byte	0x9f
 8471 20df B8020000 		.4byte	.LVL106
 8472 20e3 C2020000 		.4byte	.LVL109
 8473 20e7 0100     		.2byte	0x1
 8474 20e9 53       		.byte	0x53
 8475 20ea C2020000 		.4byte	.LVL109
 8476 20ee E2020000 		.4byte	.LVL114
 8477 20f2 1D00     		.2byte	0x1d
 8478 20f4 7B       		.byte	0x7b
 8479 20f5 00       		.sleb128 0
 8480 20f6 7A       		.byte	0x7a
 8481 20f7 00       		.sleb128 0
 8482 20f8 22       		.byte	0x22
 8483 20f9 94       		.byte	0x94
 8484 20fa 01       		.byte	0x1
 8485 20fb 08       		.byte	0x8
 8486 20fc FF       		.byte	0xff
 8487 20fd 1A       		.byte	0x1a
 8488 20fe 38       		.byte	0x38
 8489 20ff 24       		.byte	0x24
 8490 2100 7B       		.byte	0x7b
 8491 2101 00       		.sleb128 0
 8492 2102 7A       		.byte	0x7a
 8493 2103 00       		.sleb128 0
 8494 2104 22       		.byte	0x22
 8495 2105 23       		.byte	0x23
 8496 2106 01       		.uleb128 0x1
 8497 2107 94       		.byte	0x94
 8498 2108 01       		.byte	0x1
 8499 2109 08       		.byte	0x8
 8500 210a FF       		.byte	0xff
 8501 210b 1A       		.byte	0x1a
 8502 210c 21       		.byte	0x21
 8503 210d 09       		.byte	0x9
 8504 210e FC       		.byte	0xfc
 8505 210f 24       		.byte	0x24
 8506 2110 9F       		.byte	0x9f
 8507 2111 E2020000 		.4byte	.LVL114
 8508 2115 E4020000 		.4byte	.LVL115
 8509 2119 0100     		.2byte	0x1
 8510 211b 53       		.byte	0x53
 8511 211c E4020000 		.4byte	.LVL115
 8512 2120 00030000 		.4byte	.LVL117
 8513 2124 1D00     		.2byte	0x1d
 8514 2126 7B       		.byte	0x7b
 8515 2127 00       		.sleb128 0
 8516 2128 7A       		.byte	0x7a
 8517 2129 00       		.sleb128 0
 8518 212a 22       		.byte	0x22
 8519 212b 94       		.byte	0x94
 8520 212c 01       		.byte	0x1
 8521 212d 08       		.byte	0x8
ARM GAS  C:\Users\info\AppData\Local\Temp\ccl9i4Az.s 			page 199


 8522 212e FF       		.byte	0xff
 8523 212f 1A       		.byte	0x1a
 8524 2130 38       		.byte	0x38
 8525 2131 24       		.byte	0x24
 8526 2132 7B       		.byte	0x7b
 8527 2133 00       		.sleb128 0
 8528 2134 7A       		.byte	0x7a
 8529 2135 00       		.sleb128 0
 8530 2136 22       		.byte	0x22
 8531 2137 23       		.byte	0x23
 8532 2138 01       		.uleb128 0x1
 8533 2139 94       		.byte	0x94
 8534 213a 01       		.byte	0x1
 8535 213b 08       		.byte	0x8
 8536 213c FF       		.byte	0xff
 8537 213d 1A       		.byte	0x1a
 8538 213e 21       		.byte	0x21
 8539 213f 09       		.byte	0x9
 8540 2140 FC       		.byte	0xfc
 8541 2141 24       		.byte	0x24
 8542 2142 9F       		.byte	0x9f
 8543 2143 00030000 		.4byte	.LVL117
 8544 2147 04030000 		.4byte	.LVL118
 8545 214b 0100     		.2byte	0x1
 8546 214d 53       		.byte	0x53
 8547 214e 04030000 		.4byte	.LVL118
 8548 2152 08030000 		.4byte	.LVL120
 8549 2156 1D00     		.2byte	0x1d
 8550 2158 7B       		.byte	0x7b
 8551 2159 00       		.sleb128 0
 8552 215a 7A       		.byte	0x7a
 8553 215b 00       		.sleb128 0
 8554 215c 22       		.byte	0x22
 8555 215d 94       		.byte	0x94
 8556 215e 01       		.byte	0x1
 8557 215f 08       		.byte	0x8
 8558 2160 FF       		.byte	0xff
 8559 2161 1A       		.byte	0x1a
 8560 2162 38       		.byte	0x38
 8561 2163 24       		.byte	0x24
 8562 2164 7B       		.byte	0x7b
 8563 2165 00       		.sleb128 0
 8564 2166 7A       		.byte	0x7a
 8565 2167 00       		.sleb128 0
 8566 2168 22       		.byte	0x22
 8567 2169 23       		.byte	0x23
 8568 216a 01       		.uleb128 0x1
 8569 216b 94       		.byte	0x94
 8570 216c 01       		.byte	0x1
 8571 216d 08       		.byte	0x8
 8572 216e FF       		.byte	0xff
 8573 216f 1A       		.byte	0x1a
 8574 2170 21       		.byte	0x21
 8575 2171 09       		.byte	0x9
 8576 2172 FC       		.byte	0xfc
 8577 2173 24       		.byte	0x24
 8578 2174 9F       		.byte	0x9f
ARM GAS  C:\Users\info\AppData\Local\Temp\ccl9i4Az.s 			page 200


 8579 2175 08030000 		.4byte	.LVL120
 8580 2179 0B030000 		.4byte	.LVL121-1
 8581 217d 0100     		.2byte	0x1
 8582 217f 53       		.byte	0x53
 8583 2180 1C030000 		.4byte	.LVL123
 8584 2184 EC030000 		.4byte	.LVL130
 8585 2188 0300     		.2byte	0x3
 8586 218a 91       		.byte	0x91
 8587 218b 947F     		.sleb128 -108
 8588 218d EC030000 		.4byte	.LVL130
 8589 2191 00040000 		.4byte	.LVL133
 8590 2195 0100     		.2byte	0x1
 8591 2197 53       		.byte	0x53
 8592 2198 00040000 		.4byte	.LVL133
 8593 219c 34040000 		.4byte	.LVL138
 8594 21a0 0300     		.2byte	0x3
 8595 21a2 91       		.byte	0x91
 8596 21a3 947F     		.sleb128 -108
 8597 21a5 34040000 		.4byte	.LVL138
 8598 21a9 40040000 		.4byte	.LVL139
 8599 21ad 0100     		.2byte	0x1
 8600 21af 53       		.byte	0x53
 8601 21b0 40040000 		.4byte	.LVL139
 8602 21b4 49040000 		.4byte	.LVL141-1
 8603 21b8 1D00     		.2byte	0x1d
 8604 21ba 7B       		.byte	0x7b
 8605 21bb 00       		.sleb128 0
 8606 21bc 7A       		.byte	0x7a
 8607 21bd 00       		.sleb128 0
 8608 21be 22       		.byte	0x22
 8609 21bf 94       		.byte	0x94
 8610 21c0 01       		.byte	0x1
 8611 21c1 08       		.byte	0x8
 8612 21c2 FF       		.byte	0xff
 8613 21c3 1A       		.byte	0x1a
 8614 21c4 38       		.byte	0x38
 8615 21c5 24       		.byte	0x24
 8616 21c6 7B       		.byte	0x7b
 8617 21c7 00       		.sleb128 0
 8618 21c8 7A       		.byte	0x7a
 8619 21c9 00       		.sleb128 0
 8620 21ca 22       		.byte	0x22
 8621 21cb 23       		.byte	0x23
 8622 21cc 01       		.uleb128 0x1
 8623 21cd 94       		.byte	0x94
 8624 21ce 01       		.byte	0x1
 8625 21cf 08       		.byte	0x8
 8626 21d0 FF       		.byte	0xff
 8627 21d1 1A       		.byte	0x1a
 8628 21d2 21       		.byte	0x21
 8629 21d3 09       		.byte	0x9
 8630 21d4 FC       		.byte	0xfc
 8631 21d5 24       		.byte	0x24
 8632 21d6 9F       		.byte	0x9f
 8633 21d7 5E040000 		.4byte	.LVL144
 8634 21db 60040000 		.4byte	.LVL145
 8635 21df 0100     		.2byte	0x1
ARM GAS  C:\Users\info\AppData\Local\Temp\ccl9i4Az.s 			page 201


 8636 21e1 53       		.byte	0x53
 8637 21e2 60040000 		.4byte	.LVL145
 8638 21e6 69040000 		.4byte	.LVL147-1
 8639 21ea 1D00     		.2byte	0x1d
 8640 21ec 7B       		.byte	0x7b
 8641 21ed 00       		.sleb128 0
 8642 21ee 7A       		.byte	0x7a
 8643 21ef 00       		.sleb128 0
 8644 21f0 22       		.byte	0x22
 8645 21f1 94       		.byte	0x94
 8646 21f2 01       		.byte	0x1
 8647 21f3 08       		.byte	0x8
 8648 21f4 FF       		.byte	0xff
 8649 21f5 1A       		.byte	0x1a
 8650 21f6 38       		.byte	0x38
 8651 21f7 24       		.byte	0x24
 8652 21f8 7B       		.byte	0x7b
 8653 21f9 00       		.sleb128 0
 8654 21fa 7A       		.byte	0x7a
 8655 21fb 00       		.sleb128 0
 8656 21fc 22       		.byte	0x22
 8657 21fd 23       		.byte	0x23
 8658 21fe 01       		.uleb128 0x1
 8659 21ff 94       		.byte	0x94
 8660 2200 01       		.byte	0x1
 8661 2201 08       		.byte	0x8
 8662 2202 FF       		.byte	0xff
 8663 2203 1A       		.byte	0x1a
 8664 2204 21       		.byte	0x21
 8665 2205 09       		.byte	0x9
 8666 2206 FC       		.byte	0xfc
 8667 2207 24       		.byte	0x24
 8668 2208 9F       		.byte	0x9f
 8669 2209 7E040000 		.4byte	.LVL150
 8670 220d B2040000 		.4byte	.LVL151
 8671 2211 0100     		.2byte	0x1
 8672 2213 53       		.byte	0x53
 8673 2214 B2040000 		.4byte	.LVL151
 8674 2218 C2040000 		.4byte	.LVL154
 8675 221c 1D00     		.2byte	0x1d
 8676 221e 7B       		.byte	0x7b
 8677 221f 00       		.sleb128 0
 8678 2220 7A       		.byte	0x7a
 8679 2221 00       		.sleb128 0
 8680 2222 22       		.byte	0x22
 8681 2223 94       		.byte	0x94
 8682 2224 01       		.byte	0x1
 8683 2225 08       		.byte	0x8
 8684 2226 FF       		.byte	0xff
 8685 2227 1A       		.byte	0x1a
 8686 2228 38       		.byte	0x38
 8687 2229 24       		.byte	0x24
 8688 222a 7B       		.byte	0x7b
 8689 222b 00       		.sleb128 0
 8690 222c 7A       		.byte	0x7a
 8691 222d 00       		.sleb128 0
 8692 222e 22       		.byte	0x22
ARM GAS  C:\Users\info\AppData\Local\Temp\ccl9i4Az.s 			page 202


 8693 222f 23       		.byte	0x23
 8694 2230 01       		.uleb128 0x1
 8695 2231 94       		.byte	0x94
 8696 2232 01       		.byte	0x1
 8697 2233 08       		.byte	0x8
 8698 2234 FF       		.byte	0xff
 8699 2235 1A       		.byte	0x1a
 8700 2236 21       		.byte	0x21
 8701 2237 09       		.byte	0x9
 8702 2238 FC       		.byte	0xfc
 8703 2239 24       		.byte	0x24
 8704 223a 9F       		.byte	0x9f
 8705 223b C2040000 		.4byte	.LVL154
 8706 223f C5040000 		.4byte	.LVL155-1
 8707 2243 0100     		.2byte	0x1
 8708 2245 53       		.byte	0x53
 8709 2246 D4040000 		.4byte	.LVL157
 8710 224a D6040000 		.4byte	.LVL158
 8711 224e 0100     		.2byte	0x1
 8712 2250 53       		.byte	0x53
 8713 2251 D6040000 		.4byte	.LVL158
 8714 2255 E0040000 		.4byte	.LVL161
 8715 2259 1D00     		.2byte	0x1d
 8716 225b 7B       		.byte	0x7b
 8717 225c 00       		.sleb128 0
 8718 225d 7A       		.byte	0x7a
 8719 225e 00       		.sleb128 0
 8720 225f 22       		.byte	0x22
 8721 2260 94       		.byte	0x94
 8722 2261 01       		.byte	0x1
 8723 2262 08       		.byte	0x8
 8724 2263 FF       		.byte	0xff
 8725 2264 1A       		.byte	0x1a
 8726 2265 38       		.byte	0x38
 8727 2266 24       		.byte	0x24
 8728 2267 7B       		.byte	0x7b
 8729 2268 00       		.sleb128 0
 8730 2269 7A       		.byte	0x7a
 8731 226a 00       		.sleb128 0
 8732 226b 22       		.byte	0x22
 8733 226c 23       		.byte	0x23
 8734 226d 01       		.uleb128 0x1
 8735 226e 94       		.byte	0x94
 8736 226f 01       		.byte	0x1
 8737 2270 08       		.byte	0x8
 8738 2271 FF       		.byte	0xff
 8739 2272 1A       		.byte	0x1a
 8740 2273 21       		.byte	0x21
 8741 2274 09       		.byte	0x9
 8742 2275 FC       		.byte	0xfc
 8743 2276 24       		.byte	0x24
 8744 2277 9F       		.byte	0x9f
 8745 2278 E6040000 		.4byte	.LVL162
 8746 227c E8040000 		.4byte	.LVL163
 8747 2280 0100     		.2byte	0x1
 8748 2282 53       		.byte	0x53
 8749 2283 E8040000 		.4byte	.LVL163
ARM GAS  C:\Users\info\AppData\Local\Temp\ccl9i4Az.s 			page 203


 8750 2287 F2040000 		.4byte	.LVL166
 8751 228b 1D00     		.2byte	0x1d
 8752 228d 7B       		.byte	0x7b
 8753 228e 00       		.sleb128 0
 8754 228f 7A       		.byte	0x7a
 8755 2290 00       		.sleb128 0
 8756 2291 22       		.byte	0x22
 8757 2292 94       		.byte	0x94
 8758 2293 01       		.byte	0x1
 8759 2294 08       		.byte	0x8
 8760 2295 FF       		.byte	0xff
 8761 2296 1A       		.byte	0x1a
 8762 2297 38       		.byte	0x38
 8763 2298 24       		.byte	0x24
 8764 2299 7B       		.byte	0x7b
 8765 229a 00       		.sleb128 0
 8766 229b 7A       		.byte	0x7a
 8767 229c 00       		.sleb128 0
 8768 229d 22       		.byte	0x22
 8769 229e 23       		.byte	0x23
 8770 229f 01       		.uleb128 0x1
 8771 22a0 94       		.byte	0x94
 8772 22a1 01       		.byte	0x1
 8773 22a2 08       		.byte	0x8
 8774 22a3 FF       		.byte	0xff
 8775 22a4 1A       		.byte	0x1a
 8776 22a5 21       		.byte	0x21
 8777 22a6 09       		.byte	0x9
 8778 22a7 FC       		.byte	0xfc
 8779 22a8 24       		.byte	0x24
 8780 22a9 9F       		.byte	0x9f
 8781 22aa F8040000 		.4byte	.LVL167
 8782 22ae FA040000 		.4byte	.LVL168
 8783 22b2 0100     		.2byte	0x1
 8784 22b4 53       		.byte	0x53
 8785 22b5 FA040000 		.4byte	.LVL168
 8786 22b9 0E050000 		.4byte	.LVL172
 8787 22bd 1D00     		.2byte	0x1d
 8788 22bf 7B       		.byte	0x7b
 8789 22c0 00       		.sleb128 0
 8790 22c1 7A       		.byte	0x7a
 8791 22c2 00       		.sleb128 0
 8792 22c3 22       		.byte	0x22
 8793 22c4 94       		.byte	0x94
 8794 22c5 01       		.byte	0x1
 8795 22c6 08       		.byte	0x8
 8796 22c7 FF       		.byte	0xff
 8797 22c8 1A       		.byte	0x1a
 8798 22c9 38       		.byte	0x38
 8799 22ca 24       		.byte	0x24
 8800 22cb 7B       		.byte	0x7b
 8801 22cc 00       		.sleb128 0
 8802 22cd 7A       		.byte	0x7a
 8803 22ce 00       		.sleb128 0
 8804 22cf 22       		.byte	0x22
 8805 22d0 23       		.byte	0x23
 8806 22d1 01       		.uleb128 0x1
ARM GAS  C:\Users\info\AppData\Local\Temp\ccl9i4Az.s 			page 204


 8807 22d2 94       		.byte	0x94
 8808 22d3 01       		.byte	0x1
 8809 22d4 08       		.byte	0x8
 8810 22d5 FF       		.byte	0xff
 8811 22d6 1A       		.byte	0x1a
 8812 22d7 21       		.byte	0x21
 8813 22d8 09       		.byte	0x9
 8814 22d9 FC       		.byte	0xfc
 8815 22da 24       		.byte	0x24
 8816 22db 9F       		.byte	0x9f
 8817 22dc 0E050000 		.4byte	.LVL172
 8818 22e0 10050000 		.4byte	.LVL173
 8819 22e4 0100     		.2byte	0x1
 8820 22e6 53       		.byte	0x53
 8821 22e7 10050000 		.4byte	.LVL173
 8822 22eb 26050000 		.4byte	.LVL177
 8823 22ef 1D00     		.2byte	0x1d
 8824 22f1 7B       		.byte	0x7b
 8825 22f2 00       		.sleb128 0
 8826 22f3 7A       		.byte	0x7a
 8827 22f4 00       		.sleb128 0
 8828 22f5 22       		.byte	0x22
 8829 22f6 94       		.byte	0x94
 8830 22f7 01       		.byte	0x1
 8831 22f8 08       		.byte	0x8
 8832 22f9 FF       		.byte	0xff
 8833 22fa 1A       		.byte	0x1a
 8834 22fb 38       		.byte	0x38
 8835 22fc 24       		.byte	0x24
 8836 22fd 7B       		.byte	0x7b
 8837 22fe 00       		.sleb128 0
 8838 22ff 7A       		.byte	0x7a
 8839 2300 00       		.sleb128 0
 8840 2301 22       		.byte	0x22
 8841 2302 23       		.byte	0x23
 8842 2303 01       		.uleb128 0x1
 8843 2304 94       		.byte	0x94
 8844 2305 01       		.byte	0x1
 8845 2306 08       		.byte	0x8
 8846 2307 FF       		.byte	0xff
 8847 2308 1A       		.byte	0x1a
 8848 2309 21       		.byte	0x21
 8849 230a 09       		.byte	0x9
 8850 230b FC       		.byte	0xfc
 8851 230c 24       		.byte	0x24
 8852 230d 9F       		.byte	0x9f
 8853 230e 26050000 		.4byte	.LVL177
 8854 2312 28050000 		.4byte	.LVL178
 8855 2316 0100     		.2byte	0x1
 8856 2318 53       		.byte	0x53
 8857 2319 28050000 		.4byte	.LVL178
 8858 231d 3E050000 		.4byte	.LVL182
 8859 2321 1D00     		.2byte	0x1d
 8860 2323 7B       		.byte	0x7b
 8861 2324 00       		.sleb128 0
 8862 2325 7A       		.byte	0x7a
 8863 2326 00       		.sleb128 0
ARM GAS  C:\Users\info\AppData\Local\Temp\ccl9i4Az.s 			page 205


 8864 2327 22       		.byte	0x22
 8865 2328 94       		.byte	0x94
 8866 2329 01       		.byte	0x1
 8867 232a 08       		.byte	0x8
 8868 232b FF       		.byte	0xff
 8869 232c 1A       		.byte	0x1a
 8870 232d 38       		.byte	0x38
 8871 232e 24       		.byte	0x24
 8872 232f 7B       		.byte	0x7b
 8873 2330 00       		.sleb128 0
 8874 2331 7A       		.byte	0x7a
 8875 2332 00       		.sleb128 0
 8876 2333 22       		.byte	0x22
 8877 2334 23       		.byte	0x23
 8878 2335 01       		.uleb128 0x1
 8879 2336 94       		.byte	0x94
 8880 2337 01       		.byte	0x1
 8881 2338 08       		.byte	0x8
 8882 2339 FF       		.byte	0xff
 8883 233a 1A       		.byte	0x1a
 8884 233b 21       		.byte	0x21
 8885 233c 09       		.byte	0x9
 8886 233d FC       		.byte	0xfc
 8887 233e 24       		.byte	0x24
 8888 233f 9F       		.byte	0x9f
 8889 2340 82050000 		.4byte	.LVL187
 8890 2344 84050000 		.4byte	.LVL188
 8891 2348 0100     		.2byte	0x1
 8892 234a 53       		.byte	0x53
 8893 234b 84050000 		.4byte	.LVL188
 8894 234f 86050000 		.4byte	.LVL189
 8895 2353 1D00     		.2byte	0x1d
 8896 2355 7B       		.byte	0x7b
 8897 2356 00       		.sleb128 0
 8898 2357 7A       		.byte	0x7a
 8899 2358 00       		.sleb128 0
 8900 2359 22       		.byte	0x22
 8901 235a 94       		.byte	0x94
 8902 235b 01       		.byte	0x1
 8903 235c 08       		.byte	0x8
 8904 235d FF       		.byte	0xff
 8905 235e 1A       		.byte	0x1a
 8906 235f 38       		.byte	0x38
 8907 2360 24       		.byte	0x24
 8908 2361 7B       		.byte	0x7b
 8909 2362 00       		.sleb128 0
 8910 2363 7A       		.byte	0x7a
 8911 2364 00       		.sleb128 0
 8912 2365 22       		.byte	0x22
 8913 2366 23       		.byte	0x23
 8914 2367 01       		.uleb128 0x1
 8915 2368 94       		.byte	0x94
 8916 2369 01       		.byte	0x1
 8917 236a 08       		.byte	0x8
 8918 236b FF       		.byte	0xff
 8919 236c 1A       		.byte	0x1a
 8920 236d 21       		.byte	0x21
ARM GAS  C:\Users\info\AppData\Local\Temp\ccl9i4Az.s 			page 206


 8921 236e 09       		.byte	0x9
 8922 236f FC       		.byte	0xfc
 8923 2370 24       		.byte	0x24
 8924 2371 9F       		.byte	0x9f
 8925 2372 90050000 		.4byte	.LVL191
 8926 2376 A4050000 		.4byte	.LVL194
 8927 237a 1D00     		.2byte	0x1d
 8928 237c 7B       		.byte	0x7b
 8929 237d 00       		.sleb128 0
 8930 237e 7A       		.byte	0x7a
 8931 237f 00       		.sleb128 0
 8932 2380 22       		.byte	0x22
 8933 2381 94       		.byte	0x94
 8934 2382 01       		.byte	0x1
 8935 2383 08       		.byte	0x8
 8936 2384 FF       		.byte	0xff
 8937 2385 1A       		.byte	0x1a
 8938 2386 38       		.byte	0x38
 8939 2387 24       		.byte	0x24
 8940 2388 7B       		.byte	0x7b
 8941 2389 00       		.sleb128 0
 8942 238a 7A       		.byte	0x7a
 8943 238b 00       		.sleb128 0
 8944 238c 22       		.byte	0x22
 8945 238d 23       		.byte	0x23
 8946 238e 01       		.uleb128 0x1
 8947 238f 94       		.byte	0x94
 8948 2390 01       		.byte	0x1
 8949 2391 08       		.byte	0x8
 8950 2392 FF       		.byte	0xff
 8951 2393 1A       		.byte	0x1a
 8952 2394 21       		.byte	0x21
 8953 2395 09       		.byte	0x9
 8954 2396 FC       		.byte	0xfc
 8955 2397 24       		.byte	0x24
 8956 2398 9F       		.byte	0x9f
 8957 2399 A4050000 		.4byte	.LVL194
 8958 239d A6050000 		.4byte	.LVL195
 8959 23a1 0100     		.2byte	0x1
 8960 23a3 53       		.byte	0x53
 8961 23a4 A6050000 		.4byte	.LVL195
 8962 23a8 B2050000 		.4byte	.LVL198
 8963 23ac 1D00     		.2byte	0x1d
 8964 23ae 7B       		.byte	0x7b
 8965 23af 00       		.sleb128 0
 8966 23b0 7A       		.byte	0x7a
 8967 23b1 00       		.sleb128 0
 8968 23b2 22       		.byte	0x22
 8969 23b3 94       		.byte	0x94
 8970 23b4 01       		.byte	0x1
 8971 23b5 08       		.byte	0x8
 8972 23b6 FF       		.byte	0xff
 8973 23b7 1A       		.byte	0x1a
 8974 23b8 38       		.byte	0x38
 8975 23b9 24       		.byte	0x24
 8976 23ba 7B       		.byte	0x7b
 8977 23bb 00       		.sleb128 0
ARM GAS  C:\Users\info\AppData\Local\Temp\ccl9i4Az.s 			page 207


 8978 23bc 7A       		.byte	0x7a
 8979 23bd 00       		.sleb128 0
 8980 23be 22       		.byte	0x22
 8981 23bf 23       		.byte	0x23
 8982 23c0 01       		.uleb128 0x1
 8983 23c1 94       		.byte	0x94
 8984 23c2 01       		.byte	0x1
 8985 23c3 08       		.byte	0x8
 8986 23c4 FF       		.byte	0xff
 8987 23c5 1A       		.byte	0x1a
 8988 23c6 21       		.byte	0x21
 8989 23c7 09       		.byte	0x9
 8990 23c8 FC       		.byte	0xfc
 8991 23c9 24       		.byte	0x24
 8992 23ca 9F       		.byte	0x9f
 8993 23cb B2050000 		.4byte	.LVL198
 8994 23cf B6050000 		.4byte	.LVL200
 8995 23d3 0100     		.2byte	0x1
 8996 23d5 53       		.byte	0x53
 8997 23d6 BA050000 		.4byte	.LVL202
 8998 23da BC050000 		.4byte	.LVL203
 8999 23de 0100     		.2byte	0x1
 9000 23e0 53       		.byte	0x53
 9001 23e1 BC050000 		.4byte	.LVL203
 9002 23e5 C0050000 		.4byte	.LVL205
 9003 23e9 1D00     		.2byte	0x1d
 9004 23eb 7B       		.byte	0x7b
 9005 23ec 00       		.sleb128 0
 9006 23ed 7A       		.byte	0x7a
 9007 23ee 00       		.sleb128 0
 9008 23ef 22       		.byte	0x22
 9009 23f0 94       		.byte	0x94
 9010 23f1 01       		.byte	0x1
 9011 23f2 08       		.byte	0x8
 9012 23f3 FF       		.byte	0xff
 9013 23f4 1A       		.byte	0x1a
 9014 23f5 38       		.byte	0x38
 9015 23f6 24       		.byte	0x24
 9016 23f7 7B       		.byte	0x7b
 9017 23f8 00       		.sleb128 0
 9018 23f9 7A       		.byte	0x7a
 9019 23fa 00       		.sleb128 0
 9020 23fb 22       		.byte	0x22
 9021 23fc 23       		.byte	0x23
 9022 23fd 01       		.uleb128 0x1
 9023 23fe 94       		.byte	0x94
 9024 23ff 01       		.byte	0x1
 9025 2400 08       		.byte	0x8
 9026 2401 FF       		.byte	0xff
 9027 2402 1A       		.byte	0x1a
 9028 2403 21       		.byte	0x21
 9029 2404 09       		.byte	0x9
 9030 2405 FC       		.byte	0xfc
 9031 2406 24       		.byte	0x24
 9032 2407 9F       		.byte	0x9f
 9033 2408 C0050000 		.4byte	.LVL205
 9034 240c C2050000 		.4byte	.LVL206
ARM GAS  C:\Users\info\AppData\Local\Temp\ccl9i4Az.s 			page 208


 9035 2410 0100     		.2byte	0x1
 9036 2412 53       		.byte	0x53
 9037 2413 C2050000 		.4byte	.LVL206
 9038 2417 C8050000 		.4byte	.LVL208
 9039 241b 1D00     		.2byte	0x1d
 9040 241d 7B       		.byte	0x7b
 9041 241e 00       		.sleb128 0
 9042 241f 7A       		.byte	0x7a
 9043 2420 00       		.sleb128 0
 9044 2421 22       		.byte	0x22
 9045 2422 94       		.byte	0x94
 9046 2423 01       		.byte	0x1
 9047 2424 08       		.byte	0x8
 9048 2425 FF       		.byte	0xff
 9049 2426 1A       		.byte	0x1a
 9050 2427 38       		.byte	0x38
 9051 2428 24       		.byte	0x24
 9052 2429 7B       		.byte	0x7b
 9053 242a 00       		.sleb128 0
 9054 242b 7A       		.byte	0x7a
 9055 242c 00       		.sleb128 0
 9056 242d 22       		.byte	0x22
 9057 242e 23       		.byte	0x23
 9058 242f 01       		.uleb128 0x1
 9059 2430 94       		.byte	0x94
 9060 2431 01       		.byte	0x1
 9061 2432 08       		.byte	0x8
 9062 2433 FF       		.byte	0xff
 9063 2434 1A       		.byte	0x1a
 9064 2435 21       		.byte	0x21
 9065 2436 09       		.byte	0x9
 9066 2437 FC       		.byte	0xfc
 9067 2438 24       		.byte	0x24
 9068 2439 9F       		.byte	0x9f
 9069 243a CE050000 		.4byte	.LVL210
 9070 243e DA050000 		.4byte	.LVL214
 9071 2442 1D00     		.2byte	0x1d
 9072 2444 7B       		.byte	0x7b
 9073 2445 00       		.sleb128 0
 9074 2446 7A       		.byte	0x7a
 9075 2447 00       		.sleb128 0
 9076 2448 22       		.byte	0x22
 9077 2449 94       		.byte	0x94
 9078 244a 01       		.byte	0x1
 9079 244b 08       		.byte	0x8
 9080 244c FF       		.byte	0xff
 9081 244d 1A       		.byte	0x1a
 9082 244e 38       		.byte	0x38
 9083 244f 24       		.byte	0x24
 9084 2450 7B       		.byte	0x7b
 9085 2451 00       		.sleb128 0
 9086 2452 7A       		.byte	0x7a
 9087 2453 00       		.sleb128 0
 9088 2454 22       		.byte	0x22
 9089 2455 23       		.byte	0x23
 9090 2456 01       		.uleb128 0x1
 9091 2457 94       		.byte	0x94
ARM GAS  C:\Users\info\AppData\Local\Temp\ccl9i4Az.s 			page 209


 9092 2458 01       		.byte	0x1
 9093 2459 08       		.byte	0x8
 9094 245a FF       		.byte	0xff
 9095 245b 1A       		.byte	0x1a
 9096 245c 21       		.byte	0x21
 9097 245d 09       		.byte	0x9
 9098 245e FC       		.byte	0xfc
 9099 245f 24       		.byte	0x24
 9100 2460 9F       		.byte	0x9f
 9101 2461 DA050000 		.4byte	.LVL214
 9102 2465 DC050000 		.4byte	.LVL215
 9103 2469 0100     		.2byte	0x1
 9104 246b 53       		.byte	0x53
 9105 246c DC050000 		.4byte	.LVL215
 9106 2470 E6050000 		.4byte	.LVL218
 9107 2474 1D00     		.2byte	0x1d
 9108 2476 7B       		.byte	0x7b
 9109 2477 00       		.sleb128 0
 9110 2478 7A       		.byte	0x7a
 9111 2479 00       		.sleb128 0
 9112 247a 22       		.byte	0x22
 9113 247b 94       		.byte	0x94
 9114 247c 01       		.byte	0x1
 9115 247d 08       		.byte	0x8
 9116 247e FF       		.byte	0xff
 9117 247f 1A       		.byte	0x1a
 9118 2480 38       		.byte	0x38
 9119 2481 24       		.byte	0x24
 9120 2482 7B       		.byte	0x7b
 9121 2483 00       		.sleb128 0
 9122 2484 7A       		.byte	0x7a
 9123 2485 00       		.sleb128 0
 9124 2486 22       		.byte	0x22
 9125 2487 23       		.byte	0x23
 9126 2488 01       		.uleb128 0x1
 9127 2489 94       		.byte	0x94
 9128 248a 01       		.byte	0x1
 9129 248b 08       		.byte	0x8
 9130 248c FF       		.byte	0xff
 9131 248d 1A       		.byte	0x1a
 9132 248e 21       		.byte	0x21
 9133 248f 09       		.byte	0x9
 9134 2490 FC       		.byte	0xfc
 9135 2491 24       		.byte	0x24
 9136 2492 9F       		.byte	0x9f
 9137 2493 E6050000 		.4byte	.LVL218
 9138 2497 E8050000 		.4byte	.LVL219
 9139 249b 0100     		.2byte	0x1
 9140 249d 53       		.byte	0x53
 9141 249e E8050000 		.4byte	.LVL219
 9142 24a2 F2050000 		.4byte	.LVL222
 9143 24a6 1D00     		.2byte	0x1d
 9144 24a8 7B       		.byte	0x7b
 9145 24a9 00       		.sleb128 0
 9146 24aa 7A       		.byte	0x7a
 9147 24ab 00       		.sleb128 0
 9148 24ac 22       		.byte	0x22
ARM GAS  C:\Users\info\AppData\Local\Temp\ccl9i4Az.s 			page 210


 9149 24ad 94       		.byte	0x94
 9150 24ae 01       		.byte	0x1
 9151 24af 08       		.byte	0x8
 9152 24b0 FF       		.byte	0xff
 9153 24b1 1A       		.byte	0x1a
 9154 24b2 38       		.byte	0x38
 9155 24b3 24       		.byte	0x24
 9156 24b4 7B       		.byte	0x7b
 9157 24b5 00       		.sleb128 0
 9158 24b6 7A       		.byte	0x7a
 9159 24b7 00       		.sleb128 0
 9160 24b8 22       		.byte	0x22
 9161 24b9 23       		.byte	0x23
 9162 24ba 01       		.uleb128 0x1
 9163 24bb 94       		.byte	0x94
 9164 24bc 01       		.byte	0x1
 9165 24bd 08       		.byte	0x8
 9166 24be FF       		.byte	0xff
 9167 24bf 1A       		.byte	0x1a
 9168 24c0 21       		.byte	0x21
 9169 24c1 09       		.byte	0x9
 9170 24c2 FC       		.byte	0xfc
 9171 24c3 24       		.byte	0x24
 9172 24c4 9F       		.byte	0x9f
 9173 24c5 F2050000 		.4byte	.LVL222
 9174 24c9 F4050000 		.4byte	.LVL223
 9175 24cd 0100     		.2byte	0x1
 9176 24cf 53       		.byte	0x53
 9177 24d0 F4050000 		.4byte	.LVL223
 9178 24d4 F8050000 		.4byte	.LVL224
 9179 24d8 1D00     		.2byte	0x1d
 9180 24da 7B       		.byte	0x7b
 9181 24db 00       		.sleb128 0
 9182 24dc 7A       		.byte	0x7a
 9183 24dd 00       		.sleb128 0
 9184 24de 22       		.byte	0x22
 9185 24df 94       		.byte	0x94
 9186 24e0 01       		.byte	0x1
 9187 24e1 08       		.byte	0x8
 9188 24e2 FF       		.byte	0xff
 9189 24e3 1A       		.byte	0x1a
 9190 24e4 38       		.byte	0x38
 9191 24e5 24       		.byte	0x24
 9192 24e6 7B       		.byte	0x7b
 9193 24e7 00       		.sleb128 0
 9194 24e8 7A       		.byte	0x7a
 9195 24e9 00       		.sleb128 0
 9196 24ea 22       		.byte	0x22
 9197 24eb 23       		.byte	0x23
 9198 24ec 01       		.uleb128 0x1
 9199 24ed 94       		.byte	0x94
 9200 24ee 01       		.byte	0x1
 9201 24ef 08       		.byte	0x8
 9202 24f0 FF       		.byte	0xff
 9203 24f1 1A       		.byte	0x1a
 9204 24f2 21       		.byte	0x21
 9205 24f3 09       		.byte	0x9
ARM GAS  C:\Users\info\AppData\Local\Temp\ccl9i4Az.s 			page 211


 9206 24f4 FC       		.byte	0xfc
 9207 24f5 24       		.byte	0x24
 9208 24f6 9F       		.byte	0x9f
 9209 24f7 F8050000 		.4byte	.LVL224
 9210 24fb FA050000 		.4byte	.LVL225
 9211 24ff 0100     		.2byte	0x1
 9212 2501 53       		.byte	0x53
 9213 2502 FA050000 		.4byte	.LVL225
 9214 2506 FE050000 		.4byte	.LVL227
 9215 250a 1D00     		.2byte	0x1d
 9216 250c 7B       		.byte	0x7b
 9217 250d 00       		.sleb128 0
 9218 250e 7A       		.byte	0x7a
 9219 250f 00       		.sleb128 0
 9220 2510 22       		.byte	0x22
 9221 2511 94       		.byte	0x94
 9222 2512 01       		.byte	0x1
 9223 2513 08       		.byte	0x8
 9224 2514 FF       		.byte	0xff
 9225 2515 1A       		.byte	0x1a
 9226 2516 38       		.byte	0x38
 9227 2517 24       		.byte	0x24
 9228 2518 7B       		.byte	0x7b
 9229 2519 00       		.sleb128 0
 9230 251a 7A       		.byte	0x7a
 9231 251b 00       		.sleb128 0
 9232 251c 22       		.byte	0x22
 9233 251d 23       		.byte	0x23
 9234 251e 01       		.uleb128 0x1
 9235 251f 94       		.byte	0x94
 9236 2520 01       		.byte	0x1
 9237 2521 08       		.byte	0x8
 9238 2522 FF       		.byte	0xff
 9239 2523 1A       		.byte	0x1a
 9240 2524 21       		.byte	0x21
 9241 2525 09       		.byte	0x9
 9242 2526 FC       		.byte	0xfc
 9243 2527 24       		.byte	0x24
 9244 2528 9F       		.byte	0x9f
 9245 2529 0A060000 		.4byte	.LVL228
 9246 252d 0C060000 		.4byte	.LVL229
 9247 2531 0100     		.2byte	0x1
 9248 2533 53       		.byte	0x53
 9249 2534 0C060000 		.4byte	.LVL229
 9250 2538 0E060000 		.4byte	.LVL230
 9251 253c 1D00     		.2byte	0x1d
 9252 253e 7B       		.byte	0x7b
 9253 253f 00       		.sleb128 0
 9254 2540 7A       		.byte	0x7a
 9255 2541 00       		.sleb128 0
 9256 2542 22       		.byte	0x22
 9257 2543 94       		.byte	0x94
 9258 2544 01       		.byte	0x1
 9259 2545 08       		.byte	0x8
 9260 2546 FF       		.byte	0xff
 9261 2547 1A       		.byte	0x1a
 9262 2548 38       		.byte	0x38
ARM GAS  C:\Users\info\AppData\Local\Temp\ccl9i4Az.s 			page 212


 9263 2549 24       		.byte	0x24
 9264 254a 7B       		.byte	0x7b
 9265 254b 00       		.sleb128 0
 9266 254c 7A       		.byte	0x7a
 9267 254d 00       		.sleb128 0
 9268 254e 22       		.byte	0x22
 9269 254f 23       		.byte	0x23
 9270 2550 01       		.uleb128 0x1
 9271 2551 94       		.byte	0x94
 9272 2552 01       		.byte	0x1
 9273 2553 08       		.byte	0x8
 9274 2554 FF       		.byte	0xff
 9275 2555 1A       		.byte	0x1a
 9276 2556 21       		.byte	0x21
 9277 2557 09       		.byte	0x9
 9278 2558 FC       		.byte	0xfc
 9279 2559 24       		.byte	0x24
 9280 255a 9F       		.byte	0x9f
 9281 255b 00000000 		.4byte	0
 9282 255f 00000000 		.4byte	0
 9283              	.LLST17:
 9284 2563 68000000 		.4byte	.LVL18
 9285 2567 B4010000 		.4byte	.LVL76
 9286 256b 0100     		.2byte	0x1
 9287 256d 56       		.byte	0x56
 9288 256e B4010000 		.4byte	.LVL76
 9289 2572 BE010000 		.4byte	.LVL78
 9290 2576 1A00     		.2byte	0x1a
 9291 2578 7B       		.byte	0x7b
 9292 2579 00       		.sleb128 0
 9293 257a 7A       		.byte	0x7a
 9294 257b 00       		.sleb128 0
 9295 257c 22       		.byte	0x22
 9296 257d 94       		.byte	0x94
 9297 257e 01       		.byte	0x1
 9298 257f 08       		.byte	0x8
 9299 2580 FF       		.byte	0xff
 9300 2581 1A       		.byte	0x1a
 9301 2582 38       		.byte	0x38
 9302 2583 24       		.byte	0x24
 9303 2584 7B       		.byte	0x7b
 9304 2585 00       		.sleb128 0
 9305 2586 7A       		.byte	0x7a
 9306 2587 00       		.sleb128 0
 9307 2588 22       		.byte	0x22
 9308 2589 23       		.byte	0x23
 9309 258a 01       		.uleb128 0x1
 9310 258b 94       		.byte	0x94
 9311 258c 01       		.byte	0x1
 9312 258d 08       		.byte	0x8
 9313 258e FF       		.byte	0xff
 9314 258f 1A       		.byte	0x1a
 9315 2590 21       		.byte	0x21
 9316 2591 9F       		.byte	0x9f
 9317 2592 BE010000 		.4byte	.LVL78
 9318 2596 1C030000 		.4byte	.LVL123
 9319 259a 0100     		.2byte	0x1
ARM GAS  C:\Users\info\AppData\Local\Temp\ccl9i4Az.s 			page 213


 9320 259c 56       		.byte	0x56
 9321 259d EC030000 		.4byte	.LVL130
 9322 25a1 06040000 		.4byte	.LVL135
 9323 25a5 0100     		.2byte	0x1
 9324 25a7 56       		.byte	0x56
 9325 25a8 34040000 		.4byte	.LVL138
 9326 25ac 4C050000 		.4byte	.LVL183
 9327 25b0 0100     		.2byte	0x1
 9328 25b2 56       		.byte	0x56
 9329 25b3 6E050000 		.4byte	.LVL184
 9330 25b7 0E060000 		.4byte	.LVL230
 9331 25bb 0100     		.2byte	0x1
 9332 25bd 56       		.byte	0x56
 9333 25be 00000000 		.4byte	0
 9334 25c2 00000000 		.4byte	0
 9335              	.LLST18:
 9336 25c6 68000000 		.4byte	.LVL18
 9337 25ca 0B030000 		.4byte	.LVL121-1
 9338 25ce 0100     		.2byte	0x1
 9339 25d0 5C       		.byte	0x5c
 9340 25d1 0B030000 		.4byte	.LVL121-1
 9341 25d5 1C030000 		.4byte	.LVL123
 9342 25d9 0500     		.2byte	0x5
 9343 25db 76       		.byte	0x76
 9344 25dc 00       		.sleb128 0
 9345 25dd 3F       		.byte	0x3f
 9346 25de 1A       		.byte	0x1a
 9347 25df 9F       		.byte	0x9f
 9348 25e0 1C030000 		.4byte	.LVL123
 9349 25e4 49040000 		.4byte	.LVL141-1
 9350 25e8 0100     		.2byte	0x1
 9351 25ea 5C       		.byte	0x5c
 9352 25eb 49040000 		.4byte	.LVL141-1
 9353 25ef 5E040000 		.4byte	.LVL144
 9354 25f3 0500     		.2byte	0x5
 9355 25f5 76       		.byte	0x76
 9356 25f6 00       		.sleb128 0
 9357 25f7 3F       		.byte	0x3f
 9358 25f8 1A       		.byte	0x1a
 9359 25f9 9F       		.byte	0x9f
 9360 25fa 5E040000 		.4byte	.LVL144
 9361 25fe 69040000 		.4byte	.LVL147-1
 9362 2602 0100     		.2byte	0x1
 9363 2604 5C       		.byte	0x5c
 9364 2605 69040000 		.4byte	.LVL147-1
 9365 2609 7E040000 		.4byte	.LVL150
 9366 260d 0500     		.2byte	0x5
 9367 260f 76       		.byte	0x76
 9368 2610 00       		.sleb128 0
 9369 2611 3F       		.byte	0x3f
 9370 2612 1A       		.byte	0x1a
 9371 2613 9F       		.byte	0x9f
 9372 2614 7E040000 		.4byte	.LVL150
 9373 2618 C5040000 		.4byte	.LVL155-1
 9374 261c 0100     		.2byte	0x1
 9375 261e 5C       		.byte	0x5c
 9376 261f C5040000 		.4byte	.LVL155-1
ARM GAS  C:\Users\info\AppData\Local\Temp\ccl9i4Az.s 			page 214


 9377 2623 D4040000 		.4byte	.LVL157
 9378 2627 0500     		.2byte	0x5
 9379 2629 76       		.byte	0x76
 9380 262a 00       		.sleb128 0
 9381 262b 3F       		.byte	0x3f
 9382 262c 1A       		.byte	0x1a
 9383 262d 9F       		.byte	0x9f
 9384 262e D4040000 		.4byte	.LVL157
 9385 2632 FE050000 		.4byte	.LVL227
 9386 2636 0100     		.2byte	0x1
 9387 2638 5C       		.byte	0x5c
 9388 2639 FE050000 		.4byte	.LVL227
 9389 263d 0A060000 		.4byte	.LVL228
 9390 2641 0500     		.2byte	0x5
 9391 2643 76       		.byte	0x76
 9392 2644 00       		.sleb128 0
 9393 2645 3F       		.byte	0x3f
 9394 2646 1A       		.byte	0x1a
 9395 2647 9F       		.byte	0x9f
 9396 2648 0A060000 		.4byte	.LVL228
 9397 264c 0E060000 		.4byte	.LVL230
 9398 2650 0100     		.2byte	0x1
 9399 2652 5C       		.byte	0x5c
 9400 2653 00000000 		.4byte	0
 9401 2657 00000000 		.4byte	0
 9402              	.LLST19:
 9403 265b 68000000 		.4byte	.LVL18
 9404 265f 0E060000 		.4byte	.LVL230
 9405 2663 0200     		.2byte	0x2
 9406 2665 30       		.byte	0x30
 9407 2666 9F       		.byte	0x9f
 9408 2667 0E060000 		.4byte	.LVL230
 9409 266b 34060000 		.4byte	.LFE63
 9410 266f 0100     		.2byte	0x1
 9411 2671 52       		.byte	0x52
 9412 2672 00000000 		.4byte	0
 9413 2676 00000000 		.4byte	0
 9414              	.LLST20:
 9415 267a 68000000 		.4byte	.LVL18
 9416 267e D8000000 		.4byte	.LVL31
 9417 2682 0200     		.2byte	0x2
 9418 2684 30       		.byte	0x30
 9419 2685 9F       		.byte	0x9f
 9420 2686 D8000000 		.4byte	.LVL31
 9421 268a DE000000 		.4byte	.LVL32
 9422 268e 0200     		.2byte	0x2
 9423 2690 31       		.byte	0x31
 9424 2691 9F       		.byte	0x9f
 9425 2692 DE000000 		.4byte	.LVL32
 9426 2696 E4000000 		.4byte	.LVL34
 9427 269a 0200     		.2byte	0x2
 9428 269c 30       		.byte	0x30
 9429 269d 9F       		.byte	0x9f
 9430 269e E4000000 		.4byte	.LVL34
 9431 26a2 EA000000 		.4byte	.LVL37
 9432 26a6 0200     		.2byte	0x2
 9433 26a8 31       		.byte	0x31
ARM GAS  C:\Users\info\AppData\Local\Temp\ccl9i4Az.s 			page 215


 9434 26a9 9F       		.byte	0x9f
 9435 26aa EA000000 		.4byte	.LVL37
 9436 26ae 0E060000 		.4byte	.LVL230
 9437 26b2 0200     		.2byte	0x2
 9438 26b4 30       		.byte	0x30
 9439 26b5 9F       		.byte	0x9f
 9440 26b6 0E060000 		.4byte	.LVL230
 9441 26ba 34060000 		.4byte	.LFE63
 9442 26be 0100     		.2byte	0x1
 9443 26c0 53       		.byte	0x53
 9444 26c1 00000000 		.4byte	0
 9445 26c5 00000000 		.4byte	0
 9446              	.LLST21:
 9447 26c9 A6000000 		.4byte	.LVL22
 9448 26cd B6000000 		.4byte	.LVL24
 9449 26d1 0100     		.2byte	0x1
 9450 26d3 53       		.byte	0x53
 9451 26d4 B8000000 		.4byte	.LVL25
 9452 26d8 BE000000 		.4byte	.LVL26
 9453 26dc 0100     		.2byte	0x1
 9454 26de 53       		.byte	0x53
 9455 26df 00000000 		.4byte	0
 9456 26e3 00000000 		.4byte	0
 9457              	.LLST22:
 9458 26e7 74020000 		.4byte	.LVL96
 9459 26eb 96020000 		.4byte	.LVL102
 9460 26ef 0100     		.2byte	0x1
 9461 26f1 52       		.byte	0x52
 9462 26f2 00000000 		.4byte	0
 9463 26f6 00000000 		.4byte	0
 9464              	.LLST23:
 9465 26fa 7C020000 		.4byte	.LVL99
 9466 26fe 98020000 		.4byte	.LVL103
 9467 2702 0100     		.2byte	0x1
 9468 2704 51       		.byte	0x51
 9469 2705 00000000 		.4byte	0
 9470 2709 00000000 		.4byte	0
 9471              	.LLST24:
 9472 270d 7E020000 		.4byte	.LVL100
 9473 2711 86020000 		.4byte	.LVL101
 9474 2715 0100     		.2byte	0x1
 9475 2717 53       		.byte	0x53
 9476 2718 86020000 		.4byte	.LVL101
 9477 271c 96020000 		.4byte	.LVL102
 9478 2720 0600     		.2byte	0x6
 9479 2722 72       		.byte	0x72
 9480 2723 00       		.sleb128 0
 9481 2724 71       		.byte	0x71
 9482 2725 00       		.sleb128 0
 9483 2726 1C       		.byte	0x1c
 9484 2727 9F       		.byte	0x9f
 9485 2728 00000000 		.4byte	0
 9486 272c 00000000 		.4byte	0
 9487              	.LLST25:
 9488 2730 C0020000 		.4byte	.LVL108
 9489 2734 E2020000 		.4byte	.LVL114
 9490 2738 0100     		.2byte	0x1
ARM GAS  C:\Users\info\AppData\Local\Temp\ccl9i4Az.s 			page 216


 9491 273a 51       		.byte	0x51
 9492 273b 00000000 		.4byte	0
 9493 273f 00000000 		.4byte	0
 9494              	.LLST26:
 9495 2743 C6020000 		.4byte	.LVL110
 9496 2747 E0020000 		.4byte	.LVL113
 9497 274b 0100     		.2byte	0x1
 9498 274d 52       		.byte	0x52
 9499 274e 00000000 		.4byte	0
 9500 2752 00000000 		.4byte	0
 9501              	.LLST27:
 9502 2756 C8020000 		.4byte	.LVL111
 9503 275a D0020000 		.4byte	.LVL112
 9504 275e 0100     		.2byte	0x1
 9505 2760 53       		.byte	0x53
 9506 2761 D0020000 		.4byte	.LVL112
 9507 2765 E0020000 		.4byte	.LVL113
 9508 2769 0600     		.2byte	0x6
 9509 276b 72       		.byte	0x72
 9510 276c 00       		.sleb128 0
 9511 276d 71       		.byte	0x71
 9512 276e 00       		.sleb128 0
 9513 276f 1C       		.byte	0x1c
 9514 2770 9F       		.byte	0x9f
 9515 2771 00000000 		.4byte	0
 9516 2775 00000000 		.4byte	0
 9517              	.LLST28:
 9518 2779 1C030000 		.4byte	.LVL123
 9519 277d D8030000 		.4byte	.LVL127
 9520 2781 0200     		.2byte	0x2
 9521 2783 7D       		.byte	0x7d
 9522 2784 00       		.sleb128 0
 9523 2785 D8030000 		.4byte	.LVL127
 9524 2789 DC030000 		.4byte	.LVL128
 9525 278d 0600     		.2byte	0x6
 9526 278f 50       		.byte	0x50
 9527 2790 93       		.byte	0x93
 9528 2791 04       		.uleb128 0x4
 9529 2792 51       		.byte	0x51
 9530 2793 93       		.byte	0x93
 9531 2794 04       		.uleb128 0x4
 9532 2795 DC030000 		.4byte	.LVL128
 9533 2799 EC030000 		.4byte	.LVL130
 9534 279d 0200     		.2byte	0x2
 9535 279f 7D       		.byte	0x7d
 9536 27a0 00       		.sleb128 0
 9537 27a1 06040000 		.4byte	.LVL135
 9538 27a5 34040000 		.4byte	.LVL138
 9539 27a9 0200     		.2byte	0x2
 9540 27ab 7D       		.byte	0x7d
 9541 27ac 00       		.sleb128 0
 9542 27ad 00000000 		.4byte	0
 9543 27b1 00000000 		.4byte	0
 9544              	.LLST29:
 9545 27b5 1C030000 		.4byte	.LVL123
 9546 27b9 EC030000 		.4byte	.LVL130
 9547 27bd 0100     		.2byte	0x1
ARM GAS  C:\Users\info\AppData\Local\Temp\ccl9i4Az.s 			page 217


 9548 27bf 52       		.byte	0x52
 9549 27c0 06040000 		.4byte	.LVL135
 9550 27c4 2C040000 		.4byte	.LVL137
 9551 27c8 0100     		.2byte	0x1
 9552 27ca 52       		.byte	0x52
 9553 27cb 00000000 		.4byte	0
 9554 27cf 00000000 		.4byte	0
 9555              	.LLST30:
 9556 27d3 1C030000 		.4byte	.LVL123
 9557 27d7 52030000 		.4byte	.LVL124
 9558 27db 0A00     		.2byte	0xa
 9559 27dd 9E       		.byte	0x9e
 9560 27de 08       		.uleb128 0x8
 9561 27df 00000000 		.8byte	0
 9561      00000000 
 9562 27e7 52030000 		.4byte	.LVL124
 9563 27eb 54030000 		.4byte	.LVL125
 9564 27ef 0600     		.2byte	0x6
 9565 27f1 58       		.byte	0x58
 9566 27f2 93       		.byte	0x93
 9567 27f3 04       		.uleb128 0x4
 9568 27f4 59       		.byte	0x59
 9569 27f5 93       		.byte	0x93
 9570 27f6 04       		.uleb128 0x4
 9571 27f7 54030000 		.4byte	.LVL125
 9572 27fb 98030000 		.4byte	.LVL126
 9573 27ff 0A00     		.2byte	0xa
 9574 2801 9E       		.byte	0x9e
 9575 2802 08       		.uleb128 0x8
 9576 2803 00000000 		.8byte	0
 9576      00000000 
 9577 280b 98030000 		.4byte	.LVL126
 9578 280f EC030000 		.4byte	.LVL130
 9579 2813 0600     		.2byte	0x6
 9580 2815 58       		.byte	0x58
 9581 2816 93       		.byte	0x93
 9582 2817 04       		.uleb128 0x4
 9583 2818 59       		.byte	0x59
 9584 2819 93       		.byte	0x93
 9585 281a 04       		.uleb128 0x4
 9586 281b 00000000 		.4byte	0
 9587 281f 00000000 		.4byte	0
 9588              	.LLST31:
 9589 2823 6E050000 		.4byte	.LVL184
 9590 2827 7E050000 		.4byte	.LVL185
 9591 282b 0100     		.2byte	0x1
 9592 282d 53       		.byte	0x53
 9593 282e 80050000 		.4byte	.LVL186
 9594 2832 82050000 		.4byte	.LVL187
 9595 2836 0100     		.2byte	0x1
 9596 2838 53       		.byte	0x53
 9597 2839 86050000 		.4byte	.LVL189
 9598 283d 8C050000 		.4byte	.LVL190
 9599 2841 0100     		.2byte	0x1
 9600 2843 53       		.byte	0x53
 9601 2844 00000000 		.4byte	0
 9602 2848 00000000 		.4byte	0
ARM GAS  C:\Users\info\AppData\Local\Temp\ccl9i4Az.s 			page 218


 9603              	.LLST32:
 9604 284c 90050000 		.4byte	.LVL191
 9605 2850 A0050000 		.4byte	.LVL192
 9606 2854 0100     		.2byte	0x1
 9607 2856 53       		.byte	0x53
 9608 2857 A2050000 		.4byte	.LVL193
 9609 285b A4050000 		.4byte	.LVL194
 9610 285f 0100     		.2byte	0x1
 9611 2861 53       		.byte	0x53
 9612 2862 A8050000 		.4byte	.LVL196
 9613 2866 AE050000 		.4byte	.LVL197
 9614 286a 0100     		.2byte	0x1
 9615 286c 53       		.byte	0x53
 9616 286d 00000000 		.4byte	0
 9617 2871 00000000 		.4byte	0
 9618              		.section	.debug_aranges,"",%progbits
 9619 0000 1C000000 		.4byte	0x1c
 9620 0004 0200     		.2byte	0x2
 9621 0006 00000000 		.4byte	.Ldebug_info0
 9622 000a 04       		.byte	0x4
 9623 000b 00       		.byte	0
 9624 000c 0000     		.2byte	0
 9625 000e 0000     		.2byte	0
 9626 0010 00000000 		.4byte	.LFB63
 9627 0014 34060000 		.4byte	.LFE63-.LFB63
 9628 0018 00000000 		.4byte	0
 9629 001c 00000000 		.4byte	0
 9630              		.section	.debug_ranges,"",%progbits
 9631              	.Ldebug_ranges0:
 9632 0000 A6000000 		.4byte	.LBB4
 9633 0004 B6000000 		.4byte	.LBE4
 9634 0008 B8000000 		.4byte	.LBB5
 9635 000c BC000000 		.4byte	.LBE5
 9636 0010 00000000 		.4byte	0
 9637 0014 00000000 		.4byte	0
 9638 0018 6C020000 		.4byte	.LBB6
 9639 001c 92020000 		.4byte	.LBE6
 9640 0020 96020000 		.4byte	.LBB7
 9641 0024 98020000 		.4byte	.LBE7
 9642 0028 00000000 		.4byte	0
 9643 002c 00000000 		.4byte	0
 9644 0030 B8020000 		.4byte	.LBB8
 9645 0034 DC020000 		.4byte	.LBE8
 9646 0038 E0020000 		.4byte	.LBB9
 9647 003c E2020000 		.4byte	.LBE9
 9648 0040 00000000 		.4byte	0
 9649 0044 00000000 		.4byte	0
 9650 0048 1C030000 		.4byte	.LBB10
 9651 004c EC030000 		.4byte	.LBE10
 9652 0050 06040000 		.4byte	.LBB14
 9653 0054 2E040000 		.4byte	.LBE14
 9654 0058 32040000 		.4byte	.LBB15
 9655 005c 34040000 		.4byte	.LBE15
 9656 0060 00000000 		.4byte	0
 9657 0064 00000000 		.4byte	0
 9658 0068 1C030000 		.4byte	.LBB11
 9659 006c EC030000 		.4byte	.LBE11
ARM GAS  C:\Users\info\AppData\Local\Temp\ccl9i4Az.s 			page 219


 9660 0070 06040000 		.4byte	.LBB13
 9661 0074 16040000 		.4byte	.LBE13
 9662 0078 00000000 		.4byte	0
 9663 007c 00000000 		.4byte	0
 9664 0080 6E050000 		.4byte	.LBB16
 9665 0084 82050000 		.4byte	.LBE16
 9666 0088 86050000 		.4byte	.LBB17
 9667 008c 8A050000 		.4byte	.LBE17
 9668 0090 00000000 		.4byte	0
 9669 0094 00000000 		.4byte	0
 9670 0098 90050000 		.4byte	.LBB18
 9671 009c A4050000 		.4byte	.LBE18
 9672 00a0 A8050000 		.4byte	.LBB19
 9673 00a4 AC050000 		.4byte	.LBE19
 9674 00a8 B0050000 		.4byte	.LBB20
 9675 00ac B2050000 		.4byte	.LBE20
 9676 00b0 00000000 		.4byte	0
 9677 00b4 00000000 		.4byte	0
 9678 00b8 00000000 		.4byte	.LFB63
 9679 00bc 34060000 		.4byte	.LFE63
 9680 00c0 00000000 		.4byte	0
 9681 00c4 00000000 		.4byte	0
 9682              		.section	.debug_line,"",%progbits
 9683              	.Ldebug_line0:
 9684 0000 B2030000 		.section	.debug_str,"MS",%progbits,1
 9684      02005701 
 9684      00000201 
 9684      FB0E0D00 
 9684      01010101 
 9685              	.LASF32:
 9686 0000 6B65795F 		.ascii	"key_pressed\000"
 9686      70726573 
 9686      73656400 
 9687              	.LASF0:
 9688 000c 7369676E 		.ascii	"signed char\000"
 9688      65642063 
 9688      68617200 
 9689              	.LASF3:
 9690 0018 5F5F7569 		.ascii	"__uint8_t\000"
 9690      6E74385F 
 9690      7400
 9691              	.LASF26:
 9692 0022 6F703130 		.ascii	"op10\000"
 9692      00
 9693              	.LASF6:
 9694 0027 5F5F696E 		.ascii	"__int32_t\000"
 9694      7433325F 
 9694      7400
 9695              	.LASF27:
 9696 0031 696E7661 		.ascii	"invalid_op\000"
 9696      6C69645F 
 9696      6F7000
 9697              	.LASF39:
 9698 003c 6D656D73 		.ascii	"memset\000"
 9698      657400
 9699              	.LASF24:
 9700 0043 73746163 		.ascii	"stack\000"
ARM GAS  C:\Users\info\AppData\Local\Temp\ccl9i4Az.s 			page 220


 9700      6B00
 9701              	.LASF34:
 9702 0049 474E5520 		.ascii	"GNU C11 5.4.1 20160609 (release) [ARM/embedded-5-br"
 9702      43313120 
 9702      352E342E 
 9702      31203230 
 9702      31363036 
 9703 007c 616E6368 		.ascii	"anch revision 237715] -mcpu=cortex-m3 -mthumb -g -O"
 9703      20726576 
 9703      6973696F 
 9703      6E203233 
 9703      37373135 
 9704 00af 67202D66 		.ascii	"g -ffunction-sections -ffat-lto-objects -flto\000"
 9704      66756E63 
 9704      74696F6E 
 9704      2D736563 
 9704      74696F6E 
 9705              	.LASF37:
 9706 00dd 65786563 		.ascii	"execute\000"
 9706      75746500 
 9707              	.LASF16:
 9708 00e5 75696E74 		.ascii	"uint64_t\000"
 9708      36345F74 
 9708      00
 9709              	.LASF15:
 9710 00ee 696E7433 		.ascii	"int32_t\000"
 9710      325F7400 
 9711              	.LASF17:
 9712 00f6 666C6F61 		.ascii	"float\000"
 9712      7400
 9713              	.LASF11:
 9714 00fc 6C6F6E67 		.ascii	"long long unsigned int\000"
 9714      206C6F6E 
 9714      6720756E 
 9714      7369676E 
 9714      65642069 
 9715              	.LASF1:
 9716 0113 756E7369 		.ascii	"unsigned char\000"
 9716      676E6564 
 9716      20636861 
 9716      7200
 9717              	.LASF23:
 9718 0121 7667615F 		.ascii	"vga_update_flag\000"
 9718      75706461 
 9718      74655F66 
 9718      6C616700 
 9719              	.LASF8:
 9720 0131 6C6F6E67 		.ascii	"long unsigned int\000"
 9720      20756E73 
 9720      69676E65 
 9720      6420696E 
 9720      7400
 9721              	.LASF29:
 9722 0143 64696666 		.ascii	"diff\000"
 9722      00
 9723              	.LASF4:
 9724 0148 5F5F7569 		.ascii	"__uint16_t\000"
ARM GAS  C:\Users\info\AppData\Local\Temp\ccl9i4Az.s 			page 221


 9724      6E743136 
 9724      5F7400
 9725              	.LASF18:
 9726 0153 646F7562 		.ascii	"double\000"
 9726      6C6500
 9727              	.LASF38:
 9728 015a 49544D5F 		.ascii	"ITM_RxBuffer\000"
 9728      52784275 
 9728      66666572 
 9728      00
 9729              	.LASF33:
 9730 0167 77616974 		.ascii	"wait_key\000"
 9730      5F6B6579 
 9730      00
 9731              	.LASF12:
 9732 0170 756E7369 		.ascii	"unsigned int\000"
 9732      676E6564 
 9732      20696E74 
 9732      00
 9733              	.LASF36:
 9734 017d 433A5C55 		.ascii	"C:\\Users\\info\\Desktop\\Spring 2019 Classes\\6.11"
 9734      73657273 
 9734      5C696E66 
 9734      6F5C4465 
 9734      736B746F 
 9735 01ab 355C362E 		.ascii	"5\\6.115-final\\PSoCCreator\\Final Project\\FinalEm"
 9735      3131352D 
 9735      66696E61 
 9735      6C5C5053 
 9735      6F434372 
 9736 01da 756C6174 		.ascii	"ulator.cydsn\000"
 9736      6F722E63 
 9736      7964736E 
 9736      00
 9737              	.LASF28:
 9738 01e7 66726565 		.ascii	"freeze_pc\000"
 9738      7A655F70 
 9738      6300
 9739              	.LASF13:
 9740 01f1 75696E74 		.ascii	"uint8_t\000"
 9740      385F7400 
 9741              	.LASF7:
 9742 01f9 6C6F6E67 		.ascii	"long int\000"
 9742      20696E74 
 9742      00
 9743              	.LASF35:
 9744 0202 70726F63 		.ascii	"procr.c\000"
 9744      722E6300 
 9745              	.LASF30:
 9746 020a 636F6C6C 		.ascii	"collision\000"
 9746      6973696F 
 9746      6E00
 9747              	.LASF21:
 9748 0214 73697A65 		.ascii	"sizetype\000"
 9748      74797065 
 9748      00
 9749              	.LASF9:
ARM GAS  C:\Users\info\AppData\Local\Temp\ccl9i4Az.s 			page 222


 9750 021d 6C6F6E67 		.ascii	"long long int\000"
 9750      206C6F6E 
 9750      6720696E 
 9750      7400
 9751              	.LASF19:
 9752 022b 63686172 		.ascii	"char\000"
 9752      00
 9753              	.LASF2:
 9754 0230 73686F72 		.ascii	"short int\000"
 9754      7420696E 
 9754      7400
 9755              	.LASF25:
 9756 023a 696E7374 		.ascii	"instr\000"
 9756      7200
 9757              	.LASF14:
 9758 0240 75696E74 		.ascii	"uint16_t\000"
 9758      31365F74 
 9758      00
 9759              	.LASF10:
 9760 0249 5F5F7569 		.ascii	"__uint64_t\000"
 9760      6E743634 
 9760      5F7400
 9761              	.LASF20:
 9762 0254 6C6F6E67 		.ascii	"long double\000"
 9762      20646F75 
 9762      626C6500 
 9763              	.LASF5:
 9764 0260 73686F72 		.ascii	"short unsigned int\000"
 9764      7420756E 
 9764      7369676E 
 9764      65642069 
 9764      6E7400
 9765              	.LASF22:
 9766 0273 7672616D 		.ascii	"vram\000"
 9766      00
 9767              	.LASF31:
 9768 0278 72616E64 		.ascii	"random_Read\000"
 9768      6F6D5F52 
 9768      65616400 
 9769              		.comm	__gnu_lto_v1,1,1
 9770              		.ident	"GCC: (GNU Tools for ARM Embedded Processors) 5.4.1 20160609 (release) [ARM/embedded-5-bran
