ARM GAS  C:\Users\info\AppData\Local\Temp\ccje3F3x.s 			page 1


   1              		.syntax unified
   2              		.cpu cortex-m3
   3              		.fpu softvfp
   4              		.eabi_attribute 20, 1
   5              		.eabi_attribute 21, 1
   6              		.eabi_attribute 23, 3
   7              		.eabi_attribute 24, 1
   8              		.eabi_attribute 25, 1
   9              		.eabi_attribute 26, 1
  10              		.eabi_attribute 30, 1
  11              		.eabi_attribute 34, 1
  12              		.eabi_attribute 18, 4
  13              		.thumb
  14              		.syntax unified
  15              		.file	"procr.c"
  16              		.text
  17              	.Ltext0:
  18              		.cfi_sections	.debug_frame
  19              		.section	.text.execute,"ax",%progbits
  20              		.align	2
  21              		.global	execute
  22              		.thumb
  23              		.thumb_func
  24              		.type	execute, %function
  25              	execute:
  26              	.LFB63:
  27              		.file 1 "procr.c"
   1:procr.c       **** #include "project.h"
   2:procr.c       **** #include "opcodes.h"
   3:procr.c       **** #include "chip8.h"
   4:procr.c       **** 
   5:procr.c       **** void execute(uint8_t ram[], uint64_t vram[32], uint8_t* snd, 
   6:procr.c       ****                         uint8_t* tmr, volatile uint8_t* vga_update_flag){
  28              		.loc 1 6 0
  29              		.cfi_startproc
  30              		@ args = 4, pretend = 0, frame = 96
  31              		@ frame_needed = 0, uses_anonymous_args = 0
  32              	.LVL0:
  33 0000 2DE9F04F 		push	{r4, r5, r6, r7, r8, r9, r10, fp, lr}
  34              		.cfi_def_cfa_offset 36
  35              		.cfi_offset 4, -36
  36              		.cfi_offset 5, -32
  37              		.cfi_offset 6, -28
  38              		.cfi_offset 7, -24
  39              		.cfi_offset 8, -20
  40              		.cfi_offset 9, -16
  41              		.cfi_offset 10, -12
  42              		.cfi_offset 11, -8
  43              		.cfi_offset 14, -4
  44 0004 99B0     		sub	sp, sp, #100
  45              		.cfi_def_cfa_offset 136
  46 0006 0746     		mov	r7, r0
  47 0008 8A46     		mov	r10, r1
  48 000a 0B92     		str	r2, [sp, #44]
  49 000c 0A93     		str	r3, [sp, #40]
  50              	.LVL1:
   7:procr.c       ****     /* CHIP8 Register File*/
ARM GAS  C:\Users\info\AppData\Local\Temp\ccje3F3x.s 			page 2


   8:procr.c       ****     uint8_t v[16];
   9:procr.c       ****     uint16_t i = 0;
  10:procr.c       ****     uint16_t pc = 0x0200;
  11:procr.c       ****     uint8_t sp = 0x00;
  12:procr.c       ****     uint16_t stack[16] = {0};
  51              		.loc 1 12 0
  52 000e 2022     		movs	r2, #32
  53              	.LVL2:
  54 0010 0021     		movs	r1, #0
  55              	.LVL3:
  56 0012 0CA8     		add	r0, sp, #48
  57              	.LVL4:
  58 0014 FFF7FEFF 		bl	memset
  59              	.LVL5:
  60              	.LBB2:
  13:procr.c       ****     
  14:procr.c       ****     /* Clear screen */
  15:procr.c       ****     for (uint8_t j = 0; j < 32; j++){
  61              		.loc 1 15 0
  62 0018 0023     		movs	r3, #0
  63 001a 07E0     		b	.L2
  64              	.LVL6:
  65              	.L3:
  16:procr.c       ****         vram[j] = 0;
  66              		.loc 1 16 0 discriminator 3
  67 001c 0AEBC302 		add	r2, r10, r3, lsl #3
  68 0020 0020     		movs	r0, #0
  69 0022 0021     		movs	r1, #0
  70 0024 C2E90001 		strd	r0, [r2]
  15:procr.c       ****         vram[j] = 0;
  71              		.loc 1 15 0 discriminator 3
  72 0028 0133     		adds	r3, r3, #1
  73              	.LVL7:
  74 002a DBB2     		uxtb	r3, r3
  75              	.LVL8:
  76              	.L2:
  15:procr.c       ****         vram[j] = 0;
  77              		.loc 1 15 0 is_stmt 0 discriminator 1
  78 002c 1F2B     		cmp	r3, #31
  79 002e F5D9     		bls	.L3
  80 0030 0023     		movs	r3, #0
  81              	.LVL9:
  82 0032 0893     		str	r3, [sp, #32]
  83 0034 4FF4007B 		mov	fp, #512
  84 0038 0693     		str	r3, [sp, #24]
  85 003a 5546     		mov	r5, r10
  86 003c BA46     		mov	r10, r7
  87              	.LVL10:
  88              	.L4:
  89              	.LBE2:
  90              	.LBB3:
  17:procr.c       ****     }
  18:procr.c       ****     
  19:procr.c       ****     /* Emulate away.. */
  20:procr.c       ****     while(1){
  21:procr.c       ****         /* Get the instruction at the current address */
  22:procr.c       ****         uint16_t instr = (ram[pc] << 8) | ram[pc+1];
ARM GAS  C:\Users\info\AppData\Local\Temp\ccje3F3x.s 			page 3


  91              		.loc 1 22 0 is_stmt 1
  92 003e 1AF80B60 		ldrb	r6, [r10, fp]	@ zero_extendqisi2
  93 0042 0AEB0B03 		add	r3, r10, fp
  94 0046 5B78     		ldrb	r3, [r3, #1]	@ zero_extendqisi2
  95 0048 43EA0626 		orr	r6, r3, r6, lsl #8
  96 004c 36B2     		sxth	r6, r6
  97 004e B3B2     		uxth	r3, r6
  98              	.LVL11:
  23:procr.c       ****         
  24:procr.c       ****         /* Decode the opcodes */
  25:procr.c       ****         uint8_t op3 = (instr & 0xf000) >> 12;
  99              		.loc 1 25 0
 100 0050 1A0B     		lsrs	r2, r3, #12
 101              	.LVL12:
  26:procr.c       ****         uint8_t op2 = (instr & 0x0f00) >> 8;
 102              		.loc 1 26 0
 103 0052 C3F30324 		ubfx	r4, r3, #8, #4
 104              	.LVL13:
  27:procr.c       ****         uint8_t op10 = instr & 0x00ff;
 105              		.loc 1 27 0
 106 0056 F6B2     		uxtb	r6, r6
 107              	.LVL14:
  28:procr.c       ****         uint8_t op0 = instr & 0x000f;
 108              		.loc 1 28 0
 109 0058 06F00F0C 		and	ip, r6, #15
 110              	.LVL15:
  29:procr.c       ****         
  30:procr.c       ****         /* Decode the immediates */
  31:procr.c       ****         uint16_t nnn = instr & 0x0fff;
 111              		.loc 1 31 0
 112 005c C3F30B01 		ubfx	r1, r3, #0, #12
 113              	.LVL16:
  32:procr.c       ****         uint8_t x = (instr & 0x0f00) >> 8;
  33:procr.c       ****         uint8_t y = (instr & 0x00f0) >> 4;
 114              		.loc 1 33 0
 115 0060 C3F30313 		ubfx	r3, r3, #4, #4
 116              	.LVL17:
  34:procr.c       ****         uint8_t kk = instr & 0x00ff;
  35:procr.c       ****         uint8_t n = instr & 0x000f;
  36:procr.c       ****         
  37:procr.c       ****         /* This flag is set if an invalid OP is encountered */
  38:procr.c       ****         uint8_t invalid_op = 0;
  39:procr.c       ****         
  40:procr.c       ****         /* This flag is set if a new PC was set and must not be incremented */
  41:procr.c       ****         uint8_t freeze_pc = 0;
  42:procr.c       ****         
  43:procr.c       ****         /* Branch on opcodes and execute */
  44:procr.c       ****         switch(op3){
 117              		.loc 1 44 0
 118 0064 0F2A     		cmp	r2, #15
 119 0066 11D8     		bhi	.L5
 120 0068 DFE812F0 		tbh	[pc, r2, lsl #1]
 121              	.L7:
 122 006c 1300     		.2byte	(.L6-.L7)/2
 123 006e A102     		.2byte	(.L59-.L7)/2
 124 0070 3D00     		.2byte	(.L9-.L7)/2
 125 0072 4E00     		.2byte	(.L10-.L7)/2
ARM GAS  C:\Users\info\AppData\Local\Temp\ccje3F3x.s 			page 4


 126 0074 5C00     		.2byte	(.L11-.L7)/2
 127 0076 6A00     		.2byte	(.L12-.L7)/2
 128 0078 9600     		.2byte	(.L13-.L7)/2
 129 007a 9D00     		.2byte	(.L14-.L7)/2
 130 007c A700     		.2byte	(.L15-.L7)/2
 131 007e 8000     		.2byte	(.L16-.L7)/2
 132 0080 4801     		.2byte	(.L17-.L7)/2
 133 0082 3700     		.2byte	(.L18-.L7)/2
 134 0084 4C01     		.2byte	(.L19-.L7)/2
 135 0086 BE01     		.2byte	(.L60-.L7)/2
 136 0088 E201     		.2byte	(.L21-.L7)/2
 137 008a 0702     		.2byte	(.L22-.L7)/2
 138              		.p2align 1
 139              	.L5:
  41:procr.c       ****         
 140              		.loc 1 41 0
 141 008c 0023     		movs	r3, #0
 142              	.LVL18:
  45:procr.c       ****         case OP3_SYSTEM:
  46:procr.c       ****             /* System operations */
  47:procr.c       ****             if (op2 != OP2_SYSTEM){
  48:procr.c       ****                 invalid_op = 1;
  49:procr.c       ****             } else {
  50:procr.c       ****                 switch(op10){
  51:procr.c       ****                 case OP10_SYSTEM_CLEAR:
  52:procr.c       ****                     /* Clear screen */
  53:procr.c       ****                     for (int j = 0; j < 32; j++){
  54:procr.c       ****                         vram[j] = 0;
  55:procr.c       ****                     }
  56:procr.c       ****                     break;
  57:procr.c       ****                 case OP10_SYSTEM_RETURN:
  58:procr.c       ****                     /* Return from instruction */
  59:procr.c       ****                     sp = (sp == 0x0) ? 0x0 : sp - 1;
  60:procr.c       ****                     pc = stack[sp];
  61:procr.c       ****                     freeze_pc = 1;
  62:procr.c       ****                     break;
  63:procr.c       ****                 default:
  64:procr.c       ****                     invalid_op = 1;
  65:procr.c       ****                     break;
  66:procr.c       ****                 }
  67:procr.c       ****             }
  68:procr.c       ****             break;
  69:procr.c       ****         case OP3_JUMP_ABSOLUTE:
  70:procr.c       ****             /* Jump to absolute address nnn */
  71:procr.c       ****             pc = nnn;
  72:procr.c       ****             freeze_pc = 1;
  73:procr.c       ****             break;
  74:procr.c       ****         case OP3_JUMP_OFFSET:
  75:procr.c       ****             /* Jump to absolute address nnn + offset V0 */
  76:procr.c       ****             pc = nnn + v[0];
  77:procr.c       ****             freeze_pc = 1;
  78:procr.c       ****             break;
  79:procr.c       ****         case OP3_CALL_SUBROUTINE:
  80:procr.c       ****             /* Call subroutine at nnn */
  81:procr.c       ****             stack[sp] = pc;
  82:procr.c       ****             sp = (sp == 0xf) ? 0xf : sp + 1;
  83:procr.c       ****             pc = nnn;
ARM GAS  C:\Users\info\AppData\Local\Temp\ccje3F3x.s 			page 5


  84:procr.c       ****             freeze_pc = 1;
  85:procr.c       ****             break;
  86:procr.c       ****         case OP3_SKIP_NEXT_EQ_IM:
  87:procr.c       ****             /* Skip next instruction if Vx == kk */
  88:procr.c       ****             if (v[x] == kk) {
  89:procr.c       ****                 pc += 2;
  90:procr.c       ****             }
  91:procr.c       ****             break;
  92:procr.c       ****         case OP3_SKIP_NEXT_NEQ_IM:
  93:procr.c       ****             /* Skip next instruction if Vx != kk */
  94:procr.c       ****             if (v[x] != kk) {
  95:procr.c       ****                 pc += 2;
  96:procr.c       ****             }
  97:procr.c       ****             break;
  98:procr.c       ****         case OP3_SKIP_NEXT_EQ:
  99:procr.c       ****             /* Skip next instruction if Vx == Vy */
 100:procr.c       ****             if (op0 == OP0_SKIP_NEXT){
 101:procr.c       ****                 if (v[x] == v[y]) {
 102:procr.c       ****                     pc += 2;
 103:procr.c       ****                 }
 104:procr.c       ****             } else {
 105:procr.c       ****                 invalid_op = 1;
 106:procr.c       ****             }
 107:procr.c       ****             break;
 108:procr.c       ****         case OP3_SKIP_NEXT_NEQ:
 109:procr.c       ****             /* Skip next instruction if Vx != Vy */
 110:procr.c       ****             if (op0 == OP0_SKIP_NEXT){
 111:procr.c       ****                 if (v[x] != v[y]) {
 112:procr.c       ****                     pc += 2;
 113:procr.c       ****                 }
 114:procr.c       ****             } else {
 115:procr.c       ****                 invalid_op = 1;
 116:procr.c       ****             }
 117:procr.c       ****             break;
 118:procr.c       ****         case OP3_LOAD_V:
 119:procr.c       ****             /* Vx = kk */
 120:procr.c       ****             v[x] = kk;
 121:procr.c       ****             break;
 122:procr.c       ****         case OP3_ADD_IM:
 123:procr.c       ****             /* Vx += kk */
 124:procr.c       ****             v[x] += kk;
 125:procr.c       ****             break;
 126:procr.c       ****         case OP3_ARITH:
 127:procr.c       ****             /* Arithmetic operations */
 128:procr.c       ****             switch(op0) {
 129:procr.c       ****             case OP0_ARITH_LOAD:
 130:procr.c       ****                 /* Vx = Vy */
 131:procr.c       ****                 v[x] = v[y];
 132:procr.c       ****                 break;
 133:procr.c       ****             case OP0_ARITH_OR:
 134:procr.c       ****                 /* Vx = Vx | Vy */
 135:procr.c       ****                 v[x] |= v[y];
 136:procr.c       ****                 break;
 137:procr.c       ****             case OP0_ARITH_AND:
 138:procr.c       ****                 /* Vx = Vx & Vy */
 139:procr.c       ****                 v[x] &= v[y];
 140:procr.c       ****                 break;
ARM GAS  C:\Users\info\AppData\Local\Temp\ccje3F3x.s 			page 6


 141:procr.c       ****             case OP0_ARITH_XOR:
 142:procr.c       ****                 /* Vx = Vx ^ Vy */
 143:procr.c       ****                 v[x] ^= v[y];
 144:procr.c       ****                 break;
 145:procr.c       ****             case OP0_ARITH_ADD:
 146:procr.c       ****                 /* Vx = Vx + Vy */
 147:procr.c       ****                 v[x] += v[y];
 148:procr.c       ****                 break;
 149:procr.c       ****             case OP0_ARITH_SUB:{
 150:procr.c       ****                 /* Vx = Vx - Vy, Vf = not borrow */
 151:procr.c       ****                 uint16_t vx = v[x];
 152:procr.c       ****                 uint16_t vy = v[y];
 153:procr.c       ****                 uint16_t diff = vx - vy;                                
 154:procr.c       ****                 v[x] = diff;
 155:procr.c       ****                 v[0xf] = (diff & 0x100) ? 0 : 1;
 156:procr.c       ****                 break;
 157:procr.c       ****             }
 158:procr.c       ****             case OP0_ARITH_SHR:
 159:procr.c       ****                 /* Vx = Vx >> Vy */
 160:procr.c       ****                 v[0xf] = (v[x] & 0x01) ? 1 : 0;
 161:procr.c       ****                 v[x] >>= 1;
 162:procr.c       ****                 break;
 163:procr.c       ****             case OP0_ARITH_SUBN:{
 164:procr.c       ****                 /* Vx = Vy - Vx, Vf = not borrow */
 165:procr.c       ****                 uint16_t vx = v[x];
 166:procr.c       ****                 uint16_t vy = v[y];
 167:procr.c       ****                 uint16_t diff = vy - vx;                                
 168:procr.c       ****                 v[x] = diff;
 169:procr.c       ****                 v[0xf] = (diff & 0x100) ? 0 : 1;
 170:procr.c       ****                 break;
 171:procr.c       ****             }
 172:procr.c       ****             case OP0_ARITH_SHL:
 173:procr.c       ****                 /* Vx = Vx << 1, Vf = carry */
 174:procr.c       ****                 v[0xf] = (v[x] & 0x80) ? 1 : 0;
 175:procr.c       ****                 v[x] <<= 1;
 176:procr.c       ****                 break;
 177:procr.c       ****             default:
 178:procr.c       ****                 invalid_op = 1;
 179:procr.c       ****                 break;
 180:procr.c       ****             }
 181:procr.c       ****             break;
 182:procr.c       ****         case OP3_LOAD_I:
 183:procr.c       ****             /* I = nnn */
 184:procr.c       ****             i = nnn;
 185:procr.c       ****             break;
 186:procr.c       ****         case OP3_RANDOM:
 187:procr.c       ****             /* Vx = (random byte) & kk */            
 188:procr.c       ****             v[x] = random_Read() & kk;
 189:procr.c       ****             break;
 190:procr.c       ****         case OP3_DRAW:{
 191:procr.c       ****             uint64_t collision = 0;
 192:procr.c       ****             /* Draw sprite from I at (Vx, Vy), vf = collision, see reference */
 193:procr.c       ****             for (int j = 0; j < n; j++){
 194:procr.c       ****                 uint64_t row = 0;
 195:procr.c       ****                 if (v[x] <= 56){
 196:procr.c       ****                     row = ((uint64_t)ram[i + j]) << (56 - v[x]);
 197:procr.c       ****                 } else {
ARM GAS  C:\Users\info\AppData\Local\Temp\ccje3F3x.s 			page 7


 198:procr.c       ****                     row = ((uint64_t)ram[i + j]) >> (v[x] - 56)
 199:procr.c       ****                         | ((uint64_t)ram[i + j]) << (120 - v[x]);
 200:procr.c       ****                 }
 201:procr.c       ****                 collision |= vram[(v[y] + j) % 32] & row;
 202:procr.c       ****                 vram[(v[y] + j) % 32] ^= row;
 203:procr.c       ****             }
 204:procr.c       ****             v[0xf] = collision ? 1 : 0;
 205:procr.c       ****             *vga_update_flag = 1;
 206:procr.c       ****             break;
 207:procr.c       ****         }
 208:procr.c       ****         case OP3_KEYBOARD:
 209:procr.c       ****             /* Keyboard operations */
 210:procr.c       ****             switch(op10){
 211:procr.c       ****             case OP10_KEYBOARD_EQ:
 212:procr.c       ****                 /* Skip next instruction if Vx pressed */
 213:procr.c       ****                 if (key_pressed(v[x])){
 214:procr.c       ****                     pc += 2;
 215:procr.c       ****                 }
 216:procr.c       ****                 break;
 217:procr.c       ****             case OP10_KEYBOARD_NEQ: 
 218:procr.c       ****                 /* Skip next instruction if Vx not pressed */
 219:procr.c       ****                 if (!key_pressed(v[x])){
 220:procr.c       ****                     pc += 2;
 221:procr.c       ****                 }
 222:procr.c       ****                 break;
 223:procr.c       ****             default:
 224:procr.c       ****                 invalid_op = 1;
 225:procr.c       ****                 break;
 226:procr.c       ****             }
 227:procr.c       ****             break;
 228:procr.c       ****         case OP3_SPECIAL:
 229:procr.c       ****             /* Special instructions, see reference for each */
 230:procr.c       ****             switch(op10){
 231:procr.c       ****             case OP10_SPECIAL_LOAD_DELAY:
 232:procr.c       ****                 /* Vx = delay timer */
 233:procr.c       ****                 v[x] = *tmr;
 234:procr.c       ****                 break;
 235:procr.c       ****             case OP10_SPECIAL_LOAD_KEYBOARD:
 236:procr.c       ****                 /* Vx = keypress, blocks till something pressed */
 237:procr.c       ****                 v[x] = wait_key();
 238:procr.c       ****                 break;
 239:procr.c       ****             case OP10_SPECIAL_SET_DELAY:
 240:procr.c       ****                 /* delay timer = Vx */
 241:procr.c       ****                 *tmr = v[x];
 242:procr.c       ****                 break;
 243:procr.c       ****             case OP10_SPECIAL_SET_SOUND:
 244:procr.c       ****                 /* sound timer = Vx */
 245:procr.c       ****                 *snd = v[x];
 246:procr.c       ****                 break;
 247:procr.c       ****             case OP10_SPECIAL_ADD_TO_I:
 248:procr.c       ****                 /* I += Vx */
 249:procr.c       ****                 i += v[x];
 250:procr.c       ****                 break;
 251:procr.c       ****             case OP10_SPECIAL_LOAD_FONT:
 252:procr.c       ****                 /* I = location of sprite for hex digit Vx */
 253:procr.c       ****                 i = (v[x] & 0xf) * 5;
 254:procr.c       ****                 break;
ARM GAS  C:\Users\info\AppData\Local\Temp\ccje3F3x.s 			page 8


 255:procr.c       ****             case OP10_SPECIAL_LOAD_BCD:
 256:procr.c       ****                 /* BCD hundreds to units of Vx in I to I+2 */
 257:procr.c       ****                 ram[i] = (uint8_t)(v[x] / 100) % 10;
 258:procr.c       ****                 ram[i+1] = (uint8_t)(v[x] / 10) % 10;
 259:procr.c       ****                 ram[i+2] = (uint8_t)(v[x]) % 10;
 260:procr.c       ****                 break;
 261:procr.c       ****             case OP10_SPECIAL_LOAD_AT_I:
 262:procr.c       ****                 /* Store V0 to Vx in I to I+x */
 263:procr.c       ****                 for (uint8_t j = 0; j <= x; j++){
 264:procr.c       ****                     ram[i + j] = v[j];
 265:procr.c       ****                 }
 266:procr.c       ****                 break;
 267:procr.c       ****             case OP10_SPECIAL_SET_AT_I:
 268:procr.c       ****                 /* Restore V0 to Vx from I to I+x */
 269:procr.c       ****                 for (uint8_t j = 0; j <= x; j++){
 270:procr.c       ****                     v[j] = ram[i + j];
 271:procr.c       ****                 }
 272:procr.c       ****                 break;
 273:procr.c       ****             default:
 274:procr.c       ****                 invalid_op = 1;
 275:procr.c       ****                 break;
 276:procr.c       ****             }
 277:procr.c       ****             break;
 278:procr.c       ****         default:
 279:procr.c       ****             invalid_op = 1;
 143              		.loc 1 279 0
 144 008e 0122     		movs	r2, #1
 145              	.LVL19:
 146 0090 BBE2     		b	.L8
 147              	.LVL20:
 148              	.L6:
  47:procr.c       ****                 invalid_op = 1;
 149              		.loc 1 47 0
 150 0092 002C     		cmp	r4, #0
 151 0094 40F08F82 		bne	.L61
  50:procr.c       ****                 case OP10_SYSTEM_CLEAR:
 152              		.loc 1 50 0
 153 0098 E02E     		cmp	r6, #224
 154 009a 0AD0     		beq	.L63
 155 009c EE2E     		cmp	r6, #238
 156 009e 0ED0     		beq	.L24
 157 00a0 8CE2     		b	.L78
 158              	.LVL21:
 159              	.L25:
 160              	.LBB4:
  54:procr.c       ****                     }
 161              		.loc 1 54 0 discriminator 3
 162 00a2 05EBC302 		add	r2, r5, r3, lsl #3
 163 00a6 0020     		movs	r0, #0
 164 00a8 0021     		movs	r1, #0
 165 00aa C2E90001 		strd	r0, [r2]
  53:procr.c       ****                         vram[j] = 0;
 166              		.loc 1 53 0 discriminator 3
 167 00ae 0133     		adds	r3, r3, #1
 168              	.LVL22:
 169 00b0 00E0     		b	.L23
 170              	.LVL23:
ARM GAS  C:\Users\info\AppData\Local\Temp\ccje3F3x.s 			page 9


 171              	.L63:
 172              	.LBE4:
  50:procr.c       ****                 case OP10_SYSTEM_CLEAR:
 173              		.loc 1 50 0
 174 00b2 0023     		movs	r3, #0
 175              	.LVL24:
 176              	.L23:
 177              	.LBB5:
  53:procr.c       ****                         vram[j] = 0;
 178              		.loc 1 53 0 discriminator 1
 179 00b4 1F2B     		cmp	r3, #31
 180 00b6 F4DD     		ble	.L25
 181              	.LBE5:
  41:procr.c       ****         
 182              		.loc 1 41 0
 183 00b8 0023     		movs	r3, #0
 184              	.LVL25:
  38:procr.c       ****         
 185              		.loc 1 38 0
 186 00ba 1A46     		mov	r2, r3
 187 00bc A5E2     		b	.L8
 188              	.LVL26:
 189              	.L24:
  59:procr.c       ****                     pc = stack[sp];
 190              		.loc 1 59 0
 191 00be 089B     		ldr	r3, [sp, #32]
 192              	.LVL27:
 193 00c0 13B1     		cbz	r3, .L26
  59:procr.c       ****                     pc = stack[sp];
 194              		.loc 1 59 0 is_stmt 0 discriminator 1
 195 00c2 013B     		subs	r3, r3, #1
 196 00c4 DBB2     		uxtb	r3, r3
 197 00c6 0893     		str	r3, [sp, #32]
 198              	.LVL28:
 199              	.L26:
  60:procr.c       ****                     freeze_pc = 1;
 200              		.loc 1 60 0 is_stmt 1 discriminator 4
 201 00c8 18AA     		add	r2, sp, #96
 202              	.LVL29:
 203 00ca 089B     		ldr	r3, [sp, #32]
 204 00cc 02EB4303 		add	r3, r2, r3, lsl #1
 205 00d0 33F830BC 		ldrh	fp, [r3, #-48]
 206              	.LVL30:
  61:procr.c       ****                     break;
 207              		.loc 1 61 0 discriminator 4
 208 00d4 0123     		movs	r3, #1
  38:procr.c       ****         
 209              		.loc 1 38 0 discriminator 4
 210 00d6 0022     		movs	r2, #0
  62:procr.c       ****                 default:
 211              		.loc 1 62 0 discriminator 4
 212 00d8 97E2     		b	.L8
 213              	.LVL31:
 214              	.L18:
  76:procr.c       ****             freeze_pc = 1;
 215              		.loc 1 76 0
 216 00da 9DF850B0 		ldrb	fp, [sp, #80]	@ zero_extendqisi2
ARM GAS  C:\Users\info\AppData\Local\Temp\ccje3F3x.s 			page 10


 217              	.LVL32:
 218 00de 8B44     		add	fp, fp, r1
 219              	.LVL33:
  77:procr.c       ****             break;
 220              		.loc 1 77 0
 221 00e0 0123     		movs	r3, #1
 222              	.LVL34:
  38:procr.c       ****         
 223              		.loc 1 38 0
 224 00e2 0022     		movs	r2, #0
 225              	.LVL35:
  78:procr.c       ****         case OP3_CALL_SUBROUTINE:
 226              		.loc 1 78 0
 227 00e4 91E2     		b	.L8
 228              	.LVL36:
 229              	.L9:
  81:procr.c       ****             sp = (sp == 0xf) ? 0xf : sp + 1;
 230              		.loc 1 81 0
 231 00e6 18A8     		add	r0, sp, #96
 232 00e8 089A     		ldr	r2, [sp, #32]
 233              	.LVL37:
 234 00ea 00EB4203 		add	r3, r0, r2, lsl #1
 235              	.LVL38:
 236 00ee 23F830BC 		strh	fp, [r3, #-48]	@ movhi
  82:procr.c       ****             pc = nnn;
 237              		.loc 1 82 0
 238 00f2 1346     		mov	r3, r2
 239 00f4 0F2A     		cmp	r2, #15
 240 00f6 00F06482 		beq	.L64
  82:procr.c       ****             pc = nnn;
 241              		.loc 1 82 0 is_stmt 0 discriminator 1
 242 00fa 0133     		adds	r3, r3, #1
 243 00fc DBB2     		uxtb	r3, r3
 244 00fe 0893     		str	r3, [sp, #32]
 245              	.LVL39:
  83:procr.c       ****             freeze_pc = 1;
 246              		.loc 1 83 0 is_stmt 1 discriminator 1
 247 0100 8B46     		mov	fp, r1
 248              	.LVL40:
  84:procr.c       ****             break;
 249              		.loc 1 84 0 discriminator 1
 250 0102 0123     		movs	r3, #1
  38:procr.c       ****         
 251              		.loc 1 38 0 discriminator 1
 252 0104 0022     		movs	r2, #0
 253              	.LVL41:
 254 0106 80E2     		b	.L8
 255              	.LVL42:
 256              	.L10:
  88:procr.c       ****                 pc += 2;
 257              		.loc 1 88 0
 258 0108 18AB     		add	r3, sp, #96
 259              	.LVL43:
 260 010a 1C44     		add	r4, r4, r3
 261              	.LVL44:
 262 010c 14F8103C 		ldrb	r3, [r4, #-16]	@ zero_extendqisi2
 263 0110 9E42     		cmp	r6, r3
ARM GAS  C:\Users\info\AppData\Local\Temp\ccje3F3x.s 			page 11


 264 0112 40F05A82 		bne	.L65
  89:procr.c       ****             }
 265              		.loc 1 89 0
 266 0116 0BF1020B 		add	fp, fp, #2
 267              	.LVL45:
 268 011a 1FFA8BFB 		uxth	fp, fp
 269              	.LVL46:
  41:procr.c       ****         
 270              		.loc 1 41 0
 271 011e 0023     		movs	r3, #0
  38:procr.c       ****         
 272              		.loc 1 38 0
 273 0120 1A46     		mov	r2, r3
 274              	.LVL47:
 275 0122 72E2     		b	.L8
 276              	.LVL48:
 277              	.L11:
  94:procr.c       ****                 pc += 2;
 278              		.loc 1 94 0
 279 0124 18AB     		add	r3, sp, #96
 280              	.LVL49:
 281 0126 1C44     		add	r4, r4, r3
 282              	.LVL50:
 283 0128 14F8103C 		ldrb	r3, [r4, #-16]	@ zero_extendqisi2
 284 012c 9E42     		cmp	r6, r3
 285 012e 00F04F82 		beq	.L66
  95:procr.c       ****             }
 286              		.loc 1 95 0
 287 0132 0BF1020B 		add	fp, fp, #2
 288              	.LVL51:
 289 0136 1FFA8BFB 		uxth	fp, fp
 290              	.LVL52:
  41:procr.c       ****         
 291              		.loc 1 41 0
 292 013a 0023     		movs	r3, #0
  38:procr.c       ****         
 293              		.loc 1 38 0
 294 013c 1A46     		mov	r2, r3
 295              	.LVL53:
 296 013e 64E2     		b	.L8
 297              	.LVL54:
 298              	.L12:
 100:procr.c       ****                 if (v[x] == v[y]) {
 299              		.loc 1 100 0
 300 0140 BCF1000F 		cmp	ip, #0
 301 0144 40F04782 		bne	.L67
 101:procr.c       ****                     pc += 2;
 302              		.loc 1 101 0
 303 0148 18AA     		add	r2, sp, #96
 304              	.LVL55:
 305 014a 1444     		add	r4, r4, r2
 306              	.LVL56:
 307 014c 14F8102C 		ldrb	r2, [r4, #-16]	@ zero_extendqisi2
 308 0150 18A9     		add	r1, sp, #96
 309              	.LVL57:
 310 0152 0B44     		add	r3, r3, r1
 311              	.LVL58:
ARM GAS  C:\Users\info\AppData\Local\Temp\ccje3F3x.s 			page 12


 312 0154 13F8103C 		ldrb	r3, [r3, #-16]	@ zero_extendqisi2
 313 0158 9A42     		cmp	r2, r3
 314 015a 40F03F82 		bne	.L68
 102:procr.c       ****                 }
 315              		.loc 1 102 0
 316 015e 0BF1020B 		add	fp, fp, #2
 317              	.LVL59:
 318 0162 1FFA8BFB 		uxth	fp, fp
 319              	.LVL60:
  41:procr.c       ****         
 320              		.loc 1 41 0
 321 0166 0023     		movs	r3, #0
  38:procr.c       ****         
 322              		.loc 1 38 0
 323 0168 1A46     		mov	r2, r3
 324 016a 4EE2     		b	.L8
 325              	.LVL61:
 326              	.L16:
 110:procr.c       ****                 if (v[x] != v[y]) {
 327              		.loc 1 110 0
 328 016c BCF1000F 		cmp	ip, #0
 329 0170 40F03782 		bne	.L69
 111:procr.c       ****                     pc += 2;
 330              		.loc 1 111 0
 331 0174 18AA     		add	r2, sp, #96
 332              	.LVL62:
 333 0176 1444     		add	r4, r4, r2
 334              	.LVL63:
 335 0178 14F8102C 		ldrb	r2, [r4, #-16]	@ zero_extendqisi2
 336 017c 18A9     		add	r1, sp, #96
 337              	.LVL64:
 338 017e 0B44     		add	r3, r3, r1
 339              	.LVL65:
 340 0180 13F8103C 		ldrb	r3, [r3, #-16]	@ zero_extendqisi2
 341 0184 9A42     		cmp	r2, r3
 342 0186 00F02F82 		beq	.L70
 112:procr.c       ****                 }
 343              		.loc 1 112 0
 344 018a 0BF1020B 		add	fp, fp, #2
 345              	.LVL66:
 346 018e 1FFA8BFB 		uxth	fp, fp
 347              	.LVL67:
  41:procr.c       ****         
 348              		.loc 1 41 0
 349 0192 0023     		movs	r3, #0
  38:procr.c       ****         
 350              		.loc 1 38 0
 351 0194 1A46     		mov	r2, r3
 352 0196 38E2     		b	.L8
 353              	.LVL68:
 354              	.L13:
 120:procr.c       ****             break;
 355              		.loc 1 120 0
 356 0198 18AB     		add	r3, sp, #96
 357              	.LVL69:
 358 019a 1C44     		add	r4, r4, r3
 359              	.LVL70:
ARM GAS  C:\Users\info\AppData\Local\Temp\ccje3F3x.s 			page 13


 360 019c 04F8106C 		strb	r6, [r4, #-16]
  41:procr.c       ****         
 361              		.loc 1 41 0
 362 01a0 0023     		movs	r3, #0
  38:procr.c       ****         
 363              		.loc 1 38 0
 364 01a2 1A46     		mov	r2, r3
 365              	.LVL71:
 121:procr.c       ****         case OP3_ADD_IM:
 366              		.loc 1 121 0
 367 01a4 31E2     		b	.L8
 368              	.LVL72:
 369              	.L14:
 124:procr.c       ****             break;
 370              		.loc 1 124 0
 371 01a6 18AB     		add	r3, sp, #96
 372              	.LVL73:
 373 01a8 1C44     		add	r4, r4, r3
 374              	.LVL74:
 375 01aa 14F8103C 		ldrb	r3, [r4, #-16]	@ zero_extendqisi2
 376 01ae 1E44     		add	r6, r6, r3
 377              	.LVL75:
 378 01b0 04F8106C 		strb	r6, [r4, #-16]
  41:procr.c       ****         
 379              		.loc 1 41 0
 380 01b4 0023     		movs	r3, #0
  38:procr.c       ****         
 381              		.loc 1 38 0
 382 01b6 1A46     		mov	r2, r3
 383              	.LVL76:
 125:procr.c       ****         case OP3_ARITH:
 384              		.loc 1 125 0
 385 01b8 27E2     		b	.L8
 386              	.LVL77:
 387              	.L15:
 128:procr.c       ****             case OP0_ARITH_LOAD:
 388              		.loc 1 128 0
 389 01ba BCF10E0F 		cmp	ip, #14
 390 01be 00F21682 		bhi	.L71
 391 01c2 DFE81CF0 		tbh	[pc, ip, lsl #1]
 392              	.LVL78:
 393              	.L28:
 394 01c6 0F00     		.2byte	(.L27-.L28)/2
 395 01c8 1900     		.2byte	(.L29-.L28)/2
 396 01ca 2700     		.2byte	(.L30-.L28)/2
 397 01cc 3500     		.2byte	(.L31-.L28)/2
 398 01ce 4300     		.2byte	(.L32-.L28)/2
 399 01d0 5100     		.2byte	(.L33-.L28)/2
 400 01d2 6700     		.2byte	(.L34-.L28)/2
 401 01d4 7700     		.2byte	(.L35-.L28)/2
 402 01d6 1402     		.2byte	(.L71-.L28)/2
 403 01d8 1402     		.2byte	(.L71-.L28)/2
 404 01da 1402     		.2byte	(.L71-.L28)/2
 405 01dc 1402     		.2byte	(.L71-.L28)/2
 406 01de 1402     		.2byte	(.L71-.L28)/2
 407 01e0 1402     		.2byte	(.L71-.L28)/2
 408 01e2 8C00     		.2byte	(.L36-.L28)/2
ARM GAS  C:\Users\info\AppData\Local\Temp\ccje3F3x.s 			page 14


 409              		.p2align 1
 410              	.L27:
 131:procr.c       ****                 break;
 411              		.loc 1 131 0
 412 01e4 18AA     		add	r2, sp, #96
 413 01e6 1344     		add	r3, r3, r2
 414              	.LVL79:
 415 01e8 13F8103C 		ldrb	r3, [r3, #-16]	@ zero_extendqisi2
 416 01ec 1444     		add	r4, r4, r2
 417              	.LVL80:
 418 01ee 04F8103C 		strb	r3, [r4, #-16]
  41:procr.c       ****         
 419              		.loc 1 41 0
 420 01f2 0023     		movs	r3, #0
  38:procr.c       ****         
 421              		.loc 1 38 0
 422 01f4 1A46     		mov	r2, r3
 132:procr.c       ****             case OP0_ARITH_OR:
 423              		.loc 1 132 0
 424 01f6 08E2     		b	.L8
 425              	.LVL81:
 426              	.L29:
 135:procr.c       ****                 break;
 427              		.loc 1 135 0
 428 01f8 18AA     		add	r2, sp, #96
 429 01fa 1344     		add	r3, r3, r2
 430              	.LVL82:
 431 01fc 13F8102C 		ldrb	r2, [r3, #-16]	@ zero_extendqisi2
 432 0200 18AB     		add	r3, sp, #96
 433 0202 1C44     		add	r4, r4, r3
 434              	.LVL83:
 435 0204 14F8103C 		ldrb	r3, [r4, #-16]	@ zero_extendqisi2
 436 0208 1343     		orrs	r3, r3, r2
 437 020a 04F8103C 		strb	r3, [r4, #-16]
  41:procr.c       ****         
 438              		.loc 1 41 0
 439 020e 0023     		movs	r3, #0
  38:procr.c       ****         
 440              		.loc 1 38 0
 441 0210 1A46     		mov	r2, r3
 136:procr.c       ****             case OP0_ARITH_AND:
 442              		.loc 1 136 0
 443 0212 FAE1     		b	.L8
 444              	.LVL84:
 445              	.L30:
 139:procr.c       ****                 break;
 446              		.loc 1 139 0
 447 0214 18AA     		add	r2, sp, #96
 448 0216 1344     		add	r3, r3, r2
 449              	.LVL85:
 450 0218 13F8102C 		ldrb	r2, [r3, #-16]	@ zero_extendqisi2
 451 021c 18AB     		add	r3, sp, #96
 452 021e 1C44     		add	r4, r4, r3
 453              	.LVL86:
 454 0220 14F8103C 		ldrb	r3, [r4, #-16]	@ zero_extendqisi2
 455 0224 1340     		ands	r3, r3, r2
 456 0226 04F8103C 		strb	r3, [r4, #-16]
ARM GAS  C:\Users\info\AppData\Local\Temp\ccje3F3x.s 			page 15


  41:procr.c       ****         
 457              		.loc 1 41 0
 458 022a 0023     		movs	r3, #0
  38:procr.c       ****         
 459              		.loc 1 38 0
 460 022c 1A46     		mov	r2, r3
 140:procr.c       ****             case OP0_ARITH_XOR:
 461              		.loc 1 140 0
 462 022e ECE1     		b	.L8
 463              	.LVL87:
 464              	.L31:
 143:procr.c       ****                 break;
 465              		.loc 1 143 0
 466 0230 18AA     		add	r2, sp, #96
 467 0232 1344     		add	r3, r3, r2
 468              	.LVL88:
 469 0234 13F8102C 		ldrb	r2, [r3, #-16]	@ zero_extendqisi2
 470 0238 18AB     		add	r3, sp, #96
 471 023a 1C44     		add	r4, r4, r3
 472              	.LVL89:
 473 023c 14F8103C 		ldrb	r3, [r4, #-16]	@ zero_extendqisi2
 474 0240 5340     		eors	r3, r3, r2
 475 0242 04F8103C 		strb	r3, [r4, #-16]
  41:procr.c       ****         
 476              		.loc 1 41 0
 477 0246 0023     		movs	r3, #0
  38:procr.c       ****         
 478              		.loc 1 38 0
 479 0248 1A46     		mov	r2, r3
 144:procr.c       ****             case OP0_ARITH_ADD:
 480              		.loc 1 144 0
 481 024a DEE1     		b	.L8
 482              	.LVL90:
 483              	.L32:
 147:procr.c       ****                 break;
 484              		.loc 1 147 0
 485 024c 18AA     		add	r2, sp, #96
 486 024e 1344     		add	r3, r3, r2
 487              	.LVL91:
 488 0250 13F8102C 		ldrb	r2, [r3, #-16]	@ zero_extendqisi2
 489 0254 18AB     		add	r3, sp, #96
 490 0256 1C44     		add	r4, r4, r3
 491              	.LVL92:
 492 0258 14F8103C 		ldrb	r3, [r4, #-16]	@ zero_extendqisi2
 493 025c 1344     		add	r3, r3, r2
 494 025e 04F8103C 		strb	r3, [r4, #-16]
  41:procr.c       ****         
 495              		.loc 1 41 0
 496 0262 0023     		movs	r3, #0
  38:procr.c       ****         
 497              		.loc 1 38 0
 498 0264 1A46     		mov	r2, r3
 148:procr.c       ****             case OP0_ARITH_SUB:{
 499              		.loc 1 148 0
 500 0266 D0E1     		b	.L8
 501              	.LVL93:
 502              	.L33:
ARM GAS  C:\Users\info\AppData\Local\Temp\ccje3F3x.s 			page 16


 503              	.LBB6:
 151:procr.c       ****                 uint16_t vy = v[y];
 504              		.loc 1 151 0
 505 0268 18AA     		add	r2, sp, #96
 506 026a 1444     		add	r4, r4, r2
 507              	.LVL94:
 508 026c 14F8102C 		ldrb	r2, [r4, #-16]	@ zero_extendqisi2
 509              	.LVL95:
 152:procr.c       ****                 uint16_t diff = vx - vy;                                
 510              		.loc 1 152 0
 511 0270 18A9     		add	r1, sp, #96
 512              	.LVL96:
 513 0272 0B44     		add	r3, r3, r1
 514              	.LVL97:
 515 0274 13F8101C 		ldrb	r1, [r3, #-16]	@ zero_extendqisi2
 516              	.LVL98:
 153:procr.c       ****                 v[x] = diff;
 517              		.loc 1 153 0
 518 0278 531A     		subs	r3, r2, r1
 519              	.LVL99:
 154:procr.c       ****                 v[0xf] = (diff & 0x100) ? 0 : 1;
 520              		.loc 1 154 0
 521 027a 04F8103C 		strb	r3, [r4, #-16]
 155:procr.c       ****                 break;
 522              		.loc 1 155 0
 523 027e C3F30723 		ubfx	r3, r3, #8, #8
 524              	.LVL100:
 525 0282 83F00103 		eor	r3, r3, #1
 526 0286 03F00103 		and	r3, r3, #1
 527 028a 8DF85F30 		strb	r3, [sp, #95]
 528              	.LBE6:
  41:procr.c       ****         
 529              		.loc 1 41 0
 530 028e 0023     		movs	r3, #0
  38:procr.c       ****         
 531              		.loc 1 38 0
 532 0290 1A46     		mov	r2, r3
 533              	.LVL101:
 534              	.LBB7:
 156:procr.c       ****             }
 535              		.loc 1 156 0
 536 0292 BAE1     		b	.L8
 537              	.LVL102:
 538              	.L34:
 539              	.LBE7:
 160:procr.c       ****                 v[x] >>= 1;
 540              		.loc 1 160 0
 541 0294 18AB     		add	r3, sp, #96
 542              	.LVL103:
 543 0296 1C44     		add	r4, r4, r3
 544              	.LVL104:
 545 0298 14F8103C 		ldrb	r3, [r4, #-16]	@ zero_extendqisi2
 546 029c 03F00103 		and	r3, r3, #1
 547 02a0 8DF85F30 		strb	r3, [sp, #95]
 161:procr.c       ****                 break;
 548              		.loc 1 161 0
 549 02a4 14F8103C 		ldrb	r3, [r4, #-16]	@ zero_extendqisi2
ARM GAS  C:\Users\info\AppData\Local\Temp\ccje3F3x.s 			page 17


 550 02a8 5B08     		lsrs	r3, r3, #1
 551 02aa 04F8103C 		strb	r3, [r4, #-16]
  41:procr.c       ****         
 552              		.loc 1 41 0
 553 02ae 0023     		movs	r3, #0
  38:procr.c       ****         
 554              		.loc 1 38 0
 555 02b0 1A46     		mov	r2, r3
 162:procr.c       ****             case OP0_ARITH_SUBN:{
 556              		.loc 1 162 0
 557 02b2 AAE1     		b	.L8
 558              	.LVL105:
 559              	.L35:
 560              	.LBB8:
 165:procr.c       ****                 uint16_t vy = v[y];
 561              		.loc 1 165 0
 562 02b4 18AA     		add	r2, sp, #96
 563 02b6 1444     		add	r4, r4, r2
 564              	.LVL106:
 565 02b8 14F8101C 		ldrb	r1, [r4, #-16]	@ zero_extendqisi2
 566              	.LVL107:
 166:procr.c       ****                 uint16_t diff = vy - vx;                                
 567              		.loc 1 166 0
 568 02bc 1344     		add	r3, r3, r2
 569              	.LVL108:
 570 02be 13F8102C 		ldrb	r2, [r3, #-16]	@ zero_extendqisi2
 571              	.LVL109:
 167:procr.c       ****                 v[x] = diff;
 572              		.loc 1 167 0
 573 02c2 531A     		subs	r3, r2, r1
 574              	.LVL110:
 168:procr.c       ****                 v[0xf] = (diff & 0x100) ? 0 : 1;
 575              		.loc 1 168 0
 576 02c4 04F8103C 		strb	r3, [r4, #-16]
 169:procr.c       ****                 break;
 577              		.loc 1 169 0
 578 02c8 C3F30723 		ubfx	r3, r3, #8, #8
 579              	.LVL111:
 580 02cc 83F00103 		eor	r3, r3, #1
 581 02d0 03F00103 		and	r3, r3, #1
 582 02d4 8DF85F30 		strb	r3, [sp, #95]
 583              	.LBE8:
  41:procr.c       ****         
 584              		.loc 1 41 0
 585 02d8 0023     		movs	r3, #0
  38:procr.c       ****         
 586              		.loc 1 38 0
 587 02da 1A46     		mov	r2, r3
 588              	.LVL112:
 589              	.LBB9:
 170:procr.c       ****             }
 590              		.loc 1 170 0
 591 02dc 95E1     		b	.L8
 592              	.LVL113:
 593              	.L36:
 594              	.LBE9:
 174:procr.c       ****                 v[x] <<= 1;
ARM GAS  C:\Users\info\AppData\Local\Temp\ccje3F3x.s 			page 18


 595              		.loc 1 174 0
 596 02de 18AB     		add	r3, sp, #96
 597              	.LVL114:
 598 02e0 1C44     		add	r4, r4, r3
 599              	.LVL115:
 600 02e2 14F8103C 		ldrb	r3, [r4, #-16]	@ zero_extendqisi2
 601 02e6 DB09     		lsrs	r3, r3, #7
 602 02e8 8DF85F30 		strb	r3, [sp, #95]
 175:procr.c       ****                 break;
 603              		.loc 1 175 0
 604 02ec 14F8103C 		ldrb	r3, [r4, #-16]	@ zero_extendqisi2
 605 02f0 5B00     		lsls	r3, r3, #1
 606 02f2 04F8103C 		strb	r3, [r4, #-16]
  41:procr.c       ****         
 607              		.loc 1 41 0
 608 02f6 0023     		movs	r3, #0
  38:procr.c       ****         
 609              		.loc 1 38 0
 610 02f8 1A46     		mov	r2, r3
 176:procr.c       ****             default:
 611              		.loc 1 176 0
 612 02fa 86E1     		b	.L8
 613              	.LVL116:
 614              	.L17:
 184:procr.c       ****             break;
 615              		.loc 1 184 0
 616 02fc 0691     		str	r1, [sp, #24]
  41:procr.c       ****         
 617              		.loc 1 41 0
 618 02fe 0023     		movs	r3, #0
 619              	.LVL117:
  38:procr.c       ****         
 620              		.loc 1 38 0
 621 0300 1A46     		mov	r2, r3
 622              	.LVL118:
 185:procr.c       ****         case OP3_RANDOM:
 623              		.loc 1 185 0
 624 0302 82E1     		b	.L8
 625              	.LVL119:
 626              	.L19:
 188:procr.c       ****             break;
 627              		.loc 1 188 0
 628 0304 FFF7FEFF 		bl	random_Read
 629              	.LVL120:
 630 0308 18AB     		add	r3, sp, #96
 631 030a 1C44     		add	r4, r4, r3
 632              	.LVL121:
 633 030c 3040     		ands	r0, r0, r6
 634 030e 04F8100C 		strb	r0, [r4, #-16]
  41:procr.c       ****         
 635              		.loc 1 41 0
 636 0312 0023     		movs	r3, #0
  38:procr.c       ****         
 637              		.loc 1 38 0
 638 0314 1A46     		mov	r2, r3
 189:procr.c       ****         case OP3_DRAW:{
 639              		.loc 1 189 0
ARM GAS  C:\Users\info\AppData\Local\Temp\ccje3F3x.s 			page 19


 640 0316 78E1     		b	.L8
 641              	.LVL122:
 642              	.L40:
 643              	.LBB10:
 644              	.LBB11:
 645              	.LBB12:
 195:procr.c       ****                     row = ((uint64_t)ram[i + j]) << (56 - v[x]);
 646              		.loc 1 195 0
 647 0318 18A9     		add	r1, sp, #96
 648 031a 3944     		add	r1, r1, r7
 649 031c 11F8104C 		ldrb	r4, [r1, #-16]	@ zero_extendqisi2
 650 0320 382C     		cmp	r4, #56
 651 0322 15D8     		bhi	.L37
 196:procr.c       ****                 } else {
 652              		.loc 1 196 0
 653 0324 0699     		ldr	r1, [sp, #24]
 654 0326 1144     		add	r1, r1, r2
 655 0328 585C     		ldrb	r0, [r3, r1]	@ zero_extendqisi2
 656 032a C4F13804 		rsb	r4, r4, #56
 657 032e A4F12005 		sub	r5, r4, #32
 658 0332 C4F12001 		rsb	r1, r4, #32
 659 0336 4FF00009 		mov	r9, #0
 660 033a 00FA05F5 		lsl	r5, r0, r5
 661 033e 49EA0509 		orr	r9, r9, r5
 662 0342 20FA01F1 		lsr	r1, r0, r1
 663 0346 49EA0109 		orr	r9, r9, r1
 664 034a 00FA04F8 		lsl	r8, r0, r4
 665              	.LVL123:
 666 034e 21E0     		b	.L38
 667              	.LVL124:
 668              	.L37:
 198:procr.c       ****                         | ((uint64_t)ram[i + j]) << (120 - v[x]);
 669              		.loc 1 198 0
 670 0350 0699     		ldr	r1, [sp, #24]
 671 0352 1144     		add	r1, r1, r2
 672 0354 585C     		ldrb	r0, [r3, r1]	@ zero_extendqisi2
 673 0356 A4F13801 		sub	r1, r4, #56
 674 035a 20FA01F5 		lsr	r5, r0, r1
 675 035e 0495     		str	r5, [sp, #16]
 676 0360 0025     		movs	r5, #0
 677 0362 0595     		str	r5, [sp, #20]
 199:procr.c       ****                 }
 678              		.loc 1 199 0
 679 0364 C4F17804 		rsb	r4, r4, #120
 680 0368 A4F12005 		sub	r5, r4, #32
 681 036c C4F12001 		rsb	r1, r4, #32
 682 0370 4FF0000B 		mov	fp, #0
 683 0374 00FA05F5 		lsl	r5, r0, r5
 684 0378 4BEA050B 		orr	fp, fp, r5
 685 037c 20FA01F1 		lsr	r1, r0, r1
 686 0380 4BEA010B 		orr	fp, fp, r1
 687 0384 00FA04FA 		lsl	r10, r0, r4
 198:procr.c       ****                         | ((uint64_t)ram[i + j]) << (120 - v[x]);
 688              		.loc 1 198 0
 689 0388 DDE90489 		ldrd	r8, [sp, #16]
 690 038c 48EA0A08 		orr	r8, r8, r10
 691 0390 49EA0B09 		orr	r9, r9, fp
ARM GAS  C:\Users\info\AppData\Local\Temp\ccje3F3x.s 			page 20


 692              	.LVL125:
 693              	.L38:
 201:procr.c       ****                 vram[(v[y] + j) % 32] ^= row;
 694              		.loc 1 201 0 discriminator 2
 695 0394 18A9     		add	r1, sp, #96
 696 0396 0798     		ldr	r0, [sp, #28]
 697 0398 0144     		add	r1, r1, r0
 698 039a 11F8101C 		ldrb	r1, [r1, #-16]	@ zero_extendqisi2
 699 039e 1144     		add	r1, r1, r2
 700 03a0 A048     		ldr	r0, .L81
 701 03a2 11EA000E 		ands	lr, r1, r0
 702 03a6 05D5     		bpl	.L39
 703 03a8 0EF1FF3E 		add	lr, lr, #-1
 704 03ac 6EF01F0E 		orn	lr, lr, #31
 705 03b0 0EF1010E 		add	lr, lr, #1
 706              	.L39:
 707 03b4 06EBCE0E 		add	lr, r6, lr, lsl #3
 708 03b8 DEE90001 		ldrd	r0, [lr]
 709 03bc CDE90201 		strd	r0, [sp, #8]
 710 03c0 00EA0804 		and	r4, r0, r8
 711 03c4 01EA0905 		and	r5, r1, r9
 712 03c8 DDE90001 		ldrd	r0, [sp]
 713 03cc 2043     		orrs	r0, r0, r4
 714 03ce 2943     		orrs	r1, r1, r5
 715 03d0 CDE90001 		strd	r0, [sp]
 716              	.LVL126:
 202:procr.c       ****             }
 717              		.loc 1 202 0 discriminator 2
 718 03d4 DDE90201 		ldrd	r0, [sp, #8]
 719              	.LVL127:
 720 03d8 80EA0800 		eor	r0, r0, r8
 721 03dc 81EA0901 		eor	r1, r1, r9
 722 03e0 CEE90001 		strd	r0, [lr]
 723              	.LBE12:
 193:procr.c       ****                 uint64_t row = 0;
 724              		.loc 1 193 0 discriminator 2
 725 03e4 0132     		adds	r2, r2, #1
 726              	.LVL128:
 727 03e6 0CE0     		b	.L20
 728              	.LVL129:
 729              	.L60:
 730              	.LBE11:
 731              	.LBE10:
  44:procr.c       ****         case OP3_SYSTEM:
 732              		.loc 1 44 0
 733 03e8 0022     		movs	r2, #0
 734              	.LVL130:
 735 03ea 0020     		movs	r0, #0
 736 03ec 0021     		movs	r1, #0
 737              	.LVL131:
 738 03ee CDE90001 		strd	r0, [sp]
 739 03f2 CDF824B0 		str	fp, [sp, #36]
 740 03f6 2746     		mov	r7, r4
 741 03f8 0793     		str	r3, [sp, #28]
 742 03fa 5346     		mov	r3, r10
 743              	.LVL132:
 744 03fc DDE902AB 		ldrd	r10, [sp, #8]
ARM GAS  C:\Users\info\AppData\Local\Temp\ccje3F3x.s 			page 21


 745              	.LVL133:
 746 0400 2E46     		mov	r6, r5
 747              	.LVL134:
 748              	.L20:
 749              	.LBB14:
 750              	.LBB13:
 193:procr.c       ****                 uint64_t row = 0;
 751              		.loc 1 193 0 discriminator 1
 752 0402 6245     		cmp	r2, ip
 753 0404 88DB     		blt	.L40
 754 0406 CDE902AB 		strd	r10, [sp, #8]
 755 040a DDF824B0 		ldr	fp, [sp, #36]
 756 040e 9A46     		mov	r10, r3
 757 0410 3546     		mov	r5, r6
 758              	.LBE13:
 204:procr.c       ****             *vga_update_flag = 1;
 759              		.loc 1 204 0
 760 0412 DDE90012 		ldrd	r1, [sp]
 761 0416 0B46     		mov	r3, r1
 762              	.LVL135:
 763 0418 1343     		orrs	r3, r3, r2
 764 041a 14BF     		ite	ne
 765 041c 0123     		movne	r3, #1
 766 041e 0023     		moveq	r3, #0
 767 0420 8DF85F30 		strb	r3, [sp, #95]
 205:procr.c       ****             break;
 768              		.loc 1 205 0
 769 0424 0123     		movs	r3, #1
 770 0426 229A     		ldr	r2, [sp, #136]
 771              	.LVL136:
 772 0428 1370     		strb	r3, [r2]
 773              	.LBE14:
  41:procr.c       ****         
 774              		.loc 1 41 0
 775 042a 0023     		movs	r3, #0
  38:procr.c       ****         
 776              		.loc 1 38 0
 777 042c 1A46     		mov	r2, r3
 778              	.LBB15:
 206:procr.c       ****         }
 779              		.loc 1 206 0
 780 042e ECE0     		b	.L8
 781              	.LVL137:
 782              	.L21:
 783              	.LBE15:
 210:procr.c       ****             case OP10_KEYBOARD_EQ:
 784              		.loc 1 210 0
 785 0430 9E2E     		cmp	r6, #158
 786 0432 02D0     		beq	.L41
 787 0434 A12E     		cmp	r6, #161
 788 0436 10D0     		beq	.L42
 789 0438 DCE0     		b	.L79
 790              	.L41:
 213:procr.c       ****                     pc += 2;
 791              		.loc 1 213 0
 792 043a 18AB     		add	r3, sp, #96
 793              	.LVL138:
ARM GAS  C:\Users\info\AppData\Local\Temp\ccje3F3x.s 			page 22


 794 043c 1C44     		add	r4, r4, r3
 795              	.LVL139:
 796 043e 14F8100C 		ldrb	r0, [r4, #-16]	@ zero_extendqisi2
 797 0442 FFF7FEFF 		bl	key_pressed
 798              	.LVL140:
 799 0446 0028     		cmp	r0, #0
 800 0448 00F0D780 		beq	.L73
 214:procr.c       ****                 }
 801              		.loc 1 214 0
 802 044c 0BF1020B 		add	fp, fp, #2
 803              	.LVL141:
 804 0450 1FFA8BFB 		uxth	fp, fp
 805              	.LVL142:
  41:procr.c       ****         
 806              		.loc 1 41 0
 807 0454 0023     		movs	r3, #0
  38:procr.c       ****         
 808              		.loc 1 38 0
 809 0456 1A46     		mov	r2, r3
 810 0458 D7E0     		b	.L8
 811              	.LVL143:
 812              	.L42:
 219:procr.c       ****                     pc += 2;
 813              		.loc 1 219 0
 814 045a 18AB     		add	r3, sp, #96
 815              	.LVL144:
 816 045c 1C44     		add	r4, r4, r3
 817              	.LVL145:
 818 045e 14F8100C 		ldrb	r0, [r4, #-16]	@ zero_extendqisi2
 819 0462 FFF7FEFF 		bl	key_pressed
 820              	.LVL146:
 821 0466 0028     		cmp	r0, #0
 822 0468 40F0CA80 		bne	.L74
 220:procr.c       ****                 }
 823              		.loc 1 220 0
 824 046c 0BF1020B 		add	fp, fp, #2
 825              	.LVL147:
 826 0470 1FFA8BFB 		uxth	fp, fp
 827              	.LVL148:
  41:procr.c       ****         
 828              		.loc 1 41 0
 829 0474 0023     		movs	r3, #0
  38:procr.c       ****         
 830              		.loc 1 38 0
 831 0476 1A46     		mov	r2, r3
 832 0478 C7E0     		b	.L8
 833              	.LVL149:
 834              	.L22:
 230:procr.c       ****             case OP10_SPECIAL_LOAD_DELAY:
 835              		.loc 1 230 0
 836 047a 1E2E     		cmp	r6, #30
 837 047c 3AD0     		beq	.L43
 838 047e 0AD8     		bhi	.L44
 839 0480 0A2E     		cmp	r6, #10
 840 0482 1CD0     		beq	.L45
 841 0484 02D8     		bhi	.L46
 842 0486 072E     		cmp	r6, #7
ARM GAS  C:\Users\info\AppData\Local\Temp\ccje3F3x.s 			page 23


 843 0488 10D0     		beq	.L47
 844 048a BCE0     		b	.L75
 845              	.L46:
 846 048c 152E     		cmp	r6, #21
 847 048e 1FD0     		beq	.L48
 848 0490 182E     		cmp	r6, #24
 849 0492 26D0     		beq	.L49
 850 0494 B7E0     		b	.L75
 851              	.L44:
 852 0496 332E     		cmp	r6, #51
 853 0498 43D0     		beq	.L50
 854 049a 02D8     		bhi	.L51
 855 049c 292E     		cmp	r6, #41
 856 049e 34D0     		beq	.L52
 857 04a0 B1E0     		b	.L75
 858              	.L51:
 859 04a2 552E     		cmp	r6, #85
 860 04a4 6BD0     		beq	.L76
 861 04a6 652E     		cmp	r6, #101
 862 04a8 7AD0     		beq	.L77
 863 04aa ACE0     		b	.L75
 864              	.L47:
 233:procr.c       ****                 break;
 865              		.loc 1 233 0
 866 04ac 0A9B     		ldr	r3, [sp, #40]
 867              	.LVL150:
 868 04ae 1B78     		ldrb	r3, [r3]	@ zero_extendqisi2
 869 04b0 18AA     		add	r2, sp, #96
 870              	.LVL151:
 871 04b2 1444     		add	r4, r4, r2
 872              	.LVL152:
 873 04b4 04F8103C 		strb	r3, [r4, #-16]
  41:procr.c       ****         
 874              		.loc 1 41 0
 875 04b8 0023     		movs	r3, #0
  38:procr.c       ****         
 876              		.loc 1 38 0
 877 04ba 1A46     		mov	r2, r3
 234:procr.c       ****             case OP10_SPECIAL_LOAD_KEYBOARD:
 878              		.loc 1 234 0
 879 04bc A5E0     		b	.L8
 880              	.LVL153:
 881              	.L45:
 237:procr.c       ****                 break;
 882              		.loc 1 237 0
 883 04be FFF7FEFF 		bl	wait_key
 884              	.LVL154:
 885 04c2 18AB     		add	r3, sp, #96
 886 04c4 1C44     		add	r4, r4, r3
 887              	.LVL155:
 888 04c6 04F8100C 		strb	r0, [r4, #-16]
  41:procr.c       ****         
 889              		.loc 1 41 0
 890 04ca 0023     		movs	r3, #0
  38:procr.c       ****         
 891              		.loc 1 38 0
 892 04cc 1A46     		mov	r2, r3
ARM GAS  C:\Users\info\AppData\Local\Temp\ccje3F3x.s 			page 24


 238:procr.c       ****             case OP10_SPECIAL_SET_DELAY:
 893              		.loc 1 238 0
 894 04ce 9CE0     		b	.L8
 895              	.LVL156:
 896              	.L48:
 241:procr.c       ****                 break;
 897              		.loc 1 241 0
 898 04d0 18AB     		add	r3, sp, #96
 899              	.LVL157:
 900 04d2 1C44     		add	r4, r4, r3
 901              	.LVL158:
 902 04d4 14F8103C 		ldrb	r3, [r4, #-16]	@ zero_extendqisi2
 903 04d8 0A9A     		ldr	r2, [sp, #40]
 904              	.LVL159:
 905 04da 1370     		strb	r3, [r2]
 906              	.LVL160:
  41:procr.c       ****         
 907              		.loc 1 41 0
 908 04dc 0023     		movs	r3, #0
  38:procr.c       ****         
 909              		.loc 1 38 0
 910 04de 1A46     		mov	r2, r3
 242:procr.c       ****             case OP10_SPECIAL_SET_SOUND:
 911              		.loc 1 242 0
 912 04e0 93E0     		b	.L8
 913              	.LVL161:
 914              	.L49:
 245:procr.c       ****                 break;
 915              		.loc 1 245 0
 916 04e2 18AB     		add	r3, sp, #96
 917              	.LVL162:
 918 04e4 1C44     		add	r4, r4, r3
 919              	.LVL163:
 920 04e6 14F8103C 		ldrb	r3, [r4, #-16]	@ zero_extendqisi2
 921 04ea 0B9A     		ldr	r2, [sp, #44]
 922              	.LVL164:
 923 04ec 1370     		strb	r3, [r2]
 924              	.LVL165:
  41:procr.c       ****         
 925              		.loc 1 41 0
 926 04ee 0023     		movs	r3, #0
  38:procr.c       ****         
 927              		.loc 1 38 0
 928 04f0 1A46     		mov	r2, r3
 246:procr.c       ****             case OP10_SPECIAL_ADD_TO_I:
 929              		.loc 1 246 0
 930 04f2 8AE0     		b	.L8
 931              	.LVL166:
 932              	.L43:
 249:procr.c       ****                 break;
 933              		.loc 1 249 0
 934 04f4 18AB     		add	r3, sp, #96
 935              	.LVL167:
 936 04f6 1C44     		add	r4, r4, r3
 937              	.LVL168:
 938 04f8 14F8103C 		ldrb	r3, [r4, #-16]	@ zero_extendqisi2
 939 04fc 069A     		ldr	r2, [sp, #24]
ARM GAS  C:\Users\info\AppData\Local\Temp\ccje3F3x.s 			page 25


 940              	.LVL169:
 941 04fe 1A44     		add	r2, r2, r3
 942 0500 93B2     		uxth	r3, r2
 943 0502 0693     		str	r3, [sp, #24]
 944              	.LVL170:
  41:procr.c       ****         
 945              		.loc 1 41 0
 946 0504 0023     		movs	r3, #0
  38:procr.c       ****         
 947              		.loc 1 38 0
 948 0506 1A46     		mov	r2, r3
 250:procr.c       ****             case OP10_SPECIAL_LOAD_FONT:
 949              		.loc 1 250 0
 950 0508 7FE0     		b	.L8
 951              	.LVL171:
 952              	.L52:
 253:procr.c       ****                 break;
 953              		.loc 1 253 0
 954 050a 18AB     		add	r3, sp, #96
 955              	.LVL172:
 956 050c 1C44     		add	r4, r4, r3
 957              	.LVL173:
 958 050e 14F8103C 		ldrb	r3, [r4, #-16]	@ zero_extendqisi2
 959 0512 03F00F03 		and	r3, r3, #15
 960 0516 03EB8303 		add	r3, r3, r3, lsl #2
 961 051a 0693     		str	r3, [sp, #24]
 962              	.LVL174:
  41:procr.c       ****         
 963              		.loc 1 41 0
 964 051c 0023     		movs	r3, #0
  38:procr.c       ****         
 965              		.loc 1 38 0
 966 051e 1A46     		mov	r2, r3
 967              	.LVL175:
 254:procr.c       ****             case OP10_SPECIAL_LOAD_BCD:
 968              		.loc 1 254 0
 969 0520 73E0     		b	.L8
 970              	.LVL176:
 971              	.L50:
 257:procr.c       ****                 ram[i+1] = (uint8_t)(v[x] / 10) % 10;
 972              		.loc 1 257 0
 973 0522 18AB     		add	r3, sp, #96
 974              	.LVL177:
 975 0524 1C44     		add	r4, r4, r3
 976              	.LVL178:
 977 0526 14F8101C 		ldrb	r1, [r4, #-16]	@ zero_extendqisi2
 978              	.LVL179:
 979 052a 3F4A     		ldr	r2, .L81+4
 980              	.LVL180:
 981 052c A2FB0132 		umull	r3, r2, r2, r1
 982 0530 3E4B     		ldr	r3, .L81+8
 983 0532 5209     		lsrs	r2, r2, #5
 984 0534 069F     		ldr	r7, [sp, #24]
 985 0536 0AF80720 		strb	r2, [r10, r7]
 986              	.LVL181:
 258:procr.c       ****                 ram[i+2] = (uint8_t)(v[x]) % 10;
 987              		.loc 1 258 0
ARM GAS  C:\Users\info\AppData\Local\Temp\ccje3F3x.s 			page 26


 988 053a 7C1C     		adds	r4, r7, #1
 989 053c A3FB0102 		umull	r0, r2, r3, r1
 990 0540 D208     		lsrs	r2, r2, #3
 991 0542 D0B2     		uxtb	r0, r2
 992 0544 A3FB0063 		umull	r6, r3, r3, r0
 993              	.LVL182:
 994 0548 DB08     		lsrs	r3, r3, #3
 995 054a 03EB8303 		add	r3, r3, r3, lsl #2
 996 054e 5E00     		lsls	r6, r3, #1
 997 0550 801B     		subs	r0, r0, r6
 998 0552 0AF80400 		strb	r0, [r10, r4]
 259:procr.c       ****                 break;
 999              		.loc 1 259 0
 1000 0556 BB1C     		adds	r3, r7, #2
 1001 0558 02EB8202 		add	r2, r2, r2, lsl #2
 1002 055c 5000     		lsls	r0, r2, #1
 1003 055e 091A     		subs	r1, r1, r0
 1004 0560 0AF80310 		strb	r1, [r10, r3]
  41:procr.c       ****         
 1005              		.loc 1 41 0
 1006 0564 0023     		movs	r3, #0
  38:procr.c       ****         
 1007              		.loc 1 38 0
 1008 0566 1A46     		mov	r2, r3
 260:procr.c       ****             case OP10_SPECIAL_LOAD_AT_I:
 1009              		.loc 1 260 0
 1010 0568 4FE0     		b	.L8
 1011              	.LVL183:
 1012              	.L55:
 1013              	.LBB16:
 264:procr.c       ****                 }
 1014              		.loc 1 264 0 discriminator 3
 1015 056a C218     		adds	r2, r0, r3
 1016 056c 18A9     		add	r1, sp, #96
 1017 056e 1944     		add	r1, r1, r3
 1018 0570 11F8101C 		ldrb	r1, [r1, #-16]	@ zero_extendqisi2
 1019 0574 0AF80210 		strb	r1, [r10, r2]
 263:procr.c       ****                     ram[i + j] = v[j];
 1020              		.loc 1 263 0 discriminator 3
 1021 0578 0133     		adds	r3, r3, #1
 1022              	.LVL184:
 1023 057a DBB2     		uxtb	r3, r3
 1024              	.LVL185:
 1025 057c 01E0     		b	.L53
 1026              	.LVL186:
 1027              	.L76:
 1028              	.LBE16:
 230:procr.c       ****             case OP10_SPECIAL_LOAD_DELAY:
 1029              		.loc 1 230 0
 1030 057e 0023     		movs	r3, #0
 1031              	.LVL187:
 1032 0580 0698     		ldr	r0, [sp, #24]
 1033              	.LVL188:
 1034              	.L53:
 1035              	.LBB17:
 263:procr.c       ****                     ram[i + j] = v[j];
 1036              		.loc 1 263 0 discriminator 1
ARM GAS  C:\Users\info\AppData\Local\Temp\ccje3F3x.s 			page 27


 1037 0582 A342     		cmp	r3, r4
 1038 0584 F1D9     		bls	.L55
 1039              	.LBE17:
  41:procr.c       ****         
 1040              		.loc 1 41 0
 1041 0586 0023     		movs	r3, #0
 1042              	.LVL189:
  38:procr.c       ****         
 1043              		.loc 1 38 0
 1044 0588 1A46     		mov	r2, r3
 1045 058a 3EE0     		b	.L8
 1046              	.LVL190:
 1047              	.L56:
 1048              	.LBB18:
 270:procr.c       ****                 }
 1049              		.loc 1 270 0 discriminator 3
 1050 058c C218     		adds	r2, r0, r3
 1051 058e 1AF80210 		ldrb	r1, [r10, r2]	@ zero_extendqisi2
 1052 0592 18AA     		add	r2, sp, #96
 1053 0594 1A44     		add	r2, r2, r3
 1054 0596 02F8101C 		strb	r1, [r2, #-16]
 269:procr.c       ****                     v[j] = ram[i + j];
 1055              		.loc 1 269 0 discriminator 3
 1056 059a 0133     		adds	r3, r3, #1
 1057              	.LVL191:
 1058 059c DBB2     		uxtb	r3, r3
 1059              	.LVL192:
 1060 059e 01E0     		b	.L54
 1061              	.LVL193:
 1062              	.L77:
 1063              	.LBE18:
 230:procr.c       ****             case OP10_SPECIAL_LOAD_DELAY:
 1064              		.loc 1 230 0
 1065 05a0 0023     		movs	r3, #0
 1066              	.LVL194:
 1067 05a2 0698     		ldr	r0, [sp, #24]
 1068              	.LVL195:
 1069              	.L54:
 1070              	.LBB19:
 269:procr.c       ****                     v[j] = ram[i + j];
 1071              		.loc 1 269 0 discriminator 1
 1072 05a4 A342     		cmp	r3, r4
 1073 05a6 F1D9     		bls	.L56
 1074              	.LBE19:
  41:procr.c       ****         
 1075              		.loc 1 41 0
 1076 05a8 0023     		movs	r3, #0
 1077              	.LVL196:
  38:procr.c       ****         
 1078              		.loc 1 38 0
 1079 05aa 1A46     		mov	r2, r3
 1080              	.LBB20:
 1081 05ac 2DE0     		b	.L8
 1082              	.LVL197:
 1083              	.L59:
 1084              	.LBE20:
  71:procr.c       ****             freeze_pc = 1;
ARM GAS  C:\Users\info\AppData\Local\Temp\ccje3F3x.s 			page 28


 1085              		.loc 1 71 0
 1086 05ae 8B46     		mov	fp, r1
 1087              	.LVL198:
  72:procr.c       ****             break;
 1088              		.loc 1 72 0
 1089 05b0 0123     		movs	r3, #1
 1090              	.LVL199:
  38:procr.c       ****         
 1091              		.loc 1 38 0
 1092 05b2 0022     		movs	r2, #0
 1093              	.LVL200:
 1094 05b4 29E0     		b	.L8
 1095              	.LVL201:
 1096              	.L61:
  41:procr.c       ****         
 1097              		.loc 1 41 0
 1098 05b6 0023     		movs	r3, #0
 1099              	.LVL202:
  48:procr.c       ****             } else {
 1100              		.loc 1 48 0
 1101 05b8 0122     		movs	r2, #1
 1102              	.LVL203:
 1103 05ba 26E0     		b	.L8
 1104              	.LVL204:
 1105              	.L78:
  41:procr.c       ****         
 1106              		.loc 1 41 0
 1107 05bc 0023     		movs	r3, #0
 1108              	.LVL205:
  64:procr.c       ****                     break;
 1109              		.loc 1 64 0
 1110 05be 0122     		movs	r2, #1
 1111              	.LVL206:
 1112 05c0 23E0     		b	.L8
 1113              	.L64:
  83:procr.c       ****             freeze_pc = 1;
 1114              		.loc 1 83 0
 1115 05c2 8B46     		mov	fp, r1
 1116              	.LVL207:
  84:procr.c       ****             break;
 1117              		.loc 1 84 0
 1118 05c4 0123     		movs	r3, #1
  38:procr.c       ****         
 1119              		.loc 1 38 0
 1120 05c6 0022     		movs	r2, #0
 1121              	.LVL208:
 1122 05c8 1FE0     		b	.L8
 1123              	.LVL209:
 1124              	.L65:
  41:procr.c       ****         
 1125              		.loc 1 41 0
 1126 05ca 0023     		movs	r3, #0
  38:procr.c       ****         
 1127              		.loc 1 38 0
 1128 05cc 1A46     		mov	r2, r3
 1129              	.LVL210:
 1130 05ce 1CE0     		b	.L8
ARM GAS  C:\Users\info\AppData\Local\Temp\ccje3F3x.s 			page 29


 1131              	.LVL211:
 1132              	.L66:
  41:procr.c       ****         
 1133              		.loc 1 41 0
 1134 05d0 0023     		movs	r3, #0
  38:procr.c       ****         
 1135              		.loc 1 38 0
 1136 05d2 1A46     		mov	r2, r3
 1137              	.LVL212:
 1138 05d4 19E0     		b	.L8
 1139              	.LVL213:
 1140              	.L67:
  41:procr.c       ****         
 1141              		.loc 1 41 0
 1142 05d6 0023     		movs	r3, #0
 1143              	.LVL214:
 105:procr.c       ****             }
 1144              		.loc 1 105 0
 1145 05d8 0122     		movs	r2, #1
 1146              	.LVL215:
 1147 05da 16E0     		b	.L8
 1148              	.LVL216:
 1149              	.L68:
  41:procr.c       ****         
 1150              		.loc 1 41 0
 1151 05dc 0023     		movs	r3, #0
  38:procr.c       ****         
 1152              		.loc 1 38 0
 1153 05de 1A46     		mov	r2, r3
 1154 05e0 13E0     		b	.L8
 1155              	.LVL217:
 1156              	.L69:
  41:procr.c       ****         
 1157              		.loc 1 41 0
 1158 05e2 0023     		movs	r3, #0
 1159              	.LVL218:
 115:procr.c       ****             }
 1160              		.loc 1 115 0
 1161 05e4 0122     		movs	r2, #1
 1162              	.LVL219:
 1163 05e6 10E0     		b	.L8
 1164              	.LVL220:
 1165              	.L70:
  41:procr.c       ****         
 1166              		.loc 1 41 0
 1167 05e8 0023     		movs	r3, #0
  38:procr.c       ****         
 1168              		.loc 1 38 0
 1169 05ea 1A46     		mov	r2, r3
 1170 05ec 0DE0     		b	.L8
 1171              	.LVL221:
 1172              	.L71:
  41:procr.c       ****         
 1173              		.loc 1 41 0
 1174 05ee 0023     		movs	r3, #0
 1175              	.LVL222:
 178:procr.c       ****                 break;
ARM GAS  C:\Users\info\AppData\Local\Temp\ccje3F3x.s 			page 30


 1176              		.loc 1 178 0
 1177 05f0 0122     		movs	r2, #1
 1178 05f2 0AE0     		b	.L8
 1179              	.LVL223:
 1180              	.L79:
  41:procr.c       ****         
 1181              		.loc 1 41 0
 1182 05f4 0023     		movs	r3, #0
 1183              	.LVL224:
 224:procr.c       ****                 break;
 1184              		.loc 1 224 0
 1185 05f6 0122     		movs	r2, #1
 1186              	.LVL225:
 1187 05f8 07E0     		b	.L8
 1188              	.LVL226:
 1189              	.L73:
  41:procr.c       ****         
 1190              		.loc 1 41 0
 1191 05fa 0023     		movs	r3, #0
  38:procr.c       ****         
 1192              		.loc 1 38 0
 1193 05fc 1A46     		mov	r2, r3
 1194 05fe 04E0     		b	.L8
 1195              	.L74:
  41:procr.c       ****         
 1196              		.loc 1 41 0
 1197 0600 0023     		movs	r3, #0
  38:procr.c       ****         
 1198              		.loc 1 38 0
 1199 0602 1A46     		mov	r2, r3
 1200 0604 01E0     		b	.L8
 1201              	.LVL227:
 1202              	.L75:
  41:procr.c       ****         
 1203              		.loc 1 41 0
 1204 0606 0023     		movs	r3, #0
 1205              	.LVL228:
 274:procr.c       ****                 break;
 1206              		.loc 1 274 0
 1207 0608 0122     		movs	r2, #1
 1208              	.LVL229:
 1209              	.L8:
 280:procr.c       ****             break;
 281:procr.c       ****         }
 282:procr.c       ****         if (invalid_op) {
 1210              		.loc 1 282 0
 1211 060a 3AB9     		cbnz	r2, .L1
 283:procr.c       ****             /* Return to indicate error */
 284:procr.c       ****             return;
 285:procr.c       ****         }
 286:procr.c       ****         if (!freeze_pc){
 1212              		.loc 1 286 0
 1213 060c 002B     		cmp	r3, #0
 1214 060e 7FF416AD 		bne	.L4
 287:procr.c       ****             /* Increment PC */
 288:procr.c       ****             pc += 2;
 1215              		.loc 1 288 0
ARM GAS  C:\Users\info\AppData\Local\Temp\ccje3F3x.s 			page 31


 1216 0612 0BF1020B 		add	fp, fp, #2
 1217              	.LVL230:
 1218 0616 1FFA8BFB 		uxth	fp, fp
 1219              	.LVL231:
 1220 061a 10E5     		b	.L4
 1221              	.L1:
 1222              	.LBE3:
 289:procr.c       ****         }
 290:procr.c       ****     }
 291:procr.c       **** }
 1223              		.loc 1 291 0
 1224 061c 19B0     		add	sp, sp, #100
 1225              		.cfi_def_cfa_offset 36
 1226              		@ sp needed
 1227 061e BDE8F08F 		pop	{r4, r5, r6, r7, r8, r9, r10, fp, pc}
 1228              	.LVL232:
 1229              	.L82:
 1230 0622 00BF     		.align	2
 1231              	.L81:
 1232 0624 1F000080 		.word	-2147483617
 1233 0628 1F85EB51 		.word	1374389535
 1234 062c CDCCCCCC 		.word	-858993459
 1235              		.cfi_endproc
 1236              	.LFE63:
 1237              		.size	execute, .-execute
 1238              		.text
 1239              	.Letext0:
 1240              		.file 2 "c:\\program files (x86)\\cypress\\psoc creator\\4.2\\psoc creator\\import\\gnu\\arm\\5.4.
 1241              		.file 3 "c:\\program files (x86)\\cypress\\psoc creator\\4.2\\psoc creator\\import\\gnu\\arm\\5.4.
 1242              		.file 4 "Generated_Source\\PSoC5/random.h"
 1243              		.file 5 "chip8.h"
 1244              		.file 6 "Generated_Source\\PSoC5/core_cm3.h"