ARM GAS  C:\Users\info\AppData\Local\Temp\ccWwKHd9.s 			page 1


   1              		.syntax unified
   2              		.cpu cortex-m3
   3              		.fpu softvfp
   4              		.eabi_attribute 20, 1
   5              		.eabi_attribute 21, 1
   6              		.eabi_attribute 23, 3
   7              		.eabi_attribute 24, 1
   8              		.eabi_attribute 25, 1
   9              		.eabi_attribute 26, 1
  10              		.eabi_attribute 30, 1
  11              		.eabi_attribute 34, 1
  12              		.eabi_attribute 18, 4
  13              		.thumb
  14              		.syntax unified
  15              		.file	"random.c"
  16              		.text
  17              	.Ltext0:
  18              		.section	.gnu.lto_.profile.792a7d56,"",%progbits
  19 0000 789C6361 		.ascii	"x\234ca`d`a`\000\222\225\032\000\001\204\000\254"
  19      60646061 
  19      60009295 
  19      1A000184 
  19      00AC
  20              		.text
  21              		.section	.gnu.lto_.inline.792a7d56,"",%progbits
  22 0000 789C6361 		.ascii	"x\234ca`d\000\201\233\014\010\300\311\300\300\306\312"
  22      60640081 
  22      9B0C08C0 
  22      C9C0C0C6 
  22      CA
  23 0011 C8C0C4F6 		.ascii	"\310\300\304\366A\217\201m\201<\023H\214\021S\210\211"
  23      418F816D 
  23      813C1348 
  23      8C115388 
  23      89
  24 0022 815B0628 		.ascii	"\201[\006(\304q\300\016!\304\015T9\301\017D103\2600"
  24      C471C00E 
  24      21C40D54 
  24      39C10F44 
  24      313033B0 
  25 0037 03A5992E 		.ascii	"\003\245\231.\360\303\245Y0\205X1\205\3300\205\330\031"
  25      F0C3A559 
  25      30855831 
  25      85D83085 
  25      D819
  26 0049 B8748142 		.ascii	"\270t\201B I\230{\270`\326\241\220\034\014\234\302 "
  26      2049987B 
  26      B860D6A1 
  26      901C0C9C 
  26      C220
  27 005b 37FD3241 		.ascii	"7\3752AU\011&\030\000\032\336\022\036"
  27      55092618 
  27      001ADE12 
  27      1E
  28              		.text
  29              		.section	.gnu.lto_.jmpfuncs.792a7d56,"",%progbits
  30 0000 789C6361 		.ascii	"x\234ca`d\000\001U\006\004\340\004b\240(\023\210\315"
ARM GAS  C:\Users\info\AppData\Local\Temp\ccWwKHd9.s 			page 2


  30      60640001 
  30      550604E0 
  30      0462A028 
  30      1388CD
  31 0013 CCC0C0C2 		.ascii	"\314\300\300\302\300\300\312\300\300\306\300\300\016"
  31      C0C0CAC0 
  31      C0C6C0C0 
  31      0E
  32 0020 91E60093 		.ascii	"\221\346\000\223\000\014\000\000X"
  32      000C0000 
  32      58
  33              		.text
  34              		.section	.gnu.lto_.pureconst.792a7d56,"",%progbits
  35 0000 789C6361 		.ascii	"x\234ca`d\020f``\340d\220b\224b\222b\226b\221b\225b"
  35      60641066 
  35      6060E064 
  35      90629462 
  35      92629662 
  36 0018 936297E0 		.ascii	"\223b\227\340\220\000\000\014\"\001,"
  36      9000000C 
  36      22012C
  37              		.text
  38              		.section	.gnu.lto_random_Enable.792a7d56,"",%progbits
  39 0000 789C6361 		.ascii	"x\234ca`d\000\001m \245\004\244\245\201\230\221\231"
  39      60640001 
  39      6D20A504 
  39      A4A58198 
  39      9199
  40 0012 819169C2 		.ascii	"\201\221i\3029\006\206F\016&FF\020\243\201\203\221\241"
  40      39068646 
  40      0E264646 
  40      10A38183 
  40      91A1
  41 0024 9E89B19E 		.ascii	"\236\211\261\236\361+\323_&\306C\355\317v2i.o\000\202"
  41      F12BD35F 
  41      26C643ED 
  41      CF763269 
  41      2E6F0082 
  42 0038 07473F19 		.ascii	"\007G?\0314\2548\300\330\312\314\300\360\237\011l\022"
  42      34AC38C0 
  42      D8CACCC0 
  42      F09F096C 
  42      12
  43 0049 03E37246 		.ascii	"\003\343rFM\006\240\262G\033\377M\345ek\001)S\200H2"
  43      4D06A0B2 
  43      471BFF4D 
  43      E5656B01 
  43      29538048 
  44 005e AE606403 		.ascii	"\256`d\003Y\267>\350@\303\377\377\315\015\007\246\263"
  44      59B73EE8 
  44      40C3FFFF 
  44      CD0D07A6 
  44      B3
  45 006f 1F9CC5CE 		.ascii	"\037\234\305\316\312\304\320\312\014\264\023H00|\000"
  45      CAC4D0CA 
  45      0CB41348 
  45      30307C00 
ARM GAS  C:\Users\info\AppData\Local\Temp\ccWwKHd9.s 			page 3


  46 007f AA03D9F8 		.ascii	"\252\003\331\370\221\211\011D3?c<\364\253\353\331\234"
  46      91890944 
  46      333F633C 
  46      F4ABEBD9 
  46      9C
  47 0090 0A90D666 		.ascii	"\012\220\326ff\220\355\323Z\017\235g\377\302\324\312"
  47      6690EDD3 
  47      5A0F9D67 
  47      FFC2D4CA 
  48 00a0 CCC408B2 		.ascii	"\314\304\010\262\345\345\375/]\234\020\356\357\023\215"
  48      E5E5FD2F 
  48      5D9C10EE 
  48      EF138D
  49 00af 0D2C40A1 		.ascii	"\015,@\241go7ma\233\3178\267\261\005\350.f\306U\214"
  49      676F376D 
  49      619BCF38 
  49      B7B105E8 
  49      2E66C655 
  50 00c4 328C2B19 		.ascii	"2\214+\031e\200\326\257f\234\317\310\360\214\261\371"
  50      6580D6AF 
  50      669CCFC8 
  50      F08CB1F9 
  51 00d4 071BC438 		.ascii	"\007\033\3048f\210\211[\216\034o\343\000\031\301\010"
  51      6688895B 
  51      8E1C6FE3 
  51      0019C108 
  52 00e4 046B802A 		.ascii	"\004k\200*\201\226Nc\004)\301g\330Z\240a@#\030^16\035"
  52      81964E63 
  52      0429C167 
  52      D85AA061 
  52      4023185E 
  53 00fb 98ED0E52 		.ascii	"\230\355\016R\015\366\375\007\240\263\200\016\007zC"
  53      0DF6FD07 
  53      A0B3800E 
  53      077A43
  54 010a C13D352F 		.ascii	"\301=5/\265(\261$5%>8\277\264(95& 8\337\3314\246(1/"
  54      B528B124 
  54      35253E38 
  54      BFB42839 
  54      35262038 
  55 0125 253F572F 		.ascii	"%?W/\231\001\000]\011q\367"
  55      9901005D 
  55      0971F7
  56              		.text
  57              		.section	.gnu.lto_random_Stop.792a7d56,"",%progbits
  58 0000 789C7D8F 		.ascii	"x\234}\217?K\003A\020\305\347\355\3063\006\362\011L"
  58      3F4B0341 
  58      10C5E7ED 
  58      C63306F2 
  58      094C
  59 0012 11EC0222 		.ascii	"\021\354\002\"X\370\011,\004+1m@Br\24599\264\316\236"
  59      58F8092C 
  59      042B316D 
  59      404272A5 
  59      3939B4CE 
  60 0027 9743888D 		.ascii	"\227C\210\215\205\246\223T\222h\214\242\330\330\235"
  60      85A69354 
ARM GAS  C:\Users\info\AppData\Local\Temp\ccWwKHd9.s 			page 4


  60      92688CA2 
  60      D8D89D
  61 0036 57596967 		.ascii	"WYig#\250X\034(\010\021\022\360o\316\331\\\357\300\356"
  61      23A8581C 
  61      28081112 
  61      F06FCED9 
  61      5CEFC0EE 
  62 004a ECEEBCFD 		.ascii	"\354\356\274\375\275\231\004\201tLs\232\342<\311\013"
  62      BD990481 
  62      744C739A 
  62      E23CC90B 
  63 005a 9220766E 		.ascii	"\222 vn\210\234\244\000\364A%AU\201*\006\342W \330\012"
  63      889CA400 
  63      F4412541 
  63      55812A06 
  63      E25720D8 
  64 006f 2F45AEA5 		.ascii	"/E\256\2458\236\016NfU\333\207'\211\"1\"\021Z\310\021"
  64      389E0E4E 
  64      6655DB87 
  64      27892231 
  64      22115AC8 
  65 0084 CB9ECF86 		.ascii	"\313\236\317\206{i\243\246e\331\270\2106\014mw\272\354"
  65      7B69A3A6 
  65      65D9B888 
  65      360C6D77 
  65      BAEC
  66 0096 AB287295 		.ascii	"\253(r\225?H]}\244\306\004y\222=y#\352\261N;\276\013"
  66      3F485D7D 
  66      A4C60479 
  66      923D7923 
  66      EAB14E3B 
  67 00ac A1B30C11 		.ascii	"\241\263\014\021|\325\037:k\372\253+\265{\303\013n\307"
  67      7CD51F3A 
  67      6BFAAB2B 
  67      B57BC30B 
  67      6EC7
  68 00be FBC29302 		.ascii	"\373\302\223\002\332\345\345\261_\237\210\257\337\327"
  68      DAE5E5B1 
  68      5F9F88AF 
  68      DFD7
  69 00cc 8E4AF053 		.ascii	"\216J\360S\370v~a4\261\357\324\270/\211#dp\210\014\333"
  69      F8767E61 
  69      34B1EFD4 
  69      B82F8923 
  69      6470880C 
  70 00e1 77D00485 		.ascii	"w\320\004\205p\177\214\030'c\342\375\366\335nZ#$\206"
  70      707F8C18 
  70      2763E2FD 
  70      F6DD6E5A 
  70      232486
  71 00f4 C0314BD9 		.ascii	"\3001K\331\265\001\255\371\217\326e\0323\350\025\233"
  71      B501ADF9 
  71      8FD6651A 
  71      33E8159B 
  72 0104 FEE7A256 		.ascii	"\376\347\242V\217\306\357q_\3349\317\221]0+\246]\\7"
  72      8FC6EF71 
  72      5FDC39CF 
ARM GAS  C:\Users\info\AppData\Local\Temp\ccWwKHd9.s 			page 5


  72      915D302B 
  72      A65D5C37 
  73 0118 CB2B796B 		.ascii	"\313+yk\303.\231\205\245\2745?W\260\213\225\262\265"
  73      C32E9985 
  73      A5BC353F 
  73      57B08B95 
  73      B2B5
  74 012a 3A53A23F 		.ascii	":S\242?\201]s\313"
  74      815D73CB 
  75              		.text
  76              		.section	.gnu.lto_random_ResetSeedInit.792a7d56,"",%progbits
  77 0000 789C7D50 		.ascii	"x\234}PMh\023A\024~\337\314\346\307\032\265\007\013"
  77      4D681341 
  77      147EDFCC 
  77      E6C71AB5 
  77      070B
  78 0012 82010352 		.ascii	"\202\001\003Rj/\"\210\340\335\203\350I\354\265\"\261"
  78      6A2F2288 
  78      E0DD83E8 
  78      49ECB522 
  78      B1
  79 0023 D99B26BA 		.ascii	"\331\233&\272I\317\2314Y\014\021\212\027\253A\264\202"
  79      49CF9934 
  79      590C118A 
  79      17AB41B4 
  79      82
  80 0034 94586B6C 		.ascii	"\224Xkl\332X!\240\270\306\213Z\255\030\361\017\361\207"
  80      DA5821A0 
  80      B8C68B5A 
  80      AD18F10F 
  80      F187
  81 0046 1CAA140B 		.ascii	"\034\252\024\013mU\020\241\3067\273A\005\301\007\263"
  81      6D5510A1 
  81      C637BB41 
  81      05C107B3 
  82 0056 333BF3BE 		.ascii	"3;\363\276\277g\020HWR\020\355\346}3/H\2028=G\224\011"
  82      BF671048 
  82      575210ED 
  82      E67D332F 
  82      4882383D 
  83 006d 0A401F54 		.ascii	"\012@\037T\020\224\026H\343\233X\025\250\237\234\257"
  83      10941648 
  83      E39B5815 
  83      A89F9CAF 
  84 007d 89DE92E2 		.ascii	"\211\336\222\342\372`/\234\310({\223-\211Z\302e\"\224"
  84      FA602F9C 
  84      C8287B93 
  84      2D895AC2 
  84      652294
  85 0090 D0CB5D77 		.ascii	"\320\313]w\237->\352\220[A|\256\316\346\235P\317\230"
  85      9F2D3EEA 
  85      905B417C 
  85      AECEE69D 
  85      50CF98
  86 00a3 52434A55 		.ascii	"RCJU\017)iK\340\012$#\2603\214\035a\342\013\3028zt\363"
  86      0F29694B 
  86      E00A2423 
ARM GAS  C:\Users\info\AppData\Local\Temp\ccWwKHd9.s 			page 6


  86      B0338C1D 
  86      61E20BC2 
  87 00bb C5E5A7C5 		.ascii	"\305\345\247\3055r\233\013|\177\256\360Jv_\326@\347"
  87      35729B0B 
  87      7C7FAEF0 
  87      4A765FD6 
  87      40E7
  88 00cd E55CD759 		.ascii	"\345\\\327Y\345d\"\032|\365o\260.\356mN\375<\263\316"
  88      E564221A 
  88      7CF56FB0 
  88      2EEE6D4E 
  88      FD3CB3CE 
  89 00e1 9FD3B622 		.ascii	"\237\323\266\"\230@\267g\010\327\340\347\210\3207\223"
  89      9840B767 
  89      08D7E0E7 
  89      88D03793 
  90 00f1 071DD56A 		.ascii	"\007\035\325je\225\363|}1?!:\000\255i\220~\363\261\007"
  90      6595F37C 
  90      7D313F21 
  90      3A00AD69 
  90      907EF3B1 
  91 0106 E1D71FA2 		.ascii	"\341\327\037\242%^:\366\262\020z\227M\0149o\207\273"
  91      255E3AF6 
  91      B2107A97 
  91      4D0C396F 
  91      87BB
  92 0118 5C2A0664 		.ascii	"\\*\006d\331\354'd\235/\303[\364UV\032\254^\253}~\023"
  92      D9EC2764 
  92      9D2FC35B 
  92      F455561A 
  92      AC5EAB7D 
  93 012e 48AFAABC 		.ascii	"H\257\252\274R\235\266dwZ\264\21443\032\324\204p\301"
  93      529DB664 
  93      775AB48C 
  93      34331AD4 
  93      8470C1
  94 0141 ACC3DD34 		.ascii	"\254\303\3354\217\372\217\302\213;\267\340\301}\014"
  94      8FFA8FC2 
  94      8B3BB7E0 
  94      C17D0C
  95 0150 1FB1EB4F 		.ascii	"\037\261\353O\002_\205-}n\356\361\231\233\225\366\357"
  95      025F852D 
  95      7D6EEEF1 
  95      999B95F6 
  95      EF
  96 0161 F90719A5 		.ascii	"\371\007\031\245\005.M\337+o\030\305\205L\016\266\364"
  96      052E4DDF 
  96      2B6F18C5 
  96      854C0EB6 
  96      F4
  97 0172 6312615C 		.ascii	"c\022a\\\007\207G\005\243`\312\354w\277G\327f\254\257"
  97      07874705 
  97      A360CAEC 
  97      77BF47D7 
  97      66ACAF
  98 0185 544A214D 		.ascii	"TJ!M! 1\305\235\254:\342*\376\217l\232\311\230\202\363"
  98      212031C5 
ARM GAS  C:\Users\info\AppData\Local\Temp\ccWwKHd9.s 			page 7


  98      9DAC3AE2 
  98      2AFE8F6C 
  98      9AC99882 
  99 019a E59CDB8D 		.ascii	"\345\234\333\215\215\272\235\376I\027h\361`\010UN\307"
  99      8DBA9DFE 
  99      491768F1 
  99      6008554E 
  99      C7
 100 01ab 716C19D4 		.ascii	"ql\031\324\334\215\302\303\375m\366w\247\306>\256\365"
 100      DC8DC2C3 
 100      FD6DF677 
 100      A7C63EAE 
 100      F5
 101 01bc DCCFDEF7 		.ascii	"\334\317\336\367\334?n\225\213\362\217\340\215\337\202"
 101      DC3F6E95 
 101      8BF28FE0 
 101      8DDF82
 102 01cb 33AE2068 		.ascii	"3\256 h\201g\374\272\021r\005u-\361\000y\366\254\023"
 102      8167FCBA 
 102      11720575 
 102      2DF10079 
 102      F6AC13
 103 01de D96BC64D 		.ascii	"\331k\306M+\2322c\207\373\022\203\326\200\331\177\240"
 103      2B9A3263 
 103      87FB1283 
 103      D680D97F 
 103      A0
 104 01ef 2FB16757 		.ascii	"/\261gW\277\025\215\307\022\307\266\017\220\2214\315"
 104      BF158DC7 
 104      12C7B60F 
 104      909134CD 
 105 01ff 58A7198F 		.ascii	"X\247\031\217\0369j\356\213\247L\313\032<\236J\376\002"
 105      1E396AEE 
 105      8BA74CCB 
 105      1A3C9E4A 
 105      FE02
 106 0211 D567E2C2 		.ascii	"\325g\342\302"
 107              		.text
 108              		.section	.gnu.lto_random_Read.792a7d56,"",%progbits
 109 0000 789C6361 		.ascii	"x\234ca`d\000\201\373@\254\004\304\322@\314\310\314"
 109      60640081 
 109      FB40AC04 
 109      C4D240CC 
 109      C8CC
 110 0012 C0C834E1 		.ascii	"\300\3104\341\034\003C#\007\023##\210\321\300\301\310"
 110      1C034323 
 110      07132323 
 110      88D1C0C1 
 110      C8
 111 0023 50CFC458 		.ascii	"P\317\304X\317\370\225\351/\023\343\351\357'z\2704\227"
 111      CFF895E9 
 111      2F13E3E9 
 111      EF277AB8 
 111      3497
 112 0035 37343435 		.ascii	"7445<h]\035\375\261\251U\242\225\231\201\341?\023\003"
 112      3C685D1D 
 112      FDB1A955 
ARM GAS  C:\Users\info\AppData\Local\Temp\ccWwKHd9.s 			page 8


 112      A2959981 
 112      E13F1303 
 113 0049 A3B10CA3 		.ascii	"\243\261\014\243\201\014\310\210\345\214\232\014@\245"
 113      810CC888 
 113      E58C9A0C 
 113      40A5
 114 0057 8F36FE9B 		.ascii	"\2176\376\233\312\313\326\322\000\004\012 \005@\231"
 114      CACBD6D2 
 114      00040A20 
 114      054099
 115 0066 158C6C20 		.ascii	"\025\214l +\327\007\035h\370\377\277\271\341\300m\251"
 115      2BD7071D 
 115      68F8FFBF 
 115      B9E1C06D 
 115      A9
 116 0077 A3D7A499 		.ascii	"\243\327\244\231\231\030@F0|\000*\001Y\370\221\211\011"
 116      99184046 
 116      307C002A 
 116      0159F891 
 116      8909
 117 0089 44333F63 		.ascii	"D3?c<\364\253\353\330\273\010\220\256ff\220\345\323"
 117      3CF4ABEB 
 117      D8BB0890 
 117      AE666690 
 117      E5D3
 118 009b 5A0F9D67 		.ascii	"Z\017\235g\377\302\324\312\314\310\010\262\340\302\264"
 118      FFC2D4CA 
 118      CCC808B2 
 118      E0C2B4
 119 00aa B39F7821 		.ascii	"\263\237x!\334\356\023\215\015,@\241\265\373\177\236"
 119      DCEE138D 
 119      0D2C40A1 
 119      B5FB7F9E 
 120 00ba 639ACF38 		.ascii	"c\232\3178\267\261\245\261\241!\032h.\023\343*F\031"
 120      B7B1A5B1 
 120      A1211A68 
 120      2E13E32A 
 120      4619
 121 00cc C6958C40 		.ascii	"\306\225\214@\2071\256f\234\317\310\360\212\261\251"
 121      8731AE66 
 121      9CCFC8F0 
 121      8AB1A9
 122 00db 21126A24 		.ascii	"!\022j$\003\330VF\220m@\266\202{j^jQbIjJ|p~iQrjL@p\276"
 122      03D85646 
 122      906D40B6 
 122      827B6A5E 
 122      6A516249 
 123 00fc B3694C51 		.ascii	"\263iLQb^J~\256^2\003\000\006\215\\\323"
 123      625E4A7E 
 123      AE5E3203 
 123      00068D5C 
 123      D3
 124              		.text
 125              		.section	.gnu.lto_random_WriteSeed.792a7d56,"",%progbits
 126 0000 789C258F 		.ascii	"x\234%\217=HBQ\024\307\317\377\336\207I$\255A\217\022"
 126      3D484251 
 126      14C7CFFF 
ARM GAS  C:\Users\info\AppData\Local\Temp\ccWwKHd9.s 			page 9


 126      DE874924 
 126      AD418F12 
 127 0014 1AC42582 		.ascii	"\032\304%\202himh\215\\\215\020}c\012V\263\367\251\217"
 127      68696D68 
 127      8D5C8D10 
 127      7D630A56 
 127      B3F7A98F 
 128 0028 A2962072 		.ascii	"\242\226 r+'\261/\211hr\210^B\020T\026}\314\205\220"
 128      2B27B12F 
 128      89687288 
 128      5E421054 
 128      167DCC85 
 129 003d 431058D4 		.ascii	"C\020X\324\320\240v\356\363\300\345|\360?\277\363\277"
 129      D0A076EE 
 129      F3C0E57C 
 129      F03FBFF3 
 129      BF
 130 004e 0681748C 		.ascii	"\006\201t\214q\012q\036\346\007I\020[u\"\333/\000]("
 130      710A711E 
 130      E6074910 
 130      5B7522DB 
 130      2F005D28 
 131 0062 3F282390 		.ascii	"?(#\220\301\257h\013\324\326\232U\021.+\216\267\367"
 131      C1AF680B 
 131      D4D69A55 
 131      112E2B8E 
 131      B7F7
 132 0074 66C456CE 		.ascii	"f\304V\316\220#\211\272\302#\021\312\010\263\352\362"
 132      902389BA 
 132      C22311CA 
 132      08B3EAF2 
 133 0084 E9F3B65F 		.ascii	"\351\363\266_2\227\353\263\233uw TR*\253\324\366\202"
 133      3297EBB3 
 133      9B757720 
 133      54522AAB 
 133      D4F682
 134 0097 928E04F6 		.ascii	"\222\216\004\366!y\003\223&&L\342\001\341\000!-n\234"
 134      21790393 
 134      26264CE2 
 134      01E10021 
 134      2D6E9C
 135 00aa 767602BE 		.ascii	"vv\002\276\274\306\007{P\034\302\247m\236\314\273\252"
 135      BCC6077B 
 135      501CC2A7 
 135      6D9ECCBB 
 135      AA
 136 00bb DBCD29B7 		.ascii	"\333\315)\267:r\365<j\000\336\012\265X\243]~\011\241"
 136      3A72F53C 
 136      6A00DE0A 
 136      B558A35D 
 136      7E09A1
 137 00ce B36C20EB 		.ascii	"\263l \353\236\357\015z[,\3101\273\211\332\343F\247"
 137      9EEF0D7A 
 137      5B2CC831 
 137      BB89DAE3 
 137      46A7
 138 00e0 3DAD677C 		.ascii	"=\255g|\242\340\324\356\373~\204#\205g\357\241p\367"
ARM GAS  C:\Users\info\AppData\Local\Temp\ccWwKHd9.s 			page 10


 138      A2E0D4EE 
 138      FB7E8423 
 138      8567EFA1 
 138      70F7
 139 00f2 1DE8B59B 		.ascii	"\035\350\265\233\327\2662xT\271\370\253\213\"v\355<"
 139      D7B63278 
 139      54B9F8AB 
 139      8B2276ED 
 139      3C
 140 0103 1C29710C 		.ascii	"\034)q\014\023G0\331J\005Eh\342\007\037yy\025\032\350"
 140      134730D9 
 140      4A054568 
 140      E2071F79 
 140      79151AE8 
 141 0117 FDBAC528 		.ascii	"\375\272\305(>\316V\202\263V\322J\307V\254\304b$\265"
 141      3ECE5682 
 141      B356D24A 
 141      C756ACC4 
 141      6224B5
 142 012a 9A8E5BD1 		.ascii	"\232\216[\321\271Hjf*\232\216%\023\251\245\3618\031"
 142      B9486A66 
 142      2A9A8E25 
 142      13A9A5F1 
 142      3819
 143 013c CB9695F8 		.ascii	"\313\226\225\370\007+Cs`"
 143      072B4373 
 143      60
 144              		.text
 145              		.section	.gnu.lto_random_ReadPolynomial.792a7d56,"",%progbits
 146 0000 789C6361 		.ascii	"x\234ca`d\000\201;@\254\004\304\322@\314\310\314\300"
 146      60640081 
 146      3B40AC04 
 146      C4D240CC 
 146      C8CCC0
 147 0013 C834E11C 		.ascii	"\3104\341\034\003C#\007\023##\210\321\300\301\310P\317"
 147      03432307 
 147      13232388 
 147      D1C0C1C8 
 147      50CF
 148 0025 C458CFF8 		.ascii	"\304X\317\370\225\351/\023\343\351\357'z\2704\22774"
 148      95E92F13 
 148      E3E9EF27 
 148      7AB83497 
 148      3734
 149 0037 34353C78 		.ascii	"45<x\272\210g\366\272\013\015\314\255\314\014\014\377"
 149      BA8867F6 
 149      BA0B0DCC 
 149      ADCC0C0C 
 149      FF
 150 0048 9918188D 		.ascii	"\231\030\030\215e\030\015d@f,g\324d\000\252}\264\361"
 150      65180D64 
 150      40662C67 
 150      D46400AA 
 150      7DB4F1
 151 005b DF545EB6 		.ascii	"\337T^\266\226\006 P\000)\000\312\254`d\003\331\271"
 151      96062050 
 151      002900CA 
ARM GAS  C:\Users\info\AppData\Local\Temp\ccWwKHd9.s 			page 11


 151      AC606403 
 151      D9B9
 152 006d 3EE840C3 		.ascii	">\350@\303\377\377\315\015\007f+]|\261\211\207\231\211"
 152      FFFFCD0D 
 152      07662B5D 
 152      7CB18987 
 152      9989
 153 007f 016406C3 		.ascii	"\001d\006\303\007\240\032\220\225\037\231\230@4\363"
 153      07A01A90 
 153      951F9998 
 153      4034F3
 154 008e 33C643BF 		.ascii	"3\306C\277\272\216\3654s\203\36453\203\354\237\326z"
 154      BA8EF534 
 154      7383F435 
 154      3383EC9F 
 154      D67A
 155 00a0 E83CFB17 		.ascii	"\350<\373\027\246VfFF\220\025_n->\306\017\341\256>\321"
 155      A6566646 
 155      4690155F 
 155      6E2D3EC6 
 155      0FE1AE3E 
 156 00b5 D8C00214 		.ascii	"\330\300\002\024\232\363r\3227\276\371\214s\033[\030"
 156      9AF372D2 
 156      37BEF98C 
 156      731B5B18 
 157 00c5 5B999918 		.ascii	"[\231\231\030W1\3120\256d\004:\213q5\343|F\206W\214"
 157      5731CA30 
 157      AE64043A 
 157      8B7135E3 
 157      7C468657 
 158 00da 4C50C318 		.ascii	"LP\303\030\300\0262\202,\002\262\025\334S\363R\213\022"
 158      C0163282 
 158      2C02B215 
 158      DC53F352 
 158      8B12
 159 00ec 4B5253E2 		.ascii	"KRS\342\203\363K\213\222Sc\002\202\363\235Mc\212\022"
 159      83F34B8B 
 159      92536302 
 159      82F39D4D 
 159      638A12
 160 00ff F352F273 		.ascii	"\363R\362s\365\222\031\000\260LZ\247"
 160      F5921900 
 160      B04C5AA7 
 161              		.text
 162              		.section	.gnu.lto_random_WritePolynomial.792a7d56,"",%progbits
 163 0000 789C258F 		.ascii	"x\234%\217\275KBQ\030\306\317s\216\250\210\325\037\320"
 163      BD4B4251 
 163      18C6CF73 
 163      8EA888D5 
 163      1FD0
 164 0012 1D040773 		.ascii	"\035\004\007s(\202\350/hh\215\\\215\020\275C\240\336"
 164      2882E82F 
 164      68688D5C 
 164      8D10BD43 
 164      A0DE
 165 0024 901A9A3C 		.ascii	"\220\032\232<~\\\202h\210\240\2062$$\264,\242%h\011"
 165      7E5C8268 
ARM GAS  C:\Users\info\AppData\Local\Temp\ccWwKHd9.s 			page 12


 165      88A08632 
 165      2424B42C 
 165      A2256809 
 166 0038 7188A6BE 		.ascii	"q\210\246\276\006\207&12j22\227\320\333{\256/\034\336"
 166      06872631 
 166      326A3232 
 166      97D0DB7B 
 166      AE2F1CDE 
 167 004c 0F9EF7F7 		.ascii	"\017\236\367\367>\307\301\300T\004(MR\036\247\007\301"
 167      3EC7C1C0 
 167      5404284D 
 167      521EA707 
 167      C1
 168 005d C0771E18 		.ascii	"\300w\036\030\313\2709\240\012\351\006Ks\244\361\313"
 168      CBB839A0 
 168      0AE9064B 
 168      73A4F1CB 
 169 006d FB1CF5CD 		.ascii	"\373\034\365\315\366\015\017\226%E\363\375\326{ \237"
 169      F60D0F96 
 169      2545F3FD 
 169      D67B209F 
 170 007d A4300563 		.ascii	"\2440\005c\026\267Q\014e\004I\266}x\335\363\012?\030"
 170      16B7510C 
 170      650449B6 
 170      7D78DDF3 
 170      0A3F18
 171 0090 D583C671 		.ascii	"\325\203\306q\337\0238\2212+eqI\311\201\012\004m`F\303"
 171      DF133891 
 171      322B6571 
 171      49C9810A 
 171      046D6046 
 172 00a5 B4C668C0 		.ascii	"\264\306h\300p\212\200\022\267\256\006{#\316\274\342"
 172      708A8012 
 172      B7AE067B 
 172      23CEBCE2 
 173 00b5 FB86509C 		.ascii	"\373\206P\234\301\251|^.\326\244e\345d\355\317\377\\"
 173      C1A97C5E 
 173      2ED6A465 
 173      E564EDCF 
 173      FF5C
 174 00c7 F9F13A00 		.ascii	"\371\361:\000{\207uH\244|~s\256\262h![\263\336\232\334"
 174      7B877548 
 174      A47C7E73 
 174      AEB26821 
 174      5BB3DE9A 
 175 00dc DE23458E 		.ascii	"\336#E\216\350m\324_\266\032\205\222K\015\351\312\276"
 175      E86DD45F 
 175      B61A8592 
 175      4B0DE9CA 
 175      BE
 176 00ed 597F7475 		.ascii	"Y\177tu\271)\270\355\260\373Z\272\033\033\266\325\373"
 176      B929B8ED 
 176      B0FB5ABA 
 176      1B1BB6D5 
 176      FB
 177 00fe 8C74D0A8 		.ascii	"\214t\320\250\360\271\333\033-\342(\223\207)\004\316"
 177      F0B9DB1B 
ARM GAS  C:\Users\info\AppData\Local\Temp\ccWwKHd9.s 			page 13


 177      2DE22893 
 177      872904CE 
 178 010e A1A10A8D 		.ascii	"\241\241\012\215\334\\\240\010\205\374\2423\207\037"
 178      DC5CA008 
 178      85FCA233 
 178      871F
 179 011c 130A687F 		.ascii	"\023\012h\177\274C(:Of|\363zROE\326\364\330r\310XOE"
 179      BC43283A 
 179      4F667CF3 
 179      7A524F45 
 179      D6F4D872 
 180 0134 F5F042C8 		.ascii	"\365\360B\310\230\233\015\247\"\311\230\221\230\212"
 180      989B0DA7 
 180      22C99891 
 180      988A
 181 0142 32CFAA11 		.ascii	"2\317\252\021\337H\032\211\225H\374\037%\371y\007"
 181      DF481A89 
 181      9548FC1F 
 181      25F97907 
 182              		.text
 183              		.section	.gnu.lto_random_Init.792a7d56,"",%progbits
 184 0000 789C758F 		.ascii	"x\234u\217?H\303P\020\207\357w/\215\035\254\270\353"
 184      3F48C350 
 184      1087EF77 
 184      2F8D1DAC 
 184      B8EB
 185 0012 50DCBAB8 		.ascii	"P\334\272\270\271\271\011\272\212\005\247\202\2246\243"
 185      B9B909BA 
 185      8A05A782 
 185      9436A3
 186 0021 0D049DF3 		.ascii	"\015\004\235\3634\015\352\246\242\010.N\322\372\037"
 186      340DEAA6 
 186      A2082E4E 
 186      D2FA1F
 187 0030 37B30591 		.ascii	"7\263\005\221\216:tt\021\007\021q\250\240\223\324x\257"
 187      8E3A7474 
 187      11071171 
 187      A8A093D4 
 187      78AF
 188 0042 193AE520 		.ascii	"\031:\345 \334\203\373\276\373\345,\002\231Z\2266%}"
 188      DC83FBBE 
 188      FBE52C02 
 188      995A9636 
 188      257D
 189 0054 423E2802 		.ascii	"B>(\002\357>\022m\344\0310\017\235\007\371\014\037?"
 189      EF3E126D 
 189      E419300F 
 189      9D07F90C 
 189      1F3F
 190 0066 DC67DC6F 		.ascii	"\334g\334o\275E\\ji\251\227\360D\351v\214P\021%<\330"
 190      BD455C6A 
 190      69A997F0 
 190      44E9768C 
 190      5011253C 
 191 007b 4468A144 		.ascii	"Dh\241D\202\275\336\376\035\026\354\246\301\212\351"
 191      82BDDEFE 
 191      1D16ECA6 
ARM GAS  C:\Users\info\AppData\Local\Temp\ccWwKHd9.s 			page 14


 191      C18AE9
 192 008a 106DD826 		.ascii	"\020m\330&\356f)\326I\022\350\3707wZ\260\211z241_\314"
 192      EE6629D6 
 192      4912E8F8 
 192      37775AB0 
 192      897A3234 
 193 00a1 A6AB7734 		.ascii	"\246\253w4\343\275\316\250\301\315\242(\372|\036\361"
 193      E3BDCEA8 
 193      C1CDA228 
 193      FA7C1EF1 
 194 00b1 FB7A5BEB 		.ascii	"\373z[\353\361P!a\331\2013\370fv\2603\373\315\241b\334"
 194      F1502161 
 194      D98133F8 
 194      6676B033 
 194      FBCDA162 
 195 00c6 01E7980C 		.ascii	"\001\347\230\014\225\"c\357\333\231\262d\341\"\225\273"
 195      952263EF 
 195      DB99B264 
 195      E12295BB 
 196 00d6 C1C3934A 		.ascii	"\301\303\223J\365\004\270\034\352G\235\261L_.\305\225"
 196      F504B81C 
 196      EA479DB1 
 196      4C5F2EC5 
 196      95
 197 00e7 F8433E88 		.ascii	"\370C>\210\2173\342\254\204-\301\257\005\017U\216>\260"
 197      8F33E2AC 
 197      842DC1AF 
 197      050F558E 
 197      3EB0
 198 00f9 1977E707 		.ascii	"\031w\347\007\250\251\236\034\"\347\312\017\025\027"
 198      A8A99E1C 
 198      22E7CA0F 
 198      1517
 199 0107 9C86E355 		.ascii	"\234\206\343U\327\234\372J\331]\367jNe\261\354\316\315"
 199      D79CFA4A 
 199      D95DF76A 
 199      4E65B1EC 
 199      CECD
 200 0119 54BC6AA3 		.ascii	"T\274j\243\356\256N\327\350\037\373\271\203\267"
 200      EEAE4ED7 
 200      E81FFBB9 
 200      83B7
 201              		.text
 202              		.section	.gnu.lto_random_Start.792a7d56,"",%progbits
 203 0000 789C9590 		.ascii	"x\234\225\220=O\002A\020\206gv\017\216\020H\374\001"
 203      3D4F0241 
 203      10866776 
 203      0F8E1048 
 203      FC01
 204 0012 C6103B1A 		.ascii	"\306\020;\032\265\320_`abe\244%1\010W\012\011\321\372"
 204      B5D05F60 
 204      616265A4 
 204      25310857 
 204      0A09D1FA 
 205 0026 968F0BDA 		.ascii	"\226\217\013\332\331\210\225\241\004?\341\012\213\243"
 205      D98895A1 
 205      043FE10A 
ARM GAS  C:\Users\info\AppData\Local\Temp\ccWwKHd9.s 			page 15


 205      8BA3
 206 0034 3A112D08 		.ascii	":\021-\010\321J\013m\324\202\030B\001\011\026\026x\316"
 206      D14A0B6D 
 206      D4821842 
 206      01091616 
 206      78CE
 207 0046 1E460B63 		.ascii	"\036F\013c\341$\233\331\274\373\356\274\317\256\002"
 207      E1249BD9 
 207      BCFBEEBC 
 207      CFAE02
 208 0055 08B22EA9 		.ascii	"\010\262.\251MS\237\247\205\036@\266{\003\220\3611\306"
 208      4D539FA7 
 208      851E40B6 
 208      7B0390F1 
 208      31C6
 209 0067 EB5320FC 		.ascii	"\353S \374\312\375,\210\000Ge,+\210r#|\010:\343\012"
 209      CAFD2C88 
 209      0047652C 
 209      2B887223 
 209      7C083AE3 
 210 007c EAF8C646 		.ascii	"\352\370\306F\014\033\205\216\305\302eA\365t\345\314"
 210      0C1B858E 
 210      C5C26541 
 210      F574E5CC 
 211 008c 898A8D06 		.ascii	"\211\212\215\006\007p\230\033\001X\3060\220\355\305"
 211      0770981B 
 211      0158C630 
 211      90EDC5
 212 009b FCD80B7A 		.ascii	"\374\330\013z\363\322\026\032\037b\005\275\222\243\272"
 212      F3D2161A 
 212      1F6205BD 
 212      92A3BA
 213 00aa 6A0BC7C9 		.ascii	"j\013\307\311\011\333Q/j~\225\203\301I\356\223E\306"
 213      09DB512F 
 213      6A7E9583 
 213      C149EE93 
 213      45C6
 214 00bc 0D18939D 		.ascii	"\015\030\223\235w0[\0344\263\252\274\225\343\234&\026"
 214      77305B1C 
 214      34B3AABC 
 214      95E39C26 
 214      16
 215 00cd 8DC6AD3A 		.ascii	"\215\306\255:d\006g(\003,\253\367\250\352#\261-\304"
 215      64066728 
 215      032CABF7 
 215      A8EA23B1 
 215      2DC4
 216 00df 04693BC4 		.ascii	"\004i;\304 \345n\373\256\351/\341AF\270:\307#\002?\304"
 216      20E56EFB 
 216      AEE92FE1 
 216      4146B83A 
 216      C723023F 
 217 00f4 49CA3FC6 		.ascii	"I\312?\306\022\3023\346\037r\353?S\253=\353=(\247\""
 217      12C233E6 
 217      1F72EB3F 
 217      53AB3DEB 
 217      3D28A722 
ARM GAS  C:\Users\info\AppData\Local\Temp\ccWwKHd9.s 			page 16


 218 0108 029E481F 		.ascii	"\002\236H\037H\010\016\365)\376\2129{\277\025\220\346"
 218      48080EF5 
 218      29FE8A39 
 218      7BBF1590 
 218      E6
 219 0119 DF898A43 		.ascii	"\337\211\212C\034\200\247\250\323\003<@\274\303\332"
 219      1C80A7A8 
 219      D3033C40 
 219      BCC3DA
 220 0128 F598F71F 		.ascii	"\365\230\367\037tg\337tU\242#\307y\241m\372%\017\001"
 220      7467DF74 
 220      55A223C7 
 220      79A16DFA 
 220      250F01
 221 013b 61CDE519 		.ascii	"a\315\345\0310\305\375\022\211Sj\261?q\350\007\321\374"
 221      30C5FD12 
 221      89536AB1 
 221      3F71E807 
 221      D1FC
 222 014d C2E962D6 		.ascii	"\302\351b\3266\227]\253\254>\261\322\010r\204\226\264"
 222      36975DAB 
 222      AC3EB1D2 
 222      08728496 
 222      B4
 223 015e A4968E6D 		.ascii	"\244\226\216mj\211\265Hj+\035\327\242+\221\324\342B"
 223      6A89B548 
 223      6A2B1DD7 
 223      A22B91D4 
 223      E242
 224 0170 341D4B26 		.ascii	"4\035K&R\0333q\370\004\241\002\256\207"
 224      521B3371 
 224      F804A102 
 224      AE87
 225              		.text
 226              		.section	.gnu.lto_random_backup.792a7d56,"",%progbits
 227 0000 789C6361 		.ascii	"x\234ca`d\000\001\027 \206\260\030\030\37621\256o}\262"
 227      60640001 
 227      172086B0 
 227      1818FE32 
 227      31AE6F7D 
 228 0015 92E30B53 		.ascii	"\222\343\013S+3\003\343\177F\020\377\315\316\237\274"
 228      2B3303E3 
 228      7F4610FF 
 228      CDCE9FBC 
 229 0025 103E48FA 		.ascii	"\020>H\372^\307\356s\234\026\333\032:\0264(\26423\376"
 229      5EC7EE73 
 229      9C16DB1A 
 229      3A163428 
 229      B43233FE 
 230 0039 6362605C 		.ascii	"cb`\\\301(\363\217\211\221q9\243\014\003\343JF\013\006"
 230      C128F38F 
 230      89917139 
 230      A30C03E3 
 230      4A460B06 
 231 004d 00DED418 		.ascii	"\000\336\324\030\222"
 231      92
 232              		.text
ARM GAS  C:\Users\info\AppData\Local\Temp\ccWwKHd9.s 			page 17


 233              		.section	.gnu.lto_.symbol_nodes.792a7d56,"",%progbits
 234 0000 789C55CE 		.ascii	"x\234U\316\273\021\3020\020E\321\273\372X\262\354\210"
 234      BB11C230 
 234      1045D1BB 
 234      FA58B2EC 
 234      88
 235 0011 0AA007FA 		.ascii	"\012\240\007\372[A\005\324\340\220\230\012\030bj\000"
 235      5B4105D4 
 235      E090980A 
 235      18626A00 
 236 0021 0F7530C8 		.ascii	"\017u0\310\212\330\350\316;\253@\001\241\010\340\274"
 236      8AD8E8CE 
 236      3BAB4001 
 236      A108E0BC 
 237 0031 C2E5092D 		.ascii	"\302\345\011-\327zh\020U,\014\352,$\365\026\262\006"
 237      D77A6810 
 237      552C0CEA 
 237      2C24F516 
 237      B206
 238 0043 0BA3460B 		.ascii	"\013\243F\013E\007\013N\223\205\240\331@\204\323\256"
 238      45070B4E 
 238      9385A0D9 
 238      4084D3AE 
 239 0053 7D308AF4 		.ascii	"}0\212\364\312\254c\177\000\265\356\333\236\264\374"
 239      CAAC637F 
 239      00B5EEDB 
 239      9EB4FC
 240 0062 6FEF661E 		.ascii	"o\357f\036\257\257x7\361y\267\246\201e\333)p\357u\254"
 240      AFAF7837 
 240      F179B7A6 
 240      8165DB29 
 240      70EF75AC 
 241 0076 BD70DEEE 		.ascii	"\275p\336\3569\261\336\216>\303\322&?\250\227=\036"
 241      39B1DE8E 
 241      3EC3D226 
 241      3FA8973D 
 241      1E
 242              		.text
 243              		.section	.gnu.lto_.refs.792a7d56,"",%progbits
 244 0000 789C6361 		.ascii	"x\234ca`d\340d```\342`\340dd\344da\000\000\001\215\000"
 244      6064E064 
 244      606060E2 
 244      60E06464 
 244      E4646100 
 245 0018 31       		.ascii	"1"
 246              		.text
 247              		.section	.gnu.lto_.decls.792a7d56,"",%progbits
 248 0000 789C8D95 		.ascii	"x\234\215\225kLTG\024\307\357\331Y\227\355\356\012\306"
 248      6B4C5447 
 248      14C7EFD9 
 248      5997EDEE 
 248      0AC6
 249 0012 57FC4053 		.ascii	"W\374@Sj0\341\023\2551&\266\237\332\022_i\323\022Q\333"
 249      6A30E113 
 249      AD3126B6 
 249      9FDA125F 
 249      69D31251 
ARM GAS  C:\Users\info\AppData\Local\Temp\ccWwKHd9.s 			page 18


 250 0027 A4266681 		.ascii	"\244&f\201\333\272).v]\223\362mpm\264j\253`\224\362"
 250      DBBA292E 
 250      765D93F2 
 250      6D706DB4 
 250      6AAB6094 
 251 003c D2154D05 		.ascii	"\322\025M\005\005\301'\002\"\013\310KAA\360\201PY\331"
 251      05C12702 
 251      220BC84B 
 251      4141F081 
 251      5059D9
 252 004f 6D155FA5 		.ascii	"m\025_\245@Ub-=3w\226{\227,\245\223\034v\346\336\377"
 252      4055622D 
 252      3D337796 
 252      7B972CA5 
 252      931C76E6 
 253 0065 F99DC7CC 		.ascii	"\371\235\307\314\035\364\022Hl\214\032%)\027\247y:I"
 253      1DF41248 
 253      6C8C1A25 
 253      2917A779 
 253      3A49
 254 0077 1AC361C6 		.ascii	"\032\303a\306gk%u\260u\011Z)\332\005\264*\264j\264\032"
 254      676B2575 
 254      B075095A 
 254      29DA05B4 
 254      2AB46AB4 
 255 008c B45AB47A 		.ascii	"\264Z\264z\264\006\264&\264\0264\304H\255h\335R\360"
 255      B406B426 
 255      B41634C4 
 255      48AD68DD 
 255      52F0
 256 009e 600CBD60 		.ascii	"`\014\275`G\242\335C\353\025\357@\274\2378J\247\360"
 256      47A2DD43 
 256      EB15EF40 
 256      BC9F384A 
 256      A7F0
 257 00b0 290DE1C3 		.ascii	")\015\341\303r|C\370\234\023~}h\225\032\177/Z\271\320"
 257      727C43F8 
 257      9C137E7D 
 257      68951A7F 
 257      2F5AB9D0 
 258 00c4 13E1D322 		.ascii	"\023\341\323\"j\2308\252\204\206\261\372\321\356k\342"
 258      6A9838AA 
 258      8486B1FA 
 258      D1EE6BE2 
 259 00d4 5785D057 		.ascii	"W\205\320Wkr>\027\"\347\352\020>5\377\021\243&\204\276"
 259      6B723E17 
 259      22E7EA10 
 259      3E35FF11 
 259      A32684BE 
 260 00e8 768A18B5 		.ascii	"v\212\030\265!|\330>\031\204\217W\370\261\036\370\320"
 260      217CD83E 
 260      19848F57 
 260      F8B11EF8 
 260      D0
 261 00f9 8A85669A 		.ascii	"\212\205f\232\320\325\212<Y_B\355K\203\206\305\372\353"
 261      D0D58A3C 
 261      595F42ED 
ARM GAS  C:\Users\info\AppData\Local\Temp\ccWwKHd9.s 			page 19


 261      4B8386C5 
 261      FAEB
 262 010b 173C2D8B 		.ascii	"\027<-\213\010]\275`\260\274Z'p\330\031\321\011\306"
 262      085DBD60 
 262      B0BC5A27 
 262      70D819D1 
 262      09C6
 263 011d 1D31EF44 		.ascii	"\0351\357D\353\012\021\223\215\327:p\365?r\033{\240"
 263      EB0A1193 
 263      8DD73A70 
 263      F53F721B 
 263      7BA0
 264 012f 1B40023E 		.ascii	"\033@\002>$q\216%\366D\374\262\011(\013]\240'0\336\035"
 264      24718E25 
 264      F644FCB2 
 264      09280B5D 
 264      A02730DE 
 265 0144 31E17290 		.ascii	"1\341r\220t\\\017\232\027A:\376M\360\241>\202\361\021"
 265      745C0F9A 
 265      17413AFE 
 265      4DF0A13E 
 265      82F111
 266 0157 50423094 		.ascii	"PB0\224Q\325%\256u\252\203\206'\262\027\361A\033\226"
 266      51D525AE 
 266      75AA8386 
 266      27B217F1 
 266      411B96
 267 016a A349A0E8 		.ascii	"\243I\240\350\374\221r\227\201 \023\347}\243\205\313"
 267      FC917297 
 267      812013E7 
 267      7DA385CB 
 268 017a 628B298E 		.ascii	"b\213)\216\275\224\352b\324\316tl+\313##:\230i\002="
 268      BD94EA62 
 268      D4CE746C 
 268      2BCB2323 
 268      3A986902 
 269 018f 2EFF6CCB 		.ascii	".\377l\313\361\205\343r\266\011\242p\371\272%7G7\357"
 269      F185E372 
 269      B609A270 
 269      F9BA2537 
 269      4737EF
 270 01a2 00F773D1 		.ascii	"\000\367s\321(=\254\235\013' \022\216\0036\037\212a"
 270      283DAC9D 
 270      0B272012 
 270      8E03361F 
 270      8A61
 271 01b4 1EFE4DD4 		.ascii	"\036\376M\324+$\377_/\274\306\371n\352-\243\336\341"
 271      2B24FF5F 
 271      2FBCC6F9 
 271      6EEA2DA3 
 271      DEE1
 272 01c6 C2F0032E 		.ascii	"\302\360\003.\332\214nQL\005\205@\240\010bY\2128e?\307"
 272      DA8C6E51 
 272      4C058540 
 272      A0086259 
 272      8A38653F 
 273 01db A007932F 		.ascii	"\240\007\223/\201\371\350Y\360tWU\004y\237'\372\274"
ARM GAS  C:\Users\info\AppData\Local\Temp\ccWwKHd9.s 			page 20


 273      81F9E859 
 273      F0745755 
 273      04799F27 
 273      FABC
 274 01ed 26233B0C 		.ascii	"&#;\014)\3562\352\031\272b\241{\323)\375\2003N\252\214"
 274      29EE32EA 
 274      19BA62A1 
 274      7BD329FD 
 274      80334EAA 
 275 0202 935A4629 		.ascii	"\223ZF)g<\314?\265'\214,\343\214\322\357\375EF,\"\322"
 275      673CCC3F 
 275      B5278C2C 
 275      E38CD2EF 
 275      FD45462C 
 276 0218 0463C0D6 		.ascii	"\004c\300\326O*F\247+k\366:;\303\367\217\231|\311\346"
 276      4F2A46A7 
 276      2B6BF63A 
 276      3BC3F78F 
 276      997CC9E6 
 277 022c BA4EDF89 		.ascii	"\272N\337\211\001=\304\230~a%z\367m\377*k;\366\007\316"
 277      013DC498 
 277      7E61257A 
 277      F76DFF2A 
 277      6B3BF607 
 278 0241 8109CEA8 		.ascii	"\201\011\316\250\361\"M\370w\007\245[\351`\0015\314"
 278      F1224DF8 
 278      7707A55B 
 278      E9600135 
 278      CC
 279 0252 93605124 		.ascii	"\223`Q$\274\033)\301Y\210aP\246\202\323\330\226S\330"
 279      BC1B29C1 
 279      59886150 
 279      A682D3D8 
 279      9653D8
 280 0265 160CF05B 		.ascii	"\026\014\360[\326\241\307\006=\236!\316\301\376\340"
 280      D6A1C706 
 280      3D9E21CE 
 280      C1FEE0
 281 0274 B3E2CADE 		.ascii	"\263\342\312\336'\206I;Y\316;y\036D+;\333\373\007t\201"
 281      2786493B 
 281      59CE3B79 
 281      1E442B3B 
 281      DBFB0774 
 282 0289 56BADF3C 		.ascii	"V\272\337<x\232\322\037\320Q\317tP\246\346U\246\355"
 282      789AD21F 
 282      D051CF74 
 282      50A6E655 
 282      A6ED
 283 029b C305DE87 		.ascii	"\303\005\336\207\336\316[\345\204\270\200W\332\276\253"
 283      DECE5BE5 
 283      84B88057 
 283      DABEAB
 284 02aa C115A10D 		.ascii	"\301\025\241\015\312\362Q\243V\006\355\337ez\274\313"
 284      CAF251A3 
 284      5606EDDF 
 284      657ABCCB 
 285 02ba 223ADF7D 		.ascii	"\":\337}wz6\365l\243\254\027\250\202\0125f\2056f\025"
ARM GAS  C:\Users\info\AppData\Local\Temp\ccWwKHd9.s 			page 21


 285      777A36F5 
 285      6CA3AC17 
 285      A8820A35 
 285      66853666 
 286 02cf 8FB9E3E6 		.ascii	"\217\271\343\346\330s#\331\243\304\034}\266?\035\224"
 286      D87323D9 
 286      A3C41C7D 
 286      B63F1D94 
 287 02df DC3DE507 		.ascii	"\334=\345\007U\014K\375\242\212\271\250\305Ts\314\217"
 287      550C4BFD 
 287      A28AB9A8 
 287      C55473CC 
 287      8F
 288 02f0 15675D40 		.ascii	"\025g]@\334\012&\347\301\320P\270\310&\253\377\213\214"
 288      DC0A26E7 
 288      C1D050B8 
 288      C826ABFF 
 288      8B8C
 289 0302 C06962D9 		.ascii	"\300ib\331\\R1\227\264\230\032\216)\372\371\217^\023"
 289      5C523197 
 289      B4981A8E 
 289      29FAF98F 
 289      5E13
 290 0314 39AF601E 		.ascii	"9\257`\036\235\360\373\211\310\346\205/~\034\303\262"
 290      9DF0FB89 
 290      C8E6852F 
 290      7E1CC3B2 
 291 0324 F1A8188F 		.ascii	"\361\250\030\217\026S\3131\017\012J:\302I\233\202\371"
 291      1653CB31 
 291      0F0A4A3A 
 291      C2499B82 
 291      F9
 292 0335 E9883BCB 		.ascii	"\351\210;\313\"0\243\335\332SY\247B\352\264\220z\016"
 292      2230A3DD 
 292      DA5359A7 
 292      42EAB490 
 292      7A0E
 293 0347 D97E74B0 		.ascii	"\331~t\260YO\272\025\310\316\312\214\225\242\242\277"
 293      594FBA15 
 293      C8CECA8C 
 293      95A2A2BF 
 294 0357 9BB48CCB 		.ascii	"\233\264\214\313*\343\262\226\321\300\0315\003W\216"
 294      2AE3B296 
 294      D1C01935 
 294      03578E
 295 0366 11F2BBC2 		.ascii	"\021\362\273\302\360\035\311\335mf\211P\352~y\335\342"
 295      F01DC9DD 
 295      6D668950 
 295      EA7E79DD 
 295      E2
 296 0377 D90BBC94 		.ascii	"\331\013\274\224F\225\320\010\312\005\000M\334\273\270"
 296      4695D008 
 296      CA05004D 
 296      DCBBB8
 297 0386 2AFF9591 		.ascii	"*\377\225\221\344)\267@\341\321}\005\006\305\333\363"
 297      E429B740 
 297      E1D17D05 
ARM GAS  C:\Users\info\AppData\Local\Temp\ccWwKHd9.s 			page 22


 297      06C5DBF3 
 298 0396 AA8964D3 		.ascii	"\252\211d\323:=oh\263\352\336\034po\341\356\327z\232"
 298      3A3D6F68 
 298      B3EADE1C 
 298      706FE1EE 
 298      D77A9A
 299 03a9 DF1B51BE 		.ascii	"\337\033Q\276\007\0068\377\260\276DG\316(\264\312\332"
 299      070638FF 
 299      B0BE4447 
 299      CE28B4CA 
 299      DA
 300 03ba D642B2E0 		.ascii	"\326B\262\340\010u\027P\357P\031dQ\017p\341U\205&>\022"
 300      08751750 
 300      EF501964 
 300      510F70E1 
 300      5585263E 
 301 03cf 89AFAFE0 		.ascii	"\211\257\257\340\201\203VX\200n%G\333\207u\244Na4\214"
 301      81835658 
 301      806E2547 
 301      DB8775A4 
 301      4E61348C 
 302 03e3 BDF04428 		.ascii	"\275\360D(\327\217\016\2277\006[\363\315\312\3653\003"
 302      D78F0E97 
 302      37065BF3 
 302      CDCAF533 
 302      03
 303 03f4 9775077A 		.ascii	"\227u\007z\273,\244]\221\326v>m5\221^\276\320\347\215"
 303      BB2CA45D 
 303      91D6763E 
 303      6D35915E 
 303      BED0E78D 
 304 0408 EEAE0987 		.ascii	"\356\256\011\207Y\321\3211\031\374t{(e\227\341u<\333"
 304      59D1D131 
 304      19FC747B 
 304      286597E1 
 304      753CDB
 305 041b D7F8D9BE 		.ascii	"\327\370\331\276\001\263x\0227\361\023\355\204h\350"
 305      01B37812 
 305      37F113ED 
 305      8468E8
 306 042a 82685E57 		.ascii	"\202h^W\001\373\212\275\373n/\316=I\251\313\300\023"
 306      01FB8ABD 
 306      FB6E2FCE 
 306      3D49A9CB 
 306      C013
 307 043c 6EC70499 		.ascii	"n\307\004\231^|\325\3570\377\205\221\001\261\347U\011"
 307      5E7CD5EF 
 307      30FF8591 
 307      01B1E755 
 307      09
 308 044d AB2D9D70 		.ascii	"\253-\235pmG\010\355\"\246\3457\210\247S\246\324\310"
 308      6D4708ED 
 308      22A6E537 
 308      88A753A6 
 308      D4C8
 309 045f 049268A8 		.ascii	"\004\222h\250\270fK\374\227\036\232\311V\302/\235g\376"
 309      B8664BFC 
ARM GAS  C:\Users\info\AppData\Local\Temp\ccWwKHd9.s 			page 23


 309      971E9AC9 
 309      56C22F9D 
 309      67FE
 310 0471 07D90688 		.ascii	"\007\331\006\210\231\245\270\034j\004\346s\007\241\267"
 310      99A5B81C 
 310      6A04E673 
 310      07A1B7
 311 0480 D47D6008 		.ascii	"\324}`\010I\012Y\034\334\306\232&\253\017c\225wd\372"
 311      490A591C 
 311      DCC69A26 
 311      AB0F6395 
 311      7764FA
 312 0493 C3D9BEE0 		.ascii	"\303\331\276\340F\017_\3706\223\322\025\234\336&\366"
 312      460F5FF8 
 312      3693D215 
 312      9CDE26F6 
 313 04a3 456D127B 		.ascii	"Em\022{\262Z'\341\377E\2661#\333\206o\031Lx\315\271"
 313      B25A27E1 
 313      FF45B631 
 313      23DB866F 
 313      194C78CD 
 314 04b8 FEDF35D7 		.ascii	"\376\3375\3276px,\214d)5\235\331\237\275?\014L1!\334"
 314      3670782C 
 314      8C642935 
 314      9DD99FBD 
 314      3F0C4C31 
 315 04ce 7F0DE11E 		.ascii	"\177\015\341\036\270o?\313\311L\307\317\261\027;\333"
 315      B86F3FCB 
 315      C94CC7CF 
 315      B1173BDB 
 316 04de A3167F17 		.ascii	"\243\026\177\027LJ)E\317\352=`\331\311\266\001/\260"
 316      4C4A2945 
 316      CFEA3D60 
 316      D9C9B601 
 316      2FB0
 317 04f0 992BB850 		.ascii	"\231+\270P\275\300\356\201\205\237U\374E\361\361\326"
 317      BDC0EE81 
 317      859F55FC 
 317      45F1F1D6 
 318 0500 C66B442B 		.ascii	"\306kD+fG[\025\367\011q\037\027\017\3266\327Gh\305\345"
 318      66475B15 
 318      F709711F 
 318      170FD636 
 318      D74768C5 
 319 0515 4162AF10 		.ascii	"Ab\257\020{\271\370p\356\343~s\2403{\247(\215}\366/"
 319      7BB9F870 
 319      EEE37E73 
 319      A0337BA7 
 319      288D7DF6 
 320 052a 1F7707A5 		.ascii	"\037w\007\245}?(\355~\001\357\347\360\234\356\274\253"
 320      7D3F28ED 
 320      7E01EFE7 
 320      F09CEEBC 
 320      AB
 321 053b 46ADB838 		.ascii	"F\255\2708(\023\037X\002m\361q}z\356\341\314\240\314"
 321      28131F58 
 321      026DF171 
ARM GAS  C:\Users\info\AppData\Local\Temp\ccWwKHd9.s 			page 24


 321      7D7AEEE1 
 321      CCA0CC
 322 054e 832F75BF 		.ascii	"\203/u\277\200\263\337\351\016\253=9u\343\372\245vk"
 322      80B3DFE9 
 322      0EAB3D39 
 322      75E3FAA5 
 322      766B
 323 0560 628A6C5C 		.ascii	"b\212l\\\376\351\232\250\270\205\013\245\250\345\262"
 323      FEE99AA8 
 323      B8850BA5 
 323      A8E5B2
 324 056f 5D76589D 		.ascii	"]vX\235r\362\372\204\324-\216$y]|Bj\334\342u\212:6I"
 324      72F2FA84 
 324      D42D8E24 
 324      795D7C42 
 324      6ADCE275 
 325 0587 320BBF04 		.ascii	"2\013\277\004g\352\246\331b\276J\336,;\023d9y\245\335"
 325      67EAA6D9 
 325      62BE4ADE 
 325      2C3B1364 
 325      3979A5DD 
 326 059b E69CB6C5 		.ascii	"\346\234\266\305fw.y{\022NR\2323m\223\2749v\3038h\225"
 326      66772E79 
 326      7B124E52 
 326      9A336D93 
 326      BC3976C3 
 327 05b2 6C4D9E21 		.ascii	"lM\236!\346\237;lN\231\201\346h^\306\247\246\244\331"
 327      E69F3B6C 
 327      4E9981E6 
 327      685EC6A7 
 327      A6A4D9
 328 05c5 5337DAAC 		.ascii	"S7\332\254)s\2652\365q\200\304\242[\306\323\263:\234"
 328      2973B532 
 328      F57180C4 
 328      A25BC6D3 
 328      B33A9C
 329 05d8 73E2D296 		.ascii	"s\342\322\226~gs\306\241\334\226dMI\220\223\234\266"
 329      7E6773C6 
 329      A1DC9664 
 329      4D499093 
 329      9CB6
 330 05ea 54FB5B93 		.ascii	"T\373[\223\244\026\227\366\211-\021\023\233\213^v\247"
 330      A41697F6 
 330      892D1113 
 330      9B8B5E76 
 330      A7
 331 05fb EC98E016 		.ascii	"\354\230\340\026.\3106\214\262\326\352\010\364/\321"
 331      2EC8368C 
 331      B2D6EA08 
 331      F42FD1
 332 060a 9AF4CD96 		.ascii	"\232\364\315\226Mf\231\267\021\243:e\375f,`\212>n\220"
 332      4D6699B7 
 332      11A33A65 
 332      FD662C60 
 332      8A3E6E90 
 333 061e 02BDFBE8 		.ascii	"\002\275\373\350\303\270\217\327\304\257OX\275jM\334"
 333      C3B88FD7 
ARM GAS  C:\Users\info\AppData\Local\Temp\ccWwKHd9.s 			page 25


 333      C4AF4F58 
 333      BD6A4DDC 
 334 062e 6ABD43FE 		.ascii	"j\275C\376z\311\277\241\215h\026"
 334      7AC9BFA1 
 334      8D6816
 335              		.text
 336              		.section	.gnu.lto_.symtab.792a7d56,"",%progbits
 337 0000 72616E64 		.ascii	"random_Enable\000"
 337      6F6D5F45 
 337      6E61626C 
 337      6500
 338 000e 00       		.ascii	"\000"
 339 000f 00       		.ascii	"\000"
 340 0010 00       		.ascii	"\000"
 341 0011 00000000 		.ascii	"\000\000\000\000\000\000\000\000"
 341      00000000 
 342 0019 AD000000 		.ascii	"\255\000\000\000"
 343 001d 72616E64 		.ascii	"random_Stop\000"
 343      6F6D5F53 
 343      746F7000 
 344 0029 00       		.ascii	"\000"
 345 002a 00       		.ascii	"\000"
 346 002b 00       		.ascii	"\000"
 347 002c 00000000 		.ascii	"\000\000\000\000\000\000\000\000"
 347      00000000 
 348 0034 AF000000 		.ascii	"\257\000\000\000"
 349 0038 72616E64 		.ascii	"random_ResetSeedInit\000"
 349      6F6D5F52 
 349      65736574 
 349      53656564 
 349      496E6974 
 350 004d 00       		.ascii	"\000"
 351 004e 00       		.ascii	"\000"
 352 004f 00       		.ascii	"\000"
 353 0050 00000000 		.ascii	"\000\000\000\000\000\000\000\000"
 353      00000000 
 354 0058 B8000000 		.ascii	"\270\000\000\000"
 355 005c 72616E64 		.ascii	"random_Read\000"
 355      6F6D5F52 
 355      65616400 
 356 0068 00       		.ascii	"\000"
 357 0069 00       		.ascii	"\000"
 358 006a 00       		.ascii	"\000"
 359 006b 00000000 		.ascii	"\000\000\000\000\000\000\000\000"
 359      00000000 
 360 0073 BB000000 		.ascii	"\273\000\000\000"
 361 0077 72616E64 		.ascii	"random_WriteSeed\000"
 361      6F6D5F57 
 361      72697465 
 361      53656564 
 361      00
 362 0088 00       		.ascii	"\000"
 363 0089 00       		.ascii	"\000"
 364 008a 00       		.ascii	"\000"
 365 008b 00000000 		.ascii	"\000\000\000\000\000\000\000\000"
 365      00000000 
 366 0093 BD000000 		.ascii	"\275\000\000\000"
ARM GAS  C:\Users\info\AppData\Local\Temp\ccWwKHd9.s 			page 26


 367 0097 72616E64 		.ascii	"random_ReadPolynomial\000"
 367      6F6D5F52 
 367      65616450 
 367      6F6C796E 
 367      6F6D6961 
 368 00ad 00       		.ascii	"\000"
 369 00ae 00       		.ascii	"\000"
 370 00af 00       		.ascii	"\000"
 371 00b0 00000000 		.ascii	"\000\000\000\000\000\000\000\000"
 371      00000000 
 372 00b8 BF000000 		.ascii	"\277\000\000\000"
 373 00bc 72616E64 		.ascii	"random_WritePolynomial\000"
 373      6F6D5F57 
 373      72697465 
 373      506F6C79 
 373      6E6F6D69 
 374 00d3 00       		.ascii	"\000"
 375 00d4 00       		.ascii	"\000"
 376 00d5 00       		.ascii	"\000"
 377 00d6 00000000 		.ascii	"\000\000\000\000\000\000\000\000"
 377      00000000 
 378 00de C1000000 		.ascii	"\301\000\000\000"
 379 00e2 72616E64 		.ascii	"random_Init\000"
 379      6F6D5F49 
 379      6E697400 
 380 00ee 00       		.ascii	"\000"
 381 00ef 00       		.ascii	"\000"
 382 00f0 00       		.ascii	"\000"
 383 00f1 00000000 		.ascii	"\000\000\000\000\000\000\000\000"
 383      00000000 
 384 00f9 C3000000 		.ascii	"\303\000\000\000"
 385 00fd 72616E64 		.ascii	"random_Start\000"
 385      6F6D5F53 
 385      74617274 
 385      00
 386 010a 00       		.ascii	"\000"
 387 010b 00       		.ascii	"\000"
 388 010c 00       		.ascii	"\000"
 389 010d 00000000 		.ascii	"\000\000\000\000\000\000\000\000"
 389      00000000 
 390 0115 C5000000 		.ascii	"\305\000\000\000"
 391 0119 72616E64 		.ascii	"random_initVar\000"
 391      6F6D5F69 
 391      6E697456 
 391      617200
 392 0128 00       		.ascii	"\000"
 393 0129 00       		.ascii	"\000"
 394 012a 00       		.ascii	"\000"
 395 012b 00000000 		.ascii	"\000\000\000\000\000\000\000\000"
 395      00000000 
 396 0133 CC000000 		.ascii	"\314\000\000\000"
 397 0137 72616E64 		.ascii	"random_backup\000"
 397      6F6D5F62 
 397      61636B75 
 397      7000
 398 0145 00       		.ascii	"\000"
 399 0146 00       		.ascii	"\000"
ARM GAS  C:\Users\info\AppData\Local\Temp\ccWwKHd9.s 			page 27


 400 0147 00       		.ascii	"\000"
 401 0148 00000000 		.ascii	"\000\000\000\000\000\000\000\000"
 401      00000000 
 402 0150 D9000000 		.ascii	"\331\000\000\000"
 403 0154 43794578 		.ascii	"CyExitCriticalSection\000"
 403      69744372 
 403      69746963 
 403      616C5365 
 403      6374696F 
 404 016a 00       		.ascii	"\000"
 405 016b 02       		.ascii	"\002"
 406 016c 00       		.ascii	"\000"
 407 016d 00000000 		.ascii	"\000\000\000\000\000\000\000\000"
 407      00000000 
 408 0175 C7000000 		.ascii	"\307\000\000\000"
 409 0179 4379456E 		.ascii	"CyEnterCriticalSection\000"
 409      74657243 
 409      72697469 
 409      63616C53 
 409      65637469 
 410 0190 00       		.ascii	"\000"
 411 0191 02       		.ascii	"\002"
 412 0192 00       		.ascii	"\000"
 413 0193 00000000 		.ascii	"\000\000\000\000\000\000\000\000"
 413      00000000 
 414 019b C9000000 		.ascii	"\311\000\000\000"
 415              		.text
 416              		.section	.gnu.lto_.opts,"",%progbits
 417 0000 272D666D 		.ascii	"'-fmath-errno' '-fsigned-zeros' '-ftrapping-math' '"
 417      6174682D 
 417      6572726E 
 417      6F272027 
 417      2D667369 
 418 0033 2D666E6F 		.ascii	"-fno-trapv' '-fno-strict-overflow' '-fno-openmp' '-"
 418      2D747261 
 418      70762720 
 418      272D666E 
 418      6F2D7374 
 419 0066 666E6F2D 		.ascii	"fno-openacc' '-mcpu=cortex-m3' '-mthumb' '-g' '-Og'"
 419      6F70656E 
 419      61636327 
 419      20272D6D 
 419      6370753D 
 420 0099 20272D66 		.ascii	" '-ffunction-sections' '-ffat-lto-objects' '-flto'\000"
 420      66756E63 
 420      74696F6E 
 420      2D736563 
 420      74696F6E 
 421              		.text
 422              		.cfi_sections	.debug_frame
 423              		.section	.text.random_Enable,"ax",%progbits
 424              		.align	2
 425              		.global	random_Enable
 426              		.thumb
 427              		.thumb_func
 428              		.type	random_Enable, %function
 429              	random_Enable:
ARM GAS  C:\Users\info\AppData\Local\Temp\ccWwKHd9.s 			page 28


 430              	.LFB1:
 431              		.file 1 "Generated_Source\\PSoC5\\random.c"
   1:Generated_Source\PSoC5/random.c **** /*******************************************************************************
   2:Generated_Source\PSoC5/random.c **** * File Name: random.c
   3:Generated_Source\PSoC5/random.c **** * Version 2.40
   4:Generated_Source\PSoC5/random.c **** *
   5:Generated_Source\PSoC5/random.c **** * Description:
   6:Generated_Source\PSoC5/random.c **** *  This file provides the source code to the API for the PRS component
   7:Generated_Source\PSoC5/random.c **** *
   8:Generated_Source\PSoC5/random.c **** * Note:
   9:Generated_Source\PSoC5/random.c **** *  None
  10:Generated_Source\PSoC5/random.c **** *
  11:Generated_Source\PSoC5/random.c **** ********************************************************************************
  12:Generated_Source\PSoC5/random.c **** * Copyright 2008-2013, Cypress Semiconductor Corporation.  All rights reserved.
  13:Generated_Source\PSoC5/random.c **** * You may use this file only in accordance with the license, terms, conditions,
  14:Generated_Source\PSoC5/random.c **** * disclaimers, and limitations in the end user license agreement accompanying
  15:Generated_Source\PSoC5/random.c **** * the software package with which this file was provided.
  16:Generated_Source\PSoC5/random.c **** *******************************************************************************/
  17:Generated_Source\PSoC5/random.c **** 
  18:Generated_Source\PSoC5/random.c **** #include "random.h"
  19:Generated_Source\PSoC5/random.c **** 
  20:Generated_Source\PSoC5/random.c **** uint8 random_initVar = 0u;
  21:Generated_Source\PSoC5/random.c **** 
  22:Generated_Source\PSoC5/random.c **** random_BACKUP_STRUCT random_backup =
  23:Generated_Source\PSoC5/random.c **** {
  24:Generated_Source\PSoC5/random.c ****     0x00u, /* enableState; */
  25:Generated_Source\PSoC5/random.c **** 
  26:Generated_Source\PSoC5/random.c ****     #if (random_WAKEUP_BEHAVIOUR == random__RESUMEWORK)
  27:Generated_Source\PSoC5/random.c ****         /* Save dff register for time mult */
  28:Generated_Source\PSoC5/random.c ****         #if (random_TIME_MULTIPLEXING_ENABLE)
  29:Generated_Source\PSoC5/random.c ****             random_INIT_STATE, /* dffStatus; */
  30:Generated_Source\PSoC5/random.c ****         #endif  /* End random_TIME_MULTIPLEXING_ENABLE */
  31:Generated_Source\PSoC5/random.c **** 
  32:Generated_Source\PSoC5/random.c ****         /* Save A0 and A1 registers are none-retention */
  33:Generated_Source\PSoC5/random.c ****         #if(random_PRS_SIZE <= 32u)
  34:Generated_Source\PSoC5/random.c ****             random_DEFAULT_SEED, /* seed */
  35:Generated_Source\PSoC5/random.c **** 
  36:Generated_Source\PSoC5/random.c ****         #else
  37:Generated_Source\PSoC5/random.c ****             random_DEFAULT_SEED_UPPER, /* seedUpper; */
  38:Generated_Source\PSoC5/random.c ****             random_DEFAULT_SEED_LOWER, /* seedLower; */
  39:Generated_Source\PSoC5/random.c **** 
  40:Generated_Source\PSoC5/random.c ****         #endif  /* End (random_PRS_SIZE <= 32u) */
  41:Generated_Source\PSoC5/random.c **** 
  42:Generated_Source\PSoC5/random.c ****     #endif  /* End (random_WAKEUP_BEHAVIOUR == random__RESUMEWORK) */
  43:Generated_Source\PSoC5/random.c **** };
  44:Generated_Source\PSoC5/random.c **** 
  45:Generated_Source\PSoC5/random.c **** 
  46:Generated_Source\PSoC5/random.c **** /*******************************************************************************
  47:Generated_Source\PSoC5/random.c **** * Function Name: random_Init
  48:Generated_Source\PSoC5/random.c **** ********************************************************************************
  49:Generated_Source\PSoC5/random.c **** *
  50:Generated_Source\PSoC5/random.c **** * Summary:
  51:Generated_Source\PSoC5/random.c **** *  Initializes seed and polynomial registers with initial values.
  52:Generated_Source\PSoC5/random.c **** *
  53:Generated_Source\PSoC5/random.c **** * Parameters:
  54:Generated_Source\PSoC5/random.c **** *  void
  55:Generated_Source\PSoC5/random.c **** *
ARM GAS  C:\Users\info\AppData\Local\Temp\ccWwKHd9.s 			page 29


  56:Generated_Source\PSoC5/random.c **** * Return:
  57:Generated_Source\PSoC5/random.c **** *  void
  58:Generated_Source\PSoC5/random.c **** *
  59:Generated_Source\PSoC5/random.c **** *******************************************************************************/
  60:Generated_Source\PSoC5/random.c **** void random_Init(void) 
  61:Generated_Source\PSoC5/random.c **** {
  62:Generated_Source\PSoC5/random.c ****     /* Writes seed value and ponynom value provided for customizer */
  63:Generated_Source\PSoC5/random.c ****     #if (random_PRS_SIZE <= 32u)
  64:Generated_Source\PSoC5/random.c ****         random_WritePolynomial(random_DEFAULT_POLYNOM);
  65:Generated_Source\PSoC5/random.c ****         random_WriteSeed(random_DEFAULT_SEED);
  66:Generated_Source\PSoC5/random.c ****         #if (random_RUN_MODE == random__CLOCKED)
  67:Generated_Source\PSoC5/random.c ****             random_ResetSeedInit(random_DEFAULT_SEED);
  68:Generated_Source\PSoC5/random.c ****         #endif  /* End (random_RUN_MODE == random__CLOCKED) */
  69:Generated_Source\PSoC5/random.c ****             random_Enable();
  70:Generated_Source\PSoC5/random.c ****     #else
  71:Generated_Source\PSoC5/random.c ****         random_WritePolynomialUpper(random_DEFAULT_POLYNOM_UPPER);
  72:Generated_Source\PSoC5/random.c ****         random_WritePolynomialLower(random_DEFAULT_POLYNOM_LOWER);
  73:Generated_Source\PSoC5/random.c ****         random_WriteSeedUpper(random_DEFAULT_SEED_UPPER);
  74:Generated_Source\PSoC5/random.c ****         random_WriteSeedLower(random_DEFAULT_SEED_LOWER);
  75:Generated_Source\PSoC5/random.c ****         #if (random_RUN_MODE == random__CLOCKED)
  76:Generated_Source\PSoC5/random.c ****             random_ResetSeedInitUpper(random_DEFAULT_SEED_UPPER);
  77:Generated_Source\PSoC5/random.c ****             random_ResetSeedInitLower(random_DEFAULT_SEED_LOWER);
  78:Generated_Source\PSoC5/random.c ****         #endif  /* End (random_RUN_MODE == random__CLOCKED) */
  79:Generated_Source\PSoC5/random.c ****             random_Enable();
  80:Generated_Source\PSoC5/random.c ****     #endif  /* End (random_PRS_SIZE <= 32u) */
  81:Generated_Source\PSoC5/random.c **** }
  82:Generated_Source\PSoC5/random.c **** 
  83:Generated_Source\PSoC5/random.c **** 
  84:Generated_Source\PSoC5/random.c **** /*******************************************************************************
  85:Generated_Source\PSoC5/random.c **** * Function Name: random_Enable
  86:Generated_Source\PSoC5/random.c **** ********************************************************************************
  87:Generated_Source\PSoC5/random.c **** *
  88:Generated_Source\PSoC5/random.c **** * Summary:
  89:Generated_Source\PSoC5/random.c **** *  Starts PRS computation on rising edge of input clock.
  90:Generated_Source\PSoC5/random.c **** *
  91:Generated_Source\PSoC5/random.c **** * Parameters:
  92:Generated_Source\PSoC5/random.c **** *  void
  93:Generated_Source\PSoC5/random.c **** *
  94:Generated_Source\PSoC5/random.c **** * Return:
  95:Generated_Source\PSoC5/random.c **** *  void
  96:Generated_Source\PSoC5/random.c **** *
  97:Generated_Source\PSoC5/random.c **** *******************************************************************************/
  98:Generated_Source\PSoC5/random.c **** void random_Enable(void) 
  99:Generated_Source\PSoC5/random.c **** {
 432              		.loc 1 99 0
 433              		.cfi_startproc
 434              		@ args = 0, pretend = 0, frame = 0
 435              		@ frame_needed = 0, uses_anonymous_args = 0
 436              		@ link register save eliminated.
 100:Generated_Source\PSoC5/random.c ****         random_CONTROL_REG |= random_CTRL_ENABLE;
 437              		.loc 1 100 0
 438 0000 024A     		ldr	r2, .L2
 439 0002 1378     		ldrb	r3, [r2]	@ zero_extendqisi2
 440 0004 43F00103 		orr	r3, r3, #1
 441 0008 1370     		strb	r3, [r2]
 442 000a 7047     		bx	lr
 443              	.L3:
ARM GAS  C:\Users\info\AppData\Local\Temp\ccWwKHd9.s 			page 30


 444              		.align	2
 445              	.L2:
 446 000c 7B640040 		.word	1073767547
 447              		.cfi_endproc
 448              	.LFE1:
 449              		.size	random_Enable, .-random_Enable
 450              		.section	.text.random_Stop,"ax",%progbits
 451              		.align	2
 452              		.global	random_Stop
 453              		.thumb
 454              		.thumb_func
 455              		.type	random_Stop, %function
 456              	random_Stop:
 457              	.LFB3:
 101:Generated_Source\PSoC5/random.c **** }
 102:Generated_Source\PSoC5/random.c **** 
 103:Generated_Source\PSoC5/random.c **** 
 104:Generated_Source\PSoC5/random.c **** /*******************************************************************************
 105:Generated_Source\PSoC5/random.c **** * Function Name: random_Start
 106:Generated_Source\PSoC5/random.c **** ********************************************************************************
 107:Generated_Source\PSoC5/random.c **** *
 108:Generated_Source\PSoC5/random.c **** * Summary:
 109:Generated_Source\PSoC5/random.c **** *  Initializes seed and polynomial registers with initial values. Computation
 110:Generated_Source\PSoC5/random.c **** *  of PRS starts on rising edge of input clock.
 111:Generated_Source\PSoC5/random.c **** *
 112:Generated_Source\PSoC5/random.c **** * Parameters:
 113:Generated_Source\PSoC5/random.c **** *  void
 114:Generated_Source\PSoC5/random.c **** *
 115:Generated_Source\PSoC5/random.c **** * Return:
 116:Generated_Source\PSoC5/random.c **** *  void
 117:Generated_Source\PSoC5/random.c **** *
 118:Generated_Source\PSoC5/random.c **** * Global variables:
 119:Generated_Source\PSoC5/random.c **** *  random_initVar: global variable is used to indicate initial
 120:Generated_Source\PSoC5/random.c **** *  configuration of this component.  The variable is initialized to zero and set
 121:Generated_Source\PSoC5/random.c **** *  to 1 the first time random_Start() is called. This allows
 122:Generated_Source\PSoC5/random.c **** *  enable/disable component without re-initialization in all subsequent calls
 123:Generated_Source\PSoC5/random.c **** *  to the random_Start() routine.
 124:Generated_Source\PSoC5/random.c **** *
 125:Generated_Source\PSoC5/random.c **** *******************************************************************************/
 126:Generated_Source\PSoC5/random.c **** void random_Start(void) 
 127:Generated_Source\PSoC5/random.c **** {
 128:Generated_Source\PSoC5/random.c ****     /* Writes seed value and ponynom value provided from customizer */
 129:Generated_Source\PSoC5/random.c ****     if (random_initVar == 0u)
 130:Generated_Source\PSoC5/random.c ****     {
 131:Generated_Source\PSoC5/random.c ****         random_Init();
 132:Generated_Source\PSoC5/random.c ****         random_initVar = 1u;
 133:Generated_Source\PSoC5/random.c ****     }
 134:Generated_Source\PSoC5/random.c **** 
 135:Generated_Source\PSoC5/random.c ****     random_Enable();
 136:Generated_Source\PSoC5/random.c **** }
 137:Generated_Source\PSoC5/random.c **** 
 138:Generated_Source\PSoC5/random.c **** 
 139:Generated_Source\PSoC5/random.c **** /*******************************************************************************
 140:Generated_Source\PSoC5/random.c **** * Function Name: random_Stop
 141:Generated_Source\PSoC5/random.c **** ********************************************************************************
 142:Generated_Source\PSoC5/random.c **** *
 143:Generated_Source\PSoC5/random.c **** * Summary:
ARM GAS  C:\Users\info\AppData\Local\Temp\ccWwKHd9.s 			page 31


 144:Generated_Source\PSoC5/random.c **** *  Stops PRS computation.
 145:Generated_Source\PSoC5/random.c **** *
 146:Generated_Source\PSoC5/random.c **** * Parameters:
 147:Generated_Source\PSoC5/random.c **** *  void
 148:Generated_Source\PSoC5/random.c **** *
 149:Generated_Source\PSoC5/random.c **** * Return:
 150:Generated_Source\PSoC5/random.c **** *  void
 151:Generated_Source\PSoC5/random.c **** *
 152:Generated_Source\PSoC5/random.c **** *******************************************************************************/
 153:Generated_Source\PSoC5/random.c **** void random_Stop(void) 
 154:Generated_Source\PSoC5/random.c **** {
 458              		.loc 1 154 0
 459              		.cfi_startproc
 460              		@ args = 0, pretend = 0, frame = 0
 461              		@ frame_needed = 0, uses_anonymous_args = 0
 462              		@ link register save eliminated.
 155:Generated_Source\PSoC5/random.c ****     random_CONTROL_REG &= ((uint8)~random_CTRL_ENABLE);
 463              		.loc 1 155 0
 464 0000 024A     		ldr	r2, .L5
 465 0002 1378     		ldrb	r3, [r2]	@ zero_extendqisi2
 466 0004 03F0FE03 		and	r3, r3, #254
 467 0008 1370     		strb	r3, [r2]
 468 000a 7047     		bx	lr
 469              	.L6:
 470              		.align	2
 471              	.L5:
 472 000c 7B640040 		.word	1073767547
 473              		.cfi_endproc
 474              	.LFE3:
 475              		.size	random_Stop, .-random_Stop
 476              		.section	.text.random_ResetSeedInit,"ax",%progbits
 477              		.align	2
 478              		.global	random_ResetSeedInit
 479              		.thumb
 480              		.thumb_func
 481              		.type	random_ResetSeedInit, %function
 482              	random_ResetSeedInit:
 483              	.LFB4:
 156:Generated_Source\PSoC5/random.c **** }
 157:Generated_Source\PSoC5/random.c **** 
 158:Generated_Source\PSoC5/random.c **** 
 159:Generated_Source\PSoC5/random.c **** #if (random_RUN_MODE == random__APISINGLESTEP)
 160:Generated_Source\PSoC5/random.c ****     /*******************************************************************************
 161:Generated_Source\PSoC5/random.c ****     * FUNCTION NAME: random_Step
 162:Generated_Source\PSoC5/random.c ****     ********************************************************************************
 163:Generated_Source\PSoC5/random.c ****     *
 164:Generated_Source\PSoC5/random.c ****     * Summary:
 165:Generated_Source\PSoC5/random.c ****     *  Increments the PRS by one when API single step mode is used.
 166:Generated_Source\PSoC5/random.c ****     *
 167:Generated_Source\PSoC5/random.c ****     * Parameters:
 168:Generated_Source\PSoC5/random.c ****     *  void
 169:Generated_Source\PSoC5/random.c ****     *
 170:Generated_Source\PSoC5/random.c ****     * Return:
 171:Generated_Source\PSoC5/random.c ****     *  void
 172:Generated_Source\PSoC5/random.c ****     *
 173:Generated_Source\PSoC5/random.c ****     *******************************************************************************/
 174:Generated_Source\PSoC5/random.c ****     void random_Step(void) 
ARM GAS  C:\Users\info\AppData\Local\Temp\ccWwKHd9.s 			page 32


 175:Generated_Source\PSoC5/random.c ****     {
 176:Generated_Source\PSoC5/random.c ****         #if (random_TIME_MULTIPLEXING_ENABLE)
 177:Generated_Source\PSoC5/random.c ****             /* Makes 4 pulse, 4x for Time Mult */
 178:Generated_Source\PSoC5/random.c ****             random_EXECUTE_STEP;
 179:Generated_Source\PSoC5/random.c ****             random_EXECUTE_STEP;
 180:Generated_Source\PSoC5/random.c ****             random_EXECUTE_STEP;
 181:Generated_Source\PSoC5/random.c ****             random_EXECUTE_STEP;
 182:Generated_Source\PSoC5/random.c **** 
 183:Generated_Source\PSoC5/random.c ****         #else
 184:Generated_Source\PSoC5/random.c ****             /* One pulse without Time mult required */
 185:Generated_Source\PSoC5/random.c ****             random_EXECUTE_STEP;
 186:Generated_Source\PSoC5/random.c **** 
 187:Generated_Source\PSoC5/random.c ****         #endif  /* End random_TIME_MULTIPLEXING_ENABLE */
 188:Generated_Source\PSoC5/random.c ****     }
 189:Generated_Source\PSoC5/random.c **** #endif  /* End (random_RUN_MODE == random__APISINGLESTEP) */
 190:Generated_Source\PSoC5/random.c **** 
 191:Generated_Source\PSoC5/random.c **** 
 192:Generated_Source\PSoC5/random.c **** #if (random_RUN_MODE == random__CLOCKED)
 193:Generated_Source\PSoC5/random.c ****     #if (random_PRS_SIZE <= 32u) /* 8-32 bits PRS */
 194:Generated_Source\PSoC5/random.c ****         /*******************************************************************************
 195:Generated_Source\PSoC5/random.c ****         * FUNCTION NAME: random_ResetSeedInit
 196:Generated_Source\PSoC5/random.c ****         ********************************************************************************
 197:Generated_Source\PSoC5/random.c ****         *
 198:Generated_Source\PSoC5/random.c ****         * Summary:
 199:Generated_Source\PSoC5/random.c ****         *  Increments the PRS by one when API single step mode is used.
 200:Generated_Source\PSoC5/random.c ****         *
 201:Generated_Source\PSoC5/random.c ****         * Parameters:
 202:Generated_Source\PSoC5/random.c ****         *  void
 203:Generated_Source\PSoC5/random.c ****         *
 204:Generated_Source\PSoC5/random.c ****         * Return:
 205:Generated_Source\PSoC5/random.c ****         *  void
 206:Generated_Source\PSoC5/random.c ****         *
 207:Generated_Source\PSoC5/random.c ****         *******************************************************************************/
 208:Generated_Source\PSoC5/random.c ****         void random_ResetSeedInit(uint8 seed)
 209:Generated_Source\PSoC5/random.c ****                                             
 210:Generated_Source\PSoC5/random.c ****         {
 484              		.loc 1 210 0
 485              		.cfi_startproc
 486              		@ args = 0, pretend = 0, frame = 0
 487              		@ frame_needed = 0, uses_anonymous_args = 0
 488              	.LVL0:
 489 0000 10B5     		push	{r4, lr}
 490              		.cfi_def_cfa_offset 8
 491              		.cfi_offset 4, -8
 492              		.cfi_offset 14, -4
 493 0002 0446     		mov	r4, r0
 494              	.LVL1:
 211:Generated_Source\PSoC5/random.c ****             uint8 enableInterrupts;
 212:Generated_Source\PSoC5/random.c **** 
 213:Generated_Source\PSoC5/random.c ****             /* Mask the Seed to cut unused bits */
 214:Generated_Source\PSoC5/random.c ****             seed &= random_MASK;
 215:Generated_Source\PSoC5/random.c **** 
 216:Generated_Source\PSoC5/random.c ****             /* Change AuxControl reg, need to be safety */
 217:Generated_Source\PSoC5/random.c ****             enableInterrupts = CyEnterCriticalSection();
 495              		.loc 1 217 0
 496 0004 FFF7FEFF 		bl	CyEnterCriticalSection
 497              	.LVL2:
ARM GAS  C:\Users\info\AppData\Local\Temp\ccWwKHd9.s 			page 33


 218:Generated_Source\PSoC5/random.c **** 
 219:Generated_Source\PSoC5/random.c ****             #if (random_TIME_MULTIPLEXING_ENABLE)
 220:Generated_Source\PSoC5/random.c ****                 /* Set FIFOs to single register */
 221:Generated_Source\PSoC5/random.c ****                 random_AUX_CONTROL_A_REG |= random_AUXCTRL_FIFO_SINGLE_REG;
 222:Generated_Source\PSoC5/random.c **** 
 223:Generated_Source\PSoC5/random.c ****                 #if(random_PRS_SIZE > 16u)       /* 17-32 bits PRS */
 224:Generated_Source\PSoC5/random.c ****                     random_AUX_CONTROL_B_REG |= random_AUXCTRL_FIFO_SINGLE_REG;
 225:Generated_Source\PSoC5/random.c ****                 #endif  /* End (random_PRS_SIZE <= 8u) */
 226:Generated_Source\PSoC5/random.c **** 
 227:Generated_Source\PSoC5/random.c ****                 /* AuxControl reg settings are done */
 228:Generated_Source\PSoC5/random.c ****                 CyExitCriticalSection(enableInterrupts);
 229:Generated_Source\PSoC5/random.c **** 
 230:Generated_Source\PSoC5/random.c ****                 /* Write Seed COPY */
 231:Generated_Source\PSoC5/random.c ****                 #if (random_PRS_SIZE <= 16u)          /* 16 bits PRS */
 232:Generated_Source\PSoC5/random.c ****                     random_SEED_COPY_A__A1_REG = HI8(seed);
 233:Generated_Source\PSoC5/random.c ****                     random_SEED_COPY_A__A0_REG = LO8(seed);
 234:Generated_Source\PSoC5/random.c **** 
 235:Generated_Source\PSoC5/random.c ****                 #elif (random_PRS_SIZE <= 24u)        /* 24 bits PRS */
 236:Generated_Source\PSoC5/random.c ****                     random_SEED_COPY_B__A1_REG = LO8(HI16(seed));
 237:Generated_Source\PSoC5/random.c ****                     random_SEED_COPY_B__A0_REG = HI8(seed);
 238:Generated_Source\PSoC5/random.c ****                     random_SEED_COPY_A__A0_REG = LO8(seed);
 239:Generated_Source\PSoC5/random.c **** 
 240:Generated_Source\PSoC5/random.c ****                 #else                                           /* 32 bits PRS */
 241:Generated_Source\PSoC5/random.c ****                     random_SEED_COPY_B__A1_REG = HI8(HI16(seed));
 242:Generated_Source\PSoC5/random.c ****                     random_SEED_COPY_A__A1_REG = LO8(HI16(seed));
 243:Generated_Source\PSoC5/random.c ****                     random_SEED_COPY_B__A0_REG = HI8(seed);
 244:Generated_Source\PSoC5/random.c ****                     random_SEED_COPY_A__A0_REG = LO8(seed);
 245:Generated_Source\PSoC5/random.c ****                 #endif  /* End (random_PRS_SIZE <= 32u) */
 246:Generated_Source\PSoC5/random.c **** 
 247:Generated_Source\PSoC5/random.c ****             #else
 248:Generated_Source\PSoC5/random.c ****                 /* Set FIFOs to single register */
 249:Generated_Source\PSoC5/random.c ****                 #if (random_PRS_SIZE <= 8u)      /* 8 bits PRS */
 250:Generated_Source\PSoC5/random.c ****                     random_AUX_CONTROL_A_REG |= random_AUXCTRL_FIFO_SINGLE_REG;
 498              		.loc 1 250 0
 499 0008 044A     		ldr	r2, .L9
 500 000a 1378     		ldrb	r3, [r2]	@ zero_extendqisi2
 501 000c 43F00303 		orr	r3, r3, #3
 502 0010 1370     		strb	r3, [r2]
 251:Generated_Source\PSoC5/random.c **** 
 252:Generated_Source\PSoC5/random.c ****                 #elif (random_PRS_SIZE <= 16u)      /* 16 bits PRS */
 253:Generated_Source\PSoC5/random.c ****                     random_AUX_CONTROL_A_REG  |= random_AUXCTRL_FIFO_SINGLE_REG;
 254:Generated_Source\PSoC5/random.c ****                     random_AUX_CONTROL_B_REG  |= random_AUXCTRL_FIFO_SINGLE_REG;
 255:Generated_Source\PSoC5/random.c **** 
 256:Generated_Source\PSoC5/random.c ****                 #elif (random_PRS_SIZE <= 24u)      /* 24-39 bits PRS */
 257:Generated_Source\PSoC5/random.c ****                     random_AUX_CONTROL_A_REG  |= random_AUXCTRL_FIFO_SINGLE_REG;
 258:Generated_Source\PSoC5/random.c ****                     random_AUX_CONTROL_B_REG  |= random_AUXCTRL_FIFO_SINGLE_REG;
 259:Generated_Source\PSoC5/random.c ****                     random_AUX_CONTROL_C_REG  |= random_AUXCTRL_FIFO_SINGLE_REG;
 260:Generated_Source\PSoC5/random.c **** 
 261:Generated_Source\PSoC5/random.c ****                 #elif (random_PRS_SIZE <= 32u)      /* 40-55 bits PRS */
 262:Generated_Source\PSoC5/random.c ****                     random_AUX_CONTROL_A_REG  |= random_AUXCTRL_FIFO_SINGLE_REG;
 263:Generated_Source\PSoC5/random.c ****                     random_AUX_CONTROL_B_REG  |= random_AUXCTRL_FIFO_SINGLE_REG;
 264:Generated_Source\PSoC5/random.c ****                     random_AUX_CONTROL_C_REG  |= random_AUXCTRL_FIFO_SINGLE_REG;
 265:Generated_Source\PSoC5/random.c ****                     random_AUX_CONTROL_D_REG  |= random_AUXCTRL_FIFO_SINGLE_REG;
 266:Generated_Source\PSoC5/random.c **** 
 267:Generated_Source\PSoC5/random.c ****                 #endif  /* End (random_PRS_SIZE <= 8u) */
 268:Generated_Source\PSoC5/random.c **** 
 269:Generated_Source\PSoC5/random.c ****                 /* AuxControl reg setting are done */
ARM GAS  C:\Users\info\AppData\Local\Temp\ccWwKHd9.s 			page 34


 270:Generated_Source\PSoC5/random.c ****                 CyExitCriticalSection(enableInterrupts);
 503              		.loc 1 270 0
 504 0012 FFF7FEFF 		bl	CyExitCriticalSection
 505              	.LVL3:
 271:Generated_Source\PSoC5/random.c **** 
 272:Generated_Source\PSoC5/random.c ****                 /* Write Seed COPY */
 273:Generated_Source\PSoC5/random.c ****                 CY_SET_REG8(random_SEED_COPY_PTR, seed);
 506              		.loc 1 273 0
 507 0016 024B     		ldr	r3, .L9+4
 508 0018 1C70     		strb	r4, [r3]
 509 001a 10BD     		pop	{r4, pc}
 510              	.LVL4:
 511              	.L10:
 512              		.align	2
 513              	.L9:
 514 001c 9B640040 		.word	1073767579
 515 0020 4B640040 		.word	1073767499
 516              		.cfi_endproc
 517              	.LFE4:
 518              		.size	random_ResetSeedInit, .-random_ResetSeedInit
 519              		.section	.text.random_Read,"ax",%progbits
 520              		.align	2
 521              		.global	random_Read
 522              		.thumb
 523              		.thumb_func
 524              		.type	random_Read, %function
 525              	random_Read:
 526              	.LFB5:
 274:Generated_Source\PSoC5/random.c **** 
 275:Generated_Source\PSoC5/random.c ****             #endif  /* End (random_TIME_MULTIPLEXING_ENABLE) */
 276:Generated_Source\PSoC5/random.c ****         }
 277:Generated_Source\PSoC5/random.c **** 
 278:Generated_Source\PSoC5/random.c ****     #else
 279:Generated_Source\PSoC5/random.c **** 
 280:Generated_Source\PSoC5/random.c ****         /*******************************************************************************
 281:Generated_Source\PSoC5/random.c ****         * FUNCTION NAME: random_ResetSeedInitUpper
 282:Generated_Source\PSoC5/random.c ****         ********************************************************************************
 283:Generated_Source\PSoC5/random.c ****         *
 284:Generated_Source\PSoC5/random.c ****         * Summary:
 285:Generated_Source\PSoC5/random.c ****         *  Increments the PRS by one when API single step mode is used.
 286:Generated_Source\PSoC5/random.c ****         *
 287:Generated_Source\PSoC5/random.c ****         * Parameters:
 288:Generated_Source\PSoC5/random.c ****         *  void
 289:Generated_Source\PSoC5/random.c ****         *
 290:Generated_Source\PSoC5/random.c ****         * Return:
 291:Generated_Source\PSoC5/random.c ****         *  void
 292:Generated_Source\PSoC5/random.c ****         *
 293:Generated_Source\PSoC5/random.c ****         *******************************************************************************/
 294:Generated_Source\PSoC5/random.c ****         void random_ResetSeedInitUpper(uint32 seed) 
 295:Generated_Source\PSoC5/random.c ****         {
 296:Generated_Source\PSoC5/random.c **** 			uint8 enableInterrupts;
 297:Generated_Source\PSoC5/random.c **** 
 298:Generated_Source\PSoC5/random.c **** 			/* Mask the Seed Upper half to cut unused bits */
 299:Generated_Source\PSoC5/random.c ****             seed &= random_MASK;
 300:Generated_Source\PSoC5/random.c **** 
 301:Generated_Source\PSoC5/random.c **** 			/* Change AuxControl reg, need to be safety */
 302:Generated_Source\PSoC5/random.c ****             enableInterrupts = CyEnterCriticalSection();
ARM GAS  C:\Users\info\AppData\Local\Temp\ccWwKHd9.s 			page 35


 303:Generated_Source\PSoC5/random.c **** 
 304:Generated_Source\PSoC5/random.c ****             /* Set FIFOs to single register */
 305:Generated_Source\PSoC5/random.c ****             random_AUX_CONTROL_A_REG |= random_AUXCTRL_FIFO_SINGLE_REG;
 306:Generated_Source\PSoC5/random.c ****             random_AUX_CONTROL_B_REG |= random_AUXCTRL_FIFO_SINGLE_REG;
 307:Generated_Source\PSoC5/random.c ****             random_AUX_CONTROL_C_REG |= random_AUXCTRL_FIFO_SINGLE_REG;
 308:Generated_Source\PSoC5/random.c **** 
 309:Generated_Source\PSoC5/random.c **** 			#if (random_PRS_SIZE > 48u)               /* 49-64 bits PRS */
 310:Generated_Source\PSoC5/random.c ****                 random_AUX_CONTROL_D_REG |= random_AUXCTRL_FIFO_SINGLE_REG;
 311:Generated_Source\PSoC5/random.c ****             #endif  /* End (random_PRS_SIZE <= 8u) */
 312:Generated_Source\PSoC5/random.c **** 
 313:Generated_Source\PSoC5/random.c ****             /* AuxControl reg settings are done */
 314:Generated_Source\PSoC5/random.c ****             CyExitCriticalSection(enableInterrupts);
 315:Generated_Source\PSoC5/random.c **** 
 316:Generated_Source\PSoC5/random.c ****             /* Write Seed Upper COPY */
 317:Generated_Source\PSoC5/random.c ****             #if (random_PRS_SIZE <= 40u)          /* 40 bits PRS */
 318:Generated_Source\PSoC5/random.c ****                 random_SEED_UPPER_COPY_C__A1_REG = LO8(seed);
 319:Generated_Source\PSoC5/random.c **** 
 320:Generated_Source\PSoC5/random.c ****             #elif (random_PRS_SIZE <= 48u)        /* 48 bits PRS */
 321:Generated_Source\PSoC5/random.c ****                 random_SEED_UPPER_COPY_C__A1_REG = HI8(seed);
 322:Generated_Source\PSoC5/random.c ****                 random_SEED_UPPER_COPY_B__A1_REG = LO8(seed);
 323:Generated_Source\PSoC5/random.c **** 
 324:Generated_Source\PSoC5/random.c ****             #elif (random_PRS_SIZE <= 56u)        /* 56 bits PRS */
 325:Generated_Source\PSoC5/random.c ****                 random_SEED_UPPER_COPY_D__A1_REG = LO8(HI16(seed));
 326:Generated_Source\PSoC5/random.c ****                 random_SEED_UPPER_COPY_C__A1_REG = HI8(seed);
 327:Generated_Source\PSoC5/random.c ****                 random_SEED_UPPER_COPY_B__A1_REG = HI8(seed);
 328:Generated_Source\PSoC5/random.c **** 
 329:Generated_Source\PSoC5/random.c ****             #else                                           /* 64 bits PRS */
 330:Generated_Source\PSoC5/random.c ****                 random_SEED_UPPER_COPY_D__A1_REG = HI8(HI16(seed));
 331:Generated_Source\PSoC5/random.c ****                 random_SEED_UPPER_COPY_C__A1_REG = LO8(HI16(seed));
 332:Generated_Source\PSoC5/random.c ****                 random_SEED_UPPER_COPY_B__A1_REG = HI8(seed);
 333:Generated_Source\PSoC5/random.c ****                 random_SEED_UPPER_COPY_A__A1_REG = LO8(seed);
 334:Generated_Source\PSoC5/random.c **** 
 335:Generated_Source\PSoC5/random.c ****             #endif  /* End (random_PRS_SIZE <= 32u) */
 336:Generated_Source\PSoC5/random.c ****         }
 337:Generated_Source\PSoC5/random.c **** 
 338:Generated_Source\PSoC5/random.c **** 
 339:Generated_Source\PSoC5/random.c ****         /*******************************************************************************
 340:Generated_Source\PSoC5/random.c ****         * FUNCTION NAME: random_ResetSeedInitLower
 341:Generated_Source\PSoC5/random.c ****         ********************************************************************************
 342:Generated_Source\PSoC5/random.c ****         *
 343:Generated_Source\PSoC5/random.c ****         * Summary:
 344:Generated_Source\PSoC5/random.c ****         *  Increments the PRS by one when API single step mode is used.
 345:Generated_Source\PSoC5/random.c ****         *
 346:Generated_Source\PSoC5/random.c ****         * Parameters:
 347:Generated_Source\PSoC5/random.c ****         *  void
 348:Generated_Source\PSoC5/random.c ****         *
 349:Generated_Source\PSoC5/random.c ****         * Return:
 350:Generated_Source\PSoC5/random.c ****         *  void
 351:Generated_Source\PSoC5/random.c ****         *
 352:Generated_Source\PSoC5/random.c ****         *******************************************************************************/
 353:Generated_Source\PSoC5/random.c ****         void random_ResetSeedInitLower(uint32 seed) 
 354:Generated_Source\PSoC5/random.c ****         {
 355:Generated_Source\PSoC5/random.c ****             /* Write Seed Lower COPY */
 356:Generated_Source\PSoC5/random.c ****             #if (random_PRS_SIZE <= 40u)          /* 40 bits PRS */
 357:Generated_Source\PSoC5/random.c ****                 random_SEED_LOWER_COPY_B__A1_REG = HI8(HI16(seed));
 358:Generated_Source\PSoC5/random.c ****                 random_SEED_LOWER_COPY_C__A0_REG = LO8(HI16(seed));
 359:Generated_Source\PSoC5/random.c ****                 random_SEED_LOWER_COPY_B__A0_REG = HI8(seed);
ARM GAS  C:\Users\info\AppData\Local\Temp\ccWwKHd9.s 			page 36


 360:Generated_Source\PSoC5/random.c ****                 random_SEED_LOWER_COPY_A__A0_REG = LO8(seed);
 361:Generated_Source\PSoC5/random.c **** 
 362:Generated_Source\PSoC5/random.c ****             #elif (random_PRS_SIZE <= 48u)        /* 48 bits PRS */
 363:Generated_Source\PSoC5/random.c ****                 random_SEED_LOWER_COPY_A__A1_REG = HI8(HI16(seed));
 364:Generated_Source\PSoC5/random.c ****                 random_SEED_LOWER_COPY_C__A0_REG = LO8(HI16(seed));
 365:Generated_Source\PSoC5/random.c ****                 random_SEED_LOWER_COPY_B__A0_REG = HI8(seed);
 366:Generated_Source\PSoC5/random.c ****                 random_SEED_LOWER_COPY_A__A0_REG = LO8(seed);
 367:Generated_Source\PSoC5/random.c **** 
 368:Generated_Source\PSoC5/random.c ****             #else                                           /* 64 bits PRS */
 369:Generated_Source\PSoC5/random.c ****                 random_SEED_LOWER_COPY_D__A0_REG = HI8(HI16(seed));
 370:Generated_Source\PSoC5/random.c ****                 random_SEED_LOWER_COPY_C__A0_REG = LO8(HI16(seed));
 371:Generated_Source\PSoC5/random.c ****                 random_SEED_LOWER_COPY_B__A0_REG = HI8(seed);
 372:Generated_Source\PSoC5/random.c ****                 random_SEED_LOWER_COPY_A__A0_REG = LO8(seed);
 373:Generated_Source\PSoC5/random.c **** 
 374:Generated_Source\PSoC5/random.c ****             #endif  /* End (random_PRS_SIZE <= 32u) */
 375:Generated_Source\PSoC5/random.c ****         }
 376:Generated_Source\PSoC5/random.c **** 
 377:Generated_Source\PSoC5/random.c ****     #endif  /* End (random_PRS_SIZE <= 32u) */
 378:Generated_Source\PSoC5/random.c **** 
 379:Generated_Source\PSoC5/random.c **** #endif  /* End (random_RUN_MODE == random__CLOCKED) */
 380:Generated_Source\PSoC5/random.c **** 
 381:Generated_Source\PSoC5/random.c **** 
 382:Generated_Source\PSoC5/random.c **** #if(random_PRS_SIZE <= 32u) /* 8-32 bits PRS */
 383:Generated_Source\PSoC5/random.c ****     /*******************************************************************************
 384:Generated_Source\PSoC5/random.c ****     * Function Name: random_Read
 385:Generated_Source\PSoC5/random.c ****     ********************************************************************************
 386:Generated_Source\PSoC5/random.c ****     *
 387:Generated_Source\PSoC5/random.c ****     * Summary:
 388:Generated_Source\PSoC5/random.c ****     *  Reads PRS value.
 389:Generated_Source\PSoC5/random.c ****     *
 390:Generated_Source\PSoC5/random.c ****     * Parameters:
 391:Generated_Source\PSoC5/random.c ****     *  void
 392:Generated_Source\PSoC5/random.c ****     *
 393:Generated_Source\PSoC5/random.c ****     * Return:
 394:Generated_Source\PSoC5/random.c ****     *  Returns PRS value.
 395:Generated_Source\PSoC5/random.c ****     *
 396:Generated_Source\PSoC5/random.c ****     * Side Effects:
 397:Generated_Source\PSoC5/random.c ****     *  The seed value is cut according to mask = 2^(Resolution) - 1.
 398:Generated_Source\PSoC5/random.c ****     *  For example if PRS Resolution is 14 bits the mask value is:
 399:Generated_Source\PSoC5/random.c ****     *  mask = 2^(14) - 1 = 0x3FFFu.
 400:Generated_Source\PSoC5/random.c ****     *  The seed value = 0xFFFFu is cut:
 401:Generated_Source\PSoC5/random.c ****     *  seed & mask = 0xFFFFu & 0x3FFFu = 0x3FFFu.
 402:Generated_Source\PSoC5/random.c ****     *
 403:Generated_Source\PSoC5/random.c ****     *******************************************************************************/
 404:Generated_Source\PSoC5/random.c ****     uint8 random_Read(void) 
 405:Generated_Source\PSoC5/random.c ****     {
 527              		.loc 1 405 0
 528              		.cfi_startproc
 529              		@ args = 0, pretend = 0, frame = 0
 530              		@ frame_needed = 0, uses_anonymous_args = 0
 531              		@ link register save eliminated.
 406:Generated_Source\PSoC5/random.c ****         /* Read PRS */
 407:Generated_Source\PSoC5/random.c ****         #if (random_TIME_MULTIPLEXING_ENABLE)
 408:Generated_Source\PSoC5/random.c **** 
 409:Generated_Source\PSoC5/random.c ****             uint8 seed;
 410:Generated_Source\PSoC5/random.c **** 
 411:Generated_Source\PSoC5/random.c ****             #if (random_PRS_SIZE <= 16u)          /* 16 bits PRS */
ARM GAS  C:\Users\info\AppData\Local\Temp\ccWwKHd9.s 			page 37


 412:Generated_Source\PSoC5/random.c ****                 seed = ((uint16) random_SEED_A__A1_REG) << 8u;
 413:Generated_Source\PSoC5/random.c ****                 seed |= random_SEED_A__A0_REG;
 414:Generated_Source\PSoC5/random.c **** 
 415:Generated_Source\PSoC5/random.c ****             #elif (random_PRS_SIZE <= 24u)        /* 24 bits PRS */
 416:Generated_Source\PSoC5/random.c ****                 seed = ((uint32) (random_SEED_B__A1_REG)) << 16u;
 417:Generated_Source\PSoC5/random.c ****                 seed |= ((uint32) (random_SEED_B__A0_REG)) << 8u;
 418:Generated_Source\PSoC5/random.c ****                 seed |= random_SEED_A__A0_REG;
 419:Generated_Source\PSoC5/random.c **** 
 420:Generated_Source\PSoC5/random.c ****             #else                                           /* 32 bits PRS */
 421:Generated_Source\PSoC5/random.c ****                 seed = ((uint32) random_SEED_B__A1_REG) << 24u;
 422:Generated_Source\PSoC5/random.c ****                 seed |= ((uint32) random_SEED_A__A1_REG) << 16u;
 423:Generated_Source\PSoC5/random.c ****                 seed |= ((uint32) random_SEED_B__A0_REG) << 8u;
 424:Generated_Source\PSoC5/random.c ****                 seed |= random_SEED_A__A0_REG;
 425:Generated_Source\PSoC5/random.c **** 
 426:Generated_Source\PSoC5/random.c ****             #endif  /* End (random_PRS_SIZE <= 8u) */
 427:Generated_Source\PSoC5/random.c **** 
 428:Generated_Source\PSoC5/random.c ****             return (seed  & random_MASK);
 429:Generated_Source\PSoC5/random.c **** 
 430:Generated_Source\PSoC5/random.c ****         #else
 431:Generated_Source\PSoC5/random.c **** 
 432:Generated_Source\PSoC5/random.c ****             return (CY_GET_REG8(random_SEED_PTR) & random_MASK);
 532              		.loc 1 432 0
 533 0000 014B     		ldr	r3, .L12
 534 0002 1878     		ldrb	r0, [r3]	@ zero_extendqisi2
 433:Generated_Source\PSoC5/random.c **** 
 434:Generated_Source\PSoC5/random.c ****         #endif  /* End (random_TIME_MULTIPLEXING_ENABLE) */
 435:Generated_Source\PSoC5/random.c ****     }
 535              		.loc 1 435 0
 536 0004 7047     		bx	lr
 537              	.L13:
 538 0006 00BF     		.align	2
 539              	.L12:
 540 0008 0B640040 		.word	1073767435
 541              		.cfi_endproc
 542              	.LFE5:
 543              		.size	random_Read, .-random_Read
 544              		.section	.text.random_WriteSeed,"ax",%progbits
 545              		.align	2
 546              		.global	random_WriteSeed
 547              		.thumb
 548              		.thumb_func
 549              		.type	random_WriteSeed, %function
 550              	random_WriteSeed:
 551              	.LFB6:
 436:Generated_Source\PSoC5/random.c **** 
 437:Generated_Source\PSoC5/random.c **** 
 438:Generated_Source\PSoC5/random.c ****     /*******************************************************************************
 439:Generated_Source\PSoC5/random.c ****     * Function Name: random_WriteSeed
 440:Generated_Source\PSoC5/random.c ****     ********************************************************************************
 441:Generated_Source\PSoC5/random.c ****     *
 442:Generated_Source\PSoC5/random.c ****     * Summary:
 443:Generated_Source\PSoC5/random.c ****     *  Writes seed value.
 444:Generated_Source\PSoC5/random.c ****     *
 445:Generated_Source\PSoC5/random.c ****     * Parameters:
 446:Generated_Source\PSoC5/random.c ****     *  seed:  Seed value.
 447:Generated_Source\PSoC5/random.c ****     *
 448:Generated_Source\PSoC5/random.c ****     * Return:
ARM GAS  C:\Users\info\AppData\Local\Temp\ccWwKHd9.s 			page 38


 449:Generated_Source\PSoC5/random.c ****     *  void
 450:Generated_Source\PSoC5/random.c ****     *
 451:Generated_Source\PSoC5/random.c ****     * Side Effects:
 452:Generated_Source\PSoC5/random.c ****     *  The seed value is cut according to mask = 2^(Resolution) - 1.
 453:Generated_Source\PSoC5/random.c ****     *  For example if PRS Resolution is 14 bits the mask value is:
 454:Generated_Source\PSoC5/random.c ****     *  mask = 2^(14) - 1 = 0x3FFFu.
 455:Generated_Source\PSoC5/random.c ****     *  The seed value = 0xFFFFu is cut:
 456:Generated_Source\PSoC5/random.c ****     *  seed & mask = 0xFFFFu & 0x3FFFu = 0x3FFFu.
 457:Generated_Source\PSoC5/random.c ****     *
 458:Generated_Source\PSoC5/random.c ****     *******************************************************************************/
 459:Generated_Source\PSoC5/random.c ****     void random_WriteSeed(uint8 seed) 
 460:Generated_Source\PSoC5/random.c ****     {
 552              		.loc 1 460 0
 553              		.cfi_startproc
 554              		@ args = 0, pretend = 0, frame = 0
 555              		@ frame_needed = 0, uses_anonymous_args = 0
 556              		@ link register save eliminated.
 557              	.LVL5:
 461:Generated_Source\PSoC5/random.c ****         /* Masks the Seed to cut unused bits */
 462:Generated_Source\PSoC5/random.c ****         seed &= random_MASK;
 463:Generated_Source\PSoC5/random.c **** 
 464:Generated_Source\PSoC5/random.c ****         /* Writes Seed */
 465:Generated_Source\PSoC5/random.c ****         #if (random_TIME_MULTIPLEXING_ENABLE)
 466:Generated_Source\PSoC5/random.c **** 
 467:Generated_Source\PSoC5/random.c ****             #if (random_PRS_SIZE <= 16u)          /* 16 bits PRS */
 468:Generated_Source\PSoC5/random.c ****                 random_SEED_A__A1_REG = HI8(seed);
 469:Generated_Source\PSoC5/random.c ****                 random_SEED_A__A0_REG = LO8(seed);
 470:Generated_Source\PSoC5/random.c **** 
 471:Generated_Source\PSoC5/random.c ****             #elif (random_PRS_SIZE <= 24u)        /* 24 bits PRS */
 472:Generated_Source\PSoC5/random.c ****                 random_SEED_B__A1_REG = LO8(HI16(seed));
 473:Generated_Source\PSoC5/random.c ****                 random_SEED_B__A0_REG = HI8(seed);
 474:Generated_Source\PSoC5/random.c ****                 random_SEED_A__A0_REG = LO8(seed);
 475:Generated_Source\PSoC5/random.c **** 
 476:Generated_Source\PSoC5/random.c ****             #else                                           /* 32 bits PRS */
 477:Generated_Source\PSoC5/random.c ****                 random_SEED_B__A1_REG = HI8(HI16(seed));
 478:Generated_Source\PSoC5/random.c ****                 random_SEED_A__A1_REG = LO8(HI16(seed));
 479:Generated_Source\PSoC5/random.c ****                 random_SEED_B__A0_REG = HI8(seed);
 480:Generated_Source\PSoC5/random.c ****                 random_SEED_A__A0_REG = LO8(seed);
 481:Generated_Source\PSoC5/random.c ****             #endif  /* End (random_PRS_SIZE <= 32u) */
 482:Generated_Source\PSoC5/random.c **** 
 483:Generated_Source\PSoC5/random.c ****             /* Resets triggers */
 484:Generated_Source\PSoC5/random.c ****             #if (random_WAKEUP_BEHAVIOUR == random__RESUMEWORK)
 485:Generated_Source\PSoC5/random.c ****                 if((random_sleepState & random_NORMAL_SEQUENCE) != 0u)
 486:Generated_Source\PSoC5/random.c ****                 {
 487:Generated_Source\PSoC5/random.c ****                     random_EXECUTE_DFF_RESET;
 488:Generated_Source\PSoC5/random.c ****                 }
 489:Generated_Source\PSoC5/random.c ****             #else
 490:Generated_Source\PSoC5/random.c ****                 random_EXECUTE_DFF_RESET;
 491:Generated_Source\PSoC5/random.c ****             #endif  /* (random_WAKEUP_BEHAVIOUR == random__RESUMEWORK) */
 492:Generated_Source\PSoC5/random.c **** 
 493:Generated_Source\PSoC5/random.c ****         #else
 494:Generated_Source\PSoC5/random.c **** 
 495:Generated_Source\PSoC5/random.c ****             CY_SET_REG8(random_SEED_PTR, seed);
 558              		.loc 1 495 0
 559 0000 014B     		ldr	r3, .L15
 560 0002 1870     		strb	r0, [r3]
 561 0004 7047     		bx	lr
ARM GAS  C:\Users\info\AppData\Local\Temp\ccWwKHd9.s 			page 39


 562              	.L16:
 563 0006 00BF     		.align	2
 564              	.L15:
 565 0008 0B640040 		.word	1073767435
 566              		.cfi_endproc
 567              	.LFE6:
 568              		.size	random_WriteSeed, .-random_WriteSeed
 569              		.section	.text.random_ReadPolynomial,"ax",%progbits
 570              		.align	2
 571              		.global	random_ReadPolynomial
 572              		.thumb
 573              		.thumb_func
 574              		.type	random_ReadPolynomial, %function
 575              	random_ReadPolynomial:
 576              	.LFB7:
 496:Generated_Source\PSoC5/random.c **** 
 497:Generated_Source\PSoC5/random.c ****         #endif  /* End (random_TIME_MULTIPLEXING_ENABLE) */
 498:Generated_Source\PSoC5/random.c ****     }
 499:Generated_Source\PSoC5/random.c **** 
 500:Generated_Source\PSoC5/random.c **** 
 501:Generated_Source\PSoC5/random.c ****     /*******************************************************************************
 502:Generated_Source\PSoC5/random.c ****     * Function Name: random_ReadPolynomial
 503:Generated_Source\PSoC5/random.c ****     ********************************************************************************
 504:Generated_Source\PSoC5/random.c ****     *
 505:Generated_Source\PSoC5/random.c ****     * Summary:
 506:Generated_Source\PSoC5/random.c ****     *  Reads PRS polynomial value.
 507:Generated_Source\PSoC5/random.c ****     *
 508:Generated_Source\PSoC5/random.c ****     * Parameters:
 509:Generated_Source\PSoC5/random.c ****     *  void
 510:Generated_Source\PSoC5/random.c ****     *
 511:Generated_Source\PSoC5/random.c ****     * Return:
 512:Generated_Source\PSoC5/random.c ****     *  Returns PRS polynomial value.
 513:Generated_Source\PSoC5/random.c ****     *
 514:Generated_Source\PSoC5/random.c ****     *******************************************************************************/
 515:Generated_Source\PSoC5/random.c ****     uint8 random_ReadPolynomial(void)
 516:Generated_Source\PSoC5/random.c ****                                 
 517:Generated_Source\PSoC5/random.c ****     {
 577              		.loc 1 517 0
 578              		.cfi_startproc
 579              		@ args = 0, pretend = 0, frame = 0
 580              		@ frame_needed = 0, uses_anonymous_args = 0
 581              		@ link register save eliminated.
 518:Generated_Source\PSoC5/random.c ****         /* Reads polynomial */
 519:Generated_Source\PSoC5/random.c ****         #if (random_TIME_MULTIPLEXING_ENABLE)
 520:Generated_Source\PSoC5/random.c **** 
 521:Generated_Source\PSoC5/random.c ****             uint8 polynomial;
 522:Generated_Source\PSoC5/random.c **** 
 523:Generated_Source\PSoC5/random.c ****             #if (random_PRS_SIZE <= 16u)          /* 16 bits PRS */
 524:Generated_Source\PSoC5/random.c ****                 polynomial = ((uint16) random_POLYNOM_A__D1_REG) << 8u;
 525:Generated_Source\PSoC5/random.c ****                 polynomial |= (random_POLYNOM_A__D0_REG);
 526:Generated_Source\PSoC5/random.c **** 
 527:Generated_Source\PSoC5/random.c ****             #elif (random_PRS_SIZE <= 24u)        /* 24 bits PRS */
 528:Generated_Source\PSoC5/random.c ****                 polynomial = ((uint32) random_POLYNOM_B__D1_REG) << 16u;
 529:Generated_Source\PSoC5/random.c ****                 polynomial |= ((uint32) random_POLYNOM_B__D0_REG) << 8u;
 530:Generated_Source\PSoC5/random.c ****                 polynomial |= random_POLYNOM_A__D0_REG;
 531:Generated_Source\PSoC5/random.c **** 
 532:Generated_Source\PSoC5/random.c ****             #else                                           /* 32 bits PRS */
ARM GAS  C:\Users\info\AppData\Local\Temp\ccWwKHd9.s 			page 40


 533:Generated_Source\PSoC5/random.c ****                 polynomial = ((uint32) random_POLYNOM_B__D1_REG) << 24u;
 534:Generated_Source\PSoC5/random.c ****                 polynomial |= ((uint32) random_POLYNOM_A__D1_REG) << 16u;
 535:Generated_Source\PSoC5/random.c ****                 polynomial |= ((uint32) random_POLYNOM_B__D0_REG) << 8u;
 536:Generated_Source\PSoC5/random.c ****                 polynomial |= random_POLYNOM_A__D0_REG;
 537:Generated_Source\PSoC5/random.c **** 
 538:Generated_Source\PSoC5/random.c ****             #endif  /* End (random_PRS_SIZE <= 32u) */
 539:Generated_Source\PSoC5/random.c **** 
 540:Generated_Source\PSoC5/random.c ****             return polynomial;
 541:Generated_Source\PSoC5/random.c **** 
 542:Generated_Source\PSoC5/random.c ****         #else
 543:Generated_Source\PSoC5/random.c **** 
 544:Generated_Source\PSoC5/random.c ****             return CY_GET_REG8(random_POLYNOM_PTR);
 582              		.loc 1 544 0
 583 0000 014B     		ldr	r3, .L18
 584 0002 1878     		ldrb	r0, [r3]	@ zero_extendqisi2
 545:Generated_Source\PSoC5/random.c **** 
 546:Generated_Source\PSoC5/random.c ****         #endif  /* End (random_TIME_MULTIPLEXING_ENABLE) */
 547:Generated_Source\PSoC5/random.c ****     }
 585              		.loc 1 547 0
 586 0004 7047     		bx	lr
 587              	.L19:
 588 0006 00BF     		.align	2
 589              	.L18:
 590 0008 2B640040 		.word	1073767467
 591              		.cfi_endproc
 592              	.LFE7:
 593              		.size	random_ReadPolynomial, .-random_ReadPolynomial
 594              		.section	.text.random_WritePolynomial,"ax",%progbits
 595              		.align	2
 596              		.global	random_WritePolynomial
 597              		.thumb
 598              		.thumb_func
 599              		.type	random_WritePolynomial, %function
 600              	random_WritePolynomial:
 601              	.LFB8:
 548:Generated_Source\PSoC5/random.c **** 
 549:Generated_Source\PSoC5/random.c **** 
 550:Generated_Source\PSoC5/random.c ****     /*******************************************************************************
 551:Generated_Source\PSoC5/random.c ****     * Function Name: random_WritePolynomial
 552:Generated_Source\PSoC5/random.c ****     ********************************************************************************
 553:Generated_Source\PSoC5/random.c ****     *
 554:Generated_Source\PSoC5/random.c ****     * Summary:
 555:Generated_Source\PSoC5/random.c ****     *  Writes PRS polynomial value.
 556:Generated_Source\PSoC5/random.c ****     *
 557:Generated_Source\PSoC5/random.c ****     * Parameters:
 558:Generated_Source\PSoC5/random.c ****     *  polynomial:  PRS polynomial.
 559:Generated_Source\PSoC5/random.c ****     *
 560:Generated_Source\PSoC5/random.c ****     * Return:
 561:Generated_Source\PSoC5/random.c ****     *  void
 562:Generated_Source\PSoC5/random.c ****     *
 563:Generated_Source\PSoC5/random.c ****     * Side Effects:
 564:Generated_Source\PSoC5/random.c ****     *  The polynomial value is cut according to mask = 2^(Resolution) - 1.
 565:Generated_Source\PSoC5/random.c ****     *  For example if PRS Resolution is 14 bits the mask value is:
 566:Generated_Source\PSoC5/random.c ****     *  mask = 2^(14) - 1 = 0x3FFFu.
 567:Generated_Source\PSoC5/random.c ****     *  The polynomial value = 0xFFFFu is cut:
 568:Generated_Source\PSoC5/random.c ****     *  polynomial & mask = 0xFFFFu & 0x3FFFu = 0x3FFFu.
 569:Generated_Source\PSoC5/random.c ****     *
ARM GAS  C:\Users\info\AppData\Local\Temp\ccWwKHd9.s 			page 41


 570:Generated_Source\PSoC5/random.c ****     *******************************************************************************/
 571:Generated_Source\PSoC5/random.c ****     void random_WritePolynomial(uint8 polynomial)
 572:Generated_Source\PSoC5/random.c ****                                           
 573:Generated_Source\PSoC5/random.c ****     {
 602              		.loc 1 573 0
 603              		.cfi_startproc
 604              		@ args = 0, pretend = 0, frame = 0
 605              		@ frame_needed = 0, uses_anonymous_args = 0
 606              		@ link register save eliminated.
 607              	.LVL6:
 574:Generated_Source\PSoC5/random.c ****         /* Mask polynomial to cut unused bits */
 575:Generated_Source\PSoC5/random.c ****         polynomial &= random_MASK;
 576:Generated_Source\PSoC5/random.c **** 
 577:Generated_Source\PSoC5/random.c ****         /* Write polynomial */
 578:Generated_Source\PSoC5/random.c ****         #if (random_TIME_MULTIPLEXING_ENABLE)
 579:Generated_Source\PSoC5/random.c **** 
 580:Generated_Source\PSoC5/random.c ****             #if (random_PRS_SIZE <= 16u)          /* 16 bits PRS */
 581:Generated_Source\PSoC5/random.c **** 
 582:Generated_Source\PSoC5/random.c ****                 random_POLYNOM_A__D1_REG = HI8(polynomial);
 583:Generated_Source\PSoC5/random.c ****                 random_POLYNOM_A__D0_REG = LO8(polynomial);
 584:Generated_Source\PSoC5/random.c **** 
 585:Generated_Source\PSoC5/random.c ****             #elif (random_PRS_SIZE <= 24u)        /* 24 bits PRS */
 586:Generated_Source\PSoC5/random.c ****                 random_POLYNOM_B__D1_REG = LO8(HI16(polynomial));
 587:Generated_Source\PSoC5/random.c ****                 random_POLYNOM_B__D0_REG = HI8(polynomial);
 588:Generated_Source\PSoC5/random.c ****                 random_POLYNOM_A__D0_REG = LO8(polynomial);
 589:Generated_Source\PSoC5/random.c **** 
 590:Generated_Source\PSoC5/random.c ****             #else                                           /* 32 bits PRS */
 591:Generated_Source\PSoC5/random.c ****                 random_POLYNOM_B__D1_REG = HI8(HI16(polynomial));
 592:Generated_Source\PSoC5/random.c ****                 random_POLYNOM_A__D1_REG = LO8(HI16(polynomial));
 593:Generated_Source\PSoC5/random.c ****                 random_POLYNOM_B__D0_REG = HI8(polynomial);
 594:Generated_Source\PSoC5/random.c ****                 random_POLYNOM_A__D0_REG = LO8(polynomial);
 595:Generated_Source\PSoC5/random.c **** 
 596:Generated_Source\PSoC5/random.c ****             #endif  /* End (random_PRS_SIZE <= 32u) */
 597:Generated_Source\PSoC5/random.c **** 
 598:Generated_Source\PSoC5/random.c ****             /* Resets triggers */
 599:Generated_Source\PSoC5/random.c ****             #if (random_WAKEUP_BEHAVIOUR == random__RESUMEWORK)
 600:Generated_Source\PSoC5/random.c ****                 if((random_sleepState & random_NORMAL_SEQUENCE) != 0u)
 601:Generated_Source\PSoC5/random.c ****                 {
 602:Generated_Source\PSoC5/random.c ****                     random_EXECUTE_DFF_RESET;
 603:Generated_Source\PSoC5/random.c ****                 }
 604:Generated_Source\PSoC5/random.c ****             #else
 605:Generated_Source\PSoC5/random.c ****                 random_EXECUTE_DFF_RESET;
 606:Generated_Source\PSoC5/random.c ****             #endif  /* (random_WAKEUP_BEHAVIOUR == random__RESUMEWORK) */
 607:Generated_Source\PSoC5/random.c **** 
 608:Generated_Source\PSoC5/random.c ****         #else
 609:Generated_Source\PSoC5/random.c **** 
 610:Generated_Source\PSoC5/random.c ****             CY_SET_REG8(random_POLYNOM_PTR, polynomial);
 608              		.loc 1 610 0
 609 0000 014B     		ldr	r3, .L21
 610 0002 1870     		strb	r0, [r3]
 611 0004 7047     		bx	lr
 612              	.L22:
 613 0006 00BF     		.align	2
 614              	.L21:
 615 0008 2B640040 		.word	1073767467
 616              		.cfi_endproc
 617              	.LFE8:
ARM GAS  C:\Users\info\AppData\Local\Temp\ccWwKHd9.s 			page 42


 618              		.size	random_WritePolynomial, .-random_WritePolynomial
 619              		.section	.text.random_Init,"ax",%progbits
 620              		.align	2
 621              		.global	random_Init
 622              		.thumb
 623              		.thumb_func
 624              		.type	random_Init, %function
 625              	random_Init:
 626              	.LFB0:
  61:Generated_Source\PSoC5/random.c ****     /* Writes seed value and ponynom value provided for customizer */
 627              		.loc 1 61 0
 628              		.cfi_startproc
 629              		@ args = 0, pretend = 0, frame = 0
 630              		@ frame_needed = 0, uses_anonymous_args = 0
 631 0000 08B5     		push	{r3, lr}
 632              		.cfi_def_cfa_offset 8
 633              		.cfi_offset 3, -8
 634              		.cfi_offset 14, -4
  64:Generated_Source\PSoC5/random.c ****         random_WriteSeed(random_DEFAULT_SEED);
 635              		.loc 1 64 0
 636 0002 B820     		movs	r0, #184
 637 0004 FFF7FEFF 		bl	random_WritePolynomial
 638              	.LVL7:
  65:Generated_Source\PSoC5/random.c ****         #if (random_RUN_MODE == random__CLOCKED)
 639              		.loc 1 65 0
 640 0008 FF20     		movs	r0, #255
 641 000a FFF7FEFF 		bl	random_WriteSeed
 642              	.LVL8:
  67:Generated_Source\PSoC5/random.c ****         #endif  /* End (random_RUN_MODE == random__CLOCKED) */
 643              		.loc 1 67 0
 644 000e FF20     		movs	r0, #255
 645 0010 FFF7FEFF 		bl	random_ResetSeedInit
 646              	.LVL9:
  69:Generated_Source\PSoC5/random.c ****     #else
 647              		.loc 1 69 0
 648 0014 FFF7FEFF 		bl	random_Enable
 649              	.LVL10:
 650 0018 08BD     		pop	{r3, pc}
 651              		.cfi_endproc
 652              	.LFE0:
 653              		.size	random_Init, .-random_Init
 654 001a 00BF     		.section	.text.random_Start,"ax",%progbits
 655              		.align	2
 656              		.global	random_Start
 657              		.thumb
 658              		.thumb_func
 659              		.type	random_Start, %function
 660              	random_Start:
 661              	.LFB2:
 127:Generated_Source\PSoC5/random.c ****     /* Writes seed value and ponynom value provided from customizer */
 662              		.loc 1 127 0
 663              		.cfi_startproc
 664              		@ args = 0, pretend = 0, frame = 0
 665              		@ frame_needed = 0, uses_anonymous_args = 0
 666 0000 08B5     		push	{r3, lr}
 667              		.cfi_def_cfa_offset 8
 668              		.cfi_offset 3, -8
ARM GAS  C:\Users\info\AppData\Local\Temp\ccWwKHd9.s 			page 43


 669              		.cfi_offset 14, -4
 129:Generated_Source\PSoC5/random.c ****     {
 670              		.loc 1 129 0
 671 0002 054B     		ldr	r3, .L28
 672 0004 1B78     		ldrb	r3, [r3]	@ zero_extendqisi2
 673 0006 23B9     		cbnz	r3, .L26
 131:Generated_Source\PSoC5/random.c ****         random_initVar = 1u;
 674              		.loc 1 131 0
 675 0008 FFF7FEFF 		bl	random_Init
 676              	.LVL11:
 132:Generated_Source\PSoC5/random.c ****     }
 677              		.loc 1 132 0
 678 000c 0122     		movs	r2, #1
 679 000e 024B     		ldr	r3, .L28
 680 0010 1A70     		strb	r2, [r3]
 681              	.L26:
 135:Generated_Source\PSoC5/random.c **** }
 682              		.loc 1 135 0
 683 0012 FFF7FEFF 		bl	random_Enable
 684              	.LVL12:
 685 0016 08BD     		pop	{r3, pc}
 686              	.L29:
 687              		.align	2
 688              	.L28:
 689 0018 00000000 		.word	.LANCHOR0
 690              		.cfi_endproc
 691              	.LFE2:
 692              		.size	random_Start, .-random_Start
 693              		.global	random_backup
 694              		.global	random_initVar
 695              		.data
 696              		.align	2
 697              		.type	random_backup, %object
 698              		.size	random_backup, 2
 699              	random_backup:
 700 0000 00       		.byte	0
 701 0001 FF       		.byte	-1
 702              		.bss
 703              		.set	.LANCHOR0,. + 0
 704              		.type	random_initVar, %object
 705              		.size	random_initVar, 1
 706              	random_initVar:
 707 0000 00       		.space	1
 708              		.text
 709              	.Letext0:
 710              		.file 2 "Generated_Source\\PSoC5\\cytypes.h"
 711              		.file 3 "Generated_Source\\PSoC5\\random.h"
 712              		.file 4 "Generated_Source\\PSoC5\\CyLib.h"