ARM GAS  C:\Users\info\AppData\Local\Temp\cc0jGN9c.s 			page 1


   1              		.syntax unified
   2              		.cpu cortex-m3
   3              		.fpu softvfp
   4              		.eabi_attribute 20, 1
   5              		.eabi_attribute 21, 1
   6              		.eabi_attribute 23, 3
   7              		.eabi_attribute 24, 1
   8              		.eabi_attribute 25, 1
   9              		.eabi_attribute 26, 1
  10              		.eabi_attribute 30, 1
  11              		.eabi_attribute 34, 1
  12              		.eabi_attribute 18, 4
  13              		.thumb
  14              		.syntax unified
  15              		.file	"Row_2.c"
  16              		.text
  17              	.Ltext0:
  18              		.section	.gnu.lto_.profile.792a07d5,"",%progbits
  19 0000 789C6361 		.ascii	"x\234ca`d`a`\000\222bB\000\000\250\0003"
  19      60646061 
  19      60009262 
  19      420000A8 
  19      0033
  20              		.text
  21              		.section	.gnu.lto_.inline.792a07d5,"",%progbits
  22 0000 789C6361 		.ascii	"x\234ca`d\000\001?\006\004`a`\340`gd`\342\232\340\307"
  22      60640001 
  22      3F060460 
  22      6160E060 
  22      676460E2 
  23 0017 C0B6409E 		.ascii	"\300\266@\236\011$\306\210)\304\304\300\312\002\024"
  23      0924C688 
  23      29C4C4C0 
  23      CA0214
  24 0026 6259200F 		.ascii	"bY \017\027b\306\024b\000\000(2\007\014"
  24      1762C614 
  24      62000028 
  24      32070C
  25              		.text
  26              		.section	.gnu.lto_.jmpfuncs.792a07d5,"",%progbits
  27 0000 789C6361 		.ascii	"x\234ca`d\000\001>\006\004`\001b\240(\023\003\0033\220"
  27      60640001 
  27      3E060460 
  27      0162A028 
  27      13030333 
  28 0015 05000292 		.ascii	"\005\000\002\222\000\036"
  28      001E
  29              		.text
  30              		.section	.gnu.lto_.pureconst.792a07d5,"",%progbits
  31 0000 789C6361 		.ascii	"x\234ca`d\340d```a\220b\224b\222b\226\002\000\002\261"
  31      6064E064 
  31      60606061 
  31      90629462 
  31      92629602 
  32 0017 0081     		.ascii	"\000\201"
  33              		.text
  34              		.section	.gnu.lto_Row_2_Write.792a07d5,"",%progbits
ARM GAS  C:\Users\info\AppData\Local\Temp\cc0jGN9c.s 			page 2


  35 0000 789C5550 		.ascii	"x\234UPMK\033Q\024\275\347\275\314$h\355\037h\240R\020"
  35      4D4B1B51 
  35      14BDE7BD 
  35      CC2468ED 
  35      1F68A052 
  36 0015 7523A2F4 		.ascii	"u#\242\364\017\264\213n\213n\003\022\322Y\010j@c]\372"
  36      0FB48B6E 
  36      8B6E0312 
  36      D259086A 
  36      40635DFA 
  37 0029 C61803BA 		.ascii	"\306\030\003\272q\321*\005\255\240\210\332\0175\202"
  37      71D12A05 
  37      ADA088DA 
  37      0F3582
  38 0038 0BC1C530 		.ascii	"\013\301\3050k\321\215\010\255R\304\305\010]\224\010"
  38      6BD18D08 
  38      AD52C4C5 
  38      085D9408 
  39 0048 0D4A6D4D 		.ascii	"\015JmM\357\235\267\321\013\357\353\276s\316=\367&\010"
  39      EF9DB7D1 
  39      0BEFEBBE 
  39      73CE3DF7 
  39      2608
  40 005a 148722EA 		.ascii	"\024\207\"\352\342\343\011/h\202\232=$\362S\012\220"
  40      E2E3092F 
  40      68829A3D 
  40      24F2530A 
  40      90
  41 006b 8B4981C6 		.ascii	"\213I\201\306\025\306QS\377\024\302r\264\247\332\327"
  41      15C65153 
  41      FF14C272 
  41      B4A7DAD7 
  42 007b 0CC7F9EA 		.ascii	"\014\307\371\352Gm\326\003\2244Q]Y%\254\241\235Q\227"
  42      476DD603 
  42      9434515D 
  42      5925ACA1 
  42      9D5197
  43 008e FBE563E8 		.ascii	"\373\345c\350g \276O\205\265jc\353\2521\023\306\\e\214"
  43      6720BE4F 
  43      85B56A63 
  43      EBAA3113 
  43      C65C658C 
  44 00a2 2E69601D 		.ascii	".i`\035\232\031\350N\2433M\234 l\240U\3007\337\2177"
  44      9A19E84E 
  44      A3334D9C 
  44      206CA055 
  44      C037DF8F 
  45 00b7 1FEBB698 		.ascii	"\037\353\266\2308k\242\345G-+B\014\256\007\347M\340"
  45      386BA2E5 
  45      472D2B42 
  45      0CAE07E7 
  45      4DE0
  46 00c9 370BF7D3 		.ascii	"7\013\367\323}\256\004C/*w\357\233\334Iq\325\214\317"
  46      7DAE0443 
  46      2F2A77EF 
  46      9BDC4971 
  46      D58CCF
ARM GAS  C:\Users\info\AppData\Local\Temp\cc0jGN9c.s 			page 3


  47 00dc 68B17EF0 		.ascii	"h\261~\360\005.w\010\311l\365\004\246^/\232\240\346"
  47      052E7708 
  47      C96CF504 
  47      A65E2F9A 
  47      A0E6
  48 00ee D4744A71 		.ascii	"\324tJqQ\305\235\362G\002R\333\221\204+\033Q\225\227"
  48      51C59DF2 
  48      470252DB 
  48      91842B1B 
  48      519597
  49 0101 347EA594 		.ascii	"4~\245\224\234:B\370g\372\307|R\344\212Z\2060W\012\217"
  49      9C3A42F8 
  49      67FAC77C 
  49      52E48A5A 
  49      8630570A 
  50 0116 92BF5549 		.ascii	"\222\277UI\353\330\350\267\323\017\277\\\373\334^\366"
  50      EBD8E8B7 
  50      D30FBF5C 
  50      FBDC5EF6 
  51 0126 4D8253E7 		.ascii	"M\202S\347\323\013\267\311%,\372\223<\236\0046\221\306"
  51      D30BB7C9 
  51      252CFA93 
  51      3C9E0436 
  51      91C6
  52 0138 57B05D6C 		.ascii	"W\260]la\011\024\241\370w\352\014VP[\315\323\231\223"
  52      610914A1 
  52      F877EA0C 
  52      56505BCD 
  52      D39993
  53 014b 774D2202 		.ascii	"wM\"\002\334\001\333\014\276\200\212;`\223\214\262\244"
  53      DC01DB0C 
  53      BE808A3B 
  53      60938CB2 
  53      A4
  54 015c E8525B96 		.ascii	"\350R[\226S\324Rg\267|Pi\020\026\267\201\012\223\030"
  54      53D45267 
  54      B77C5069 
  54      1016B781 
  54      0A9318
  55 016f 75E35A88 		.ascii	"u\343Z\210\325v8\025\316\305\265\036\370\362\215i|h"
  55      D5763815 
  55      CEC5B51E 
  55      F8F28D69 
  55      7C68
  56 0181 6D87AD31 		.ascii	"m\207\2551\213~b\"\270u\204\020\217\267\252 c\340\241"
  56      8B7E6222 
  56      B8758410 
  56      8FB7AA20 
  56      63E0A1
  57 0194 3C7DE50D 		.ascii	"<}\345\015y\303\331\202\367\246\2577?:\234\3632\257"
  57      79C3D982 
  57      F7A6AF37 
  57      3F3A9CF3 
  57      32AF
  58 01a6 7BF32F9F 		.ascii	"{\363/\237gz\362c}]\0359r\336f\007F\275\206\221B\266"
  58      677AF263 
  58      7D5D1D39 
ARM GAS  C:\Users\info\AppData\Local\Temp\cc0jGN9c.s 			page 4


  58      72DE6607 
  58      46BD8691 
  59 01bc D09F7BD1 		.ascii	"\320\237{\321_\030\371\017UC\265\353"
  59      5F18F90F 
  59      5543B5EB 
  60              		.text
  61              		.section	.gnu.lto_Row_2_SetDriveMode.792a07d5,"",%progbits
  62 0000 789C7D51 		.ascii	"x\234}QM+DQ\030~\237s\356\334{'\361\007L\221\005\331"
  62      4D2B4451 
  62      187E9F73 
  62      EEDC7B27 
  62      F1074C91 
  63 0016 48E41728 		.ascii	"H\344\027(\266b;%q\227LD\226\316\314\270)6J\244\020"
  63      B6623B25 
  63      71974C44 
  63      96CECCB8 
  63      29364AA4 
  64 002b 1BF9FE5E 		.ascii	"\033\371\376^\331\215)\226\354,,$\213IB\343+\3625\336"
  64      D98D2996 
  64      EC2C2C24 
  64      8B4942E3 
  64      2BF235DE 
  65 003f F75E8B59 		.ascii	"\367^\213Y9\335\363~<=\317\323\373\236k\021H\316\015"
  65      39DDF37E 
  65      3C3DCFD3 
  65      FB9E6B11 
  65      48CE0D
  66 0052 A76ACEE5 		.ascii	"\247j\316\345|\241\011j\362\224(\351*@\012\343\202F"
  66      7CA1096A 
  66      F29428E9 
  66      2A400AE3 
  66      8246
  67 0064 1446F0AA 		.ascii	"\024F\360\252\276\025\262c\271CU\273b\370\\\035?\324"
  67      BE15B263 
  67      B94355BB 
  67      62F85C1D 
  67      3FD4
  68 0076 9BD50C7C 		.ascii	"\233\325\014|MTP\201\023a\005\265\314z>X\236*\321U "
  68      4D545081 
  68      136105B5 
  68      CC7A3E58 
  68      9E2AD155 
  69 008b AE1F4FF3 		.ascii	"\256\037O\363\227e5\313\306\244\214)\304\215\3665\260"
  69      976535CB 
  69      C6A48C29 
  69      C48DF635 
  69      B0
  70 009c 0ACD0A34 		.ascii	"\012\315\0124\306P\037#\006\010k\250\021\362\365\336"
  70      C6501F23 
  70      06086BA8 
  70      11F2F5DE 
  71 00ac CF74A93D 		.ascii	"\317t\251=*\366\225\241)\326a\313\230;\355\031S(\244"
  71      2AF695A1 
  71      29D661CB 
  71      983BED19 
  71      5328A4
  72 00bf 4DE6CD3E 		.ascii	"M\346\315>\372\260K\024\313\224\346\240-\011\021\210"
ARM GAS  C:\Users\info\AppData\Local\Temp\cc0jGN9c.s 			page 5


  72      FAB04B14 
  72      CB94E6A0 
  72      2D091188 
  73 00cf 832DA523 		.ascii	"\203-\245#\301\225\020\025\016Q\236\257,\362\250\224"
  73      C1951015 
  73      0E519EAF 
  73      2CF2A894 
  74 00df 649D43F6 		.ascii	"d\235C\366c<7g\211sZ\313R3~\366\314yQ\276\266\202\211"
  74      633C3767 
  74      89735ACB 
  74      52337EF6 
  74      CC7951BE 
  75 00f6 EF96F60F 		.ascii	"\357\226\366\017T\330\316.%\215\305\220?1\277\356.b"
  75      54D8CE2E 
  75      258DC590 
  75      3F31BFEE 
  75      2E62
  76 0108 2139CAEB 		.ascii	"!9\312\353F\260\211\0306\020\343\351\266\260\010\312"
  76      46B08918 
  76      3610E3E9 
  76      B6B008CA 
  77 0118 21F5E484 		.ascii	"!\365\344\204v\232\035\271O\177\331ao1\304\372\213\223"
  77      769A1DB9 
  77      4F7FD961 
  77      6F31C4FA 
  77      8B93
  78 012a 89EFA858 		.ascii	"\211\357\250Xj\364c\233\225E\022\376\"\305\022\207!"
  78      6AF4639B 
  78      954512FE 
  78      22C51287 
  78      21
  79 013b 96DC9F6F 		.ascii	"\226\334\237ol\352PR\206\235@\222~\377\243\270\201\261"
  79      6CEA5052 
  79      869D4092 
  79      7EFFA3B8 
  79      81B1
  80 014d 53EC1265 		.ascii	"S\354\022e\224\373\354\014\244\377o\344]\036\231\371"
  80      94FBEC0C 
  80      A4FF6FE4 
  80      5D1E99F9 
  81 015d 748B54E6 		.ascii	"t\213T\346\263E\330\301\257\313+\310\363\360cU\264z"
  81      B345D8C1 
  81      AFCB2BC8 
  81      F3F06355 
  81      B47A
  82 016f 7DDE40D7 		.ascii	"}\336@\327\240\327\323\331\221\030\032\350\366\342m"
  82      A0D7D3D9 
  82      91181AE8 
  82      F6E26D
  83 017e 1D89E6A6 		.ascii	"\035\211\346\246x{b\270\263\241\256\233\254\336D\217"
  83      787B62B8 
  83      B3A1AE9B 
  83      ACDE448F 
  84 018e F70B4E7A 		.ascii	"\367\013Nz\244U"
  84      A455
  85              		.text
  86              		.section	.gnu.lto_Row_2_Read.792a07d5,"",%progbits
ARM GAS  C:\Users\info\AppData\Local\Temp\cc0jGN9c.s 			page 6


  87 0000 789C2D8E 		.ascii	"x\234-\216\275K\003A\024\304\337\354\036I\210\350?\340"
  87      BD4B0341 
  87      14C4DFEC 
  87      1E4988E8 
  87      3FE0
  88 0012 815AA611 		.ascii	"\201Z\246\021Q\004\261\265\260\225\244\015\004\211\327"
  88      5104B1B5 
  88      B095A40D 
  88      0489D7
  89 0021 7A1014CB 		.ascii	"z\020\024\313\354\345r\012ba\243V\032\020$\361\003$"
  89      ECE5720A 
  89      6261A356 
  89      1A1024F1 
  89      0324
  90 0033 85FD994A 		.ascii	"\205\375\231JP\264\020AP\202\210D\260RP\204\240\236"
  90      50B41041 
  90      50828844 
  90      B0525084 
  90      A09E
  91 0045 EF793E58 		.ascii	"\357y>Xf?fg~\026\201d4\313\020k?/h\202Z\277$\362R\012"
  91      663F6667 
  91      7E168164 
  91      34CB106B 
  91      3F2F6882 
  92 005f 908D4981 		.ascii	"\220\215I\201\312\012e|\250o\205\363\317\263\265t\246"
  92      CA0A657C 
  92      A86F85F3 
  92      CFB3B574 
  92      A6
  93 0070 6E4CC53C 		.ascii	"nL\305<\354u'\266\032!\002M\024)\302\230\215\021[\""
  93      EC7527B6 
  93      1A21024D 
  93      1429C298 
  93      8D115B22 
  94 0084 EAC8105B 		.ascii	"\352\310\020[\037\233?\033\275\211\252\341\031\024\003"
  94      1F9B3F1B 
  94      BD89AAE1 
  94      191403
  95 0093 BF349090 		.ascii	"\2774\220\220\312\343lh\242\3107\341M\362\3646i)\012"
  95      CAE36C68 
  95      A2C837E1 
  95      4DF2F436 
  95      69290A
  96 00a6 34F74A0E 		.ascii	"4\367J\016\275\262OZ\337\224\022\325\035\264\272\253"
  96      BDB24F5A 
  96      DF9412D5 
  96      1DB4BAAB 
  97 00b6 ED9D49F9 		.ascii	"\355\235I\371\352k!\330\014ZW\311w\025h\005i\251<\267"
  97      EA6B21D8 
  97      0C5A57C9 
  97      77156805 
  97      69A93CB7 
  98 00ca EF7AE263 		.ascii	"\357z\342cs\3273\026_\005\336\365}_\015\333^\225\331"
  98      73D73316 
  98      5F05DEF5 
  98      7D5F0DDB 
  98      5E95D9
ARM GAS  C:\Users\info\AppData\Local\Temp\cc0jGN9c.s 			page 7


  99 00dd 340E6063 		.ascii	"4\016`c\037L\206C\324@\035\370_\313O\210\003u\234y\262"
  99      1F4C8643 
  99      D4401DF8 
  99      5FCB4F88 
  99      03759C79 
 100 00f2 72D14C4B 		.ascii	"r\321LK\010\0018b\357\013\324\277\201\376\240 0\214"
 100      08013862 
 100      EF0BD4BF 
 100      81FEA020 
 100      308C
 101 0104 3630EDCC 		.ascii	"60\355\314;\245\331\005g\256\220s\027KE'?\223s\247\306"
 101      3BA5D905 
 101      67AE9073 
 101      174B4527 
 101      3F9373A7 
 102 0119 F35977A9 		.ascii	"\363Yw\2510:\\\244_\000=cz"
 102      303A5CA4 
 102      5F003D63 
 102      7A
 103              		.text
 104              		.section	.gnu.lto_Row_2_ReadDataReg.792a07d5,"",%progbits
 105 0000 789C2D8E 		.ascii	"x\234-\216\275K\003A\024\304\337\354\036I8\360/0\240"
 105      BD4B0341 
 105      14C4DFEC 
 105      1E4938F0 
 105      2F30A0
 106 0013 96694414 		.ascii	"\226iD\024\013m-l%i\003A\342\265\036\004\3052{^N!X\330"
 106      0B6D2D6C 
 106      25690341 
 106      E2B51E04 
 106      C5327B5E 
 107 002b A8084A40 		.ascii	"\250\010J@\220$*h\012K\341L%(j+6A$\205\205((\202\037"
 107      90242A68 
 107      0A4BE14C 
 107      25286A2B 
 107      36412485 
 108 0044 39DFF37C 		.ascii	"9\337\363|\260\314~\314\316\374,\002\311h\226!\326~"
 108      B0CC7ECC 
 108      CEFC2C02 
 108      C9689621 
 108      D67E
 109 0056 5ED004B5 		.ascii	"^\320\004\265~M\344\245\024 \033\223\002\225\025\312"
 109      7E4DE4A5 
 109      14201B93 
 109      029515CA 
 110 0066 78573F0A 		.ascii	"xW?\012\227\037\027kv\246n\314\262\351\354\327'\266"
 110      971F176B 
 110      76A66ECC 
 110      B2E9ECD7 
 110      27B6
 111 0078 1A21024D 		.ascii	"\032!\002M\024)\302X\032#i\211\250#Cl}h\3656\372\022"
 111      1429C258 
 111      1A236989 
 111      A823436C 
 111      7D68F536 
 112 008e 15C33328 		.ascii	"\025\3033(\006~i !\225\307\331\320D\221o\3023\373\374"
 112      067E6920 
ARM GAS  C:\Users\info\AppData\Local\Temp\cc0jGN9c.s 			page 8


 112      2195C7D9 
 112      D044916F 
 112      C233FBFC 
 113 00a2 D6B61405 		.ascii	"\326\266\024\005\232{%\207^\330'\255\257J\211\352.\332"
 113      9A7B2587 
 113      5ED827AD 
 113      AF4A89EA 
 113      2EDA
 114 00b4 9FD55E73 		.ascii	"\237\325^sR\276\372Z\0106\203\366M\362M\005ZAZ\356\356"
 114      52BEFA5A 
 114      083683F6 
 114      4DF24D05 
 114      5A415AEE 
 115 00c9 B79F13F1 		.ascii	"\267\237\023\361\361d\3173\026_u\252;_\311\032v\275"
 115      F164CF33 
 115      165F75AA 
 115      3B5FC91A 
 115      76BD
 116 00db 0AB3691C 		.ascii	"\012\263i\034 \215&\230\014\207\250\201\272\360\277"
 116      208D2698 
 116      0C87A881 
 116      BAF0BF
 117 00ea 571E1107 		.ascii	"W\036\021\007\3528\363t\365\252eK\010\0018b\357\023"
 117      EA38F374 
 117      F5AA654B 
 117      08013862 
 117      EF13
 118 00fc D4BF81FE 		.ascii	"\324\277\201\376\240 0\21460\355\314;\245\331\005g\256"
 118      A020308C 
 118      3630EDCC 
 118      3BA5D905 
 118      67AE
 119 010e 9073174B 		.ascii	"\220s\027KE'?\223s\247\306\363Yw\2510:\\\244_\334\014"
 119      45273F93 
 119      73A7C6F3 
 119      5977A930 
 119      3A5CA45F 
 120 0124 6391     		.ascii	"c\221"
 121              		.text
 122              		.section	.gnu.lto_.symbol_nodes.792a07d5,"",%progbits
 123 0000 789C6361 		.ascii	"x\234ca`dpc\000\002&\206z\006\206\011\347\030@\324\252"
 123      60647063 
 123      00022686 
 123      7A068609 
 123      E71840D4 
 124 0015 0645A000 		.ascii	"\006E\240\000c=#\252\000S=\023\252\000s=3\212\000\003"
 124      633D23AA 
 124      00533D13 
 124      AA00733D 
 124      338A0003 
 125 0029 001ED60E 		.ascii	"\000\036\326\016\374"
 125      FC
 126              		.text
 127              		.section	.gnu.lto_.refs.792a07d5,"",%progbits
 128 0000 789C6361 		.ascii	"x\234ca`\004B \000\000\0009\000\007"
 128      60044220 
 128      00000039 
ARM GAS  C:\Users\info\AppData\Local\Temp\cc0jGN9c.s 			page 9


 128      0007
 129              		.text
 130              		.section	.gnu.lto_.decls.792a07d5,"",%progbits
 131 0000 789C8D92 		.ascii	"x\234\215\222]H\024Q\024\200\357\231\031W\031\2674\211"
 131      5D481451 
 131      1480EF99 
 131      195719B7 
 131      3489
 132 0012 F26128F3 		.ascii	"\362a(\363\311\247%\223@\010*P\262\227\"\264\354EXV"
 132      C9A72593 
 132      40082A50 
 132      B29722B4 
 132      EC455856 
 133 0026 1DCC1737 		.ascii	"\035\314\0277\266\265\360!\270\272\006\366\003*a\261"
 133      B6B5F021 
 133      B8BA06F6 
 133      032A61B1 
 134 0036 226505A5 		.ascii	"\"e\005\245\271\352\346_\353\246\271i\177\004B\"\025"
 134      B9EAE65F 
 134      EBA6B969 
 134      7F044222 
 134      15
 135 0047 61A0643E 		.ascii	"a\240d>X\"J\373\340&\266\235{w\326\031m\245\016\334"
 135      58224AFB 
 135      E026B69D 
 135      7B77D619 
 135      6DA50EDC 
 136 005b B9E7DC73 		.ascii	"\271\347\334s\316w\316=s%\002\204\311!\211\220\233\270"
 136      CE77CE3D 
 136      73250284 
 136      C9218990 
 136      9BB8
 137 006d 27A31946 		.ascii	"'\243\031F\211C\275\220\350\202n\322\213\253\037\227"
 137      8943BD90 
 137      E8826ED2 
 137      8BAB1F97 
 138 007d 0F979FFC 		.ascii	"\017\227\237\374-\314\037\315\353\302\245\340\032\301"
 138      2DCC1FCD 
 138      EBC2A5E0 
 138      1AC1
 139 008b 35ACF941 		.ascii	"5\254\371A\213\331,\214i\332\224\027\210\221\333\037"
 139      8BD92C8C 
 139      69DA9417 
 139      8891DB1F 
 140 009b 23D7A7F5 		.ascii	"#\327\247\365\266U=_\214\034\377?rb\335mM\000\327\327"
 140      B6553D5F 
 140      8C1CFF3F 
 140      7262DD6D 
 140      4D00D7D7 
 141 00af EFAD0953 		.ascii	"\357\255\011S\360\031\200\000\027\242\315\216\260\023"
 141      F0198000 
 141      17A2CD8E 
 141      B013
 142 00bd 6D670A44 		.ascii	"mg\012D\014!\312\203u\262\246\360p \002\217\007\203"
 142      0C21CA83 
 142      75B2A6F0 
 142      7020028F 
ARM GAS  C:\Users\info\AppData\Local\Temp\cc0jGN9c.s 			page 10


 142      0783
 143 00cf 63431CFF 		.ascii	"cC\034\377\017\\\364#X\227h$l\2042\252n\242-\350\011"
 143      0F5CF423 
 143      58976824 
 143      6C8432AA 
 143      6EA22DE8 
 144 00e4 069ED6BD 		.ascii	"\006\236\326\275V\037\214e9Z\214^:\364\251Z\021\021"
 144      561F8C65 
 144      395A8C5E 
 144      3AF4A95A 
 144      1111
 145 00f6 89EA74A8 		.ascii	"\211\352t\250\355\230\305CQ\032(\025\366\350\203\351"
 145      ED98C543 
 145      511A2815 
 145      F6E883E9 
 146 0106 BEF2AD3D 		.ascii	"\276\362\255=!(\200\"C\030\230\2750\030\332\026\261"
 146      21288022 
 146      431898BD 
 146      3018DA16 
 146      B1
 147 0117 99DBDD38 		.ascii	"\231\333\3358\373;Q\334\315tar\266c^\202\014\371!\303"
 147      FB3B51DC 
 147      CD746172 
 147      B6635E82 
 147      0CF921C3 
 148 012b CCAC7A0F 		.ascii	"\314\254z\017\017R\232\014] \203\007Dh\007\013k@\221"
 148      0F529A0C 
 148      5D208307 
 148      4468070B 
 148      6B4091
 149 013e F15B4769 		.ascii	"\361[Gi\015]\272OM\251\004\262\024\330\257\020\350\204"
 149      0D5DBA4F 
 149      4DA904B2 
 149      14D8AF10 
 149      E884
 150 0150 0CC66451 		.ascii	"\014\306dQ\320\001\012<\006\205\361\347n\337\375a\222"
 150      D0010A3C 
 150      0685F1E7 
 150      6EDFFD61 
 150      92
 151 0161 70DA9C53 		.ascii	"p\332\234S,\261\263\211Zo\213\210-\244\310 \241\271"
 151      2CB1B389 
 151      5A6F8B88 
 151      2DA4C820 
 151      A1B9
 152 0173 3CDE3CBB 		.ascii	"<\336<\273\035\315\2352\244\241\351\361\177Y0\245\336"
 152      1DCD9D32 
 152      A4A1E9F1 
 152      7F5930A5 
 152      DE
 153 0184 E25771D1 		.ascii	"\342Wq\3214\011\012w\301\023\004z\021H\240\007R\361"
 153      34090A77 
 153      C113047A 
 153      1148A007 
 153      52F1
 154 0196 DB0D52E4 		.ascii	"\333\015R\344v=\365\376@\\z+m\365\322\231\360\\\226"
 154      763DF5FE 
ARM GAS  C:\Users\info\AppData\Local\Temp\cc0jGN9c.s 			page 11


 154      405C7A2B 
 154      6DF5D299 
 154      F05C96
 155 01a9 9B066A31 		.ascii	"\233\006j1O`a\320\2467\215*\333\036\301\024\316\263"
 155      4F6061D0 
 155      A6378D2A 
 155      DB1EC114 
 155      CEB3
 156 01bb 17D23173 		.ascii	"\027\3221sq\371\301\220Y\264\362!|\230n\031K\212P\002"
 156      71F9C190 
 156      59B4F221 
 156      7C986E19 
 156      4B8A5002 
 157 01cf C1D766DA 		.ascii	"\301\327f\332PM\351Q\316\350\323\031}FF?g\270C\235\213"
 157      504DE951 
 157      CEE8D319 
 157      7D46463F 
 157      67B8439D 
 158 01e4 26D1C119 		.ascii	"&\321\301\031\357\257\277r%\031\333f\367\325\373~\312"
 158      EFAFBF72 
 158      2519DB66 
 158      F7D5FB7E 
 158      CA
 159 01f5 FB2ED6DA 		.ascii	"\373.\326\332\036}\373kU\320\012N\276\021\327\333\306"
 159      1E7DFB6B 
 159      55D00A4E 
 159      BE11D7DB 
 159      C6
 160 0206 2818D04B 		.ascii	"(\030\320K\016\030K\372x\311\225\272\033\301x\3612/"
 160      0E184BFA 
 160      78C995BA 
 160      1BC178F1 
 160      322F
 161 0218 79A771CD 		.ascii	"y\247q\315\243]>\340\177\027m\2331\006u\306\240\221"
 161      A35D3EE0 
 161      7F176D9B 
 161      310675C6 
 161      A091
 162 022a E1E78C60 		.ascii	"\341\347\214`\355\317\217&\031\377\241\353\377\376\341"
 162      EDCF8F26 
 162      19FFA1EB 
 162      FFFEE1
 163 0239 F8FCBD70 		.ascii	"\370\374\275p\274X\017\374\221\3646\271\233\342A\316"
 163      BC580FFC 
 163      91F436B9 
 163      9BE241CE 
 164 0249 8891FE3C 		.ascii	"\210\221\376<F\272\366\226VN7^e\027\034\306\241\014"
 164      46BAF696 
 164      564E375E 
 164      65171CC6 
 164      A10C
 165 025b E9CD3D03 		.ascii	"\351\315=\00392\220\366\305\261\000\230\257\261g\205"
 165      393290F6 
 165      C5B10098 
 165      AFB16785 
 166 026b D34B39CE 		.ascii	"\323K9\316\003\365\351\215\200\231\277~\334\327\004"
 166      03F5E98D 
ARM GAS  C:\Users\info\AppData\Local\Temp\cc0jGN9c.s 			page 12


 166      8099BF7E 
 166      DCD704
 167 027a F1E564F7 		.ascii	"\361\345d\367\210\014\262\002\350\207:V`\251\306\320"
 167      880CB202 
 167      E8873A56 
 167      60A9C6D0 
 168 028a 078100C3 		.ascii	"\007\201\000\303\302\013t\217bz3e1\023\300\217\271\261"
 168      C20B748F 
 168      627A3365 
 168      3113C08F 
 168      B9B1
 169 029c 7484EBFC 		.ascii	"t\204\353\374\223\230o\277d=`=\353(w\252\011y'\317\244"
 169      93986FBF 
 169      643D603D 
 169      EB2877AA 
 169      097927CF 
 170 02b1 E5646692 		.ascii	"\345df\222\270\312\362\012g\366\276<\265Bu\330\234j"
 170      B8CAF20A 
 170      67F6BE3C 
 170      B54275D8 
 170      9C6A
 171 02c3 A9B5C05E 		.ascii	"\251\265\300^\351(Q\213N\025\330s\016\026\225T9\253"
 171      E928518B 
 171      4E15D873 
 171      0E169554 
 171      39AB
 172 02d5 CEAB172C 		.ascii	"\316\253\027,\347\310\336-\"8\323RBR\"\360\002\325\231"
 172      E7C8DE2D 
 172      2238D352 
 172      425222F0 
 172      02D599
 173 02e8 EB28BFA8 		.ascii	"\353(\277\250\236\260\227\252r\344(_\265\225\356\320"
 173      9EB097AA 
 173      72E4285F 
 173      B595EED0 
 174 02f8 D55C9BD3 		.ascii	"\325\\\233\323\226\257\226I\016\265,\373\0172\315_\356"
 174      96AF9649 
 174      0EB52CFB 
 174      0F32CD5F 
 174      EE
 175              		.text
 176              		.section	.gnu.lto_.symtab.792a07d5,"",%progbits
 177 0000 526F775F 		.ascii	"Row_2_Write\000"
 177      325F5772 
 177      69746500 
 178 000c 00       		.ascii	"\000"
 179 000d 00       		.ascii	"\000"
 180 000e 00       		.ascii	"\000"
 181 000f 00000000 		.ascii	"\000\000\000\000\000\000\000\000"
 181      00000000 
 182 0017 B3000000 		.ascii	"\263\000\000\000"
 183 001b 526F775F 		.ascii	"Row_2_SetDriveMode\000"
 183      325F5365 
 183      74447269 
 183      76654D6F 
 183      646500
 184 002e 00       		.ascii	"\000"
ARM GAS  C:\Users\info\AppData\Local\Temp\cc0jGN9c.s 			page 13


 185 002f 00       		.ascii	"\000"
 186 0030 00       		.ascii	"\000"
 187 0031 00000000 		.ascii	"\000\000\000\000\000\000\000\000"
 187      00000000 
 188 0039 B5000000 		.ascii	"\265\000\000\000"
 189 003d 526F775F 		.ascii	"Row_2_Read\000"
 189      325F5265 
 189      616400
 190 0048 00       		.ascii	"\000"
 191 0049 00       		.ascii	"\000"
 192 004a 00       		.ascii	"\000"
 193 004b 00000000 		.ascii	"\000\000\000\000\000\000\000\000"
 193      00000000 
 194 0053 B8000000 		.ascii	"\270\000\000\000"
 195 0057 526F775F 		.ascii	"Row_2_ReadDataReg\000"
 195      325F5265 
 195      61644461 
 195      74615265 
 195      6700
 196 0069 00       		.ascii	"\000"
 197 006a 00       		.ascii	"\000"
 198 006b 00       		.ascii	"\000"
 199 006c 00000000 		.ascii	"\000\000\000\000\000\000\000\000"
 199      00000000 
 200 0074 BA000000 		.ascii	"\272\000\000\000"
 201              		.text
 202              		.section	.gnu.lto_.opts,"",%progbits
 203 0000 272D666D 		.ascii	"'-fmath-errno' '-fsigned-zeros' '-ftrapping-math' '"
 203      6174682D 
 203      6572726E 
 203      6F272027 
 203      2D667369 
 204 0033 2D666E6F 		.ascii	"-fno-trapv' '-fno-strict-overflow' '-fno-openmp' '-"
 204      2D747261 
 204      70762720 
 204      272D666E 
 204      6F2D7374 
 205 0066 666E6F2D 		.ascii	"fno-openacc' '-mcpu=cortex-m3' '-mthumb' '-g' '-Og'"
 205      6F70656E 
 205      61636327 
 205      20272D6D 
 205      6370753D 
 206 0099 20272D66 		.ascii	" '-ffunction-sections' '-ffat-lto-objects' '-flto'\000"
 206      66756E63 
 206      74696F6E 
 206      2D736563 
 206      74696F6E 
 207              		.text
 208              		.cfi_sections	.debug_frame
 209              		.section	.text.Row_2_Write,"ax",%progbits
 210              		.align	2
 211              		.global	Row_2_Write
 212              		.thumb
 213              		.thumb_func
 214              		.type	Row_2_Write, %function
 215              	Row_2_Write:
 216              	.LFB0:
ARM GAS  C:\Users\info\AppData\Local\Temp\cc0jGN9c.s 			page 14


 217              		.file 1 "Generated_Source\\PSoC5\\Row_2.c"
   1:Generated_Source\PSoC5/Row_2.c **** /*******************************************************************************
   2:Generated_Source\PSoC5/Row_2.c **** * File Name: Row_2.c  
   3:Generated_Source\PSoC5/Row_2.c **** * Version 2.20
   4:Generated_Source\PSoC5/Row_2.c **** *
   5:Generated_Source\PSoC5/Row_2.c **** * Description:
   6:Generated_Source\PSoC5/Row_2.c **** *  This file contains API to enable firmware control of a Pins component.
   7:Generated_Source\PSoC5/Row_2.c **** *
   8:Generated_Source\PSoC5/Row_2.c **** * Note:
   9:Generated_Source\PSoC5/Row_2.c **** *
  10:Generated_Source\PSoC5/Row_2.c **** ********************************************************************************
  11:Generated_Source\PSoC5/Row_2.c **** * Copyright 2008-2015, Cypress Semiconductor Corporation.  All rights reserved.
  12:Generated_Source\PSoC5/Row_2.c **** * You may use this file only in accordance with the license, terms, conditions, 
  13:Generated_Source\PSoC5/Row_2.c **** * disclaimers, and limitations in the end user license agreement accompanying 
  14:Generated_Source\PSoC5/Row_2.c **** * the software package with which this file was provided.
  15:Generated_Source\PSoC5/Row_2.c **** *******************************************************************************/
  16:Generated_Source\PSoC5/Row_2.c **** 
  17:Generated_Source\PSoC5/Row_2.c **** #include "cytypes.h"
  18:Generated_Source\PSoC5/Row_2.c **** #include "Row_2.h"
  19:Generated_Source\PSoC5/Row_2.c **** 
  20:Generated_Source\PSoC5/Row_2.c **** /* APIs are not generated for P15[7:6] on PSoC 5 */
  21:Generated_Source\PSoC5/Row_2.c **** #if !(CY_PSOC5A &&\
  22:Generated_Source\PSoC5/Row_2.c **** 	 Row_2__PORT == 15 && ((Row_2__MASK & 0xC0) != 0))
  23:Generated_Source\PSoC5/Row_2.c **** 
  24:Generated_Source\PSoC5/Row_2.c **** 
  25:Generated_Source\PSoC5/Row_2.c **** /*******************************************************************************
  26:Generated_Source\PSoC5/Row_2.c **** * Function Name: Row_2_Write
  27:Generated_Source\PSoC5/Row_2.c **** ****************************************************************************//**
  28:Generated_Source\PSoC5/Row_2.c **** *
  29:Generated_Source\PSoC5/Row_2.c **** * \brief Writes the value to the physical port (data output register), masking
  30:Generated_Source\PSoC5/Row_2.c **** *  and shifting the bits appropriately. 
  31:Generated_Source\PSoC5/Row_2.c **** *
  32:Generated_Source\PSoC5/Row_2.c **** * The data output register controls the signal applied to the physical pin in 
  33:Generated_Source\PSoC5/Row_2.c **** * conjunction with the drive mode parameter. This function avoids changing 
  34:Generated_Source\PSoC5/Row_2.c **** * other bits in the port by using the appropriate method (read-modify-write or
  35:Generated_Source\PSoC5/Row_2.c **** * bit banding).
  36:Generated_Source\PSoC5/Row_2.c **** *
  37:Generated_Source\PSoC5/Row_2.c **** * <b>Note</b> This function should not be used on a hardware digital output pin 
  38:Generated_Source\PSoC5/Row_2.c **** * as it is driven by the hardware signal attached to it.
  39:Generated_Source\PSoC5/Row_2.c **** *
  40:Generated_Source\PSoC5/Row_2.c **** * \param value
  41:Generated_Source\PSoC5/Row_2.c **** *  Value to write to the component instance.
  42:Generated_Source\PSoC5/Row_2.c **** *
  43:Generated_Source\PSoC5/Row_2.c **** * \return 
  44:Generated_Source\PSoC5/Row_2.c **** *  None 
  45:Generated_Source\PSoC5/Row_2.c **** *
  46:Generated_Source\PSoC5/Row_2.c **** * \sideeffect
  47:Generated_Source\PSoC5/Row_2.c **** *  If you use read-modify-write operations that are not atomic; the Interrupt 
  48:Generated_Source\PSoC5/Row_2.c **** *  Service Routines (ISR) can cause corruption of this function. An ISR that 
  49:Generated_Source\PSoC5/Row_2.c **** *  interrupts this function and performs writes to the Pins component data 
  50:Generated_Source\PSoC5/Row_2.c **** *  register can cause corrupted port data. To avoid this issue, you should 
  51:Generated_Source\PSoC5/Row_2.c **** *  either use the Per-Pin APIs (primary method) or disable interrupts around 
  52:Generated_Source\PSoC5/Row_2.c **** *  this function.
  53:Generated_Source\PSoC5/Row_2.c **** *
  54:Generated_Source\PSoC5/Row_2.c **** * \funcusage
  55:Generated_Source\PSoC5/Row_2.c **** *  \snippet Row_2_SUT.c usage_Row_2_Write
  56:Generated_Source\PSoC5/Row_2.c **** *******************************************************************************/
ARM GAS  C:\Users\info\AppData\Local\Temp\cc0jGN9c.s 			page 15


  57:Generated_Source\PSoC5/Row_2.c **** void Row_2_Write(uint8 value)
  58:Generated_Source\PSoC5/Row_2.c **** {
 218              		.loc 1 58 0
 219              		.cfi_startproc
 220              		@ args = 0, pretend = 0, frame = 0
 221              		@ frame_needed = 0, uses_anonymous_args = 0
 222              		@ link register save eliminated.
 223              	.LVL0:
  59:Generated_Source\PSoC5/Row_2.c ****     uint8 staticBits = (Row_2_DR & (uint8)(~Row_2_MASK));
 224              		.loc 1 59 0
 225 0000 044A     		ldr	r2, .L2
 226 0002 1378     		ldrb	r3, [r2]	@ zero_extendqisi2
 227 0004 03F0FE03 		and	r3, r3, #254
 228              	.LVL1:
  60:Generated_Source\PSoC5/Row_2.c ****     Row_2_DR = staticBits | ((uint8)(value << Row_2_SHIFT) & Row_2_MASK);
 229              		.loc 1 60 0
 230 0008 00F00100 		and	r0, r0, #1
 231              	.LVL2:
 232 000c 1843     		orrs	r0, r0, r3
 233 000e 1070     		strb	r0, [r2]
 234 0010 7047     		bx	lr
 235              	.L3:
 236 0012 00BF     		.align	2
 237              	.L2:
 238 0014 30510040 		.word	1073762608
 239              		.cfi_endproc
 240              	.LFE0:
 241              		.size	Row_2_Write, .-Row_2_Write
 242              		.section	.text.Row_2_SetDriveMode,"ax",%progbits
 243              		.align	2
 244              		.global	Row_2_SetDriveMode
 245              		.thumb
 246              		.thumb_func
 247              		.type	Row_2_SetDriveMode, %function
 248              	Row_2_SetDriveMode:
 249              	.LFB1:
  61:Generated_Source\PSoC5/Row_2.c **** }
  62:Generated_Source\PSoC5/Row_2.c **** 
  63:Generated_Source\PSoC5/Row_2.c **** 
  64:Generated_Source\PSoC5/Row_2.c **** /*******************************************************************************
  65:Generated_Source\PSoC5/Row_2.c **** * Function Name: Row_2_SetDriveMode
  66:Generated_Source\PSoC5/Row_2.c **** ****************************************************************************//**
  67:Generated_Source\PSoC5/Row_2.c **** *
  68:Generated_Source\PSoC5/Row_2.c **** * \brief Sets the drive mode for each of the Pins component's pins.
  69:Generated_Source\PSoC5/Row_2.c **** * 
  70:Generated_Source\PSoC5/Row_2.c **** * <b>Note</b> This affects all pins in the Pins component instance. Use the
  71:Generated_Source\PSoC5/Row_2.c **** * Per-Pin APIs if you wish to control individual pin's drive modes.
  72:Generated_Source\PSoC5/Row_2.c **** *
  73:Generated_Source\PSoC5/Row_2.c **** * \param mode
  74:Generated_Source\PSoC5/Row_2.c **** *  Mode for the selected signals. Valid options are documented in 
  75:Generated_Source\PSoC5/Row_2.c **** *  \ref driveMode.
  76:Generated_Source\PSoC5/Row_2.c **** *
  77:Generated_Source\PSoC5/Row_2.c **** * \return
  78:Generated_Source\PSoC5/Row_2.c **** *  None
  79:Generated_Source\PSoC5/Row_2.c **** *
  80:Generated_Source\PSoC5/Row_2.c **** * \sideeffect
  81:Generated_Source\PSoC5/Row_2.c **** *  If you use read-modify-write operations that are not atomic, the ISR can
ARM GAS  C:\Users\info\AppData\Local\Temp\cc0jGN9c.s 			page 16


  82:Generated_Source\PSoC5/Row_2.c **** *  cause corruption of this function. An ISR that interrupts this function 
  83:Generated_Source\PSoC5/Row_2.c **** *  and performs writes to the Pins component Drive Mode registers can cause 
  84:Generated_Source\PSoC5/Row_2.c **** *  corrupted port data. To avoid this issue, you should either use the Per-Pin
  85:Generated_Source\PSoC5/Row_2.c **** *  APIs (primary method) or disable interrupts around this function.
  86:Generated_Source\PSoC5/Row_2.c **** *
  87:Generated_Source\PSoC5/Row_2.c **** * \funcusage
  88:Generated_Source\PSoC5/Row_2.c **** *  \snippet Row_2_SUT.c usage_Row_2_SetDriveMode
  89:Generated_Source\PSoC5/Row_2.c **** *******************************************************************************/
  90:Generated_Source\PSoC5/Row_2.c **** void Row_2_SetDriveMode(uint8 mode)
  91:Generated_Source\PSoC5/Row_2.c **** {
 250              		.loc 1 91 0
 251              		.cfi_startproc
 252              		@ args = 0, pretend = 0, frame = 0
 253              		@ frame_needed = 0, uses_anonymous_args = 0
 254              		@ link register save eliminated.
 255              	.LVL3:
  92:Generated_Source\PSoC5/Row_2.c **** 	CyPins_SetPinDriveMode(Row_2_0, mode);
 256              		.loc 1 92 0
 257 0000 044A     		ldr	r2, .L5
 258 0002 1378     		ldrb	r3, [r2]	@ zero_extendqisi2
 259 0004 03F0F103 		and	r3, r3, #241
 260 0008 00F00E00 		and	r0, r0, #14
 261              	.LVL4:
 262 000c 1843     		orrs	r0, r0, r3
 263 000e 1070     		strb	r0, [r2]
 264 0010 7047     		bx	lr
 265              	.L6:
 266 0012 00BF     		.align	2
 267              	.L5:
 268 0014 18500040 		.word	1073762328
 269              		.cfi_endproc
 270              	.LFE1:
 271              		.size	Row_2_SetDriveMode, .-Row_2_SetDriveMode
 272              		.section	.text.Row_2_Read,"ax",%progbits
 273              		.align	2
 274              		.global	Row_2_Read
 275              		.thumb
 276              		.thumb_func
 277              		.type	Row_2_Read, %function
 278              	Row_2_Read:
 279              	.LFB2:
  93:Generated_Source\PSoC5/Row_2.c **** }
  94:Generated_Source\PSoC5/Row_2.c **** 
  95:Generated_Source\PSoC5/Row_2.c **** 
  96:Generated_Source\PSoC5/Row_2.c **** /*******************************************************************************
  97:Generated_Source\PSoC5/Row_2.c **** * Function Name: Row_2_Read
  98:Generated_Source\PSoC5/Row_2.c **** ****************************************************************************//**
  99:Generated_Source\PSoC5/Row_2.c **** *
 100:Generated_Source\PSoC5/Row_2.c **** * \brief Reads the associated physical port (pin status register) and masks 
 101:Generated_Source\PSoC5/Row_2.c **** *  the required bits according to the width and bit position of the component
 102:Generated_Source\PSoC5/Row_2.c **** *  instance. 
 103:Generated_Source\PSoC5/Row_2.c **** *
 104:Generated_Source\PSoC5/Row_2.c **** * The pin's status register returns the current logic level present on the 
 105:Generated_Source\PSoC5/Row_2.c **** * physical pin.
 106:Generated_Source\PSoC5/Row_2.c **** *
 107:Generated_Source\PSoC5/Row_2.c **** * \return 
 108:Generated_Source\PSoC5/Row_2.c **** *  The current value for the pins in the component as a right justified number.
ARM GAS  C:\Users\info\AppData\Local\Temp\cc0jGN9c.s 			page 17


 109:Generated_Source\PSoC5/Row_2.c **** *
 110:Generated_Source\PSoC5/Row_2.c **** * \funcusage
 111:Generated_Source\PSoC5/Row_2.c **** *  \snippet Row_2_SUT.c usage_Row_2_Read  
 112:Generated_Source\PSoC5/Row_2.c **** *******************************************************************************/
 113:Generated_Source\PSoC5/Row_2.c **** uint8 Row_2_Read(void)
 114:Generated_Source\PSoC5/Row_2.c **** {
 280              		.loc 1 114 0
 281              		.cfi_startproc
 282              		@ args = 0, pretend = 0, frame = 0
 283              		@ frame_needed = 0, uses_anonymous_args = 0
 284              		@ link register save eliminated.
 115:Generated_Source\PSoC5/Row_2.c ****     return (Row_2_PS & Row_2_MASK) >> Row_2_SHIFT;
 285              		.loc 1 115 0
 286 0000 024B     		ldr	r3, .L8
 287 0002 1878     		ldrb	r0, [r3]	@ zero_extendqisi2
 116:Generated_Source\PSoC5/Row_2.c **** }
 288              		.loc 1 116 0
 289 0004 00F00100 		and	r0, r0, #1
 290 0008 7047     		bx	lr
 291              	.L9:
 292 000a 00BF     		.align	2
 293              	.L8:
 294 000c 31510040 		.word	1073762609
 295              		.cfi_endproc
 296              	.LFE2:
 297              		.size	Row_2_Read, .-Row_2_Read
 298              		.section	.text.Row_2_ReadDataReg,"ax",%progbits
 299              		.align	2
 300              		.global	Row_2_ReadDataReg
 301              		.thumb
 302              		.thumb_func
 303              		.type	Row_2_ReadDataReg, %function
 304              	Row_2_ReadDataReg:
 305              	.LFB3:
 117:Generated_Source\PSoC5/Row_2.c **** 
 118:Generated_Source\PSoC5/Row_2.c **** 
 119:Generated_Source\PSoC5/Row_2.c **** /*******************************************************************************
 120:Generated_Source\PSoC5/Row_2.c **** * Function Name: Row_2_ReadDataReg
 121:Generated_Source\PSoC5/Row_2.c **** ****************************************************************************//**
 122:Generated_Source\PSoC5/Row_2.c **** *
 123:Generated_Source\PSoC5/Row_2.c **** * \brief Reads the associated physical port's data output register and masks 
 124:Generated_Source\PSoC5/Row_2.c **** *  the correct bits according to the width and bit position of the component 
 125:Generated_Source\PSoC5/Row_2.c **** *  instance. 
 126:Generated_Source\PSoC5/Row_2.c **** *
 127:Generated_Source\PSoC5/Row_2.c **** * The data output register controls the signal applied to the physical pin in 
 128:Generated_Source\PSoC5/Row_2.c **** * conjunction with the drive mode parameter. This is not the same as the 
 129:Generated_Source\PSoC5/Row_2.c **** * preferred Row_2_Read() API because the 
 130:Generated_Source\PSoC5/Row_2.c **** * Row_2_ReadDataReg() reads the data register instead of the status 
 131:Generated_Source\PSoC5/Row_2.c **** * register. For output pins this is a useful function to determine the value 
 132:Generated_Source\PSoC5/Row_2.c **** * just written to the pin.
 133:Generated_Source\PSoC5/Row_2.c **** *
 134:Generated_Source\PSoC5/Row_2.c **** * \return 
 135:Generated_Source\PSoC5/Row_2.c **** *  The current value of the data register masked and shifted into a right 
 136:Generated_Source\PSoC5/Row_2.c **** *  justified number for the component instance.
 137:Generated_Source\PSoC5/Row_2.c **** *
 138:Generated_Source\PSoC5/Row_2.c **** * \funcusage
 139:Generated_Source\PSoC5/Row_2.c **** *  \snippet Row_2_SUT.c usage_Row_2_ReadDataReg 
ARM GAS  C:\Users\info\AppData\Local\Temp\cc0jGN9c.s 			page 18


 140:Generated_Source\PSoC5/Row_2.c **** *******************************************************************************/
 141:Generated_Source\PSoC5/Row_2.c **** uint8 Row_2_ReadDataReg(void)
 142:Generated_Source\PSoC5/Row_2.c **** {
 306              		.loc 1 142 0
 307              		.cfi_startproc
 308              		@ args = 0, pretend = 0, frame = 0
 309              		@ frame_needed = 0, uses_anonymous_args = 0
 310              		@ link register save eliminated.
 143:Generated_Source\PSoC5/Row_2.c ****     return (Row_2_DR & Row_2_MASK) >> Row_2_SHIFT;
 311              		.loc 1 143 0
 312 0000 024B     		ldr	r3, .L11
 313 0002 1878     		ldrb	r0, [r3]	@ zero_extendqisi2
 144:Generated_Source\PSoC5/Row_2.c **** }
 314              		.loc 1 144 0
 315 0004 00F00100 		and	r0, r0, #1
 316 0008 7047     		bx	lr
 317              	.L12:
 318 000a 00BF     		.align	2
 319              	.L11:
 320 000c 30510040 		.word	1073762608
 321              		.cfi_endproc
 322              	.LFE3:
 323              		.size	Row_2_ReadDataReg, .-Row_2_ReadDataReg
 324              		.text
 325              	.Letext0:
 326              		.file 2 "Generated_Source\\PSoC5\\cytypes.h"