ARM GAS  C:\Users\info\AppData\Local\Temp\ccwzFIpi.s 			page 1


   1              		.syntax unified
   2              		.cpu cortex-m3
   3              		.fpu softvfp
   4              		.eabi_attribute 20, 1
   5              		.eabi_attribute 21, 1
   6              		.eabi_attribute 23, 3
   7              		.eabi_attribute 24, 1
   8              		.eabi_attribute 25, 1
   9              		.eabi_attribute 26, 1
  10              		.eabi_attribute 30, 1
  11              		.eabi_attribute 34, 1
  12              		.eabi_attribute 18, 4
  13              		.thumb
  14              		.syntax unified
  15              		.file	"spi_oled_IntClock.c"
  16              		.text
  17              	.Ltext0:
  18              		.section	.gnu.lto_.profile.791e5240,"",%progbits
  19 0000 789C6361 		.ascii	"x\234ca`d`c`\000\222\327\031W0\002\000\005D\001\216"
  19      60646063 
  19      600092D7 
  19      19573002 
  19      00054401 
  20              		.text
  21              		.section	.gnu.lto_.inline.791e5240,"",%progbits
  22 0000 789C6361 		.ascii	"x\234ca`d\000\201\327\014\010\300\315\300\300\311\301"
  22      60640081 
  22      D70C08C0 
  22      CDC0C0C9 
  22      C1
  23 0011 C8C0C4F3 		.ascii	"\310\300\304\363 \226\201m\201<\023H\214\021S\210\211"
  23      2096816D 
  23      813C1348 
  23      8C115388 
  23      89
  24 0022 41461B28 		.ascii	"AF\033(d4\247\203\025.\306\314\300\315\016\024\023\230"
  24      6434A783 
  24      152EC6CC 
  24      C0CD0E14 
  24      1398
  25 0034 E0071762 		.ascii	"\340\007\027ba`a\006\0121]\340\207\013\2612\260\263"
  25      61606106 
  25      0A315DE0 
  25      870BB132 
  25      B0B3
  26 0046 0185380E 		.ascii	"\001\2058\016\330\301\205\330\0308@\032\271\2204\262"
  26      D8C185D8 
  26      1838401A 
  26      B99034B2 
  27 0056 33B0B200 		.ascii	"3\260\262\000\205X\026\310\303\20580\2058\031\0163\330"
  27      855816C8 
  27      C3853830 
  27      8538190E 
  27      33D8
  28 0068 02C52A5E 		.ascii	"\002\305*^\354bA8\215\033Fp1\250*\003em\372\3263b\221"
  28      EC624138 
  28      8D1B4670 
ARM GAS  C:\Users\info\AppData\Local\Temp\ccwzFIpi.s 			page 2


  28      31A82A03 
  28      656DFAD6 
  29 007f 65000044 		.ascii	"e\000\000Da\030\325"
  29      6118D5
  30              		.text
  31              		.section	.gnu.lto_.jmpfuncs.791e5240,"",%progbits
  32 0000 789C45CA 		.ascii	"x\234E\312\307\015\300 \000\300\300#t\030\204\3757\244"
  32      C70DC020 
  32      00C0C023 
  32      741884FD 
  32      37A4
  33 0012 7C62C91F 		.ascii	"|b\311\037\313IpY~\346\361\324\217H\"S\2504\372\035"
  33      CB497059 
  33      7EE6F1D4 
  33      8F482253 
  33      A834FA1D 
  34 0026 C6DB360E 		.ascii	"\306\3336\016e\000o"
  34      65006F
  35              		.text
  36              		.section	.gnu.lto_.pureconst.791e5240,"",%progbits
  37 0000 789C05C1 		.ascii	"x\234\005\301\207\015\000 \014\300\260\024\012e\034"
  37      870D0020 
  37      0CC0B014 
  37      0A651C
  38 000f 8094FF0F 		.ascii	"\200\224\377\017\305N\202\007\\\014\233\335t8-\227\333"
  38      C54E8207 
  38      5C0C9BDD 
  38      74382D97 
  38      DB
  39 0020 E3071224 		.ascii	"\343\007\022$\001}"
  39      017D
  40              		.text
  41              		.section	.gnu.lto_spi_oled_IntClock_Start.791e5240,"",%progbits
  42 0000 789C6361 		.ascii	"x\234ca`d\000\201\035@J\027HK\0031#3\003#\323\204s\014"
  42      60640081 
  42      1D404A17 
  42      484B0331 
  42      23330323 
  43 0018 0C8D1C4C 		.ascii	"\014\215\034L\214\214 F\003\007#C=\023c=\343W\246\277"
  43      8C8C2046 
  43      03072343 
  43      3D13633D 
  43      E357A6BF 
  44 002c 4C8C87DA 		.ascii	"L\214\207\332\237\355d\322\\\336\000\004\017\226Ngn"
  44      9FED64D2 
  44      5CDE0004 
  44      0F964E67 
  44      6E
  45 003d 587180B1 		.ascii	"Xq\200\261\225\231\201\341?\023\330$\006\306\345\214"
  45      959981E1 
  45      3F13D824 
  45      06C6E58C 
  46 004d 9A0C4065 		.ascii	"\232\014@e\2176\376\233\312\313\326\002R\246\000\221"
  46      8F36FE9B 
  46      CACBD602 
  46      52A60091 
  47 005d 645CC1C8 		.ascii	"d\\\301\310\006\262n}\320\201\206\377\377\233\033\016"
ARM GAS  C:\Users\info\AppData\Local\Temp\ccwzFIpi.s 			page 3


  47      06B26E7D 
  47      D08186FF 
  47      FF9B1B0E 
  48 006d EC655DC9 		.ascii	"\354e]\311\314\301\304\320\312\014\264\022H\260\202"
  48      CCC1C4D0 
  48      CA0CB412 
  48      48B082
  49 007c 083610C1 		.ascii	"\0106\020\301\300\360\001\250\001d\365G&&\020\315\374"
  49      C0F001A8 
  49      0164F547 
  49      262610CD 
  49      FC
  50 008d 8CF1D0AF 		.ascii	"\214\361\320\257\256c\327\330Af43\203\2341\255\365\320"
  50      AE63D7D8 
  50      41663433 
  50      839C31AD 
  50      F5D0
  51 009f 79F62F4C 		.ascii	"y\366/L\255\314L\214 \353\216\316:\265\223\007\302]"
  51      ADCC4C8C 
  51      20EB8ECE 
  51      3AB59307 
  51      C25D
  52 00b1 D4DED8C0 		.ascii	"\324\336\330\300\002\024Z|\363\355\003\276\371\214s"
  52      02145A7C 
  52      F3ED03BE 
  52      F98C73
  53 00c0 1B5B800E 		.ascii	"\033[\200\016df\\\305(\303\270\222Q\006\350\216\325"
  53      64665CC5 
  53      28C3B892 
  53      5106E88E 
  53      D5
  54 00d1 8CF31919 		.ascii	"\214\363\031\031\23616\377`\203\030\307\0141\361\350"
  54      9E3136FF 
  54      608318C7 
  54      0C31F1E8 
  55 00e1 FFEF07F8 		.ascii	"\377\357\007\370AF0221\256\001\252\004Z:\215\021\244"
  55      41463032 
  55      3231AE01 
  55      AA045A3A 
  55      8D11A4
  56 00f4 049F616B 		.ascii	"\004\237ak\201\206\001\215`\000\273\360\3341\250\013"
  56      8186018D 
  56      6000BBF0 
  56      DC31A80B 
  57 0104 59815AA6 		.ascii	"Y\201Z\246\277\233\337\313\013q\322&\250\223\276\334"
  57      BF9BDFCB 
  57      0B71D226 
  57      A893BEDC 
  58 0114 3F76970B 		.ascii	"?v\227\013a\312:\270)\353\321\234\0042\002\303\0158"
  58      61CA3AB8 
  58      29EBD19C 
  58      043202C3 
  58      0D38
  59 0126 756F00BB 		.ascii	"uo\000\273\201\215\341\025c\323\201\253\254 \325\340"
  59      818DE115 
  59      63D381AB 
  59      AC20D5E0 
ARM GAS  C:\Users\info\AppData\Local\Temp\ccwzFIpi.s 			page 4


  60 0136 A8F8000C 		.ascii	"\250\370\000\014\032`\340\001\203R\333=5/\265(\261$"
  60      1A60E001 
  60      8352DB3D 
  60      352FB528 
  60      B124
  61 0148 35253E38 		.ascii	"5%>8\277\264(95& 8\337\3314\246\270 3>?\007(\352\231"
  61      BFB42839 
  61      35262038 
  61      DFD934A6 
  61      B820333E 
  62 0161 57E29C93 		.ascii	"W\342\234\223\237\234\255\227\314\000\000\373M\240\262"
  62      9F9CAD97 
  62      CC0000FB 
  62      4DA0B2
  63              		.text
  64              		.section	.gnu.lto_spi_oled_IntClock_Stop.791e5240,"",%progbits
  65 0000 789C6361 		.ascii	"x\234ca`d\000\201]@J\027HK\0031#3\003#\323\204s\014"
  65      60640081 
  65      5D404A17 
  65      484B0331 
  65      23330323 
  66 0018 0C8D1C4C 		.ascii	"\014\215\034L\214\214 F\003\007#C=\023c=\343W\246\277"
  66      8C8C2046 
  66      03072343 
  66      3D13633D 
  66      E357A6BF 
  67 002c 4C8C87DA 		.ascii	"L\214\207\332\237\355d\322\\\336\000\004\017\236>6h"
  67      9FED64D2 
  67      5CDE0004 
  67      0F9E3E36 
  67      68
  68 003d 587180B1 		.ascii	"Xq\200\261\225\231\201\341?\023\330$\006\306\345\214"
  68      959981E1 
  68      3F13D824 
  68      06C6E58C 
  69 004d 9A0C4065 		.ascii	"\232\014@e\2176\376\233\312\313\326\002R\246\000\221"
  69      8F36FE9B 
  69      CACBD602 
  69      52A60091 
  70 005d 645CC1C8 		.ascii	"d\\\301\310\006\262n}\320\201\206\377\377\233\033\016"
  70      06B26E7D 
  70      D08186FF 
  70      FF9B1B0E 
  71 006d 6C643BB8 		.ascii	"ld;\270\203\215\203\211\241\225\031h'\220`\005\021l"
  71      838D8389 
  71      A1951968 
  71      27906005 
  71      116C
  72 007f 208281E1 		.ascii	" \202\201\341\003P\007\310\356\217LL \232\371\031\343"
  72      035007C8 
  72      EE8F4C4C 
  72      209AF919 
  72      E3
  73 0090 A15F5DD7 		.ascii	"\241_]\327fV\201\014if\006\271cZ\353\241\363\354_\230"
  73      6656810C 
  73      696606B9 
  73      635AEBA1 
ARM GAS  C:\Users\info\AppData\Local\Temp\ccwzFIpi.s 			page 5


  73      F3EC5F98 
  74 00a4 5A999918 		.ascii	"Z\231\231\030A\366\035\235uj'\017\204\273\250\275\261"
  74      41F61D9D 
  74      756A270F 
  74      84BBA8BD 
  74      B1
  75 00b5 810528B4 		.ascii	"\201\005(\264\370\346\333\007|\363\031\3476\266\000"
  75      F8E6DB07 
  75      7CF319E7 
  75      36B600
  76 00c4 5DC8CCB8 		.ascii	"]\310\314\270\212Q\206q%\243\014\320!\253\031\34732"
  76      8A518671 
  76      25A30CD0 
  76      21AB19E7 
  76      3332
  77 00d6 3C636CFE 		.ascii	"<cl\376\303\0061\216\031bb\343\333\266K\034 #\230\031"
  77      C306318E 
  77      196262E3 
  77      DBB64B1C 
  77      20239819 
  78 00ea FF3232AE 		.ascii	"\37722\256\001*\005\332:\215\021\244\006\237ik\201\246"
  78      012A05DA 
  78      3A8D11A4 
  78      069F696B 
  78      81A6
  79 00fc 01CD6000 		.ascii	"\001\315`\000;\361\336\314\012\210\231\254@-\323\337"
  79      3BF1DECC 
  79      0A8899AC 
  79      402DD3DF 
  80 010c CDEFE585 		.ascii	"\315\357\345\205\270i\023\324M_\356\037\273\313\205"
  80      B86913D4 
  80      4D5FEE1F 
  80      BBCB85
  81 011b 30651DDC 		.ascii	"0e\035\334\224\365hn\002\031\201\341\006\234\2727\200"
  81      94F5686E 
  81      021981E1 
  81      069CBA37 
  81      80
  82 012c DDC0C6F0 		.ascii	"\335\300\306\360\212\261\351\300N7\220jpd|\000\206\015"
  82      8AB1E9C0 
  82      4E37906A 
  82      70647C00 
  82      860D
  83 013e 30F48061 		.ascii	"0\364\200a\251\355\236\232\227Z\224X\222\232\022\037"
  83      A9ED9E9A 
  83      975A9458 
  83      929A121F 
  84 014e 9C5F5A94 		.ascii	"\234_Z\224\234\032\023\020\234\357l\032S\\\220\031\237"
  84      9C1A1310 
  84      9CEF6C1A 
  84      535C9019 
  84      9F
  85 015f 9F0314F5 		.ascii	"\237\003\024\365\314+q\316\311O\316\326Kf\000\000\357"
  85      CC2B71CE 
  85      C94FCED6 
  85      4B660000 
  85      EF
ARM GAS  C:\Users\info\AppData\Local\Temp\ccwzFIpi.s 			page 6


  86 0170 83A33E   		.ascii	"\203\243>"
  87              		.text
  88              		.section	.gnu.lto_spi_oled_IntClock_StopBlock.791e5240,"",%progbits
  89 0000 789C8D94 		.ascii	"x\234\215\224[LTG\030\307\347\2339\227\335u\327\205"
  89      5B4C5447 
  89      18C7E79B 
  89      3997DD75 
  89      D785
  90 0012 C8431F4C 		.ascii	"\310C\037L\343\213\017\306DMl\023_\033\215\246>5\370"
  90      E38B0FC6 
  90      444D6C13 
  90      5F1B8DA6 
  90      3E35F8
  91 0025 62130DB1 		.ascii	"b\023\015\261\260\017D\342\032\274<\326\2637i\210m\305"
  91      B00F44E2 
  91      1ABC3CD6 
  91      B3376988 
  91      6DC5
  92 0037 B460BC74 		.ascii	"\264`\274t\223\356\203\353\245\"^P\024\345\210\"\212"
  92      93EE83EB 
  92      A5225E50 
  92      14E58822 
  92      8A
  93 0048 88658335 		.ascii	"\210e\2035\255\255\025\264\304\230\322\354V\264\225"
  93      ADAD15B4 
  93      C498D2EC 
  93      56B495
  94 0057 15D76FCE 		.ascii	"\025\327o\3167{\270(\306\223\2349gf\276\371\315\177"
  94      377BB828 
  94      C6939C39 
  94      6766BEF9 
  94      CD7F
  95 0069 BECB680C 		.ascii	"\276\313h\014\230|\312\015\306\226\341\267\002_\360"
  95      987CCA0D 
  95      C696E1B7 
  95      025FF0
  96 0078 30E0BBFB 		.ascii	"0\340\273\373\030\213x8\027\003\213\231\3453\332?d\226"
  96      188B7838 
  96      17038B99 
  96      E533DA3F 
  96      6496
  97 008a 5F8046C3 		.ascii	"_\200F\303\0327wu3\034\327\343&\216\2334\376\211\016"
  97      1A377775 
  97      331CD7E3 
  97      268E9B34 
  97      FE890E
  98 009d 06CD1B00 		.ascii	"\006\315\033\000\362\307\362\000\333\301\205f\352\006"
  98      F2C7F200 
  98      DBC18566 
  98      EA06
  99 00ab ECE01AA3 		.ascii	"\354\340\032\243\347\031\037\347\320Y7\334\306\027\034"
  99      E7191FE7 
  99      D05937DC 
  99      C6171C
 100 00ba B2F07990 		.ascii	"\262\360y\220x\272\304J\333\220\020\214\0258\331\300"
 100      78BAC44A 
 100      DB90108C 
ARM GAS  C:\Users\info\AppData\Local\Temp\ccwzFIpi.s 			page 7


 100      1538D9C0 
 101 00ca 2158C0D0 		.ascii	"!X\300\320l\250\345\325\367\001#.\315\346\321$\244\301"
 101      6CA8E5D5 
 101      F701232E 
 101      CDE6D124 
 101      A4C1
 102 00dc 40C98093 		.ascii	"@\311\200\223]\205\377\354\340(O\010\000\211\314d{\017"
 102      5D85FFEC 
 102      E0284F08 
 102      0089CC64 
 102      7B0F
 103 00ee CE925D0E 		.ascii	"\316\222]\016%\330\375\346\257#w\375b\021H\314\275\330"
 103      25D8FDE6 
 103      AF2377FD 
 103      621148CC 
 103      BDD8
 104 0100 D1BB81F9 		.ascii	"\321\273\201\371)\313\212Z\366\251\272\262\275\226\035"
 104      29CB8A5A 
 104      F6A9BAB2 
 104      BD961D
 105 010f 9D971002 		.ascii	"\235\227\020\002\216\202@(\034\201\271p\030\346\322"
 105      8E824028 
 105      1C81B970 
 105      18E6D2
 106 011e CEC7607E 		.ascii	"\316\307`~s\271m\025\0121\313\336o^n\365}\300YBh\232"
 106      73B96D15 
 106      0A31CBDE 
 106      6F5E6EF5 
 106      7DC05942 
 107 0134 6C74D978 		.ascii	"lt\331xe\343\223\215\337\261\016\312\337\022\331\224"
 107      65E3938D 
 107      DFB10ECA 
 107      DF12D994 
 108 0144 CA668E6C 		.ascii	"\312f\216l\312d\303X\026\025_\231\305r\234\343G\014"
 108      CA64C358 
 108      16155F99 
 108      C5729CE3 
 108      470C
 109 0156 43E758FD 		.ascii	"C\347X\375\363\003\037\311#\304\204\206\272\032\023"
 109      F3031FC9 
 109      23C48486 
 109      BA1A13
 110 0165 9DB74D29 		.ascii	"\235\267M)Ywdv\355\353i\363S\367\307\272\210%-R\277"
 110      59776476 
 110      EDEB69F3 
 110      53F7C7BA 
 110      88252D52 
 111 017a 8E3C989D 		.ascii	"\216<\230\235\204\203\2218\372\307\200\343\250\364'"
 111      84839138 
 111      FAC780E3 
 111      A8F427
 112 0189 A9149A21 		.ascii	"\251\024\232!\011l\030b/W\262\230\340\204s\035\242\001"
 112      096C1862 
 112      2F57B298 
 112      E084731D 
 112      A201
 113 019b 87136836 		.ascii	"\207\023h6\010\361{\261/h?\351\242\346\277\333^\004"
ARM GAS  C:\Users\info\AppData\Local\Temp\ccwzFIpi.s 			page 8


 113      08F17BB1 
 113      2F683FE9 
 113      A2E6BFDB 
 113      5E04
 114 01ad C880418B 		.ascii	"\310\200A\213:q\216\013\0267\245\272\321\354H\277>\315"
 114      3A718E0B 
 114      1637A5BA 
 114      D1EC48BF 
 114      3ECD
 115 01bf EBF2848E 		.ascii	"\353\362\204\216\323q\317\223`\340l\276/s\307C*#\026"
 115      D371CF93 
 115      60E06CBE 
 115      2F73C743 
 115      2A2316
 116 01d2 A94C1C4B 		.ascii	"\251L\034K\035\0108*#\226\265\224I\245\247\\\245\247"
 116      1D08382A 
 116      2396B594 
 116      49A5A75C 
 116      A5A7
 117 01e4 51E9E4B3 		.ascii	"Q\351\344\263b\370\340\014\316\310\015O<\213\230\012"
 117      62F8E00C 
 117      CEC80D4F 
 117      3C8B980A 
 118 01f4 7BEBD1BF 		.ascii	"{\353\321\2779\345\213\335\012\373\"\377\377\306\251"
 118      39E58BDD 
 118      0AFB22FF 
 118      FFC6A9
 119 0203 D456977A 		.ascii	"\324V\227z\226\250\355\311]\207}D\345pNQ\263\023\324"
 119      96A8EDC9 
 119      5D877D44 
 119      E5704E51 
 119      B313D4
 120 0216 8B8F3BEA 		.ascii	"\213\217;\352\275D\375NQ\007\006\232R\336\251\3306\027"
 120      BD44FD4E 
 120      5107069A 
 120      52DEA9D8 
 120      3617
 121 0228 7B1EB145 		.ascii	"{\036\261Euc\365\257~\330,91\341\305u\217\366t=\016"
 121      7563F5AF 
 121      7ED82C39 
 121      31E1C575 
 121      8FF6743D 
 122 023d 10EA2B85 		.ascii	"\020\352+\205j\277\231\262\203\023\321\271\340b\332"
 122      6ABF99B2 
 122      8313D1B9 
 122      E062DA
 123 024c 8BD13168 		.ascii	"\213\3211h\275\217\020\371\353\303\035AR[`p\221\266"
 123      BD8F10F9 
 123      EBC31D41 
 123      525B6070 
 123      91B6
 124 025e 6904A575 		.ascii	"i\004\245uF\332%\244!\2034\365%\327\022\323?\331\251"
 124      46DA25A4 
 124      218334F5 
 124      25D712D3 
 124      3FD9A9
 125 0271 A69340CF 		.ascii	"\246\223@\317\007\1777\250\027\217\220\302\214\235\317"
ARM GAS  C:\Users\info\AppData\Local\Temp\ccwzFIpi.s 			page 9


 125      077F37A8 
 125      178F90C2 
 125      8C9DCF
 126 0280 BB875D8F 		.ascii	"\273\207]\217\207\365\200\215\334\016\207{Y\252\034"
 126      87F5808D 
 126      DC0E877B 
 126      59AA1C
 127 028f 82A8F5B9 		.ascii	"\202\250\365\271$\312H#\325\221\3242\336 \224*w\013"
 127      24CA4823 
 127      D591D432 
 127      DE20942A 
 127      770B
 128 02a1 AFB3C5B9 		.ascii	"\257\263\305\271V\373[\017u\243\312\013\035\017\177"
 128      56FB5B0F 
 128      75A3CA0B 
 128      1D0F7F
 129 02b0 6B1045DD 		.ascii	"k\020E\335>\270\202\374N\207\177\325\321\355\247\230"
 129      3EB882FC 
 129      4E877FD5 
 129      D1EDA798 
 130 02c0 8CF7EB8A 		.ascii	"\214\367\353\212\370\316l\351\242\270\336\350iJ\373"
 130      F8CE6CE9 
 130      A2B8DEE8 
 130      694AFB
 131 02cf C953265C 		.ascii	"\311S&\\s25\2077\010\336*\252\214\222\345\344\205\340"
 131      73323587 
 131      3708DE2A 
 131      AA8C92E5 
 131      E485E0
 132 02e2 14204C85 		.ascii	"\024 L\205uO.\022\235\214O_\355\336\351\241\032\000"
 132      754F2E12 
 132      9D8C4F5F 
 132      EDDEE9A1 
 132      1A00
 133 02f4 B85E2C92 		.ascii	"\270^,\222/\211\246\273U\221\345&\303;\016r\\W\3251"
 133      2F89A6BB 
 133      5591E526 
 133      C33B0E72 
 133      5C57D531 
 134 0308 56FF4B7A 		.ascii	"V\377Kz\017\220]\311\273J\363\306\264\340\227\222}d"
 134      0F905DC9 
 134      BB4AF3C6 
 134      B4E09792 
 134      7D64
 135 031a 6467C643 		.ascii	"dg\306CG\032\007\350\231\026\374\031i7\035'\226R\360"
 135      471A07E8 
 135      9916FC19 
 135      69371D27 
 135      9652F0
 136 032d EFA71B95 		.ascii	"\357\247\033\225\2029\270\246\351\237\344\327*#O\252"
 136      8239B8A6 
 136      E99FE4D7 
 136      2A234FAA 
 137 033d FB62F4CF 		.ascii	"\373b\364\317k\177\370&0\275.\346\3264Qe\210xC\304\214"
 137      6B7FF826 
 137      30BD2EE6 
 137      D6345165 
ARM GAS  C:\Users\info\AppData\Local\Temp\ccwzFIpi.s 			page 10


 137      887843C4 
 138 0352 ABFB1C11 		.ascii	"\253\373\034\021e\024\311\356\314{E\362\366\244Rjl\350"
 138      6514C9EE 
 138      CC7B45F2 
 138      F6A4526A 
 138      6CE8
 139 0364 E56A4D31 		.ascii	"\345jM1G\275o\311Q'\177~v\363\247_\345\217\214\275!"
 139      47BD6FC9 
 139      51277F7E 
 139      76F3A75F 
 139      E58F8CBD 
 140 0379 6FD02710 		.ascii	"o\320'\020\265\317\256\246\333\310\211\021\340(\336"
 140      B5CFAEA6 
 140      DBC88911 
 140      E028DE
 141 0388 B10B5785 		.ascii	"\261\013W\2056\205j7l\015UU\254\011o\253\255\014\255"
 141      36856A37 
 141      6C0D5555 
 141      AC096FAB 
 141      AD0CAD
 142 039b FB6C4D78 		.ascii	"\373lMx\371\307\353\266l\256\256\010\327\340\350\247"
 142      F9C7EBB6 
 142      6CAEAE08 
 142      D7E0E8A7 
 143 03ab 9BB62EAF 		.ascii	"\233\266.\257\011Wn\\T\311|\341\232\252\025\325\333"
 143      09576E5C 
 143      54C97CE1 
 143      9AAA15D5 
 143      DB
 144 03bc ABAB42B5 		.ascii	"\253\253B\265\257\001w\0278\020"
 144      AF017717 
 144      3810
 145              		.text
 146              		.section	.gnu.lto_spi_oled_IntClock_StandbyPower.791e5240,"",%progbits
 147 0000 789C8D51 		.ascii	"x\234\215Q\317KTQ\024>\337\275\367\315<\246\206\376"
 147      CF4B5451 
 147      143EDFBD 
 147      F7CD3CA6 
 147      86FE
 148 0012 8141DC89 		.ascii	"\201A\334\211$Z\210\3336.\"\334\210n\025\211i\026\222"
 148      245A88DB 
 148      362E22DC 
 148      886E1589 
 148      691692
 149 0025 38A1D3DA 		.ascii	"8\241\323\332;\316LB\020\270QW\343\254\304\037Y\223"
 149      3BCE4C42 
 149      10B85157 
 149      E3ACC41F 
 149      5993
 150 0037 8688E0E2 		.ascii	"\206\210\340\3425PK\203p\025H\351b\026R9\242\321\017"
 150      35504B83 
 150      701548E9 
 150      62165239 
 150      A2D10F
 151 004a 9A5EE7BC 		.ascii	"\232^\347\274k[\361\302=\367\274\303\367}\347;\347\031"
 151      6B5BF1C2 
 151      3DF7BCC3 
ARM GAS  C:\Users\info\AppData\Local\Temp\ccwzFIpi.s 			page 11


 151      F77DE73B 
 151      E719
 152 005c 02C9E951 		.ascii	"\002\311\351QD\335\374\336\341\213\030A\315\356\021"
 152      44DDFCDE 
 152      E18B1841 
 152      CDEE11
 153 006b E57DA5F4 		.ascii	"\345}\245\364n\013\331\204\331\357\"{]\303se\363?\361"
 153      6E0BD984 
 153      D9EF227B 
 153      5DC37365 
 153      F33FF1
 154 007e 0049AC0F 		.ascii	"\000I\254\017\232R\332x\230\302w\325T\250\315\324wT"
 154      9A52DA78 
 154      98C277D5 
 154      54A8CDD4 
 154      7754
 155 0090 FBB2E5F3 		.ascii	"\373\262\345\363y\251z\333\256\004(i\242PE\315\010\313"
 155      79A97ADB 
 155      AE042869 
 155      A25045CD 
 155      08CB
 156 00a2 6867D441 		.ascii	"hg\324A\371\344\314\350N\020\347\345`\253\241\333\226"
 156      F9E4CCE8 
 156      4E10E7E5 
 156      60ABA1DB 
 156      96
 157 00b3 AC9DB676 		.ascii	"\254\235\266v{\330\352\222\006V\240\231\201\356\024"
 157      7BD8EA92 
 157      0656A099 
 157      81EE14
 158 00c2 6EA5880B 		.ascii	"n\245\210\013\204U\264\011\370h\343\357\\2V\024\371"
 158      8455B409 
 158      F868E3EF 
 158      5C325614 
 158      F9
 159 00d3 56278A35 		.ascii	"V'\2125\304d\222\352@`\303\260`\203f\342\315\342\265"
 159      C46492EA 
 159      4060C3B0 
 159      608366E2 
 159      CDE2B5
 160 00e6 8482500C 		.ascii	"\204\202P\014\223\225'!.\301\227@\324\340+\346O\225"
 160      93952721 
 160      2EC19740 
 160      D4E02BE6 
 160      4F95
 161 00f8 92571FA2 		.ascii	"\222W\037\242\370\261\020\316\305E\252\240e\212\352"
 161      F8B110CE 
 161      C545AAA0 
 161      658AEA
 162 0107 979D5FC9 		.ascii	"\227\235_\311s\305hn\375\034\251\310\373\251\322\264"
 162      73C5686E 
 162      FD1CA9C8 
 162      FBA9D2B4 
 163 0117 DBA2EBA8 		.ascii	"\333\242\353\250\375~\272\267>\017\0077\014\237/\325"
 163      FD7EBAB7 
 163      3E0F0737 
 163      0C9F2FD5 
ARM GAS  C:\Users\info\AppData\Local\Temp\ccwzFIpi.s 			page 12


 164 0127 DEC705AE 		.ascii	"\336\307\005\256\243\211\026\276U\236%\335\347\346L"
 164      A38916BE 
 164      559E25DD 
 164      E7E64C
 165 0136 DE0AE2FC 		.ascii	"\336\012\342\374\323\273\203D\005\345|\221\327a\360"
 165      D3BB8344 
 165      05E57C91 
 165      D761F0
 166 0145 0229AC8B 		.ascii	"\002)\254\213,^\242\002\252\243\360'\346\344<\247\230"
 166      2C5EA202 
 166      AAA3F027 
 166      E6E43CA7 
 166      98
 167 0156 FFFAE483 		.ascii	"\377\372\344\203/\022\006M\240\312Pn\353Z^\246\366\212"
 167      2F12064D 
 167      A0CA506E 
 167      EB5A5EA6 
 167      F68A
 168 0168 D5582332 		.ascii	"\325X#2kh\277\313\231=\356p\332\361\313\250\033\027"
 168      6B68BFCB 
 168      993DEE70 
 168      DAF1CBA8 
 168      1B17
 169 017a 467E5E18 		.ascii	"F~^\030\361\035\376m\370#\270\3416\241\260yU\037\257"
 169      F11DFE6D 
 169      F823B8E1 
 169      36A1B079 
 169      551FAF
 170 018d 231F7EE4 		.ascii	"#\037~\344\303\213v|\214\351\240\322'\274h\227\015^"
 170      C38B767C 
 170      8CE9A0D2 
 170      27BC6897 
 170      0D5E
 171 019f 2C97F947 		.ascii	",\227\371G\334\274\233\031\317L\334\317e\036\214\014"
 171      DCBC9B19 
 171      CF4CDCCF 
 171      651E8C0C 
 172 01af 661F4FA4 		.ascii	"f\037O\2443C\375\203\331\336\236\241\311G\243#\3311"
 172      3343FD83 
 172      D9DE9EA1 
 172      C947A323 
 172      D931
 173 01c1 AEDE1BCF 		.ascii	"\256\336\033\317\365\216e\323\017;\323\344M\346\030"
 173      F58E65D3 
 173      0F3BD3E4 
 173      4DE618
 174 01d0 F80F6DC4 		.ascii	"\370\017m\304\316\370"
 174      CEF8
 175              		.text
 176              		.section	.gnu.lto_spi_oled_IntClock_GetDividerRegister.791e5240,"",%progbits
 177 0000 789C6361 		.ascii	"x\234ca`d\000\201\037@\254\013\304\322@\314\310\314"
 177      60640081 
 177      1F40AC0B 
 177      C4D240CC 
 177      C8CC
 178 0012 C0C834E1 		.ascii	"\300\3104\341\034\003C#\007\023##\210\321\300\301\310"
 178      1C034323 
ARM GAS  C:\Users\info\AppData\Local\Temp\ccwzFIpi.s 			page 13


 178      07132323 
 178      88D1C0C1 
 178      C8
 179 0023 50CFC458 		.ascii	"P\317\304X\317\370\225\351/\023\343\321\377\337\017"
 179      CFF895E9 
 179      2F13E3D1 
 179      FFDF0F
 180 0032 F07F616A 		.ascii	"\360\177aj\005)\003r/}83\227\033\304ed\024\000rW-Y\377"
 180      05290372 
 180      2F7D3833 
 180      971BC465 
 180      64140072 
 181 004a 89437379 		.ascii	"\211CsyCCS\303\203\245\333\234\032\233[5Z\231\231\030"
 181      434353C3 
 181      83A5DB9C 
 181      1A9B5B35 
 181      5A999918 
 182 005e FE333130 		.ascii	"\376310\256`\224a\\\316(\003\262b%\243&\003P\361\243"
 182      AE609461 
 182      5CCE2803 
 182      B26225A3 
 182      260350F1 
 183 0073 8DFFA6F2 		.ascii	"\215\377\246\362\262\2654\000\201\002H\011Pf\025#\033"
 183      B2B53400 
 183      81024809 
 183      50661523 
 183      1B
 184 0084 C849EB83 		.ascii	"\310I\353\203\0164\374\377\337\334p`\253\360\301\035"
 184      0E34FCFF 
 184      DFDC7060 
 184      ABF0C11D 
 185 0094 C2400340 		.ascii	"\302@\003@\2060|\000b\220\203>21\201h\346g\214\207~"
 185      86307C00 
 185      6290833E 
 185      32318168 
 185      E6678C87 
 186 00a9 75DD3B6B 		.ascii	"u\335;k\001\322\325\314\014r\315\264\326C\347\331A\256"
 186      01D2D5CC 
 186      0C72CDB4 
 186      D643E7D9 
 186      41AE
 187 00bb 61660459 		.ascii	"af\004Y\360\355\341\0356\010\257\245\261\261\201\005"
 187      F0EDE11D 
 187      3608AFA5 
 187      B1B18105 
 188 00cb E4DC03BF 		.ascii	"\344\334\003\277\177s\316g\234\333\330\302\330\312\314"
 188      7F73CE67 
 188      9CDBD8C2 
 188      D8CACC
 189 00da C2B806E8 		.ascii	"\302\270\006\350\246\325 71\256e\234\317\310\360\212"
 189      A6D52037 
 189      31AE659C 
 189      CFC8F08A 
 190 00ea 91096A16 		.ascii	"\221\011j\026(T>01\202\254\001\262\265\335S\363R\213"
 190      28543E30 
 190      3182AC01 
 190      B2B5DD53 
ARM GAS  C:\Users\info\AppData\Local\Temp\ccwzFIpi.s 			page 14


 190      F3528B
 191 00fd 124B5253 		.ascii	"\022KRS\342\203\363K\213\222Sc\002\202\363\235Mc\212"
 191      E283F34B 
 191      8B925363 
 191      0282F39D 
 191      4D638A
 192 0110 0B32E3F3 		.ascii	"\0132\343\363s\200\242\236y%\3169\371\311\331z\311\014"
 192      7380A29E 
 192      7925CE39 
 192      F9C9D97A 
 192      C90C
 193 0122 00286A69 		.ascii	"\000(ji\210"
 193      88
 194              		.text
 195              		.section	.gnu.lto_spi_oled_IntClock_SetModeRegister.791e5240,"",%progbits
 196 0000 789C7D51 		.ascii	"x\234}Q=hSQ\024>\337\275//iD\334\262\230\241[)\205 "
 196      3D685351 
 196      143EDFBD 
 196      2F2F6944 
 196      DCB298A1 
 197 0018 1507573B 		.ascii	"\025\007W;H\007A\032pJ)%yCH\314\223$\202\223\271\371"
 197      4807411A 
 197      704A2925 
 197      794348CC 
 197      93248293 
 198 002e 79159DBA 		.ascii	"y\025\235\272$\213H&I\377K\241K)m_3\213\245n\026\013"
 198      248B4826 
 198      49FF4BA1 
 198      4B296D5F 
 198      338BA56E 
 199 0044 A595084E 		.ascii	"\245\225\010NQ\374C\252\361\234\304\241S/\334s\316w"
 199      51FC43AA 
 199      F19CC4A1 
 199      532FDC73 
 199      CE77
 200 0056 EE77BE7B 		.ascii	"\356w\276{\316\275\026\201d\371\354n\263\277\316\033"
 200      CEBD1681 
 200      64F9EC6E 
 200      B3BFCE1B 
 201 0066 9AA0E6DF 		.ascii	"\232\240\346\337\022\225C\012\220\300\204@%\205\022"
 201      1295430A 
 201      90C08440 
 201      258512
 202 0075 BEAB3F0A 		.ascii	"\276\253?\012\355g\235-5\3322\274N\274O\343f\301\207"
 202      ED679D2D 
 202      35DA32BC 
 202      4EBC4FE3 
 202      66C187
 203 0088 A7897AAA 		.ascii	"\247\211z\252\257Dha\224Y\225\227?\317,\035\003q|\376"
 203      AF446861 
 203      94599597 
 203      3FCF2C1D 
 203      03717CFE 
 204 009c E6F84378 		.ascii	"\346\370Cx\344\2651\025cv\246\215\3664\260\000\315\025"
 204      E4B53115 
 204      6376A68D 
 204      F634B000 
ARM GAS  C:\Users\info\AppData\Local\Temp\ccwzFIpi.s 			page 15


 204      CD15
 205 00ae B819C58D 		.ascii	"\270\031\305\215(q\202\260\210\021!\237n\374\255_\265"
 205      287182B0 
 205      8811219F 
 205      6EFCAD5F 
 205      B5
 206 00bf 6B223F3C 		.ascii	"k\"?<\020\305\022lis}\3127\275^\325\370\333\221\375"
 206      10C5126C 
 206      69737DCA 
 206      37BD5ED5 
 206      F8DB91FD 
 207 00d3 DD485871 		.ascii	"\335HXq\231\322l\264\005)\016Hh\213\011\212\011\311"
 207      99D26CB4 
 207      05290E48 
 207      688B098A 
 207      09C9
 208 00e5 315197B7 		.ascii	"1Q\227\267\314\360E)\361\272\203\366\357\027?\336?\025"
 208      CCF04529 
 208      F1BA83F6 
 208      EF173FDE 
 208      3F15
 209 00f7 D1AA9679 		.ascii	"\321\252\226y\032^\373 \370My,#\367\037u\237\327\207"
 209      1A5EFB20 
 209      F84D792C 
 209      23F71F75 
 209      9FD787
 210 010a 0670AE5C 		.ascii	"\006p\256\\6\026\247<s\370\321j\342U\271\306\223\006"
 210      3616A73C 
 210      73F8D16A 
 210      E255B9C6 
 210      9306
 211 011c B0822896 		.ascii	"\260\202(\226\021\345\306V\321\004uP\371\032\034\310"
 211      11E5C656 
 211      D1047550 
 211      F91A1CC8 
 212 012c 6956BC88 		.ascii	"iV\274\210\003Um1\256\236\333\003,)\321{W\337\274&W"
 212      03556D31 
 212      AE9EDB03 
 212      2C29D17B 
 212      57DFBC26 
 213 0141 683CC11A 		.ascii	"h<\301\032+1\345\327\177J\260\257b_T\011q\226q\273\001"
 213      2B31E5D7 
 213      7F4AB0AF 
 213      625F5409 
 213      719671BB 
 214 0156 C197F5B3 		.ascii	"\301\227\365\263\316\3750\237>\243\342\357=\020v\377"
 214      CEFD309F 
 214      3EA3E2EF 
 214      3D1076FF 
 215 0166 4BBA0A32 		.ascii	"K\272\0122;\277\304\330]'\347\344g\213Nj&\356>\316'"
 215      3BBFC4D8 
 215      5D27E7E4 
 215      678B4E6A 
 215      26EE3ECE 
 216 017b 9DC4FDB8 		.ascii	"\235\304\375\270;q+Qx\224\236q\263\234\235\314\025'"
 216      3B712B51 
 216      78949E71 
ARM GAS  C:\Users\info\AppData\Local\Temp\ccwzFIpi.s 			page 16


 216      B39C9DCC 
 216      1527
 217 018d B26E3213 		.ascii	"\262n2\023K\322\225\207n\312\271\223.\336\233-d\376"
 217      4BD29587 
 217      6ECAB993 
 217      2EDE9B2D 
 217      64FE
 218 019f 012798A0 		.ascii	"\001'\230\240\215"
 218      8D
 219              		.text
 220              		.section	.gnu.lto_spi_oled_IntClock_ClearModeRegister.791e5240,"",%progbits
 221 0000 789C7D50 		.ascii	"x\234}P=,\203Q\024\275\347\275O\0251\033t\260\211HD"
 221      3D2C8351 
 221      14BDE7BD 
 221      4F15311B 
 221      74B08948 
 222 0015 88C1CA20 		.ascii	"\210\301\312 \006\2110X\210H}\203(\237P+\257\255\257"
 222      06893058 
 222      88487D83 
 222      289F502B 
 222      AFADAF
 223 0028 A2938581 		.ascii	"\242\223\205\201\210IZ\3771\332\252\263\220&\265\010"
 223      88495AFF 
 223      31DAAAB3 
 223      9026B508 
 224 0038 227E3A98 		.ascii	"\"~:\230*!\025)uo\277\335K\336\273\367\235\234s\336"
 224      2A211529 
 224      756FBFDD 
 224      4BDEBBF7 
 224      9D9C73DE 
 225 004c B9CF2290 		.ascii	"\271\317\"\220\254-.\335\\\033yC\023\324\372\025Q\304"
 225      AC2D2EDD 
 225      5C1B7943 
 225      13D4FA15 
 225      51C4
 226 005e AF00698C 		.ascii	"\257\000i\214\037\264\254\260\214O\365\243\220Y\315"
 226      1FB4ACB0 
 226      8C4FF5A3 
 226      9059CD
 227 006d 9FAB96A4 		.ascii	"\237\253\226\244\341\365\370Z\3540\2514\\MTV\025'B\022"
 227      E1F5F85A 
 227      EC30A934 
 227      5C4D5456 
 227      15274212 
 228 0081 2DCC8A6E 		.ascii	"-\314\212n\027\237-\335\006\342\276ty\177W\333\274g"
 228      179F2DDD 
 228      06E2BE74 
 228      797F57DB 
 228      BC67
 229 0093 4CD498EC 		.ascii	"L\324\230\354\230\321\256\006R\320\254@g\000\355\001"
 229      98D1AE06 
 229      52D0AC40 
 229      6700ED01 
 230 00a3 6280B08F 		.ascii	"b\200\260\217f!?\235\375n\324\373V\304\276\3113\305"
 230      66213F9D 
 230      FD6ED4FB 
 230      56C4BEC9 
ARM GAS  C:\Users\info\AppData\Local\Temp\ccwzFIpi.s 			page 17


 230      33C5
 231 00b5 017C12F3 		.ascii	"\001|\022\363t(m\312\345\230Ig\033.r\015~\3052\305N"
 231      74286DCA 
 231      E5984967 
 231      1B2E720D 
 231      7EC532C5 
 232 00ca ACB3A4AD 		.ascii	"\254\263\244\255\222\303'\007Q\201\267$\177WJ\252\316"
 232      92C32707 
 232      5181B724 
 232      7F574AAA 
 232      CE
 233 00db 23F39DB8 		.ascii	"#\363\235\270zX\022\253\230\226)6\335\314u\365\207r"
 233      7A5812AB 
 233      98962936 
 233      DDCC75F5 
 233      8772
 234 00ed B5AE44BC 		.ascii	"\265\256D\274-\254m\324x\327x$b,\206\\\223}\261v\261"
 234      2DAC6DD4 
 234      78D77824 
 234      622C865C 
 234      937DB176 
 235 0102 1359E1F9 		.ascii	"\023Y\341\371,\034!\200C\0048\3161vAyD\177\3439\313"
 235      2C1C2180 
 235      430438CE 
 235      31764179 
 235      447FE339 
 236 0117 33B4625A 		.ascii	"3\264bZ3\022\373\212\227\264\207T1\310\036\037\011\267"
 236      3312FB8A 
 236      97B48754 
 236      31C81E1F 
 236      09B7
 237 0129 A8C556A1 		.ascii	"\250\305V\241\032'\254fR\311\347Q$\010\023\031\312l"
 237      1A27AC66 
 237      52C9E751 
 237      24081319 
 237      CA6C
 238 013b 42A0FFDE 		.ascii	"B\240\377\336<\3457YBo\210\246oF\204]\371\354\202\202"
 238      3CE53759 
 238      426F88A6 
 238      6F46845D 
 238      F9EC8282 
 239 014f CCC7D3B6 		.ascii	"\314\307\323\266\366\331\263\366\374D\330\236\034\037"
 239      F6D9B3F6 
 239      FC44D89E 
 239      1C1F
 240 015d 7616E783 		.ascii	"v\026\347\203\366\350\340\260\323\3335\272075\356\204"
 240      F6E8E0B0 
 240      D3DB35BA 
 240      303735EE 
 240      84
 241 016e 18ED9F0D 		.ascii	"\030\355\237\015\367\206\234\340t[\220\352f\234I\273"
 241      F7869CE0 
 241      745B90EA 
 241      669C49BB 
 242 017e 672A3C30 		.ascii	"g*<0\2610\375\007\003\034\232A"
 242      B130FD07 
 242      031C9A41 
ARM GAS  C:\Users\info\AppData\Local\Temp\ccwzFIpi.s 			page 18


 243              		.text
 244              		.section	.gnu.lto_spi_oled_IntClock_GetModeRegister.791e5240,"",%progbits
 245 0000 789C6361 		.ascii	"x\234ca`d\000\001& \245\013\244\245\201\230\221\231"
 245      60640001 
 245      2620A50B 
 245      A4A58198 
 245      9199
 246 0012 819169C2 		.ascii	"\201\221i\3029\006\206F\016&FF\020\243\201\203\221\241"
 246      39068646 
 246      0E264646 
 246      10A38183 
 246      91A1
 247 0024 9E89B19E 		.ascii	"\236\211\261\236\361+\323_&\306\323\337O\364pi.ohhj"
 247      F12BD35F 
 247      26C6D3DF 
 247      4FF47069 
 247      2E6F6868 
 248 0039 78D0BAD8 		.ascii	"x\320\272\330z\372\212\003\214\255\314\014\014\377\231"
 248      7AFA8A03 
 248      8CADCC0C 
 248      0CFF99
 249 0048 18188D65 		.ascii	"\030\030\215e\030\015d@F,g\324d\000*}\264\361\337T^"
 249      180D6440 
 249      462C67D4 
 249      64002A7D 
 249      B4F1DF54 
 250 005d B6960620 		.ascii	"\266\226\006 P\000)\000\312\254`d\003Y\271>\350@\303"
 250      50002900 
 250      CAAC6064 
 250      0359B93E 
 250      E840C3
 251 0070 FFFFCD0D 		.ascii	"\377\377\315\015\007fK\035\234'\305\302\304\320\312"
 251      07664B1D 
 251      9C27C5C2 
 251      C4D0CA
 252 007f 0CB41764 		.ascii	"\014\264\027d\016\303\007\240:\220\255\037\231\230@"
 252      0EC307A0 
 252      3A90AD1F 
 252      999840
 253 008e 34F333C6 		.ascii	"4\3633\306C\277\272\276\275\260\000imf\006\271`Z\353"
 253      43BFBABE 
 253      BDB00069 
 253      6D6606B9 
 253      605AEB
 254 00a1 A1F3EC5F 		.ascii	"\241\363\354_\230Z\231\201\316\006ro}\350\234\312\011"
 254      985A9981 
 254      CE06726F 
 254      7DE89CCA 
 254      09
 255 00b2 E1B63536 		.ascii	"\341\266566\260\000\205Z\033.>a\231\3178\267\261\005"
 255      36B00085 
 255      5A1B2E3E 
 255      6199CF38 
 255      B7B105
 256 00c5 E83666C6 		.ascii	"\3506f\306U\2142\214+\031\201.c\\\3158\237\221\341\031"
 256      558C328C 
 256      2B19812E 
ARM GAS  C:\Users\info\AppData\Local\Temp\ccwzFIpi.s 			page 19


 256      635CCD38 
 256      9F91E119 
 257 00d9 63F31F36 		.ascii	"c\363\0376\210q\314\020\023'\254\270|\214\003d\004\003"
 257      8871CC10 
 257      1327ACB8 
 257      7C8C0364 
 257      0403
 258 00eb E30F46C6 		.ascii	"\343\017F\3065@\245\257\030\231\240*\030\300nb\004\271"
 258      3540A5AF 
 258      1899A02A 
 258      18C06E62 
 258      04B9
 259 00fd 05E8326D 		.ascii	"\005\3502m\367\324\274\324\242\304\222\324\224\370\340"
 259      F7D4BCD4 
 259      A2C492D4 
 259      94F8E0
 260 010c FCD2A2E4 		.ascii	"\374\322\242\344\324\230\200\340|g\323\230\342\202\314"
 260      D49880E0 
 260      7C67D398 
 260      E282CC
 261 011b F8FC1CA0 		.ascii	"\370\374\034\240\250g^\211sN~r\266^2\003\000\2264gG"
 261      A8675E89 
 261      734E7E72 
 261      B65E3203 
 261      00963467 
 262              		.text
 263              		.section	.gnu.lto_spi_oled_IntClock_GetSourceRegister.791e5240,"",%progbits
 264 0000 789C6361 		.ascii	"x\234ca`d\000\001F \245\013\244\245Alf\006F\246\011"
 264      60640001 
 264      4620A50B 
 264      A4A5416C 
 264      660646A6 
 265 0015 E718181A 		.ascii	"\347\030\030\0329\230\030\031A\214\006\016F\206z&\306"
 265      39981819 
 265      418C060E 
 265      46867A26 
 265      C6
 266 0026 7AC6AF4C 		.ascii	"z\306\257L\177\231\030O\177?\321\303\245\271\274\241"
 266      7F99184F 
 266      7F3FD1C3 
 266      A5B9BCA1 
 267 0036 A1A9E141 		.ascii	"\241\251\341A\353+\353\351+\0160\266230\374gb`4\226"
 267      EB2BEBE9 
 267      2B0E30B6 
 267      323330FC 
 267      67626034 
 268 004b 61349001 		.ascii	"a4\220\001\031\261\234Q\223\001\250\364\321\306\177"
 268      19B19C51 
 268      9301A8F4 
 268      D1C67F
 269 005a 5379D95A 		.ascii	"Sy\331Z\032\200@\001\244\000(\263\202\221\015d\345\372"
 269      1A804001 
 269      A40028B3 
 269      82910D64 
 269      E5FA
 270 006c A0030DFF 		.ascii	"\240\003\015\377\37777\034\270,w\360\232\034\013\023"
 270      FF37371C 
ARM GAS  C:\Users\info\AppData\Local\Temp\ccwzFIpi.s 			page 20


 270      B82C77F0 
 270      9A1C0B13 
 271 007c 432B33D0 		.ascii	"C+3\320^\2209\014\037\200\352@\266~db\002\321\314\317"
 271      5E90390C 
 271      1F80EA40 
 271      B67E6462 
 271      02D1CCCF 
 272 0090 180FFDEA 		.ascii	"\030\017\375\352\272\366\313\002\244\265\231\031\344"
 272      BAF6CB02 
 272      A4B59919 
 272      E4
 273 009d 8269AD87 		.ascii	"\202i\255\207\316\263\177ajefb\004\331r\353C\347TN\010"
 273      CEB37F61 
 273      6A656662 
 273      04D972EB 
 273      43E7544E 
 274 00b2 B7ADB1B1 		.ascii	"\267\255\261\261\201\005(\324\332p\361\011\313|\306"
 274      810528D4 
 274      DA70F109 
 274      CB7CC6
 275 00c1 B98D2D40 		.ascii	"\271\215-@\26713\256b\224a\\\311\010t\031\343j\306\371"
 275      B73133AE 
 275      6294615C 
 275      C9087419 
 275      E36AC6F9 
 276 00d5 8C0CCF18 		.ascii	"\214\014\317\030\233\377\260A\214c\206\230x\362\324"
 276      9BFFB041 
 276      8C638698 
 276      78F2D4
 277 00e4 F4153C20 		.ascii	"\364\025< #\030\030\331\031\327\000U\276bd\202*`\000"
 277      231818D9 
 277      19D70055 
 277      BE626482 
 277      2A6000
 278 00f7 3B8911E4 		.ascii	";\211\021\344\024\240\303\264\335S\363R\213\022KRS\342"
 278      14A0C3B4 
 278      DD53F352 
 278      8B124B52 
 278      53E2
 279 0109 83F34B8B 		.ascii	"\203\363K\213\222Sc\002\202\363\235Mc\212\0132\343\363"
 279      92536302 
 279      82F39D4D 
 279      638A0B32 
 279      E3F3
 280 011b 7380A29E 		.ascii	"s\200\242\236y%\3169\371\311\331z\311\014\000\252\031"
 280      7925CE39 
 280      F9C9D97A 
 280      C90C00AA 
 280      19
 281 012c 670A     		.ascii	"g\012"
 282              		.text
 283              		.section	.gnu.lto_spi_oled_IntClock_SetDividerRegister.791e5240,"",%progbits
 284 0000 789C8D56 		.ascii	"x\234\215V[LTG\030\236\177\316^\316\356\236\335\205"
 284      5B4C5447 
 284      189E7FCE 
 284      5ECEEE9E 
 284      DD85
ARM GAS  C:\Users\info\AppData\Local\Temp\ccwzFIpi.s 			page 21


 285 0012 5D6EC64D 		.ascii	"]n\306MD\023D\255Z\233\306\007\333\264\211\261i\323"
 285      441344AD 
 285      5A9BC607 
 285      DBB489B1 
 285      69D3
 286 0024 A40F8D98 		.ascii	"\244\017\215\230\276hj(\362`$\322\254\330\207\276p\226"
 286      BE686A28 
 286      F26024D2 
 286      ACD887BE 
 286      7096
 287 0036 05446AAD 		.ascii	"\005Dj\255\027\004%P\032\321z\301\226\2137@\205\225"
 287      17042550 
 287      1AD17AC1 
 287      968B3740 
 287      8595
 288 0048 8A08222A 		.ascii	"\212\010\"*\212(X\024DD\243\224\265T\024T:\267\275\200"
 288      8A285814 
 288      4444A394 
 288      B5541454 
 288      3AB7BD80 
 289 005c 857A1266 		.ascii	"\205z\022f\317\314\374\3377\377|\3777\303\321 @\364"
 289      CFCCFCDF 
 289      37FF7CFF 
 289      37C3D120 
 289      40F4
 290 006e B96F4268 		.ascii	"\271oBh%\371]B\272\020\205\000okA\310%c,5~\214Tcx\203"
 290      25F95D42 
 290      BA108500 
 290      6F6B41C8 
 290      25632C35 
 291 0088 15A98A84 		.ascii	"\025\251\212\2045Y\261\244g\240\255\242\301:\326\323"
 291      3559B1A4 
 291      67A0ADA2 
 291      C13AD6D3 
 292 0098 B29E56F4 		.ascii	"\262\236V\364\370\234\016\353YOf==\204s:\331\367b\300"
 292      F89C0EEB 
 292      594F663D 
 292      3D84733A 
 292      D9F762C0 
 293 00ac 46366F65 		.ascii	"F6oe\363F\254\260\236\211\365L\242\307\347\0240s\210"
 293      F346ACB0 
 293      9E89F54C 
 293      A2C7E714 
 293      307388
 294 00bf 19476E69 		.ascii	"\031Gni@d\334\222\256'\343\221||\251\005\254|\336\212"
 294      4064DC92 
 294      AE27E391 
 294      7C7CA905 
 294      AC7CDE8A 
 295 00d3 43182C8C 		.ascii	"C\030,\214\301B\260\215\365BY/\024l<\310\006v\376b\307"
 295      C142B08D 
 295      F542592F 
 295      146C3CC8 
 295      0676FE62 
 296 00e8 119C2D9C 		.ascii	"\021\234-\234\261E\360\361\245a\276\004\303\001\350"
 296      B145F0F1 
 296      A561BE04 
ARM GAS  C:\Users\info\AppData\Local\Temp\ccwzFIpi.s 			page 22


 296      C301E8
 297 00f7 8B2A034A 		.ascii	"\213*\003J\305\222F\253\323\313\006\243I1GZ\254!\241"
 297      C59246AB 
 297      D3CB06A3 
 297      4931475A 
 297      AC21A1
 298 010a 367B4458 		.ascii	"6{DX8\244Jf\304\037\273\370\375\007\277\302P\267\251"
 298      38A44A66 
 298      C41FBBF8 
 298      FD07BFC2 
 298      50B7A9
 299 011d AF0ACF3D 		.ascii	"\257\012\317=\240\222\347\356\376\236\367\324\203\036"
 299      A092E7EE 
 299      FE9EF7D4 
 299      831E
 300 012b C890101A 		.ascii	"\310\220\020\032\303<\006\016\300\\\022U?6\354\261\016"
 300      C33C060E 
 300      C05C1255 
 300      3F36ECB1 
 300      0E
 301 013c E10C0980 		.ascii	"\341\014\011\200\202Z\007\233\013M\264\213!\204t3\237"
 301      825A079B 
 301      0B4DB48B 
 301      21847433 
 301      9F
 302 014d B6F72AD2 		.ascii	"\266\367*\322B@\344\275\244\2546\333\032\273_U\323T"
 302      4240E4BD 
 302      A4AC36DB 
 302      1ABB5F55 
 302      D354
 303 015f B52D5ED5 		.ascii	"\265-^\325fH\022\034\006\211\360\301!p\300Ap 2\204\240"
 303      6648121C 
 303      0689F0C1 
 303      2170C041 
 303      70203284 
 304 0174 046249F4 		.ascii	"\004bI\364\341g\331/\215\322\022\206\374\261\257;\327"
 304      E167D92F 
 304      8DD21286 
 304      FCB1AF3B 
 304      D7
 305 0185 24907BCE 		.ascii	"$\220{\316\233\324E\031\222\006\216p\350\373\016XD\201"
 305      9BD44519 
 305      92068E70 
 305      E8FB0E58 
 305      4481
 306 0197 1A04BF41 		.ascii	"\032\004\277A,\215\336z\377p\273\"-e\310NwI\2739\246"
 306      2C8DDE7A 
 306      FF70BB22 
 306      2D65C84E 
 306      7749BB39 
 307 01ac 98223D45 		.ascii	"\230\"=E[-\273UOZ4]\367\367\361\353\322\207D\227WV\354"
 307      5B2DBB55 
 307      4F5A345D 
 307      F7F7F1EB 
 307      D2874497 
 308 01c3 33485F30 		.ascii	"3H_0d{A\371CE \013[\314y\252\307\025M\227-\013^V\340"
 308      647B41F9 
ARM GAS  C:\Users\info\AppData\Local\Temp\ccwzFIpi.s 			page 23


 308      4345200B 
 308      5BCC79AA 
 308      C7154D97 
 309 01dc 6E36B976 		.ascii	"n6\271vh\244\025\014w\353\312\366\277\254\002\267\273"
 309      68A4150C 
 309      77EBCAF6 
 309      BFAC02B7 
 309      BB
 310 01ed C5A496A9 		.ascii	"\305\244\226\2512\205U\374\007\254\247\374\365.\263"
 310      328555FC 
 310      07ACA7FC 
 310      F52EB3
 311 01fc 2E9D0A1C 		.ascii	".\235\012\034\015G!\006\312\311_)\304p\211\341\030\350"
 311      0D472106 
 311      CAC95F29 
 311      C47089E1 
 311      18E8
 312 020e 8887A5E0 		.ascii	"\210\207\245\340\231\322\345\036ul\314\255z\362,g\273"
 312      99D2E51E 
 312      756CCCAD 
 312      7AF22C67 
 312      BB
 313 021f 6CEF02D9 		.ascii	"l\357\002\331\267V\207\350\254\214\350\274\001\250z"
 313      B75687E8 
 313      AC8CE8BC 
 313      01A87A
 314 022e 4632AC33 		.ascii	"F2\2543\321FA\024m\246\257\026\332\330hc\247M\024m\246"
 314      D1464114 
 314      6DA6AF16 
 314      DAD86863 
 314      A74D146D 
 315 0243 D1663A6D 		.ascii	"\321f:m\250\202\272\031\264\211\246\315L\332\314\242"
 315      A882BA19 
 315      B489A6CD 
 315      4CDACCA2 
 316 0253 4D0C6D66 		.ascii	"M\014mf\323f\016P\201\347\321\327\371\264Y@\033\204"
 316      D3660E50 
 316      81E7D1D7 
 316      F9B45940 
 316      1B84
 317 0265 0649AE5B 		.ascii	"\006I\256[\034\310\2131\371\221\372\301M\325\242\271"
 317      1CC88B31 
 317      F991FAC1 
 317      4DD5A2B9 
 318 0275 BB251DD9 		.ascii	"\273%\035\331cU\325\343N}\352+5KUC2$\375\030\246\307"
 318      6355D5E3 
 318      4E7DEA2B 
 318      354B5543 
 318      3224FD18 
 319 028b F238A412 		.ascii	"\3628\244\022\260\214z\000\263]\222\374I4\242`R$\016"
 319      B08C7A00 
 319      B35D92FC 
 319      4934A260 
 319      52240E
 320 029e 96DF001B 		.ascii	"\226\337\000\033\306\310\032\010N0\260\321\017.\245"
 320      C6C81A08 
 320      4E30B0D1 
ARM GAS  C:\Users\info\AppData\Local\Temp\ccwzFIpi.s 			page 24


 320      0F2EA5
 321 02ad 60197543 		.ascii	"`\031uCz\247\373AA\224@\273%\003\223\331\213%\344\211"
 321      7AA7FB41 
 321      419440BB 
 321      250393D9 
 321      8B25E489 
 322 02c1 90FAA06E 		.ascii	"\220\372\240n$\273\253\352+>k\"\334\271\031u\227\365"
 322      24BBABEA 
 322      2B3E6B22 
 322      DCB91975 
 322      97F5
 323 02d3 D4A82656 		.ascii	"\324\250&V\266\372\374\246*\205w\367nr\251\0322T|\353"
 323      B6FAFCA6 
 323      2A8577F7 
 323      6E72A91A 
 323      32547CEB 
 324 02e7 C95D4B11 		.ascii	"\311]K\021\024\272\322\211\357\265PI\274r\222z\005\252"
 324      14BAD289 
 324      EFB55049 
 324      BC72927A 
 324      05AA
 325 02f9 A008501F 		.ascii	"\240\010P\037\270_f6cN\250p\316\323E[\016\031)\211\206"
 325      B85F6636 
 325      634EA870 
 325      CED3455B 
 325      0E192989 
 326 030e E4564D62 		.ascii	"\344VMb}9\036\2459*4\307\016\367p\201# O\351\343\252"
 326      7D391EA5 
 326      392A34C7 
 326      0EF77081 
 326      23204FE9 
 327 0324 17668A20 		.ascii	"\027f\212 \245\206S\302\211^\254A\277\230$\026\375H"
 327      A58653C2 
 327      895EAC41 
 327      BF982416 
 327      FD48
 328 0336 0AC8E10F 		.ascii	"\012\310\341\017VH\360i\177\260\026]\321\362\340_\205"
 328      5648F069 
 328      7FB0165D 
 328      D1F2E05F 
 328      85
 329 0347 F086A059 		.ascii	"\360\206\240Y\035\252\224\371lq\341\034\301\0254\255"
 329      1DAA94F9 
 329      6C71E11C 
 329      C11534AD 
 330 0357 47051AAA 		.ascii	"G\005\032\252N\276\367\306N-\235\016\226\306\314\244"
 330      4EBEF7C6 
 330      4E2D9D0E 
 330      96C6CCA4 
 331 0367 79D67D5B 		.ascii	"y\326}[\307{\351.\256L\253gt\324\340S\306\0025D\231"
 331      C77BE92E 
 331      AE4CAB67 
 331      74D4E053 
 331      C6023544 
 332 037c 334C995A 		.ascii	"3L\231Z\242\014U\236\311\375\254\372\004\360\005m\004"
 332      A20C559E 
 332      C9FDACFA 
ARM GAS  C:\Users\info\AppData\Local\Temp\ccwzFIpi.s 			page 25


 332      04F0056D 
 332      04
 333 038d D331B879 		.ascii	"\3231\270y\227\201\013\234)h2\324\253\275\232\200\300"
 333      97810B9C 
 333      296832D4 
 333      ABBD9A80 
 333      C0
 334 039e 1EBFC067 		.ascii	"\036\277\300g}\002\3538\336\316)~xQ\321\306\366\257"
 334      7D02EB38 
 334      DECE297E 
 334      7851D1C6 
 334      F6AF
 335 03b0 250B411D 		.ascii	"%\013A\035\011%\353\344\202\310zR\266?XRv\266]Ylw$\273"
 335      0925EBE4 
 335      82C87A52 
 335      B63F5852 
 335      76B65D59 
 336 03c8 E743CE6D 		.ascii	"\347C\316m\236\012zN$\362\\$b\341\361'\007JN\212\252"
 336      9E0A7A4E 
 336      24F25C24 
 336      62E1F127 
 336      074A4E8A 
 337 03dd 7910D4BF 		.ascii	"y\020\324\277m\"\347Y\"\026\304\344\356\362\313=\251"
 337      6D22E759 
 337      2216C4E4 
 337      EEF2CB3D 
 337      A9
 338 03ee 9A0D424D 		.ascii	"\232\015BM\232\270\001eY$\346\361\322\237E\031\225 "
 338      9AB80165 
 338      5924E6F1 
 338      D29F4519 
 338      9520
 339 0400 C31851BA 		.ascii	"\303\030Q\272\236\356kh\260\357\232^\360\216\266\264"
 339      9EEE6B68 
 339      B0EF9A5E 
 339      F08EB6B4 
 340 0410 B6C95C71 		.ascii	"\266\311\\q\227*\024?R\\`fK\271T5\216\336\036p\301\237"
 340      972A143F 
 340      525C6066 
 340      4BB95435 
 340      8EDE1E70 
 341 0426 5E23592E 		.ascii	"^#Y.\270\372Z\342\262&\276\267\241\262\001\267A\320"
 341      B8FA5AE2 
 341      B226BEB7 
 341      A1B201B7 
 341      41D0
 342 0438 5EEA7DEA 		.ascii	"^\352}\352\025\007g\233\240}1\372|\335x\326\213~\326"
 342      1507679B 
 342      A07D31FA 
 342      7CDD78D6 
 342      8B7ED6
 343 044b 66CEEA3F 		.ascii	"f\316\352?\032Zr$.\011\326\301\000\353\231\376\332l"
 343      1A5A7224 
 343      2E09D6C1 
 343      00EB99FE 
 343      DA6C
 344 045d 618F1CC1 		.ascii	"a\217\034\301z\375z^\261a<m\213\237\3662\241\365e7\222"
ARM GAS  C:\Users\info\AppData\Local\Temp\ccwzFIpi.s 			page 26


 344      7AFD7A5E 
 344      B1613C6D 
 344      8B9FF632 
 344      A1F56537 
 345 0472 7DBE669B 		.ascii	"}\276f\233\260Z\024\001\366\356\250\3577s\256,\301u"
 345      B05A1401 
 345      F6EEA8EF 
 345      3773AE2C 
 345      C175
 346 0484 FA62B1C7 		.ascii	"\372b\261\307\032\250\311\025?\317\325\011V\233\306"
 346      1AA8C915 
 346      3FCFD509 
 346      569BC6
 347 0493 29462FF4 		.ascii	")F/\364\325Zy\272c\010Z'TxR\266k\254b\323xR]5_s\316"
 347      D55A79BA 
 347      63085A27 
 347      547852B6 
 347      6BAC62D3 
 348 04ae E95399E2 		.ascii	"\351S\231\342\272/\201O\221[2\362\340\374SCMZ\356/\031"
 348      BA2F814F 
 348      915B32F2 
 348      E0FC5343 
 348      4D5AEE2F 
 349 04c3 DA48183B 		.ascii	"\332H\030;\277\025b\213\306\240\272\233P\235\304Ow\265"
 349      BF15628B 
 349      C6A0BA9B 
 349      509DC44F 
 349      77B5
 350 04d5 F2E6D957 		.ascii	"\362\346\331WP\261\226\272\"\267|\370\232\317m\225'"
 350      50B196BA 
 350      22B77CF8 
 350      9ACF6D95 
 350      27
 351 04e6 3C3FC9FC 		.ascii	"<?\311\3748\247\011qj\357ul\227\002\006\274\3417`;\333"
 351      38A70971 
 351      6AEF756C 
 351      970206BC 
 351      E137603B 
 352 04fb 8ECC6B35 		.ascii	"\216\314k5\274\323W\253q.Z9\301E7y\275\033\233\362\016"
 352      BCD357AB 
 352      712E5A39 
 352      C1453779 
 352      BD1B9BF2 
 353 0510 2A5C403D 		.ascii	"*\\@=\334b\031y\261\0315\177\300O\337\215\332\357y\272"
 353      DC621979 
 353      B119357F 
 353      C04FDF8D 
 353      DAEF79BA 
 354 0524 33C6F1C1 		.ascii	"3\306\361\301x\256\216`m\034<\370\330\271\206L\231k"
 354      78AE8E60 
 354      6D1C3CF8 
 354      D8B9864C 
 354      996B
 355 0536 03D0C9B5 		.ascii	"\003\320\311\265\351t\017\010m\034~m\006q$:\264\030"
 355      E9740F08 
 355      6D1C7E6D 
 355      0671243A 
ARM GAS  C:\Users\info\AppData\Local\Temp\ccwzFIpi.s 			page 27


 355      B418
 356 0548 BCD82244 		.ascii	"\274\330\"D\030\311\036\250\255\026a3\247\272\336oO"
 356      18C91EA8 
 356      AD166133 
 356      A7BADE6F 
 356      4F
 357 0559 B0C42C1E 		.ascii	"\260\304,\036\357z\222\331*\363\035\275\002\370s\202"
 357      EF7A92D9 
 357      2AF31DBD 
 357      02F87382 
 358 0569 252665EB 		.ascii	"%&e\353b\032\316\342\032\236\313y+\015\357\370\314M"
 358      621ACEE2 
 358      1A9ECB79 
 358      2B0DEFF8 
 358      CC4D
 359 057b 45B3D293 		.ascii	"E\263\322\223\317\362\177}a\005\317(f\252\005\357\006"
 359      CFF27F7D 
 359      6105CF28 
 359      66AA05EF 
 359      06
 360 058c 8B16CD83 		.ascii	"\213\026\315\203\375\037i:r\372\272}\242\355\025jD\007"
 360      FD1F693A 
 360      72FABA7D 
 360      A2ED156A 
 360      4407
 361 059e 192A445C 		.ascii	"\031*D\\$\371\345\227r|\226\231\324\037=\342\202bl\177"
 361      24F9E597 
 361      727C9699 
 361      D41F3DE2 
 361      82626C7F 
 362 05b2 EFFB88D3 		.ascii	"\357\373\210\323\315\011\252A(\365\247\027\333\004k"
 362      CD09AA41 
 362      28F5A717 
 362      DB046B
 363 05c1 E08E9CEA 		.ascii	"\340\216\234\352\"\272\307h\311\207\302S\240V\332\\"
 363      22BAC768 
 363      C987C253 
 363      A056DA5C 
 364 05d1 B0A7445C 		.ascii	"\260\247D\\H\022\364\202#\344\246\236\214\036\337\324"
 364      4812F482 
 364      23E4A69E 
 364      8C1EDFD4 
 365 05e1 5C2E2E14 		.ascii	"\\..\024\200\373\340\010\245\331\333\021\371\326\025"
 365      80FBE008 
 365      A5D9DB11 
 365      F9D615
 366 05f0 C56E74F2 		.ascii	"\305nt\362t\346M\345\260\276`\261f\223\340\200\245j"
 366      74E64DE5 
 366      B0BE60B1 
 366      6693E080 
 366      A56A
 367 0602 843AB383 		.ascii	"\204:\263\203\266\023\201\310\2676\361T\230_\245\266"
 367      B61381C8 
 367      B736F154 
 367      985FA5B6 
 368 0612 9CFFBDC6 		.ascii	"\234\377\275\306\037\004\377S\354j\022\306\237?U\015"
 368      1F04FF53 
ARM GAS  C:\Users\info\AppData\Local\Temp\ccwzFIpi.s 			page 28


 368      EC6A12C6 
 368      9F3F550D 
 369 0622 FB27FCDF 		.ascii	"\373'\374\337Y\300>1\346\277\235\343\036\262\365\026"
 369      59C03E31 
 369      E6BF9DE3 
 369      1EB2F516 
 370 0632 B07286D3 		.ascii	"\260r\206\323\217\262G\220\346\271\263\234\302\3046"
 370      8FB24790 
 370      E6B9B39C 
 370      C2C436
 371 0641 808C924F 		.ascii	"\200\214\222O\251w>K\\\237\350\214OI\\\263:.y\2433!"
 371      A9773E4B 
 371      5C9FE88C 
 371      4F495CB3 
 371      3A2E79A3 
 372 0657 71D59771 		.ascii	"q\325\227q\311\313\026\257\332\360\355\332\325\311I"
 372      C9CB16AF 
 372      DAF0EDDA 
 372      D5C949
 373 0666 64F4F3F5 		.ascii	"d\364\363\365)\313\222\222\023\326-L@\306\204\244u\237"
 373      29CB9292 
 373      13D62D4C 
 373      40C684A4 
 373      759F
 374 0678 ACFD6EED 		.ascii	"\254\375n\355\232D\247\336\231\270!%\336\231bLNZ\343"
 374      9A44A7DE 
 374      99B82125 
 374      DE99624C 
 374      4E5AE3
 375 068b 1B4AD8E8 		.ascii	"\033J\330\350t\3069\023\364\211\353\343\277!\310\177"
 375      74C63913 
 375      F489EBE3 
 375      BF21C87F 
 376 069b 01682D14 		.ascii	"\001h-\024\011"
 376      09
 377              		.text
 378              		.section	.gnu.lto_spi_oled_IntClock_SetSourceRegister.791e5240,"",%progbits
 379 0000 789C8D54 		.ascii	"x\234\215T]l\024U\024>\347\336\335\231\375mWJ\251\224"
 379      5D6C1455 
 379      143EE7DE 
 379      DD99FD6D 
 379      574AA994 
 380 0014 FE86341B 		.ascii	"\376\2064\033b\202&\215\211\017&<`4\276\031\373(\206"
 380      6282268D 
 380      890F263C 
 380      6034BE19 
 380      FB2886
 381 0027 98A50F84 		.ascii	"\230\245\017\204\2065+\030\023\037\366\356n\027\212"
 381      86352B18 
 381      131FF6EE 
 381      6E178A
 382 0036 BE9090A2 		.ascii	"\276\220\220\242\006\233\222\020S\264@\241b\327U\204"
 382      069B9210 
 382      53B440A1 
 382      62D75584 
 383 0046 69519E08 		.ascii	"iQ\236\010X\002/41Z\261\032\003eA\255bd\327s\356\235"
 383      58022F34 
ARM GAS  C:\Users\info\AppData\Local\Temp\ccwzFIpi.s 			page 29


 383      315AB11A 
 383      036541AD 
 383      6264D773 
 384 005c DD8E5537 		.ascii	"\335\216U7\235d\317\316=\367\373\316\234\357;w\306\007"
 384      9D64CFCE 
 384      3DF7FBCE 
 384      9CEF3B77 
 384      C607
 385 006e 087C9DB0 		.ascii	"\010|\235\260\000\236\245\377C\364\303\010\2408x\005"
 385      009EA5FF 
 385      43F4C308 
 385      A0387805 
 386 007e 20131042 		.ascii	" \023\020B\016\305A\205,\216\021)|\236\225O\370\317"
 386      0EC54185 
 386      2C8E1129 
 386      7C9E954F 
 386      F8CF
 387 0090 75F0EAFA 		.ascii	"u\360\352\372\343\264\362c\330P,akPH\203l\021\360\254"
 387      E3B4F263 
 387      D8502C61 
 387      6B504883 
 387      6C11F0AC 
 388 00a4 0222A829 		.ascii	"\002\"\250)!M\011V)\241\352M\030\221oT\000!-\244\317"
 388      214D0956 
 388      29A1EA4D 
 388      18916F54 
 388      00212DA4 
 389 00b9 6FD98160 		.ascii	"o\331\201`(\214i\374M<\0248\263\177\241(6\215)\272\276"
 389      288C69FC 
 389      4D3C1438 
 389      B37FA128 
 389      368D29BA 
 390 00ce FD61B257 		.ascii	"\375a\262W\035w0/\001*B+\000\034\303M\204\232=\272\357"
 390      1D77302F 
 390      012A422B 
 390      001CC34D 
 390      849A3DBA 
 391 00e3 58586E46 		.ascii	"XXnF\240\373\323\357\037\032\024\361\017\224\312*5\373"
 391      A0FBD3EF 
 391      1F1A14F1 
 391      0F94CA2A 
 391      35FB
 392 00f5 B2927989 		.ascii	"\262\222y\211x\034%1\260\267\015\237h\003J\000~\210"
 392      781C2531 
 392      B0B70D9F 
 392      68034A00 
 392      7E88
 393 0107 71064F5F 		.ascii	"q\006O_,\307\345S\232w\360\233S\243\221\236c\314sF\346"
 393      2CC7E553 
 393      9A77F09B 
 393      53A3919E 
 393      63CC7346 
 394 011c A2EF2827 		.ascii	"\242\357('\323\305\334\217\274\\\276\010\373U\345w\247"
 394      D3C5DC8F 
 394      BC5CBE08 
 394      FB55E577 
 394      A7
ARM GAS  C:\Users\info\AppData\Local\Temp\ccwzFIpi.s 			page 30


 395 012d F1579197 		.ascii	"\361W\221\227\002\271\311k\245\313#a^J\214\3212?r\376"
 395      02B9C96B 
 395      A5CB2361 
 395      5E4A8CD1 
 395      323F72FE 
 396 0141 40546ED1 		.ascii	"@Tn\321U\227~\271u\262\321\255z\344H\303\273\312\311"
 396      55977EB9 
 396      75B2D1AD 
 396      7AE448C3 
 396      BBCAC9
 397 0154 52551F9E 		.ascii	"RU\037\2362UOb\033\236\300Z\335\3713\345\341\2505\310"
 397      32554F62 
 397      1B9EC05A 
 397      DDF933E5 
 397      E1A835C8 
 398 0168 6ABB7002 		.ascii	"j\273p\002{p\034{\214V<\215\026MMT\263\023/:\252R\311"
 398      7B701C7B 
 398      8C563C8D 
 398      164D4D54 
 398      B3132F3A 
 399 017f 29E7BD0D 		.ascii	")\347\275\015\323\345\015\033}\300\033\026\360\226\215"
 399      D3E50D1B 
 399      7DC01B16 
 399      F0968D
 400 018e AC2E403A 		.ascii	"\254.@:\375A\016a\016\021\012V\224C\003\207F\0161\336"
 400      FD410E61 
 400      0E110A56 
 400      94430387 
 400      460E31DE 
 401 01a2 58C3A189 		.ascii	"X\303\241\211\227k94sX\307\241\2057\326sh\345\300\276"
 401      976B3934 
 401      7358C7A1 
 401      8537D673 
 401      68E5C0BE 
 402 01b6 F9DB79A3 		.ascii	"\371\333y\243\203C'\207.\016\335\274\001P\242.y\216"
 402      83432787 
 402      2E0EDDBC 
 402      0150A22E 
 402      798E
 403 01c8 F784E07F 		.ascii	"\367\204\340\177\371\023\346X0\367\235\223>\322V,\336"
 403      F913E658 
 403      30F79D93 
 403      3ED2562C 
 403      DE
 404 01d9 9EB3D30F 		.ascii	"\236\263\323\017\325\220R\261\274\264+\202\344\340\031"
 404      D59052B1 
 404      BCB42B82 
 404      E4E019
 405 01e8 4C133D00 		.ascii	"L\023=\000\363(\264B\022Ah`2\315\300\220\255\177\221"
 405      F328B442 
 405      12416860 
 405      32CDC090 
 405      AD7F91
 406 01fb 83157A08 		.ascii	"\203\025z\010\340\244&\207j\344q&[\360\035\016\316\345"
 406      E0A42687 
 406      6AE47126 
 406      5BF01D0E 
ARM GAS  C:\Users\info\AppData\Local\Temp\ccwzFIpi.s 			page 31


 406      CEE5
 407 020d BE9F7A74 		.ascii	"\276\237zt\231=q\273\370 \312\363\361\323\344?v\355"
 407      993D71BB 
 407      F820CAF3 
 407      F1D3E43F 
 407      76ED
 408 021f BE27240C 		.ascii	"\276'$\014\305%\241o\346\346\245\001\333\236]\037|\331"
 408      C525A16F 
 408      E6E6A501 
 408      DB9E5D1F 
 408      7CD9
 409 0231 64767F9C 		.ascii	"dv\177\234zsYF\255V\230j\235\255\241\375p\325\226\013"
 409      7A735946 
 409      AD56986A 
 409      9DADA1FD 
 409      70D5960B 
 410 0245 38F3E75B 		.ascii	"8\363\347[\213w\016\243\201\007\010~8?s\325fxD\037\207"
 410      8B770EA3 
 410      8107087E 
 410      383F73D5 
 410      6678441F 
 411 025a 9BA503C3 		.ascii	"\233\245\003\303A\263\334\227\311(.\230W\263\267|\243"
 411      41B3DC97 
 411      C9282E98 
 411      57B3B77C 
 411      A3
 412 026b 389219A4 		.ascii	"8\222\031\244\223\035\305):\021\237pY,\340(\302\002"
 412      931DC529 
 412      3A119F70 
 412      592CE028 
 412      C202
 413 027d E6FEB04C 		.ascii	"\346\376\260L\271\240\251XX\034/\270b\034\300O\011J"
 413      B9A0A958 
 413      581C2FB8 
 413      621CC04F 
 413      094A
 414 028f 8F358FAC 		.ascii	"\2175\217\254W\255H\325\250\006\350\036\313w\23665\303"
 414      57AD48D5 
 414      A806E81E 
 414      CB779E36 
 414      35C3
 415 02a1 F5289F99 		.ascii	"\365(\237\231\006\262\367\367/\3254E\210\303M\375\345"
 415      06B2F7F7 
 415      2FD53445 
 415      88C34DFD 
 415      E5
 416 02b2 3615A514 		.ascii	"6\025\245\024\327\2706|V\277\020\026\276\201\237\353"
 416      D7B8367C 
 416      56BF1016 
 416      BE819FEB 
 417 02c2 9EB2F76D 		.ascii	"\236\262\367m\003i _\275:\0325\253\301\013\211Q\366"
 417      0369205F 
 417      BD3A1A35 
 417      ABC10B89 
 417      51F6
 418 02d4 7F646494 		.ascii	"\177dd\224\352\205\177\366uNK\211i\337-\230\276\004"
 418      EA857FF6 
ARM GAS  C:\Users\info\AppData\Local\Temp\ccwzFIpi.s 			page 32


 418      754E4B89 
 418      69DF2D98 
 418      BE04
 419 02e6 664C6385 		.ascii	"fLc\205vw\344\236)\332pt\243\324'b\351?f\034\200\257"
 419      7677E49E 
 419      29DA7074 
 419      A3D42762 
 419      E93F661C 
 420 02fc 1F31E4F1 		.ascii	"\0371\344\361B\332\235\261g\250A(Yf\250\345E\327\260"
 420      42DA9DB1 
 420      67A84128 
 420      5966A8E5 
 420      45D7B0
 421 030f 35F50CFB 		.ascii	"5\365\014\373b\331\260\305\252aM\304\361\032\266\226"
 421      62D9B0C5 
 421      AA614DC4 
 421      F11AB696 
 422 031f 522B1D6A 		.ascii	"R+\035j^\341\320:\015k\366BZ(\273z\207\316k\207Z\314"
 422      5EE1D03A 
 422      0D6BF642 
 422      5A28BB7A 
 422      87CE6B87 
 423 0335 B02FDDAD 		.ascii	"\260/\335\255\366\262\276^\363\027\334\343Vm\264\325"
 423      F6B2BE5E 
 423      F317DCE3 
 423      566DB4D5 
 424 0345 E0DF7E30 		.ascii	"\340\337~0yC\037\267(!\320Y\355q\233\326\035\264j\033"
 424      79431FB7 
 424      2821D059 
 424      ED719BD6 
 424      1DB46A1B 
 425 0359 4330BBC5 		.ascii	"C0\273\305}7\356\2726\266\325\343\316\324l\\\250\265"
 425      7D37EEBA 
 425      36B6D5E3 
 425      CED46C5C 
 425      A8B5
 426 036b DE4E1C6F 		.ascii	"\336N\034ow\035\224Zic\347\012\033\2734\254\323\013"
 426      771D945A 
 426      6963E70A 
 426      1BBB34AC 
 426      D30B
 427 037d E9A6ECEA 		.ascii	"\351\246\354\352m\274\250Etk\021a\375U\373\031\263N"
 427      6DBCA845 
 427      746B1161 
 427      FD55FB19 
 427      B34E
 428 038f E525E6EA 		.ascii	"\345%\346\352#R\242\217\030\245\351c\364\330s\375\273"
 428      2352A28F 
 428      18A5E963 
 428      F4D873FD 
 428      BB
 429 03a0 FB53AFEC 		.ascii	"\373S\257\354\351\337\261\275/\2717\225\350\337\366"
 429      E9DFB1BD 
 429      2FB93795 
 429      E8DFF6
 430 03af 425F72EB 		.ascii	"B_r\353\223\333^{u\347\366\344\000e\237\337\275g\353"
 430      93DB5E7B 
ARM GAS  C:\Users\info\AppData\Local\Temp\ccwzFIpi.s 			page 33


 430      75E7F6E4 
 430      00659FDF 
 430      BD67EB
 431 03c2 4032B16B 		.ascii	"@2\261ks\002\202\211\201]\006d%\007v\364\245\022vbo"
 431      73028289 
 431      815D0664 
 431      250776F4 
 431      A5127662 
 432 03d7 2AF5CCCE 		.ascii	"*\365\314\316\327\377\006\263\0220\213"
 432      D7FF06B3 
 432      12308B
 433              		.text
 434              		.section	.gnu.lto_.symbol_nodes.791e5240,"",%progbits
 435 0000 789C55C8 		.ascii	"x\234U\310\311\015\2000\020CQ'3!K\027TjJ\240\006\216"
 435      C90D8030 
 435      10435127 
 435      33214B17 
 435      546A4AA0 
 436 0016 14430748 		.ascii	"\024C\007H\210B\020\011\234\354\313\227\237#\340D_\004"
 436      88421009 
 436      9CECCB97 
 436      9F23E044 
 436      5F04
 437 0028 81F5C0C8 		.ascii	"\201\365\300\310\276\314\035\002\203BdT0\232B\242+L"
 437      BECC1D02 
 437      83426454 
 437      309A42A2 
 437      2B4C
 438 003a 4C0A9993 		.ascii	"L\012\231\223BaVh,\012\316\252P\331\004\254\026l\327"
 438      42615668 
 438      2C0ACEAA 
 438      50D904AC 
 438      166CD7
 439 004d 13AC3AEE 		.ascii	"\023\254:\356\321\346\377o\345\373x\001\227\2634b"
 439      D1E6FF6F 
 439      E5FB7801 
 439      97B33462 
 440              		.text
 441              		.section	.gnu.lto_.refs.791e5240,"",%progbits
 442 0000 789C6361 		.ascii	"x\234ca`\004B \000\000\0009\000\007"
 442      60044220 
 442      00000039 
 442      0007
 443              		.text
 444              		.section	.gnu.lto_.decls.791e5240,"",%progbits
 445 0000 789C8D55 		.ascii	"x\234\215UkL\024W\024\2363\263\2608\254\322XkM\272i"
 445      6B4C1457 
 445      149E33B3 
 445      B038ACD2 
 445      586B4DBA 
 446 0015 D01A42D2 		.ascii	"\320\032B\322\204\22665\246\177\332\224\246\264iZMI"
 446      84963635 
 446      A67FDA94 
 446      A6B4695A 
 446      4D49
 447 0027 FD656214 		.ascii	"\375eb\024FKKX\263\256m\3747\010\215\257X\221V^\255"
 447      464B4B58 
ARM GAS  C:\Users\info\AppData\Local\Temp\ccwzFIpi.s 			page 34


 447      B3AE6DFC 
 447      37088DAF 
 447      5891565E 
 448 003c A8AD5250 		.ascii	"\250\255RPty((TX\313\362\222\207(VED\026a\233\370(R"
 448      74792828 
 448      5458CBF2 
 448      92872856 
 448      45441661 
 449 0054 15ADF5B1 		.ascii	"\025\255\365\261=\367\316\035\346\356\356P\271\311\231"
 449      3DF7CE1D 
 449      E6EEEE50 
 449      B9C999
 450 0063 B9F7CE77 		.ascii	"\271\367\316w\276s\316w\317\335\265\010 \220q7J\020"
 450      BE73CE77 
 450      CFDDB508 
 450      20907137 
 450      4A10
 451 0075 CEE33456 		.ascii	"\316\3434V\022\204\000\016\033\356-\023\214\021\215"
 451      1284000E 
 451      1BEE2D13 
 451      8C118D
 452 0084 7618CD8D 		.ascii	"v\030\315\215V\205V\217\346EkEkG\353D\353F;\207v^\010"
 452      5685568F 
 452      E6456B45 
 452      6B47EB44 
 452      EB463B87 
 453 009b 1FC4D7C2 		.ascii	"\037\304\327\3028\355h\375h\027\3317`\337C\207\373\031"
 453      38ED68FD 
 453      6817D937 
 453      60DF4387 
 453      FB19
 454 00ad 3E6E139F 		.ascii	">n\023\237*\226+\361\231\2156\007\355T\210\377\020\332"
 454      2A962BF1 
 454      998D3607 
 454      ED5488FF 
 454      10DA
 455 00bf 55341FDA 		.ascii	"U4\037\332 \307We\302G\352\214`|uS\344Qo\342\347e~|"
 455      20C75765 
 455      C247EA8C 
 455      607C7553 
 455      E4516FE2 
 456 00d7 0E7A5CDD 		.ascii	"\016z\\\335\317k\342G\364\214\014\2117l\022\263\325"
 456      CF6BE247 
 456      F48C0C89 
 456      376C12B3 
 456      D5
 457 00e8 C4B77D1A 		.ascii	"\304\267}\032\271\266\233\370\221\263\263\374\217O\247"
 457      B9B69BF8 
 457      91B3B3FC 
 457      8F4FA7
 458 00f7 894FF733 		.ascii	"\211O\3673|\272M|Ho\304\010\341gS\307|\011\317(\332"
 458      7CBA4D7C 
 458      486FC408 
 458      E16753C7 
 458      7C09CF28 
 459 010c 69343F5A 		.ascii	"i4?Z3\343\215\023\202\317Jb\\$\206\231\206\244\377f"
 459      33E38D13 
ARM GAS  C:\Users\info\AppData\Local\Temp\ccwzFIpi.s 			page 35


 459      82CF4A62 
 459      5C248699 
 459      86A4FF66 
 460 0120 713A84F6 		.ascii	"q:\204\366\3010\307\257\307\213\013\251Ab<\336)jy\""
 460      C130C7AF 
 460      C78B0BA9 
 460      41623CDE 
 460      296A7922 
 461 0134 42F6B51B 		.ascii	"B\366\265\033{\243\006\240\037@\000:\004v\227\004\262"
 461      7BA306A0 
 461      1F40003A 
 461      04769704 
 461      B2
 462 0145 C3DE6402 		.ascii	"\303\336d\002\332B\324\265\201I\225\330\204\302A\020"
 462      DA42D4B5 
 462      814995D8 
 462      84C24110 
 463 0155 291EB80F 		.ascii	")\036\270\017A8z/\3510\266`r\350H\010&%\254\306\022"
 463      41387A2F 
 463      E930B660 
 463      72E84808 
 463      2625ACC6 
 464 016a D7A2E1C0 		.ascii	"\327\242\341\300\361\261\354Y|\340\303RjI/z\307\366"
 464      F1B1EC59 
 464      7CE0C352 
 464      6A492F7A 
 464      C7F6
 465 017c DA3DB324 		.ascii	"\332=\263$\344\304\371\320\303\262\017\022*T\034\271"
 465      E4C4F9D0 
 465      C3B20F12 
 465      2A541CB9 
 466 018c AA2ABE6D 		.ascii	"\252*\276m(s6\247\362'\351\236\010\263e\260\340\362"
 466      287336A7 
 466      F227E99E 
 466      08B365B0 
 466      E0F2
 467 019e EFEEE291 		.ascii	"\357\356\342\221Y\270\234#C,.\237t\374X,\316\313\247"
 467      59B89C23 
 467      432C2E9F 
 467      74FC582C 
 467      CECBA7
 468 01b1 7ED96AAC 		.ascii	"~\331j\254\005\226\315\205C`\207\203\200\207\003\025"
 468      0596CD85 
 468      43608783 
 468      80870315 
 469 01c1 300F9FAB 		.ascii	"0\017\237\253,\032\323\316\373\367G\345\005{\325\275"
 469      2C1AD3CE 
 469      FBF747E5 
 469      057BD5BD 
 470 01d1 95AAAF60 		.ascii	"\225\252\257`\342\215\"\325\223\203n\"AA\031HP\016\011"
 470      E28D22D5 
 470      93836E22 
 470      41411948 
 470      500E09
 471 01e4 24459C92 		.ascii	"$E\234\222\327\2570\200\311\037\206\005\350\331\324"
 471      D7AF3080 
 471      C91F8605 
ARM GAS  C:\Users\info\AppData\Local\Temp\ccwzFIpi.s 			page 36


 471      E8D9D4
 472 01f3 74AD6486 		.ascii	"t\255d\206\264\204&z\251c\177\325L\215\305S\322jSs\263"
 472      B484267A 
 472      A9637FD5 
 472      4C8DC553 
 472      D26A5373 
 473 0208 54F55DCA 		.ascii	"T\365]\312q\304\3408\302s\270)\307\301\306\232\012\220"
 473      71C4E038 
 473      C273B829 
 473      C7C1C69A 
 473      0A90
 474 021a 56530E6F 		.ascii	"VS\016o\317\201\211\030\306Q\330\306sT\032\034\225<"
 474      CF818918 
 474      C651D8C6 
 474      73541A1C 
 474      953C
 475 022c 4715E5B8 		.ascii	"G\025\345\270=v\257\311*m\004J\342\376v\264<\012\225"
 475      3D76AFC9 
 475      2A6D044A 
 475      E2FE76B4 
 475      3C0A95
 476 023f B0CB1000 		.ascii	"\260\313\020\000\262\276u\342\341LmM>\027\355\034y\032"
 476      B2BE75E2 
 476      E14C6D4D 
 476      3E17ED1C 
 476      791A
 477 0251 2DEDA358 		.ascii	"-\355\243X\261o\344\320u\013\304\313\245D(\337\236m"
 477      B16FE4D0 
 477      750BC4CB 
 477      A54428DF 
 477      9E6D
 478 0263 AB0B3691 		.ascii	"\253\0136\221\312\353@\206cFD\273\214\317\315\252\272"
 478      CAEB4086 
 478      634644BB 
 478      8CCFCDAA 
 478      BA
 479 0274 511DFF59 		.ascii	"Q\035\377Y\215\234'\300\233vx\335.@-\304\023V\202\202"
 479      8D9C27C0 
 479      9B7678DD 
 479      2E402DC4 
 479      13568282 
 480 0288 A3286E0D 		.ascii	"\243(n\015\212\213\021\374\005{nFZ\260\023)\017\252"
 480      8A8B11FC 
 480      057B6E46 
 480      5AB01329 
 480      0FAA
 481 029a 8C7B15F5 		.ascii	"\214{\025\365WnENy\036'\350y\034\007v \355w\374\005"
 481      576E454E 
 481      791E27E8 
 481      791C0776 
 481      20ED77FC 
 482 02af D6C90379 		.ascii	"\326\311\003y!?[mG\277X\002\203j#\255j^\210z*\304\370"
 482      213F5B6D 
 482      47BF5802 
 482      836A23AD 
 482      6A5E887A 
 483 02c6 E03F0762 		.ascii	"\340?\007b\244\016M\210\003\377>\032'\035\022\207B\004"
ARM GAS  C:\Users\info\AppData\Local\Temp\ccwzFIpi.s 			page 37


 483      A40E4D88 
 483      03FF3E1A 
 483      271D1287 
 483      4204
 484 02d8 244E8938 		.ascii	"$N\2118M\211\262}\2555\2624\246\201[\002\017<1Z;\211"
 484      4D89B27D 
 484      AD35B234 
 484      A6815B02 
 484      0F3C315A 
 485 02ee B83C37DE 		.ascii	"\270<7\336\265;Zk\247\347P\247\261\243m\227f\202\034"
 485      B53B5A6B 
 485      A7E750A7 
 485      B1A36D97 
 485      66821C
 486 0301 4F4550B3 		.ascii	"OEP\263U9^\000\017\246\337\204\351\303\357(C\034\223"
 486      55395E00 
 486      0FA6DF84 
 486      E9C3EF28 
 486      431C93
 487 0314 E1246EFE 		.ascii	"\341$n\376\206\233L\320N&\350)\024\242\321\310<N\326"
 487      869B4CD0 
 487      4E26E829 
 487      14A2D1C8 
 487      3C4ED6
 488 0327 0AEDD9B4 		.ascii	"\012\355\331\264\243\012xU\010\316\220\2459\250M\013"
 488      A30A7855 
 488      08CE90A5 
 488      39A84D0B 
 489 0337 F3DCBB67 		.ascii	"\363\334\273g\240*>\242\212?\256\260ZU\267\240\243\205"
 489      A02A3EA2 
 489      8A3FAEB0 
 489      5A55B7A0 
 489      A385
 490 0349 C0A0C120 		.ascii	"\300\240\301 o\340e\361RY\376\364\017\327Z\245\011\255"
 490      6FE065F1 
 490      5259FEF4 
 490      0FD75AA5 
 490      09AD
 491 035b D2A70F1A 		.ascii	"\322\247\017\032:\243Y\223\235\310\227&\333\235\250"
 491      3AA35993 
 491      9DC89726 
 491      DB9DA8
 492 036a DB62D0B4 		.ascii	"\333b\320\264\3604\255\224\246\366\301\256~\233T\240"
 492      F034AD94 
 492      A6F6C1AE 
 492      7E9B54A0 
 493 037a 5DCC1B4D 		.ascii	"]\314\033M\017+u\232\306\213z\257\022\2226\203\244\215"
 493      0F2B759A 
 493      C68B7AAF 
 493      12923683 
 493      A48D
 494 038c 2769A724 		.ascii	"'i\247$\3257s\266\310R\203F\322\273\255%;\206\027\240"
 494      D53773B6 
 494      C8528346 
 494      D2BBAD25 
 494      3B8617A0 
 495 03a0 2E4880D3 		.ascii	".H\200\323A\002\034,\236\370\230\005,\272l\344\215 "
ARM GAS  C:\Users\info\AppData\Local\Temp\ccwzFIpi.s 			page 38


 495      41021C2C 
 495      9EF89805 
 495      2CBA6CE4 
 495      8D20
 496 03b2 E8304276 		.ascii	"\3500Bv\360!;i\310\212RO\236M\032\324B\346\376r\247"
 496      F0213B69 
 496      C88A524F 
 496      9E4D1AD4 
 496      42E6FE72 
 497 03c7 DCA6C9E8 		.ascii	"\334\246\311\350\351\275\252\347MH\272\014\222.\236"
 497      E9BDAAE7 
 497      4D48BA0C 
 497      922E9E
 498 03d6 A45B23E9 		.ascii	"\244[#\351:\272\337*eI0U\213w\365\006\312lt\217\234"
 498      3ABADF2A 
 498      65493055 
 498      8B77F506 
 498      CA6C748F 
 499 03eb E219A09B 		.ascii	"\342\031\240\233\023\333\037\345IS\366\375YZ_\257\336"
 499      13DB1FE5 
 499      4953F6FD 
 499      595A5FAF 
 499      DE
 500 03fc F7BE23C7 		.ascii	"\367\276#\307\033DV\341\367\337\031\025\"\014z\214\344"
 500      1B4456E1 
 500      F7DF1915 
 500      220C7A8C 
 500      E4
 501 040d 7AF8E4CE 		.ascii	"z\370\344\316\321\344\374\217\357\226DK\245Zr\205\307"
 501      D1E4FC8F 
 501      EF96444B 
 501      A55A7285 
 501      C7
 502 041e 2E6FB131 		.ascii	".o\2611\232\374\001\376d\372\014\222>\236\344<%\271"
 502      9AFC01FE 
 502      64FA0C92 
 502      3E9EE43C 
 502      25B9
 503 0430 9773F742 		.ascii	"\227s\367B\244\274\231\364\367\264\356y\367\365}\001"
 503      A4BC99F4 
 503      F7B4EE79 
 503      F7F57D01 
 504 0440 AB749A06 		.ascii	"\253t\232\006\025kv\025\355\262j7$\324\375\222\211\273"
 504      156B7615 
 504      EDB26A37 
 504      24D4FD92 
 504      89BB
 505 0452 FE83B3A4 		.ascii	"\376\203\263\2448/\013o\366ET\354\202\221\334\037\300"
 505      382F0B6F 
 505      F64554EC 
 505      8291DC1F 
 505      C0
 506 0463 2E48F958 		.ascii	".H\371X\263\007l[\311\255C\371f\177H\201\206~\375`\243"
 506      B3076C5B 
 506      C9AD43F9 
 506      667F4881 
 506      867EFD60 
ARM GAS  C:\Users\info\AppData\Local\Temp\ccwzFIpi.s 			page 39


 507 0478 FF1EF826 		.ascii	"\377\036\370&]\336\\\370\227\250\345?\235+\212\036\217"
 507      5DDE5CF8 
 507      97A8E53F 
 507      9D2B8A1E 
 507      8F
 508 0489 3D3DCF4B 		.ascii	"==\317Kg\264\002\012F\266\226D\350?\205\236\306/U5\012"
 508      67B4020A 
 508      46B69644 
 508      E83F859E 
 508      C62F5535 
 509 049e 0631DA80 		.ascii	"\0061\332\200\221\326e`?\204\341\001\256\230\007\310"
 509      91D66560 
 509      3F84E101 
 509      AE9807C8 
 510 04ae 3A9373D2 		.ascii	":\223s\322\252\247\224;\035\217\333\233n\226F\361\025"
 510      AAA7943B 
 510      1D8FDB9B 
 510      6E9646F1 
 510      15
 511 04bf 5F0DAA78 		.ascii	"_\015\252x\210U<D+\2765\024\310\023y\360`\020\330\307"
 511      88553C44 
 511      2BBE3514 
 511      C81379F0 
 511      6010D8C7 
 512 04d3 C03E0296 		.ascii	"\300>\002\226\274}\356&\031d;\340w\330L\252\034\337"
 512      BC7DEE26 
 512      19643BE0 
 512      77D84CAA 
 512      1CDF
 513 04e5 C81D9300 		.ascii	"\310\035\223\000\303\244<\270\206\237G\320\275X%\230"
 513      C3A43CB8 
 513      869F47D0 
 513      BD582598 
 514 04f5 B340B7E9 		.ascii	"\263@\267\351b\374\035:'\017r\033\273Z{$>6\271BF\354"
 514      62FC1D3A 
 514      270F721B 
 514      BB5A7B24 
 514      3E36B942 
 515 050b 51167B94 		.ascii	"Q\026{\224&\232w\375\207\014\036\333\034\204\3653,y"
 515      269A77FD 
 515      870C1EDB 
 515      1C84F533 
 515      2C79
 516 051d BFB86E6D 		.ascii	"\277\270nm\372\012G\206\222\266\342\243LWR\206#\365"
 516      FA0A4786 
 516      92B6E2A3 
 516      4C575286 
 516      23F5
 517 052f AB1529AE 		.ascii	"\253\025)\256\225NWT\362\247\237\307&%&\012\257&+\231"
 517      954E5754 
 517      F2A79FC7 
 517      2625260A 
 517      AF262B99 
 518 0543 8A73A50B 		.ascii	"\212s\245\013\021)\216\365\316Te\371\322\024G\322[\313"
 518      11298EF5 
 518      CE5465F9 
 518      D21447D2 
ARM GAS  C:\Users\info\AppData\Local\Temp\ccwzFIpi.s 			page 40


 518      5BCB
 519 0555 C3FC1252 		.ascii	"\303\374\022R\205\271fd\216\265/\231o\277Gf/\233\306"
 519      85B96664 
 519      8EB52F99 
 519      6FBF4766 
 519      2F9BC6
 520 0568 CF4C5BB5 		.ascii	"\317L[\265a\251\343\033\305\031\261>=\323\265x\276y"
 520      61A9E31B 
 520      C519B13E 
 520      3DD3B578 
 520      BE79
 521 057a 0EAFA56E 		.ascii	"\016\257\245npmX\253\254K\370BX\030N\223\254\270\336"
 521      706D58AB 
 521      AC4BF842 
 521      58184E93 
 521      ACB8DE
 522 058d 4FFF3A3D 		.ascii	"O\377:=Mq~\246\254I_\347R\234\221\204,q\321|\223\220"
 522      4D717EA6 
 522      AC495FE7 
 522      529C9184 
 522      2C71D17C 
 523 05a3 8AEB1347 		.ascii	"\212\353\023G\232\242\003_\011G$e(+\235<\306\204%\371"
 523      9AA2035F 
 523      09472465 
 523      282B9D3C 
 523      C68425F9 
 524 05b7 992C88D0 		.ascii	"\231,\210\320\012\3201&y\247\204\345mB\224\022Jdq*k"
 524      0AD03126 
 524      79A784E5 
 524      6D429412 
 524      4A64712A 
 525 05cc 1647E023 		.ascii	"\026G\340#q\321\177f\361\211D"
 525      71D17F66 
 525      F18944
 526              		.text
 527              		.section	.gnu.lto_.symtab.791e5240,"",%progbits
 528 0000 7370695F 		.ascii	"spi_oled_IntClock_Start\000"
 528      6F6C6564 
 528      5F496E74 
 528      436C6F63 
 528      6B5F5374 
 529 0018 00       		.ascii	"\000"
 530 0019 00       		.ascii	"\000"
 531 001a 00       		.ascii	"\000"
 532 001b 00000000 		.ascii	"\000\000\000\000\000\000\000\000"
 532      00000000 
 533 0023 AD000000 		.ascii	"\255\000\000\000"
 534 0027 7370695F 		.ascii	"spi_oled_IntClock_Stop\000"
 534      6F6C6564 
 534      5F496E74 
 534      436C6F63 
 534      6B5F5374 
 535 003e 00       		.ascii	"\000"
 536 003f 00       		.ascii	"\000"
 537 0040 00       		.ascii	"\000"
 538 0041 00000000 		.ascii	"\000\000\000\000\000\000\000\000"
 538      00000000 
ARM GAS  C:\Users\info\AppData\Local\Temp\ccwzFIpi.s 			page 41


 539 0049 AF000000 		.ascii	"\257\000\000\000"
 540 004d 7370695F 		.ascii	"spi_oled_IntClock_StopBlock\000"
 540      6F6C6564 
 540      5F496E74 
 540      436C6F63 
 540      6B5F5374 
 541 0069 00       		.ascii	"\000"
 542 006a 00       		.ascii	"\000"
 543 006b 00       		.ascii	"\000"
 544 006c 00000000 		.ascii	"\000\000\000\000\000\000\000\000"
 544      00000000 
 545 0074 B1000000 		.ascii	"\261\000\000\000"
 546 0078 7370695F 		.ascii	"spi_oled_IntClock_StandbyPower\000"
 546      6F6C6564 
 546      5F496E74 
 546      436C6F63 
 546      6B5F5374 
 547 0097 00       		.ascii	"\000"
 548 0098 00       		.ascii	"\000"
 549 0099 00       		.ascii	"\000"
 550 009a 00000000 		.ascii	"\000\000\000\000\000\000\000\000"
 550      00000000 
 551 00a2 BA000000 		.ascii	"\272\000\000\000"
 552 00a6 7370695F 		.ascii	"spi_oled_IntClock_GetDividerRegister\000"
 552      6F6C6564 
 552      5F496E74 
 552      436C6F63 
 552      6B5F4765 
 553 00cb 00       		.ascii	"\000"
 554 00cc 00       		.ascii	"\000"
 555 00cd 00       		.ascii	"\000"
 556 00ce 00000000 		.ascii	"\000\000\000\000\000\000\000\000"
 556      00000000 
 557 00d6 C4000000 		.ascii	"\304\000\000\000"
 558 00da 7370695F 		.ascii	"spi_oled_IntClock_SetModeRegister\000"
 558      6F6C6564 
 558      5F496E74 
 558      436C6F63 
 558      6B5F5365 
 559 00fc 00       		.ascii	"\000"
 560 00fd 00       		.ascii	"\000"
 561 00fe 00       		.ascii	"\000"
 562 00ff 00000000 		.ascii	"\000\000\000\000\000\000\000\000"
 562      00000000 
 563 0107 C6000000 		.ascii	"\306\000\000\000"
 564 010b 7370695F 		.ascii	"spi_oled_IntClock_ClearModeRegister\000"
 564      6F6C6564 
 564      5F496E74 
 564      436C6F63 
 564      6B5F436C 
 565 012f 00       		.ascii	"\000"
 566 0130 00       		.ascii	"\000"
 567 0131 00       		.ascii	"\000"
 568 0132 00000000 		.ascii	"\000\000\000\000\000\000\000\000"
 568      00000000 
 569 013a C8000000 		.ascii	"\310\000\000\000"
 570 013e 7370695F 		.ascii	"spi_oled_IntClock_GetModeRegister\000"
ARM GAS  C:\Users\info\AppData\Local\Temp\ccwzFIpi.s 			page 42


 570      6F6C6564 
 570      5F496E74 
 570      436C6F63 
 570      6B5F4765 
 571 0160 00       		.ascii	"\000"
 572 0161 00       		.ascii	"\000"
 573 0162 00       		.ascii	"\000"
 574 0163 00000000 		.ascii	"\000\000\000\000\000\000\000\000"
 574      00000000 
 575 016b CB000000 		.ascii	"\313\000\000\000"
 576 016f 7370695F 		.ascii	"spi_oled_IntClock_GetSourceRegister\000"
 576      6F6C6564 
 576      5F496E74 
 576      436C6F63 
 576      6B5F4765 
 577 0193 00       		.ascii	"\000"
 578 0194 00       		.ascii	"\000"
 579 0195 00       		.ascii	"\000"
 580 0196 00000000 		.ascii	"\000\000\000\000\000\000\000\000"
 580      00000000 
 581 019e CD000000 		.ascii	"\315\000\000\000"
 582 01a2 7370695F 		.ascii	"spi_oled_IntClock_SetDividerRegister\000"
 582      6F6C6564 
 582      5F496E74 
 582      436C6F63 
 582      6B5F5365 
 583 01c7 00       		.ascii	"\000"
 584 01c8 00       		.ascii	"\000"
 585 01c9 00       		.ascii	"\000"
 586 01ca 00000000 		.ascii	"\000\000\000\000\000\000\000\000"
 586      00000000 
 587 01d2 D2000000 		.ascii	"\322\000\000\000"
 588 01d6 7370695F 		.ascii	"spi_oled_IntClock_SetSourceRegister\000"
 588      6F6C6564 
 588      5F496E74 
 588      436C6F63 
 588      6B5F5365 
 589 01fa 00       		.ascii	"\000"
 590 01fb 00       		.ascii	"\000"
 591 01fc 00       		.ascii	"\000"
 592 01fd 00000000 		.ascii	"\000\000\000\000\000\000\000\000"
 592      00000000 
 593 0205 D4000000 		.ascii	"\324\000\000\000"
 594              		.text
 595              		.section	.gnu.lto_.opts,"",%progbits
 596 0000 272D666D 		.ascii	"'-fmath-errno' '-fsigned-zeros' '-ftrapping-math' '"
 596      6174682D 
 596      6572726E 
 596      6F272027 
 596      2D667369 
 597 0033 2D666E6F 		.ascii	"-fno-trapv' '-fno-strict-overflow' '-fno-openmp' '-"
 597      2D747261 
 597      70762720 
 597      272D666E 
 597      6F2D7374 
 598 0066 666E6F2D 		.ascii	"fno-openacc' '-mcpu=cortex-m3' '-mthumb' '-g' '-Og'"
 598      6F70656E 
ARM GAS  C:\Users\info\AppData\Local\Temp\ccwzFIpi.s 			page 43


 598      61636327 
 598      20272D6D 
 598      6370753D 
 599 0099 20272D66 		.ascii	" '-ffunction-sections' '-ffat-lto-objects' '-flto'\000"
 599      66756E63 
 599      74696F6E 
 599      2D736563 
 599      74696F6E 
 600              		.text
 601              		.cfi_sections	.debug_frame
 602              		.section	.text.spi_oled_IntClock_Start,"ax",%progbits
 603              		.align	2
 604              		.global	spi_oled_IntClock_Start
 605              		.thumb
 606              		.thumb_func
 607              		.type	spi_oled_IntClock_Start, %function
 608              	spi_oled_IntClock_Start:
 609              	.LFB0:
 610              		.file 1 "Generated_Source\\PSoC5\\spi_oled_IntClock.c"
   1:Generated_Source\PSoC5/spi_oled_IntClock.c **** /*******************************************************************************
   2:Generated_Source\PSoC5/spi_oled_IntClock.c **** * File Name: spi_oled_IntClock.c
   3:Generated_Source\PSoC5/spi_oled_IntClock.c **** * Version 2.20
   4:Generated_Source\PSoC5/spi_oled_IntClock.c **** *
   5:Generated_Source\PSoC5/spi_oled_IntClock.c **** *  Description:
   6:Generated_Source\PSoC5/spi_oled_IntClock.c **** *   This file provides the source code to the API for the clock component.
   7:Generated_Source\PSoC5/spi_oled_IntClock.c **** *
   8:Generated_Source\PSoC5/spi_oled_IntClock.c **** *  Note:
   9:Generated_Source\PSoC5/spi_oled_IntClock.c **** *
  10:Generated_Source\PSoC5/spi_oled_IntClock.c **** ********************************************************************************
  11:Generated_Source\PSoC5/spi_oled_IntClock.c **** * Copyright 2008-2012, Cypress Semiconductor Corporation.  All rights reserved.
  12:Generated_Source\PSoC5/spi_oled_IntClock.c **** * You may use this file only in accordance with the license, terms, conditions, 
  13:Generated_Source\PSoC5/spi_oled_IntClock.c **** * disclaimers, and limitations in the end user license agreement accompanying 
  14:Generated_Source\PSoC5/spi_oled_IntClock.c **** * the software package with which this file was provided.
  15:Generated_Source\PSoC5/spi_oled_IntClock.c **** *******************************************************************************/
  16:Generated_Source\PSoC5/spi_oled_IntClock.c **** 
  17:Generated_Source\PSoC5/spi_oled_IntClock.c **** #include <cydevice_trm.h>
  18:Generated_Source\PSoC5/spi_oled_IntClock.c **** #include "spi_oled_IntClock.h"
  19:Generated_Source\PSoC5/spi_oled_IntClock.c **** 
  20:Generated_Source\PSoC5/spi_oled_IntClock.c **** /* Clock Distribution registers. */
  21:Generated_Source\PSoC5/spi_oled_IntClock.c **** #define CLK_DIST_LD              (* (reg8 *) CYREG_CLKDIST_LD)
  22:Generated_Source\PSoC5/spi_oled_IntClock.c **** #define CLK_DIST_BCFG2           (* (reg8 *) CYREG_CLKDIST_BCFG2)
  23:Generated_Source\PSoC5/spi_oled_IntClock.c **** #define BCFG2_MASK               (0x80u)
  24:Generated_Source\PSoC5/spi_oled_IntClock.c **** #define CLK_DIST_DMASK           (* (reg8 *) CYREG_CLKDIST_DMASK)
  25:Generated_Source\PSoC5/spi_oled_IntClock.c **** #define CLK_DIST_AMASK           (* (reg8 *) CYREG_CLKDIST_AMASK)
  26:Generated_Source\PSoC5/spi_oled_IntClock.c **** 
  27:Generated_Source\PSoC5/spi_oled_IntClock.c **** #define HAS_CLKDIST_LD_DISABLE   (CY_PSOC3 || CY_PSOC5LP)
  28:Generated_Source\PSoC5/spi_oled_IntClock.c **** 
  29:Generated_Source\PSoC5/spi_oled_IntClock.c **** 
  30:Generated_Source\PSoC5/spi_oled_IntClock.c **** /*******************************************************************************
  31:Generated_Source\PSoC5/spi_oled_IntClock.c **** * Function Name: spi_oled_IntClock_Start
  32:Generated_Source\PSoC5/spi_oled_IntClock.c **** ********************************************************************************
  33:Generated_Source\PSoC5/spi_oled_IntClock.c **** *
  34:Generated_Source\PSoC5/spi_oled_IntClock.c **** * Summary:
  35:Generated_Source\PSoC5/spi_oled_IntClock.c **** *  Starts the clock. Note that on startup, clocks may be already running if the
  36:Generated_Source\PSoC5/spi_oled_IntClock.c **** *  "Start on Reset" option is enabled in the DWR.
  37:Generated_Source\PSoC5/spi_oled_IntClock.c **** *
  38:Generated_Source\PSoC5/spi_oled_IntClock.c **** * Parameters:
ARM GAS  C:\Users\info\AppData\Local\Temp\ccwzFIpi.s 			page 44


  39:Generated_Source\PSoC5/spi_oled_IntClock.c **** *  None
  40:Generated_Source\PSoC5/spi_oled_IntClock.c **** *
  41:Generated_Source\PSoC5/spi_oled_IntClock.c **** * Returns:
  42:Generated_Source\PSoC5/spi_oled_IntClock.c **** *  None
  43:Generated_Source\PSoC5/spi_oled_IntClock.c **** *
  44:Generated_Source\PSoC5/spi_oled_IntClock.c **** *******************************************************************************/
  45:Generated_Source\PSoC5/spi_oled_IntClock.c **** void spi_oled_IntClock_Start(void) 
  46:Generated_Source\PSoC5/spi_oled_IntClock.c **** {
 611              		.loc 1 46 0
 612              		.cfi_startproc
 613              		@ args = 0, pretend = 0, frame = 0
 614              		@ frame_needed = 0, uses_anonymous_args = 0
 615              		@ link register save eliminated.
  47:Generated_Source\PSoC5/spi_oled_IntClock.c ****     /* Set the bit to enable the clock. */
  48:Generated_Source\PSoC5/spi_oled_IntClock.c ****     spi_oled_IntClock_CLKEN |= spi_oled_IntClock_CLKEN_MASK;
 616              		.loc 1 48 0
 617 0000 054A     		ldr	r2, .L2
 618 0002 1378     		ldrb	r3, [r2]	@ zero_extendqisi2
 619 0004 43F00203 		orr	r3, r3, #2
 620 0008 1370     		strb	r3, [r2]
  49:Generated_Source\PSoC5/spi_oled_IntClock.c **** 	spi_oled_IntClock_CLKSTBY |= spi_oled_IntClock_CLKSTBY_MASK;
 621              		.loc 1 49 0
 622 000a 1032     		adds	r2, r2, #16
 623 000c 1378     		ldrb	r3, [r2]	@ zero_extendqisi2
 624 000e 43F00203 		orr	r3, r3, #2
 625 0012 1370     		strb	r3, [r2]
 626 0014 7047     		bx	lr
 627              	.L3:
 628 0016 00BF     		.align	2
 629              	.L2:
 630 0018 A2430040 		.word	1073759138
 631              		.cfi_endproc
 632              	.LFE0:
 633              		.size	spi_oled_IntClock_Start, .-spi_oled_IntClock_Start
 634              		.section	.text.spi_oled_IntClock_Stop,"ax",%progbits
 635              		.align	2
 636              		.global	spi_oled_IntClock_Stop
 637              		.thumb
 638              		.thumb_func
 639              		.type	spi_oled_IntClock_Stop, %function
 640              	spi_oled_IntClock_Stop:
 641              	.LFB1:
  50:Generated_Source\PSoC5/spi_oled_IntClock.c **** }
  51:Generated_Source\PSoC5/spi_oled_IntClock.c **** 
  52:Generated_Source\PSoC5/spi_oled_IntClock.c **** 
  53:Generated_Source\PSoC5/spi_oled_IntClock.c **** /*******************************************************************************
  54:Generated_Source\PSoC5/spi_oled_IntClock.c **** * Function Name: spi_oled_IntClock_Stop
  55:Generated_Source\PSoC5/spi_oled_IntClock.c **** ********************************************************************************
  56:Generated_Source\PSoC5/spi_oled_IntClock.c **** *
  57:Generated_Source\PSoC5/spi_oled_IntClock.c **** * Summary:
  58:Generated_Source\PSoC5/spi_oled_IntClock.c **** *  Stops the clock and returns immediately. This API does not require the
  59:Generated_Source\PSoC5/spi_oled_IntClock.c **** *  source clock to be running but may return before the hardware is actually
  60:Generated_Source\PSoC5/spi_oled_IntClock.c **** *  disabled. If the settings of the clock are changed after calling this
  61:Generated_Source\PSoC5/spi_oled_IntClock.c **** *  function, the clock may glitch when it is started. To avoid the clock
  62:Generated_Source\PSoC5/spi_oled_IntClock.c **** *  glitch, use the StopBlock function.
  63:Generated_Source\PSoC5/spi_oled_IntClock.c **** *
  64:Generated_Source\PSoC5/spi_oled_IntClock.c **** * Parameters:
ARM GAS  C:\Users\info\AppData\Local\Temp\ccwzFIpi.s 			page 45


  65:Generated_Source\PSoC5/spi_oled_IntClock.c **** *  None
  66:Generated_Source\PSoC5/spi_oled_IntClock.c **** *
  67:Generated_Source\PSoC5/spi_oled_IntClock.c **** * Returns:
  68:Generated_Source\PSoC5/spi_oled_IntClock.c **** *  None
  69:Generated_Source\PSoC5/spi_oled_IntClock.c **** *
  70:Generated_Source\PSoC5/spi_oled_IntClock.c **** *******************************************************************************/
  71:Generated_Source\PSoC5/spi_oled_IntClock.c **** void spi_oled_IntClock_Stop(void) 
  72:Generated_Source\PSoC5/spi_oled_IntClock.c **** {
 642              		.loc 1 72 0
 643              		.cfi_startproc
 644              		@ args = 0, pretend = 0, frame = 0
 645              		@ frame_needed = 0, uses_anonymous_args = 0
 646              		@ link register save eliminated.
  73:Generated_Source\PSoC5/spi_oled_IntClock.c ****     /* Clear the bit to disable the clock. */
  74:Generated_Source\PSoC5/spi_oled_IntClock.c ****     spi_oled_IntClock_CLKEN &= (uint8)(~spi_oled_IntClock_CLKEN_MASK);
 647              		.loc 1 74 0
 648 0000 054A     		ldr	r2, .L5
 649 0002 1378     		ldrb	r3, [r2]	@ zero_extendqisi2
 650 0004 03F0FD03 		and	r3, r3, #253
 651 0008 1370     		strb	r3, [r2]
  75:Generated_Source\PSoC5/spi_oled_IntClock.c **** 	spi_oled_IntClock_CLKSTBY &= (uint8)(~spi_oled_IntClock_CLKSTBY_MASK);
 652              		.loc 1 75 0
 653 000a 1032     		adds	r2, r2, #16
 654 000c 1378     		ldrb	r3, [r2]	@ zero_extendqisi2
 655 000e 03F0FD03 		and	r3, r3, #253
 656 0012 1370     		strb	r3, [r2]
 657 0014 7047     		bx	lr
 658              	.L6:
 659 0016 00BF     		.align	2
 660              	.L5:
 661 0018 A2430040 		.word	1073759138
 662              		.cfi_endproc
 663              	.LFE1:
 664              		.size	spi_oled_IntClock_Stop, .-spi_oled_IntClock_Stop
 665              		.section	.text.spi_oled_IntClock_StopBlock,"ax",%progbits
 666              		.align	2
 667              		.global	spi_oled_IntClock_StopBlock
 668              		.thumb
 669              		.thumb_func
 670              		.type	spi_oled_IntClock_StopBlock, %function
 671              	spi_oled_IntClock_StopBlock:
 672              	.LFB2:
  76:Generated_Source\PSoC5/spi_oled_IntClock.c **** }
  77:Generated_Source\PSoC5/spi_oled_IntClock.c **** 
  78:Generated_Source\PSoC5/spi_oled_IntClock.c **** 
  79:Generated_Source\PSoC5/spi_oled_IntClock.c **** #if(CY_PSOC3 || CY_PSOC5LP)
  80:Generated_Source\PSoC5/spi_oled_IntClock.c **** 
  81:Generated_Source\PSoC5/spi_oled_IntClock.c **** 
  82:Generated_Source\PSoC5/spi_oled_IntClock.c **** /*******************************************************************************
  83:Generated_Source\PSoC5/spi_oled_IntClock.c **** * Function Name: spi_oled_IntClock_StopBlock
  84:Generated_Source\PSoC5/spi_oled_IntClock.c **** ********************************************************************************
  85:Generated_Source\PSoC5/spi_oled_IntClock.c **** *
  86:Generated_Source\PSoC5/spi_oled_IntClock.c **** * Summary:
  87:Generated_Source\PSoC5/spi_oled_IntClock.c **** *  Stops the clock and waits for the hardware to actually be disabled before
  88:Generated_Source\PSoC5/spi_oled_IntClock.c **** *  returning. This ensures that the clock is never truncated (high part of the
  89:Generated_Source\PSoC5/spi_oled_IntClock.c **** *  cycle will terminate before the clock is disabled and the API returns).
  90:Generated_Source\PSoC5/spi_oled_IntClock.c **** *  Note that the source clock must be running or this API will never return as
ARM GAS  C:\Users\info\AppData\Local\Temp\ccwzFIpi.s 			page 46


  91:Generated_Source\PSoC5/spi_oled_IntClock.c **** *  a stopped clock cannot be disabled.
  92:Generated_Source\PSoC5/spi_oled_IntClock.c **** *
  93:Generated_Source\PSoC5/spi_oled_IntClock.c **** * Parameters:
  94:Generated_Source\PSoC5/spi_oled_IntClock.c **** *  None
  95:Generated_Source\PSoC5/spi_oled_IntClock.c **** *
  96:Generated_Source\PSoC5/spi_oled_IntClock.c **** * Returns:
  97:Generated_Source\PSoC5/spi_oled_IntClock.c **** *  None
  98:Generated_Source\PSoC5/spi_oled_IntClock.c **** *
  99:Generated_Source\PSoC5/spi_oled_IntClock.c **** *******************************************************************************/
 100:Generated_Source\PSoC5/spi_oled_IntClock.c **** void spi_oled_IntClock_StopBlock(void) 
 101:Generated_Source\PSoC5/spi_oled_IntClock.c **** {
 673              		.loc 1 101 0
 674              		.cfi_startproc
 675              		@ args = 0, pretend = 0, frame = 0
 676              		@ frame_needed = 0, uses_anonymous_args = 0
 677              		@ link register save eliminated.
 102:Generated_Source\PSoC5/spi_oled_IntClock.c ****     if ((spi_oled_IntClock_CLKEN & spi_oled_IntClock_CLKEN_MASK) != 0u)
 678              		.loc 1 102 0
 679 0000 164B     		ldr	r3, .L10
 680 0002 1B78     		ldrb	r3, [r3]	@ zero_extendqisi2
 681 0004 13F0020F 		tst	r3, #2
 682 0008 27D0     		beq	.L7
 683              	.LBB2:
 103:Generated_Source\PSoC5/spi_oled_IntClock.c ****     {
 104:Generated_Source\PSoC5/spi_oled_IntClock.c **** #if HAS_CLKDIST_LD_DISABLE
 105:Generated_Source\PSoC5/spi_oled_IntClock.c ****         uint16 oldDivider;
 106:Generated_Source\PSoC5/spi_oled_IntClock.c **** 
 107:Generated_Source\PSoC5/spi_oled_IntClock.c ****         CLK_DIST_LD = 0u;
 684              		.loc 1 107 0
 685 000a 1549     		ldr	r1, .L10+4
 686 000c 0023     		movs	r3, #0
 687 000e 0B70     		strb	r3, [r1]
 108:Generated_Source\PSoC5/spi_oled_IntClock.c **** 
 109:Generated_Source\PSoC5/spi_oled_IntClock.c ****         /* Clear all the mask bits except ours. */
 110:Generated_Source\PSoC5/spi_oled_IntClock.c **** #if defined(spi_oled_IntClock__CFG3)
 111:Generated_Source\PSoC5/spi_oled_IntClock.c ****         CLK_DIST_AMASK = spi_oled_IntClock_CLKEN_MASK;
 112:Generated_Source\PSoC5/spi_oled_IntClock.c ****         CLK_DIST_DMASK = 0x00u;
 113:Generated_Source\PSoC5/spi_oled_IntClock.c **** #else
 114:Generated_Source\PSoC5/spi_oled_IntClock.c ****         CLK_DIST_DMASK = spi_oled_IntClock_CLKEN_MASK;
 688              		.loc 1 114 0
 689 0010 0220     		movs	r0, #2
 690 0012 144A     		ldr	r2, .L10+8
 691 0014 1070     		strb	r0, [r2]
 115:Generated_Source\PSoC5/spi_oled_IntClock.c ****         CLK_DIST_AMASK = 0x00u;
 692              		.loc 1 115 0
 693 0016 0432     		adds	r2, r2, #4
 694 0018 1370     		strb	r3, [r2]
 116:Generated_Source\PSoC5/spi_oled_IntClock.c **** #endif /* spi_oled_IntClock__CFG3 */
 117:Generated_Source\PSoC5/spi_oled_IntClock.c **** 
 118:Generated_Source\PSoC5/spi_oled_IntClock.c ****         /* Clear mask of bus clock. */
 119:Generated_Source\PSoC5/spi_oled_IntClock.c ****         CLK_DIST_BCFG2 &= (uint8)(~BCFG2_MASK);
 695              		.loc 1 119 0
 696 001a 0C3A     		subs	r2, r2, #12
 697 001c 1378     		ldrb	r3, [r2]	@ zero_extendqisi2
 698 001e 03F07F03 		and	r3, r3, #127
 699 0022 1370     		strb	r3, [r2]
 120:Generated_Source\PSoC5/spi_oled_IntClock.c **** 
ARM GAS  C:\Users\info\AppData\Local\Temp\ccwzFIpi.s 			page 47


 121:Generated_Source\PSoC5/spi_oled_IntClock.c ****         oldDivider = CY_GET_REG16(spi_oled_IntClock_DIV_PTR);
 700              		.loc 1 121 0
 701 0024 104B     		ldr	r3, .L10+12
 702 0026 1A88     		ldrh	r2, [r3]
 703 0028 92B2     		uxth	r2, r2
 704              	.LVL0:
 122:Generated_Source\PSoC5/spi_oled_IntClock.c ****         CY_SET_REG16(CYREG_CLKDIST_WRK0, oldDivider);
 705              		.loc 1 122 0
 706 002a 823B     		subs	r3, r3, #130
 707 002c 1A80     		strh	r2, [r3]	@ movhi
 123:Generated_Source\PSoC5/spi_oled_IntClock.c ****         CLK_DIST_LD = CYCLK_LD_DISABLE | CYCLK_LD_SYNC_EN | CYCLK_LD_LOAD;
 708              		.loc 1 123 0
 709 002e 0723     		movs	r3, #7
 710 0030 0B70     		strb	r3, [r1]
 711              	.L9:
 124:Generated_Source\PSoC5/spi_oled_IntClock.c **** 
 125:Generated_Source\PSoC5/spi_oled_IntClock.c ****         /* Wait for clock to be disabled */
 126:Generated_Source\PSoC5/spi_oled_IntClock.c ****         while ((CLK_DIST_LD & CYCLK_LD_LOAD) != 0u) { }
 712              		.loc 1 126 0 discriminator 1
 713 0032 0B4B     		ldr	r3, .L10+4
 714 0034 1B78     		ldrb	r3, [r3]	@ zero_extendqisi2
 715 0036 13F0010F 		tst	r3, #1
 716 003a FAD1     		bne	.L9
 127:Generated_Source\PSoC5/spi_oled_IntClock.c **** #endif /* HAS_CLKDIST_LD_DISABLE */
 128:Generated_Source\PSoC5/spi_oled_IntClock.c **** 
 129:Generated_Source\PSoC5/spi_oled_IntClock.c ****         /* Clear the bit to disable the clock. */
 130:Generated_Source\PSoC5/spi_oled_IntClock.c ****         spi_oled_IntClock_CLKEN &= (uint8)(~spi_oled_IntClock_CLKEN_MASK);
 717              		.loc 1 130 0
 718 003c 0749     		ldr	r1, .L10
 719 003e 0B78     		ldrb	r3, [r1]	@ zero_extendqisi2
 720 0040 03F0FD03 		and	r3, r3, #253
 721 0044 0B70     		strb	r3, [r1]
 131:Generated_Source\PSoC5/spi_oled_IntClock.c ****         spi_oled_IntClock_CLKSTBY &= (uint8)(~spi_oled_IntClock_CLKSTBY_MASK);
 722              		.loc 1 131 0
 723 0046 1031     		adds	r1, r1, #16
 724 0048 0B78     		ldrb	r3, [r1]	@ zero_extendqisi2
 725 004a 03F0FD03 		and	r3, r3, #253
 726 004e 0B70     		strb	r3, [r1]
 132:Generated_Source\PSoC5/spi_oled_IntClock.c **** 
 133:Generated_Source\PSoC5/spi_oled_IntClock.c **** #if HAS_CLKDIST_LD_DISABLE
 134:Generated_Source\PSoC5/spi_oled_IntClock.c ****         /* Clear the disable bit */
 135:Generated_Source\PSoC5/spi_oled_IntClock.c ****         CLK_DIST_LD = 0x00u;
 727              		.loc 1 135 0
 728 0050 0021     		movs	r1, #0
 729 0052 034B     		ldr	r3, .L10+4
 730 0054 1970     		strb	r1, [r3]
 136:Generated_Source\PSoC5/spi_oled_IntClock.c ****         CY_SET_REG16(spi_oled_IntClock_DIV_PTR, oldDivider);
 731              		.loc 1 136 0
 732 0056 8333     		adds	r3, r3, #131
 733 0058 1A80     		strh	r2, [r3]	@ movhi
 734              	.LVL1:
 735              	.L7:
 736 005a 7047     		bx	lr
 737              	.L11:
 738              		.align	2
 739              	.L10:
 740 005c A2430040 		.word	1073759138
ARM GAS  C:\Users\info\AppData\Local\Temp\ccwzFIpi.s 			page 48


 741 0060 01400040 		.word	1073758209
 742 0064 10400040 		.word	1073758224
 743 0068 84400040 		.word	1073758340
 744              	.LBE2:
 745              		.cfi_endproc
 746              	.LFE2:
 747              		.size	spi_oled_IntClock_StopBlock, .-spi_oled_IntClock_StopBlock
 748              		.section	.text.spi_oled_IntClock_StandbyPower,"ax",%progbits
 749              		.align	2
 750              		.global	spi_oled_IntClock_StandbyPower
 751              		.thumb
 752              		.thumb_func
 753              		.type	spi_oled_IntClock_StandbyPower, %function
 754              	spi_oled_IntClock_StandbyPower:
 755              	.LFB3:
 137:Generated_Source\PSoC5/spi_oled_IntClock.c **** #endif /* HAS_CLKDIST_LD_DISABLE */
 138:Generated_Source\PSoC5/spi_oled_IntClock.c ****     }
 139:Generated_Source\PSoC5/spi_oled_IntClock.c **** }
 140:Generated_Source\PSoC5/spi_oled_IntClock.c **** #endif /* (CY_PSOC3 || CY_PSOC5LP) */
 141:Generated_Source\PSoC5/spi_oled_IntClock.c **** 
 142:Generated_Source\PSoC5/spi_oled_IntClock.c **** 
 143:Generated_Source\PSoC5/spi_oled_IntClock.c **** /*******************************************************************************
 144:Generated_Source\PSoC5/spi_oled_IntClock.c **** * Function Name: spi_oled_IntClock_StandbyPower
 145:Generated_Source\PSoC5/spi_oled_IntClock.c **** ********************************************************************************
 146:Generated_Source\PSoC5/spi_oled_IntClock.c **** *
 147:Generated_Source\PSoC5/spi_oled_IntClock.c **** * Summary:
 148:Generated_Source\PSoC5/spi_oled_IntClock.c **** *  Sets whether the clock is active in standby mode.
 149:Generated_Source\PSoC5/spi_oled_IntClock.c **** *
 150:Generated_Source\PSoC5/spi_oled_IntClock.c **** * Parameters:
 151:Generated_Source\PSoC5/spi_oled_IntClock.c **** *  state:  0 to disable clock during standby, nonzero to enable.
 152:Generated_Source\PSoC5/spi_oled_IntClock.c **** *
 153:Generated_Source\PSoC5/spi_oled_IntClock.c **** * Returns:
 154:Generated_Source\PSoC5/spi_oled_IntClock.c **** *  None
 155:Generated_Source\PSoC5/spi_oled_IntClock.c **** *
 156:Generated_Source\PSoC5/spi_oled_IntClock.c **** *******************************************************************************/
 157:Generated_Source\PSoC5/spi_oled_IntClock.c **** void spi_oled_IntClock_StandbyPower(uint8 state) 
 158:Generated_Source\PSoC5/spi_oled_IntClock.c **** {
 756              		.loc 1 158 0
 757              		.cfi_startproc
 758              		@ args = 0, pretend = 0, frame = 0
 759              		@ frame_needed = 0, uses_anonymous_args = 0
 760              		@ link register save eliminated.
 761              	.LVL2:
 159:Generated_Source\PSoC5/spi_oled_IntClock.c ****     if(state == 0u)
 762              		.loc 1 159 0
 763 0000 28B9     		cbnz	r0, .L13
 160:Generated_Source\PSoC5/spi_oled_IntClock.c ****     {
 161:Generated_Source\PSoC5/spi_oled_IntClock.c ****         spi_oled_IntClock_CLKSTBY &= (uint8)(~spi_oled_IntClock_CLKSTBY_MASK);
 764              		.loc 1 161 0
 765 0002 064A     		ldr	r2, .L15
 766 0004 1378     		ldrb	r3, [r2]	@ zero_extendqisi2
 767 0006 03F0FD03 		and	r3, r3, #253
 768 000a 1370     		strb	r3, [r2]
 769 000c 7047     		bx	lr
 770              	.L13:
 162:Generated_Source\PSoC5/spi_oled_IntClock.c ****     }
 163:Generated_Source\PSoC5/spi_oled_IntClock.c ****     else
ARM GAS  C:\Users\info\AppData\Local\Temp\ccwzFIpi.s 			page 49


 164:Generated_Source\PSoC5/spi_oled_IntClock.c ****     {
 165:Generated_Source\PSoC5/spi_oled_IntClock.c ****         spi_oled_IntClock_CLKSTBY |= spi_oled_IntClock_CLKSTBY_MASK;
 771              		.loc 1 165 0
 772 000e 034A     		ldr	r2, .L15
 773 0010 1378     		ldrb	r3, [r2]	@ zero_extendqisi2
 774 0012 43F00203 		orr	r3, r3, #2
 775 0016 1370     		strb	r3, [r2]
 776 0018 7047     		bx	lr
 777              	.L16:
 778 001a 00BF     		.align	2
 779              	.L15:
 780 001c B2430040 		.word	1073759154
 781              		.cfi_endproc
 782              	.LFE3:
 783              		.size	spi_oled_IntClock_StandbyPower, .-spi_oled_IntClock_StandbyPower
 784              		.section	.text.spi_oled_IntClock_GetDividerRegister,"ax",%progbits
 785              		.align	2
 786              		.global	spi_oled_IntClock_GetDividerRegister
 787              		.thumb
 788              		.thumb_func
 789              		.type	spi_oled_IntClock_GetDividerRegister, %function
 790              	spi_oled_IntClock_GetDividerRegister:
 791              	.LFB5:
 166:Generated_Source\PSoC5/spi_oled_IntClock.c ****     }
 167:Generated_Source\PSoC5/spi_oled_IntClock.c **** }
 168:Generated_Source\PSoC5/spi_oled_IntClock.c **** 
 169:Generated_Source\PSoC5/spi_oled_IntClock.c **** 
 170:Generated_Source\PSoC5/spi_oled_IntClock.c **** /*******************************************************************************
 171:Generated_Source\PSoC5/spi_oled_IntClock.c **** * Function Name: spi_oled_IntClock_SetDividerRegister
 172:Generated_Source\PSoC5/spi_oled_IntClock.c **** ********************************************************************************
 173:Generated_Source\PSoC5/spi_oled_IntClock.c **** *
 174:Generated_Source\PSoC5/spi_oled_IntClock.c **** * Summary:
 175:Generated_Source\PSoC5/spi_oled_IntClock.c **** *  Modifies the clock divider and, thus, the frequency. When the clock divider
 176:Generated_Source\PSoC5/spi_oled_IntClock.c **** *  register is set to zero or changed from zero, the clock will be temporarily
 177:Generated_Source\PSoC5/spi_oled_IntClock.c **** *  disabled in order to change the SSS mode bit. If the clock is enabled when
 178:Generated_Source\PSoC5/spi_oled_IntClock.c **** *  SetDividerRegister is called, then the source clock must be running.
 179:Generated_Source\PSoC5/spi_oled_IntClock.c **** *
 180:Generated_Source\PSoC5/spi_oled_IntClock.c **** * Parameters:
 181:Generated_Source\PSoC5/spi_oled_IntClock.c **** *  clkDivider:  Divider register value (0-65,535). This value is NOT the
 182:Generated_Source\PSoC5/spi_oled_IntClock.c **** *    divider; the clock hardware divides by clkDivider plus one. For example,
 183:Generated_Source\PSoC5/spi_oled_IntClock.c **** *    to divide the clock by 2, this parameter should be set to 1.
 184:Generated_Source\PSoC5/spi_oled_IntClock.c **** *  restart:  If nonzero, restarts the clock divider: the current clock cycle
 185:Generated_Source\PSoC5/spi_oled_IntClock.c **** *   will be truncated and the new divide value will take effect immediately. If
 186:Generated_Source\PSoC5/spi_oled_IntClock.c **** *   zero, the new divide value will take effect at the end of the current clock
 187:Generated_Source\PSoC5/spi_oled_IntClock.c **** *   cycle.
 188:Generated_Source\PSoC5/spi_oled_IntClock.c **** *
 189:Generated_Source\PSoC5/spi_oled_IntClock.c **** * Returns:
 190:Generated_Source\PSoC5/spi_oled_IntClock.c **** *  None
 191:Generated_Source\PSoC5/spi_oled_IntClock.c **** *
 192:Generated_Source\PSoC5/spi_oled_IntClock.c **** *******************************************************************************/
 193:Generated_Source\PSoC5/spi_oled_IntClock.c **** void spi_oled_IntClock_SetDividerRegister(uint16 clkDivider, uint8 restart)
 194:Generated_Source\PSoC5/spi_oled_IntClock.c ****                                 
 195:Generated_Source\PSoC5/spi_oled_IntClock.c **** {
 196:Generated_Source\PSoC5/spi_oled_IntClock.c ****     uint8 enabled;
 197:Generated_Source\PSoC5/spi_oled_IntClock.c **** 
 198:Generated_Source\PSoC5/spi_oled_IntClock.c ****     uint8 currSrc = spi_oled_IntClock_GetSourceRegister();
 199:Generated_Source\PSoC5/spi_oled_IntClock.c ****     uint16 oldDivider = spi_oled_IntClock_GetDividerRegister();
ARM GAS  C:\Users\info\AppData\Local\Temp\ccwzFIpi.s 			page 50


 200:Generated_Source\PSoC5/spi_oled_IntClock.c **** 
 201:Generated_Source\PSoC5/spi_oled_IntClock.c ****     if (clkDivider != oldDivider)
 202:Generated_Source\PSoC5/spi_oled_IntClock.c ****     {
 203:Generated_Source\PSoC5/spi_oled_IntClock.c ****         enabled = spi_oled_IntClock_CLKEN & spi_oled_IntClock_CLKEN_MASK;
 204:Generated_Source\PSoC5/spi_oled_IntClock.c **** 
 205:Generated_Source\PSoC5/spi_oled_IntClock.c ****         if ((currSrc == (uint8)CYCLK_SRC_SEL_CLK_SYNC_D) && ((oldDivider == 0u) || (clkDivider == 0
 206:Generated_Source\PSoC5/spi_oled_IntClock.c ****         {
 207:Generated_Source\PSoC5/spi_oled_IntClock.c ****             /* Moving to/from SSS requires correct ordering to prevent halting the clock    */
 208:Generated_Source\PSoC5/spi_oled_IntClock.c ****             if (oldDivider == 0u)
 209:Generated_Source\PSoC5/spi_oled_IntClock.c ****             {
 210:Generated_Source\PSoC5/spi_oled_IntClock.c ****                 /* Moving away from SSS, set the divider first so when SSS is cleared we    */
 211:Generated_Source\PSoC5/spi_oled_IntClock.c ****                 /* don't halt the clock.  Using the shadow load isn't required as the       */
 212:Generated_Source\PSoC5/spi_oled_IntClock.c ****                 /* divider is ignored while SSS is set.                                     */
 213:Generated_Source\PSoC5/spi_oled_IntClock.c ****                 CY_SET_REG16(spi_oled_IntClock_DIV_PTR, clkDivider);
 214:Generated_Source\PSoC5/spi_oled_IntClock.c ****                 spi_oled_IntClock_MOD_SRC &= (uint8)(~CYCLK_SSS);
 215:Generated_Source\PSoC5/spi_oled_IntClock.c ****             }
 216:Generated_Source\PSoC5/spi_oled_IntClock.c ****             else
 217:Generated_Source\PSoC5/spi_oled_IntClock.c ****             {
 218:Generated_Source\PSoC5/spi_oled_IntClock.c ****                 /* Moving to SSS, set SSS which then ignores the divider and we can set     */
 219:Generated_Source\PSoC5/spi_oled_IntClock.c ****                 /* it without bothering with the shadow load.                               */
 220:Generated_Source\PSoC5/spi_oled_IntClock.c ****                 spi_oled_IntClock_MOD_SRC |= CYCLK_SSS;
 221:Generated_Source\PSoC5/spi_oled_IntClock.c ****                 CY_SET_REG16(spi_oled_IntClock_DIV_PTR, clkDivider);
 222:Generated_Source\PSoC5/spi_oled_IntClock.c ****             }
 223:Generated_Source\PSoC5/spi_oled_IntClock.c ****         }
 224:Generated_Source\PSoC5/spi_oled_IntClock.c ****         else
 225:Generated_Source\PSoC5/spi_oled_IntClock.c ****         {
 226:Generated_Source\PSoC5/spi_oled_IntClock.c **** 			
 227:Generated_Source\PSoC5/spi_oled_IntClock.c ****             if (enabled != 0u)
 228:Generated_Source\PSoC5/spi_oled_IntClock.c ****             {
 229:Generated_Source\PSoC5/spi_oled_IntClock.c ****                 CLK_DIST_LD = 0x00u;
 230:Generated_Source\PSoC5/spi_oled_IntClock.c **** 
 231:Generated_Source\PSoC5/spi_oled_IntClock.c ****                 /* Clear all the mask bits except ours. */
 232:Generated_Source\PSoC5/spi_oled_IntClock.c **** #if defined(spi_oled_IntClock__CFG3)
 233:Generated_Source\PSoC5/spi_oled_IntClock.c ****                 CLK_DIST_AMASK = spi_oled_IntClock_CLKEN_MASK;
 234:Generated_Source\PSoC5/spi_oled_IntClock.c ****                 CLK_DIST_DMASK = 0x00u;
 235:Generated_Source\PSoC5/spi_oled_IntClock.c **** #else
 236:Generated_Source\PSoC5/spi_oled_IntClock.c ****                 CLK_DIST_DMASK = spi_oled_IntClock_CLKEN_MASK;
 237:Generated_Source\PSoC5/spi_oled_IntClock.c ****                 CLK_DIST_AMASK = 0x00u;
 238:Generated_Source\PSoC5/spi_oled_IntClock.c **** #endif /* spi_oled_IntClock__CFG3 */
 239:Generated_Source\PSoC5/spi_oled_IntClock.c ****                 /* Clear mask of bus clock. */
 240:Generated_Source\PSoC5/spi_oled_IntClock.c ****                 CLK_DIST_BCFG2 &= (uint8)(~BCFG2_MASK);
 241:Generated_Source\PSoC5/spi_oled_IntClock.c **** 
 242:Generated_Source\PSoC5/spi_oled_IntClock.c ****                 /* If clock is currently enabled, disable it if async or going from N-to-1*/
 243:Generated_Source\PSoC5/spi_oled_IntClock.c ****                 if (((spi_oled_IntClock_MOD_SRC & CYCLK_SYNC) == 0u) || (clkDivider == 0u))
 244:Generated_Source\PSoC5/spi_oled_IntClock.c ****                 {
 245:Generated_Source\PSoC5/spi_oled_IntClock.c **** #if HAS_CLKDIST_LD_DISABLE
 246:Generated_Source\PSoC5/spi_oled_IntClock.c ****                     CY_SET_REG16(CYREG_CLKDIST_WRK0, oldDivider);
 247:Generated_Source\PSoC5/spi_oled_IntClock.c ****                     CLK_DIST_LD = CYCLK_LD_DISABLE|CYCLK_LD_SYNC_EN|CYCLK_LD_LOAD;
 248:Generated_Source\PSoC5/spi_oled_IntClock.c **** 
 249:Generated_Source\PSoC5/spi_oled_IntClock.c ****                     /* Wait for clock to be disabled */
 250:Generated_Source\PSoC5/spi_oled_IntClock.c ****                     while ((CLK_DIST_LD & CYCLK_LD_LOAD) != 0u) { }
 251:Generated_Source\PSoC5/spi_oled_IntClock.c **** #endif /* HAS_CLKDIST_LD_DISABLE */
 252:Generated_Source\PSoC5/spi_oled_IntClock.c **** 
 253:Generated_Source\PSoC5/spi_oled_IntClock.c ****                     spi_oled_IntClock_CLKEN &= (uint8)(~spi_oled_IntClock_CLKEN_MASK);
 254:Generated_Source\PSoC5/spi_oled_IntClock.c **** 
 255:Generated_Source\PSoC5/spi_oled_IntClock.c **** #if HAS_CLKDIST_LD_DISABLE
 256:Generated_Source\PSoC5/spi_oled_IntClock.c ****                     /* Clear the disable bit */
ARM GAS  C:\Users\info\AppData\Local\Temp\ccwzFIpi.s 			page 51


 257:Generated_Source\PSoC5/spi_oled_IntClock.c ****                     CLK_DIST_LD = 0x00u;
 258:Generated_Source\PSoC5/spi_oled_IntClock.c **** #endif /* HAS_CLKDIST_LD_DISABLE */
 259:Generated_Source\PSoC5/spi_oled_IntClock.c ****                 }
 260:Generated_Source\PSoC5/spi_oled_IntClock.c ****             }
 261:Generated_Source\PSoC5/spi_oled_IntClock.c **** 
 262:Generated_Source\PSoC5/spi_oled_IntClock.c ****             /* Load divide value. */
 263:Generated_Source\PSoC5/spi_oled_IntClock.c ****             if ((spi_oled_IntClock_CLKEN & spi_oled_IntClock_CLKEN_MASK) != 0u)
 264:Generated_Source\PSoC5/spi_oled_IntClock.c ****             {
 265:Generated_Source\PSoC5/spi_oled_IntClock.c ****                 /* If the clock is still enabled, use the shadow registers */
 266:Generated_Source\PSoC5/spi_oled_IntClock.c ****                 CY_SET_REG16(CYREG_CLKDIST_WRK0, clkDivider);
 267:Generated_Source\PSoC5/spi_oled_IntClock.c **** 
 268:Generated_Source\PSoC5/spi_oled_IntClock.c ****                 CLK_DIST_LD = (CYCLK_LD_LOAD | ((restart != 0u) ? CYCLK_LD_SYNC_EN : 0x00u));
 269:Generated_Source\PSoC5/spi_oled_IntClock.c ****                 while ((CLK_DIST_LD & CYCLK_LD_LOAD) != 0u) { }
 270:Generated_Source\PSoC5/spi_oled_IntClock.c ****             }
 271:Generated_Source\PSoC5/spi_oled_IntClock.c ****             else
 272:Generated_Source\PSoC5/spi_oled_IntClock.c ****             {
 273:Generated_Source\PSoC5/spi_oled_IntClock.c ****                 /* If the clock is disabled, set the divider directly */
 274:Generated_Source\PSoC5/spi_oled_IntClock.c ****                 CY_SET_REG16(spi_oled_IntClock_DIV_PTR, clkDivider);
 275:Generated_Source\PSoC5/spi_oled_IntClock.c **** 				spi_oled_IntClock_CLKEN |= enabled;
 276:Generated_Source\PSoC5/spi_oled_IntClock.c ****             }
 277:Generated_Source\PSoC5/spi_oled_IntClock.c ****         }
 278:Generated_Source\PSoC5/spi_oled_IntClock.c ****     }
 279:Generated_Source\PSoC5/spi_oled_IntClock.c **** }
 280:Generated_Source\PSoC5/spi_oled_IntClock.c **** 
 281:Generated_Source\PSoC5/spi_oled_IntClock.c **** 
 282:Generated_Source\PSoC5/spi_oled_IntClock.c **** /*******************************************************************************
 283:Generated_Source\PSoC5/spi_oled_IntClock.c **** * Function Name: spi_oled_IntClock_GetDividerRegister
 284:Generated_Source\PSoC5/spi_oled_IntClock.c **** ********************************************************************************
 285:Generated_Source\PSoC5/spi_oled_IntClock.c **** *
 286:Generated_Source\PSoC5/spi_oled_IntClock.c **** * Summary:
 287:Generated_Source\PSoC5/spi_oled_IntClock.c **** *  Gets the clock divider register value.
 288:Generated_Source\PSoC5/spi_oled_IntClock.c **** *
 289:Generated_Source\PSoC5/spi_oled_IntClock.c **** * Parameters:
 290:Generated_Source\PSoC5/spi_oled_IntClock.c **** *  None
 291:Generated_Source\PSoC5/spi_oled_IntClock.c **** *
 292:Generated_Source\PSoC5/spi_oled_IntClock.c **** * Returns:
 293:Generated_Source\PSoC5/spi_oled_IntClock.c **** *  Divide value of the clock minus 1. For example, if the clock is set to
 294:Generated_Source\PSoC5/spi_oled_IntClock.c **** *  divide by 2, the return value will be 1.
 295:Generated_Source\PSoC5/spi_oled_IntClock.c **** *
 296:Generated_Source\PSoC5/spi_oled_IntClock.c **** *******************************************************************************/
 297:Generated_Source\PSoC5/spi_oled_IntClock.c **** uint16 spi_oled_IntClock_GetDividerRegister(void) 
 298:Generated_Source\PSoC5/spi_oled_IntClock.c **** {
 792              		.loc 1 298 0
 793              		.cfi_startproc
 794              		@ args = 0, pretend = 0, frame = 0
 795              		@ frame_needed = 0, uses_anonymous_args = 0
 796              		@ link register save eliminated.
 299:Generated_Source\PSoC5/spi_oled_IntClock.c ****     return CY_GET_REG16(spi_oled_IntClock_DIV_PTR);
 797              		.loc 1 299 0
 798 0000 014B     		ldr	r3, .L18
 799 0002 1888     		ldrh	r0, [r3]
 300:Generated_Source\PSoC5/spi_oled_IntClock.c **** }
 800              		.loc 1 300 0
 801 0004 80B2     		uxth	r0, r0
 802 0006 7047     		bx	lr
 803              	.L19:
 804              		.align	2
ARM GAS  C:\Users\info\AppData\Local\Temp\ccwzFIpi.s 			page 52


 805              	.L18:
 806 0008 84400040 		.word	1073758340
 807              		.cfi_endproc
 808              	.LFE5:
 809              		.size	spi_oled_IntClock_GetDividerRegister, .-spi_oled_IntClock_GetDividerRegister
 810              		.section	.text.spi_oled_IntClock_SetModeRegister,"ax",%progbits
 811              		.align	2
 812              		.global	spi_oled_IntClock_SetModeRegister
 813              		.thumb
 814              		.thumb_func
 815              		.type	spi_oled_IntClock_SetModeRegister, %function
 816              	spi_oled_IntClock_SetModeRegister:
 817              	.LFB6:
 301:Generated_Source\PSoC5/spi_oled_IntClock.c **** 
 302:Generated_Source\PSoC5/spi_oled_IntClock.c **** 
 303:Generated_Source\PSoC5/spi_oled_IntClock.c **** /*******************************************************************************
 304:Generated_Source\PSoC5/spi_oled_IntClock.c **** * Function Name: spi_oled_IntClock_SetModeRegister
 305:Generated_Source\PSoC5/spi_oled_IntClock.c **** ********************************************************************************
 306:Generated_Source\PSoC5/spi_oled_IntClock.c **** *
 307:Generated_Source\PSoC5/spi_oled_IntClock.c **** * Summary:
 308:Generated_Source\PSoC5/spi_oled_IntClock.c **** *  Sets flags that control the operating mode of the clock. This function only
 309:Generated_Source\PSoC5/spi_oled_IntClock.c **** *  changes flags from 0 to 1; flags that are already 1 will remain unchanged.
 310:Generated_Source\PSoC5/spi_oled_IntClock.c **** *  To clear flags, use the ClearModeRegister function. The clock must be
 311:Generated_Source\PSoC5/spi_oled_IntClock.c **** *  disabled before changing the mode.
 312:Generated_Source\PSoC5/spi_oled_IntClock.c **** *
 313:Generated_Source\PSoC5/spi_oled_IntClock.c **** * Parameters:
 314:Generated_Source\PSoC5/spi_oled_IntClock.c **** *  clkMode: Bit mask containing the bits to set. For PSoC 3 and PSoC 5,
 315:Generated_Source\PSoC5/spi_oled_IntClock.c **** *   clkMode should be a set of the following optional bits or'ed together.
 316:Generated_Source\PSoC5/spi_oled_IntClock.c **** *   - CYCLK_EARLY Enable early phase mode. Rising edge of output clock will
 317:Generated_Source\PSoC5/spi_oled_IntClock.c **** *                 occur when the divider count reaches half of the divide
 318:Generated_Source\PSoC5/spi_oled_IntClock.c **** *                 value.
 319:Generated_Source\PSoC5/spi_oled_IntClock.c **** *   - CYCLK_DUTY  Enable 50% duty cycle output. When enabled, the output clock
 320:Generated_Source\PSoC5/spi_oled_IntClock.c **** *                 is asserted for approximately half of its period. When
 321:Generated_Source\PSoC5/spi_oled_IntClock.c **** *                 disabled, the output clock is asserted for one period of the
 322:Generated_Source\PSoC5/spi_oled_IntClock.c **** *                 source clock.
 323:Generated_Source\PSoC5/spi_oled_IntClock.c **** *   - CYCLK_SYNC  Enable output synchronization to master clock. This should
 324:Generated_Source\PSoC5/spi_oled_IntClock.c **** *                 be enabled for all synchronous clocks.
 325:Generated_Source\PSoC5/spi_oled_IntClock.c **** *   See the Technical Reference Manual for details about setting the mode of
 326:Generated_Source\PSoC5/spi_oled_IntClock.c **** *   the clock. Specifically, see the CLKDIST.DCFG.CFG2 register.
 327:Generated_Source\PSoC5/spi_oled_IntClock.c **** *
 328:Generated_Source\PSoC5/spi_oled_IntClock.c **** * Returns:
 329:Generated_Source\PSoC5/spi_oled_IntClock.c **** *  None
 330:Generated_Source\PSoC5/spi_oled_IntClock.c **** *
 331:Generated_Source\PSoC5/spi_oled_IntClock.c **** *******************************************************************************/
 332:Generated_Source\PSoC5/spi_oled_IntClock.c **** void spi_oled_IntClock_SetModeRegister(uint8 modeBitMask) 
 333:Generated_Source\PSoC5/spi_oled_IntClock.c **** {
 818              		.loc 1 333 0
 819              		.cfi_startproc
 820              		@ args = 0, pretend = 0, frame = 0
 821              		@ frame_needed = 0, uses_anonymous_args = 0
 822              		@ link register save eliminated.
 823              	.LVL3:
 334:Generated_Source\PSoC5/spi_oled_IntClock.c ****     spi_oled_IntClock_MOD_SRC |= modeBitMask & (uint8)spi_oled_IntClock_MODE_MASK;
 824              		.loc 1 334 0
 825 0000 034B     		ldr	r3, .L21
 826 0002 1A78     		ldrb	r2, [r3]	@ zero_extendqisi2
 827 0004 00F0F800 		and	r0, r0, #248
ARM GAS  C:\Users\info\AppData\Local\Temp\ccwzFIpi.s 			page 53


 828              	.LVL4:
 829 0008 1043     		orrs	r0, r0, r2
 830 000a 1870     		strb	r0, [r3]
 831 000c 7047     		bx	lr
 832              	.L22:
 833 000e 00BF     		.align	2
 834              	.L21:
 835 0010 86400040 		.word	1073758342
 836              		.cfi_endproc
 837              	.LFE6:
 838              		.size	spi_oled_IntClock_SetModeRegister, .-spi_oled_IntClock_SetModeRegister
 839              		.section	.text.spi_oled_IntClock_ClearModeRegister,"ax",%progbits
 840              		.align	2
 841              		.global	spi_oled_IntClock_ClearModeRegister
 842              		.thumb
 843              		.thumb_func
 844              		.type	spi_oled_IntClock_ClearModeRegister, %function
 845              	spi_oled_IntClock_ClearModeRegister:
 846              	.LFB7:
 335:Generated_Source\PSoC5/spi_oled_IntClock.c **** }
 336:Generated_Source\PSoC5/spi_oled_IntClock.c **** 
 337:Generated_Source\PSoC5/spi_oled_IntClock.c **** 
 338:Generated_Source\PSoC5/spi_oled_IntClock.c **** /*******************************************************************************
 339:Generated_Source\PSoC5/spi_oled_IntClock.c **** * Function Name: spi_oled_IntClock_ClearModeRegister
 340:Generated_Source\PSoC5/spi_oled_IntClock.c **** ********************************************************************************
 341:Generated_Source\PSoC5/spi_oled_IntClock.c **** *
 342:Generated_Source\PSoC5/spi_oled_IntClock.c **** * Summary:
 343:Generated_Source\PSoC5/spi_oled_IntClock.c **** *  Clears flags that control the operating mode of the clock. This function
 344:Generated_Source\PSoC5/spi_oled_IntClock.c **** *  only changes flags from 1 to 0; flags that are already 0 will remain
 345:Generated_Source\PSoC5/spi_oled_IntClock.c **** *  unchanged. To set flags, use the SetModeRegister function. The clock must be
 346:Generated_Source\PSoC5/spi_oled_IntClock.c **** *  disabled before changing the mode.
 347:Generated_Source\PSoC5/spi_oled_IntClock.c **** *
 348:Generated_Source\PSoC5/spi_oled_IntClock.c **** * Parameters:
 349:Generated_Source\PSoC5/spi_oled_IntClock.c **** *  clkMode: Bit mask containing the bits to clear. For PSoC 3 and PSoC 5,
 350:Generated_Source\PSoC5/spi_oled_IntClock.c **** *   clkMode should be a set of the following optional bits or'ed together.
 351:Generated_Source\PSoC5/spi_oled_IntClock.c **** *   - CYCLK_EARLY Enable early phase mode. Rising edge of output clock will
 352:Generated_Source\PSoC5/spi_oled_IntClock.c **** *                 occur when the divider count reaches half of the divide
 353:Generated_Source\PSoC5/spi_oled_IntClock.c **** *                 value.
 354:Generated_Source\PSoC5/spi_oled_IntClock.c **** *   - CYCLK_DUTY  Enable 50% duty cycle output. When enabled, the output clock
 355:Generated_Source\PSoC5/spi_oled_IntClock.c **** *                 is asserted for approximately half of its period. When
 356:Generated_Source\PSoC5/spi_oled_IntClock.c **** *                 disabled, the output clock is asserted for one period of the
 357:Generated_Source\PSoC5/spi_oled_IntClock.c **** *                 source clock.
 358:Generated_Source\PSoC5/spi_oled_IntClock.c **** *   - CYCLK_SYNC  Enable output synchronization to master clock. This should
 359:Generated_Source\PSoC5/spi_oled_IntClock.c **** *                 be enabled for all synchronous clocks.
 360:Generated_Source\PSoC5/spi_oled_IntClock.c **** *   See the Technical Reference Manual for details about setting the mode of
 361:Generated_Source\PSoC5/spi_oled_IntClock.c **** *   the clock. Specifically, see the CLKDIST.DCFG.CFG2 register.
 362:Generated_Source\PSoC5/spi_oled_IntClock.c **** *
 363:Generated_Source\PSoC5/spi_oled_IntClock.c **** * Returns:
 364:Generated_Source\PSoC5/spi_oled_IntClock.c **** *  None
 365:Generated_Source\PSoC5/spi_oled_IntClock.c **** *
 366:Generated_Source\PSoC5/spi_oled_IntClock.c **** *******************************************************************************/
 367:Generated_Source\PSoC5/spi_oled_IntClock.c **** void spi_oled_IntClock_ClearModeRegister(uint8 modeBitMask) 
 368:Generated_Source\PSoC5/spi_oled_IntClock.c **** {
 847              		.loc 1 368 0
 848              		.cfi_startproc
 849              		@ args = 0, pretend = 0, frame = 0
 850              		@ frame_needed = 0, uses_anonymous_args = 0
ARM GAS  C:\Users\info\AppData\Local\Temp\ccwzFIpi.s 			page 54


 851              		@ link register save eliminated.
 852              	.LVL5:
 369:Generated_Source\PSoC5/spi_oled_IntClock.c ****     spi_oled_IntClock_MOD_SRC &= (uint8)(~modeBitMask) | (uint8)(~(uint8)(spi_oled_IntClock_MODE_MA
 853              		.loc 1 369 0
 854 0000 044B     		ldr	r3, .L24
 855 0002 1A78     		ldrb	r2, [r3]	@ zero_extendqisi2
 856 0004 C043     		mvns	r0, r0
 857              	.LVL6:
 858 0006 C0B2     		uxtb	r0, r0
 859 0008 40F00700 		orr	r0, r0, #7
 860 000c 1040     		ands	r0, r0, r2
 861 000e 1870     		strb	r0, [r3]
 862 0010 7047     		bx	lr
 863              	.L25:
 864 0012 00BF     		.align	2
 865              	.L24:
 866 0014 86400040 		.word	1073758342
 867              		.cfi_endproc
 868              	.LFE7:
 869              		.size	spi_oled_IntClock_ClearModeRegister, .-spi_oled_IntClock_ClearModeRegister
 870              		.section	.text.spi_oled_IntClock_GetModeRegister,"ax",%progbits
 871              		.align	2
 872              		.global	spi_oled_IntClock_GetModeRegister
 873              		.thumb
 874              		.thumb_func
 875              		.type	spi_oled_IntClock_GetModeRegister, %function
 876              	spi_oled_IntClock_GetModeRegister:
 877              	.LFB8:
 370:Generated_Source\PSoC5/spi_oled_IntClock.c **** }
 371:Generated_Source\PSoC5/spi_oled_IntClock.c **** 
 372:Generated_Source\PSoC5/spi_oled_IntClock.c **** 
 373:Generated_Source\PSoC5/spi_oled_IntClock.c **** /*******************************************************************************
 374:Generated_Source\PSoC5/spi_oled_IntClock.c **** * Function Name: spi_oled_IntClock_GetModeRegister
 375:Generated_Source\PSoC5/spi_oled_IntClock.c **** ********************************************************************************
 376:Generated_Source\PSoC5/spi_oled_IntClock.c **** *
 377:Generated_Source\PSoC5/spi_oled_IntClock.c **** * Summary:
 378:Generated_Source\PSoC5/spi_oled_IntClock.c **** *  Gets the clock mode register value.
 379:Generated_Source\PSoC5/spi_oled_IntClock.c **** *
 380:Generated_Source\PSoC5/spi_oled_IntClock.c **** * Parameters:
 381:Generated_Source\PSoC5/spi_oled_IntClock.c **** *  None
 382:Generated_Source\PSoC5/spi_oled_IntClock.c **** *
 383:Generated_Source\PSoC5/spi_oled_IntClock.c **** * Returns:
 384:Generated_Source\PSoC5/spi_oled_IntClock.c **** *  Bit mask representing the enabled mode bits. See the SetModeRegister and
 385:Generated_Source\PSoC5/spi_oled_IntClock.c **** *  ClearModeRegister descriptions for details about the mode bits.
 386:Generated_Source\PSoC5/spi_oled_IntClock.c **** *
 387:Generated_Source\PSoC5/spi_oled_IntClock.c **** *******************************************************************************/
 388:Generated_Source\PSoC5/spi_oled_IntClock.c **** uint8 spi_oled_IntClock_GetModeRegister(void) 
 389:Generated_Source\PSoC5/spi_oled_IntClock.c **** {
 878              		.loc 1 389 0
 879              		.cfi_startproc
 880              		@ args = 0, pretend = 0, frame = 0
 881              		@ frame_needed = 0, uses_anonymous_args = 0
 882              		@ link register save eliminated.
 390:Generated_Source\PSoC5/spi_oled_IntClock.c ****     return spi_oled_IntClock_MOD_SRC & (uint8)(spi_oled_IntClock_MODE_MASK);
 883              		.loc 1 390 0
 884 0000 024B     		ldr	r3, .L27
 885 0002 1878     		ldrb	r0, [r3]	@ zero_extendqisi2
ARM GAS  C:\Users\info\AppData\Local\Temp\ccwzFIpi.s 			page 55


 391:Generated_Source\PSoC5/spi_oled_IntClock.c **** }
 886              		.loc 1 391 0
 887 0004 00F0F800 		and	r0, r0, #248
 888 0008 7047     		bx	lr
 889              	.L28:
 890 000a 00BF     		.align	2
 891              	.L27:
 892 000c 86400040 		.word	1073758342
 893              		.cfi_endproc
 894              	.LFE8:
 895              		.size	spi_oled_IntClock_GetModeRegister, .-spi_oled_IntClock_GetModeRegister
 896              		.section	.text.spi_oled_IntClock_GetSourceRegister,"ax",%progbits
 897              		.align	2
 898              		.global	spi_oled_IntClock_GetSourceRegister
 899              		.thumb
 900              		.thumb_func
 901              		.type	spi_oled_IntClock_GetSourceRegister, %function
 902              	spi_oled_IntClock_GetSourceRegister:
 903              	.LFB10:
 392:Generated_Source\PSoC5/spi_oled_IntClock.c **** 
 393:Generated_Source\PSoC5/spi_oled_IntClock.c **** 
 394:Generated_Source\PSoC5/spi_oled_IntClock.c **** /*******************************************************************************
 395:Generated_Source\PSoC5/spi_oled_IntClock.c **** * Function Name: spi_oled_IntClock_SetSourceRegister
 396:Generated_Source\PSoC5/spi_oled_IntClock.c **** ********************************************************************************
 397:Generated_Source\PSoC5/spi_oled_IntClock.c **** *
 398:Generated_Source\PSoC5/spi_oled_IntClock.c **** * Summary:
 399:Generated_Source\PSoC5/spi_oled_IntClock.c **** *  Sets the input source of the clock. The clock must be disabled before
 400:Generated_Source\PSoC5/spi_oled_IntClock.c **** *  changing the source. The old and new clock sources must be running.
 401:Generated_Source\PSoC5/spi_oled_IntClock.c **** *
 402:Generated_Source\PSoC5/spi_oled_IntClock.c **** * Parameters:
 403:Generated_Source\PSoC5/spi_oled_IntClock.c **** *  clkSource:  For PSoC 3 and PSoC 5 devices, clkSource should be one of the
 404:Generated_Source\PSoC5/spi_oled_IntClock.c **** *   following input sources:
 405:Generated_Source\PSoC5/spi_oled_IntClock.c **** *   - CYCLK_SRC_SEL_SYNC_DIG
 406:Generated_Source\PSoC5/spi_oled_IntClock.c **** *   - CYCLK_SRC_SEL_IMO
 407:Generated_Source\PSoC5/spi_oled_IntClock.c **** *   - CYCLK_SRC_SEL_XTALM
 408:Generated_Source\PSoC5/spi_oled_IntClock.c **** *   - CYCLK_SRC_SEL_ILO
 409:Generated_Source\PSoC5/spi_oled_IntClock.c **** *   - CYCLK_SRC_SEL_PLL
 410:Generated_Source\PSoC5/spi_oled_IntClock.c **** *   - CYCLK_SRC_SEL_XTALK
 411:Generated_Source\PSoC5/spi_oled_IntClock.c **** *   - CYCLK_SRC_SEL_DSI_G
 412:Generated_Source\PSoC5/spi_oled_IntClock.c **** *   - CYCLK_SRC_SEL_DSI_D/CYCLK_SRC_SEL_DSI_A
 413:Generated_Source\PSoC5/spi_oled_IntClock.c **** *   See the Technical Reference Manual for details on clock sources.
 414:Generated_Source\PSoC5/spi_oled_IntClock.c **** *
 415:Generated_Source\PSoC5/spi_oled_IntClock.c **** * Returns:
 416:Generated_Source\PSoC5/spi_oled_IntClock.c **** *  None
 417:Generated_Source\PSoC5/spi_oled_IntClock.c **** *
 418:Generated_Source\PSoC5/spi_oled_IntClock.c **** *******************************************************************************/
 419:Generated_Source\PSoC5/spi_oled_IntClock.c **** void spi_oled_IntClock_SetSourceRegister(uint8 clkSource) 
 420:Generated_Source\PSoC5/spi_oled_IntClock.c **** {
 421:Generated_Source\PSoC5/spi_oled_IntClock.c ****     uint16 currDiv = spi_oled_IntClock_GetDividerRegister();
 422:Generated_Source\PSoC5/spi_oled_IntClock.c ****     uint8 oldSrc = spi_oled_IntClock_GetSourceRegister();
 423:Generated_Source\PSoC5/spi_oled_IntClock.c **** 
 424:Generated_Source\PSoC5/spi_oled_IntClock.c ****     if (((oldSrc != ((uint8)CYCLK_SRC_SEL_CLK_SYNC_D)) && 
 425:Generated_Source\PSoC5/spi_oled_IntClock.c ****         (clkSource == ((uint8)CYCLK_SRC_SEL_CLK_SYNC_D))) && (currDiv == 0u))
 426:Generated_Source\PSoC5/spi_oled_IntClock.c ****     {
 427:Generated_Source\PSoC5/spi_oled_IntClock.c ****         /* Switching to Master and divider is 1, set SSS, which will output master, */
 428:Generated_Source\PSoC5/spi_oled_IntClock.c ****         /* then set the source so we are consistent.                                */
 429:Generated_Source\PSoC5/spi_oled_IntClock.c ****         spi_oled_IntClock_MOD_SRC |= CYCLK_SSS;
ARM GAS  C:\Users\info\AppData\Local\Temp\ccwzFIpi.s 			page 56


 430:Generated_Source\PSoC5/spi_oled_IntClock.c ****         spi_oled_IntClock_MOD_SRC =
 431:Generated_Source\PSoC5/spi_oled_IntClock.c ****             (spi_oled_IntClock_MOD_SRC & (uint8)(~spi_oled_IntClock_SRC_SEL_MSK)) | clkSource;
 432:Generated_Source\PSoC5/spi_oled_IntClock.c ****     }
 433:Generated_Source\PSoC5/spi_oled_IntClock.c ****     else if (((oldSrc == ((uint8)CYCLK_SRC_SEL_CLK_SYNC_D)) && 
 434:Generated_Source\PSoC5/spi_oled_IntClock.c ****             (clkSource != ((uint8)CYCLK_SRC_SEL_CLK_SYNC_D))) && (currDiv == 0u))
 435:Generated_Source\PSoC5/spi_oled_IntClock.c ****     {
 436:Generated_Source\PSoC5/spi_oled_IntClock.c ****         /* Switching from Master to not and divider is 1, set source, so we don't   */
 437:Generated_Source\PSoC5/spi_oled_IntClock.c ****         /* lock when we clear SSS.                                                  */
 438:Generated_Source\PSoC5/spi_oled_IntClock.c ****         spi_oled_IntClock_MOD_SRC =
 439:Generated_Source\PSoC5/spi_oled_IntClock.c ****             (spi_oled_IntClock_MOD_SRC & (uint8)(~spi_oled_IntClock_SRC_SEL_MSK)) | clkSource;
 440:Generated_Source\PSoC5/spi_oled_IntClock.c ****         spi_oled_IntClock_MOD_SRC &= (uint8)(~CYCLK_SSS);
 441:Generated_Source\PSoC5/spi_oled_IntClock.c ****     }
 442:Generated_Source\PSoC5/spi_oled_IntClock.c ****     else
 443:Generated_Source\PSoC5/spi_oled_IntClock.c ****     {
 444:Generated_Source\PSoC5/spi_oled_IntClock.c ****         spi_oled_IntClock_MOD_SRC =
 445:Generated_Source\PSoC5/spi_oled_IntClock.c ****             (spi_oled_IntClock_MOD_SRC & (uint8)(~spi_oled_IntClock_SRC_SEL_MSK)) | clkSource;
 446:Generated_Source\PSoC5/spi_oled_IntClock.c ****     }
 447:Generated_Source\PSoC5/spi_oled_IntClock.c **** }
 448:Generated_Source\PSoC5/spi_oled_IntClock.c **** 
 449:Generated_Source\PSoC5/spi_oled_IntClock.c **** 
 450:Generated_Source\PSoC5/spi_oled_IntClock.c **** /*******************************************************************************
 451:Generated_Source\PSoC5/spi_oled_IntClock.c **** * Function Name: spi_oled_IntClock_GetSourceRegister
 452:Generated_Source\PSoC5/spi_oled_IntClock.c **** ********************************************************************************
 453:Generated_Source\PSoC5/spi_oled_IntClock.c **** *
 454:Generated_Source\PSoC5/spi_oled_IntClock.c **** * Summary:
 455:Generated_Source\PSoC5/spi_oled_IntClock.c **** *  Gets the input source of the clock.
 456:Generated_Source\PSoC5/spi_oled_IntClock.c **** *
 457:Generated_Source\PSoC5/spi_oled_IntClock.c **** * Parameters:
 458:Generated_Source\PSoC5/spi_oled_IntClock.c **** *  None
 459:Generated_Source\PSoC5/spi_oled_IntClock.c **** *
 460:Generated_Source\PSoC5/spi_oled_IntClock.c **** * Returns:
 461:Generated_Source\PSoC5/spi_oled_IntClock.c **** *  The input source of the clock. See SetSourceRegister for details.
 462:Generated_Source\PSoC5/spi_oled_IntClock.c **** *
 463:Generated_Source\PSoC5/spi_oled_IntClock.c **** *******************************************************************************/
 464:Generated_Source\PSoC5/spi_oled_IntClock.c **** uint8 spi_oled_IntClock_GetSourceRegister(void) 
 465:Generated_Source\PSoC5/spi_oled_IntClock.c **** {
 904              		.loc 1 465 0
 905              		.cfi_startproc
 906              		@ args = 0, pretend = 0, frame = 0
 907              		@ frame_needed = 0, uses_anonymous_args = 0
 908              		@ link register save eliminated.
 466:Generated_Source\PSoC5/spi_oled_IntClock.c ****     return spi_oled_IntClock_MOD_SRC & spi_oled_IntClock_SRC_SEL_MSK;
 909              		.loc 1 466 0
 910 0000 024B     		ldr	r3, .L30
 911 0002 1878     		ldrb	r0, [r3]	@ zero_extendqisi2
 467:Generated_Source\PSoC5/spi_oled_IntClock.c **** }
 912              		.loc 1 467 0
 913 0004 00F00700 		and	r0, r0, #7
 914 0008 7047     		bx	lr
 915              	.L31:
 916 000a 00BF     		.align	2
 917              	.L30:
 918 000c 86400040 		.word	1073758342
 919              		.cfi_endproc
 920              	.LFE10:
 921              		.size	spi_oled_IntClock_GetSourceRegister, .-spi_oled_IntClock_GetSourceRegister
 922              		.section	.text.spi_oled_IntClock_SetDividerRegister,"ax",%progbits
ARM GAS  C:\Users\info\AppData\Local\Temp\ccwzFIpi.s 			page 57


 923              		.align	2
 924              		.global	spi_oled_IntClock_SetDividerRegister
 925              		.thumb
 926              		.thumb_func
 927              		.type	spi_oled_IntClock_SetDividerRegister, %function
 928              	spi_oled_IntClock_SetDividerRegister:
 929              	.LFB4:
 195:Generated_Source\PSoC5/spi_oled_IntClock.c ****     uint8 enabled;
 930              		.loc 1 195 0
 931              		.cfi_startproc
 932              		@ args = 0, pretend = 0, frame = 0
 933              		@ frame_needed = 0, uses_anonymous_args = 0
 934              	.LVL7:
 935 0000 70B5     		push	{r4, r5, r6, lr}
 936              		.cfi_def_cfa_offset 16
 937              		.cfi_offset 4, -16
 938              		.cfi_offset 5, -12
 939              		.cfi_offset 6, -8
 940              		.cfi_offset 14, -4
 941 0002 0446     		mov	r4, r0
 942 0004 0D46     		mov	r5, r1
 198:Generated_Source\PSoC5/spi_oled_IntClock.c ****     uint16 oldDivider = spi_oled_IntClock_GetDividerRegister();
 943              		.loc 1 198 0
 944 0006 FFF7FEFF 		bl	spi_oled_IntClock_GetSourceRegister
 945              	.LVL8:
 946 000a 0646     		mov	r6, r0
 947              	.LVL9:
 199:Generated_Source\PSoC5/spi_oled_IntClock.c **** 
 948              		.loc 1 199 0
 949 000c FFF7FEFF 		bl	spi_oled_IntClock_GetDividerRegister
 950              	.LVL10:
 201:Generated_Source\PSoC5/spi_oled_IntClock.c ****     {
 951              		.loc 1 201 0
 952 0010 A042     		cmp	r0, r4
 953 0012 57D0     		beq	.L32
 203:Generated_Source\PSoC5/spi_oled_IntClock.c **** 
 954              		.loc 1 203 0
 955 0014 2C4B     		ldr	r3, .L45
 956 0016 1B78     		ldrb	r3, [r3]	@ zero_extendqisi2
 957 0018 03F00203 		and	r3, r3, #2
 958 001c DAB2     		uxtb	r2, r3
 959              	.LVL11:
 205:Generated_Source\PSoC5/spi_oled_IntClock.c ****         {
 960              		.loc 1 205 0
 961 001e 96B9     		cbnz	r6, .L34
 205:Generated_Source\PSoC5/spi_oled_IntClock.c ****         {
 962              		.loc 1 205 0 is_stmt 0 discriminator 1
 963 0020 00B1     		cbz	r0, .L35
 205:Generated_Source\PSoC5/spi_oled_IntClock.c ****         {
 964              		.loc 1 205 0 discriminator 2
 965 0022 84B9     		cbnz	r4, .L34
 966              	.L35:
 208:Generated_Source\PSoC5/spi_oled_IntClock.c ****             {
 967              		.loc 1 208 0 is_stmt 1
 968 0024 38B9     		cbnz	r0, .L36
 213:Generated_Source\PSoC5/spi_oled_IntClock.c ****                 spi_oled_IntClock_MOD_SRC &= (uint8)(~CYCLK_SSS);
 969              		.loc 1 213 0
ARM GAS  C:\Users\info\AppData\Local\Temp\ccwzFIpi.s 			page 58


 970 0026 294B     		ldr	r3, .L45+4
 971 0028 1C80     		strh	r4, [r3]	@ movhi
 214:Generated_Source\PSoC5/spi_oled_IntClock.c ****             }
 972              		.loc 1 214 0
 973 002a 294A     		ldr	r2, .L45+8
 974              	.LVL12:
 975 002c 1378     		ldrb	r3, [r2]	@ zero_extendqisi2
 976 002e 03F0BF03 		and	r3, r3, #191
 977 0032 1370     		strb	r3, [r2]
 978 0034 70BD     		pop	{r4, r5, r6, pc}
 979              	.LVL13:
 980              	.L36:
 220:Generated_Source\PSoC5/spi_oled_IntClock.c ****                 CY_SET_REG16(spi_oled_IntClock_DIV_PTR, clkDivider);
 981              		.loc 1 220 0
 982 0036 264A     		ldr	r2, .L45+8
 983              	.LVL14:
 984 0038 1378     		ldrb	r3, [r2]	@ zero_extendqisi2
 985              	.LVL15:
 986 003a 43F04003 		orr	r3, r3, #64
 987 003e 1370     		strb	r3, [r2]
 221:Generated_Source\PSoC5/spi_oled_IntClock.c ****             }
 988              		.loc 1 221 0
 989 0040 224B     		ldr	r3, .L45+4
 990 0042 1C80     		strh	r4, [r3]	@ movhi
 991 0044 70BD     		pop	{r4, r5, r6, pc}
 992              	.LVL16:
 993              	.L34:
 227:Generated_Source\PSoC5/spi_oled_IntClock.c ****             {
 994              		.loc 1 227 0
 995 0046 22B3     		cbz	r2, .L37
 229:Generated_Source\PSoC5/spi_oled_IntClock.c **** 
 996              		.loc 1 229 0
 997 0048 0023     		movs	r3, #0
 998 004a 2249     		ldr	r1, .L45+12
 999 004c 0B70     		strb	r3, [r1]
 236:Generated_Source\PSoC5/spi_oled_IntClock.c ****                 CLK_DIST_AMASK = 0x00u;
 1000              		.loc 1 236 0
 1001 004e 0226     		movs	r6, #2
 1002              	.LVL17:
 1003 0050 0F31     		adds	r1, r1, #15
 1004 0052 0E70     		strb	r6, [r1]
 237:Generated_Source\PSoC5/spi_oled_IntClock.c **** #endif /* spi_oled_IntClock__CFG3 */
 1005              		.loc 1 237 0
 1006 0054 0431     		adds	r1, r1, #4
 1007 0056 0B70     		strb	r3, [r1]
 240:Generated_Source\PSoC5/spi_oled_IntClock.c **** 
 1008              		.loc 1 240 0
 1009 0058 0C39     		subs	r1, r1, #12
 1010 005a 0B78     		ldrb	r3, [r1]	@ zero_extendqisi2
 1011 005c 03F07F03 		and	r3, r3, #127
 1012 0060 0B70     		strb	r3, [r1]
 243:Generated_Source\PSoC5/spi_oled_IntClock.c ****                 {
 1013              		.loc 1 243 0
 1014 0062 1B4B     		ldr	r3, .L45+8
 1015 0064 1B78     		ldrb	r3, [r3]	@ zero_extendqisi2
 1016 0066 13F0080F 		tst	r3, #8
 1017 006a 00D0     		beq	.L38
ARM GAS  C:\Users\info\AppData\Local\Temp\ccwzFIpi.s 			page 59


 243:Generated_Source\PSoC5/spi_oled_IntClock.c ****                 {
 1018              		.loc 1 243 0 is_stmt 0 discriminator 1
 1019 006c 8CB9     		cbnz	r4, .L37
 1020              	.L38:
 246:Generated_Source\PSoC5/spi_oled_IntClock.c ****                     CLK_DIST_LD = CYCLK_LD_DISABLE|CYCLK_LD_SYNC_EN|CYCLK_LD_LOAD;
 1021              		.loc 1 246 0 is_stmt 1
 1022 006e 1A4B     		ldr	r3, .L45+16
 1023 0070 1880     		strh	r0, [r3]	@ movhi
 247:Generated_Source\PSoC5/spi_oled_IntClock.c **** 
 1024              		.loc 1 247 0
 1025 0072 0721     		movs	r1, #7
 1026 0074 013B     		subs	r3, r3, #1
 1027 0076 1970     		strb	r1, [r3]
 1028              	.L39:
 250:Generated_Source\PSoC5/spi_oled_IntClock.c **** #endif /* HAS_CLKDIST_LD_DISABLE */
 1029              		.loc 1 250 0 discriminator 1
 1030 0078 164B     		ldr	r3, .L45+12
 1031 007a 1B78     		ldrb	r3, [r3]	@ zero_extendqisi2
 1032 007c 13F0010F 		tst	r3, #1
 1033 0080 FAD1     		bne	.L39
 253:Generated_Source\PSoC5/spi_oled_IntClock.c **** 
 1034              		.loc 1 253 0
 1035 0082 1149     		ldr	r1, .L45
 1036 0084 0B78     		ldrb	r3, [r1]	@ zero_extendqisi2
 1037 0086 03F0FD03 		and	r3, r3, #253
 1038 008a 0B70     		strb	r3, [r1]
 257:Generated_Source\PSoC5/spi_oled_IntClock.c **** #endif /* HAS_CLKDIST_LD_DISABLE */
 1039              		.loc 1 257 0
 1040 008c 0021     		movs	r1, #0
 1041 008e 114B     		ldr	r3, .L45+12
 1042 0090 1970     		strb	r1, [r3]
 1043              	.L37:
 263:Generated_Source\PSoC5/spi_oled_IntClock.c ****             {
 1044              		.loc 1 263 0
 1045 0092 0D4B     		ldr	r3, .L45
 1046 0094 1B78     		ldrb	r3, [r3]	@ zero_extendqisi2
 1047 0096 13F0020F 		tst	r3, #2
 1048 009a 0DD0     		beq	.L40
 266:Generated_Source\PSoC5/spi_oled_IntClock.c **** 
 1049              		.loc 1 266 0
 1050 009c 0E4B     		ldr	r3, .L45+16
 1051 009e 1C80     		strh	r4, [r3]	@ movhi
 268:Generated_Source\PSoC5/spi_oled_IntClock.c ****                 while ((CLK_DIST_LD & CYCLK_LD_LOAD) != 0u) { }
 1052              		.loc 1 268 0
 1053 00a0 0DB1     		cbz	r5, .L43
 1054 00a2 0322     		movs	r2, #3
 1055              	.LVL18:
 1056 00a4 00E0     		b	.L41
 1057              	.LVL19:
 1058              	.L43:
 1059 00a6 0122     		movs	r2, #1
 1060              	.LVL20:
 1061              	.L41:
 268:Generated_Source\PSoC5/spi_oled_IntClock.c ****                 while ((CLK_DIST_LD & CYCLK_LD_LOAD) != 0u) { }
 1062              		.loc 1 268 0 is_stmt 0 discriminator 4
 1063 00a8 0A4B     		ldr	r3, .L45+12
 1064 00aa 1A70     		strb	r2, [r3]
ARM GAS  C:\Users\info\AppData\Local\Temp\ccwzFIpi.s 			page 60


 1065              	.L42:
 269:Generated_Source\PSoC5/spi_oled_IntClock.c ****             }
 1066              		.loc 1 269 0 is_stmt 1 discriminator 1
 1067 00ac 094B     		ldr	r3, .L45+12
 1068 00ae 1B78     		ldrb	r3, [r3]	@ zero_extendqisi2
 1069 00b0 13F0010F 		tst	r3, #1
 1070 00b4 FAD1     		bne	.L42
 1071 00b6 70BD     		pop	{r4, r5, r6, pc}
 1072              	.LVL21:
 1073              	.L40:
 274:Generated_Source\PSoC5/spi_oled_IntClock.c **** 				spi_oled_IntClock_CLKEN |= enabled;
 1074              		.loc 1 274 0
 1075 00b8 044B     		ldr	r3, .L45+4
 1076 00ba 1C80     		strh	r4, [r3]	@ movhi
 275:Generated_Source\PSoC5/spi_oled_IntClock.c ****             }
 1077              		.loc 1 275 0
 1078 00bc 0249     		ldr	r1, .L45
 1079 00be 0B78     		ldrb	r3, [r1]	@ zero_extendqisi2
 1080 00c0 1343     		orrs	r3, r3, r2
 1081 00c2 0B70     		strb	r3, [r1]
 1082              	.LVL22:
 1083              	.L32:
 1084 00c4 70BD     		pop	{r4, r5, r6, pc}
 1085              	.L46:
 1086 00c6 00BF     		.align	2
 1087              	.L45:
 1088 00c8 A2430040 		.word	1073759138
 1089 00cc 84400040 		.word	1073758340
 1090 00d0 86400040 		.word	1073758342
 1091 00d4 01400040 		.word	1073758209
 1092 00d8 02400040 		.word	1073758210
 1093              		.cfi_endproc
 1094              	.LFE4:
 1095              		.size	spi_oled_IntClock_SetDividerRegister, .-spi_oled_IntClock_SetDividerRegister
 1096              		.section	.text.spi_oled_IntClock_SetSourceRegister,"ax",%progbits
 1097              		.align	2
 1098              		.global	spi_oled_IntClock_SetSourceRegister
 1099              		.thumb
 1100              		.thumb_func
 1101              		.type	spi_oled_IntClock_SetSourceRegister, %function
 1102              	spi_oled_IntClock_SetSourceRegister:
 1103              	.LFB9:
 420:Generated_Source\PSoC5/spi_oled_IntClock.c ****     uint16 currDiv = spi_oled_IntClock_GetDividerRegister();
 1104              		.loc 1 420 0
 1105              		.cfi_startproc
 1106              		@ args = 0, pretend = 0, frame = 0
 1107              		@ frame_needed = 0, uses_anonymous_args = 0
 1108              	.LVL23:
 1109 0000 38B5     		push	{r3, r4, r5, lr}
 1110              		.cfi_def_cfa_offset 16
 1111              		.cfi_offset 3, -16
 1112              		.cfi_offset 4, -12
 1113              		.cfi_offset 5, -8
 1114              		.cfi_offset 14, -4
 1115 0002 0446     		mov	r4, r0
 421:Generated_Source\PSoC5/spi_oled_IntClock.c ****     uint8 oldSrc = spi_oled_IntClock_GetSourceRegister();
 1116              		.loc 1 421 0
ARM GAS  C:\Users\info\AppData\Local\Temp\ccwzFIpi.s 			page 61


 1117 0004 FFF7FEFF 		bl	spi_oled_IntClock_GetDividerRegister
 1118              	.LVL24:
 1119 0008 0546     		mov	r5, r0
 1120              	.LVL25:
 422:Generated_Source\PSoC5/spi_oled_IntClock.c **** 
 1121              		.loc 1 422 0
 1122 000a FFF7FEFF 		bl	spi_oled_IntClock_GetSourceRegister
 1123              	.LVL26:
 424:Generated_Source\PSoC5/spi_oled_IntClock.c ****         (clkSource == ((uint8)CYCLK_SRC_SEL_CLK_SYNC_D))) && (currDiv == 0u))
 1124              		.loc 1 424 0
 1125 000e 0346     		mov	r3, r0
 1126 0010 60B1     		cbz	r0, .L48
 424:Generated_Source\PSoC5/spi_oled_IntClock.c ****         (clkSource == ((uint8)CYCLK_SRC_SEL_CLK_SYNC_D))) && (currDiv == 0u))
 1127              		.loc 1 424 0 is_stmt 0 discriminator 1
 1128 0012 5CB9     		cbnz	r4, .L48
 425:Generated_Source\PSoC5/spi_oled_IntClock.c ****     {
 1129              		.loc 1 425 0 is_stmt 1
 1130 0014 55B9     		cbnz	r5, .L48
 429:Generated_Source\PSoC5/spi_oled_IntClock.c ****         spi_oled_IntClock_MOD_SRC =
 1131              		.loc 1 429 0
 1132 0016 104A     		ldr	r2, .L52
 1133 0018 1378     		ldrb	r3, [r2]	@ zero_extendqisi2
 1134 001a 43F04003 		orr	r3, r3, #64
 1135 001e 1370     		strb	r3, [r2]
 431:Generated_Source\PSoC5/spi_oled_IntClock.c ****     }
 1136              		.loc 1 431 0
 1137 0020 1378     		ldrb	r3, [r2]	@ zero_extendqisi2
 430:Generated_Source\PSoC5/spi_oled_IntClock.c ****             (spi_oled_IntClock_MOD_SRC & (uint8)(~spi_oled_IntClock_SRC_SEL_MSK)) | clkSource;
 1138              		.loc 1 430 0
 1139 0022 03F0F803 		and	r3, r3, #248
 1140 0026 1C43     		orrs	r4, r4, r3
 1141 0028 1470     		strb	r4, [r2]
 1142 002a 38BD     		pop	{r3, r4, r5, pc}
 1143              	.LVL27:
 1144              	.L48:
 433:Generated_Source\PSoC5/spi_oled_IntClock.c ****             (clkSource != ((uint8)CYCLK_SRC_SEL_CLK_SYNC_D))) && (currDiv == 0u))
 1145              		.loc 1 433 0
 1146 002c 63B9     		cbnz	r3, .L50
 433:Generated_Source\PSoC5/spi_oled_IntClock.c ****             (clkSource != ((uint8)CYCLK_SRC_SEL_CLK_SYNC_D))) && (currDiv == 0u))
 1147              		.loc 1 433 0 is_stmt 0 discriminator 1
 1148 002e 5CB1     		cbz	r4, .L50
 434:Generated_Source\PSoC5/spi_oled_IntClock.c ****     {
 1149              		.loc 1 434 0 is_stmt 1
 1150 0030 55B9     		cbnz	r5, .L50
 439:Generated_Source\PSoC5/spi_oled_IntClock.c ****         spi_oled_IntClock_MOD_SRC &= (uint8)(~CYCLK_SSS);
 1151              		.loc 1 439 0
 1152 0032 094A     		ldr	r2, .L52
 1153 0034 1378     		ldrb	r3, [r2]	@ zero_extendqisi2
 438:Generated_Source\PSoC5/spi_oled_IntClock.c ****             (spi_oled_IntClock_MOD_SRC & (uint8)(~spi_oled_IntClock_SRC_SEL_MSK)) | clkSource;
 1154              		.loc 1 438 0
 1155 0036 03F0F803 		and	r3, r3, #248
 1156 003a 1C43     		orrs	r4, r4, r3
 1157 003c 1470     		strb	r4, [r2]
 440:Generated_Source\PSoC5/spi_oled_IntClock.c ****     }
 1158              		.loc 1 440 0
 1159 003e 1378     		ldrb	r3, [r2]	@ zero_extendqisi2
 1160 0040 03F0BF03 		and	r3, r3, #191
ARM GAS  C:\Users\info\AppData\Local\Temp\ccwzFIpi.s 			page 62


 1161 0044 1370     		strb	r3, [r2]
 1162 0046 38BD     		pop	{r3, r4, r5, pc}
 1163              	.LVL28:
 1164              	.L50:
 445:Generated_Source\PSoC5/spi_oled_IntClock.c ****     }
 1165              		.loc 1 445 0
 1166 0048 034A     		ldr	r2, .L52
 1167 004a 1378     		ldrb	r3, [r2]	@ zero_extendqisi2
 444:Generated_Source\PSoC5/spi_oled_IntClock.c ****             (spi_oled_IntClock_MOD_SRC & (uint8)(~spi_oled_IntClock_SRC_SEL_MSK)) | clkSource;
 1168              		.loc 1 444 0
 1169 004c 03F0F803 		and	r3, r3, #248
 1170 0050 1C43     		orrs	r4, r4, r3
 1171 0052 1470     		strb	r4, [r2]
 1172 0054 38BD     		pop	{r3, r4, r5, pc}
 1173              	.LVL29:
 1174              	.L53:
 1175 0056 00BF     		.align	2
 1176              	.L52:
 1177 0058 86400040 		.word	1073758342
 1178              		.cfi_endproc
 1179              	.LFE9:
 1180              		.size	spi_oled_IntClock_SetSourceRegister, .-spi_oled_IntClock_SetSourceRegister
 1181              		.text
 1182              	.Letext0:
 1183              		.file 2 "Generated_Source\\PSoC5/cytypes.h"