ARM GAS  C:\Users\info\AppData\Local\Temp\ccplHCqN.s 			page 1


   1              		.syntax unified
   2              		.cpu cortex-m3
   3              		.fpu softvfp
   4              		.eabi_attribute 20, 1
   5              		.eabi_attribute 21, 1
   6              		.eabi_attribute 23, 3
   7              		.eabi_attribute 24, 1
   8              		.eabi_attribute 25, 1
   9              		.eabi_attribute 26, 1
  10              		.eabi_attribute 30, 1
  11              		.eabi_attribute 34, 1
  12              		.eabi_attribute 18, 4
  13              		.thumb
  14              		.syntax unified
  15              		.file	"u8g2_intersection.c"
  16              		.text
  17              	.Ltext0:
  18              		.section	.gnu.lto_.profile.792bbdcf,"",%progbits
  19 0000 789C6361 		.ascii	"x\234ca`d`a`\000\222Fr\000\000\354\000["
  19      60646061 
  19      60009246 
  19      720000EC 
  19      005B
  20              		.text
  21              		.section	.gnu.lto_.inline.792bbdcf,"",%progbits
  22 0000 789C6361 		.ascii	"x\234ca`d\000\001'\006\004`b`\340egd`\0229\021\310\300"
  22      60640001 
  22      27060460 
  22      6260E065 
  22      67646012 
  23 0018 B6409E09 		.ascii	"\266@\236\011$\306\310 *\017\024\342\330b\301\300\265"
  23      24C6C820 
  23      2A0F14E2 
  23      D862C1C0 
  23      B5
  24 0029 C5022CC4 		.ascii	"\305\002,\304\306\317\300\3002\301\017\002Q8\014\000"
  24      C6CFC0C0 
  24      32C10F02 
  24      51380C00 
  25 0039 2E710B9B 		.ascii	".q\013\233"
  26              		.text
  27              		.section	.gnu.lto_.jmpfuncs.792bbdcf,"",%progbits
  28 0000 789C6361 		.ascii	"x\234ca`d\000\001.\006\004`\002b\210(\000\001\250\000"
  28      60640001 
  28      2E060460 
  28      02628828 
  28      0001A800 
  29 0014 13       		.ascii	"\023"
  30              		.text
  31              		.section	.gnu.lto_.pureconst.792bbdcf,"",%progbits
  32 0000 789C6361 		.ascii	"x\234ca`d`e```b``d\005\000\000\212\000\023"
  32      60646065 
  32      60606062 
  32      60606405 
  32      00008A00 
  33              		.text
  34              		.section	.gnu.lto_u8g2_is_intersection_decision_tree.792bbdcf,"",%progbits
ARM GAS  C:\Users\info\AppData\Local\Temp\ccplHCqN.s 			page 2


  35 0000 789C6592 		.ascii	"x\234e\222\313kSQ\020\306g\346\334W\036>v\026\011\242"
  35      CB6B5351 
  35      10C667E6 
  35      DC571E3E 
  35      761609A2 
  36 0014 205C2A34 		.ascii	" \\*4Mu\343\237\340Z\0217\212\226X\244\233\012i-\305"
  36      4D75E39F 
  36      E05A1137 
  36      8A9658A4 
  36      9B0A692D 
  37 0029 4D8FB98D 		.ascii	"M\217\271\215\026,T\244\321\205n\\h\352\2531b\021\301"
  37      162C54A4 
  37      D1856E5C 
  37      68EAAB31 
  37      6211C1
  38 003c 452BB60A 		.ascii	"E+\266\012\221\224BE\027]\370@\204\242\320\224\224 "
  38      91944245 
  38      175DF840 
  38      84A2D094 
  38      9420
  39 004e 6AE3CCC9 		.ascii	"j\343\314\311\303E\016\334;\347\234o~\337\2349\367Z"
  39      C3450EDC 
  39      3BE79C6F 
  39      7EDF9C39 
  39      F75A
  40 0060 80202345 		.ascii	"\200 #E\000\335\034/\362\203a@\272V\002\270\344\021"
  40      00DD1C2F 
  40      F2836140 
  40      BA5602B8 
  40      E411
  41 0072 A9711F74 		.ascii	"\251q\037t\330\221wTQ\350\345\036^Y+\335\274\262(d4"
  41      D8917754 
  41      51E8E51E 
  41      5E592BDD 
  41      BCB22864 
  42 0087 DB683686 		.ascii	"\333h6\206\352\210C\256\310a\223\032u\033\210g\020\257"
  42      EA8843AE 
  42      C861931A 
  42      751B8867 
  42      10AF
  43 0099 99144294 		.ascii	"\231\024B\224\211\366\020FIY\266\343\362\326(n\322_"
  43      89F61046 
  43      4959B6E3 
  43      F2D6286E 
  43      D25F
  44 00ab C262F5ED 		.ascii	"\302b\365\355D\2703\247uZ\177\372\266u\244\234\316t"
  44      44B833A7 
  44      755A7FFA 
  44      B675A49C 
  44      CE74
  45 00bd 6414408D 		.ascii	"d\024@\215\000\017\3050\021\223\023\346\260\2233\027"
  45      000FC530 
  45      119313E6 
  45      B0933317 
  46 00cd 6FDE5B70 		.ascii	"o\336[p\325~\004\236W*\323g\374\273\002\351\362)\255"
  46      D57E049E 
  46      572AD367 
ARM GAS  C:\Users\info\AppData\Local\Temp\ccplHCqN.s 			page 3


  46      FCBB02E9 
  46      F229AD
  47 00e0 320A711A 		.ascii	"2\012q\032\325\177\2107\000\357\243\317\251\357\177"
  47      D57F8837 
  47      00EFA3CF 
  47      A9EF7F
  48 00ef BE28EE50 		.ascii	"\276(\356P\276\301V/\317\026\242\015\256\260\030\321"
  48      BEC1562F 
  48      CF16A20D 
  48      AEB018D1 
  49 00ff 09011FB4 		.ascii	"\011\001\037\264\201\017\015\270P\272U\214\252\003\006"
  49      810F0DB8 
  49      50BA558C 
  49      AA0306
  50 010e FCFD7D69 		.ascii	"\374\375}i\303i\026l\202\217\332\300\307\006\314}\235"
  50      C369166C 
  50      828FDAC0 
  50      C706CC7D 
  50      9D
  51 011f B84AAACB 		.ascii	"\270J\252\313\200\325\231;\363V\263\342\233\0068\323"
  51      80D5993B 
  51      F356B3E2 
  51      9B0638D3 
  52 012f 06E6D197 		.ascii	"\006\346\321\227\354/\205\255\3546gL\363\330+W\300\275"
  52      EC2F85AD 
  52      EC36674C 
  52      F3D82B57 
  52      C0BD
  53 0141 3F4147BE 		.ascii	"?AG\276Y\376\350\234\256\325\002=\367\313\235\277\036"
  53      59FEE89C 
  53      AED5023D 
  53      F7CB9DBF 
  53      1E
  54 0152 71913120 		.ascii	"q\2211 \224\202\354\307\347\265P<l\224\246\001\326\031"
  54      9482ECC7 
  54      E7B5503C 
  54      6C94A601 
  54      D619
  55 0164 951B2F13 		.ascii	"\225\033/\023IT\237q\254\024T'\035q\013\024\005J\231"
  55      49549F71 
  55      AC145427 
  55      1D710B14 
  55      054A99
  56 0177 DFA04C0A 		.ascii	"\337\240L\012\306}Q?\006\265\311\216\272j\005\312n\250"
  56      C67D513F 
  56      06B5C98E 
  56      BA6A05CA 
  56      6EA8
  57 0189 16ACEDAA 		.ascii	"\026\254\355\252\253\317\247v\267X\313\250\353d\303"
  57      ABCFA776 
  57      B758CBA8 
  57      EB64C3
  58 0198 664495C9 		.ascii	"fD\225\311iY\344\262\355\026n\313\"\237m\267\360\340"
  58      6959E4B2 
  58      ED166ECB 
  58      229F6DB7 
  58      F0E0
ARM GAS  C:\Users\info\AppData\Local\Temp\ccplHCqN.s 			page 4


  59 01aa F576B608 		.ascii	"\365v\266\010\231C\256az'\004J\272\335@\344\333\230"
  59      9943AE61 
  59      7A27044A 
  59      BADD40E4 
  59      DB98
  60 01bc BDF2AE10 		.ascii	"\275\362\256\020\256\020w\212\210\005\214\251\333\313"
  60      AE10778A 
  60      88058CA9 
  60      DBCB
  61 01ca 2312AD3F 		.ascii	"#\022\255?\313gY\276\221y\265\344\326e\300\247\030\263"
  61      CB6759BE 
  61      9179B5E4 
  61      D665C0A7 
  61      18B3
  62 01dc 9F1D13D5 		.ascii	"\237\035\023\325]9.+o\352\204\004\347\307\207\021.\204"
  62      5D392E2B 
  62      6FEA8404 
  62      E7C78711 
  62      2E84
  63 01ee 52812F65 		.ascii	"R\201/e_<~\362\302\341s\007O'\007S\311\372\254\177`"
  63      5F3C7EF2 
  63      C2E17307 
  63      4F270753 
  63      C9FAAC7F 
  64 0203 A82F35D8 		.ascii	"\250/5\330\227\034\352??\020O\002\365&\250\267\207\206"
  64      971CEA3F 
  64      3F104F02 
  64      F526A8B7 
  64      8786
  65 0215 1334DCF3 		.ascii	"\0234\334\363\017\036\303\341e"
  65      0F1EC3E1 
  65      65
  66              		.text
  67              		.section	.gnu.lto_u8g2_IsIntersection.792bbdcf,"",%progbits
  68 0000 789C8554 		.ascii	"x\234\205T[KTQ\024^\337\336\347\314}\314\307\210!\014"
  68      5B4B5451 
  68      145EDFDE 
  68      E7CC7DCC 
  68      C788210C 
  69 0014 0211C219 		.ascii	"\002\021\302\031\255\240\277\320k\317E\017\203\224/"
  69      ADA0BFD0 
  69      6BCF450F 
  69      83942F
  70 0023 166AA0F4 		.ascii	"\026j\240\3640{f<\340C\220>\024d\326\200`\226\345e4"
  70      307B663C 
  70      E043903E 
  70      1464D680 
  70      6096E565 
  71 0038 D3314B0D 		.ascii	"\3231K\015R)\354BB\320<\330\015\213p\300\351\202D\350"
  71      5229EC42 
  71      42D03CD8 
  71      0D8B70C0 
  71      E98244E8 
  72 004c B4D73963 		.ascii	"\264\3279c\231R\0358\373\354\275\366\372\276\365\255"
  72      99521D38 
  72      FBECBDF6 
  72      FABEF5AD 
ARM GAS  C:\Users\info\AppData\Local\Temp\ccplHCqN.s 			page 5


  73 005c 6F0D6310 		.ascii	"o\015c\020\210\037\277At\200\234\027&A\264=!\212{\204"
  73      881FBF41 
  73      74809C17 
  73      2641B43D 
  73      218A7B84 
  74 0070 30267693 		.ascii	"0&v\223\362\311\2050\251\200\204\341\204\015\2007\312"
  74      F2C98530 
  74      A98084E1 
  74      840D8037 
  74      CA
  75 0081 038A0969 		.ascii	"\003\212\011i \206obM\340\361\352\3349_E\217R\011\365"
  75      20866F62 
  75      4DE0F1EA 
  75      DC395F45 
  75      8F5209F5 
  76 0095 FAE1F0E1 		.ascii	"\372\341\360\341|\302\332iI\242\202 \354\017!\022b\356"
  76      7CC2DA69 
  76      49A28220 
  76      EC0F2112 
  76      62EE
  77 00a7 1E54E8CC 		.ascii	"\036T\350\314\347-\203\235\362\253\260$`\350c~\276\343"
  77      E72D839D 
  77      F2ABB024 
  77      60E8637E 
  77      BEE3
  78 00b9 5D091F05 		.ascii	"]\011\037\005\312\3641>\363!\276C\356\005\351\375\310"
  78      CAF4313E 
  78      F321BE43 
  78      EE05E9FD 
  78      C8
  79 00ca CCC8D592 		.ascii	"\314\310\325\222\362n\346T\227k\224\327\222\022\275"
  79      F26EE654 
  79      976B94D7 
  79      9212BD
  80 00d9 90CC7903 		.ascii	"\220\314y\003!\\G\210t\210p\023\345:;\267\370\262\313"
  80      215C4788 
  80      74887013 
  80      E53A3BB7 
  80      F8B2CB
  81 00ec 94153632 		.ascii	"\224\02562{\376\331\222,\"\027\217)ii\241\267\034\244"
  81      7BFED992 
  81      2C22178F 
  81      296969A1 
  81      B71CA4
  82 00ff A3460708 		.ascii	"\243F\007\010}6n)\225\0362\345>\033\227\273\3269\350"
  82      7D366E29 
  82      951E32E5 
  82      3E1B97BB 
  82      D639E8
  83 0112 2DE25233 		.ascii	"-\342R3~\025a`\3776\340\200\015\\\354h\237\367\311\260"
  83      7E156160 
  83      FF36E080 
  83      0D5CEC68 
  83      9FF7C9B0 
  84 0126 2375F8D2 		.ascii	"#u\370\322\312\257\202\033\300\301m\300\264\015\234"
  84      CAAF821B 
  84      C0C16DC0 
ARM GAS  C:\Users\info\AppData\Local\Temp\ccplHCqN.s 			page 6


  84      B40D9C
  85 0135 6BCB9D95 		.ascii	"k\313\235\225\3256\356\307\227\321^l\024\234-\342\206"
  85      D536EEC7 
  85      97D15E6C 
  85      149C2DE2 
  85      86
  86 0146 B6E18651 		.ascii	"\266\341\206Q\316\331o\323\353\027\202\256\026\245\237"
  86      CED96FD3 
  86      EB1782AE 
  86      16A59F
  87 0155 32B6567B 		.ascii	"2\266V{z\033.\236\342\300\221)U($\325T\312?=\346/\201"
  87      7A1B2E9E 
  87      E2C09129 
  87      552824D5 
  87      54CA3F3D 
  88 016c 86913658 		.ascii	"\206\2216X;c\350\255i\362\342\002\013w\203\331<\034"
  88      3B63E8AD 
  88      69F2E202 
  88      0B7783D9 
  88      3C1C
  89 017e F0F2E2E3 		.ascii	"\360\362\342\343\305\0176#\000\026\030d,\321\212\246"
  89      C50F3623 
  89      00161864 
  89      2CD18AA6 
  90 018e E741E785 		.ascii	"\347A\347\205\340\257\\Bb<\275\234\220\\1)yr\027\255"
  90      E0AF5C42 
  90      623CBD9C 
  90      905C3129 
  90      797217AD 
  91 01a2 074FDD3C 		.ascii	"\007O\335<9i\267\262:\373\2505\220\302\2258\313\233"
  91      3969B7B2 
  91      3AFBA835 
  91      90C29538 
  91      CB9B
  92 01b4 64053A4F 		.ascii	"d\005:ObDO\211\257\273\337'\372\335\341>\276TU\334\345"
  92      62444F89 
  92      AFBBDF27 
  92      FADDE13E 
  92      BE5455DC 
  93 01c9 1DA4B0CE 		.ascii	"\035\244\260\316=\020F\021&\346\207Cnne[\373?\333\230"
  93      3D104611 
  93      26E68743 
  93      6E6E655B 
  93      FB3FDB98 
  94 01dd CDC65620 		.ascii	"\315\306V \243\331>\302\355pytr&\263\234u\307\326T\253"
  94      A3D93EC2 
  94      ED707974 
  94      7226B39C 
  94      75C7D654 
  95 01f2 52A59674 		.ascii	"R\245\226t\0278\015\343\210\221\356CWK2\265\333\222"
  95      17380DE3 
  95      8891EE43 
  95      574B32B5 
  95      DB92
  96 0204 1E7A8396 		.ascii	"\036z\203\226W\311]\277\201\003\313\231\357A\356\320"
  96      57C95DBF 
  96      8103CB99 
ARM GAS  C:\Users\info\AppData\Local\Temp\ccplHCqN.s 			page 7


  96      EF41EED0 
  97 0214 04E12E97 		.ascii	"\004\341.\227&6D\322B\330\366#\237\353*\372\341\335"
  97      263644D2 
  97      42D8F623 
  97      9FEB2AFA 
  97      E1DD
  98 0226 2AF9C53F 		.ascii	"*\371\305?%\037d\311\023\266d{\212\367\3764\300\267"
  98      251F64C9 
  98      13B6647B 
  98      8AF7FE34 
  98      C0B7
  99 0238 95ADDDF5 		.ascii	"\225\255\335\365_\266\3736\033O\016\223\233\015\010"
  99      5FB6FB36 
  99      1B4F0E93 
  99      9B0D08
 100 0247 FECD8029 		.ascii	"\376\315\200)\333\000\257\256\226\224\376\244\014\260"
 100      DB00AFAE 
 100      9694FEA4 
 100      0CB0
 101 0255 01DC9D61 		.ascii	"\001\334\235a\217\373\023\022\245\372\232\015\375\014"
 101      8FFB1312 
 101      A5FA9A0D 
 101      FD0C
 102 0263 6C9EB6FE 		.ascii	"l\236\266\376\327\3004B\2423{Z\263\313\211\354I\375"
 102      D7C03442 
 102      A2337B5A 
 102      B3CB89EC 
 102      49FD
 103 0275 5B018374 		.ascii	"[\001\203t+{*+\217\2369t\242\372x\264\241>\352\354j"
 103      2B7B2A2B 
 103      8F9E3974 
 103      A2FA78B4 
 103      A13EEAEC 
 104 028a EB1A6BEA 		.ascii	"\353\032k\352\033j\242\215\265\247\352*\243dpP4EDsD"
 104      1B6AA28D 
 104      B5A7EA2A 
 104      A3647050 
 104      34454473 
 105 029f 345589E6 		.ascii	"4U\211\346\252\237g\002X\264"
 105      AA9F6702 
 105      58B4
 106              		.text
 107              		.section	.gnu.lto_.symbol_nodes.792bbdcf,"",%progbits
 108 0000 789C6361 		.ascii	"x\234ca`d0a\000\002&\206z\006\206\011\347\030@\324\252"
 108      60643061 
 108      00022686 
 108      7A068609 
 108      E71840D4 
 109 0015 0645A000 		.ascii	"\006E\240\000c=#\212\0003#\003\303\243\007\377\030\301"
 109      633D238A 
 109      00332303 
 109      C3A307FF 
 109      18C1
 110 0027 F4CA738C 		.ascii	"\364\312s\214\014\0004B\014\261"
 110      0C003442 
 110      0CB1
 111              		.text
ARM GAS  C:\Users\info\AppData\Local\Temp\ccplHCqN.s 			page 8


 112              		.section	.gnu.lto_.refs.792bbdcf,"",%progbits
 113 0000 789C6361 		.ascii	"x\234ca`\004B \000\000\0009\000\007"
 113      60044220 
 113      00000039 
 113      0007
 114              		.text
 115              		.section	.gnu.lto_.decls.792bbdcf,"",%progbits
 116 0000 789CCD5A 		.ascii	"x\234\315Z}P\224Iz\237wz\200a\030@\321U\2232wf\317\354"
 116      7D509449 
 116      7A9F777A 
 116      80611840 
 116      D1559332 
 117 0018 92AA9CAB 		.ascii	"\222\252\234\253\273\233\215\311?\311%U\311]\252\222"
 117      BB9B8DC9 
 117      3FC92555 
 117      C95DAA92 
 118 0028 FC91BAFB 		.ascii	"\374\221\272\373\313\252\3110\214J\016\201\232\031V"
 118      CBAAC930 
 118      8C4A0E81 
 118      9A1956
 119 0037 B8AAD40D 		.ascii	"\270\252\324\015\210\342\242\202 \240 *\202\202\037"
 119      88E2A282 
 119      20A0202A 
 119      82821F
 120 0046 A87C8A7C 		.ascii	"\250|\212|\011\213\212\250+\337\240.\237\242\002~\200"
 120      098B8AA8 
 120      2BDFA02E 
 120      9FA2027E 
 120      80
 121 0057 80BA8880 		.ascii	"\200\272\210\200\344\351~\336y\337\236\241\275\373#"
 121      E4E97EDE 
 121      79DF9EA1 
 121      BDFB23
 122 0066 B954A6EA 		.ascii	"\271T\246\352a\372\327\375{\273\237~\372\351\247\237"
 122      61FAD7FD 
 122      7BBB9F7E 
 122      FAE9A79F 
 123 0076 7E079D46 		.ascii	"~\007\235F\322\320\317\337~\246\321d\3535\232r(/\302"
 123      D2D0CFDF 
 123      7EA6D164 
 123      EB359A72 
 123      282FC2
 124 0089 87C0F7AF 		.ascii	"\207\300\367\2574\352G\013R\013\362\023\255f\311\247"
 124      34EA470B 
 124      520BF213 
 124      AD66C9A7 
 125 0099 566E2FD1 		.ascii	"Vn/\321\340\363\364#\311\365\236\037\372\274\257\314"
 125      E0F3F423 
 125      C9F59E1F 
 125      FABCAFCC 
 126 00a9 0D025909 		.ascii	"\015\002Y\0112)\341skA\246\240\274\03685P\326\201\314"
 126      3229E173 
 126      6B41A6A0 
 126      BC1E3835 
 126      50D681CC 
 127 00bd 00FE0164 		.ascii	"\000\376\001d\026\344\255\204\343\320>D}/h\245]\303"
 127      16E4AD84 
ARM GAS  C:\Users\info\AppData\Local\Temp\ccplHCqN.s 			page 9


 127      E3D03E44 
 127      7D2F68A5 
 127      5DC3
 128 00cf CF72F5BD 		.ascii	"\317r\365\275\322\003I\322H\354\243\221\347\247\241"
 128      D20349D2 
 128      48ECA391 
 128      E7A7A1
 129 00de 35F2372D 		.ascii	"5\3627-H\010\264.]%Ek\271\300\350\222F\313\370\022\327"
 129      4808B42E 
 129      5D25456B 
 129      B9C0E892 
 129      46CBF812 
 130 00f3 E0C663B6 		.ascii	"\340\306c\266b\037\265JR>.\246\344\336)\355U\205\200"
 130      621FB54A 
 130      523E2EA6 
 130      E4DE29ED 
 130      558580
 131 0106 B5EA035C 		.ascii	"\265\352\003\\\177\262\366\362\370\022?,\353\232\270"
 131      7FB2F6F2 
 131      F8123F2C 
 131      EB9AB8
 132 0115 265D3D7C 		.ascii	"&]=|=\333\227@\237P\036\234=\363\217\033\212\234\360"
 132      3DDB9740 
 132      9F501E9C 
 132      3DF38F1B 
 132      8A9CF0
 133 0128 39E8746A 		.ascii	"9\350tj\377E\265\314\245\335\217\317\352_k\245\265\006"
 133      FF45B5CC 
 133      A5DD8FCF 
 133      EA5F6BA5 
 133      B506
 134 013a 6951A2F8 		.ascii	"iQ\242\370E\325\254?b\332\\\336\360\352\202\216l\240"
 134      45D5AC3F 
 134      62DA5CDE 
 134      F0EA828E 
 134      6CA0
 135 014c 656D7BD9 		.ascii	"em{\331\203\033\276R\260\241\200v34\365\346g\273\234"
 135      831BBE52 
 135      B0A18076 
 135      3334F5E6 
 135      67BB9C
 136 015f 4E49BA28 		.ascii	"NI\272(\031\244\"\211Hg\245\015T\203\265\006\370\273"
 136      19A42289 
 136      4867A50D 
 136      5483B506 
 136      F8BB
 137 0171 D7E98C77 		.ascii	"\327\351\214wN\3469\275\327h\244/\326J\033\327j\244"
 137      4EE639BD 
 137      D768A42F 
 137      D64A1BD7 
 137      6AA4
 138 0183 0B5230ED 		.ascii	"\013R0\355\223\262\244\363\322Z\351\234\264\226\366"
 138      93B2A4F3 
 138      D25AE99C 
 138      B496F6
 139 0192 7FF6C499 		.ascii	"\177\366\304\231\353\376\244Fb\003\214\247?\337K\224"
 139      EBFEA446 
ARM GAS  C:\Users\info\AppData\Local\Temp\ccplHCqN.s 			page 10


 139      62038CA7 
 139      3FDF4B94 
 140 01a2 010E27AF 		.ascii	"\001\016'\257=\357t.\223J`\200K\352\0000\236x\204b\361"
 140      3DEF742E 
 140      934A6080 
 140      4BEA0030 
 140      9E788462 
 141 01b7 086F5AA6 		.ascii	"\010oZ\246\222\215\244\232\231A{c~\341\231V\031\341"
 141      928DA49A 
 141      99417B63 
 141      7EE19956 
 141      19E1
 142 01c9 586644DA 		.ascii	"XfD\332n0\207T\016C\224\252C\224|h\2102\361\020\213"
 142      6E308754 
 142      0E4394AA 
 142      43947C68 
 142      8832F110 
 143 01de 33631506 		.ascii	"3c\025\006\035\370\014\353(DG\353Z\346F\366y)u\025\022"
 143      1DF80CEB 
 143      284447EB 
 143      5AE646F6 
 143      79297515 
 144 01f3 AB2C38D6 		.ascii	"\253,8\3265\356\257T^\306\312\033\3573G\214Je%V\266"
 144      35EEAF54 
 144      5EC6CA1B 
 144      EF33478C 
 144      4A652556 
 145 0208 2714E710 		.ascii	"'\024\347\020X\206 \203\244\0038u7\373Q\000\300\225"
 145      58862083 
 145      A4033875 
 145      37FB5100 
 145      C095
 146 021a 06691DC0 		.ascii	"\006i\035\300\302\023\317\336\372\254\311d\313\271\313"
 146      C213CFDE 
 146      FAACC964 
 146      CBB9CB
 147 0229 B94EC76C 		.ascii	"\271N\307lT\015\012U\201B\032\251FZ\003\177\257H:\\"
 147      540D0A55 
 147      81421AA9 
 147      465A037F 
 147      AF483A5C 
 148 023d E2BE8E97 		.ascii	"\342\276\216\227]\201\037\347:'\213\235C3=\377\225\232"
 148      5D811FE7 
 148      3A278B9D 
 148      43333DFF 
 148      959A
 149 024f BFC77930 		.ascii	"\277\307y0\316\351\374;F\224\316\250\363\206\"\375*"
 149      CEE9FC3B 
 149      4694CEA8 
 149      F38622FD 
 149      2A
 150 0260 947AC1AF 		.ascii	"\224z\301\257j\245\217\341\331\374\236\302q\211,\240"
 150      6AA58FE1 
 150      D9FC9EC2 
 150      71892CA0 
 151 0270 13FDFE79 		.ascii	"\023\375\376y^\025\315\263^4\317\006\254<3\222\223l"
 151      5E15CDB3 
ARM GAS  C:\Users\info\AppData\Local\Temp\ccplHCqN.s 			page 11


 151      5E34CF06 
 151      AC3C3392 
 151      936C
 152 0282 C4896D06 		.ascii	"\304\211m\006xy\344V\223\001\247\355\244\336XSY\333"
 152      7879E456 
 152      9301A7ED 
 152      A4DE5853 
 152      59DB
 153 0294 E485CD1B 		.ascii	"\344\205\315\033\251GO\266\036\360#\251\204is\364U\377"
 153      A9474FB6 
 153      1EF023A9 
 153      846973F4 
 153      55FF
 154 02a6 535F6C0B 		.ascii	"S_l\013\006X?yr\2177\311\301\266\375\325%\027\374I1"
 154      06583F79 
 154      728F37C9 
 154      C1B6FDD5 
 154      2517FC49 
 155 02bb 8273F943 		.ascii	"\202s\371C\307)q5\2708\305\365\235C9\006\304\316\337"
 155      C7297135 
 155      B838C5F5 
 155      9D433906 
 155      C4CEDF
 156 02ce 02CE68C9 		.ascii	"\002\316h\311\351\322\223zF\326^\317n\214\367R\235|"
 156      E9D2937A 
 156      46D65ECF 
 156      6E8CF752 
 156      9D7C
 157 02e0 3C369E3A 		.ascii	"<6\236:\371]\320\370\216j\250\325\262\1778=\374\343"
 157      F95DD0F8 
 157      8E6AA8D5 
 157      B27F383D 
 157      FCE3
 158 02f2 3BF08FD5 		.ascii	";\360\217\325\262\177\334\206\345\270\205\376\321\331"
 158      B27FDC86 
 158      E5B885FE 
 158      D1D9
 159 0300 F7AE414F 		.ascii	"\367\256AO\232q\200\302[\357\256xK\206`\301\343m\202"
 159      9A7180C2 
 159      5BEFAE78 
 159      4B8660C1 
 159      E36D82
 160 0313 C75D7B61 		.ascii	"\307]{a\3259\272\027ZA\217\026U\217\273\314Qa\204\211"
 160      D539BA17 
 160      5A418F16 
 160      558FBBCC 
 160      51618489 
 161 0327 8427437E 		.ascii	"\204'C~h\2135\000w\267%]\364#\2558\375\216\311\357\216"
 161      688B3500 
 161      77B7255D 
 161      F423AD38 
 161      FD8EC9EF 
 162 033c C96DCB00 		.ascii	"\311m\313\000>\333;\370\300\217\014a[\363\265\376\177"
 162      3EDB3BF8 
 162      C08F0C61 
 162      5BF3B5FE 
 162      7F
ARM GAS  C:\Users\info\AppData\Local\Temp\ccplHCqN.s 			page 12


 163 034d 279358FE 		.ascii	"'\223X\376a\360\340\200\216\304\351\030\350\313K?\255"
 163      61F0E080 
 163      8EC4E918 
 163      E8CB4B3F 
 163      AD
 164 035e C38518E3 		.ascii	"\303\205\030\343\007\010\302\001\212k\023\306e\177l"
 164      0708C201 
 164      8A6B13C6 
 164      657F6C
 165 036d A0EB149F 		.ascii	"\240\353\024\237\325y\210\220<\235\333\200A8\340\215"
 165      D5798890 
 165      3C9DDB80 
 165      4138E08D 
 166 037d C5998640 		.ascii	"\305\231\206@\204Z\200\363\203\023wu\244\010\251\247"
 166      845A80F3 
 166      83137775 
 166      A408A9A7 
 167 038d DFCD4D52 		.ascii	"\337\315MR7\377\004\226f\221p\341\347\023\014?\365w"
 167      37FF0496 
 167      669170E1 
 167      E7130C3F 
 167      F577
 168 039f 6E1518C9 		.ascii	"n\025\030\311UF\326v4\036Y\360C\313\301\242\354r\032"
 168      5546D676 
 168      341E59F0 
 168      43CBC1A2 
 168      EC721A
 169 03b2 82355227 		.ascii	"\2025R'\230\251\017\314$\015\203\355>\221m7\010\225"
 169      98A90FCC 
 169      240D83ED 
 169      3E916D37 
 169      0895
 170 03c4 038AEDA6 		.ascii	"\003\212\355\246\306\377\231\005\252\207`\273!\325v"
 170      C6FF9905 
 170      AA8760BB 
 170      21D576
 171 03d3 9FC8A6BB 		.ascii	"\237\310\246\273\232\332;b \267p\210S\217\2345\272\017"
 171      9ADA3B62 
 171      20B77088 
 171      538F9C35 
 171      BA0F
 172 03e5 0DF1E483 		.ascii	"\015\361\344\203C\034N\376\244\210.\317c\030\342\221"
 172      431C4EFE 
 172      A4882ECF 
 172      6318E291 
 173 03f5 3AC443D7 		.ascii	":\304C\327\362<N\272t\303\237t\340\234\237\036\357\334"
 173      F23C4EBA 
 173      74C39F74 
 173      E09C9F1E 
 173      EFDC
 174 0407 1D401E23 		.ascii	"\035@\036#\310\256y}\333\013\215\243\007x\342a\326\242"
 174      C8AE797D 
 174      DB0B8DA3 
 174      0778E261 
 174      D6A2
 175 0419 0F99C2B6 		.ascii	"\017\231\302\266\224\311\343\351z\262\200 u6\253\331"
 175      94C9E3E9 
ARM GAS  C:\Users\info\AppData\Local\Temp\ccplHCqN.s 			page 13


 175      7AB28020 
 175      7536ABD9 
 176 0429 9B247A31 		.ascii	"\233$z1P}sW\201\0179\210 \256\356Z\231?\311B0\321\\"
 176      507D7357 
 176      810F3988 
 176      20AEEE5A 
 176      993FC942 
 177 0440 6A207958 		.ascii	"j yX\256\033=XCH)\202\374\323wft\344[\004\263\316\354"
 177      AE1B3D58 
 177      43482982 
 177      FCD37766 
 177      74E45B04 
 178 0457 A77AD281 		.ascii	"\247z\322\201\340E\345\313\303Z2\214\240\357\345\344"
 178      E045E5CB 
 178      C35A328C 
 178      A0EFE5E4 
 179 0467 9C2F9946 		.ascii	"\234/\231FP\237\327\363\336\227$z3\220\334r\356\226"
 179      509FD7F3 
 179      DE97247A 
 179      3390DC72 
 179      EE96
 180 0479 1F398AA0 		.ascii	"\0379\212\240\254\241\271\325@\012\020\234/xw\321@J"
 180      ACA1B9D5 
 180      400A109C 
 180      2F7877D1 
 180      404A
 181 048b 108C0E8E 		.ascii	"\020\214\016\216\316\007\222j\004\247\013\343\363\364"
 181      CE07926A 
 181      04A70BE3 
 181      F3F4
 182 0499 E43A82BC 		.ascii	"\344:\202\274\363\373\233\003H\017\003\253F\016\034"
 182      F3FB9B03 
 182      480F03AB 
 182      460E1C
 183 04a8 B8E42FAD 		.ascii	"\270\344/\255W?+\350\237`V\314\223\203\363\277\345?"
 183      573F2BE8 
 183      9F6056CC 
 183      9383F3BF 
 183      E53F
 184 04ba DAED2CFE 		.ascii	"\332\355,\376\017\346\364/\301\252{\264+\\;e\214\305"
 184      0FE6F42F 
 184      C1AA7BB4 
 184      2B5C3B65 
 184      8CC5
 185 04cc B92F6866 		.ascii	"\271/hf\220G\227\252\241\262\305\377\260\263!\216\260"
 185      904797AA 
 185      A1B2C5FF 
 185      B0B3218E 
 185      B0
 186 04dd 48382922 		.ascii	"H8)\"o\222\311NgC}\262L\246=O\210\310\235\222\332\365"
 186      6F92C94E 
 186      67437DB2 
 186      4CA63D4F 
 186      88C89D92 
 187 04f3 09BEEBD7 		.ascii	"\011\276\353\327\356\354\317(\271\232#\227\266\370Q"
 187      EEECCF28 
 187      B99A2397 
ARM GAS  C:\Users\info\AppData\Local\Temp\ccplHCqN.s 			page 14


 187      B6F851
 188 0502 9529755A 		.ascii	"\225)uZ@\275\316Q\027\223\003\2168\033\342\011\363\232"
 188      40BDCE51 
 188      1793038E 
 188      381BE209 
 188      F39A
 189 0514 77325971 		.ascii	"w2Yq\266^\311\215\017Z\367\266pZ?\023i\315\263\357\243"
 189      B65EC98D 
 189      0F5AF7B6 
 189      705A3F13 
 189      69CDB3EF 
 190 0529 2294FB5C 		.ascii	"\"\224\373\\\304m\342\270\235\274=^\210\330\374\024"
 190      C46DE2B8 
 190      9DBC3D5E 
 190      88D8FC14 
 191 0539 B3787BBC 		.ascii	"\263x{\274\021L\262\235\353\272\235\357z\\\3245\262"
 191      114CB29D 
 191      EBBA9DEF 
 191      7A5CD435 
 191      B2
 192 054a 53E5D4C4 		.ascii	"S\345\324\304\011\251\027\244ik\245\373\324\010\263"
 192      09A917A4 
 192      696BA5FB 
 192      D408B3
 193 0559 F203B09F 		.ascii	"\362\003\260\237\244}\332`i\277v\275\264\027\344\000"
 193      A47DDA60 
 193      69BF76BD 
 193      B417E400 
 194 0569 4802C87B 		.ascii	"H\002\310{i\275\224\004\337\213\360\235\014\337\363"
 194      69BD9404 
 194      DF8BF09D 
 194      0CDFF3
 195 0578 F03D07B2 		.ascii	"\360=\007\262\000\262\033\360.\220x\2208\220o@R@\022"
 195      00B21BF0 
 195      2E907890 
 195      38906F40 
 195      524012
 196 058b 410E8238 		.ascii	"A\016\2028\265\353Y\016\204\223z\303/\306\210x1x\247"
 196      B5EB590E 
 196      84937AC3 
 196      2FC68878 
 196      3178A7
 197 059e C8E08D30 		.ascii	"\310\340\2150#0\302\027\252\015\372\324\245x*\262@#"
 197      2330C217 
 197      AA0DFAD4 
 197      A5782AB2 
 197      4023
 198 05b0 D76FB1EA 		.ascii	"\327o\261\352?\257\004\275\342\252\261\240\323\260\260"
 198      3FAF04BD 
 198      E2AAB1A0 
 198      D3B0B0
 199 05bf CFE874EA 		.ascii	"\317\350t\352)E#\007\034u:\207x\365\336\012:\332\244"
 199      29452307 
 199      1C753A87 
 199      78F5DE0A 
 199      3ADAA4
 200 05d2 0E99A90E 		.ascii	"\016\231\251\016\371\203\200\311\317\272\\\245N\011"
ARM GAS  C:\Users\info\AppData\Local\Temp\ccplHCqN.s 			page 15


 200      F98380C9 
 200      CFBA5CA5 
 200      4E09
 201 05e0 A88DDCC2 		.ascii	"\250\215\334\302\017\250\223\036u\247\366J\036\012\314"
 201      0FA8931E 
 201      75A7F64A 
 201      1E0ACC
 202 05ef F0B6EF17 		.ascii	"\360\266\357\027\333\036\035\220\246s\316\234\333\204"
 202      DB1E1D90 
 202      A673CE9C 
 202      DB84
 203 05fd 8CB128A2 		.ascii	"\214\261(\242-\037\177\364\324KZ\021,\366\236C\3401"
 203      2D1F7FF4 
 203      D44B5A11 
 203      2CF69E43 
 203      E031
 204 060f 7F68EFC1 		.ascii	"\177h\357\301\245\310H\3713\272\024i0X\252V\011\377"
 204      A5C848F9 
 204      33BA1469 
 204      3058AA56 
 204      09FF
 205 0621 746598CE 		.ascii	"te\230\316\225\0173\352}1\310\337\327pY\316J9\313)\317"
 205      950F33EA 
 205      7D31C8DF 
 205      D77059CE 
 205      4A39CB29 
 206 0636 EDAAF721 		.ascii	"\355\252\367!\263\030&\253\234\211\251z\262\333\207"
 206      B31826AB 
 206      9C89A97A 
 206      B2DB87
 207 0645 81BBCF27 		.ascii	"\201\273\317'+\364$\031\301L\177V\262\0379\214`qn\357"
 207      2BF42419 
 207      C14C7F56 
 207      B21F398C 
 207      60716EEF 
 208 0659 765280E5 		.ascii	"vR\200\345\351\273\225\257\011\251@0r\365\345\214\221"
 208      E9BB95AF 
 208      09A94030 
 208      72F5E58C 
 208      91
 209 066a 3422A84D 		.ascii	"4\"\250M\2723\257'-\010\262\253\023\343\015\244\015"
 209      BA33AF27 
 209      2D08B2AB 
 209      13E30DA4 
 209      0D
 210 067b 4162455D 		.ascii	"AbE]\2017\351@P\3658\351\226\236\364\"\230\235hJ\362"
 210      8137E940 
 210      50F538E9 
 210      969EF422 
 210      989D684A 
 211 0690 228F111C 		.ascii	"\"\217\021\034\353\036>\350k\220S\341\203\277?\333\316"
 211      EB1E3EE8 
 211      6B9053E1 
 211      83BF3FDB 
 211      CE
 212 06a1 BEB1B7D1 		.ascii	"\276\261\267\321\313\230D\371\220\231\006\375\\\312"
 212      CB9844F9 
ARM GAS  C:\Users\info\AppData\Local\Temp\ccplHCqN.s 			page 16


 212      909906FD 
 212      5CCA
 213 06af D3F29969 		.ascii	"\323\362\231i\276\326(\337;n\265\336\372+\362R\036\376"
 213      BED628DF 
 213      3B6EB5DE 
 213      FA2BF252 
 213      1EFE
 214 06c1 D8F1197F 		.ascii	"\330\361\031\177\262KOA\300\363\301\351\243\222\244"
 214      B24B4F41 
 214      C0F3C1E9 
 214      A392A4
 215 06d0 9C0AC1CA 		.ascii	"\234\012\301\312\211\320P\237\302\305\222\243`\347\013"
 215      89D0509F 
 215      C2C592A3 
 215      60E70B
 216 06df BFE34078 		.ascii	"\277\343@x\320\312\355\200\303\"r\023\347\330\025\255"
 216      D0CAED80 
 216      C3227213 
 216      E7D815AD 
 217 06ef 81C8A6A9 		.ascii	"\201\310\246\251\351\011w\366g\236\341\262\206\327\343"
 217      E90977F6 
 217      679EE1B2 
 217      86D7E3
 218 06fe 9880CC6F 		.ascii	"\230\200\314o\350~^\217\323\"=\3703\241\243U\331`\331"
 218      E87E5E8F 
 218      D3223DF8 
 218      33A1A355 
 218      D960D9
 219 0711 22AEDBB9 		.ascii	"\"\256\333\271\224\362Q\226\263!\201P\243J'e\266\313"
 219      94F25196 
 219      B3218150 
 219      A34A2765 
 219      B6CB
 220 0723 D4DC2E57 		.ascii	"\324\334.W7\207N#eh\327\262\035%\235\222\037\240\233"
 220      37874E23 
 220      6568D7B2 
 220      1D259D92 
 220      1FA09B
 221 0736 E3126C8E 		.ascii	"\343\022l\216\"p\352R\2203 \027A\316\202\024\203\024"
 221      2270EA52 
 221      90332017 
 221      41CE8214 
 221      8314
 222 0748 809C0729 		.ascii	"\200\234\007)\001)\003)\0049\247\206N0G\025o\216\343"
 222      01290329 
 222      0439A786 
 222      4E304715 
 222      6F8EE3
 223 075b 02735CE7 		.ascii	"\002s\\\347\202\326\321\024\026\264.,\011Z\320V\307"
 223      82D6D114 
 223      16B42E2C 
 223      095AD056 
 223      C7
 224 076c 7794239A 		.ascii	"w\224#\232>\0274\272y\273f\211\310\355\234\255\312\370"
 224      3E1734BA 
 224      79BB6689 
 224      C8ED9CAD 
ARM GAS  C:\Users\info\AppData\Local\Temp\ccplHCqN.s 			page 17


 224      CAF8
 225 077e F5CD15E8 		.ascii	"\365\315\025\350\310\037p\367\370\256\217\210\272V\242"
 225      C81F70F7 
 225      F8AE8F88 
 225      BA56A2
 226 078d D1EDB2D6 		.ascii	"\321\355\262\326\037\223D\346\270\332s%i\365~n\301\210"
 226      1F9344E6 
 226      B8DA7325 
 226      69F57E6E 
 226      C188
 227 079f B7F765B0 		.ascii	"\267\367e\260\361\377\324\336h\302W)\237P\023V@g\345"
 227      F1FFD4DE 
 227      68C25729 
 227      9F501356 
 227      4067E5
 228 07b2 6AB0B9E0 		.ascii	"j\260\271\340\0126\235#'\023\214\030l\332\330F\037\271"
 228      0A369D23 
 228      27138C18 
 228      6CDAD846 
 228      1FB9
 229 07c4 0977816C 		.ascii	"\011w\201l\246\243\364z\361\233\032="
 229      A6A3F47A 
 229      F19B1A3D 
 230 07d0 398B6024 		.ascii	"9\213`$\351\354\224\221\\C\260\357FE\223|\341lf\227"
 230      E9EC9491 
 230      5C43B0EF 
 230      4645937C 
 230      E16C6697 
 231 07e4 A68B9579 		.ascii	"\246\213\225y\336\244\031\033\357=yZJH\033\202\204\262"
 231      DEA4191B 
 231      EF3D795A 
 231      4A481B82 
 231      84B2
 232 07f6 9C2B0672 		.ascii	"\234+\006r\037\301\375\232\226\327^d\010\301\267es\020"
 232      1FC1FD9A 
 232      96D75E64 
 232      08C1B765 
 232      7310
 233 0808 C7C61054 		.ascii	"\307\306\020TN\234\257\364\307\016\033(\276\0267\012"
 233      4E9CAFF4 
 233      C70E1B28 
 233      BE16370A 
 234 0818 D9EC2436 		.ascii	"\331\354$6\226&\325\026\353\310[\004\005O\366\3552\020"
 234      9626D516 
 234      EBC85B04 
 234      054FF6ED 
 234      3210
 235 082a A72FDE48 		.ascii	"\247/\336H\012\247\223$\262\027A\321\221\227\027%\222"
 235      0AA79324 
 235      B21741D1 
 235      91971725 
 235      92
 236 083b 8260A8A1 		.ascii	"\202`\250\241\254[G2\020\334\035\275\327\251#9\010r"
 236      AC5B4732 
 236      10DC1DBD 
 236      D7A92339 
 236      0872
ARM GAS  C:\Users\info\AppData\Local\Temp\ccplHCqN.s 			page 18


 237 084d 46175E6B 		.ascii	"F\027^kI>\002\327\2152\010o\224\271i\257\037C\022\214"
 237      493E02D7 
 237      8D32086F 
 237      94B969AF 
 237      1F43128C 
 238 0861 6D690BA7 		.ascii	"mi\013\247J\264\344\032\202\233\347\022\206\264\244"
 238      4AB4E41A 
 238      829BE712 
 238      86B4A4
 239 0870 13C140D5 		.ascii	"\023\301@\325\251f\037\362\020A\365\361\256v\035\231"
 239      A9661FF2 
 239      1041F5F1 
 239      AE761D99 
 240 0880 42B0983D 		.ascii	"B\260\230=u\304\207\217h\356w\3556%\242\271\356\252"
 240      75C4878F 
 240      68EE77ED 
 240      3625A2B9 
 240      EEAA
 241 0892 4178576D 		.ascii	"AxWml\373&3\220\274\307N\372\337\267'\352I\034^j\206"
 241      6CFB2633 
 241      90BCC74E 
 241      FADFB727 
 241      EA491C5E 
 242 08a8 066AE7B5 		.ascii	"\006j\347\265$\025\301\342X\377\224\0379\213`8\356\310"
 242      2415C1E2 
 242      58FF941F 
 242      398B6038 
 242      EEC8
 243 08ba A8965423 		.ascii	"\250\226T#8\360\342\322a_\322\211`n,\375\201\204\235"
 243      38F0E2D2 
 243      615FD289 
 243      606E2CFD 
 243      81849D
 244 08cd 1BE97DAB 		.ascii	"\033\351}\253\346Aj \236 Cl\322\003\245%\0062\214\334"
 244      E6416A20 
 244      9E20436C 
 244      D203A525 
 244      06328CDC 
 245 08e1 872FEBB2 		.ascii	"\207/\353\262|\330E\273D\271\246_,hM\321)\227\357^-"
 245      7CD845BB 
 245      44B9A65F 
 245      2C684DD1 
 245      2997EF5E 
 246 08f6 AB1C5AAC 		.ascii	"\253\034Z\254\250R\357\356}Xy\251pq\326W\251\354\307"
 246      A852EFEE 
 246      7D5879A9 
 246      7071D657 
 246      A9ECC7
 247 0909 CAD7A5FB 		.ascii	"\312\327\245\373O{\223\347\0069\305\357-\225\310<\202"
 247      4F7B93E7 
 247      0639C5EF 
 247      2D95C83C 
 247      82
 248 091a F4E9F63C 		.ascii	"\364\351\366<\037\262\307\217\201\246\354\3214-9\210"
 248      1FB2C78F 
 248      81A6ECD1 
 248      342D3988 
ARM GAS  C:\Users\info\AppData\Local\Temp\ccplHCqN.s 			page 19


 249 092a A0BC6EEA 		.ascii	"\240\274n\352\264|?w\322\253]nW~\2377)\364s\273\274"
 249      B47C3F77 
 249      D2AB5D6E 
 249      577E9F37 
 249      29F473BB 
 250 093f 07E1E5DD 		.ascii	"\007\341\345\3359\226\000Q\267\010\333\352\307R\353"
 250      39960051 
 250      B708DBEA 
 250      C752EB
 251 094e F5A40641 		.ascii	"\365\244\006A[\341\370\275\000\322\211`,\267\276TO&"
 251      5BE1F8BD 
 251      00D28960 
 251      2CB7BE54 
 251      4F26
 252 0960 10B8DE89 		.ascii	"\020\270\336\211\004\341;\221\214\206\264y\003y\207"
 252      04E13B91 
 252      8C86B479 
 252      037987
 253 096f 6DB7AA86 		.ascii	"m\267\252\2067\222\335F\274\327\336\351\352'$\035AJ"
 253      3792DD46 
 253      BCD7DEE9 
 253      EA27241D 
 253      414A
 254 0981 63DD353D 		.ascii	"c\3355=\311E\320\324\367=xT\021\202\205\262\262k\022"
 254      C945D0D4 
 254      F73D7854 
 254      118285B2 
 254      B26B12
 255 0994 F91641C2 		.ascii	"\371\026A\302\263|HVo#\350o>{\236n\215O\351%uq1\220"
 255      B37C4856 
 255      6F23E86F 
 255      3E7B9E6E 
 255      8D4FE925 
 256 09ac BBA67E8A 		.ascii	"\273\246~\212F\350H\231>\345C\272\030]{>\365y\007\367"
 256      46E84899 
 256      3EE543BA 
 256      185D7B3E 
 256      F57907F7 
 257 09c0 9AECB4B1 		.ascii	"\232\354\264\261\212^\015\177\200s\360\265\272]?U\336"
 257      8A5E0D7F 
 257      8073F0B5 
 257      BA5D3F55 
 257      DE
 258 09d1 3031A7D2 		.ascii	"01\247\322\250\201\373\015\004\207O\345\203\365\025"
 258      A881FB0D 
 258      04874FE5 
 258      83F515
 259 09e0 448F692D 		.ascii	"D\217i-\276(;\225\012\373q\020\2078w\261\265\311\307"
 259      BE283B95 
 259      0AFB7110 
 259      873877B1 
 259      B5C9C7
 260 09f3 754DF5EC 		.ascii	"uM\365\354`V\320\201\353\232\372%\273\246\276\005]f"
 260      6056D081 
 260      EB9AFA25 
 260      BBA6BE05 
 260      5D66
ARM GAS  C:\Users\info\AppData\Local\Temp\ccplHCqN.s 			page 20


 261 0a05 545D4035 		.ascii	"T]@5\364\340\341\222\231\027z2\206\263\276X4W\214/{"
 261      F4E0E192 
 261      99177A32 
 261      86B3BE58 
 261      34578C2F 
 262 0a1a 7E69949D 		.ascii	"~i\224\235\250wO\341\035?\305\261\346\3205\272\357\017"
 262      A8774FE1 
 262      1D3FC5B1 
 262      E6D035BA 
 262      EF0F
 263 0a2c 74FB2A95 		.ascii	"t\373*\225\363X\231\270\330\177]O\336\311\306,<p\324"
 263      F35899B8 
 263      D87F5D4F 
 263      DEC9C62C 
 263      3C70D4
 264 0a3f 9FECF1C7 		.ascii	"\237\354\361\307kd\326t\215\017IF\320\331\220{\324\227"
 264      6B64D674 
 264      8D0F4946 
 264      D0D9907B 
 264      D497
 265 0a51 64207854 		.ascii	"d xT>s\312\237\344\372\177\320\207+:N\014\372\2203H"
 265      3E73CA9F 
 265      E4FA7FD0 
 265      872B3A4E 
 265      0CFA9033 
 266 0a66 78D73A57 		.ascii	"x\327:W-\221\012\004\373;/\177A\032\261\\\324}\177A"
 266      2D910A04 
 266      FB3B2F7F 
 266      411AB15C 
 266      D47D7F41 
 267 0a7a 222D08EE 		.ascii	"\"-\010\356\276\237\274J\310\020\202\013C{:\275\310"
 267      BE9FBC4A 
 267      C810820B 
 267      437B3ABD 
 267      C8
 268 0a8b 148282F9 		.ascii	"\024\202\202\371\223\345F\262\200\240i\246.\337\213"
 268      93E546B2 
 268      80A069A6 
 268      2EDF8B
 269 0a9a EC0D6020 		.ascii	"\354\015` i\337\271\223\001\344\030\202\335\373\317"
 269      69DFB993 
 269      01E41882 
 269      DDFBCF
 270 0aa9 D712528C 		.ascii	"\327\022R\214\240m\260\364\2157\271\201`p \365?I\013"
 270      A06DB0F4 
 270      8D37B981 
 270      607020F5 
 270      3F490B
 271 0abc 969F7775 		.ascii	"\226\237wu\244z\221^\004\013\245\2115:2\201`\264y\366"
 271      A47A915E 
 271      040BA589 
 271      353A3281 
 271      60B479F6 
 272 0ad0 B51F7106 		.ascii	"\265\037q\006\242\316\215\361U\0229\204\340r\343\354"
 272      A2CE8DF1 
 272      55123984 
 272      E072E3EC 
ARM GAS  C:\Users\info\AppData\Local\Temp\ccplHCqN.s 			page 21


 273 0ae0 775EE40C 		.ascii	"w^\344\014\202\211\370\363\247\300\371\020\264e\214"
 273      8289F8F3 
 273      A7C0F910 
 273      B4658C
 274 0aef 676AC9F7 		.ascii	"gj\311\367\010\346\347\016\305y\221q\004\365}cE~d\021"
 274      08E6E70E 
 274      C5799171 
 274      04F57D63 
 274      457E6411 
 275 0b03 C1990393 		.ascii	"\301\231\003\223\327\014\344\3102\012>\232<\177\244"
 275      D70CE4C8 
 275      320A3E9A 
 275      3C7FA4
 276 0b12 CB9BBF4F 		.ascii	"\313\233\277O\257\227\357\323+\326\263Cm\350h\276\255"
 276      AF97EFD3 
 276      2BD6B343 
 276      6DE868BE 
 276      AD
 277 0b23 EE729FD3 		.ascii	"\356r\237\323\271\307\310,\232J\340X#\037\276\234\326"
 277      B9C7C82C 
 277      9A4AE058 
 277      231FBE9C 
 277      D6
 278 0b34 762889C8 		.ascii	"v(\211\3107\356\324^\317L\353U\032\227\276\357\221\311"
 278      37EED45E 
 278      CF4CEB55 
 278      1A97BEEF 
 278      91C9
 279 0b46 C2F45DBE 		.ascii	"\302\364]\276?\362\307k\206@\017>\311\351R\023\242\203"
 279      3FF2C76B 
 279      86400F3E 
 279      C9E95213 
 279      A283
 280 0b58 022A9F69 		.ascii	"\002*\237i\245\253\324L\001\225\323\270C\235\\\242h"
 280      A5ABD44C 
 280      0195D3B8 
 280      439D5CA2 
 280      68
 281 0b69 727CE690 		.ascii	"r|\346\220\246\366zX\320+\227\221d\253\314t\001\223"
 281      A6F67A58 
 281      D02B9791 
 281      64ABCC74 
 281      0193
 282 0b7b EF3447A5 		.ascii	"\3574G\245\036\022Pyk\025\253\272\356w\247.\315\036"
 282      1E125079 
 282      6B15ABBA 
 282      EE77A72E 
 282      CD1E
 283 0b8d DB54EE5E 		.ascii	"\333T\356^\321\274x\303\246\253\334\003\242~\371\354"
 283      D1BC78C3 
 283      A6ABDC03 
 283      A27EF9EC 
 284 0b9d F8BDAA6E 		.ascii	"\370\275\252n\262\210\313\353[\256\366\273O\304\345"
 284      B288CBEB 
 284      5BAEF6BB 
 284      4FC4E5
 285 0bac 57EC0DEF 		.ascii	"W\354\015\3579Yb\317\341\223\307\271dL\036\211\340\306"
ARM GAS  C:\Users\info\AppData\Local\Temp\ccplHCqN.s 			page 22


 285      395962CF 
 285      E193C7B9 
 285      644C1E89 
 285      E0C6
 286 0bbe 7B82F7AA 		.ascii	"{\202\367\2524\201Q\371\011U\253J&\211\014\2654oV.\225"
 286      348151F9 
 286      0955AB4A 
 286      26890CB5 
 286      346F562E 
 287 0bd3 47643ECD 		.ascii	"Gd>\315\343\316\221`\351$Y/\235\0009\006\222\007\222"
 287      E3CE9160 
 287      E924592F 
 287      9D003906 
 287      920792
 288 0be6 0F721E24 		.ascii	"\017r\036$\033\3448\310E\220B\220\002\220S g@\212@\216"
 288      1BE438C8 
 288      45904290 
 288      02905320 
 288      67408A40 
 289 0bfb 829C06C9 		.ascii	"\202\234\006\311\005\311\0019K\370\327\021\275)\001"
 289      05C90139 
 289      4BF8D711 
 289      BD2901
 290 0c0a 98DBD350 		.ascii	"\230\333\323P\235\"\017\251Dx.\031\2068\360 \345hV "
 290      9D220FA9 
 290      44782E19 
 290      8638F020 
 290      E5685620 
 291 0c1e A9667140 		.ascii	"\251fq@\373\346@\343W\2369\250\242{\011\350\373\207"
 291      FBE640E3 
 291      579E39A8 
 291      A27B09E8 
 291      FB87
 292 0c30 D41D5729 		.ascii	"\324\035W)\253\345/\350*\025\303@\227\210\232\237\022"
 292      ABE52FE8 
 292      2A15C340 
 292      97889A9F 
 292      12
 293 0c41 393F2D1F 		.ascii	"9?-\037.x\351\263BV\260\341\203\012j\376\327\265\243"
 293      2E78E9B3 
 293      4256B0E1 
 293      830A6AFE 
 293      D7B5A3
 294 0c54 F1B32721 		.ascii	"\361\263'!\321\217\317\345J9\263j\2442\342\312\345f"
 294      D18FCFE5 
 294      4A39B36A 
 294      A432E2CA 
 294      E566
 295 0c66 2E8CF679 		.ascii	".\214\366y\221\226e\230u<9\332d \337#\250\357\274\364"
 295      91966598 
 295      753C39DA 
 295      6420DF23 
 295      A8EFBCF4 
 296 0c7a 5D209960 		.ascii	"] \231`\340'\275I\365q\222\2443\256\300\327\227\352"
 296      E027BD49 
 296      F57192A4 
 296      33AEC0D7 
ARM GAS  C:\Users\info\AppData\Local\Temp\ccplHCqN.s 			page 23


 296      97EA
 297 0c8c C7685CA3 		.ascii	"\307h\\\243\013\226\013\301\353\203\203\351Av\205\030"
 297      0B960BC1 
 297      EB8383E9 
 297      41768518 
 298 0c9c A55D44A7 		.ascii	"\245]D\247\341\206\257r\033\376\012\016\357\266v\217"
 298      E186AF72 
 298      1BFE0A0E 
 298      EFB6768F 
 299 0cac E0006F87 		.ascii	"\340\000o\207\003\\z\000\246\251\221\327\356>\224\357"
 299      035C7A00 
 299      A6A991D7 
 299      EE3E94EF 
 300 0cbc C1CC3A40 		.ascii	"\301\314:@\332A\332@ZAn\2014\203\334\004i\002\271\001"
 300      DA41DA40 
 300      5A416E81 
 300      3483DC04 
 300      6902B901 
 301 0cd0 721DE41A 		.ascii	"r\035\344\032H#\310\267 \015 \365 WA\352@jA\252\335"
 301      4823C8B7 
 301      200D20F5 
 301      205741EA 
 301      406A41AA 
 302 0ce5 7C6FAE87 		.ascii	"|o\256\207\333I\025\260\2025\352\366x\242U\367\273X"
 302      DB4915B0 
 302      8235EAF6 
 302      78A255F7 
 302      BB58
 303 0cf7 CF72F981 		.ascii	"\317r\371\201?\274\236o{\224M<\242\025h\311\007\334"
 303      3FBC9E6F 
 303      7B944D3C 
 303      A21568C9 
 303      07DC
 304 0d09 1F54EEA8 		.ascii	"\037T\356\250\210\313G\306\327*wL\304\345\016\222i\225"
 304      88CB47C6 
 304      D72A774C 
 304      C4E50E92 
 304      6995
 305 0d1b FA5444E5 		.ascii	"\372TD\345N\207I\225\372\334\235\372L\353\031\027\007"
 305      4E874995 
 305      FADC9DFA 
 305      4CEB1917 
 305      07
 306 0d2c 54EE0B11 		.ascii	"T\356\013\021\227\217\371}*w\\\304\345\303^\217\312"
 306      978FF97D 
 306      2A775CC4 
 306      E5C35E8F 
 306      CA
 307 0d3d 9D1071F9 		.ascii	"\235\020q\3718\336\245r_\212\270\274u;8\035$\001\227"
 307      38DEA572 
 307      5F8AB8BC 
 307      753B381D 
 307      240197
 308 0d50 B76E7B26 		.ascii	"\267n{&\027\363'\345\236\225\230\377\314\323l\365\231"
 308      17F327E5 
 308      9E9598FF 
 308      CCD36CF5 
ARM GAS  C:\Users\info\AppData\Local\Temp\ccplHCqN.s 			page 24


 308      99
 309 0d61 DC4B8E6A 		.ascii	"\334K\216j\231\256\004\302\373K\216\237\272L.pN\211"
 309      99AE04C2 
 309      FB4B8E9F 
 309      BA4C2E70 
 309      4E89
 310 0d73 F95CF735 		.ascii	"\371\\\3675=\201H\277\015\233\363\235'\235\317]\270"
 310      3D8148BF 
 310      0D9BF39D 
 310      279DCF5D 
 310      B8
 311 0d84 5DFB1D59 		.ascii	"]\373\035Y\243rZ\300\307\357\300\303\030\346>\300\322"
 311      A3725AC0 
 311      C7EFC0C3 
 311      18E63EC0 
 311      D2
 312 0d95 70940FFE 		.ascii	"p\224\017\376j\013\017\320\237\364\010\375\325\326\025"
 312      6A0B0FD0 
 312      9FF408FD 
 312      D5D615
 313 0da4 2F16209D 		.ascii	"/\026 \235\306\250z\242\345#\032U\251\236\357\325\324"
 313      C6A87AA2 
 313      E5231A55 
 313      A99EEFD5 
 313      D4
 314 0db5 FD0E0B19 		.ascii	"\375\016\013\0318\227*~.\213\342\271pS\277\334ct\036"
 314      38972A7E 
 314      2E8BE2B9 
 314      7053BFDC 
 314      63741E
 315 0dc8 3433B293 		.ascii	"43\262\223x\220\005\307\272\312\216\023\263\271\256"
 315      789005C7 
 315      BACA8E13 
 315      B3B9AE
 316 0dd7 CB3257A2 		.ascii	"\3132W\242&\235@\217\367\244\177&4j7o\324\0360j\227"
 316      269D408F 
 316      F7A47F26 
 316      346A376F 
 316      D41E306A 
 317 0dec C8A8DD6E 		.ascii	"\310\250\335nF\355\022\031\365\261\233Q\273\231Q+\231"
 317      46ED1219 
 317      F5B19B51 
 317      BB99512B 
 317      99
 318 0dfd 51D19025 		.ascii	"Q\321\220%\311\253\250!\251j\011\352\361\324\305\031"
 318      C9ABA821 
 318      A96A09EA 
 318      F1D4C519 
 319 0e0d B224F3C7 		.ascii	"\262$\363\307\250>\234\007\322n\241\372\233\324\244"
 319      A83E9C07 
 319      D26EA1FA 
 319      9BD4A4
 320 0e1c E458264B 		.ascii	"\344X&KJj\334\223\022l;\234\374#\332F\303\374eu\254"
 320      4A6ADC93 
 320      126C3B9C 
 320      FC23DA46 
 320      C3FC6575 
ARM GAS  C:\Users\info\AppData\Local\Temp\ccplHCqN.s 			page 25


 321 0e31 1AD75158 		.ascii	"\032\327QX\334V\021\357O\336\340\301Rt\367f\237\374"
 321      DC5611EF 
 321      4FDEE0C1 
 321      5274F766 
 321      9FFC
 322 0e43 02662F7D 		.ascii	"\002f/})\\t\246\177\304G\376\211\225\37648\320}|$\200"
 322      295C74A6 
 322      7FC447FE 
 322      8995FE34 
 322      38D07D7C 
 323 0e59 C42D67E4 		.ascii	"\304-g\344\366\267c{$\222\316\300\337W\356\037n\367"
 323      F6B7637B 
 323      2492CEC0 
 323      DF57EE1F 
 323      6EF7
 324 0e6b 95DC8E20 		.ascii	"\225\334\216 z\376\030=\316$l\240G\025\236N\306\340"
 324      7AFE183D 
 324      CE246CA0 
 324      47159E4E 
 324      C6E0
 325 0e7d 60560886 		.ascii	"`V\010\206\012zF\005\343E\341X\346oO\235\336C\027\333"
 325      0A7A4605 
 325      E345E158 
 325      E66F4F9D 
 325      DE4317DB 
 326 0e91 B5E586F8 		.ascii	"\265\345\206\370\351W\252;\324\355\000\350#k\245^\002"
 326      E957AA3B 
 326      D4ED00E8 
 326      236BA55E 
 326      02
 327 0ea2 84EF093E 		.ascii	"\204\357\011>A\017\200\343\272`\351\230\016\216l\220"
 327      410F80E3 
 327      BA60E998 
 327      0E8E6C90 
 328 0eb2 04905D20 		.ascii	"\004\220] \361 q N\220E\010\352\357A\026@\346A\346@"
 328      F1207120 
 328      4E904508 
 328      EAEF4116 
 328      40E641E6 
 329 0ec7 DE81CC82 		.ascii	"\336\201\314\202\274\005\231\001\371\001\344\015\310"
 329      BC059901 
 329      F901E40D 
 329      C8
 330 0ed4 6B905720 		.ascii	"k\220W \323 \203 \317A\236\201<\005\031\003\031\005"
 330      D3208320 
 330      CF419E81 
 330      3C051903 
 330      1905
 331 0ee6 19017902 		.ascii	"\031\001y\002\362\030\344\021\3100\310C\267Cc\220?\334"
 331      F218E411 
 331      C830C843 
 331      B7436390 
 331      3FDC
 332 0ef8 FA6555E5 		.ascii	"\372eU\345`umI\202\312\005\314\033\222\200{]\034\004"
 332      60756D49 
 332      82CA05CC 
 332      1B92807B 
ARM GAS  C:\Users\info\AppData\Local\Temp\ccplHCqN.s 			page 26


 332      5D1C04
 333 0f0b 6F8AB8FC 		.ascii	"o\212\270\374\033\344\372L\356Mg\263\210]\315\261\253"
 333      1BE4FA4C 
 333      EE4D67B3 
 333      885DCDB1 
 333      AB
 334 0f1c 7B949F52 		.ascii	"{\224\237R:D\\\376\367\266+*\267K\304\345Cq%o\213n\021"
 334      3A445CFE 
 334      F7B62B2A 
 334      B74BC4E5 
 334      4371256F 
 335 0f33 9B3BEA8A 		.ascii	"\233;\352\212\325\351\365\210\250\334\317\253Y\231\253"
 335      D5E9F588 
 335      A8DCCFAB 
 335      5999AB
 336 0f42 E25888A7 		.ascii	"\342X\210\247\277\207|/\223\225\034\357\236'\375p\346"
 336      BF877C2F 
 336      93951CEF 
 336      9E27FD70 
 336      E6
 337 0f53 EA38B6DD 		.ascii	"\3528\266\335\350\033\315L\331\337\224\367\246\351\236"
 337      E81BCD4C 
 337      D9DF94F7 
 337      A6E99E
 338 0f62 274246CF 		.ascii	"'BF\317\217pw\276\200\335yE\354\236K\242\313\004\037"
 338      8F7077BE 
 338      80DD7945 
 338      EC9E4BA2 
 338      CB041F
 339 0f75 5D72C12B 		.ascii	"]r\301+\307E\321e\302-\272\214\213\242K\271[t\231`\321"
 339      C745D165 
 339      C22DBA8C 
 339      8BA24BB9 
 339      5B749960 
 340 0f8a E5A512B2 		.ascii	"\345\245\022\262'\011{U\302u9\345\226\341M\0122<e\343"
 340      27097B55 
 340      C27539E5 
 340      96E14D0A 
 340      323C65E3 
 341 0f9e 9C00     		.ascii	"\234\000"
 342 0fa0 B5FEFF6E 		.ascii	"\265\376\377n\234W\235\334\033\364Z\255\233\007\324"
 342      9C579DDC 
 342      1BF45AAD 
 342      9B07D4
 343 0faf 2CC91E26 		.ascii	",\311\036&;\231\267Pn\235\210\313g\017\003*\367\252"
 343      3B99B750 
 343      6E9D88CB 
 343      670F032A 
 343      F7AA
 344 0fc1 88CBBB6C 		.ascii	"\210\313\273l\237\312\255\027q9\207\355R\251\015\"*"
 344      9FCAAD17 
 344      713987ED 
 344      52A90D22 
 344      2A
 345 0fd2 E7521D2A 		.ascii	"\347R\035*\265\321\235\372\355\222\334\254M\345^\023"
 345      B5D19DFA 
 345      ED92DCAC 
ARM GAS  C:\Users\info\AppData\Local\Temp\ccplHCqN.s 			page 27


 345      4DE55E13 
 346 0fe2 71F99070 		.ascii	"q\371\220pU\345^\027q\371\334\254\\\345\336\020q\335"
 346      55E55E17 
 346      71F9DCAC 
 346      5CE5DE10 
 346      71DD
 347 0ff4 FEC940E5 		.ascii	"\376\311@\3456\211\270n\257\032T\356"
 347      3689B86E 
 347      AF1A54EE 
 348 1000 4D1197B7 		.ascii	"M\021\227\267n\266\312m\026q9\353\276\357P\250\267D"
 348      6EB6CA6D 
 348      167139EB 
 348      BEEF50A8 
 348      B744
 349 1012 54CEBAF3 		.ascii	"T\316\272\363*\365\216;\365\366\022\353\276S\271\337"
 349      2AF58E3B 
 349      F5F612EB 
 349      BE53B9DF 
 350 1022 89B8BC75 		.ascii	"\211\270\274u\337tp\341\353\256\210\315\333wZ\275\362"
 350      DF7470E1 
 350      EBAE88CD 
 350      DB775ABD 
 350      F2
 351 1033 B788B8BC 		.ascii	"\267\210\270\274}\247\322\344$\262\015N\300V\317\020"
 351      7DA7D2E4 
 351      24B20D4E 
 351      C056CF10 
 352 1043 73DB7382 		.ascii	"s\333s\202\275i\253\220\276[g\224:<\351\355\342\210"
 352      BD69AB90 
 352      BE5B6794 
 352      3A3CE9ED 
 352      E288
 353 1055 B447C707 		.ascii	"\264G\307\007\006x\222\013\014\362\255\030B\340}z\245"
 353      0678920B 
 353      0CF2AD18 
 353      42E07D7A 
 353      A5
 354 1066 3A02C160 		.ascii	":\002\301`\257N\276\025\247\300\356\377\006$Q\307\357"
 354      AF4EBE15 
 354      A7C0EEFF 
 354      062451C7 
 354      EF
 355 1077 CECB1D2C 		.ascii	"\316\313\035,=;\004\012|\017\012\354\325\211\3233\367"
 355      3D3B040A 
 355      7C0F0AEC 
 355      D589D333 
 355      F7
 356 1088 D702AEFE 		.ascii	"\327\002\256\376\357\311O\320\300\223\006c\211\207\250"
 356      EFC94FD0 
 356      C0930663 
 356      8987A8
 357 1097 E8F8139C 		.ascii	"\350\370\023\234e\022\014\322\3519\2108\251\333\257"
 357      65120CD2 
 357      E9398838 
 357      A9DBAF
 358 10a6 E3C26E32 		.ascii	"\343\302n2t\275O'\010\273<K\303Q\270\260\373\253U\034"
 358      74BD4F27 
ARM GAS  C:\Users\info\AppData\Local\Temp\ccplHCqN.s 			page 28


 358      08BB3C4B 
 358      C351B8B0 
 358      FBAB551C 
 359 10ba 03F8F0F7 		.ascii	"\003\370\360\367\200\316#\352b\312\325\277o%M\271\250"
 359      80CE23EA 
 359      62CAD5BF 
 359      6F254DB9 
 359      A8
 360 10cb 925D6A9E 		.ascii	"\222]j\236\274O\247\246wei\362\001r\0208\335\302\211"
 360      BC4FA7A6 
 360      776569F2 
 360      01721038 
 360      DDC289
 361 10de 6CFA5DF3 		.ascii	"l\372]\363Hu\233\007\216\332\213\243\322\036{<G\225"
 361      48759B07 
 361      8EDA8BA3 
 361      D21E7B3C 
 361      4795
 362 10f0 F3F73496 		.ascii	"\363\3674\226&\302X|\232\310\215\221\301\217q\030\306"
 362      26C2587C 
 362      9AC88D91 
 362      C18F7118 
 362      C6
 363 1101 4817D92A 		.ascii	"H\027\331*\303\315V\351\277\327V\031\314V\231n\266\032"
 363      C3CD56E9 
 363      BFD75619 
 363      CC56996E 
 363      B61A
 364 1113 502E1583 		.ascii	"P.\025\203\2506u\233AU\355tN\355{w~L\031Y`\242!\225"
 364      A836759B 
 364      4155ED74 
 364      4EED7B77 
 364      7E4C1959 
 365 112b 4167F121 		.ascii	"Ag\361!o\342\274\365wx\323\2034\331\233\216\302\330"
 365      6FE2BCF5 
 365      7778D383 
 365      34D99B8E 
 365      C2D8
 366 113d 0FC57BC6 		.ascii	"\017\305{\306s\025\334,\224\343f!Tv\012\247C\273\034"
 366      7315DC2C 
 366      94E36621 
 366      54760AA7 
 366      43BB1C
 367 1150 F69C0EE6 		.ascii	"\366\234\016\346\032\367\322\3741\327\240)\371cyX\345"
 367      1AF7D2FC 
 367      31D7A029 
 367      F9637958 
 367      E5
 368 1161 DD85676A 		.ascii	"\335\205gj\337\211k6$J\355\273\367\261\324\236\236\357"
 368      DF896B36 
 368      244AEDBB 
 368      F7B1D49E 
 368      9EEF
 369 1173 036A6A3F 		.ascii	"\003jj?\304R{d\324u\254\246\014\232\246T\251\332\214"
 369      C4527B64 
 369      D475ACA6 
 369      0C9AA654 
ARM GAS  C:\Users\info\AppData\Local\Temp\ccplHCqN.s 			page 29


 369      A9DA8C
 370 1186 B3140052 		.ascii	"\263\024\000R\370;C#\235\370\373\012]\223o\361\337a"
 370      F83B4323 
 370      9DF8FB0A 
 370      5D936FF1 
 370      DF61
 371 1198 F3F2AE0D 		.ascii	"\363\362\256\015z}\370\037{\363\330j\236\324\311\377"
 371      7A7DF81F 
 371      7BF3D86A 
 371      9ED4C9FF 
 372 11a8 D8FB603A 		.ascii	"\330\373`:\255V\377q\2563\227\376co\346\2664\327?\366"
 372      AD56FF71 
 372      AE3397FE 
 372      636FE6B6 
 372      34D73FF6 
 373 11bc 6A2951AA 		.ascii	"j)Q\252S\377\021\261\216\377\307\336|\035\375\307\336"
 373      53FF11B1 
 373      8EFFC7DE 
 373      7C1DFDC7 
 373      DE
 374 11cd 07B7334E 		.ascii	"\007\2673N\020\376U\030\375_`u\244S\030\220\330\367"
 374      10FE5518 
 374      FD5F6075 
 374      A4531890 
 374      D8F7
 375 11df C7D19BB7 		.ascii	"\307\321\233\267}n\012\263\233\302\"\034V\233\335jq"
 375      7D6E0AB3 
 375      9BC2221C 
 375      569BDD6A 
 375      71
 376 11f0 84454698 		.ascii	"\204EF\230B\255\2260;-8lV\253\376\237\376\365\227\353"
 376      42AD9630 
 376      3B2D386C 
 376      56ABFE9F 
 376      FEF597EB 
 377 1204 FE61D326 		.ascii	"\376a\323&\215\257\311\024\015\264\315&G\234d\371\233"
 377      8DAFC914 
 377      0DB4CD26 
 377      479C64F9 
 377      9B
 378 1215 2D51B6C8 		.ascii	"-Q\266\310m6\363\216u[\303\302\255\366u\3011\233\277"
 378      6D36F38E 
 378      755BC3C2 
 378      ADF675C1 
 378      319BBF
 379 1228 FAF32D96 		.ascii	"\372\363-\226\330(\233\325n\337\022e\217\264\254\263"
 379      D8289BD5 
 379      6EDF1265 
 379      8FB4ACB3 
 380 1238 D8AC6647 		.ascii	"\330\254fG\244m\313\227\033>w\257\010\333\021\025is"
 380      A46DCB97 
 380      1B3E77AF 
 380      08DB1115 
 380      6973
 381 124a 6CD91611 		.ascii	"l\331\026\021\275\305l\333\261\345/7|\271a\023-\375"
 381      BDC56CDB 
 381      B1E52F37 
ARM GAS  C:\Users\info\AppData\Local\Temp\ccplHCqN.s 			page 30


 381      7CB96113 
 381      2DFD
 382 125c 342232C2 		.ascii	"4\"2\302\372S\2539$lKX\204%<:\324\272e\207\331\262="
 382      FA53AB39 
 382      246C4B58 
 382      84253C3A 
 382      D4BA6587 
 383 1273 2CC2BA05 		.ascii	",\302\272\005T\332j\216\016w\230\034\261QV\373\206\355"
 383      54DA6A8E 
 383      0E77981C 
 383      B15156FB 
 383      86ED
 384 1285 1A1F5995 		.ascii	"\032\037Y\225\257\377\2574\261\307\332\267\230\354\216"
 384      AFFFAF34 
 384      B1C7DAB7 
 384      98EC8E
 385 1294 50181686 		.ascii	"P\030\026\206\367cv\243:\230\034+7l\330\302\240\305"
 385      F76376A3 
 385      3A981C2B 
 385      376CD8C2 
 385      A0C5
 386 12a6 6EB3B012 		.ascii	"n\263\260\022\020\376tI\245\233\2117X4+X\345/\354\277"
 386      10FE7449 
 386      A59B8937 
 386      58342B58 
 386      E52FECBF 
 387 12ba E0AA0DA1 		.ascii	"\340\252\015\2416\363N\223%2<\322\266\"$\314\261\303"
 387      36F34E93 
 387      25323CD2 
 387      B62224CC 
 387      B1C3
 388 12cc 1C054B60 		.ascii	"\034\005K`\216\260G\231m\326\010Kl\300\266\360\330\250"
 388      8EB04799 
 388      6DD6084B 
 388      6CC0B6F0 
 388      D8A8
 389 12de EDA61853 		.ascii	"\355\246\030S\344\326\255v\253Co2\241\021\274\361k\331"
 389      E4D6AD76 
 389      AB436F32 
 389      A111BCF1 
 389      6BD9
 390 12f0 D648D0C7 		.ascii	"\326H\320\307f\335\012\326\262[\254\021\216@\245\302"
 390      66DD0AD6 
 390      B25BAC11 
 390      8E40A5C2 
 391 1300 CC3012B6 		.ascii	"\3140\022\266[\303\266mw\230vD\206Z\327\301\312G\231"
 391      5BC3B66D 
 391      77987644 
 391      865AD7C1 
 391      CA4799
 392 1313 B7594D96 		.ascii	"\267YM\226\360\260(\323\316\260\210\320\310\235nz\372"
 392      F0B028D3 
 392      CEB088D0 
 392      C89D6E7A 
 392      FA
 393 1324 B227C222 		.ascii	"\262'\302\"\266F.\267;\3146\207)*\322n\012\217\334i"
 393      B6462EB7 
ARM GAS  C:\Users\info\AppData\Local\Temp\ccplHCqN.s 			page 31


 393      3BCC3687 
 393      292AD26E 
 393      0A8FDC69 
 394 1338 B599CC06 		.ascii	"\265\231\314\006\364\207M_\231\034zW\201cEGE\001\353"
 394      F4874D5F 
 394      991C7A57 
 394      81634547 
 394      4501EB
 395 134b 67465917 		.ascii	"gFY\027\030\307f\3663\253e_W\3036\275\\\3733}\254kf"
 395      18C766F6 
 395      33AB655F 
 395      57C336BD 
 395      5CFB337D 
 396 1362 AE2906EE 		.ascii	"\256)\006\3560\307\230,\333\3156Y\353\000\005\357\014"
 396      30C7982C 
 396      DBCD3659 
 396      EB0005EF 
 396      0C
 397 1373 0B756C5F 		.ascii	"\013ul_\006F\202\031\3008\241\326p\207\331\024\023\250"
 397      06468219 
 397      C038A1D6 
 397      7087D914 
 397      13A8
 398 1385 543052AC 		.ascii	"T0R\254\007\216Y\351\216\261\323\025\356\225\254g\203"
 398      078E59E9 
 398      8EB1D315 
 398      EE95AC67 
 398      83
 399 1396 52B7492D 		.ascii	"R\267I-n\324\207\204\3040\303\371\342JX\"\034\313Ml"
 399      6ED48784 
 399      C430C3F9 
 399      E24A5822 
 399      1CCB4D6C 
 400 13aa 1D153BB9 		.ascii	"\035\025;\271\333 \"\314\002\354e\236\024?V\206m\006"
 400      DB2022CC 
 400      02EC659E 
 400      143F5686 
 400      6D06
 401 13bc 8DFA906D 		.ascii	"\215\372\220m\270\342\372\255r!\000VE]vG\000\362L\240"
 401      B8E2FAAD 
 401      72210056 
 401      455D7647 
 401      00F24CA0 
 402 13d0 06EDD488 		.ascii	"\006\355\324\210C\243\352~\010\230\312R\254\024\243"
 402      43A3EA7E 
 402      0898CA52 
 402      AC14A3
 403 13df 87A1B759 		.ascii	"\207\241\267Y\035\246XW!\306 ?\035\345\260\255\340T"
 403      1DA65857 
 403      21C6203F 
 403      1DE5B0AD 
 403      E054
 404 13f1 956B1D24 		.ascii	"\225k\035$4\314\026\264\264:\200!\2139\334b\372\032"
 404      34CC16B4 
 404      B43A8021 
 404      8B39DC62 
 404      FA1A
ARM GAS  C:\Users\info\AppData\Local\Temp\ccplHCqN.s 			page 32


 405 1403 FCE78F54 		.ascii	"\374\347\217T\206Rg\332\032\001}\352h\245\017s\237\330"
 405      865267DA 
 405      1A017DEA 
 405      68A50F73 
 405      9FD8
 406 1415 4DF2F746 		.ascii	"M\362\367F\374\216\221q\314F\237h;X\017\332\361[\306"
 406      FC8E9171 
 406      CC469F68 
 406      3B580FDA 
 406      F15BC6
 407 1428 31328ED9 		.ascii	"12\216\331\350\215\223\361b\323\360\016\211\336\012"
 407      E88D93F1 
 407      62D3F00E 
 407      89DE0A
 408 1437 5CFCDA18 		.ascii	"\\\374\332\030\020\025\026c\0157Y\242m6\223-r\3472\204"
 408      10151663 
 408      0D3759A2 
 408      6D36932D 
 408      72E73284 
 409 144b B40D9F09 		.ascii	"\264\015\237\011T+\330\323\376\016\010\002\012=\220"
 409      542BD8D3 
 409      FE0E0802 
 409      0A3D90
 410 145a 21956D54 		.ascii	"!\225mT0\250\256\265\204\004FG\205\232\035V\334\003"
 410      30A8AEB5 
 410      84044647 
 410      859A1D56 
 410      DC03
 411 146c E0FEAB71 		.ascii	"\340\376\253q[\273W\232,!\313\344\252\320\260\035\326"
 411      5BBB579A 
 411      2C21CBE4 
 411      AAD0B01D 
 411      D6
 412 147d 081A19D7 		.ascii	"\010\032\031\327\360D\245\026\230\001\270\351C T\330"
 412      F044A516 
 412      9801B8E9 
 412      432054D8 
 413 148d A22D0E3D 		.ascii	"\242-\016=\333\320\341\177\275\021]\300\205\200\340"
 413      DBD0E17F 
 413      BD115DC0 
 413      8580E0
 414 149c EB223A7C 		.ascii	"\353\":|\303\303M\333\277\016\2070\267\212#\271\352"
 414      C3C34DDB 
 414      BF0E8730 
 414      B78A23B9 
 414      EA
 415 14ad 80A28BDE 		.ascii	"\200\242\213\336\034\263\031\274 $2:\302b\205\236a\320"
 415      1CB319BC 
 415      2024323A 
 415      C262859E 
 415      61D0
 416 14bf D50A0C37 		.ascii	"\325\012\0147\333\301/@MV\377\307J\275+b*M~\333\242"
 416      DBC12F40 
 416      4D56FFC7 
 416      4ABD2B62 
 416      2A4D7EDB 
 417 14d4 C222211A 		.ascii	"\302\"!\032\330\241\326\020\355\330\272\031\253\241"
ARM GAS  C:\Users\info\AppData\Local\Temp\ccplHCqN.s 			page 33


 417      D8A1D610 
 417      EDD8BA19 
 417      ABA1
 418 14e2 E3AFC380 		.ascii	"\343\257\303\200o\016\015\245\021\323/\354s\213\211"
 418      6F0E0DA5 
 418      11D32FEC 
 418      738B89
 419 14f1 79B03594 		.ascii	"y\2605\224\225\345\372\225\340\224\262\007\177M\303"
 419      95E5FA95 
 419      E094B207 
 419      7F4DC3
 420 1500 03DB067A 		.ascii	"\003\333\006z\210J\221\020\022\267\371\206D\333!\210"
 420      884A9110 
 420      12B7F986 
 420      44DB2188 
 421 1510 445A7E2D 		.ascii	"DZ~-G\205/>\227\243\002-,g#\233#B\35165\307\302\224"
 421      47852F3E 
 421      97A3022D 
 421      2C67239B 
 421      2342E936 
 422 1528 FCE8944C 		.ascii	"\374\350\224L;\354\340\361!>!\261\016:Mo\2139\024\276"
 422      3BECE0F1 
 422      213E21B1 
 422      0E3A4D6F 
 422      8B3914BE 
 423 153c 0CA161F6 		.ascii	"\014\241a\366(d\371DXc\300\343B\214\214\3156'\000W;"
 423      2864F944 
 423      5863C0E3 
 423      428C8CCD 
 423      36270057 
 424 1551 DD4A7EB8 		.ascii	"\335J~\270\374l\351\227o\005o\243Z)\001r\231\313\006"
 424      FC6CE997 
 424      6F056FA3 
 424      5A290172 
 424      99CB06
 425 1564 AE0A3FB6 		.ascii	"\256\012?\266\376\350\013\006VfO\256\334i\013\243\013"
 425      FEE80B06 
 425      56664FAE 
 425      DC690BA3 
 425      0B
 426 1575 1E1D6E97 		.ascii	"\036\035n\227kL\021\366 X[\263\011\036\212\206 \014"
 426      6B4C11F6 
 426      20585BB3 
 426      091E8A86 
 426      200C
 427 1587 2B0C552B 		.ascii	"+\014U+\251=\224\231\2326m\334\370\353\237\377Fo\217"
 427      A93D9499 
 427      9A366DDC 
 427      F8EB9FFF 
 427      466F8F
 428 159a 0A63C630 		.ascii	"\012c\3060\332\241\016[\266\377&\210\002\367\016\227"
 428      DAA10E5B 
 428      B6FF2688 
 428      02F70E97 
 429 15aa DB433DFA 		.ascii	"\333C=\372\013\202\355L\3433T\232v\232a{\357\260\257"
 429      0B82ED4C 
 429      E333549A 
ARM GAS  C:\Users\info\AppData\Local\Temp\ccplHCqN.s 			page 34


 429      769A617B 
 429      EFB0AF
 430 15bd 44C43FB9 		.ascii	"D\304?\271\303\276\006\3162\230>\354%\230\2739\204\252"
 430      C3BE06CE 
 430      32983EEC 
 430      2598BB39 
 430      84AA
 431 15cf 4DD911D0 		.ascii	"M\331\021\320@;`-\326\010\276!\310\215\035n\375\332"
 431      403B602D 
 431      D608BE21 
 431      C88D1D6E 
 431      FDDA
 432 15e1 1ABE9CA7 		.ascii	"\032\276\234\247\261\2325\314\254\2749e\2575\242U\321"
 432      B19A35CC 
 432      ACBC3965 
 432      AF35A255 
 432      D1
 433 15f2 4E9EC75B 		.ascii	"N\236\307[\314f8\336V,}\324\201k\212=\254P\334\020\375"
 433      CC6638DE 
 433      562C7DD4 
 433      816B8A3D 
 433      AC50DC10 
 434 1607 8D2EB537 		.ascii	"\215.\2657kw\340\321\211\264 p*s\264#\322u\010Y\315"
 434      6B77E0D1 
 434      89B42070 
 434      2A73B423 
 434      D2750859 
 435 161c 366FD6EC 		.ascii	"6o\326\354\370ou\243F\266"
 435      F86F75A3 
 435      46B6
 436              		.text
 437              		.section	.gnu.lto_.symtab.792bbdcf,"",%progbits
 438 0000 75386732 		.ascii	"u8g2_is_intersection_decision_tree\000"
 438      5F69735F 
 438      696E7465 
 438      72736563 
 438      74696F6E 
 439 0023 00       		.ascii	"\000"
 440 0024 00       		.ascii	"\000"
 441 0025 00       		.ascii	"\000"
 442 0026 00000000 		.ascii	"\000\000\000\000\000\000\000\000"
 442      00000000 
 443 002e BC000000 		.ascii	"\274\000\000\000"
 444 0032 75386732 		.ascii	"u8g2_IsIntersection\000"
 444      5F497349 
 444      6E746572 
 444      73656374 
 444      696F6E00 
 445 0046 00       		.ascii	"\000"
 446 0047 00       		.ascii	"\000"
 447 0048 00       		.ascii	"\000"
 448 0049 00000000 		.ascii	"\000\000\000\000\000\000\000\000"
 448      00000000 
 449 0051 23020000 		.ascii	"#\002\000\000"
 450              		.text
 451              		.section	.gnu.lto_.opts,"",%progbits
 452 0000 272D666D 		.ascii	"'-fmath-errno' '-fsigned-zeros' '-ftrapping-math' '"
ARM GAS  C:\Users\info\AppData\Local\Temp\ccplHCqN.s 			page 35


 452      6174682D 
 452      6572726E 
 452      6F272027 
 452      2D667369 
 453 0033 2D666E6F 		.ascii	"-fno-trapv' '-fno-strict-overflow' '-fno-openmp' '-"
 453      2D747261 
 453      70762720 
 453      272D666E 
 453      6F2D7374 
 454 0066 666E6F2D 		.ascii	"fno-openacc' '-mcpu=cortex-m3' '-mthumb' '-g' '-Og'"
 454      6F70656E 
 454      61636327 
 454      20272D6D 
 454      6370753D 
 455 0099 20272D66 		.ascii	" '-ffunction-sections' '-ffat-lto-objects' '-flto'\000"
 455      66756E63 
 455      74696F6E 
 455      2D736563 
 455      74696F6E 
 456              		.text
 457              		.cfi_sections	.debug_frame
 458              		.section	.text.u8g2_is_intersection_decision_tree,"ax",%progbits
 459              		.align	2
 460              		.global	u8g2_is_intersection_decision_tree
 461              		.thumb
 462              		.thumb_func
 463              		.type	u8g2_is_intersection_decision_tree, %function
 464              	u8g2_is_intersection_decision_tree:
 465              	.LFB0:
 466              		.file 1 "..\\u8g2_csrc\\u8g2_intersection.c"
   1:..\u8g2_csrc/u8g2_intersection.c **** /*
   2:..\u8g2_csrc/u8g2_intersection.c **** 
   3:..\u8g2_csrc/u8g2_intersection.c ****   u8g2_intersection.c 
   4:..\u8g2_csrc/u8g2_intersection.c ****   
   5:..\u8g2_csrc/u8g2_intersection.c ****   Intersection calculation, code taken from u8g_clip.c
   6:..\u8g2_csrc/u8g2_intersection.c **** 
   7:..\u8g2_csrc/u8g2_intersection.c ****   Universal 8bit Graphics Library (https://github.com/olikraus/u8g2/)
   8:..\u8g2_csrc/u8g2_intersection.c **** 
   9:..\u8g2_csrc/u8g2_intersection.c ****   Copyright (c) 2016, olikraus@gmail.com
  10:..\u8g2_csrc/u8g2_intersection.c ****   All rights reserved.
  11:..\u8g2_csrc/u8g2_intersection.c **** 
  12:..\u8g2_csrc/u8g2_intersection.c ****   Redistribution and use in source and binary forms, with or without modification, 
  13:..\u8g2_csrc/u8g2_intersection.c ****   are permitted provided that the following conditions are met:
  14:..\u8g2_csrc/u8g2_intersection.c **** 
  15:..\u8g2_csrc/u8g2_intersection.c ****   * Redistributions of source code must retain the above copyright notice, this list 
  16:..\u8g2_csrc/u8g2_intersection.c ****     of conditions and the following disclaimer.
  17:..\u8g2_csrc/u8g2_intersection.c ****     
  18:..\u8g2_csrc/u8g2_intersection.c ****   * Redistributions in binary form must reproduce the above copyright notice, this 
  19:..\u8g2_csrc/u8g2_intersection.c ****     list of conditions and the following disclaimer in the documentation and/or other 
  20:..\u8g2_csrc/u8g2_intersection.c ****     materials provided with the distribution.
  21:..\u8g2_csrc/u8g2_intersection.c **** 
  22:..\u8g2_csrc/u8g2_intersection.c ****   THIS SOFTWARE IS PROVIDED BY THE COPYRIGHT HOLDERS AND 
  23:..\u8g2_csrc/u8g2_intersection.c ****   CONTRIBUTORS "AS IS" AND ANY EXPRESS OR IMPLIED WARRANTIES, 
  24:..\u8g2_csrc/u8g2_intersection.c ****   INCLUDING, BUT NOT LIMITED TO, THE IMPLIED WARRANTIES OF 
  25:..\u8g2_csrc/u8g2_intersection.c ****   MERCHANTABILITY AND FITNESS FOR A PARTICULAR PURPOSE ARE 
  26:..\u8g2_csrc/u8g2_intersection.c ****   DISCLAIMED. IN NO EVENT SHALL THE COPYRIGHT HOLDER OR 
  27:..\u8g2_csrc/u8g2_intersection.c ****   CONTRIBUTORS BE LIABLE FOR ANY DIRECT, INDIRECT, INCIDENTAL, 
ARM GAS  C:\Users\info\AppData\Local\Temp\ccplHCqN.s 			page 36


  28:..\u8g2_csrc/u8g2_intersection.c ****   SPECIAL, EXEMPLARY, OR CONSEQUENTIAL DAMAGES (INCLUDING, BUT 
  29:..\u8g2_csrc/u8g2_intersection.c ****   NOT LIMITED TO, PROCUREMENT OF SUBSTITUTE GOODS OR SERVICES; 
  30:..\u8g2_csrc/u8g2_intersection.c ****   LOSS OF USE, DATA, OR PROFITS; OR BUSINESS INTERRUPTION) HOWEVER 
  31:..\u8g2_csrc/u8g2_intersection.c ****   CAUSED AND ON ANY THEORY OF LIABILITY, WHETHER IN CONTRACT, 
  32:..\u8g2_csrc/u8g2_intersection.c ****   STRICT LIABILITY, OR TORT (INCLUDING NEGLIGENCE OR OTHERWISE) 
  33:..\u8g2_csrc/u8g2_intersection.c ****   ARISING IN ANY WAY OUT OF THE USE OF THIS SOFTWARE, EVEN IF 
  34:..\u8g2_csrc/u8g2_intersection.c ****   ADVISED OF THE POSSIBILITY OF SUCH DAMAGE.  
  35:..\u8g2_csrc/u8g2_intersection.c **** 
  36:..\u8g2_csrc/u8g2_intersection.c **** */
  37:..\u8g2_csrc/u8g2_intersection.c **** 
  38:..\u8g2_csrc/u8g2_intersection.c **** #include "u8g2.h"
  39:..\u8g2_csrc/u8g2_intersection.c **** 
  40:..\u8g2_csrc/u8g2_intersection.c **** #ifdef __GNUC__
  41:..\u8g2_csrc/u8g2_intersection.c **** #define U8G2_ALWAYS_INLINE __inline__ __attribute__((always_inline))
  42:..\u8g2_csrc/u8g2_intersection.c **** #else
  43:..\u8g2_csrc/u8g2_intersection.c **** #define U8G2_ALWAYS_INLINE
  44:..\u8g2_csrc/u8g2_intersection.c **** #endif 
  45:..\u8g2_csrc/u8g2_intersection.c **** 
  46:..\u8g2_csrc/u8g2_intersection.c **** 
  47:..\u8g2_csrc/u8g2_intersection.c **** #if defined(U8G2_WITH_INTERSECTION) || defined(U8G2_WITH_CLIP_WINDOW_SUPPORT)
  48:..\u8g2_csrc/u8g2_intersection.c **** 
  49:..\u8g2_csrc/u8g2_intersection.c **** #ifdef OLD_VERSION_WITH_SYMETRIC_BOUNDARIES
  50:..\u8g2_csrc/u8g2_intersection.c **** 
  51:..\u8g2_csrc/u8g2_intersection.c **** /*
  52:..\u8g2_csrc/u8g2_intersection.c ****   intersection assumptions:
  53:..\u8g2_csrc/u8g2_intersection.c ****     a1 <= a2 is always true    
  54:..\u8g2_csrc/u8g2_intersection.c ****     
  55:..\u8g2_csrc/u8g2_intersection.c ****     minimized version
  56:..\u8g2_csrc/u8g2_intersection.c ****     ---1----0 1             b1 <= a2 && b1 > b2
  57:..\u8g2_csrc/u8g2_intersection.c ****     -----1--0 1             b2 >= a1 && b1 > b2
  58:..\u8g2_csrc/u8g2_intersection.c ****     ---1-1--- 1             b1 <= a2 && b2 >= a1
  59:..\u8g2_csrc/u8g2_intersection.c ****   */
  60:..\u8g2_csrc/u8g2_intersection.c **** 
  61:..\u8g2_csrc/u8g2_intersection.c **** 
  62:..\u8g2_csrc/u8g2_intersection.c **** /*
  63:..\u8g2_csrc/u8g2_intersection.c ****   calculate the intersection between a0/a1 and v0/v1
  64:..\u8g2_csrc/u8g2_intersection.c ****   The intersection check returns one if the range of a0/a1 has an intersection with v0/v1.
  65:..\u8g2_csrc/u8g2_intersection.c ****   The intersection check includes the boundary values v1 and a1.
  66:..\u8g2_csrc/u8g2_intersection.c **** 
  67:..\u8g2_csrc/u8g2_intersection.c ****   The following asserts will succeed:
  68:..\u8g2_csrc/u8g2_intersection.c ****     assert( u8g2_is_intersection_decision_tree(4, 6, 7, 9) == 0 );
  69:..\u8g2_csrc/u8g2_intersection.c ****     assert( u8g2_is_intersection_decision_tree(4, 6, 6, 9) != 0 );
  70:..\u8g2_csrc/u8g2_intersection.c ****     assert( u8g2_is_intersection_decision_tree(6, 9, 4, 6) != 0 );
  71:..\u8g2_csrc/u8g2_intersection.c ****     assert( u8g2_is_intersection_decision_tree(7, 9, 4, 6) == 0 );  
  72:..\u8g2_csrc/u8g2_intersection.c **** */
  73:..\u8g2_csrc/u8g2_intersection.c **** 
  74:..\u8g2_csrc/u8g2_intersection.c **** //static uint8_t U8G2_ALWAYS_INLINE u8g2_is_intersection_decision_tree(u8g_uint_t a0, u8g_uint_t a1
  75:..\u8g2_csrc/u8g2_intersection.c **** static uint8_t u8g2_is_intersection_decision_tree(u8g2_uint_t a0, u8g2_uint_t a1, u8g2_uint_t v0, u
  76:..\u8g2_csrc/u8g2_intersection.c **** {
  77:..\u8g2_csrc/u8g2_intersection.c ****   if ( v0 <= a1 )
  78:..\u8g2_csrc/u8g2_intersection.c ****   {
  79:..\u8g2_csrc/u8g2_intersection.c ****     if ( v1 >= a0 )
  80:..\u8g2_csrc/u8g2_intersection.c ****     {
  81:..\u8g2_csrc/u8g2_intersection.c ****       return 1;
  82:..\u8g2_csrc/u8g2_intersection.c ****     }
  83:..\u8g2_csrc/u8g2_intersection.c ****     else
  84:..\u8g2_csrc/u8g2_intersection.c ****     {
ARM GAS  C:\Users\info\AppData\Local\Temp\ccplHCqN.s 			page 37


  85:..\u8g2_csrc/u8g2_intersection.c ****       if ( v0 > v1 )
  86:..\u8g2_csrc/u8g2_intersection.c ****       {
  87:..\u8g2_csrc/u8g2_intersection.c **** 	return 1;
  88:..\u8g2_csrc/u8g2_intersection.c ****       }
  89:..\u8g2_csrc/u8g2_intersection.c ****       else
  90:..\u8g2_csrc/u8g2_intersection.c ****       {
  91:..\u8g2_csrc/u8g2_intersection.c **** 	return 0;
  92:..\u8g2_csrc/u8g2_intersection.c ****       }
  93:..\u8g2_csrc/u8g2_intersection.c ****     }
  94:..\u8g2_csrc/u8g2_intersection.c ****   }
  95:..\u8g2_csrc/u8g2_intersection.c ****   else
  96:..\u8g2_csrc/u8g2_intersection.c ****   {
  97:..\u8g2_csrc/u8g2_intersection.c ****     if ( v1 >= a0 )
  98:..\u8g2_csrc/u8g2_intersection.c ****     {
  99:..\u8g2_csrc/u8g2_intersection.c ****       if ( v0 > v1 )
 100:..\u8g2_csrc/u8g2_intersection.c ****       {
 101:..\u8g2_csrc/u8g2_intersection.c **** 	return 1;
 102:..\u8g2_csrc/u8g2_intersection.c ****       }
 103:..\u8g2_csrc/u8g2_intersection.c ****       else
 104:..\u8g2_csrc/u8g2_intersection.c ****       {
 105:..\u8g2_csrc/u8g2_intersection.c **** 	return 0;
 106:..\u8g2_csrc/u8g2_intersection.c ****       }
 107:..\u8g2_csrc/u8g2_intersection.c ****     }
 108:..\u8g2_csrc/u8g2_intersection.c ****     else
 109:..\u8g2_csrc/u8g2_intersection.c ****     {
 110:..\u8g2_csrc/u8g2_intersection.c ****       return 0;
 111:..\u8g2_csrc/u8g2_intersection.c ****     }
 112:..\u8g2_csrc/u8g2_intersection.c ****   }
 113:..\u8g2_csrc/u8g2_intersection.c **** }
 114:..\u8g2_csrc/u8g2_intersection.c **** 
 115:..\u8g2_csrc/u8g2_intersection.c **** #endif	/* OLD_VERSION_WITH_SYMETRIC_BOUNDARIES */
 116:..\u8g2_csrc/u8g2_intersection.c **** 
 117:..\u8g2_csrc/u8g2_intersection.c **** 
 118:..\u8g2_csrc/u8g2_intersection.c **** /*
 119:..\u8g2_csrc/u8g2_intersection.c ****   version with asymetric boundaries.
 120:..\u8g2_csrc/u8g2_intersection.c ****   a1 and v1 are excluded
 121:..\u8g2_csrc/u8g2_intersection.c ****   v0 == v1 is not support end return 1
 122:..\u8g2_csrc/u8g2_intersection.c **** */
 123:..\u8g2_csrc/u8g2_intersection.c **** uint8_t u8g2_is_intersection_decision_tree(u8g2_uint_t a0, u8g2_uint_t a1, u8g2_uint_t v0, u8g2_uin
 124:..\u8g2_csrc/u8g2_intersection.c **** {
 467              		.loc 1 124 0
 468              		.cfi_startproc
 469              		@ args = 0, pretend = 0, frame = 0
 470              		@ frame_needed = 0, uses_anonymous_args = 0
 471              		@ link register save eliminated.
 472              	.LVL0:
 125:..\u8g2_csrc/u8g2_intersection.c ****   if ( v0 < a1 )		// v0 <= a1
 473              		.loc 1 125 0
 474 0000 8A42     		cmp	r2, r1
 475 0002 05D2     		bcs	.L2
 126:..\u8g2_csrc/u8g2_intersection.c ****   {
 127:..\u8g2_csrc/u8g2_intersection.c ****     if ( v1 > a0 )	// v1 >= a0
 476              		.loc 1 127 0
 477 0004 8342     		cmp	r3, r0
 478 0006 09D8     		bhi	.L4
 128:..\u8g2_csrc/u8g2_intersection.c ****     {
 129:..\u8g2_csrc/u8g2_intersection.c ****       return 1;
ARM GAS  C:\Users\info\AppData\Local\Temp\ccplHCqN.s 			page 38


 130:..\u8g2_csrc/u8g2_intersection.c ****     }
 131:..\u8g2_csrc/u8g2_intersection.c ****     else
 132:..\u8g2_csrc/u8g2_intersection.c ****     {
 133:..\u8g2_csrc/u8g2_intersection.c ****       if ( v0 > v1 )	// v0 > v1
 479              		.loc 1 133 0
 480 0008 9A42     		cmp	r2, r3
 481 000a 09D9     		bls	.L5
 134:..\u8g2_csrc/u8g2_intersection.c ****       {
 135:..\u8g2_csrc/u8g2_intersection.c **** 	return 1;
 482              		.loc 1 135 0
 483 000c 0120     		movs	r0, #1
 484              	.LVL1:
 485 000e 7047     		bx	lr
 486              	.LVL2:
 487              	.L2:
 136:..\u8g2_csrc/u8g2_intersection.c ****       }
 137:..\u8g2_csrc/u8g2_intersection.c ****       else
 138:..\u8g2_csrc/u8g2_intersection.c ****       {
 139:..\u8g2_csrc/u8g2_intersection.c **** 	return 0;
 140:..\u8g2_csrc/u8g2_intersection.c ****       }
 141:..\u8g2_csrc/u8g2_intersection.c ****     }
 142:..\u8g2_csrc/u8g2_intersection.c ****   }
 143:..\u8g2_csrc/u8g2_intersection.c ****   else
 144:..\u8g2_csrc/u8g2_intersection.c ****   {
 145:..\u8g2_csrc/u8g2_intersection.c ****     if ( v1 > a0 )	// v1 >= a0
 488              		.loc 1 145 0
 489 0010 8342     		cmp	r3, r0
 490 0012 07D9     		bls	.L6
 146:..\u8g2_csrc/u8g2_intersection.c ****     {
 147:..\u8g2_csrc/u8g2_intersection.c ****       if ( v0 > v1 )	// v0 > v1
 491              		.loc 1 147 0
 492 0014 9A42     		cmp	r2, r3
 493 0016 07D9     		bls	.L7
 148:..\u8g2_csrc/u8g2_intersection.c ****       {
 149:..\u8g2_csrc/u8g2_intersection.c **** 	return 1;
 494              		.loc 1 149 0
 495 0018 0120     		movs	r0, #1
 496              	.LVL3:
 497 001a 7047     		bx	lr
 498              	.LVL4:
 499              	.L4:
 129:..\u8g2_csrc/u8g2_intersection.c ****     }
 500              		.loc 1 129 0
 501 001c 0120     		movs	r0, #1
 502              	.LVL5:
 503 001e 7047     		bx	lr
 504              	.LVL6:
 505              	.L5:
 139:..\u8g2_csrc/u8g2_intersection.c ****       }
 506              		.loc 1 139 0
 507 0020 0020     		movs	r0, #0
 508              	.LVL7:
 509 0022 7047     		bx	lr
 510              	.LVL8:
 511              	.L6:
 150:..\u8g2_csrc/u8g2_intersection.c ****       }
 151:..\u8g2_csrc/u8g2_intersection.c ****       else
ARM GAS  C:\Users\info\AppData\Local\Temp\ccplHCqN.s 			page 39


 152:..\u8g2_csrc/u8g2_intersection.c ****       {
 153:..\u8g2_csrc/u8g2_intersection.c **** 	return 0;
 154:..\u8g2_csrc/u8g2_intersection.c ****       }
 155:..\u8g2_csrc/u8g2_intersection.c ****     }
 156:..\u8g2_csrc/u8g2_intersection.c ****     else
 157:..\u8g2_csrc/u8g2_intersection.c ****     {
 158:..\u8g2_csrc/u8g2_intersection.c ****       return 0;
 512              		.loc 1 158 0
 513 0024 0020     		movs	r0, #0
 514              	.LVL9:
 515 0026 7047     		bx	lr
 516              	.LVL10:
 517              	.L7:
 153:..\u8g2_csrc/u8g2_intersection.c ****       }
 518              		.loc 1 153 0
 519 0028 0020     		movs	r0, #0
 520              	.LVL11:
 159:..\u8g2_csrc/u8g2_intersection.c ****     }
 160:..\u8g2_csrc/u8g2_intersection.c ****   }
 161:..\u8g2_csrc/u8g2_intersection.c **** }
 521              		.loc 1 161 0
 522 002a 7047     		bx	lr
 523              		.cfi_endproc
 524              	.LFE0:
 525              		.size	u8g2_is_intersection_decision_tree, .-u8g2_is_intersection_decision_tree
 526              		.section	.text.u8g2_IsIntersection,"ax",%progbits
 527              		.align	2
 528              		.global	u8g2_IsIntersection
 529              		.thumb
 530              		.thumb_func
 531              		.type	u8g2_IsIntersection, %function
 532              	u8g2_IsIntersection:
 533              	.LFB1:
 162:..\u8g2_csrc/u8g2_intersection.c **** 
 163:..\u8g2_csrc/u8g2_intersection.c **** 
 164:..\u8g2_csrc/u8g2_intersection.c **** 
 165:..\u8g2_csrc/u8g2_intersection.c **** /* upper limits are not included (asymetric boundaries) */
 166:..\u8g2_csrc/u8g2_intersection.c **** uint8_t u8g2_IsIntersection(u8g2_t *u8g2, u8g2_uint_t x0, u8g2_uint_t y0, u8g2_uint_t x1, u8g2_uint
 167:..\u8g2_csrc/u8g2_intersection.c **** {
 534              		.loc 1 167 0
 535              		.cfi_startproc
 536              		@ args = 4, pretend = 0, frame = 0
 537              		@ frame_needed = 0, uses_anonymous_args = 0
 538              	.LVL12:
 539 0000 70B5     		push	{r4, r5, r6, lr}
 540              		.cfi_def_cfa_offset 16
 541              		.cfi_offset 4, -16
 542              		.cfi_offset 5, -12
 543              		.cfi_offset 6, -8
 544              		.cfi_offset 14, -4
 545 0002 0446     		mov	r4, r0
 546 0004 0D46     		mov	r5, r1
 547 0006 1E46     		mov	r6, r3
 168:..\u8g2_csrc/u8g2_intersection.c ****   if ( u8g2_is_intersection_decision_tree(u8g2->user_y0, u8g2->user_y1, y0, y1) == 0 )
 548              		.loc 1 168 0
 549 0008 9DF81030 		ldrb	r3, [sp, #16]	@ zero_extendqisi2
 550              	.LVL13:
ARM GAS  C:\Users\info\AppData\Local\Temp\ccplHCqN.s 			page 40


 551 000c 90F84810 		ldrb	r1, [r0, #72]	@ zero_extendqisi2
 552              	.LVL14:
 553 0010 90F84700 		ldrb	r0, [r0, #71]	@ zero_extendqisi2
 554              	.LVL15:
 555 0014 FFF7FEFF 		bl	u8g2_is_intersection_decision_tree
 556              	.LVL16:
 557 0018 0346     		mov	r3, r0
 558 001a 40B1     		cbz	r0, .L9
 169:..\u8g2_csrc/u8g2_intersection.c ****     return 0; 
 170:..\u8g2_csrc/u8g2_intersection.c ****   
 171:..\u8g2_csrc/u8g2_intersection.c ****   return u8g2_is_intersection_decision_tree(u8g2->user_x0, u8g2->user_x1, x0, x1);
 559              		.loc 1 171 0
 560 001c 3346     		mov	r3, r6
 561 001e 2A46     		mov	r2, r5
 562 0020 94F84610 		ldrb	r1, [r4, #70]	@ zero_extendqisi2
 563 0024 94F84500 		ldrb	r0, [r4, #69]	@ zero_extendqisi2
 564 0028 FFF7FEFF 		bl	u8g2_is_intersection_decision_tree
 565              	.LVL17:
 566 002c 0346     		mov	r3, r0
 567              	.L9:
 172:..\u8g2_csrc/u8g2_intersection.c **** }
 568              		.loc 1 172 0
 569 002e 1846     		mov	r0, r3
 570 0030 70BD     		pop	{r4, r5, r6, pc}
 571              		.cfi_endproc
 572              	.LFE1:
 573              		.size	u8g2_IsIntersection, .-u8g2_IsIntersection
 574 0032 00BF     		.text
 575              	.Letext0:
 576              		.file 2 "c:\\program files (x86)\\cypress\\psoc creator\\4.2\\psoc creator\\import\\gnu\\arm\\5.4.
 577              		.file 3 "c:\\program files (x86)\\cypress\\psoc creator\\4.2\\psoc creator\\import\\gnu\\arm\\5.4.
 578              		.file 4 "..\\u8g2_csrc\\u8x8.h"
 579              		.file 5 "..\\u8g2_csrc\\u8g2.h"