ARM GAS  C:\Users\info\AppData\Local\Temp\ccfsgCAa.s 			page 1


   1              		.syntax unified
   2              		.cpu cortex-m3
   3              		.fpu softvfp
   4              		.eabi_attribute 20, 1
   5              		.eabi_attribute 21, 1
   6              		.eabi_attribute 23, 3
   7              		.eabi_attribute 24, 1
   8              		.eabi_attribute 25, 1
   9              		.eabi_attribute 26, 1
  10              		.eabi_attribute 30, 1
  11              		.eabi_attribute 34, 1
  12              		.eabi_attribute 18, 4
  13              		.thumb
  14              		.syntax unified
  15              		.file	"u8g2_ll_hvline.c"
  16              		.text
  17              	.Ltext0:
  18              		.section	.gnu.lto_.profile.792bbfd9,"",%progbits
  19 0000 789C6361 		.ascii	"x\234ca`d`a`\000\222\011q\000\001\210\000\311"
  19      60646061 
  19      60009209 
  19      71000188 
  19      00C9
  20              		.text
  21              		.section	.gnu.lto_.inline.792bbfd9,"",%progbits
  22 0000 789C6361 		.ascii	"x\234ca`d\000\001]\006\004`b`0\\\300\310\310\300\024"
  22      60640001 
  22      5D060460 
  22      6260305C 
  22      C0C8C8C0 
  23 0015 BEED8E10 		.ascii	"\276\355\216\020\003wW\022\023H\224\221\301p5H0l\326"
  23      03775712 
  23      13489491 
  23      C1703548 
  23      306CD6
  24 0028 6461069E 		.ascii	"da\006\236=w\030\301\242\014\000\3056\010\034"
  24      3D7718C1 
  24      A20C00C5 
  24      36081C
  25              		.text
  26              		.section	.gnu.lto_.jmpfuncs.792bbfd9,"",%progbits
  27 0000 789C6361 		.ascii	"x\234ca`d\000\001\016\006\004`\002b\220(\000\001Z\000"
  27      60640001 
  27      0E060460 
  27      02629028 
  27      00015A00 
  28 0014 11       		.ascii	"\021"
  29              		.text
  30              		.section	.gnu.lto_.pureconst.792bbfd9,"",%progbits
  31 0000 789C6361 		.ascii	"x\234ca`d`e```b\220b\224\002\000\000\355\000B"
  31      60646065 
  31      60606062 
  31      90629402 
  31      0000ED00 
  32              		.text
  33              		.section	.gnu.lto_u8g2_ll_hvline_vertical_top_lsb.792bbfd9,"",%progbits
  34 0000 789C8D56 		.ascii	"x\234\215V}PT\327\025\277\347\335\267o\277\336.\037"
ARM GAS  C:\Users\info\AppData\Local\Temp\ccfsgCAa.s 			page 2


  34      7D5054D7 
  34      15BFE7DD 
  34      B76FBFDE 
  34      2E1F
  35 0012 4B8DA32B 		.ascii	"K\215\243+b\024\021?\020\203\2505B$\330\214\223\277"
  35      6214113F 
  35      1083A835 
  35      4224D88C 
  35      93BF
  36 0024 DAA47F65 		.ascii	"\332\244\177e2\343\244\3264Ni\264J;v\2463y\360`A\306"
  36      32E3A4D6 
  36      344E69B4 
  36      4A3B76A6 
  36      3379F060 
  37 003a 893A35A6 		.ascii	"\211:5\2461j\322\217T\342G\224\250ED\342j\015$\210\032"
  37      316AD28F 
  37      54E24794 
  37      A84544E2 
  37      6A0D2488 
  38 004f 449216AD 		.ascii	"D\222\026\255\037\230!3\031'\003\233\030m\324\320s\316"
  38      1F982133 
  38      1927039B 
  38      186DD4D0 
  38      73CE
  39 0061 7D1B1E60 		.ascii	"}\033\036`Zwf\317\356=\367\374~\347\336s\316=\367\352"
  39      5A7766CF 
  39      EE3DF7FC 
  39      7EE7DE73 
  39      CE3DF7EA 
  40 0075 02047D2A 		.ascii	"\002\004}*\302B<\203\277\036\034B\206\000m\323YT\372"
  40      C2423C83 
  40      BF1E1C42 
  40      86006DD3 
  40      5954FA
  41 0088 344D6EF8 		.ascii	"4Mn\370\201\260\002z\325\017\205eJ\320\225Z\327<o.@"
  41      81B0027A 
  41      D50F8565 
  41      4AD0955A 
  41      D73C6F2E 
  42 009d B5D18F93 		.ascii	"\265\321\217\223\246\007\014\24564om\016\252}$M/\244"
  42      A6070CA5 
  42      36346F6D 
  42      0EAA7D24 
  42      4D2FA4
  43 00b0 921A52B5 		.ascii	"\222\032R\265\364\015m\002\325)U^T\247+u\211\017\322"
  43      F40D6D02 
  43      D529555E 
  43      54A72B75 
  43      890FD2
  44 00c3 783A4DF3 		.ascii	"x:M\3633(\304 \277\026`\207Av\030\200\240b\016j&;\014"
  44      3328C420 
  44      BF166087 
  44      41761880 
  44      A0620E6A 
  45 00da B34313C2 		.ascii	"\263C\023\302J\035J\376\011k\021\267\217\210\342.I\001"
  45      4A1D4AFE 
  45      096B11B7 
ARM GAS  C:\Users\info\AppData\Local\Temp\ccfsgCAa.s 			page 3


  45      8F88E22E 
  45      4901
  46 00ec A05FCB07 		.ascii	"\240_\313\007\342%M\352\036\303\233\232\356K\363\007"
  46      E2254DEA 
  46      1EC39B9A 
  46      EE4BF307 
  47 00fc 8266281C 		.ascii	"\202f(\034I\201\227d\232\200\270\016\203*\006\251\356"
  47      49819764 
  47      9A80B80E 
  47      832A06A9 
  47      EE
  48 010d C14DED9E 		.ascii	"\301M\355\236\006'k\372\232\264\334]\026~\256V\367\345"
  48      06276BFA 
  48      9AB4DC5D 
  48      167EAE56 
  48      F7E5
  49 011f 5BF571A8 		.ascii	"[\365q\250\226B\014jl\"`\027\344\242Ug\325\201\355\362"
  49      96420C6A 
  49      6C226017 
  49      E4A25567 
  49      D581EDF2 
  50 0133 2BAD5A02 		.ascii	"+\255Z\002\3508\0348\263\355z\230\206\032d\341\260\242"
  50      E8381C38 
  50      B3ED7A98 
  50      861A64E1 
  50      B0A2
  51 0145 F5B38A14 		.ascii	"\365\263\212\0249\011\004\376?\334zxg8\347-\313\252"
  51      390904FE 
  51      3FDC7A78 
  51      6738E72D 
  51      CBAA
  52 0157 B4AC9615 		.ascii	"\264\254\226\025\226\277ZJ\330\015\022\371\340m\210"
  52      96BF5A4A 
  52      D80D12F9 
  52      E06D88
  53 0166 423D4405 		.ascii	"B=D\005\252\004\354\201\034\264\336v\264\2462 \2472"
  53      AA04EC81 
  53      1CB4DE76 
  53      B4A63220 
  53      A732
  54 0178 72CB9EDB 		.ascii	"r\313\236\333\257\373\034\344\346\326\240\225_-u\330"
  54      AFFB1CE4 
  54      E6D6A095 
  54      5F2D75D8 
  55 0188 ABA00551 		.ascii	"\253\240\005Q\310'\240.`\037\003\217\325\235\276\353"
  55      C827A02E 
  55      601F038F 
  55      D59DBEEB 
  56 0198 93D318B8 		.ascii	"\223\323\030\270\276\247\265\337p\200\307\223\300wF"
  56      BEA7B5DF 
  56      7080C793 
  56      C07746
  57 01a7 01F733F0 		.ascii	"\001\3673\360\216U\321\015r:\003on\373\244\013\034\340"
  57      8E55D10D 
  57      723A036F 
  57      6EFBA40B 
  57      1CE0
ARM GAS  C:\Users\info\AppData\Local\Temp\ccfsgCAa.s 			page 4


  58 01b9 BD24F0C0 		.ascii	"\275$\360\300(`\003\003\233v\354\274\025\222y\014|\275"
  58      28600303 
  58      9B76ECBC 
  58      1592790C 
  58      7CBD
  59 01cb FB838BC9 		.ascii	"\373\203\213\311\2456\2661\320\003\357\016\007z\004"
  59      A536B631 
  59      D003EF0E 
  59      077A04
  60 01da 1C841CB2 		.ascii	"\034\204\034\262>]\267\2613E>\302\310?\237\270^\357"
  60      3E5DB7B1 
  60      33453EC2 
  60      C83F9FB8 
  60      5EEF
  61 01ec CBFE0B21 		.ascii	"\313\376\013!\343\315\2611\257Z\361\212,\002\037r\203"
  61      E3CDB131 
  61      AF5AF18A 
  61      2C021F72 
  61      83
  62 01fd E983B635 		.ascii	"\351\203\2665\025\361\015R>\312\270+\366\301\217M\205"
  62      15F10D52 
  62      3ECAB82B 
  62      F6C18F4D 
  62      85
  63 020e B31A9FB5 		.ascii	"\263\032\237\265\354\305\004\372\373}@\203\177;\260"
  63      ECC504FA 
  63      FB7D4083 
  63      7F3BB0
  64 021d DE274B19 		.ascii	"\336'K\031t\362\353\253\233u\307Y\223\313\331\221\373"
  64      74F2EBAB 
  64      9B75C759 
  64      93CBD991 
  64      FB
  65 022e E01AAEEE 		.ascii	"\340\032\256\3569n\310\245\214{\353\354\365\317\345"
  65      396EC8A5 
  65      8C7BEBEC 
  65      F5CFE5
  66 023d 486747EF 		.ascii	"HgG\357\003z\371B]\257\224?V \353@\235\337q\326\030"
  66      037AF942 
  66      5DAF943F 
  66      5620EB40 
  66      9DDF71D6 
  67 0252 0BBF66C5 		.ascii	"\013\277f\305\253\320\231\001\307\206'\337A\276?x+\236"
  67      ABD09901 
  67      C78627DF 
  67      41BE3F78 
  67      2B9E
  68 0264 A20A8AAA 		.ascii	"\242\012\212\252\360|\177\307\216\240*\250T\034~\365"
  68      F07C7FC7 
  68      8EA02AA8 
  68      541C7EF5 
  69 0274 879E2B61 		.ascii	"\207\236+a\371S\346\275\265\357\265\215\206\303{(fZ"
  69      F953E6BD 
  69      B5EFB58D 
  69      86C37B28 
  69      665A
  70 0286 1F59BE6A 		.ascii	"\037Y\276j\351\205\270\242=\216\264\357\015\321\366"
ARM GAS  C:\Users\info\AppData\Local\Temp\ccfsgCAa.s 			page 5


  70      E985B8A2 
  70      3D8EB4EF 
  70      0DD1F6
  71 0295 367CFB4A 		.ascii	"6|\373J\310\250\242j\316\202\023\220\015-\370m\306o"
  71      C8A8A26A 
  71      CE821390 
  71      0D2DF86D 
  71      C66F
  72 02a7 137E1BF1 		.ascii	"\023~\033\361{\030\262Um\303I0\360\030\350\303\254\320"
  72      7B18B255 
  72      6DC34930 
  72      F018E8C3 
  72      ACD0
  73 02b9 62FF5371 		.ascii	"b\377Sqkp\320\266\342\007\215\023\375\201\037\001\247"
  73      6B70D0B6 
  73      E2078D13 
  73      FD811F01 
  73      A7
  74 02ca 5F638955 		.ascii	"_c\211U\213\206:K\017KC\020\314+\010\350c\351g\031`"
  74      8B863A4B 
  74      0F4B4310 
  74      CC2B08E8 
  74      63E96719 
  75 02df 196469B2 		.ascii	"\031di\262\014\261L\003\252\302t\306F\030\233\201\225"
  75      0CB14C03 
  75      AAC274C6 
  75      46189B81 
  75      95
  76 02f0 026350F8 		.ascii	"\002cP\370\036\"1\226\315\306\001\035\217\361\250\360"
  76      1E223196 
  76      CDC6011D 
  76      8FF1A8F0 
  77 0300 47D9F304 		.ascii	"G\331\363\004Fd2b\242\240%g\261\234\204&\201\207\311"
  77      46643262 
  77      A2A02567 
  77      B19C8426 
  77      8187C9
  78 0313 6E328AE0 		.ascii	"n2\212\340\024Vf\263\361T\"\316a\3644\240C\223K\212"
  78      145666B3 
  78      F15422CE 
  78      61F434A0 
  78      43934B8A 
  79 0327 E93C3703 		.ascii	"\351<7\003\2504g\002M\316\"t\036\211|\366=\207\376\026"
  79      A8346702 
  79      4DCE2274 
  79      1E897CF6 
  79      3D87FE16 
  80 033b B0D95C56 		.ascii	"\260\331\\V\0242\307<R\317'\261\220\304\"^J\021\313"
  80      1432C73C 
  80      52CF27B1 
  80      90C4225E 
  80      4A11CB
  81 034e 6236788C 		.ascii	"b6x\214\324\213\311G\011\203\037\247q)3,a)D?\306\275"
  81      D48BC947 
  81      09831FA7 
  81      7129332C 
  81      6129443F 
ARM GAS  C:\Users\info\AppData\Local\Temp\ccfsgCAa.s 			page 6


  82 0364 362C0634 		.ascii	"6,\0064\015\177d/T\306\007ZC\234\007d\261\261Q\365\201"
  82      0D7F642F 
  82      54C6075A 
  82      439C0764 
  82      B1B151F5 
  83 0379 7D37D63E 		.ascii	"}7\326>\236T\266\214\240\0063\372a\373\253\365&U\206"
  83      9E54B68C 
  83      A00633FA 
  83      61FBABF5 
  83      265586
  84 038c 07BCF00F 		.ascii	"\007\274\360\017\314t/hC\230\210 \232\2331\223U\230"
  84      CC742F68 
  84      43988820 
  84      9A9B3193 
  84      5598
  85 039e 64EA4035 		.ascii	"d\352@5\035\015\001\205\0008\205\210>\250L\324\3648"
  85      1D0D0185 
  85      00388588 
  85      3EA84CD4 
  85      F438
  86 03b0 B4630884 		.ascii	"\264c\010\204\216\372\0155~\010fDQ\313F^\245\032\213"
  86      8EFA0D35 
  86      7E086644 
  86      51CB465E 
  86      A51A8B
  87 03c3 DAEFDC34 		.ascii	"\332\357\3344\221\233\261\354\346\216\263\332Fv\263"
  87      919BB1EC 
  87      E68EB3DA 
  87      4676B3
  88 03d2 B5FAE439 		.ascii	"\265\372\3449\257r#\340}^Xe\374^,\314&Xf\254C\326\243"
  88      AF7223E0 
  88      7D5E5865 
  88      FC5E2CCC 
  88      265866AC 
  89 03e9 9D5740F1 		.ascii	"\235W@\361\216w\243\244*\356\266\366Z\363\015\330\201"
  89      8E77A3A4 
  89      2AEEB6F6 
  89      5AF30DD8 
  89      81
  90 03fa 3DD7B4E5 		.ascii	"=\327\264\3458h\245R\246\303\364i\345;\336\331\263\210"
  90      3868A552 
  90      A6C3F469 
  90      E53BDED9 
  90      B388
  91 040c BC0DDE80 		.ascii	"\274\015\336\200o\271\033\303\0070[\\\203\252s\366\270"
  91      6FB91BC3 
  91      07305B5C 
  91      83AA73F6 
  91      B8
  92 041d 21C243A7 		.ascii	"!\302C\247\332b>\"\364\343n?tN\302\200&E\237\344\020"
  92      DA623E22 
  92      F4E36E3F 
  92      744EC280 
  92      26459FE4 
  93 0432 6FAE4949 		.ascii	"o\256II.\232\366As\272\023\376T\241\264^\"\275h\357"
  93      2E9AF641 
  93      73BA13FE 
ARM GAS  C:\Users\info\AppData\Local\Temp\ccfsgCAa.s 			page 7


  93      54A1B45E 
  93      22BD68EF 
  94 0446 7AD909C9 		.ascii	"z\331\011\311\370$O\002C\216\273\320.5\226!VnhZ\207"
  94      F8244F02 
  94      438EBBD0 
  94      2E359621 
  94      566E685A 
  95 045b 688FD814 		.ascii	"h\217\330\024`\346-\336\344V\223\304\306\0201k\203*"
  95      60E62DDE 
  95      E45693C4 
  95      C610316B 
  95      832A
  96 046d F45F6C9F 		.ascii	"\364_l\237\253\210'R\222\223\201=A\026\023U\316\023"
  96      AB882752 
  96      9293813D 
  96      41161355 
  96      CE13
  97 047f 51659085 		.ascii	"Qe\220\205\032j\356\353\377\324\314\335\300\013\267"
  97      1A6AEEEB 
  97      FFD4CCDD 
  97      C00BB7
  98 048e 0725B4BB 		.ascii	"\007%\264\273\262\316\250,\216\353\300g\003N\302&\271"
  98      B2CEA82C 
  98      8EEBC067 
  98      034EC226 
  98      B9
  99 049f 031B1A19 		.ascii	"\003\033\032\031\3300\005\366\364\310\300\006\240\203"
  99      D83005F6 
  99      F4C8C006 
  99      A083
 100 04ad 034B5721 		.ascii	"\003KW!\234\301\300\022\345\265<E\370\260\23300\222"
 100      9CC1C012 
 100      E5B53C45 
 100      F8B09B30 
 100      3092
 101 04bf 30053DC2 		.ascii	"0\005=\302Y\207p\347\037\217|\031\236\275\317J\255\226"
 101      598770E7 
 101      1F8F7C19 
 101      9EBDCF4A 
 101      AD96
 102 04d1 A9708E29 		.ascii	"\251p\216)\271\275|\244(\0235\027\234\354OFZ\332\355"
 102      B9BD7CA4 
 102      28133517 
 102      9CEC4F46 
 102      5ADAED
 103 04e4 3627CA53 		.ascii	"6'\312Sx\273\223\207\357l\012/\243\341\306\257\225M"
 103      78BB9387 
 103      EF6C0A2F 
 103      A3E1C6AF 
 103      954D
 104 04f6 B6CB7105 		.ascii	"\266\313q\0055\265G\305\367\025\212\001\235\354\\\222"
 104      35B547C5 
 104      F7158A01 
 104      9DEC5C92 
 105 0506 F3F3E81C 		.ascii	"\363\363\350\034\363`\251\324\267\020s\266ZM\373\004"
 105      F360A9D4 
 105      B71073B6 
ARM GAS  C:\Users\info\AppData\Local\Temp\ccfsgCAa.s 			page 8


 105      5A4DFB04 
 106 0516 C53C957C 		.ascii	"\305<\225|%]\267pA\267\036\271|\336\277\364\011\244"
 106      255DB770 
 106      41B71EB9 
 106      7CDEBFF4 
 106      09A4
 107 0528 426BB4A0 		.ascii	"Bk\264\240)\001]\260T!\317;\310\\[N\243}l}B\3302\203"
 107      29015DB0 
 107      5421CF3B 
 107      C85C5B4E 
 107      A37D6C7D 
 108 0540 997269BC 		.ascii	"\231ri\274\335\331\327tFg\270\311QI%\326c\177\231,\261"
 108      DDD9D774 
 108      4667B8C9 
 108      514925D6 
 108      637F992C 
 109 0555 19E86FFF 		.ascii	"\031\350o\377\215\246\377\204T\345\012\270\220\254\270"
 109      8DA6FF84 
 109      54E50AB8 
 109      90ACB8
 110 0564 20559C7E 		.ascii	" U\234~\243q5\026\225g/W\234WTy%N\345\330r\246\001\011"
 110      A3713516 
 110      95672F57 
 110      9C575479 
 110      254EE5D8 
 111 057c 48473E63 		.ascii	"HG>cos\024\247R\005>~@\225\034;\222B\015\032\310\032"
 111      6F7314A7 
 111      52053E7E 
 111      40951C3B 
 111      92420D1A 
 112 0592 68E5DFD4 		.ascii	"h\345\337\324\365d*\247\263\334Y5Ff\325\203`\350\246"
 112      F5642AA7 
 112      B3DC5935 
 112      4666D583 
 112      60E8A6
 113 05a5 65C0C718 		.ascii	"e\300\307\030I\332\322mg\265yxF\020Nl[9\233\337\213"
 113      49DAD26D 
 113      67B57978 
 113      46104E6C 
 113      5B399BDF 
 114 05ba FC049168 		.ascii	"\374\004\221hO\340ob\275\216\3379x\022\224\362\377\301"
 114      4FE06F62 
 114      BD8EDF39 
 114      781294F2 
 114      FFC1
 115 05cc FFC9F039 		.ascii	"\377\311\3609\034\316\330\027;\003\012_@\006\371\321"
 115      1CCED817 
 115      3B030A5F 
 115      4006F9D1 
 116 05dc E1112DE0 		.ascii	"\341\021-\340\034\304\022\216\217B\334-\322v\331\247"
 116      1CC4128E 
 116      8F42DC2D 
 116      D276D9A7 
 117 05ec CEF13B8D 		.ascii	"\316\361;\215\036y\360/\327\301\341\200\024\252\223"
 117      1E79F02F 
 117      D7C1E180 
 117      14AA93
ARM GAS  C:\Users\info\AppData\Local\Temp\ccfsgCAa.s 			page 9


 118 05fb 7E7CA373 		.ascii	"~|\243sp\012\207\342\216~s\274(\012\323o\264d$@\332"
 118      700A87E2 
 118      8E7E73BC 
 118      280AD36F 
 118      B4642440 
 119 0610 329D8605 		.ascii	"2\235\206\005\351\027\212\260q\247\013|{\302\200\346"
 119      E9178AB0 
 119      71A70B7C 
 119      7BC280E6 
 120 0620 73521175 		.ascii	"sR\021uR1\301IE\0022\261\257\032\333\033\313\022\220"
 120      5231C149 
 120      450232B1 
 120      AF1ADB1B 
 120      CB1290
 121 0633 8FD1A2B9 		.ascii	"\217\321\242\271\271\270m\214\362\200\226\346J\022\367"
 121      B9B86D8C 
 121      F28096E6 
 121      4A12F7
 122 0642 0553B8BA 		.ascii	"\005S\270\272\217\317\031p?7\204+\227\272;\227\232\312"
 122      8FCF1970 
 122      3F37842B 
 122      97BA3B97 
 122      9ACA
 123 0654 656BFD02 		.ascii	"ek\375\002\265\364y\243\202\250;A\354\031\221\275\371"
 123      B5F479A3 
 123      82A83B41 
 123      EC1991BD 
 123      F9
 124 0665 E803EDFF 		.ascii	"\350\003\355\377G\370\223\310\213\034\376\371*{\355"
 124      47F893C8 
 124      8B1CFEF9 
 124      2A7BED
 125 0674 D3147CA1 		.ascii	"\323\024|\241M'n\376\003\300/1|\241J\314\345\372E\012"
 125      4D276EFE 
 125      03C02F31 
 125      7CA14ACC 
 125      E5FA450A 
 126 0688 BF0877C5 		.ascii	"\277\010w\305\327\320\260\213k\221j|}\365\305\312\252"
 126      D7D0B08B 
 126      6B916A7C 
 126      7DF5C5CA 
 126      AA
 127 0699 0855A3AF 		.ascii	"\010U\243\257\267\"\305\365u\275\323@\2131\016\243\263"
 127      B722C5F5 
 127      75BDD340 
 127      8B310EA3 
 127      B3
 128 06aa 5AAC0ED7 		.ascii	"Z\254\016\327\265\014\207j(\251\232-\243>\\Sq\344\323"
 128      B50C876A 
 128      28A99A2D 
 128      A33E5C53 
 128      71E4D3
 129 06bd 9F2440B7 		.ascii	"\237$@\267\345\004\032y\"\230\0354\314\244AQ\244\243"
 129      E5041A79 
 129      22981D34 
 129      CCA44151 
 129      A4A3
ARM GAS  C:\Users\info\AppData\Local\Temp\ccfsgCAa.s 			page 10


 130 06cf F3F709C0 		.ascii	"\363\367\011\300\010\345\3230@s\270\337\2714\010E(}"
 130      08E5D330 
 130      4073B8DF 
 130      B9340845 
 130      287D
 131 06e1 7E519B23 		.ascii	"~Q\233#\271-\235yW*\027\217=\310\325\245\303\277\271"
 131      B92D9D79 
 131      572A178F 
 131      3DC8D5A5 
 131      C3BFB9
 132 06f4 23E9D491 		.ascii	"#\351\324\221.'\333\341L\305\260\030I\334]\243\004\303"
 132      2E27DBE1 
 132      4CC5B018 
 132      49DC5DA3 
 132      04C3
 133 0706 88DAE135 		.ascii	"\210\332\3415^\242\272\341\331\244\333\307\037\354\306"
 133      5EA2BAE1 
 133      D9A4DBC7 
 133      1FECC6
 134 0715 BC327463 		.ascii	"\2742tc^M\336\230c\034\006\327\025\031\020\255\352\""
 134      5E4DDE98 
 134      631C06D7 
 134      151910AD 
 134      EA22
 135 0727 6B6E0F27 		.ascii	"kn\017'\257HN\024M\006i\323\256*\365\253\223sg\213g"
 135      AF484E14 
 135      4D0669D3 
 135      AE2AF5AB 
 135      9373678B 
 136 073c 045102FC 		.ascii	"\004Q\002\374X_~~i\004.u\225#\326\024\233\242L\374^"
 136      585F7E7E 
 136      69042E75 
 136      9523D614 
 136      9BA24CFC 
 137 0751 E0BBC740 		.ascii	"\340\273\307@\2227\244\202i\367\307.\357v\222Z\212x"
 137      9237A482 
 137      69F7C72E 
 137      EF76925A 
 137      8A78
 138 0763 F7458E8F 		.ascii	"\367E\216\217D\270\346\3121\373/\3457K\254o\367<\005"
 138      44B8E6CA 
 138      31FB2FE5 
 138      374BAC6F 
 138      F73C05
 139 0776 5A825539 		.ascii	"Z\202U9\314\212\017\326\022\366\021\246\363\346\276"
 139      CC8A0FD6 
 139      12F611A6 
 139      F3E6BE
 140 0785 8743EEF3 		.ascii	"\207C\356\363\026p\0371\217\332V\363+\316\266\212\207"
 140      16701F31 
 140      8FDA56F3 
 140      2BCEB68A 
 140      87
 141 0796 6A070BBB 		.ascii	"j\007\013\273\304\374\353\323\230\227\020\226BI\020"
 141      C4FCEBD3 
 141      98971096 
 141      424910
ARM GAS  C:\Users\info\AppData\Local\Temp\ccfsgCAa.s 			page 11


 142 07a5 55018C83 		.ascii	"U\001\214\203\211\203\322\320\261\356\027\360\177\020"
 142      8983D2D0 
 142      B1EE17F0 
 142      7F10
 143 07b3 6B25445B 		.ascii	"k%D[3\357v\225\243\367PG7>\024\314 `\307\2108\035#\205"
 143      33EF7695 
 143      A3F75047 
 143      373E14CC 
 143      2060C788 
 144 07cb DE049FD3 		.ascii	"\336\004\237\323["
 144      5B
 145 07d0 EF49BE50 		.ascii	"\357I\276P\350\323\217\267nm\0303\224\231\227\367\354"
 145      E8D38FB7 
 145      6E6D1833 
 145      949997F7 
 145      EC
 146 07e1 6F16FCE2 		.ascii	"o\026\374\342\221e\313\327\256Y\256\376\225\225-{\341"
 146      9165CBD7 
 146      AE59AEFE 
 146      95952D7B 
 146      E1
 147 07f2 B7652B5F 		.ascii	"\267e+_\\\221\267\\\350\244\201u\360;Y\266\342E\371"
 147      5C91B75C 
 147      E8A48175 
 147      F03B59B6 
 147      E245F9
 148 0805 F3956B7C 		.ascii	"\363\225k|\353V\255Y\366\253\347\326\376\322\353\374"
 148      EB56AD59 
 148      F6ABE7D6 
 148      FED2EBFC 
 149 0815 EA3CF8D9 		.ascii	"\352<\370\331\312\362e\253W\255\225\253\313\327\030"
 149      CAF265AB 
 149      57AD95AB 
 149      CBD718
 150 0824 AB9E7F7E 		.ascii	"\253\236\177~\355\212\362\377\002\307\\l\345"
 150      ED8AF2FF 
 150      02C75C6C 
 150      E5
 151              		.text
 152              		.section	.gnu.lto_u8g2_ll_hvline_horizontal_right_lsb.792bbfd9,"",%progbits
 153 0000 789C8D56 		.ascii	"x\234\215V[p\223U\020>\373\237$\177\356I\023\012\210"
 153      5B709355 
 153      103EFB9F 
 153      247FEE49 
 153      130A88
 154 0013 2D14040A 		.ascii	"-\024\004\012r\351\015\260 \235\016>9>\370\240>:\203"
 154      72E90DB0 
 154      209D0E3E 
 154      393EF8A0 
 154      3E3A83
 155 0026 8A55AB55 		.ascii	"\212U\253U\021\352\355\211\277M[\220aDFJ-rs\264\210"
 155      11EAED89 
 155      BF4D5B90 
 155      6144464A 
 155      2D7273B4 
 156 003b 22D22AA8 		.ascii	"\"\322*\250\005\225\210\320B\251\255r\021)\210X\024"
 156      059588D0 
ARM GAS  C:\Users\info\AppData\Local\Temp\ccfsgCAa.s 			page 12


 156      42A9AD72 
 156      11298858 
 156      14
 157 004c 679061DA 		.ascii	"g\220a\332\200\242\210\324\335='M\322\202\323\314d\363"
 157      80A288D4 
 157      DD3D274D 
 157      D282D3CC 
 157      64F3
 158 005e 9FCD7E7B 		.ascii	"\237\315~{\375\366$6\001\202^\275^!\036\300O;\036a\230"
 158      FDF62436 
 158      01825EBD 
 158      5E211EC0 
 158      4F3B1E61 
 159 0073 00E3B50E 		.ascii	"\000\343\265\016!*\234\206!\227e\013\313\355&\351\225"
 159      212A9C86 
 159      2197650B 
 159      CBED26E9 
 159      95
 160 0084 10243504 		.ascii	"\020$5\004\015\333\212t\324\332\253f\243\326\006vel"
 160      0DDB8A74 
 160      D4DAAB66 
 160      A3D60676 
 160      656C
 161 0096 371C9B0A 		.ascii	"7\034\233\012Qm\366\340\227^\007\230Jm\032N\366\341"
 161      516DF6E0 
 161      975E0798 
 161      4A6D1A4E 
 161      F6E1
 162 00a8 621F4E70 		.ascii	"b\037Np)\265\313\010\255h\025\250\017T\231\250\017)"
 162      29B5CB08 
 162      AD6815A8 
 162      0F5499A8 
 162      0F29
 163 00ba DFF3DC90 		.ascii	"\337\363\334\220\3061\322\014\017\307\360r\014\017x"
 163      C631D20C 
 163      0FC7F072 
 163      0C0F78
 164 00c9 15CA6BF8 		.ascii	"\025\312k\3708\206\237c\370\300\257\324~#\234\354,\254"
 164      38869F63 
 164      F8C0AFD4 
 164      7E239CEC 
 164      2CAC
 165 00db 9CCC0B00 		.ascii	"\234\314\013\000\320\247\345\004\261\304\220A\233\335"
 165      D0A7E504 
 165      B1C49041 
 165      9BDD
 166 00e9 613A5D21 		.ascii	"a:]!w\232\307\353\363\207\003\260D\246\011\210\332\240"
 166      779AC7EB 
 166      F38703B0 
 166      44A60988 
 166      DAA0
 167 00fb 4FF52098 		.ascii	"O\365 \230|\370\303\370\327\200\275K\3175\033\223\337"
 167      7CF8C3F8 
 167      D780BD4B 
 167      CF351B93 
 167      DF
 168 010c B5F075E6 		.ascii	"\265\360u\346\327\253y\326\226(TK!\372\0146\021\360"
ARM GAS  C:\Users\info\AppData\Local\Temp\ccfsgCAa.s 			page 13


 168      D7AB79D6 
 168      9628544B 
 168      21FA0C36 
 168      11F0
 169 011e 2E4C46AB 		.ascii	".LF\253\357\252\032\327\311\313F\265\004\260\341\261"
 169      EFAA1AD7 
 169      C9CB46B5 
 169      04B0E1B1 
 170 012e F79BB567 		.ascii	"\367\233\265g\375t4 \013\217\025-\277U\004\344X\020"
 170      FD743420 
 170      0B8F152D 
 170      BF5504E4 
 170      5810
 171 0140 F8BCB365 		.ascii	"\370\274\263e\347\006\177v\203eUZ\326\261\022\313U-"
 171      E7067F76 
 171      8365555A 
 171      D6B112CB 
 171      552D
 172 0152 25BC0F12 		.ascii	"%\274\017\022\375\301{\220\001[ C\240J\300V\310F\353"
 172      FDC17B90 
 172      015B2043 
 172      A04AC056 
 172      C846EB
 173 0165 B5BB9656 		.ascii	"\265\273\226V\272\345DF\256\336\372\327\233N\215\254"
 173      BAE54446 
 173      AEDEFAD7 
 173      9B4E8DAC 
 174 0175 6FF158B9 		.ascii	"o\361X\271\325\322\006\037(hA\006\344\022\320&`\033"
 174      D5D2061F 
 174      28684106 
 174      E412D026 
 174      601B
 175 0187 033F5F7E 		.ascii	"\003?_~\350\232SNb\340+]-=\016\015<\036\007~8\010\270"
 175      E89A534E 
 175      62E02B5D 
 175      2D3D0E0D 
 175      3C1E077E 
 176 019e 9D81FF58 		.ascii	"\235\201\377X\025\307@\336\316\300?\326\036?\002\032"
 176      15C740DE 
 176      CEC03FD6 
 176      1E3F021A 
 177 01ae 58DBAA81 		.ascii	"X\333\252\201\215\203\200M\014l^\277\341\212ONg\340"
 177      8D83804D 
 177      0C6C5EBF 
 177      E18A4F4E 
 177      67E0
 178 01c0 9BC70E9C 		.ascii	"\233\307\016\234\214\247\272G\001\355\360Q*\320.\340"
 178      8CA7BA47 
 178      01EDF051 
 178      2AD02EE0 
 179 01d0 63C826EB 		.ascii	"c\310&\353\315\327\336\332\341\225\371\214\374\255\272"
 179      CDD7DEDA 
 179      E195F98C 
 179      FCADBA
 180 01df AE424E78 		.ascii	"\256BNx\233\220\321K\235\276:+Z\221E\340\035\311`z\241"
 180      9B90D14B 
 180      9DBE3A2B 
ARM GAS  C:\Users\info\AppData\Local\Temp\ccfsgCAa.s 			page 14


 180      5A9145E0 
 180      1DC9607A 
 181 01f4 6DDFE6C6 		.ascii	"m\337\346\306W\234\262\210q{\377<\263\312\246q=\235"
 181      579CB288 
 181      717BFF3C 
 181      B3CAA671 
 181      3D9D
 182 0206 1EABD172 		.ascii	"\036\253\321r\022\354\223\033\300\232\316l\335\343\220"
 182      12EC931B 
 182      C09ACE6C 
 182      DDE390
 183 0215 7731ACA1 		.ascii	"w1\254\241\343\354\371x\270\323\011\330g7\200\275zt"
 183      E3ECF978 
 183      B8D309D8 
 183      673780BD 
 183      7A74
 184 0227 79B794F7 		.ascii	"y\267\224\367(\230\325\270\334\245a?\256\364\327[\321"
 184      2898D5B8 
 184      DCA5613F 
 184      AEF4D75B 
 184      D1
 185 0238 2ACCD201 		.ascii	"*\314\322\001\273R\007\251\221\373\373\256D\003\212"
 185      BB5207A9 
 185      91FBFBAE 
 185      44038A
 186 0247 1CC4A8C3 		.ascii	"\034\304\250\303=\355\353=\212\034A<^~\275\353'\277"
 186      3DEDEB3D 
 186      8A1C413C 
 186      5E7EBDEB 
 186      27BF
 187 0259 BC97FD5E 		.ascii	"\274\227\375^\331V\277\322\241\375v\255\364Z\337R:&"
 187      D956BFD2 
 187      A1FD76AD 
 187      F45ADF52 
 187      3A26
 188 026b 7CA9DC7E 		.ascii	"|\251\334~\201n?O\270\355n\272^\353sT\0213\263`\017"
 188      816E3F4F 
 188      B8ED6EBA 
 188      5EEB7354 
 188      1133B360 
 189 0280 4C80DDF8 		.ascii	"L\200\335\370n\306\367\247\370\336\011\023\024G!\012"
 189      6EC6F7A7 
 189      F8DE0913 
 189      1447210A 
 190 0290 0EA0A5BE 		.ascii	"\016\240\245\276\201\305\366\373\242V__\304\212\236"
 190      81C5F6FB 
 190      A2565F5F 
 190      C48A9E
 191 029f 087CB523 		.ascii	"\010|\265#<\017x\224\006Kd \032\333X\332Y:\004\301L"
 191      3C0F7894 
 191      064B6420 
 191      1ADB58DA 
 191      593A04C1 
 192 02b4 9641207E 		.ascii	"\226A ~\246\341\024\235!A\236\302@\274\033\306\320t"
 192      A6E1149D 
 192      21419EC2 
 192      40BC1BC6 
ARM GAS  C:\Users\info\AppData\Local\Temp\ccfsgCAa.s 			page 15


 192      D074
 193 02c6 413186F3 		.ascii	"A1\206\363\363\010\206\216DC\327-$F1\374V \262e\010"
 193      F308868E 
 193      4443D72D 
 193      244631FC 
 193      5620B265 
 194 02db CA2913D5 		.ascii	"\312)\023\325\356\321\3748\006\037=Yt\036\313\347q\014"
 194      EED1FC38 
 194      061F3D59 
 194      741ECBE7 
 194      710C
 195 02ed BE0D1530 		.ascii	"\276\015\0250\236\037'\000Qf\"\220\347l2\236Db2\211"
 195      9E1F2700 
 195      51662290 
 195      E76C329E 
 195      44623289 
 196 0301 2924A692 		.ascii	")$\246\222\230F\"\207\343\3442*\217e>k\0128\253\031"
 196      98462287 
 196      E3E4322A 
 196      8F653E6B 
 196      0A38AB19 
 197 0315 643293C4 		.ascii	"d2\223\304,\022\205$f\223\230Cb.\005,bP1\233\013\321"
 197      2C128524 
 197      66939843 
 197      622E052C 
 197      6250319B 
 198 032b 839D5CE6 		.ascii	"\203\235\\\346\027\275\206\201\037\362\034T\356\352"
 198      17BD8681 
 198      1FF21C54 
 198      EEEA
 199 0339 BDF6B687 		.ascii	"\275\366\266\207Z\033\221i8\2125\325{;M\032\251W\215"
 199      5A1B9169 
 199      388A35D5 
 199      7B3B4D1A 
 199      A9578D
 200 034c B1B56D99 		.ascii	"\261\265m\231w#\254\307\233\302\027\221A\370\212\206"
 200      7723ACC7 
 200      9BC21791 
 200      41F88A86 
 201 035c 46B4F9A5 		.ascii	"F\264\371\245\362C3g\032v\015\366\302F\270\316w\010"
 201      F2433367 
 201      1A760DF6 
 201      C246B8CE 
 201      7708
 202 036e 7C0D3982 		.ascii	"|\0159\202\\\376\354S\016C\311\016\235)\016+h\330\275"
 202      5CFEEC53 
 202      0E43C90E 
 202      9D290E2B 
 202      68D8BD
 203 0381 8009FA31 		.ascii	"\200\011\37210\354\323~7\274\361\331%\177\3166+X-\003"
 203      30ECD37E 
 203      37BCF1D9 
 203      257FCE36 
 203      2B582D03 
 204 0395 B09F3DD3 		.ascii	"\260\237=\323\015\006-\350\271\033*\255;\230\0048&t"
 204      0D062DE8 
 204      B91B2AAD 
ARM GAS  C:\Users\info\AppData\Local\Temp\ccfsgCAa.s 			page 16


 204      3B980438 
 204      2674
 205 03a7 4E8AE89F 		.ascii	"N\212\350\237\001\3264\223&\214\301#\327j\272\213U\364"
 205      01D63493 
 205      268CC123 
 205      D76ABA8B 
 205      55F4
 206 03b9 74D4A0CB 		.ascii	"t\324\240\313\203mu[\274\224\200\035Lh\3058\335`$0\351"
 206      836D755B 
 206      BC94801D 
 206      4C68C538 
 206      DD602430 
 207 03ce ECE59F95 		.ascii	"\354\345\237\225^Va_\021q\251a]\235S!,\200\003\010\301"
 207      5E56615F 
 207      1171A961 
 207      5D9D5321 
 207      2C800308 
 208 03e3 A2624B63 		.ascii	"\242bKc\332\357HBa\244\230C\235oA\310'\347\016\266\270"
 208      DAEF4842 
 208      61A49843 
 208      9D6F41C8 
 208      27E70EB6 
 209 03f8 09E222C8 		.ascii	"\011\342\"\310A\310@3F\231\312f\024\232\365\007\376"
 209      41C84033 
 209      4699CA66 
 209      149AF507 
 209      FE
 210 0409 94028F52 		.ascii	"\224\002\217RN[\016\314P\026\210\270\265\337b\017Y\350"
 210      4E5B0ECC 
 210      501688B8 
 210      B5DF620F 
 210      59E8
 211 041b B06D772B 		.ascii	"\260mw+\203L*\031\303\256\325aG3&3\0253\232\023\253"
 211      834C2A19 
 211      C3AED561 
 211      47332633 
 211      15339A13 
 212 0430 39AC3163 		.ascii	"9\2541c\260\00505#9\223,\324\222\321\032\355f,{\312"
 212      B0053035 
 212      2339932C 
 212      D492D11A 
 212      ED662C7B 
 213 0445 4A753396 		.ascii	"Ju3\226\307\330\273\277\\\331\214K\236\243\034<\307"
 213      C7D8BBBF 
 213      5CD98C4B 
 213      9EA31C3C 
 213      C7
 214 0456 3B718C41 		.ascii	";q\214A\242G\333@z8\340\020\017\221\367\267]\017Q\215"
 214      A247DB40 
 214      7A38E010 
 214      0F91F7B7 
 214      5D0F518D 
 215 046a 6C37051A 		.ascii	"l7\005\032\247j\354\326\371\336\246BG\326\351\344\306"
 215      A76AECD6 
 215      F9DEA642 
 215      47D6E9E4 
 215      C6
ARM GAS  C:\Users\info\AppData\Local\Temp\ccfsgCAa.s 			page 17


 216 047b A3056AFB 		.ascii	"\243\005j\373\223c\314x\3613TuEv\277\243\215hd\333/"
 216      9363CC78 
 216      F1335475 
 216      4576BFA3 
 216      8D6864DB 
 217 0490 34FFEDA3 		.ascii	"4\377\355\243\354<\270\372\337\350\233\245\327\220\242"
 217      EC3CB8FA 
 217      DFE89BA5 
 217      D790A2
 218 049f CA942206 		.ascii	"\312\224\"\006\303\"r\242\0011\030\201h\243}Uf\014\362"
 218      C32272A2 
 218      01311881 
 218      68A37D55 
 218      660CF2
 219 04b2 7102C685 		.ascii	"q\002\306\205\276\207\320((\360g\0250\261\240P\243q"
 219      BE87D028 
 219      28F06715 
 219      30B1A050 
 219      A371
 220 04c4 0875E068 		.ascii	"\010u\340hR\037p{\"X:\365\245\251\243\312\256Bg\247"
 220      521F707B 
 220      22583AF5 
 220      A5A9A3CA 
 220      AE4267A7 
 221 04d8 AEC88D7B 		.ascii	"\256\310\215{`\207\016\356\201\244\036tb\0170\375\316"
 221      60870EEE 
 221      81A41E74 
 221      620F30FD 
 221      CE
 222 04e9 C893090F 		.ascii	"\310\223\011\017;\366\265\3268U\362\000\337\252\344"
 222      3BF6B5D6 
 222      3855F200 
 222      DFAAE4
 223 04f8 63001139 		.ascii	"c\000\0219L\242(\010\255\256\303\324eD\216\240\243-"
 223      4CA22808 
 223      ADAEC3D4 
 223      65448EA0 
 223      A32D
 224 050a 840704E6 		.ascii	"\204\007\004\346\323\301\014\001\026`\023+\322i\225"
 224      D3C10C01 
 224      1660132B 
 224      D26995
 225 0519 AF2EBF78 		.ascii	"\257.\277x\320\257\334NJ\236\230c\340*\333\261,\370"
 225      D0AFDC4E 
 225      4A9E9863 
 225      E02ADBB1 
 225      2CF8
 226 052b 8E02C161 		.ascii	"\216\002\301aL\215:\376\227n\346d,\037\341T\347\032"
 226      4C8D3AFE 
 226      976EE664 
 226      2C1FE154 
 226      E71A
 227 053d 20D54D91 		.ascii	" \325M\221G\020\211\366\334g;\265\220o\223\246\316x"
 227      471089F6 
 227      DC673BB5 
 227      906F93A6 
 227      CE78
ARM GAS  C:\Users\info\AppData\Local\Temp\ccfsgCAa.s 			page 18


 228 054f 6FA60CAD 		.ascii	"o\246\014\2557G\023\2759\246zs2\336\233)\361f`\004\207"
 228      374713BD 
 228      39A67A73 
 228      32DE9B29 
 228      F1666004 
 229 0564 D854A86A 		.ascii	"\330T\250j\274\036\257q\352MS\373^\027uU\0275\215\213"
 229      BC1EAF71 
 229      EA4D53FB 
 229      5E177555 
 229      17358D8B 
 230 0578 9A3A84A2 		.ascii	"\232:\204\242\216sQ\3238\244\251\213\302}\352h+T\236"
 230      8E7351D3 
 230      38A4A98B 
 230      C27DEA68 
 230      2B549E
 231 058b 72D0134C 		.ascii	"r\320\023L\311H]\345\034E\310\255\015\243\264Q\022\003"
 231      C9485DE5 
 231      1C45C8AD 
 231      0DA3B451 
 231      1203
 232 059d 9D6259B6 		.ascii	"\235bY\266\244+\346\304a\031G\350+%\262\256\346b\334"
 232      A42BE6C4 
 232      611947E8 
 232      2B25B2AE 
 232      E662DC
 233 05b0 6F1EA590 		.ascii	"o\036\245\220\233\221J\364<\366\340\3424\222\350i&\323"
 233      9B914AF4 
 233      3CF6E0E2 
 233      3492E869 
 233      26D3
 234 05c2 D3C6BB5C 		.ascii	"\323\306\273\\\323qH_#\005HR\254\356Hd_'\377\213\243"
 234      D371485F 
 234      23054852 
 234      ACEE4864 
 234      5F27FF8B 
 235 05d7 BF80F043 		.ascii	"\277\200\360C\322\255\307<.P}\376\275A\317\252 \236"
 235      D2ADC73C 
 235      2E507DFE 
 235      BD41CFAA 
 235      209E
 236 05e9 710C6C98 		.ascii	"q\014l\230\211\211=\310s\236\252}.\006&\226c\256\256"
 236      89893DC8 
 236      739EAA7D 
 236      2E062696 
 236      63AEAE
 237 05fc E56BD0D9 		.ascii	"\345k\320\331^\233\211? !\201\377N\241\327p\353\345"
 237      5E9B893F 
 237      202181FF 
 237      4EA1D770 
 237      EBE5
 238 060e 1AAE972B 		.ascii	"\032\256\227+\227\226k\337*bdZ\322Jq\232\366\344-2\324"
 238      97966BDF 
 238      2A62645A 
 238      D24A719A 
 238      F6E42D32 
 239 0623 16FD1267 		.ascii	"\026\375\022g\312\214\2411\345D\202)]\003\266hFbm\214"
 239      CA8CA131 
ARM GAS  C:\Users\info\AppData\Local\Temp\ccfsgCAa.s 			page 19


 239      E5448229 
 239      5D03B668 
 239      46626D8C 
 240 0637 881CEEC6 		.ascii	"\210\034\356\306\374\213\303\227\3531)\234m.\035\213"
 240      FC8BC397 
 240      EB31299C 
 240      6D2E1D8B 
 241 0647 C2A7EA9F 		.ascii	"\302\247\352\237\306\314<\375\273\322\321\256y4s\020"
 241      C6CC3CFD 
 241      BBD2D1AE 
 241      79347310 
 242 0657 1BEC9A0D 		.ascii	"\033\354\232\015'\007,\307,\276\310g\376\017\217\342"
 242      27072CC7 
 242      2CBEC867 
 242      FE0F8FE2 
 243 0667 C853CCA3 		.ascii	"\310S\314\243Y<@ob9~\215\227\\8\264\222\177L\224|z\300"
 243      593C406F 
 243      62397E8D 
 243      975C38B4 
 243      927F4C94 
 244 067e 7214262D 		.ascii	"r\024&-\207\257\1779N\307\213\232}\323\324~\032\260"
 244      87AF7F39 
 244      4EC78B9A 
 244      7DD3D47E 
 244      1AB0
 245 0690 1C73B8A8 		.ascii	"\034s\270\250\331C(\352\014\0275\207C\372\343E\305\226"
 245      D94328EA 
 245      0C173587 
 245      43FAE345 
 245      C596
 246 06a2 5E6C9FA5 		.ascii	"^l\237\245<\315\325\277P\361\333\273(B\350\271\251\244"
 246      3CCDD5BF 
 246      50F1DBBB 
 246      2842E8B9 
 246      A9A4
 247 06b4 2E5284BD 		.ascii	".R\204\275\336\256\011[\214|\030L\320bU\353\331\315"
 247      DEAE095B 
 247      8C7C184C 
 247      D06255EB 
 247      D9CD
 248 06c6 BA5FC5FD 		.ascii	"\272_\305\375+\325c\2045\377\002\364\017\346<\256\326"
 248      2BD56384 
 248      35FF02F4 
 248      0FE63CAE 
 248      D6
 249 06d7 CEFBC948 		.ascii	"\316\373\311H\177\013\250\305_\233\321\323\247?\370"
 249      7F0BA8C5 
 249      5F9BD1D3 
 249      A73FF8
 250 06e6 7CE1E3F9 		.ascii	"|\341\343\371\363\027,^\264@=\225\225\315\177\342\205"
 250      F3172C5E 
 250      B4403D95 
 250      95CD7FE2 
 250      85
 251 06f7 B2D2674A 		.ascii	"\262\322gJ\246/\0206\322\300K\360\262,+yF>Z\272\310"
 251      A62F1036 
 251      D2C04BF0 
ARM GAS  C:\Users\info\AppData\Local\Temp\ccfsgCAa.s 			page 20


 251      B22C2B79 
 251      463E5ABA 
 252 070c 5D5E5A56 		.ascii	"]^ZV2\377\305\322G\313\237\260=\375\360\342\247\314"
 252      32FFC5D2 
 252      47CB9FB0 
 252      3DFDF0E2 
 252      A7CC
 253 071e 474ACBE7 		.ascii	"GJ\313\347/|v\261\\X\276\310\361\354c\217-.)\377\017"
 253      2F7C76B1 
 253      5C58BEC8 
 253      F1EC638F 
 253      2D2E29FF 
 254 0733 C2950795 		.ascii	"\302\225\007\225"
 255              		.text
 256              		.section	.gnu.lto_.symbol_nodes.792bbfd9,"",%progbits
 257 0000 789C6361 		.ascii	"x\234ca`dPa\000\002&\206z\006\206\011\347\030@\324\252"
 257      60645061 
 257      00022686 
 257      7A068609 
 257      E71840D4 
 258 0015 0645A000 		.ascii	"\006E\240\000c=#\212\000\003\000\216\005\007~"
 258      633D238A 
 258      0003008E 
 258      05077E
 259              		.text
 260              		.section	.gnu.lto_.refs.792bbfd9,"",%progbits
 261 0000 789C6361 		.ascii	"x\234ca`\004B \000\000\0009\000\007"
 261      60044220 
 261      00000039 
 261      0007
 262              		.text
 263              		.section	.gnu.lto_.decls.792bbfd9,"",%progbits
 264 0000 789CCD5A 		.ascii	"x\234\315ZkTT\311v\356\352j\240i\032Pp\324$f\3065\327"
 264      6B5454C9 
 264      76EEEA6A 
 264      A0691A50 
 264      70D42466 
 265 0017 386425E3 		.ascii	"8d%\343\350\314db\362+s\263Vr\357\375\221\233\265\262"
 265      E8CC6462 
 265      F22B73B3 
 265      5672EFFD 
 265      919BB5B2 
 266 002b EEFDE55A 		.ascii	"\356\375\345Z\235\246i\265s\021Hw\2430\177n\203oT\020"
 266      9DA669B5 
 266      73114877 
 266      A3307F6E 
 266      836F5410 
 267 003f 4650F08D 		.ascii	"FP\360\215\017T| \017\021\021\301\027\202\017\220\267"
 267      0F547C20 
 267      0F1111C1 
 267      17820F90 
 267      B7
 268 0050 0E4F51C1 		.ascii	"\016OQ\301\267\2508\250\200dW\355\323\347T7\345\275"
 268      B7A838A8 
 268      806457ED 
 268      D3E75437 
 268      E5BD
ARM GAS  C:\Users\info\AppData\Local\Temp\ccfsgCAa.s 			page 21


 269 0062 592B99AC 		.ascii	"Y+\231\254\364\314\246\317W\347;{\357\332U\265k\327"
 269      F4CCA6CF 
 269      57E73B7B 
 269      EFDA55B5 
 269      6BD7
 270 0074 690D3AA2 		.ascii	"i\015:\242c\237\221\317u\272\375F\235n\016\300\011\370"
 270      639F91CF 
 270      75BAFD46 
 270      9D6E0EC0 
 270      09F8
 271 0086 5068FBAD 		.ascii	"Ph\373\255N\373\350A\246\303\237\231z\335\244\017k\217"
 271      4EFBE841 
 271      A6C39F99 
 271      7ADDA40F 
 271      6B8F
 272 0098 50F8EC7B 		.ascii	"P\370\354{\032\310}\320S\006\337'A~\011\327\335\360"
 272      1AC87DD0 
 272      5306DF27 
 272      417E09D7 
 272      DDF0
 273 00aa FDAF20B3 		.ascii	"\375\257 \263@\016\001\236\013\337\003\360}\014\344"
 273      400E019E 
 273      0BDF03F0 
 273      7D0CE4
 274 00b9 384801C8 		.ascii	"8H\001\310\237\201\374\032\332\003@:\340\372:\310^\220"
 274      9F81FC1A 
 274      DA03403A 
 274      E0FA3AC8 
 274      5E90
 275 00cb 3720AF41 		.ascii	"7 \257A\210b\313\377\303|\232\372\337\260\317\3542\037"
 275      8862CBFF 
 275      C37C9AFA 
 275      DFB0CFEC 
 275      321F
 276 00dd E62A7EF8 		.ascii	"\346*~\370\333f\376\030t\276v;\024\273\262~\217\353"
 276      DB66FE18 
 276      74BE763B 
 276      14BBB27E 
 276      8FEB
 277 00ef C9CAFE47 		.ascii	"\311\312\376G{\214\235\3446!:\302?:%\236:\326\242|\263"
 277      7B8C9DE4 
 277      36213AC2 
 277      3F3A259E 
 277      3AD6A27C 
 278 0104 0B82806B 		.ascii	"\013\202\200k!:/\213xU\021\376\037\374\257\347|\"\334"
 278      213A2F8B 
 278      785511FE 
 278      1FFCAFE7 
 278      7C22DC
 279 0117 F0E1F1B1 		.ascii	"\360\341\361\261\341\037\255\211\250\037/\223\370*e"
 279      E11FAD89 
 279      A81F2F93 
 279      F82A65
 280 0126 5A350858 		.ascii	"Z5\010X\257= \350S\274W\354\023\321,WM\275\235\256\177"
 280      AF3D20E8 
 280      53BC57EC 
 280      13D12C57 
ARM GAS  C:\Users\info\AppData\Local\Temp\ccfsgCAa.s 			page 22


 280      4DBD9DAE 
 281 013b 51BC3980 		.ascii	"Q\2749\200\202N\270\356}{\350\237\346\035\365\300g\263"
 281      824EB8EE 
 281      7D7BE89F 
 281      E61DF5C0 
 281      67B3
 282 014d C7A3FF95 		.ascii	"\307\243\377\225\026\231\023\253\357\0356\016\353\311"
 282      169913AB 
 282      EF1D360E 
 282      EBC9
 283 015b 2C139920 		.ascii	",\023\231 \014?\251x\033\212\230\335.\255yu\314@\377"
 283      0C3FA978 
 283      1B8A98DD 
 283      2EAD7975 
 283      CC40FF
 284 016e 8A5DEB9B 		.ascii	"\212]\353\233Jn_\016&Q\246\203LM_\347\353oWz<\204\034"
 284      4A6E5F0E 
 284      2651A683 
 284      4C4D5FE7 
 284      EB6F577A 
 285 0185 27267294 		.ascii	"'&r\224Pr\230\314c\036\3142\301\337u\036O\252g(\337"
 285      507298CC 
 285      631ECC32 
 285      C1DF751E 
 285      4FAA6728 
 286 019a 13385347 		.ascii	"\0238SG\276\232E\346\317\322\221c$\212\351d,RHf\221"
 286      BE9A45E6 
 286      CFD29163 
 286      248AE964 
 286      2C524866 
 287 01af 236416D3 		.ascii	"#d\026\323\177x\367\241K\241\3644\341\006\236ny\274"
 287      7F78F7A1 
 287      4BA1F434 
 287      E1069E6E 
 287      79BC
 288 01c1 8EAA0632 		.ascii	"\216\252\0062\323g\025z<S\310I0pB3\000\366\344\026\212"
 288      D367157A 
 288      3C53C849 
 288      30704233 
 288      00F6E416 
 289 01d6 E416EE3C 		.ascii	"\344\026\356<\257\312\0152\300\200rE\321\006\326\366"
 289      AFCA0D32 
 289      C0807245 
 289      D106D6F6 
 290 01e6 BAE145BA 		.ascii	"\272\341E\272\231\226\363\320\350/\217\215?\322\253"
 290      9996F3D0 
 290      E82F8F8D 
 290      3FD2AB
 291 01f5 56B7E6C4 		.ascii	"V\267\346\304e\255\206\020\2212`\227hfO~\310l\251\334"
 291      65AD8610 
 291      91326097 
 291      68664F7E 
 291      C86CA9DC 
 292 0209 ECF1838D 		.ascii	"\354\361\203\215\031\006n\226)*&\334n\337DYE\200\332"
 292      19066E96 
 292      292A26DC 
 292      6EDF4459 
ARM GAS  C:\Users\info\AppData\Local\Temp\ccfsgCAa.s 			page 23


 292      4580DA
 293 021c 780A1B4F 		.ascii	"x\012\033O\024L\274\015V\033\313\261\261iU\321\016\012"
 293      144CBC0D 
 293      561BCBB1 
 293      B16955D1 
 293      0E0A
 294 022e C3106122 		.ascii	"\303\020a\"\006\200/n\344\335\015\0038\315Df\003<4\260"
 294      06802F6E 
 294      E4DD0D03 
 294      38CD4466 
 294      033C34B0 
 295 0242 23DD8C70 		.ascii	"#\335\214p!\300S\003\365\265&${\330\030V\226\237\255"
 295      21C05303 
 295      F5B52624 
 295      7BD81856 
 295      969FAD
 296 0255 0DC0DBF3 		.ascii	"\015\300\333\363\001\236\031j\334\024Bo\341D\330\376"
 296      019E196A 
 296      DC14426F 
 296      E144D8FE 
 297 0265 AAFB6130 		.ascii	"\252\373a0\336\213\002X=\264wM \275\213\3676\2369y,"
 297      DE8B0258 
 297      3DB4774D 
 297      20BD8BF7 
 297      369E3979 
 298 027a 948E2038 		.ascii	"\224\216 8\262\257o\027#\316\200\211\301puK\337\016"
 298      B2AF6F17 
 298      23CE8089 
 298      C170754B 
 298      DF0E
 299 028c 1362CFEF 		.ascii	"\023b\317\357\001g7\354h5\3225\224\307\360R\336\205"
 299      016737EC 
 299      6835D235 
 299      94C7F052 
 299      DE85
 300 029e D4006D6A 		.ascii	"\324\000mj<MNeS\243\026\372sI\013\341\014%\202\036\277"
 300      3C4D4E65 
 300      53A316FA 
 300      73490BE1 
 300      0C25821E 
 301 02b3 085E8608 		.ascii	"\010^\206\010\316P\"x\021\"x\001#\330\322\365\256\306"
 301      CE502278 
 301      11227801 
 301      23D8D2F5 
 301      AEC6
 302 02c5 4833D040 		.ascii	"H3\320@A\375\273\323\201\304\024%y\274^\362\270w\006"
 302      41FDBBD3 
 302      81C41425 
 302      79BC5EF2 
 302      B87706
 303 02d8 4D3FC266 		.ascii	"M?\302fP\035\370qE\363\243\226\017%Xx\266\352~_\010"
 303      501DF871 
 303      45F3A396 
 303      0F255878 
 303      B6EA7E5F 
 304 02ed C66226C0 		.ascii	"\306b&\300\3257\323\216\207\320\034n\2204\017]\337\251"
 304      D537D38E 
ARM GAS  C:\Users\info\AppData\Local\Temp\ccfsgCAa.s 			page 24


 304      87D01C6E 
 304      90340F5D 
 304      DFA9
 305 02ff DC9B02F0 		.ascii	"\334\233\002\360\321\272\336\333!\264\000\357\325]\354"
 305      D1BADEDB 
 305      21B400EF 
 305      D55DEC
 306 030e FE375A8E 		.ascii	"\3767Z\216\327?\366n\3561\320:\004]\371[\016\030p \036"
 306      D73FF66E 
 306      EE31D03A 
 306      045DF95B 
 306      0E187020 
 307 0323 880622D0 		.ascii	"\210\006\"\320@\321\331UO\225Q\254a\343\224\232\333"
 307      40D1D955 
 307      4F9551AC 
 307      61E3949A 
 307      DB
 308 0334 F23DA50F 		.ascii	"\362=\245\017}\015F\240\301\313\023#5\341\010\365\000"
 308      7D0D46A0 
 308      C1CB1323 
 308      35E108F5 
 308      00
 309 0345 C77A9FDD 		.ascii	"\307z\237\3350\320WH=\360nt\210M\216\27104\023TX\264"
 309      30D05748 
 309      3DF06E74 
 309      884D8EB9 
 309      30341354 
 310 035b 7371D156 		.ascii	"sq\321V_\253?h\246\253\015<r\315\027\266\215\207`\344"
 310      5FAB3F68 
 310      A6AB0D3C 
 310      72CD17B6 
 310      8D8760E4 
 311 036f 6050567A 		.ascii	"`PVzLQ:r\035\302\324\006a\"\235\020\273\271J\354nAc"
 311      4C513A72 
 311      1DC2D406 
 311      61229D10 
 311      BBB94AEC 
 312 0386 871ABBCE 		.ascii	"\207\032\273\316\247\277\342\313\373\007\210\335m-v"
 312      A7BFE2CB 
 312      FB0788DD 
 312      6D2D76
 313 0395 7395D09D 		.ascii	"s\225\320\235\313\354\0340\321\315hb\377]O\245\341C"
 313      CBEC1C30 
 313      D1CD6862 
 313      FF5D4FA5 
 313      E143
 314 03a7 267A3E68 		.ascii	"&z>h\"3}\356Q6<\335`\242K3\361\203wx\356\245\235\270"
 314      22337DEE 
 314      51363CDD 
 314      60A24B33 
 314      F1837778 
 315 03bf 1C4A73B9 		.ascii	"\034Js\271\015\362pW\313\3520Z\210 \257r\370j\000\006"
 315      0DF27057 
 315      CBEA305A 
 315      8820AF72 
 315      F86A0006 
 316 03d3 C70870F7 		.ascii	"\307\010p\367\235\334\211 z\032\357e\014\355\332b\244"
ARM GAS  C:\Users\info\AppData\Local\Temp\ccfsgCAa.s 			page 25


 316      9DDC8920 
 316      7A1AEF65 
 316      0CEDDA62 
 316      A4
 317 03e4 971064BE 		.ascii	"\227\020d\276\315\255\013\244\015\010\316\\Yy0\210v"
 317      CDAD0BA4 
 317      0D08CE5C 
 317      59793088 
 317      76
 318 03f5 2048A9BA 		.ascii	" H\251\272X\022J\373\020<\253+6\321\207x]5\270\271\222"
 318      58124AFB 
 318      103CAB2B 
 318      36D18778 
 318      5D35B8B9 
 319 040a D2B708F6 		.ascii	"\322\267\010\366\035\2706b\240\353\0028x\353\311{h\244"
 319      1DB83662 
 319      A0EB0238 
 319      78EBC97B 
 319      68A4
 320 041c B9089E94 		.ascii	"\271\010\236\224?\337\252\247\207\021t=\037\032\015"
 320      3FDFAAA7 
 320      8711743D 
 320      1F1A0D
 321 042b A61508AA 		.ascii	"\246\025\010\252\363\333\337\007\323\006\004\351\015"
 321      F3DBDF07 
 321      D30604E9 
 321      0D
 322 0438 47EA4368 		.ascii	"G\352Ch?\202\222\232\272F\023}\212\240\360\340\273\343"
 322      3F82929A 
 322      BA46137D 
 322      8AA0F0E0 
 322      BBE3
 323 044a 26FA06C1 		.ascii	"&\372\006\301`\357\340X8M\011\304\341-H\3157\322\015"
 323      60EFE058 
 323      384D09C4 
 323      E12D48CD 
 323      37D20D
 324 045d 08F20B37 		.ascii	"\010\362\0137\326\205\321\235\034L\037\330\264\351D"
 324      D685D19D 
 324      1C4C1FD8 
 324      B4E944
 325 046c 2899A37D 		.ascii	"(\231\243}\"\331\237(~\231\257\244\257_\357\273\273"
 325      22D99F28 
 325      7E99AFA4 
 325      AF5FEFBB 
 325      BB
 326 047d DA53F4EF 		.ascii	"\332S\364\357|\322?\200\250N\220H\357J\271\003\241g"
 326      7CD23F80 
 326      A84E9048 
 326      EF4AB903 
 326      A167
 327 048f CB06C29B 		.ascii	"\313\006\302\233\317\206\252\246\274!t\253\247&\205"
 327      CF86AAA6 
 327      BC2174AB 
 327      A72685
 328 049e F2D4F850 		.ascii	"\362\324\370PF^\240\220=\236\232\352t\205\3144\017\312"
 328      465EA090 
ARM GAS  C:\Users\info\AppData\Local\Temp\ccfsgCAa.s 			page 26


 328      3D9E9AEA 
 328      7485CC34 
 328      0FCA
 329 04b0 C8D789A6 		.ascii	"\310\327\211\246z\267\250\372\251/\373\013F>#\220\213"
 329      7AB7A8FA 
 329      A92FFB0B 
 329      463E2390 
 329      8B
 330 04c1 1B4298CB 		.ascii	"\033B\230\313\214\372XB\255\022\250\023\351a\333<5\251"
 330      8CFA5842 
 330      AD12A813 
 330      E961DB3C 
 330      35A9
 331 04d3 94CF9A57 		.ascii	"\224\317\232W\012Y\235l\255\304\207\017^w6\010^\337"
 331      0A599D6C 
 331      ADC4870F 
 331      5E773608 
 331      5EDF
 332 04e5 95792DB2 		.ascii	"\225y-\262o\241#\214{O\306\255\026\270-b<\356\313\330"
 332      6FA1238C 
 332      7B4FC6AD 
 332      16B82D62 
 332      3CEECBD8 
 333 04f9 621773C5 		.ascii	"b\027s\305x<\223t\362\252\240\272IT= S\215\354LeC\367"
 333      783C9374 
 333      F2AAA0BA 
 333      49543D20 
 333      538DEC4C 
 334 0510 40C1429A 		.ascii	"@\301B\232!\010M,\010/\225\007`=\221U\372(\262Z?\207"
 334      21084D2C 
 334      082F9507 
 334      603D9155 
 334      FA28B25A 
 335 0526 A480AC01 		.ascii	"\244\200\254\001\031's\310\010\310J\270~\003\337k\341"
 335      192773C8 
 335      08C84AB8 
 335      7E03DF6B 
 335      E1
 336 0537 FB357C0F 		.ascii	"\3735|\017\203\374\010\362\036d\014d\024\344\035H*\334"
 336      83FC08F2 
 336      1E640C64 
 336      14E41D48 
 336      2ADC
 337 0549 5F07E201 		.ascii	"_\007\342\001Y\017\362\226\314\341\225\003v\352\265"
 337      590FF296 
 337      CCE19503 
 337      76EAB5
 338 0558 3818BDF2 		.ascii	"8\030\275\362\301\020'E\266\030\204!I\020\276\322b\320"
 338      C1102745 
 338      B6188421 
 338      4910BED2 
 338      62D0
 339 056a A50D45BF 		.ascii	"\245\015E\277,\002\225\202\336\"m\376<\221h\305Q\343"
 339      2C029582 
 339      DE226DFE 
 339      3C9168C5 
 339      51E3
ARM GAS  C:\Users\info\AppData\Local\Temp\ccfsgCAa.s 			page 27


 340 057c 49A7667C 		.ascii	"I\247f|\203\331\34312\212NI8Zw\276\027\335{!Q\264@3"
 340      83D9E331 
 340      328A4E49 
 340      385A77BE 
 340      17DD7B21 
 341 0594 99A3997C 		.ascii	"\231\243\231|.a\212\275.\325\250\217$\324Ja\340{\264"
 341      2E618ABD 
 341      2ED5A88F 
 341      24D44A61 
 341      E07BB4
 342 05a7 4EF7F952 		.ascii	"N\367\371R[\211\237\003#b\354\333\345\261\307\011\310"
 342      5B899F03 
 342      2362ECDB 
 342      E5B1C709 
 342      C8
 343 05b8 0A1ECF8E 		.ascii	"\012\036\317\216\253\224\236\340YD_\372\364\356\303"
 343      AB949EE0 
 343      59445FFA 
 343      F4EEC3
 344 05c7 00121925 		.ascii	"\000\022\031%\237=\033a\306\374\324\263\007\207\";\343"
 344      9F3D1B61 
 344      C6FCD4B3 
 344      0787223B 
 344      E3
 345 05d8 2FD8506C 		.ascii	"/\330Pl\320G\2224\275\232\376\331\310p\237\313\357d"
 345      D0479234 
 345      BD9AFED9 
 345      C8709FCB 
 345      EF64
 346 05ea 57076392 		.ascii	"W\007c\222\277\245\023\252\234iJ\225S\272\247\265:\210"
 346      BFA513AA 
 346      9C694A95 
 346      53BAA7B5 
 346      3A88
 347 05fc D6609AAC 		.ascii	"\326`\232\254\360\254\3154\322\353\010n<\036*3\3226"
 347      F0ACCD34 
 347      D2EB086E 
 347      3C1E2A33 
 347      D236
 348 060e 0423DDB9 		.ascii	"\004#\335\271\351!\264\007\301\304\350\272\245\364)"
 348      E921B407 
 348      C1C4E8BA 
 348      A5F429
 349 061d 5EBFBC51 		.ascii	"^\277\274Q>L\351\030\202\201s\317G\314t}\020\007g\323"
 349      3E4CE918 
 349      828173CF 
 349      47CC747D 
 349      100767D3 
 350 0631 AE8D1969 		.ascii	"\256\215\031i6\202\2743kSMt+\202\265eU\007\003i.\202"
 350      3682BC33 
 350      6B534D74 
 350      2B82B565 
 350      55070369 
 351 0647 8A7B69F5 		.ascii	"\212{i\365F\232\217\340\355\263\332\264\000Z\210`g["
 351      469A8FE0 
 351      EDB3DAB4 
 351      005A8860 
ARM GAS  C:\Users\info\AppData\Local\Temp\ccfsgCAa.s 			page 28


 351      675B
 352 0659 FFE66093 		.ascii	"\377\346`\223R,n\376\3435j\336\345u\027\002\314i\214"
 352      522C6EFE 
 352      E3356ADE 
 352      E5751702 
 352      CC698C
 353 066c BF79A527 		.ascii	"\277y\245'\342\027d\273\336\304\006\217T\360a\334\241"
 353      E21764BB 
 353      DEC4068F 
 353      54F061DC 
 353      A1
 354 067d 377B4BFA 		.ascii	"7{K\372\306\372\277\245\247\024\363;w\215\204\322\253"
 354      C6FABFA5 
 354      A714F33B 
 354      778D84D2 
 354      AB
 355 068e 1C843DEE 		.ascii	"\034\204=\356}\271\235\020uW\210Rw\204\232\352\014!"
 355      7DB99D10 
 355      75578852 
 355      77849AEA 
 355      0C21
 356 06a0 976C8138 		.ascii	"\227l\2018\037\324\177xC\270\335(\254\200\3152r\265"
 356      1FD47F78 
 356      43B8DD28 
 356      AC80CD32 
 356      72B5
 357 06b2 30B1CB1A 		.ascii	"0\261\313\032\303\221\315\012\327m\276\354/\374\323"
 357      C391CD0A 
 357      D76DBEEC 
 357      2FFCD3
 358 06c1 65A5E847 		.ascii	"e\245\350G\216\204,.\350n\321\217]2?\304=\241\271Q]"
 358      8E842C2E 
 358      E86ED18F 
 358      5D323FC4 
 358      3DA1B951 
 359 06d6 60DFCBB8 		.ascii	"`\337\313\270>\373R\306G\271\236\232U\224\005\225\344"
 359      3EFB52C6 
 359      47B99E9A 
 359      55940595 
 359      E4
 360 06e7 296C6FA8 		.ascii	")lo\250\205U\256-\016\203\216\244\353g\361\025Ev*\017"
 360      8555AE2D 
 360      0E838EA4 
 360      EB67F115 
 360      45762A0F 
 361 06fb B0C57108 		.ascii	"\260\305q\010\026\307\001\230\324\205 {A\012@\362A\016"
 361      16C70198 
 361      D485207B 
 361      410A40F2 
 361      410E
 362 070d 83EC06D9 		.ascii	"\203\354\006\331\017r\004\344(\310\036\220}z5uB8*\304"
 362      0F7204E4 
 362      28C81E90 
 362      7D7A3575 
 362      42382AC4 
 363 0721 706C9584 		.ascii	"pl\225\204\243JHZ\3333x\322\002\212_\322\202{U\242\242"
 363      A34A485A 
ARM GAS  C:\Users\info\AppData\Local\Temp\ccfsgCAa.s 			page 29


 363      DB3378D2 
 363      028A5FD2 
 363      827B55A2 
 364 0736 6C59F785 		.ascii	"lY\367\205\244\321&\3065KF\276*\304\252D\034\337\\\211"
 364      A4D126C6 
 364      354B46BE 
 364      2AC4AA44 
 364      1CDF5C89 
 365 074a 8FE206D7 		.ascii	"\217\342\006\327!\252\316\224\251V\263\321\325\222\306"
 365      21AACE94 
 365      A956B3D1 
 365      D592C6
 366 0759 4F68039F 		.ascii	"Oh\003\237\270\372#'\263\252C|\222\221\030\357\023\020"
 366      B8FA2327 
 366      B3AA437C 
 366      929118EF 
 366      1310
 367 076b E3FF69BC 		.ascii	"\343\377i\2741\204\2572\346\262\020\036\007e\307\264"
 367      3184AF32 
 367      E6B2101E 
 367      0765C7B4 
 368 077b 64C322CA 		.ascii	"d\303\"\312]j\031\330\273\312\214\311\346&_\350\003"
 368      5D6A19D8 
 368      BBCA8CC9 
 368      E6265FE8 
 368      03
 369 078c 57E02C70 		.ascii	"W\340,p\007W\332\360\304\372J#\035B0\220v\370\205\231"
 369      0757DAF0 
 369      C4FA4A23 
 369      1D423090 
 369      76F88599 
 370 07a0 A61939D8 		.ascii	"\246\0319\330p\271\254V9\246\325\361C\323\361\362\374"
 370      70B9AC56 
 370      39A6D5F1 
 370      43D3F1F2 
 370      FC
 371 07b1 409A8137 		.ascii	"@\232\2017;\356?,\246t+\202U%;N\233\350n\004\267*\033"
 371      3BEE3F2C 
 371      A6742B82 
 371      55253B4E 
 371      9BE86E04 
 372 07c8 86036801 		.ascii	"\206\003h\001\202\363%\243"
 372      82F325A3 
 373 07d0 90C74E20 		.ascii	"\220\307N (\177VX\036\212\012k\030\276\2302\010\325"
 373      287F5658 
 373      1E8A0A6B 
 373      18BE9832 
 373      08D5
 374 07e2 6C39DE2C 		.ascii	"l9\336,N;[d\240\325\010\016\336\337\260\322D\257 \250"
 374      4E3B5B64 
 374      A0D5080E 
 374      DEDFB0D2 
 374      44AF20A8 
 375 07f6 2B789946 		.ascii	"+x\231Fh#\202\243\333\236\037'\264\035A_MI\233\201v"
 375      682382A3 
 375      DB9E1F27 
 375      B41D415F 
ARM GAS  C:\Users\info\AppData\Local\Temp\ccfsgCAa.s 			page 30


 375      4D499B81 
 376 080b 21B831D8 		.ascii	"!\2701\330\321b\240w\021\354\030\034\037\326\323G\010"
 376      D162A077 
 376      11EC181C 
 376      1FD6D347 
 376      08
 377 081c BC27CA08 		.ascii	"\274'\312\010<Q\356\311\032\276\007E0\336\313\032\337"
 377      3C51EEC9 
 377      1ABE0745 
 377      30DECB1A 
 377      DF
 378 082d 7F524FD3 		.ascii	"\177RO\323\2029\270rdU\237\236\346!\350\251\330_\027"
 378      8239B872 
 378      64559F9E 
 378      E621E8A9 
 378      D85F17
 379 0840 440F2138 		.ascii	"D\017!8\263\253\265\311@O#\230\310{\261-H\314hlVh\031"
 379      B3ABB5C9 
 379      404F2398 
 379      C87BB12D 
 379      48CC686C 
 380 0857 AD5ECD68 		.ascii	"\255^\315h\336\263j\004\236U/\334\\\237\023N/\243\222"
 380      DEB36A04 
 380      9E552FDC 
 380      5C9F134E 
 380      2FA392
 381 086a EEF74D6B 		.ascii	"\356\367Mk\215\264\016A_\317\3311=\275\245\250\177\320"
 381      8DB40E41 
 381      5FCFD931 
 381      3DBDA5A8 
 381      7FD0
 382 087c FD22840E 		.ascii	"\375\"\204\016!\350O\3316\250\247)x\366\331\364\344"
 382      21E84FD9 
 382      36A8A729 
 382      78F6D9F4 
 382      E4
 383 088d C4D6609A 		.ascii	"\304\326`\232\207`\364\301\226\333\004\225\233\331y"
 383      8760F4C1 
 383      96DB0495 
 383      9BD979
 384 089c ABF27666 		.ascii	"\253\362vf8\356 }\274\323=\305'M\3640r\207\2137\036"
 384      38EE207D 
 384      BCD33DC5 
 384      274DF430 
 384      72878B37 
 385 08b1 08A4C526 		.ascii	"\010\244\305&\245\036\357,&\364\"\202-/\233\362\203"
 385      A51EEF2C 
 385      26F42282 
 385      2D2F9BF2 
 385      83
 386 08c2 E80D04B5 		.ascii	"\350\015\004\265y\203\260n:\224\267#U/\016(\207i\017"
 386      7983B06E 
 386      3A94B723 
 386      552F0E28 
 386      87690F
 387 08d5 3B87ED69 		.ascii	";\207\355i\335\327\025H\237\231|N\332\021x\322\366<"
 387      DDD71548 
ARM GAS  C:\Users\info\AppData\Local\Temp\ccfsgCAa.s 			page 31


 387      9F997C4E 
 387      DA1178D2 
 387      F63C
 388 08e7 58B55B4F 		.ascii	"X\265[O_)'\264\007\231\325F\232\032\302\301\315\202"
 388      5F2927B4 
 388      0799D546 
 388      9A1AC2C1 
 388      CD82
 389 08f9 A71D6134 		.ascii	"\247\035a4\017\301\203=\325\305FZ\206\300{\354\217\300"
 389      0FC1833D 
 389      D5C5465A 
 389      86C07BEC 
 389      8FC0
 390 090b 637F764D 		.ascii	"c\177vM\326\230\211\236\307{\365\025\375\363\351u\274"
 390      D698899E 
 390      C77BF515 
 390      FDF3E975 
 390      BC
 391 091c FEF15A6B 		.ascii	"\376\361Zk7\245\235\0102.T]4\322A\004\265]?\300\360"
 391      37A59D08 
 391      322E545D 
 391      34D24104 
 391      B55D3FC0 
 392 0931 BF42305E 		.ascii	"\277B0^Rr\221\320uf\234\220\217\366AY\236\211\240\273"
 392      527291D0 
 392      75669C90 
 392      8FF64159 
 392      9E89A0BB 
 393 0945 EE70219B 		.ascii	"\356p!\233\307\237\261\023\345\304D\270p\246\374\014"
 393      C79FB113 
 393      E5C444B8 
 393      70A6FC0C 
 394 0955 3D6ECE78 		.ascii	"=n\316x\271?\210n\347t}a\346\343f\341M\320\001s\005"
 394      B93F886E 
 394      E7747D61 
 394      E6E366E1 
 394      4DD00173 
 395 096a 3BC73D86 		.ascii	";\307=\206M\353\241\266\266>S_\230\360\031\240\323\262"
 395      4DEBA1B6 
 395      B63E535F 
 395      98F019A0 
 395      D3B2
 396 097c EC2358C9 		.ascii	"\354#X\311\237)\273\340\003X\352\203z|\027\264?\023"
 396      9F29BBE0 
 396      0358EA83 
 396      7A7C17B4 
 396      3F13
 397 098e 16CF4134 		.ascii	"\026\317A4q\344xcm\220\367L\351\257\340\231D\201\367"
 397      71E47863 
 397      6D90F74C 
 397      E9AFE099 
 397      4481F7
 398 09a1 4CF9353F 		.ascii	"L\3715?S>\005_\236h\276\200k8\335\372O\216<1\322\023"
 398      533E055F 
 398      9E68BE80 
 398      6B38DDFA 
 398      4F8E3C31 
ARM GAS  C:\Users\info\AppData\Local\Temp\ccfsgCAa.s 			page 32


 399 09b7 D8EBE347 		.ascii	"\330\353\343GG\213L\374\315\313o\314\312\233\241\316"
 399      478B4CFC 
 399      CDCB6FCC 
 399      CA9BA1CE 
 400 09c7 3505D742 		.ascii	"5\005\327B\324\267ECz\336\330v\253\247-Xm|\201\215k"
 400      D4B74543 
 400      7ADED876 
 400      ABA72D58 
 400      6D7C818D 
 401 09dc 27BA2F19 		.ascii	"'\272/\031\351y%\230\005\233\266\207\322\033\010\322"
 401      E9792598 
 401      059BB687 
 401      D21B08D2 
 402 09ec 735F5606 		.ascii	"s_V\006\3216\004-5{\266\007\323.\004wKG\366\207\322"
 402      D136042D 
 402      357BB607 
 402      D32E0477 
 402      4B47F687 
 403 0a01 4104B217 		.ascii	"A\004\262\027Se\315\273{\203\350s$\274k\034=C\350\030"
 403      5365CDBB 
 403      7B83E873 
 403      24BC6B1C 
 403      3D43E818 
 404 0a15 828D2DA7 		.ascii	"\202\215-\247\276\242\353Cq\201\267\335\032'4\033\301"
 404      BEA2EB43 
 404      7181B7DD 
 404      1A27341B 
 404      C1
 405 0a26 8DF743E7 		.ascii	"\215\367C\347(-@p\254oMK\000=\215\340\340\330\336R3"
 405      282D4070 
 405      AC6F4D4B 
 405      003D8DE0 
 405      E0D8DE52 
 406 0a3b BD84A076 		.ascii	"\275\204\240v\244j_\000mD\220\266\341\310\3360z\017"
 406      A46A5F00 
 406      6D4490B6 
 406      E1C8DE30 
 406      7A0F
 407 0a4d C1EA8D85 		.ascii	"\301\352\215\205g)\035Ap\263\267\370u \335\030\206/"
 407      67291D41 
 407      70B3B7F8 
 407      7520DD18 
 407      862F
 408 0a5f 0D7B32FF 		.ascii	"\015{2\377\203f\343\365\343\326\346\314\000\232\217"
 408      8366E3F5 
 408      E3D6E6CC 
 408      009A8F
 409 0a6e 60BC786D 		.ascii	"`\274xm\245\201\226!\030\254{;\034B\257 xw!\265\202"
 409      A5819621 
 409      18AC7B3B 
 409      1C42AF20 
 409      787721B5 
 410 0a83 D01F109C 		.ascii	"\320\037\020\234\272\360\366z\000}\216\340Yj\341~\230"
 410      BAF0F67A 
 410      007D8EE0 
 410      596AE17E 
 410      98
ARM GAS  C:\Users\info\AppData\Local\Temp\ccfsgCAa.s 			page 33


 411 0a94 7CE16826 		.ascii	"|\341h&\373)\224\000{\021\214\215~\237\022@K\021Tw="
 411      FB299400 
 411      7B118C8D 
 411      7E9F1240 
 411      4B115477 
 412 0aa9 381A426B 		.ascii	"8\032Bk\021\034\3324t\321D{9\370h\250p[k\240x\370\235"
 412      111CDA34 
 412      74D1447B 
 412      39F868A8 
 412      705B6BA0 
 413 0ac0 A31C7E23 		.ascii	"\243\034~#\347\360\035\250\257b\342?\253Nuy<k\314<\242"
 413      E7F01DA8 
 413      AF62E23F 
 413      AB4E7579 
 413      3C6BCC3C 
 414 0ad5 6B2825F9 		.ascii	"k(%\371\364\303'\311\263\315j\325\360^\357Cm\365/\213"
 414      F4C327C9 
 414      B3CD6AD5 
 414      F05EEF43 
 414      6DF52F8B 
 415 0ae9 5E6509B5 		.ascii	"^e\011\265\366\250B\226\326\332\312aO\334\013\323$~"
 415      F6A84296 
 415      D6DACA61 
 415      4FDC0BD3 
 415      247E
 416 0afb 881549AB 		.ascii	"\210\025I\253V\275\254\226P\305\262h\213F\335 \241\012"
 416      56BDAC96 
 416      50C5B268 
 416      8B46DD20 
 416      A10A
 417 0b0d 1E376B9D 		.ascii	"\0367k\235\033\223uN\334\346\2634\255\033%Z\205\362"
 417      1B93754E 
 417      DCE6B334 
 417      AD1B255A 
 417      85F2
 418 0b1f 214F63AE 		.ascii	"!Oc\256\2270E\245;4\352:\011U\214V\221\346k\212/ur\251"
 418      973045A5 
 418      3B34EA3A 
 418      09558C56 
 418      91E66B8A 
 419 0b37 7753E38E 		.ascii	"wS\343\216\313\372%\006v\213\306M\225\351\025K\331\367"
 419      CBFA2506 
 419      768BC64D 
 419      95E9154B 
 419      D9F7
 420 0b49 9ABB2B65 		.ascii	"\232\273+e\\\321\337RM\257G\306\025G\354\2658s\322\251"
 420      5CD1DF52 
 420      4DAF47C6 
 420      1547ECB5 
 420      3873D2A9 
 421 0b5d 74E68895 		.ascii	"t\346\210\225\336h:\257\364\2005\371x\272[\234Uk%A\025"
 421      DE683AAF 
 421      F48035F9 
 421      78BA5B9C 
 421      556B2541 
 422 0b72 3B744673 		.ascii	";tFsrB\026\250\311E\256z\002\334\244\250fE\327n\032"
 422      724216A8 
ARM GAS  C:\Users\info\AppData\Local\Temp\ccfsgCAa.s 			page 34


 422      C945AE7A 
 422      02DCA4A8 
 422      6645D76E 
 423 0b87 4572E81C 		.ascii	"Er\350\034\262\005$\013d+\3106\220= \031 \337\203\354"
 423      B205240B 
 423      642BC836 
 423      903D2019 
 423      20DF83EC 
 424 0b9b 03D901B2 		.ascii	"\003\331\001\262\035$\027d'\310^\220\315 y \331 \231"
 424      1D241764 
 424      27C85E90 
 424      CD207920 
 424      D92099
 425 0bae 20BBA8F8 		.ascii	" \273\250\370\356\2403#\014\013q\226\252W)&\325\014"
 425      EEA03323 
 425      0C0B7196 
 425      AA572926 
 425      D50C
 426 0bc0 2F54AE90 		.ascii	"/T\256\220\007ngl\317\015\247)S\370\316\360z\323\205"
 426      076E676C 
 426      CF0DA729 
 426      53F8CEF0 
 426      7AD385
 427 0bd3 6FFC0B46 		.ascii	"o\374\013F\325\367\203\340\357O\351;\216Rn\303_\263"
 427      D5F783E0 
 427      EF4FE93B 
 427      8E526EC3 
 427      5FB3
 428 0be5 513A0086 		.ascii	"Q:\000\206\366Su\223a\203\306\335-\355?\370<(Rq\260"
 428      F6537593 
 428      6183C6DD 
 428      2DED3FF8 
 428      3C285271 
 429 0bfa E6830EEA 		.ascii	"\346\203\016\352\376\327\275c\371\263}\325\332\020\261"
 429      FED7BD63 
 429      F9B37DD5 
 429      DA10B1
 430 0c09 F02A10C2 		.ascii	"\360*\020\302\252#\207\250\267\360\03296\330\025@\263"
 430      AA2387A8 
 430      B7F01A39 
 430      36D81540 
 430      B3
 431 0c1a A760D571 		.ascii	"\247`\325q\177{\255\211\356EP\335r\342z8-\343\340g\235"
 431      7F7BAD89 
 431      EE4550DD 
 431      72E27A38 
 431      2DE3E067 
 432 0c2f 69D52984 		.ascii	"i\325)\204\030\314\221\370\256Q\373\230\3153\015Q\312"
 432      18CC91F8 
 432      AE51FB98 
 432      CD330D51 
 432      CA
 433 0c40 45D49CA8 		.ascii	"E\324\234\250(\266\221\035\243f\362\006\266G\301\374"
 433      28B6911D 
 433      A366F206 
 433      B647C1FC 
 434 0c50 711FF3C7 		.ascii	"q\037\363\307\320\274\317\330\335\202\015\374*l\340"
ARM GAS  C:\Users\info\AppData\Local\Temp\ccfsgCAa.s 			page 35


 434      D0BCCFD8 
 434      DD820DFC 
 434      2A6CE0
 435 0c5f A4014253 		.ascii	"\244\001BS\244\214\335\015\270\276\016=\273\002R\013"
 435      A48CDD0D 
 435      B8BE0E3D 
 435      BB02520B 
 436 0c6f 7219E412 		.ascii	"r\031\344\022\3109\220*\220\263 \225 g@*@N\203\224\203"
 436      C839902A 
 436      90B32095 
 436      2067402A 
 436      404E8394 
 437 0c84 9C022903 		.ascii	"\234\002)\003)\005)\001)\0069\011r\302g\356\215\266"
 437      29052901 
 437      29063909 
 437      72C267EE 
 437      8DB6
 438 0c96 0B2BE908 		.ascii	"\013+\351\010\214`\221\266<~\320k\353]\356\347a\345"
 438      8C6091B6 
 438      3C7ED06B 
 438      EB5DEEE7 
 438      61E5
 439 0ca8 819FDECF 		.ascii	"\201\237\336\3177\355\352\"\356\324K\274\024\023\356"
 439      37EDEA22 
 439      EED44BBC 
 439      1413EE
 440 0cb7 8F1AB74B 		.ascii	"\217\032\267K\306\0253\343\260\306\355\226q\205\215"
 440      C61533E3 
 440      B0C6ED96 
 440      71858D
 441 0cc6 E4A546ED 		.ascii	"\344\245F\355\221Q\205\335aH\243\366\371R{\365\376y"
 441      915185DD 
 441      6148A3F6 
 441      F9527BF5 
 441      FE79
 442 0cd8 B147E3DE 		.ascii	"\261G\343\336\221q\305\234\337\245q\373e\\1\355\265"
 442      9171C59C 
 442      DFA571FB 
 442      655C31ED 
 442      B5
 443 0ce9 6BDCBB32 		.ascii	"k\334\2732\256\230\307[5\356=\031W\214n\263\306e\357"
 443      AE98C75B 
 443      35EE3D19 
 443      578C6EB3 
 443      C665EF
 444 0cfc 632771C5 		.ascii	"c'q\305\3506\345\0109\377\276\242Y\315\371\275\376a"
 444      E836E508 
 444      39FFBEA2 
 444      59CDF9BD 
 444      FE61
 445 0d0e ABCE11DE 		.ascii	"\253\316\021\336H\224(t5\0216M\332~\252r\204\3049 \347"
 445      48942874 
 445      3511364D 
 445      DA7EAA72 
 445      84C43920 
 446 0d23 0BEA2BDB 		.ascii	"\013\352+\333\303\221^\015\213\363\271?]\254]\204U{"
 446      C3915E0D 
ARM GAS  C:\Users\info\AppData\Local\Temp\ccfsgCAa.s 			page 36


 446      8BF3B93F 
 446      5DAC5D84 
 446      557B
 447 0d35 9ECED438 		.ascii	"\236\316\3248\027a\216\327\300\303\230\346>\300\322"
 447      17618ED7 
 447      C0C398E6 
 447      3EC0D2
 448 0d44 09941CBE 		.ascii	"\011\224\034\276lVzf\033\374\216}\360\000\374\275@\331"
 448      6C567A66 
 448      1BFC8E7D 
 448      F000FCBD 
 448      40D9
 449 0d56 AFF7DE7C 		.ascii	"\257\367\336|\361\022\362\005f\325\335\015\037\261\254"
 449      F112F205 
 449      66D5DD0D 
 449      1FB1AC
 450 0d65 CAFC7CA5 		.ascii	"\312\374|\245\225\3565<e`_*\304\276\014\313\373\"t\375"
 450      95EE353C 
 450      65605F2A 
 450      C4BE0CCB 
 450      FB2274FD 
 451 0d79 54BBD9B3 		.ascii	"T\273\331\263\331\312\311\257\375\311\222m]c\377(g\013"
 451      D9CAC9AF 
 451      FDC9926D 
 451      5D63FF28 
 451      670B
 452 0d8b AA4B72A6 		.ascii	"\252Kr\246\241'u@\037\361\247\177!\015\352U1\250\327"
 452      A1277540 
 452      1FF1A77F 
 452      210DEA55 
 452      31A8D7
 453 0d9e 20A8F5B2 		.ascii	" \250\365\262\240^\365\011j\275,\250\335>A\275\312\203"
 453      A05EF509 
 453      6ABD2CA8 
 453      DD3E41BD 
 453      CA83
 454 0db0 7A940715 		.ascii	"z\224\007\025\003y2}:\013$s\355\255\026\310z!\220's"
 454      0379327D 
 454      3A0B2473 
 454      EDAD16C8 
 454      7A219027 
 455 0dc5 3E41F761 		.ascii	">A\367a? \357\244\356/\320\212\222\2359\274()\362-J"
 455      3F20EFA4 
 455      EE2FD08A 
 455      929D39BC 
 455      2829F22D 
 456 0dda F0DED6F4 		.ascii	"\360\336\326\364\217\371{\025x\276P\333\012\213\274"
 456      8FF97B15 
 456      78BE50DB 
 456      0A8BBC
 457 0de9 5B61D1CD 		.ascii	"[a\321\315\262\324Pz\0267\226\2437\256t)oK\326\2617"
 457      B2D4507A 
 457      163796A3 
 457      37AE7429 
 457      6F4BD6B1 
 458 0dfe B8470F75 		.ascii	"\270G\017u\017\004)\277\207\262\337\361z\332v\015\204"
 458      0F0429BF 
ARM GAS  C:\Users\info\AppData\Local\Temp\ccfsgCAa.s 			page 37


 458      87B2DFF1 
 458      7ADA760D 
 458      84
 459 0e0f D13A2437 		.ascii	"\321:$7\275y\260\206\320N\016~^\276\261\277)\230\370"
 459      BD79B086 
 459      D04E0E7E 
 459      5EBEB1BF 
 459      2998F8
 460 0e22 6C416CFF 		.ascii	"lAl\3771\373\355Ix\203mU\270;\231\243\242\370E\0244"
 460      31FBED49 
 460      78836D55 
 460      B83B99A3 
 460      A2F84514 
 461 0e37 B03D2A0A 		.ascii	"\260=*\012\017\012[s~\277\377\300\0326\330\336%\327"
 461      0F0A5B73 
 461      7EBFFFC0 
 461      1A36D8DE 
 461      25D7
 462 0e49 2676BF48 		.ascii	"&v\277H[\241>\033@\023\235EnR 4R|\202m\000\337\033\242"
 462      5BA13E1B 
 462      40139D45 
 462      6E522034 
 462      527C826D 
 463 0e61 489601B6 		.ascii	"H\226\001\266l\220\267\220\300\337\200\214\200\374\010"
 463      6C90B790 
 463      C0DF808C 
 463      80FC08
 464 0e70 F21A6418 		.ascii	"\362\032d\030\344\025\310K\220\027 C \317A\236\201<"
 464      E415C84B 
 464      90172043 
 464      20CF419E 
 464      813C
 465 0e82 057902F2 		.ascii	"\005y\002\362\030\344\021\310C\220\007 \203 \255 } "
 465      18E411C8 
 465      43900720 
 465      8320AD20 
 465      7D20
 466 0e94 BD203D20 		.ascii	"\275 = \335 ] \235 ?\200\334\006\271\005\322\001\322"
 466      DD205D20 
 466      9D203F80 
 466      DC06B905 
 466      D201D2
 467 0ea7 EEB369F4 		.ascii	"\356\263i\364\212\233[\263\342\252\222\254\316N*P\205"
 467      8A9B5BB3 
 467      E2AA92AC 
 467      CE4E2A50 
 467      85
 468 0eb8 84798E48 		.ascii	"\204y\216H\270U\362$X#\343\212\257{\253s\204\327\222"
 468      B855F224 
 468      5823E38A 
 468      AF7BAB73 
 468      84D792
 469 0ecb E765EC33 		.ascii	"\347e\3543\002\373L\273\372\273\3075\031W\374q\354\264"
 469      02FB4CBB 
 469      FABBC735 
 469      1957FC71 
 469      ECB4
ARM GAS  C:\Users\info\AppData\Local\Temp\ccfsgCAa.s 			page 38


 470 0edd C6BD21E3 		.ascii	"\306\275!\343\212\251\270\\\214E\203\214-luEZ\367\032"
 470      8AA9B85C 
 470      8C45838C 
 470      2D6C7545 
 470      5AF71A
 471 0ef0 6554E1B7 		.ascii	"eT\341\267\320\334\234\351)<\305\263\037/Z\024\262Z"
 471      D0DC9CE9 
 471      293CC5B3 
 471      1F2F5A14 
 471      B25A
 472 0f02 E3DDF4A7 		.ascii	"\343\335\364\247o\315\231\221\302\227\033{\375\230\241"
 472      6FCD9991 
 472      C2971B7B 
 472      FD98A1
 473 0f11 CC37F525 		.ascii	"\3147\365%\347&\377\035!\273\375c\\\235w`u\236\224O"
 473      E726FF1D 
 473      21BBFD63 
 473      5C9D7760 
 473      759E944F 
 474 0f25 CF49D9E5 		.ascii	"\317I\331\345\256\230]\262aV\366\313\262\313]\237\354"
 474      AE985DB2 
 474      6156F6CB 
 474      B2CB5D9F 
 474      EC
 475 0f36 D22FCB2E 		.ascii	"\322/\313.e>\331\345.\317.\367\324\224}\237\362W%\202"
 475      653ED9E5 
 475      2ECF2EF7 
 475      D4947D9F 
 475      F2572582 
 476 0f4a CA019F0A 		.ascii	"\312\001\237\012\357\276\244\302S\027\316\026p\353\377"
 476      EFBEA4C2 
 476      5317CE16 
 476      70EBFF
 477 0f59 EFC279D5 		.ascii	"\357\302y\325\"\274\356.\323\373\314\200\322I\325\303"
 477      22BCEE2E 
 477      D3FBCC80 
 477      D249D5C3 
 478 0f69 500B9F2D 		.ascii	"P\013\237-\374\037\362\310\270b\365\320\243q\313e\\"
 478      FC1FF2C8 
 478      B862F5D0 
 478      A371CB65 
 478      5C
 479 0f7a 71CA7669 		.ascii	"q\312vi\334\3232\2560a[5j\205\214*L\251f\215Z\351K="
 479      DCD332AE 
 479      30615B35 
 479      6A858C2A 
 479      4CA9668D 
 480 0f92 33A936BB 		.ascii	"3\2516\273\251q\317\312\270bJ8\247q"
 480      A971CFCA 
 480      B8624A38 
 480      A771
 481 0fa0 AB645CB1 		.ascii	"\253d\\\2616+\325\270\347d\\\237\177\021\240q\253e\\"
 481      362BD5B8 
 481      E7645C9F 
 481      7F11A071 
 481      AB655C
 482 0fb3 9F570D1A 		.ascii	"\237W\015\032\267F\306\025\243\233\247q\317\313\270"
ARM GAS  C:\Users\info\AppData\Local\Temp\ccfsgCAa.s 			page 39


 482      B746C615 
 482      A39BA771 
 482      CFCBB8
 483 0fc2 4274DF37 		.ascii	"Bt\3377\253\324\0132\252\020\3351\215z\311\227zqRt\337"
 483      ABD40B32 
 483      AA10DD31 
 483      8D7AC997 
 483      7A715274 
 484 0fd7 69DCCB32 		.ascii	"i\334\3132\256\030\335\327\315B\372\252\225\261\305"
 484      AE18DDD7 
 484      CD42FAAA 
 484      95B1C5
 485 0fe6 F8BED48E 		.ascii	"\370\276\324\216\374Wd\\1\276/\262\224\"\262\036v\300"
 485      FC57645C 
 485      31BE2FB2 
 485      9422B21E 
 485      76C0
 486 0ff8 3AFF1473 		.ascii	":\377\024s\321\277\203\235"
 486      D1BF839D 
 487 1000 59D391FE 		.ascii	"Y\323\221\376\016\226\3775\177\372UyF\032\365I\014\357"
 487      0E96FF35 
 487      7FFA5579 
 487      461AF549 
 487      0CEF
 488 1012 7C128372 		.ascii	"|\022\203r*\206\024\330\304\216T\233 \031\214{O\305"
 488      2A8614D8 
 488      C48E549B 
 488      20198C7B 
 488      4FC5
 489 1024 AB2023BC 		.ascii	"\253 #\274\207\3259\346\263:O5\363\362l\235\301LZ\300"
 489      87D539E6 
 489      B33A4F35 
 489      F3F26C9D 
 489      C14C5AC0 
 490 1038 81F10F94 		.ascii	"\201\361\017\224g\276\257\005\274\372o*O\260\304\263"
 490      67BEAF05 
 490      BCFA6F2A 
 490      4FB0C4B3 
 491 1048 166CC94D 		.ascii	"\026l\311M\2245\3779\366r\002zy\335\337\210\274\250"
 491      9435FF39 
 491      F672027A 
 491      79DDDF88 
 491      BCA8
 492 105a 4B310869 		.ascii	"K1\010iw%\250\366\030$iWd\351\004\212\220v\177;]`\000"
 492      7725A8F6 
 492      18246957 
 492      64E9048A 
 492      90767F3B 
 493 1071 1FFEA61A 		.ascii	"\037\376\246\032\374\262.\226\\\335\033\246\361\177"
 493      FCB22E96 
 493      5CDD1BA6 
 493      F17F
 494 107f C2006D37 		.ascii	"\302\000m7\264\362\016\224j\325i\226\262\201\254\006"
 494      B4F20E94 
 494      6AD56996 
 494      B281AC06 
 495 108f 4B0DD28E 		.ascii	"K\015\322\216,\370C\375X\343\323\017\264\332\211V\231"
ARM GAS  C:\Users\info\AppData\Local\Temp\ccfsgCAa.s 			page 40


 495      2CF843FD 
 495      58E3D30F 
 495      B4DA8956 
 495      99
 496 10a0 C6467FAB 		.ascii	"\306F\177\253J\375\236\305\313\304q\3372Q\260\221&\332"
 496      4AFD9EC5 
 496      CBC471DF 
 496      3251B091 
 496      26DA
 497 10b2 D80836D6 		.ascii	"\330\0106\326\313b\225\346\023\253\365\1774Vi<V\033"
 497      CB6295E6 
 497      13ABF57F 
 497      3456693C 
 497      561B
 498 10c4 7C62759A 		.ascii	"|bu\232x\203\325\213n\263i\323\252\271\275^p\273\343"
 498      7883D58B 
 498      6EB369D3 
 498      AAB9BD5E 
 498      70BBE3
 499 10d7 DA278C91 		.ascii	"\332'\214\221n\210$m\032c\234W\260\362\331$\314\326"
 499      6E88246D 
 499      1A639C57 
 499      B0F2D924 
 499      CCD6
 500 10e9 3F309B6E 		.ascii	"?0\233ng)\263i3\330n\227\257\031\377Q\360\211P\246O"
 500      6729B369 
 500      33D86E97 
 500      AF19FF51 
 500      F08950A6 
 501 10fe 84D0D917 		.ascii	"\204\320\331\027\330\035\246\262\303\277;Xktd\205*\265"
 501      D81DA6B2 
 501      C3BF3B58 
 501      6B746485 
 501      2AB5
 502 1110 0698BBAD 		.ascii	"\006\230\273\255\230U\337]\370\227\366-8fm\262\322\276"
 502      9855DF5D 
 502      F897F62D 
 502      38666DB2 
 502      D2BE
 503 1122 6D032FED 		.ascii	"m\003/\355\331\376\336\242\225\366m<0\310\250j\236\301"
 503      D9FEDEA2 
 503      95F66D3C 
 503      30C8A86A 
 503      9EC1
 504 1134 18AC4C29 		.ascii	"\030\254L)\326\274\351\347+\235\375\314\271ft\"\360"
 504      D6BCE9E7 
 504      2B9DFDCC 
 504      B9667422 
 504      F0
 505 1145 D33D9E3D 		.ascii	"\323=\236=E\236\276\354\202\237\347\036\205\232;\305"
 505      459EBEEC 
 505      829FE71E 
 505      859A3BC5 
 506 1155 E3F9073E 		.ascii	"\343\371\007>f\344\220\366O\376\340\222}\025\220N\242"
 506      66E490F6 
 506      4FFEE092 
 506      7D15904E 
ARM GAS  C:\Users\info\AppData\Local\Temp\ccfsgCAa.s 			page 41


 506      A2
 507 1166 2339864F 		.ascii	"#9\206O\341\331G;k7\021\2322\025\177g\353\310N\011@"
 507      E1D9473B 
 507      6B37119A 
 507      32157F67 
 507      EBC84E09 
 508 117b 4535ED8D 		.ascii	"E5\355\215f\324\302\225l5\250J\340RS\262\315\360\251"
 508      66D4C295 
 508      6C35A84A 
 508      E05253B2 
 508      CDF0A9
 509 118e EE93C485 		.ascii	"\356\223\304\205K\276\264\304\306Z\226.\217u\304\331"
 509      4BBEB4C4 
 509      C65A962E 
 509      8F75C4D9 
 510 119e 2DCBED4E 		.ascii	"-\313\355N\267\303f\215\265\270\343\023,\261\256h\343"
 510      B7C3668D 
 510      B5B8E313 
 510      2CB1AE68 
 510      E3
 511 11af 3FFFCB6F 		.ascii	"?\377\313of\377\343\202\005\272`\213%\321\021\347^h"
 511      66FFE382 
 511      05BA608B 
 511      25D111E7 
 511      5E68
 512 11c1 71A710DB 		.ascii	"q\247\020\333\337/Jp\306/qZ\227\315^\354\210\265\273"
 512      DF2F4A70 
 512      C62F715A 
 512      97CD5EEC 
 512      88B5BB
 513 11d4 6647252D 		.ascii	"fG%-\374\346/\027\331\222\023\234v\227kQ\202+\3366\333"
 513      FCE62F17 
 513      D992139C 
 513      76976B51 
 513      822BDE36 
 514 11e9 E6B45BDD 		.ascii	"\346\264[\335\361\316E_\317\373\322\267\301\261,!\336"
 514      F1CE455F 
 514      CFFBD2B7 
 514      C1B12C21 
 514      DE
 515 11fa E95EB424 		.ascii	"\351^\264$.q\221\325\271l\321\337\314\373z\336\002v"
 515      2E7191D5 
 515      B96CD1DF 
 515      CCFB7ADE 
 515      0276
 516 120c F5795C7C 		.ascii	"\365y\\|\234\375s\2735\332\261\310\021g\213M\214\261"
 516      9CFD73BB 
 516      35DAB1C8 
 516      11678B4D 
 516      8CB1
 517 121e 2F5A66B5 		.ascii	"/Zf\265-\005\247\026Yb\354\213\255\211\261n\213;9\301"
 517      2D05A716 
 517      5962EC8B 
 517      AD89B16E 
 517      8B3B39C1 
 518 1232 EE9AB754 		.ascii	"\356\232\267T\027\244\270\262\374\377\312\023W\262k"
 518      17A4B8B2 
ARM GAS  C:\Users\info\AppData\Local\Temp\ccfsgCAa.s 			page 42


 518      FCFFCA13 
 518      57B26B
 519 1241 91C5E58E 		.ascii	"\221\305\345\216\001\263`>\204\007\215\371`qO\2337o"
 519      01B3603E 
 519      84078DF9 
 519      60714F9B 
 519      376F
 520 1253 11873697 		.ascii	"\021\2076\227\323\306\257\200`\212qZWXl\361\261\361"
 520      D3C6AF80 
 520      608A715A 
 520      57586CF1 
 520      B1F1
 521 1265 CEC86887 		.ascii	"\316\310h\207{\2315\301\342vZ\343\\\011V\247=\316\226"
 521      7B9935C1 
 521      E2765AE3 
 521      5C0956A7 
 521      3DCE96
 522 1278 1CB62436 		.ascii	"\034\266$69a\251%\311\022\277x\261\313\3566Z,\330\235"
 522      3961A925 
 522      C912BF78 
 522      B1CBEE36 
 522      5A2CD89D 
 523 128c 40FC9AB2 		.ascii	"@\374\232\2628\0364;\355\213\241\337.\233=\316\035\256"
 523      381E343B 
 523      ED8BA1DF 
 523      2E9B3DCE 
 523      1DAE
 524 129e 36583946 		.ascii	"6X9F\302R\273c\311R\267eY|\214}\266\303eI\260.\261["
 524      C252BB63 
 524      C952B765 
 524      597C8C7D 
 524      B6C36549 
 525 12b6 6CB18E04 		.ascii	"l\261\216\004\313\012G\\L\374\012\246\323\356t\331m"
 525      CB0A475C 
 525      4CFC0AA6 
 525      D3EE74D9 
 525      6D
 526 12c7 6E477C5C 		.ascii	"nG|\\0\177\302\021\2678~\252\313mu\272-\011\361.Kl\374"
 526      307FC211 
 526      B7387EAA 
 526      CB6D75BA 
 526      2D09F12E 
 527 12de 0ABBD362 		.ascii	"\012\273\323b5\341\310.\370\306\3426z/\004VbB\002\260"
 527      35E1C82E 
 527      F8C6E236 
 527      7A2F0456 
 527      624202B0 
 528 12f2 BE352BBE 		.ascii	"\2765+\276\200\035\2475\304\252]\007{o,1*\255\337\032"
 528      801DA735 
 528      C4AA5D07 
 528      7B6F2C31 
 528      2AADDF1A 
 529 1306 93BD3DF3 		.ascii	"\223\275=\363v1|\2315\311b[ju*^\207\251x\205#\306\275"
 529      76317C99 
 529      35C9625B 
 529      6A752A5E 
 529      87A97885 
ARM GAS  C:\Users\info\AppData\Local\Temp\ccfsgCAa.s 			page 43


 530 131d 740A0409 		.ascii	"t\012\004\011z\000vb\354\261n\253%)\\m\340\244d?\234"
 530      7A007662 
 530      ECB16EAB 
 530      25295C6D 
 530      E0A4643F 
 531 1332 34CD17A3 		.ascii	"4\315\027\243\322H\337F\256\331\244\266-\320.\347\033"
 531      D248DF46 
 531      AED9A4B6 
 531      2DD02EE7 
 531      1B
 532 1343 A3A39378 		.ascii	"\243\243\223x\340\202q$lq\356\251\026>\212j\234|c\020"
 532      E0827124 
 532      6C71EEA9 
 532      163E8A6A 
 532      9C7C6310 
 533 1357 E7B0017B 		.ascii	"\347\260\001{\212?%\204_\307\330\331Mc\364\022\034q"
 533      8A3F2584 
 533      5FC7D8D9 
 533      4D63F412 
 533      1C71
 534 1369 E362E522 		.ascii	"\343b\345\"\014FE\033vw\030\362,\340\006SjF\323\350"
 534      0C46451B 
 534      767718F2 
 534      2CE00653 
 534      6A46D3E8 
 535 137d 7A0802EE 		.ascii	"z\010\002\3562I&IF0\275\304\356\266${/\222L\312\323"
 535      32492649 
 535      4630BDC4 
 535      EEB6247B 
 535      2F924CCA 
 536 1392 096E67A4 		.ascii	"\011ng\244\340\252\322\352\2461\016g\304\344\3460\216"
 536      E0AAD2EA 
 536      A6310E67 
 536      C4E4E630 
 536      8E
 537 13a3 603DDB2C 		.ascii	"`=\333,\313a\376\374\211\306P\333,\213\343@\247\201"
 537      CB61FEFC 
 537      89C650DB 
 537      2C8BE340 
 537      A781
 538 13b5 3506F1E9 		.ascii	"5\006\361\351\223\274@\371\236\217\337I\012N\232\037"
 538      93BC40F9 
 538      9E8FDF49 
 538      0A4E9A1F 
 539 13c5 94E882E8 		.ascii	"\224\350\202\350\301}\374Vp\222\202\223\346\007bg\002"
 539      C17DFC56 
 539      70928293 
 539      E6076267 
 539      02
 540 13d6 783702A3 		.ascii	"x7\002\243\023\027\003\027\277\346\207%8\222\354\261"
 540      13170317 
 540      BFE68725 
 540      3892ECB1 
 541 13e6 165BA2D3 		.ascii	"\026[\242\323iq\306\257\230\202\220\335\303g\302\265"
 541      6971C6AF 
 541      988290DD 
 541      C367C2B5 
ARM GAS  C:\Users\info\AppData\Local\Temp\ccfsgCAa.s 			page 44


 542 13f6 06FE74A8 		.ascii	"\006\376t\250\033\226\263J\017\347Hc\233U\014\256\353"
 542      1B96B34A 
 542      0FE74863 
 542      9B550CAE 
 542      EB
 543 1407 6DD1E189 		.ascii	"m\321\341\211\0111V\267\035\327\000L\377\031\270@}\033"
 543      093156B7 
 543      1DD7004C 
 543      FF19B840 
 543      7D1B
 544 1419 2DB6E829 		.ascii	"-\266\350)JS\214c\231=\316\005\353b\246HT[\201\031\206"
 544      4A538C63 
 544      993DCE05 
 544      EB62A648 
 544      545B8119 
 545 142e 6B3A1A16 		.ascii	"k:\032\026\2753\321\3466\362\005\035\373w\363q\012x"
 545      BD33D1E6 
 545      36F2051D 
 545      FB77F371 
 545      0A78
 546 1440 111082BD 		.ascii	"\021\020\202\275Dw\260\232E\247\013$5\263\332\242\015"
 546      4477B09A 
 546      45A70B24 
 546      35B3DAA2 
 546      0D
 547 1451 890B9316 		.ascii	"\211\013\223\026\302,\210\216O\214\263\331A3\030\235"
 547      C22C888E 
 547      4F8CB3D9 
 547      4133189D 
 548 1461 A1C258AB 		.ascii	"\241\302X\253\013\346\005\270\311\333\377Tm\367\346"
 548      0BE605B8 
 548      C9DBFF54 
 548      6DF7E6
 549 1470 3EF556C8 		.ascii	">\365V\310\222\004G<d\003\027\264\232\022\335\213\027"
 549      9204473C 
 549      640317B4 
 549      9A12DD8B 
 549      17
 550 1481 6233285E 		.ascii	"b3(^\356\000\2765&\206\345\276\020\307\2276\013\237"
 550      EE00BE35 
 550      2686E5BE 
 550      10C79736 
 550      0B9F
 551 1493 C1F6187E 		.ascii	"\301\366\030~\255\264O\203I\251\314\340\345,=\360e`"
 551      ADB44F83 
 551      49A9CCE0 
 551      E52C3DF0 
 551      6560
 552 14a5 84AC140F 		.ascii	"\204\254\024\017\311mIpt\242\013\222H\274\355wJV\370"
 552      C96D4970 
 552      74A20B92 
 552      48BCED77 
 552      4A56F8
 553 14b8 EA4B252B 		.ascii	"\352K%+\260\213\251\334\2625.\206-Sk2t)\204u\311\262"
 553      B08BA9DC 
 553      B2352E86 
 553      2D536B32 
ARM GAS  C:\Users\info\AppData\Local\Temp\ccfsgCAa.s 			page 45


 553      74298475 
 554 14ce CC05333E 		.ascii	"\314\0053>:(:\331\315\272\031h\263\306\300\227)\306"
 554      3A283AD9 
 554      CDBA1968 
 554      B3C6C097 
 554      29C6
 555 14e0 E14A4056 		.ascii	"\341J@VP\234=\011f\\\264\231\263\371\342\004\340\275"
 555      509C3D09 
 555      665CB499 
 555      B3F9E204 
 555      E0BD
 556 14f2 CF965208 		.ascii	"\317\226R\010\016?\037\372\251\213a\2661\257\324\004"
 556      0E3F1FFA 
 556      A98B61B6 
 556      31AFD404 
 557 1502 39C51B03 		.ascii	"9\305\033\003oC\010\037\177\234\013&~\315\237\234\266"
 557      6F43081F 
 557      7F9C0B26 
 557      7ECD9F9C 
 557      B6
 558 1513 C2E96003 		.ascii	"\302\351`\003\236\030\353RZ,q\256\010\030[\253\005\036"
 558      9E18EB52 
 558      5A2C71AE 
 558      08185BAB 
 558      051E
 559 1525 4A84240C 		.ascii	"J\204$\014#\014M\323X<\324\236Z\026\314\237\377\273"
 559      230C4DD3 
 559      583CD49E 
 559      5A16CC9F 
 559      FFBB
 560 1537 5F7C6774 		.ascii	"_|gt%8x0\314.h\303;K\277\213`\300W\341TW\214\237\276"
 560      25387830 
 560      CC2E68C3 
 560      3B4BBF8B 
 560      60C057E1 
 561 1550 0858CE2C 		.ascii	"\010X\316,?C\243e\205\025\226\3672\3274D\342\223\313"
 561      3F43A365 
 561      851596F7 
 561      32D73444 
 561      E293CB
 562 1563 5C336157 		.ascii	"\\3aW\202\356\303Z\202\276[\243\231\333\214\035\007"
 562      82EEC35A 
 562      82BE5BA3 
 562      99DB8C1D 
 562      07
 563 1574 3798027E 		.ascii	"7\230\002~\307\036'\336\210\360a\307\332\227\333c\247"
 563      C71E27DE 
 563      88F061C7 
 563      DA97DB63 
 563      A7
 564 1585 8A34DE32 		.ascii	"\2124\3362\223\207U\014\2472k\315\030U\214\223\377F"
 564      9387550C 
 564      A7326BCD 
 564      18558C93 
 564      FF46
 565 1597 95B41036 		.ascii	"\225\264\0206\252\310\311\217\272qLQC\244:\015q\276"
 565      AAC8C98F 
ARM GAS  C:\Users\info\AppData\Local\Temp\ccfsgCAa.s 			page 46


 565      BA714C51 
 565      43A43A0D 
 565      71BE
 566 15a9 B1A10EE4 		.ascii	"\261\241\016\344\367\335\270\011\"-\002&\2255\321\035"
 566      F7DDB809 
 566      222D0226 
 566      9535D11D 
 567 15b9 EFDD84EC 		.ascii	"\357\335\204\354Vg \277\355\376x\322\366\250-\211y6"
 567      566720BF 
 567      EDFE78D2 
 567      F6A82D89 
 567      7936
 568 15cb DDCFFCCA 		.ascii	"\335\317\374\312\217\245\361N\307w0;\241\000q\362\335"
 568      8FA5F14E 
 568      C777303B 
 568      A10071F2 
 568      DD
 569 15dc 0D4A90FF 		.ascii	"\015J\220\377\0026%\376\207"
 569      023625FE 
 569      87
 570              		.text
 571              		.section	.gnu.lto_.symtab.792bbfd9,"",%progbits
 572 0000 75386732 		.ascii	"u8g2_ll_hvline_vertical_top_lsb\000"
 572      5F6C6C5F 
 572      68766C69 
 572      6E655F76 
 572      65727469 
 573 0020 00       		.ascii	"\000"
 574 0021 00       		.ascii	"\000"
 575 0022 00       		.ascii	"\000"
 576 0023 00000000 		.ascii	"\000\000\000\000\000\000\000\000"
 576      00000000 
 577 002b 16020000 		.ascii	"\026\002\000\000"
 578 002f 75386732 		.ascii	"u8g2_ll_hvline_horizontal_right_lsb\000"
 578      5F6C6C5F 
 578      68766C69 
 578      6E655F68 
 578      6F72697A 
 579 0053 00       		.ascii	"\000"
 580 0054 00       		.ascii	"\000"
 581 0055 00       		.ascii	"\000"
 582 0056 00000000 		.ascii	"\000\000\000\000\000\000\000\000"
 582      00000000 
 583 005e 18020000 		.ascii	"\030\002\000\000"
 584              		.text
 585              		.section	.gnu.lto_.opts,"",%progbits
 586 0000 272D666D 		.ascii	"'-fmath-errno' '-fsigned-zeros' '-ftrapping-math' '"
 586      6174682D 
 586      6572726E 
 586      6F272027 
 586      2D667369 
 587 0033 2D666E6F 		.ascii	"-fno-trapv' '-fno-strict-overflow' '-fno-openmp' '-"
 587      2D747261 
 587      70762720 
 587      272D666E 
 587      6F2D7374 
 588 0066 666E6F2D 		.ascii	"fno-openacc' '-mcpu=cortex-m3' '-mthumb' '-g' '-Og'"
ARM GAS  C:\Users\info\AppData\Local\Temp\ccfsgCAa.s 			page 47


 588      6F70656E 
 588      61636327 
 588      20272D6D 
 588      6370753D 
 589 0099 20272D66 		.ascii	" '-ffunction-sections' '-ffat-lto-objects' '-flto'\000"
 589      66756E63 
 589      74696F6E 
 589      2D736563 
 589      74696F6E 
 590              		.text
 591              		.cfi_sections	.debug_frame
 592              		.section	.text.u8g2_ll_hvline_vertical_top_lsb,"ax",%progbits
 593              		.align	2
 594              		.global	u8g2_ll_hvline_vertical_top_lsb
 595              		.thumb
 596              		.thumb_func
 597              		.type	u8g2_ll_hvline_vertical_top_lsb, %function
 598              	u8g2_ll_hvline_vertical_top_lsb:
 599              	.LFB0:
 600              		.file 1 "..\\u8g2_csrc\\u8g2_ll_hvline.c"
   1:..\u8g2_csrc/u8g2_ll_hvline.c **** /*
   2:..\u8g2_csrc/u8g2_ll_hvline.c **** 
   3:..\u8g2_csrc/u8g2_ll_hvline.c ****   u8g2_ll_hvline.c
   4:..\u8g2_csrc/u8g2_ll_hvline.c ****   
   5:..\u8g2_csrc/u8g2_ll_hvline.c ****   low level hvline
   6:..\u8g2_csrc/u8g2_ll_hvline.c **** 
   7:..\u8g2_csrc/u8g2_ll_hvline.c ****   Universal 8bit Graphics Library (https://github.com/olikraus/u8g2/)
   8:..\u8g2_csrc/u8g2_ll_hvline.c **** 
   9:..\u8g2_csrc/u8g2_ll_hvline.c ****   Copyright (c) 2016, olikraus@gmail.com
  10:..\u8g2_csrc/u8g2_ll_hvline.c ****   All rights reserved.
  11:..\u8g2_csrc/u8g2_ll_hvline.c **** 
  12:..\u8g2_csrc/u8g2_ll_hvline.c ****   Redistribution and use in source and binary forms, with or without modification, 
  13:..\u8g2_csrc/u8g2_ll_hvline.c ****   are permitted provided that the following conditions are met:
  14:..\u8g2_csrc/u8g2_ll_hvline.c **** 
  15:..\u8g2_csrc/u8g2_ll_hvline.c ****   * Redistributions of source code must retain the above copyright notice, this list 
  16:..\u8g2_csrc/u8g2_ll_hvline.c ****     of conditions and the following disclaimer.
  17:..\u8g2_csrc/u8g2_ll_hvline.c ****     
  18:..\u8g2_csrc/u8g2_ll_hvline.c ****   * Redistributions in binary form must reproduce the above copyright notice, this 
  19:..\u8g2_csrc/u8g2_ll_hvline.c ****     list of conditions and the following disclaimer in the documentation and/or other 
  20:..\u8g2_csrc/u8g2_ll_hvline.c ****     materials provided with the distribution.
  21:..\u8g2_csrc/u8g2_ll_hvline.c **** 
  22:..\u8g2_csrc/u8g2_ll_hvline.c ****   THIS SOFTWARE IS PROVIDED BY THE COPYRIGHT HOLDERS AND 
  23:..\u8g2_csrc/u8g2_ll_hvline.c ****   CONTRIBUTORS "AS IS" AND ANY EXPRESS OR IMPLIED WARRANTIES, 
  24:..\u8g2_csrc/u8g2_ll_hvline.c ****   INCLUDING, BUT NOT LIMITED TO, THE IMPLIED WARRANTIES OF 
  25:..\u8g2_csrc/u8g2_ll_hvline.c ****   MERCHANTABILITY AND FITNESS FOR A PARTICULAR PURPOSE ARE 
  26:..\u8g2_csrc/u8g2_ll_hvline.c ****   DISCLAIMED. IN NO EVENT SHALL THE COPYRIGHT HOLDER OR 
  27:..\u8g2_csrc/u8g2_ll_hvline.c ****   CONTRIBUTORS BE LIABLE FOR ANY DIRECT, INDIRECT, INCIDENTAL, 
  28:..\u8g2_csrc/u8g2_ll_hvline.c ****   SPECIAL, EXEMPLARY, OR CONSEQUENTIAL DAMAGES (INCLUDING, BUT 
  29:..\u8g2_csrc/u8g2_ll_hvline.c ****   NOT LIMITED TO, PROCUREMENT OF SUBSTITUTE GOODS OR SERVICES; 
  30:..\u8g2_csrc/u8g2_ll_hvline.c ****   LOSS OF USE, DATA, OR PROFITS; OR BUSINESS INTERRUPTION) HOWEVER 
  31:..\u8g2_csrc/u8g2_ll_hvline.c ****   CAUSED AND ON ANY THEORY OF LIABILITY, WHETHER IN CONTRACT, 
  32:..\u8g2_csrc/u8g2_ll_hvline.c ****   STRICT LIABILITY, OR TORT (INCLUDING NEGLIGENCE OR OTHERWISE) 
  33:..\u8g2_csrc/u8g2_ll_hvline.c ****   ARISING IN ANY WAY OUT OF THE USE OF THIS SOFTWARE, EVEN IF 
  34:..\u8g2_csrc/u8g2_ll_hvline.c ****   ADVISED OF THE POSSIBILITY OF SUCH DAMAGE.  
  35:..\u8g2_csrc/u8g2_ll_hvline.c **** 
  36:..\u8g2_csrc/u8g2_ll_hvline.c **** 
  37:..\u8g2_csrc/u8g2_ll_hvline.c ****   *ptr |= or_mask
ARM GAS  C:\Users\info\AppData\Local\Temp\ccfsgCAa.s 			page 48


  38:..\u8g2_csrc/u8g2_ll_hvline.c ****   *ptr ^= xor_mask
  39:..\u8g2_csrc/u8g2_ll_hvline.c ****   
  40:..\u8g2_csrc/u8g2_ll_hvline.c ****   color = 0:   or_mask = 1, xor_mask = 1
  41:..\u8g2_csrc/u8g2_ll_hvline.c ****   color = 1:   or_mask = 1, xor_mask = 0
  42:..\u8g2_csrc/u8g2_ll_hvline.c ****   color = 2:   or_mask = 0, xor_mask = 1
  43:..\u8g2_csrc/u8g2_ll_hvline.c **** 
  44:..\u8g2_csrc/u8g2_ll_hvline.c ****   if ( color <= 1 )
  45:..\u8g2_csrc/u8g2_ll_hvline.c ****     or_mask  = mask;
  46:..\u8g2_csrc/u8g2_ll_hvline.c ****   if ( color != 1 )
  47:..\u8g2_csrc/u8g2_ll_hvline.c ****     xor_mask = mask;
  48:..\u8g2_csrc/u8g2_ll_hvline.c ****     
  49:..\u8g2_csrc/u8g2_ll_hvline.c **** */
  50:..\u8g2_csrc/u8g2_ll_hvline.c **** 
  51:..\u8g2_csrc/u8g2_ll_hvline.c **** #include "u8g2.h"
  52:..\u8g2_csrc/u8g2_ll_hvline.c **** #include <assert.h>
  53:..\u8g2_csrc/u8g2_ll_hvline.c **** 
  54:..\u8g2_csrc/u8g2_ll_hvline.c **** /*=================================================*/
  55:..\u8g2_csrc/u8g2_ll_hvline.c **** /*
  56:..\u8g2_csrc/u8g2_ll_hvline.c ****   u8g2_ll_hvline_vertical_top_lsb
  57:..\u8g2_csrc/u8g2_ll_hvline.c ****     SSD13xx
  58:..\u8g2_csrc/u8g2_ll_hvline.c ****     UC1701    
  59:..\u8g2_csrc/u8g2_ll_hvline.c **** */
  60:..\u8g2_csrc/u8g2_ll_hvline.c **** 
  61:..\u8g2_csrc/u8g2_ll_hvline.c **** 
  62:..\u8g2_csrc/u8g2_ll_hvline.c **** #ifdef U8G2_WITH_HVLINE_SPEED_OPTIMIZATION
  63:..\u8g2_csrc/u8g2_ll_hvline.c **** 
  64:..\u8g2_csrc/u8g2_ll_hvline.c **** /*
  65:..\u8g2_csrc/u8g2_ll_hvline.c ****   x,y		Upper left position of the line within the local buffer (not the display!)
  66:..\u8g2_csrc/u8g2_ll_hvline.c ****   len		length of the line in pixel, len must not be 0
  67:..\u8g2_csrc/u8g2_ll_hvline.c ****   dir		0: horizontal line (left to right)
  68:..\u8g2_csrc/u8g2_ll_hvline.c **** 		1: vertical line (top to bottom)
  69:..\u8g2_csrc/u8g2_ll_hvline.c ****   asumption: 
  70:..\u8g2_csrc/u8g2_ll_hvline.c ****     all clipping done
  71:..\u8g2_csrc/u8g2_ll_hvline.c **** */
  72:..\u8g2_csrc/u8g2_ll_hvline.c **** void u8g2_ll_hvline_vertical_top_lsb(u8g2_t *u8g2, u8g2_uint_t x, u8g2_uint_t y, u8g2_uint_t len, u
  73:..\u8g2_csrc/u8g2_ll_hvline.c **** {
 601              		.loc 1 73 0
 602              		.cfi_startproc
 603              		@ args = 4, pretend = 0, frame = 0
 604              		@ frame_needed = 0, uses_anonymous_args = 0
 605              	.LVL0:
 606 0000 F0B5     		push	{r4, r5, r6, r7, lr}
 607              		.cfi_def_cfa_offset 20
 608              		.cfi_offset 4, -20
 609              		.cfi_offset 5, -16
 610              		.cfi_offset 6, -12
 611              		.cfi_offset 7, -8
 612              		.cfi_offset 14, -4
 613 0002 9DF814E0 		ldrb	lr, [sp, #20]	@ zero_extendqisi2
 614              	.LVL1:
  74:..\u8g2_csrc/u8g2_ll_hvline.c ****   uint16_t offset;
  75:..\u8g2_csrc/u8g2_ll_hvline.c ****   uint8_t *ptr;
  76:..\u8g2_csrc/u8g2_ll_hvline.c ****   uint8_t bit_pos, mask;
  77:..\u8g2_csrc/u8g2_ll_hvline.c ****   uint8_t or_mask, xor_mask;
  78:..\u8g2_csrc/u8g2_ll_hvline.c **** #ifdef __unix
  79:..\u8g2_csrc/u8g2_ll_hvline.c ****   uint8_t *max_ptr = u8g2->tile_buf_ptr + u8g2_GetU8x8(u8g2)->display_info->tile_width*u8g2->tile_b
  80:..\u8g2_csrc/u8g2_ll_hvline.c **** #endif
ARM GAS  C:\Users\info\AppData\Local\Temp\ccfsgCAa.s 			page 49


  81:..\u8g2_csrc/u8g2_ll_hvline.c **** 
  82:..\u8g2_csrc/u8g2_ll_hvline.c ****   //assert(x >= u8g2->buf_x0);
  83:..\u8g2_csrc/u8g2_ll_hvline.c ****   //assert(x < u8g2_GetU8x8(u8g2)->display_info->tile_width*8);
  84:..\u8g2_csrc/u8g2_ll_hvline.c ****   //assert(y >= u8g2->buf_y0);
  85:..\u8g2_csrc/u8g2_ll_hvline.c ****   //assert(y < u8g2_GetU8x8(u8g2)->display_info->tile_height*8);
  86:..\u8g2_csrc/u8g2_ll_hvline.c ****   
  87:..\u8g2_csrc/u8g2_ll_hvline.c ****   /* bytes are vertical, lsb on top (y=0), msb at bottom (y=7) */
  88:..\u8g2_csrc/u8g2_ll_hvline.c ****   bit_pos = y;		/* overflow truncate is ok here... */
  89:..\u8g2_csrc/u8g2_ll_hvline.c ****   bit_pos &= 7; 	/* ... because only the lowest 3 bits are needed */
 615              		.loc 1 89 0
 616 0006 02F00704 		and	r4, r2, #7
 617              	.LVL2:
  90:..\u8g2_csrc/u8g2_ll_hvline.c ****   mask = 1;
  91:..\u8g2_csrc/u8g2_ll_hvline.c ****   mask <<= bit_pos;
 618              		.loc 1 91 0
 619 000a 0125     		movs	r5, #1
 620 000c A540     		lsls	r5, r5, r4
 621 000e EDB2     		uxtb	r5, r5
 622              	.LVL3:
  92:..\u8g2_csrc/u8g2_ll_hvline.c **** 
  93:..\u8g2_csrc/u8g2_ll_hvline.c ****   or_mask = 0;
  94:..\u8g2_csrc/u8g2_ll_hvline.c ****   xor_mask = 0;
  95:..\u8g2_csrc/u8g2_ll_hvline.c ****   if ( u8g2->draw_color <= 1 )
 623              		.loc 1 95 0
 624 0010 90F88670 		ldrb	r7, [r0, #134]	@ zero_extendqisi2
 625 0014 012F     		cmp	r7, #1
 626 0016 01D9     		bls	.L10
  93:..\u8g2_csrc/u8g2_ll_hvline.c ****   xor_mask = 0;
 627              		.loc 1 93 0
 628 0018 0026     		movs	r6, #0
 629 001a 00E0     		b	.L2
 630              	.L10:
  96:..\u8g2_csrc/u8g2_ll_hvline.c ****     or_mask  = mask;
 631              		.loc 1 96 0
 632 001c 2E46     		mov	r6, r5
 633              	.L2:
 634              	.LVL4:
  97:..\u8g2_csrc/u8g2_ll_hvline.c ****   if ( u8g2->draw_color != 1 )
 635              		.loc 1 97 0
 636 001e 012F     		cmp	r7, #1
 637 0020 00D1     		bne	.L3
  94:..\u8g2_csrc/u8g2_ll_hvline.c ****   if ( u8g2->draw_color <= 1 )
 638              		.loc 1 94 0
 639 0022 0025     		movs	r5, #0
 640              	.LVL5:
 641              	.L3:
  98:..\u8g2_csrc/u8g2_ll_hvline.c ****     xor_mask = mask;
  99:..\u8g2_csrc/u8g2_ll_hvline.c **** 
 100:..\u8g2_csrc/u8g2_ll_hvline.c **** 
 101:..\u8g2_csrc/u8g2_ll_hvline.c ****   offset = y;		/* y might be 8 or 16 bit, but we need 16 bit, so use a 16 bit variable */
 102:..\u8g2_csrc/u8g2_ll_hvline.c ****   offset &= ~7;
 642              		.loc 1 102 0
 643 0024 02F0F802 		and	r2, r2, #248
 644              	.LVL6:
 103:..\u8g2_csrc/u8g2_ll_hvline.c ****   offset *= u8g2_GetU8x8(u8g2)->display_info->tile_width;
 645              		.loc 1 103 0
 646 0028 0768     		ldr	r7, [r0]
ARM GAS  C:\Users\info\AppData\Local\Temp\ccfsgCAa.s 			page 50


 647 002a 97F810C0 		ldrb	ip, [r7, #16]	@ zero_extendqisi2
 648              	.LVL7:
 104:..\u8g2_csrc/u8g2_ll_hvline.c ****   ptr = u8g2->tile_buf_ptr;
 649              		.loc 1 104 0
 650 002e 876B     		ldr	r7, [r0, #56]
 651              	.LVL8:
 105:..\u8g2_csrc/u8g2_ll_hvline.c ****   ptr += offset;
 106:..\u8g2_csrc/u8g2_ll_hvline.c ****   ptr += x;
 652              		.loc 1 106 0
 653 0030 0CFB0211 		mla	r1, ip, r2, r1
 654              	.LVL9:
 655 0034 3944     		add	r1, r1, r7
 656              	.LVL10:
 107:..\u8g2_csrc/u8g2_ll_hvline.c ****   
 108:..\u8g2_csrc/u8g2_ll_hvline.c ****   if ( dir == 0 )
 657              		.loc 1 108 0
 658 0036 BEF1000F 		cmp	lr, #0
 659 003a 0AD1     		bne	.L4
 660              	.LVL11:
 661              	.L5:
 109:..\u8g2_csrc/u8g2_ll_hvline.c ****   {
 110:..\u8g2_csrc/u8g2_ll_hvline.c ****       do
 111:..\u8g2_csrc/u8g2_ll_hvline.c ****       {
 112:..\u8g2_csrc/u8g2_ll_hvline.c **** #ifdef __unix
 113:..\u8g2_csrc/u8g2_ll_hvline.c **** 	assert(ptr < max_ptr);
 114:..\u8g2_csrc/u8g2_ll_hvline.c **** #endif
 115:..\u8g2_csrc/u8g2_ll_hvline.c **** 	*ptr |= or_mask;
 662              		.loc 1 115 0 discriminator 1
 663 003c 0A78     		ldrb	r2, [r1]	@ zero_extendqisi2
 664 003e 3243     		orrs	r2, r2, r6
 665 0040 D2B2     		uxtb	r2, r2
 116:..\u8g2_csrc/u8g2_ll_hvline.c **** 	*ptr ^= xor_mask;
 666              		.loc 1 116 0 discriminator 1
 667 0042 6A40     		eors	r2, r2, r5
 668 0044 01F8012B 		strb	r2, [r1], #1
 669              	.LVL12:
 117:..\u8g2_csrc/u8g2_ll_hvline.c **** 	ptr++;
 118:..\u8g2_csrc/u8g2_ll_hvline.c **** 	len--;
 670              		.loc 1 118 0 discriminator 1
 671 0048 013B     		subs	r3, r3, #1
 672              	.LVL13:
 119:..\u8g2_csrc/u8g2_ll_hvline.c ****       } while( len != 0 );
 673              		.loc 1 119 0 discriminator 1
 674 004a 13F0FF03 		ands	r3, r3, #255
 675              	.LVL14:
 676 004e F5D1     		bne	.L5
 677 0050 F0BD     		pop	{r4, r5, r6, r7, pc}
 678              	.LVL15:
 679              	.L4:
 120:..\u8g2_csrc/u8g2_ll_hvline.c ****   }
 121:..\u8g2_csrc/u8g2_ll_hvline.c ****   else
 122:..\u8g2_csrc/u8g2_ll_hvline.c ****   {    
 123:..\u8g2_csrc/u8g2_ll_hvline.c ****     do
 124:..\u8g2_csrc/u8g2_ll_hvline.c ****     {
 125:..\u8g2_csrc/u8g2_ll_hvline.c **** #ifdef __unix
 126:..\u8g2_csrc/u8g2_ll_hvline.c ****       assert(ptr < max_ptr);
 127:..\u8g2_csrc/u8g2_ll_hvline.c **** #endif
ARM GAS  C:\Users\info\AppData\Local\Temp\ccfsgCAa.s 			page 51


 128:..\u8g2_csrc/u8g2_ll_hvline.c ****       *ptr |= or_mask;
 680              		.loc 1 128 0
 681 0052 0A78     		ldrb	r2, [r1]	@ zero_extendqisi2
 682 0054 3243     		orrs	r2, r2, r6
 683 0056 D2B2     		uxtb	r2, r2
 129:..\u8g2_csrc/u8g2_ll_hvline.c ****       *ptr ^= xor_mask;
 684              		.loc 1 129 0
 685 0058 6A40     		eors	r2, r2, r5
 686 005a 0A70     		strb	r2, [r1]
 130:..\u8g2_csrc/u8g2_ll_hvline.c ****       
 131:..\u8g2_csrc/u8g2_ll_hvline.c ****       bit_pos++;
 687              		.loc 1 131 0
 688 005c 621C     		adds	r2, r4, #1
 689              	.LVL16:
 132:..\u8g2_csrc/u8g2_ll_hvline.c ****       bit_pos &= 7;
 133:..\u8g2_csrc/u8g2_ll_hvline.c **** 
 134:..\u8g2_csrc/u8g2_ll_hvline.c ****       len--;
 690              		.loc 1 134 0
 691 005e 013B     		subs	r3, r3, #1
 692              	.LVL17:
 693 0060 DBB2     		uxtb	r3, r3
 694              	.LVL18:
 135:..\u8g2_csrc/u8g2_ll_hvline.c **** 
 136:..\u8g2_csrc/u8g2_ll_hvline.c ****       if ( bit_pos == 0 )
 695              		.loc 1 136 0
 696 0062 12F00704 		ands	r4, r2, #7
 697 0066 0AD1     		bne	.L7
 137:..\u8g2_csrc/u8g2_ll_hvline.c ****       {
 138:..\u8g2_csrc/u8g2_ll_hvline.c **** 	ptr+=u8g2->pixel_buf_width;	/* 6 Jan 17: Changed u8g2->width to u8g2->pixel_buf_width, issue #148 
 698              		.loc 1 138 0
 699 0068 90F83E20 		ldrb	r2, [r0, #62]	@ zero_extendqisi2
 700              	.LVL19:
 701 006c 1144     		add	r1, r1, r2
 702              	.LVL20:
 139:..\u8g2_csrc/u8g2_ll_hvline.c **** 		
 140:..\u8g2_csrc/u8g2_ll_hvline.c **** 	if ( u8g2->draw_color <= 1 )
 703              		.loc 1 140 0
 704 006e 90F88620 		ldrb	r2, [r0, #134]	@ zero_extendqisi2
 705 0072 012A     		cmp	r2, #1
 706 0074 00D8     		bhi	.L8
 141:..\u8g2_csrc/u8g2_ll_hvline.c **** 	  or_mask  = 1;
 707              		.loc 1 141 0
 708 0076 0126     		movs	r6, #1
 709              	.LVL21:
 710              	.L8:
 142:..\u8g2_csrc/u8g2_ll_hvline.c **** 	if ( u8g2->draw_color != 1 )
 711              		.loc 1 142 0
 712 0078 012A     		cmp	r2, #1
 713 007a 05D1     		bne	.L12
 714 007c 05E0     		b	.L9
 715              	.LVL22:
 716              	.L7:
 143:..\u8g2_csrc/u8g2_ll_hvline.c **** 	  xor_mask = 1;
 144:..\u8g2_csrc/u8g2_ll_hvline.c ****       }
 145:..\u8g2_csrc/u8g2_ll_hvline.c ****       else
 146:..\u8g2_csrc/u8g2_ll_hvline.c ****       {
 147:..\u8g2_csrc/u8g2_ll_hvline.c **** 	or_mask <<= 1;
ARM GAS  C:\Users\info\AppData\Local\Temp\ccfsgCAa.s 			page 52


 717              		.loc 1 147 0
 718 007e 7600     		lsls	r6, r6, #1
 719              	.LVL23:
 720 0080 F6B2     		uxtb	r6, r6
 721              	.LVL24:
 148:..\u8g2_csrc/u8g2_ll_hvline.c **** 	xor_mask <<= 1;
 722              		.loc 1 148 0
 723 0082 6D00     		lsls	r5, r5, #1
 724              	.LVL25:
 725 0084 EDB2     		uxtb	r5, r5
 726              	.LVL26:
 727 0086 00E0     		b	.L9
 728              	.LVL27:
 729              	.L12:
 143:..\u8g2_csrc/u8g2_ll_hvline.c **** 	  xor_mask = 1;
 730              		.loc 1 143 0
 731 0088 0125     		movs	r5, #1
 732              	.LVL28:
 733              	.L9:
 149:..\u8g2_csrc/u8g2_ll_hvline.c ****       }
 150:..\u8g2_csrc/u8g2_ll_hvline.c ****     } while( len != 0 );
 734              		.loc 1 150 0
 735 008a 002B     		cmp	r3, #0
 736 008c E1D1     		bne	.L4
 737 008e F0BD     		pop	{r4, r5, r6, r7, pc}
 738              		.cfi_endproc
 739              	.LFE0:
 740              		.size	u8g2_ll_hvline_vertical_top_lsb, .-u8g2_ll_hvline_vertical_top_lsb
 741              		.section	.text.u8g2_ll_hvline_horizontal_right_lsb,"ax",%progbits
 742              		.align	2
 743              		.global	u8g2_ll_hvline_horizontal_right_lsb
 744              		.thumb
 745              		.thumb_func
 746              		.type	u8g2_ll_hvline_horizontal_right_lsb, %function
 747              	u8g2_ll_hvline_horizontal_right_lsb:
 748              	.LFB1:
 151:..\u8g2_csrc/u8g2_ll_hvline.c ****   }
 152:..\u8g2_csrc/u8g2_ll_hvline.c **** }
 153:..\u8g2_csrc/u8g2_ll_hvline.c **** 
 154:..\u8g2_csrc/u8g2_ll_hvline.c **** 
 155:..\u8g2_csrc/u8g2_ll_hvline.c **** 
 156:..\u8g2_csrc/u8g2_ll_hvline.c **** #else /* U8G2_WITH_HVLINE_SPEED_OPTIMIZATION */
 157:..\u8g2_csrc/u8g2_ll_hvline.c **** 
 158:..\u8g2_csrc/u8g2_ll_hvline.c **** /*
 159:..\u8g2_csrc/u8g2_ll_hvline.c ****   x,y position within the buffer
 160:..\u8g2_csrc/u8g2_ll_hvline.c **** */
 161:..\u8g2_csrc/u8g2_ll_hvline.c **** static void u8g2_draw_pixel_vertical_top_lsb(u8g2_t *u8g2, u8g2_uint_t x, u8g2_uint_t y)
 162:..\u8g2_csrc/u8g2_ll_hvline.c **** {
 163:..\u8g2_csrc/u8g2_ll_hvline.c ****   uint16_t offset;
 164:..\u8g2_csrc/u8g2_ll_hvline.c ****   uint8_t *ptr;
 165:..\u8g2_csrc/u8g2_ll_hvline.c ****   uint8_t bit_pos, mask;
 166:..\u8g2_csrc/u8g2_ll_hvline.c ****   
 167:..\u8g2_csrc/u8g2_ll_hvline.c ****   //assert(x >= u8g2->buf_x0);
 168:..\u8g2_csrc/u8g2_ll_hvline.c ****   //assert(x < u8g2_GetU8x8(u8g2)->display_info->tile_width*8);
 169:..\u8g2_csrc/u8g2_ll_hvline.c ****   //assert(y >= u8g2->buf_y0);
 170:..\u8g2_csrc/u8g2_ll_hvline.c ****   //assert(y < u8g2_GetU8x8(u8g2)->display_info->tile_height*8);
 171:..\u8g2_csrc/u8g2_ll_hvline.c ****   
ARM GAS  C:\Users\info\AppData\Local\Temp\ccfsgCAa.s 			page 53


 172:..\u8g2_csrc/u8g2_ll_hvline.c ****   /* bytes are vertical, lsb on top (y=0), msb at bottom (y=7) */
 173:..\u8g2_csrc/u8g2_ll_hvline.c ****   bit_pos = y;		/* overflow truncate is ok here... */
 174:..\u8g2_csrc/u8g2_ll_hvline.c ****   bit_pos &= 7; 	/* ... because only the lowest 3 bits are needed */
 175:..\u8g2_csrc/u8g2_ll_hvline.c ****   mask = 1;
 176:..\u8g2_csrc/u8g2_ll_hvline.c ****   mask <<= bit_pos;
 177:..\u8g2_csrc/u8g2_ll_hvline.c **** 
 178:..\u8g2_csrc/u8g2_ll_hvline.c ****   offset = y;		/* y might be 8 or 16 bit, but we need 16 bit, so use a 16 bit variable */
 179:..\u8g2_csrc/u8g2_ll_hvline.c ****   offset &= ~7;
 180:..\u8g2_csrc/u8g2_ll_hvline.c ****   offset *= u8g2_GetU8x8(u8g2)->display_info->tile_width;
 181:..\u8g2_csrc/u8g2_ll_hvline.c ****   ptr = u8g2->tile_buf_ptr;
 182:..\u8g2_csrc/u8g2_ll_hvline.c ****   ptr += offset;
 183:..\u8g2_csrc/u8g2_ll_hvline.c ****   ptr += x;
 184:..\u8g2_csrc/u8g2_ll_hvline.c **** 
 185:..\u8g2_csrc/u8g2_ll_hvline.c **** 
 186:..\u8g2_csrc/u8g2_ll_hvline.c ****   if ( u8g2->draw_color <= 1 )
 187:..\u8g2_csrc/u8g2_ll_hvline.c ****     *ptr |= mask;
 188:..\u8g2_csrc/u8g2_ll_hvline.c ****   if ( u8g2->draw_color != 1 )
 189:..\u8g2_csrc/u8g2_ll_hvline.c ****     *ptr ^= mask;
 190:..\u8g2_csrc/u8g2_ll_hvline.c **** 
 191:..\u8g2_csrc/u8g2_ll_hvline.c **** }
 192:..\u8g2_csrc/u8g2_ll_hvline.c **** 
 193:..\u8g2_csrc/u8g2_ll_hvline.c **** /*
 194:..\u8g2_csrc/u8g2_ll_hvline.c ****   x,y		Upper left position of the line within the local buffer (not the display!)
 195:..\u8g2_csrc/u8g2_ll_hvline.c ****   len		length of the line in pixel, len must not be 0
 196:..\u8g2_csrc/u8g2_ll_hvline.c ****   dir		0: horizontal line (left to right)
 197:..\u8g2_csrc/u8g2_ll_hvline.c **** 		1: vertical line (top to bottom)
 198:..\u8g2_csrc/u8g2_ll_hvline.c ****   asumption: 
 199:..\u8g2_csrc/u8g2_ll_hvline.c ****     all clipping done
 200:..\u8g2_csrc/u8g2_ll_hvline.c **** */
 201:..\u8g2_csrc/u8g2_ll_hvline.c **** void u8g2_ll_hvline_vertical_top_lsb(u8g2_t *u8g2, u8g2_uint_t x, u8g2_uint_t y, u8g2_uint_t len, u
 202:..\u8g2_csrc/u8g2_ll_hvline.c **** {
 203:..\u8g2_csrc/u8g2_ll_hvline.c ****   if ( dir == 0 )
 204:..\u8g2_csrc/u8g2_ll_hvline.c ****   {
 205:..\u8g2_csrc/u8g2_ll_hvline.c ****     do
 206:..\u8g2_csrc/u8g2_ll_hvline.c ****     {
 207:..\u8g2_csrc/u8g2_ll_hvline.c ****       u8g2_draw_pixel_vertical_top_lsb(u8g2, x, y);
 208:..\u8g2_csrc/u8g2_ll_hvline.c ****       x++;
 209:..\u8g2_csrc/u8g2_ll_hvline.c ****       len--;
 210:..\u8g2_csrc/u8g2_ll_hvline.c ****     } while( len != 0 );
 211:..\u8g2_csrc/u8g2_ll_hvline.c ****   }
 212:..\u8g2_csrc/u8g2_ll_hvline.c ****   else
 213:..\u8g2_csrc/u8g2_ll_hvline.c ****   {
 214:..\u8g2_csrc/u8g2_ll_hvline.c ****     do
 215:..\u8g2_csrc/u8g2_ll_hvline.c ****     {
 216:..\u8g2_csrc/u8g2_ll_hvline.c ****       u8g2_draw_pixel_vertical_top_lsb(u8g2, x, y);
 217:..\u8g2_csrc/u8g2_ll_hvline.c ****       y++;
 218:..\u8g2_csrc/u8g2_ll_hvline.c ****       len--;
 219:..\u8g2_csrc/u8g2_ll_hvline.c ****     } while( len != 0 );
 220:..\u8g2_csrc/u8g2_ll_hvline.c ****   }
 221:..\u8g2_csrc/u8g2_ll_hvline.c **** }
 222:..\u8g2_csrc/u8g2_ll_hvline.c **** 
 223:..\u8g2_csrc/u8g2_ll_hvline.c **** 
 224:..\u8g2_csrc/u8g2_ll_hvline.c **** #endif /* U8G2_WITH_HVLINE_SPEED_OPTIMIZATION */
 225:..\u8g2_csrc/u8g2_ll_hvline.c **** 
 226:..\u8g2_csrc/u8g2_ll_hvline.c **** /*=================================================*/
 227:..\u8g2_csrc/u8g2_ll_hvline.c **** /*
 228:..\u8g2_csrc/u8g2_ll_hvline.c ****   u8g2_ll_hvline_horizontal_right_lsb
ARM GAS  C:\Users\info\AppData\Local\Temp\ccfsgCAa.s 			page 54


 229:..\u8g2_csrc/u8g2_ll_hvline.c ****     ST7920
 230:..\u8g2_csrc/u8g2_ll_hvline.c **** */
 231:..\u8g2_csrc/u8g2_ll_hvline.c **** 
 232:..\u8g2_csrc/u8g2_ll_hvline.c **** #ifdef U8G2_WITH_HVLINE_SPEED_OPTIMIZATION
 233:..\u8g2_csrc/u8g2_ll_hvline.c **** 
 234:..\u8g2_csrc/u8g2_ll_hvline.c **** /*
 235:..\u8g2_csrc/u8g2_ll_hvline.c ****   x,y		Upper left position of the line within the local buffer (not the display!)
 236:..\u8g2_csrc/u8g2_ll_hvline.c ****   len		length of the line in pixel, len must not be 0
 237:..\u8g2_csrc/u8g2_ll_hvline.c ****   dir		0: horizontal line (left to right)
 238:..\u8g2_csrc/u8g2_ll_hvline.c **** 		1: vertical line (top to bottom)
 239:..\u8g2_csrc/u8g2_ll_hvline.c ****   asumption: 
 240:..\u8g2_csrc/u8g2_ll_hvline.c ****     all clipping done
 241:..\u8g2_csrc/u8g2_ll_hvline.c **** */
 242:..\u8g2_csrc/u8g2_ll_hvline.c **** 
 243:..\u8g2_csrc/u8g2_ll_hvline.c **** void u8g2_ll_hvline_horizontal_right_lsb(u8g2_t *u8g2, u8g2_uint_t x, u8g2_uint_t y, u8g2_uint_t le
 244:..\u8g2_csrc/u8g2_ll_hvline.c **** {
 749              		.loc 1 244 0
 750              		.cfi_startproc
 751              		@ args = 4, pretend = 0, frame = 0
 752              		@ frame_needed = 0, uses_anonymous_args = 0
 753              		@ link register save eliminated.
 754              	.LVL29:
 755 0000 F0B4     		push	{r4, r5, r6, r7}
 756              		.cfi_def_cfa_offset 16
 757              		.cfi_offset 4, -16
 758              		.cfi_offset 5, -12
 759              		.cfi_offset 6, -8
 760              		.cfi_offset 7, -4
 761 0002 9DF81060 		ldrb	r6, [sp, #16]	@ zero_extendqisi2
 245:..\u8g2_csrc/u8g2_ll_hvline.c ****   uint16_t offset;
 246:..\u8g2_csrc/u8g2_ll_hvline.c ****   uint8_t *ptr;
 247:..\u8g2_csrc/u8g2_ll_hvline.c ****   uint8_t bit_pos;
 248:..\u8g2_csrc/u8g2_ll_hvline.c ****   uint8_t mask;
 249:..\u8g2_csrc/u8g2_ll_hvline.c ****   uint8_t tile_width = u8g2_GetU8x8(u8g2)->display_info->tile_width;
 762              		.loc 1 249 0
 763 0006 0468     		ldr	r4, [r0]
 764 0008 257C     		ldrb	r5, [r4, #16]	@ zero_extendqisi2
 765              	.LVL30:
 250:..\u8g2_csrc/u8g2_ll_hvline.c **** 
 251:..\u8g2_csrc/u8g2_ll_hvline.c ****   bit_pos = x;		/* overflow truncate is ok here... */
 252:..\u8g2_csrc/u8g2_ll_hvline.c ****   bit_pos &= 7; 	/* ... because only the lowest 3 bits are needed */
 766              		.loc 1 252 0
 767 000a 01F00707 		and	r7, r1, #7
 768              	.LVL31:
 253:..\u8g2_csrc/u8g2_ll_hvline.c ****   mask = 128;
 254:..\u8g2_csrc/u8g2_ll_hvline.c ****   mask >>= bit_pos;
 769              		.loc 1 254 0
 770 000e 8024     		movs	r4, #128
 771 0010 3C41     		asrs	r4, r4, r7
 772 0012 E4B2     		uxtb	r4, r4
 773              	.LVL32:
 255:..\u8g2_csrc/u8g2_ll_hvline.c **** 
 256:..\u8g2_csrc/u8g2_ll_hvline.c ****   offset = y;		/* y might be 8 or 16 bit, but we need 16 bit, so use a 16 bit variable */
 257:..\u8g2_csrc/u8g2_ll_hvline.c ****   offset *= tile_width;
 258:..\u8g2_csrc/u8g2_ll_hvline.c ****   offset += x>>3;
 774              		.loc 1 258 0
 775 0014 C908     		lsrs	r1, r1, #3
ARM GAS  C:\Users\info\AppData\Local\Temp\ccfsgCAa.s 			page 55


 776              	.LVL33:
 777 0016 05FB0212 		mla	r2, r5, r2, r1
 778              	.LVL34:
 779 001a 91B2     		uxth	r1, r2
 780              	.LVL35:
 259:..\u8g2_csrc/u8g2_ll_hvline.c ****   ptr = u8g2->tile_buf_ptr;
 781              		.loc 1 259 0
 782 001c 826B     		ldr	r2, [r0, #56]
 783              	.LVL36:
 260:..\u8g2_csrc/u8g2_ll_hvline.c ****   ptr += offset;
 784              		.loc 1 260 0
 785 001e 0A44     		add	r2, r2, r1
 786              	.LVL37:
 261:..\u8g2_csrc/u8g2_ll_hvline.c ****   
 262:..\u8g2_csrc/u8g2_ll_hvline.c ****   if ( dir == 0 )
 787              		.loc 1 262 0
 788 0020 B6B9     		cbnz	r6, .L15
 789              	.LVL38:
 790              	.L19:
 263:..\u8g2_csrc/u8g2_ll_hvline.c ****   {
 264:..\u8g2_csrc/u8g2_ll_hvline.c ****       
 265:..\u8g2_csrc/u8g2_ll_hvline.c ****     do
 266:..\u8g2_csrc/u8g2_ll_hvline.c ****     {
 267:..\u8g2_csrc/u8g2_ll_hvline.c **** 
 268:..\u8g2_csrc/u8g2_ll_hvline.c ****       if ( u8g2->draw_color <= 1 )
 791              		.loc 1 268 0
 792 0022 90F88610 		ldrb	r1, [r0, #134]	@ zero_extendqisi2
 793 0026 0129     		cmp	r1, #1
 794 0028 02D8     		bhi	.L16
 269:..\u8g2_csrc/u8g2_ll_hvline.c **** 	*ptr |= mask;
 795              		.loc 1 269 0
 796 002a 1178     		ldrb	r1, [r2]	@ zero_extendqisi2
 797 002c 2143     		orrs	r1, r1, r4
 798 002e 1170     		strb	r1, [r2]
 799              	.L16:
 270:..\u8g2_csrc/u8g2_ll_hvline.c ****       if ( u8g2->draw_color != 1 )
 800              		.loc 1 270 0
 801 0030 90F88610 		ldrb	r1, [r0, #134]	@ zero_extendqisi2
 802 0034 0129     		cmp	r1, #1
 803 0036 02D0     		beq	.L17
 271:..\u8g2_csrc/u8g2_ll_hvline.c **** 	*ptr ^= mask;
 804              		.loc 1 271 0
 805 0038 1178     		ldrb	r1, [r2]	@ zero_extendqisi2
 806 003a 6140     		eors	r1, r1, r4
 807 003c 1170     		strb	r1, [r2]
 808              	.L17:
 809              	.LVL39:
 272:..\u8g2_csrc/u8g2_ll_hvline.c ****       
 273:..\u8g2_csrc/u8g2_ll_hvline.c ****       mask >>= 1;
 274:..\u8g2_csrc/u8g2_ll_hvline.c ****       if ( mask == 0 )
 810              		.loc 1 274 0
 811 003e 6408     		lsrs	r4, r4, #1
 812              	.LVL40:
 813 0040 01D1     		bne	.L18
 814              	.LVL41:
 275:..\u8g2_csrc/u8g2_ll_hvline.c ****       {
 276:..\u8g2_csrc/u8g2_ll_hvline.c **** 	mask = 128;
ARM GAS  C:\Users\info\AppData\Local\Temp\ccfsgCAa.s 			page 56


 277:..\u8g2_csrc/u8g2_ll_hvline.c ****         ptr++;
 815              		.loc 1 277 0
 816 0042 0132     		adds	r2, r2, #1
 817              	.LVL42:
 276:..\u8g2_csrc/u8g2_ll_hvline.c ****         ptr++;
 818              		.loc 1 276 0
 819 0044 8024     		movs	r4, #128
 820              	.LVL43:
 821              	.L18:
 278:..\u8g2_csrc/u8g2_ll_hvline.c ****       }
 279:..\u8g2_csrc/u8g2_ll_hvline.c ****       
 280:..\u8g2_csrc/u8g2_ll_hvline.c ****       //x++;
 281:..\u8g2_csrc/u8g2_ll_hvline.c ****       len--;
 822              		.loc 1 281 0
 823 0046 013B     		subs	r3, r3, #1
 824              	.LVL44:
 282:..\u8g2_csrc/u8g2_ll_hvline.c ****     } while( len != 0 );
 825              		.loc 1 282 0
 826 0048 13F0FF03 		ands	r3, r3, #255
 827              	.LVL45:
 828 004c E9D1     		bne	.L19
 829 004e 12E0     		b	.L14
 830              	.L15:
 831              	.LVL46:
 283:..\u8g2_csrc/u8g2_ll_hvline.c ****   }
 284:..\u8g2_csrc/u8g2_ll_hvline.c ****   else
 285:..\u8g2_csrc/u8g2_ll_hvline.c ****   {
 286:..\u8g2_csrc/u8g2_ll_hvline.c ****     do
 287:..\u8g2_csrc/u8g2_ll_hvline.c ****     {
 288:..\u8g2_csrc/u8g2_ll_hvline.c ****       if ( u8g2->draw_color <= 1 )
 832              		.loc 1 288 0
 833 0050 90F88610 		ldrb	r1, [r0, #134]	@ zero_extendqisi2
 834 0054 0129     		cmp	r1, #1
 835 0056 02D8     		bhi	.L21
 289:..\u8g2_csrc/u8g2_ll_hvline.c **** 	*ptr |= mask;
 836              		.loc 1 289 0
 837 0058 1178     		ldrb	r1, [r2]	@ zero_extendqisi2
 838 005a 2143     		orrs	r1, r1, r4
 839 005c 1170     		strb	r1, [r2]
 840              	.L21:
 290:..\u8g2_csrc/u8g2_ll_hvline.c ****       if ( u8g2->draw_color != 1 )
 841              		.loc 1 290 0
 842 005e 90F88610 		ldrb	r1, [r0, #134]	@ zero_extendqisi2
 843 0062 0129     		cmp	r1, #1
 844 0064 02D0     		beq	.L22
 291:..\u8g2_csrc/u8g2_ll_hvline.c **** 	*ptr ^= mask;
 845              		.loc 1 291 0
 846 0066 1178     		ldrb	r1, [r2]	@ zero_extendqisi2
 847 0068 6140     		eors	r1, r1, r4
 848 006a 1170     		strb	r1, [r2]
 849              	.L22:
 292:..\u8g2_csrc/u8g2_ll_hvline.c ****       
 293:..\u8g2_csrc/u8g2_ll_hvline.c ****       ptr += tile_width;
 850              		.loc 1 293 0
 851 006c 2A44     		add	r2, r2, r5
 852              	.LVL47:
 294:..\u8g2_csrc/u8g2_ll_hvline.c ****       //y++;
ARM GAS  C:\Users\info\AppData\Local\Temp\ccfsgCAa.s 			page 57


 295:..\u8g2_csrc/u8g2_ll_hvline.c ****       len--;
 853              		.loc 1 295 0
 854 006e 013B     		subs	r3, r3, #1
 855              	.LVL48:
 296:..\u8g2_csrc/u8g2_ll_hvline.c ****     } while( len != 0 );
 856              		.loc 1 296 0
 857 0070 13F0FF03 		ands	r3, r3, #255
 858              	.LVL49:
 859 0074 ECD1     		bne	.L15
 860              	.L14:
 297:..\u8g2_csrc/u8g2_ll_hvline.c ****   }
 298:..\u8g2_csrc/u8g2_ll_hvline.c **** }
 861              		.loc 1 298 0
 862 0076 F0BC     		pop	{r4, r5, r6, r7}
 863              		.cfi_restore 7
 864              		.cfi_restore 6
 865              		.cfi_restore 5
 866              		.cfi_restore 4
 867              		.cfi_def_cfa_offset 0
 868              	.LVL50:
 869 0078 7047     		bx	lr
 870              		.cfi_endproc
 871              	.LFE1:
 872              		.size	u8g2_ll_hvline_horizontal_right_lsb, .-u8g2_ll_hvline_horizontal_right_lsb
 873 007a 00BF     		.text
 874              	.Letext0:
 875              		.file 2 "c:\\program files (x86)\\cypress\\psoc creator\\4.2\\psoc creator\\import\\gnu\\arm\\5.4.
 876              		.file 3 "c:\\program files (x86)\\cypress\\psoc creator\\4.2\\psoc creator\\import\\gnu\\arm\\5.4.
 877              		.file 4 "..\\u8g2_csrc\\u8x8.h"
 878              		.file 5 "..\\u8g2_csrc\\u8g2.h"