ARM GAS  C:\Users\info\AppData\Local\Temp\ccFVof5S.s 			page 1


   1              		.syntax unified
   2              		.cpu cortex-m3
   3              		.fpu softvfp
   4              		.eabi_attribute 20, 1
   5              		.eabi_attribute 21, 1
   6              		.eabi_attribute 23, 3
   7              		.eabi_attribute 24, 1
   8              		.eabi_attribute 25, 1
   9              		.eabi_attribute 26, 1
  10              		.eabi_attribute 30, 1
  11              		.eabi_attribute 34, 1
  12              		.eabi_attribute 18, 4
  13              		.thumb
  14              		.syntax unified
  15              		.file	"u8g2_kerning.c"
  16              		.text
  17              	.Ltext0:
  18              		.section	.gnu.lto_.profile.792bc3df,"",%progbits
  19 0000 789C6361 		.ascii	"x\234ca`d`a`\000\222\266\326\000\001\037\000\203"
  19      60646061 
  19      600092B6 
  19      D600011F 
  19      0083
  20              		.text
  21              		.section	.gnu.lto_.inline.792bc3df,"",%progbits
  22 0000 789C6361 		.ascii	"x\234ca`d\000\001]\006\004`b`\320\230\303\310\310\300"
  22      60640001 
  22      5D060460 
  22      6260D098 
  22      C3C8C8C0 
  23 0014 E4BAFD81 		.ascii	"\344\272\375\201 \003\367\353\345\214L aF\006\361Y "
  23      2003F7EB 
  23      E58C4C20 
  23      614606F1 
  23      5920
  24 0026 518D9E43 		.ascii	"Q\215\236CB\014l\013\344\301\202\014\000\305\244\007"
  24      420C6C0B 
  24      E4C1820C 
  24      00C5A407 
  25 0036 8F       		.ascii	"\217"
  26              		.text
  27              		.section	.gnu.lto_.jmpfuncs.792bc3df,"",%progbits
  28 0000 789C6361 		.ascii	"x\234ca`d\000\001\016\006\004`\002b\220(\000\001Z\000"
  28      60640001 
  28      0E060460 
  28      02629028 
  28      00015A00 
  29 0014 11       		.ascii	"\021"
  30              		.text
  31              		.section	.gnu.lto_.pureconst.792bc3df,"",%progbits
  32 0000 789C6361 		.ascii	"x\234ca`d`e```b`e4\005\000\000\311\000H"
  32      60646065 
  32      60606062 
  32      60653405 
  32      0000C900 
  33              		.text
  34              		.section	.gnu.lto_u8g2_GetKerning.792bc3df,"",%progbits
ARM GAS  C:\Users\info\AppData\Local\Temp\ccFVof5S.s 			page 2


  35 0000 789C8D56 		.ascii	"x\234\215V]lTE\024\2363s\367\376\354\336\335-\024(\320"
  35      5D6C5445 
  35      149E3373 
  35      F7FEECDE 
  35      DD2D1428 
  36 0015 A5140C36 		.ascii	"\245\024\0146\204@\245MD\023M41\372\252>\233h,\025\211"
  36      8440A54D 
  36      44134D34 
  36      31FAAA3E 
  36      9B682C15 
  37 002a B10F609F 		.ascii	"\261\017`\237|\340\266K[c0-EZ(\0204\226\000\"?\025\241"
  37      7CE0B64B 
  37      5B63302D 
  37      455A2810 
  37      34960022 
  38 0041 85B6BAFD 		.ascii	"\205\266\272\375a[K[,-\177\212\211\264P\023\023\023"
  38      615B4B5B 
  38      2C2D7F8A 
  38      89B45013 
  38      1313
  39 0053 96A83508 		.ascii	"\226\2505\010]\317\231\231\015\273kM\330\344\316\275"
  39      5DCF9999 
  39      0DBB6B4D 
  39      D8E4CEBD 
  40 0063 73E67CDF 		.ascii	"s\346|\3379\363\2353\2235\0300\372\275\3420\3662\276"
  40      39F39D33 
  40      93351830 
  40      FABDE230 
  40      F632BE
  41 0076 AFE10361 		.ascii	"\257\341\003a\006\274a\224\261*\233\363\320_\026\363"
  41      06BC6194 
  41      B12A9BF3 
  41      D05F16F3 
  42 0086 FCA225CE 		.ascii	"\374\242%\316\230\347\0120\225\335\340V\257@\273ot\210"
  42      98E70A30 
  42      95DDE056 
  42      AF40BB6F 
  42      7488
  43 0098 EC3E65EF 		.ascii	"\354>e\357\261MnH\213_.\273\026\017u\025\340\314\236"
  43      B14D6E48 
  43      8B5F2EBB 
  43      160F7515 
  43      E0CC9E
  44 00ab 28C6990D 		.ascii	"(\306\231\015\001\205v\270+\321~\205\366+{\217\035\340"
  44      018576B8 
  44      2BD17E85 
  44      F62B7B8F 
  44      1DE0
  45 00bd 8E42CB65 		.ascii	"\216B\313e\327\325\350\240D\007!\244\320!\000\372\360"
  45      D7D5E8A0 
  45      440721A4 
  45      D02100FA 
  45      F0
  46 00ce 6C60DBB8 		.ascii	"l`\333\2700|\246e;\376\200\033\014\3016a2\210\031\220"
  46      307CA665 
  46      3BFE801B 
  46      0CC13661 
ARM GAS  C:\Users\info\AppData\Local\Temp\ccFVof5S.s 			page 3


  46      32881990 
  47 00e2 4C0AB9A9 		.ascii	"L\012\271\251@\306\354O\376\220\303\305\231\301\035"
  47      40C6EC4F 
  47      FE90C3C5 
  47      99C11D
  48 00f1 FED5873D 		.ascii	"\376\325\207=\257\332\373\345\3165\267\371H\014jp9\311"
  48      AFDAFBE5 
  48      CE35B7F9 
  48      480C6A70 
  48      39C9
  49 0103 199446E0 		.ascii	"\031\224F\340\251\010m\3770\254F\317\301\356\221\017"
  49      A9086DFF 
  49      30AC46CF 
  49      C1EE910F 
  50 0113 C57260F8 		.ascii	"\305r`\370945\335a\032\350r\004\210\012-c\333O\355\027"
  50      393435DD 
  50      611AE872 
  50      04880A2D 
  50      63DB4FED 
  51 0128 7FF01A01 		.ascii	"\177\360\032\001`\34041\3222\025\242)\207B\234V\305"
  51      60E03431 
  51      D23215A2 
  51      2987429C 
  51      56C5
  52 013a 7FAD0A8B 		.ascii	"\177\255\012\213'%\266\351V\353e\263\350\020\005\364"
  52      2725B6E9 
  52      56EB65B3 
  52      E81005F4 
  53 014a 3ACB3DA7 		.ascii	":\313=\247F\010\370\012\004\005<\006\021\370\022\237"
  53      4608F80A 
  53      04053C06 
  53      11F8129F 
  54 015a A360A095 		.ascii	"\243`\240\225\301q(B\300\315\343\307\037\012\261F\202"
  54      C1712842 
  54      C0CDE3C7 
  54      1F0AB146 
  54      82
  55 016b 3F1F99EE 		.ascii	"?\037\231\356\343\032\334\034w\275\006L\326\200\023"
  55      E31ADC1C 
  55      77BD064C 
  55      D68013
  56 017a 19708626 		.ascii	"\031p\206&\006'%\366Br&\026Vi\321f/\337\035>\020Pi\345"
  56      062725F6 
  56      42722616 
  56      5669D166 
  56      2FDF1D3E 
  57 0192 505AB5B3 		.ascii	"PZ\265\263u J%\363\203}\325\327R\314?\325\272\336\253"
  57      75204A25 
  57      F3837DD5 
  57      D752CC3F 
  57      D5BADEAB 
  58 01a6 35C2075F 		.ascii	"5\302\007_+\3426$>%\211}\014NK\342\252\223M\023\\<-"
  58      2BE23624 
  58      3E25897D 
  58      0C4E4BE2 
  58      AA934D13 
  59 01bd A1471B76 		.ascii	"\241G\033v5\3724tw\235\206~3\007\364\014\024\221\377"
ARM GAS  C:\Users\info\AppData\Local\Temp\ccFVof5S.s 			page 4


  59      35FA3474 
  59      779D867E 
  59      3307F40C 
  59      1491FF
  60 01d0 EF0DF57D 		.ascii	"\357\015\365}\216xVb\353\223\377\324\006W}A\330\330"
  60      8E785662 
  60      EB93FFD4 
  60      06577D41 
  60      D8D8
  61 01e2 F81DD8E3 		.ascii	"\370\035\330\343\305\252\013\011~6\023\316\224\312\355"
  61      C5AA0B09 
  61      7E3613CE 
  61      94CAED
  62 01f1 2DB33143 		.ascii	"-\2631C</\221\177\367\3257:\012\351\335x\313\253y\201"
  62      3C2F917F 
  62      F7D5373A 
  62      0AE9DD78 
  62      CBAB7981 
  63 0205 601D73C2 		.ascii	"`\035s\302:\243\315y\342E\211j=\222l\2645j,\205:?'\352"
  63      3AA3CD79 
  63      E245896A 
  63      3D926CB4 
  63      356A2C85 
  64 021d C0CED6B8 		.ascii	"\300\316\326\270-^\222\260\275\373~n\004\015;\227\202"
  64      2D5E92B0 
  64      BDFB7E6E 
  64      040D3B97 
  64      82
  65 022e 75CD099B 		.ascii	"u\315\011\233l\233\335\0354\267{\370+\204nX\005\235"
  65      6C9BDD1D 
  65      34B77BF8 
  65      2B846E58 
  65      059D
  66 0240 F89CC3A7 		.ascii	"\370\234\303\247\035VQ[a?}\013&\0362#{\365\344\3531"
  66      1D56515B 
  66      613F7D0B 
  66      261E3223 
  66      7BF5E4EB 
  67 0255 2F998C7A 		.ascii	"/\231\214z\2611_\302}\002\030\255#?z\010\324\017\375"
  67      B1315FC2 
  67      7D0218AD 
  67      233F7A08 
  67      D40FFD
  68 0268 A9A8D8D0 		.ascii	"\251\250\330\320\350n\311\321F\263\351\340`\371i\010"
  68      E86EC9D1 
  68      46B3E9E0 
  68      60F96908 
  69 0278 D0D4C5C1 		.ascii	"\320\324\305\301\016\002\225)$\031\302d\315\301\001"
  69      0E029529 
  69      2419C264 
  69      CDC101
  70 0287 E6D1309F 		.ascii	"\346\3210\237\206\\\262-`\024t!!\027\321<O\206ZL\237"
  70      865CB22D 
  70      60147421 
  70      2117D13C 
  70      4F865A4C 
  71 029c 4BC8B894 		.ascii	"K\310\270\224\206|\232R\371\354e@\365+\220N\313\321"
ARM GAS  C:\Users\info\AppData\Local\Temp\ccFVof5S.s 			page 5


  71      867C9A52 
  71      F9EC6540 
  71      F52B904E 
  71      CBD1
  72 02ae E01412D3 		.ascii	"\340\024\022\323\012\372ZI\3511v\02777n\261\004\347"
  72      0AFA5A49 
  72      E9317617 
  72      37376EB1 
  72      04E7
  73 02c0 F812B760 		.ascii	"\370\022\267`\373\217\321c\245\264\331\250\2403\321"
  73      FB8FD163 
  73      A5B4D9A8 
  73      A033D1
  74 02cf 54D37BC9 		.ascii	"T\323{\311\242\3463pk\337i\301\022\\\260\273\246\230"
  74      A2E63370 
  74      6BDF69C1 
  74      125CB0BB 
  74      A698
  75 02e1 86EAF36D 		.ascii	"\206\352\363m\355\226r6\321yf`\350#\367 \034\250\"\035"
  75      ED967236 
  75      D1796660 
  75      E823F720 
  75      1CA8221D 
  76 02f5 5F437E3F 		.ascii	"_C~?\222(\024\256\036\272]}\302*^KE\210\301A\230%U\031"
  76      922814AE 
  76      1EBA5D7D 
  76      C22A5E4B 
  76      4588C141 
  77 030d F440319B 		.ascii	"\364@1\233\204j/,\005F}\220\212MC\264\251v\366\035\305"
  77      846A2F2C 
  77      05467D90 
  77      8A4D43B4 
  77      A976F61D 
  78 0322 6C29F2F3 		.ascii	"l)\362\363\327\257l\240D|t\025@/\222N\002\177\004\262"
  78      D7AF6CA0 
  78      447C7415 
  78      402F924E 
  78      027F04B2 
  79 0336 88259678 		.ascii	"\210%\226x_ZP\301\364\334}\230{\237\314=\301\015\206"
  79      5F5A50C1 
  79      F4DC7D98 
  79      7B9FCC3D 
  79      C10D86
  80 0349 97934ABD 		.ascii	"\227\223J\275{\265\012`\247\245\016\377\227\264\011"
  80      7BB50A60 
  80      A7A50EFF 
  80      97B409
  81 0358 FD3269BA 		.ascii	"\3752i\272h\341\002&\215\024\367\352\036\030\212\302"
  81      68E10226 
  81      8D14F7EA 
  81      1E188AC2 
  82 0368 890AA0AC 		.ascii	"\211\012\240\254[L5G\016'\375$[\230j\034)\321e\277v"
  82      5B4C3547 
  82      0E27FD24 
  82      5B986A1C 
  82      29D165BF 
  83 037d 09606074 		.ascii	"\011``t$\236\373~er\323\2236e\017\247\345\205\200\000"
ARM GAS  C:\Users\info\AppData\Local\Temp\ccFVof5S.s 			page 6


  83      249EFB7E 
  83      6572D393 
  83      36650FA7 
  83      E5858000 
  84 0391 0C505E30 		.ascii	"\014P^0\210\2510Y\253\26752*\202\2724>\366\331\000m"
  84      88A93059 
  84      ABB73532 
  84      2A82BA34 
  84      3EF6D900 
  85 03a6 10158C0F 		.ascii	"\020\025\214\017\350\342\2040=$;S7\334\346W\202\000"
  85      E8E28430 
  85      3D243B53 
  85      37DCE657 
  85      8200
  86 03b8 7C9FA660 		.ascii	"|\237\246`7)\030\222p\223\341\265,P\313\034\246\314"
  86      37291892 
  86      7093E1B5 
  86      2C50CB1C 
  86      A6CC
  87 03ca 32D06834 		.ascii	"2\320h4\244\230\200\224\306\337=d@IE\207@\240o\220\032"
  87      A4988094 
  87      C6DF3D64 
  87      40494587 
  87      40A06F90 
  88 03df C8A29E40 		.ascii	"\310\242\236@\337\033\321\231\322Lg\\\264\331^C\252"
  88      DF1BD199 
  88      D24C675C 
  88      B4D95E43 
  88      AA
  89 03f0 9EE8AFF2 		.ascii	"\236\350\257\362\251\325\360\343\311>$e\227G\360b\266"
  89      A9D5F0E3 
  89      C93E2465 
  89      9747F062 
  89      B6
  90 0401 EC395AF6 		.ascii	"\3549Z\366&\255\351<4\321\365\237V\211\371h\225'=M\372"
  90      26ADE93C 
  90      34D1F59F 
  90      5689F968 
  90      95273D4D 
  91 0416 5C0C8E2B 		.ascii	"\\\014\216+R\372\217\237S\266\005\331\375\213\012K\315"
  91      52FA8F9F 
  91      53B605D9 
  91      FD8B0A4B 
  91      CD
  92 0427 73B5E6C3 		.ascii	"s\265\346\303\244\371\243Nm'm\026\310H\265W\367\234"
  92      A4F9A34E 
  92      6D276D16 
  92      C848B557 
  92      F79C
  93 0439 05C5B290 		.ascii	"\005\305\262\220\022\310*\364\"\031m\241\212vS;\346"
  93      12C82AF4 
  93      22196DA1 
  93      8A76533B 
  93      E6
  94 044a 65876BD7 		.ascii	"e\207k\327\341\026\351p#\251p\033d\270N\012\227'\245"
  94      E116E970 
  94      23A9701B 
ARM GAS  C:\Users\info\AppData\Local\Temp\ccFVof5S.s 			page 7


  94      64B84E0A 
  94      9727A5
  95 045d 7458CF5A 		.ascii	"tX\317Z\325\300\361\235Z\312\305\217'\345\250\224\222"
  95      D5C0F19D 
  95      5ACAC58F 
  95      27E5A894 
  95      92
  96 046e 4E3D5C4A 		.ascii	"N=\\JI\331\257)\226D\005O\327m)\232\262w\222\217\221"
  96      49D9AF29 
  96      9644054F 
  96      D76D299A 
  96      B277928F 
  97 0483 7025BD65 		.ascii	"p%\275e#\377\351\321|\275\201\037\262{4\022\025\313"
  97      23FFE9D1 
  97      7CBD811F 
  97      B27B3412 
  97      15CB
  98 0495 7437F859 		.ascii	"t7\370Y\347\032\325\242W\367\334\327\212\024`\002\031"
  98      E71AD5A2 
  98      57F7DCD7 
  98      8A146002 
  98      19
  99 04a6 4D29B75C 		.ascii	"M)\267\\ \375\003l\242X\367\244\264\362\214\236\344"
  99      20FD036C 
  99      A258F7A4 
  99      B4F28C9E 
  99      E4
 100 04b7 5408D993 		.ascii	"T\010\331\223\370\225gSK\026\370\257\207\021\347R\327"
 100      F8956753 
 100      4B16F8AF 
 100      8711E752 
 100      D7
 101 04c8 C9969CDA 		.ascii	"\311\226\234\332af:\343j\220\015p\325\223#)!\227?\216"
 101      61663AE3 
 101      6A900D70 
 101      D5932329 
 101      21973F8E 
 102 04dc 900E8C49 		.ascii	"\220\016\214I!\015\022\362rJ\310a\335\223\205Z\310\224"
 102      210D12F2 
 102      724AC861 
 102      DD93855A 
 102      C894
 103 04ee 682B9015 		.ascii	"h+\220\025\255\252\374\023z\263+\323O\272\223q\322e"
 103      ADAAFC13 
 103      7AB32BD3 
 103      4FBA9371 
 103      D265
 104 0500 37ECA26E 		.ascii	"7\354\242n\300C\275\002\306\245\230\023$&\345\034\242"
 104      C043BD02 
 104      C6A59813 
 104      2426E51C 
 104      A2
 105 0511 5BFA3752 		.ascii	"[\3727R\"*\204\334\263H\247\302\377\201p\005\"\274\353"
 105      222A84DC 
 105      B348A7C2 
 105      FF817005 
 105      22BCEB
ARM GAS  C:\Users\info\AppData\Local\Temp\ccFVof5S.s 			page 8


 106 0524 138BDED6 		.ascii	"\023\213\336\326\3550\275\334OK1d\260\353\364\273x\335"
 106      ED30BDDC 
 106      4F4B3164 
 106      B0EBF4BB 
 106      78DD
 107 0536 0332E069 		.ascii	"\0032\340i\212\254[\367F\3453\233J\336,\333\272\245"
 107      8AAC5BF7 
 107      46E5339B 
 107      4ADE2CDB 
 107      BAA5
 108 0548 4C7DBD57 		.ascii	"L}\275W\276\245bs\305\246ue\314\254\254\250\334Z\276"
 108      BEA56273 
 108      C5A67565 
 108      CCACACA8 
 108      DC5ABE
 109 055b D120B3A5 		.ascii	"\321 \263\245\315\274|=//\021\345\025\033EY\305\007"
 109      CDBC7C3D 
 109      2F2F11E5 
 109      151B4559 
 109      C507
 110 056d 7C7309DF 		.ascii	"|s\011\337\274\376_\310\364\356\331"
 110      BCFE5FC8 
 110      F4EED9
 111              		.text
 112              		.section	.gnu.lto_u8g2_GetKerningByTable.792bc3df,"",%progbits
 113 0000 789C6D54 		.ascii	"x\234mT\337OTG\024>g\316\375\271,\013\362\303\360@\""
 113      DF4F5447 
 113      143E67CE 
 113      FDB92C0B 
 113      F2C3F040 
 114 0015 2F4A4C13 		.ascii	"/JL\023R\255&\374\011}4>\233\230\210\033kL\210QIL|\340"
 114      52AD26FC 
 114      097D343E 
 114      9B98881B 
 114      6B4C8851 
 115 002d B2978536 		.ascii	"\262\227\2056)\011\251\221\024Xk\223J\024A\321\266\210"
 115      2909A991 
 115      14586B93 
 115      4A1441D1 
 115      B688
 116 003f A2E0A211 		.ascii	"\242\340\242\021\025u\215\264\261ic\332\012\211&})P"
 116      15758DB4 
 116      B16963DA 
 116      0A89267D 
 116      2950
 117 0051 0403ADDB 		.ascii	"\004\003\255\333sf\256\272\376\270\311\316\235\371\316"
 117      7366AEBA 
 117      FEB8C9CE 
 117      9DF9CE
 118 0060 F79DF9CE 		.ascii	"\367\235\371\316\314\271k\001\202<56\300V~7\363\017"
 118      CCB96B01 
 118      823C3536 
 118      C0567E37 
 118      F30F
 119 0072 6380AA33 		.ascii	"c\200\2523\007\320\342)\345-\271\020\304\250g\022 \210"
 119      07D0E229 
 119      E52DB910 
ARM GAS  C:\Users\info\AppData\Local\Temp\ccFVof5S.s 			page 9


 119      C4A86712 
 119      2088
 120 0084 13FA82A3 		.ascii	"\023\372\202\243\257\274\353\304\260\225\233\022\330"
 120      AFBCEBC4 
 120      B0959B12 
 120      D8
 121 0091 52F65C25 		.ascii	"R\366\\%/\335o\353ye+G\007]\023t\3203\271\\#\236\360"
 121      2FDD6FEB 
 121      79652B47 
 121      075D1374 
 121      D033B95C 
 122 00a8 3C449904 		.ascii	"<D\231\004\036B\263\"\337\262\035\327\303f\345\203y"
 122      1E42B322 
 122      DFB21DD7 
 122      C366E583 
 122      79
 123 00b9 9EABFF14 		.ascii	"\236\253\377\024\336]\276\375el\343\251 H\005\177\336"
 123      DE5DBEFD 
 123      656CE3A9 
 123      2048057F 
 123      DE
 124 00ca 7CF6E97C 		.ascii	"|\366\351|*]\225&\200\274\002\374\244\032?\256\026\233"
 124      2A5D9526 
 124      80BC02FC 
 124      A41A3FAE 
 124      169B
 125 00dc A7702333 		.ascii	"\247p#3o\217\335?B\353\020x:5\373\364\222c1\34542W\220"
 125      6F8FDD3F 
 125      42EB1078 
 125      3A35FBF4 
 125      926331E5 
 126 00f4 87ADE733 		.ascii	"\207\255\3473\264\250\322\204h\361r\376~\317lB\226\012"
 126      B4A8D284 
 126      68F172FE 
 126      7ECF6C42 
 126      960A
 127 0106 6B78D932 		.ascii	"kx\3312\371\254\245\2046hm\327\223\223\323Nm\237l\030"
 127      F9ACA584 
 127      36686DD7 
 127      9393D34E 
 127      6D9F6C18 
 128 011a FC9A0CFC 		.ascii	"\374\232\014\3744\021\016\"\311\206\003X\215g\370\327"
 128      34110E22 
 128      C9860358 
 128      8D67F8D7 
 129 012a 8F16A380 		.ascii	"\217\026\243\200g\261\226\005\271\351\307U\364\221\326"
 129      67B19605 
 129      B9E9C755 
 129      F491D6
 130 0139 FE93EBF8 		.ascii	"\376\223\353\370\375\225vx2\036tb\232,<\367\226\032"
 130      FD957678 
 130      321E7462 
 130      9A2C3CF7 
 130      961A
 131 014b 18021CD2 		.ascii	"\030\002\034\322\322\233\371\345l\211q%\265N\317\335"
 131      D29BF9E5 
 131      6C897125 
ARM GAS  C:\Users\info\AppData\Local\Temp\ccFVof5S.s 			page 10


 131      B54ECFDD 
 132 015b 3B5E645C 		.ascii	";^d\\\225\212\253\266\227\355Hu:\363\277\275\251_T\224"
 132      958AABB6 
 132      97ED4875 
 132      3AF3BFBD 
 132      A95F5494 
 133 016f F98FB678 		.ascii	"\371\217\266x\260-M6~o\022_\340\304\347ub\033\360\007"
 133      B02D4D36 
 133      7E6F125F 
 133      E0C4E775 
 133      621BF007 
 134 0183 9DB865A8 		.ascii	"\235\270e\250\353gE\233\264\264\277\363\350Wv$\355n"
 134      EB67459B 
 134      B4B4BFF3 
 134      E8577624 
 134      ED6E
 135 0195 8FA43F7E 		.ascii	"\217\244?~@:\214\265\302\357\273{c<A[\264v\371\233\277"
 135      403A8CB5 
 135      C2EFBB7B 
 135      633C415B 
 135      B476F99B 
 136 01aa 57E2EBBF 		.ascii	"W\342\353\277\023m\366a[\342\353 \233\252\021\371\305"
 136      136DF661 
 136      5BE2EB20 
 136      9BAA11F9 
 136      C5
 137 01bb B7E5600E 		.ascii	"\267\345`\016y\346\302\313c\305Nk\300O\015\216\340z"
 137      79E6C2CB 
 137      63C54E6B 
 137      C04F0D8E 
 137      E07A
 138 01cd B925BE9E 		.ascii	"\271%\276\236K\350po\241 C\333\263A>\037\006\331k\316"
 138      4BE8706F 
 138      A12043DB 
 138      B3413E1F 
 138      06D96BCE 
 139 01e1 C48AB316 		.ascii	"\304\212\263\026A@\305\333\003\037\001\237\211\305S"
 139      4140C5DB 
 139      031F019F 
 139      89C553
 140 01f0 C796C191 		.ascii	"\307\226\301\221s\362xp}M\212\241\224V\244\347q\206"
 140      73F27870 
 140      7D4D8AA1 
 140      9456A4E7 
 140      7186
 141 0202 B1588684 		.ascii	"\261X\206\204\260J\204U\212\342\177\215\200e2\224K\244"
 141      B04A8455 
 141      8AE27F8D 
 141      80653294 
 141      4BA4
 142 0214 42229592 		.ascii	"B\"\225\222\036`\216\275\254Z0\257\024\277h\006S\331"
 142      1E608EBD 
 142      AC5A30AF 
 142      14BF6806 
 142      53D9
 143 0226 9F2695F6 		.ascii	"\237&\225\366\306\031\345\336\323\327\037\270r\3706"
 143      C619E5DE 
ARM GAS  C:\Users\info\AppData\Local\Temp\ccFVof5S.s 			page 11


 143      D3D71FB8 
 143      72F836
 144 0235 BBBACC45 		.ascii	"\273\272\314E=\301\326\337\302\201\016G8!Q!\305b\312"
 144      3DC1D6DF 
 144      C2810E47 
 144      38215121 
 144      C562CA
 145 0248 6854F7BC 		.ascii	"hT\367\274\"\030\265\010\026\320\027\231\312\014W0\346"
 145      2218B508 
 145      16D01799 
 145      CA0C5730 
 145      E6
 146 0259 037736F2 		.ascii	"\003w6\362.\245\332qH\010O1\265\320\276\324So\362Y\006"
 146      2EA5DA71 
 146      48084F31 
 146      B5D0BED4 
 146      536FF259 
 147 026e 0A7BA2FC 		.ascii	"\012{\242\3746C\205\035\341\240\302+\274\005S2\021E"
 147      3643851D 
 147      E1A0C22B 
 147      BC055332 
 147      1145
 148 0280 5C305112 		.ascii	"\\0Q\022\255\304\014\344\311\035\335\232\372<~\002\217"
 148      ADC40CE4 
 148      C91DDD9A 
 148      FA3C7E02 
 148      8F
 149 0291 73AF794C 		.ascii	"s\257yL2\306\360*\236@S\302\2567\324\276\225\3259\375"
 149      32C6F02A 
 149      9E4053C2 
 149      AE37D4BE 
 149      95D539FD 
 150 02a5 15B898CF 		.ascii	"\025\270\230\317\023\216\231\022\026\020C\362\211\207"
 150      138E9912 
 150      161043F2 
 150      8987
 151 02b3 227770A4 		.ascii	"\"wp\244\212\335[\300\237,i\365lGU\244\017)\026\025"
 151      8ADD5BC0 
 151      9F2C69F5 
 151      6C4755A4 
 151      0F291615 
 152 02c7 6CC34205 		.ascii	"l\303B\005\261\261\256\266\307d\202qv/\037cAA\305\214"
 152      B1B1AEB6 
 152      C7648271 
 152      762F1F63 
 152      4141C58C 
 153 02db EAE628A8 		.ascii	"\352\346(\250 \241+(.\254\240\344\275\012\022Q\005\343"
 153      20A12B28 
 153      2EACA0E4 
 153      BD0A1251 
 153      05E3
 154 02ed AF2B18C5 		.ascii	"\257+\030\305\210\033Rid\301\201\027`,\344z\267\231"
 154      881B5269 
 154      64C18117 
 154      602CE47A 
 154      B799
 155 02ff E81AF110 		.ascii	"\350\032\361\020m\370\312D\031\303\357\232(\327&\312"
ARM GAS  C:\Users\info\AppData\Local\Temp\ccFVof5S.s 			page 12


 155      6DF8CA44 
 155      19C3EF9A 
 155      28D726CA 
 156 030f 0A4D54BC 		.ascii	"\012MT\274g\242<2qML\350\233[\214LT2][p\341\321\235"
 156      67A23C32 
 156      714D4CE8 
 156      9B5B8C4C 
 156      54325D5B 
 157 0327 C8C3A3DE 		.ascii	"\310\303\243\336\270\011\026\361\255r\256/2\335\003"
 157      B80916F1 
 157      AD72AE2F 
 157      32DD03
 158 0336 512F1166 		.ascii	"Q/\021f9\321\014\276n5&i\271'm\370\2274HHJ\337\202*"
 158      39D10CBE 
 158      6E352669 
 158      B9276DF8 
 158      97344848 
 159 034e 6C31FE3B 		.ascii	"l1\376;\306\011n\247\253\303\373yO'3rX\226\376\275\221"
 159      C6096EA7 
 159      ABC3FB79 
 159      4F273372 
 159      5896FEBD 
 160 0363 CFB89391 		.ascii	"\317\270\223\221\265\254\251\256\253\333\321T\277g\363"
 160      B5ACA9AE 
 160      ABDBD154 
 160      BF67F3
 161 0372 CE868307 		.ascii	"\316\206\203\007\032\314l_\362@\343\336\306=u\015\340"
 161      1ACC6C5F 
 161      F240E3DE 
 161      C63D750D 
 161      E0
 162 0383 3435361D 		.ascii	"456\035L\356\266\004V\373\016\251\344&\225\334\214{"
 162      4CEEB604 
 162      56FB0EA9 
 162      E42695DC 
 162      8C7B
 163 0395 FF07FC75 		.ascii	"\377\007\374u\245\023"
 163      A513
 164              		.text
 165              		.section	.gnu.lto_.symbol_nodes.792bc3df,"",%progbits
 166 0000 789C6361 		.ascii	"x\234ca`dPa\000\002&\206z\006\206\011\347\030@\324\252"
 166      60645061 
 166      00022686 
 166      7A068609 
 166      E71840D4 
 167 0015 0645A000 		.ascii	"\006E\240\000c=#\212\000\003\000\216\005\007~"
 167      633D238A 
 167      0003008E 
 167      05077E
 168              		.text
 169              		.section	.gnu.lto_.refs.792bc3df,"",%progbits
 170 0000 789C6361 		.ascii	"x\234ca`\004B \000\000\0009\000\007"
 170      60044220 
 170      00000039 
 170      0007
 171              		.text
 172              		.section	.gnu.lto_.decls.792bc3df,"",%progbits
ARM GAS  C:\Users\info\AppData\Local\Temp\ccFVof5S.s 			page 13


 173 0000 789CCD5A 		.ascii	"x\234\315Z{P\224Kv\237oz\200af\000E\256\232\304\354"
 173      7B50944B 
 173      769F6F7A 
 173      80616600 
 173      45AE9AC4 
 174 0015 B536EE5D 		.ascii	"\2656\356]\222\312z\365\336\315\306\315_\331MUvkS\225"
 174      92CA7AF5 
 174      DECDC6CD 
 174      5FD94D55 
 174      766B5395 
 175 0029 FD23D9FD 		.ascii	"\375#\331\375\313\252\311\000\203N.\00253(\354?;\340"
 175      CBAAC900 
 175      834E2E02 
 175      353328EC 
 175      3F3BE0
 176 003c 0B419E0A 		.ascii	"\013A\236\012\012\370\344\251\242\200<\004\004dDEPy"
 176      0AF8E4A9 
 176      A2803C04 
 176      04644445 
 176      5079
 177 004e 3F1479FA 		.ascii	"?\024y\372\002\337\200\342E\004$\247\373|3_\317\360"
 177      02DF80E2 
 177      450424A7 
 177      FB7C335F 
 177      CFF0
 178 0060 796FAA92 		.ascii	"yo\252\222Me\252\016\363\235\356\337w\372\234\323\247"
 178      4D65AA0E 
 178      F39DEEDF 
 178      77FA9CD3 
 178      A7
 179 0071 4F9FEE41 		.ascii	"O\237\356A\245\020\024\364\363~\263B\361\231\267B1\006"
 179      A51014F4 
 179      F37EB342 
 179      F199B742 
 179      3106
 180 0083 CF4BF021 		.ascii	"\317K\360!\360\375{\205\364Q\002}\005\177~\256T,\373"
 180      F0FD7B85 
 180      F451027D 
 180      057F7EAE 
 180      542CFB
 181 0096 D0761FF8 		.ascii	"\320v\037\370\276\003\344\017\024@e\200\330\373\360"
 181      BE03E40F 
 181      14406580 
 181      D8FBF0
 182 00a5 5D0E540F 		.ascii	"]\016T\017\364[\240/\200\332\201\356\001\325\001\265"
 182      F45BA02F 
 182      80DA81EE 
 182      01D501B5 
 183 00b5 01790075 		.ascii	"\001y\000u\003u\000u\001\365\000u\002\011\242\\\367"
 183      03750075 
 183      01F50075 
 183      0209A25C 
 183      F7
 184 00c6 0F1DDF5B 		.ascii	"\017\035\337[f\254zq,\3078u\"^P\310\353\274\250\024"
 184      66AC7A71 
 184      2CC73875 
 184      225E50C8 
ARM GAS  C:\Users\info\AppData\Local\Temp\ccFVof5S.s 			page 14


 184      EBBCA814 
 185 00da 763F7C7E 		.ascii	"v?|~J=(\014\010\202B`\037\205\350\013\005m\021\277\351"
 185      4A3D280C 
 185      08824260 
 185      1F85E80B 
 185      056D11BF 
 186 00ef 83808CD2 		.ascii	"\203\200\214\322!OpJ\026\037\030\\P(\031^\340:\\p\314"
 186      214F704A 
 186      161F185C 
 186      5028195E 
 186      E03A5C70 
 187 0104 AFEC2335 		.ascii	"\257\354#5\011\316\217\003)\270\012\245R%\026x\245\364"
 187      09CE8F03 
 187      29B80AA5 
 187      52251678 
 187      A5F4
 188 0116 02274FD4 		.ascii	"\002'O\324^\034_\340\207e\242\211\303\350\341\202|\233"
 188      5E1C5FE0 
 188      8765A289 
 188      C3E8E182 
 188      7C9B
 189 0128 370199F0 		.ascii	"7\001\231\360<:w\346\2377\236\267\301'\325fS\376\215"
 189      3C3A77E6 
 189      9F379EB7 
 189      C127D566 
 189      53FE8D
 190 013b E499820F 		.ascii	"\344\231\202\017\363SdF)|\241\021 \022\240\241\364e"
 190      F3536446 
 190      297CA111 
 190      2012A0A1 
 190      F465
 191 014d ED9C0F36 		.ascii	"\355\234\0176\320\376\306\333\255\205:\362\027\354\371"
 191      D0FEC6DB 
 191      AD853AF2 
 191      17ECF9
 192 015c C6D2ACDD 		.ascii	"\306\322\254\335\017\272\3745\202\022\330\356\251;\307"
 192      0FBAFC35 
 192      8212D8EE 
 192      A93BC7
 193 016b B5C00668 		.ascii	"\265\300\006h\204\025\213Jew\323\321E\255\240\011\214"
 193      84158B4A 
 193      6577D3D1 
 193      45ADA009 
 193      8C
 194 017c B7D9E26C 		.ascii	"\267\331\342l\266\3356M\240B(\021\326\011\027\204u\012"
 194      B6DD364D 
 194      A0422811 
 194      D6091784 
 194      750A
 195 018e A14C08A4 		.ascii	"\241L\010\244\022\317\012\033\025B14\236\203\306B\252"
 195      12CF0A1B 
 195      15423134 
 195      9E83C642 
 195      AA
 196 019f CED8F157 		.ascii	"\316\330\361W\277\331m\263\011B\251\240\021\316\013"
 196      BFD96DB3 
 196      0942A9A0 
ARM GAS  C:\Users\info\AppData\Local\Temp\ccFVof5S.s 			page 15


 196      11CE0B
 197 01ae 8441C092 		.ascii	"\204A\300\222/4\250\337\225\264\301q\0159+P\005\224"
 197      2F34A8DF 
 197      95B4C171 
 197      0D392B50 
 197      0594
 198 01c0 F98F6C75 		.ascii	"\371\217lu\252O\015Q\361\311!\372\022\277\000\323W\010"
 198      AA4F0D51 
 198      F1C921FA 
 198      12BF00D3 
 198      5708
 199 01d2 E530C445 		.ascii	"\3450\304Ei\010\030\021\307\310\263\217_\020T0\347\014"
 199      69081811 
 199      C7C8B38F 
 199      5F105430 
 199      E70C
 200 01e4 11A4A26D 		.ascii	"\021\244\242m\366\253\255?r6U\012\254\255kO\3311\202"
 200      F6ABAD3F 
 200      7236550A 
 200      ACAD6B4F 
 200      D93182
 201 01f7 F6AB809D 		.ascii	"\366\253\200\235n\313~\344\213\366\257\347\334\341\317"
 201      6ECB7EE4 
 201      8BF6AFE7 
 201      DCE1CF
 202 0206 DC2164D7 		.ascii	"\334!d\327\315\334\362@VM\307\330\235\223\353M\316\342"
 202      CDDCF240 
 202      564DC7D8 
 202      9D93EB4D 
 202      CEE2
 203 0218 6CA4C6D5 		.ascii	"l\244\306\325\315zjD+R\277\327\012x\243x\372\375u\255"
 203      CD7A6A44 
 203      2B52BFD7 
 203      0A78A378 
 203      FAFD75AD 
 204 022c 2E81BE91 		.ascii	".\201\276\221\272\333\346\377k\241\016\324\252\206\376"
 204      BADBE6FF 
 204      6BA10ED4 
 204      AA86FE
 205 023b 4BD0AF10 		.ascii	"K\320\257\020\352\005\2358\237\215\375\0155\002i\304"
 205      EA059D38 
 205      9F8DFD0D 
 205      350269C4 
 206 024b 71E63FD8 		.ascii	"q\346?\330\027=I\0372\203\205\225}j\362\034\231\356"
 206      173D491F 
 206      32838595 
 206      7D6AF21C 
 206      99EE
 207 025d E9E65E1F 		.ascii	"\351\346^\0372\217\314\223\023W\276!\211\204=O/\034"
 207      328FCC93 
 207      1357BE21 
 207      89843D4F 
 207      2F1C
 208 026f AFF646B5 		.ascii	"\257\366F\265\003\200]\034MM\365B\033O\011\324\214\201"
 208      03805D1C 
 208      4D4DF542 
 208      1B4F09D4 
ARM GAS  C:\Users\info\AppData\Local\Temp\ccFVof5S.s 			page 16


 208      8C81
 209 0281 A1974A92 		.ascii	"\241\227J\222\203\330\322\275\217\317\252\241s\035\304"
 209      83D8D2BD 
 209      8FCFAAA1 
 209      731DC4
 210 0290 8EC085CE 		.ascii	"\216\300\205\316:\014\235J\373\333\013*r\216a\225]\025"
 210      3A0C9D4A 
 210      FBDB0B2A 
 210      728E6195 
 210      5D15
 211 02a2 0337BC85 		.ascii	"\0037\274\205@\2158\351\357~\301&\275\025\254\270)\315"
 211      408D38E9 
 211      EF7EC126 
 211      BD15ACB8 
 211      29CD
 212 02b4 C83A3A21 		.ascii	"\310::!\314-S\2716\317\265\012\341\353u\302&pJ\0138"
 212      CC2D53B9 
 212      36CFB50A 
 212      E1EB75C2 
 212      26704A0B 
 213 02c9 659DE894 		.ascii	"e\235\350\224f0\372\006:\345\354\3113\327}H%\016\360"
 213      6630FA06 
 213      3AE5ECC9 
 213      33D77D48 
 213      250EF0
 214 02dc EAF08B78 		.ascii	"\352\360\213x\342\034\240/q]1\235\362;0\300-i\200V\341"
 214      E21CA02F 
 214      715D319D 
 214      F23B30C0 
 214      2D698056 
 215 02f1 1323DC96 		.ascii	"\023#\334\226\037\341x\337\303To\215\210O\375~|\366"
 215      1FE178DF 
 215      C3546F8D 
 215      884FFD7E 
 215      7CF6
 216 0303 8DF8260F 		.ascii	"\215\370&\017~\232\332\\\246\251\3351M\352\351\227\255"
 216      7E9ADA5C 
 216      A6A9DD31 
 216      4DEAE997 
 216      AD
 217 0314 8D5A6103 		.ascii	"\215Za\003\375\004nX\225K_\030{?\370\307C\273m-\233"
 217      FD046E58 
 217      954B5F18 
 217      7B3FF8C7 
 217      43BB6D2D 
 218 0329 E86C0A57 		.ascii	"\350l\012W@\351~a\225\363e\341K*\240\232\212Q0\270="
 218      40E97E61 
 218      95F365E1 
 218      4B2AA09A 
 218      8A5130B8 
 219 033e 23FDB32C 		.ascii	"#\375\263,\233}\017\241R\205\353\356\360\0326\340f\011"
 219      9B7D0FA1 
 219      5285EBEE 
 219      F01A36E0 
 219      6609
 220 0350 9ED62DC2 		.ascii	"\236\326-\302\251\364\006wx\255;|>\305\367\250\315\036"
 220      A9F40677 
ARM GAS  C:\Users\info\AppData\Local\Temp\ccFVof5S.s 			page 17


 220      78AD3B7C 
 220      3EC5F7A8 
 220      CD1E
 221 0362 4758FCDB 		.ascii	"GX\374\333E\2703J\277tC\037\342\205_\226\027\216\272"
 221      45B8334A 
 221      BF74431F 
 221      E2855F96 
 221      178EBA
 222 0375 B3E9B1CF 		.ascii	"\263\351\261\317\246\350l65E)\304\251Q8e-\362#7\312"
 222      A6E86C36 
 222      354529C4 
 222      A9513865 
 222      2DF22337 
 223 038a 8E5CC244 		.ascii	"\216\\\302D\245\211\351\314\006\253S\270\006\200&\012"
 223      A589E9CC 
 223      06AB53B8 
 223      0680260A 
 224 039a B82ABE01 		.ascii	"\270*\276\001b\205^\230\245na\203\320\007\324\001\324"
 224      62855E98 
 224      A56E6183 
 224      D007D401 
 224      D4
 225 03ab 05D403D4 		.ascii	"\005\324\003\324)lp\344\277\301#7\367\373\222.\214\241"
 225      296C70E4 
 225      BFC12337 
 225      F7FB922E 
 225      8CA1
 226 03bd 9EEEF151 		.ascii	"\236\356\361QoaU\240\274\344\001\220\366\337\225\214"
 226      6F6155A0 
 226      BCE40190 
 226      F6DF958C 
 227 03cd 6666A56F 		.ascii	"ff\245o\240f\336\203\227\356JAH\255fc\307\237\216\273"
 227      A066DE83 
 227      97EE4A41 
 227      48AD6663 
 227      C79F8EBB 
 228 03e1 EBCB47CB 		.ascii	"\353\313G\313=\316k\012\341\276sQ\037\277^V\240c\331"
 228      3DCE6B0A 
 228      E1BE7351 
 228      1FBF5E56 
 228      A063D9
 229 03f4 08DA842A 		.ascii	"\010\332\204*\314Fg\306\217%\353pin\001\366\322xk\263"
 229      CC4667C6 
 229      8F25EB70 
 229      696E01F6 
 229      D2786BB3 
 230 0408 0617AE8D 		.ascii	"\006\027\256\215.\306\272\352\372f\017\354\336\004\354"
 230      2EC6BAEA 
 230      FA660FEC 
 230      DE04EC
 231 0417 E5A98E24 		.ascii	"\345\251\216$-\031\303\205\233\363v\370\2317\366\005"
 231      2D19C385 
 231      9BF376F8 
 231      9937F605 
 232 0427 D29C3175 		.ascii	"\322\2341uz\237'y\201}\007/_\274\340C\226\2209\2277"
 232      7A9F2779 
 232      817D072F 
ARM GAS  C:\Users\info\AppData\Local\Temp\ccFVof5S.s 			page 18


 232      5FBCE043 
 232      96903997 
 233 043c 768202D7 		.ascii	"v\202\002\327\300\012g\331\245g\354\230\006y\333\037"
 233      C00A67D9 
 233      A567EC98 
 233      0679DB1F 
 234 044c 81CF683F 		.ascii	"\201\317h?\326\253&\311*\346\275\353\331Mq\036\322\022"
 234      D6AB26C9 
 234      2AE6BDEB 
 234      D94D711E 
 234      D212
 235 045e 7F151347 		.ascii	"\177\025\023G\227\370\004\314\342\023\311\3705\342\002"
 235      97F804CC 
 235      E213C9F8 
 235      35E202
 236 046d B4B92DC0 		.ascii	"\264\271-\300qp\350\032qA=\006\027<\302\005\3253\364"
 236      7170E81A 
 236      71413D06 
 236      173CC205 
 236      D533F4
 237 0480 C1AE2647 		.ascii	"\301\256&Gp\200\242\326\0175\236\230\376\335_\177.\363"
 237      7080A2D6 
 237      0F359E98 
 237      FEDD5F7F 
 237      2EF3
 238 0492 BA2313AC 		.ascii	"\272#\023\254>G3\3013\320\343\251\244\307\204#\371\277"
 238      3E4733C1 
 238      33D0E3A9 
 238      A4C78423 
 238      F9BF
 239 04a4 DEF3644C 		.ascii	"\336\363dL\334\305\326\002\273\2673\241DKN\260\001\205"
 239      DCC5D602 
 239      BBB733A1 
 239      444B4EB0 
 239      0185
 240 04b6 E7F1A303 		.ascii	"\347\361\243\003ZR\212L\313\265\341\177#\215\370\374"
 240      5A528A4C 
 240      CBB5E17F 
 240      238DF8FC 
 241 04c6 ED68EA88 		.ascii	"\355h\352\210\212t\"3\224{\270@\205\236\177\312K\364"
 241      8A742233 
 241      947BB840 
 241      859E7FCA 
 241      4BF4
 242 04d8 478965F5 		.ascii	"G\211e\365{^\211\333\204\235NL\\V\317!B\246\361\335"
 242      7B5E89DB 
 242      849D4E4C 
 242      5C56CF21 
 242      42A6F1DD 
 243 04ec 85D1D76D 		.ascii	"\205\321\327m*2\217\314\343\204\322\033>$\311\2031\317"
 243      2A328FCC 
 243      E384D21B 
 243      3E24C983 
 243      31CF
 244 04fe 4EF4ECF5 		.ascii	"N\364\354\365%'\2219\371 k\311\213\234G&e\352\304a5"
 244      25279139 
 244      F9206BC9 
ARM GAS  C:\Users\info\AppData\Local\Temp\ccFVof5S.s 			page 19


 244      8B9C4726 
 244      65EAC461 
 245 0513 A941266D 		.ascii	"\251A&m.\253\305\2234!s\371\346\356B/r\033\231\330\206"
 245      2EABC593 
 245      342173F9 
 245      E6EE422F 
 245      721B99D8 
 246 0528 6B153EA4 		.ascii	"k\025>\244\027\231\327-\345\0322\214\317\015\023\251"
 246      1799D72D 
 246      E51A328C 
 246      CF0D13A9 
 247 0538 7584BC42 		.ascii	"u\204\274B&\257\340\366\254\212, 3g\313~\246&I\236\214"
 247      26AFE0F6 
 247      AC8A2C20 
 247      3367CB7E 
 247      A626499E 
 248 054d 79593D79 		.ascii	"yY=yDI\216#3495\357M. \323\230\333\377\321\2334!\223"
 248      44498E23 
 248      33343935 
 248      EF4D2E20 
 248      D398DBFF 
 249 0566 DC7EAE55 		.ascii	"\334~\256UK\372\221\251\260\267th\310\003d\212\013?"
 249      4BFA91A9 
 249      B0B77468 
 249      C803648A 
 249      0B3F
 250 0578 9468C84B 		.ascii	"\224h\310Kd&F'\026\374\310;d\012\212\342r\325d\011\231"
 250      64264627 
 250      16FCC83B 
 250      640A8AE2 
 250      72D56409 
 251 058d DCE2832D 		.ascii	"\334\342\203-\276$\315\2132\253\307\223\222J}0/\342"
 251      BE24CD8B 
 251      32ABC793 
 251      924A7D30 
 251      2FE2
 252 059f 6715A648 		.ascii	"g\025\246H\372\311e\3639\227\363\333\274G{me\377\301"
 252      FAC965F3 
 252      3997F3DB 
 252      BC477B6D 
 252      65FFC1
 253 05b2 66741166 		.ascii	"ft\021f\364\260r\225#\0140\323|-%\246\352v\237#6{,a"
 253      F4B07295 
 253      230C30D3 
 253      7C2D25A6 
 253      EA769F23 
 254 05ca 1BC14739 		.ascii	"\033\301G9\260#\213\301rmL\026\301T\362\202\034\270"
 254      B0238BC1 
 254      726D4C16 
 254      C154F282 
 254      1CB8
 255 05dc 84CBBF27 		.ascii	"\204\313\277'y\321qJ\027\364\262d]\336\256\245*S\250"
 255      79D1714A 
 255      17F4B264 
 255      5DDEAEA5 
 255      2A53A8
 256 05ef 4D063AC2 		.ascii	"M\006:\302A\227\222\271\374\027/\202\235\371\017\363"
ARM GAS  C:\Users\info\AppData\Local\Temp\ccFVof5S.s 			page 20


 256      419792B9 
 256      FC172F82 
 256      9DF90FF3 
 257 05ff BA130F5A 		.ascii	"\272\023\017Z\017\266sZ\277\227\323\232G\337CE(vN\016"
 257      0FB6735A 
 257      BF97D39A 
 257      47DF4345 
 257      28764E0E 
 258 0613 3BC6617B 		.ascii	";\306a{x\177|\220C\363&f\361\376\330-c\344\013Nt\027"
 258      787F7C90 
 258      43F32666 
 258      F1FED82D 
 258      63E40B4E 
 259 0629 2F7A5E4E 		.ascii	"/z^N\364\013\267\034\257T\010o\300\011\323\324\011\373"
 259      F40BB71C 
 259      AF54086F 
 259      C009D3D4 
 259      09FB
 260 063b 45E93413 		.ascii	"E\3514\023g)\003\205l\345\006!\023(\007(\035\350 \320"
 260      67290385 
 260      6CE50621 
 260      13280728 
 260      1DE820D0 
 261 064f 51A024A0 		.ascii	"Q\240$\240c@\011@\007\200\022\201\016\001\245\001\245"
 261      63400940 
 261      07801281 
 261      0E01A501 
 261      A5
 262 0660 02A5001D 		.ascii	"\002\245\000\035\001:\016\224\001t\002(Y\271\201\333"
 262      013A0E94 
 262      01740228 
 262      59B981DB 
 263 0670 8CDEF193 		.ascii	"\214\336\361\223\361N\220\235\014>(2x'\354\225q\302"
 263      F14E909D 
 263      0C3E2832 
 263      7827EC95 
 263      71C2
 264 0682 D7920F86 		.ascii	"\327\222\017\206\244\251\230\225\363\300\020'\267L\212"
 264      A4A99895 
 264      F3C01027 
 264      B74C8A
 265 0691 9F5819A9 		.ascii	"\237X\031\251c\334\336\272\230\310\366V\200,\337[\017"
 265      63DCDEBA 
 265      98C8F656 
 265      802CDF5B 
 265      0F
 266 06a2 F1EAED93 		.ascii	"\361\352\355\223\021\304\355\351\231\322\220{d\220\274"
 266      11C4EDE9 
 266      99D2907B 
 266      6490BC
 267 06b1 D5951274 		.ascii	"\325\225\022tIX\016\035\342&~D2\372[W\350\262\212e\226"
 267      49580E1D 
 267      E2267E44 
 267      32FA5B57 
 267      E8B28A65 
 268 06c6 F7FD8CBC 		.ascii	"\367\375\214\274\3571\000!\213\274\263\035\273EH\036"
 268      EF310021 
ARM GAS  C:\Users\info\AppData\Local\Temp\ccFVof5S.s 			page 21


 268      8BBCB31D 
 268      BB45481E 
 269 06d6 CB22CACA 		.ascii	"\313\"\312\312W\217\236y\270\354\343|\364\234\206\210"
 269      578F9E79 
 269      B8ECE37C 
 269      F49C8688 
 270 06e6 F953470F 		.ascii	"\371SG\017NEF\312\217\350T\234\202\301N*\235[\017\235"
 270      4E4546CA 
 270      8FE8549C 
 270      82C14E2A 
 270      9D5B0F9D 
 271 06fa 19A673F5 		.ascii	"\031\246s\365\203\214F\261\326\276\247\340\266\360\000"
 271      838C46B1 
 271      D6BEA7E0 
 271      B6F000
 272 0709 710BAF3C 		.ascii	"q\013\257<\325\333\350E*\231MB\255m\177\232\232\330"
 272      D5DBE845 
 272      2A994D42 
 272      AD6D7F9A 
 272      9AD8
 273 071b 91697B31 		.ascii	"\221i{1U\245&\255\310\314\016g%kI72K\363\361\333\311"
 273      55A526AD 
 273      C8CC0E67 
 273      256B4937 
 273      324BF3F1 
 274 0731 037C7ED3 		.ascii	"\003|~\323V=C\310\0242\343W&gud\021\231\372\204\333"
 274      563D43C8 
 274      1432E357 
 274      26677564 
 274      1199FA84 
 275 0746 0B6A7240 		.ascii	"\013jr@\315\230\354\313\373\3434$\021\231\375U\015\205"
 275      CD98ECCB 
 275      FBE33424 
 275      1199FD55 
 275      0D85
 276 0758 9E240999 		.ascii	"\236$\011\231w\355\323\311:\222\311\030\345\215\205"
 276      77EDD3C9 
 276      3A92C918 
 276      E58D85
 277 0767 45383C88 		.ascii	"E8<\210\333\273\275\366v\0005\255L\251\021J$\323\356"
 277      DBBBBDF6 
 277      760035AD 
 277      4CA9114A 
 277      24D3EE
 278 077a 7CAABE2E 		.ascii	"|\252\276.U\312\326\313\265\217\023Z\325$\027G\233{"
 278      55CAD6CB 
 278      B58F135A 
 278      D5241747 
 278      9B7B
 279 078c DD9CE041 		.ascii	"\335\234\340A\212\221i\355h\375{r\011\237k\217\237\230"
 279      8A9169ED 
 279      68FD7B72 
 279      099F6B8F 
 279      9F98
 280 079e F521B718 		.ascii	"\365!\267\030\343\373b\364M\216 8w\207@\347\316`oL\341"
 280      E3FB62F4 
 280      4D8E2038 
ARM GAS  C:\Users\info\AppData\Local\Temp\ccFVof5S.s 			page 22


 280      778740E7 
 280      CE606F4C 
 281 07b3 72CA5950 		.ascii	"r\312YP\252\376;6\206\201\016n%\024\310\201\307\270"
 281      AAFE3B36 
 281      86810E6E 
 281      2514C881 
 281      C7B8
 282 07c5 00AFEAF0 		.ascii	"\000\257\352\360C4\265\367\202+\372"
 282      4334B5F7 
 282      822BFA
 283 07d0 4BF7B459 		.ascii	"K\367\264Y\307\353Q,\003\346\027\3660\257G\245\234\036"
 283      C7EB512C 
 283      03E617F6 
 283      30AF47A5 
 283      9C1E
 284 07e2 FCDED0DD 		.ascii	"\374\336\320\335\341\\hg\344\260.\373S\012w>(\027\321"
 284      E15C6867 
 284      E4B02EFB 
 284      530A773E 
 284      2817D1
 285 07f5 AEC789CD 		.ascii	"\256\307\211\315\313\312\350<\345:\266\262\204\012\361"
 285      CBCAE83C 
 285      E53AB6B2 
 285      840AF1
 286 0804 05BA48AE 		.ascii	"\005\272H\256\300\344\325Ap_\005\252\006j\000\252\001"
 286      C0E4D541 
 286      705F05AA 
 286      066A00AA 
 286      01
 287 0815 6A04AA02 		.ascii	"j\004\252\002\272\014d\007j\002\272\004T+\245P\032)"
 287      BA0C6407 
 287      6A02BA04 
 287      542BA550 
 287      1A29
 288 0827 BC3BCECB 		.ascii	"\274;\316\313\270c\204K^9x0\250_\226\274\240\257\201"
 288      B863844B 
 288      5E397830 
 288      A85F96BC 
 288      A0AF81
 289 083a 17744ECE 		.ascii	"\027tN\316|.y\364\361~-\222\003\277\340|U\301\317\357"
 289      7C2E79F4 
 289      F17E2D92 
 289      03BFE07C 
 289      55C1CFEF 
 290 084e 45191DF9 		.ascii	"E\031\035\371\215\356./\272PN\2643+\335\252\350\370"
 290      8DEE2E2F 
 290      BA504EB4 
 290      332BDDAA 
 290      E8F8
 291 0860 9CB4E3FA 		.ascii	"\234\264\343\3729w1\035\216|n\207\013\247\277o\200\217"
 291      3977311D 
 291      8E7C6E87 
 291      0BA7BF6F 
 291      808F
 292 0872 FFA7FE46 		.ascii	"\377\247\376F\027\276M\371\202\272\360:\010\273&\255"
 292      17BE4DF9 
 292      82BAF03A 
ARM GAS  C:\Users\info\AppData\Local\Temp\ccFVof5S.s 			page 23


 292      08BB26AD 
 293 0882 CC7A47D2 		.ascii	"\314zG\322\351\031?\275G\207I\247\223-\370\361\233P"
 293      E9193FBD 
 293      478749A7 
 293      932DF8F1 
 293      9B50
 294 0894 F03EC095 		.ascii	"\360>\300\2256\263t\240NM\246\220\031O8;\255#\011\336"
 294      36B374A0 
 294      4E4DA690 
 294      194F383B 
 294      AD2309DE 
 295 08a8 8C49BC51 		.ascii	"\214I\274Q\325,\336}\264\260\223AIu\256'I\301\316\273"
 295      D52CDE7D 
 295      B4B09341 
 295      4975AE27 
 295      49C1CEBB 
 296 08bc 4F9E9513 		.ascii	"O\236\225\023r\004\231=\025\307j4\344$2\367\352\332"
 296      7204993D 
 296      15C76A34 
 296      E42432F7 
 296      EADA
 297 08ce 673C4811 		.ascii	"g<H\0212W+\346!\237\225\"S\375\272\270\332\007\005\332"
 297      32572BE6 
 297      219F9522 
 297      53FDBAB8 
 297      DA0705DA 
 298 08e2 297F2D76 		.ascii	")\177-v\002\252\332j\354,O\250/S\221Fd\012\237$\356"
 298      02AADA6A 
 298      EC2C4FA8 
 298      2F539146 
 298      640A9F24 
 299 08f7 D6909BC8 		.ascii	"\326\220\233\310\264\024\275I\020H\0072\347\217N\226"
 299      B414BD49 
 299      10480732 
 299      E78F4E96 
 300 0907 08A41F99 		.ascii	"\010\244\037\2311{E\237\212\014!\3236q\267GE\036!sl"
 300      317B459F 
 300      8A0C21D3 
 300      3671B747 
 300      451E2173 
 301 091c 62714649 		.ascii	"bqFI\236#\34386\371\343\261\351T\372\314cB\346\260/"
 301      9E23E338 
 301      36F9E3B1 
 301      E954FACC 
 301      6342E6B0 
 302 0931 7D311F26 		.ascii	"}1\037&?\001\257/n\236\3333\246$\331\310\214\324\346"
 302      3F01AF2F 
 302      6E9EDB33 
 302      A624D9C8 
 302      8CD4E6
 303 0944 B7789133 		.ascii	"\267x\2213\310\\>\321\333\245\"5\310,eO\037\365\342"
 303      C85C3ED1 
 303      DBA52235 
 303      C82C654F 
 303      1FF5E2
 304 0957 0F71775C 		.ascii	"\017qw\\\216\374\243J\307!\316q \363\307\003YS\347\201"
 304      8EFCA34A 
ARM GAS  C:\Users\info\AppData\Local\Temp\ccFVof5S.s 			page 24


 304      C721CE71 
 304      20F3C703 
 304      5953E781 
 305 096b 4C3F7203 		.ascii	"L?r\003\205\014\177\354\332\257&-\310\214\215\324/("
 305      850C7FEC 
 305      DAAF262D 
 305      C88C8DD4 
 305      2F28
 306 097d C93D51FC 		.ascii	"\311=Q\374\323\341i-\231B\346a\354\321\011%\211\325"
 306      D3E1692D 
 306      9942E661 
 306      ECD10925 
 306      89D5
 307 098f 3226E965 		.ascii	"2&\351e\351\021o\222\215\314\374\323\303\003\002\012"
 307      E9116F92 
 307      8DCCFCD3 
 307      C303020A 
 308 099f D7D13346 		.ascii	"\327\3213F\335@\232\037\356$c\314\350\221\362\213\032"
 308      DD409A1F 
 308      EE2463CC 
 308      E891F28B 
 308      1A
 309 09b0 7216B10F 		.ascii	"r\026\261\017&\033\262\274\330i\362\216\363\272\253"
 309      261BB2BC 
 309      D869F28E 
 309      F3BAAB
 310 09bf A4B02345 		.ascii	"\244\260#E\305\332\350\012x\256d\215cKU\265\036\316"
 310      C5DAE80A 
 310      78AE648D 
 310      634B55B5 
 310      1ECE
 311 09d1 C617D858 		.ascii	"\306\027\330XZ\2644\347\355l|\211\2153\345\007\013<"
 311      5AB434E7 
 311      ED6C7C89 
 311      8D33E507 
 311      0B3C
 312 09e3 49B9562C 		.ascii	"I\271V,\365\007\313\005r\015\231\303o\272r\275H\033"
 312      F507CB05 
 312      720D99C3 
 312      6FBA72BD 
 312      481B
 313 09f5 32CDD913 		.ascii	"2\315\331\023\351Jr\027\231\312\206\351\002\361\020"
 313      E94A7217 
 313      99CA86E9 
 313      02F110
 314 0a04 6AA3178F 		.ascii	"j\243\027\217\247z\363\206<\311k\255\313\011\325\037"
 314      A77AF386 
 314      3CC96BAD 
 314      CB09D51F 
 315 0a14 4FA8B6A7 		.ascii	"O\250\266\247{`\003}\213}\215O\323\032\325$N\307\230"
 315      7B60037D 
 315      8B7D8D4F 
 315      D31AD524 
 315      4EC798
 316 0a27 CEA25777 		.ascii	"\316\242Ww}I62OO5\226\253I\0252\216\3539\177\274\236"
 316      7D493632 
 316      4F4F3596 
ARM GAS  C:\Users\info\AppData\Local\Temp\ccFVof5S.s 			page 25


 316      AB491532 
 316      8EEB397F 
 317 0a3d CBB0A72F 		.ascii	"\313\260\247/h\310U\354k\255}\270\211\334\301\347oo"
 317      68C855EC 
 317      6BAD7DB8 
 317      89DCC1E7 
 317      6F6F
 318 0a4f F70E1332 		.ascii	"\367\016\0232\210LJS\30355\231@\246y\350>D\324[d\026"
 318      884C4A53 
 318      C3353599 
 318      40A679E8 
 318      3E44D45B 
 319 0a65 2B2AAE09 		.ascii	"+*\256\011$\336\007c\374y\336+\201\244!3\334r\266\230"
 319      24DE0763 
 319      FC79DE2B 
 319      81A42133 
 319      DC72B698 
 320 0a79 2E8D1FD3 		.ascii	".\215\037\323+\324\245%?\356&\354\3078o\335)o\362\275"
 320      2BD4A525 
 320      3FEE26EC 
 320      C7386FDD 
 320      296FF2BD 
 321 0a8d 480E832B 		.ascii	"H\016\203+\213\323^ts7a\005\272Zz<\335K\240h&\316\345"
 321      8BD35E74 
 321      73376105 
 321      BA5A7A3C 
 321      DD4BA068 
 322 0aa4 FA63E73E 		.ascii	"\372c\347>\312\202J!%\356=$\220\212e;i\034Y'\304\022"
 322      CA824A21 
 322      25EE3D24 
 322      908A653B 
 322      691C5927 
 323 0aba BC0BCB4F 		.ascii	"\274\013\313O\203\365X\210C\234+\351h\366r\334\223\272"
 323      83F55888 
 323      439C2BE9 
 323      68F672DC 
 323      93BA
 324 0acc 0B889711 		.ascii	"\013\210\227\021\3408*\377\224\335\223\356\007]\366"
 324      E0382AFF 
 324      94DD93EE 
 324      075DF6
 325 0adb 49BA806A 		.ascii	"I\272\200j\030\301\017/\316\276T\223R\264\272\344\374"
 325      18C10F2F 
 325      CEBE5493 
 325      52B4BAE4 
 325      FC
 326 0aec 7C9986C5 		.ascii	"|\231\206\305\301\357tb\020\015\356+\272\255u\006V\002"
 326      C1EF7462 
 326      100DEE2B 
 326      BAAD7506 
 326      5602
 327 0afe 618D7DF7 		.ascii	"a\215}\367F\372\274\235\215\211\330\270\177i\370\272"
 327      46FABC9D 
 327      8D89D8B8 
 327      7F69F8BA 
 328 0b0e 9A5C159D 		.ascii	"\232\\\025\235Y\224\224\343C\332\220I\316zS\347E\372"
 328      599494E3 
ARM GAS  C:\Users\info\AppData\Local\Temp\ccFVof5S.s 			page 26


 328      43DA9049 
 328      CE7A53E7 
 328      45FA
 329 0b20 90E9B19F 		.ascii	"\220\351\261\237\312\361&C\310<\252\234\315\367!\023"
 329      CAF12643 
 329      C83CAA9C 
 329      CDF72113 
 330 0b30 3E9F8CE1 		.ascii	">\237\214\341\252\356\223\243^d\022\001\037:\346/\013"
 330      AAEE93A3 
 330      5E641201 
 330      1F3AE62F 
 330      0B
 331 0b41 64019983 		.ascii	"d\001\231\203=\227\276&\007|1g\364\335\203Cc\0062m\037"
 331      3D97BE26 
 331      077C3167 
 331      F4DD8343 
 331      6306326D 
 332 0b56 A7AE1052 		.ascii	"\247\256\020R\204\314\205\261}=\036\244\006\231\302"
 332      84CC85B1 
 332      7D3D1EA4 
 332      0699C2
 333 0b65 85D3953A 		.ascii	"\205\323\225:r\035\231\346\331\206<\017\322\201LB\342"
 333      721D99E6 
 333      D9863C0F 
 333      D2814C42 
 333      E2
 334 0b76 B9D3BEE4 		.ascii	"\271\323\276\34412{\017\026\327\0232\213L\347h\371;"
 334      31327B0F 
 334      16D71332 
 334      8B4CE768 
 334      F93B
 335 0b88 4F72D00F 		.ascii	"Or\320\017o\334G\322\376\223d\340\363\213\336\3564\017"
 335      6FDC47D2 
 335      FE9364E0 
 335      F38BDEEE 
 335      340F
 336 0b9a 928BCC62 		.ascii	"\222\213\314b\371\376:\025\251Bf\242enFKn\"\363\241"
 336      F9FE3A15 
 336      A94266A2 
 336      656E464B 
 336      6E22F3A1 
 337 0bae 29AE5620 		.ascii	")\256V \367\221\271\3244w\307\203L\"\363:\2568\037\202"
 337      F791B9D4 
 337      3477C783 
 337      4C22F33A 
 337      AE381F82 
 338 0bc2 6F050E93 		.ascii	"o\005\016\223\361*SIN#\2630\177(\326\203T\"\3238\364"
 338      F12A5349 
 338      4E23B330 
 338      7F28D683 
 338      5422D338 
 339 0bd7 F4BC9634 		.ascii	"\364\274\2264#s&i\352\232\206\2142\346\263\251\342\243"
 339      23732669 
 339      EA9A868C 
 339      32E6B3A9 
 339      E2A3
 340 0be9 BD9EFCB9 		.ascii	"\275\236\374\271Z\274z\204\012\012/\037k\213\314\015"
ARM GAS  C:\Users\info\AppData\Local\Temp\ccFVof5S.s 			page 27


 340      5ABC7A84 
 340      0A0A2F1F 
 340      6B8BCC0D 
 341 0bf9 97866CB6 		.ascii	"\227\206l\266}:\346\321S0\375\365\344\323\207\324\372"
 341      7D3AE6D1 
 341      5330FDF5 
 341      E4D387D4 
 341      FA
 342 0c0a 6E672172 		.ascii	"ng!r\324\025Z\343^i\275M\347\312\370\014\021,[\306\213"
 342      D4155AE3 
 342      5E69BD4D 
 342      E7CAF80C 
 342      112C5BC6 
 343 0c1f E7487E7B 		.ascii	"\347H~{\315\227\321\203/rz\245\202\350\244\014\224\257"
 343      CD97D183 
 343      2F727AA5 
 343      82E8A40C 
 343      94AF
 344 0c31 B40E4BD0 		.ascii	"\264\016K\320\002\031(\247q\267d\\\246\234q|\345\220"
 344      021928A7 
 344      71B7645C 
 344      A69C717C 
 344      E590
 345 0c43 2E492D94 		.ascii	".I-\224\221\312U$\331\0222O\006\311\013=&Ase\240\274"
 345      91CA5524 
 345      D912324F 
 345      06C90B3D 
 345      26417365 
 346 0c59 B7CA245D 		.ascii	"\267\312$]s\\\241\313\253\307N\011{D\316.\336\261\207"
 346      735CA1CB 
 346      ABC74E09 
 346      7B44CE2E 
 346      DEB187
 347 0c6c 25EC3139 		.ascii	"%\35419\271|u\374QR\367\270\034\226\327\267R\222\233"
 347      B97C75FC 
 347      5152F7B8 
 347      1C96D7B7 
 347      52929B
 348 0c7f 2D87E567 		.ascii	"-\207\345g\354\035\0379g\344#\207/\036\347\223\261x"
 348      EC1D1F39 
 348      67E42387 
 348      2F1EE793 
 348      B178
 349 0c91 243227DF 		.ascii	"$2'\337\223|T\235\226q*o\320eI\311,9G-\257\233\235\207"
 349      937C549D 
 349      96712A6F 
 349      D06549C9 
 349      2C39472D 
 350 0ca9 CB22114F 		.ascii	"\313\"\021O\353\270Z\310\264ed\203P\002t\036\350\"P"
 350      EBB85AC8 
 350      B4656483 
 350      5002741E 
 350      E82250
 351 0cbc 39D065A0 		.ascii	"9\320e\240\263@\027\200\032\200.\001U\001U\000U\003"
 351      B3401780 
 351      1A802E01 
 351      55015500 
ARM GAS  C:\Users\info\AppData\Local\Temp\ccFVof5S.s 			page 28


 351      5503
 352 0cce D5019D03 		.ascii	"\325\001\235\003\252\004*\005*\006\252!\374\265\304"
 352      AA042A05 
 352      2A06AA21 
 352      FCB5C4
 353 0cdd 608A2FD6 		.ascii	"`\212/\326\3664U\237\020\207\224\273\314\207<0\220\222"
 353      F634559F 
 353      108794BB 
 353      CC873C30 
 353      9092
 354 0cef 93E54762 		.ascii	"\223\345GbW\262\235\341]R\323\317\334kP\247\356v\320"
 354      57B29DE1 
 354      5D52D3CF 
 354      DC6B50A7 
 354      EE76D0
 355 0d02 F74FA9BB 		.ascii	"\367O\251\273x)\336\376\267t\226\032a\240+\322&C'\215"
 355      7829DEFE 
 355      B774961A 
 355      61A02BD2 
 355      2643278D 
 356 0d16 A95BF9B0 		.ascii	"\251[\371\260p\322k\225\250\240\375\223\012*\376\327"
 356      70D26B95 
 356      A8A0FD93 
 356      0A2AFED7 
 357 0d26 B5A3F9B3 		.ascii	"\265\243\371\263\177\317~\227_\331\256\022\376B\276"
 357      7FCF7E97 
 357      5FD9AE12 
 357      FE42BE
 358 0d35 89386AB9 		.ascii	"\2118j\271\331\013\023C\036$c%V\035Or\2325\34442\215"
 358      D90B1343 
 358      1E246325 
 358      561D4F72 
 358      9A35E434 
 359 0d4b 3DA577FC 		.ascii	"=\245w\374H\025c\376j0\2411V\020T\272Ux\215)}t\272\265"
 359      481563FE 
 359      6A30A131 
 359      561054BA 
 359      55788D29 
 360 0d63 AA40F121 		.ascii	"\252@\361!pC` \335\310n\022\235\220\016\333#7|\213\313"
 360      70436020 
 360      DDC86E12 
 360      9D900EDB 
 360      23377C8B 
 361 0d78 F0377178 		.ascii	"\3607qx\327\271\203\363\303\230\022\\\363\024\\sK\234"
 361      D7B983F3 
 361      C398125C 
 361      F3145C73 
 361      4B9C
 362 0d8a BB09781E 		.ascii	"\273\011x\036\007\313\036\000\215\001\215\002\215\000"
 362      07CB1E00 
 362      8D018D02 
 362      8D00
 363 0d98 DD03BA0B 		.ascii	"\335\003\272\013\324\017\324\007\324\013\324\003\324"
 363      D40FD407 
 363      D40BD403 
 363      D4
 364 0da5 0DD405D4 		.ascii	"\015\324\005\324\011\324\001\324\016\324\006t\007\350"
ARM GAS  C:\Users\info\AppData\Local\Temp\ccFVof5S.s 			page 29


 364      09D401D4 
 364      0ED40674 
 364      07E8
 365 0db3 3650AB4B 		.ascii	"6P\253K\354\315\367s+\351:\314\340-iy\314(\245\365."
 365      ECCDF773 
 365      2BE93ACC 
 365      E02D6979 
 365      CC28A5F5 
 366 0dc8 AFE735F1 		.ascii	"\257\3475\361\205?\275\236\357\373\235\213\370\235R"
 366      853FBD9E 
 366      EFFB9D8B 
 366      F89D52
 367 0dd7 464B3EE1 		.ascii	"FK>\341~+a\277\225\303\362\231qF\302\316\312a\271\215"
 367      7E2B61BF 
 367      95C3F299 
 367      7146C2CE 
 367      CA61B98D 
 368 0deb E48D047D 		.ascii	"\344\215\004}/\007\345v\207)\011\372\301\025:\247t\317"
 368      2F07E576 
 368      872909FA 
 368      C1153AA7 
 368      74CF
 369 0dfd 8B231276 		.ascii	"\213#\022v^\016\313\347\374!\011\273 \207\345\323^\277"
 369      5E0ECBE7 
 369      FC2109BB 
 369      2087E5D3 
 369      5EBF
 370 0e0f 845D94C3 		.ascii	"\204]\224\303\362y\274W\302~\224\303\362\336\355\346"
 370      F279BC57 
 370      C27E94C3 
 370      F2DEEDE6 
 371 0e1f F41564B0 		.ascii	"\364\025d\260\274w\2732\271\234\277$Jv\346\3749w\267"
 371      BC77BB32 
 371      B99CBF24 
 371      4A76E6FC 
 371      3977B7
 372 0e32 35667297 		.ascii	"5fr\227\034\255\"\334\231\010\247\227m?\015\231\\\342"
 372      1CAD22DC 
 372      9908A797 
 372      6D3F0D99 
 372      5CE2
 373 0e44 B411593C 		.ascii	"\264\021Y<'\276\256\337\017\341\003\2608\017\270\303"
 373      27BEAEDF 
 373      0FE103B0 
 373      380FB8C3 
 374 0e54 F9DA855B 		.ascii	"\371\332\205[\265\203d\255\204\031\206\030\277\017/"
 374      B58364AD 
 374      84198618 
 374      BF0F2F
 375 0e63 639AFB04 		.ascii	"c\232\373\004J\301A2\331\262\331m[\257r;I\302\0134\016"
 375      4AC14132 
 375      D9B2D96D 
 375      5BAF723B 
 375      49C20B34 
 376 0e78 2043B07F 		.ascii	" C\260\177\321a\371\342 p\230UO\266\177F\263*\3253I"
 376      D161F9E2 
 376      20709855 
ARM GAS  C:\Users\info\AppData\Local\Temp\ccFVof5S.s 			page 30


 376      4FB67F46 
 376      B32AD533 
 377 0e8d CAAAF759 		.ascii	"\312\252\367Y\312@[jy[\222\345m\341L\277\324\257\263"
 377      CA405B6A 
 377      795B92E5 
 377      6DE14CBF 
 377      D4AFB3
 378 0ea0 A51A1838 		.ascii	"\245\032\0308\305\035,\263\255K\350Ty4'\272\"3\0005"
 378      C51D2CB3 
 378      AD4BE854 
 378      793427BA 
 378      22330035 
 379 0eb4 7908F034 		.ascii	"y\010\3604w\370\227\262N}\314;\365\0118\365\221\234"
 379      77F897B2 
 379      4E7DCC3B 
 379      F50938F5 
 379      919C
 380 0ec6 531FBB38 		.ascii	"S\037\2738\365\221\234S\313]\234\372\2309\265\2319\025"
 380      F5919C53 
 380      CB5D9CFA 
 380      9839B599 
 380      3915
 381 0ed8 1D793179 		.ascii	"\035y1y5u$U\355\220\344\310G\234#/f~\216\352\303~ \034"
 381      35752455 
 381      ED90E4C8 
 381      479C232F 
 381      667E8EEA 
 382 0ef0 96557FB3 		.ascii	"\226U\177\263T\224\034\317dE\311-\327\242\004\373\216"
 382      54941CCF 
 382      6445C92D 
 382      D7A204FB 
 382      8E
 383 0f01 24FF80F6 		.ascii	"$\377\200\366\3214\177C\032\353\226c+,\353\254\212\363"
 383      D1347F43 
 383      1AEB9663 
 383      2B2CEBAC 
 383      8AF3
 384 0f13 21F5B8B1 		.ascii	"!\365\270\261\234o\2739$^\300\304\323\313\341\363g\206"
 384      9C6FBB39 
 384      245EC0C4 
 384      D3CBE1F3 
 384      6786
 385 0f25 C7C5FFCC 		.ascii	"\307\305\377\314\260\323\1770\031\351;1\356KZ\020\334"
 385      B0D37F30 
 385      19E93B31 
 385      EE4B5A10 
 385      DC
 386 0f36 F5FEE93E 		.ascii	"\365\376\351>\201\0142\346\227\325\007\037vy\013.[\020"
 386      810C32E6 
 386      97D5071F 
 386      76790B2E 
 386      5B10
 387 0f48 DD7F746E 		.ascii	"\335\177tn{\022v\320\255\012w']` {\010\204\006\272G"
 387      7B1276D0 
 387      AD0A7727 
 387      5D60207B 
 387      088406BA 
ARM GAS  C:\Users\info\AppData\Local\Temp\ccFVof5S.s 			page 31


 388 0f5d 05E24161 		.ascii	"\005\342Aa.\347\217\371\005\373\350d;\226\334$o~\263"
 388      2EE78FF9 
 388      05FBE864 
 388      3B96DC24 
 388      6F7EB3
 389 0f70 B4425D36 		.ascii	"\264B]6\200\027p\322|\016'M\341\031\3017\350\006pA\025"
 389      801770D2 
 389      7C0E274D 
 389      E119C137 
 389      E8067041 
 390 0f85 289C57C1 		.ascii	"(\234W\301\226\015t\010(\035(\015(\025(\005(\031(\011"
 390      960D7408 
 390      281D280D 
 390      28152805 
 390      28192809 
 391 0f99 E8205022 		.ascii	"\350 P\"P\002\320"
 391      5002D0
 392 0fa0 01A078A0 		.ascii	"\001\240x\240\375@\373\200\366\002\355\001\332\015\024"
 392      FD40FB80 
 392      F602ED01 
 392      DA0D14
 393 0faf 07140BF4 		.ascii	"\007\024\013\364\0326\203\017@s@\357\201f\201\276\005"
 393      1A36830F 
 393      407340EF 
 393      816681BE 
 393      05
 394 0fc0 7A073403 		.ascii	"z\0074\003\364\026\350\015\3204\320\224\313\2461\312"
 394      F416E80D 
 394      D034D094 
 394      CBA631CA 
 395 0fd0 6F6E2F45 		.ascii	"on/EU\305d5\274\254@\345\022\346\250 \203\035\221O\202"
 395      55C56435 
 395      BCAC40E5 
 395      12E6A820 
 395      831D914F 
 396 0fe5 0FE4B0FC 		.ascii	"\017\344\260\374\015rc&w\323\371P\016]\315\241/\367"
 396      0D726326 
 396      77D3F950 
 396      0E5DCDA1 
 396      2FF7
 397 0ff7 3B7F5279 		.ascii	";\177Ry)\207\345\177w"
 397      2987E57F 
 397      77
 398 1000 AB91B0AF 		.ascii	"\253\221\260\257\344\260|*\256\346}\361Z\016\315mue"
 398      E4B07C2A 
 398      AEE67DF1 
 398      5A0ECD6D 
 398      7565
 399 1012 92799372 		.ascii	"\222y\223rP\356g\326\254\314\325\261,\305\323\337E\336"
 399      50EE67D6 
 399      ACCCD5B1 
 399      2CC5D3DF 
 399      45DE
 400 1024 8A60678D 		.ascii	"\212`g\2157\345\016?\222\271&\226-7z\243\231/\306\233"
 400      37E50E3F 
 400      92B92696 
 400      2D377AA3 
ARM GAS  C:\Users\info\AppData\Local\Temp\ccFVof5S.s 			page 32


 400      992FC69B 
 401 1038 F3DE34D7 		.ascii	"\363\3364\327}G\310\350\377\001\256\316yX\2357\345\303"
 401      7D47C8E8 
 401      FF01AECE 
 401      79589D37 
 401      E5C3
 402 104a 73597659 		.ascii	"sYvY\344\263K)D\345\202\\vYt\311.\013r\331\205\336\211"
 402      E4B34B29 
 402      44E5825C 
 402      765974C9 
 402      2E0B72D9 
 403 1061 49904596 		.ascii	"I\220E\226]>:S\366\022aW%\234H\233\212\257\360\226d"
 403      5D3E3A53 
 403      F6126157 
 403      259C489B 
 403      8AAFF096 
 404 1076 2A3CE7C2 		.ascii	"*<\347\302)\001\265\376\377.\234\267=\334\015\372m\245"
 404      2901B5FE 
 404      FF2E9CB7 
 404      3DDC0DFA 
 404      6DA5
 405 1088 4B04DC5A 		.ascii	"K\004\334ZV=L\365\260h\241\330;rX\276z\030\221\260m"
 405      563D4CF5 
 405      B068A1D8 
 405      3B7258BE 
 405      7A1891B0 
 406 109d 72583E64 		.ascii	"rX>d\207$l\273\034\226\013\330^\011\332!\007\345B\252"
 406      87246CBB 
 406      1C960BD8 
 406      5E09DA21 
 406      07E542AA 
 407 10b1 5B8276B9 		.ascii	"[\202v\271B;\227\325f\235\022\266[\016\313\247\204+"
 407      423B97D5 
 407      669D12B6 
 407      5B0ECBA7 
 407      842B
 408 10c3 12B6470E 		.ascii	"\022\266G\016\313\327f\225\022\266W\016\353\362\317"
 408      CBD76695 
 408      12B6570E 
 408      EBF2CF
 409 10d2 0612B64F 		.ascii	"\006\022\266O\016\353r\325 a\373\345\260\274w\263%\354"
 409      0EEB72D5 
 409      2061FBE5 
 409      B0BC77B3 
 409      25EC
 410 10e4 5D392CE7 		.ascii	"]9,\347\335\217\335N\350=9(\347\335\005\011z\337\025"
 410      DD8FDD4E 
 410      E83D3928 
 410      E7DD0509 
 410      7ADF15
 411 10f7 3AB0CCBB 		.ascii	":\260\314\273\037$\354\240\034\226\367\356\273n.}\015"
 411      1F24ECA0 
 411      1C96F7EE 
 411      BB6E2E7D 
 411      0D
 412 1108 C9A179FF 		.ascii	"\311\241y\377\276\221\216\374\303rX\336\277\323\351"
 412      BE918EFC 
ARM GAS  C:\Users\info\AppData\Local\Temp\ccFVof5S.s 			page 33


 412      C37258DE 
 412      BFD3E9
 413 1117 621139AA 		.ascii	"b\0219\252\324\011#\356)f\300\335\300\301\364\325\010"
 413      D40923EE 
 413      2966C0DD 
 413      C0C1F4D5 
 413      08
 414 1128 3FACD209 		.ascii	"?\254\322\011\017\334\341c\362\031)\303%1\300\233\\"
 414      0FDCE163 
 414      F21929C3 
 414      2531C09B 
 414      5C
 415 1139 62C053F1 		.ascii	"b\300S\361SH\201\023\364HU\004\311\340\210J<\025\237"
 415      53488113 
 415      F4485504 
 415      C9E0884A 
 415      3C159F
 416 114c 80557C14 		.ascii	"\200U|\024(S\305\257\316K\335\254<\313\005\005\236\201"
 416      2853C5AF 
 416      CE4BDDAC 
 416      3CCB0505 
 416      9E81
 417 115e 024754F2 		.ascii	"\002GT\362\345\231K\342q\312\037\027\337\240\211\347"
 417      E5994BE2 
 417      71CA1F17 
 417      DFA089E7 
 418 116e 348C253F 		.ascii	"4\214%?DU\367_\242\225Y0\310C\367A\344\213\272\034\025"
 418      4455F75F 
 418      A2955930 
 418      C843F741 
 418      E48BBA1C 
 419 1183 97768F83 		.ascii	"\227v\217\203\350l\225L\332\345Q\012\016\302\245\335"
 419      E86C954C 
 419      DAE5510A 
 419      0EC2A5DD 
 420 1193 DFAFE610 		.ascii	"\337\257\346\020\200\207\277\307TnY\027K\256\341D\366"
 420      8087BFC7 
 420      546E5917 
 420      4BAEE144 
 420      F6
 421 11a4 BB3555F2 		.ascii	"\2735U\362\221\364\353X\266J*\357*\322\305\015\344$"
 421      91F4EB58 
 421      B64A2AEF 
 421      2AD2C50D 
 421      E424
 422 11b6 601ECB1A 		.ascii	"`\036\313\032\262\371\273\3548\345b\007\216:\210\243"
 422      B2F9BBEC 
 422      38E56207 
 422      8E3A88A3 
 423 11c6 52894FDC 		.ascii	"R\211O\334G\025\353\367tV&\302X|\231\310\215\221\317"
 423      4715EBF7 
 423      745626C2 
 423      587C99C8 
 423      8D91CF
 424 11d9 8F510863 		.ascii	"\217Q\010c\344\311\371*\337\305Wy\337\353\253|\346\253"
 424      E4C9F92A 
 424      DFC55779 
ARM GAS  C:\Users\info\AppData\Local\Temp\ccFVof5S.s 			page 34


 424      DFEBAB7C 
 424      E6AB
 425 11eb 02175FBD 		.ascii	"\002\027_\275R:\2345\212j\323\260y-\251\235\307\251"
 425      523A9C35 
 425      8A6AD3B0 
 425      792DA99D 
 425      C7A9
 426 11fd 7DF7F6E7 		.ascii	"}\367\366\347\024q\006\\4)!\250\025\237\212&.Z\277#"
 426      1471065C 
 426      342921A8 
 426      159F8A26 
 426      2E5ABF23 
 427 1211 9A06D2C5 		.ascii	"\232\006\322\305h:\007cO\311\257\031\367Yp\361P\261"
 427      683A0763 
 427      4FC9AF19 
 427      F75970F1 
 427      50B1
 428 1223 8B8750D9 		.ascii	"\213\207P\331i4\207\212\234v7\007k\215\273\351>Xk\320"
 428      6934878A 
 428      9C763707 
 428      6B8DBBE9 
 428      3E586BD0 
 429 1237 92FCAD38 		.ascii	"\222\374\2558\254\363\356\302\275\264\357\3019\233\224"
 429      ACF3EEC2 
 429      BDB4EFC1 
 429      399B94
 430 1246 2BEDFB12 		.ascii	"+\355\373\022YiO\367\367WRi?\311J{D4t\257\241\010Z\246"
 430      59694FF7 
 430      F7575269 
 430      3FC94A7B 
 430      443474AF 
 431 125e B448DA2C 		.ascii	"\264H\332,\260\022\200\376\230\022\337\377\030\177|"
 431      B01280FE 
 431      9812DFFF 
 431      187F7C
 432 126d A3733288 		.ascii	"\243s2\210\377\3639?\377&V\273\366\223G\304\213l6\313"
 432      FFF3393F 
 432      FF2656BB 
 432      F69347C4 
 432      8B6C36CB 
 433 1281 D86CD223 		.ascii	"\330l\322#\301\365\351\313>?<e;Uf\033\313(\375CF\036"
 433      C1F5E9CB 
 433      3E3F3C65 
 433      3B55661B 
 433      CB28FD43 
 434 1297 94EDB136 		.ascii	"\224\355\2616\333?*)P8#\3753$<\322\257\"\030F!\224\253"
 434      DB3F2A29 
 434      503823FD 
 434      33243CD2 
 434      AF221846 
 435 12ae 7E487FB2 		.ascii	"~H\177\262\212]lR\223%<N|\377?\310\253X[J\357\3354\324"
 435      8A5D6C52 
 435      93253C4E 
 435      7CFF3FC8 
 435      AB585B4A 
 436 12c6 99FE1F70 		.ascii	"\231\376\037p\0256f\305\277\277\351\3514\344\0226\336"
 436      153666C5 
ARM GAS  C:\Users\info\AppData\Local\Temp\ccFVof5S.s 			page 35


 436      BFBFE9E9 
 436      34E41236 
 436      DE
 437 12d7 3E5333FA 		.ascii	">S3\372\035\206\3240C\252\035\206T\314\336\230U\243"
 437      1D86D430 
 437      43AA1D86 
 437      54CCDE98 
 437      55A3
 438 12e9 21F6FA66 		.ascii	"!\366\372f\035\263\302\256\243(\241B\345\264\002\036"
 438      1DB3C2AE 
 438      A328A142 
 438      E5B4021E 
 439 12f9 252B6A55 		.ascii	"%+jU?T\370Em\331\366\225\376WF\353\277\030\315\341\246"
 439      3F54F845 
 439      6DD9F695 
 439      FE5746EB 
 439      BF18CDE1 
 440 130e F06DEA5F 		.ascii	"\360m\352_\375\353\357\326\377\323\346\315\012\215^"
 440      FDEBEFD6 
 440      FFD3E6CD 
 440      0A8D5E
 441 131d 1F650AB7 		.ascii	"\037e\012\267n\376\231\336\032+\004\377\303\326Hs\304"
 441      6EFE99DE 
 441      1A2B04FF 
 441      C3D64873 
 441      C4
 442 132e 36B361C7 		.ascii	"6\263a\307\372PS\230\321\262>0z\313\317\376zkpL\244"
 442      FA505398 
 442      D1B23E30 
 442      7ACBCFFE 
 442      7A6B704C 
 443 1343 D968B16C 		.ascii	"\331h\261l\215\264D\004\257\0176\033\015\326\010\363"
 443      8DB44404 
 443      AF0F361B 
 443      0DD608F3 
 444 1353 D69F6EFC 		.ascii	"\326\237n\374\312\265\301\264#2\302l\335\272-<j\253"
 444      CAB5C1B4 
 444      2332C26C 
 444      DDBA2D3C 
 444      6AAB
 445 1365 C1BC63EB 		.ascii	"\301\274c\353\337m\374\351\306\315\364\351'\341\021"
 445      DF6DFCE9 
 445      C6CDF4E9 
 445      27E111
 446 1374 E1C69F18 		.ascii	"\341\306\237\030\015A\246\255\246\360\340\260\250\020"
 446      0D41A6AD 
 446      A6F0E0B0 
 446      A810
 447 1382 E3D61D86 		.ascii	"\343\326\035\206\340\355\246p\343V}\2101\324\020\025"
 447      E0EDA670 
 447      E3567D88 
 447      31D41015 
 448 1392 66D55B63 		.ascii	"f\325[c\"\215\226\215\333\025j\207.;\377\257T\261\304"
 448      228D968D 
 448      DB156A87 
 448      2E3BFFAF 
 448      54B1C4
ARM GAS  C:\Users\info\AppData\Local\Temp\ccFVof5S.s 			page 36


 449 13a5 58B6EA2D 		.ascii	"X\266\352-\326\020\030\027\306\377\314b\014\216\010"
 449      D6101817 
 449      C6FFCC62 
 449      0C8E08
 450 13b4 0FD11BC3 		.ascii	"\017\321\033\303\203#\240i\233\336j\010\0123~f\012\017"
 450      8323A069 
 450      9BDE6A08 
 450      0A337E66 
 450      0A0F
 451 13c6 3146EBAD 		.ascii	"1F\353\255\021z\261\233\265\006\204\232\314\026\253"
 451      117AB19B 
 451      B506849A 
 451      CC16AB
 452 13d5 1B74058F 		.ascii	"\033t\005\217\320\007\207[\375\020%\361z6\023\337\340"
 452      D007875B 
 452      FD1025F1 
 452      7A3613DF 
 452      E0
 453 13e6 34E8ADBE 		.ascii	"4\350\255\276\216\247\235\206\260(\243\305\033\247c"
 453      8EA79D86 
 453      B028A3C5 
 453      1BA763
 454 13f5 8BDEEA25 		.ascii	"\213\336\352%~\007l\334\270\225\275\022l1\007\263'\320"
 454      7E076CDC 
 454      B895BD12 
 454      6C3107B3 
 454      27D0
 455 1407 D3D75588 		.ascii	"\323\327U\210&\304l\330\245\017\216\010\2130\257\012"
 455      26C46CD8 
 455      A50F8E08 
 455      8B30AF0A 
 456 1417 32597718 		.ascii	"2Yw\030\"\365V\263!\334\022i0\203z1\276\333\302b\"\267"
 456      22F556B3 
 456      21DC1269 
 456      30837A31 
 456      BEDBC262 
 457 142d EBA3F511 		.ascii	"\353\243\365\021\241\241\026\243U\255\327\243hO\374"
 457      A1A116A3 
 457      55ADD7A3 
 457      684FFC
 458 143c 5A111A11 		.ascii	"Z\021\032\021n\325\233\215\2410\035\226`#\325\331\321"
 458      6ED59B8D 
 458      A1301D96 
 458      6023D5D9 
 458      D1
 459 144d 60603C02 		.ascii	"``<\002\266\033M\333\266[\365;\"B\214\353M\026}\244"
 459      B61B4DDB 
 459      B65BF53B 
 459      22428CEB 
 459      4D167DA4 
 460 1461 611B1814 		.ascii	"a\033\030\024f\212\324\357\002\367D\354\2422\215f0\337"
 460      668AD4EF 
 460      02F744EC 
 460      A2328D66 
 460      30DF
 461 1473 6A8A08F7 		.ascii	"j\212\010\367fo\230\302C#VZ\254\006\263U\037\031a\321"
 461      666F98C2 
ARM GAS  C:\Users\info\AppData\Local\Temp\ccFVof5S.s 			page 37


 461      4323565A 
 461      AC06B355 
 461      1F1961D1 
 462 1487 8745EC32 		.ascii	"\207E\3542\232\365\006\256%*2\022Z~\241\023\307\005"
 462      9AF506AE 
 462      252A3212 
 462      5A7EA113 
 462      C705
 463 1499 996683D6 		.ascii	"\231f\203\326 ={;:\266\251\305\326_\250c\034V8\314\361"
 463      203D7B3B 
 463      3AB6A9C5 
 463      D65FA863 
 463      1C5638CC 
 464 14ae DB6188D6 		.ascii	"\333a\210\326\007o7\230E\015}\235\374.S\210u\373\012"
 464      076F3798 
 464      450D7D9D 
 464      FC2E5388 
 464      75FB0A
 465 14c1 7008680B 		.ascii	"p\010h\013\343\204\030\303\254\006}\264\237\263\201"
 465      E38418C3 
 465      AC067DB4 
 465      9FB381
 466 14d0 8162DCF8 		.ascii	"\201b\334\370\350\000W\036\205\256rmd\2225\316\266\315"
 466      E800571E 
 466      85AE726D 
 466      649235CE 
 466      B6CD
 467 14e2 D2E32675 		.ascii	"\322\343&uPP4s\2227z\035\346|%\316\271\323'z+\357\203"
 467      50503473 
 467      92377A1D 
 467      E67C25CE 
 467      B9D3277A 
 468 14f9 70130490 		.ascii	"p\023\004\220q\205;D\313\236C\214\264S\035\264\015g"
 468      71853B44 
 468      CB9E438C 
 468      B4531DB4 
 468      0D67
 469 150b 571D2A3E 		.ascii	"W\035*>\370\302\014HSl\365E\234\036\324\240Bu84\252"
 469      F8C20C48 
 469      536CF545 
 469      9C1ED4A0 
 469      42753834 
 470 1520 AE4586A9 		.ascii	"\256E\206\251,\304\010\321j\030z\233\321\252\217\321"
 470      2CC408D1 
 470      6A187A9B 
 470      D1AA8FD1 
 471 1530 B2216998 		.ascii	"\262!i\230\351\255\216\306h\215()\322j^\305\251-\266"
 471      E9AD8EC6 
 471      688D2829 
 471      D26A5EC5 
 471      A92DB6
 472 1543 5A4988C9 		.ascii	"ZI\210\311\354\277\274\331\227q\301\206\260`\375N\210"
 472      ECBFBCD9 
 472      9771C186 
 472      B060FD4E 
 472      88
 473 1554 9B3F9310 		.ascii	"\233?\223\020\3166}h8\310T\321F/\02661\233\305\357M"
ARM GAS  C:\Users\info\AppData\Local\Temp\ccFVof5S.s 			page 38


 473      CE367D68 
 473      38C854D1 
 473      462F1636 
 473      319BC5EF 
 474 1569 F81D2DF2 		.ascii	"\370\035-\362\321\233\274\242,\340I\350\307o\221\217"
 474      D19BBCA2 
 474      2CE049E8 
 474      C76F918F 
 475 1579 16F9E84D 		.ascii	"\026\371\350M\236h\230\0073\3113(*\024\260\370\265\311"
 475      9E689807 
 475      33C93328 
 475      2A14B0F8 
 475      B5C9
 476 158b 37D2146D 		.ascii	"7\322\024m\014\323\007G\231\315zs\304\256\025\310\322"
 476      0CD30747 
 476      99CD7A73 
 476      C4AE15C8 
 476      D2
 477 159c 3E7CC74F 		.ascii	">|\307Oj`o\373XMt]\212p?\306Ih\235\223\007\325\225\301"
 477      6A606FFB 
 477      584D745D 
 477      8A703FC6 
 477      49689D93 
 478 15b4 417E5191 		.ascii	"A~Q\221!\006\253\021c\037\302~\015z\320\265Q\037\034"
 478      2106AB11 
 478      631FC27E 
 478      0D7AD0B5 
 478      511F1C
 479 15c7 B4426C0A 		.ascii	"\264Bl\0121\3550\206[`=\254\345\201\316V@\342B\016\016"
 479      31ED3086 
 479      5B603DAC 
 479      E581CE56 
 479      40E2420E 
 480 15dc 8214648E 		.ascii	"\202\024d\216\012\266\252\331B\016\373\371&\014\007"
 480      0AB6AAD9 
 480      420EFBF9 
 480      260C07
 481 15eb 0707006F 		.ascii	"\007\007\000o\007\320\352\035\026\246\337\2763\014\362"
 481      07D0EA1D 
 481      16A6DFBE 
 481      330CF2
 482 15fa E76A0EE4 		.ascii	"\347j\016\344h\003\210*jK\364\026\210\210\240\210\250"
 482      6803882A 
 482      6A4BF416 
 482      8888A088 
 482      A8
 483 160b F0602348 		.ascii	"\360`#H\206A\3278\3310\003\244\243HP\223\265\377\271"
 483      8641D738 
 483      D93003A4 
 483      A3485093 
 483      B5FFB9
 484 161e B3DD918A 		.ascii	"\263\335\221\212\235]\332m\221\246\010\310\002\026h"
 484      9D5DDA6D 
 484      91A608C8 
 484      021668
 485 162d D5445943 		.ascii	"\325DYC\267`3\010\336i\002\274!$\204fb\255\351\253`"
 485      B7603308 
ARM GAS  C:\Users\info\AppData\Local\Temp\ccFVof5S.s 			page 39


 485      DE6902BC 
 485      21248466 
 485      62ADE9AB 
 486 1642 3D8B6663 		.ascii	"=\213fc\010{\026\333\003 @\305h\336I\323\002[\022jG"
 486      087B16DB 
 486      032040C5 
 486      68DE49D3 
 486      025B126A 
 487 1657 B2F40E8A 		.ascii	"\262\364\016\212\262@\362\210\010\376F\334\177\276\376"
 487      B240F288 
 487      08FE46DC 
 487      7FBEFE
 488 1666 0A62D0F1 		.ascii	"\012b\320\361\260\222\215l\2004\012K\326\020\003&i\251"
 488      B0928D6C 
 488      80340A4B 
 488      D6100326 
 488      69A9
 489 1678 49FA1D16 		.ascii	"I\372\035\026\210\376 \257\240\030+5\3233\330\020\002"
 489      88FE20AF 
 489      A0182B35 
 489      D333D810 
 489      02
 490 1689 5F9A1093 		.ascii	"_\232\020\223%\022Q^\341\306h\210\270 \035C\263\205"
 490      2512515E 
 490      E1C66888 
 490      B8201D43 
 490      B385
 491 169b 0A8CA39F 		.ascii	"\012\214\243\237.+-N?\233\372\225\241\020mT+gb\\\341"
 491      2E2B2D4E 
 491      3F9BFA95 
 491      A1106D54 
 491      2B67625C 
 492 16b0 F081A341 		.ascii	"\360\201\243A\313\346\037cA\303\236\331\233\001\273"
 492      CBE61F63 
 492      41C39ED9 
 492      9B01BB
 493 16bf CC263AE1 		.ascii	"\314&:\341Qa\026\261E\037n\361\207\2715\300\006a\215"
 493      516116B1 
 493      451F6EF1 
 493      87B935C0 
 493      06618D
 494 16d2 82E40B33 		.ascii	"\202\344\0133\014M\001\324\037NK\365\2337m\372\346\327"
 494      0C4D01D4 
 494      1F4E4BF5 
 494      9B376DFA 
 494      E6D7
 495 16e4 7F505B22 		.ascii	"\177P[\"M\314\031:\013\264a\317\366?\370S\306U\340J"
 495      4DCC193A 
 495      0BB461CF 
 495      F63FF853 
 495      C655E04A 
 496 16f8 4B889B3C 		.ascii	"K\210\233<\177X\3324/C\243~\227\001\226\372\016K\000"
 496      7F58DA34 
 496      2F43A37E 
 496      970196FA 
 496      0E4B00
 497 170b 72FC9B3B 		.ascii	"r\374\233;,ka\217\004\363a-\201\355l\343a\350p\350\240"
ARM GAS  C:\Users\info\AppData\Local\Temp\ccFVof5S.s 			page 40


 497      2C6B618F 
 497      04F3612D 
 497      81ED6CE3 
 497      61E870E8 
 498 1720 02588F31 		.ascii	"\002X\2171\234\357\360wA\207\031w\032\303V\3620\326"
 498      9CEFF077 
 498      41871977 
 498      1AC356F2 
 498      30D6
 499 1732 B296B995 		.ascii	"\262\226\271\225w\247\030\265:\364*\372\311}\277\212"
 499      77A718B5 
 499      3AF42AFA 
 499      C97DBF8A 
 500 1742 DE02FBD5 		.ascii	"\336\002\373\325\252\345\257ZqNQ\302*g\030b\274\321"
 500      AAE5AF5A 
 500      714E51C2 
 500      2A671862 
 500      BCD1
 501 1754 A9F664FD 		.ascii	"\251\366d\375V\314R\010\363\207\2402D\301>,n>F\203\331"
 501      56CC5208 
 501      F387A032 
 501      44C13E2C 
 501      6E3E4683 
 502 1769 93755BD7 		.ascii	"\223u[\327-\333%\035\273\343\306`\305j\267\342\347\227"
 502      2DDB251D 
 502      BBE3C660 
 502      C56AB7E2 
 502      E797
 503 177b 31FF4EAD 		.ascii	"1\377N\255\372/!\037G\231"
 503      FA2F211F 
 503      4799
 504              		.text
 505              		.section	.gnu.lto_.symtab.792bc3df,"",%progbits
 506 0000 75386732 		.ascii	"u8g2_GetKerning\000"
 506      5F476574 
 506      4B65726E 
 506      696E6700 
 507 0010 00       		.ascii	"\000"
 508 0011 00       		.ascii	"\000"
 509 0012 00       		.ascii	"\000"
 510 0013 00000000 		.ascii	"\000\000\000\000\000\000\000\000"
 510      00000000 
 511 001b 32020000 		.ascii	"2\002\000\000"
 512 001f 75386732 		.ascii	"u8g2_GetKerningByTable\000"
 512      5F476574 
 512      4B65726E 
 512      696E6742 
 512      79546162 
 513 0036 00       		.ascii	"\000"
 514 0037 00       		.ascii	"\000"
 515 0038 00       		.ascii	"\000"
 516 0039 00000000 		.ascii	"\000\000\000\000\000\000\000\000"
 516      00000000 
 517 0041 39020000 		.ascii	"9\002\000\000"
 518              		.text
 519              		.section	.gnu.lto_.opts,"",%progbits
 520 0000 272D666D 		.ascii	"'-fmath-errno' '-fsigned-zeros' '-ftrapping-math' '"
ARM GAS  C:\Users\info\AppData\Local\Temp\ccFVof5S.s 			page 41


 520      6174682D 
 520      6572726E 
 520      6F272027 
 520      2D667369 
 521 0033 2D666E6F 		.ascii	"-fno-trapv' '-fno-strict-overflow' '-fno-openmp' '-"
 521      2D747261 
 521      70762720 
 521      272D666E 
 521      6F2D7374 
 522 0066 666E6F2D 		.ascii	"fno-openacc' '-mcpu=cortex-m3' '-mthumb' '-g' '-Og'"
 522      6F70656E 
 522      61636327 
 522      20272D6D 
 522      6370753D 
 523 0099 20272D66 		.ascii	" '-ffunction-sections' '-ffat-lto-objects' '-flto'\000"
 523      66756E63 
 523      74696F6E 
 523      2D736563 
 523      74696F6E 
 524              		.text
 525              		.cfi_sections	.debug_frame
 526              		.section	.text.u8g2_GetKerning,"ax",%progbits
 527              		.align	2
 528              		.global	u8g2_GetKerning
 529              		.thumb
 530              		.thumb_func
 531              		.type	u8g2_GetKerning, %function
 532              	u8g2_GetKerning:
 533              	.LFB0:
 534              		.file 1 "..\\u8g2_csrc\\u8g2_kerning.c"
   1:..\u8g2_csrc/u8g2_kerning.c **** /*
   2:..\u8g2_csrc/u8g2_kerning.c **** 
   3:..\u8g2_csrc/u8g2_kerning.c ****   u8g2_kerning.c
   4:..\u8g2_csrc/u8g2_kerning.c **** 
   5:..\u8g2_csrc/u8g2_kerning.c ****   Universal 8bit Graphics Library (https://github.com/olikraus/u8g2/)
   6:..\u8g2_csrc/u8g2_kerning.c **** 
   7:..\u8g2_csrc/u8g2_kerning.c ****   Copyright (c) 2016, olikraus@gmail.com
   8:..\u8g2_csrc/u8g2_kerning.c ****   All rights reserved.
   9:..\u8g2_csrc/u8g2_kerning.c **** 
  10:..\u8g2_csrc/u8g2_kerning.c ****   Redistribution and use in source and binary forms, with or without modification, 
  11:..\u8g2_csrc/u8g2_kerning.c ****   are permitted provided that the following conditions are met:
  12:..\u8g2_csrc/u8g2_kerning.c **** 
  13:..\u8g2_csrc/u8g2_kerning.c ****   * Redistributions of source code must retain the above copyright notice, this list 
  14:..\u8g2_csrc/u8g2_kerning.c ****     of conditions and the following disclaimer.
  15:..\u8g2_csrc/u8g2_kerning.c ****     
  16:..\u8g2_csrc/u8g2_kerning.c ****   * Redistributions in binary form must reproduce the above copyright notice, this 
  17:..\u8g2_csrc/u8g2_kerning.c ****     list of conditions and the following disclaimer in the documentation and/or other 
  18:..\u8g2_csrc/u8g2_kerning.c ****     materials provided with the distribution.
  19:..\u8g2_csrc/u8g2_kerning.c **** 
  20:..\u8g2_csrc/u8g2_kerning.c ****   THIS SOFTWARE IS PROVIDED BY THE COPYRIGHT HOLDERS AND 
  21:..\u8g2_csrc/u8g2_kerning.c ****   CONTRIBUTORS "AS IS" AND ANY EXPRESS OR IMPLIED WARRANTIES, 
  22:..\u8g2_csrc/u8g2_kerning.c ****   INCLUDING, BUT NOT LIMITED TO, THE IMPLIED WARRANTIES OF 
  23:..\u8g2_csrc/u8g2_kerning.c ****   MERCHANTABILITY AND FITNESS FOR A PARTICULAR PURPOSE ARE 
  24:..\u8g2_csrc/u8g2_kerning.c ****   DISCLAIMED. IN NO EVENT SHALL THE COPYRIGHT HOLDER OR 
  25:..\u8g2_csrc/u8g2_kerning.c ****   CONTRIBUTORS BE LIABLE FOR ANY DIRECT, INDIRECT, INCIDENTAL, 
  26:..\u8g2_csrc/u8g2_kerning.c ****   SPECIAL, EXEMPLARY, OR CONSEQUENTIAL DAMAGES (INCLUDING, BUT 
  27:..\u8g2_csrc/u8g2_kerning.c ****   NOT LIMITED TO, PROCUREMENT OF SUBSTITUTE GOODS OR SERVICES; 
ARM GAS  C:\Users\info\AppData\Local\Temp\ccFVof5S.s 			page 42


  28:..\u8g2_csrc/u8g2_kerning.c ****   LOSS OF USE, DATA, OR PROFITS; OR BUSINESS INTERRUPTION) HOWEVER 
  29:..\u8g2_csrc/u8g2_kerning.c ****   CAUSED AND ON ANY THEORY OF LIABILITY, WHETHER IN CONTRACT, 
  30:..\u8g2_csrc/u8g2_kerning.c ****   STRICT LIABILITY, OR TORT (INCLUDING NEGLIGENCE OR OTHERWISE) 
  31:..\u8g2_csrc/u8g2_kerning.c ****   ARISING IN ANY WAY OUT OF THE USE OF THIS SOFTWARE, EVEN IF 
  32:..\u8g2_csrc/u8g2_kerning.c ****   ADVISED OF THE POSSIBILITY OF SUCH DAMAGE.  
  33:..\u8g2_csrc/u8g2_kerning.c **** 
  34:..\u8g2_csrc/u8g2_kerning.c **** */
  35:..\u8g2_csrc/u8g2_kerning.c **** 
  36:..\u8g2_csrc/u8g2_kerning.c **** #include "u8g2.h"
  37:..\u8g2_csrc/u8g2_kerning.c **** 
  38:..\u8g2_csrc/u8g2_kerning.c **** /* this function is used as "u8g2_get_kerning_cb" */
  39:..\u8g2_csrc/u8g2_kerning.c **** /*
  40:..\u8g2_csrc/u8g2_kerning.c **** uint8_t u8g2_GetNullKerning(u8g2_t *u8g2, uint16_t e1, uint16_t e2)
  41:..\u8g2_csrc/u8g2_kerning.c **** {
  42:..\u8g2_csrc/u8g2_kerning.c ****   return 0;
  43:..\u8g2_csrc/u8g2_kerning.c **** }
  44:..\u8g2_csrc/u8g2_kerning.c **** */
  45:..\u8g2_csrc/u8g2_kerning.c **** 
  46:..\u8g2_csrc/u8g2_kerning.c **** /* this function is used as "u8g2_get_kerning_cb" */
  47:..\u8g2_csrc/u8g2_kerning.c **** uint8_t u8g2_GetKerning(U8X8_UNUSED u8g2_t *u8g2, u8g2_kerning_t *kerning, uint16_t e1, uint16_t e2
  48:..\u8g2_csrc/u8g2_kerning.c **** {
 535              		.loc 1 48 0
 536              		.cfi_startproc
 537              		@ args = 0, pretend = 0, frame = 0
 538              		@ frame_needed = 0, uses_anonymous_args = 0
 539              		@ link register save eliminated.
 540              	.LVL0:
  49:..\u8g2_csrc/u8g2_kerning.c ****   uint16_t i1, i2, cnt, end;
  50:..\u8g2_csrc/u8g2_kerning.c ****   if ( kerning == NULL )
 541              		.loc 1 50 0
 542 0000 31B3     		cbz	r1, .L9
  48:..\u8g2_csrc/u8g2_kerning.c ****   uint16_t i1, i2, cnt, end;
 543              		.loc 1 48 0
 544 0002 30B4     		push	{r4, r5}
 545              		.cfi_def_cfa_offset 8
 546              		.cfi_offset 4, -8
 547              		.cfi_offset 5, -4
 548 0004 0C46     		mov	r4, r1
  51:..\u8g2_csrc/u8g2_kerning.c ****     return 0;
  52:..\u8g2_csrc/u8g2_kerning.c ****   
  53:..\u8g2_csrc/u8g2_kerning.c ****   /* search for the encoding in the first table */
  54:..\u8g2_csrc/u8g2_kerning.c ****   cnt = kerning->first_table_cnt;
 549              		.loc 1 54 0
 550 0006 0D88     		ldrh	r5, [r1]
 551              	.LVL1:
  55:..\u8g2_csrc/u8g2_kerning.c ****   cnt--;	/* ignore the last element of the table, which is 0x0ffff */
 552              		.loc 1 55 0
 553 0008 013D     		subs	r5, r5, #1
 554              	.LVL2:
 555 000a ADB2     		uxth	r5, r5
 556              	.LVL3:
  56:..\u8g2_csrc/u8g2_kerning.c ****   for( i1 = 0; i1 < cnt; i1++ )
 557              		.loc 1 56 0
 558 000c 0021     		movs	r1, #0
 559              	.LVL4:
 560 000e 06E0     		b	.L3
 561              	.LVL5:
ARM GAS  C:\Users\info\AppData\Local\Temp\ccFVof5S.s 			page 43


 562              	.L5:
  57:..\u8g2_csrc/u8g2_kerning.c ****   {
  58:..\u8g2_csrc/u8g2_kerning.c ****     if ( kerning->first_encoding_table[i1] == e1 )
 563              		.loc 1 58 0
 564 0010 6068     		ldr	r0, [r4, #4]
 565 0012 30F81100 		ldrh	r0, [r0, r1, lsl #1]
 566 0016 9042     		cmp	r0, r2
 567 0018 03D0     		beq	.L4
  56:..\u8g2_csrc/u8g2_kerning.c ****   for( i1 = 0; i1 < cnt; i1++ )
 568              		.loc 1 56 0 discriminator 2
 569 001a 0131     		adds	r1, r1, #1
 570              	.LVL6:
 571 001c 89B2     		uxth	r1, r1
 572              	.LVL7:
 573              	.L3:
  56:..\u8g2_csrc/u8g2_kerning.c ****   for( i1 = 0; i1 < cnt; i1++ )
 574              		.loc 1 56 0 is_stmt 0 discriminator 1
 575 001e A942     		cmp	r1, r5
 576 0020 F6D3     		bcc	.L5
 577              	.L4:
  59:..\u8g2_csrc/u8g2_kerning.c ****       break;
  60:..\u8g2_csrc/u8g2_kerning.c ****   }
  61:..\u8g2_csrc/u8g2_kerning.c ****   if ( i1 >= cnt )
 578              		.loc 1 61 0 is_stmt 1
 579 0022 A942     		cmp	r1, r5
 580 0024 16D2     		bcs	.L10
  62:..\u8g2_csrc/u8g2_kerning.c ****     return 0;	/* e1 not part of the kerning table, return 0 */
  63:..\u8g2_csrc/u8g2_kerning.c **** 
  64:..\u8g2_csrc/u8g2_kerning.c ****   /* get the upper index for i2 */
  65:..\u8g2_csrc/u8g2_kerning.c ****   end = kerning->index_to_second_table[i1+1];
 581              		.loc 1 65 0
 582 0026 A268     		ldr	r2, [r4, #8]
 583              	.LVL8:
 584 0028 481C     		adds	r0, r1, #1
 585 002a 32F81000 		ldrh	r0, [r2, r0, lsl #1]
 586              	.LVL9:
  66:..\u8g2_csrc/u8g2_kerning.c ****   for( i2 = kerning->index_to_second_table[i1]; i2 < end; i2++ )
 587              		.loc 1 66 0
 588 002e 32F81120 		ldrh	r2, [r2, r1, lsl #1]
 589              	.LVL10:
 590 0032 06E0     		b	.L6
 591              	.LVL11:
 592              	.L8:
  67:..\u8g2_csrc/u8g2_kerning.c ****   {
  68:..\u8g2_csrc/u8g2_kerning.c ****     if ( kerning->second_encoding_table[i2] == e2 )
 593              		.loc 1 68 0
 594 0034 E168     		ldr	r1, [r4, #12]
 595 0036 31F81210 		ldrh	r1, [r1, r2, lsl #1]
 596 003a 9942     		cmp	r1, r3
 597 003c 03D0     		beq	.L7
  66:..\u8g2_csrc/u8g2_kerning.c ****   for( i2 = kerning->index_to_second_table[i1]; i2 < end; i2++ )
 598              		.loc 1 66 0 discriminator 2
 599 003e 0132     		adds	r2, r2, #1
 600              	.LVL12:
 601 0040 92B2     		uxth	r2, r2
 602              	.LVL13:
 603              	.L6:
ARM GAS  C:\Users\info\AppData\Local\Temp\ccFVof5S.s 			page 44


  66:..\u8g2_csrc/u8g2_kerning.c ****   for( i2 = kerning->index_to_second_table[i1]; i2 < end; i2++ )
 604              		.loc 1 66 0 is_stmt 0 discriminator 1
 605 0042 8242     		cmp	r2, r0
 606 0044 F6D3     		bcc	.L8
 607              	.L7:
  69:..\u8g2_csrc/u8g2_kerning.c ****       break;
  70:..\u8g2_csrc/u8g2_kerning.c ****   }
  71:..\u8g2_csrc/u8g2_kerning.c ****   
  72:..\u8g2_csrc/u8g2_kerning.c ****   if ( i2 >= end )
 608              		.loc 1 72 0 is_stmt 1
 609 0046 8242     		cmp	r2, r0
 610 0048 06D2     		bcs	.L11
  73:..\u8g2_csrc/u8g2_kerning.c ****     return 0;	/* e2 not part of any pair with e1, return 0 */
  74:..\u8g2_csrc/u8g2_kerning.c ****   
  75:..\u8g2_csrc/u8g2_kerning.c ****   return kerning->kerning_values[i2];
 611              		.loc 1 75 0
 612 004a 2369     		ldr	r3, [r4, #16]
 613              	.LVL14:
 614 004c 985C     		ldrb	r0, [r3, r2]	@ zero_extendqisi2
 615              	.LVL15:
 616 004e 04E0     		b	.L2
 617              	.LVL16:
 618              	.L9:
 619              		.cfi_def_cfa_offset 0
 620              		.cfi_restore 4
 621              		.cfi_restore 5
  51:..\u8g2_csrc/u8g2_kerning.c ****   
 622              		.loc 1 51 0
 623 0050 0020     		movs	r0, #0
 624              	.LVL17:
  76:..\u8g2_csrc/u8g2_kerning.c **** }
 625              		.loc 1 76 0
 626 0052 7047     		bx	lr
 627              	.LVL18:
 628              	.L10:
 629              		.cfi_def_cfa_offset 8
 630              		.cfi_offset 4, -8
 631              		.cfi_offset 5, -4
  62:..\u8g2_csrc/u8g2_kerning.c **** 
 632              		.loc 1 62 0
 633 0054 0020     		movs	r0, #0
 634 0056 00E0     		b	.L2
 635              	.LVL19:
 636              	.L11:
  73:..\u8g2_csrc/u8g2_kerning.c ****   
 637              		.loc 1 73 0
 638 0058 0020     		movs	r0, #0
 639              	.LVL20:
 640              	.L2:
 641              		.loc 1 76 0
 642 005a 30BC     		pop	{r4, r5}
 643              		.cfi_restore 5
 644              		.cfi_restore 4
 645              		.cfi_def_cfa_offset 0
 646              	.LVL21:
 647 005c 7047     		bx	lr
 648              		.cfi_endproc
ARM GAS  C:\Users\info\AppData\Local\Temp\ccFVof5S.s 			page 45


 649              	.LFE0:
 650              		.size	u8g2_GetKerning, .-u8g2_GetKerning
 651 005e 00BF     		.section	.text.u8g2_GetKerningByTable,"ax",%progbits
 652              		.align	2
 653              		.global	u8g2_GetKerningByTable
 654              		.thumb
 655              		.thumb_func
 656              		.type	u8g2_GetKerningByTable, %function
 657              	u8g2_GetKerningByTable:
 658              	.LFB1:
  77:..\u8g2_csrc/u8g2_kerning.c **** 
  78:..\u8g2_csrc/u8g2_kerning.c **** uint8_t u8g2_GetKerningByTable(U8X8_UNUSED u8g2_t *u8g2, const uint16_t *kt, uint16_t e1, uint16_t 
  79:..\u8g2_csrc/u8g2_kerning.c **** {
 659              		.loc 1 79 0
 660              		.cfi_startproc
 661              		@ args = 0, pretend = 0, frame = 0
 662              		@ frame_needed = 0, uses_anonymous_args = 0
 663              		@ link register save eliminated.
 664              	.LVL22:
  80:..\u8g2_csrc/u8g2_kerning.c ****   uint16_t i;
  81:..\u8g2_csrc/u8g2_kerning.c ****   i = 0;
  82:..\u8g2_csrc/u8g2_kerning.c ****   if ( kt == NULL )
 665              		.loc 1 82 0
 666 0000 B9B1     		cbz	r1, .L17
  79:..\u8g2_csrc/u8g2_kerning.c ****   uint16_t i;
 667              		.loc 1 79 0
 668 0002 70B4     		push	{r4, r5, r6}
 669              		.cfi_def_cfa_offset 12
 670              		.cfi_offset 4, -12
 671              		.cfi_offset 5, -8
 672              		.cfi_offset 6, -4
 673 0004 0D46     		mov	r5, r1
 674 0006 0021     		movs	r1, #0
 675              	.LVL23:
 676              	.L16:
  83:..\u8g2_csrc/u8g2_kerning.c ****     return 0;
  84:..\u8g2_csrc/u8g2_kerning.c ****   for(;;)
  85:..\u8g2_csrc/u8g2_kerning.c ****   {
  86:..\u8g2_csrc/u8g2_kerning.c ****     if ( kt[i] == 0x0ffff )
 677              		.loc 1 86 0
 678 0008 0E46     		mov	r6, r1
 679 000a 35F81100 		ldrh	r0, [r5, r1, lsl #1]
 680 000e 4FF6FF74 		movw	r4, #65535
 681 0012 A042     		cmp	r0, r4
 682 0014 0FD0     		beq	.L18
  87:..\u8g2_csrc/u8g2_kerning.c ****       break;
  88:..\u8g2_csrc/u8g2_kerning.c ****     if ( kt[i] == e1 && kt[i+1] == e2 )
 683              		.loc 1 88 0
 684 0016 9042     		cmp	r0, r2
 685 0018 08D1     		bne	.L15
 686              		.loc 1 88 0 is_stmt 0 discriminator 1
 687 001a 481C     		adds	r0, r1, #1
 688 001c 35F81000 		ldrh	r0, [r5, r0, lsl #1]
 689 0020 9842     		cmp	r0, r3
 690 0022 03D1     		bne	.L15
  89:..\u8g2_csrc/u8g2_kerning.c ****       return kt[i+2];
 691              		.loc 1 89 0 is_stmt 1
ARM GAS  C:\Users\info\AppData\Local\Temp\ccFVof5S.s 			page 46


 692 0024 0236     		adds	r6, r6, #2
 693 0026 15F81600 		ldrb	r0, [r5, r6, lsl #1]	@ zero_extendqisi2
 694 002a 05E0     		b	.L14
 695              	.L15:
  90:..\u8g2_csrc/u8g2_kerning.c ****     i+=3;
 696              		.loc 1 90 0
 697 002c 0331     		adds	r1, r1, #3
 698              	.LVL24:
 699 002e 89B2     		uxth	r1, r1
 700              	.LVL25:
  91:..\u8g2_csrc/u8g2_kerning.c ****   }
 701              		.loc 1 91 0
 702 0030 EAE7     		b	.L16
 703              	.LVL26:
 704              	.L17:
 705              		.cfi_def_cfa_offset 0
 706              		.cfi_restore 4
 707              		.cfi_restore 5
 708              		.cfi_restore 6
  83:..\u8g2_csrc/u8g2_kerning.c ****   for(;;)
 709              		.loc 1 83 0
 710 0032 0020     		movs	r0, #0
 711              	.LVL27:
  92:..\u8g2_csrc/u8g2_kerning.c ****   return 0;
  93:..\u8g2_csrc/u8g2_kerning.c **** }
 712              		.loc 1 93 0
 713 0034 7047     		bx	lr
 714              	.LVL28:
 715              	.L18:
 716              		.cfi_def_cfa_offset 12
 717              		.cfi_offset 4, -12
 718              		.cfi_offset 5, -8
 719              		.cfi_offset 6, -4
  92:..\u8g2_csrc/u8g2_kerning.c ****   return 0;
 720              		.loc 1 92 0
 721 0036 0020     		movs	r0, #0
 722              	.L14:
 723              		.loc 1 93 0
 724 0038 70BC     		pop	{r4, r5, r6}
 725              		.cfi_restore 6
 726              		.cfi_restore 5
 727              		.cfi_restore 4
 728              		.cfi_def_cfa_offset 0
 729              	.LVL29:
 730 003a 7047     		bx	lr
 731              		.cfi_endproc
 732              	.LFE1:
 733              		.size	u8g2_GetKerningByTable, .-u8g2_GetKerningByTable
 734              		.text
 735              	.Letext0:
 736              		.file 2 "c:\\program files (x86)\\cypress\\psoc creator\\4.2\\psoc creator\\import\\gnu\\arm\\5.4.
 737              		.file 3 "c:\\program files (x86)\\cypress\\psoc creator\\4.2\\psoc creator\\import\\gnu\\arm\\5.4.
 738              		.file 4 "..\\u8g2_csrc\\u8x8.h"
 739              		.file 5 "..\\u8g2_csrc\\u8g2.h"