ARM GAS  C:\Users\info\AppData\Local\Temp\ccH0EqLZ.s 			page 1


   1              		.syntax unified
   2              		.cpu cortex-m3
   3              		.fpu softvfp
   4              		.eabi_attribute 20, 1
   5              		.eabi_attribute 21, 1
   6              		.eabi_attribute 23, 3
   7              		.eabi_attribute 24, 1
   8              		.eabi_attribute 25, 1
   9              		.eabi_attribute 26, 1
  10              		.eabi_attribute 30, 1
  11              		.eabi_attribute 34, 1
  12              		.eabi_attribute 18, 4
  13              		.thumb
  14              		.syntax unified
  15              		.file	"u8g2_line.c"
  16              		.text
  17              	.Ltext0:
  18              		.section	.gnu.lto_.profile.792bc0d5,"",%progbits
  19 0000 789C6361 		.ascii	"x\234ca`d`a`\000\222\026\252\000\000\377\000h"
  19      60646061 
  19      60009216 
  19      AA0000FF 
  19      0068
  20              		.text
  21              		.section	.gnu.lto_.inline.792bc0d5,"",%progbits
  22 0000 789C6361 		.ascii	"x\234ca`d\000\001]\006\004\000\212\250\277edd`\262\230"
  22      60640001 
  22      5D060400 
  22      8AA8BF65 
  22      646460B2 
  23 0015 71998781 		.ascii	"q\231\207\201m\201<\023H\224\205\227\221\201y\027\377"
  23      6D813C13 
  23      48948597 
  23      91817917 
  23      FF
  24 0026 04BF097E 		.ascii	"\004\277\011~HL\006\000\300\001\010\366"
  24      484C0600 
  24      C00108F6 
  25              		.text
  26              		.section	.gnu.lto_.jmpfuncs.792bc0d5,"",%progbits
  27 0000 789C6361 		.ascii	"x\234ca`d\000\001v\006\004\200\2100\000\000\001,\000"
  27      60640001 
  27      76060480 
  27      88300000 
  27      012C00
  28 0013 0E       		.ascii	"\016"
  29              		.text
  30              		.section	.gnu.lto_.pureconst.792bc0d5,"",%progbits
  31 0000 789C6361 		.ascii	"x\234ca`d`f`\000\222\026\000\000\220\000B"
  31      60646066 
  31      60009216 
  31      00009000 
  31      42
  32              		.text
  33              		.section	.gnu.lto_u8g2_DrawLine.792bc0d5,"",%progbits
  34 0000 789C7D56 		.ascii	"x\234}V\177lTU\026\276\347\3367\357\275\371=\355Lg\006"
  34      7F6C5455 
ARM GAS  C:\Users\info\AppData\Local\Temp\ccH0EqLZ.s 			page 2


  34      16BEE7DE 
  34      37EFBDF9 
  34      3DED4C67 
  35 0015 18B00D62 		.ascii	"\030\260\015bi\241Dpw\203\373\307\306M6f\223\375\217"
  35      69A14470 
  35      7783FBC7 
  35      C64D3666 
  35      93FD8F
  36 0028 C4FF24C6 		.ascii	"\304\377$\306\0001&j\0200\333\306?\372\350\353\264D"
  36      0031266A 
  36      1030DBC6 
  36      3FFAE8EB 
  36      B444
  37 003a AB22BB0A 		.ascii	"\253\"\273\012\255\206\340\022#\270\3052\324RJ[; \016"
  37      AD86E012 
  37      23B8C532 
  37      D4524A5B 
  37      3B200E
  38 004d A805624C 		.ascii	"\250\005bL\360W6(*\032\004\002\243h\324b=\347\3347\235"
  38      F0573628 
  38      2A1A0402 
  38      A368D462 
  38      3DE7DC37 
  39 0062 0734FB92 		.ascii	"\0074\373\222w{\357w\317w\317w\277{\336\355\030\002"
  39      777BEF77 
  39      CF77CF77 
  39      BF7BDEED 
  39      1802
  40 0074 043DAB22 		.ascii	"\004=\253\"B\374\003\377\266\340\020\346\010\220[O\011"
  40      42FC03FF 
  40      B6E010E6 
  40      08905B4F 
  40      09
  41 0085 B1D99652 		.ascii	"\261\331\226Rmi\024N\310\2406\242 \240a\243\322\011"
  41      6D69144E 
  41      C8A036A2 
  41      20A061A3 
  41      D209
  42 0097 4893E72D 		.ascii	"H\223\347-\2367\301\326\260U\351\3302\310\363!\236\017"
  42      9E37C1D6 
  42      B055E9D8 
  42      32C8F321 
  42      9E0F
  43 00a9 4248C321 		.ascii	"BH\303!\031f8\302p\030\"\032\216\310\030\303Q\206\243"
  43      196638C2 
  43      7018221A 
  43      8EC818C3 
  43      5186A3
  44 00bc 10D3704C 		.ascii	"\020\323pL\306\257\324!\234\330\265\022\3418$4\234\200"
  44      C6AFD421 
  44      9CD8B512 
  44      E1382434 
  44      9C80
  45 00ce 8CEED4C8 		.ascii	"\214\356\324\310Z\246%\231V\013)\015'+\235\224\254\353"
  45      5AA62599 
  45      560B290D 
  45      272B9D94 
ARM GAS  C:\Users\info\AppData\Local\Temp\ccH0EqLZ.s 			page 3


  45      ACEB
  46 00e0 217EBAF3 		.ascii	"!~\272\363n\234\257\203\264\206\323\232\177\304\316"
  46      6E9CAF83 
  46      B486D39A 
  46      7FC4CE
  47 00ef C89A9EE3 		.ascii	"\310\232\236\343\002\003\262\235\026\006d\001\010wl"
  47      0203B29D 
  47      16066401 
  47      08776C
  48 00fe 10ED5219 		.ascii	"\020\355R\031\001\323\262\203\241p$\032\213'jj\223\251"
  48      01D3B283 
  48      A170241A 
  48      8B276A6A 
  48      93A9
  49 0110 BA74260B 		.ascii	"\272t&\013\3552#\364sM^\227p\264\373\374\210lz\315\301"
  49      ED3223F4 
  49      734D5E97 
  49      70B4FBFC 
  49      886C7ACD 
  50 0125 E7F3AFFF 		.ascii	"\347\363\257\377\245\234=E\310+!\246\245\216\201\327"
  50      A59C3D45 
  50      C82B21A6 
  50      A58E81D7 
  51 0135 A009A33E 		.ascii	"\240\011\243>\350\334\377\262\372A\346\025\200\201\303"
  51      E8DCFFB2 
  51      FA41E615 
  51      8081C3
  52 0144 AB27FBBE 		.ascii	"\253'\373\276\214\321PB=\0167\227\276\331\034W9\020"
  52      8CD15042 
  52      3D0E3797 
  52      BED91C57 
  52      3910
  53 0156 D81F2A0D 		.ascii	"\330\037*\015\355\2145\276\3528\035\216\363\363Z'\230"
  53      ED8C35BE 
  53      EA381D8E 
  53      F3F35A27 
  53      98
  54 0167 570A5E07 		.ascii	"W\012^\007\205\353\301^\310\301\036\310\011\204\004"
  54      85EBC15E 
  54      C8C11EC8 
  54      098404
  55 0176 FC171A31 		.ascii	"\374\027\0321\372l\337\363'C\252A3\007{\257(\2179\276"
  55      FA6CDFF3 
  55      2743AA41 
  55      33077BAF 
  55      288F39BE 
  56 018a DA517965 		.ascii	"\332Qye@\277f\336\225\203;\211g\010\330\307\274\023"
  56      40BF66DE 
  56      95833B89 
  56      6708D8C7 
  56      BC13
  57 019c 5B2F3DA9 		.ascii	"[/=\251ng\332\257\337\017\277\016\036\355\272G{\343"
  57      6E67DAAF 
  57      DF0FBF0E 
  57      1EEDBA47 
  57      7BE3
  58 01ae 16DA00D3 		.ascii	"\026\332\000\323\306\267\357\\\245\032\231v\3209\364"
ARM GAS  C:\Users\info\AppData\Local\Temp\ccH0EqLZ.s 			page 4


  58      C6B7EF5C 
  58      A51A9976 
  58      D039F4
  59 01bd 6C45E778 		.ascii	"lE\347x)\354\334I\274\375\267\360\012\314;p\370\354"
  59      29ECDC49 
  59      BCFDB7F0 
  59      0ACC3B70 
  59      F8EC
  60 01cf 7361D5CC 		.ascii	"sa\325\314\304\003/]j\255\244\253\360\016\334\302\033"
  60      C4032F5D 
  60      6AADA4AB 
  60      F00EDCC2 
  60      1B
  61 01e0 84460A7E 		.ascii	"\204F\012~\367\343_~\224\252\205\211\257t_\270l/\332"
  61      F7E35F7E 
  61      94AA8589 
  61      AF745FB8 
  61      6C2FDA
  62 01f3 4DCCE2C4 		.ascii	"M\314\342\304\243\333\235\342\346\372\274\012\300\233"
  62      A3DB9DE2 
  62      E6FABC0A 
  62      C09B
  63 0201 7E2E3D18 		.ascii	"~.=\030\272s\274\377\231\270\372\003\323.\017\016\374"
  63      BA73BCFF 
  63      99B8FA03 
  63      D32E0F0E 
  63      FC
  64 0212 2F4834C7 		.ascii	"/H4\307)\216\266y4\023\016\316B+\355:\376\236\245\376"
  64      298EB679 
  64      34130ECE 
  64      422BED3A 
  64      FE9EA5FE 
  65 0226 CCB41DE5 		.ascii	"\314\264\035\345\177o\013{\264C\253\035\367\036\"\035"
  65      7F6F0B7B 
  65      B443AB1D 
  65      F71E221D 
  66 0236 9A8574EE 		.ascii	"\232\205t\356\354\256\016K\375\205I\373>x\372?\246'"
  66      ECAE0E4B 
  66      FD8549FB 
  66      3E78FA3F 
  66      A627
  67 0248 71781F78 		.ascii	"qx\037x\311\0148<\013\357\353\335\327\322\352\257L\333"
  67      C90C383C 
  67      0BEFEBDD 
  67      D7D2EAAF 
  67      4CDB
  68 025a DF7D625B 		.ascii	"\337}b[L\323\234\211\3739\227\001c\263p\306\236z\177"
  68      4CD39C89 
  68      FB399701 
  68      63B370C6 
  68      9E7A7F
  69 026d CA567F63 		.ascii	"\312V\177c\322\263\357lMz\251\206^\255\246zk\026Z\337"
  69      D2B3EF6C 
  69      4D7AA986 
  69      5EADA67A 
  69      6B165ADF 
  70 0281 E1EE8E90 		.ascii	"\341\356\216\220\272\227i\356\241\217F\3437\347*\316"
ARM GAS  C:\Users\info\AppData\Local\Temp\ccH0EqLZ.s 			page 5


  70      BA9769EE 
  70      A18F46E3 
  70      37E72ACE 
  71 0291 42BAF0E9 		.ascii	"B\272\360\351g\007\303\352\357L\352?\261\355!/\327\201"
  71      6707C3EA 
  71      EF4CEA3F 
  71      B1ED212F 
  71      D781
  72 02a3 D51EE7E8 		.ascii	"\325\036\347\350l^\024~{!jv\222i\365\3606,\202#\370"
  72      6C5E147E 
  72      7B216A76 
  72      9269F5F0 
  72      362C8223 
  73 02b8 4EE03B8E 		.ascii	"N\340;\216\357(\276#\370\016\343;\004\213\364'\002\307"
  73      EF28BE23 
  73      F80EE33B 
  73      048BF427 
  73      02C7
  74 02ca C0C47BC7 		.ascii	"\300\304{\307\270yv`U\321\231\236v\235b!p)\272\014\270"
  74      B8797660 
  74      55D1999E 
  74      769D6221 
  74      7029BA0C 
  75 02df 6E25B78A 		.ascii	"n%\267\212\213Q\227d\200\013\314\344\326\342\326\346"
  75      8B519764 
  75      800BCCE4 
  75      D6E2D6E6 
  76 02ef D209721B 		.ascii	"\322\011r\033\342\3700GF\270\215\012\312\023\3436\316"
  76      E2F83047 
  76      46B88D0A 
  76      CA13E336 
  76      CE
  77 0300 6D82DB1A 		.ascii	"m\202\333\032A\271k\271M\012\322\220\022\244\"\003\264"
  77      41B96BB9 
  77      4D0AD290 
  77      12A42203 
  77      B4
  78 0311 02DE0AB8 		.ascii	"\002\336\012\270\362\034\216\234\313\355<\240\325r@"
  78      F21C8E9C 
  78      CBED3CA0 
  78      D57240
  79 0320 59E633B2 		.ascii	"Y\3463\262\200\333\333\260x\255z^\246\201\345,\004\372"
  79      80DBDBB0 
  79      78AD7A5E 
  79      A681E52C 
  79      04FA
  80 0332 50EF40D8 		.ascii	"P\357@\330n\244f1\3175QX3+ZB\350RF[X\256\020W\320\027"
  80      6EA46631 
  80      CF355158 
  80      332B5A42 
  80      E852465B 
  81 034c BC8DAE4A 		.ascii	"\274\215\256J\211\177\3249\350\300jg\233P\020z\374b"
  81      897FD439 
  81      E8C06A67 
  81      9B50107A 
  81      FC62
  82 035e FEE8698B 		.ascii	"\376\350i\213\356\216\000\272\362\016^\007_@\347\307"
ARM GAS  C:\Users\info\AppData\Local\Temp\ccH0EqLZ.s 			page 6


  82      EE8E00BA 
  82      F20E5E07 
  82      5F40E7C7 
  83 036e EEC05D14 		.ascii	"\356\300]\024\342\252\214\253\262|\032W\245\022G\225"
  83      E2AA8CAB 
  83      B27C1A57 
  83      A5124795 
  84 037e 3A0FEE8E 		.ascii	":\017\356\216\256\213RO\316\361\346\317\001\003t*\010"
  84      AE8B524F 
  84      CEF1E6CF 
  84      0103742A 
  84      08
  85 038f 72B03113 		.ascii	"r\2601\023\374\203\241\203\347b$\306\337\030<\227\203"
  85      FC83A183 
  85      E76224C6 
  85      DF183C97 
  85      83
  86 03a0 039E3034 		.ascii	"\003\23604\217\321\250\3260\350i\230\347*\256\2102D"
  86      8FD1A8D6 
  86      30E86998 
  86      E72AAE88 
  86      3244
  87 03b2 717935B6 		.ascii	"qy5\266/\214D\343\333 2\315\2314\347\317\004t\364|\217"
  87      2F8C44E3 
  87      DB2032CD 
  87      9934E7CF 
  87      0474F47C 
  88 03c7 50C9334A 		.ascii	"P\3113J+\316\347<\326-\242\026`$\306\337\030\274\200"
  88      2BCEE73C 
  88      D62DA216 
  88      6024C6DF 
  88      18BC80
  89 03da 83EDAA28 		.ascii	"\203\355\252(F\343$\352\224;\352\211\212\022\302\242"
  89      46E324EA 
  89      943BEA89 
  89      8A12C2A2 
  90 03ea E2B8BC39 		.ascii	"\342\270\2749I\242\026X,*Hi\310\347\253\217\373|\036"
  90      49A21658 
  90      2C2A4869 
  90      C8E7AB8F 
  90      FB7C1E
  91 03fd EA9E2C84 		.ascii	"\352\236,\204\264\317\000% \201\035\305\357\327q\304"
  91      B4CF0025 
  91      20811DC5 
  91      EFD771C4 
  92 040d DB7AD788 		.ascii	"\333z\327\2108\367U\315\2113\360DU\030G\024\257\371"
  92      38F755CD 
  92      8933F044 
  92      55184714 
  92      AFF9
  93 041f 38191F07 		.ascii	"8\031\037\007\017[o\245\302\031 \200#\212?\3718Y\037"
  93      0F5B6FA5 
  93      C2192080 
  93      238A3FF9 
  93      38591F
  94 0432 A7402139 		.ascii	"\247@!9\037g\220\200,\033\020\252\0320D\274\224\360"
  94      1F679080 
ARM GAS  C:\Users\info\AppData\Local\Temp\ccH0EqLZ.s 			page 7


  94      2C1B10AA 
  94      1A3044BC 
  94      94F0
  95 0444 B99110BE 		.ascii	"\271\221\020\276\363\212y\003&\333\336\200\227\016x"
  95      F38A7903 
  95      26DBDE80 
  95      970E78
  96 0453 0396A2BC 		.ascii	"\003\226\242\274\001\013\005}\306?yv\002\305\262\235"
  96      010B057D 
  96      C63F7976 
  96      02C5B29D 
  97 0463 D8CBD8D8 		.ascii	"\330\313\330\330\314\013\366\237\016\225Aa\217\206\231"
  97      CC0BF69F 
  97      0E954161 
  97      8F8699
  98 0472 E01EAB0C 		.ascii	"\340\036\253\014\001\024G\243\\p\214&m\354\3210\313"
  98      011447A3 
  98      5C708C26 
  98      6DECD130 
  98      CB
  99 0483 93317488 		.ascii	"\2231t\210F\361\340\3134\231\300\036\015\243<\231\242"
  99      46F1E0CB 
  99      3499C01E 
  99      0DA33C99 
  99      A2
 100 0494 DAB6A7BE 		.ascii	"\332\266\247\2763\311\373`\317s\364A\204+\0075\355\263"
 100      33C9FB60 
 100      CF73F441 
 100      842B0735 
 100      EDB3
 101 04a6 076EB634 		.ascii	"\007n\2664\340\263\247\240\245\023\347\371R\244JR>\322"
 101      E0B3A7A0 
 101      A513E7F9 
 101      52A44A52 
 101      3ED2
 102 04b8 C08C0B7E 		.ascii	"\300\214\013~O\025{\032\251z\312h\320o\226\3517\313"
 102      4F157B1A 
 102      A97ACA68 
 102      D06F96E9 
 102      37CB
 103 04ca F09B2505 		.ascii	"\360\233%\005Vm\271\353\314\216\230v\3536\364\034\226"
 103      566DB9EB 
 103      CC8E9876 
 103      EB36F41C 
 103      96
 104 04db E410ED28 		.ascii	"\344\020\355([\032\252Gt\246\214GHS\275.\330\201\036"
 104      5B1AAA47 
 104      74A68C47 
 104      4853BD2E 
 104      D8811E
 105 04ee 53471894 		.ascii	"SG\030\224\216-\226\270\207\0209\036\236\"\243pB\321"
 105      8E2D96B8 
 105      8710391E 
 105      9E22A370 
 105      42D1
 106 0500 D00E772E 		.ascii	"\320\016w./Sd\200F\200\223\2612\004\021\247\241\302"
 106      2F536480 
ARM GAS  C:\Users\info\AppData\Local\Temp\ccH0EqLZ.s 			page 8


 106      468093B1 
 106      320411A7 
 106      A1C2
 107 0512 49DC40B4 		.ascii	"I\334@\264b\331\366\256\245\234j\230\213{z\357\345\303"
 107      62D9F6AE 
 107      A59C6A98 
 107      8B7B7AEF 
 107      E5C3
 108 0524 2615B709 		.ascii	"&\025\267\011\355p\034r\274\331Xu\263\303$(\311\276"
 108      ED701C72 
 108      BCD95875 
 108      B3C32428 
 108      C9BE
 109 0536 F596B4C6 		.ascii	"\365\226\264\306\011\202\014\322\370\251;Q\321h\342"
 109      09820CD2 
 109      F8A93B51 
 109      D168E2
 110 0545 5A03F9AF 		.ascii	"Z\003\371\257\366\332\264\226\005\323\000'\300\373\366"
 110      F6DAB496 
 110      05D30027 
 110      C0FBF6
 111 0554 93FE6FC8 		.ascii	"\223\376o\310\304o\350]\310E\306\012\237\003\345\213"
 111      C46FE85D 
 111      C845C60A 
 111      9F03E58B 
 112 0564 6E0963C2 		.ascii	"n\011c\302\270\230\002\372\276_\354*\365zN5\3505?t\217"
 112      B89802FA 
 112      BE5FEC2A 
 112      F57A4E35 
 112      E8353F74 
 113 0579 9DE6DF4B 		.ascii	"\235\346\337K\006\255\371\036T\257\007v\276\201\365"
 113      06ADF91E 
 113      54AF0776 
 113      BE81F5
 114 0588 26AA7A19 		.ascii	"&\252z\031\265X\357xW\224\003\217\220^IJ,\\3\206\226"
 114      B558EF78 
 114      5794038F 
 114      905E494A 
 114      2C5C3386 
 115 059d 34C47B06 		.ascii	"4\304{\006s\310\253\021\370\233O\361Fv?\223\325yS\264"
 115      73C8AB11 
 115      F89B4FF1 
 115      46763F93 
 115      D57953B4 
 116 05b1 918B233F 		.ascii	"\221\213#?G\365F\004\274\257\367\201\341\265\242\264"
 116      47F54604 
 116      BCAFF781 
 116      E1B5A2B4 
 117 05c1 507D0B5D 		.ascii	"P}\013]\305\017K\212\202\351\037\335\310\310\305\317"
 117      C50F4B8A 
 117      82E91FDD 
 117      C8C8C5CF 
 118 05d1 ACF6EBCE 		.ascii	"\254\366\353\316\026\307I\344UpZ\322o\347Ih\027\256"
 118      16C749E4 
 118      55705AD2 
 118      6FE74968 
 118      17AE
ARM GAS  C:\Users\info\AppData\Local\Temp\ccH0EqLZ.s 			page 9


 119 05e3 5AE8AA90 		.ascii	"Z\350\252\220\253\"y\025bv\262\302>c\376_\362\311\012"
 119      AB227915 
 119      6276B2C2 
 119      3E63FE5F 
 119      F2C90A
 120 05f6 3982FC0A 		.ascii	"9\202\374\0129\305J\251j\272\317\367\255\320J\357pU"
 120      39C54AA9 
 120      6ABACFF7 
 120      ADD04AEF 
 120      7055
 121 0608 2D95D70E 		.ascii	"-\225\327\016\357\010\032\031J\370kk1\2427\326\326b"
 121      EF081A19 
 121      4AF86B6B 
 121      31A237D6 
 121      D662
 122 061a 5D5BC395 		.ascii	"][\303\225\355.\366o7\214\333=5\263\335:\321\233\324"
 122      ED2EF66F 
 122      378CDB3D 
 122      35B3DD3A 
 122      D19BD4
 123 062d 297FEB5B 		.ascii	")\177\353[\251\243\233\250\026\370\234&A#\315\254\263"
 123      A9A39BA8 
 123      16F89C26 
 123      4123CDAC 
 123      B3
 124 063e 69260917 		.ascii	"i&\011\027G\263\216)\275\364'\035\264\004\253\236\224"
 124      47B38E29 
 124      BDF4271D 
 124      B404AB9E 
 124      94
 125 064f F8942D45 		.ascii	"\370\224-E\364FeK9i\2327\252\317\222\341\032\357s\342"
 125      F446654B 
 125      39699A37 
 125      AACF92E1 
 125      1AEF73E2 
 126 0663 85C37AE1 		.ascii	"\205\303z\341\037{7\351UZ\320\"\177u\031X]\247}5\302"
 126      1F7B37E9 
 126      555AD022 
 126      7F751958 
 126      5DA77D35 
 127 0678 47DF4247 		.ascii	"G\337BG\217\227|$\205G\337\\75\264\266\0145\270\363"
 127      8F977C24 
 127      8547DF5C 
 127      3735B4B6 
 127      0C35B8F3 
 128 068c D4B13F62 		.ascii	"\324\261?b\326\272\236\341G0oF\340\357}\177\336Z\177"
 128      D6BA9EE1 
 128      47306F46 
 128      E0EF7D7F 
 128      DE5A7F
 129 069f DE8837E0 		.ascii	"\336\2107\340\365Bd\341'\356\257=J\213\260\\>$L\202"
 129      F54264E1 
 129      27EEAF3D 
 129      4A8BB05C 
 129      3E244C82 
 130 06b3 C72D137B 		.ascii	"\307-\023{\360\342kI\323\315\205\306\030\211\311B\012"
 130      F0E26B49 
ARM GAS  C:\Users\info\AppData\Local\Temp\ccH0EqLZ.s 			page 10


 130      D3CD85C6 
 130      1889C942 
 130      0A
 131 06c4 75A7A10C 		.ascii	"u\247\241\014\265\370e'\372\013\370o\253&\015\2302K"
 131      B5F86527 
 131      FA0BF86F 
 131      AB260D98 
 131      324B
 132 06d6 557B81EE 		.ascii	"U{\201\356\370{\271 \350\271\202%\320ia\261\316Y\266"
 132      F87BB920 
 132      E8B98225 
 132      D06961B1 
 132      CE59B6
 133 06e9 ECFE2756 		.ascii	"\354\376'V>\264\342\2015\0337\254\321\275G\036~l\335"
 133      3EB4E281 
 133      351B37AC 
 133      D1BD471E 
 133      7E6CDD
 134 06fc B235C2A0 		.ascii	"\2625\302\240\201l].\333\226\313\326\025\262m\205\271"
 134      816C5D2E 
 134      DB96CBD6 
 134      15B26D85 
 134      B9
 135 070d F19F0FAE 		.ascii	"\361\237\017\256om\013\264m\334\264n\275Z\267a\203\\"
 135      6F6D0BB4 
 135      6DDCB46E 
 135      BD5AB761 
 135      835C
 136 071f DB26D7B6 		.ascii	"\333&\327\266B\033\264\252M\217\256\377\035n\013\265"
 136      421BB4AA 
 136      4D8FAEFF 
 136      1D6E0BB5 
 137 072f F2       		.ascii	"\362"
 138              		.text
 139              		.section	.gnu.lto_.symbol_nodes.792bc0d5,"",%progbits
 140 0000 789C6361 		.ascii	"x\234ca`d0e\000\002&\206z\006\206\011\347\030@\324\252"
 140      60643065 
 140      00022686 
 140      7A068609 
 140      E71840D4 
 141 0015 06450606 		.ascii	"\006E\006\006F\306zF\260\000\003CC\203\002\003\0033"
 141      46C67A46 
 141      B0000343 
 141      43830203 
 141      0333
 142 0027 50E593C7 		.ascii	"P\345\223\307?\336\033\203\030-\317\200\014\006\000"
 142      3FDE1B83 
 142      182DCF80 
 142      0C0600
 143 0036 44530E51 		.ascii	"DS\016Q"
 144              		.text
 145              		.section	.gnu.lto_.refs.792bc0d5,"",%progbits
 146 0000 789C6361 		.ascii	"x\234ca`\004B \000\000\0009\000\007"
 146      60044220 
 146      00000039 
 146      0007
 147              		.text
ARM GAS  C:\Users\info\AppData\Local\Temp\ccH0EqLZ.s 			page 11


 148              		.section	.gnu.lto_.decls.792bc0d5,"",%progbits
 149 0000 789CCD5A 		.ascii	"x\234\315Z{PT\311z\237\236\036`\030\006p\321U7E\356"
 149      7B5054C9 
 149      7A9F9E1E 
 149      60180670 
 149      D1553745 
 150 0015 351BE372 		.ascii	"5\033\343r\253r]\335\335lL\376\333$\225\334J\245\222"
 150      AB725DDD 
 150      DD6C4CFE 
 150      DB2495DC 
 150      4AA592
 151 0028 54A5EEFD 		.ascii	"T\245\356\375\313\252\3110\214J.\002\231\031V\330\177"
 151      CBAAC930 
 151      8C4A2E02 
 151      991956D8 
 151      7F
 152 0039 76041405 		.ascii	"v\004\024\005\001AA\301\027\242\340[y\212\274\204\365"
 152      014141C1 
 152      17A2E05B 
 152      798ABC84 
 152      F5
 153 004a 81A0F27E 		.ascii	"\201\240\362~\311\362\364\005\370FD\021\021\311\327"
 153      C9F2F405 
 153      F8464411 
 153      11C9D7
 154 0059 FD9D39A7 		.ascii	"\375\2359\247g<\336MU\262\251\214~\234\363\353\376\235"
 154      673CDE4D 
 154      55B2A98C 
 154      7E9CF3EB 
 154      FE9D
 155 006b EEAFBFFE 		.ascii	"\356\257\277\376\372\353\257\317\214NC4\354\323\374"
 155      FAEBAFCF 
 155      8C4E4334 
 155      ECD3FC
 156 007a B94693A0 		.ascii	"\271F\223\240\327h\022\341~\036>Z\270\376N\243|\030"
 156      D76812E1 
 156      7E1E3E5A 
 156      B8FE4EA3 
 156      7C18
 157 008c 0E863F9F 		.ascii	"\016\206?\237j5\357}X\271Q\342\007\201,\002y\000\315"
 157      6A35EF7D 
 157      58B951E2 
 157      07812C02 
 157      7900CD
 158 009f 96C1B518 		.ascii	"\226\301\265\030d9\324\007\303u\005\\\177\005\362' "
 158      6439D407 
 158      C375055C 
 158      7F05F227 
 158      20
 159 00b0 4BFE1BED 		.ascii	"K\376\033\355\316iI\302\235\207y\372~\322G\210\206\360"
 159      CE6949C2 
 159      9D8779FA 
 159      7ED24788 
 159      86F0
 160 00c2 8F46D257 		.ascii	"\217F\322W\303J\244+\273!\010x+D\343b\021WS\204\377"
 160      C34AA42B 
 160      BB210878 
ARM GAS  C:\Users\info\AppData\Local\Temp\ccH0EqLZ.s 			page 12


 160      2B44E362 
 160      11575384 
 161 00d7 83FF5ACE 		.ascii	"\203\377Z\316'B\205\033\217\217\235\177\224\"\"\177"
 161      2742851B 
 161      8F8F9D7F 
 161      9422227F 
 162 00e7 5C4CE2DE 		.ascii	"\\L\342\336(kU\201\200\265\312\003B{\222\366R\377D\354"
 162      286B5581 
 162      80B5CA03 
 162      427B92F6 
 162      52FF44EC 
 163 00fb 96374D5D 		.ascii	"\2267M]\203\356+\330\325k\244\320&\334\017\317\034\377"
 163      83EE2BD8 
 163      D56BA4D0 
 163      26DC0FCF 
 163      1CFF
 164 010d FB95A79D 		.ascii	"\373\225\247\235\360\331\351tjC\024\313\234\333r\357"
 164      F0D9E974 
 164      6A4314CB 
 164      9CDB72EF 
 165 011d 847E4A4B 		.ascii	"\204~JK\202\015d\2360\374\270r\306\0371\253.\253\177"
 165      820D649E 
 165      30FCB872 
 165      C61F31AB 
 165      2EAB7F
 166 0130 7146473F 		.ascii	"qFG?a\367\332\366\322\276\253\276$\304P\310\232\031"
 166      61F7DAF6 
 166      D2BEABBE 
 166      24C450C8 
 166      9A19
 167 0142 D9F3F29B 		.ascii	"\331\363\362\233\004\247\223\220\263\304@N\023JN\220"
 167      04A79390 
 167      B3C4404E 
 167      134A4E90 
 168 0152 954C8360 		.ascii	"\225L\203`\003\374\335\346t\306;'\362\235\336K5\344"
 168      03FCDDE6 
 168      74C63B27 
 168      F29DDE4B 
 168      35E4
 169 0164 CB60B22A 		.ascii	"\313`\262*XC\316\220\020\326&c\221S$\230\234$\301\254"
 169      5843CE90 
 169      10D62663 
 169      91532498 
 169      9C24C1AC 
 170 0178 FD13878E 		.ascii	"\375\023\207\216_\361\247\205\204w\360d\367\243mT\356"
 170      5FF1A785 
 170      8477F064 
 170      F7A36D54 
 170      EE
 171 0189 A03625F8 		.ascii	"\2406%\370\224\323\271\200\024C\007\347\224\016\240"
 171      94D3B980 
 171      144307E7 
 171      940EA0
 172 0198 3FF51E8A 		.ascii	"?\365\036\212\324{x\331\362<\315H\013\270\031\264W\337"
 172      D47B78D9 
 172      F23CCD48 
 172      0BB819B4 
ARM GAS  C:\Users\info\AppData\Local\Temp\ccH0EqLZ.s 			page 13


 172      57DF
 173 01aa CE3DD4CA 		.ascii	"\316=\324\312=t\356\212\314\334\002\346 e\320E\211\322"
 173      3D74EE8A 
 173      CCDC02E6 
 173      2065D045 
 173      89D2
 174 01bc 45F187BA 		.ascii	"E\361\207\272(U\357b~z\274\334\240\003\237\341\015\205"
 174      2855EF62 
 174      7E7ABCDC 
 174      A0039FE1 
 174      0D85
 175 01ce EA5859CB 		.ascii	"\352XY\313\354h\212\227\\VNxa\341\201\256'\376r\341"
 175      EC688A97 
 175      5C564E78 
 175      61E181AE 
 175      27FE72E1 
 176 01e2 792CBCFA 		.ascii	"y,\274\372.{\324(\027V`a{b\321~\012\323\020d :\200\317"
 176      2E7BD428 
 176      17566061 
 176      7B62D17E 
 176      0AD31064 
 177 01fa 9B73EF06 		.ascii	"\233s\357\006\000\\d \313\000\036\037\335\237fD\270"
 177      005C6420 
 177      CB001E1F 
 177      DD9F6644 
 177      B8
 178 020b 06E0F9D1 		.ascii	"\006\340\371\321\246\006\003\222\235l\016\253+j\032"
 178      A6060392 
 178      9D6C0EAB 
 178      2B6A1A
 179 021a BCB07A15 		.ascii	"\274\260z\025\300\252\211\326T?\332\200\216\260\357"
 179      C0AA89D6 
 179      543FDA80 
 179      8EB0EF
 180 0229 C5E0035F 		.ascii	"\305\340\003_\254\013\001X7qx\2537m\307\272\035U\305"
 180      AC0B0158 
 180      377178AB 
 180      376DC7BA 
 180      1D55C5
 181 023c 67FCE97D 		.ascii	"g\374\351}\004'\217\214\034d\304%\340\030\014\327u\216"
 181      04278F8C 
 181      1C64C425 
 181      E0180CD7 
 181      758E
 182 024e EC372076 		.ascii	"\3547 v~\0178\253e\177\227\236\251\310\354z%\367R\274"
 182      7E0F38AB 
 182      657F979E 
 182      A9C8EC7A 
 182      25F752BC 
 183 0262 97E21A4F 		.ascii	"\227\342\032O\342\342\231k4\300x\256(f]\"Y\325\351a"
 183      E2E2996B 
 183      34C078AE 
 183      28665D22 
 183      59D5E961 
 184 0276 D5AB60D5 		.ascii	"\325\253`\325%\222U/\203U/\241U;\007\336\324\353\351"
 184      2592552F 
 184      83552FA1 
ARM GAS  C:\Users\info\AppData\Local\Temp\ccH0EqLZ.s 			page 14


 184      553B07DE 
 184      D4EBE9
 185 0289 1C7670AC 		.ascii	"\034vp\254\351\315\005ob\010Qy\274I\345q\227\007->\311"
 185      E9CD056F 
 185      62085179 
 185      BC49E571 
 185      97072D3E 
 186 029e 3CA811F4 		.ascii	"<\250\021\364\270\246\350\321\300\247\027\032~\232x"
 186      B8A6E8D1 
 186      C0A7171A 
 186      7E9A78
 187 02ad 7FC40F6D 		.ascii	"\177\304\017m\261\024\340\226\266\344\263~4\221\362"
 187      B114E096 
 187      B6E4B37E 
 187      3491F2
 188 02bc E1774CDC 		.ascii	"\341wL\334< \325-\000\370p\333p\237\037\315\302\272"
 188      3C20D52D 
 188      00F870DB 
 188      709F1FCD 
 188      C2BA
 189 02ce C6CB83FF 		.ascii	"\306\313\203\377F\013\360\376\325\360\316!\035=\217"
 189      460BF0FE 
 189      D5F0CE21 
 189      1D3D8F
 190 02dd 60207F77 		.ascii	"` \177w\201\016'b\\\354 \010;(\252I|\"\315b=\233\247"
 190      810E2762 
 190      5CEC2008 
 190      3B28AA49 
 190      7C22CD62 
 191 02f4 F89CCE5D 		.ascii	"\370\234\316]\224\366\272w\030\204\035^\235\237\256"
 191      94F6BA77 
 191      18841D5E 
 191      9D9FAE
 192 0303 0F44A805 		.ascii	"\017D\250\005\370v\370i\263\216\336Fj\301\233\331\011"
 192      F876F869 
 192      B38EDE46 
 192      6AC19BD9 
 192      09
 193 0314 66F91530 		.ascii	"f\371\02505\363TX\264+p\321\326\335h*4\322\027\234\254"
 193      35F35458 
 193      B42B70D1 
 193      D6DD682A 
 193      34D2179C 
 194 0329 EDB8B477 		.ascii	"\355\270\264w\316\017-\007\223\222\3404\204h\310M0S"
 194      CE0F2D07 
 194      9392E034 
 194      8468C84D 
 194      3053
 195 033b 379889F4 		.ascii	"7\230\211\364\203\355VH\266\273\005\205\275\262\355"
 195      83ED5648 
 195      B6BB0585 
 195      BDB2ED
 196 034a F63CF947 		.ascii	"\366<\371G\276\274\177\004\333\365)\266[!\231\356bF"
 196      BEBC7F04 
 196      DBF529B6 
 196      5B2199EE 
 196      6246
ARM GAS  C:\Users\info\AppData\Local\Temp\ccH0EqLZ.s 			page 15


 197 035c FFA881BE 		.ascii	"\377\250\201\276\303.\216\336uV\353>\324\305\320\007"
 197      C32E8EDE 
 197      7556EB3E 
 197      D4C5D007 
 198 036c BBA84D59 		.ascii	"\273\250MYq\232M\317 t1\240t\361\243kz\356%\237\273"
 198      719A4DCF 
 198      207431A0 
 198      74F1A36B 
 198      7AEE259F 
 199 0381 EA4F9374 		.ascii	"\352O\223t|L\017\016vn\011\2409\010r\253\247\256{\241"
 199      7C4C0F0E 
 199      766E09A0 
 199      390872AB 
 199      A7AE7BA1 
 200 0395 71F4000F 		.ascii	"q\364\000\017\335\316\231\367\241\205X\227>qp\267\236"
 200      DDCE99F7 
 200      A1855897 
 200      3E7170B7 
 200      9E
 201 03a6 9620C898 		.ascii	"\226 \310\230\311i\364\2465\010\252\256%\024\372\320"
 201      C969F4A6 
 201      3508AAAE 
 201      2514FAD0 
 202 03b6 AB0836D7 		.ascii	"\253\0106\327^.\365\247-\010\2366\226\030h/\336\327"
 202      5E2EF5A7 
 202      2D089E36 
 202      9618682F 
 202      DED7
 203 03c8 8EEDACA6 		.ascii	"\216\355\254\246t\014\301\221\202\033\323:\372\012\301"
 203      740CC191 
 203      821BD33A 
 203      FA0AC1
 204 03d7 8C33F781 		.ascii	"\2143\367\201\236&yq\360\270\342\331\036-\335\203`\340"
 204      9E267971 
 204      F0B8E2D9 
 204      1E2DDD83 
 204      60E0
 205 03e9 D9C4AC2F 		.ascii	"\331\304\254/=\206\240.\277\347\235/\255A\220\326r\262"
 205      3D86A02E 
 205      BFE79D2F 
 205      AD4190D6 
 205      72B2
 206 03fb C98FB621 		.ascii	"\311\217\266!(\255ol5\320~\004\247\012\337\2345\320"
 206      28AD6F6C 
 206      35D07E04 
 206      A70ADF9C 
 206      35D0
 207 040d 510463C3 		.ascii	"Q\004c\303co\003\3513\004\005\307\342\363\365t\006A"
 207      636F03E9 
 207      330405C7 
 207      E2F3F574 
 207      0641
 208 041f FEA91D8D 		.ascii	"\376\251\035\215\0014\305\233\201\305\243\251\251\347"
 208      0134C59B 
 208      81C5A3A9 
 208      A9E7
 209 042d FCC972E5 		.ascii	"\374\311r\345\263\220\375\011\341\267\371RH\373\227"
ARM GAS  C:\Users\info\AppData\Local\Temp\ccH0EqLZ.s 			page 16


 209      B390FD09 
 209      E1B7F952 
 209      48FB97
 210 043c 2377B738 		.ascii	"#w\2678\213\376\235;\3758Xu\236,t\255\224\333`z\266"
 210      8BFE9D3B 
 210      FD385875 
 210      9E2C74AD 
 210      94DB607A 
 211 0451 6CC0BCF9 		.ascii	"l\300\274\371l\252\352+Z\374\3678\3537S\036c\037\250"
 211      6CAAEA2B 
 211      5AFCF738 
 211      EB37531E 
 211      631FA8
 212 0464 91574B64 		.ascii	"\221WKd\247\263\276.M\"\263\226\307\324\3107\211\322"
 212      A7B3BE2E 
 212      4D22B396 
 212      C7D4C837 
 212      89D2
 213 0476 F421B1E9 		.ascii	"\364!\261\351'\356\354\317\031\271J \227\264\3701\225"
 213      27EEECCF 
 213      19B94A20 
 213      97B4F831 
 213      95
 214 0487 19F5910A 		.ascii	"\031\365\221\012\265V\240\316\247\005\354u\326\307S"
 214      B556A0CE 
 214      A705EC75 
 214      D6C753
 215 0496 EE352F24 		.ascii	"\3565/$\262\354l]\304\215\017Z\367\267\010Z\337U\323"
 215      B2EC6C5D 
 215      C48D0F5A 
 215      F7B7085A 
 215      DF55D3
 216 04a9 5A64DF42 		.ascii	"Zd\337BE\030\367\236\032\267N\340v\212\366\270\257\306"
 216      4518F79E 
 216      1AB74EE0 
 216      768AF6B8 
 216      AFC6
 217 04bb 16879823 		.ascii	"\026\207\230#\332\343\251\312 \257\013M\267\213M\217"
 217      DAE3A9CA 
 217      20AF0B4D 
 217      B78B4D8F 
 218 04cb AA358DEC 		.ascii	"\2525\215\354\014iCwB\302B:\300\010\355\314\010\223"
 218      0C694377 
 218      42C2423A 
 218      C008EDCC 
 218      0893
 219 04dd D203B09E 		.ascii	"\322\003\260\236H\2426\204l\321.'\233A\266\202\314\221"
 219      48A23684 
 219      6CD12E27 
 219      9B41B682 
 219      CC91
 220 04ef E5641A24 		.ascii	"\345d\032$\001\356_\3035\011\256/\341:\005\362\012\344"
 220      01EE5FC3 
 220      3509AE2F 
 220      E13A05F2 
 220      0AE4
 221 0501 1DC85B90 		.ascii	"\035\310[\220Y\2207 \361P\277\015\304\011\262\035d\206"
ARM GAS  C:\Users\info\AppData\Local\Temp\ccH0EqLZ.s 			page 17


 221      59903720 
 221      F150BF0D 
 221      C409B21D 
 221      6486
 222 0513 2CE79903 		.ascii	",\347\231\003\016\352\2458\031\303\352\223!:E\226h\204"
 222      0EEAA538 
 222      19C3EA93 
 222      213A4596 
 222      6884
 223 0525 0915237C 		.ascii	"\011\025#|\251\330`@\231\212;j\026\250\026\332-R\374"
 223      A9D86040 
 223      998A3B6A 
 223      16A816DA 
 223      2D52FC
 224 0538 E7B14AAB 		.ascii	"\347\261J\2538k<\350\324\317\245\030\235N=\243h\244"
 224      386B3CE8 
 224      D4CFA518 
 224      9D4E3DA3 
 224      68A4
 225 054a 80A30C67 		.ascii	"\200\243\014g\227\250\336s\225\206V+]f+]>Sa\212\243"
 225      97A8DE73 
 225      9586562B 
 225      5D662B5D 
 225      3E53618A 
 226 055f 2E53A80F 		.ascii	".S\250\017U\250\325\302\304\017)\203\036q\247v\021\017"
 226      55A8D5C2 
 226      C40F2983 
 226      1E71A776 
 226      110F
 227 0571 05A645DB 		.ascii	"\005\246E\333\367\250\333\036\035\220%A\316\375\327"
 227      F7A8DB1E 
 227      1D902541 
 227      CEFDD7
 228 0580 293DC0A3 		.ascii	")=\300\243\210\266\354\311\335\007^da\210\272\367\354"
 228      88B6ECC9 
 228      DD075E64 
 228      6188BAF7 
 228      EC
 229 0591 008FF9B9 		.ascii	"\000\217\371\271\275\007\247\"+\375\317\330T\244h\027"
 229      BD07A722 
 229      2BFDCFD8 
 229      54A46817 
 230 05a1 9264AD1C 		.ascii	"\222d\255\034\376\331\314p\235+ng\325\371b\220\277\245"
 230      FED9CC70 
 230      9D2B6E67 
 230      D5F96290 
 230      BFA5
 231 05b3 11B29C45 		.ascii	"\021\262\234ER\226S\226\327U\347C\317\3621\221JgR\206"
 231      52965396 
 231      D755E743 
 231      CFF23191 
 231      4A675286 
 232 05c7 9E562168 		.ascii	"\236V!h~4Q\256\247\227\021L\017\346\244\371\321\233"
 232      7E3451AE 
 232      A797114C 
 232      0FE6A4F9 
 232      D19B
ARM GAS  C:\Users\info\AppData\Local\Temp\ccH0EqLZ.s 			page 18


 233 05d9 08E667B7 		.ascii	"\010\346g\267m\240\375x?\331\\1E\351C\004\243\027\237"
 233      6DA0FD78 
 233      3FD95C31 
 233      45E94304 
 233      A3179F
 234 05ec 4D1BE934 		.ascii	"M\033\3514\202\232\344\033o\3654\301\007\367\232\252"
 234      829AE41B 
 234      6FF534C1 
 234      07F79AAA 
 235 05fc A47803DD 		.ascii	"\244x\003\335\202 \251\274\266\320\233&!\250\274\227"
 235      8220A9BC 
 235      B6D09B26 
 235      21A8BC97 
 236 060c DCA4A73B 		.ascii	"\334\244\247;\021\314<mH\366\2429\010\016t\337\331\351"
 236      11CC3C6D 
 236      48F6A239 
 236      080E74DF 
 236      D9E9
 237 061e 6B9012C8 		.ascii	"k\220\022\310\235?\235\243\346^\335v\311\313\230\314"
 237      9D3F9DA3 
 237      E65EDD76 
 237      C9CB98CC 
 238 062e F83B139C 		.ascii	"\370;\023\234A\277!\373\264\0066y\244\222O\343~\255"
 238      41BF21FB 
 238      B4063679 
 238      A4924FE3 
 238      7EAD
 239 0640 51CAD69B 		.ascii	"Q\312\326\233Z\233\376\222\036\225\272?pp\332\237^\340"
 239      5A9BFE92 
 239      1E95BA3F 
 239      7070DA9F 
 239      5EE0
 240 0652 20E0D1F0 		.ascii	" \340\321\360\344>B\344]!D\336\021\352\353\322\205X"
 240      E43E42E4 
 240      5D2144DE 
 240      11EAEBD2 
 240      8558
 241 0664 B21BEC5C 		.ascii	"\262\033\354\\\250\375\360\206\320\327*\254\200\235"
 241      A8FDF086 
 241      D0D72AAC 
 241      809D
 242 0672 6AE43AC1 		.ascii	"j\344:\301\261\313[\003\221\315\022\327\275\356\354"
 242      B1CB5B03 
 242      91CD12D7 
 242      BDEEEC
 243 0681 CF3DC365 		.ascii	"\317=\303e\265\250G\266\012Y\\\320\203\242\036\007\325"
 243      B5A847B6 
 243      0A595CD0 
 243      83A21E07 
 243      D5
 244 0692 F410F784 		.ascii	"\364\020\367\204\216Vy\201\355R\343\272\355K\351\037"
 244      8E567981 
 244      ED52E3BA 
 244      ED4BE91F 
 245 06a2 E738EB21 		.ascii	"\3478\353!\311\003\243\222\\\211\3552\265\260\312\225"
 245      C903A392 
 245      5C89ED32 
ARM GAS  C:\Users\info\AppData\Local\Temp\ccH0EqLZ.s 			page 19


 245      B5B0CA95 
 246 06b2 C5A1D390 		.ascii	"\305\241\323\2204m0_Q\344\200\364\000[\034\307aq\024"
 246      346D305F 
 246      51E480F4 
 246      005B1CC7 
 246      617114
 247 06c5 80539F02 		.ascii	"\200S\237\0029\014r\014$\037\344\004\310!\220\243 '"
 247      390C720C 
 247      241FE404 
 247      C82190A3 
 247      2027
 248 06d7 414E83E4 		.ascii	"AN\203\344\201\034\321\312\241\023\314Q)\232c\217\212"
 248      811CD1CA 
 248      A113CC51 
 248      299A638F 
 248      8A
 249 06e8 396A85A0 		.ascii	"9j\205\240\265/\235\007-\240x\004-\250\253\025\033\312"
 249      B52F9D07 
 249      2DA07804 
 249      2DA8AB15 
 249      1BCA
 250 06fa 521BBE10 		.ascii	"R\033\276\0204\272E\273f\252\221\257\013\266*\025\347"
 250      34BA45BB 
 250      66AA91AF 
 250      0BB62A15 
 250      E7
 251 070b 37474547 		.ascii	"7GEGq\203\353\025\233\316PkZ\216F\327K[\177Ik\270\343"
 251      7183EB15 
 251      9BCE506B 
 251      5A8E46D7 
 251      4B5B7F49 
 252 0722 6A4F1667 		.ascii	"jO\026g\326\371\271\005#\321\336\347\300\306\377S{\243"
 252      D6F9B905 
 252      23D1DEE7 
 252      C0C6FF53 
 252      7BA3
 253 0734 095FA4AF 		.ascii	"\011_\244\257`&<\013\215\235Q\202\015\263(W\251s\364"
 253      60263C0B 
 253      8D9D5182 
 253      0DB32857 
 253      A973F4
 254 0747 70A21183 		.ascii	"p\242\021\203M\033_\350\243\327\340,\320\212+mj~{\265"
 254      4D1B5FE8 
 254      A3D7E02C 
 254      D08A2B6D 
 254      6A7E7BB5 
 255 075b 9E0E2118 		.ascii	"\236\016!\030M>\361\334H_#H\271Z\336 \035\323\032\371"
 255      4D3EF1DC 
 255      485F2348 
 255      B95ADE20 
 255      1DD31AF9 
 256 076f A1E96C45 		.ascii	"\241\351lE\2767\235\303\312\336\373\017J(\335\242\347"
 256      BE379DC3 
 256      CADEFB0F 
 256      4A28DDA2 
 256      E7
 257 0780 20B174FF 		.ascii	" \261t\377\005\003MEp\253\272e\312\213f!\370\241t\026"
ARM GAS  C:\Users\info\AppData\Local\Temp\ccH0EqLZ.s 			page 20


 257      05034D45 
 257      70ABBA65 
 257      CA8B6621 
 257      F8A17416 
 258 0794 E2D80104 		.ascii	"\342\330\001\004\025OOU\370c\203\365\014_\336<\006\331"
 258      154F4F55 
 258      F86383F5 
 258      0C5FDE3C 
 258      06D9
 259 07a6 6C015696 		.ascii	"l\001V\226$\327\024\351\350\031\004\205\367S\022\014"
 259      24D714E9 
 259      E8190485 
 259      F753120C 
 260 07b6 B41C41E3 		.ascii	"\264\034A\343\261\311dBk\021\234\336\373\354,\241W\020"
 260      B1C96442 
 260      6B119CDE 
 260      FBEC2CA1 
 260      5710
 261 07c8 8CD49776 		.ascii	"\214\324\227v\353\350u\004"
 261      EBE87504 
 262 07d0 CD63BD9D 		.ascii	"\315c\275\235:\332\216`\377\330\334\224\226\336B\340"
 262      3ADA8E60 
 262      FFD8DC94 
 262      96DE42E0 
 263 07e0 3A5106E1 		.ascii	":Q\006\341\2112/s\352\036$\301X\2279w\264XK_#\270v2"
 263      89322F73 
 263      EA1E24C1 
 263      58973977 
 263      B4584B5F 
 264 07f8 71444BB7 		.ascii	"qDK\267\371r0Ty\264\321\207f#\250:\330\325\256\243\205"
 264      F9723054 
 264      79B4D187 
 264      6623A83A 
 264      D8D5AEA3 
 265 080d 08E6739F 		.ascii	"\010\346s\237\357\365\021#\032\363\012%\2425\311\021"
 265      EFF51123 
 265      1AF30A25 
 265      A235C911 
 266 081d CD75560D 		.ascii	"\315uV\015\302\263\352\245\266\355\331\201\264\024\033"
 266      C2B3EAA5 
 266      B6EDD981 
 266      B4141B
 267 082c 197CD79E 		.ascii	"\031|\327\236\244\247\347\021\214\014\325\274\325\322"
 267      A4A7E711 
 267      8C0CD5BC 
 267      D5D2
 268 083a 06A9F9F1 		.ascii	"\006\251\371\361\301\347~t\010\301\235\315{\307\264"
 268      C1E77E74 
 268      08C19DCD 
 268      7BC7B4
 269 0849 F41982D4 		.ascii	"\364\031\202\324\307\347\366\370\322mx\020\232\035\337"
 269      C7E7F6F8 
 269      D26D7810 
 269      9A1DDF
 270 0858 DD47B071 		.ascii	"\335G\260q#;oU\367e\004\342\0162\302\007=TRl\240{\220"
 270      233B6F55 
 270      F76504E2 
ARM GAS  C:\Users\info\AppData\Local\Temp\ccH0EqLZ.s 			page 21


 270      0E32C207 
 270      3D54526C 
 271 086f 7BFB596D 		.ascii	"{\373Ym\216\017?\206\027\313\207\370\263\205\255\351"
 271      8E0F3F86 
 271      17CB87F8 
 271      B385ADE9 
 272 087f 3AF968DE 		.ascii	":\371h\336\245\345\205#\363\345\225\312\311\276\033"
 272      A5E58523 
 272      F3E595CA 
 272      C9BE1B
 273 088e 0BCF1D9B 		.ascii	"\013\317\035\233\237\361\225\013{\260p\252dG\2017\315"
 273      9FF1950B 
 273      7BB070AA 
 273      64478137 
 273      CD
 274 089f 3348297E 		.ascii	"3H)~\177\011\241\305\010vO\266\347\373\320j\004\015"
 274      7F09A1C5 
 274      08764FB6 
 274      E7FBD06A 
 274      040D
 275 08b1 B963B014 		.ascii	"\271c\260\024\257J/\\j\237\027H\347s';\332\345u\035"
 275      AF4A2F5C 
 275      6A9F1748 
 275      E773273B 
 275      DAE5751D 
 276 08c5 19F0A603 		.ascii	"\031\360\246\003\006\267\303{\020\036\336\235\343\211"
 276      06B7C37B 
 276      101EDE9D 
 276      E389
 277 08d3 87B4F4B6 		.ascii	"\207\264\364\266t\350\033\317\250\323\323\011\004m\307"
 277      74E81BCF 
 277      A8D3D309 
 277      046DC7
 278 08e2 9EF406D0 		.ascii	"\236\364\006\320m~\034\214\347\325\225\350\351\021\004"
 278      6D7E1C8C 
 278      E7D595E8 
 278      E91104
 279 08f1 AE370941 		.ascii	"\2567\011A\370&!\253>\363\255\201\236\303\272\246\312"
 279      F82621AB 
 279      3EF3AD81 
 279      9EC3BAA6 
 279      CA
 280 0902 3BAB6815 		.ascii	";\253h\025\336\277\272\3215Hi\023\202\364K\265\227\365"
 280      DEBFBAD1 
 280      35486913 
 280      82F44BB5 
 280      97F5
 281 0914 B41B41C3 		.ascii	"\264\033A\303\300\217\340Q\267\021\314\225\226^&\364"
 281      C08FE051 
 281      B711CC95 
 281      965E26F4 
 282 0924 1582C487 		.ascii	"\025\202\304\207G \323\237G0\330x\342\024[\032\237\261"
 282      4720D39F 
 282      4730D878 
 282      E2145B1A 
 282      9FB1
 283 0936 43EAFC7C 		.ascii	"C\352\374|\240pL\375\014\225\354H\237<\352C\267\033"
ARM GAS  C:\Users\info\AppData\Local\Temp\ccH0EqLZ.s 			page 22


 283      A0704CFD 
 283      0C95EC48 
 283      9F3CEA43 
 283      B71B
 284 0948 791C3895 		.ascii	"y\0348\225\361\250Cx\271T`\254dG\303g\260\017>Q\226"
 284      F1A84378 
 284      B95460AC 
 284      6447C367 
 284      B00F3E51 
 285 095d EB67F27B 		.ascii	"\353g\362{\031\356T\032%p?\205\340\360\231\264\261>"
 285      19EE541A 
 285      25703F85 
 285      E0F099B4 
 285      B13E
 286 096f 86E8F148 		.ascii	"\206\350\361H\213\257\227\216f\300z\334\215]\234<\333"
 286      8BAF978E 
 286      66C07ADC 
 286      8D5D9C3C 
 286      DB
 287 0980 DAE0E33A 		.ascii	"\332\340\343:\246z60\251\322\200\353\230\372\025?\246"
 287      A67A3630 
 287      A9D280EB 
 287      98FA153F 
 287      A6
 288 0991 3E075D26 		.ascii	">\007]&\024]@5\364\340;\305\323\217\365\364\000\357"
 288      145D4035 
 288      F4E03BC5 
 288      D38FF5F4 
 288      00EF
 289 09a3 839C3D3D 		.ascii	"\203\234==[\204\257\202~k\224\234\250\177\353\261\033"
 289      5B84AF82 
 289      7E6B949C 
 289      A87FEBB1 
 289      1B
 290 09b4 7EB2634D 		.ascii	"~\262cM\241kt\337\032\352\366\225\013_ba\322\374\340"
 290      A16B74DF 
 290      1AEAF695 
 290      0B5F6261 
 290      D2FCE0
 291 09c7 153D3D87 		.ascii	"\025==\207-%\036K\335\347O\253\021\244\345LV\373\320"
 291      2D251E4B 
 291      DDE74FAB 
 291      11A4E54C 
 291      56FBD0
 292 09da CB083AEB 		.ascii	"\313\010:\353\363\366\371\322\353\010\356\226M\037\365"
 292      F3F6F9D2 
 292      EB08EE96 
 292      4D1FF5
 293 09e9 A7DDC60F 		.ascii	"\247\335\306\017\372py\307\241a\037:\210\2047\255\263"
 293      FA7079C7 
 293      A1611F3A 
 293      888437AD 
 293      B3
 294 09fa 55843E44 		.ascii	"U\204>D\260\243\363\374\227t\032\357Ow\337\232#4\301"
 294      B0A3F3FC 
 294      97741AEF 
 294      4F77DF9A 
ARM GAS  C:\Users\info\AppData\Local\Temp\ccH0EqLZ.s 			page 23


 294      2334C1
 295 0a0d 1FC3C4BB 		.ascii	"\037\303\304\273\211\213\224f!83\262\265\323\213\026"
 295      898B9466 
 295      213833B2 
 295      B5D38B16 
 296 0a1d 22287C7B 		.ascii	"\"(|{\270\314HK\0204L\327\036\361\242\265\010\222SN"
 296      B8CC484B 
 296      10344CD7 
 296      1EF1A2B5 
 296      0892534E 
 297 0a31 1E0EA01D 		.ascii	"\036\016\240\035\010\266\3548UC\351}\004m\303%/\275"
 297      08B6EC38 
 297      5543E97D 
 297      046DC325 
 297      2FBD
 298 0a43 E91B04C3 		.ascii	"\351\033\004\303C\031\377A\023\002\370\375\243\256\216"
 298      4319FF41 
 298      1302F8FD 
 298      A3AE8E
 299 0a52 0C2FBA13 		.ascii	"\014/\272\023\301\\IR\265\216\036A0\32683\345G\313\021"
 299      C15C4952 
 299      B58E1E41 
 299      30D63833 
 299      E547CB11 
 300 0a66 BCB9145F 		.ascii	"\274\271\024_Ih#\202\363\227fnz\321A\004O\343O\035\005"
 300      49682382 
 300      F397666E 
 300      7AD14104 
 300      4FE34F1D 
 301 0a7b E743D096 		.ascii	"\347C\320\226\365\004\262\212\364@\016\336\316\356\332"
 301      F504B28A 
 301      F4400EDE 
 301      CEEEDA
 302 0a8a EC45F311 		.ascii	"\354E\363\021\324\015\214\237\366\243e\010\216\247N"
 302      D40D8C9F 
 302      F6A36508 
 302      8EA74E
 303 0a99 5C36D066 		.ascii	"\\6\320f\016>\2368\265\267\313[<O/\227\316\323\013\227"
 303      0E3E9E38 
 303      B5B7CB5B 
 303      3C4F2F97 
 303      CED30B97 
 304 0aad F34D6DE4 		.ascii	"\363Mm\344\345\273\377\254=?\340tn5r\213&S\330\326\350"
 304      E5BBFFAC 
 304      3D3FE074 
 304      6E35728B 
 304      2653D8D6 
 305 0ac2 870FA735 		.ascii	"\207\017\2475\035r\"\022\357N\355\362\314\264^d\012"
 305      1D722212 
 305      EF4EEDF2 
 305      CCB45E64 
 305      0A
 306 0ad3 E9FBBC16 		.ascii	"\351\373\274\026\311\252\351\273t~\024\267\3274\025"
 306      C9AAE9BB 
 306      747E14B7 
 306      D73415
 307 0ae2 3DC424A7 		.ascii	"=\304$\247KI\210\266\253P\305Lk\267BMW\241\012\032w"
ARM GAS  C:\Users\info\AppData\Local\Temp\ccH0EqLZ.s 			page 24


 307      4B4988B6 
 307      AB50C54C 
 307      6BB7424D 
 307      57A10A1A 
 308 0af7 288373AA 		.ascii	"(\203s\252\015N\314\0342\225Vw\252\264*d$\271\0123U"
 308      0D4ECC1C 
 308      32955677 
 308      AAB42A64 
 308      24B90A33 
 309 0b0c 852936BA 		.ascii	"\205)6\272_\241\356P\241\212\326*Rt\335\342N}?{lS\270"
 309      5FA1EE50 
 309      A18AD62A 
 309      5274DDE2 
 309      4E7D3F7B 
 310 0b23 9BD5C625 		.ascii	"\233\325\306%\032v\267\302\335\252\326\256\230\035\277"
 310      1A76B7C2 
 310      DDAAD6AE 
 310      981DBF
 311 0b32 53D44D52 		.ascii	"S\324MR\343\212\372\226)\355&\252q\305\031{)zN&U\365"
 311      E38AFA96 
 311      29ED26AA 
 311      71C5197B 
 311      297A4E26 
 312 0b48 1C31799C 		.ascii	"\0341y\234M\303\344\221\252\234x\017\211^\225\242bT"
 312      4DC3E491 
 312      AA9C780F 
 312      895E95A2 
 312      6254
 313 0b5a 7140558A 		.ascii	"q@U\212\222\011j\206z?o\226\017\225\031\022\237\345"
 313      92096A86 
 313      7A3F6F96 
 313      0F951912 
 313      9FE5
 314 0b6c 71476808 		.ascii	"qGh\010\311\245\313\311^\220l\220} \373A\216\202\354"
 314      C9A5CBC9 
 314      5E906C90 
 314      7D20FB41 
 314      8E82EC
 315 0b7f 02D90372 		.ascii	"\002\331\003r\014$\017\344\020\310\001\220\303 \005"
 315      0C240FE4 
 315      10C80190 
 315      C32005
 316 0b8e 20BB410E 		.ascii	" \273A\016\202\344\200d\201\344S\361uD\177z\000\346"
 316      82E48064 
 316      81E453F1 
 316      75447F7A 
 316      00E6
 317 0ba0 F62C546F 		.ascii	"\366,To\223\272\224#\274\220\014C\034\350K\337\227\023"
 317      93BA9423 
 317      BC900C43 
 317      1CE84BDF 
 317      9713
 318 0bb2 489FF138 		.ascii	"H\237\3618\240}\231z\351k\317\034T\326\375$\350\373"
 318      A07D997A 
 318      E96BCF1C 
 318      54D6FD24 
 318      E8FB
ARM GAS  C:\Users\info\AppData\Local\Temp\ccH0EqLZ.s 			page 25


 319 0bc4 73EA8EB3 		.ascii	"s\352\216\263\224\323\362\347l\226N@G\307\251\222\237"
 319      94D3F2E7 
 319      6C964E40 
 319      47C7A992 
 319      9F
 320 0bd5 52293F2D 		.ascii	"R)?-\273S\370\314g\241\244`\375\007\025\324\374\257"
 320      BB53F8CC 
 320      67A1A460 
 320      FD0715D4 
 320      FCAF
 321 0be7 6BC7E267 		.ascii	"k\307\342gOb\222\237\230\313\235\022\314\252!\247\251"
 321      4F62929F 
 321      98CB9D12 
 321      CCAA21A7 
 321      A9
 322 0bf8 2B979B3E 		.ascii	"+\227\233>36\340E\023\026`\326q\177_\203\201\246#\250"
 322      3336E045 
 322      131660D6 
 322      717F5F83 
 322      81A623A8 
 323 0c0c EB3C7733 		.ascii	"\353<w3\220\036\341\340O\373\223\3536\023\2423.\304"
 323      901EE1E0 
 323      4FFB93EB 
 323      3613A233 
 323      2EC4
 324 0c1e D797CAC7 		.ascii	"\327\227\312\307h\\\252\013\221nB\226\207\204\360\215"
 324      685CAA0B 
 324      916E4296 
 324      8784F08D 
 325 0c2e 8C1AC95B 		.ascii	"\214\032\311[\330\036\205\356K\334\272/\306\356\335"
 325      D81E85EE 
 325      4BDCBA2F 
 325      C6EEDD
 326 0c3d E66E0036 		.ascii	"\346n\0006\360\353\260\201\223\0160M\2314w\355p\337"
 326      F0EBB081 
 326      930E304D 
 326      993477ED 
 326      70DF
 327 0c4f 0623BB01 		.ascii	"\006#\273\001r\035\244\011\244\021\344\022\310\017 "
 327      721DA409 
 327      A411E412 
 327      C80F20
 328 0c5e F5207520 		.ascii	"\365 u \027AjAj@\252A\252@*A.\200T\200\234\007)\007"
 328      17416A41 
 328      6A40AA41 
 328      AA402A41 
 328      2E805480 
 329 0c76 2975F3BD 		.ascii	")u\363\275\331\036a%\235\205\031,S\226\307\220VY\357"
 329      D91E6125 
 329      9D85192C 
 329      5396C790 
 329      5659EF
 330 0c89 EA7A9E91 		.ascii	"\352z\236\221\036\370\371\365|\335#/\342a\255\212\226"
 330      1EF8F9F5 
 330      7CDD232F 
 330      E261AD8A 
 330      96
ARM GAS  C:\Users\info\AppData\Local\Temp\ccH0EqLZ.s 			page 26


 331 0c9a 62C07DA5 		.ascii	"b\300}\245pG\324\270bd\234R\270\267\325\270\302F2\251"
 331      7047D4B8 
 331      62649C52 
 331      B8B7D5B8 
 331      C24632A9 
 332 0cae 50EFA851 		.ascii	"P\357\250Q\205\335aB\241\336s\247\336\325z\306\305!"
 332      85DD6142 
 332      A1DE73A7 
 332      DED57AC6 
 332      C521
 333 0cc0 857B5F8D 		.ascii	"\205{_\215+\306\374\001\205;\252\306\025\303^\217\302"
 333      2BC6FC01 
 333      853BAAC6 
 333      15C35E8F 
 333      C2
 334 0cd1 1D53E38A 		.ascii	"\035S\343\212q\274K\341\216\253qE\353v\010:\020\025"
 334      71BC4BE1 
 334      8EAB7145 
 334      EB76083A 
 334      1015
 335 0ce3 AE68DDF6 		.ascii	"\256h\335\366l!\346?\220Z\226c\376]O\263\325e\013/9"
 335      6C21E63F 
 335      905A9663 
 335      FE5D4FB3 
 335      D5650B2F 
 336 0cf8 4A25BA1C 		.ascii	"J%\272\034\010\333\337\333~j\263\205\300\371P\235/4"
 336      08DBDFDB 
 336      7E6AB385 
 336      C0F9509D 
 336      2F34
 337 0d0a 5FDD1388 		.ascii	"_\335\023\210\364\313\2608_x\322\305\334EX\265W\351"
 337      F4CBB038 
 337      5F78D2C5 
 337      DC4558B5 
 337      57E9
 338 0d1c 5285730D 		.ascii	"R\205s\015|\374\012<\214a\356\003,\215@\311\346\313"
 338      7CFC0A3C 
 338      8C61EE03 
 338      2C8D40C9 
 338      E6CB
 339 0d2e 26C1B94C 		.ascii	"&\301\271L\347q\222\204\007\330WzT\247\341?\002\340"
 339      E7719284 
 339      07D8577A 
 339      54A7E13F 
 339      02E0
 340 0d40 F1E215C4 		.ascii	"\361\342\025\304\013\214\252\207Z>fQ\225\3519\255\244"
 340      0B8CAA87 
 340      5A3E6651 
 340      95E939AD 
 340      A4
 341 0d51 EE5778C8 		.ascii	"\356Wx\310\300\261T\212cy\255>\026a\350\347{\214\316"
 341      C0B1548A 
 341      6379AD3E 
 341      1661E8E7 
 341      7B8CCE
 342 0d64 9D664E9E 		.ascii	"\235fN\236\361$\253l\353\012\373\215:[h\2724{\021jr"
 342      F124AB6C 
ARM GAS  C:\Users\info\AppData\Local\Temp\ccH0EqLZ.s 			page 27


 342      EB0AFB8D 
 342      3A5B68BA 
 342      347B116A 
 343 0d79 13E8B39E 		.ascii	"\023\350\263\236\364\317U\215\332\"\032\265\025\214"
 343      F4CF558D 
 343      DA221AB5 
 343      158C
 344 0d87 DAAC66D4 		.ascii	"\332\254f\324\0267\2436\253\031u\320\315\250-\334\250"
 344      1637A336 
 344      AB1975D0 
 344      CDA82DDC 
 344      A8
 345 0d98 45DCA868 		.ascii	"E\334\250h\310\342\264\305\314\220L\2659\305\220\315"
 345      C8E2B4C5 
 345      CC904CB5 
 345      39C590CD 
 346 0da8 82218BB3 		.ascii	"\202!\213\263\177\211\352\303~@\336\251\252\277ZIJ\016"
 346      7F89EAC3 
 346      7E40DEA9 
 346      AABF5A49 
 346      4A0E
 347 0dba 64F3A4A4 		.ascii	"d\363\244\244\314=)\301\272=i\277`u,\314\237S\266\302"
 347      CC3D29C1 
 347      BA3D69BF 
 347      60752CCC 
 347      9F53B6C2 
 348 0dce 32D75658 		.ascii	"2\327VX\324V\036\357OO\342\306r\272\371\332\200\364"
 348      D4561EEF 
 348      4F4FE2C6 
 348      72BAF9DA 
 348      80F4
 349 0de0 02661B7B 		.ascii	"\002f\033{)|\372\370\340\250\217\364\025+\373jp\250"
 349      297CFAF8 
 349      E0A88FF4 
 349      152BFB6A 
 349      70A8
 350 0df2 FBE06800 		.ascii	"\373\340h\000=\217\344\366\327\343[\011m\342\340o*v"
 350      3D8FE4F6 
 350      D7E35B09 
 350      6DE2E06F 
 350      2A76
 351 0e04 DC69F725 		.ascii	"\334i\367%n[\020\333\177\214\036{\022V\260\255\012w"
 351      6E5B10DB 
 351      7F8C1E7B 
 351      1256B0AD 
 351      0A77
 352 0e16 27634808 		.ascii	"'cH\010\277\011\201\002\266G\205\340A\241s\327\367G"
 352      BF098102 
 352      B64785E0 
 352      41A173D7 
 352      F747
 353 0e28 0BB6B2C9 		.ascii	"\013\266\262\311v-\271>q\370E\312\012u\333\000\272i"
 353      762DB93E 
 353      71F845CA 
 353      0A75DB00 
 353      BA69
 354 0e3a 30E9A240 		.ascii	"0\351\242@\350\244\370\004\333\000\366\350BH\266\016"
ARM GAS  C:\Users\info\AppData\Local\Temp\ccH0EqLZ.s 			page 28


 354      E8A4F804 
 354      DB00F6E8 
 354      4248B60E 
 355 0e4a B66C9039 		.ascii	"\266l\2209\010\340oAfA\336\200\314\200\274\006\231\006"
 355      08E06F41 
 355      6641DE80 
 355      CC80BC06 
 355      9906
 356 0e5c 7905F212 		.ascii	"y\005\362\022d\012\344\005\310$\310s\220\011\220g O"
 356      640AE405 
 356      C824C873 
 356      90099067 
 356      204F
 357 0e6e 419E803C 		.ascii	"A\236\200<\006y\004r\013\344\036\310]\220; \267AF@\206"
 357      06790472 
 357      0BE41EC8 
 357      5D903B20 
 357      B7414640 
 358 0e83 41864006 		.ascii	"A\206@\006A\006@\372A~t\3334\206\305\315\255GRU\012"
 358      410640FA 
 358      417E74DB 
 358      3486C5CD 
 358      AD475255 
 359 0e98 5635EF25 		.ascii	"V5\357%\250B\300\274HT\270\265\352A\260^\215+\276A\256"
 359      A842C0BC 
 359      4854B8B5 
 359      EA41B05E 
 359      8D2BBE41 
 360 0ead CB16DE74 		.ascii	"\313\026\336t\376\240\306\256\022\330U=\362W)7\324\270"
 360      FEA0C6AE 
 360      12D8553D 
 360      F2572937 
 360      D4B8
 361 0ebf E2F76D17 		.ascii	"\342\367m\027\024n\263\032W\014\305\025\242-Z\324\330"
 361      146EB31A 
 361      570CC515 
 361      A22D5AD4 
 361      D8
 362 0ed0 C25657A4 		.ascii	"\302VW\244\014\257U\215*|\275\232\223\275x3\017\361"
 362      0CAF558D 
 362      2A7CBD9A 
 362      93BD7833 
 362      0FF1
 363 0ee2 ECFB904E 		.ascii	"\354\373\220N\211,\347xm\236\364=\331K6\363\345\306"
 363      892CE778 
 363      6D9EF43D 
 363      D94B36F3 
 363      E5C6
 364 0ef4 DE68A64B 		.ascii	"\336h\246K\376&\2777M\365\334\021\262z~\201\253\363"
 364      FE26BF37 
 364      4DF5DC11 
 364      B27A7E81 
 364      ABF3
 365 0f06 3EACCE62 		.ascii	">\254\316bu\367|/\272\214\211\321%\007\274rT-\272\214"
 365      75F77C2F 
 365      BA8C89D1 
 365      2507BC72 
ARM GAS  C:\Users\info\AppData\Local\Temp\ccH0EqLZ.s 			page 29


 365      542DBA8C 
 366 0f1a B9459751 		.ascii	"\271E\227Q\265\350R\346\026]\306xt\031\227C\366\003"
 366      B5E852E6 
 366      165DC678 
 366      74199743 
 366      F603
 367 0f2c CA5F9508 		.ascii	"\312_\225\010M>t\313\360\036\250dx\362\302\331\013j"
 367      4D3E74CB 
 367      F01EA864 
 367      78F2C2D9 
 367      0B6A
 368 0f3e FDFF5D38 		.ascii	"\375\377]8/:\2057\350\345Z7\017({/{\230\350\344\336"
 368      2F3A8537 
 368      E8E55A37 
 368      0F287B2F 
 368      7B98E8E4 
 369 0f53 C27F1BA4 		.ascii	"\302\177\033\244\306\025\263\207!\205[\241\306\025]"
 369      C615B387 
 369      21855BA1 
 369      C6155D
 370 0f62 7640E15E 		.ascii	"v@\341^P\343\012\016\333\245P+\325\250\202Ku(\324jw"
 370      50E30A0E 
 370      DBA5502B 
 370      D5A8824B 
 370      7528D46A 
 371 0f77 6AD57BB9 		.ascii	"j\325{\271Y\233\302\255Q\343\212!\341\242\302\255U\343"
 371      599BC2AD 
 371      51E38A21 
 371      E1A2C2AD 
 371      55E3
 372 0f89 8AB95999 		.ascii	"\212\271Y\231\302\275\250\306u\373\221\201\302\255S"
 372      C2BDA8C6 
 372      75FB9181 
 372      C2AD53
 373 0f98 E3BABD6A 		.ascii	"\343\272\275jP\270\365j"
 373      50B8F56A 
 374 0fa0 5CD1BAB9 		.ascii	"\\\321\272\271\012\367\0075\256`\335w\0352\365\222\032"
 374      0AF70735 
 374      AE60DD77 
 374      1D32F592 
 374      1A
 375 0fb1 55B0EE5B 		.ascii	"U\260\356[\205z\305\235z\371=\353\276Q\270W\325\270"
 375      857AC59D 
 375      7AF93DEB 
 375      BE51B857 
 375      D5B8
 376 0fc3 A2755F76 		.ascii	"\242u_v\010\341\253A\215-\332wR9\362_S\343\212\366}"
 376      08E1AB41 
 376      8D2DDA77 
 376      5239F25F 
 376      53E38AF6 
 377 0fd8 9E292591 		.ascii	"\236)%\221M\260\0036z\206\230\313\236\003\354\317\\"
 377      4DB00336 
 377      7A8698CB 
 377      9E03ECCF 
 377      5C
 378 0fe9 8CF477B0 		.ascii	"\214\364w\260\374ox\322\257\253G\244y\267\300\360\316"
ARM GAS  C:\Users\info\AppData\Local\Temp\ccH0EqLZ.s 			page 30


 378      FC6F78D2 
 378      AFAB47A4 
 378      79B7C0F0 
 378      CE
 379 0ffa 2D3048A7 		.ascii	"-0H\247b\010"
 379      6208
 380 1000 81EDEC48 		.ascii	"\201\355\354H\225\001\301`\263N:\025o\203\210\020\017"
 380      9501C160 
 380      B34E3A15 
 380      6F838810 
 380      0F
 381 1011 E2D489AB 		.ascii	"\342\324\211\253\363|\007O\317v\350\214\244\023\024"
 381      F37C074F 
 381      CF76E88C 
 381      A41314
 382 1020 606CB5F4 		.ascii	"`l\265\364\314\375\265\200\253\3756\351\011\026xR\240"
 382      CCFDB580 
 382      ABFD36E9 
 382      09167852 
 382      A0
 383 1031 2FF52ECA 		.ascii	"/\365.\312;\376\030G\231\000\235\334\364\354D=\251\333"
 383      3BFE1847 
 383      99009DDC 
 383      F4EC443D 
 383      A9DB
 384 1043 A213C26E 		.ascii	"\242\023\302n\0224\235\250S\011\273\"K#P\204\260\373"
 384      12349DA8 
 384      5309BB22 
 384      4B235084 
 384      B0FB
 385 1055 BBC50203 		.ascii	"\273\305\002\003\370\360w\253\316#\352b\3125\230\262"
 385      F8F077AB 
 385      CE23EA62 
 385      CA3598B2 
 386 1065 88A55C4C 		.ascii	"\210\245\\L\311f%\275\203F\225\3544S\332@\266\003\247"
 386      C96625BD 
 386      834695EC 
 386      3453DA40 
 386      B603A7
 387 1078 457520AB 		.ascii	"Eu \253\377\3208\222\335\306\201\275\366c\257\254\305"
 387      FFD03892 
 387      DDC681BD 
 387      F663AFAC 
 387      C5
 388 1089 56CF5EA5 		.ascii	"V\317^\245\374=\223\247\211\320\227\230&\012}\244\211"
 388      FC3D93A7 
 388      89D09798 
 388      260A7DA4 
 388      89
 389 109a 7DEC843E 		.ascii	"}\354\204>R\325l\225\346f\253\324\237\264U\032\267U"
 389      52D56C95 
 389      E666ABD4 
 389      9FB4551A 
 389      B755
 390 10ac BA9BAD7A 		.ascii	"\272\233\255z\345C\3050\252\315\334\346\226\242v\252"
 390      E543C530 
 390      AACDDCE6 
ARM GAS  C:\Users\info\AppData\Local\Temp\ccH0EqLZ.s 			page 31


 390      96A276AA 
 391 10bc A076EF8D 		.ascii	"\240v\357\215_2F&\230\250Oa\260Q|\310\233\004o\375\003"
 391      5F324626 
 391      98A84F61 
 391      B0517CC8 
 391      9B046FFD 
 392 10d1 DED49729 		.ascii	"\336\324\227)y\323n\350\373G\3655\3439\013n\026\312"
 392      79D36EE8 
 392      FB47F535 
 392      E3390B6E 
 392      16CA
 393 10e3 72B3102A 		.ascii	"r\263\020*\373\034\207\303\232\354\367\034\016\346\032"
 393      FB1C87C3 
 393      9AECF71C 
 393      0EE61A
 394 10f2 BD99FE98 		.ascii	"\275\231\376\230k\260\224|P\352V~w\341\231\332w\342"
 394      6BB0947C 
 394      50EA567E 
 394      77E199DA 
 394      77E2
 395 1104 9CF5A9A5 		.ascii	"\234\365\251\245\366\335)<\265g\373{\257\222\332\367"
 395      F6DD293C 
 395      B567FB7B 
 395      AF92DAF7 
 396 1114 F1D41E19 		.ascii	"\361\324\036\031\265\035K\030\203\245)%\2126\243|\245"
 396      B51D4B18 
 396      83A52925 
 396      8A36A37C 
 396      A5
 397 1125 430A7F63 		.ascii	"C\012\177cd\264\023\277_asr\001\177,{\177l\373<]\372"
 397      64B413BF 
 397      5F617372 
 397      017F2C7B 
 397      7F6CFB3C 
 398 113b A1C9DCC7 		.ascii	"\241\311\334\307'3\227O&\220\263\037\327\357\242\237"
 398      2733974F 
 398      2690B31F 
 398      D7EFA29F 
 399 114b E639F38A 		.ascii	"\3469\363\212\234#\355\205\337\335+q:\267\303\203:\306"
 399      9C23ED85 
 399      DFDD2B71 
 399      3AB7C383 
 399      3AC6
 400 115d 23C7959F 		.ascii	"#\307\225\237!\302-\273\034#\375DC\366\353>\205G\363"
 400      21C22DBB 
 400      1C23FD44 
 400      43F6EB3E 
 400      8547F3
 401 1170 535A2FF8 		.ascii	"SZ/\370\323\207x\230\370\351\037\375\036\324\361\302"
 401      D3877898 
 401      F8E91FFD 
 401      1ED4F1C2 
 402 1180 BEE7F7AE 		.ascii	"\276\347\367\256\350e\225\017aa^\357\303\361\017\253"
 402      E865950F 
 402      61615EEF 
 402      C3F10FAB 
 403 1190 7C98AB9C 		.ascii	"|\230\253\234\347R9e2\375\205\027\250<\342t\216t\354"
ARM GAS  C:\Users\info\AppData\Local\Temp\ccH0EqLZ.s 			page 32


 403      E7523965 
 403      32FD8517 
 403      A83CE274 
 403      8E74EC
 404 11a3 8A3C51E2 		.ascii	"\212<Q\342L\364e\034r@'\253\013\267\334\316$\237\253"
 404      4CF4651C 
 404      724027AB 
 404      0BB7DCCE 
 404      249FAB
 405 11b6 FA6272B2 		.ascii	"\372br\262\210\320\031\256\252vpnK\261\277\372\217g"
 405      88D019AE 
 405      AA76706E 
 405      4BB1BFFA 
 405      8F67
 406 11c8 0B741FF8 		.ascii	"\013t\037\370\361l}5\272\305Q\235\201\034Q\272i\344"
 406      F16C7D35 
 406      BAC5519D 
 406      811C51BA 
 406      69E4
 407 11da 3FCE64A5 		.ascii	"?\316d\245p\014\314K\352\271\033@\014\301\004\036$\370"
 407      700CCC4B 
 407      EAB91B40 
 407      0CC1041E 
 407      24F8
 408 11ec 6B9778A1 		.ascii	"k\227x\241q\015)\324\031\230%u\301\344\230.X\223\353"
 408      710D29D4 
 408      19982575 
 408      C1E4982E 
 408      5893EB
 409 11ff 04CEC4F7 		.ascii	"\004\316\304\367\2744\227\275\221\206+\373\303\246u"
 409      BC3497BD 
 409      91862BFB 
 409      C3A675
 410 120e A625D9ED 		.ascii	"\246%\331\355\025\343a\267\025{\202;#^\375c\326\254"
 410      15E361B7 
 410      157B823B 
 410      235EFD63 
 410      D6AC
 411 1220 FFC2F477 		.ascii	"\377\302\364w6\363\246\177\012\217\264\352\377\341\237"
 411      36F3A67F 
 411      0A8FB4EA 
 411      FFE19F
 412 122f 7FBBEC6F 		.ascii	"\177\273\354oW\257\326\370\232L1\341\221\2165&\307f"
 412      57AFD6F8 
 412      9A4C31E1 
 412      918E3526 
 412      C766
 413 1241 62F9EBB5 		.ascii	"b\371\353\265\321\266\250\3656\363\306e\353\302#\254"
 413      D1B6A8F5 
 413      36F3C665 
 413      EBC223AC 
 414 1251 F66521B1 		.ascii	"\366e!\261k\276\376\325ZK\\\264\315j\267\257\215\266"
 414      6BBEFED5 
 414      5A4B5CB4 
 414      CD6AB7AF 
 414      8DB6
 415 1263 47599659 		.ascii	"GY\226YlV\263#\312\266\366\253\225_\270\027\204o\214"
ARM GAS  C:\Users\info\AppData\Local\Temp\ccH0EqLZ.s 			page 33


 415      6C56B323 
 415      CAB6F6AB 
 415      955FB817 
 415      846F8C
 416 1276 8EB239D6 		.ascii	"\216\2629\326\256\217\214Yk\266m\\\373\027+\277Z\271"
 416      AE8F8C59 
 416      6BB66D5C 
 416      FB172BBF 
 416      5AB9
 417 1288 9ADDFD3A 		.ascii	"\232\335\375:2*\322\372k\25394|mx\244%\"&\314\272v\243"
 417      322AD2FA 
 417      6BAB3934 
 417      7C6D78A4 
 417      252226CC 
 418 129f D9B20174 		.ascii	"\331\262\001tXk\012\263\2563\307D8L\216\270h\253}\345"
 418      586B0AB3 
 418      AE33C744 
 418      384C8EB8 
 418      68AB7DE5 
 419 12b3 068D8FA4 		.ascii	"\006\215\217\244\312\267\377W\232\330\343\354kMvG\030"
 419      CAB7FF57 
 419      9AD8E3EC 
 419      6B4D7647 
 419      18
 420 12c4 740BDDFB 		.ascii	"t\013\335\373q\0231\035L\216E+W\256\345\320b\267Y\370"
 420      7113311D 
 420      4C8E452B 
 420      57AEE5D0 
 420      62B759F8 
 421 12d8 1D100C61 		.ascii	"\035\020\014a`>\223%*\"\312\26604\334\261\321\034mr"
 421      603E9325 
 421      2A22CAB6 
 421      3034DCB1 
 421      D11C6D72 
 422 12ec D8CC91F6 		.ascii	"\330\314\221\366h\263\315\032i\211\013X\037\021\027"
 422      68B3CD1A 
 422      69890B58 
 422      1F1117
 423 12fb BDC1146B 		.ascii	"\275\301\024k\212Z\267\316nu\350M&\034\2167^\026\254"
 423      8A5AB7CE 
 423      6E75E84D 
 423      261C8E37 
 423      5E16AC
 424 130e 8B82966D 		.ascii	"\213\202\226m\326u0n\273\305\032\351\010\224\013\314"
 424      D675306E 
 424      BBC51AE9 
 424      08940BCC 
 425 131e 1C236183 		.ascii	"\034#a\2035|\375\006\207icT\230uY\270\335\024m^o5Y\""
 425      357CFD06 
 425      87696354 
 425      987559B8 
 425      DD146D5E 
 426 1336 C2A34D9B 		.ascii	"\302\243M\233\302#\303\2426\2616\2556\273\325\342\010"
 426      C223C3A2 
 426      36B136AD 
 426      36BBD5E2 
 426      08
ARM GAS  C:\Users\info\AppData\Local\Temp\ccH0EqLZ.s 			page 34


 427 1347 8F8AF4E5 		.ascii	"\217\212\364\345O\204G\256\213\372\310\3560\333\034"
 427      4F8447AE 
 427      8BFAC8EE 
 427      30DB1C
 428 1356 A6E828BB 		.ascii	"\246\350(\273)\"j\223\325f2\033pfW\177mr\350]7\002+"
 428      29226A93 
 428      D566321B 
 428      7066577F 
 428      6D72E85D 
 429 136d 263A1A58 		.ascii	"&:\032X\337\030%]\240\037\233\331\317\254\334\373\272"
 429      DF18255D 
 429      A01F9BD9 
 429      CFACDCFB 
 429      BA
 430 137e 2AD6EBA5 		.ascii	"*\326\353\245\322o\364q\256\221\271\206\030\270\321"
 430      D26FF471 
 430      AE91B986 
 430      18B8D1
 431 138d 1C6BB26C 		.ascii	"\034k\262l0\333$\255\003d\274)<\314\261a\001\030\011"
 431      30DB24AD 
 431      0364BC29 
 431      3CCCB161 
 431      011809
 432 13a0 4600FD84 		.ascii	"F\000\375\204Y#\034fSl\240\\\300Iq\0368v\221;\306F\027"
 432      59231C66 
 432      536CA05C 
 432      C049711E 
 432      3876913B 
 433 13b7 BA17F296 		.ascii	"\272\027\362\226\015r\331j\345v\225>44\226\033\316\027"
 433      0D72D96A 
 433      E576953E 
 433      3434961B 
 433      CE17
 434 13c9 67C212E9 		.ascii	"g\302\022\351\370\310\304gQ\266\223\273\015\"\303-\300"
 434      F8C8C467 
 434      51B693BB 
 434      0D22C32D 
 434      C0
 435 13da 5EE049F1 		.ascii	"^\340I\361\343\367aVV\251\017]\2173\256_'\335\004\300"
 435      E3F76156 
 435      56A90F5D 
 435      8F33AE5F 
 435      27DD04C0 
 436 13ee AC28D3EE 		.ascii	"\254(\323\356\010@\236\011\324`\215\032\261kT\335\017"
 436      08409E09 
 436      D4608D1A 
 436      B16B54DD 
 436      0F
 437 13ff 015799C4 		.ascii	"\001W\231\304\221X=t\275\336\3520\305\271nb\015\322"
 437      91583D74 
 437      BDDEEA30 
 437      C5B96E62 
 437      0DD2
 438 1411 D3D10EDB 		.ascii	"\323\321\016\333BAU\251\324A\303\302mA\357\027\007p"
 438      424155A9 
 438      D441C3C2 
 438      6D41EF17 
ARM GAS  C:\Users\info\AppData\Local\Temp\ccH0EqLZ.s 			page 35


 438      0770
 439 1423 64314758 		.ascii	"d1GXL\337\202\377|\2420\3442\323\272HhS\307\012}\270"
 439      4CDF82FF 
 439      7CA230E4 
 439      32D3BA48 
 439      6853C70A 
 440 1439 FBC4AD96 		.ascii	"\373\304\255\226\256\253\360\032+\341\330U>1v\260\036"
 440      AEABF01A 
 440      2BE1D855 
 440      3E3176B0 
 440      1E
 441 144a D4E355C2 		.ascii	"\324\343U\302\261\022\216]\345\215\203\361\342\303\360"
 441      B1128E5D 
 441      E58D83F1 
 441      E2C3F0
 442 1459 0E8D5907 		.ascii	"\016\215Y\007\\\274\254\012\210\016\217\265F\230,16"
 442      5CBCAC0A 
 442      880E8FB5 
 442      46982C31 
 442      36
 443 146a 9BC916B5 		.ascii	"\233\311\026\265i\001BV\207\317\004*\005\374i\177\007"
 443      69014256 
 443      87CF042A 
 443      05FC697F 
 443      07
 444 147b 2C67991E 		.ascii	",g\231\036\310\221\3026\312\030T\327ZB\003c\242\303"
 444      C891C236 
 444      CA1854D7 
 444      5A420363 
 444      A2C3
 445 148d CC0E2BAE 		.ascii	"\314\016+\256\001p\377%\270@\335\013M\226\320\005RQ"
 445      0170FF25 
 445      B840DD0B 
 445      4D96D005 
 445      5251
 446 149f 58F8466B 		.ascii	"X\370Fk\244\035\326\305R\221(\227\0023\000\327t(,z["
 446      A41DD6C5 
 446      52912897 
 446      023300D7 
 446      74282C7A 
 447 14b4 8CC5A1E7 		.ascii	"\214\305\241\347\013:\342\257V\241\013\270\020\020|"
 447      0B3AE2AF 
 447      56A10BB8 
 447      10107C
 448 14c3 5D44876F 		.ascii	"]D\207oD\204i\303\267\021\020\260\026\013$W\031Pt1k"
 448      448469C3 
 448      B71110B0 
 448      160B2457 
 448      19507431 
 449 14d8 62D78017 		.ascii	"b\327\200\027\204F\305DZ\254\3202t\272D\206\021f;\370"
 449      8446C544 
 449      5AACD032 
 449      74BA4486 
 449      11663BF8 
 450 14ec 05A8C9CB 		.ascii	"\005\250\311\313\377H.w\305>\271\312o}tx\024D\003;\224"
 450      FF482E77 
 450      C53EB9CA 
ARM GAS  C:\Users\info\AppData\Local\Temp\ccH0EqLZ.s 			page 36


 450      6F7D7478 
 450      1444033B 
 451 1501 1A621CEB 		.ascii	"\032b\034\353\326`14\374m8\360\315aa,\366\371\205\177"
 451      D6603134 
 451      FC6D38F0 
 451      CD61612C 
 451      F6F9857F 
 452 1515 6131710F 		.ascii	"a1q\017\266\206\361{\251|\0218\245\344\301\337\262\360"
 452      B686F17B 
 452      A97C1138 
 452      A5E4C1DF 
 452      B2F0
 453 1527 C097811E 		.ascii	"\300\227\201\036\242R\024\004\267\365\276\2411v\010"
 453      A2521404 
 453      B7F5BEA1 
 453      317608
 454 1536 225196DF 		.ascii	"\"Q\226\337KQ\341\313/\244\250\300n>\342=\233#\303\330"
 454      4B51E1CB 
 454      2FA4A8C0 
 454      6E3EE23D 
 454      9B23C3D8 
 455 154a 3235C7C1 		.ascii	"25\307\301\220\374\330\220L\033\355\340\361\241>\241"
 455      90FCD890 
 455      4C1BEDE0 
 455      F1A13EA1 
 456 155a 710E364C 		.ascii	"q\0166Lo\2139\014.\206\260p{4\262|\"\255\261\340q\241"
 456      6F8B390C 
 456      2E86B070 
 456      7B34B27C 
 456      22ADB1E0 
 457 1570 46CEE68B 		.ascii	"F\316\346\213\023\200\253\236-%?\234~>\365\037\255\003"
 457      1380AB9E 
 457      2D253F9C 
 457      7E3EF51F 
 457      AD03
 458 1582 6F635AC9 		.ascii	"ocZ\311\001r\201\313\006\256\002?>\377\350\013\006~"
 458      017281CB 
 458      06AE023F 
 458      3EFFE80B 
 458      067E
 459 1594 CF9F5CB4 		.ascii	"\317\237\\\264\311\026\316&<&\302.\225\230\"\355A0\267"
 459      C916CE26 
 459      3C26C22E 
 459      959822ED 
 459      4130B7
 460 15a7 66133C14 		.ascii	"f\023<\024\003A\030f\030\212\0261{\310#5\255^\265\352"
 460      03411866 
 460      188A1631 
 460      7BC82335 
 460      AD5EB5EA 
 461 15bb F7BFF94E 		.ascii	"\367\277\371No\217\016\347\3060\332\241\014k6|\027\304"
 461      6F8F0EE7 
 461      C630DAA1 
 461      0C6B367C 
 461      17C4
 462 15cd 807B831F 		.ascii	"\200{\203\037\331\303<\332\013\202\345\314\3423\024"
 462      D9C33CDA 
ARM GAS  C:\Users\info\AppData\Local\Temp\ccH0EqLZ.s 			page 37


 462      0B82E5CC 
 462      E23314
 463 15dc 9A369961 		.ascii	"\2326\231ayo\264/B$>\271\321\276\024v%\030>\254%\030"
 463      796FB42F 
 463      42243EB9 
 463      D1BE1476 
 463      25183EAC 
 464 15f2 BB3994A9 		.ascii	"\2739\224\251\315\330\221P\301\032\3405\326H\261\"\310"
 464      CDD89150 
 464      C11AE035 
 464      D648B122 
 464      C8
 465 1603 8D1D61FD 		.ascii	"\215\035a\375\326\032\361\221H\343%K\271YEsJ^kD\253"
 465      D61AF191 
 465      48E3254B 
 465      B9594573 
 465      4A5E6B44 
 466 1618 A29D3C37 		.ascii	"\242\235<7\252\3305\260Q-|\377Q\007\316)\266\260PvC"
 466      AAD835B0 
 466      512D7CFF 
 466      5107CE29 
 466      B6B05076 
 467 162d F43736D5 		.ascii	"\36476\325\336\274\336\201\233 \322\202\300\251\314"
 467      DEBCDE81 
 467      9B20D282 
 467      C0A9CC
 468 163c 318E28D7 		.ascii	"1\216(\327&d5\333\274y\265\343\223\367\266G\023[\015"
 468      266435DB 
 468      BC79B5E3 
 468      93F7B647 
 468      135B0D
 469 164f 2B2D9A00 		.ascii	"+-\232\0009\317\370W\246\245\201C\276\245\376\0273^"
 469      39CFF857 
 469      A6A58143 
 469      BEA5FE17 
 469      335E
 470 1661 5B16     		.ascii	"[\026"
 471              		.text
 472              		.section	.gnu.lto_.symtab.792bc0d5,"",%progbits
 473 0000 75386732 		.ascii	"u8g2_DrawLine\000"
 473      5F447261 
 473      774C696E 
 473      6500
 474 000e 00       		.ascii	"\000"
 475 000f 00       		.ascii	"\000"
 476 0010 00       		.ascii	"\000"
 477 0011 00000000 		.ascii	"\000\000\000\000\000\000\000\000"
 477      00000000 
 478 0019 1C020000 		.ascii	"\034\002\000\000"
 479 001d 75386732 		.ascii	"u8g2_DrawPixel\000"
 479      5F447261 
 479      77506978 
 479      656C00
 480 002c 00       		.ascii	"\000"
 481 002d 02       		.ascii	"\002"
 482 002e 00       		.ascii	"\000"
 483 002f 00000000 		.ascii	"\000\000\000\000\000\000\000\000"
ARM GAS  C:\Users\info\AppData\Local\Temp\ccH0EqLZ.s 			page 38


 483      00000000 
 484 0037 22020000 		.ascii	"\"\002\000\000"
 485              		.text
 486              		.section	.gnu.lto_.opts,"",%progbits
 487 0000 272D666D 		.ascii	"'-fmath-errno' '-fsigned-zeros' '-ftrapping-math' '"
 487      6174682D 
 487      6572726E 
 487      6F272027 
 487      2D667369 
 488 0033 2D666E6F 		.ascii	"-fno-trapv' '-fno-strict-overflow' '-fno-openmp' '-"
 488      2D747261 
 488      70762720 
 488      272D666E 
 488      6F2D7374 
 489 0066 666E6F2D 		.ascii	"fno-openacc' '-mcpu=cortex-m3' '-mthumb' '-g' '-Og'"
 489      6F70656E 
 489      61636327 
 489      20272D6D 
 489      6370753D 
 490 0099 20272D66 		.ascii	" '-ffunction-sections' '-ffat-lto-objects' '-flto'\000"
 490      66756E63 
 490      74696F6E 
 490      2D736563 
 490      74696F6E 
 491              		.text
 492              		.cfi_sections	.debug_frame
 493              		.section	.text.u8g2_DrawLine,"ax",%progbits
 494              		.align	2
 495              		.global	u8g2_DrawLine
 496              		.thumb
 497              		.thumb_func
 498              		.type	u8g2_DrawLine, %function
 499              	u8g2_DrawLine:
 500              	.LFB0:
 501              		.file 1 "..\\u8g2_csrc\\u8g2_line.c"
   1:..\u8g2_csrc/u8g2_line.c **** /*
   2:..\u8g2_csrc/u8g2_line.c **** 
   3:..\u8g2_csrc/u8g2_line.c ****   u8g2_box.c
   4:..\u8g2_csrc/u8g2_line.c **** 
   5:..\u8g2_csrc/u8g2_line.c ****   Universal 8bit Graphics Library (https://github.com/olikraus/u8g2/)
   6:..\u8g2_csrc/u8g2_line.c **** 
   7:..\u8g2_csrc/u8g2_line.c ****   Copyright (c) 2016, olikraus@gmail.com
   8:..\u8g2_csrc/u8g2_line.c ****   All rights reserved.
   9:..\u8g2_csrc/u8g2_line.c **** 
  10:..\u8g2_csrc/u8g2_line.c ****   Redistribution and use in source and binary forms, with or without modification, 
  11:..\u8g2_csrc/u8g2_line.c ****   are permitted provided that the following conditions are met:
  12:..\u8g2_csrc/u8g2_line.c **** 
  13:..\u8g2_csrc/u8g2_line.c ****   * Redistributions of source code must retain the above copyright notice, this list 
  14:..\u8g2_csrc/u8g2_line.c ****     of conditions and the following disclaimer.
  15:..\u8g2_csrc/u8g2_line.c ****     
  16:..\u8g2_csrc/u8g2_line.c ****   * Redistributions in binary form must reproduce the above copyright notice, this 
  17:..\u8g2_csrc/u8g2_line.c ****     list of conditions and the following disclaimer in the documentation and/or other 
  18:..\u8g2_csrc/u8g2_line.c ****     materials provided with the distribution.
  19:..\u8g2_csrc/u8g2_line.c **** 
  20:..\u8g2_csrc/u8g2_line.c ****   THIS SOFTWARE IS PROVIDED BY THE COPYRIGHT HOLDERS AND 
  21:..\u8g2_csrc/u8g2_line.c ****   CONTRIBUTORS "AS IS" AND ANY EXPRESS OR IMPLIED WARRANTIES, 
  22:..\u8g2_csrc/u8g2_line.c ****   INCLUDING, BUT NOT LIMITED TO, THE IMPLIED WARRANTIES OF 
ARM GAS  C:\Users\info\AppData\Local\Temp\ccH0EqLZ.s 			page 39


  23:..\u8g2_csrc/u8g2_line.c ****   MERCHANTABILITY AND FITNESS FOR A PARTICULAR PURPOSE ARE 
  24:..\u8g2_csrc/u8g2_line.c ****   DISCLAIMED. IN NO EVENT SHALL THE COPYRIGHT HOLDER OR 
  25:..\u8g2_csrc/u8g2_line.c ****   CONTRIBUTORS BE LIABLE FOR ANY DIRECT, INDIRECT, INCIDENTAL, 
  26:..\u8g2_csrc/u8g2_line.c ****   SPECIAL, EXEMPLARY, OR CONSEQUENTIAL DAMAGES (INCLUDING, BUT 
  27:..\u8g2_csrc/u8g2_line.c ****   NOT LIMITED TO, PROCUREMENT OF SUBSTITUTE GOODS OR SERVICES; 
  28:..\u8g2_csrc/u8g2_line.c ****   LOSS OF USE, DATA, OR PROFITS; OR BUSINESS INTERRUPTION) HOWEVER 
  29:..\u8g2_csrc/u8g2_line.c ****   CAUSED AND ON ANY THEORY OF LIABILITY, WHETHER IN CONTRACT, 
  30:..\u8g2_csrc/u8g2_line.c ****   STRICT LIABILITY, OR TORT (INCLUDING NEGLIGENCE OR OTHERWISE) 
  31:..\u8g2_csrc/u8g2_line.c ****   ARISING IN ANY WAY OUT OF THE USE OF THIS SOFTWARE, EVEN IF 
  32:..\u8g2_csrc/u8g2_line.c ****   ADVISED OF THE POSSIBILITY OF SUCH DAMAGE.  
  33:..\u8g2_csrc/u8g2_line.c **** 
  34:..\u8g2_csrc/u8g2_line.c **** */
  35:..\u8g2_csrc/u8g2_line.c **** 
  36:..\u8g2_csrc/u8g2_line.c **** #include "u8g2.h"
  37:..\u8g2_csrc/u8g2_line.c **** 
  38:..\u8g2_csrc/u8g2_line.c **** 
  39:..\u8g2_csrc/u8g2_line.c **** void u8g2_DrawLine(u8g2_t *u8g2, u8g2_uint_t x1, u8g2_uint_t y1, u8g2_uint_t x2, u8g2_uint_t y2)
  40:..\u8g2_csrc/u8g2_line.c **** {
 502              		.loc 1 40 0
 503              		.cfi_startproc
 504              		@ args = 4, pretend = 0, frame = 8
 505              		@ frame_needed = 0, uses_anonymous_args = 0
 506              	.LVL0:
 507 0000 2DE9F04F 		push	{r4, r5, r6, r7, r8, r9, r10, fp, lr}
 508              		.cfi_def_cfa_offset 36
 509              		.cfi_offset 4, -36
 510              		.cfi_offset 5, -32
 511              		.cfi_offset 6, -28
 512              		.cfi_offset 7, -24
 513              		.cfi_offset 8, -20
 514              		.cfi_offset 9, -16
 515              		.cfi_offset 10, -12
 516              		.cfi_offset 11, -8
 517              		.cfi_offset 14, -4
 518 0004 83B0     		sub	sp, sp, #12
 519              		.cfi_def_cfa_offset 48
 520 0006 8246     		mov	r10, r0
 521 0008 0C46     		mov	r4, r1
 522 000a 1646     		mov	r6, r2
 523 000c 1F46     		mov	r7, r3
 524 000e 9DF83030 		ldrb	r3, [sp, #48]	@ zero_extendqisi2
 525              	.LVL1:
  41:..\u8g2_csrc/u8g2_line.c ****   u8g2_uint_t tmp;
  42:..\u8g2_csrc/u8g2_line.c ****   u8g2_uint_t x,y;
  43:..\u8g2_csrc/u8g2_line.c ****   u8g2_uint_t dx, dy;
  44:..\u8g2_csrc/u8g2_line.c ****   u8g2_int_t err;
  45:..\u8g2_csrc/u8g2_line.c ****   u8g2_int_t ystep;
  46:..\u8g2_csrc/u8g2_line.c **** 
  47:..\u8g2_csrc/u8g2_line.c ****   uint8_t swapxy = 0;
  48:..\u8g2_csrc/u8g2_line.c ****   
  49:..\u8g2_csrc/u8g2_line.c ****   /* no intersection check at the moment, should be added... */
  50:..\u8g2_csrc/u8g2_line.c **** 
  51:..\u8g2_csrc/u8g2_line.c ****   if ( x1 > x2 ) dx = x1-x2; else dx = x2-x1;
 526              		.loc 1 51 0
 527 0012 B942     		cmp	r1, r7
 528 0014 04D9     		bls	.L2
 529              		.loc 1 51 0 is_stmt 0 discriminator 1
ARM GAS  C:\Users\info\AppData\Local\Temp\ccH0EqLZ.s 			page 40


 530 0016 C7EB0108 		rsb	r8, r7, r1
 531 001a 5FFA88F8 		uxtb	r8, r8
 532              	.LVL2:
 533 001e 03E0     		b	.L3
 534              	.LVL3:
 535              	.L2:
 536              		.loc 1 51 0 discriminator 2
 537 0020 C1EB0708 		rsb	r8, r1, r7
 538 0024 5FFA88F8 		uxtb	r8, r8
 539              	.LVL4:
 540              	.L3:
  52:..\u8g2_csrc/u8g2_line.c ****   if ( y1 > y2 ) dy = y1-y2; else dy = y2-y1;
 541              		.loc 1 52 0 is_stmt 1
 542 0028 9E42     		cmp	r6, r3
 543 002a 04D9     		bls	.L4
 544              		.loc 1 52 0 is_stmt 0 discriminator 1
 545 002c C3EB060B 		rsb	fp, r3, r6
 546 0030 5FFA8BFB 		uxtb	fp, fp
 547              	.LVL5:
 548 0034 03E0     		b	.L5
 549              	.LVL6:
 550              	.L4:
 551              		.loc 1 52 0 discriminator 2
 552 0036 C6EB030B 		rsb	fp, r6, r3
 553 003a 5FFA8BFB 		uxtb	fp, fp
 554              	.LVL7:
 555              	.L5:
  53:..\u8g2_csrc/u8g2_line.c **** 
  54:..\u8g2_csrc/u8g2_line.c ****   if ( dy > dx ) 
 556              		.loc 1 54 0 is_stmt 1
 557 003e D845     		cmp	r8, fp
 558 0040 05D3     		bcc	.L15
 559 0042 5A46     		mov	r2, fp
 560              	.LVL8:
 561 0044 C346     		mov	fp, r8
 562              	.LVL9:
 563 0046 9046     		mov	r8, r2
 564              	.LVL10:
  47:..\u8g2_csrc/u8g2_line.c ****   
 565              		.loc 1 47 0
 566 0048 4FF00009 		mov	r9, #0
 567 004c 07E0     		b	.L6
 568              	.LVL11:
 569              	.L15:
 570 004e 3A46     		mov	r2, r7
 571              	.LVL12:
  55:..\u8g2_csrc/u8g2_line.c ****   {
  56:..\u8g2_csrc/u8g2_line.c ****     swapxy = 1;
  57:..\u8g2_csrc/u8g2_line.c ****     tmp = dx; dx =dy; dy = tmp;
  58:..\u8g2_csrc/u8g2_line.c ****     tmp = x1; x1 =y1; y1 = tmp;
  59:..\u8g2_csrc/u8g2_line.c ****     tmp = x2; x2 =y2; y2 = tmp;
 572              		.loc 1 59 0
 573 0050 1F46     		mov	r7, r3
 574 0052 1346     		mov	r3, r2
 575 0054 2246     		mov	r2, r4
  58:..\u8g2_csrc/u8g2_line.c ****     tmp = x2; x2 =y2; y2 = tmp;
 576              		.loc 1 58 0
ARM GAS  C:\Users\info\AppData\Local\Temp\ccH0EqLZ.s 			page 41


 577 0056 3446     		mov	r4, r6
 578 0058 1646     		mov	r6, r2
  56:..\u8g2_csrc/u8g2_line.c ****     tmp = dx; dx =dy; dy = tmp;
 579              		.loc 1 56 0
 580 005a 4FF00109 		mov	r9, #1
 581              	.LVL13:
 582              	.L6:
  60:..\u8g2_csrc/u8g2_line.c ****   }
  61:..\u8g2_csrc/u8g2_line.c ****   if ( x1 > x2 ) 
 583              		.loc 1 61 0
 584 005e BC42     		cmp	r4, r7
 585 0060 05D9     		bls	.L7
 586 0062 3246     		mov	r2, r6
  62:..\u8g2_csrc/u8g2_line.c ****   {
  63:..\u8g2_csrc/u8g2_line.c ****     tmp = x1; x1 =x2; x2 = tmp;
  64:..\u8g2_csrc/u8g2_line.c ****     tmp = y1; y1 =y2; y2 = tmp;
 587              		.loc 1 64 0
 588 0064 1E46     		mov	r6, r3
 589              	.LVL14:
 590 0066 1346     		mov	r3, r2
 591              	.LVL15:
 592 0068 2246     		mov	r2, r4
  63:..\u8g2_csrc/u8g2_line.c ****     tmp = y1; y1 =y2; y2 = tmp;
 593              		.loc 1 63 0
 594 006a 3C46     		mov	r4, r7
 595              	.LVL16:
 596 006c 1746     		mov	r7, r2
 597              	.LVL17:
 598              	.L7:
  65:..\u8g2_csrc/u8g2_line.c ****   }
  66:..\u8g2_csrc/u8g2_line.c ****   err = dx >> 1;
 599              		.loc 1 66 0
 600 006e 4BF34705 		sbfx	r5, fp, #1, #8
 601              	.LVL18:
  67:..\u8g2_csrc/u8g2_line.c ****   if ( y2 > y1 ) ystep = 1; else ystep = -1;
 602              		.loc 1 67 0
 603 0072 9E42     		cmp	r6, r3
 604 0074 02D2     		bcs	.L17
 605 0076 0123     		movs	r3, #1
 606              	.LVL19:
 607 0078 0193     		str	r3, [sp, #4]
 608 007a 02E0     		b	.L8
 609              	.LVL20:
 610              	.L17:
 611 007c 4FF0FF33 		mov	r3, #-1
 612              	.LVL21:
 613 0080 0193     		str	r3, [sp, #4]
 614              	.L8:
 615              	.LVL22:
  68:..\u8g2_csrc/u8g2_line.c ****   y = y1;
  69:..\u8g2_csrc/u8g2_line.c **** 
  70:..\u8g2_csrc/u8g2_line.c **** #ifndef  U8G2_16BIT
  71:..\u8g2_csrc/u8g2_line.c ****   if ( x2 == 255 )
 616              		.loc 1 71 0
 617 0082 FF2F     		cmp	r7, #255
 618 0084 1FD1     		bne	.L10
  72:..\u8g2_csrc/u8g2_line.c ****     x2--;
ARM GAS  C:\Users\info\AppData\Local\Temp\ccH0EqLZ.s 			page 42


 619              		.loc 1 72 0
 620 0086 013F     		subs	r7, r7, #1
 621              	.LVL23:
 622 0088 FFB2     		uxtb	r7, r7
 623              	.LVL24:
  73:..\u8g2_csrc/u8g2_line.c **** #else
  74:..\u8g2_csrc/u8g2_line.c ****   if ( x2 == 0xffff )
  75:..\u8g2_csrc/u8g2_line.c ****     x2--;
  76:..\u8g2_csrc/u8g2_line.c **** #endif
  77:..\u8g2_csrc/u8g2_line.c **** 
  78:..\u8g2_csrc/u8g2_line.c ****   for( x = x1; x <= x2; x++ )
 624              		.loc 1 78 0
 625 008a 1CE0     		b	.L10
 626              	.LVL25:
 627              	.L14:
  79:..\u8g2_csrc/u8g2_line.c ****   {
  80:..\u8g2_csrc/u8g2_line.c ****     if ( swapxy == 0 ) 
 628              		.loc 1 80 0
 629 008c B9F1000F 		cmp	r9, #0
 630 0090 05D1     		bne	.L11
  81:..\u8g2_csrc/u8g2_line.c ****       u8g2_DrawPixel(u8g2, x, y); 
 631              		.loc 1 81 0
 632 0092 3246     		mov	r2, r6
 633 0094 2146     		mov	r1, r4
 634 0096 5046     		mov	r0, r10
 635 0098 FFF7FEFF 		bl	u8g2_DrawPixel
 636              	.LVL26:
 637 009c 04E0     		b	.L12
 638              	.L11:
  82:..\u8g2_csrc/u8g2_line.c ****     else 
  83:..\u8g2_csrc/u8g2_line.c ****       u8g2_DrawPixel(u8g2, y, x); 
 639              		.loc 1 83 0
 640 009e 2246     		mov	r2, r4
 641 00a0 3146     		mov	r1, r6
 642 00a2 5046     		mov	r0, r10
 643 00a4 FFF7FEFF 		bl	u8g2_DrawPixel
 644              	.LVL27:
 645              	.L12:
  84:..\u8g2_csrc/u8g2_line.c ****     err -= (uint8_t)dy;
 646              		.loc 1 84 0
 647 00a8 C8EB0505 		rsb	r5, r8, r5
 648              	.LVL28:
 649 00ac EBB2     		uxtb	r3, r5
 650 00ae 5DB2     		sxtb	r5, r3
 651              	.LVL29:
  85:..\u8g2_csrc/u8g2_line.c ****     if ( err < 0 ) 
 652              		.loc 1 85 0
 653 00b0 002D     		cmp	r5, #0
 654 00b2 06DA     		bge	.L13
  86:..\u8g2_csrc/u8g2_line.c ****     {
  87:..\u8g2_csrc/u8g2_line.c ****       y += (u8g2_uint_t)ystep;
 655              		.loc 1 87 0
 656 00b4 9DF80420 		ldrb	r2, [sp, #4]	@ zero_extendqisi2
 657 00b8 1644     		add	r6, r6, r2
 658              	.LVL30:
 659 00ba F6B2     		uxtb	r6, r6
 660              	.LVL31:
ARM GAS  C:\Users\info\AppData\Local\Temp\ccH0EqLZ.s 			page 43


  88:..\u8g2_csrc/u8g2_line.c ****       err += (u8g2_uint_t)dx;
 661              		.loc 1 88 0
 662 00bc 0BEB0305 		add	r5, fp, r3
 663              	.LVL32:
 664 00c0 6DB2     		sxtb	r5, r5
 665              	.LVL33:
 666              	.L13:
  78:..\u8g2_csrc/u8g2_line.c ****   {
 667              		.loc 1 78 0 discriminator 2
 668 00c2 0134     		adds	r4, r4, #1
 669              	.LVL34:
 670 00c4 E4B2     		uxtb	r4, r4
 671              	.LVL35:
 672              	.L10:
  78:..\u8g2_csrc/u8g2_line.c ****   {
 673              		.loc 1 78 0 is_stmt 0 discriminator 1
 674 00c6 A742     		cmp	r7, r4
 675 00c8 E0D2     		bcs	.L14
  89:..\u8g2_csrc/u8g2_line.c ****     }
  90:..\u8g2_csrc/u8g2_line.c ****   }
  91:..\u8g2_csrc/u8g2_line.c **** }
 676              		.loc 1 91 0 is_stmt 1
 677 00ca 03B0     		add	sp, sp, #12
 678              		.cfi_def_cfa_offset 36
 679              		@ sp needed
 680 00cc BDE8F08F 		pop	{r4, r5, r6, r7, r8, r9, r10, fp, pc}
 681              		.cfi_endproc
 682              	.LFE0:
 683              		.size	u8g2_DrawLine, .-u8g2_DrawLine
 684              		.text
 685              	.Letext0:
 686              		.file 2 "c:\\program files (x86)\\cypress\\psoc creator\\4.2\\psoc creator\\import\\gnu\\arm\\5.4.
 687              		.file 3 "c:\\program files (x86)\\cypress\\psoc creator\\4.2\\psoc creator\\import\\gnu\\arm\\5.4.
 688              		.file 4 "..\\u8g2_csrc\\u8x8.h"
 689              		.file 5 "..\\u8g2_csrc\\u8g2.h"