ARM GAS  C:\Users\info\AppData\Local\Temp\ccFLHjfD.s 			page 1


   1              		.syntax unified
   2              		.cpu cortex-m3
   3              		.fpu softvfp
   4              		.eabi_attribute 20, 1
   5              		.eabi_attribute 21, 1
   6              		.eabi_attribute 23, 3
   7              		.eabi_attribute 24, 1
   8              		.eabi_attribute 25, 1
   9              		.eabi_attribute 26, 1
  10              		.eabi_attribute 30, 1
  11              		.eabi_attribute 34, 1
  12              		.eabi_attribute 18, 4
  13              		.thumb
  14              		.syntax unified
  15              		.file	"u8g2_input_value.c"
  16              		.text
  17              	.Ltext0:
  18              		.section	.gnu.lto_.profile.792bc55d,"",%progbits
  19 0000 789C6361 		.ascii	"x\234ca`d`e`\000\222O\031\323\000\003\225\001X"
  19      60646065 
  19      6000924F 
  19      19D30003 
  19      950158
  20              		.text
  21              		.section	.gnu.lto_.inline.792bc55d,"",%progbits
  22 0000 789C458E 		.ascii	"x\234E\216\321\015\2030\014D\317\227\024\220 E|\323"
  22      D10D8330 
  22      0C44CF97 
  22      14902045 
  22      7CD3
  23 0012 4DBA4324 		.ascii	"M\272C$v\342\217V\312\004\235\303\003\364\267\2370\003"
  23      76E28F56 
  23      CA049DC3 
  23      03F4B79F 
  23      3003
  24 0024 63805329 		.ascii	"c\200S)\334\317\371\236\317\222=\004\246\017.\235d\307"
  24      DCCFF99E 
  24      CF923D04 
  24      A60F2E9D 
  24      64C7
  25 0036 F61070FA 		.ascii	"\366\020p\372\275\237\010\353\2274\356:B^.\233\362v"
  25      BD9F08EB 
  25      9734EE3A 
  25      425E2E9B 
  25      F276
  26 0048 27BC32C5 		.ascii	"'\2742\305\024\225U_B\212>\020\234\353B\347\332*\315"
  26      1495555F 
  26      428A3E10 
  26      9CEB42E7 
  26      DA2ACD
  27 005b 40544A58 		.ascii	"@TJXK\251d+\220e\364\001\340\377*\017(\300u\347+)\262"
  27      4BA9642B 
  27      9065F401 
  27      E0FF2A0F 
  27      28C075E7 
  28 0072 CD66C9D6 		.ascii	"\315f\311\3268\0004\031\036}"
  28      38003419 
ARM GAS  C:\Users\info\AppData\Local\Temp\ccFLHjfD.s 			page 2


  28      1E7D
  29              		.text
  30              		.section	.gnu.lto_.jmpfuncs.792bc55d,"",%progbits
  31 0000 789C6361 		.ascii	"x\234ca`d\000\001a\006\004`d\300\000\000\003H\000\032"
  31      60640001 
  31      61060460 
  31      64C00000 
  31      0348001A 
  32              		.text
  33              		.section	.gnu.lto_.pureconst.792bc55d,"",%progbits
  34 0000 789C6361 		.ascii	"x\234ca`d`f`\000\222R\000\000r\000$"
  34      60646066 
  34      60009252 
  34      00007200 
  34      24
  35              		.text
  36              		.section	.gnu.lto_u8g2_UserInterfaceInputValue.792bc55d,"",%progbits
  37 0000 789C8D57 		.ascii	"x\234\215W{L\224W\026\277\347\273\363bf\230\3411<EK"
  37      7B4C9457 
  37      16BFE7BB 
  37      F3626698 
  37      E1313C45 
  38 0015 AB168D2F 		.ascii	"\253\026\215/\242\361\355\312\332h4f\377\330\307_\233"
  38      A2F1EDCA 
  38      DA683466 
  38      FFD8C75F 
  38      9B
  39 0026 D818A344 		.ascii	"\330\030\243DI\250\032\305\256&\273\341\303a\300\270"
  39      49A81AC5 
  39      AE26BBE1 
  39      C361C0B8 
  40 0036 3EB0A5D6 		.ascii	">\260\245\326\326\326G7\306\307\242\310\262\272\"Pg"
  40      D6D64737 
  40      C6C7A2C8 
  40      B2BA2250 
  40      67
  41 0047 15011145 		.ascii	"\025\001\021E\300\226\252\365m\325v}AU\252\221\316\236"
  41      C096AAF5 
  41      6DD5767D 
  41      4155AA91 
  41      CE9E
  42 0059 73EE37C3 		.ascii	"s\3567\303kL\234\344{\334\363\235\337\371\375\356\271"
  42      6B4C9CE4 
  42      7BDCF39D 
  42      DFF9FDEE 
  42      B9
  43 006a E79EEF1B 		.ascii	"\347\236\357\033\223\000A\277\011\321B\024\343u\016"
  43      930041BF 
  43      09D14214 
  43      E3750E
  44 0079 0E214980 		.ascii	"\016!I\200Vt^\210<\233\246\311uiB\267\233\350\354\224"
  44      56745E88 
  44      3C9BA6C9 
  44      756942B7 
  44      9BE8EC94 
  45 008d 60526693 		.ascii	"`Rf\223ff\263\207\315f\360(\263\007\342\350\006,\352"
  45      6666B387 
ARM GAS  C:\Users\info\AppData\Local\Temp\ccFLHjfD.s 			page 3


  45      CD66F028 
  45      B307E2E8 
  45      062CEA
  46 00a0 3A230EAC 		.ascii	":#\016\254\352\201UK\334P'\020`\313\267\" Q\331g\330"
  46      EA81554B 
  46      DC502710 
  46      60CBB722 
  46      2051D967 
  47 00b5 209EFDE3 		.ascii	" \236\375\343\265\210z\300\247\366\372FtrF@\254\202"
  47      B5887AC0 
  47      A7F6FA46 
  47      74724640 
  47      AC82
  48 00c7 D9B558B6 		.ascii	"\331\265X\266;\224\335\241E\362\320\251\206Nc\350V\303"
  48      3B94DDA1 
  48      45F2D0A9 
  48      864E63E8 
  48      56C3
  49 00d9 48CDC29A 		.ascii	"H\315\302\232\\\254\311\005\026\025\303\255E\263W\224"
  49      5CACC905 
  49      1615C3AD 
  49      45B35794 
  50 00e9 F28A3286 		.ascii	"\362\2122\206\011j\230\240\024\314\2106\3001\014\216"
  50      096A98A0 
  50      14CC8836 
  50      C0310C8E 
  51 00f9 09826301 		.ascii	"\011\202c\001\350F\267\201\310\325\244\311\354\261\304"
  51      E846B781 
  51      C8D5A4C9 
  51      ECB1C4
  52 0108 59136DF1 		.ascii	"Y\023m\361\021v\2073\322\345\216J\210\216\211\205\\"
  52      11768733 
  52      D2E58E4A 
  52      888E8985 
  52      5C
  53 0119 539C503F 		.ascii	"S\234P?\253q\2157\256\317\264.\015\316v\326o\260\017"
  53      AB718D37 
  53      AECFB42E 
  53      0DCE76D6 
  53      6FB00F
  54 012c DFABEB6B 		.ascii	"\337\253\353k\365\033\2766\347\247\373\374\340\223B"
  54      F51BBE36 
  54      E7A7FBFC 
  54      E09342
  55 013b 043401E3 		.ascii	"\0044\001\343R =\005\375`/\014G\317\346\374\303_\310"
  55      52203D05 
  55      FD602F0C 
  55      47CFE6FC 
  55      C35FC8
  56 014e A79A4F02 		.ascii	"\247\232O\002\230p\330~\356\363\333.\032j\220\212\303"
  56      9870D87E 
  56      EEF3DB2E 
  56      1A6A908A 
  56      C3
  57 015f BCDA7B79 		.ascii	"\274\332{yn9\030\004\336\037\251=\262\303\225\266\207"
  57      6E391804 
  57      DE1FA93D 
ARM GAS  C:\Users\info\AppData\Local\Temp\ccFLHjfD.s 			page 4


  57      B2C395B6 
  57      87
  58 0170 62EAD599 		.ascii	"b\352\325\231z\204OJ8\000\222b\356\207\024\330\007)"
  58      7A844F4A 
  58      38009262 
  58      EE8714D8 
  58      0729
  59 0182 024D02FE 		.ascii	"\002M\002\376\011i\350\255\027\227\267H9\214\221\355"
  59      0969E8AD 
  59      1797B748 
  59      398C91ED 
  60 0192 178A8A22 		.ascii	"\027\212\212\"\014\344\226Z\247^\204bLP\322\027k\022"
  60      0CE4965A 
  60      A75E8462 
  60      4C50D217 
  60      6B12
  61 01a4 7090B167 		.ascii	"p\220\261gN\266nt\311\321\214\355lx\324\014\006\266"
  61      4EB66E74 
  61      C9D18CED 
  61      6C78D40C 
  61      06B6
  62 01b6 2D843D14 		.ascii	"-\204=\024\006[\312\330{U\205\027A\216elY\351\246]\232"
  62      065BCAD8 
  62      7B558517 
  62      418E656C 
  62      59E9A65D 
  63 01cb 81FDB84E 		.ascii	"\201\375\270Na\315p\270/\326,\240\214\261\273\312J2"
  63      61CD70B8 
  63      2FD62CA0 
  63      8CB1BBCA 
  63      4A32
  64 01dd E42486FE 		.ascii	"\344$\206\376\275\361\305^\233\001m\256s\350\351\230"
  64      BDF1C55E 
  64      9B016DAE 
  64      73E8E998 
  65 01ed 3EF89742 		.ascii	">\370\227B\252\014R>\241\234q\353^\235\275\032!\247"
  65      AA0C523E 
  65      A19C71EB 
  65      5E9DBD1A 
  65      21A7
  66 01ff 32705FEB 		.ascii	"2p_\353g\333\355\006\360E\020\370\357~\300#\014\274"
  66      67DBED06 
  66      F04510F8 
  66      EF7EC023 
  66      0CBC
  67 0211 7D6B43AB 		.ascii	"}kC\253CNg\340'-\345\277D\032\300\262\006\003x\264\037"
  67      434E67E0 
  67      272DE5BF 
  67      441AC0B2 
  67      060378B4 
  68 0226 F03F0C2C 		.ascii	"\360?\014,k\360\327\230\344,\006~\266\243\2651(\365"
  68      6BF0D798 
  68      E42C067E 
  68      B6A3B531 
  68      28F5
  69 0238 45433043 		.ascii	"EC0C\307\302d\250\002\322\010\260-\257k\247K\316epS"
  69      C7C264A8 
ARM GAS  C:\Users\info\AppData\Local\Temp\ccFLHjfD.s 			page 5


  69      02D208B0 
  69      2DAF6BA7 
  69      4BCE6570 
  70 024d F386AF22 		.ascii	"\363\206\257\"\206\376\203\300\376\353\037|\252\373"
  70      86FE83C0 
  70      FEEB1F7C 
  70      AAFB
  71 025b F35289F7 		.ascii	"\363R\211\367xO^\372\241\353\243\352\232b\267\374=\303"
  71      784F5EFA 
  71      A1EBA3EA 
  71      9A62B7FC 
  71      3DC3
  72 026d 4A8E776E 		.ascii	"J\216wnt\031\260\313\357\353\336\337\022\250*\014\350"
  72      7419B0CB 
  72      EFEBDEDF 
  72      12A82A0C 
  72      E8
  73 027e 5A60535D 		.ascii	"Z`S]\204\234\307\240.\377\261M`\200\332\016\202Af\201"
  73      849CC7A0 
  73      2EFFB14D 
  73      6080DA0E 
  73      82416681 
  74 0292 AFC3E03E 		.ascii	"\257\303\340>?^\270\326.\3473\316{\254\255\322\255p"
  74      3F5EB8D6 
  74      2EE733CE 
  74      7BACADD2 
  74      AD70
  75 02a4 7AF33C26 		.ascii	"z\363<&\263\200?\014hC\353\321qr\001cn7\225\024\230"
  75      B3803F0C 
  75      6843EBD1 
  75      71720163 
  75      6E379514 
  76 02b9 0DAE8BEF 		.ascii	"\015\256\213\357\033\230\223a0\353+\037>w\313\017\030"
  76      1B989361 
  76      30EB2B1F 
  76      3E77CB0F 
  76      18
  77 02ca D47670FD 		.ascii	"\324vp\375\237\015Lk\017}5a`U\353\317\276\262\311\345"
  77      9F0D4C6B 
  77      0F7D3561 
  77      6055EBCF 
  77      BEB2C9E5 
  78 02de 0CDB74BA 		.ascii	"\014\333t\272(\266\257\274\3320\230}\033\237\234\262"
  78      28B6AFBC 
  78      DA30987D 
  78      1B9F9CB2 
  79 02ee CB158CB9 		.ascii	"\313\025\214\271\365\370n\213\323\340j\376[\210\252"
  79      F5F86E8B 
  79      D3E06AFE 
  79      5B88AA
  80 02fd 3E0CAC7E 		.ascii	">\014\254~o\307z\220\271\014;\361b\335\020\003u\242"
  80      6FC77A90 
  80      B90C3BF1 
  80      62DD1003 
  80      75A2
  81 030f 7BB51AC2 		.ascii	"{\265\032\302\240\016\225<\275a\225\005\300\260\335"
  81      A00E953C 
ARM GAS  C:\Users\info\AppData\Local\Temp\ccFLHjfD.s 			page 6


  81      BD619505 
  81      C0B0DD
  82 031e 5D3F5EB2 		.ascii	"]?^\262\031\270\252\340r5\206A\335*\373\365\223HK\276"
  82      19B8AAE0 
  82      72358641 
  82      DD2AFBF5 
  82      93484BBE 
  83 0332 8EBF5438 		.ascii	"\216\277T8\007C\341,\036g\360\250\303\3434\036\247\360"
  83      0743E12C 
  83      1E67F0A8 
  83      C3E3341E 
  83      A7F0
  84 0344 F82F1E27 		.ascii	"\370/\036'\360\250\306\243\022\206RW\301\302<\217\015"
  84      F0A8C6A3 
  84      12865257 
  84      C1C23C8F 
  84      0D
  85 0355 58081BA3 		.ascii	"X\010\033\243^\207@\357\322?\372\365@\300\253\373+\315"
  85      5E8740EF 
  85      D23FFAF5 
  85      40C0ABFB 
  85      2BCD
  86 0367 1571BF03 		.ascii	"\025q\277\003A>\250\002\237J\336\025&*s;\320\216t\260"
  86      413EA802 
  86      9F4ADE15 
  86      262A733B 
  86      D08E74B0 
  87 037b C109D451 		.ascii	"\301\011\324Q\334h\266F\011\212\036M\2671x\262\305\362"
  87      DC68B646 
  87      098A1E4D 
  87      B73178B2 
  87      C5F2
  88 038d D803D436 		.ascii	"\330\003\3246\342\311\220 \210:\221\303%\361}2\231\007"
  88      E2C99020 
  88      883A91C3 
  88      25F17D32 
  88      9907
  89 039f 70A01441 		.ascii	"p\240\024A\232\0062\343 \240v\221*H\335;\3442\030O\021"
  89      9A0632E3 
  89      20A07691 
  89      2A48DD3B 
  89      E432184F 
  90 03b4 4380B6D7 		.ascii	"C\200\266\327P\272}\227Ni\364d\030;\015\007\332=#\310"
  90      50BA7D97 
  90      4E69F464 
  90      183B0D07 
  90      DA3D23C8 
  91 03c8 30920DA3 		.ascii	"0\222\015\243\350v\214\240\251\2453\337X>\217#\363x"
  91      E8768CA0 
  91      A9A533DF 
  91      583E8F23 
  91      F378
  92 03da 3A4D60A2 		.ascii	":M`\242\211L=\231\014S\330a\032m\305\3514\316\340\361"
  92      894C3D99 
  92      0C53D861 
  92      1A6DC5E9 
  92      34CEE0F1 
ARM GAS  C:\Users\info\AppData\Local\Temp\ccFLHjfD.s 			page 7


  93 03ee 7B743B53 		.ascii	"{t;SPjf\001\365\223\331\214\230\003t\236\313\367B<\301"
  93      506A6601 
  93      F593D98C 
  93      9803749E 
  93      CBF7423C 
  94 0403 0C1FD344 		.ascii	"\014\037\323D\273\246\341E\336\205\265/\327?:*)\345"
  94      BBA6E145 
  94      DE85B52F 
  94      D73F3A2A 
  94      29E5
  95 0415 5EE9C065 		.ascii	"^\351\300e\333\352;\331d\245\256mV=\263\256a\235s'|"
  95      DBEA3BD9 
  95      64A5AE6D 
  95      563DB3AE 
  95      619D7327 
  96 042a 9947EBB8 		.ascii	"\231G\353\270\222\022\352\225vh\3026 \340\002\354\004"
  96      9212EA95 
  96      7668C236 
  96      20E002EC 
  96      04
  97 043b 710BD6EA 		.ascii	"q\013\326\352\023y\305p\0151\204\270\017>\377\263H\262"
  97      1379C570 
  97      0D3184B8 
  97      0F3EFFB3 
  97      48B2
  98 044d 10BEA2E2 		.ascii	"\020\276\242\342\301\025kn\227\276N\327\243|\322\036"
  98      C1156B6E 
  98      97BE4ED7 
  98      A37CD21E 
  99 045d D0E8F5DC 		.ascii	"\320\350\365\334\014\271\030\306\331\223\015\337\342"
  99      0CB918C6 
  99      D9930DDF 
  99      E2
 100 046a D002293E 		.ascii	"\320\002)>\016\220\357\177\011\341\0038\003\250[@\253"
 100      0E90EF7F 
 100      09E10338 
 100      03A85B40 
 100      AB
 101 047b 0AE09391 		.ascii	"\012\340\223\221\002gp\274\254f\213Y\315\300\3353\246"
 101      026770BC 
 101      AC668B59 
 101      CDC0DD33 
 101      A6
 102 048c EC35036C 		.ascii	"\3545\003le.\304\300E\322\216\366=w\326\036\262\216"
 102      652EC4C0 
 102      45D28EF6 
 102      3D77D61E 
 102      B28E
 103 049e 19E5936E 		.ascii	"\031\345\223n\370\006'\362+U\236\200oa\014\205\354("
 103      F80627F2 
 103      2B559E80 
 103      6F610C85 
 103      EC28
 104 04b0 7C052A62 		.ascii	"|\005*b\024\006\305Ij<\305s4\305(\346l\257\331mpF\277"
 104      1406C549 
 104      6A3CC573 
 104      34C528E6 
ARM GAS  C:\Users\info\AppData\Local\Temp\ccFLHjfD.s 			page 8


 104      6CAFD96D 
 105 04c7 19491B93 		.ascii	"\031I\033\223\320\307\012|\327\227$\006\243\240\305"
 105      D0C70A7C 
 105      D7972406 
 105      A3A0C5
 106 04d6 BBCDA2C6 		.ascii	"\273\315\242\306\261\314\033\323\2337\226r\355\337^"
 106      B1CC1BD3 
 106      9B379672 
 106      EDDF5E
 107 04e5 C0B9A5DD 		.ascii	"\300\271\245\335D/\322\302\3062\273\312\037\300%$\245"
 107      442FD2C2 
 107      C632BBCA 
 107      1FC02524 
 107      A5
 108 04f6 E47D59EB 		.ascii	"\344}Y\353Ra\342\373\345/*\240Q\347\277\314\371\363"
 108      5261E2FB 
 108      E52F2AA0 
 108      51E7BFCC 
 108      F9F3
 109 0508 F814EBD6 		.ascii	"\370\024\353\326\202\213\206\216\004\304p\230 \361Y"
 109      828B868E 
 109      04C47098 
 109      20F159
 110 0517 224E60E2 		.ascii	"\"N`\342\362\002\017\233\316(\023\342>/hIR\270$\226"
 110      F2020F9B 
 110      CE2813E2 
 110      3E2F6849 
 110      52B82496 
 111 052b 9C1082B1 		.ascii	"\234\020\202\261O\022\303\252k\225\251\216\365\206\326"
 111      4F12C3AA 
 111      6B95A98E 
 111      F586D6
 112 053a 0637385C 		.ascii	"\00678\\A\"NeS\273\221\312\3447I\245\005\276\347Tr\253"
 112      41224E65 
 112      53BB91CA 
 112      E43749A5 
 112      05BEE754 
 113 0550 B88AA9BC 		.ascii	"\270\212\251\274\011\371\347\275\311!%\311\334\201\332"
 113      09F9E7BD 
 113      C92125C9 
 113      DC81DA
 114 055f 71A25F80 		.ascii	"q\242_\200$\011\255\2652(\201\236R\236\013Z\014\377"
 114      2409ADB5 
 114      3228819E 
 114      529E0B5A 
 114      0CFF
 115 0571 14B428A9 		.ascii	"\024\264(\251Z\267\017\311\362\036.\270l\370\014D\013"
 115      5AB70FC9 
 115      F21E2EB8 
 115      6CF80C44 
 115      0B
 116 0582 0A381DE8 		.ascii	"\0128\035\350\364\273I\273\015}\257\365H\022c\0062\247"
 116      F4BB49BB 
 116      0D7DAFF5 
 116      48126306 
 116      32A7
 117 0594 89361572 		.ascii	"\2116\025rF\011e\345\375\341\277n\344\200z\327\025^"
ARM GAS  C:\Users\info\AppData\Local\Temp\ccFLHjfD.s 			page 9


 117      460965E5 
 117      FDE1BF6E 
 117      E4807AD7 
 117      155E
 118 05a6 249FBFBD 		.ascii	"$\237\277\275\326\255\242\247\366[\244\230\000\306\021"
 118      D6ADA2A7 
 118      F65BA498 
 118      00C611
 119 05b5 705D15B9 		.ascii	"p]\025\271W\016\362\361\332\253\030\247(l*\207\370\271"
 119      570EF2F1 
 119      DAAB18A7 
 119      286C2A87 
 119      F8B9
 120 05c7 204E8578 		.ascii	" N\205x\347u!n\2046Z\365w\245\272\373\355\217`\247\276"
 120      E775216E 
 120      84365AF5 
 120      77A5BAFB 
 120      ED8F60A7 
 121 05dc 0DFBBC87 		.ascii	"\015\373\274\207\337;\233\017\035p \"\321'\343\340&"
 121      DF3B9B0F 
 121      1D702022 
 121      D127E3E0 
 121      26
 122 05ed BCCD3B0E 		.ascii	"\274\315;\016nA.\321\251\3624\226e0R\260\305\252\306"
 122      6E412ED1 
 122      A9F23496 
 122      653052B0 
 122      C5AAC6
 123 0600 A8600817 		.ascii	"\250`\010\027\200Q\256\357\262\313\320\3365\235\206"
 123      8051AEEF 
 123      B2CBD0DE 
 123      359D86
 124 060f 76AE2EC3 		.ascii	"v\256.\303i\030\312Fk\357\211\014S\355\"8\221\021\257"
 124      6918CA46 
 124      6BEF890C 
 124      53ED2238 
 124      9111AF
 125 0622 9BC8ED60 		.ascii	"\233\310\355`.\206+qX\263A\236\221\034zD\357\270#Ua"
 125      2E862B71 
 125      58B3419E 
 125      911C7A44 
 125      EFB82355 
 126 0637 5DBD69CC 		.ascii	"]\275i\314`\324\233\025\326\035.,I\205\365C\237\302"
 126      60D49B15 
 126      D61D2E2C 
 126      4985F543 
 126      9FC2
 127 0649 429A5154 		.ascii	"B\232QTW\035\270\321p\015\265\007\345\036\\tYu$\005"
 127      571DB8D1 
 127      700DB507 
 127      E51E5C74 
 127      59752405 
 128 065d 97DD1C2C 		.ascii	"\227\335\034,\265\227\226\340B\223;WZ\307\000\025`\014"
 128      B59796E0 
 128      42933B57 
 128      5AC70015 
 128      600C
ARM GAS  C:\Users\info\AppData\Local\Temp\ccFLHjfD.s 			page 10


 129 066f 5A485850 		.ascii	"ZHXP'\373\214Q\225\366\322\360IGK\257\322b\247t.-\017"
 129      27FB8C51 
 129      95F6D2F0 
 129      49474BAF 
 129      D262A774 
 130 0686 961620FD 		.ascii	"\226\026 \375X4\230y\363\230^\035\361t\300Dl\272\346"
 130      58349879 
 130      F3985E1D 
 130      F174C044 
 130      6CBAE6
 131 0699 EF1F52FB 		.ascii	"\357\037R\3736\221\237E4\232$\372%z\245\026\011x\212"
 131      36919F45 
 131      349A24FA 
 131      257AA516 
 131      09788A
 132 06ac A6530C9D 		.ascii	"\246S\014\235\\\320\001\003\274rVdc\363.\034\317\211"
 132      5CD00103 
 132      BC725664 
 132      63F32E1C 
 132      CF89
 133 06be AEF99357 		.ascii	"\256\371\223W\316\216y\320\372W\257\234\353\272\363"
 133      CE8E79D0 
 133      FA57AF9C 
 133      EBBAF3
 134 06cd 0744C789 		.ascii	"\007D\307\211|+\250\002\346~.\205\032\260\020\215\333"
 134      7C2BA802 
 134      E67E2E85 
 134      1AB0108D 
 134      DB
 135 06de CBF63AED 		.ascii	"\313\366:\355\265\315\331\214\231\273\333\335\234Q\206"
 135      B5CDD98C 
 135      99BBDBDD 
 135      9C5186
 136 06ed E695633D 		.ascii	"\346\225c=H\226hAr\351\225\023i0\000\267\177\273f\025"
 136      48966841 
 136      72E99513 
 136      693000B7 
 136      7FBB6615 
 137 0701 F8DF84D3 		.ascii	"\370\337\204\323V^\250\232\332i\265g\270\247?l6\336"
 137      565EA89A 
 137      DA69B567 
 137      B8A73F6C 
 137      36DE
 138 0713 4AE3FABE 		.ascii	"J\343\372\276\206*A\204]\302\203\364P\237J\013y\257"
 138      862A4184 
 138      5DC283F4 
 138      509F4A0B 
 138      79AF
 139 0725 7B21EFE3 		.ascii	"{!\357\343B\336\007\243Q\215\357':>\200\031\023\360"
 139      42DE07A3 
 139      518DEF27 
 139      3A3E8019 
 139      13F0
 140 0737 A3124D69 		.ascii	"\243\022MiE\005H\312\035\015;dB\357\0169\201\237\216"
 140      450548CA 
 140      1D0D3B64 
 140      42EF0E39 
ARM GAS  C:\Users\info\AppData\Local\Temp\ccFLHjfD.s 			page 11


 140      819F8E
 141 074a 0F2D102B 		.ascii	"\017-\020+\236\300\273\374(\357\016z\021\253L\025\372"
 141      9EC0BBFC 
 141      28EF0E7A 
 141      11AB4C15 
 141      FA
 142 075b 2BEA8C46 		.ascii	"+\352\214F<\271\037mb\000\247/\340\247`]k\034\032wz"
 142      3CB91F6D 
 142      6200A72F 
 142      E0A7605D 
 142      6B1C1A77 
 143 0770 526FBE29 		.ascii	"Ro\276)\374hr\210\217\243O\341]S\031\214>\255_\364\344"
 143      FC687288 
 143      8FA34FE1 
 143      5D53198C 
 143      3EAD5FF4 
 144 0785 8066C3E8 		.ascii	"\200f\303\350\377\343\350\230\364!>9\0001\306\366\235"
 144      FFE3E898 
 144      F4213E39 
 144      0031C6F6 
 144      9D
 145 0796 FE3A350F 		.ascii	"\376:5\017\202j\246\260\232i\375\324d\360\243\351\275"
 145      826AA6B0 
 145      9A69FDD4 
 145      64F0A3E9 
 145      BD
 146 07a7 D564F05C 		.ascii	"\325d\360\\\253\353d\370\2520b?\014\306\316\340\330"
 146      ABEB64F8 
 146      AA30623F 
 146      0CC6CEE0 
 146      D8
 147 07b8 C3293655 		.ascii	"\303)6U\323\211B\243\017\276\327\017\231\022\320\"\020"
 147      D38942A3 
 147      0FBED70F 
 147      9912D022 
 147      10
 148 07c9 F928584F 		.ascii	"\371(XO\003iC"
 148      036943
 149 07d0 5EF1C677 		.ascii	"^\361\306w\373\227>\250x\021\251Z\262\200\307\240\276"
 149      FB973EA8 
 149      7811A95A 
 149      B280C7A0 
 149      BE
 150 07e1 3D9F6889 		.ascii	"=\237h\211\002\377\254C;\346 \337*iO\304\213\306\337"
 150      02FFAC43 
 150      3BE620DF 
 150      2A694FC4 
 150      8BC6DF
 151 07f4 00B15D0F 		.ascii	"\000\261]\017\346lf?\266A\001\315\216lO\202lo\205fY"
 151      E66C663F 
 151      B64101CD 
 151      8E6C4F82 
 151      6C6F8566 
 152 0809 49B39C49 		.ascii	"I\263\234I\344\227\275\2677'w\007h\275\273;\337\251"
 152      E497BDB7 
 152      37277707 
 152      68BDBB3B 
ARM GAS  C:\Users\info\AppData\Local\Temp\ccFLHjfD.s 			page 12


 152      DFA9
 153 081b E82F209F 		.ascii	"\350/ \237\301\337\216\252w\000}Zm-\353\332\302Y\351"
 153      C1DF8EAA 
 153      77007D5A 
 153      6D2DEBDA 
 153      C259E9
 154 082e 5BC1E65E 		.ascii	"[\301\346^\337Q\035X\254\264\323\010j\027\207\246If"
 154      DF511D58 
 154      ACB4D308 
 154      6A1787A6 
 154      4966
 155 0840 EADCFC56 		.ascii	"\352\334\374V7\323\245\343z5(\246V\001?\207\230\034"
 155      37D3A5E3 
 155      7A3528A6 
 155      56013F87 
 155      981C
 156 0852 A278AA72 		.ascii	"\242x\252r\337\343\351\366\256\271YZbx7\013x\032\362"
 156      DFE3E9F6 
 156      AEB9595A 
 156      6278370B 
 156      781AF2
 157 0865 768A5793 		.ascii	"v\212W\223\225\367\001\331\355]_\372\3215c\026\027\005"
 157      95F701D9 
 157      ED5D5FFA 
 157      D1356316 
 157      1705
 158 0877 3C0B7947 		.ascii	"<\013yG\212\022\215\274/yK\213\2156\212\2454\307x\352"
 158      8A128DBC 
 158      2F794B8B 
 158      8D368AA5 
 158      34C778EA 
 159 088b 125B698E 		.ascii	"\022[i\216X\034\317\367MWO\347\242C\257\257\007\356"
 159      581CCFF7 
 159      4D574FE7 
 159      A243AFAF 
 159      07EE
 160 089d 2073D9DD 		.ascii	" s\331\335-\356OR\324?\364\020\272\177W\303\327VE\335"
 160      2DEE4F52 
 160      D43FF410 
 160      BA7F57C3 
 160      D75645DD 
 161 08b1 22E07988 		.ascii	"\"\340y\210:J|;\261\277\320\233{>.\216P\336\337\010"
 161      3A4A7C3B 
 161      B1BFD09B 
 161      7B3E2E8E 
 161      50DEDF08 
 162 08c5 E80C2D77 		.ascii	"\350\014-w\202\250\237\200\253\035-v\261\336&\357\343"
 162      82A89F80 
 162      AB1D2D76 
 162      B1DE26EF 
 162      E3
 163 08d6 1E7A6719 		.ascii	"\036zg\031!cDQP\357~C\357lt\240U\364\3264I\365\015\025"
 163      21634451 
 163      50EF7E43 
 163      EF6C74A0 
 163      55F4D634 
 164 08ee 00F8A5AF 		.ascii	"\000\370\245\257\376\331\014\217\245\027\373O\324\012"
ARM GAS  C:\Users\info\AppData\Local\Temp\ccFLHjfD.s 			page 13


 164      FED90C8F 
 164      A517FB4F 
 164      D40A
 165 08fc BDF8F797 		.ascii	"\275\370\367\227\032\233\211\246\032Qub\021}\267\332"
 165      1A9B89A6 
 165      1A517562 
 165      117DB7DA 
 166 090c 9F66A010 		.ascii	"\237f\240\020@'\374*I\035=z\336\252I\213\307\316_\270"
 166      4027FC2A 
 166      491D3D7A 
 166      DEAA498B 
 166      C7CE5FB8 
 167 0920 72C54275 		.ascii	"r\305Bu\227\265t\371\252\234\371\037.\310^\2259z\241"
 167      97B574F9 
 167      AA9CF91F 
 167      2EC85E95 
 167      397AA1
 168 0933 3091CD9C 		.ascii	"0\221\315\234\223\225\223\235)\227\257\3104\263]\313"
 168      9395939D 
 168      2997AFC8 
 168      34B35DCB 
 169 0943 5EA62DC9 		.ascii	"^\246-\311\262,\312Z\234\225\263\322\264|\331\312\034"
 169      B22CCA5A 
 169      9C95B3D2 
 169      B47CD9CA 
 169      1C
 170 0954 73E68799 		.ascii	"s\346\207\231Ks\034\331\313\026.\310VXm\365jX\355X\236"
 170      4B731CD9 
 170      CB162EC8 
 170      56586DF5 
 170      6A58ED58 
 171 0969 B53A337B 		.ascii	"\265:3{\376_\262\026\345,\321\326\254\2015NeX\222\231"
 171      FE5FB216 
 171      E52CD1D6 
 171      AC81354E 
 171      65589299 
 172 097d B578498E 		.ascii	"\265xI\216E]\034\331YK3\015\223\226.\376\0179Q\233Q"
 172      455D1CD9 
 172      594B330D 
 172      93962EFE 
 172      0F39519B 
 173              		.text
 174              		.section	.gnu.lto_.symbol_nodes.792bc55d,"",%progbits
 175 0000 789C55CC 		.ascii	"x\234U\314-\016\302@\020\206\341ov\266\277\206#\000"
 175      2D0EC240 
 175      1086E16F 
 175      76B6BF86 
 175      2300
 176 0012 37E0429C 		.ascii	"7\340B\234e*6AB\300\243\252\020\234\242A\326`p\374m"
 176      652A3641 
 176      42C0A3AA 
 176      109CA241 
 176      D66070FC 
 177 0027 1A442D12 		.ascii	"\032D-\022\302\226\226\204Q\357\367L\262kA\230\021\000"
 177      C2969684 
 177      51EFF74C 
 177      B26B4198 
ARM GAS  C:\Users\info\AppData\Local\Temp\ccFLHjfD.s 			page 14


 177      1100
 178 0039 03015635 		.ascii	"\003\001V5\272\354\212)@\271\320\367\000\024\305$8\023"
 178      BAEC8A29 
 178      40B9D0F7 
 178      0014C524 
 178      3813
 179 004b A39C082B 		.ascii	"\243\234\010+\247b\225c\211\224#\211\225\255$\312,\251"
 179      A7629563 
 179      89942389 
 179      95AD24CA 
 179      2CA9
 180 005d B2914C99 		.ascii	"\262\221L\231$\3777#\207\277\274\211\221\301]\273\246"
 180      24FF3723 
 180      87BFBC89 
 180      91C15DBB 
 180      A6
 181 006e 2817ED98 		.ascii	"(\027\355\230\221\240Z\366u\353\276~\3235F\271=\314"
 181      91A05AF6 
 181      75EBBE7E 
 181      D33546B9 
 181      3DCC
 182 0080 1911DCF9 		.ascii	"\031\021\334\371\331\2168|\341n\247\372\025\236Z\370"
 182      D98E387C 
 182      E16EA7FA 
 182      159E5AF8 
 183 0090 6185DBFD 		.ascii	"a\205\333\375\267\374\260\014\\\323/B\325<\366G\302"
 183      B7FCB00C 
 183      5CD32F42 
 183      D53CF647 
 183      C2
 184 00a1 0749004F 		.ascii	"\007I\000O\321"
 184      D1
 185              		.text
 186              		.section	.gnu.lto_.refs.792bc55d,"",%progbits
 187 0000 789C6361 		.ascii	"x\234ca`\004B \000\000\0009\000\007"
 187      60044220 
 187      00000039 
 187      0007
 188              		.text
 189              		.section	.gnu.lto_.decls.792bc55d,"",%progbits
 190 0000 789CCD5B 		.ascii	"x\234\315[yT\224\331\225\257\257^\001EQ\200\242\335"
 190      795494D9 
 190      95AFAF5E 
 190      01455180 
 190      A2DD
 191 0012 3A739CC4 		.ascii	":s\234\304\223\364t\2239i[\273;=&\377L:K\247\2233\351"
 191      93F47493 
 191      39695BBB 
 191      3B3D26FF 
 191      4C3A4BA7 
 192 0029 D3E7249D 		.ascii	"\323\347$\235\314\231q\246R@\251L\020HU\241\230\177"
 192      CC9971A6 
 192      5240A94C 
 192      104855A1 
 192      987F
 193 003b 52206EA8 		.ascii	"R n\250l\312\352\206\262\270\240\262\012\002\262\010"
 193      6CCAEA86 
ARM GAS  C:\Users\info\AppData\Local\Temp\ccFLHjfD.s 			page 15


 193      B2B8A0B2 
 193      0A02B208 
 194 004b 82E0C28E 		.ascii	"\202\340\302\216B\263\272\201\270\002b\243(0\367\275"
 194      42B3BA81 
 194      B80262A3 
 194      2830F7BD 
 195 005b FB7DF5BD 		.ascii	"\373}\365\275\017?:s\316L\317\231\352\276\326w\357\373"
 195      0F3F3A73 
 195      CE4CCF99 
 195      EABED677 
 195      EFFB
 196 006d 7DEFDD7B 		.ascii	"}\357\335{\337}\367\335\367}\205N#h\350\247\362#\215"
 196      DF7DF7DD 
 196      F77D854E 
 196      2368E8A7 
 196      F2238D
 197 0080 E607EE1A 		.ascii	"\346\007\356\032\315\367\201\235\205\217\026d\277\323"
 197      CDF7819D 
 197      858F1664 
 197      BFD3
 198 008e C81F0FA0 		.ascii	"\310\037\017\240\267A\370\017@+\200~\000\364#\240\237"
 198      B741F80F 
 198      402B807E 
 198      00F423A0 
 198      9F
 199 009f 02FD1CE8 		.ascii	"\002\375\034\350W@\237\001}\016\364\205V\363\332\207"
 199      57409F01 
 199      7D0EF485 
 199      56F3DA87 
 200 00af DEBB1CBE 		.ascii	"\336\273\034\276\313\201|\200\026\003=\205\261\012\340"
 200      CB817C80 
 200      16033D85 
 200      B10AE0
 201 00be BB0AE8BB 		.ascii	"\273\012\350\273p\275\004\276\227\001}N\307\006\374"
 201      70BD04BE 
 201      97017D4E 
 201      C706FC
 202 00cd 6F81BC80 		.ascii	"o\201\274\200\274\201&\240\275\005\344\277\207\353_"
 202      BC8126A0 
 202      BD05E4BF 
 202      87EB5F
 203 00dc 03FD0BD0 		.ascii	"\003\375\013\320/\201\376\025\350\337\200\326\000\375"
 203      2F81FE15 
 203      E8DF80D6 
 203      00FD
 204 00ea 04E8DF81 		.ascii	"\004\350\337\201>\004\372\017\240\037\002\231\200\336"
 204      3E04FA0F 
 204      A01F0299 
 204      80DE
 205 00f8 05FA03D0 		.ascii	"\005\372\003\320\367\200t\320\307\010\364u\017h\032"
 205      F78074D0 
 205      C708F475 
 205      0F681A
 206 0107 6846906D 		.ascii	"hF\220m\373B\324\3773\321\236\237\213\366I\266\256\020"
 206      FB42D4FF 
 206      33D19E9F 
 206      8BF649B6 
ARM GAS  C:\Users\info\AppData\Local\Temp\ccFLHjfD.s 			page 16


 206      AE10
 207 0119 ED9FFB99 		.ascii	"\355\237\373\231\326\012[n\335O\327\367\010\335\202"
 207      D60A5B6E 
 207      DD4FD7F7 
 207      08DD82
 208 0128 A011D847 		.ascii	"\240\021\330G#\372UC%\3427\275\020\220a\275\010\032"
 208      23FA5543 
 208      25E237BD 
 208      109061BD 
 208      081A
 209 013a 0925485D 		.ascii	"\011%H]\011\354?\370_\313\360\002\327\240\300\2619b"
 209      09EC3FF8 
 209      5FCBF002 
 209      D7A0C0B1 
 209      3962
 210 014c 1F592438 		.ascii	"\037Y$8?\022RPvJ{\225Y\340\265\362\015\\\177\242\366"
 210      3F125250 
 210      764A7B95 
 210      59E0B5F2 
 210      0D5C7FA2 
 211 0161 E2F8023F 		.ascii	"\342\370\002?,\353\232HF\337M:\322\355A\240O\270\036"
 211      2CEB9A48 
 211      46DF4D3A 
 211      D2ED41A0 
 211      4FB81E
 212 0174 7871FC93 		.ascii	"xq\374\223\025\247\034\360\211s8\264\377${\2465*\357"
 212      15A71CF0 
 212      897338B4 
 212      FF247BA6 
 212      352AEF
 213 0187 0099D00A 		.ascii	"\000\231\320\012>\006A\007\354\330\265\264\333^\300"
 213      3E064107 
 213      ECD8B5B4 
 213      DB5EC0
 214 0196 2E3608CB 		.ascii	".6\010\313\201\355|^1e$\276\264\013]a\344\300\021/\301"
 214      81ED7C5E 
 214      316524BE 
 214      B40B5D61 
 214      E4C0112F 
 215 01ab 779920C0 		.ascii	"w\231 \300\377\206l\251/\215\220'\030\204S\002\221\224"
 215      FF866CA9 
 215      2F8D9027 
 215      18845302 
 215      9194
 216 01bd 4873EC70 		.ascii	"Hs\354p8F\377B\305p\255g\337 \211t\214\036u\270.\325"
 216      3846FF42 
 216      C570AD67 
 216      DF208974 
 216      8C1E75B8 
 217 01d3 081F2C13 		.ascii	"\010\037,\023V.\323\010\247\005_\326\244\021r\241\303"
 217      562ED308 
 217      A7055FD6 
 217      A41172A1 
 217      C3
 218 01e4 33C232AA 		.ascii	"3\3022\252\315\227\227\256F\271\032Dt\334_CW\336\317"
 218      CD9797AE 
 218      46B91A44 
ARM GAS  C:\Users\info\AppData\Local\Temp\ccFLHjfD.s 			page 17


 218      74DC5F43 
 218      57DECF
 219 01f7 4CD119A3 		.ascii	"L\321\031\243):n\213\303\347S!\0374\311\201\366\223"
 219      293A6E8B 
 219      C3E75321 
 219      1F34C981 
 219      F693
 220 0209 D0AE110A 		.ascii	"\320\256\021\012\004\243hd\324\375\370mn:-\312\004?"
 220      04A36864 
 220      D4FDF86D 
 220      6E3A2DCA 
 220      043F
 221 021b 1D95E56E 		.ascii	"\035\225\345n\275sB\017\226.3\010\263\002\345\037\226"
 221      BD73420F 
 221      962E3308 
 221      B302E51F 
 221      96
 222 022c BEF0449E 		.ascii	"\276\360D\2366\027U?=\255#\357\322kmkaw\235\273\340"
 222      3617553F 
 222      3DAD23EF 
 222      D26B6D6B 
 222      61779DBB 
 223 0241 8B360F0E 		.ascii	"\2136\017\016<\373x\213\303!\010\347`\260b\201\010'"
 223      3CFB788B 
 223      C32108E7 
 223      60B06281 
 223      0827
 224 0253 8415D4F5 		.ascii	"\204\025\324\365\313@95;K@s\350\223\242\204\263\240"
 224      CB403935 
 224      3B4B4073 
 224      E893A284 
 224      B3A0
 225 0265 5B11EA7E 		.ascii	"[\021\352~\342\360\361\213\236\244L`\003<\332\367`\007"
 225      E2F0F18B 
 225      9EA44C60 
 225      033CDAF7 
 225      6007
 226 0277 710E9018 		.ascii	"q\016\220\030\263,\307\341X \224\303\000\245\362\000"
 226      B32CC7E1 
 226      582094C3 
 226      00A5F200 
 227 0287 E7847946 		.ascii	"\347\204yF(S\037a\260\270\265[\307\214\246\035\025\012"
 227      28531F61 
 227      B0B8B55B 
 227      C78CA61D 
 227      150A
 228 0299 CCEACADC 		.ascii	"\314\352\312\334\2731Z\247\360<\012\323\343\267\305"
 228      BB315AA7 
 228      F03C0AD3 
 228      E3B7C5
 229 02a8 199DC20A 		.ascii	"\031\235\302\012\024\316\246\215\245\270\361\316-W8"
 229      14CEA68D 
 229      A5B8F1CE 
 229      2D5738
 230 02b7 B7CAE9DC 		.ascii	"\267\312\351\334\356\253\257N\271\262\273A&T\342\335"
 230      EEABAF4E 
 230      B9B2BB41 
ARM GAS  C:\Users\info\AppData\Local\Temp\ccFLHjfD.s 			page 18


 230      2654E2DD 
 231 02c7 87D3939E 		.ascii	"\207\323\223\236\313\036\257F\341\351\333w\256\312\302"
 231      CB1EAF46 
 231      E1E9DB77 
 231      AECAC2
 232 02d6 0B283C3E 		.ascii	"\013(<>t \306\210\021\267\032\330\342\241\306z\003\306"
 232      7420C688 
 232      11B71AD8 
 232      E2A1C67A 
 232      03C6
 233 02e8 A3834E4B 		.ascii	"\243\203NKy\311\371z\027l^\011l\331h\363\036\017R\212"
 233      79C9F97A 
 233      176C5E09 
 233      6CD968F3 
 233      1E0F528A 
 234 02fc 41BDFF69 		.ascii	"A\275\377i\337\210;\266\371\002[5zd\233+\271\210m\273"
 234      DF883BB6 
 234      F9025B35 
 234      7A649B2B 
 234      B9886DBB 
 235 0310 CBF24F7B 		.ascii	"\313\362O{\222.dNf\014\036\242\300%0\327\224\257j\037"
 235      922E644E 
 235      660C1EA2 
 235      C02530D7 
 235      94AF6A1F 
 236 0324 3C6040DE 		.ascii	"<`@\336\361\027\340\023\233\016t\350\3110\003k/\246"
 236      F117E013 
 236      9B0E74E8 
 236      C930036B 
 236      2FA6
 237 0336 D544BAC8 		.ascii	"\325D\272\310\263\375hs$\235\355&\260\376\252<\031K"
 237      B3FD6873 
 237      249DED26 
 237      B0FEAA3C 
 237      194B
 238 0348 C4B970CC 		.ascii	"\304\271p\314\231\213k0\027K\304\271\270\002\316\272"
 238      998B6B30 
 238      174BC4B9 
 238      B802CEBA 
 239 0358 8C73D1DE 		.ascii	"\214s\321\336;U\255'\2438\300\261\306\251s\256\202\301"
 239      3B55AD27 
 239      A338C0B1 
 239      C6A973AE 
 239      82C1
 240 036a 57E5F656 		.ascii	"W\345\366V\225\333\245\240x\363$\015\212\026\320\243"
 240      95DBA5A0 
 240      78F3240D 
 240      8A16D0A3 
 241 037a 59D6A389 		.ascii	"Y\326\243\211\005\005\214\3608\352\356\240\007\372b"
 241      05058CF0 
 241      38EAEEA0 
 241      07FA62
 242 0389 29B05B5B 		.ascii	")\260[[\242\317x\220I4\277m\364\352A\261m\001\260\367"
 242      A2CF7890 
 242      4934BF6D 
 242      F4EA41B1 
 242      6D01B0F7 
ARM GAS  C:\Users\info\AppData\Local\Temp\ccFLHjfD.s 			page 19


 243 039d 770C405E 		.ascii	"w\014@^\200\200\243m\015\265}\277!)x\375\325@\\\277"
 243      8080A36D 
 243      0DB57DBF 
 243      212978FD 
 243      D5405CBF 
 244 03b1 8E9C40A6 		.ascii	"\216\234@\246\367\350\276,\035N\304=~\000\037\034 \357"
 244      F7E8BE2C 
 244      1D4EC43D 
 244      7E001F1C 
 244      20EF
 245 03c3 7CD42331 		.ascii	"|\324#1QT\323y\212Lm\337K\310e\242\030\320\007\007\254"
 245      5154D379 
 245      8A4C6DDF 
 245      4BC865A2 
 245      18D00707 
 246 03d8 9B9DACF6 		.ascii	"\233\235\254\366FV\013\354\253\201\307\327t\244\003"
 246      46560BEC 
 246      AB81C7D7 
 246      74A403
 247 03e7 A159532F 		.ascii	"\241YS/Gi\376y\033\246f\226p\353\360m\\\207UW\032\263"
 247      4769FE79 
 247      1BA66696 
 247      70EBF06D 
 247      5C875557 
 248 03fd 8D648881 		.ascii	"\215d\210\201\265m5)\323\036\3509\230\224-\016\203\257"
 248      B56D3529 
 248      D31EE839 
 248      98942D0E 
 248      83AF
 249 040f 46E80037 		.ascii	"F\350\0007\365\201\233\204\333\340\273\267E\337\015"
 249      F5819B84 
 249      DBE0BBB7 
 249      45DF0D
 250 041e 8270C0E9 		.ascii	"\202p\300\351\273\201G\277b+\366\026\370\356\246\354"
 250      BB8147BF 
 250      622BF616 
 250      F8EEA6EC 
 251 042e BBB745D7 		.ascii	"\273\267E\327U\306\367\014\031\310\030\016\221y\333"
 251      55C6F70C 
 251      19C8180E 
 251      9179DB
 252 043d 51AE9B6F 		.ascii	"Q\256\233o\210\241y\207H\214y\373\024\235\236\2730\304"
 252      88A17987 
 252      488C79FB 
 252      149D9EBB 
 252      30C4
 253 044f 1D79885B 		.ascii	"\035y\210[\322\364\334\211\316\255\363$Sh\363\310\241"
 253      D2F4DC89 
 253      CEADF324 
 253      5368F3C8 
 253      A1
 254 0460 F6AD5E64 		.ascii	"\366\255^d\267\2161i\345\023\227]\3209z\272pn\246\316"
 254      B78E3169 
 254      E513975D 
 254      D0397ABA 
 254      706EA6CE 
 255 0474 BA91546C 		.ascii	"\272\221Tl\213\035=\264OO\262\220\211\177\221\332\340"
ARM GAS  C:\Users\info\AppData\Local\Temp\ccFLHjfD.s 			page 20


 255      8B1D3DB4 
 255      4F4FB290 
 255      897F91DA 
 255      E0
 256 0485 4A729129 		.ascii	"Jr\221)\273\264%\333\215\234C&\242\242\266\320\223\\"
 256      BBB425DB 
 256      8D9C4326 
 256      A2A2B6D0 
 256      935C
 257 0497 40E67143 		.ascii	"@\346qC\201\201\\\306\353\212\341\270rB\276D&#\353\312"
 257      81815CC6 
 257      EB8AE1B8 
 257      7242BE44 
 257      2623EBCA 
 258 04ab A48E8C20 		.ascii	"\244\216\214 \363\302\2216\242'S\310<,y\222\254%\321"
 258      F3C29136 
 258      A22753C8 
 258      3C2C7992 
 258      AC25D1
 259 04be 2E38EF4F 		.ascii	".8\357OF_\272\2234d\252\216^\237q'\271\310\3044\235"
 259      465FBA93 
 259      3464AA8E 
 259      5E9F7127 
 259      B9C8C434 
 260 04d3 6CF420B5 		.ascii	"l\364 \265\310\024V74\033H\02329\331Sg\014\244\033\231"
 260      C8145637 
 260      341B4813 
 260      3239D953 
 260      670CA41B 
 261 04e8 E181E157 		.ascii	"\341\201\341W\336\344\0262Y\307\"\217\352\311Cd\216"
 261      DEE41632 
 261      59C7228F 
 261      EAC94364 
 261      8E
 262 04f9 E6EC6EF0 		.ascii	"\346\354n\360\"3\214ysh\317\236\\O\341-\371\263\210"
 262      22338C79 
 262      7368CF9E 
 262      5C4FE12D 
 262      F9B388
 263 050c FEE3CB2E 		.ascii	"\376\343\313.\2172\237\266\216\207\226\026\365:\034"
 263      8F329FB6 
 263      8E879616 
 263      F53A1C
 264 051b DB8C2CEA 		.ascii	"\333\214,\352G\301\255\333\265\213\244\2452\302\322"
 264      47C1ADDB 
 264      B58BA4A5 
 264      32C2D2
 265 052a D007B420 		.ascii	"\320\007\264 9J\347\252\272\244\3113\331Q\035AX\242"
 265      394AE7AA 
 265      BAA4C933 
 265      D9511D41 
 265      58A2
 266 053c 1A5303AF 		.ascii	"\032S\003\257\022\301\016GuU\214\010\246=?Q\003w\010"
 266      12C10E47 
 266      75558C08 
 266      A63D3F51 
 266      037708
ARM GAS  C:\Users\info\AppData\Local\Temp\ccFLHjfD.s 			page 21


 267 054f 72D787F9 		.ascii	"r\327\207\371\256\237)\321\357Qp\016\007.h\362p\344"
 267      AE9F29D1 
 267      EF51700E 
 267      072E68F2 
 267      70E4
 268 0561 FD81419F 		.ascii	"\375\201A\237\252@\3538\350l\214W\212\243:\222\260\260"
 268      AA40EB38 
 268      E86C8C57 
 268      8AA33A92 
 268      B0B0
 269 0573 7929829D 		.ascii	"y)\202\235\321\326+(\360\240uO\023\247\365\0035\255"
 269      D1D62B28 
 269      F0A0754F 
 269      13A7F503 
 269      35AD
 270 0585 7974172A 		.ascii	"yt\027*B\261\017\325\260\2278l;\357\217Gjh\336\304T"
 270      42B10FD5 
 270      B097386C 
 270      3BEF8F47 
 270      6A68DEC4 
 271 059a DE1F5FA9 		.ascii	"\336\037_\251\030\331\306u\335\312w\375X\255kD\307\213"
 271      18D9C675 
 271      DDCA77FD 
 271      58AD6B44 
 271      C78B
 272 05ac 158503AA 		.ascii	"\025\205\003\252/\341KpB7u\302\224x\003,(a\267\326W"
 272      2FE14B70 
 272      423775C2 
 272      9478032C 
 272      2861B7D6 
 273 05c1 D8A37D4B 		.ascii	"\330\243}K\330\011\024\003\264\025hVxK\330\005\337\016"
 273      D8091403 
 273      B4156856 
 273      784BD805 
 273      DF0E
 274 05d3 A058A069 		.ascii	"\240X\240i\340_\001\315\000m\003>\012h\013P$P4P\034"
 274      E05F01CD 
 274      006D033E 
 274      0A680B50 
 274      24503450 
 275 05e8 D00EA078 		.ascii	"\320\016\240x\240\010\355[\254bA\243\236\361\2231\254"
 275      A008ED5B 
 275      AC6241A3 
 275      9EF19331 
 275      AC
 276 05f9 3E197C50 		.ascii	">\031|P$\362Nx\256\342\204\017d\037\364\312Sq_\315\003"
 276      24F24E78 
 276      AEE2840F 
 276      641FF4CA 
 276      53715FCD 
 277 060e B55CBF79 		.ascii	"\265\\\277yr\374L\250\364\212\263\306\262N\365\364."
 277      72FC4CA8 
 277      F48AB3C6 
 277      B24EF5F4 
 277      2E
 278 061f A3032A2C 		.ascii	"\243\003*,\200h\304\214#\233\263\227W\357\205JG\253"
 278      8068C48C 
ARM GAS  C:\Users\info\AppData\Local\Temp\ccFLHjfD.s 			page 22


 278      239BB397 
 278      57EF854A 
 278      47AB
 279 0631 E42193E4 		.ascii	"\344!\223\344!'U\220\274\325E2t\\\005Z\313M|\277l\364"
 279      21275590 
 279      BCD54532 
 279      745C055A 
 279      CB4D7CBF 
 280 0647 3D25B457 		.ascii	"=%\264W\230\243\300$\357\373~u\337c\000B\032y\3468p"
 280      98A3C024 
 280      EFFB7E75 
 280      DF630042 
 280      1A79E638 
 281 065c 99902C57 		.ascii	"\231\220,W\226\257\213\036\335\036q\021\026\371\252"
 281      96AF8B1E 
 281      DD1E7111 
 281      16F9AA
 282 066b 47CF3E88 		.ascii	"G\317>\210\230o:zp*\022c\377\236N\305^\030,A\353\314"
 282      986F3A7A 
 282      702A1263 
 282      FF9E4EC5 
 282      5E182C41 
 283 0681 FF746698 		.ascii	"\377tf\230\316%7\023\253\3341\313wi\2702g\261X\346\024"
 283      CE253713 
 283      ABDC31CB 
 283      7769B832 
 283      67B158E6 
 284 0696 A57754B9 		.ascii	"\245wT\271\221bf\223P\352\330\036\257'5\310\\{0zVO\256"
 284      91626693 
 284      50EAD81E 
 284      AF2735C8 
 284      5C7B307A 
 285 06ad 2033D997 		.ascii	" 3\331\227\032\343A:\220\231}\271c=\271\215\327\343"
 285      1AE3413A 
 285      90997DB9 
 285      633DB98D 
 285      D7E3
 286 06bf D74A2608 		.ascii	"\327J&\010\031Gf\250\362\311\244\221\314\"s>\372\312"
 286      194766A8 
 286      F2C9A491 
 286      CC22733E 
 286      FACA
 287 06d1 2B3DD9E5 		.ascii	"+=\331\345\206\233M\331\366H\003\331\203\314\366\263"
 287      869B4DD9 
 287      F64803D9 
 287      83CCF6B3 
 288 06e1 15D9AE24 		.ascii	"\025\331\256$\026\231gMc1F\222\302\030m\335\253\351"
 288      1699674D 
 288      63314692 
 288      C2186DDD 
 288      ABE9
 289 06f3 FB5AA904 		.ascii	"\373Z\251\004\252.\275\262\230\232\226\2415\010Gd\323"
 289      AA2EBDB2 
 289      989A96A1 
 289      35084764 
 289      D3
 290 0704 CAE72B47 		.ascii	"\312\347+G\217jU\313\321\322;\321\215z\222\211\243\275"
ARM GAS  C:\Users\info\AppData\Local\Temp\ccFLHjfD.s 			page 23


 290      8F6A55CB 
 290      D1D23BD1 
 290      8D7A9289 
 290      A3BD
 291 0716 785C1FED 		.ascii	"x\\\037\355BN#s\260\363V\234\273Z\321?Oa\233V\267\243"
 291      424E2373 
 291      B0F3569C 
 291      BB5AD13F 
 291      4F619B56 
 292 072c C685AF4C 		.ascii	"\306\205\257L\263\265|ezL+U\246\215\315\215\377H\316"
 292      B3B57C65 
 292      7A4C2B55 
 292      A68DCD8D 
 292      FF48CE
 293 073f E120A507 		.ascii	"\341 \245\007\017Mz\222\253\214\361z00\276_\020\234"
 293      0F4D7A92 
 293      AB8CF17A 
 293      3030BE5F 
 293      109C
 294 0751 FB8EAF73 		.ascii	"\373\216\257s\317\251\256\212\345\222\325\001\2606\377"
 294      CFA9AE8A 
 294      E592D501 
 294      B036FF
 295 0760 6B769CEE 		.ascii	"kv\234\356fn\211\245\250\201/q+\347l\2637\242\251#\323"
 295      666E89A5 
 295      A8812F71 
 295      2BE76CB3 
 295      37A2A923 
 296 0775 95E8F7E6 		.ascii	"\225\350\367\346\346\343r^\217C*`>c\364\361z\234P\323"
 296      E6E3725E 
 296      8F432A60 
 296      3E63F4F1 
 296      7A9C50D3 
 297 0789 83DF74DA 		.ascii	"\203\337t\332\232\235+x\277\032V\261\361\305\276\221"
 297      9A9D2B78 
 297      BF1A56B1 
 297      F1C5BE91 
 298 0799 EAA88E22 		.ascii	"\352\250\216\"\324\251B\226\210\226\\\315\245\021y\365"
 298      D4A94296 
 298      88965CCD 
 298      A51179F5 
 299 07a9 E9344292 		.ascii	"\3514B\222v\031[\262\302q\361\006\272\372\012!*\362"
 299      76195BB2 
 299      C271F106 
 299      BAFA0A21 
 299      2AF2
 300 07bb 60D51403 		.ascii	"`\325\024\003\235\002*\000:\015T\004t\022(\027\350,"
 300      9D022A00 
 300      3A0D5404 
 300      74122817 
 300      E82C
 301 07cd 500950   		.ascii	"P\011P"
 302 07d0 0ED01939 		.ascii	"\016\320\03197\323\020\344\335qX\305\035u\\V\334\037"
 302      37D310E4 
 302      DD7158C5 
 302      1D755C56 
 302      DC1F
ARM GAS  C:\Users\info\AppData\Local\Temp\ccFLHjfD.s 			page 24


 303 07e2 CBB262FE 		.ascii	"\313\262b\376kY\021\332*\370\216\016\252\231\317e\245"
 303      6B5911DA 
 303      2AF88E0E 
 303      AA99CF65 
 303      A5
 304 07f3 4EDEAF69 		.ascii	"N\336\257ij\3406\316W\205\374\374f\252\350\310\357\240"
 304      6AE036CE 
 304      5785FCFC 
 304      66AAE8C8 
 304      EFA0
 305 0805 37F8AE53 		.ascii	"7\370\256S\325\272v\246\273\313\205\315\337&-\2700O"
 305      D5BA76A6 
 305      BBCB85CD 
 305      DF262DB8 
 305      304F
 306 0817 E6275479 		.ascii	"\346'Ty(\262\035\357\3572\360\361\377\324\337\350\302"
 306      28B21DEF 
 306      EF32F0F1 
 306      FFD4DFE8 
 306      C2
 307 0828 A7B16F53 		.ascii	"\247\261oS\027\226Bg\347\344%\237/e\263\366\241#QF\314"
 307      17964267 
 307      E7E4259F 
 307      2F65B3F6 
 307      A1235146 
 308 083d 662D2C93 		.ascii	"f-,\223\014]\202\323\306m\\i\023\263;\313\365d\034\231"
 308      0C5D82D3 
 308      C66D5C69 
 308      13B33BCB 
 308      F5641C99 
 309 0851 A1E81363 		.ascii	"\241\350\023cF\262[\317\230]ug\353\305g\015\015\354"
 309      46B25BCF 
 309      985D7567 
 309      EBC5670D 
 309      0DEC
 310 0863 5876A6E4 		.ascii	"Xv\246\344\250+\211\307\306\033wG\012\010IE&\252\360"
 310      A82B89C7 
 310      C61B7747 
 310      0A084945 
 310      26AAF0
 311 0876 C0390339 		.ascii	"\3009\0039\202LWy\323\204\0139\201\314\205\302\227\220"
 311      824C5779 
 311      D3840B39 
 311      81CC85C2 
 311      9790
 312 0888 28F39129 		.ascii	"(\363\221)y\234S\342\211\035VS\2766b\030\352\345Rl,"
 312      799C53E2 
 312      891D5653 
 312      BE366218 
 312      EAE5526C 
 313 089d 883E9FA7 		.ascii	"\210>\237\247#\027\220\311\276\273k\213\2014\"\323p"
 313      231790C9 
 313      BEBB6B8B 
 313      813422D3 
 313      70
 314 08ae 6C3C5A20 		.ascii	"l<Z \255\310\234JyrF ]\310\014V\027v\352H?2\327\206"
 314      ADC89C4A 
ARM GAS  C:\Users\info\AppData\Local\Temp\ccFLHjfD.s 			page 25


 314      79724620 
 314      5DC80C56 
 314      1776EA48 
 315 08c6 6FB4EBC8 		.ascii	"o\264\353\310]d\016\014OOh\311Cd\2443\253\017\236Y\323"
 315      5D640E0C 
 315      4F4F68C9 
 315      4364A433 
 315      AB0F9E59 
 316 08db 1326EE10 		.ascii	"\023&\356\020\362\022\333\022\2463\363\265d\267;c.\235"
 316      F212DB12 
 316      A633F3B5 
 316      64B73B63 
 316      2E9D
 317 08ed 8C1AD492 		.ascii	"\214\032\324\222\003\310\364\227f6\270\221\223\310\224"
 317      03C8F497 
 317      6636B891 
 317      93C894
 318 08fc 1DEA68D5 		.ascii	"\035\352h\325\2212d\244C\256\017\036rkZv&y\223K\330"
 318      913264A4 
 318      43AE0F1E 
 318      726B5A76 
 318      2679934B 
 319 0911 D637D3BA 		.ascii	"\3267\323\272]O.#3\330\177\376\225\226|\211\314\354"
 319      5D4F2E23 
 319      33D87FFE 
 319      95967C89 
 319      CCEC
 320 0923 BDBE310F 		.ascii	"\275\2761\0172\216\314\255\210\224a-\331\202\207\246"
 320      328ECCAD 
 320      8894612D 
 320      D98287A6 
 321 0933 3D0F7393 		.ascii	"=\017s\223\335\311\001d^\336\333\327-`\347FzP+\357\216"
 321      DDC90164 
 321      5EDEDBD7 
 321      2D60E746 
 321      7A502BEF 
 322 0948 F7C69D67 		.ascii	"\367\306\235g\220\331\322_\220o 9\210\275\371\244\""
 322      90D9D25F 
 322      906F2039 
 322      88BDF9A4 
 322      22
 323 0959 D5CDF924 		.ascii	"\325\315\371$\000\037\224\234\311n\216\305\347\0104"
 323      001F949C 
 323      C96E8EC5 
 323      E70834
 324 0968 B0FBB54C 		.ascii	"\260\373\265L88{\266\324\305)\034@a\356\261\331\027"
 324      38387BB6 
 324      D4C5291C 
 324      4061EEB1 
 324      D917
 325 097a EE4EE120 		.ascii	"\356N\341 \012'\012vg\271\222\"\203x6\350)\020H\035"
 325      0A270A76 
 325      67B99222 
 325      837836E8 
 325      2910481D 
 326 098e 32FBC65B 		.ascii	"2\373\306[\217\272\221fd\352\323\206a\337\354\026\037"
 326      8FBA9166 
ARM GAS  C:\Users\info\AppData\Local\Temp\ccFLHjfD.s 			page 26


 326      64EAD386 
 326      61DFEC16 
 326      1F
 327 099f BE548C65 		.ascii	"\276T\214e\211\007{\007=\023\246wd\364\272\222Q\203"
 327      89077B07 
 327      3D13A677 
 327      64F4BA92 
 327      5183
 328 09b1 E2D4EF83 		.ascii	"\342\324\357\203\247~\307\275(H\010\317\304\323\342"
 328      A77EC7BD 
 328      284808CF 
 328      C4D3E2
 329 09c0 BDF82A3D 		.ascii	"\275\370*=\211\362`L\313\261G7\274\310\001d\356\245"
 329      89F2604C 
 329      CBB14737 
 329      BCC80164 
 329      EEA5
 330 09d2 5715E849 		.ascii	"W\025\350I\0112\322S.\037|\312\225X\235\360\312@j\261"
 330      0932D253 
 330      2E1F7CCA 
 330      95589DF0 
 330      CA406AB1 
 331 09e6 ADB1F4D6 		.ascii	"\255\261\364\326J\322\204\327_]\351\350#\244\017\231"
 331      4AD284D7 
 331      5F5DE9E8 
 331      23A40F99 
 332 09f6 D89A8A5A 		.ascii	"\330\232\212Z=\031A\246\276\367K\010\224g\310L\027\026"
 332      3D1941A6 
 332      BEF74B08 
 332      9467C84C 
 332      1716
 333 0a08 D60A24DA 		.ascii	"\326\012$\332\210\241{?\003\352\347\275\310\3645\234"
 333      88A17B3F 
 333      03EAE7BD 
 333      C8F4359C 
 334 0a18 C8A111FF 		.ascii	"\310\241\021\377\016=\335\316\316zs\347\333wP\343\266"
 334      0E3DDDCE 
 334      CE7A73E7 
 334      DB7750E3 
 334      B6
 335 0a29 D8F14C37 		.ascii	"\330\361L7r\220\301\2659\361\017\332\270\007MY\306R"
 335      7290C1B5 
 335      39F10FDA 
 335      B8074D59 
 335      C652
 336 0a3b 7AA67C01 		.ascii	"z\246|\001\316\234\224W\341;\316}\227\355~\0329\037"
 336      CE9C9457 
 336      E13BCE7D 
 336      97ED7E1A 
 336      391F
 337 0a4d 3F8735FF 		.ascii	"?\2075\377\216\270_~\005I\341\231\026\0375e\306\303"
 337      8EB85F7E 
 337      0549E199 
 337      161F3565 
 337      C6C3
 338 0a5f 323B8E43 		.ascii	"2;\216C\234<\323\\\357&\235o\347v\360J\245\003\351|"
 338      9C3CD35C 
ARM GAS  C:\Users\info\AppData\Local\Temp\ccFLHjfD.s 			page 27


 338      EF269D6F 
 338      E776F04A 
 338      A503E97C 
 339 0a73 FB213BDF 		.ascii	"\373!;\337\276\004]\246d]@5\314\010\267\362'\037\352"
 339      BE045DA6 
 339      645D4035 
 339      CC08B7F2 
 339      271FEA
 340 0a86 493E5A7D 		.ascii	"I>Z}\346\324\313<\003\213\203/\244\247m=\333\216]\361"
 340      E6D4CB3C 
 340      038B832F 
 340      A4A76D3D 
 340      DB8E5DF1 
 341 0a9a 7006D60C 		.ascii	"p\006\326\014\206FgW\177\247\273S8\213\302\355\263}"
 341      86466757 
 341      7FA7BB53 
 341      388BC2ED 
 341      B37D
 342 0aac 17F5A456 		.ascii	"\027\365\244Vt\346\261=\373=I321\251\343\345n\344\006"
 342      74E6B13D 
 342      FB3D4933 
 342      3231A9E3 
 342      E56EE406 
 343 0ac0 32EDD5E9 		.ascii	"2\355\325\351\373\335I?2\267\213&3=\311\210q\336\030"
 343      FBDD493F 
 343      32B78B26 
 343      333DC988 
 343      71DE18
 344 0ad3 3EDB7678 		.ascii	">\333vx\300\215\214!`\252\371e\231@f\220\331\335^\374"
 344      C08D8C21 
 344      60AAF965 
 344      99406690 
 344      D9DD5EFC 
 345 0ae7 01D9E589 		.ascii	"\001\331\345\211\251\240\263kZ \311\310\\\233\031\255"
 345      A9A0B36B 
 345      5A20C9C8 
 345      5C9B19AD 
 346 0af7 24E40432 		.ascii	"$\344\0042\247\007\267\265\273\2202d\262_\035)2\222"
 346      A707B7B5 
 346      BB903264 
 346      B25F1D29 
 346      3292
 347 0b09 7A64EA27 		.ascii	"zd\352'+2\\H+2\321\273N\036\361\"C\310l\335\235s\236"
 347      2B325C48 
 347      2B32D1BB 
 347      4E1EF122 
 347      43C86CDD 
 348 0b20 9017C8B4 		.ascii	"\220\027\310\264\014\024<s%1^\3700\266?\376?I2^?\350"
 348      0C143C73 
 348      25315EF8 
 348      30B63FFE 
 348      3F49325E 
 349 0b36 688B7721 		.ascii	"h\213w!\231\310L\027l/\327\221\022d\206\033^Lx\220F"
 349      99C84C17 
 349      6C2FD791 
 349      1264861B 
 349      5E4C7890 
ARM GAS  C:\Users\info\AppData\Local\Temp\ccFLHjfD.s 			page 28


 350 0b4b 64A66A22 		.ascii	"d\246j\"K\005\322\213Lq\315\213\253.d\014\231\307\221"
 350      4B05D28B 
 350      4C71CD8B 
 350      AB2E640C 
 350      99C791
 351 0b5e 3999107C 		.ascii	"9\231\020|\3368L\342\243$-\311@\346\325\313\275\021"
 351      DE384CE2 
 351      A3242DC9 
 351      40E6D5CB 
 351      BD11
 352 0b70 2EA41899 		.ascii	".\244\030\231\252\336{\247<H\0032\307\367\214\326\032"
 352      AADE7BA7 
 352      3C480332 
 352      C7F78CD6 
 352      1A
 353 0b81 C84DC6BC 		.ascii	"\310M\306\2741\232\223\002\005\345[s>\276\2640b{\325"
 353      319A9302 
 353      05E55B73 
 353      3EBEB430 
 353      627BD5
 354 0b94 60C5EC9F 		.ascii	"`\305\354\237*\212\361\034N=\272\217\020!\217\314\177"
 354      2A8AF11C 
 354      4E3DBA8F 
 354      10218FCC 
 354      7F
 355 0ba5 A83DDFE6 		.ascii	"\250=\337\346\254/v+\241\275s\013\250\247\011\\\331"
 355      AC2F762B 
 355      A1BD730B 
 355      A8A7095C 
 355      D9
 356 0bb6 BF5304AB 		.ascii	"\277S\004\253\226\375\342\271SQp\251\350\301\327.\035"
 356      96FDE2B9 
 356      535170A9 
 356      E8C1D72E 
 356      1D
 357 0bc7 729DB357 		.ascii	"r\235\263W\005\312\027P\373dh\252\012\224\323\270M6"
 357      05CA1750 
 357      FB6468AA 
 357      0A94D3B8 
 357      4D36
 358 0bd9 2E5ACD38 		.ascii	".Z\3158\276 H\220{MS\351\225+4\322dd\262\012\222\357"
 358      BE204890 
 358      7B4D53E9 
 358      952B34D2 
 358      6464B20A 
 359 0bef F4800C4D 		.ascii	"\364\200\014MR\201\362\336\312\223u\215UB_/\012[d\354"
 359      5281F2DE 
 359      CA93758D 
 359      55425F2F 
 359      0A5B64EC 
 360 0c03 2E35BB78 		.ascii	".5\273x\307\356\223\261qj\375\362E\357\214\254n\274"
 360      C7EE93B1 
 360      716AFDF2 
 360      45EF8CAC 
 360      6EBC
 361 0c15 1A96D7B7 		.ascii	"\032\226\327\267H\3567F\015\313\317\3303>r\016\250G"
 361      48EE3746 
ARM GAS  C:\Users\info\AppData\Local\Temp\ccFLHjfD.s 			page 29


 361      0DCBCFD8 
 361      333E720E 
 361      A847
 362 0c27 0E5F13BE 		.ascii	"\016_\023\276\214a5!\240^?)\037\346\243*Q\305\251\274"
 362      8C613521 
 362      A05E3F29 
 362      1FE6A32A 
 362      51C5A9BC 
 363 0c3b 4165B292 		.ascii	"Ae\262\222{\324\034\365z9\354<\214\356\027\361\264<"
 363      7BD41CF5 
 363      7A39EC3C 
 363      8CEE17F1 
 363      B43C
 364 0c4d 3B4D7C85 		.ascii	";M|\205L\362\226p\024(\035(\013(\033\350\014\320A\240"
 364      4CF29670 
 364      14281D28 
 364      0B281BE8 
 364      0CD041A0 
 365 0c61 2340F940 		.ascii	"#@\371@'\201N\000\035\003\312\001\312\005:\004t\034"
 365      27814E00 
 365      1D03CA01 
 365      CA053A04 
 365      741C
 366 0c73 2803E830 		.ascii	"(\003\3500\320)\302?\306\350\211\365\302\222\235\246"
 366      D029C23F 
 366      C6E889F5 
 366      C2929DA6 
 367 0c83 EA047148 		.ascii	"\352\004qHg\206\347j\\\310\003\335\261\373S\275\311"
 367      6786E76A 
 367      5CC803DD 
 367      B1FB53BD 
 367      C9
 368 0c94 96056C67 		.ascii	"\226\005lgx\266\247\346\243\271\245\245S\367\"\320\367"
 368      78B6A7E6 
 368      A3B9A5A5 
 368      53F722D0 
 368      F7
 369 0ca5 9BD41D67 		.ascii	"\233\324\035g)\265\351\373t\226\012a \250\005\245M\206"
 369      29B5E9FB 
 369      74960A61 
 369      20A805A5 
 369      4D86
 370 0cb7 4E1A53B7 		.ascii	"N\032S\267\350V\366\023\267E\242\202\325\363*\250\371"
 370      E856F613 
 370      B745A282 
 370      D5F32AA8 
 370      F9
 371 0cc8 5FD78EE6 		.ascii	"_\327\216\346\317\353Q\333=\370C\347Y\316\255\032\241"
 371      CFEB51DB 
 371      3DF843E7 
 371      59CEAD1A 
 371      A1
 372 0cd9 984887CE 		.ascii	"\230H\207\316\311\323\303\275.$y\001V\035w\367\327\033"
 372      C9D3C3BD 
 372      2E247901 
 372      561D77F7 
 372      D71B
ARM GAS  C:\Users\info\AppData\Local\Temp\ccFLHjfD.s 			page 30


 373 0ceb 48063255 		.ascii	"H\0062U\355\271W\275I\011c\276\333\023]\025!\010:\343"
 373      EDB957BD 
 373      490963BE 
 373      DB135D15 
 373      21083AE3 
 374 0cff 227CEE29 		.ascii	"\"|\356)\177\214\306\245:_\361\302\367-__\266\221\021"
 374      7F8CC6A5 
 374      3A5FF1C2 
 374      F72D5F5F 
 374      B69111
 375 0d12 A3B08DE8 		.ascii	"\243\260\215\3504\334\360\347\025\303\227\343\360\212"
 375      34DCF0E7 
 375      15C397E3 
 375      F08A
 376 0d20 B91B820D 		.ascii	"\271\033\202\015\274CK\003\023\\S)\316]\017\\\177\011"
 376      BC434B03 
 376      135C5329 
 376      CE5D0F5C 
 376      7F09
 377 0d32 96750275 		.ascii	"\226u\002u\000\265\003\265\001]\005\272\002t\031\250"
 377      00B503B5 
 377      015D05BA 
 377      027419A8 
 378 0d42 11A801E8 		.ascii	"\021\250\001\350\022P=P\035\320E\240Z\240\032\240\013"
 378      12503D50 
 378      1DD045A0 
 378      5AA01AA0 
 378      0B
 379 0d53 40D54055 		.ascii	"@\325@U@\025\212\330{y\235[I\347`\006+\345\345qO+\257"
 379      40158AD8 
 379      7B799D5B 
 379      49E76006 
 379      2BE5E571 
 380 0d6a 77753D4B 		.ascii	"wu=K\304\033\276y=\237_w.\342\021\255\212\226|\302\375"
 380      C41BBE79 
 380      3D9F5F77 
 380      2EE211AD 
 380      8A967CC2 
 381 0d7f 4AC6DE57 		.ascii	"J\306\336W\303\362\231qB\306>P\303r\033\311\270\014"
 381      C3F29971 
 381      42C63E50 
 381      C3721BC9 
 381      B80C
 382 0d91 7DA806E5 		.ascii	"}\250\006\345v\207Q\031\372X\011}\244\235\233\027\373"
 382      76875119 
 382      FA58097D 
 382      A49D9B17 
 382      FB
 383 0da2 65EC1335 		.ascii	"e\354\0235,\237\363{e\354\250\032\226O{\327e\354\230"
 383      2C9FF37B 
 383      65ECA81A 
 383      964F7BD7 
 383      65EC98
 384 0db5 1A96CFE3 		.ascii	"\032\226\317\343\0352v\\\015\313{\267\215\263MP\301"
 384      1D32765C 
 384      0DCB7BB7 
 384      8DB34D50 
ARM GAS  C:\Users\info\AppData\Local\Temp\ccFLHjfD.s 			page 31


 384      C1
 385 0dc6 F2DE6D4D 		.ascii	"\362\336mM\342r\376S\261gg\316\1774\327mUI\334\263\213"
 385      E272FE53 
 385      B16767CE 
 385      7F34D76D 
 385      5549DCB3 
 386 0ddb 4A11EE4C 		.ascii	"J\021\356L\204\335\257m?\025I\\\342\234P\307s\335\227"
 386      84DDAF6D 
 386      3F15495C 
 386      E29C50C7 
 386      73DD97
 387 0dee 5FF746F8 		.ascii	"_\367F\3705X\234\323s\341|\355\302\255\332f\262T\306"
 387      35589CD3 
 387      73E17CED 
 387      C2ADDA66 
 387      B254C6
 388 0e01 B4428C37 		.ascii	"\264B\2147\301\315\230\346\346Ai8H\022[6[\034\313us"
 388      C1CD98E6 
 388      E6416938 
 388      48125B36 
 388      5B1CCB75 
 389 0e16 5EC6C20D 		.ascii	"^\306\302\015\360o\013\241\277\236\220\362\205\0038"
 389      F06F0BA1 
 389      BF9E90F2 
 389      850338
 390 0e25 CCAA879B 		.ascii	"\314\252\207\233\336\240Y\225\352\031!g\325&\2262\320"
 390      DEA05995 
 390      EA192167 
 390      D5269632 
 390      D0
 391 0e36 9652DE96 		.ascii	"\226R\336\226H\242j\013gz\361u\243#\316\314\300[\346"
 391      48A26A0B 
 391      677AF175 
 391      A323CECC 
 391      C05BE6
 392 0e49 8255B675 		.ascii	"\202U\266u\031\035\245\216\346\272.LZ\214\232\\\007"
 392      191DA58E 
 392      E6BA2E4C 
 392      5A8C9A5C 
 392      07
 393 0e5a F8D6B9F0 		.ascii	"\370\326\271\360\367T\235\332\305;\265\033\234zC\315"
 393      F7549DDA 
 393      C53BB51B 
 393      9C7A43CD 
 394 0e6a A95D0AA7 		.ascii	"\251]\012\247\336Ps\352]\205S\273\230S\313\230S\321"
 394      DE5073EA 
 394      5D8553BB 
 394      9853CB98 
 394      53D1
 395 0e7c 91F9316F 		.ascii	"\221\3711oRGR\325\266\313\216\274\30192?\351\333\250"
 395      524752D5 
 395      B6CB8EBC 
 395      C139323F 
 395      E9DBA8
 396 0e8f 3EEC07C2 		.ascii	">\354\007\302\016U\365W\311E\311\301$V\224T*\213\022"
 396      0E55F557 
 396      C945C9C1 
ARM GAS  C:\Users\info\AppData\Local\Temp\ccFLHjfD.s 			page 32


 396      24569454 
 396      2A8B12
 397 0ea2 6C4B8EF9 		.ascii	"lK\216\371\026m\243i\276T\036\253R\332\012\363Z\316"
 397      166DA369 
 397      BE541EAB 
 397      52DA0AF3 
 397      5ACE
 398 0eb4 467A924A 		.ascii	"Fz\222J\334XN]\273\324+>W\331A\037&\237:\3367\344&\276"
 398      DC584E5D 
 398      BBD42B3E 
 398      57D9411F 
 398      269F3ADE 
 399 0ecc 9BA5EF14 		.ascii	"\233\245\357\024\373;\017\015y\221\313\010n}~o\233@"
 399      FB3B0F0D 
 399      7991CB08 
 399      6E7D7E6F 
 399      9B40
 400 0ede FA18F393 		.ascii	"\372\030\363\223\222\335\267Z\335\005\305\026D\367\037"
 400      92DDB75A 
 400      DD05C516 
 400      44F71F
 401 0eed E39C3D09 		.ascii	"\343\234=\011\033\350V\205\273\223\321\327\227]\370"
 401      1BE85685 
 401      BB93D1D7 
 401      975DF8
 402 0efc 8280EE51 		.ascii	"\202\200\356Q\276xPh\035\017m\356\270\343p$\030\235"
 402      BE785068 
 402      1D0F6DEE 
 402      B8E37024 
 402      189D
 403 0f0e 6BEE366F 		.ascii	"k\3566o\177\271\274D\025;\300\000Y&\364\023\000\300"
 403      7FB9BC44 
 403      153BC000 
 403      5926F413 
 403      00C0
 404 0f20 619BDD41 		.ascii	"a\233\335Aw\200#:_!]\007{6\320v\240m@[\201\242\200\266"
 404      7780233A 
 404      5F215D07 
 404      7B36D076 
 404      A06D405B 
 405 0f38 00450245 		.ascii	"\000E\002E\0009\200f!\303\317\000M\003\275\002z\011"
 405      00398066 
 405      21C3CF00 
 405      4D03BD02 
 405      7A09
 406 0f4a 3405F402 		.ascii	"4\005\364\002\3509\320$\320W@\317\200n\001=\006z\004"
 406      E839D024 
 406      D05740CF 
 406      806E013D 
 406      067A04
 407 0f5d F410E801 		.ascii	"\364\020\350\001\320}\240\021\240{@\303@C@w\201\356"
 407      D07DA011 
 407      A07B40C3 
 407      40434077 
 407      81EE
 408 0f6f 28768D01 		.ascii	"(v\215\001~w\033\024U\025\263\325\305\327*T.c\326\013"
 408      7E771B14 
ARM GAS  C:\Users\info\AppData\Local\Temp\ccFLHjfD.s 			page 33


 408      5515B3D5 
 408      C5D72A54 
 408      2E63D60B 
 409 0f83 2AD83AF5 		.ascii	"*\330:\365,\330\240\206\345\237\014W%qO0\033\325\320"
 409      2CD8A086 
 409      E59F0C57 
 409      25714F30 
 409      1BD5D0
 410 0f96 391CBAEC 		.ascii	"9\034\272\354\272\363\035L\273\032"
 410      BAF31D4C 
 410      BB1A
 411 0fa0 967F5177 		.ascii	"\226\177QwN\306v\252a\371\\\\\302\373\342\272\032\232"
 411      4EC676AA 
 411      61F95C5C 
 411      C2FBE2BA 
 411      1A9A
 412 0fb2 DBEBF264 		.ascii	"\333\353\362d\363n\250A\271\367\262\251IoF\260\034O"
 412      F36EA841 
 412      B9F7B2A9 
 412      496F46B0 
 412      1C4F
 413 0fc4 5FA4F488 		.ascii	"_\244\364\210`g\221\3275\027\236\234\264$\202\2557\372"
 413      606791D7 
 413      35179E9C 
 413      B42482AD 
 413      37FA
 414 0fd6 A432598C 		.ascii	"\2442Y\2147\347\363\320\304\271[B\342\365o\341\362|"
 414      37E7F3D0 
 414      C4B95B42 
 414      E2F56FE1 
 414      F27C
 415 0fe8 02CBF3BC 		.ascii	"\002\313\363\274zx\276\226^\306\370\364\222\001Q9\252"
 415      7A78BE96 
 415      5EC6F8F4 
 415      92015139 
 415      AA
 416 0ff9 965EC614 		.ascii	"\226^\306\024\351eT"
 416      E96554
 417 1000 2DBD6428 		.ascii	"-\275d(^S\214\261\3642\356\314\331O\011{V\302u9\241"
 417      5E538CB1 
 417      F432EECC 
 417      D94F097B 
 417      56C27539 
 418 1015 28F19EAA 		.ascii	"(\361\236\252\224x\316\205s\024\324\372\377\273p\236"
 418      9478CE85 
 418      7314D4FA 
 418      FFBB709E 
 419 1025 B6734FC6 		.ascii	"\266sO\306\253\265\212\010\250z\255|\030mg\321B\261"
 419      ABB58A08 
 419      A87AAD7C 
 419      186D67D1 
 419      42B1
 420 1037 17D4B07C 		.ascii	"\027\324\260|\371\320/ck\324\260|\310\366\312\330Z5"
 420      F9D02F63 
 420      6BD4B07C 
 420      C8F6CAD8 
 420      5A35
ARM GAS  C:\Users\info\AppData\Local\Temp\ccFLHjfD.s 			page 34


 421 1049 2C17B01D 		.ascii	",\027\260\0352\364\242\032\224\013\2516\031Z\257\204"
 421      32F4A21A 
 421      940BA936 
 421      195AAF84 
 422 1059 D6BD569C 		.ascii	"\326\275V\234\265\310\330KjX>%T\312\330\0065,_\234\025"
 422      B5C8D84B 
 422      6A583E25 
 422      54CAD806 
 422      352C5F9C 
 423 106e C9D84635 		.ascii	"\311\330F5\254\342\327\0112\366\262\032V\361\254A\306"
 423      ACE2D709 
 423      32F6B21A 
 423      56F1AC41 
 423      C6
 424 107f 5E51C3F2 		.ascii	"^Q\303\362\336M\223\261W\325\260\234wg\332\234\320k"
 424      DE4D93B1 
 424      57D5B09C 
 424      7767DA9C 
 424      D06B
 425 1091 6A50CEBB 		.ascii	"jP\316\273\257dh\263\022\332\364\232w\247dl\213\032"
 425      AF6468B3 
 425      12DAF49A 
 425      77A7646C 
 425      8B1A
 426 10a3 96F7EEB3 		.ascii	"\226\367\356\2636.}\265\252\241y\377\216\313g\37665"
 426      362E7DB5 
 426      AAA179FF 
 426      8ECB67FE 
 426      3635
 427 10b5 2CEFDFB1 		.ascii	",\357\337\261\004\261\212\244?\206k\237\233b\232\346"
 427      04B18AA4 
 427      3F866B9F 
 427      9B629AE6 
 428 10c5 1AD893F0 		.ascii	"\032\330\223\360&\302w\350\214B\347\\x\207zF\332\251"
 428      26C277E8 
 428      8C42E75C 
 428      78877A46 
 428      DAA9
 429 10d7 E31303DC 		.ascii	"\343\023\003\334\311%\006<\026\367B\012\354\241g\252"
 429      C925063C 
 429      16F7420A 
 429      ECA167AA 
 430 10e7 FD900C76 		.ascii	"\375\220\014v\351\304cq\002\254\370\335@\321:~u\026"
 430      E9C46371 
 430      02ACF8DD 
 430      40D13A7E 
 430      7516
 431 10f9 B7B1FA2C 		.ascii	"\267\261\372,\011\024\350\003\005v\351\324\3533E\342"
 431      0914E803 
 431      0576E9D4 
 431      EB3345E2 
 432 1109 71F6FFA5 		.ascii	"q\366\377\245x\007M<\2110\226\372\020g\333\376\016\255"
 432      78074D3C 
 432      893096FA 
 432      1067DBFE 
 432      0EAD
 433 111b DC03835C 		.ascii	"\334\003\203\\\237;\210zU\027\253\343\322n<t\035\243"
ARM GAS  C:\Users\info\AppData\Local\Temp\ccFLHjfD.s 			page 35


 433      9F3B887A 
 433      5517ABE3 
 433      D26E3C74 
 433      1DA3
 434 112d 5349BB3C 		.ascii	"SI\273<J\303A\270\264\373\27379\004\340\341\3378\335"
 434      4AC341B8 
 434      B4FBBB37 
 434      3904E0E1 
 434      DF38DD
 435 1140 9CAC8B35 		.ascii	"\234\254\2135W\337.\366\242\233*yC~\306\035\243\223"
 435      57DF2EF6 
 435      A29B2A79 
 435      437EC61D 
 435      A393
 436 1152 EBBBC204 		.ascii	"\353\273\302\004q\003\331\013\230.UCV}\235\035\373\024"
 436      7103D90B 
 436      982E5543 
 436      567D9D1D 
 436      FB14
 437 1164 76E0A83D 		.ascii	"v\340\250=8*\355\261{\356\250b\001\237\300\352D\030"
 437      382AEDB1 
 437      7BEEA862 
 437      019FC0EA 
 437      4418
 438 1176 8BAF13B9 		.ascii	"\213\257\023\2711R\3701\322`\214d5_\245(|\225\374W}"
 438      3152F831 
 438      D2608C64 
 438      355FA528 
 438      7C95FC57 
 439 118b 95C27C95 		.ascii	"\225\302|\225\252\360\325M\255\344\254\001T\233\206"
 439      AAF0D54D 
 439      ADE4AC01 
 439      549B86
 440 119a CD2D59ED 		.ascii	"\315-Y\355dN\355\033W\276M\021\007\300E\267e\004\265"
 440      644EED1B 
 440      57BE4D11 
 440      07C045B7 
 440      6504B5
 441 11ad 62BE68E2 		.ascii	"b\276h\342\242\365k\242\251;A\214\246C0\366\035\365"
 441      A2F56BA2 
 441      A93B418C 
 441      A64330F6 
 441      1DF5
 442 11bf 35337716 		.ascii	"53w\026\024\036:\254\360\020*;\206\346\320.\357\316"
 442      141E3AAC 
 442      F0102A3B 
 442      86E6D02E 
 442      EFCE
 443 11d1 35076B8D 		.ascii	"5\007k\215\033\011\236Xk\320\232|X\034\326\371\360b"
 443      1B099E58 
 443      6BD09A7C 
 443      581CD6F9 
 443      F062
 444 11e3 6E6DDF8E 		.ascii	"nm\337\216sv[\255\266\357\334\305j{\272\277\337\224"
 444      73765BAD 
 444      B6EFDCC5 
 444      6A7BBABF 
ARM GAS  C:\Users\info\AppData\Local\Temp\ccFLHjfD.s 			page 36


 444      DF94
 445 11f5 6BFBDBAC 		.ascii	"k\373\333\254\266GDE\333\022\212\240eJ\205\254\315("
 445      B6474445 
 445      DB128AA0 
 445      654A85AC 
 445      CD28
 446 1207 2B01E883 		.ascii	"+\001\350\203\260\354};=u\322\234\324\340\017iw\267"
 446      B0EC7D3B 
 446      3D75D29C 
 446      D4E00F69 
 446      77B7
 447 1219 1727B82E 		.ascii	"\027'\270.\235\367\214\230\305f3\223\315&}Ex\244v\304"
 447      9DF78C98 
 447      C5663393 
 447      CD267D45 
 447      78A476C4 
 448 122d F33BE98E 		.ascii	"\363;\351\216\364<\307`\3521\277\304\214m\216\270\010"
 448      F43CC760 
 448      EA31BFC4 
 448      8C6D8EB8 
 448      08
 449 123e 87E3C70C 		.ascii	"\207\343\307\014(\034\227\177\302x\234\375\262[8\006"
 449      281C977F 
 449      C2789CFD 
 449      B25B3806 
 450 124e D59846C8 		.ascii	"\325\230F\310\326}\007\356\335\021[\232\241%[\027\262"
 450      D67D07EE 
 450      DD115B9A 
 450      A1255B17 
 450      B2
 451 125f F3C4B9C9 		.ascii	"\363\304\271\311\326D\361u\013\221\336\366\334\213\311"
 451      D644F175 
 451      0B91DEF6 
 451      DC8BC9
 452 126e ED26F3AB 		.ascii	"\355&\363\253r\202\251r\\R\345aKV\006\001U\006\035\216"
 452      7282A972 
 452      5C52E561 
 452      4B560601 
 452      55061D8E 
 453 1282 C1F3B37F 		.ascii	"\301\363\263\177\252\312\330V\035'0\224pL\347\324\003"
 453      AACAD856 
 453      1D273094 
 453      704CE7D4 
 453      03
 454 1293 2E990B85 		.ascii	".\231\013\205\223L\207\346\233[\323\335I2\3520\226\031"
 454      934C87E6 
 454      9B5BD3DD 
 454      4932EA30 
 454      9619
 455 12a5 59EDA2E3 		.ascii	"Y\355\242\343\3263U2\261\355\221\307\374:\234f:\234"
 455      D6335532 
 455      B1ED91C7 
 455      FC3A9C66 
 455      3A9C
 456 12b7 927498BA 		.ascii	"\222t\230\272\331Y\242\025uh\031\377CJ\026\352p\232"
 456      D959A215 
 456      756819FF 
ARM GAS  C:\Users\info\AppData\Local\Temp\ccFLHjfD.s 			page 37


 456      434A16EA 
 456      709A
 457 12c9 868DAC43 		.ascii	"\206\215\254C\216\244\303\031\246\303\361\275\273\262"
 457      8EA4C319 
 457      A6C3F1BD 
 457      BBB2
 458 12d7 09C95A28 		.ascii	"\011\311Z(\276\367{\3757\346e\307\017}\352|\037\232"
 458      BEF77BFD 
 458      37E665C7 
 458      0F7DEA7C 
 458      1F9A
 459 12e9 A763B2DE 		.ascii	"\247c\262\336;{\217\030\235\302|\024\026?\213\272(\033"
 459      3B7B8F18 
 459      9DC27C14 
 459      163F8BBA 
 459      281B
 460 12fb 5080C2ED 		.ascii	"P\200\302\355\225{v*,P\026\220E\314\202B\311\202\312"
 460      957B762A 
 460      2C501690 
 460      45CC8242 
 460      C982CA
 461 130e 92CE13EE 		.ascii	"\222\316\023\356hA\365\313\234\300\370-\351\237R\210"
 461      6841F5CB 
 461      9CC0F82D 
 461      E99F5288 
 462 131e 902BAB9F 		.ascii	"\220+\253\237+\251\177\226\251\277\353f\312\005/R\270"
 462      2BA97F96 
 462      A9BFEB66 
 462      CA052F52 
 462      B8
 463 132f 70DEB766 		.ascii	"p\336\267f\327\247v&\310\277 /A\255\316\276\270\333"
 463      D7A77626 
 463      C8BF202F 
 463      41ADCEBE 
 463      B8DB
 464 1341 E3C56B45 		.ascii	"\343\305kE\315\225\265*eZ\235\223\264\312\333\326\233"
 464      CD95B52A 
 464      655A9D93 
 464      B4CADBD6 
 464      9B
 465 1352 22CFEDC7 		.ascii	"\"\317\355\307O\304\271\005\224P,+V,)V\306\024k\250"
 465      4FC4B905 
 465      94502C2B 
 465      562C2956 
 465      C6146BA8 
 466 1366 389CEE46 		.ascii	"8\234\356F*\377\233~=\257\346\327\012\024\346\325$%"
 466      2AFF9B7E 
 466      3DAFE6D7 
 466      0A14E6D5 
 466      2425
 467 1378 7B388595 		.ascii	"{8\205\225(\334_\3277.\013\253P8s*\263@\353\234\201"
 467      28DC5FD7 
 467      372E0BAB 
 467      5038732A 
 467      B340EB9C 
 468 138d 6A14A63E 		.ascii	"j\024\246>\313\256r\231\177\006j\230\255\027$[\323\342"
 468      CBAE7299 
ARM GAS  C:\Users\info\AppData\Local\Temp\ccFLHjfD.s 			page 38


 468      7F066A98 
 468      AD17245B 
 468      D3E2
 469 139f 0B9E7B3A 		.ascii	"\013\236{:c(\274\\\214!@\011\345\262\255\345\222\255"
 469      6328BC5C 
 469      8C214009 
 469      E5B2ADE5 
 469      92AD
 470 13b1 B53809FD 		.ascii	"\2658\011\375Iyn\244\025m}5ye\330E\234\303\344\354U"
 470      49796EA4 
 470      156D7D35 
 470      7965D845 
 470      9CC3E4EC 
 471 13c6 A98E1A1D 		.ascii	"\251\216\032\035\333?.\312\267_\224n\257c\267\027\265"
 471      DB3F2ECA 
 471      B75F946E 
 471      AF63B717 
 471      B5
 472 13d7 76C47991 		.ascii	"v\304y\221\301\371]\225625\256w\332u\011\355J\234\275"
 472      C1F95D95 
 472      363235AE 
 472      77DA7509 
 472      ED4A9CBD 
 473 13eb 50E835BF 		.ascii	"P\3505\277]\215\314\256\006\311\256\231\203M\365\222"
 473      5D8DCCAE 
 473      06C9AE99 
 473      834DF592 
 474 13fb 56256730 		.ascii	"V%g0\262\000\"\324\313Z\325KZ]fZ\265G\314\234p%\343"
 474      B20022D4 
 474      CB5AD54B 
 474      5A5D665A 
 474      B547CC9C 
 475 1412 F36B9538 		.ascii	"\363k\2258\321\364\370k\022\3045\246\300UI\201\361\350"
 475      D1F4F86B 
 475      12C435A6 
 475      C0554981 
 475      F1E8
 476 1424 FA69A3E8 		.ascii	"\372i\243\350\330\212\331\315O2\352w;\216h\031L\270"
 476      D88AD9CD 
 476      4F32EA77 
 476      3B8E6819 
 476      4CB8
 477 1436 222B7145 		.ascii	"\"+qER\242\211)\021\027\3354\342Nv\370\340\317\225_"
 477      52A28929 
 477      1117DD34 
 477      E24E76F8 
 477      E0CF955F 
 478 144a 1C2C97E2 		.ascii	"\034,\227\342\260u|}i\335]\307\016\037V\016\010\315"
 478      B0757C7D 
 478      69DD5DC7 
 478      0E1F560E 
 478      08CD
 479 145c 720FCD52 		.ascii	"r\017\315R\017-\254\207\251\316\242mZ\222\3563\357\002"
 479      0F2DAC87 
 479      A9CEA26D 
 479      5A92EE33 
 479      EF02
ARM GAS  C:\Users\info\AppData\Local\Temp\ccFLHjfD.s 			page 39


 480 146e D9D155F0 		.ascii	"\331\321U\360\330\315\351\3346tn{\313\255!E\320(6\325"
 480      D8CDE9DC 
 480      36746E7B 
 480      CBAD2145 
 480      D02836D5 
 481 1482 0E665ABB 		.ascii	"\016fZ\273d\332\355\331\243\317]E\337~\225#\260\031"
 481      64DAEDD9 
 481      A3CF5D45 
 481      DF7E9523 
 481      B019
 482 1494 0788D02A 		.ascii	"\007\210\320*+\325*)\325\311\224J\277;v\211\360/\":"
 482      2BD52A29 
 482      D5C9944A 
 482      BF3B7689 
 482      F02F223A 
 483 14a8 14DBFA75 		.ascii	"\024\333\372u\254\006\3517\200\223\"R\326\362\330k\012"
 483      AC06E937 
 483      80932252 
 483      D6F2D86B 
 483      0A
 484 14b9 EC0D117B 		.ascii	"\354\015\021{\203aKvD\235Vt\334\250\000w\211\340.\006"
 484      83614B76 
 484      449D5674 
 484      DCA80077 
 484      89E02E06 
 485 14cd BE9A9D11 		.ascii	"\276\232\235\021\301~\263\347\020\301>\374\374u\353"
 485      C17EB3E7 
 485      10C13EFC 
 485      FC75EB
 486 14dc E85FEABC 		.ascii	"\350_\352\274\307jd\000_n\275\177\325\315'\216\201\253"
 486      C76A6400 
 486      5F6EBD7F 
 486      D5CD278E 
 486      81AB
 487 14ee 1D3F16D8 		.ascii	"\035?\026\330_\014I\017n\241\206\324\371H\3670\006\356"
 487      5F0C490F 
 487      6EA186D4 
 487      F948F730 
 487      06EE
 488 1500 98BDF668 		.ascii	"\230\275\366hF\361\227= \346\372\357\021u\351a\272\264"
 488      46F1973D 
 488      20E6FAEF 
 488      1175E961 
 488      BAB4
 489 1512 CD9E9C56 		.ascii	"\315\236\234V\200k\024\212\367\212\340^\006\236I\336"
 489      806B148A 
 489      F78AE05E 
 489      069E49DE 
 490 1522 7146F167 		.ascii	"qF\361g-E\012p\237\010\356c\340\251\224\346.w\036\\"
 490      2D450A70 
 490      9F08EE63 
 490      E0A994E6 
 490      2E771E5C 
 491 1536 AA00F78B 		.ascii	"\252\000\367\213\340~\006\356\252\312\331\251xCtZ\001"
 491      E07E06EE 
 491      AACAD9A9 
 491      7843745A 
ARM GAS  C:\Users\info\AppData\Local\Temp\ccFLHjfD.s 			page 40


 491      01
 492 1547 1E10C103 		.ascii	"\036\020\301\003\014\234\177\244\376\230'\017>\241\000"
 492      0C9C7FA4 
 492      FE98270F 
 492      3EA100
 493 1556 0F8A60FA 		.ascii	"\017\212`\372\275,l\365\272\367M_\330,\326_\006\333"
 493      BD2C6CF5 
 493      BAF74D5F 
 493      D82CD65F 
 493      06DB
 494 1568 2DD6B566 		.ascii	"-\326\265f\177\313/\203C\303\354\2773\007\205Y\364\277"
 494      7FCB2F83 
 494      43C3ECBF 
 494      33078559 
 494      F4BF
 495 157a F8EC8BE5 		.ascii	"\370\354\213\345?]\265J\243\363_o\266\272\233La\201"
 495      3F5DB54A 
 495      A3F35F6F 
 495      B6BA9B4C 
 495      6181
 496 158c C1F6D526 		.ascii	"\301\366\325&{\204\340\377\2435\241\326\220uV\363\206"
 496      7B84E0FF 
 496      A335A1D6 
 496      907556F3 
 496      86
 497 159d E56B0383 		.ascii	"\345k\003\203,\266\345\276\341\253?\372\336\032\377"
 497      2CB6E5BE 
 497      E1AB3FFA 
 497      DE1AFF
 498 15ac CDA1568B 		.ascii	"\315\241V\213\315\266&\324\026\342\277\334\337j1\333"
 498      CDB626D4 
 498      16E2BFDC 
 498      DF6A31DB 
 499 15bc 43AC6B3E 		.ascii	"C\254k>\\\361\276R\020\270!4\304j_\263.8l\215\331\272"
 499      5CF1BE52 
 499      10B82134 
 499      C46A5FB3 
 499      2E386C8D 
 500 15d2 61CD0F56 		.ascii	"a\315\017V|\270b\025\275z78$\330\362\256\305\354\027"
 500      7CB86215 
 500      BD7A3738 
 500      24D8F2AE 
 500      C5EC17
 501 15e5 B82630D8 		.ascii	"\270&0\330?(,\300\262f\203\331\177}`\260e\215)\300\262"
 501      3F282CC0 
 501      B26683D9 
 501      7F7D60B0 
 501      658D29C0 
 502 15fa D61C1664 		.ascii	"\326\034\026d7\3317\207Zl+\326k\334DU6\376_ib\333l["
 502      37D93787 
 502      5A6C2BD6 
 502      6BDC4455 
 502      36FE5F69 
 503 1612 63B2D903 		.ascii	"c\262\331\003`X\030\336\020`5o2\371\207\004\205X\027"
 503      605818DE 
 503      1060356F 
 503      32F98704 
ARM GAS  C:\Users\info\AppData\Local\Temp\ccFLHjfD.s 			page 41


 503      855817
 504 1625 F905DA37 		.ascii	"\371\005\3327\230CMv\2539\330\026j\266Z\202\3757{\255"
 504      98434D76 
 504      AB39D816 
 504      6AB65A82 
 504      FD377BAD 
 505 1639 0BDA1CBA 		.ascii	"\013\332\034\272\336\024n\012Y\273\326f\261\353M&\324"
 505      DE146E0A 
 505      59BBD666 
 505      B1EB4D26 
 505      D4
 506 164a D615BF16 		.ascii	"\326\025\277\026\254\015\011\266\233\254\226\265`\226"
 506      AC0D09B6 
 506      9BAC96B5 
 506      6096
 507 1658 CDDF126C 		.ascii	"\315\337\022l\367v\012\314\214G\300zK\340\272\365v\323"
 507      F7760ACC 
 507      8C47C07A 
 507      4BE0BAF5 
 507      76D3
 508 166a 869000CB 		.ascii	"\206\220\000\313\362@\233)\324\274\316b\362\017\012"
 508      F2409B29 
 508      D4BCCE62 
 508      F20F0A
 509 1679 0C356D0A 		.ascii	"\0145m\012\014\016\010\331D\373\264Xm\026\177{`H\260"
 509      0C0E08D9 
 509      44FBB458 
 509      6D167F7B 
 509      6048B0
 510 168c 3BBB2330 		.ascii	";\273#0xm\310B\233\335l\265\233BCl\246\240\220M\026"
 510      786DC842 
 510      9BDD6CB5 
 510      9B42436C 
 510      A6A0904D 
 511 16a1 ABC96CC0 		.ascii	"\253\311l\300\211[\365\221\311\256\227.8TXh(\240>6\212"
 511      895BF591 
 511      C9AE972E 
 511      38545868 
 511      28A03E36 
 512 16b6 BAC03856 		.ascii	"\272\3008V\263\207Y\276v\227\032\326\351E\351\307\372"
 512      B38759BE 
 512      76971AD6 
 512      E945E9C7 
 512      FA
 513 16c7 CD926592 		.ascii	"\315\222e\222\211\336\033\314\341&\032%\242\326^N~S"
 513      89DE1BCC 
 513      E1261A25 
 513      A2D65E4E 
 513      7E53
 514 16d9 60807DFD 		.ascii	"`\200}\375\002p\022X\000\343\004X\202\354fS\270\267"
 514      02701258 
 514      00E30458 
 514      82EC6653 
 514      B8B7
 515 16eb 53C0409B 		.ascii	"S\300@\233\347\360\341\213\225<v\272H)d=\033\234\262"
 515      E7F0E18B 
 515      953C76BA 
ARM GAS  C:\Users\info\AppData\Local\Temp\ccFLHjfD.s 			page 42


 515      4829643D 
 515      1B9CB2
 516 16fe 55F2E54A 		.ascii	"U\362\345J\275\237_8s\234;\316\204\177\260}\241\211"
 516      BD9F5F38 
 516      739C3BCE 
 516      847FB07D 
 516      A189
 517 1710 85BAD34F 		.ascii	"\205\272\323OJ\037\004\007\372\003z\361\212\025k\030"
 517      4A1F0407 
 517      FA037AF1 
 517      8A156B18 
 518 1720 CADF66F5 		.ascii	"\312\337f\365gW0\327\013\346\336\347\301\256\003,\364"
 518      675730D7 
 518      0BE6DEE7 
 518      C1AE032C 
 518      F4
 519 1731 0EBDDF3A 		.ascii	"\016\275\337:\014\003\375Z\361\302\013\246J\216\005"
 519      0C03FD5A 
 519      F1C20BA6 
 519      4A8E05
 520 1740 BB17E24C 		.ascii	"\273\027\342L\240\033\035\311\210\372\240=\036\3100"
 520      A01B1DC9 
 520      88FAA03D 
 520      1EC830
 521 174f 3B84CD42 		.ascii	";\204\315B\270\036\364Yg\261\2336{\260!\351\\\301\224"
 521      B81EF459 
 521      67B19B36 
 521      7BB021E9 
 521      5CC194
 522 1762 89C27083 		.ascii	"\211\302p\203\330S\250\335\272\210\263E\224\332I@\240"
 522      D853A8DD 
 522      BA88B345 
 522      94DA4940 
 522      A0
 523 1773 D5E775B1 		.ascii	"\325\347u\261\027\343\374\315A\376\246\215\020`\177"
 523      17E3FCCD 
 523      41FEA68D 
 523      10607F
 524 1782 23239C32 		.ascii	"##\2342\323\332`\350SG\205n,\2766\257\022\277W\342w"
 524      D3DA60E8 
 524      5347856E 
 524      2CBE36AF 
 524      12BF57E2 
 525 1797 B8C887AF 		.ascii	"\270\310\207\257t\013\203LA\333\361[\344\303E>|\245"
 525      740B834C 
 525      41DBF15B 
 525      E4C3453E 
 525      7CA5
 526 17a9 2B1AE6C2 		.ascii	"+\032\346\302Lr\365\013[\013X\374Z\351\025\032\030n"
 526      4C72F50B 
 526      5B0B58FC 
 526      5AE9151A 
 526      186E
 527 17bb 0932F987 		.ascii	"\0112\371\207Y\255&k\310\246\005\310\3226\274\307[\026"
 527      59AD266B 
 527      C8A605C8 
 527      D236BCC7 
ARM GAS  C:\Users\info\AppData\Local\Temp\ccFLHjfD.s 			page 43


 527      5B16
 528 17cd B0BB3D   		.ascii	"\260\273="
 529 17d0 EDB09C9D 		.ascii	"\355\260\234\235po\306\311h\243\223\007\325\265\376"
 529      706FC6C9 
 529      68A39307 
 529      D5B5FE
 530 17df 7EDE61A1 		.ascii	"~\336a\241\001f\273\005\027\011\254\217%\350A\245\320"
 530      0166BB05 
 530      1709AC8F 
 530      25E841A5 
 530      D0
 531 17f0 E4EFB740 		.ascii	"\344\357\267@\024\005\004n\260\004\333`\341,\345\201"
 531      1405046E 
 531      B004DB60 
 531      E12CE581 
 532 1800 4E2920BD 		.ascii	"N) \2750\020\374`\321[\303\374\355z\266\342\203~\270"
 532      3010FC60 
 532      D15BC3FC 
 532      ED7AB6E2 
 532      837EB8
 533 1813 12C341E2 		.ascii	"\022\303A\342\000\340.\001\355\356AA\246\365\033\203"
 533      00E02E01 
 533      EDEE4141 
 533      A6F51B83 
 534 1823 2061BDC9 		.ascii	" a\275\311\201$\031@ta\253\303WCD\370\205\204\005\373"
 534      81241940 
 534      7461ABC3 
 534      574344F8 
 534      858405FB 
 535 1837 5BA06718 		.ascii	"[\240g\030t\211\223\0152\333 F@M&\377[\247\\\312}\316"
 535      7489930D 
 535      32DB2046 
 535      404D26FF 
 535      5BA75CCA 
 536 184d 268F75A1 		.ascii	"&\217u\241\201!\220.l 5\204\331\327\256F1t\2741\020"
 536      8121902E 
 536      6C203584 
 536      D9D7AE46 
 536      3174BC31 
 537 1862 F0E68000 		.ascii	"\360\346\200\000\232\373<\002\337\3677\261\020\267\004"
 537      9AFB3C02 
 537      DFF737B1 
 537      10B704
 538 1871 B06B51BE 		.ascii	"\260kQ\276\030\002T\214\346\2154\177\260u\242\207\264"
 538      1802548C 
 538      E68D347F 
 538      B075A287 
 538      B4
 539 1882 1502C96D 		.ascii	"\025\002\311m\235\273_\230\015\262L\210\377\037\305"
 539      9DBB5F98 
 539      0DB24C88 
 539      FF1FC5
 540 1891 B4F1C1FB 		.ascii	"\264\361\301\373b\332\240\027\013\331\310\346\340\000"
 540      62DAA017 
 540      0BD9C8E6 
 540      E000
 541 189f BA8ECD9B 		.ascii	"\272\216\315\233\301$\017j\222i\203\015\242\337\317"
ARM GAS  C:\Users\info\AppData\Local\Temp\ccFLHjfD.s 			page 44


 541      C1240F6A 
 541      9269830D 
 541      A2DFCF
 542 18ae CD6FB39D 		.ascii	"\315o\263\235\232\351\352o\016\200/C@\240-\024Qn\301"
 542      9AE9EA6F 
 542      0E802F43 
 542      40A02D14 
 542      516EC1
 543 18c1 96708838 		.ascii	"\226p\2108?#C\263\325\013\214\324N\227\225\007N?\233"
 543      3F2343B3 
 543      D50B8CD4 
 543      4E979507 
 543      4E3F9B
 544 18d4 FA856B21 		.ascii	"\372\205k!\332\250V\316\014\272@\362\201$\360`\363\217"
 544      DAA856CE 
 544      0CBA40F2 
 544      8124F060 
 544      F38F
 545 18e6 B16060D7 		.ascii	"\261``\327\354\316\305\233\254\201t\302\303\202l\242"
 545      ECCEC59B 
 545      AC8174C2 
 545      C3826CA2 
 546 18f6 C4146CF3 		.ascii	"\304\024l\363\201\2715\233\340\2460\310\3220\303 ZL"
 546      81B9359B 
 546      E0A630C8 
 546      D230C320 
 546      5A4C
 547 1908 FDE1B4D4 		.ascii	"\375\341\264\324\264j\345\312?~\372g\275-4\2209\303"
 547      B46AE5CA 
 547      3F7EFA67 
 547      BD2D3490 
 547      39C3
 548 191a 680319B6 		.ascii	"h\003\031\266\254\377\263\017e\224\035.\264\005\314"
 548      ACFFB30F 
 548      65941D2E 
 548      B405CC
 549 1929 E9CF0796 		.ascii	"\351\317\007\2266M\340 4m2\303R\337`[\214\034\177\347"
 549      364DE020 
 549      346D32C3 
 549      52DF605B 
 549      8C1C7FE7 
 550 193d 06DB52D8 		.ascii	"\006\333R\330\225\300|XK`\273\331\217\252M\321\301\320"
 550      95C07C58 
 550      4B60BBD9 
 550      8FAA4DD1 
 550      C1D0
 551 194f 403B602D 		.ascii	"@;`-\226`\276\301G\201\016\262l\264\004-\344aL\262\224"
 551      9660BEC1 
 551      47810EB2 
 551      6CB4042D 
 551      E4614CB2 
 552 1964 B99577A7 		.ascii	"\271\225w\247\030\265F\364*\372inv\013_\015\331m\321"
 552      18B546F4 
 552      2AFA696E 
 552      760B5F0D 
 552      D96DD1
 553 1977 EBB7DA71 		.ascii	"\353\267\332qN\261\207E\3160\304x\243S\355\312\332\355"
ARM GAS  C:\Users\info\AppData\Local\Temp\ccFLHjfD.s 			page 45


 553      4EB18745 
 553      CE30C478 
 553      A353EDCA 
 553      DAED
 554 1989 98A510E6 		.ascii	"\230\245\020\346\003Ae\016\263\207H\273\224\305lue\315"
 554      0341650E 
 554      B38748BB 
 554      94C56C75 
 554      65CD
 555 199b F6E5AFE5 		.ascii	"\366\345\257\345T\030\005*\014\323FZb\254\360\327,d"
 555      5418052A 
 555      0CD3465A 
 555      62ACF0D7 
 555      2C64
 556 19ad BDFDC262 		.ascii	"\275\375\302b\377\265%8\354\347\033!gz2\324g\0202\237"
 556      FFB52538 
 556      ECE71B21 
 556      677A32D4 
 556      6710329F 
 557 19c1 436FC8FD 		.ascii	"Co\310\375\014\326\322\027\277\375d\265\201\241\303"
 557      0CD6D217 
 557      BFFD64B5 
 557      81A1C3
 558 19d0 56DB43CC 		.ascii	"V\333C\314>\212\206\177\206%f\303E\373I\240\325\306"
 558      3E8A867F 
 558      862566C3 
 558      45FB49A0 
 558      D5C6
 559 19e2 6E5DC858 		.ascii	"n]\310X\350\232\002~O\347\340\015i\260\337\330\255\020"
 559      E89A027E 
 559      4FE7E00D 
 559      69B0DFD8 
 559      AD10
 560 19f4 EDF4A69F 		.ascii	"\355\364\246\237\006\3331[\374\306b\377\004\326\305"
 560      06DB315B 
 560      FCC662FF 
 560      04D6C5
 561 1a03 E721B69F 		.ascii	"\347!\266\237\230m\026\272d\337\340\345?\013\264\342"
 561      986D16BA 
 561      64DFE0E5 
 561      3F0BB4E2 
 562 1a13 5EFB5FE0 		.ascii	"^\373_\340\376\251="
 562      FEA93D
 563              		.text
 564              		.section	.gnu.lto_.symtab.792bc55d,"",%progbits
 565 0000 75386732 		.ascii	"u8g2_UserInterfaceInputValue\000"
 565      5F557365 
 565      72496E74 
 565      65726661 
 565      6365496E 
 566 001d 00       		.ascii	"\000"
 567 001e 00       		.ascii	"\000"
 568 001f 00       		.ascii	"\000"
 569 0020 00000000 		.ascii	"\000\000\000\000\000\000\000\000"
 569      00000000 
 570 0028 26020000 		.ascii	"&\002\000\000"
 571 002c 75387838 		.ascii	"u8x8_GetMenuEvent\000"
ARM GAS  C:\Users\info\AppData\Local\Temp\ccFLHjfD.s 			page 46


 571      5F476574 
 571      4D656E75 
 571      4576656E 
 571      7400
 572 003e 00       		.ascii	"\000"
 573 003f 02       		.ascii	"\002"
 574 0040 00       		.ascii	"\000"
 575 0041 00000000 		.ascii	"\000\000\000\000\000\000\000\000"
 575      00000000 
 576 0049 2A020000 		.ascii	"*\002\000\000"
 577 004d 75386732 		.ascii	"u8g2_NextPage\000"
 577      5F4E6578 
 577      74506167 
 577      6500
 578 005b 00       		.ascii	"\000"
 579 005c 02       		.ascii	"\002"
 580 005d 00       		.ascii	"\000"
 581 005e 00000000 		.ascii	"\000\000\000\000\000\000\000\000"
 581      00000000 
 582 0066 2E020000 		.ascii	".\002\000\000"
 583 006a 75386732 		.ascii	"u8g2_DrawUTF8\000"
 583      5F447261 
 583      77555446 
 583      3800
 584 0078 00       		.ascii	"\000"
 585 0079 02       		.ascii	"\002"
 586 007a 00       		.ascii	"\000"
 587 007b 00000000 		.ascii	"\000\000\000\000\000\000\000\000"
 587      00000000 
 588 0083 35020000 		.ascii	"5\002\000\000"
 589 0087 75387838 		.ascii	"u8x8_u8toa\000"
 589      5F753874 
 589      6F6100
 590 0092 00       		.ascii	"\000"
 591 0093 02       		.ascii	"\002"
 592 0094 00       		.ascii	"\000"
 593 0095 00000000 		.ascii	"\000\000\000\000\000\000\000\000"
 593      00000000 
 594 009d 3A020000 		.ascii	":\002\000\000"
 595 00a1 75386732 		.ascii	"u8g2_DrawUTF8Lines\000"
 595      5F447261 
 595      77555446 
 595      384C696E 
 595      657300
 596 00b4 00       		.ascii	"\000"
 597 00b5 02       		.ascii	"\002"
 598 00b6 00       		.ascii	"\000"
 599 00b7 00000000 		.ascii	"\000\000\000\000\000\000\000\000"
 599      00000000 
 600 00bf 43020000 		.ascii	"C\002\000\000"
 601 00c3 75386732 		.ascii	"u8g2_FirstPage\000"
 601      5F466972 
 601      73745061 
 601      676500
 602 00d2 00       		.ascii	"\000"
 603 00d3 02       		.ascii	"\002"
 604 00d4 00       		.ascii	"\000"
ARM GAS  C:\Users\info\AppData\Local\Temp\ccFLHjfD.s 			page 47


 605 00d5 00000000 		.ascii	"\000\000\000\000\000\000\000\000"
 605      00000000 
 606 00dd 45020000 		.ascii	"E\002\000\000"
 607 00e1 75386732 		.ascii	"u8g2_GetUTF8Width\000"
 607      5F476574 
 607      55544638 
 607      57696474 
 607      6800
 608 00f3 00       		.ascii	"\000"
 609 00f4 02       		.ascii	"\002"
 610 00f5 00       		.ascii	"\000"
 611 00f6 00000000 		.ascii	"\000\000\000\000\000\000\000\000"
 611      00000000 
 612 00fe 4A020000 		.ascii	"J\002\000\000"
 613 0102 75387838 		.ascii	"u8x8_GetStringLineCnt\000"
 613      5F476574 
 613      53747269 
 613      6E674C69 
 613      6E65436E 
 614 0118 00       		.ascii	"\000"
 615 0119 02       		.ascii	"\002"
 616 011a 00       		.ascii	"\000"
 617 011b 00000000 		.ascii	"\000\000\000\000\000\000\000\000"
 617      00000000 
 618 0123 4E020000 		.ascii	"N\002\000\000"
 619 0127 75386732 		.ascii	"u8g2_SetFontPosBaseline\000"
 619      5F536574 
 619      466F6E74 
 619      506F7342 
 619      6173656C 
 620 013f 00       		.ascii	"\000"
 621 0140 02       		.ascii	"\002"
 622 0141 00       		.ascii	"\000"
 623 0142 00000000 		.ascii	"\000\000\000\000\000\000\000\000"
 623      00000000 
 624 014a 50020000 		.ascii	"P\002\000\000"
 625 014e 75386732 		.ascii	"u8g2_SetFontDirection\000"
 625      5F536574 
 625      466F6E74 
 625      44697265 
 625      6374696F 
 626 0164 00       		.ascii	"\000"
 627 0165 02       		.ascii	"\002"
 628 0166 00       		.ascii	"\000"
 629 0167 00000000 		.ascii	"\000\000\000\000\000\000\000\000"
 629      00000000 
 630 016f 55020000 		.ascii	"U\002\000\000"
 631              		.text
 632              		.section	.gnu.lto_.opts,"",%progbits
 633 0000 272D666D 		.ascii	"'-fmath-errno' '-fsigned-zeros' '-ftrapping-math' '"
 633      6174682D 
 633      6572726E 
 633      6F272027 
 633      2D667369 
 634 0033 2D666E6F 		.ascii	"-fno-trapv' '-fno-strict-overflow' '-fno-openmp' '-"
 634      2D747261 
 634      70762720 
ARM GAS  C:\Users\info\AppData\Local\Temp\ccFLHjfD.s 			page 48


 634      272D666E 
 634      6F2D7374 
 635 0066 666E6F2D 		.ascii	"fno-openacc' '-mcpu=cortex-m3' '-mthumb' '-g' '-Og'"
 635      6F70656E 
 635      61636327 
 635      20272D6D 
 635      6370753D 
 636 0099 20272D66 		.ascii	" '-ffunction-sections' '-ffat-lto-objects' '-flto'\000"
 636      66756E63 
 636      74696F6E 
 636      2D736563 
 636      74696F6E 
 637              		.text
 638              		.cfi_sections	.debug_frame
 639              		.section	.text.u8g2_UserInterfaceInputValue,"ax",%progbits
 640              		.align	2
 641              		.global	u8g2_UserInterfaceInputValue
 642              		.thumb
 643              		.thumb_func
 644              		.type	u8g2_UserInterfaceInputValue, %function
 645              	u8g2_UserInterfaceInputValue:
 646              	.LFB0:
 647              		.file 1 "..\\u8g2_csrc\\u8g2_input_value.c"
   1:..\u8g2_csrc/u8g2_input_value.c **** /*
   2:..\u8g2_csrc/u8g2_input_value.c **** 
   3:..\u8g2_csrc/u8g2_input_value.c ****   u8g2_input_value.c
   4:..\u8g2_csrc/u8g2_input_value.c ****   
   5:..\u8g2_csrc/u8g2_input_value.c ****   Universal 8bit Graphics Library (https://github.com/olikraus/u8g2/)
   6:..\u8g2_csrc/u8g2_input_value.c **** 
   7:..\u8g2_csrc/u8g2_input_value.c ****   Copyright (c) 2016, olikraus@gmail.com
   8:..\u8g2_csrc/u8g2_input_value.c ****   All rights reserved.
   9:..\u8g2_csrc/u8g2_input_value.c **** 
  10:..\u8g2_csrc/u8g2_input_value.c ****   Redistribution and use in source and binary forms, with or without modification, 
  11:..\u8g2_csrc/u8g2_input_value.c ****   are permitted provided that the following conditions are met:
  12:..\u8g2_csrc/u8g2_input_value.c **** 
  13:..\u8g2_csrc/u8g2_input_value.c ****   * Redistributions of source code must retain the above copyright notice, this list 
  14:..\u8g2_csrc/u8g2_input_value.c ****     of conditions and the following disclaimer.
  15:..\u8g2_csrc/u8g2_input_value.c ****     
  16:..\u8g2_csrc/u8g2_input_value.c ****   * Redistributions in binary form must reproduce the above copyright notice, this 
  17:..\u8g2_csrc/u8g2_input_value.c ****     list of conditions and the following disclaimer in the documentation and/or other 
  18:..\u8g2_csrc/u8g2_input_value.c ****     materials provided with the distribution.
  19:..\u8g2_csrc/u8g2_input_value.c **** 
  20:..\u8g2_csrc/u8g2_input_value.c ****   THIS SOFTWARE IS PROVIDED BY THE COPYRIGHT HOLDERS AND 
  21:..\u8g2_csrc/u8g2_input_value.c ****   CONTRIBUTORS "AS IS" AND ANY EXPRESS OR IMPLIED WARRANTIES, 
  22:..\u8g2_csrc/u8g2_input_value.c ****   INCLUDING, BUT NOT LIMITED TO, THE IMPLIED WARRANTIES OF 
  23:..\u8g2_csrc/u8g2_input_value.c ****   MERCHANTABILITY AND FITNESS FOR A PARTICULAR PURPOSE ARE 
  24:..\u8g2_csrc/u8g2_input_value.c ****   DISCLAIMED. IN NO EVENT SHALL THE COPYRIGHT HOLDER OR 
  25:..\u8g2_csrc/u8g2_input_value.c ****   CONTRIBUTORS BE LIABLE FOR ANY DIRECT, INDIRECT, INCIDENTAL, 
  26:..\u8g2_csrc/u8g2_input_value.c ****   SPECIAL, EXEMPLARY, OR CONSEQUENTIAL DAMAGES (INCLUDING, BUT 
  27:..\u8g2_csrc/u8g2_input_value.c ****   NOT LIMITED TO, PROCUREMENT OF SUBSTITUTE GOODS OR SERVICES; 
  28:..\u8g2_csrc/u8g2_input_value.c ****   LOSS OF USE, DATA, OR PROFITS; OR BUSINESS INTERRUPTION) HOWEVER 
  29:..\u8g2_csrc/u8g2_input_value.c ****   CAUSED AND ON ANY THEORY OF LIABILITY, WHETHER IN CONTRACT, 
  30:..\u8g2_csrc/u8g2_input_value.c ****   STRICT LIABILITY, OR TORT (INCLUDING NEGLIGENCE OR OTHERWISE) 
  31:..\u8g2_csrc/u8g2_input_value.c ****   ARISING IN ANY WAY OUT OF THE USE OF THIS SOFTWARE, EVEN IF 
  32:..\u8g2_csrc/u8g2_input_value.c ****   ADVISED OF THE POSSIBILITY OF SUCH DAMAGE.  
  33:..\u8g2_csrc/u8g2_input_value.c ****   
  34:..\u8g2_csrc/u8g2_input_value.c **** */
ARM GAS  C:\Users\info\AppData\Local\Temp\ccFLHjfD.s 			page 49


  35:..\u8g2_csrc/u8g2_input_value.c **** 
  36:..\u8g2_csrc/u8g2_input_value.c **** #include "u8g2.h"
  37:..\u8g2_csrc/u8g2_input_value.c **** 
  38:..\u8g2_csrc/u8g2_input_value.c **** /*
  39:..\u8g2_csrc/u8g2_input_value.c ****   return:
  40:..\u8g2_csrc/u8g2_input_value.c ****     0: value is not changed (HOME/Break Button pressed)
  41:..\u8g2_csrc/u8g2_input_value.c ****     1: value has been updated
  42:..\u8g2_csrc/u8g2_input_value.c **** */
  43:..\u8g2_csrc/u8g2_input_value.c **** 
  44:..\u8g2_csrc/u8g2_input_value.c **** uint8_t u8g2_UserInterfaceInputValue(u8g2_t *u8g2, const char *title, const char *pre, uint8_t *val
  45:..\u8g2_csrc/u8g2_input_value.c **** {
 648              		.loc 1 45 0
 649              		.cfi_startproc
 650              		@ args = 16, pretend = 0, frame = 24
 651              		@ frame_needed = 0, uses_anonymous_args = 0
 652              	.LVL0:
 653 0000 2DE9F04F 		push	{r4, r5, r6, r7, r8, r9, r10, fp, lr}
 654              		.cfi_def_cfa_offset 36
 655              		.cfi_offset 4, -36
 656              		.cfi_offset 5, -32
 657              		.cfi_offset 6, -28
 658              		.cfi_offset 7, -24
 659              		.cfi_offset 8, -20
 660              		.cfi_offset 9, -16
 661              		.cfi_offset 10, -12
 662              		.cfi_offset 11, -8
 663              		.cfi_offset 14, -4
 664 0004 89B0     		sub	sp, sp, #36
 665              		.cfi_def_cfa_offset 72
 666 0006 0446     		mov	r4, r0
 667 0008 8B46     		mov	fp, r1
 668 000a 0392     		str	r2, [sp, #12]
 669 000c 0793     		str	r3, [sp, #28]
 670 000e 9DF84820 		ldrb	r2, [sp, #72]	@ zero_extendqisi2
 671              	.LVL1:
 672 0012 0692     		str	r2, [sp, #24]
 673 0014 9DF84C20 		ldrb	r2, [sp, #76]	@ zero_extendqisi2
 674 0018 0592     		str	r2, [sp, #20]
 675 001a 9DF85020 		ldrb	r2, [sp, #80]	@ zero_extendqisi2
 676 001e 0492     		str	r2, [sp, #16]
  46:..\u8g2_csrc/u8g2_input_value.c ****   uint8_t line_height;
  47:..\u8g2_csrc/u8g2_input_value.c ****   uint8_t height;
  48:..\u8g2_csrc/u8g2_input_value.c ****   u8g2_uint_t pixel_height;
  49:..\u8g2_csrc/u8g2_input_value.c ****   u8g2_uint_t  y, yy;
  50:..\u8g2_csrc/u8g2_input_value.c ****   u8g2_uint_t  pixel_width;
  51:..\u8g2_csrc/u8g2_input_value.c ****   u8g2_uint_t  x, xx;
  52:..\u8g2_csrc/u8g2_input_value.c ****   
  53:..\u8g2_csrc/u8g2_input_value.c ****   uint8_t local_value = *value;
 677              		.loc 1 53 0
 678 0020 93F80090 		ldrb	r9, [r3]	@ zero_extendqisi2
 679              	.LVL2:
  54:..\u8g2_csrc/u8g2_input_value.c ****   //uint8_t r; /* not used ??? */
  55:..\u8g2_csrc/u8g2_input_value.c ****   uint8_t event;
  56:..\u8g2_csrc/u8g2_input_value.c **** 
  57:..\u8g2_csrc/u8g2_input_value.c ****   /* only horizontal strings are supported, so force this here */
  58:..\u8g2_csrc/u8g2_input_value.c ****   u8g2_SetFontDirection(u8g2, 0);
 680              		.loc 1 58 0
ARM GAS  C:\Users\info\AppData\Local\Temp\ccFLHjfD.s 			page 50


 681 0024 0021     		movs	r1, #0
 682              	.LVL3:
 683 0026 FFF7FEFF 		bl	u8g2_SetFontDirection
 684              	.LVL4:
  59:..\u8g2_csrc/u8g2_input_value.c **** 
  60:..\u8g2_csrc/u8g2_input_value.c ****   /* force baseline position */
  61:..\u8g2_csrc/u8g2_input_value.c ****   u8g2_SetFontPosBaseline(u8g2);
 685              		.loc 1 61 0
 686 002a 2046     		mov	r0, r4
 687 002c FFF7FEFF 		bl	u8g2_SetFontPosBaseline
 688              	.LVL5:
  62:..\u8g2_csrc/u8g2_input_value.c ****   
  63:..\u8g2_csrc/u8g2_input_value.c ****   /* calculate line height */
  64:..\u8g2_csrc/u8g2_input_value.c ****   line_height = u8g2_GetAscent(u8g2);
 689              		.loc 1 64 0
 690 0030 94F88230 		ldrb	r3, [r4, #130]	@ zero_extendqisi2
 691              	.LVL6:
  65:..\u8g2_csrc/u8g2_input_value.c ****   line_height -= u8g2_GetDescent(u8g2);
 692              		.loc 1 65 0
 693 0034 94F983A0 		ldrsb	r10, [r4, #131]
 694 0038 CAEB030A 		rsb	r10, r10, r3
 695 003c 5FFA8AFA 		uxtb	r10, r10
 696              	.LVL7:
  66:..\u8g2_csrc/u8g2_input_value.c ****   
  67:..\u8g2_csrc/u8g2_input_value.c ****   
  68:..\u8g2_csrc/u8g2_input_value.c ****   /* calculate overall height of the input value box */
  69:..\u8g2_csrc/u8g2_input_value.c ****   height = 1;	/* value input line */
  70:..\u8g2_csrc/u8g2_input_value.c ****   height += u8x8_GetStringLineCnt(title);
 697              		.loc 1 70 0
 698 0040 5846     		mov	r0, fp
 699 0042 FFF7FEFF 		bl	u8x8_GetStringLineCnt
 700              	.LVL8:
 701 0046 0130     		adds	r0, r0, #1
 702 0048 C3B2     		uxtb	r3, r0
 703              	.LVL9:
  71:..\u8g2_csrc/u8g2_input_value.c **** 
  72:..\u8g2_csrc/u8g2_input_value.c ****   /* calculate the height in pixel */
  73:..\u8g2_csrc/u8g2_input_value.c ****   pixel_height = height;
  74:..\u8g2_csrc/u8g2_input_value.c ****   pixel_height *= line_height;
 704              		.loc 1 74 0
 705 004a 03FB0AF3 		mul	r3, r3, r10
 706              	.LVL10:
 707 004e DBB2     		uxtb	r3, r3
 708              	.LVL11:
  75:..\u8g2_csrc/u8g2_input_value.c **** 
  76:..\u8g2_csrc/u8g2_input_value.c **** 
  77:..\u8g2_csrc/u8g2_input_value.c ****   /* calculate offset from top */
  78:..\u8g2_csrc/u8g2_input_value.c ****   y = 0;
  79:..\u8g2_csrc/u8g2_input_value.c ****   if ( pixel_height < u8g2_GetDisplayHeight(u8g2)  )
 709              		.loc 1 79 0
 710 0050 94F84420 		ldrb	r2, [r4, #68]	@ zero_extendqisi2
 711 0054 9342     		cmp	r3, r2
 712 0056 03D2     		bcs	.L13
 713              	.LVL12:
  80:..\u8g2_csrc/u8g2_input_value.c ****   {
  81:..\u8g2_csrc/u8g2_input_value.c ****     y = u8g2_GetDisplayHeight(u8g2);
  82:..\u8g2_csrc/u8g2_input_value.c ****     y -= pixel_height;
ARM GAS  C:\Users\info\AppData\Local\Temp\ccFLHjfD.s 			page 51


 714              		.loc 1 82 0
 715 0058 D31A     		subs	r3, r2, r3
 716              	.LVL13:
  83:..\u8g2_csrc/u8g2_input_value.c ****     y /= 2;
 717              		.loc 1 83 0
 718 005a C3F34608 		ubfx	r8, r3, #1, #7
 719              	.LVL14:
 720 005e 01E0     		b	.L2
 721              	.LVL15:
 722              	.L13:
  78:..\u8g2_csrc/u8g2_input_value.c ****   if ( pixel_height < u8g2_GetDisplayHeight(u8g2)  )
 723              		.loc 1 78 0
 724 0060 4FF00008 		mov	r8, #0
 725              	.LVL16:
 726              	.L2:
  84:..\u8g2_csrc/u8g2_input_value.c ****   }
  85:..\u8g2_csrc/u8g2_input_value.c ****   
  86:..\u8g2_csrc/u8g2_input_value.c ****   /* calculate offset from left for the label */
  87:..\u8g2_csrc/u8g2_input_value.c ****   x = 0;
  88:..\u8g2_csrc/u8g2_input_value.c ****   pixel_width = u8g2_GetUTF8Width(u8g2, pre);
 727              		.loc 1 88 0
 728 0064 0399     		ldr	r1, [sp, #12]
 729 0066 2046     		mov	r0, r4
 730              	.LVL17:
 731 0068 FFF7FEFF 		bl	u8g2_GetUTF8Width
 732              	.LVL18:
 733 006c 0546     		mov	r5, r0
 734              	.LVL19:
  89:..\u8g2_csrc/u8g2_input_value.c ****   pixel_width += u8g2_GetUTF8Width(u8g2, "0") * digits;
 735              		.loc 1 89 0
 736 006e 3A49     		ldr	r1, .L19
 737 0070 2046     		mov	r0, r4
 738 0072 FFF7FEFF 		bl	u8g2_GetUTF8Width
 739              	.LVL20:
 740 0076 049B     		ldr	r3, [sp, #16]
 741 0078 03FB0050 		mla	r0, r3, r0, r5
 742 007c C5B2     		uxtb	r5, r0
 743              	.LVL21:
  90:..\u8g2_csrc/u8g2_input_value.c ****   pixel_width += u8g2_GetUTF8Width(u8g2, post);
 744              		.loc 1 90 0
 745 007e 1599     		ldr	r1, [sp, #84]
 746 0080 2046     		mov	r0, r4
 747 0082 FFF7FEFF 		bl	u8g2_GetUTF8Width
 748              	.LVL22:
 749 0086 2844     		add	r0, r0, r5
 750 0088 C0B2     		uxtb	r0, r0
 751              	.LVL23:
  91:..\u8g2_csrc/u8g2_input_value.c ****   if ( pixel_width < u8g2_GetDisplayWidth(u8g2) )
 752              		.loc 1 91 0
 753 008a 94F84330 		ldrb	r3, [r4, #67]	@ zero_extendqisi2
 754 008e 9842     		cmp	r0, r3
 755 0090 03D2     		bcs	.L14
 756              	.LVL24:
  92:..\u8g2_csrc/u8g2_input_value.c ****   {
  93:..\u8g2_csrc/u8g2_input_value.c ****     x = u8g2_GetDisplayWidth(u8g2);
  94:..\u8g2_csrc/u8g2_input_value.c ****     x -= pixel_width;
 757              		.loc 1 94 0
ARM GAS  C:\Users\info\AppData\Local\Temp\ccFLHjfD.s 			page 52


 758 0092 1B1A     		subs	r3, r3, r0
 759              	.LVL25:
  95:..\u8g2_csrc/u8g2_input_value.c ****     x /= 2;
 760              		.loc 1 95 0
 761 0094 C3F34607 		ubfx	r7, r3, #1, #7
 762              	.LVL26:
 763 0098 06E0     		b	.L4
 764              	.LVL27:
 765              	.L14:
  87:..\u8g2_csrc/u8g2_input_value.c ****   pixel_width = u8g2_GetUTF8Width(u8g2, pre);
 766              		.loc 1 87 0
 767 009a 0027     		movs	r7, #0
 768 009c 04E0     		b	.L4
 769              	.LVL28:
 770              	.L15:
  96:..\u8g2_csrc/u8g2_input_value.c ****   }
  97:..\u8g2_csrc/u8g2_input_value.c ****   
  98:..\u8g2_csrc/u8g2_input_value.c ****   /* event loop */
  99:..\u8g2_csrc/u8g2_input_value.c ****   for(;;)
 100:..\u8g2_csrc/u8g2_input_value.c ****   {
 101:..\u8g2_csrc/u8g2_input_value.c ****     u8g2_FirstPage(u8g2);
 102:..\u8g2_csrc/u8g2_input_value.c ****     do
 103:..\u8g2_csrc/u8g2_input_value.c ****     {
 104:..\u8g2_csrc/u8g2_input_value.c ****       /* render */
 105:..\u8g2_csrc/u8g2_input_value.c ****       yy = y;
 106:..\u8g2_csrc/u8g2_input_value.c ****       yy += u8g2_DrawUTF8Lines(u8g2, 0, yy, u8g2_GetDisplayWidth(u8g2), line_height, title);
 107:..\u8g2_csrc/u8g2_input_value.c ****       xx = x;
 108:..\u8g2_csrc/u8g2_input_value.c ****       xx += u8g2_DrawUTF8(u8g2, xx, yy, pre);
 109:..\u8g2_csrc/u8g2_input_value.c ****       xx += u8g2_DrawUTF8(u8g2, xx, yy, u8x8_u8toa(local_value, digits));
 110:..\u8g2_csrc/u8g2_input_value.c ****       u8g2_DrawUTF8(u8g2, xx, yy, post);
 111:..\u8g2_csrc/u8g2_input_value.c ****     } while( u8g2_NextPage(u8g2) );
 112:..\u8g2_csrc/u8g2_input_value.c ****     
 113:..\u8g2_csrc/u8g2_input_value.c **** #ifdef U8G2_REF_MAN_PIC
 114:..\u8g2_csrc/u8g2_input_value.c ****       return 0;
 115:..\u8g2_csrc/u8g2_input_value.c **** #endif
 116:..\u8g2_csrc/u8g2_input_value.c ****     
 117:..\u8g2_csrc/u8g2_input_value.c ****     for(;;)
 118:..\u8g2_csrc/u8g2_input_value.c ****     {
 119:..\u8g2_csrc/u8g2_input_value.c ****       event = u8x8_GetMenuEvent(u8g2_GetU8x8(u8g2));
 120:..\u8g2_csrc/u8g2_input_value.c ****       if ( event == U8X8_MSG_GPIO_MENU_SELECT )
 121:..\u8g2_csrc/u8g2_input_value.c ****       {
 122:..\u8g2_csrc/u8g2_input_value.c **** 	*value = local_value;
 123:..\u8g2_csrc/u8g2_input_value.c **** 	return 1;
 124:..\u8g2_csrc/u8g2_input_value.c ****       }
 125:..\u8g2_csrc/u8g2_input_value.c ****       else if ( event == U8X8_MSG_GPIO_MENU_HOME )
 126:..\u8g2_csrc/u8g2_input_value.c ****       {
 127:..\u8g2_csrc/u8g2_input_value.c **** 	return 0;
 128:..\u8g2_csrc/u8g2_input_value.c ****       }
 129:..\u8g2_csrc/u8g2_input_value.c ****       else if ( event == U8X8_MSG_GPIO_MENU_NEXT || event == U8X8_MSG_GPIO_MENU_UP )
 130:..\u8g2_csrc/u8g2_input_value.c ****       {
 131:..\u8g2_csrc/u8g2_input_value.c **** 	if ( local_value >= hi )
 132:..\u8g2_csrc/u8g2_input_value.c **** 	  local_value = lo;
 771              		.loc 1 132 0
 772 009e DDF81890 		ldr	r9, [sp, #24]
 773              	.LVL29:
 774 00a2 01E0     		b	.L4
 775              	.LVL30:
ARM GAS  C:\Users\info\AppData\Local\Temp\ccFLHjfD.s 			page 53


 776              	.L16:
 133:..\u8g2_csrc/u8g2_input_value.c **** 	else
 134:..\u8g2_csrc/u8g2_input_value.c **** 	  local_value++;
 135:..\u8g2_csrc/u8g2_input_value.c **** 	break;
 136:..\u8g2_csrc/u8g2_input_value.c ****       }
 137:..\u8g2_csrc/u8g2_input_value.c ****       else if ( event == U8X8_MSG_GPIO_MENU_PREV || event == U8X8_MSG_GPIO_MENU_DOWN )
 138:..\u8g2_csrc/u8g2_input_value.c ****       {
 139:..\u8g2_csrc/u8g2_input_value.c **** 	if ( local_value <= lo )
 140:..\u8g2_csrc/u8g2_input_value.c **** 	  local_value = hi;
 777              		.loc 1 140 0
 778 00a4 DDF81490 		ldr	r9, [sp, #20]
 779              	.LVL31:
 780              	.L4:
 101:..\u8g2_csrc/u8g2_input_value.c ****     do
 781              		.loc 1 101 0
 782 00a8 2046     		mov	r0, r4
 783 00aa FFF7FEFF 		bl	u8g2_FirstPage
 784              	.LVL32:
 785              	.L5:
 106:..\u8g2_csrc/u8g2_input_value.c ****       xx = x;
 786              		.loc 1 106 0 discriminator 1
 787 00ae 94F84330 		ldrb	r3, [r4, #67]	@ zero_extendqisi2
 788 00b2 CDF804B0 		str	fp, [sp, #4]
 789 00b6 CDF800A0 		str	r10, [sp]
 790 00ba 4246     		mov	r2, r8
 791 00bc 0021     		movs	r1, #0
 792 00be 2046     		mov	r0, r4
 793 00c0 FFF7FEFF 		bl	u8g2_DrawUTF8Lines
 794              	.LVL33:
 795 00c4 4044     		add	r0, r0, r8
 796 00c6 C6B2     		uxtb	r6, r0
 797              	.LVL34:
 108:..\u8g2_csrc/u8g2_input_value.c ****       xx += u8g2_DrawUTF8(u8g2, xx, yy, u8x8_u8toa(local_value, digits));
 798              		.loc 1 108 0 discriminator 1
 799 00c8 039B     		ldr	r3, [sp, #12]
 800 00ca 3246     		mov	r2, r6
 801 00cc 3946     		mov	r1, r7
 802 00ce 2046     		mov	r0, r4
 803 00d0 FFF7FEFF 		bl	u8g2_DrawUTF8
 804              	.LVL35:
 805 00d4 3844     		add	r0, r0, r7
 806 00d6 C5B2     		uxtb	r5, r0
 807              	.LVL36:
 109:..\u8g2_csrc/u8g2_input_value.c ****       u8g2_DrawUTF8(u8g2, xx, yy, post);
 808              		.loc 1 109 0 discriminator 1
 809 00d8 0499     		ldr	r1, [sp, #16]
 810 00da 4846     		mov	r0, r9
 811 00dc FFF7FEFF 		bl	u8x8_u8toa
 812              	.LVL37:
 813 00e0 0346     		mov	r3, r0
 814 00e2 3246     		mov	r2, r6
 815 00e4 2946     		mov	r1, r5
 816 00e6 2046     		mov	r0, r4
 817 00e8 FFF7FEFF 		bl	u8g2_DrawUTF8
 818              	.LVL38:
 819 00ec 2844     		add	r0, r0, r5
 820              	.LVL39:
ARM GAS  C:\Users\info\AppData\Local\Temp\ccFLHjfD.s 			page 54


 110:..\u8g2_csrc/u8g2_input_value.c ****     } while( u8g2_NextPage(u8g2) );
 821              		.loc 1 110 0 discriminator 1
 822 00ee 159B     		ldr	r3, [sp, #84]
 823 00f0 3246     		mov	r2, r6
 824 00f2 C1B2     		uxtb	r1, r0
 825 00f4 2046     		mov	r0, r4
 826              	.LVL40:
 827 00f6 FFF7FEFF 		bl	u8g2_DrawUTF8
 828              	.LVL41:
 111:..\u8g2_csrc/u8g2_input_value.c ****     
 829              		.loc 1 111 0 discriminator 1
 830 00fa 2046     		mov	r0, r4
 831 00fc FFF7FEFF 		bl	u8g2_NextPage
 832              	.LVL42:
 833 0100 0546     		mov	r5, r0
 834 0102 0028     		cmp	r0, #0
 835 0104 D3D1     		bne	.L5
 836              	.L12:
 119:..\u8g2_csrc/u8g2_input_value.c ****       if ( event == U8X8_MSG_GPIO_MENU_SELECT )
 837              		.loc 1 119 0
 838 0106 2046     		mov	r0, r4
 839 0108 FFF7FEFF 		bl	u8x8_GetMenuEvent
 840              	.LVL43:
 120:..\u8g2_csrc/u8g2_input_value.c ****       {
 841              		.loc 1 120 0
 842 010c 5028     		cmp	r0, #80
 843 010e 04D1     		bne	.L6
 122:..\u8g2_csrc/u8g2_input_value.c **** 	return 1;
 844              		.loc 1 122 0
 845 0110 079B     		ldr	r3, [sp, #28]
 846 0112 83F80090 		strb	r9, [r3]
 123:..\u8g2_csrc/u8g2_input_value.c ****       }
 847              		.loc 1 123 0
 848 0116 0125     		movs	r5, #1
 849 0118 19E0     		b	.L7
 850              	.L6:
 125:..\u8g2_csrc/u8g2_input_value.c ****       {
 851              		.loc 1 125 0
 852 011a 5328     		cmp	r0, #83
 853 011c 17D0     		beq	.L7
 129:..\u8g2_csrc/u8g2_input_value.c ****       {
 854              		.loc 1 129 0
 855 011e 5128     		cmp	r0, #81
 856 0120 01D0     		beq	.L8
 129:..\u8g2_csrc/u8g2_input_value.c ****       {
 857              		.loc 1 129 0 is_stmt 0 discriminator 1
 858 0122 5428     		cmp	r0, #84
 859 0124 07D1     		bne	.L9
 860              	.L8:
 131:..\u8g2_csrc/u8g2_input_value.c **** 	  local_value = lo;
 861              		.loc 1 131 0 is_stmt 1
 862 0126 059B     		ldr	r3, [sp, #20]
 863 0128 9945     		cmp	r9, r3
 864 012a B8D2     		bcs	.L15
 134:..\u8g2_csrc/u8g2_input_value.c **** 	break;
 865              		.loc 1 134 0
 866 012c 09F10109 		add	r9, r9, #1
ARM GAS  C:\Users\info\AppData\Local\Temp\ccFLHjfD.s 			page 55


 867              	.LVL44:
 868 0130 5FFA89F9 		uxtb	r9, r9
 869              	.LVL45:
 870 0134 B8E7     		b	.L4
 871              	.L9:
 137:..\u8g2_csrc/u8g2_input_value.c ****       {
 872              		.loc 1 137 0
 873 0136 5228     		cmp	r0, #82
 874 0138 01D0     		beq	.L11
 137:..\u8g2_csrc/u8g2_input_value.c ****       {
 875              		.loc 1 137 0 is_stmt 0 discriminator 1
 876 013a 5528     		cmp	r0, #85
 877 013c E3D1     		bne	.L12
 878              	.L11:
 139:..\u8g2_csrc/u8g2_input_value.c **** 	  local_value = hi;
 879              		.loc 1 139 0 is_stmt 1
 880 013e 069B     		ldr	r3, [sp, #24]
 881 0140 9945     		cmp	r9, r3
 882 0142 AFD9     		bls	.L16
 141:..\u8g2_csrc/u8g2_input_value.c **** 	else
 142:..\u8g2_csrc/u8g2_input_value.c **** 	  local_value--;
 883              		.loc 1 142 0
 884 0144 09F1FF39 		add	r9, r9, #-1
 885              	.LVL46:
 886 0148 5FFA89F9 		uxtb	r9, r9
 887              	.LVL47:
 888 014c ACE7     		b	.L4
 889              	.L7:
 143:..\u8g2_csrc/u8g2_input_value.c **** 	break;
 144:..\u8g2_csrc/u8g2_input_value.c ****       }        
 145:..\u8g2_csrc/u8g2_input_value.c ****     }
 146:..\u8g2_csrc/u8g2_input_value.c ****   }
 147:..\u8g2_csrc/u8g2_input_value.c ****   
 148:..\u8g2_csrc/u8g2_input_value.c ****   /* never reached */
 149:..\u8g2_csrc/u8g2_input_value.c ****   //return r;  
 150:..\u8g2_csrc/u8g2_input_value.c **** }
 890              		.loc 1 150 0
 891 014e 2846     		mov	r0, r5
 892              	.LVL48:
 893 0150 09B0     		add	sp, sp, #36
 894              		.cfi_def_cfa_offset 36
 895              		@ sp needed
 896 0152 BDE8F08F 		pop	{r4, r5, r6, r7, r8, r9, r10, fp, pc}
 897              	.LVL49:
 898              	.L20:
 899 0156 00BF     		.align	2
 900              	.L19:
 901 0158 00000000 		.word	.LC0
 902              		.cfi_endproc
 903              	.LFE0:
 904              		.size	u8g2_UserInterfaceInputValue, .-u8g2_UserInterfaceInputValue
 905              		.section	.rodata.str1.4,"aMS",%progbits,1
 906              		.align	2
 907              	.LC0:
 908 0000 3000     		.ascii	"0\000"
 909              		.text
 910              	.Letext0:
ARM GAS  C:\Users\info\AppData\Local\Temp\ccFLHjfD.s 			page 56


 911              		.file 2 "c:\\program files (x86)\\cypress\\psoc creator\\4.2\\psoc creator\\import\\gnu\\arm\\5.4.
 912              		.file 3 "c:\\program files (x86)\\cypress\\psoc creator\\4.2\\psoc creator\\import\\gnu\\arm\\5.4.
 913              		.file 4 "..\\u8g2_csrc\\u8x8.h"
 914              		.file 5 "..\\u8g2_csrc\\u8g2.h"