ARM GAS  C:\Users\info\AppData\Local\Temp\ccMAKrl2.s 			page 1


   1              		.syntax unified
   2              		.cpu cortex-m3
   3              		.fpu softvfp
   4              		.eabi_attribute 20, 1
   5              		.eabi_attribute 21, 1
   6              		.eabi_attribute 23, 3
   7              		.eabi_attribute 24, 1
   8              		.eabi_attribute 25, 1
   9              		.eabi_attribute 26, 1
  10              		.eabi_attribute 30, 1
  11              		.eabi_attribute 34, 1
  12              		.eabi_attribute 18, 4
  13              		.thumb
  14              		.syntax unified
  15              		.file	"u8log_u8g2.c"
  16              		.text
  17              	.Ltext0:
  18              		.section	.gnu.lto_.profile.792bf96a,"",%progbits
  19 0000 789C6361 		.ascii	"x\234ca`d`a`\000\222\011\206\000\001[\000\234"
  19      60646061 
  19      60009209 
  19      8600015B 
  19      009C
  20              		.text
  21              		.section	.gnu.lto_.inline.792bf96a,"",%progbits
  22 0000 789C6361 		.ascii	"x\234ca`d\000\201h\006\004`b`P\330%\302\310\300\244"
  22      60640081 
  22      68060460 
  22      626050D8 
  22      25C2C8C0 
  23 0015 74A2B582 		.ascii	"t\242\265\202\201\347\304_>&\2200\033?\023\003K\322"
  23      81E7C45F 
  23      3E269030 
  23      1B3F1303 
  23      4BD2
  24 0027 04BFFD1C 		.ascii	"\004\277\375\034\023\374\230y\200\312&\370\0015\213"
  24      13FC9879 
  24      80CA26F8 
  24      01358B
  25 0036 76320255 		.ascii	"v2\002U\362\355\351db\340\370\240\007V\310\314\303\310"
  25      F2EDE964 
  25      62E0F8A0 
  25      0756C8CC 
  25      C3C8
  26 0048 C0D82AC4 		.ascii	"\300\330*\304\312\307\310\300\322*\3040\301\257U\210"
  26      CAC7C8C0 
  26      D22AC430 
  26      C1AF5588 
  27 0058 899B8181 		.ascii	"\211\233\201\201\021\250\036\000(V\017\343"
  27      11A81E00 
  27      28560FE3 
  28              		.text
  29              		.section	.gnu.lto_.jmpfuncs.792bf96a,"",%progbits
  30 0000 789C6361 		.ascii	"x\234ca`d\000\001^\006\004`\002\223\020q\006\000\002"
  30      60640001 
  30      5E060460 
  30      02931071 
ARM GAS  C:\Users\info\AppData\Local\Temp\ccMAKrl2.s 			page 2


  30      060002
  31 0013 2A0016   		.ascii	"*\000\026"
  32              		.text
  33              		.section	.gnu.lto_.pureconst.792bf96a,"",%progbits
  34 0000 789C6361 		.ascii	"x\234ca`d`e```b\260d\264\004\000\001i\000\200"
  34      60646065 
  34      60606062 
  34      B064B404 
  34      00016900 
  35              		.text
  36              		.section	.gnu.lto_u8g2_DrawLog.792bf96a,"",%progbits
  37 0000 789C8D55 		.ascii	"x\234\215U[L\\U\024=\373\236\373\232ax\224P\332R^\005"
  37      5B4C5C55 
  37      143DFB9E 
  37      FB9A6178 
  37      9450DA52 
  38 0016 8601A3D4 		.ascii	"\206\001\243\324X?\214_\372\243\377\375\256!\221\246"
  38      583F8C5F 
  38      FAA3FFFD 
  38      AE2191A6 
  39 0026 4D138D4D 		.ascii	"M\023\215M\233&\360\305\035.#\330\230\320h\213\015R"
  39      9B26F0C5 
  39      1D2E23D8 
  39      98D0688B 
  39      0D52
  40 0038 8936843E 		.ascii	"\2116\204>\264\355X\260\345Q;`;(\345\241\037\232\"\245"
  40      B4ED58B0 
  40      E5513B60 
  40      3B28E5A1 
  40      1F9A22A5 
  41 004c 2AD6DA18 		.ascii	"*\326\332\030b\030\204RM[\334{\237K3L\371\340&s\036"
  41      62188452 
  41      4D5BDC7B 
  41      9F4B334C 
  41      F9E02673 
  42 0061 FBECB59F 		.ascii	"\373\354\265\237\353\234\321\005\010\372Zm!^\307\371"
  42      EB9CD105 
  42      08FA5A6D 
  42      215EC7F9 
  43 0071 00FEC027 		.ascii	"\000\376\300'@;2.D\330\326\300T\013\0116-\006m[\223"
  43      403B322E 
  43      44D8D6C0 
  43      540B0936 
  43      2D066D5B 
  44 0086 EF0F0BE1 		.ascii	"\357\017\013\341\370\215FK8\001C)\014\332\246\246+\271"
  44      F88D464B 
  44      38014329 
  44      0CDAA6A6 
  44      2BB9
  45 0098 C5725DE9 		.ascii	"\305r]\351\203\005@\263c\203\250\327\244m\230\272\005"
  45      830540B3 
  45      6383A8D7 
  45      A46D98BA 
  45      05
  46 00a9 F5D214EA 		.ascii	"\365\322\024\352\263\275yQ{\244\301P\323\335^\255\262"
  46      B3BD7951 
  46      7BA4C150 
ARM GAS  C:\Users\info\AppData\Local\Temp\ccMAKrl2.s 			page 3


  46      D3DD5EAD 
  46      B2
  47 00ba CBC1EFD7 		.ascii	"\313\301\357\327?\332\244s*\006\021)\304\262\246t\240"
  47      3FDAA473 
  47      2A061129 
  47      C4B2A674 
  47      A0
  48 00cb 0B2A51EB 		.ascii	"\013*Q\353\207\306\013\355rA\213H\000\035\267\211\261"
  48      87C60BED 
  48      72418B48 
  48      001DB789 
  48      B1
  49 00dc B6DF3368 		.ascii	"\266\3373h\253A1n\303\361?\303\231\262\000\004\256{"
  49      AB41316E 
  49      C3F13FC3 
  49      99B20004 
  49      AE7B
  50 00ee E23D9F64 		.ascii	"\342=\237d\204:\035\247\301q\226v;\276\210\224p\006"
  50      843A1DA7 
  50      C1719676 
  50      3BBE8894 
  50      7006
  51 0100 24DA83D3 		.ascii	"$\332\203\323\220\017\247 _\240H\300Y\010\241v[_S\203"
  51      900FA720 
  51      5FA048C0 
  51      5908A176 
  51      5B5F5383 
  52 0114 5F9630F2 		.ascii	"_\2260\362\350\331\007\037\333\036\262\377\015GF\244"
  52      E8D9071F 
  52      DB1EB2FF 
  52      0D4746A4 
  53 0124 0E9F2BE4 		.ascii	"\016\237+\344\216|x\236p\272\200/\0307p\370\306C[\226"
  53      8E7C789E 
  53      70BA802F 
  53      183770F8 
  53      C6435B96 
  54 0138 31EEBD9F 		.ascii	"1\356\275\237\343s\246\207\373\327\303\235{\012w\236"
  54      E373A687 
  54      FBD7C39D 
  54      7B0A779E 
  55 0148 71CED8C8 		.ascii	"q\316\330\310T@\2263\356\376\342`\367\212\277h<\340"
  55      54409633 
  55      EEFEE260 
  55      F78ABF68 
  55      3CE0
  56 015a 1CC1C40D 		.ascii	"\034\301\304\015\270\220\032\253! \012!\002\214wu\036"
  56      B8901AAB 
  56      21200A21 
  56      028C7775 
  56      1E
  57 016b F5CB6719 		.ascii	"\365\313g\031\334\321\332w\323\027<I\340\330/o\177\344"
  57      DCD1DA77 
  57      D3173C49 
  57      E0D82F6F 
  57      7FE4
  58 017d C4C2C511 		.ascii	"\304\302\305\021i\302\227\311~\351C\325[\275\037\266"
  58      69C297C9 
ARM GAS  C:\Users\info\AppData\Local\Temp\ccMAKrl2.s 			page 4


  58      7EE943D5 
  58      5BBD1FB6 
  59 018d 69B28A61 		.ascii	"i\262\212a\267?\353>cx\260\351\323\360\004\327\275\006"
  59      B73FEB3E 
  59      6378B0E9 
  59      D3F004D7 
  59      BD06
  60 019f EE83CB3F 		.ascii	"\356\203\313?\015\371\344\213\214\3731\021O\244)\234"
  60      0DF9E48B 
  60      8CFB3111 
  60      4FA4299C 
  61 01af 736997E3 		.ascii	"si\227\343\276B\240\257\326\000M\317\376\0353\344\313"
  61      BE42A0AF 
  61      D6004DCF 
  61      FE1D33E4 
  61      CB
  62 01c0 0C0ACFB4 		.ascii	"\014\012\317\264\236\364{\316\246\256\2548\323\341\362"
  62      9EF47BCE 
  62      A6AEAC38 
  62      D3E1F2
  63 01cf 1AB8F6AE 		.ascii	"\032\270\366\256\233\023>\371*\343\2165Owk\236\263\253"
  63      9B133EF9 
  63      2AE38E35 
  63      4F776B9E 
  63      B3AB
  64 01e1 CA990E7D 		.ascii	"\312\231\016}k\200f\242\217\217\245\233\215\304\235"
  64      6B8066A2 
  64      8F8FA59B 
  64      8DC49D
  65 01f0 62E88720 		.ascii	"b\350\207 \364\342\357\022\376z\360w\021\202\212E0\000"
  65      F4E2EF12 
  65      FE7AF077 
  65      11828A45 
  65      3000
  66 0202 26D25D4F 		.ascii	"&\322]O==\2773\346,/\273Nl\322\350\015<\003\334Z\215"
  66      3D3DBF33 
  66      E62C2FBB 
  66      4E6CD2E8 
  66      0D3C03DC 
  67 0218 1B85F440 		.ascii	"\033\205\364@=l\032j\"\225Qb\363\251\037\2106\001\240"
  67      3D6C1A6A 
  67      22955162 
  67      F3A91F88 
  67      3601A0
  68 022b 86A4636B 		.ascii	"\206\244ck\254\014 q&\253g\221`\003\016v6\016\276\034"
  68      AC0C2071 
  68      26AB6791 
  68      60030E76 
  68      360EBE1C 
  69 023f 1A36D290 		.ascii	"\0326\322\220K\303&\0326\343\000[H%OP\004[q\351/ \\"
  69      4BC3261A 
  69      36E3005B 
  69      48254F50 
  69      045B71E9 
  70 0256 21DB2F62 		.ascii	"!\333/bC\305(H\333F\322\022Z\225\322\252\214\206\240"
  70      43C52848 
  70      DB46D212 
ARM GAS  C:\Users\info\AppData\Local\Temp\ccMAKrl2.s 			page 5


  70      5A95D2AA 
  70      8C86A0
  71 0269 A014CA49 		.ascii	"\240\024\312I\030\242}\005\007[\311a\0121\207\271N\012"
  71      18A27D05 
  71      075BC961 
  71      0A3187B9 
  71      4E0A
  72 027b 91D0349C 		.ascii	"\221\3204\234\344\0144\304\376\331\307\251#\306\225"
  72      E40C34C4 
  72      FED9C7A9 
  72      23C695
  73 028a 96B80791 		.ascii	"\226\270\007\221\330b:I\250t\275\275\263SV\375#\247"
  73      D8623A49 
  73      A874BDBD 
  73      B35356FD 
  73      23A7
  74 029c D971B222 		.ascii	"\331q\262\"2\260\254a\205\340\012\324\013W\372\361\270"
  74      32B0AC61 
  74      85E00AD4 
  74      0B57FAF1 
  74      B8
  75 02ad 35323461 		.ascii	"524a\321\005\303\312\301\327\220\037\221\351\202L.\325"
  75      D105C3CA 
  75      C1D7901F 
  75      91E9824C 
  75      2ED5
  76 02bf B149AA20 		.ascii	"\261I\252 J\005\271\223\002_\000y\027\032\372\242\327"
  76      4A05B993 
  76      025F0079 
  76      171AFAA2 
  76      D7
  77 02d0 C2061DBB 		.ascii	"\302\006\035\273rC\262\011\203\233\2724<\322\034\350"
  77      7243B209 
  77      839BBA34 
  77      3CD21CE8 
  78 02e0 801348F2 		.ascii	"\200\023H\362\014W\006\340*\301Q\336y\247\341\234\265"
  78      0C5706E0 
  78      2AC151DE 
  78      79A7E19C 
  78      B5
  79 02f1 FD39AC09 		.ascii	"\3759\254\011\304\240\003\036\363\275\207A\330.\320"
  79      C4A0031E 
  79      F3BD8741 
  79      D82ED0
  80 0300 E47CD382 		.ascii	"\344|\323\202\256,f\273x\211Hb\251}\216+\263p\357\266"
  80      AE2C66BB 
  80      78894862 
  80      A97D8E2B 
  80      B370EFB6 
  81 0314 996ABF91 		.ascii	"\231j\277\221Ur\024h\326\023\346\272x\323Q\251\325\333"
  81      55721468 
  81      D613E6BA 
  81      78D351A9 
  81      D5DB
  82 0326 6F62BD5C 		.ascii	"ob\275\\\245\364P*\341f\224\223R\273\247\264\005\303"
  82      A5F4502A 
  82      E1669493 
ARM GAS  C:\Users\info\AppData\Local\Temp\ccMAKrl2.s 			page 6


  82      52BBA7B4 
  82      05C3
  83 0338 472929FD 		.ascii	"G))\375wx\024\2240/9!{UBa\242_=\366\203\2600Di\3017"
  83      77781494 
  83      302F3921 
  83      7B554261 
  83      A25F3DF6 
  84 0353 9809D5CB 		.ascii	"\230\011\325\313\331\301\345\272H\035\310Sn\307\217"
  84      D9C1E5BA 
  84      481DC853 
  84      6EC78F
  85 0362 EF5426B7 		.ascii	"\357T&\267\222\350\036x\371\024<\325\223\314e\354\244"
  85      92E81E78 
  85      F9143CD5 
  85      93CC65EC 
  85      A4
  86 0373 806BAA27 		.ascii	"\200k\252'\256\004Wj\210\212\250\274[\337]\360B+\344"
  86      AE04576A 
  86      888AA8BC 
  86      5BDF5DF0 
  86      422BE4
  87 0386 A30274A7 		.ascii	"\243\002t\247\261\263~rV\250t\3567\245+\245\"\254\004"
  87      B1B37E72 
  87      56A874EE 
  87      37A52BA5 
  87      22AC04
  88 0399 3D8E4DA3 		.ascii	"=\216M\243Q\277j+\300u\014u\005t\211@E\334O[\340\323"
  88      51BF6A2B 
  88      C0750C75 
  88      05748940 
  88      45DC4F5B 
  89 03af 0D187C96 		.ascii	"\015\030|\226Pb)\324\206\015\003e\321\367iP\231\315"
  89      506229D4 
  89      860D0365 
  89      D1F76950 
  89      99CD
  90 03c1 5A4F634D 		.ascii	"ZOcM\210sc\351/\007\206\261\261\277A\343\270\233\253"
  90      887363E9 
  90      2F0786B1 
  90      B1BF41E3 
  90      B89BAB
  91 03d4 2C48EA23 		.ascii	",H\352#~\363\200I\330:\016\205\262=Z;\017x\220I\333"
  91      7EF38049 
  91      D83A0E85 
  91      B23D5A3B 
  91      0F789049 
  92 03e9 2239DB92 		.ascii	"\"9\333\222\207a\031\242\321b\226%\256'\274\316\025"
  92      876119A2 
  92      D1629625 
  92      AE27BCCE 
  92      15
  93 03fa 273745A6 		.ascii	"'7E\246\262\014\233\350\207oS\203\311\206\3578\030~"
  93      B20C9BE8 
  93      876F5383 
  93      C986EF38 
  93      187E
  94 040c 18465658 		.ascii	"\030FVXv\307\253\34564\252\022\014)A\311\372l\336`\233"
ARM GAS  C:\Users\info\AppData\Local\Temp\ccMAKrl2.s 			page 7


  94      76C7ABE5 
  94      3634AA12 
  94      0C2941C9 
  94      FA6CDE60 
  95 0421 926C8EA6 		.ascii	"\222l\216\246\332,E+\324\215\343\036\277\312\330Mi2"
  95      DA2C452B 
  95      D48DE31E 
  95      BFCAD84D 
  95      6932
  96 0433 2F83DCDA 		.ascii	"/\203\334\332\262'\335\340\033\033\344@\242\361A\357"
  96      B227DDE0 
  96      1B1BE440 
  96      A2F141EF 
  97 0443 4E95AFA7 		.ascii	"N\225\257\247\326\3310\306\241\350\024\312xj(!\264\222"
  97      D6D930C6 
  97      A1E814CA 
  97      786A2821 
  97      B492
  98 0455 ECB7825D 		.ascii	"\354\267\202]\207V\373\255P\324\271\275\224\246\224"
  98      8756FBAD 
  98      50D4B9BD 
  98      94A694
  99 0464 2AF1E6AD 		.ascii	"*\361\346\255\342J\017iU2WL1mI\305\016\226\352\036U"
  99      E24A0F69 
  99      5532574C 
  99      316D49C5 
  99      0E96EA1E 
 100 0479 D890A62A 		.ascii	"\330\220\246*Y\246\314\244\257\217*\023\034\276A\341"
 100      59A6CCA4 
 100      AF8F2A13 
 100      1CBE41E1 
 101 0489 7FBF4295 		.ascii	"\177\277B\225\014eAG#\212*X,Kk\237\240\014\214\321\350"
 101      0C654147 
 101      238A2A58 
 101      2C4B6B9F 
 101      A00C8CD1 
 102 049e FE79D0E9 		.ascii	"\376y\320\3515\322\006&,\014\314x\220\206\221\351D\027"
 102      35D20626 
 102      2C0CCC78 
 102      908691E9 
 102      4417
 103 04b0 54B55D99 		.ascii	"T\265]\231a\336j\261\346!\223t\314\331\026?\236Z\364"
 103      61DE6AB1 
 103      E6219374 
 103      CCD9163F 
 103      9E5AF4
 104 04c3 44FE85EF 		.ascii	"D\376\205\357\331\211\327\370A\244o\016\011:)\220\027"
 104      D989D7F8 
 104      41A46F0E 
 104      093A2990 
 104      17
 105 04d4 795555BB 		.ascii	"yUU\273\016\275\264\367\205\352\232\203\007jp\365\326"
 105      0EBDB4F7 
 105      85EA9A83 
 105      076A70F5 
 105      D6
 106 04e5 3B7BAB69 		.ascii	";{\253i_U#t\232\241\026\352\014\026C\215\361\346\241"
ARM GAS  C:\Users\info\AppData\Local\Temp\ccMAKrl2.s 			page 8


 106      5F552374 
 106      9AA116EA 
 106      0C16438D 
 106      F1E6A1
 107 04f8 3DD5753C 		.ascii	"=\325u<\326\232\273\367\035\334_]\247\246\332\377\001"
 107      D69ABBF7 
 107      1DDC5F5D 
 107      A7A6DAFF 
 107      01
 108 0509 837BA024 		.ascii	"\203{\240$"
 109              		.text
 110              		.section	.gnu.lto_u8log_u8g2_cb.792bf96a,"",%progbits
 111 0000 789C6D53 		.ascii	"x\234mSMHTQ\024>\337\275\357gfrFs\321B,\204\020q\221"
 111      4D485451 
 111      143EDFBD 
 111      EF676672 
 111      4673D142 
 112 0019 4A9B82DA 		.ascii	"J\233\202\332\264j\037\264\013\\\030\270\011\202\242"
 112      B46A1FB4 
 112      0B5C18B8 
 112      0982A2
 113 0028 65CC9D9F 		.ascii	"e\314\235\237\227.ZHaP\024\006!\332\237:i\326\230\326"
 113      972E5A48 
 113      61501406 
 113      21DA9F3A 
 113      69D698D6 
 114 003c E84241D0 		.ascii	"\350BA\320hS\0133SC\255\\8\321\024A\343\353\334w\307"
 114      68530B33 
 114      5343AD5C 
 114      38D11441 
 114      E3EBDC77 
 115 0051 D2EAC2BB 		.ascii	"\322\352\302\273\357\235{\317\371\276\357|\367>\213"
 115      EF9D7BCF 
 115      F9BEEF7C 
 115      F73E8B
 116 0060 407A6424 		.ascii	"@zd$Q\035\277O\362\003\227 :f\211\022!!\344\310>R\021"
 116      511DBF4F 
 116      F2039720 
 116      3A668912 
 116      2121E4C8 
 117 0077 FB7523A9 		.ascii	"\373u#\2512\011\313,[\302\271<Ez=\355\362\272c\326\217"
 117      3209CB2C 
 117      5BC2B93C 
 117      457A3DED 
 117      F2BA63D6 
 118 008c D9807EAB 		.ascii	"\331\200~\253\020(.\244\345\330\210\013\213\314(\210"
 118      10282EA4 
 118      E5D8880B 
 118      8BCC2888 
 119 009c A2C044DB 		.ascii	"\242\300D\333JV\324\367(\036\357\273?7\251\336\034<"
 119      4A56D4F7 
 119      281EEFBB 
 119      3F37A9DE 
 119      1C3C
 120 00ae 26F685C9 		.ascii	"&\366\205\311A\017\3529\353Uz\340\246\374*<\011X\034"
 120      410FEA39 
 120      EB557AE0 
ARM GAS  C:\Users\info\AppData\Local\Temp\ccMAKrl2.s 			page 9


 120      A6FC2A3C 
 120      09581C
 121 00c1 E6676E2C 		.ascii	"\346gn,\307t(P\303\241\232\231\236+\223{A\374\375\255"
 121      C7742850 
 121      C3A19A99 
 121      9E2B937B 
 121      41FCFDAD 
 122 00d5 303E14AA 		.ascii	"0>\024\252\353V*\251T\361\264\012{R\342\036$\343\341"
 122      EB562AA9 
 122      54F1B40A 
 122      7B52E21E 
 122      24E3E1
 123 00e8 2EAAD18B 		.ascii	".\252\321\213j\342%\302}\324\351\364\304\344j\242\\"
 123      6AE225C2 
 123      7DD4E9F4 
 123      C4E46AA2 
 123      5C
 124 00f9 EE0F4A55 		.ascii	"\356\017JUai\325\251\275\243Ks\013\223\321\353*\227"
 124      6169D5A9 
 124      BDA34B73 
 124      0B93D1EB 
 124      2A97
 125 010b AEF1A485 		.ascii	"\256\361\244\205\007;\313\365\340\354\245\314fg\324"
 125      073BCBF5 
 125      E0ECA5CC 
 125      6667D4
 126 011a 496BE135 		.ascii	"Ik\3415x\210Z#\031}p\330>\350\225\376\0239\345\373)"
 126      78885A23 
 126      197D70D8 
 126      3EE895FE 
 126      1339E5FB 
 127 012f 959B77C6 		.ascii	"\225\233w\306\257\2701\013\232\324&\275\345\260\010"
 127      AFB8310B 
 127      9AD426BD 
 127      E5B008
 128 013e DBD55398 		.ascii	"\333\325S\230''\302\223\033\325\023\321\006\303x\225"
 128      2727C293 
 128      1BD513D1 
 128      06C37895 
 129 014e 9417825F 		.ascii	"\224\027\202_r\005\311\221\374\233\214\324\270)i3\357"
 129      7205C991 
 129      FC9B8CD4 
 129      B8296933 
 129      EF
 130 015f 356FE2A5 		.ascii	"5o\342\245\253{\227\201\350\357S\323\355e]\270\225\320"
 130      AB7B9781 
 130      E8EF53D3 
 130      ED655DB8 
 130      95D0
 131 0171 423AC118 		.ascii	"B:\301\030\241\024k\356\327By{~lyX6\036\360d\030\003"
 131      A1146BEE 
 131      D742797B 
 131      7E6C7958 
 131      361EF064 
 132 0187 E8C26660 		.ascii	"\350\302f`+2h\244%$\325\241@.\353ahb\252\321\314\333"
 132      2B3268A4 
 132      2524D5A1 
ARM GAS  C:\Users\info\AppData\Local\Temp\ccMAKrl2.s 			page 10


 132      402EEB61 
 132      6862AAD1 
 133 019d 45D75039 		.ascii	"E\327P9\\\\\\\350\350p\215\315\267\261\335v\004\266"
 133      5C5C5CE8 
 133      E8708DCD 
 133      B7B1DD76 
 133      04B6
 134 01af EFA03EF2 		.ascii	"\357\240>\3627\363FzpV6\365\351=u\221\033\305\020\363"
 134      37F3467A 
 134      705636F5 
 134      E93D7591 
 134      1BC510F3 
 135 01c3 63904D7C 		.ascii	"c\220M|\2443\360\030ML\231\372\351\030>\327P\216~\234"
 135      A433F018 
 135      4D4C99FA 
 135      E9183ED7 
 135      508E7E9C 
 136 01d7 CD863585 		.ascii	"\315\2065\205\015\265\351\273\030\346\334E\244\347R"
 136      0DB5E9BB 
 136      18E6DC45 
 136      A4E752
 137 01e6 55A534CE 		.ascii	"U\2454\316\351_\317\376\210\232\034\302\223\322\211"
 137      E95FCFFE 
 137      889A1CC2 
 137      93D289
 138 01f5 E485A4B4 		.ascii	"\344\205\244\264+\327\220\316\025&\205N\326\"\262\331"
 138      2BD790CE 
 138      1526854E 
 138      D622B2D9 
 139 0205 F539375E 		.ascii	"\36597^T\355JUx2\342\013}6O\021'n\330\223\273\202:\213"
 139      54ED4A55 
 139      7832E20B 
 139      7D364F11 
 139      276ED893 
 140 021d F8861AA3 		.ascii	"\370\206\032\243\337mu\037\336n\264\265\303h\276\236"
 140      DF6D751F 
 140      DE6EB4B5 
 140      C368BE9E 
 141 022d 655C8D6C 		.ascii	"e\\\215l\251\317\356\017\311>W;\034\305H\340\260\376"
 141      A9CFEE0F 
 141      C93E573B 
 141      1CC548E0 
 141      B0FE
 142 023f 7BF08C1D 		.ascii	"{\360\214\035f\310/mG\015`\2041i\015\356\377\205\305"
 142      66C82F6D 
 142      470D6084 
 142      31690DEE 
 142      FF85C5
 143 0252 7C3E6DC2 		.ascii	"|>m\302\250\021\266\235\273\234[\034Cu\000`y\262\202"
 143      A811B69D 
 143      BB9C5B1C 
 143      43750060 
 143      79B282
 144 0265 7483FEA5 		.ascii	"t\203\376\245\230A\215\376\203\264\333g\037\010\317"
 144      98418DFE 
 144      83B4DB67 
 144      1F08CF
ARM GAS  C:\Users\info\AppData\Local\Temp\ccMAKrl2.s 			page 11


 145 0274 B75AAC34 		.ascii	"\267Z\2544\356\355\371\223\377\333=\227\241_\224\334"
 145      EEEDF993 
 145      FFDB3D97 
 145      A15F94DC 
 146 0284 DB100EF1 		.ascii	"\333\020\016\361\357\213\274\260\365\255\373\204d\356"
 146      EF8BBCB0 
 146      F5ADFB84 
 146      64EE
 147 0292 EAF140AB 		.ascii	"\352\361@\253\331\345{U\311\012\253\032\032N]8\334z"
 147      D9E57B55 
 147      C90AAB1A 
 147      1A4E5D38 
 147      DC7A
 148 02a4 B0B9E5FC 		.ascii	"\260\271\345\374\271\026\376:s\266\265Y\307\015-d\007"
 148      B916FE3A 
 148      73B6B559 
 148      C70D2D64 
 148      07
 149 02b5 91A5A35F 		.ascii	"\221\245\243_4~E\321"
 149      347E45D1 
 150              		.text
 151              		.section	.gnu.lto_.symbol_nodes.792bf96a,"",%progbits
 152 0000 789C558D 		.ascii	"x\234U\215\241\021\2000\020\004\357\362I\037\320\003"
 152      A1118030 
 152      1004EFF2 
 152      491FD003 
 153 0010 8D51C147 		.ascii	"\215Q\301G\201`\206\241\006$\036\203\216\246\006D,-"
 153      816086A1 
 153      06241E83 
 153      8EA60644 
 153      2C2D
 154 0022 307C50E4 		.ascii	"0|P\344O\334\355\232\367 f\3309(\260\234(\265\305\326"
 154      4FDCED9A 
 154      F72066D8 
 154      3928B09C 
 154      28B5C5D6 
 155 0036 049595A0 		.ascii	"\004\225\225\240\250\373\004\020cc\354T*\016\352+\366"
 155      A8FB0410 
 155      6363EC54 
 155      2A0EEA2B 
 155      F6
 156 0047 1AFE2C96 		.ascii	"\032\376,\226t=\024\373\225\307|\364\302\200\264wB`"
 156      743D14FB 
 156      95C77CF4 
 156      C280B477 
 156      4260
 157 0059 1DEE4984 		.ascii	"\035\356I\204\036\251\014\274\230>!N"
 157      1EA90CBC 
 157      983E214E 
 158              		.text
 159              		.section	.gnu.lto_.refs.792bf96a,"",%progbits
 160 0000 789C6361 		.ascii	"x\234ca`\004B \000\000\0009\000\007"
 160      60044220 
 160      00000039 
 160      0007
 161              		.text
 162              		.section	.gnu.lto_.decls.792bf96a,"",%progbits
ARM GAS  C:\Users\info\AppData\Local\Temp\ccMAKrl2.s 			page 12


 163 0000 789CCD5B 		.ascii	"x\234\315[}PTYv\347\365m\240\351n@\321Q\263ev\254\215"
 163      7D505459 
 163      76E7F56D 
 163      A0E96E40 
 163      D151B365 
 164 0017 714855D6 		.ascii	"qHU\326\321\231\315\304\344\217\354N\262\265;I\355n"
 164      D199CDC4 
 164      E48FEC4E 
 164      B2B53B49 
 164      ED6E
 165 0029 26B5994D 		.ascii	"&\265\231M*eUo\003\015\222E \335\315\210[\251\312\023"
 165      2A65556F 
 165      030D9245 
 165      20DDCD88 
 165      5BA9CA13 
 166 003d 103F5010 		.ascii	"\020?P\020T\024DAQ\374\000\221O\021\021A\024D\221\357"
 166      54144441 
 166      51FC0091 
 166      4F111141 
 166      144491EF 
 167 0051 2FE55B54 		.ascii	"/\345[T\360\023AQTPr\356=\257\373\335\327<\262\177d"
 167      F0134151 
 167      545072EE 
 167      3DAFFBDD 
 167      D73CB27F 
 168 0066 3795760E 		.ascii	"7\225v\016\375~\367\376\336=\347\236{\357\271\347\276"
 168      FD7EF7FE 
 168      DE3DE79E 
 168      7BEFB9E7 
 168      BE
 169 0077 D7A37513 		.ascii	"\327\243u\023\334\350G\367\205\233\333\177z\271\271"
 169      DCE847F7 
 169      859BDB7F 
 169      7AB9B9
 170 0086 7D0D7016 		.ascii	"}\015p\026>\004\312~\345&\177<@~\250qs\373\022\344+"
 170      3E04CA7E 
 170      E5267F3C 
 170      407EA871 
 170      73FB12E4 
 171 009b 909F83FC 		.ascii	"\220\237\203\374\023\310/5ns>\224\267H\272\337\017d"
 171      13C82F35 
 171      6E733E94 
 171      B748BADF 
 171      0F64
 172 00ad 318811CA 		.ascii	"1\210\021\312\306\341\273\007\244\014d9H\003\310\327"
 172      C6E1BB07 
 172      A40C6439 
 172      4803C8D7 
 173 00bd 20AB4096 		.ascii	" \253@\226\202\3743p~\006\322\013\327\337\300\367OA"
 173      82FC3370 
 173      7E06D20B 
 173      D7DFC0F7 
 173      4F41
 174 00cf BC41EA24 		.ascii	"\274A\352$\375\017@\036\201h\240L\000\271\007\327\017"
 174      FD0F401E 
 174      8168A04C 
 174      00B907D7 
ARM GAS  C:\Users\info\AppData\Local\Temp\ccMAKrl2.s 			page 13


 174      0F
 175 00e0 4188A4F3 		.ascii	"A\210\244\363\347\222m\256\237/U\354\351\221l\372GI"
 175      E7926DAE 
 175      9F2F55EC 
 175      E9916CFA 
 175      4749
 176 00f2 37B587E9 		.ascii	"7\265\207\351\005\371\004\312\3759\335\277\222l\377"
 176      05F904CA 
 176      FD39DDBF 
 176      926CFF
 177 0101 1BF8FE17 		.ascii	"\033\370\376\027\220\257A\250\232\307\222-ZI\007\365"
 177      90AF41A8 
 177      9AC7922D 
 177      5A4907F5 
 178 0111 C50F25BF 		.ascii	"\305\017%\277\270~\336k\204\330\341\307Y\272^\341\216"
 178      B87EDE6B 
 178      84D8E1C7 
 178      59BA5EE1 
 178      8E
 179 0122 20B809EC 		.ascii	" \270\011\354\343&\371\336\215\226H\337\364B@\300Z\021"
 179      E326F9DE 
 179      8D9648DF 
 179      F44240C0 
 179      5A11
 180 0134 DC1C2CC1 		.ascii	"\334\034,\301\321\224\300\376\301\177\032\306\027\270"
 180      D194C0FE 
 180      C17F1AC6 
 180      17B8
 181 0142 0A058F8D 		.ascii	"\012\005\217\215#\373\310E\202\363\343`\012\312Fi\253"
 181      23FBC845 
 181      82F3E360 
 181      0ACA4669 
 181      AB
 182 0153 3204AC91 		.ascii	"2\004\254\221o\340\332\223\254\227\364\013\274Z\326"
 182      6FE0DA93 
 182      AC97F40B 
 182      BC5AD6
 183 0162 347174FA 		.ascii	"4qt\372\315\264\230\340C\240M\270\036|{\352'\253\363"
 183      CDB498E0 
 183      43A04DB8 
 183      1E7C7BEA 
 183      27ABF3
 184 0175 44F8EC11 		.ascii	"D\370\354\021E\315\307\262gZ\343\0122\310\244F\360\323"
 184      45CDC7B2 
 184      675AE30A 
 184      32C8A446 
 184      F0D3
 185 0187 0B5A8013 		.ascii	"\013Z\200\023\215\351\367|\000.\326\013+\000\236\032"
 185      8DE9F77C 
 185      002ED60B 
 185      2B009E1A 
 186 0197 C9483422 		.ascii	"\311H4\"\\\007\260m\374\326a\003\222\027\000\254(\273"
 186      5C07B06D 
 186      FCD66103 
 186      921700AC 
 186      28BB
 187 01a9 54E78EB5 		.ascii	"T\347\216\265k\000^k\350|\344E\2261}\347\266\336?\255"
ARM GAS  C:\Users\info\AppData\Local\Temp\ccMAKrl2.s 			page 14


 187      6B005E6B 
 187      E87CE445 
 187      96317DE7 
 187      B6DE3FAD 
 188 01bd 83AAE57A 		.ascii	"\203\252\345zaV\240\370i\371[o\304\264\272\244\372\345"
 188      6156A0F8 
 188      69F95B6F 
 188      C4B4BAA4 
 188      FAE5
 189 01cf 592D5945 		.ascii	"Y-YE\2575\255\305wj\275\004\177}\016\265n\250\365\325"
 189      AF35ADC5 
 189      776ABD04 
 189      7F7D0EB5 
 189      6EA8F5D5 
 190 01e3 97B1A228 		.ascii	"\227\261\242(\010%\202^(\022\210pZXM;\266\\\017\177"
 190      0825825E 
 190      28128870 
 190      5A584D3B 
 190      B65C0F7F 
 191 01f7 B78B628C 		.ascii	"\267\213b\2148~L\364X\346&|\276\\X\263\334M(\026\374"
 191      387E4CF4 
 191      58E6267C 
 191      BE5C58B3 
 191      DC4D2816 
 192 020c 699B9425 		.ascii	"i\233\224%\024\012\313\205\002a9m\377t\346\251k\336"
 192      140ACB85 
 192      0261396D 
 192      FF74E6A9 
 192      6BDE
 193 021e A458600A 		.ascii	"\244X`\012\236\355{\262\2358\025L%,\317\025\305\005"
 193      9EED7BB2 
 193      9D38154C 
 193      252CCF15 
 193      C505
 194 0230 42192828 		.ascii	"B\031((\225\025\200>u\015\347\3255\034z\331\377\310"
 194      9515803E 
 194      750DE7D5 
 194      351C7AD9 
 194      FFC8
 195 0242 0BFBEE0F 		.ascii	"\013\373\356\017\260:v8\236\220\"t\366D\342\221:Or\005"
 195      B03A7638 
 195      9E902274 
 195      F644E291 
 195      3A4F7205 
 196 0256 C158DC83 		.ascii	"\301X\334\203!\003\022\227\001\354\310Mo\"\244\021\353"
 196      21031297 
 196      01ECC84D 
 196      6F22A411 
 196      EB
 197 0267 1CFE5C8C 		.ascii	"\034\376\\\214\376\274\374\374U\255\206ta\335\344\366"
 197      FEBCFCFC 
 197      55AD8674 
 197      61DDE4F6 
 198 0277 D7C93E64 		.ascii	"\327\311>d\020\301\231\354\241#T\333Rp'\305U\355C\031"
 198      10C199EC 
 198      A12354DB 
 198      527027C5 
ARM GAS  C:\Users\info\AppData\Local\Temp\ccMAKrl2.s 			page 15


 198      55ED4319 
 199 028b 7AC4E27F 		.ascii	"z\304\342\177\001\336\337\224\321\241#/\030Ys-\275&"
 199      01DEDF94 
 199      D1A1232F 
 199      1859732D 
 199      BD26
 200 029d C65D76E8 		.ascii	"\306]v\350\263\3151\324\241\327\240\2775r\177\227J\335"
 200      B3CD31D4 
 200      A1D7A0BF 
 200      35727F97 
 200      4ADD
 201 02af 155DBA7B 		.ascii	"\025]\272{\025\272\273T\352\356\025\350n5v\267\275\357"
 201      15BABB54 
 201      EAEE15E8 
 201      6E3576B7 
 201      BDEF
 202 02c1 5DB58E4C 		.ascii	"]\265\216L\243\202\2237\336]\360\020\364\376*\267_W"
 202      A3829337 
 202      DE5DF010 
 202      F4FE2AB7 
 202      5F57
 203 02d3 B9DDE1F7 		.ascii	"\271\335\341\367%g\250\337\353\300\216Z\331\216k\314"
 203      2567A8DF 
 203      EBC08E5A 
 203      D98E6BCC 
 204 02e3 EFB4BF37 		.ascii	"\357\264\2777\267\365\032I\014a\375M\257\230\274\351"
 204      B7F51A49 
 204      0C61FD4D 
 204      AF98BCE9 
 205 02f3 8E134D07 		.ascii	"\216\023M\007\260.\266'K \231X7\233>q\320\323\270\223"
 205      B02EB627 
 205      4B209958 
 205      379B3E71 
 205      D0D3B893 
 206 0307 8ED49E58 		.ascii	"\216\324\236X\321\357+6\222\271\240\353\014\350r\023"
 206      D1EF2B36 
 206      92B9A0EB 
 206      0CE87213 
 207 0317 1A04A334 		.ascii	"\032\004\2434\265kZv\244\372\222\263x\327\344\275\341"
 207      B56B5A76 
 207      A4FA92B3 
 207      78D7E4BD 
 207      E1
 208 0328 8B065280 		.ascii	"\213\006R\200\240\376\344\213\235\002)G\220w\360y\276"
 208      A0FEE48B 
 208      9D022947 
 208      9077F079 
 208      BE
 209 0339 40AA11A4 		.ascii	"@\252\021\244<{\320l u\222\246\244\334zB\232\211b\034"
 209      3C7BD06C 
 209      207592A6 
 209      A4DC7A42 
 209      9A89621C 
 210 034d FD701C0B 		.ascii	"\375p\034\013.\305=\223\026J5\235\340\035W\222\307="
 210      2EC53D93 
 210      164A359D 
 210      E01D5792 
ARM GAS  C:\Users\info\AppData\Local\Temp\ccMAKrl2.s 			page 16


 210      C73D
 211 035f 491F72BB 		.ascii	"I\037r\273\363\366\036\361$\263\014,\275vh\337i\243"
 211      F3F61EF1 
 211      24B30C2C 
 211      BD7668DF 
 211      69A3
 212 0371 E06F5CA6 		.ascii	"\340o\\\2465.Z\271h\245\343c\004\361\367G\337d\016\377"
 212      352E5AB9 
 212      68A5E363 
 212      04F1F747 
 212      DF640EFF 
 213 0385 EBA31651 		.ascii	"\353\243\026Q\\!\214\012F\241QvN7\353\013\327\325\333"
 213      5C218C0A 
 213      46A15176 
 213      4E37EB0B 
 213      D7D5DB
 214 0398 C232AEAB 		.ascii	"\3022\256\253P-1S\331\312\216\025Wh\205_-\341\030\300"
 214      502D3153 
 214      D9CA8E15 
 214      5768855F 
 214      2DE118C0 
 215 03ac 87BF7704 		.ascii	"\207\277w\004\032&i\344\356\201;\002\264|\213\275\302"
 215      1A2669E4 
 215      EE813B02 
 215      B47C8BBD 
 215      C2
 216 03bd 228EDF83 		.ascii	"\"\216\337\203\316K\226\002\205\0107\012\355P\333\006"
 216      CE4B9602 
 216      8508370A 
 216      ED50DB06 
 217 03cd B5C25318 		.ascii	"\265\302S\030\333~\240\203J\341\011\\?\026V\012\217"
 217      DB7EA083 
 217      4AE1095C 
 217      3F16560A 
 217      8F
 218 03de 401E828C 		.ascii	"@\036\202\214\200<\000\271\017r\017d\030\344.\310\020"
 218      803C00B9 
 218      0F720F64 
 218      18E42EC8 
 218      10
 219 03ef C820C800 		.ascii	"\310 \310\000H\237\260\222E\235cT{\365t\217\367\001"
 219      489FB092 
 219      459D6354 
 219      7BF5748F 
 219      F701
 220 0401 B17A0B61 		.ascii	"\261z\013a\303\327\001}\246MK\263\350,3&\217\376\235"
 220      C3D7017D 
 220      A64D4BB3 
 220      E82C3326 
 220      8FFE9D
 221 0414 C79656E9 		.ascii	"\307\226V\351\206\337\217-oz\014b\301\257\231%\347\324"
 221      86DF8F2D 
 221      6F7A0C62 
 221      C1AF9925 
 221      E7D4
 222 0426 2CC96796 		.ascii	",\311g\226 \367\265\314-W\343^\340\270\2232\367\242"
 222      20F7B5CC 
ARM GAS  C:\Users\info\AppData\Local\Temp\ccMAKrl2.s 			page 17


 222      2D57E35E 
 222      E0B89332 
 222      F7A2
 223 0438 1A3797E3 		.ascii	"\0327\227\343\276\354Y\"\373\343\222\032\273Bf\213e"
 223      BEEC5922 
 223      FBE3921A 
 223      BB42668B 
 223      65
 224 0449 EBC5580F 		.ascii	"\353\305X\017F\275\254F\255tPE\261\2727]r4]yUj\354\317"
 224      46BDAC46 
 224      AD745045 
 224      B1BA375D 
 224      72345D79 
 225 0461 652BEEF0 		.ascii	"e+\356\360\243R\257F^+\223\273\323}\322\304\3528B\327"
 225      A352AF46 
 225      5E2B93BB 
 225      D37DD2C4 
 225      EA3842D7 
 226 0475 9C705322 		.ascii	"\234pS\";&\223pcN\027;z\214\342\0363\233\344\267\324"
 226      3B269370 
 226      634E173B 
 226      7A8CE21E 
 226      339BE4B7 
 227 048a D9ACF179 		.ascii	"\331\254\361y\346\273\320\005\343,Oyl\262=\375#\331"
 227      E6BBD005 
 227      E32C4F79 
 227      6CB23DFD 
 227      23D9
 228 049c DE26A5BD 		.ascii	"\336&\245\275\237\272\014\007\347\264f\025&oik\217\021"
 228      9FBA0C07 
 228      E7B46615 
 228      266F696B 
 228      8F11
 229 04ae 7BF68D51 		.ascii	"{\366\215Qhq5\365S\247\245l\365VW\244\033EQG9n\222m"
 229      687135F5 
 229      53A7A56C 
 229      F55657A4 
 229      1B455147 
 230 04c6 6ECEBACC 		.ascii	"n\316\272\314\236\357\322:\272\312:\345uM\251,D\225"
 230      9EEFD23A 
 230      BACA3AE5 
 230      754DA92C 
 230      4495
 231 04d8 EDBD7DCE 		.ascii	"\355\275}\316S\313\255L({\3254\221h$\031Z\026jkg\336"
 231      53CBAD4C 
 231      287BD534 
 231      91682419 
 231      5A166A6B 
 232 04ee 3FD63863 		.ascii	"?\3268cy\341\275_\237m\243qb\034\3720&\267W6\337\346"
 232      79E1BD5F 
 232      9F6DA371 
 232      621CFA30 
 232      26B75736 
 233 0504 F55C7DF3 		.ascii	"\365\\}\363\352:<\270W\313\324\322\206\236\011Lo\301"
 233      EA3A3CB8 
 233      57CBD4D2 
 233      869E094C 
ARM GAS  C:\Users\info\AppData\Local\Temp\ccMAKrl2.s 			page 18


 233      6FC1
 234 0516 A51763DE 		.ascii	"\245\027c\336\316\302\011,<?r\243N\217QO\244a\356\342"
 234      CEC2092C 
 234      3C3F72A3 
 234      4E8F514F 
 234      A461EEE2 
 235 052a 78F36E03 		.ascii	"x\363n\003\251d\306\011U\343G\343=H=\202]\027\013\317"
 235      A964C609 
 235      55E347E3 
 235      3D483D82 
 235      5D170BCF 
 236 053e 7A933E04 		.ascii	"z\223>\004[[v\346\033\310\023\004\217\267\017\3361\220"
 236      5B5B76E6 
 236      1BC81304 
 236      8FB70FDE 
 236      3190
 237 0550 1904F557 		.ascii	"\031\004\365W\373\177Iv\271\263\353\327\203{\006\264"
 237      FB7F4976 
 237      B9B3EBD7 
 237      837B06B4 
 238 0560 E43082BE 		.ascii	"\3440\202\276c\373NhQ\323C\212c\322\332\367\022r\031"
 238      63FB4E68 
 238      51D3438A 
 238      63D2DAF7 
 238      127219
 239 0573 2B6B67A7 		.ascii	"+kg\247\252}\261R\003pfp\254QK\352\261\356\304\273\351"
 239      AA7DB152 
 239      03706670 
 239      AC514BEA 
 239      B1EEC4BB 
 240 0588 719AC1AC 		.ascii	"q\232\301\254\202\275q\226p\271\306*\3145\252\032n\344"
 240      82BD7196 
 240      70B9C62A 
 240      CC35AA1A 
 240      6EE4
 241 059a 18490F23 		.ascii	"\030I\017#k\332j\016\2767\340\326\005\023\"V\324\373"
 241      6BDA6A0E 
 241      BE37E0D6 
 241      05132256 
 241      D4FB
 242 05ac B3C522BC 		.ascii	"\263\305\"\274\247\003\033\253\361\24771o\211\232\345"
 242      A7031BAB 
 242      F1A73731 
 242      6F899AE5 
 243 05bc 90B93836 		.ascii	"\220\27186\257\326g\377\300\262\222\030\215^\330\242"
 243      AFD667FF 
 243      C0B29218 
 243      8D5ED8A2 
 244 05cc 71FA7D95 		.ascii	"q\372}\225\264w]N\356\035\321\223\007\250\342\370=\261"
 244      B4775D4E 
 244      EE1DD193 
 244      07A8E2F8 
 244      3DB1
 245 05de 423B9F8A 		.ascii	"B;\237\212\370yUL%\254\312\243\373\343VP\021'\253\000"
 245      F879554C 
 245      25ACCAA3 
 245      FBE35650 
ARM GAS  C:\Users\info\AppData\Local\Temp\ccMAKrl2.s 			page 19


 245      1127AB00 
 246 05f2 8DA8E3FE 		.ascii	"\215\250\343\376\316s\265\336d\014\373\374\350H\373"
 246      CE73B5DE 
 246      640CFBFC 
 246      E848FB
 247 0601 561F227A 		.ascii	"V\037\"z0\220y7m\326\223\354F\2204~d\237\216\244!H~"
 247      30907937 
 247      6DD693EC 
 247      4690347E 
 247      649F8EA4 
 248 0618 9B56EF41 		.ascii	"\233V\357A\262\021\\\274\036\233\343I\362\020l\251\274"
 248      B2115CBC 
 248      1E9BE349 
 248      F2106CA9 
 248      BC
 249 0629 5AEC4D4A 		.ascii	"Z\354MJ\021\214\325\027\351\311e\274\256\034\335SAH"
 249      118CD517 
 249      E9C965BC 
 249      AE1CDD53 
 249      4148
 250 063b 1382EC13 		.ascii	"\023\202\354\023\015SZ\322\217\340\255\230\376HG\306"
 250      0D535AD2 
 250      8FE0AD98 
 250      FE4847C6 
 251 064b 103C2D7B 		.ascii	"\020<-{~@C> \350{>>\355E\022=\321\335\307\272>x\221"
 251      7E40433E 
 251      20E87B3E 
 251      3EED4512 
 251      3DD1DDC7 
 252 0663 6C04894D 		.ascii	"l\004\211Mgn\030H\031\202\342\352\372f=\251A\220\233"
 252      676E1848 
 252      1982E2EA 
 252      FA663DA9 
 252      41909B
 253 0676 F32E5F4F 		.ascii	"\363._O\032\021\214\016\216\316\370\222.\004'N\306\034"
 253      1A118C0E 
 253      8ECEF892 
 253      2E04274E 
 253      C61C
 254 0688 D3912104 		.ascii	"\323\221!\004\307rw\325\373\220\027\014,\031\331\275"
 254      C77277D5 
 254      FB90170C 
 254      2C19D9BD 
 255 0698 FB9CB7B0 		.ascii	"\373\234\267\260R\376\260\335\324\237]\036\223\026H"
 255      52FEB0DD 
 255      D49F5D1E 
 255      931648
 256 06a7 6479499F 		.ascii	"dyI\237(\306\033Y\264K\002?\346h\234\313\374\206k\264"
 256      28C61B59 
 256      B44B023F 
 256      E6689CCB 
 256      FC866BB4 
 257 06bb 2B6BE2A2 		.ascii	"+k\342\242\335\0365\362Z9\216V%rq4Q\215\\\311E\220L"
 257      DD1E35F2 
 257      5A398E56 
 257      25727134 
 257      518D5CC9 
ARM GAS  C:\Users\info\AppData\Local\Temp\ccMAKrl2.s 			page 20


 258 06d2 BEE97D4A 		.ascii	"\276\351}J\366\234pS\324\344\334'RT\250\374\3663\233"
 258      F69C7053 
 258      D4E4DC27 
 258      5254A8FC 
 258      F6339B
 259 06e5 E87350AC 		.ascii	"\350sP\254\2064\211\316\223t\211\354\234^.\333\025\215"
 259      863489CE 
 259      937489EC 
 259      9C5E2EDB 
 259      158D
 260 06f7 FE4D9CD5 		.ascii	"\376M\234\325;\325\254\346\331\267\321\020\312MP\343"
 260      3BD5ACE6 
 260      D9B7D110 
 260      CA4D50E3 
 261 0707 5EE0B8ED 		.ascii	"^\340\270\355\274?v\251\261\371.\246\361\376\330\257"
 261      BC3F76A9 
 261      B1F92EA6 
 261      F1FED8AF 
 262 0717 D2C90AAE 		.ascii	"\322\311\012\256\351V\276\351\335jMW\270\344\006\032"
 262      E956BEE9 
 262      DD6A4D57 
 262      B8E4061A 
 263 0727 2E374893 		.ascii	".7H\223n\240\271A.\254\267<\315J\341\024\310Y\220\343"
 263      6EA0B941 
 263      2EACB73C 
 263      CD4AE114 
 263      C85990E3 
 264 073b 204740CE 		.ascii	" G@\316\200d\202\344\203d\200\034\0029\014r\002$\033"
 264      806482E4 
 264      8364801C 
 264      02390C72 
 264      02241B
 265 074e E418C851 		.ascii	"\344\030\310Q\220\323 \347@N\202\024\200di\370\274\341"
 265      90D320E7 
 265      404E8214 
 265      806469F8 
 265      BCE1
 266 0760 153F18DB 		.ascii	"\025?\030\333\324\007\203\237\024\373y'\034Pq\302\347"
 266      D407839F 
 266      14FB7927 
 266      1C5071C2 
 266      E7
 267 0771 B20FFAE4 		.ascii	"\262\017\372\344\241\330\241\346\201<\256\335\002y\376"
 267      A1D8A1E6 
 267      813CAEDD 
 267      0279FE
 268 0780 EC556915 		.ascii	"\354Ui\025G\0157\244\367\011l\263\002\012\277Ya3{y\363"
 268      470D37A4 
 268      F7096CB3 
 268      020ABF59 
 268      61337B79 
 269 0795 0EAA34C4 		.ascii	"\016\2524\304\355\375\251\262\312T\025&\337\353\022"
 269      EDFDA9B2 
 269      CA541526 
 269      DFEB12
 270 07a4 999AAC42 		.ascii	"\231\232\254B\315\343\006~@\356\364v%uN\3621\305\373"
 270      CDE3067E 
ARM GAS  C:\Users\info\AppData\Local\Temp\ccMAKrl2.s 			page 21


 270      40EEF476 
 270      25754EF2 
 270      31C5FB
 271 07b7 FE83A0EA 		.ascii	"\376\203\240\352{\234\200tO\0253n\022\022\247c\001\272"
 271      7B9C8074 
 271      4F15336E 
 271      1212A763 
 271      01BA
 272 07c9 E4D9BD47 		.ascii	"\344\331\275G\356\302\""
 272      EEC222
 273 07d0 7FF5D953 		.ascii	"\177\365\331S\0143\346\017={p(\366'\375)\035\212\"P"
 273      0C33E60F 
 273      3D7B7028 
 273      F627FD29 
 273      1D8A2250 
 274 07e4 5628077C 		.ascii	"V(\007|:2\230\033\334\335_\345\205{\336m~+^,m\305%Y"
 274      3A32981B 
 274      DCDD5FE5 
 274      857BDE6D 
 274      7E2B5E2C 
 275 07fc 1D559E64 		.ascii	"\035U\236d?\353\223P.nK\326\221\243\010\032\237\214"
 275      3FEB9350 
 275      2E6E4BD6 
 275      91A3081A 
 275      9F8C
 276 080e 97EAC819 		.ascii	"\227\352\310\031\004S\375i\211\006R\214`vz\373\006R"
 276      0453FD69 
 276      8906528C 
 276      60767AFB 
 276      0652
 277 0820 83D72F1A 		.ascii	"\203\327/\032\313&\011iE0r\371\371\224\221\014 \270"
 277      CB260969 
 277      453072F9 
 277      F994910C 
 277      20B8
 278 0832 B4B36146 		.ascii	"\264\263aFG\036#H\277\270-FO\236\"\330VZ\231\343A\306"
 278      471E2348 
 278      BFB82D46 
 278      4F9E22D8 
 278      565A99E3 
 279 0848 249DF777 		.ascii	"$\235\367w\336\320\221)\004o\307\352v\272\023\321\213"
 279      DED09129 
 279      046FC7EA 
 279      76BA13D1 
 279      8B
 280 0859 81C39DC3 		.ascii	"\201\303\235\303{\274\364R>\262\347w\037\246\323k\267"
 280      7BBCF452 
 280      3EB2E777 
 280      1FA6D36B 
 280      B7
 281 086a D7B8F347 		.ascii	"\327\270\363G\272\032\015\177\244\273\252q\034\351n"
 281      BA1A0D7F 
 281      A4BBAA71 
 281      1CE96E
 282 0879 34DFF84B 		.ascii	"4\337\370K\222\200J\312\017\037\231\362&\231\014\370"
 282      92804ACA 
 282      0F1F99F2 
ARM GAS  C:\Users\info\AppData\Local\Temp\ccMAKrl2.s 			page 22


 282      26990CF8 
 283 0889 3C197C71 		.ascii	"<\031|qH\020\234\333\202\277sK\250\256J\342bI\005\370"
 283      48109CDB 
 283      82BF734B 
 283      A8AE4AE2 
 283      624905F8 
 284 089d B9F17FD8 		.ascii	"\271\361\177\330\020\3564s+\240L\215\314\247\367\245"
 284      10EE3473 
 284      2BA04C8D 
 284      CCA7F7A5 
 285 08ad CDBEC8A6 		.ascii	"\315\276\310\246\011S\225\222\375\251k\270\254\340\355"
 285      09539592 
 285      FDA96BB8 
 285      ACE0ED
 286 08bc A85421F3 		.ascii	"\250T!\363\013\272\237\267\243V\315\016~Ohk\226\217"
 286      0BBA9FB7 
 286      A356CD0E 
 286      7E4F686B 
 286      968F
 287 08ce 196A5CC5 		.ascii	"\031j\\\305\276\224\364\021f\266\340T\341\212\304VI"
 287      BE94F411 
 287      66B6E054 
 287      E18AC456 
 287      49
 288 08df 6D15C7AE 		.ascii	"m\025\307\256R\310T\350\212\022\256I7\320\305\321\014"
 288      52C854E8 
 288      8A12AE49 
 288      37D0C5D1 
 288      0C
 289 08f0 8BE3164C 		.ascii	"\213\343\026L\3526\220z\220&\220\033 - u \015 \255 "
 289      EA36907A 
 289      9026901B 
 289      202D2075 
 289      200D20AD 
 290 0905 ED20D741 		.ascii	"\355 \327An\312\241\023\334Q\316\273\343\262\212;\362"
 290      6ECAA113 
 290      DC51CEBB 
 290      E3B28A3B 
 290      F2
 291 0916 B9A07528 		.ascii	"\271\240u(\211\005\255\3069A\013\352*\371\206.\251u"
 291      8905ADC6 
 291      39410BEA 
 291      2AF9862E 
 291      A975
 292 0928 9F0B1A9D 		.ascii	"\237\013\032\235\274_\313\325\310\334!\253\272\230\037"
 292      BC5FCBD5 
 292      C8DC21AB 
 292      BA981F
 293 0937 DF6A151B 		.ascii	"\337j\025\033\371\015\256\233o\372\202Z\323\316ht\263"
 293      F90DAE9B 
 293      6FFA825A 
 293      D3CE6874 
 293      B3
 294 0948 B8F96392 		.ascii	"\270\371c\222\315&\256\346LaJ\225A\021\214x\177w\201"
 294      CD26AEE6 
 294      4C614A95 
 294      41118C78 
ARM GAS  C:\Users\info\AppData\Local\Temp\ccMAKrl2.s 			page 23


 294      7F7781
 295 095b 8FFFB7FE 		.ascii	"\217\377\267\376F\027\276LZE]\330\011\215u\310\301\246"
 295      4617BE4C 
 295      5A455DD8 
 295      098D75C8 
 295      C1A6
 296 096d D1116CDA 		.ascii	"\321\021l\332G\216\306\0311\330\264\260\205>r\035\022"
 296      478EC619 
 296      31D8B4B0 
 296      853E721D 
 296      12
 297 097e F8F3B8D2 		.ascii	"\370\363\270\322&gwT\350H-\202\221\235\247'\214d\020"
 297      26677754 
 297      E8482D82 
 297      919DA727 
 297      8C6410
 298 0991 41426D69 		.ascii	"ABmi\235\364\364\260\236=\247\312/;\346A\356ce\367\203"
 298      9DF4F4B0 
 298      9E3DA7CA 
 298      2F3BE641 
 298      EE6365F7 
 299 09a6 4745843C 		.ascii	"GE\204<E\020W\234qAO&\021\334\256h\232t'3\010\256\024"
 299      4510579C 
 299      71414F26 
 299      11DCAE68 
 299      9A742733 
 300 09bd 4F431C8B 		.ascii	"OC\034\213\303d\275l,\267\314\033\033\254\246\370\352"
 300      C364BD6C 
 300      2CB7CC1B 
 300      1BACA6F8 
 300      EA
 301 09ce 96514867 		.ascii	"\226QHgwae\321\316K\005Z\262\017A\316\203\204X=\311"
 301      776165D1 
 301      CE4B055A 
 301      B20F41CE 
 301      8384583D 
 302 09e3 4030545D 		.ascii	"@0T]\334\251%\307\0214\216v\267kI.\202\214\321\367\223"
 302      DCA925C7 
 302      11348E76 
 302      B76B492E 
 302      828CD1F7 
 303 09f8 1A5284C0 		.ascii	"\032R\204\300\3618\323\017\037gf\245L\336'\344\012\326"
 303      F138D30F 
 303      1F6766A5 
 303      4CDE27E4 
 303      0AD6
 304 0a0a A5BC3F0E 		.ascii	"\245\274?\016Q\270\015\301\3653qC\0322\214`\240\374"
 304      51B80DC1 
 304      F5337143 
 304      1A328C60 
 304      A0FC
 305 0a1c 78BD2719 		.ascii	"x\275'\031Gp\361HG\253\226\210\006\006\034\017@\375"
 305      4770F148 
 305      47AB9688 
 305      06061C0F 
 305      40FD
 306 0a2e F00168FF 		.ascii	"\360\001h\377\207\326m:\262\033\353\206\006.\315h\310"
ARM GAS  C:\Users\info\AppData\Local\Temp\ccMAKrl2.s 			page 24


 306      87D66D3A 
 306      B21BEB86 
 306      062ECD68 
 306      C8
 307 0a3f 6104B30F 		.ascii	"a\004\263\017\373'\014\244\024\301\360\226\203\243\032"
 307      FB270CA4 
 307      14C1F096 
 307      83A31A
 308 0a4e 528760F7 		.ascii	"R\207`\367\323s\007\274\310 \202\351\207\373\356\010"
 308      D37307BC 
 308      C82082E9 
 308      87FBEE08 
 309 0a5e D89E911E 		.ascii	"\330\236\221\036\201*\356$\373b\304\037b\346\017\024"
 309      812AEE24 
 309      FB62C41F 
 309      62E60F14 
 310 0a6e 15EAC918 		.ascii	"\025\352\311\030r\357>\257L\303\243#\235pxt\314\317"
 310      72EF3EAF 
 310      4CC3A323 
 310      9D707874 
 310      CCCF
 311 0a80 694E92CF 		.ascii	"iN\222\317uS\032V84[Z\356\356,|\203\205\347N\316\276"
 311      75531A56 
 311      38345B5A 
 311      EEEE2C7C 
 311      8385E74E 
 312 0a96 F57216BE 		.ascii	"\365r\026\276\305\302\311\242]'<\310\224A\312\311{\213"
 312      C5C2C9A2 
 312      5D273CC8 
 312      9441CAC9 
 312      7B8B
 313 0aa8 04B2DDC8 		.ascii	"\004\262\335\310\300\276\027\255\307<I\012\202\272\364"
 313      C0BE17AD 
 313      C73C490A 
 313      82BAF4
 314 0ab7 51C85233 		.ascii	"Q\310R3\020\224TN\234\220\236\203\212\364\360\225\325"
 314      1094544E 
 314      9C909E83 
 314      8AF4F095 
 314      D5
 315 0ac8 91DDE741 		.ascii	"\221\335\347A\212\261\322\361\220\324\017\037\222\212"
 315      8AB1D2F1 
 315      90D40F1F 
 315      928A
 316 0ad6 0FE33235 		.ascii	"\017\34325\344\002\326U=L\256\322\221\353\010ZN>\353"
 316      E402D655 
 316      3D4CAED2 
 316      91EB085A 
 316      4E3EEB
 317 0ae9 F6218308 		.ascii	"\366!\203\010\036fU\025\351\310;\004\216\007\322~\370"
 317      1E665515 
 317      E9C83B04 
 317      8E07D27E 
 317      F8
 318 0afa 407A7F75 		.ascii	"@z\177u\312\214\236\304{\263\272\033\345\303kH2^\277"
 318      CA8C9EC4 
 318      7BB3BA1B 
ARM GAS  C:\Users\info\AppData\Local\Temp\ccMAKrl2.s 			page 25


 318      E5C36B48 
 318      325EBF
 319 0b0d 6EE8E827 		.ascii	"n\350\350'$\013ARM\345U\035\311CP\327\327\003s\343\002"
 319      240B4152 
 319      4DE5551D 
 319      C94350D7 
 319      D70373E3 
 320 0b22 82F7C5C5 		.ascii	"\202\367\305\305W\005\322\210 \356q\3663\201t!\350\257"
 320      5705D288 
 320      20EE71F6 
 320      33817421 
 320      E8AF
 321 0b34 3F9D4BA7 		.ascii	"?\235K\247\362'\364\0309;\353\313\035$?\301\241oKzq"
 321      F227F418 
 321      393BEBCB 
 321      1D243FC1 
 321      A16F4B7A 
 322 0b49 DC930C31 		.ascii	"\334\223\0141\272&7\371I\033\367\324\372\204\261\234"
 322      BA2637F9 
 322      491BF7D4 
 322      FA84B19C 
 323 0b59 1EDE5208 		.ascii	"\036\336R\010\234#\210sy}\342<\226\263m\315M\016\264"
 323      9C238873 
 323      797DE23C 
 323      96B36DCD 
 323      4D0EB4
 324 0b6c C9C49F36 		.ascii	"\311\304\2376\3136\302$\262\\H$\370\334\372x2\254\237"
 324      CB36C224 
 324      B25C4824 
 324      F8DCFA78 
 324      32AC9F
 325 0b7f 27A8E24C 		.ascii	"'\250\342L~s\235\247\343 \351\332\300~\225\006\034\007"
 325      7E739DA7 
 325      E320E9DA 
 325      C07E9506 
 325      1C07
 326 0b91 C91FB083 		.ascii	"\311\037\260\203\344>\260e\257l\013\230\206K}\270p\352"
 326      E43EB065 
 326      AF6C0B98 
 326      864B7DB8 
 326      70EA
 327 0ba3 A98E4C62 		.ascii	"\251\216Lb\257\363\363\246\013\364l\036|\343x\376\320"
 327      AFF3F3A6 
 327      0BF46C1E 
 327      7CE378FE 
 327      D0
 328 0bb4 1B7FB2C1 		.ascii	"\033\177\262\301\340\234X\007\010+\354\274=\320\351"
 328      E09C5807 
 328      082BECBC 
 328      3DD0E9
 329 0bc3 E52C3C88 		.ascii	"\345,<\210\205\333f\373\257\351H\274\017:\363\344\356"
 329      85DB66FB 
 329      AFE948BC 
 329      0F3AF3E4 
 329      EE
 330 0bd4 43DE2405 		.ascii	"C\336$\005Ab\332\213\012O\222\216\240\275:\353\220\027"
 330      4162DA8B 
ARM GAS  C:\Users\info\AppData\Local\Temp\ccMAKrl2.s 			page 26


 330      0A4F928E 
 330      A0BD3AEB 
 330      9017
 331 0be6 398AE05E 		.ascii	"9\212\340^\311\324qo\222\3473\357\034.m\313\034\364"
 331      C9D4716F 
 331      92E733EF 
 331      1C2E6DCB 
 331      1CF4
 332 0bf8 24254878 		.ascii	"$%Hx\327<}Q W\020\354j?\3779i\302\353\274\316\333\357"
 332      D73C7D51 
 332      205710EC 
 332      6A3FFF39 
 332      69C2EBBC 
 333 0c0f 05D283A0 		.ascii	"\005\322\203\240\361\303\370e\0104\010\316\016\305\267"
 333      F1C3F865 
 333      083408CE 
 333      0EC5B7
 334 0c1e BB93F708 		.ascii	"\273\223\367\010rf\216\226\030\311\016_\234\010S\225"
 334      72668E96 
 334      18C90E5F 
 334      9C085395 
 335 0c2e D9EE641F 		.ascii	"\331\356d\037\202\235\011g\216\372\220\323\010\266\356"
 335      829D0967 
 335      8EFA90D3 
 335      08B6EE
 336 0c3d CABD44C8 		.ascii	"\312\275D\310%\004-\203E\257<H+\202\301\201\344\177"
 336      25042D83 
 336      45AF3C48 
 336      2B82C181 
 336      E47F
 337 0c4f 273D78FD 		.ascii	"'=x\375\244\243-\331\235\214\"x_\264\255BK\336!\030"
 337      A4A32DD9 
 337      9D8C2278 
 337      5FB4AD42 
 337      4BDE2118 
 338 0c63 AD7F3B69 		.ascii	"\255\177;i \273\026\240\31551\345\002\311Dp\276\346"
 338      20BB16A0 
 338      CD3531E5 
 338      02C94470 
 338      BEE6
 339 0c75 ED2D7752 		.ascii	"\355-wR\202`,&\3678L>\004-\373\237A\342<\202`fz\357"
 339      82602C26 
 339      F7384C3E 
 339      042DFB9F 
 339      41E23C82 
 340 0c8d 1677F216 		.ascii	"\026w\362\026AU\337\303<\003IX\210!k\367\370U=9\316"
 340      4155DFC3 
 340      3C034958 
 340      88216BF7 
 340      F8553D39 
 341 0ca2 C047E3B9 		.ascii	"\300G\343\271\007;<\370\003\360J\351\000\274h%\333\204"
 341      073B3CF8 
 341      03F04AE9 
 341      00BC6825 
 341      DB84
 342 0cb4 86328723 		.ascii	"\2062\207#+\317\343\371\227z\364,\014\377\0152\377a"
 342      2BCFE3F9 
ARM GAS  C:\Users\info\AppData\Local\Temp\ccMAKrl2.s 			page 27


 342      977AF42C 
 342      0CFF0D32 
 342      FF61
 343 0cc6 F2529B33 		.ascii	"\362R\2333q8\241\244\316y0\3702\205K\267\217Id\325t"
 343      7138A1A4 
 343      CE7930F8 
 343      32854BB7 
 343      8F4964D5 
 344 0cdb 5B3AEFF1 		.ascii	"[:\357\361\333a\241\212\035|R\322!'0y*T>3\332'S\213"
 344      DB61A18A 
 344      1D7C52D2 
 344      21273079 
 344      2A543E33 
 345 0cf3 54A89CC5 		.ascii	"T\250\234\305mr\347\262\325:\307\357\364)r\253\305*"
 345      6D72E7B2 
 345      D53AC7EF 
 345      F42972AB 
 345      C52A
 346 0d05 AD721944 		.ascii	"\255r\031D\272\314,Pa\362\215f\310\324s*T\336[\005\262"
 346      BACC2C50 
 346      61F28D66 
 346      C8D4732A 
 346      54DE5B05 
 347 0d1a ADA794D4 		.ascii	"\255\247\224\324\271\331^\213\314=\256\326/\336\261"
 347      B9D95E8B 
 347      CC3DAED6 
 347      2FDEB1
 348 0d29 FB64EE69 		.ascii	"\373d\356i\265v\371l\366\203l\356\0315.oo\211\334\356"
 348      B576F96C 
 348      F6836CEE 
 348      19352E6F 
 348      6F89DCEE 
 349 0d3d 49352E3F 		.ascii	"I5.?b\257\370\231S\252>s\370do:\221%{\300\232{B\315"
 349      62AFF899 
 349      53AA3E73 
 349      F8646F3A 
 349      91257BC0 
 350 0d55 E46755BE 		.ascii	"\344gU\276\212S\371\016]\224\215\314Qs\324\334<\327"
 350      8A53F90E 
 350      5D948DCC 
 350      5173D4DC 
 350      3CD7
 351 0d67 79082C91 		.ascii	"y\010,\221\3704\357\252\203H[IV\012\025 \345 \227A\252"
 351      F834EFAA 
 351      83485B49 
 351      560A1520 
 351      E5209741 
 352 0d7c 40AE839C 		.ascii	"@\256\203\234\007\271\010r\023\344*H\015H5\3105\220"
 352      07B90872 
 352      13E42A48 
 352      0D4835C8 
 352      3590
 353 0d8e 7A903290 		.ascii	"z\2202\220+ \227@.\200\324\022\376\361Ao\222\364\374"
 353      2B209740 
 353      2E80D412 
 353      FEF1416F 
 353      92F4FC
ARM GAS  C:\Users\info\AppData\Local\Temp\ccMAKrl2.s 			page 28


 354 0da1 9C86EA5C 		.ascii	"\234\206\352\\I\245\332\023q\210\003w\222\016\245\371"
 354      49A5DA13 
 354      71880377 
 354      920EA5F9 
 355 0db1 92421607 		.ascii	"\222B\026\0074\257v\327|\341\2323:mo\004{\377\220\266"
 355      34AF76D7 
 355      7CE19A33 
 355      3A6D6F04 
 355      7BFF90B6 
 356 0dc5 E328A535 		.ascii	"\343(\2455\3759\035\245[\240\250A\336d\350\2401sK\206"
 356      FD391DA5 
 356      5BA0A841 
 356      DE64E8A0 
 356      31734B86 
 357 0dd9 739E7B2E 		.ascii	"s\236{.\222\014\254\236\327@\267\337\273u4~v\305m3\360"
 357      920CAC9E 
 357      D740B7DF 
 357      BB75347E 
 357      76C56D33 
 358 0dee A7C926C2 		.ascii	"\247\311&\302\277\343j&\216\323\344\324\331\321>wR\213"
 358      BFE36A26 
 358      8ED3E4D4 
 358      D9D13E77 
 358      528B
 359 0e00 81F6E183 		.ascii	"\201\366\341\203Cuz\322\212\240\252\375\334-_\362\200"
 359      43757AD2 
 359      8AA0AAFD 
 359      DC2D5FF2 
 359      80
 360 0e11 813FE9DD 		.ascii	"\201?\351\335Y\265E\020\224o\357\360\025\236q\231\326"
 360      59B54510 
 360      946FEFF0 
 360      159E7199 
 360      D6
 361 0e22 5FBAF05F 		.ascii	"_\272\360_\351O\177\267 t\020\243\220I\024\257\330:"
 361      E94F7FB7 
 361      207410A3 
 361      904914AF 
 361      D83A
 362 0e34 15EA3BC8 		.ascii	"\025\352;\310\334Wl\263\220\357\217i\3005\257\3005\335"
 362      DC576CB3 
 362      90EF8F69 
 362      C035AFC0 
 362      35DD
 363 0e46 D2D84DC2 		.ascii	"\322\330M\302\365K\350\331\030\3103\220\247 O@\036\200"
 363      F54BE8D9 
 363      18C83390 
 363      A7204F40 
 363      1E80
 364 0e58 DC07B907 		.ascii	"\334\007\271\0072\014r\027d\010d\020d\000\244\037\244"
 364      320C7217 
 364      64086410 
 364      6400A41F 
 364      A4
 365 0e69 0FA417A4 		.ascii	"\017\244\027\244\007\344\016\310m\220.\305\334\233\356"
 365      07E40EC8 
 365      6D902EC5 
ARM GAS  C:\Users\info\AppData\Local\Temp\ccMAKrl2.s 			page 29


 365      DC9BEE
 366 0e78 E256522B 		.ascii	"\342VR+\214`\267\274<\266\020y\275\253\333\331\"\335"
 366      8C60B7BC 
 366      3CB61079 
 366      BDABDBD9 
 366      22DD
 367 0e8a F087B7F3 		.ascii	"\360\207\267\363M\227s\021\307\250Y\311\007\334\327"
 367      4D977311 
 367      C7A859C9 
 367      07DCD7
 368 0e99 3237568D 		.ascii	"27V\215\313G\306I\231\033\247\306\3456\222\0272u\253"
 368      CB47C649 
 368      991BA7C6 
 368      E5369217 
 368      3275AB
 369 0eac 1A95DB1D 		.ascii	"\032\225\333\035\306e\3526%5\236\270\306\305\001\231"
 369      C665EA36 
 369      25359EB8 
 369      C6C50199 
 370 0ebc BB5D8DCB 		.ascii	"\273]\215\313\307\374>\231\273C\215\313\207\275.\231"
 370      C7FC3E99 
 370      BB438DCB 
 370      87BD2E99 
 371 0ecc BB538DAB 		.ascii	"\273S\215\253x#'s\023\324\270\274w\333d.}$;\207\313"
 371      78232773 
 371      13D4B8BC 
 371      77DB642E 
 371      7D243B87 
 372 0ee1 7BB73595 		.ascii	"{\2675\225\213\371\273\244\226\345\227 \256n\253J\345"
 372      8BF9BBA4 
 372      96E59720 
 372      AE6EAB4A 
 372      E5
 373 0ef2 1E4AF448 		.ascii	"\036J\364H\215;\003a\333\234\355\2472\225\013\234\273"
 373      8D3B0361 
 373      DB9CEDA7 
 373      32950B9C 
 373      BB
 374 0f03 892A9F6B 		.ascii	"\211*\237k\276\242\313\027\351#\2608S]\351|\356\302"
 374      BEA2CB17 
 374      E923B038 
 374      535DE97C 
 374      EEC2
 375 0f15 ADDA8784 		.ascii	"\255\332\207\204{\365\370\030\346\370(q\274z\234\207"
 375      7BF5F818 
 375      E6F82871 
 375      BC7A9C87 
 376 0f25 E5C651B8 		.ascii	"\345\306Q\270\027\362\312\237'\300\015\360\367\021q"
 376      17F2CA9F 
 376      27C00DF0 
 376      F71171
 377 0f34 BC91A7F1 		.ascii	"\274\221\247\361\"\015\220\364\272\260\351#\032U\251"
 377      220D90F4 
 377      BAB0E923 
 377      1A55A9
 378 0f43 9DE97254 		.ascii	"\235\351rT\035e!\003\373R\316\367\345\220z_\270\256"
 378      1D652103 
ARM GAS  C:\Users\info\AppData\Local\Temp\ccMAKrl2.s 			page 30


 378      FB52CEF7 
 378      E5907A5F 
 378      B8AE
 379 0f55 9FEF62AF 		.ascii	"\237\357b\257\\)9\303\225\254\262\255\313\354\303\352"
 379      5C2939C3 
 379      95ACB2AD 
 379      CBECC3EA 
 380 0f65 6CAEE9E2 		.ascii	"l\256\351\342\324\305h\311s\240\037q\245\177\252\352"
 380      D4C568C9 
 380      73A01F71 
 380      A57FAAEA 
 381 0f75 D409DEA9 		.ascii	"\324\011\336\251/\300\251\343jN\235P8u\\\315\251[\025"
 381      2FC0A9E3 
 381      6A4E9D50 
 381      38755CCD 
 381      A95B15
 382 0f88 0F082798 		.ascii	"\017\010'\230S\333\231S\321\221\205\211K\250#\251iY"
 382      53DB9953 
 382      D1918589 
 382      4BA823A9 
 382      6959
 383 0f9a B223C739 		.ascii	"\262#\3079G\026"
 383      4716
 384 0fa0 A67E8CE6 		.ascii	"\246~\214\346\303~ \034U5\237{\307{8\225%%\335\312\244"
 384      C37E201C 
 384      55359F7B 
 384      C77B3895 
 384      2525DDCA 
 385 0fb5 04EB0E24 		.ascii	"\004\353\016$\262w\2744\314\267\311\272\272\035[aAK"
 385      B277BC34 
 385      CCB7C9BA 
 385      BA1D5B61 
 385      414B
 386 0fc7 698C3779 		.ascii	"i\2147y\212\033K^\343\365>\351\201\311v\372\0207\357"
 386      8A1B4B5E 
 386      E3F53EE9 
 386      81C976FA 
 386      1037EF
 387 0fda 54FF88A7 		.ascii	"T\377\210\247\3643\022\372K\227\201\316##>\344\015\222"
 387      F43312FA 
 387      4B9781CE 
 387      23233EE4 
 387      0D92
 388 0fec 5BDF3C8C 		.ascii	"[\337<\214\027H\202\037\005\177[\266k\270\325KPlAF"
 388      1748821F 
 388      057F5BB6 
 388      6BB8D54B 
 388      506C4146 
 389 1000 FC4DC9DC 		.ascii	"\374M\311\334\017\333\252pw2\372\373\263\013\177(\240"
 389      0FDBAA70 
 389      7732FAFB 
 389      B30B7F28 
 389      A0
 390 1011 7B943F1E 		.ascii	"{\224?\036\024\012\357E6w\334\027E8\322;\326\334\014"
 390      140AEF45 
 390      3677DC17 
 390      4538D23B 
ARM GAS  C:\Users\info\AppData\Local\Temp\ccMAKrl2.s 			page 31


 390      D6DC0C
 391 1024 DFFF6E8D 		.ascii	"\337\377n\215z\206\364\006\216\232S\260|\205\327\004"
 391      7A86F406 
 391      8E9A53B0 
 391      7C85D704 
 392 1034 EFA03BC0 		.ascii	"\357\240;\300E\255\277P\256\205=\033$\013$\023\344\010"
 392      45ADBF50 
 392      AE853D1B 
 392      240B2413 
 392      E408
 393 1046 C861900C 		.ascii	"\310a\220\014\220C \351 i \007A\016\200\244\202\354"
 393      904320E9 
 393      20692007 
 393      410E80A4 
 393      82EC
 394 1058 07D907B2 		.ascii	"\007\331\007\262\027$\005$\031d\017H\022H\"\3104\354"
 394      17240524 
 394      19640F48 
 394      124822C8 
 394      34EC
 395 106a 06DBE03B 		.ascii	"\006\333\340;\036d+H\034H,H\014\310\026\020\021d\026"
 395      1E642B48 
 395      1C482C48 
 395      0CC81610 
 395      116416
 396 107d 381F40DE 		.ascii	"8\037@\336+v\215A~w{+\231*E\253\227s2T.bN\012*\334|"
 396      2B768D41 
 396      7E777B2B 
 396      992A45AB 
 396      97733254 
 397 1098 F528F84A 		.ascii	"\365(\370J\215\313?\362\255J\345\036M\276Vc\347r\354"
 397      8DCB3FF2 
 397      AD4AE51E 
 397      4DBE5663 
 397      E772EC
 398 10ab 8B5DCE77 		.ascii	"\213]\316w\037Sj\\\376\005\331\005\231\373F\215\313"
 398      1F536A5C 
 398      FE05D905 
 398      99FB468D 
 398      CB
 399 10bc C7E23285 		.ascii	"\307\3422\205/\324\330\334^W w\357\235\032\225{\037"
 399      2FD4D8DC 
 399      5E572077 
 399      EF9D1A95 
 399      7B1F
 400 10ce 9A96BA64 		.ascii	"\232\226\272d\013\213\361\364\005\306\214Dv&y\323\256"
 400      0B8BF1F4 
 400      05C68C44 
 400      762679D3 
 400      AE
 401 10df F403A94B 		.ascii	"\364\003\251K\267\260\365F\037A\236\227\346\233\363"
 401      B7B0F546 
 401      1F419E97 
 401      E69BF3
 402 10ee 416789C6 		.ascii	"Ag\211\306%\272\354\357\372..\317\355Z\243p[}z\316\011"
 402      25BAECEF 
 402      FA2E2ECF 
ARM GAS  C:\Users\info\AppData\Local\Temp\ccMAKrl2.s 			page 32


 402      ED5AA370 
 402      5B7D7ACE 
 403 1103 2F3BB55C 		.ascii	"/;\265\\x\271\004\263r\207V%\274\360,7\216\302\205\227"
 403      78B904B3 
 403      72875625 
 403      BCF02C37 
 403      8EC28597 
 404 1117 7145CC86 		.ascii	"qE\314\206\033\340o\202\326\021\263wi]\177E\265[\313"
 404      1BE06F82 
 404      D611B377 
 404      695D7F45 
 404      B55BCB
 405 112a A778503F 		.ascii	"\247xP?'\305s.\234\0120\353\377\357\302y\331\316=\362"
 405      27C5732E 
 405      9C0A30EB 
 405      FFEFC279 
 405      D9CE3DF2 
 406 113e EED32866 		.ascii	"\356\323(f@\257f\271\313~1\336\316f\013\345\366\253"
 406      40AF66B9 
 406      CB7E31DE 
 406      CE660BE5 
 406      F6AB
 407 1150 71F9F461 		.ascii	"q\371\364a@\346\016\250q\371)\333's\007\325\270\334"
 407      40E60EA8 
 407      71F929DB 
 407      277307D5 
 407      B8DC
 408 1162 84ED90A9 		.ascii	"\204\355\220\251CjTnJ\265\311\324a%\365\256\3065$\264"
 408      436A546E 
 408      4AB5C9D4 
 408      6125F5AE 
 408      C63524B4 
 409 1176 C8DC7B6A 		.ascii	"\310\334{j\\>$\\\226\271\367\325\270|rV\"s\233\004\025"
 409      5C3E245C 
 409      96B9F7D5 
 409      B87C7256 
 409      22739B04 
 410 118b AEE25701 		.ascii	"\256\342W\0012\267Y\215\253x\326 s\037\250\331\300{"
 410      32B7598D 
 410      AB78D620 
 410      731FA8D9 
 410      C07B
 411 119d 375DE68E 		.ascii	"7]\346\216\250q9\357~hsRG\325\250\234wgd\352#%\365\341"
 411      A87139EF 
 411      7E687352 
 411      47D5A89C 
 411      776764EA 
 412 11b5 1CEFBE93 		.ascii	"\034\357\276\223\271\217\325\270\274w_\265q\341\353"
 412      B98FD5B8 
 412      BC775FB5 
 412      71E1EB
 413 11c4 891A9BF7 		.ascii	"\211\032\233\367\357\013\371\314\377T\215\313\373w\""
 413      EF0BF9CC 
 413      FF548DCB 
 413      FB7722
 414 11d3 85FBF9DA 		.ascii	"\205\373\371\3323\327\020\363\320\265\203\275)K\220"
 414      33D710F3 
ARM GAS  C:\Users\info\AppData\Local\Temp\ccMAKrl2.s 			page 33


 414      D0B583BD 
 414      294B90
 415 11e2 7E548BBF 		.ascii	"~T\213\277_S\320\307\324#\3221E`8\252\010\014x,~\005"
 415      5F53D0C7 
 415      D423D231 
 415      456038AA 
 415      080C782C 
 416 11f8 2170929E 		.ascii	"!p\222\236\251J \030\034\327J\307\342\\X\241'@\262\265"
 416      A94A2018 
 416      1CD74AC7 
 416      E25C58A1 
 416      2740B2B5 
 417 120c FCEA3CDF 		.ascii	"\374\352<\337\306\362\263s`\300k\260\367\270V=?S\004"
 417      C6F2B373 
 417      60C06BB0 
 417      F7B8563D 
 417      3F5304
 418 121f 1E67FB2F 		.ascii	"\036g\373/\245;h\340\311\007]\352*J\333\376\030{\231"
 418      A53B68E0 
 418      C9075DEA 
 418      2A4ADBFE 
 418      187B99
 419 1232 034A9EBB 		.ascii	"\003J\236\273*Q\317\352N\361a\367\0144}R-\354\236R\204"
 419      2A51CFEA 
 419      4EF161F7 
 419      0C347D52 
 419      2DEC9E52 
 420 1247 DD936A61 		.ascii	"\335\223jaW\361\333\325S,\352\236v\215\272\230s\365"
 420      57F1DBD5 
 420      532CEA9E 
 420      768DBA98 
 420      73F5
 421 1259 272C663F 		.ascii	"',f?c\200\262q\371u\326I\255\234\337\025\247H\033H\036"
 421      6380B271 
 421      F975D649 
 421      AD9CDF15 
 421      A7481B48 
 422 126e 7026543B 		.ascii	"p&T;\342\372kCE?\316*\372\201Z{Q+m\361\205\253V)\201"
 422      E2FA6B43 
 422      453FCE2A 
 422      FA815A7B 
 422      512B6DF1 
 423 1287 4F617922 		.ascii	"Oay\"\350\342\363DNG!\257\243\030t\024\250\371\252P"
 423      E8E2F344 
 423      4E4721AF 
 423      A3187414 
 423      A8F9AA50 
 424 129b E1AB82DF 		.ascii	"\341\253\202\337\351\253B\346\253\"\205\257\336i\034"
 424      E9AB42E6 
 424      AB2285AF 
 424      DE691C
 425 12aa CE1A44B3 		.ascii	"\316\032D\263\351\264\231\226\315.\340\314\356n\370"
 425      E9B49996 
 425      CD2EE0CC 
 425      EE6EF8
 426 12b9 98324AC1 		.ascii	"\2302J\301E32\203\366b\276\331\304\315\326\377a6\335"
 426      45333283 
ARM GAS  C:\Users\info\AppData\Local\Temp\ccMAKrl2.s 			page 34


 426      F662BED9 
 426      C4CDD6FF 
 426      6136DD
 427 12cc 49916653 		.ascii	"I\221fS\031\350~\357\272\304\3064j\243\240\360\320\005"
 427      19E87EEF 
 427      BAC4C634 
 427      6AA3A0F0 
 427      D005
 428 12de 8587D0D8 		.ascii	"\205\207\320\330\011\354\016m\362\203kw0\327\350N\361"
 428      09EC0E6D 
 428      F2836B77 
 428      30D7E84E 
 428      F1
 429 12ef 96720D50 		.ascii	"\226r\015P'J\351\237\363\341\205kn\337\216c6\243\226"
 429      274AE99F 
 429      F3E1856B 
 429      6EDF8E63 
 429      36A396
 430 1302 DB7726B0 		.ascii	"\333w&\260\334\236\356\357\357\344\334~\206\345\366"
 430      DC9EEEEF 
 430      EFE4DC7E 
 430      86E5F6
 431 1311 C8A86C5B 		.ascii	"\310\250l[J\0314M\271#[\263\203YC\177\364v&\261C\243"
 431      4A19344D 
 431      B9235BB3 
 431      8359437F 
 431      F47626B1 
 432 1327 758CC90B 		.ascii	"u\214\311\013\374U\345\251\274S\345\302\262\371\006"
 432      FC55E5A9 
 432      BC53E5C2 
 432      B2F906
 433 1336 F3321BCC 		.ascii	"\3632\033\314J6\230@\316>\234Q\352\371\275,q\250@\034"
 433      4A369840 
 433      CE3E9C51 
 433      EAF9BD2C 
 433      71A8401C 
 434 134a EA2CFAB7 		.ascii	"\352,\372\267\221\"Q\334\0017j)O8%\377\010\024.\331"
 434      912251DC 
 434      01376A29 
 434      4F3825FF 
 434      08142ED9 
 435 135e 6C147A05 		.ascii	"l\024z\0057\241J\373=\270\265\362Vm\276\206\234\365"
 435      37A14AFB 
 435      3DB8B5F2 
 435      566DBE86 
 435      9CF5
 436 1370 C3B72423 		.ascii	"\303\267$#=\361\036\320NV\201X\335S\007\201d\213(\376"
 436      3DF11ED0 
 436      4E568158 
 436      DD530781 
 436      648B28FE 
 437 1384 88FDC2B6 		.ascii	"\210\375\302\266Z\353l\004.\345F\256\260FN\245&\304"
 437      5AEB6C04 
 437      2EE546AE 
 437      B0464EA5 
 437      26C4
 438 1396 1B490536 		.ascii	"\033I\0056\222]=rV`\335\241'0|c\363t\307\321r\371\207"
ARM GAS  C:\Users\info\AppData\Local\Temp\ccMAKrl2.s 			page 35


 438      925D3D72 
 438      5660DDA1 
 438      27307C63 
 438      F374C7D1 
 439 13ad A357B5AC 		.ascii	"\243W\265\254\260\241\271pZp\026^\303\302\273\015\331"
 439      B0A1B970 
 439      5A70165E 
 439      C3C2BB0D 
 439      D9
 440 13be C3DE4E67 		.ascii	"\303\336Ng\324ba\355\364\343\303\372e\363&_\327\231"
 440      D46261ED 
 440      F4E3C3FA 
 440      65F3265F 
 440      D799
 441 13d0 37EA1CDE 		.ascii	"7\352\034\336\270R$\256\240\316`?\366\373\321\271\023"
 441      B85224AE 
 441      A0CE603F 
 441      F6FBD1B9 
 441      13
 442 13e1 D7778947 		.ascii	"\327w\211G5\214%\324\310\335\250\321\342\377\005#\324"
 442      358C25D4 
 442      C8DDA8D1 
 442      E2FF0523 
 442      D4
 443 13f2 B32EBCEB 		.ascii	"\263.\274\353,\211\327\220\233~\363\276t\332~\273h\314"
 443      2C89D790 
 443      9B7EF3BE 
 443      74DA7EBB 
 443      68CC
 444 1404 D369D84D 		.ascii	"\323i\330M4\254\275ex\304}\336Q\272\305\354jp\330uo"
 444      34ACBD65 
 444      78C47DDE 
 444      51BAC5EC 
 444      6A70D875 
 445 1419 F6D81B0F 		.ascii	"\366\330\033\0174\254z*wm\232X\243\245\024\341\206l"
 445      34AC7A2A 
 445      776D9A58 
 445      A3A514E1 
 445      866C
 446 142b D40D8751 		.ascii	"\324\015\207Q\215\314\250\346\273[\263\274\310\020\032"
 446      8DCCA8E6 
 446      BB5BB3BC 
 446      C8101A
 447 143a 35713CA6 		.ascii	"5q<\246\332]\313\2059j\324\376\266g\206e\363>Iha\006"
 447      DA5DCB85 
 447      396AD4FE 
 447      B6678665 
 447      F33E4968 
 448 1450 343B0C78 		.ascii	"4;\014xw\267\263L#\031\220\226\363\367\311\261Y_Q\212"
 448      77B7B34C 
 448      23199096 
 448      F3F7C9B1 
 448      595F518A 
 449 1464 D0241BD0 		.ascii	"\320$\033\320\3440\240\225\031\2200\220Z\340I\306\320"
 449      E430A095 
 449      19903090 
 449      5AE049C6 
ARM GAS  C:\Users\info\AppData\Local\Temp\ccMAKrl2.s 			page 36


 449      D0
 450 1475 8099A986 		.ascii	"\200\231\251\206Qw\351\366\0039h?\215\207m\362\355m"
 450      5177E9F6 
 450      0339683F 
 450      8D876DF2 
 450      ED6D
 451 1487 8EDBDBD9 		.ascii	"\216\333\333\331\355Y\017&\256\023\3761\353-E\320\352"
 451      ED590F26 
 451      AE13FE31 
 451      EB2D45D0 
 451      EA
 452 1498 C0BD8E7E 		.ascii	"\300\275\216~\323\267zOb\023u<\371\272\202\334)\221"
 452      D3B77A4F 
 452      6213753C 
 452      F9BA82DC 
 452      2991
 453 14aa 3B1979FB 		.ascii	";\031y\373\315=\355\012\362e\005\271K\"w1\362\355\252"
 453      CD3DED0A 
 453      F26505B9 
 453      4B227731 
 453      F2EDAA
 454 14bd DC1D8AA7 		.ascii	"\334\035\212\247\275-\012r\267D\246\337\306\250u!\237"
 454      BD2D0A72 
 454      B744A6DF 
 454      C6A87521 
 454      9F
 455 14ce 997E6C35 		.ascii	"\231~l5o\372YD\210\356\247\277\370f\305\337\255]\353"
 455      6FFA5944 
 455      88EEA7BF 
 455      F866C5DF 
 455      AD5DEB
 456 14e1 E61D6A33 		.ascii	"\346\035j3Y-APj2\207\205y\231LQ\241\341\366u&\373\026"
 456      592D4150 
 456      6A328785 
 456      79994C51 
 456      A1E1F675 
 457 14f8 21F0AFD7 		.ascii	"!\360\257\327GZ#B\254\346\215+\202C\303,\266\025\376"
 457      475A2342 
 457      ACE68D2B 
 457      8243C32C 
 457      B615FE
 458 150b D1EBBEF8 		.ascii	"\321\353\276\370\263\365\201\233#\255\026\233m}\244"
 458      B3F5819B 
 458      23AD169B 
 458      6D7DA4
 459 151a 2D227045 		.ascii	"-\"pE\240\325b\266GX\327\377`\365g\312\202\320\215\221"
 459      A0D562B6 
 459      4758D7FF 
 459      60F567CA 
 459      82D08D91 
 460 152e 1156FBFA 		.ascii	"\021V\373\372\220\360\250\365f\353\306\365\177\261\372"
 460      90F0A8F5 
 460      66EBC6F5 
 460      7FB1FA
 461 153d 07ABD7D2 		.ascii	"\007\253\327\322\253\357\207G\204[\276o1\007\204\256"
 461      ABEF8747 
 461      845BBE6F 
ARM GAS  C:\Users\info\AppData\Local\Temp\ccMAKrl2.s 			page 37


 461      310784AE 
 462 154d 0F0D0F0C 		.ascii	"\017\015\017\014\213\012\262\254\337h\016\334\020\032"
 462      8B0AB2AC 
 462      DF680EDC 
 462      101A
 463 155b 6E596F0A 		.ascii	"nYo\012\262\004\233\243\302\354&\373\346H\213m\365\006"
 463      B2049BA3 
 463      C2EC26FB 
 463      E6488B6D 
 463      F506
 464 156d 374FC994 		.ascii	"7O\311\224o\377\257,\261m\266\2557\331\354A\240\026"
 464      6FFFAF2C 
 464      B16DB6AD 
 464      37D9EC41 
 464      A016
 465 157f D4FBC89E 		.ascii	"\324\373\310\236\011\003\373\014\334\265.0\312j\213"
 465      0903FB0C 
 465      DCB52E30 
 465      CA6A8B
 466 158e B09A363B 		.ascii	"\260\2326;.\242\375h\261i\203%4d\203\335\024\021\034"
 466      2EA2FD68 
 466      B1698325 
 466      346483DD 
 466      14111C
 467 15a1 6CB3D875 		.ascii	"l\263\330u&\023\332\357\201_\313\225\355\231\202\341"
 467      2613DAEF 
 467      815FCB95 
 467      ED9982E1 
 468 15b1 3E0BF4DD 		.ascii	">\013\364\335\024\270\301l\365\266\201\275\226pS@Tp"
 468      14B8C16C 
 468      F5B681BD 
 468      96705340 
 468      5470
 469 15c3 B0C5AA09 		.ascii	"\260\305\252\011\014\320E\255\013\213\0101\005\006x"
 469      0CD045AD 
 469      0B8B0831 
 469      050678
 470 15d2 60A3EE9B 		.ascii	"`\243\356\233B\203\354\033t\346\250hS\220\331n6b\265"
 470      4283EC1B 
 470      74E6A868 
 470      5390D96E 
 470      3662B5
 471 15e5 CD6E8D0A 		.ascii	"\315n\215\012\264\177O1\206p\371\037Q\241\200\231\206"
 471      B47F4F31 
 471      8670F91F 
 471      51A18099 
 471      86
 472 15f6 704BB4DD 		.ascii	"pK\264\335\024\036\346\211|\373\342\325\253\327\263"
 472      141EE689 
 472      7CFBE2D5 
 472      ABD7B3
 473 1605 791068B3 		.ascii	"y\020h\263\006\302U\364:\350\251\201\225Po\317%\204"
 473      06C255F4 
 473      3AE8A981 
 473      95506FCF 
 473      2584
 474 1617 7C06043D 		.ascii	"|\006\004=k;0\",\302\272( \324\276\321\034i\262[\315"
ARM GAS  C:\Users\info\AppData\Local\Temp\ccMAKrl2.s 			page 38


 474      6B3B3022 
 474      2CC2BA28 
 474      20D4BED1 
 474      1C69B25B 
 475 162c E1B648B3 		.ascii	"\341\266H\263\325\022\036\270\331'$ls\344\006S\264\324"
 475      D5121EB8 
 475      D927246C 
 475      73E40653 
 475      B4D4
 476 163e F105C111 		.ascii	"\361\005\301\021\320\222\325\022\014#j\013\264\204\333"
 476      D092D512 
 476      0C236A0B 
 476      B484DB
 477 164d 7D9D0566 		.ascii	"}\235\005f\206\221 9kcD\220e\005t \322\034b1\005\206"
 477      86912039 
 477      6B634490 
 477      65057420 
 477      D21C6231 
 478 1663 85469A36 		.ascii	"\205F\2326\205\206\007El\242\316\263Xm\226@{hD\270\027"
 478      85860745 
 478      6CA2CEB3 
 478      586D9640 
 478      7B6844B8 
 479 1678 BB23343C 		.ascii	"\273#4<8b\241\315n\266\332M\221\0216SX\304&\213\325"
 479      3862A1CD 
 479      6EB6DA4D 
 479      91113653 
 479      58C4268B 
 480 168d 64D6E39C 		.ascii	"d\326\343\234]\373\205\311\256s\\p\254\250\310H`}i\224"
 480      5DFB85C9 
 480      AE735C70 
 480      ACA8C848 
 480      607D6994 
 481 16a1 6C013D56 		.ascii	"l\001=V\263\301,_{9*BtR\351\227\272\315\216!tt\311w"
 481      B3C12C5F 
 481      7B392A42 
 481      7452E997 
 481      BACD8E21 
 482 16b9 A3399A8D 		.ascii	"\2439\232\215\223d\265\217\023\263aY\000N\201\036\200"
 482      9364B58F 
 482      13B36159 
 482      004E811E 
 482      80
 483 16ca 9E204B98 		.ascii	"\236 K\230\335l\212\366u\0260\322f\027\034\275X\211"
 483      DD6C8AF6 
 483      751630D2 
 483      66171CBD 
 483      5889
 484 16dc B1D145CA 		.ascii	"\261\321E\312B\326\262\336Y\266V\276\\\243\013\010\210"
 484      42D6B2DE 
 484      59B656BE 
 484      5CA30B08 
 484      88
 485 16ed 668EF342 		.ascii	"f\216\363B\317\007\206\333\027\232\330\2509\375\244"
 485      CF0786DB 
 485      179AD8A8 
 485      39FDA4
ARM GAS  C:\Users\info\AppData\Local\Temp\ccMAKrl2.s 			page 39


 486 16fc F4417868 		.ascii	"\364Axh \260\027\270R\014\354:\310B+u\001!8\302\272"
 486      20B017B8 
 486      520CEC3A 
 486      C8422B75 
 486      012138C2 
 487 1711 60E9822E 		.ascii	"`\351\202.\000y\230\355>\3103\201\031\264Q#\252F\323"
 487      007998ED 
 487      3EC83381 
 487      19B45123 
 487      AA46D3
 488 1724 0D0898C9 		.ascii	"\015\010\230\311\302f!Z\007\252C,vX \322E\264^\272;"
 488      C266215A 
 488      07AA432C 
 488      765820D2 
 488      45B45EBA 
 489 1739 D26E5DC4 		.ascii	"\322n]\304\231*\225\332IP\250\325on\261\017C\201\346"
 489      992A95DA 
 489      4950A8D5 
 489      6F6EB10F 
 489      4381E6
 490 174c B040D3B7 		.ascii	"\260@\323\2670\177\376Hf8\313L\301\341\320\246\226\026"
 490      307FFE48 
 490      6638CB4C 
 490      C1E1D0A6 
 490      9616
 491 175e 7AB2E9B3 		.ascii	"z\262\351\263y\255\364\275\006\277\243%\034\275\306"
 491      79ADF4BD 
 491      06BFA325 
 491      1CBDC6
 492 176d 33CA06DE 		.ascii	"3\312\006\336\203z\374\226p\264\204\243\327x\300\352"
 492      837AFC96 
 492      70B484A3 
 492      D778C0EA 
 493 177d 836AFC5A 		.ascii	"\203j\374Z\343\023\031\032m\0113\301\012\267\232\254"
 493      E313191A 
 493      6D0933C1 
 493      0AB79AAC 
 494 178d 119B1620 		.ascii	"\021\233\026 \244u\330g_\271\200\365\333\333\016\261"
 494      A475D867 
 494      5FB980F5 
 494      DBDB0EB1 
 495 179d C949F765 		.ascii	"\311I\367eHf\033\235\030\254\365\215\212\204El\3019"
 495      48661B9D 
 495      18ACF58D 
 495      8A84456C 
 495      C139
 496 17af 0FD37D29 		.ascii	"\017\323}).@e!\254\375\005RQP\350FK\270\015\326\301"
 496      2E406521 
 496      ACFD0552 
 496      5150E846 
 496      4BB80DD6 
 497 17c4 329EE82C 		.ascii	"2\236\350,\005\246\017\256\331\000)\""
 497      05A60FAE 
 497      D9002922 
 498 17d0 E830CCFC 		.ascii	"\3500\314\374\325\032\034r\007\002\202\227\203h\367"
 498      D51A1C72 
 498      07028297 
ARM GAS  C:\Users\info\AppData\Local\Temp\ccMAKrl2.s 			page 40


 498      8368F7
 499 17df 8250B1E1 		.ascii	"\202P\261\341[\032\212\226p$G\031P\2644<\300\250\007"
 499      5B1A8A96 
 499      70244719 
 499      50B4343C 
 499      C0A807
 500 17f2 44448507 		.ascii	"DD\205\007Z\240eP\272\324\011\303\3146\230\007`&+\377"
 500      5AA06550 
 500      BAD409C3 
 500      CC369807 
 500      60262BFF 
 501 1806 8EB3DC11 		.ascii	"\216\263\334\021\305\235U\206\220\310\320\010X\3756"
 501      C59D5586 
 501      90C8D008 
 501      58FD36
 502 1815 28D547D9 		.ascii	"(\325G\331\203\327a14\374m(\360\315AA4\212\033B?\013"
 502      83D76131 
 502      34FC6D28 
 502      F0CD4141 
 502      348A1B42 
 503 182b 34B1196B 		.ascii	"4\261\031k\011b\327R\371b\230\204\322\214\375\226\206"
 503      0962D752 
 503      F9629884 
 503      D28CFD96 
 503      86
 504 183c 0336ED75 		.ascii	"\0036\355u\020u\" L\207x\005D\331 hD\004\376F\212\002"
 504      10752220 
 504      4C877805 
 504      44D92068 
 504      4404FE46 
 505 1852 9F7F2645 		.ascii	"\237\177&E\001z\261\220i6\207\007\321ei\336\014]2\320"
 505      017AB190 
 505      69368707 
 505      D16569DE 
 505      0C5D32D0 
 506 1866 2E9936DA 		.ascii	".\2316\332h`\365\014\330l\247\335\364\0104\007\301\227"
 506      6860F50C 
 506      D86CA7DD 
 506      F4083407 
 506      C197
 507 1878 3E28D416 		.ascii	">(\324\026\211,O\0264\003\003\214\214\315\026#\000G"
 507      892C4F16 
 507      3403038C 
 507      8CCD1623 
 507      0047
 508 188a 3D5D3A06 		.ascii	"=]:\006\034{6\356\013\203avQ\253\344\000\350\360\201"
 508      1C7B36EE 
 508      0B836176 
 508      51ABE400 
 508      E8F081
 509 189d A3C0C006 		.ascii	"\243\300\300\006\037'\202\236]\263;\027o\262\206\322"
 509      1F27829E 
 509      5DB33B17 
 509      6FB286D2 
 510 18ad 018F0AB3 		.ascii	"\001\217\012\263I%\246p\233\037\015\357&\270)\012\202"
 510      4925A670 
 510      9B1F0DEF 
ARM GAS  C:\Users\info\AppData\Local\Temp\ccMAKrl2.s 			page 41


 510      26B8290A 
 510      82
 511 18be 2C8C3014 		.ascii	",\2140\024-\246\376p\366\324\264v\315\232\337|\365["
 511      2DA6FE70 
 511      F6D4B476 
 511      CD9ADF7C 
 511      F55B
 512 18d0 9D2D3294 		.ascii	"\235-2\2249\303h\2032\254\331\360[?\012\224\015.\264"
 512      39C36883 
 512      32ACD9F0 
 512      5B3F0A94 
 512      0D2EB4
 513 18e3 05B9B4E7 		.ascii	"\005\271\264\347\007\313\227\306c(4m2\303r\336h[\214"
 513      07CB97C6 
 513      6328346D 
 513      32C372DE 
 513      685B8C
 514 18f6 88BF73A3 		.ascii	"\210\277s\243m\031\354\257\320}X;\320ws\0005\233\262"
 514      6D19ECAF 
 514      D07D583B 
 514      D0777300 
 514      359BB2
 515 1909 C3A18236 		.ascii	"\303\241\2026\300j,\341|\205\237\202\035f\371\326\022"
 515      C06A2CE1 
 515      7C859F82 
 515      1D66F9D6 
 515      12
 516 191a B690A7B1 		.ascii	"\266\220\247\261\222e\314\255\274;\245YkD\257J\321p"
 516      9265CCAD 
 516      BC3BA559 
 516      6B44AF4A 
 516      D170
 517 192c 2ECB8EC3 		.ascii	".\313\216\303\207\344E\316\031\207S\213\216\252\007"
 517      87E445CE 
 517      1987538B 
 517      8EAA07
 518 193b ABB7E37E 		.ascii	"\253\267\343~\2064?\230?\346({\204c\177\261\230\255"
 518      86343F98 
 518      3FE6287B 
 518      84637FB1 
 518      98AD
 519 194d 1EACDAFE 		.ascii	"\036\254\332\376\035\227\235\216\356\217l\277\013t\363"
 519      1D979D8E 
 519      EE8F6CBF 
 519      0B74F3
 520 195c 9691736D 		.ascii	"\226\221sm\321\304\351\2474\312}\304\340/-\366\237\300"
 520      D1C4E9A7 
 520      34CA7DC4 
 520      E02F2DF6 
 520      9FC0
 521 196e B4FC316C 		.ascii	"\264\3741l\264l\207\362f\245\277\200\211\3635(\302["
 521      B46C87F2 
 521      66A5BF80 
 521      89F33528 
 521      C25B
 522 1980 7E126AB5 		.ascii	"~\022j\2651\370\337\255\377\214\004"
 522      31F8DFAD 
ARM GAS  C:\Users\info\AppData\Local\Temp\ccMAKrl2.s 			page 42


 522      FF8C04
 523              		.text
 524              		.section	.gnu.lto_.symtab.792bf96a,"",%progbits
 525 0000 75386732 		.ascii	"u8g2_DrawLog\000"
 525      5F447261 
 525      774C6F67 
 525      00
 526 000d 00       		.ascii	"\000"
 527 000e 00       		.ascii	"\000"
 528 000f 00       		.ascii	"\000"
 529 0010 00000000 		.ascii	"\000\000\000\000\000\000\000\000"
 529      00000000 
 530 0018 3F020000 		.ascii	"?\002\000\000"
 531 001c 75386C6F 		.ascii	"u8log_u8g2_cb\000"
 531      675F7538 
 531      67325F63 
 531      6200
 532 002a 00       		.ascii	"\000"
 533 002b 00       		.ascii	"\000"
 534 002c 00       		.ascii	"\000"
 535 002d 00000000 		.ascii	"\000\000\000\000\000\000\000\000"
 535      00000000 
 536 0035 41020000 		.ascii	"A\002\000\000"
 537 0039 75386732 		.ascii	"u8g2_DrawGlyph\000"
 537      5F447261 
 537      77476C79 
 537      706800
 538 0048 00       		.ascii	"\000"
 539 0049 02       		.ascii	"\002"
 540 004a 00       		.ascii	"\000"
 541 004b 00000000 		.ascii	"\000\000\000\000\000\000\000\000"
 541      00000000 
 542 0053 48020000 		.ascii	"H\002\000\000"
 543 0057 75386732 		.ascii	"u8g2_SetFontDirection\000"
 543      5F536574 
 543      466F6E74 
 543      44697265 
 543      6374696F 
 544 006d 00       		.ascii	"\000"
 545 006e 02       		.ascii	"\002"
 546 006f 00       		.ascii	"\000"
 547 0070 00000000 		.ascii	"\000\000\000\000\000\000\000\000"
 547      00000000 
 548 0078 4D020000 		.ascii	"M\002\000\000"
 549 007c 75386732 		.ascii	"u8g2_NextPage\000"
 549      5F4E6578 
 549      74506167 
 549      6500
 550 008a 00       		.ascii	"\000"
 551 008b 02       		.ascii	"\002"
 552 008c 00       		.ascii	"\000"
 553 008d 00000000 		.ascii	"\000\000\000\000\000\000\000\000"
 553      00000000 
 554 0095 51020000 		.ascii	"Q\002\000\000"
 555 0099 75386732 		.ascii	"u8g2_FirstPage\000"
 555      5F466972 
 555      73745061 
ARM GAS  C:\Users\info\AppData\Local\Temp\ccMAKrl2.s 			page 43


 555      676500
 556 00a8 00       		.ascii	"\000"
 557 00a9 02       		.ascii	"\002"
 558 00aa 00       		.ascii	"\000"
 559 00ab 00000000 		.ascii	"\000\000\000\000\000\000\000\000"
 559      00000000 
 560 00b3 53020000 		.ascii	"S\002\000\000"
 561              		.text
 562              		.section	.gnu.lto_.opts,"",%progbits
 563 0000 272D666D 		.ascii	"'-fmath-errno' '-fsigned-zeros' '-ftrapping-math' '"
 563      6174682D 
 563      6572726E 
 563      6F272027 
 563      2D667369 
 564 0033 2D666E6F 		.ascii	"-fno-trapv' '-fno-strict-overflow' '-fno-openmp' '-"
 564      2D747261 
 564      70762720 
 564      272D666E 
 564      6F2D7374 
 565 0066 666E6F2D 		.ascii	"fno-openacc' '-mcpu=cortex-m3' '-mthumb' '-g' '-Og'"
 565      6F70656E 
 565      61636327 
 565      20272D6D 
 565      6370753D 
 566 0099 20272D66 		.ascii	" '-ffunction-sections' '-ffat-lto-objects' '-flto'\000"
 566      66756E63 
 566      74696F6E 
 566      2D736563 
 566      74696F6E 
 567              		.text
 568              		.cfi_sections	.debug_frame
 569              		.section	.text.u8g2_DrawLog,"ax",%progbits
 570              		.align	2
 571              		.global	u8g2_DrawLog
 572              		.thumb
 573              		.thumb_func
 574              		.type	u8g2_DrawLog, %function
 575              	u8g2_DrawLog:
 576              	.LFB0:
 577              		.file 1 "..\\u8g2_csrc\\u8log_u8g2.c"
   1:..\u8g2_csrc/u8log_u8g2.c **** /*
   2:..\u8g2_csrc/u8log_u8g2.c **** 
   3:..\u8g2_csrc/u8log_u8g2.c ****   u8log_u8g2.c
   4:..\u8g2_csrc/u8log_u8g2.c ****   
   5:..\u8g2_csrc/u8log_u8g2.c **** 
   6:..\u8g2_csrc/u8log_u8g2.c ****   Universal 8bit Graphics Library (https://github.com/olikraus/u8g2/)
   7:..\u8g2_csrc/u8log_u8g2.c **** 
   8:..\u8g2_csrc/u8log_u8g2.c ****   Copyright (c) 2018, olikraus@gmail.com
   9:..\u8g2_csrc/u8log_u8g2.c ****   All rights reserved.
  10:..\u8g2_csrc/u8log_u8g2.c **** 
  11:..\u8g2_csrc/u8log_u8g2.c ****   Redistribution and use in source and binary forms, with or without modification, 
  12:..\u8g2_csrc/u8log_u8g2.c ****   are permitted provided that the following conditions are met:
  13:..\u8g2_csrc/u8log_u8g2.c **** 
  14:..\u8g2_csrc/u8log_u8g2.c ****   * Redistributions of source code must retain the above copyright notice, this list 
  15:..\u8g2_csrc/u8log_u8g2.c ****     of conditions and the following disclaimer.
  16:..\u8g2_csrc/u8log_u8g2.c ****     
  17:..\u8g2_csrc/u8log_u8g2.c ****   * Redistributions in binary form must reproduce the above copyright notice, this 
ARM GAS  C:\Users\info\AppData\Local\Temp\ccMAKrl2.s 			page 44


  18:..\u8g2_csrc/u8log_u8g2.c ****     list of conditions and the following disclaimer in the documentation and/or other 
  19:..\u8g2_csrc/u8log_u8g2.c ****     materials provided with the distribution.
  20:..\u8g2_csrc/u8log_u8g2.c **** 
  21:..\u8g2_csrc/u8log_u8g2.c ****   THIS SOFTWARE IS PROVIDED BY THE COPYRIGHT HOLDERS AND 
  22:..\u8g2_csrc/u8log_u8g2.c ****   CONTRIBUTORS "AS IS" AND ANY EXPRESS OR IMPLIED WARRANTIES, 
  23:..\u8g2_csrc/u8log_u8g2.c ****   INCLUDING, BUT NOT LIMITED TO, THE IMPLIED WARRANTIES OF 
  24:..\u8g2_csrc/u8log_u8g2.c ****   MERCHANTABILITY AND FITNESS FOR A PARTICULAR PURPOSE ARE 
  25:..\u8g2_csrc/u8log_u8g2.c ****   DISCLAIMED. IN NO EVENT SHALL THE COPYRIGHT HOLDER OR 
  26:..\u8g2_csrc/u8log_u8g2.c ****   CONTRIBUTORS BE LIABLE FOR ANY DIRECT, INDIRECT, INCIDENTAL, 
  27:..\u8g2_csrc/u8log_u8g2.c ****   SPECIAL, EXEMPLARY, OR CONSEQUENTIAL DAMAGES (INCLUDING, BUT 
  28:..\u8g2_csrc/u8log_u8g2.c ****   NOT LIMITED TO, PROCUREMENT OF SUBSTITUTE GOODS OR SERVICES; 
  29:..\u8g2_csrc/u8log_u8g2.c ****   LOSS OF USE, DATA, OR PROFITS; OR BUSINESS INTERRUPTION) HOWEVER 
  30:..\u8g2_csrc/u8log_u8g2.c ****   CAUSED AND ON ANY THEORY OF LIABILITY, WHETHER IN CONTRACT, 
  31:..\u8g2_csrc/u8log_u8g2.c ****   STRICT LIABILITY, OR TORT (INCLUDING NEGLIGENCE OR OTHERWISE) 
  32:..\u8g2_csrc/u8log_u8g2.c ****   ARISING IN ANY WAY OUT OF THE USE OF THIS SOFTWARE, EVEN IF 
  33:..\u8g2_csrc/u8log_u8g2.c ****   ADVISED OF THE POSSIBILITY OF SUCH DAMAGE.  
  34:..\u8g2_csrc/u8log_u8g2.c **** 
  35:..\u8g2_csrc/u8log_u8g2.c **** */
  36:..\u8g2_csrc/u8log_u8g2.c **** 
  37:..\u8g2_csrc/u8log_u8g2.c **** #include "u8g2.h"
  38:..\u8g2_csrc/u8log_u8g2.c **** /*
  39:..\u8g2_csrc/u8log_u8g2.c ****   Draw the u8log text at the specified x/y position.
  40:..\u8g2_csrc/u8log_u8g2.c ****   x/y position is the reference position of the first char of the first line.
  41:..\u8g2_csrc/u8log_u8g2.c ****   the line height is 
  42:..\u8g2_csrc/u8log_u8g2.c ****     u8g2_GetAscent(u8g2) - u8g2_GetDescent(u8g2) + line_height_offset;
  43:..\u8g2_csrc/u8log_u8g2.c ****   line_height_offset can be set with u8log_SetLineHeightOffset()
  44:..\u8g2_csrc/u8log_u8g2.c ****   Use
  45:..\u8g2_csrc/u8log_u8g2.c ****     u8g2_SetFontRefHeightText(u8g2_t *u8g2);
  46:..\u8g2_csrc/u8log_u8g2.c ****     u8g2_SetFontRefHeightExtendedText(u8g2_t *u8g2);
  47:..\u8g2_csrc/u8log_u8g2.c ****     u8g2_SetFontRefHeightAll(u8g2_t *u8g2);
  48:..\u8g2_csrc/u8log_u8g2.c ****   to change the return values for u8g2_GetAscent and u8g2_GetDescent
  49:..\u8g2_csrc/u8log_u8g2.c **** 
  50:..\u8g2_csrc/u8log_u8g2.c **** */
  51:..\u8g2_csrc/u8log_u8g2.c **** void u8g2_DrawLog(u8g2_t *u8g2, u8g2_uint_t x, u8g2_uint_t y, u8log_t *u8log)
  52:..\u8g2_csrc/u8log_u8g2.c **** {
 578              		.loc 1 52 0
 579              		.cfi_startproc
 580              		@ args = 0, pretend = 0, frame = 0
 581              		@ frame_needed = 0, uses_anonymous_args = 0
 582              	.LVL0:
 583 0000 2DE9F047 		push	{r4, r5, r6, r7, r8, r9, r10, lr}
 584              		.cfi_def_cfa_offset 32
 585              		.cfi_offset 4, -32
 586              		.cfi_offset 5, -28
 587              		.cfi_offset 6, -24
 588              		.cfi_offset 7, -20
 589              		.cfi_offset 8, -16
 590              		.cfi_offset 9, -12
 591              		.cfi_offset 10, -8
 592              		.cfi_offset 14, -4
 593 0004 8146     		mov	r9, r0
 594 0006 8A46     		mov	r10, r1
 595 0008 1746     		mov	r7, r2
 596 000a 1E46     		mov	r6, r3
 597              	.LVL1:
  53:..\u8g2_csrc/u8log_u8g2.c ****   u8g2_uint_t disp_x, disp_y;
  54:..\u8g2_csrc/u8log_u8g2.c ****   uint8_t buf_x, buf_y;
ARM GAS  C:\Users\info\AppData\Local\Temp\ccMAKrl2.s 			page 45


  55:..\u8g2_csrc/u8log_u8g2.c ****   uint8_t c;
  56:..\u8g2_csrc/u8log_u8g2.c ****   
  57:..\u8g2_csrc/u8log_u8g2.c ****   disp_y = y;  
  58:..\u8g2_csrc/u8log_u8g2.c ****   u8g2_SetFontDirection(u8g2, 0);
 598              		.loc 1 58 0
 599 000c 0021     		movs	r1, #0
 600              	.LVL2:
 601 000e FFF7FEFF 		bl	u8g2_SetFontDirection
 602              	.LVL3:
  59:..\u8g2_csrc/u8log_u8g2.c ****   for( buf_y = 0; buf_y < u8log->height; buf_y++ )
 603              		.loc 1 59 0
 604 0012 4FF00008 		mov	r8, #0
 605 0016 21E0     		b	.L2
 606              	.LVL4:
 607              	.L3:
  60:..\u8g2_csrc/u8log_u8g2.c ****   {
  61:..\u8g2_csrc/u8log_u8g2.c ****     disp_x = x;
  62:..\u8g2_csrc/u8log_u8g2.c ****     for( buf_x = 0; buf_x < u8log->width; buf_x++ )
  63:..\u8g2_csrc/u8log_u8g2.c ****     {
  64:..\u8g2_csrc/u8log_u8g2.c ****       c = u8log->screen_buffer[buf_y * u8log->width + buf_x];
 608              		.loc 1 64 0 discriminator 3
 609 0018 F268     		ldr	r2, [r6, #12]
 610 001a 03FB0843 		mla	r3, r3, r8, r4
 611              	.LVL5:
  65:..\u8g2_csrc/u8log_u8g2.c ****       disp_x += u8g2_DrawGlyph(u8g2, disp_x, disp_y, c);
 612              		.loc 1 65 0 discriminator 3
 613 001e D35C     		ldrb	r3, [r2, r3]	@ zero_extendqisi2
 614              	.LVL6:
 615 0020 3A46     		mov	r2, r7
 616              	.LVL7:
 617 0022 2946     		mov	r1, r5
 618 0024 4846     		mov	r0, r9
 619 0026 FFF7FEFF 		bl	u8g2_DrawGlyph
 620              	.LVL8:
 621 002a 2844     		add	r0, r0, r5
 622 002c C5B2     		uxtb	r5, r0
 623              	.LVL9:
  62:..\u8g2_csrc/u8log_u8g2.c ****     {
 624              		.loc 1 62 0 discriminator 3
 625 002e 0134     		adds	r4, r4, #1
 626              	.LVL10:
 627 0030 E4B2     		uxtb	r4, r4
 628              	.LVL11:
 629 0032 01E0     		b	.L4
 630              	.LVL12:
 631              	.L5:
 632 0034 5546     		mov	r5, r10
 633 0036 0024     		movs	r4, #0
 634              	.L4:
 635              	.LVL13:
  62:..\u8g2_csrc/u8log_u8g2.c ****     {
 636              		.loc 1 62 0 is_stmt 0 discriminator 1
 637 0038 3379     		ldrb	r3, [r6, #4]	@ zero_extendqisi2
 638 003a 9C42     		cmp	r4, r3
 639 003c ECD3     		bcc	.L3
  66:..\u8g2_csrc/u8log_u8g2.c ****     }
  67:..\u8g2_csrc/u8log_u8g2.c ****     disp_y += u8g2_GetAscent(u8g2) - u8g2_GetDescent(u8g2);
ARM GAS  C:\Users\info\AppData\Local\Temp\ccMAKrl2.s 			page 46


 640              		.loc 1 67 0 is_stmt 1 discriminator 2
 641 003e 99F98230 		ldrsb	r3, [r9, #130]
 642 0042 99F98320 		ldrsb	r2, [r9, #131]
 643 0046 9B1A     		subs	r3, r3, r2
 644 0048 1F44     		add	r7, r7, r3
 645              	.LVL14:
 646 004a FFB2     		uxtb	r7, r7
 647              	.LVL15:
  68:..\u8g2_csrc/u8log_u8g2.c ****     disp_y += u8log->line_height_offset;
 648              		.loc 1 68 0 discriminator 2
 649 004c 96F91130 		ldrsb	r3, [r6, #17]
 650 0050 1F44     		add	r7, r7, r3
 651              	.LVL16:
 652 0052 FFB2     		uxtb	r7, r7
 653              	.LVL17:
  59:..\u8g2_csrc/u8log_u8g2.c ****   {
 654              		.loc 1 59 0 discriminator 2
 655 0054 08F10108 		add	r8, r8, #1
 656              	.LVL18:
 657 0058 5FFA88F8 		uxtb	r8, r8
 658              	.LVL19:
 659              	.L2:
  59:..\u8g2_csrc/u8log_u8g2.c ****   {
 660              		.loc 1 59 0 is_stmt 0 discriminator 1
 661 005c 7379     		ldrb	r3, [r6, #5]	@ zero_extendqisi2
 662 005e 9845     		cmp	r8, r3
 663 0060 E8D3     		bcc	.L5
  69:..\u8g2_csrc/u8log_u8g2.c ****   }
  70:..\u8g2_csrc/u8log_u8g2.c **** }
 664              		.loc 1 70 0 is_stmt 1
 665 0062 BDE8F087 		pop	{r4, r5, r6, r7, r8, r9, r10, pc}
 666              		.cfi_endproc
 667              	.LFE0:
 668              		.size	u8g2_DrawLog, .-u8g2_DrawLog
 669 0066 00BF     		.section	.text.u8log_u8g2_cb,"ax",%progbits
 670              		.align	2
 671              		.global	u8log_u8g2_cb
 672              		.thumb
 673              		.thumb_func
 674              		.type	u8log_u8g2_cb, %function
 675              	u8log_u8g2_cb:
 676              	.LFB1:
  71:..\u8g2_csrc/u8log_u8g2.c **** 
  72:..\u8g2_csrc/u8log_u8g2.c **** /*
  73:..\u8g2_csrc/u8log_u8g2.c ****   u8lib callback for u8g2
  74:..\u8g2_csrc/u8log_u8g2.c ****   
  75:..\u8g2_csrc/u8log_u8g2.c ****   Only font direction 0 is supported: u8g2_SetFontDirection(u8g2, 0)
  76:..\u8g2_csrc/u8log_u8g2.c ****   Use
  77:..\u8g2_csrc/u8log_u8g2.c ****     u8g2_SetFontRefHeightText(u8g2_t *u8g2);
  78:..\u8g2_csrc/u8log_u8g2.c ****     u8g2_SetFontRefHeightExtendedText(u8g2_t *u8g2);
  79:..\u8g2_csrc/u8log_u8g2.c ****     u8g2_SetFontRefHeightAll(u8g2_t *u8g2);
  80:..\u8g2_csrc/u8log_u8g2.c ****   to change the top offset and the line height and
  81:..\u8g2_csrc/u8log_u8g2.c ****     u8log_SetLineHeightOffset(u8log_t *u8log, int8_t line_height_offset)
  82:..\u8g2_csrc/u8log_u8g2.c ****   to change the line height.
  83:..\u8g2_csrc/u8log_u8g2.c ****   
  84:..\u8g2_csrc/u8log_u8g2.c **** */
  85:..\u8g2_csrc/u8log_u8g2.c **** void u8log_u8g2_cb(u8log_t * u8log)
ARM GAS  C:\Users\info\AppData\Local\Temp\ccMAKrl2.s 			page 47


  86:..\u8g2_csrc/u8log_u8g2.c **** {
 677              		.loc 1 86 0
 678              		.cfi_startproc
 679              		@ args = 0, pretend = 0, frame = 0
 680              		@ frame_needed = 0, uses_anonymous_args = 0
 681              	.LVL20:
 682 0000 38B5     		push	{r3, r4, r5, lr}
 683              		.cfi_def_cfa_offset 16
 684              		.cfi_offset 3, -16
 685              		.cfi_offset 4, -12
 686              		.cfi_offset 5, -8
 687              		.cfi_offset 14, -4
  87:..\u8g2_csrc/u8log_u8g2.c ****   u8g2_t *u8g2 = (u8g2_t *)(u8log->aux_data);
 688              		.loc 1 87 0
 689 0002 0468     		ldr	r4, [r0]
 690              	.LVL21:
  88:..\u8g2_csrc/u8log_u8g2.c ****   if ( u8log->is_redraw_line || u8log->is_redraw_all )
 691              		.loc 1 88 0
 692 0004 4369     		ldr	r3, [r0, #20]
 693 0006 23F07F43 		bic	r3, r3, #-16777216
 694 000a 23F0FF03 		bic	r3, r3, #255
 695 000e 7BB1     		cbz	r3, .L7
 696 0010 0546     		mov	r5, r0
  89:..\u8g2_csrc/u8log_u8g2.c ****   {
  90:..\u8g2_csrc/u8log_u8g2.c ****     u8g2_FirstPage(u8g2);
 697              		.loc 1 90 0
 698 0012 2046     		mov	r0, r4
 699              	.LVL22:
 700 0014 FFF7FEFF 		bl	u8g2_FirstPage
 701              	.LVL23:
 702              	.L9:
  91:..\u8g2_csrc/u8log_u8g2.c ****     do
  92:..\u8g2_csrc/u8log_u8g2.c ****     {
  93:..\u8g2_csrc/u8log_u8g2.c ****       u8g2_DrawLog( u8g2, 0, u8g2_GetAscent(u8g2), u8log);
 703              		.loc 1 93 0 discriminator 1
 704 0018 2B46     		mov	r3, r5
 705 001a 94F88220 		ldrb	r2, [r4, #130]	@ zero_extendqisi2
 706 001e 0021     		movs	r1, #0
 707 0020 2046     		mov	r0, r4
 708 0022 FFF7FEFF 		bl	u8g2_DrawLog
 709              	.LVL24:
  94:..\u8g2_csrc/u8log_u8g2.c ****     }
  95:..\u8g2_csrc/u8log_u8g2.c ****     while( u8g2_NextPage(u8g2) );
 710              		.loc 1 95 0 discriminator 1
 711 0026 2046     		mov	r0, r4
 712 0028 FFF7FEFF 		bl	u8g2_NextPage
 713              	.LVL25:
 714 002c 0028     		cmp	r0, #0
 715 002e F3D1     		bne	.L9
 716              	.LVL26:
 717              	.L7:
 718 0030 38BD     		pop	{r3, r4, r5, pc}
 719              		.cfi_endproc
 720              	.LFE1:
 721              		.size	u8log_u8g2_cb, .-u8log_u8g2_cb
 722 0032 00BF     		.text
 723              	.Letext0:
ARM GAS  C:\Users\info\AppData\Local\Temp\ccMAKrl2.s 			page 48


 724              		.file 2 "c:\\program files (x86)\\cypress\\psoc creator\\4.2\\psoc creator\\import\\gnu\\arm\\5.4.
 725              		.file 3 "c:\\program files (x86)\\cypress\\psoc creator\\4.2\\psoc creator\\import\\gnu\\arm\\5.4.
 726              		.file 4 "..\\u8g2_csrc\\u8x8.h"
 727              		.file 5 "..\\u8g2_csrc\\u8g2.h"