ARM GAS  C:\Users\info\AppData\Local\Temp\cc0ZAZ8c.s 			page 1


   1              		.syntax unified
   2              		.cpu cortex-m3
   3              		.fpu softvfp
   4              		.eabi_attribute 20, 1
   5              		.eabi_attribute 21, 1
   6              		.eabi_attribute 23, 3
   7              		.eabi_attribute 24, 1
   8              		.eabi_attribute 25, 1
   9              		.eabi_attribute 26, 1
  10              		.eabi_attribute 30, 1
  11              		.eabi_attribute 34, 1
  12              		.eabi_attribute 18, 4
  13              		.thumb
  14              		.syntax unified
  15              		.file	"u8log_u8x8.c"
  16              		.text
  17              	.Ltext0:
  18              		.section	.gnu.lto_.profile.792a3cb3,"",%progbits
  19 0000 789C6361 		.ascii	"x\234ca`d`a`\000\222\341\006\000\001H\000\222"
  19      60646061 
  19      600092E1 
  19      06000148 
  19      0092
  20              		.text
  21              		.section	.gnu.lto_.inline.792a3cb3,"",%progbits
  22 0000 789C6361 		.ascii	"x\234ca`d\000\201R\006\004`f`\020\372\001\024f\022\372"
  22      60640081 
  22      52060460 
  22      666010FA 
  22      01146612 
  23 0015 B6859B81 		.ascii	"\266\205\233\201\243\355(#\023H\230\225\217\221\201"
  23      A3ED2823 
  23      13489895 
  23      8F9181
  24 0024 E52EFB04 		.ascii	"\345.\373\004?\020fd\340;\317\310\310\300\304\371\377"
  24      3F106664 
  24      E03BCFC8 
  24      C8C0C4F9 
  24      FF
  25 0035 2D2B037B 		.ascii	"-+\003{{\031X\005\033?#\003\353]v\220<H\025\023\203"
  25      7B195805 
  25      1B3F2303 
  25      EB5D7690 
  25      3C481513 
  26 004a 98005009 		.ascii	"\230\000P\011\317\334\000\006\256\275\346P\025@s&\370"
  26      CFDC0006 
  26      AEBDE650 
  26      15407326 
  26      F8
  27 005b 3180144C 		.ascii	"1\200\024L\360c\345c``\001\362\200\\\006\000\300l\030"
  27      F063E563 
  27      606001F2 
  27      805C0600 
  27      C06C18
  28 006e 32       		.ascii	"2"
  29              		.text
  30              		.section	.gnu.lto_.jmpfuncs.792a3cb3,"",%progbits
ARM GAS  C:\Users\info\AppData\Local\Temp\cc0ZAZ8c.s 			page 2


  31 0000 789C6361 		.ascii	"x\234ca`d\000\001~\006\004`\006\021 a&0\027\000\002"
  31      60640001 
  31      7E060460 
  31      06112061 
  31      26301700 
  32 0015 A8001B   		.ascii	"\250\000\033"
  33              		.text
  34              		.section	.gnu.lto_.pureconst.792a3cb3,"",%progbits
  35 0000 789C6361 		.ascii	"x\234ca`d`g```f\260d\264d\222\004\000\002\243\000\236"
  35      60646067 
  35      60606066 
  35      B064B464 
  35      92040002 
  36              		.text
  37              		.section	.gnu.lto_u8x8_DrawLogLine.792a3cb3,"",%progbits
  38 0000 789C8D54 		.ascii	"x\234\215T_H\236U\030?\277\363\274\177\276\377\272\015"
  38      5F489E55 
  38      183FBFF3 
  38      BC7FBEFF 
  38      BA0D
  39 0012 0DC24862 		.ascii	"\015\302Hb\"^\244\262 \274\030\021t\321}\327\015!\253"
  39      225EA4B2 
  39      20BC1811 
  39      74D17DD7 
  39      0D21AB
  40 0025 11148D86 		.ascii	"\021\024\215\206\340\350\302\243\357\367\345\250]\254"
  40      E0E8C2A3 
  40      EFF7E5A8 
  40      5DAC
  41 0033 7F46E2B2 		.ascii	"\177F\342\262\030\342\2546gss\237\325|\365B\301MG\340"
  41      18E2AC36 
  41      6773739F 
  41      D57CF542 
  41      C14D47E0 
  42 0047 C66206CD 		.ascii	"\306b\006\315m2\302\215}\322\012\202\315\236\347\234"
  42      6D32C28D 
  42      7DD20A82 
  42      CD9EE79C 
  43 0057 EF03D776 		.ascii	"\357\003\327v\321\201\3679\347y\316\357\367\234\347"
  43      D181F739 
  43      E779CEEF 
  43      F79CE7
  44 0066 1FAFA7A0 		.ascii	"\037\257\247\240d=\355+\365\022\357/\363\207@A\037^"
  44      643DED2B 
  44      F512EF2F 
  44      F3874041 
  44      1F5E
  45 0078 52AA27A1 		.ascii	"R\252'\241\341\271\003\271\303L\302\323th^)\223\362"
  45      E1B903B9 
  45      C34CC2D3 
  45      74685E29 
  45      93F2
  46 008a F3A13219 		.ascii	"\363\2412\031\037\020\273I@uk\362|tkO\271uO\337\327"
  46      1F10BB49 
  46      40756BF2 
  46      7C746B4F 
  46      B9754FDF 
ARM GAS  C:\Users\info\AppData\Local\Temp\cc0ZAZ8c.s 			page 3


  47 009f 98ED5B2B 		.ascii	"\230\355[+\352\246\021\303\353\367\302\345\2349\026"
  47      EAA611C3 
  47      EBF7C2E5 
  47      9C3916
  48 00ae A3404A6D 		.ascii	"\243@Jmj\207\301\010\232\030\365K\376\344 \375\251\013"
  48      6A87C108 
  48      9A18F54B 
  48      FEE420FD 
  48      A90B
  49 00c0 0478AC96 		.ascii	"\004x\254\226\026\007\256\347D\325\250g\365\353\345"
  49      1607AEE7 
  49      44D5A867 
  49      F5EBE5
  50 00cf A32B013D 		.ascii	"\243+\001=\005\305\347\376\205\345;\331\306acz\2159"
  50      05C5E7FE 
  50      85E53BD9 
  50      C661637A 
  50      8D39
  51 00e1 F2864916 		.ascii	"\362\206I\026\210\360-\210\375a\024u8\206:\305&\205"
  51      88F02D88 
  51      FD611475 
  51      38863AC5 
  51      2685
  52 00f3 EFD0C8E8 		.ascii	"\357\320\310\350\301\221+\027\223\364\214e\216.\034"
  52      C1912B17 
  52      93F48C65 
  52      8E2E1C
  53 0102 5FD465E6 		.ascii	"_\324e\346\257{\014\025\310\303\367\216\371\\\035Z\205"
  53      AF7B0C15 
  53      C8C3F78E 
  53      F95C1D5A 
  53      85
  54 0113 E7291CB7 		.ascii	"\347)\034\267\274\337\326\357\304>5Y\336\364G\313c\025"
  54      BCDFD6EF 
  54      C43E3559 
  54      DEF447CB 
  54      6315
  55 0125 DE977369 		.ascii	"\336\227si\323*\304\023\217\020\307,q\245\370\351\200"
  55      D32AC413 
  55      8F10C72C 
  55      71A5F8E9 
  55      80
  56 0136 A6564BDC 		.ascii	"\246VK\334\270\026}\225\256<X!\236|\2048n\211fq\341"
  56      B8167D95 
  56      AE3C5821 
  56      9E7C8438 
  56      6E896671 
  57 014b 6A869EB7 		.ascii	"j\206\236\267\304\277\356\315L$*/\316g\314a.\231\217"
  57      C4BFEECD 
  57      4C242A2F 
  57      CE67CC61 
  57      2E998F
  58 015e 1FFE9BA5 		.ascii	"\037\376\233\245\257p\012\215BX\032\031\376,E\273-y"
  58      AF700A8D 
  58      42581A19 
  58      FE2C45BB 
  58      2D79
ARM GAS  C:\Users\info\AppData\Local\Temp\cc0ZAZ8c.s 			page 4


  59 0170 A87FEA4A 		.ascii	"\250\177\352J\262\341\250\220\343\311w\2760qO\275\274"
  59      B2E1A890 
  59      E3C977BE 
  59      30714FBD 
  59      BC
  60 0181 3BB1F55D 		.ascii	";\261\365]Y\014\375\344\354\345\331$\275`i\227Js\245"
  60      590CFDE4 
  60      ECE5D924 
  60      BD606997 
  60      4A73A5
  61 0194 749936B1 		.ascii	"t\2316\261\307D/\012\351\314cH\253\343\017>\317\006"
  61      C7442F0A 
  61      E9CC6348 
  61      ABE30F3E 
  61      CF06
  62 01a6 7969683D 		.ascii	"yih=&\321\200\323hp\355\304Y\004<L\272b\035{%6\233\233"
  62      26D180D3 
  62      6870EDC4 
  62      59043C4C 
  62      BA621D7B 
  63 01be 91894FF9 		.ascii	"\221\211O\371\243\364\004lm\331\033\337z\220s\000\211"
  63      A3F4046C 
  63      6DD91BDF 
  63      7A907300 
  63      89
  64 01cf 3FE44C82 		.ascii	"?\344L\202\004\2130\011\251E\212\217\211\264\210\214"
  64      048B3009 
  64      A9458A8F 
  64      89B4888C 
  65 01df 88AC889C 		.ascii	"\210\254\210\234\210*\026\250\026\3406%\356\267C\232"
  65      882A16A8 
  65      16E03625 
  65      EEB7439A 
  66 01ef BC0352F9 		.ascii	"\274\003R\371\032\353\274\326:W\352.G\303\303Y\322\232"
  66      1AEBBCD6 
  66      3A57EA2E 
  66      47C3C359 
  66      D29A
  67 0201 375A456F 		.ascii	"7ZEo\\<`\203\343[\031\241\302\354\305P\246\313\343\230"
  67      5C3C6083 
  67      E35B19A1 
  67      C2ECC550 
  67      A6CBE398 
  68 0215 8A90CC4A 		.ascii	"\212\220\314J\232\024O5\255\241w\352\343\026\301F\224"
  68      9A144F35 
  68      ADA177EA 
  68      E316C146 
  68      94
  69 0226 D80AF56D 		.ascii	"\330\012\365m\221\376\236_8\230\031\302\021\356G2\242"
  69      91FE9E5F 
  69      389819C2 
  69      11EE4732 
  69      A2
  70 0237 00534266 		.ascii	"\000SBf\373\360\215\336\023a\313\263\034\032~\304\020"
  70      FBF08DDE 
  70      1361CBB3 
  70      1C1A7EC4 
ARM GAS  C:\Users\info\AppData\Local\Temp\cc0ZAZ8c.s 			page 5


  70      10
  71 0248 1ED8E1C6 		.ascii	"\036\330\341\306OhQ\354p\243\357\206\347<\246\"JZK\350"
  71      4F6851EC 
  71      70A3EF86 
  71      E73CA622 
  71      4A5A4BE8 
  72 025c F4744421 		.ascii	"\364tD!\353\321@\340\364\214\205\244\035i\245l\314F"
  72      EBD140E0 
  72      F48C85A4 
  72      1D69A56C 
  72      CC46
  73 026e A405D45F 		.ascii	"\244\005\324_\326s\026\227u\240ur\306*\266\013h\260"
  73      D6731697 
  73      75A07572 
  73      C62AB60B 
  73      68B0
  74 0280 0CAAE6F0 		.ascii	"\014\252\346\360\331*\240\177>\334\355l\333\266\346"
  74      D92AA07F 
  74      3EDCED6C 
  74      DBB6E6
  75 028f 133E944F 		.ascii	"\023>\224O\217t\363}\031G\246\342g\311\012\3478\021"
  75      8F74F37D 
  75      1947A6E2 
  75      67C90AE7 
  75      3811
  76 02a1 C5B53355 		.ascii	"\305\2653U\266t\\pv\241n\241/\236\256\021\213\360\213"
  76      B6745C70 
  76      76A16EA1 
  76      2F9EAE11 
  76      8BF08B
  77 02b4 C5F5AB61 		.ascii	"\305\365\253a\367}s\320\230\352\002\24565\267\037\323"
  77      F77D73D0 
  77      98EA02A5 
  77      3635B71F 
  77      D3
  78 02c5 E856116D 		.ascii	"\350V\021m\217\010\021\355`N\301f\024\365\1770w\246"
  78      8F0811ED 
  78      604EC166 
  78      14F57F30 
  78      77A6
  79 02d7 1C6D0DDF 		.ascii	"\034m\015\3371\373t\337\205\361\224\353\003\020\363"
  79      31FB74DF 
  79      85F194EB 
  79      0310F3
  80 02e6 A3ABD0F6 		.ascii	"\243\253\320\366-n%\203\034i\355f\332\221j\271\016\017"
  80      2D6E2583 
  80      1C69ED66 
  80      DA916AB9 
  80      0E0F
  81 02f8 A12625A2 		.ascii	"\241&%\242Z\333<O\361?H\032]\255\234Y+\247XO\2202L}"
  81      5ADB3C4F 
  81      F13F481A 
  81      5DAD9C59 
  81      2BA7584F 
  82 0310 B3D3F909 		.ascii	"\263\323\371\011\377O\037=\314\330>\312\277\021\263"
  82      FF4F1F3D 
  82      CCD83ECA 
ARM GAS  C:\Users\info\AppData\Local\Temp\cc0ZAZ8c.s 			page 6


  82      BF11B3
  83 031f DCC76BC8 		.ascii	"\334\307k\310/E9\347AK\333xm\2003\3644\213\032:t;\330"
  83      2F4539E7 
  83      414BDB78 
  83      6D8033F4 
  83      348B1A3A 
  84 0336 E0B8789A 		.ascii	"\340\270x\232\364\205\363!\307E\267\322\034\230/\003"
  84      F485F321 
  84      C745B7D2 
  84      1C982F03 
  85 0346 F8070FE0 		.ascii	"\370\007\017\340%\337\326L\326]\366\232\017yD\236ln"
  85      25DFD64C 
  85      D65DF69A 
  85      0F79449E 
  85      6C6E
  86 0358 7EB5B36D 		.ascii	"~\265\263m\357\256\366\216\375\357u\360\351\355w\367"
  86      EFAEF68E 
  86      FDEF75F0 
  86      E9ED77F7 
  87 0368 B677B675 		.ascii	"\266w\266u\2655w(O\366\340\365\267\366\357k\357r\333"
  87      B5357728 
  87      4FF6E0F5 
  87      B7F6EF6B 
  87      EF72DB
  88 037b 01FFB5CE 		.ascii	"\001\377\265\3167YZ\030:\254\326\365/A\023\233\356"
  88      37595A18 
  88      3AACD6F5 
  88      2F41139B 
  88      EE
  89              		.text
  90              		.section	.gnu.lto_u8x8_DrawLog.792a3cb3,"",%progbits
  91 0000 789C6552 		.ascii	"x\234eR[KUA\024\236o\326\276\3519\206\317a \241\211"
  91      5B4B5541 
  91      149E6FD6 
  91      BEE93986 
  91      CF6120A1 
  92 0015 50DAE5C5 		.ascii	"P\332\345\305\177\320{\317\205\220\225/EP\010\372t\306"
  92      7FD07BCF 
  92      8590952F 
  92      455008FA 
  92      74C6
  93 0027 B3CF4E8B 		.ascii	"\263\317N\213\036\214\312B\013+\021M\315Kjy\244\207"
  93      1E8CCA42 
  93      0B2B114D 
  93      CD4B6A79 
  93      A487
  94 0039 A30F0A96 		.ascii	"\243\017\012\226J AiV\026\022\021\341\221\274\004\352"
  94      4A204169 
  94      56161211 
  94      E191BC04 
  94      EA
  95 004a 69CD6C03 		.ascii	"i\315l\003\253\201\275g\315\232\365}\353[k\215% \364"
  95      AB81BD67 
  95      CD9AF57D 
  95      EB5B6B8D 
  95      2520F4
  96 005d 3A4B421C 		.ascii	":KB\034\341\3758\177p\004d\303\264\020\265\236\204\025"
ARM GAS  C:\Users\info\AppData\Local\Temp\cc0ZAZ8c.s 			page 7


  96      E1FD387F 
  96      700464C3 
  96      B410B59E 
  96      8415
  97 006f 1A141AA3 		.ascii	"\032\024\032\243\236%\351\372\204\020*\333N\270BEm@"
  97      9E25E9FA 
  97      84102ADB 
  97      4EB84245 
  97      6D40
  98 0081 FB950711 		.ascii	"\373\225\007\021\223d\331\210IK\204kUnI\214\325-%eq"
  98      9364D988 
  98      494B846B 
  98      556E498C 
  98      D52D2565 
  99 0096 BBE2F531 		.ascii	"\273\342\3651h&\325\221B\300\25122\214A;\2129\352u\242"
  99      6826D591 
  99      42C0A932 
  99      328C413B 
  99      8A39EA75 
 100 00ab EF1EFD94 		.ascii	"\357\036\375\224\001\001\026\037\323SM\237\367\350\243"
 100      0101161F 
 100      D3534D9F 
 100      F7E8A3
 101 00ba 443E1F1F 		.ascii	"D>\037\037\314\266\316;\264\017\202\355\306\311\331"
 101      CCB6CE3B 
 101      B40F82ED 
 101      C6C9D9
 102 00c9 1F39456D 		.ascii	"\0379EmJ\305\225Z?\243\262\002\"t\202\230\017\217\221"
 102      4AC5955A 
 102      3FA3B202 
 102      22748298 
 102      0F8F91
 103 00dc 870EE409 		.ascii	"\207\016\344\011v\011t\241\210\243\233F\352\342\331"
 103      760974A1 
 103      88A39B46 
 103      EAE2D9
 104 00eb B4DF206F 		.ascii	"\264\337 oum4{;\310\201S\212\002\262\320\035\"\217\345"
 104      756D347B 
 104      3BC88153 
 104      8A02B2D0 
 104      1D228FE5 
 105 00ff E1B0C659 		.ascii	"\341\260\306Y\002O\014\356\305\265\227\233\036\025\030"
 105      024F0CEE 
 105      C5B5979B 
 105      1E1518
 106 010e DCD577E3 		.ascii	"\334\325w\343\313\316\016\356\355\016\256\347?\\\257"
 106      CBCE0EEE 
 106      ED0EAEE7 
 106      3F5CAF
 107 011d C1A9A9C9 		.ascii	"\301\251\251\311\271(\0350\270\265\325\321\301?\371"
 107      B9281D30 
 107      B8B5D5D1 
 107      C13FF9
 108 012c 6E8C4755 		.ascii	"n\214GU\003\027n\243\357_\255\266@?\2124`>y\263I\322"
 108      03176EA3 
 108      EF5FADB6 
 108      403F8A34 
ARM GAS  C:\Users\info\AppData\Local\Temp\cc0ZAZ8c.s 			page 8


 108      603E79B3 
 109 0142 41035E78 		.ascii	"A\003^x4\330i\027\266jp\352\375\205;*U\233\257\363>"
 109      34D86917 
 109      B66A70EA 
 109      FD853B2A 
 109      559BAFF3 
 110 0157 DD9D572F 		.ascii	"\335\235W/\016]\354\337\276\235\343$t\207\3631\200\302"
 110      0E5DECDF 
 110      BE9DE324 
 110      7487F331 
 110      80C2
 111 0169 B0B71884 		.ascii	"\260\267\030\204\303\223\205\366\364\236H\251L\306W"
 111      C39385F6 
 111      F49E48A9 
 111      4CC657
 112 0178 A9393B4D 		.ascii	"\2519;M90b\231\205o,h\333\201\226\340\262\030\307\203"
 112      39306299 
 112      856F2C68 
 112      DB8196E0 
 112      B218C783 
 113 018c EE5C1674 		.ascii	"\356\\\026t\037\"&0j\002\205XfV\236xZJ\336h\021\361"
 113      1F222630 
 113      6A028558 
 113      66569E78 
 113      5A4ADE68 
 114 01a2 D4871A93 		.ascii	"\324\207\032\223\204o\365\\\202\261\031W\217\314b\376"
 114      846FF55C 
 114      82B11957 
 114      8FCC62FE 
 115 01b2 21687569 		.ascii	"!huiI\202\237\012}\305]5\274 u\260\326\233L~\237sc["
 115      49829F0A 
 115      7DC55D35 
 115      BC2075B0 
 115      D69B4C7E 
 116 01ca AA5EA9DC 		.ascii	"\252^\251\334\200\334\214\3242\237!&|\362|\312\362\011"
 116      80DC8CD4 
 116      329F2126 
 116      7CF27CCA 
 116      F209
 117 01dc 3E499F9C 		.ascii	">I\237\234\200<\261\004\277\361\312\233J\015\365)\302"
 117      803CB104 
 117      BFF1CA9B 
 117      4A0DF529 
 117      C2
 118 01ed 578C1FAA 		.ascii	"W\214\037\252{\325\237\035f\002\236s\246E\030n-\226"
 118      7BD59F1D 
 118      66029E73 
 118      A645186E 
 118      2D96
 119 01ff 8342CCF6 		.ascii	"\203B\314\366Z$\004E\231\354\257(\226\313^#\317\022"
 119      5A240445 
 119      99ECAF28 
 119      96CB5E23 
 119      CF12
 120 0211 FC747529 		.ascii	"\374tu)\271\"tK\021\036\014\023\230)>\362\260 \344q"
 120      B922744B 
 120      111E0C13 
ARM GAS  C:\Users\info\AppData\Local\Temp\cc0ZAZ8c.s 			page 9


 120      98293EF2 
 120      B020E471 
 121 0225 77D7689B 		.ascii	"w\327h\233\031\255OL\326G[p\237\347\312\252\035\014"
 121      19AD4F4C 
 121      D6475B70 
 121      9FE7CAAA 
 121      1D0C
 122 0237 EBAAD9DF 		.ascii	"\353\252\331\337\366%\336\343\226\036\322\002\223h\301"
 122      F625DEE3 
 122      961ED202 
 122      9368C1
 123 0246 B679EA18 		.ascii	"\266y\352\030A\251\370\204\304\264\277'$\344\022]}\261"
 123      41A9F884 
 123      C4B4BF27 
 123      24E4125D 
 123      7DB1
 124 0258 02AED792 		.ascii	"\002\256\327\222\374\213P\367\014VX&\267OnN\271,\223"
 124      FC8B50F7 
 124      0C565826 
 124      B74F6E4E 
 124      B92C93
 125 026b 3622ACD3 		.ascii	"6\"\254\323\326\035\377\306\035\377e\233&\352\265\314"
 125      D61DFFC6 
 125      1DFF659B 
 125      26EAB5CC 
 126 027b 6D4BB84C 		.ascii	"mK\270L\275\267\244\344dUY\345\321\362\212\313\227*"
 126      BDB7A4E4 
 126      645559E5 
 126      D1F28ACB 
 126      972A
 127 028d D83A7FB1 		.ascii	"\330:\177\261\262\274\252\254\272\254\244BXzG5jl\343"
 127      B2BCAAAC 
 127      BAACA442 
 127      587A4735 
 127      6A6CE3
 128 02a0 B64F579D 		.ascii	"\266OW\235+\257\371\0156|\031\314"
 128      2BAFF90D 
 128      367C19CC 
 129              		.text
 130              		.section	.gnu.lto_u8log_u8x8_cb.792a3cb3,"",%progbits
 131 0000 789C8D52 		.ascii	"x\234\215RKH\225A\024\236o\316\377R\257\341R\304B\010"
 131      4B489541 
 131      149E6FCE 
 131      FF52AFE1 
 131      52C44208 
 132 0014 111729B4 		.ascii	"\021\027)\264\311\215\333v-\252m\340\302\300M\024\024"
 132      C98DDB76 
 132      2DAA6DE0 
 132      C2C04D14 
 132      14
 133 0025 42BB3B5E 		.ascii	"B\273;^\357\217\256\242\020\023\243\260\020\321\036"
 133      EF8FAEA2 
 133      1013A3B0 
 133      10D11E
 134 0034 3E6EA975 		.ascii	">n\251u\215\340WJA\262\020\242\215\005\245u\221p\341"
 134      8DE0574A 
 134      41B210A2 
ARM GAS  C:\Users\info\AppData\Local\Temp\cc0ZAZ8c.s 			page 10


 134      8D05A575 
 134      9170E1
 135 0047 252D5CE8 		.ascii	"%-\\\350\355\234\371\225\314Z4\374\217\2313\347|\217"
 135      ED9CF995 
 135      CC5A34FC 
 135      8F9933E7 
 135      7C8F
 136 0059 33E32828 		.ascii	"3\343((\031gI\251\032\376\237\342\027\276\202\276\376"
 136      196749A9 
 136      1AFE9FE2 
 136      17BE82BE 
 136      FE
 137 006a 46A9B640 		.ascii	"F\251\266@k\352)S\246\330\331jT&A\360\342\260\243\335"
 137      6BEA2953 
 137      A6D8D96A 
 137      542641F0 
 137      E2B0A3DD 
 138 007e A9231CF6 		.ascii	"\251#\034\366\336\327s\330\335\013{\200LL\000\225\324"
 138      DED773D8 
 138      DD0B7B80 
 138      4C4C0095 
 138      D4
 139 008f E4B81E92 		.ascii	"\344\270\036\222\330\324\333\0323\035\271\254\256\035"
 139      D8D4DB1A 
 139      331DB9AC 
 139      AE1D
 140 009d 343C3E7D 		.ascii	"4<>}\355#3\024!d\302\202\266\334\012\203\250\345\254"
 140      ED233314 
 140      2164C282 
 140      B6DC0A83 
 140      A8E5AC
 141 00b0 C5F4D86D 		.ascii	"\305\364\330m\332\320!\001\016/\363\013\267V\016\311"
 141      DAD02101 
 141      0E2FF30B 
 141      B7560EC9 
 142 00c0 52A38A97 		.ascii	"R\243\212\227fa~)A\207\241x\376csz<\250\0310&e\314\366"
 142      66617E29 
 142      4187A178 
 142      FE63737A 
 142      3CA81930 
 143 00d8 79531412 		.ascii	"yS\024\022\341\001\210\361p\037\225\030B\245\342\220"
 143      E10188F1 
 143      701F9518 
 143      42A5E290 
 144 00e8 C243D448 		.ascii	"\302C\324H\372\335w\375\037<:jK\277_\313\265T\367Ke"
 144      FADD77FD 
 144      1F3C3A6A 
 144      4BBF5FCB 
 144      B554F74B 
 145 00fd D4355BDA 		.ascii	"\3245[\332k\242tUH\016\036\375Y-\203\223\2273;\335\245"
 145      6BA27455 
 145      480E1EFD 
 145      592D8393 
 145      97333BDD 
 146 0112 5E5A7457 		.ascii	"^ZtWa\030\325\261b\214\300\343\256A\"\243g\"S(\264\233"
 146      6118D5B1 
 146      628CC0E3 
ARM GAS  C:\Users\info\AppData\Local\Temp\cc0ZAZ8c.s 			page 11


 146      AE4122A3 
 146      67225328 
 147 0128 E886373D 		.ascii	"\350\2067=\356\025\263t\346t\224l\271\254\301\365\345"
 147      EE15B374 
 147      E674946C 
 147      B9ACC1F5 
 147      E5
 148 0139 13C847A9 		.ascii	"\023\310G\251u.\226\376\344\265\226?\345\220\232\312"
 148      752E96FE 
 148      E4B5963F 
 148      E5909ACA 
 149 0149 BFCC90E0 		.ascii	"\277\314\220\340\265\223X\276\031\316\274\365\3052Y"
 149      B59358BE 
 149      19CEBCF5 
 149      C53259
 150 0158 AD3FE7E6 		.ascii	"\255?\347\346;\023}\270\323&\002\272\301(\234G\030\025"
 150      3B137DB8 
 150      D32602BA 
 150      C1289C47 
 150      1815
 151 016a 81BCFDF1 		.ascii	"\201\274\375\361\305\312$\325\037\013\311\307\030\372"
 151      C5CA24D5 
 151      1F0BC9C7 
 151      18FA
 152 0178 B063BB89 		.ascii	"\260c\273\211\014\352\3252R\346\204\225\311:\030Z\011"
 152      0CEAD532 
 152      52E68495 
 152      C93A185A 
 152      09
 153 0189 55E6D5E2 		.ascii	"U\346\325\342.\225\273\017\033\007@\007\276\244F|\001"
 153      2E95BB0F 
 153      1B074007 
 153      BEA4467C 
 153      01
 154 019a 0DF0D882 		.ascii	"\015\360\330\202\312\375\300\023\006\375\214\364R{\305"
 154      CAFDC013 
 154      06FD8CF4 
 154      527BC5
 155 01a9 6F84D1B5 		.ascii	"o\204\321\265\354V\251\210u\2410\276\333\264\274&\325"
 155      EC56A988 
 155      75A130BE 
 155      DBB4BC26 
 155      D5
 156 01ba 5346ABE8 		.ascii	"SF\253\350\210zg\265$\013h6\273\266\344'\267M\2471e"
 156      887A67B5 
 156      240B6836 
 156      BBB6E427 
 156      B74DA731 
 157 01cf 21151504 		.ascii	"!\025\025\004\024\023H\252\003\266\371\342`\222\217"
 157      141348AA 
 157      03B6F9E2 
 157      60928F
 158 01de 805FD614 		.ascii	"\200_\326\024R\261Et\324V\243mVf\356\236\033\363\373"
 158      52B14574 
 158      D456A36D 
 158      5666EE9E 
 158      1BF3FB
ARM GAS  C:\Users\info\AppData\Local\Temp\cc0ZAZ8c.s 			page 12


 159 01f1 FFE7E0A9 		.ascii	"\377\347\340\251u`\317\354\331\236\203\213\273\010\373"
 159      7560CFEC 
 159      D99E838B 
 159      BB08FB
 160 0200 24BBAAAB 		.ascii	"$\273\252\253<&x}:\336\015\016v?\377W\367c\232a\331"
 160      3C26787D 
 160      3ADE0D0E 
 160      763FFF57 
 160      F7639A61 
 161 0215 34254296 		.ascii	"4%B\226\265d$dSL\266\212\362\177\333/)\210\"<\217\355"
 161      B5642464 
 161      534CB68A 
 161      F27FDB2F 
 161      2988223C 
 162 022b C75E03FB 		.ascii	"\307^\003\373\260\343\204\025\344\331\373\361\015\251"
 162      B0E38415 
 162      E4D9FBF1 
 162      0DA9
 163 0239 68E2A405 		.ascii	"h\342\244\005\221\261\316]\3430\327V\324\325\235kmh"
 163      91B1CE5D 
 163      E330D756 
 163      D4D59D6B 
 163      6D68
 164 024b 39DED47C 		.ascii	"9\336\324|\345r3\317.\\jijm\270\332P\327\254\\\273r"
 164      E57233CF 
 164      2E5C6A69 
 164      6A6DB8DA 
 164      50D7AC5C 
 165 0261 64F50BA5 		.ascii	"d\365\013\245\021!h"
 165      112168
 166              		.text
 167              		.section	.gnu.lto_.symbol_nodes.792a3cb3,"",%progbits
 168 0000 789C55C8 		.ascii	"x\234U\310\261\021@P\020E\321\273\273t! V\2302\376\006"
 168      B1114050 
 168      1045D1BB 
 168      BB742120 
 168      569832FE 
 169 0015 0AD00219 		.ascii	"\012\320\002\031=H\004dZ\221\211\030>3\002\357\006o"
 169      3D480464 
 169      5A918918 
 169      3E3302EF 
 169      066F
 170 0027 E6240815 		.ascii	"\346$\010\025qJ\200f\345\271\336[\267H\022\344\243\301"
 170      714A8066 
 170      E5B9DE5B 
 170      B74812E4 
 170      A3C1
 171 0039 8B081AF4 		.ascii	"\213\010\032\364\007b\301^\000\367\034,V/\327\230\232"
 171      0762C15E 
 171      00F71C2C 
 171      562FD798 
 171      9A
 172 004a C0746CA5 		.ascii	"\300tl\245\251\320\235\231)t\363\236p\003\353i\031\212"
 172      A9D09D99 
 172      2974F39E 
 172      7003EB69 
 172      198A
ARM GAS  C:\Users\info\AppData\Local\Temp\cc0ZAZ8c.s 			page 13


 173              		.text
 174              		.section	.gnu.lto_.refs.792a3cb3,"",%progbits
 175 0000 789C6361 		.ascii	"x\234ca`\004B \000\000\0009\000\007"
 175      60044220 
 175      00000039 
 175      0007
 176              		.text
 177              		.section	.gnu.lto_.decls.792a3cb3,"",%progbits
 178 0000 789CBD59 		.ascii	"x\234\275YYPTW\032\356sO\003Mw\203\006\210Z)j\306\312"
 178      59505457 
 178      1AEE734F 
 178      034D7783 
 178      06885A29 
 179 0017 38CA544D 		.ascii	"8\312TM\214\306L\312\232\232\207\24425IM\245\246\346"
 179      8CC64CCA 
 179      9A9A87A4 
 179      3235494D 
 179      A5A6E6
 180 002a C54C1EA8 		.ascii	"\305L\036\250\272\3234\015\364\244\355\356\351%J^r\005"
 180      BAD3340D 
 180      F4A4EDEE 
 180      E9254A5E 
 180      7205
 181 003c 022EC862 		.ascii	"\002.\310b\224\010\256qC\004\025\225h\024\221\016\""
 181      9408AE71 
 181      43041595 
 181      6814910E 
 181      22
 182 004d EE8A6CB2 		.ascii	"\356\212l\262\251\210\373BdS\004T\346?\347\334\356{"
 182      A988FB42 
 182      64530454 
 182      E63FE7DC 
 182      EE7B
 183 005f 1A2E9597 		.ascii	"\032.\225\227d\256\371\351\363\237\363\335\177\371\316"
 183      64AEF9E9 
 183      F39FF3DD 
 183      7FF9CE
 184 006e 7A4FB41A 		.ascii	"zO\264\032\244!Or\254F\363a\210F\363\031\250c\360h\241"
 184      A4214F72 
 184      AC46F361 
 184      8846F319 
 184      A863F068 
 185 0083 EE538DF2 		.ascii	"\356S\215\362\020=\025\332$\2204\220\025H3\341!\355"
 185      103D15DA 
 185      24903490 
 185      154833E1 
 185      21ED
 186 0095 46F9BD28 		.ascii	"F\371\275(\220\030\220EPw\024~;A\300\205\346\"\310?"
 186      90189045 
 186      5077147E 
 186      3B41C085 
 186      E622C83F 
 187 00a9 41AE81AC 		.ascii	"A\256\201\254\204\266\345 \002\224\357\201<\322\260"
 187      84B6E520 
 187      0294EF81 
 187      3CD2B0
 188 00b8 72EA24F6 		.ascii	"r\352$\366\211o\375\317\330_\005\372R\304\354\023\023"
ARM GAS  C:\Users\info\AppData\Local\Temp\cc0ZAZ8c.s 			page 14


 188      896FFDCF 
 188      D85F05FA 
 188      52C4EC13 
 188      13
 189 00c9 0F659BE4 		.ascii	"\017e\233\344\335T\025\233$\227\210q6;e\273\261r\234"
 189      DD54159B 
 189      24978871 
 189      363B65BB 
 189      B1729C
 190 00dc 8B34CC47 		.ascii	"\2134\314G6\324}\205\024\037\204\223\307 ] 7A\272A\260"
 190      36D47D85 
 190      141F8493 
 190      C7205D20 
 190      3741BA41 
 191 00f1 6C73327F 		.ascii	"ls2\177/\005\224\336\375p\253\256\003\265!\244A\364"
 191      2F0594DE 
 191      FD70ABAE 
 191      03B521A4 
 191      41F4
 192 0103 D1C87DA0 		.ascii	"\321\310}\240!5\362/) \246\010\0329\027\206\012\030"
 192      2135F22F 
 192      2920A608 
 192      1A391786 
 192      0A18
 193 0115 45F41FFC 		.ascii	"E\364\037\374'P<\342\032\202p\264?\351\243T\241\300"
 193      27503CE2 
 193      1A8270B4 
 193      3FE9A354 
 193      A1C0
 194 0127 E347A260 		.ascii	"\343G\242`\243\304\252\242\202.(/p\366\344\350e\377"
 194      A3C4AAA2 
 194      822E282F 
 194      70F6E4E8 
 194      65FF
 195 0139 88774B4D 		.ascii	"\210wKMc\177\322\347\323\266eEb\260I\010\330\325U\037"
 195      637FD2E7 
 195      D3B66545 
 195      62B04908 
 195      D8D5551F 
 196 014d 82A369B9 		.ascii	"\202\243i\271\240\332\267q\212V\320\240\022\204\031"
 196      A0DAB771 
 196      8A56D0A0 
 196      128419
 197 015c F2C6F0EE 		.ascii	"\362\306\360\356\277\315-\223\340\311\223$\341/\012"
 197      BFCD2D93 
 197      E0C99324 
 197      E12F0A
 198 016b 6F5732CA 		.ascii	"oW2\3127\342A\001E\351\221\026\324\276\213E\267\"A\215"
 198      37E24101 
 198      45E99116 
 198      D4BE8B45 
 198      B722418D 
 199 017f D1A399A0 		.ascii	"\321\243\231\240\356\276\2731\307\310\324\205\2406\364"
 199      EEBEBB31 
 199      C7C8D485 
 199      A036F4
 200 018e 5ED86460 		.ascii	"^\330d`\340\251\240V\0369^\027\302Z\347\201Z{\276\371"
ARM GAS  C:\Users\info\AppData\Local\Temp\cc0ZAZ8c.s 			page 15


 200      E0A9A056 
 200      1E395E17 
 200      C25AE781 
 200      5A7BBEF9 
 201 01a2 4138FE3D 		.ascii	"A8\376=\215`\377\327\267Kt\320\024\253Gc\210\350\217"
 201      8D60FFD7 
 201      B74B74D0 
 201      14AB4763 
 201      88E88F
 202 01b5 8F0E4730 		.ascii	"\217\016G0\2354W\370\006\366j\361\002R\026\256\034j"
 202      9D3457F8 
 202      06F66AF1 
 202      025216AE 
 202      1C6A
 203 01c7 3B158EE2 		.ascii	";\025\216\342\364\273Ht]\243O?H\227$\204\016#=\252@"
 203      F4BB4874 
 203      5DA34F3F 
 203      48972484 
 203      0E233DAA 
 204 01dc 1895A2B9 		.ascii	"\030\225\242\271$\355X2D\227KR\232\324\273M\012\235"
 204      24ED5832 
 204      44974B52 
 204      9AD4BB4D 
 204      0A9D
 205 01ee A1410B62 		.ascii	"\241A\013b\321\274X\015\372\036\305\021\233\004\205"
 205      D1BC580D 
 205      FA1EC511 
 205      9B0485
 206 01fd 0EA15874 		.ascii	"\016\241Xt\020\305\022\373%[v\327F`\037\242\016z\326"
 206      10C512FB 
 206      255B76D7 
 206      46601FA2 
 206      0E7AD6
 207 0210 3E5A8E03 		.ascii	">Z\216\003\016\016\344\304\226J\322Tt\024\034\034Q\034"
 207      0E0EE4C4 
 207      964AD254 
 207      74141C1C 
 207      511C
 208 0222 803F750F 		.ascii	"\200?u\017?\250{\3300p\355A8\313=\016T_zw&\306\325\254"
 208      3FA87BD8 
 208      3070ED41 
 208      38CB3D0E 
 208      545F7A77 
 209 023a 2BFA7236 		.ascii	"+\372r6\327\205\341KL\371)\343N\227\201\001g\200\332"
 209      D785E14B 
 209      4CF929E3 
 209      4E978101 
 209      6780DA
 210 024d 545A7409 		.ascii	"TZt\011\343v\326\346\3473\206\361y\342\311\323S\002"
 210      E376D6E6 
 210      E73386F1 
 210      79E2C9D3 
 210      5302
 211 025f BEC5DA06 		.ascii	"\276\305\332\006\227?\313\217\304\217\231\262g{\327"
 211      973FCB8F 
 211      C48F99B2 
 211      677BD7
ARM GAS  C:\Users\info\AppData\Local\Temp\cc0ZAZ8c.s 			page 16


 212 026e 66E26D3A 		.ascii	"f\342m:\320I\364\352\306\256\215z\246K_\201\276\356"
 212      D049F4EA 
 212      C6AE8D7A 
 212      A64B5F81 
 212      BEEE
 213 0280 D2C6261D 		.ascii	"\322\306&\035\036\243`\241\266\250&-D!\264'5\215\020"
 213      1EA360A1 
 213      B6A8262D 
 213      4421B427 
 213      358D10
 214 0293 5A07F9D6 		.ascii	"Z\007\371\326*\371N\227\323\225\306\245{\012\322\235"
 214      2AF94E97 
 214      D395C6A5 
 214      7B0AD29D 
 215 02a3 2EA77B12 		.ascii	".\247{\022\322\255a\3516v\216\370t\030h$\016\212\317"
 215      D2AD61E9 
 215      36768EF8 
 215      74186824 
 215      0E8ACF
 216 02b6 8EFC108A 		.ascii	"\216\374\020\212\364q*\257\237Uy\335\317\373\264=\204"
 216      F4712AAF 
 216      9F5579DD 
 216      CFFBB43D 
 216      84
 217 02c7 F73310C7 		.ascii	"\3673\020\307i%\216:\312;\311\367\\V\207\021\347R\017"
 217      69258E3A 
 217      CA3BC9F7 
 217      5C568711 
 217      E7520F
 218 02da A8A872F0 		.ascii	"\250\250r\360\\\010\033h:P\353\322\333\267\"\\\306\332"
 218      5C081B68 
 218      3A50EBD2 
 218      DBB7225C 
 218      C6DA
 219 02ec C68AFAD6 		.ascii	"\306\212\372\326\207\031W\222\236\312K\227\242>\246"
 219      87195792 
 219      9ECA4B97 
 219      A23EA6
 220 02fb 3DB9177C 		.ascii	"=\271\027|\225\201/\015\272\210\214\362\320\256\251"
 220      95812F0D 
 220      BA888CF2 
 220      D0AEA9
 221 030a 5F513005 		.ascii	"_Q0\005\037co\015\336\352>f\300UL9S\334\277\022\341"
 221      1F636F0D 
 221      DEEA3E66 
 221      C0554C39 
 221      53DCBF12 
 222 031f 3AA694AD 		.ascii	":\246\224\255\177\262\017\341\213LY\323s\347\262\001"
 222      7FB20FE1 
 222      8B4C59D3 
 222      73E7B201 
 223 032f 37CA9E72 		.ascii	"7\312\236rK\317`\334\211\203\3721\212\365c\371\361\214"
 223      4BCF60DC 
 223      8983FA31 
 223      8AF563F9 
 223      F18C
 224 0341 1E79A2F8 		.ascii	"\036y\242\370\310\000o\3721\2777\014?`\330\253e\337"
ARM GAS  C:\Users\info\AppData\Local\Temp\cc0ZAZ8c.s 			page 17


 224      C8006FFA 
 224      31BF370C 
 224      3F60D8AB 
 224      65DF
 225 0353 6C0EC3D9 		.ascii	"l\016\303\331Z\242L\257\335\260\266\304\210\342\214"
 225      5AA24CAF 
 225      DDB0B6C4 
 225      88E28C
 226 0362 33B4C6E8 		.ascii	"3\264\306\350Y\321\263\374\217\021$.\216q\323\326\375"
 226      59D1B3FC 
 226      8F11242E 
 226      8E71D3D6 
 226      FD
 227 0373 D9837A49 		.ascii	"\331\203zI\232\211\036 #\272\254\220\323Fs\341RmG3\270"
 227      9A891E20 
 227      23BAAC90 
 227      D34673E1 
 227      526D4733 
 228 0388 54A15946 		.ascii	"T\241YF\026\320\231\235.\315\324\242O\247q\010\300\303"
 228      16D0999D 
 228      2ECDD4A2 
 228      4FA77108 
 228      C0C3
 229 039a DF0E4416 		.ascii	"\337\016D\026UX\361P'\274\221\240\345-^C\321\034\276"
 229      5558F150 
 229      27BC91A0 
 229      E52D5E43 
 229      D11CBE
 230 03ad 9391972F 		.ascii	"\223\221\227//\024\022\274\210\232\241\265\011Z\321"
 230      2F1412BC 
 230      889AA1B5 
 230      095AD1
 231 03bc 4FD0B737 		.ascii	"O\320\2677\000\016.Q\017\224\037\243Y\350\021\310C\220"
 231      000E2E51 
 231      0F941FA3 
 231      59E811C8 
 231      4390
 232 03ce FB20F740 		.ascii	"\373 \367@\356\202\334\001\271\015r\013\244\033\344"
 232      EE82DC01 
 232      B90D720B 
 232      A41BE4
 233 03dd 264817C8 		.ascii	"&H\027\310u4\213\256:\333\210w\337h{\304\267\222o\031"
 233      75348BAE 
 233      3ADB8877 
 233      DF687BC4 
 233      B7926F19 
 234 03f1 A6DDD702 		.ascii	"\246\335\327\0029\023\323\362(\332O\203\331G\376N\022"
 234      3913D3F2 
 234      28DA4F83 
 234      D947FE4E 
 234      12
 235 0402 4BA3FCC2 		.ascii	"K\243\374\302/\023\313\363v\203T\376o\032\311\001\265"
 235      2F13CBF3 
 235      768354FE 
 235      6F1AC901 
 235      B5
 236 0413 48CA6924 		.ascii	"H\312i$\014\373L\301V\252a\217q\330A\005{\\\015\273"
ARM GAS  C:\Users\info\AppData\Local\Temp\cc0ZAZ8c.s 			page 18


 236      0CFB4CC1 
 236      56AA618F 
 236      71D84105 
 236      7B5C0DBB 
 237 0427 97C30EB4 		.ascii	"\227\303\016\264OS\3708\241\206\256R\320\322\221x)="
 237      4F53F838 
 237      A186AE52 
 237      D0D29178 
 237      293D
 238 0439 94427D6A 		.ascii	"\224B}j\320j?T\222|\035E2\321d\346\375\250\206^\240"
 238      D06A3F54 
 238      927C1D45 
 238      32D164E6 
 238      FDA8865E 
 239 044e 44D1C6F7 		.ascii	"D\321\306\367\31295\360|\005|\265(\262P\362e`2\347\320"
 239      CA3935F0 
 239      7C057CB5 
 239      28B250F2 
 239      656032E7 
 240 0463 0519EC1F 		.ascii	"\005\031\354\037L\350\374\204\024\233\332\215R\236\211"
 240      4CE8FC84 
 240      149BDA8D 
 240      529E89
 241 0472 0EF24BEA 		.ascii	"\016\362K\352hj|\222\361\216Z\241\237\225!\317L6\026"
 241      686A7C92 
 241      F18E5AA1 
 241      9F9521CF 
 241      4C3616
 242 0485 BDAEC45B 		.ascii	"\275\256\304[\037\034\357\333\343\272\203#\355\212\012"
 242      1F1CEFDB 
 242      E3BA8323 
 242      ED8A0A
 243 0494 928FF44A 		.ascii	"\222\217\364J\273\221e\266\310\210\032\306\207\372v"
 243      BB9165B6 
 243      C8881AC6 
 243      87FA76
 244 04a3 20523A7B 		.ascii	" R:{}\225EFI\322\021\214F\216M\023h\333\322\376\033"
 244      7D954546 
 244      49D2118C 
 244      468E4D13 
 244      68DBD2FE 
 245 04b8 D24666D9 		.ascii	"\322Ff\331Ue^\023(]\242\216|\323\272?L\313\315L\262"
 245      55655E13 
 245      285DA28E 
 245      7CD3BA3F 
 245      4CCBCD4C 
 246 04cd 2337EDAF 		.ascii	"#7\355\257\015\247u$\322'\210Vn\270\260\247\020\005"
 246      0DA77524 
 246      D2278856 
 246      6EB8B0A7 
 246      1005
 247 04df 2A7B5965 		.ascii	"*{Ye\177\325\316\177\005\352\372d\240\274/E\261}I\272"
 247      7FD5CE7F 
 247      05EAFA64 
 247      A0BC2F45 
 247      B17D49BA 
 248 04f3 9FB145C0 		.ascii	"\237\261E\300%t%B\325\367\363\253u\370\007\246\324\027"
ARM GAS  C:\Users\info\AppData\Local\Temp\cc0ZAZ8c.s 			page 19


 248      25742542 
 248      D5F7F3AB 
 248      75F807A6 
 248      D417
 249 0505 F75C8DC4 		.ascii	"\367\\\215\304\365L\271\277\265\372\240\016?b\212\377"
 249      F54CB9BF 
 249      B5FAA00E 
 249      3F628AFF 
 250 0515 0C10C5CE 		.ascii	"\014\020\305\316\000\353|k^\350\361\020k;{\264{\036"
 250      00EB7C6B 
 250      5EE8F110 
 250      6B3B7BB4 
 250      7B1E
 251 0527 86DD8594 		.ascii	"\206\335\205\224\237\235o\272\206q>Srk\252N\352\360"
 251      9F9D6FBA 
 251      86713E53 
 251      726BAA4E 
 251      EAF0
 252 0539 26A6D475 		.ascii	"&\246\324u\2667kq\011S\226U\235<\024\201O0\345\324\330"
 252      B6376B71 
 252      09539655 
 252      9D3C1481 
 252      4F30E5D4 
 253 054e 906F0AB3 		.ascii	"\220o\012\263-\200\372\362\320\241\223\010\237fm;GF"
 253      2D80FAF2 
 253      D0A19308 
 253      9F666D3B 
 253      4746
 254 0560 7BC95164 		.ascii	"{\311Qd6lrc\230;4\314f\207\206\352\363gw\031q=\005\013"
 254      366C7263 
 254      983B34CC 
 254      668786EA 
 254      F3677719 
 255 0578 0D35EB5F 		.ascii	"\0155\353_\032\330\036\004=\233.\351\343\350\250\207"
 255      1AD81E04 
 255      3D9B2EE9 
 255      E3E8A887 
 256 0588 D306F4D0 		.ascii	"\323\006\364\320\327B\034y\211\356BiB,Z&\370w\241\321"
 256      D7421C79 
 256      89EE4269 
 256      422C5A26 
 256      F877A1D1 
 257 059c 9EBFD3E3 		.ascii	"\236\277\323\343E\206\240G\351B\240Cf\313\233\320\211"
 257      4586A047 
 257      E942A043 
 257      66CB9BD0 
 257      89
 258 05ad FC8EBB7A 		.ascii	"\374\216\273z\334\301\\\354\270%Uj's\261|R\027\007r"
 258      DCC15CEC 
 258      B825556A 
 258      2773B17C 
 258      52170772 
 259 05c1 6697918D 		.ascii	"f\227\221\215.\013\\d*.\300#\363qweI\237\021\337f9o"
 259      2E0B5C64 
 259      2A2EC023 
 259      F3717765 
 259      499F11DF 
ARM GAS  C:\Users\info\AppData\Local\Temp\cc0ZAZ8c.s 			page 20


 260 05d8 6AEECE0B 		.ascii	"j\356\316\013\327\313\307\216\274\237?v\024\235Z^\023"
 260      D7CBC78E 
 260      BC9F3F76 
 260      149D5A5E 
 260      13
 261 05e9 C26F7E2B 		.ascii	"\302o~+\005~\363[%\3707\277\214\207\333{\020~\300\274"
 261      057EF35B 
 261      25F837BF 
 261      8C87DB7B 
 261      107EC0BC 
 262 05fd 5C3B5352 		.ascii	"\\;SRJ\230\235C\230\035\033\233\302q;\207q\333\220\333"
 262      4A989D43 
 262      981D1B9B 
 262      C2713B87 
 262      71DB90DB 
 263 0611 BF230C0F 		.ascii	"\277#\014\017\260\304K\363\0375p'\262\235\306\243$\237"
 263      B0C44BF3 
 263      1F357027 
 263      B29DC6A3 
 263      249F
 264 0623 7CF094AB 		.ascii	"|\360\224\253\3443'p^\242\201h\224\371\221\007\324\314"
 264      E4332770 
 264      5EA28168 
 264      94F99107 
 264      D4CC
 265 0635 9143CF01 		.ascii	"\221C\317\001jV\013\354L\266#\177[(~\305\\\354\331w"
 265      6A560BEC 
 265      4CB6237F 
 265      5B287EC5 
 265      5CECD977 
 266 0649 B92ECCCF 		.ascii	"\271.\314\317\355x\003kU\014\370\271}\227r\373\015\304"
 266      ED78036B 
 266      550CF8B9 
 266      7D9772FB 
 266      0DC4
 267 065b B2468925 		.ascii	"\262F\211%\337\317m\367\201\241\307:\234\025Js\332W"
 267      DFCF6DF7 
 267      81A1C73A 
 267      9C154A73 
 267      DA57
 268 066d 365AAEA7 		.ascii	"6Z\256\247\363c\221\177nud\026\2377\004\246L\201@+\233"
 268      F363917F 
 268      6E756416 
 268      9F3704A6 
 268      4C81402B 
 269 0682 5BAF372B 		.ascii	"[\2577+\023\356[V\2315v\255V\207\013\231\245\214\342"
 269      13EE5B56 
 269      993576AD 
 269      56870B99 
 269      A58CE2
 270 0695 D51B22F0 		.ascii	"\325\033\"\360N\246\344\024\366W\206\341\275Li\364m"
 270      4EA6E414 
 270      F65786E1 
 270      BD4C69F4 
 270      6D
 271 06a6 DD108E2B 		.ascii	"\335\020\216+\230r\253bhG\004\256f\312\315'U\205a\001"
 271      9872AB62 
ARM GAS  C:\Users\info\AppData\Local\Temp\cc0ZAZ8c.s 			page 21


 271      684704AE 
 271      66CACD27 
 271      55856101 
 272 06ba ABCCFDF7 		.ascii	"\253\314\375\367\015[n\204\341\323\0140ry\364\030\302"
 272      0D5B6E84 
 272      E1D30C30 
 272      7279F418 
 272      C2
 273 06cb 4D4CC96E 		.ascii	"ML\311n<\274\000\337d\345\262\346\326\227\010\3670\345"
 273      3CBC00DF 
 273      64E5B2E6 
 273      D69708F7 
 273      30E5
 274 06dd E2ABDE13 		.ascii	"\342\253\336\023\030\2171eoWfc\010\316\013\243\312\256"
 274      188F3165 
 274      6F576663 
 274      08CE0BA3 
 274      CAAE
 275 06ef 17DF5518 		.ascii	"\027\337U\030\361F\246\324\015Um\017\301\305LY\271j"
 275      F146A6D4 
 275      0D556D0F 
 275      C1C54C59 
 275      B96A
 276 0701 CF7791F8 		.ascii	"\317w\221\3708S\276\316.=\216\361e\246\324\3378\370"
 276      3853BECE 
 276      2E3D8EF1 
 276      65A6D4DF 
 276      38F8
 277 0713 3414DF66 		.ascii	"4\024\337f\312\215\353\371\377\301=\254\374\250\251"
 277      CA8DEBF9 
 277      FFC13DAC 
 277      FCA8A9
 278 0722 213F048F 		.ascii	"!?\004\2170\345\345\301\254J-^\255\243\312\2753\303"
 278      30E5E5C1 
 278      AC4A2D5E 
 278      ADA3CABD 
 278      33C3
 279 0734 8306BC85 		.ascii	"\203\006\274\205)#5iG\021>\310\224\3035\303\027B\360"
 279      29233569 
 279      47113EC8 
 279      94C335C3 
 279      1742F0
 280 0747 69A6FC94 		.ascii	"i\246\374\224V\272\003\341.\246\324\257\353)\020\360"
 280      56BA03E1 
 280      2EA6D4AF 
 280      EB2910F0 
 281 0757 30535E8C 		.ascii	"0S^\214~\263,\004g\207\2639\334y\277\314\20073e\367"
 281      7EB32C04 
 281      6787B339 
 281      DC79BFCC 
 281      80373365 
 282 076c EADE937A 		.ascii	"\352\336\223z|\204*\257\367\226\256\007.f\215{\342f"
 282      7C842AAF 
 282      F796AE07 
 282      2E668D7B 
 282      E266
 283 077e C19189AE 		.ascii	"\301\221\211\256\311pHrV\035\356\224\244L#e\264\014"
ARM GAS  C:\Users\info\AppData\Local\Temp\cc0ZAZ8c.s 			page 22


 283      C9704872 
 283      561DEE94 
 283      A44C2365 
 283      B40C
 284 0790 BAFF8C10 		.ascii	"\272\377\214\020\274\204\363\373\364\361\206\300\336"
 284      BC84F3FB 
 284      F4F186C0 
 284      DE
 285 079d BB23183A 		.ascii	"\273#\030:a\323\033X\023\271^\362\245a:e\277\223\301"
 285      61D31B58 
 285      13B95EF2 
 285      A5613A65 
 285      BF93C1
 286 07b0 81993E71 		.ascii	"\201\231>q\253.\274\314m\222\345*qT\363\233\336\345"
 286      AB2EBCCC 
 286      6D92E52A 
 286      7154F39B 
 286      DEE5
 287 07c2 401CA52A 		.ascii	"@\034\245*\320}\034t\255\002=\240\002\345"
 287      D07D1C74 
 287      AD023DA0 
 287      02E5
 288 07d0 226E5092 		.ascii	"\"nP\222\333\246\226\034wT\360\255Q\254\036T\261\312"
 288      DBA6961C 
 288      7754F0AD 
 288      51AC1E54 
 288      B1CA
 289 07e2 EDE7450A 		.ascii	"\355\347E\012r\277\012\2227\272Q\201\356S\201\362l\225"
 289      72BF0A92 
 289      37BA5181 
 289      EE5381F2 
 289      6C95
 290 07f4 2BB11607 		.ascii	"+\261\026\007C\317O8\\\325+\330\355jy\361\304\256U\260"
 290      43CF4F38 
 290      5CD52BD8 
 290      ED6A79F1 
 290      C4AE55B0 
 291 0808 BBD5ECF2 		.ascii	"\273\325\354\362\007\261WJ\270%jX>\336\012\305\356."
 291      07B1574A 
 291      B8256A58 
 291      3EDE0AC5 
 291      EE2E
 292 081a 352CDF63 		.ascii	"5,\337cO\371\221S\241>rX~\35480\232C\217\012\200\342"
 292      4FF99153 
 292      A13E7258 
 292      7EEC3830 
 292      9A438F0A 
 293 0830 8F0ACCD6 		.ascii	"\217\012\314\326\026~T\355U!\225O\350\230\022\344N5"
 293      167E54ED 
 293      5521954F 
 293      E89812E4 
 293      4E35
 294 0842 A2E64F7E 		.ascii	"\242\346O~t>$\343\311\321\371\024\254\264\307\205Y\350"
 294      743E24E3 
 294      C9D1F914 
 294      ACB4C785 
 294      59E8
ARM GAS  C:\Users\info\AppData\Local\Temp\cc0ZAZ8c.s 			page 23


 295 0854 18C80F20 		.ascii	"\030\310\017 U '@\352@\276\0079\012r\026\244\006\344"
 295      55202740 
 295      EA40BE07 
 295      390A7216 
 295      A406E4
 296 0867 47906A90 		.ascii	"G\220j\220\223 \247A\016\203\370@*A\216\200\324\012"
 296      9320A741 
 296      0E83F840 
 296      2A418E80 
 296      D40A
 297 0879 FC91BA23 		.ascii	"\374\221\272#W>\033\222\245z\217\354R\355\264\007\353"
 297      573E1B92 
 297      A57A8FEC 
 297      52EDB407 
 297      EB
 298 088a 405BEE86 		.ascii	"@[\356\206\302)\270\226\256\003\302\323\3255\357\241"
 298      C229B896 
 298      AE03C2D3 
 298      D535EFA1 
 299 089a E838F5D8 		.ascii	"\3508\365\330/@\274\277f\354\254\227\012/\375\221\364"
 299      2F40BCBF 
 299      66ECAC97 
 299      0A2FFD91 
 299      F4
 300 08ab D2797074 		.ascii	"\322yptN\331dH\247\321p+\272w=\011\213\226\003\364M"
 300      4ED96448 
 300      A7D1702B 
 300      BA773D09 
 300      8B9603F4 
 301 08c0 1AA0E617 		.ascii	"\032\240\346\027\217\216\254\237-\031Y\006~\377\277"
 301      8F8EAC9F 
 301      2D195906 
 301      7EFFBF
 302 08cf 28F0DF6F 		.ascii	"(\360\337o\227\002\373\377\320\336{\235!\270\225-\264"
 302      9702FBFF 
 302      D0DE7B9D 
 302      21B8952D 
 302      B4
 303 08e0 FE8B9A28 		.ascii	"\376\213\232(vQSQ\325\267S\276\273\220\3109\353\376"
 303      76515351 
 303      D5B753BE 
 303      BB90C839 
 303      EBFE
 304 08f2 9D0D757A 		.ascii	"\235\015uz|[^\241\033\367_\230\202\237S\345w\035+\253"
 304      7C5B5EA1 
 304      1BF75F98 
 304      829F53E5 
 304      771D2BAB 
 305 0906 972114FC 		.ascii	"\227!\024\374\341\312\276^\341s6N.\304\301w,\331\347"
 305      E1CABE5E 
 305      E173364E 
 305      2EC4C177 
 305      2CD9E7
 306 0919 9A0523DA 		.ascii	"\232\005#\332,\004}]\266\004E\327,L\374\272\274\002"
 306      2C047D5D 
 306      B60445D7 
 306      2C4CFCBA 
ARM GAS  C:\Users\info\AppData\Local\Temp\cc0ZAZ8c.s 			page 24


 306      BC02
 307 092b FB7B3DEC 		.ascii	"\373{=\354\357\350\0310\327*w\355S(\017B\342O@~\002"
 307      EFE81930 
 307      D72A77ED 
 307      53280F42 
 307      E24F407E 
 308 0940 E901790C 		.ascii	"\351\001y\014r\027\344\016\310m\220[ \335 7A\272@n\200"
 308      7217E40E 
 308      C86D905B 
 308      20DD2037 
 308      41BA406E 
 309 0955 5C07B906 		.ascii	"\\\007\271\006\322\011\322\001\322\016\322\006r5hh\216"
 309      D209D201 
 309      D20ED206 
 309      72356868 
 309      8E
 310 0966 B67013AD 		.ascii	"\266p\023\255\001:\270U\231=\003\334r\240\036\347e\371"
 310      013AB855 
 310      993D03DC 
 310      72A01EE7 
 310      65F9
 311 0978 855F3FCE 		.ascii	"\205_?\316\347-\2019>\210T\242\344\327\343g\012\366"
 311      E72D8139 
 311      3E8854A2 
 311      E4D7E367 
 311      0AF6
 312 098a A91A965F 		.ascii	"\251\032\226_8\007\025\35435,\267\317\364+\320!5(\267"
 312      380715EC 
 312      33352CB7 
 312      CFF42BD0 
 312      213528B7 
 313 099e 79F42AD0 		.ascii	"y\364*\320\341`\350\363\011\313\346u\005;\242\206\345"
 313      E160E8F3 
 313      09CBE675 
 313      053BA286 
 313      E5
 314 09af B7844E05 		.ascii	"\267\204N\005;\252\206\345W\305\026\005\373B\015\033"
 314      3BAA86E5 
 314      57C51605 
 314      FB420D1B 
 315 09bf F431AA60 		.ascii	"\3641\252`_\252ayv\033\024\354+5,\317\356\225\002nK"
 315      5FAA6179 
 315      761B14EC 
 315      2B352CCF 
 315      EE95026E 
 316 09d4 90E4C112 		.ascii	"\220\344\301\022\330\022\236\217\247\255\272\340u\266"
 316      D8129E8F 
 316      A7ADBAE0 
 316      75B6
 317 09e2 4EC2D11D 		.ascii	"N\302\321\035\255\220\341\201u\262iB\330U\005\334\272"
 317      AD90E181 
 317      75B26942 
 317      D85505DC 
 317      BA
 318 09f3 9AAD8EE7 		.ascii	"\232\255\216\347\314W\266La\360{`~\335x8\177\264\341"
 318      CC57B64C 
 318      61F07B60 
ARM GAS  C:\Users\info\AppData\Local\Temp\cc0ZAZ8c.s 			page 25


 318      7EDD7838 
 318      7FB4E1
 319 0a06 66ED0381 		.ascii	"f\355\003\201\373\352~\004c\374\276\340\377\352\236"
 319      FBEA7E04 
 319      63FCBEE0 
 319      FFEA9E
 320 0a15 04A5E120 		.ascii	"\004\245\341 \334]T\360\315\034\274\000\177\037\012"
 320      DC5D54F0 
 320      CD1CBC00 
 320      7F1F0A
 321 0a24 FECB28B2 		.ascii	"\376\313(\262^\254\007M\376R\276\364:YtI\234\205\312"
 321      5EAC074D 
 321      FE52BEF4 
 321      3A597449 
 321      9C85CA
 322 0a37 A27B9F2E 		.ascii	"\242{\237.\031,\227\243|.E\352\271p\251\037n\241\267"
 322      192C97A3 
 322      7C2E45EA 
 322      B970A91F 
 322      6EA1B7
 323 0a4a 0D04BC61 		.ascii	"\015\004\274a<Xe\327W\320\033\325\321\234\351C\0051"
 323      3C5865D7 
 323      57D01BD5 
 323      D19CE943 
 323      0531
 324 0a5c 2C925E80 		.ascii	",\222^\200o\032\017\177[\225\324~\236\324\001 \265O"
 324      6F1A0F7F 
 324      5B95D47E 
 324      9ED40120 
 324      B54F
 325 0a6e 8DD4FE20 		.ascii	"\215\324\376 R\373\324H\315\012\372\342\353\247\244"
 325      52FBD448 
 325      CD0AFAE2 
 325      EBA7A4
 326 0a7d 36515219 		.ascii	"6QR\031\221\007r\246\021\"Ih[\024\"\3738\"\017\024\374"
 326      910772A6 
 326      11224968 
 326      5B1422FB 
 326      38220F14 
 327 0a92 96850FDB 		.ascii	"\226\205\017\333\005\332\252\032>w\275\261\251\200\236"
 327      05DAAA1A 
 327      3E77BDB1 
 327      A9809E
 328 0aa1 595A0595 		.ascii	"YZ\005\225\353\215os\350\365\006Y\346\033\025_\255\376"
 328      EB8D6F73 
 328      E8F50659 
 328      E61B155F 
 328      ADFE
 329 0ab3 9DF2C5C5 		.ascii	"\235\362\305\3055ktZ\177_\367\263\033\212\315=y\003"
 329      356B745A 
 329      7F5FF7B3 
 329      1B8ACD3D 
 329      7903
 330 0ac5 FA1993DD 		.ascii	"\372\031\223\335X>\247\371\014\321|\310\305\367\261"
 330      583EA7F9 
 330      0CD17CC8 
 330      C5F7B1
ARM GAS  C:\Users\info\AppData\Local\Temp\cc0ZAZ8c.s 			page 26


 331 0ad4 C2138637 		.ascii	"\302\023\2067\267\302)R\352\032\333\377A\363\366L)o"
 331      B7C22952 
 331      EA1ADBFF 
 331      41F3F64C 
 331      296F
 332 0ae6 9994F73E 		.ascii	"\231\224\367>\005\242\335\376+\025\264\007i\211F\274"
 332      05A2DDFE 
 332      2B15B407 
 332      698946BC 
 333 0af6 17A30EA4 		.ascii	"\027\243\016\244A\303\302\233\344K(w\335\271H\\\304"
 333      41C3C29B 
 333      E44B2877 
 333      DDB9485C 
 333      C4
 334 0b07 BE717FFE 		.ascii	"\276q\177\376\262eTP\271ly\301*\373\2674\016\030\003"
 334      B2655450 
 334      B96C79C1 
 334      2AFBB734 
 334      0E1803
 335 0b1a B9BC6495 		.ascii	"\271\274d\225\2333\2174\033&\315e\214\346\362\312\237"
 335      9B338F34 
 335      1B26CD65 
 335      8CE6F2CA 
 335      9F
 336 0b2b CBE99ADA 		.ascii	"\313\351\232\332[\010r\351*\227|mmF\222\210\364>\001"
 336      5B0872E9 
 336      2A977C6D 
 336      6D469288 
 336      F43E01
 337 0b3e A111853B 		.ascii	"\241\021\205;(*IH\230$\261\255w\375f\204\213Y\022m\303"
 337      282A4948 
 337      9824B1AD 
 337      77FD6684 
 337      8B59126D 
 338 0b53 8FB71123 		.ascii	"\217\267\021#[\301\310+\213\264\002<k\3515\3312\034"
 338      5BC1C82B 
 338      8BB4023C 
 338      6BE935D9 
 338      321C
 339 0b65 B00145C5 		.ascii	"\260\001E\305F\032\265\261j\327\350P\010\376^?\351\247"
 339      461AB5B1 
 339      6AD7E850 
 339      08FE5E3F 
 339      E9A7
 340 0b77 69CBC88A 		.ascii	"i\313\310\2125\332@]\006\246\225Ek;\233\205@\345\327"
 340      35DA405D 
 340      06A69545 
 340      6B3B9B85 
 340      40E5D7
 341 0b8a AC322337 		.ascii	"\2542#7-\333\020 \"\223U\026\327\237l\303\223\022\261"
 341      2DDB1020 
 341      22935516 
 341      D79F6CC3 
 341      9312B1
 342 0b9d 1C1322B2 		.ascii	"\034\023\"\262\260LD\366\331\274\233FB\004|\321\267"
 342      B04C44F6 
 342      D9BC9B46 
ARM GAS  C:\Users\info\AppData\Local\Temp\cc0ZAZ8c.s 			page 27


 342      42047CD1 
 342      B7
 343 0bae 76FFB367 		.ascii	"v\377\263g{\246/\017Q\024JW\262H\307\354\377s\241\025"
 343      7BA62F0F 
 343      51144A57 
 343      B248C7EC 
 343      FF73A115 
 344 0bc2 3483979B 		.ascii	"4\203\227\233\322\356\350\371\223\017\201+.Vbz\266 "
 344      D2EEE8F9 
 344      930F812B 
 344      2E56627A 
 344      B620
 345 0bd4 BF00BE30 		.ascii	"\277\000\2760\234Q\216x\360\363\240y\265J\006\257\242"
 345      9C518E78 
 345      F0F3A079 
 345      B54A06AF 
 345      A2
 346 0be5 E0032BDA 		.ascii	"\340\003+\332\202\014\217\005a\263e,\371\235\352]\270"
 346      820C8F05 
 346      61B3652C 
 346      F99DEA5D 
 346      B8
 347 0bf6 74A1F857 		.ascii	"t\241\370W\227i\311'\216\344O\254v\213\316\356\260\332"
 347      9769C927 
 347      8EE44FAC 
 347      768BCEEE 
 347      B0DA
 348 0c08 6DA4F0D1 		.ascii	"m\244\360\321?\026\315\374p\376|M\204\325-\272,\211"
 348      3F16CDFC 
 348      70FE7C4D 
 348      84D52DBA 
 348      2C89
 349 0c1a 00114D36 		.ascii	"\000\021M6[\270(z\255v\317B\321\263\014\231\377\034"
 349      5BB8287A 
 349      AD76CF42 
 349      D1B30C99 
 349      FF1C
 350 0c2c EF743992 		.ascii	"\357t9\222]\246\3053\223\2546\213{f\334\322\205\357"
 350      5DA6C533 
 350      93AC368B 
 350      7B66DCD2 
 350      85EF
 351 0c3e FD21DE9C 		.ascii	"\375!\336\234\352tY\334\356x\247\333a\236ivYL\036\207"
 351      EA7459DC 
 351      EE78A7DB 
 351      619E6976 
 351      594C1E87 
 352 0c52 2BFEDDB9 		.ascii	"+\376\335\271\357\004WX\027;\035.O|\262\335\033or-\216"
 352      EF045758 
 352      173B1D2E 
 352      4F7CB2DD 
 352      1B6F722D 
 353 0c67 FFD3DC77 		.ascii	"\377\323\334w\347\316'\245\267\354\016\273\345-\213"
 353      E7CE27A5 
 353      B7EC0EBB 
 353      E52D8B
 354 0c76 29C11A6F 		.ascii	")\301\032o\265\233m\336DK\374b\2239\005\"\212\027\023"
ARM GAS  C:\Users\info\AppData\Local\Temp\cc0ZAZ8c.s 			page 28


 354      B59B6DDE 
 354      444BFC62 
 354      93390522 
 354      8A1713
 355 0c89 2D4926AF 		.ascii	"-I&\257\315#zR\235\026\367\334\024M\230\034\312\027"
 355      CD237A52 
 355      9D16F7DC 
 355      144D981C 
 355      CA17
 356 0c9b FFAF48DC 		.ascii	"\377\257H\334\251\356x\321\355I\004\267\340>Ra\2060"
 356      A9EE78D1 
 356      ED4904B7 
 356      E03E5261 
 356      8630
 357 0cad 66E0CA3A 		.ascii	"f\340\312:\263\327\345v\270\304T\177ai\024\251\026S"
 357      B3D7E576 
 357      B8C4547F 
 357      616914A9 
 357      1653
 358 0cbf 2CD6E414 		.ascii	",\326\344\024\217\350HJr[<:Qd\361\207\262\237\330`{"
 358      8FE8484A 
 358      725B3C3A 
 358      5164F187 
 358      B29FD860 
 359 0cd4 6212BC67 		.ascii	"b\022\274g\201\334Es\212\311\025\341\206x-v1\301\233"
 359      81DC4573 
 359      8AC915E1 
 359      86782D76 
 359      31C19B
 360 0ce7 94647109 		.ascii	"\224dq\011\346\004\235w\241\315\221,\232\023B\231\321"
 360      E6049D77 
 360      A1CD912C 
 360      9A134299 
 360      D1
 361 0cf8 9025D644 		.ascii	"\220%\326DO\212\316\344]*&\232<&#kv{\\^\263\347\315"
 361      4F8ACEE4 
 361      5D2A269A 
 361      3C26236B 
 361      767B5C5E 
 362 0d0f A03E84E2 		.ascii	"\240>\204\342\177\275V\320\251\007\273e\251G\264\333"
 362      7FBD56D0 
 362      A907BB65 
 362      A947B4DB 
 363 0d1f C218DE13 		.ascii	"\302\030\336\0233wn\274wa\362;\242\331\3552\307\223"
 363      33776EBC 
 363      7761F23B 
 363      A2D9ED32 
 363      C793
 364 0d31 E141324D 		.ascii	"\341A2M\264$8\274v\263\005\354\231<\226\351\001\325"
 364      B42438BC 
 364      76B305EC 
 364      993C96E9 
 364      01D5
 365 0d43 66727B44 		.ascii	"fr{D\247\325\316\352\337\010\324\373{*\320dHvZ\035\340"
 365      A7D5CEEA 
 365      DF08D4FB 
 365      7B2AD064 
ARM GAS  C:\Users\info\AppData\Local\Temp\cc0ZAZ8c.s 			page 29


 365      48765A1D 
 366 0d58 D80DB57A 		.ascii	"\330\015\265z\257'i!\253\006\303_X\001oJL$=e\260\276"
 366      AF276921 
 366      AB06C35F 
 366      58016F4A 
 366      4C243D65 
 367 0d6e 63260D2E 		.ascii	"c&\015.\217%\221\226\345\372\030\210?\311a\367\000_"
 367      8F259196 
 367      E5FA1888 
 367      3FC961F7 
 367      005F
 368 0d80 5F585C6E 		.ascii	"_X\\n\213\270\330\221h\321-\365\363h\261\233\035\320"
 368      8BB8D891 
 368      68D12DF5 
 368      F368B19B 
 368      1DD0
 369 0d92 27C97A36 		.ascii	"'\311z68\347\277'zt\376\202\226\274\027\236\340u\213"
 369      38E7BF27 
 369      7A74FE82 
 369      96BC179E 
 369      E0758B
 370 0da5 669BC3FC 		.ascii	"f\233\303\374\271\014Y\360\216\014!\205\327hl&{\"\204"
 370      B90C59F0 
 370      8E0C2185 
 370      D7686C26 
 370      7B2284
 371 0db8 6D33A502 		.ascii	"m3\245\002\245\006:-\026\273\011\275a\011\251\036\013"
 371      A5063A2D 
 371      16BB09BD 
 371      6109A91E 
 371      0B
 372 0dc9 A1D96C4A 		.ascii	"\241\331lJ\204\037}\242\325\355d\2500J\2359\301H\321"
 372      841F7DA2 
 372      D5ED64A8 
 372      304A9D39 
 372      C148D1
 373 0ddc A49388E2 		.ascii	"\244\223\210\342o\267\332\223\034\006\247u\251\305&"
 373      6FB7DA93 
 373      1C06A775 
 373      A9C526
 374 0deb D29E792D 		.ascii	"\322\236y-\311fu\222\270E\177\334S\375,\371+\014\036"
 374      C9667592 
 374      B8457FDC 
 374      53FD2CF9 
 374      2B0C1E
 375 0dfe 18BCF218 		.ascii	"\030\274\362\030\321\3232}3f\211\313\012!8\2756\267"
 375      D1D3327D 
 375      336689CB 
 375      0A2138BD 
 375      36B7
 376 0e10 5C23DADD 		.ascii	"\\#\332\335Q\244\223Ex\311\353\024=\326\305\026\250"
 376      51A49345 
 376      78C9EB14 
 376      3DD6C516 
 376      A8
 377 0e21 8A218C05 		.ascii	"\212!\214\0052\025\347\317\233\367\371\307_\352\334"
 377      3215E7CF 
ARM GAS  C:\Users\info\AppData\Local\Temp\cc0ZAZ8c.s 			page 30


 377      9BF7F9C7 
 377      5FEADC
 378 0e30 4E2BA5CB 		.ascii	"N+\245\313\350\206:\326\222\362e\024Q\202\015\276\346"
 378      E8863AD6 
 378      92F26514 
 378      51820DBE 
 378      E6
 379 0e41 4E1C672F 		.ascii	"N\034g/\312\351\200\336\005\376-\036q\211\311\352\001"
 379      CAE980DE 
 379      05FE2D1E 
 379      7189C9EA 
 379      01
 380 0e52 426298C6 		.ascii	"Bb\230\306\277\271\330=\003f\031\244ou\212\220\273)"
 380      BFB9D83D 
 380      036619A4 
 380      6F758A90 
 380      BB29
 381 0e64 81844DD0 		.ascii	"\201\204M\320vh \006h\213\305\3167D\005\241m\226/,\266"
 381      76682006 
 381      688BC5CE 
 381      374405A1 
 381      6D962F2C 
 382 0e79 D77818AD 		.ascii	"\327x\030\255\231Ai\345\351\224G\263\221\261\312x\212"
 382      994169E5 
 382      E99447B3 
 382      91B1CA78 
 382      8A
 383 0e8a 9E88F2B0 		.ascii	"\236\210\362\260\356c\340\350\300\230d\203\217\364j"
 383      EE63E0E8 
 383      C0986483 
 383      8FF46A
 384 0e99 286DF7BC 		.ascii	"(m\367\2741n\250\223\361O\007\274Yc\344\327\305\010"
 384      316EA893 
 384      F14F07BC 
 384      5963E4D7 
 384      C508
 385 0eab A5093A38 		.ascii	"\245\011:82\320\364\221-\325\231\362?Hq\362$"
 385      32D0F491 
 385      2DD599F2 
 385      3F4871F2 
 385      24
 386              		.text
 387              		.section	.gnu.lto_.symtab.792a3cb3,"",%progbits
 388 0000 75387838 		.ascii	"u8x8_DrawLog\000"
 388      5F447261 
 388      774C6F67 
 388      00
 389 000d 00       		.ascii	"\000"
 390 000e 00       		.ascii	"\000"
 391 000f 00       		.ascii	"\000"
 392 0010 00000000 		.ascii	"\000\000\000\000\000\000\000\000"
 392      00000000 
 393 0018 80010000 		.ascii	"\200\001\000\000"
 394 001c 75386C6F 		.ascii	"u8log_u8x8_cb\000"
 394      675F7538 
 394      78385F63 
 394      6200
ARM GAS  C:\Users\info\AppData\Local\Temp\cc0ZAZ8c.s 			page 31


 395 002a 00       		.ascii	"\000"
 396 002b 00       		.ascii	"\000"
 397 002c 00       		.ascii	"\000"
 398 002d 00000000 		.ascii	"\000\000\000\000\000\000\000\000"
 398      00000000 
 399 0035 82010000 		.ascii	"\202\001\000\000"
 400 0039 75387838 		.ascii	"u8x8_DrawGlyph\000"
 400      5F447261 
 400      77476C79 
 400      706800
 401 0048 00       		.ascii	"\000"
 402 0049 02       		.ascii	"\002"
 403 004a 00       		.ascii	"\000"
 404 004b 00000000 		.ascii	"\000\000\000\000\000\000\000\000"
 404      00000000 
 405 0053 89010000 		.ascii	"\211\001\000\000"
 406              		.text
 407              		.section	.gnu.lto_.opts,"",%progbits
 408 0000 272D666D 		.ascii	"'-fmath-errno' '-fsigned-zeros' '-ftrapping-math' '"
 408      6174682D 
 408      6572726E 
 408      6F272027 
 408      2D667369 
 409 0033 2D666E6F 		.ascii	"-fno-trapv' '-fno-strict-overflow' '-fno-openmp' '-"
 409      2D747261 
 409      70762720 
 409      272D666E 
 409      6F2D7374 
 410 0066 666E6F2D 		.ascii	"fno-openacc' '-mcpu=cortex-m3' '-mthumb' '-g' '-Og'"
 410      6F70656E 
 410      61636327 
 410      20272D6D 
 410      6370753D 
 411 0099 20272D66 		.ascii	" '-ffunction-sections' '-ffat-lto-objects' '-flto'\000"
 411      66756E63 
 411      74696F6E 
 411      2D736563 
 411      74696F6E 
 412              		.text
 413              		.cfi_sections	.debug_frame
 414              		.section	.text.u8x8_DrawLogLine,"ax",%progbits
 415              		.align	2
 416              		.thumb
 417              		.thumb_func
 418              		.type	u8x8_DrawLogLine, %function
 419              	u8x8_DrawLogLine:
 420              	.LFB0:
 421              		.file 1 "..\\u8g2_csrc\\u8log_u8x8.c"
   1:..\u8g2_csrc/u8log_u8x8.c **** /*
   2:..\u8g2_csrc/u8log_u8x8.c **** 
   3:..\u8g2_csrc/u8log_u8x8.c ****   u8log_u8x8.c
   4:..\u8g2_csrc/u8log_u8x8.c ****   
   5:..\u8g2_csrc/u8log_u8x8.c **** 
   6:..\u8g2_csrc/u8log_u8x8.c ****   Universal 8bit Graphics Library (https://github.com/olikraus/u8g2/)
   7:..\u8g2_csrc/u8log_u8x8.c **** 
   8:..\u8g2_csrc/u8log_u8x8.c ****   Copyright (c) 2018, olikraus@gmail.com
   9:..\u8g2_csrc/u8log_u8x8.c ****   All rights reserved.
ARM GAS  C:\Users\info\AppData\Local\Temp\cc0ZAZ8c.s 			page 32


  10:..\u8g2_csrc/u8log_u8x8.c **** 
  11:..\u8g2_csrc/u8log_u8x8.c ****   Redistribution and use in source and binary forms, with or without modification, 
  12:..\u8g2_csrc/u8log_u8x8.c ****   are permitted provided that the following conditions are met:
  13:..\u8g2_csrc/u8log_u8x8.c **** 
  14:..\u8g2_csrc/u8log_u8x8.c ****   * Redistributions of source code must retain the above copyright notice, this list 
  15:..\u8g2_csrc/u8log_u8x8.c ****     of conditions and the following disclaimer.
  16:..\u8g2_csrc/u8log_u8x8.c ****     
  17:..\u8g2_csrc/u8log_u8x8.c ****   * Redistributions in binary form must reproduce the above copyright notice, this 
  18:..\u8g2_csrc/u8log_u8x8.c ****     list of conditions and the following disclaimer in the documentation and/or other 
  19:..\u8g2_csrc/u8log_u8x8.c ****     materials provided with the distribution.
  20:..\u8g2_csrc/u8log_u8x8.c **** 
  21:..\u8g2_csrc/u8log_u8x8.c ****   THIS SOFTWARE IS PROVIDED BY THE COPYRIGHT HOLDERS AND 
  22:..\u8g2_csrc/u8log_u8x8.c ****   CONTRIBUTORS "AS IS" AND ANY EXPRESS OR IMPLIED WARRANTIES, 
  23:..\u8g2_csrc/u8log_u8x8.c ****   INCLUDING, BUT NOT LIMITED TO, THE IMPLIED WARRANTIES OF 
  24:..\u8g2_csrc/u8log_u8x8.c ****   MERCHANTABILITY AND FITNESS FOR A PARTICULAR PURPOSE ARE 
  25:..\u8g2_csrc/u8log_u8x8.c ****   DISCLAIMED. IN NO EVENT SHALL THE COPYRIGHT HOLDER OR 
  26:..\u8g2_csrc/u8log_u8x8.c ****   CONTRIBUTORS BE LIABLE FOR ANY DIRECT, INDIRECT, INCIDENTAL, 
  27:..\u8g2_csrc/u8log_u8x8.c ****   SPECIAL, EXEMPLARY, OR CONSEQUENTIAL DAMAGES (INCLUDING, BUT 
  28:..\u8g2_csrc/u8log_u8x8.c ****   NOT LIMITED TO, PROCUREMENT OF SUBSTITUTE GOODS OR SERVICES; 
  29:..\u8g2_csrc/u8log_u8x8.c ****   LOSS OF USE, DATA, OR PROFITS; OR BUSINESS INTERRUPTION) HOWEVER 
  30:..\u8g2_csrc/u8log_u8x8.c ****   CAUSED AND ON ANY THEORY OF LIABILITY, WHETHER IN CONTRACT, 
  31:..\u8g2_csrc/u8log_u8x8.c ****   STRICT LIABILITY, OR TORT (INCLUDING NEGLIGENCE OR OTHERWISE) 
  32:..\u8g2_csrc/u8log_u8x8.c ****   ARISING IN ANY WAY OUT OF THE USE OF THIS SOFTWARE, EVEN IF 
  33:..\u8g2_csrc/u8log_u8x8.c ****   ADVISED OF THE POSSIBILITY OF SUCH DAMAGE.  
  34:..\u8g2_csrc/u8log_u8x8.c **** 
  35:..\u8g2_csrc/u8log_u8x8.c **** */
  36:..\u8g2_csrc/u8log_u8x8.c **** 
  37:..\u8g2_csrc/u8log_u8x8.c **** #include "u8x8.h"
  38:..\u8g2_csrc/u8log_u8x8.c **** 
  39:..\u8g2_csrc/u8log_u8x8.c **** static void u8x8_DrawLogLine(u8x8_t *u8x8, uint8_t disp_x, uint8_t disp_y, uint8_t buf_y, u8log_t *
  40:..\u8g2_csrc/u8log_u8x8.c **** static void u8x8_DrawLogLine(u8x8_t *u8x8, uint8_t disp_x, uint8_t disp_y, uint8_t buf_y, u8log_t *
  41:..\u8g2_csrc/u8log_u8x8.c **** {
 422              		.loc 1 41 0
 423              		.cfi_startproc
 424              		@ args = 4, pretend = 0, frame = 0
 425              		@ frame_needed = 0, uses_anonymous_args = 0
 426              	.LVL0:
 427 0000 2DE9F843 		push	{r3, r4, r5, r6, r7, r8, r9, lr}
 428              		.cfi_def_cfa_offset 32
 429              		.cfi_offset 3, -32
 430              		.cfi_offset 4, -28
 431              		.cfi_offset 5, -24
 432              		.cfi_offset 6, -20
 433              		.cfi_offset 7, -16
 434              		.cfi_offset 8, -12
 435              		.cfi_offset 9, -8
 436              		.cfi_offset 14, -4
 437 0004 8146     		mov	r9, r0
 438 0006 0D46     		mov	r5, r1
 439 0008 9046     		mov	r8, r2
 440 000a 1F46     		mov	r7, r3
 441 000c 089E     		ldr	r6, [sp, #32]
 442              	.LVL1:
  42:..\u8g2_csrc/u8log_u8x8.c ****   uint8_t buf_x;
  43:..\u8g2_csrc/u8log_u8x8.c ****   uint8_t c;
  44:..\u8g2_csrc/u8log_u8x8.c ****   for( buf_x = 0; buf_x < u8log->width; buf_x++ )
 443              		.loc 1 44 0
ARM GAS  C:\Users\info\AppData\Local\Temp\cc0ZAZ8c.s 			page 33


 444 000e 0024     		movs	r4, #0
 445 0010 0CE0     		b	.L2
 446              	.LVL2:
 447              	.L3:
  45:..\u8g2_csrc/u8log_u8x8.c ****   {
  46:..\u8g2_csrc/u8log_u8x8.c ****     c = u8log->screen_buffer[buf_y * u8log->width + buf_x];
 448              		.loc 1 46 0 discriminator 3
 449 0012 F268     		ldr	r2, [r6, #12]
 450 0014 03FB0743 		mla	r3, r3, r7, r4
 451              	.LVL3:
  47:..\u8g2_csrc/u8log_u8x8.c ****     u8x8_DrawGlyph(u8x8, disp_x, disp_y, c);
 452              		.loc 1 47 0 discriminator 3
 453 0018 D35C     		ldrb	r3, [r2, r3]	@ zero_extendqisi2
 454              	.LVL4:
 455 001a 4246     		mov	r2, r8
 456              	.LVL5:
 457 001c 2946     		mov	r1, r5
 458 001e 4846     		mov	r0, r9
 459 0020 FFF7FEFF 		bl	u8x8_DrawGlyph
 460              	.LVL6:
  48:..\u8g2_csrc/u8log_u8x8.c ****     disp_x++;
 461              		.loc 1 48 0 discriminator 3
 462 0024 0135     		adds	r5, r5, #1
 463              	.LVL7:
 464 0026 EDB2     		uxtb	r5, r5
 465              	.LVL8:
  44:..\u8g2_csrc/u8log_u8x8.c ****   {
 466              		.loc 1 44 0 discriminator 3
 467 0028 0134     		adds	r4, r4, #1
 468              	.LVL9:
 469 002a E4B2     		uxtb	r4, r4
 470              	.LVL10:
 471              	.L2:
  44:..\u8g2_csrc/u8log_u8x8.c ****   {
 472              		.loc 1 44 0 is_stmt 0 discriminator 1
 473 002c 3379     		ldrb	r3, [r6, #4]	@ zero_extendqisi2
 474 002e 9C42     		cmp	r4, r3
 475 0030 EFD3     		bcc	.L3
  49:..\u8g2_csrc/u8log_u8x8.c ****   }
  50:..\u8g2_csrc/u8log_u8x8.c **** }
 476              		.loc 1 50 0 is_stmt 1
 477 0032 BDE8F883 		pop	{r3, r4, r5, r6, r7, r8, r9, pc}
 478              		.cfi_endproc
 479              	.LFE0:
 480              		.size	u8x8_DrawLogLine, .-u8x8_DrawLogLine
 481 0036 00BF     		.section	.text.u8x8_DrawLog,"ax",%progbits
 482              		.align	2
 483              		.global	u8x8_DrawLog
 484              		.thumb
 485              		.thumb_func
 486              		.type	u8x8_DrawLog, %function
 487              	u8x8_DrawLog:
 488              	.LFB1:
  51:..\u8g2_csrc/u8log_u8x8.c **** 
  52:..\u8g2_csrc/u8log_u8x8.c **** void u8x8_DrawLog(u8x8_t *u8x8, uint8_t x, uint8_t y, u8log_t *u8log)
  53:..\u8g2_csrc/u8log_u8x8.c **** {
 489              		.loc 1 53 0
ARM GAS  C:\Users\info\AppData\Local\Temp\cc0ZAZ8c.s 			page 34


 490              		.cfi_startproc
 491              		@ args = 0, pretend = 0, frame = 0
 492              		@ frame_needed = 0, uses_anonymous_args = 0
 493              	.LVL11:
 494 0000 2DE9F041 		push	{r4, r5, r6, r7, r8, lr}
 495              		.cfi_def_cfa_offset 24
 496              		.cfi_offset 4, -24
 497              		.cfi_offset 5, -20
 498              		.cfi_offset 6, -16
 499              		.cfi_offset 7, -12
 500              		.cfi_offset 8, -8
 501              		.cfi_offset 14, -4
 502 0004 82B0     		sub	sp, sp, #8
 503              		.cfi_def_cfa_offset 32
 504 0006 8046     		mov	r8, r0
 505 0008 0F46     		mov	r7, r1
 506 000a 1546     		mov	r5, r2
 507 000c 1E46     		mov	r6, r3
 508              	.LVL12:
  54:..\u8g2_csrc/u8log_u8x8.c ****   uint8_t buf_y;
  55:..\u8g2_csrc/u8log_u8x8.c ****   for( buf_y = 0; buf_y < u8log->height; buf_y++ )
 509              		.loc 1 55 0
 510 000e 0024     		movs	r4, #0
 511 0010 0AE0     		b	.L6
 512              	.LVL13:
 513              	.L7:
  56:..\u8g2_csrc/u8log_u8x8.c ****   {
  57:..\u8g2_csrc/u8log_u8x8.c ****     u8x8_DrawLogLine(u8x8, x, y, buf_y, u8log);
 514              		.loc 1 57 0 discriminator 3
 515 0012 0096     		str	r6, [sp]
 516 0014 2346     		mov	r3, r4
 517 0016 2A46     		mov	r2, r5
 518 0018 3946     		mov	r1, r7
 519 001a 4046     		mov	r0, r8
 520 001c FFF7FEFF 		bl	u8x8_DrawLogLine
 521              	.LVL14:
  58:..\u8g2_csrc/u8log_u8x8.c ****     y++;
 522              		.loc 1 58 0 discriminator 3
 523 0020 0135     		adds	r5, r5, #1
 524              	.LVL15:
 525 0022 EDB2     		uxtb	r5, r5
 526              	.LVL16:
  55:..\u8g2_csrc/u8log_u8x8.c ****   {
 527              		.loc 1 55 0 discriminator 3
 528 0024 0134     		adds	r4, r4, #1
 529              	.LVL17:
 530 0026 E4B2     		uxtb	r4, r4
 531              	.LVL18:
 532              	.L6:
  55:..\u8g2_csrc/u8log_u8x8.c ****   {
 533              		.loc 1 55 0 is_stmt 0 discriminator 1
 534 0028 7379     		ldrb	r3, [r6, #5]	@ zero_extendqisi2
 535 002a 9C42     		cmp	r4, r3
 536 002c F1D3     		bcc	.L7
  59:..\u8g2_csrc/u8log_u8x8.c ****   }
  60:..\u8g2_csrc/u8log_u8x8.c **** }
 537              		.loc 1 60 0 is_stmt 1
ARM GAS  C:\Users\info\AppData\Local\Temp\cc0ZAZ8c.s 			page 35


 538 002e 02B0     		add	sp, sp, #8
 539              		.cfi_def_cfa_offset 24
 540              		@ sp needed
 541 0030 BDE8F081 		pop	{r4, r5, r6, r7, r8, pc}
 542              		.cfi_endproc
 543              	.LFE1:
 544              		.size	u8x8_DrawLog, .-u8x8_DrawLog
 545              		.section	.text.u8log_u8x8_cb,"ax",%progbits
 546              		.align	2
 547              		.global	u8log_u8x8_cb
 548              		.thumb
 549              		.thumb_func
 550              		.type	u8log_u8x8_cb, %function
 551              	u8log_u8x8_cb:
 552              	.LFB2:
  61:..\u8g2_csrc/u8log_u8x8.c **** 
  62:..\u8g2_csrc/u8log_u8x8.c **** 
  63:..\u8g2_csrc/u8log_u8x8.c **** void u8log_u8x8_cb(u8log_t * u8log)
  64:..\u8g2_csrc/u8log_u8x8.c **** {
 553              		.loc 1 64 0
 554              		.cfi_startproc
 555              		@ args = 0, pretend = 0, frame = 0
 556              		@ frame_needed = 0, uses_anonymous_args = 0
 557              	.LVL19:
 558 0000 10B5     		push	{r4, lr}
 559              		.cfi_def_cfa_offset 8
 560              		.cfi_offset 4, -8
 561              		.cfi_offset 14, -4
 562 0002 82B0     		sub	sp, sp, #8
 563              		.cfi_def_cfa_offset 16
  65:..\u8g2_csrc/u8log_u8x8.c ****   u8x8_t *u8x8 = (u8x8_t *)(u8log->aux_data);
 564              		.loc 1 65 0
 565 0004 0468     		ldr	r4, [r0]
 566              	.LVL20:
  66:..\u8g2_csrc/u8log_u8x8.c ****   if ( u8log->is_redraw_all )
 567              		.loc 1 66 0
 568 0006 837D     		ldrb	r3, [r0, #22]	@ zero_extendqisi2
 569 0008 33B1     		cbz	r3, .L10
  67:..\u8g2_csrc/u8log_u8x8.c ****   {
  68:..\u8g2_csrc/u8log_u8x8.c ****     u8x8_DrawLog(u8x8, 0, 0, u8log);
 570              		.loc 1 68 0
 571 000a 0346     		mov	r3, r0
 572 000c 0022     		movs	r2, #0
 573 000e 1146     		mov	r1, r2
 574 0010 2046     		mov	r0, r4
 575              	.LVL21:
 576 0012 FFF7FEFF 		bl	u8x8_DrawLog
 577              	.LVL22:
 578 0016 08E0     		b	.L9
 579              	.LVL23:
 580              	.L10:
  69:..\u8g2_csrc/u8log_u8x8.c ****   }
  70:..\u8g2_csrc/u8log_u8x8.c ****   else if ( u8log->is_redraw_line )
 581              		.loc 1 70 0
 582 0018 437D     		ldrb	r3, [r0, #21]	@ zero_extendqisi2
 583 001a 33B1     		cbz	r3, .L9
  71:..\u8g2_csrc/u8log_u8x8.c ****   {
ARM GAS  C:\Users\info\AppData\Local\Temp\cc0ZAZ8c.s 			page 36


  72:..\u8g2_csrc/u8log_u8x8.c ****     u8x8_DrawLogLine(u8x8, 0, u8log->redraw_line, u8log->redraw_line, u8log);
 584              		.loc 1 72 0
 585 001c 027D     		ldrb	r2, [r0, #20]	@ zero_extendqisi2
 586 001e 0090     		str	r0, [sp]
 587 0020 1346     		mov	r3, r2
 588 0022 0021     		movs	r1, #0
 589 0024 2046     		mov	r0, r4
 590              	.LVL24:
 591 0026 FFF7FEFF 		bl	u8x8_DrawLogLine
 592              	.LVL25:
 593              	.L9:
  73:..\u8g2_csrc/u8log_u8x8.c ****   }
  74:..\u8g2_csrc/u8log_u8x8.c **** }
 594              		.loc 1 74 0
 595 002a 02B0     		add	sp, sp, #8
 596              		.cfi_def_cfa_offset 8
 597              		@ sp needed
 598 002c 10BD     		pop	{r4, pc}
 599              		.cfi_endproc
 600              	.LFE2:
 601              		.size	u8log_u8x8_cb, .-u8log_u8x8_cb
 602 002e 00BF     		.text
 603              	.Letext0:
 604              		.file 2 "c:\\program files (x86)\\cypress\\psoc creator\\4.2\\psoc creator\\import\\gnu\\arm\\5.4.
 605              		.file 3 "c:\\program files (x86)\\cypress\\psoc creator\\4.2\\psoc creator\\import\\gnu\\arm\\5.4.
 606              		.file 4 "..\\u8g2_csrc\\u8x8.h"