ARM GAS  C:\Users\info\AppData\Local\Temp\ccewYYI6.s 			page 1


   1              		.syntax unified
   2              		.cpu cortex-m3
   3              		.fpu softvfp
   4              		.eabi_attribute 20, 1
   5              		.eabi_attribute 21, 1
   6              		.eabi_attribute 23, 3
   7              		.eabi_attribute 24, 1
   8              		.eabi_attribute 25, 1
   9              		.eabi_attribute 26, 1
  10              		.eabi_attribute 30, 1
  11              		.eabi_attribute 34, 1
  12              		.eabi_attribute 18, 4
  13              		.thumb
  14              		.syntax unified
  15              		.file	"u8x8_d_pcf8812.c"
  16              		.text
  17              	.Ltext0:
  18              		.section	.gnu.lto_.profile.792a35c4,"",%progbits
  19 0000 789C6361 		.ascii	"x\234ca`d`e`\000\222\267\030\375\000\003\\\0015"
  19      60646065 
  19      600092B7 
  19      18FD0003 
  19      5C0135
  20              		.text
  21              		.section	.gnu.lto_.inline.792a35c4,"",%progbits
  22 0000 789C6361 		.ascii	"x\234ca`d\000\201\215\014\010\300\304\300p\204\341\034"
  22      60640081 
  22      8D0C08C0 
  22      C4C07084 
  22      E11C
  23 0012 5082C9F0 		.ascii	"P\202\311\360I'\023\003\367\0257&\26007\003\003\343"
  23      49271303 
  23      F7153726 
  23      B0303703 
  23      03E3
  24 0024 043F165E 		.ascii	"\004?\026^F\006\346)\312\023\374&\3701\363\000E\261"
  24      4606E629 
  24      CA13FC26 
  24      F831F300 
  24      45B1
  25 0036 31606AA1 		.ascii	"1`j\241\024.i\030\027\235\206\331\304\300'\004t\004"
  25      142E6918 
  25      179D86D9 
  25      C4C02704 
  25      7404
  26 0048 CB027906 		.ascii	"\313\002y\006\266\005\362`7\260\36130\260\200LB6\215"
  26      B605F260 
  26      37B0F133 
  26      30B0804C 
  26      42368D
  27 005b 01009DDA 		.ascii	"\001\000\235\332\034|"
  27      1C7C
  28              		.text
  29              		.section	.gnu.lto_.jmpfuncs.792a35c4,"",%progbits
  30 0000 789C6361 		.ascii	"x\234ca`d\000\001\011\006\004`b@\007,`\022\000\004\256"
  30      60640001 
  30      09060460 
ARM GAS  C:\Users\info\AppData\Local\Temp\ccewYYI6.s 			page 2


  30      6240072C 
  30      60120004 
  31 0015 0024     		.ascii	"\000$"
  32              		.text
  33              		.section	.gnu.lto_.pureconst.792a35c4,"",%progbits
  34 0000 789C6361 		.ascii	"x\234ca`d`e```b\220d\221\000\000\000\356\000B"
  34      60646065 
  34      60606062 
  34      90649100 
  34      0000EE00 
  35              		.text
  36              		.section	.gnu.lto_u8x8_d_pcf8812_96x65_generic.792a35c4,"",%progbits
  37 0000 789C8D57 		.ascii	"x\234\215W\377OSW\024\277\347\335\366\275\366\265\320"
  37      FF4F5357 
  37      14BFE7DD 
  37      F6BDF6B5 
  37      D0
  38 0011 6E5360A4 		.ascii	"nS`\244\216\022\302\230[\246\016\177!\313\262\350\376"
  38      8E12C298 
  38      5BA60E7F 
  38      21CBB2E8 
  38      FE
  39 0022 84FD6C42 		.ascii	"\204\375lB6\334\334\262l1\352\022\1771<ZZ\3048\006\211"
  39      36DCDCB2 
  39      6C31EA12 
  39      7F313C5A 
  39      5AC43806 
  40 0037 F885B8E9 		.ascii	"\370\205\270\351\342\030*\250\240S\004aVt\240\010(\023"
  40      E2182AA8 
  40      A0530461 
  40      5674A008 
  40      2813
  41 0049 AD805F51 		.ascii	"\255\200_Q\021\231\337\312fd8\355\316\271\267\005*\255"
  41      1199DFCA 
  41      666438ED 
  41      CEB9B705 
  41      2AAD
  42 005b AE49EFBB 		.ascii	"\256I\357\273\367\366~\316\375\234s>\357\334[\023\003"
  42      F7F67ECE 
  42      FD9C733E 
  42      EFDC5B13 
  42      03
  43 006c 469F321B 		.ascii	"F\2372\033c\213\361\271\007\277\220\304@)\357a\254\310"
  43      638BF1B9 
  43      07BF90C4 
  43      4029EF61 
  43      ACC8
  44 007e A2986D67 		.ascii	"\242\230mg\035\314\260p\321\232D\253\211\326\"\347\301"
  44      1DCCB070 
  44      D19A44AB 
  44      89D622E7 
  44      C1
  45 008f 26179A14 		.ascii	"&\027\232\024\363\332\034f\350*\265vstZ\215v\264h\307"
  45      F3DA1C66 
  45      E82AB576 
  45      73745A8D 
  45      76B468C7 
ARM GAS  C:\Users\info\AppData\Local\Temp\ccewYYI6.s 			page 3


  46 00a3 0256D9B1 		.ascii	"\002V\331\261*\366\365\035\014!z\261\206\020\273\234"
  46      2AF6F51D 
  46      0C217AB1 
  46      8610BB9C 
  47 00b3 5FAC4717 		.ascii	"_\254G\027\332\000\250cX\200\025*\334dV5\213\325\256"
  47      DA00A863 
  47      5880152A 
  47      DC645635 
  47      8BD5AE
  48 00c6 DBA050B1 		.ascii	"\333\240P\2612\010\230 ,\211?R\236*p\372\361\311\365"
  48      32089820 
  48      2C893F52 
  48      9E2A70FA 
  48      F1C9F5
  49 00d9 FADC1AC3 		.ascii	"\372\334\032\303\360\030\327\252G\027\215y|i>\316XX"
  49      F018D7AA 
  49      47178D79 
  49      7C693ECE 
  49      5858
  50 00eb 61B0D005 		.ascii	"a\260\320\005\013\\\344T\015\314\305\225\275\305\365"
  50      0B5CE454 
  50      0DCCC595 
  50      BDC5F5
  51 00fa 5BF9DF8A 		.ascii	"[\371\337\212\217\003\230p\030\352\256\272\221LC\005"
  51      8F039870 
  51      18EAAEBA 
  51      914C4305 
  52 010a DC38DCDE 		.ascii	"\3348\334\336\267\343\222\3123\201a\177cg\337\375\244"
  52      B7E392CA 
  52      3381617F 
  52      6367DFFD 
  52      A4
  53 011b 9C6AB269 		.ascii	"\234j\262i\014~fX}\234\303n\340ds\027\270`'\270\030"
  53      0C7E6658 
  53      7D9CC36E 
  53      E0647317 
  53      B86027B8 
  54 0130 4E31A885 		.ascii	"N1\250\205\034\\\335U\337\0244\3617\005\362q\313\361"
  54      1C5CDD55 
  54      DF1434F1 
  54      3705F271 
  54      CBF1
  55 0142 A751E4A6 		.ascii	"\247Q\344\246v\233\261\000\271@\235\204J:D\016\366\010"
  55      769BB100 
  55      B9409D84 
  55      4A3A440E 
  55      F608
  56 0154 E0E6DE6B 		.ascii	"\340\346\336k\337\351\374m\001\334z\353A\2779\002\354"
  56      DFE9FC6D 
  56      01DC7AEB 
  56      41BF3902 
  56      EC
  57 0165 8D02F7CE 		.ascii	"\215\002\367\316\000\356\023\300\376\333\335\347t\236"
  57      00EE13C0 
  57      FEDBDDE7 
  57      749E
  58 0173 2B80BB0F 		.ascii	"+\200\273\017^\335\257E\200\341v\273Q\016>n\202\372"
ARM GAS  C:\Users\info\AppData\Local\Temp\ccewYYI6.s 			page 4


  58      5EDDAF45 
  58      80E176BB 
  58      510E3E6E 
  58      82FA
  59 0185 E7D99A18 		.ascii	"\347\331\232\0304@\016\001\312\372\326\015q\376\276"
  59      34400E01 
  59      CAFAD60D 
  59      71FEBE
  60 0194 00571BF5 		.ascii	"\000W\033\365\353\254\331;\010\034\350\367'o1\002\305"
  60      EBACD93B 
  60      081CE8F7 
  60      276F3102 
  60      C5
  61 01a5 6E1F37C3 		.ascii	"n\0377\303\376X8}puOM\365\006\235\177(\220\33366_\214"
  61      FE58387D 
  61      70754F4D 
  61      F5069D7F 
  61      2890DB36 
  62 01bc 22837EC7 		.ascii	"\"\203~\307&#P\344&\312\277N\247\034\301U5\227xt\276"
  62      262350E4 
  62      26CABF4E 
  62      A71CC155 
  62      35977874 
  63 01d1 48E0BC87 		.ascii	"H\340\274\207\203G\034\022g4.1\274\213\010t(\016h\250"
  63      83471C12 
  63      67342E31 
  63      BC8B0874 
  63      280E68A8 
  64 01e5 E1596592 		.ascii	"\341Ye\222Zl\340\307\015\215\220\015\007\361{\000\262"
  64      5A6CE0C7 
  64      0D8D900D 
  64      07F17B00 
  64      B2
  65 01f6 29B31888 		.ascii	")\263\030\210\303\240\242\010\370\364_\366}\0340\302"
  65      C3A0A208 
  65      F8F45FF6 
  65      7D1C30C2 
  66 0206 61AF1138 		.ascii	"a\257\0218\257\036\033\327\263ADK\241\270\231\201\""
  66      AF1E1BD7 
  66      B341444B 
  66      A1B89981 
  66      22
  67 0217 AE01254C 		.ascii	"\256\001%L\007\232v\340\264\352\244f\026P`f3\262\224"
  67      079A76E0 
  67      B4EAA466 
  67      16506066 
  67      33B294
  68 022a 22DA549A 		.ascii	"\"\332T\232N\023\335t\352R\370\3249\324d0\332\313\315"
  68      4E13DD74 
  68      EA52F8D4 
  68      39D46430 
  68      DACBCD
  69 023d 68B74C9A 		.ascii	"h\267L\232\310\022{0\366\0209m\310b!E\301\007\277\005"
  69      C8127B30 
  69      F610396D 
  69      C8622145 
  69      C107BF05 
ARM GAS  C:\Users\info\AppData\Local\Temp\ccewYYI6.s 			page 5


  70 0251 FEC0603B 		.ascii	"\376\300`;\020G/7\223\236\372\177\0361W\300\367E\350"
  70      10472F37 
  70      939EFA7F 
  70      1E3157C0 
  70      F745E8
  71 0264 4E20D489 		.ascii	"N \324\211\232\323P\335\234<\205&\250\000\\\322\375"
  71      9AD350DD 
  71      9C3C8526 
  71      A8005CD2 
  71      FD
  72 0275 535D8F4A 		.ascii	"S]\217Jjd\240\343\320S\032\254\266D\021\343*\002\240"
  72      6A64A0E3 
  72      D0531AAC 
  72      B64411E3 
  72      2A02A0
  73 0288 19136170 		.ascii	"\031\023apR>\034\221\230'\343=\255\232\304\330H{\225"
  73      523E1C91 
  73      9827E33D 
  73      AD9AC4D8 
  73      487B95
  74 029b C3DBD528 		.ascii	"\303\333\325(\246\\#L\213\300\210\200\265J\314\275\013"
  74      A65C234C 
  74      8BC08880 
  74      B54ACCBD 
  74      0B
  75 02ac B5755C62 		.ascii	"\265u\\b\222q\370\250g`\247=\212\031\020\230\337\004"
  75      9271F8A8 
  75      6760A73D 
  75      8A191098 
  75      DF04
  76 02be 86C8C151 		.ascii	"\206\310\301Q\211\251\373%\024pH\214\003\207?\376Z\263"
  76      89A9FB25 
  76      1470488C 
  76      03873FFE 
  76      5AB3
  77 02d0 2169929B 		.ascii	"!i\222\233\300\004\004\306D\230c\210\301gH\341\254X"
  77      C00404C6 
  77      44986388 
  77      C16748E1 
  77      AC58
  78 02e2 E337A1C8 		.ascii	"\3437\241\310Iq \342#P\034x\322\316iH\011nj\272;\250"
  78      497120E2 
  78      23501C78 
  78      D2CE6948 
  78      096E6ABA 
  79 02f8 153E35D6 		.ascii	"\025>5\326\032\206\323\307-a\005a\320\006\205\314\313"
  79      1A86D3C7 
  79      2D610561 
  79      D00685CC 
  79      CB
  80 0309 D1A61597 		.ascii	"\321\246\025\227\373\002\377\252\361W\353a\2144\203"
  80      FB02FFAA 
  80      F157EB61 
  80      8C3483
  81 0318 E3723545 		.ascii	"\343r5E\330\327vF\204\302&U6q\364\257d\\\275Y\254\266"
  81      D8D77646 
  81      84C22655 
ARM GAS  C:\Users\info\AppData\Local\Temp\ccewYYI6.s 			page 6


  81      3671F4AF 
  81      645CBD59 
  82 032e 9572B3D0 		.ascii	"\225r\263\320\324\251\252\332\257\266\301\017E\345b"
  82      D4A9AADA 
  82      AFB6C10F 
  82      45E562
  83 033d DA0EBF43 		.ascii	"\332\016\277C!\234 }\343o\341\321\375{\255\022bl\002"
  83      219C207D 
  83      E36FE1D1 
  83      FD7BAD12 
  83      626C02
  84 0350 32D40EDB 		.ascii	"2\324\016\333D\016\031t@\241\217'\011\257L\261^)\354"
  84      440E1974 
  84      40A18F27 
  84      09AF4CB1 
  84      5E29EC
  85 0363 3A140F78 		.ascii	":\024\017xk\312\322e\266)w\373\3566\375\223D\\P\241"
  85      6BCAD265 
  85      B62977FB 
  85      EE36FD93 
  85      445C50A1 
  86 0377 7032F2FA 		.ascii	"p2\362\372\204\0243k\343\234\234\252,\201\027zuj\246"
  86      8414336B 
  86      E39C9CAA 
  86      2C81177A 
  86      756AA6
  87 038a 57C971BC 		.ascii	"W\311q\274J.\345j\034\257\034p\032\275\352\214\343\325"
  87      4A2EE56A 
  87      1CAF1C70 
  87      1ABDEA8C 
  87      E3D5
  88 039c 1AB2D335 		.ascii	"\032\262\3235\351T\367\224Sj\224\332\226\227P\353\231"
  88      E954F794 
  88      536A94DA 
  88      969750EB 
  88      99
  89 03ad 49CD1987 		.ascii	"I\315\031\207\232\263\224\004>\203\332+p\026\251\235"
  89      9AB39404 
  89      3E83DA2B 
  89      7016A99D 
  90 03bd 894FCD09 		.ascii	"\211O\315\011\275\223\324\376\230\242\246\305\306\233"
  90      BD93D4FE 
  90      98A2A6C5 
  90      C69B
  91 03cb 0B155DEE 		.ascii	"\013\025]\356H\240\242W\303\012U\311sQ\025\275&TtE\213"
  91      48A0A257 
  91      C30A55C9 
  91      735115BD 
  91      26547445 
  92 03e0 BF7A5618 		.ascii	"\277zV\030\323\311\240o\322\251\322\326\352\336d)\364"
  92      D3C9A06F 
  92      D2A9D2D6 
  92      EADE6429 
  92      F4
  93 03f1 4C380F2E 		.ascii	"L8\017.\037\237\315\206\301;\346o\313\220\351u`\206"
  93      1F9FCD86 
  93      C13BE66F 
ARM GAS  C:\Users\info\AppData\Local\Temp\ccewYYI6.s 			page 7


  93      CB90E975 
  93      6086
  94 0403 E11D174D 		.ascii	"\341\035\027M\216\253r\312\211\263\010=4|\252]\227I"
  94      8EAB72CA 
  94      89B3083D 
  94      347CAA5D 
  94      9749
  95 0415 37002EA0 		.ascii	"7\000.\240\217#`N\270-\312\021\202r[\264@\333\220[c"
  95      8F23604E 
  95      B82DCA11 
  95      82725BB4 
  95      40DB905B 
  96 042a 0978A257 		.ascii	"\011x\242W\230i\2708\345\025E\306\022\033\031\22301"
  96      9869B838 
  96      E51545C6 
  96      121B1993 
  96      3031
  97 043c 91D80405 		.ascii	"\221\330\004\005\246\177\312\3040x\232\033\302\025\\"
  97      A67FCAC4 
  97      30789A1B 
  97      C2155C
  98 044b 7A317B7A 		.ascii	"z1{zJS\344Q\326\321\271\326N\3113\304\033\201\345.\325"
  98      4A53E451 
  98      D6D1B9D6 
  98      4EC933C4 
  98      1B81E52E 
  99 0460 CB67C140 		.ascii	"\313g\301@$}\3257={\265\371\357R\254\0061q\317\024Q"
  99      247DD537 
  99      3D7BB5F9 
  99      EF52AC06 
  99      3171CF14 
 100 0475 CD2EC17C 		.ascii	"\315.\301|6\004\036c\241(\320XA\2752\204U\376\211H\010"
 100      36041E63 
 100      A128D058 
 100      41BD3284 
 100      55FE8948 
 101 048a 53E466EB 		.ascii	"S\344f\353&\202e\026\031j\013\\F\233C\240LaR$\275\023"
 101      26826516 
 101      196A0B5C 
 101      469B43A0 
 101      4C615224 
 102 04a0 1EB304A5 		.ascii	"\036\263\004\245N\247\307c\350\341\253\232\206.\301"
 102      4EA7C763 
 102      E8E1AB9A 
 102      862EC1
 103 04af 9599BCAE 		.ascii	"\225\231\274\256\012^\242b^C^Hc\243\277+R\226\323\004"
 103      0A5EA262 
 103      5E435E48 
 103      63A3BF2B 
 103      5296D304 
 104 04c3 93D4D86D 		.ascii	"\223\324\330m\323\204\\*;\023\250+\242\227\353\223z"
 104      D3845C2A 
 104      3B13A82B 
 104      A297EB93 
 104      7A
 105 04d4 29B963B4 		.ascii	")\271c\264\232\244\023n\030\232\324\313\270\177\340"
 105      9AA4136E 
ARM GAS  C:\Users\info\AppData\Local\Temp\ccewYYI6.s 			page 8


 105      189AD4CB 
 105      B87FE0
 106 04e3 2DB94B3A 		.ascii	"-\271K:\332|\251\030\310\346\215\250\030\322\245\015"
 106      DA7CA918 
 106      C8E68DA8 
 106      18D2A50D 
 107 04f3 74BE7DC8 		.ascii	"t\276}\310!\215\270b\275M\224\205\233\302[Q\353oIo\307"
 107      218DB862 
 107      BD4D9485 
 107      9BC25B51 
 107      EB6F496F 
 108 0508 FD1F480B 		.ascii	"\375\037H\013s\244\221\306\373\265\215\221\302\024`"
 108      73A491C6 
 108      FBB58D91 
 108      C21460
 109 0517 30FC3F68 		.ascii	"0\374?h\335\216\322\232C\264HuV\20673\216)v\212\243"
 109      DD8ED29A 
 109      43B44875 
 109      56863733 
 109      8E29768A 
 110 052c CF8BC910 		.ascii	"\317\213\311\020l\273>\222[e<\257\2345/\020\316\210"
 110      6CBB3E92 
 110      5B653CAF 
 110      9C352F10 
 110      CE88
 111 053e A02C8E9A 		.ascii	"\240,\216\232;\021\341XE6\016R62\204\345P\327\247\322"
 111      3B11E158 
 111      45360E52 
 111      363284E5 
 111      50D7A7D2 
 112 0552 B2FB79CB 		.ascii	"\262\373y\313\025\2115i\206QaZ\234H\177FL'\011\323\007"
 112      15893569 
 112      8651615A 
 112      9C487F46 
 112      4C2709D3 
 113 0567 C8B45B6A 		.ascii	"\310\264[j\362\302.\223\264\235\211\273\011\025\216"
 113      F2C22E93 
 113      B49D89BB 
 113      09158E
 114 0576 408213E7 		.ascii	"@\202\023\347\3650\226\"\006w\243\001A\004\336w\322"
 114      F5309622 
 114      0677A301 
 114      4104DE77 
 114      D2
 115 0587 A5A8AEEC 		.ascii	"\245\250\256\354\316\225v\2620\036\010=\347=q&r\310"
 115      CE9576B2 
 115      301E083D 
 115      E73D7126 
 115      72C8
 116 0599 8601EE4D 		.ascii	"\206\001\356MS\267\010Y\026\035\032\203\336\003\225"
 116      53B70859 
 116      161D1A83 
 116      DE0395
 117 05a8 5A04153D 		.ascii	"Z\004\025=%\306\000\260\300X\260\311\262\267\234_\212"
 117      25C600B0 
 117      C058B0C9 
 117      B2B79C5F 
ARM GAS  C:\Users\info\AppData\Local\Temp\ccewYYI6.s 			page 9


 117      8A
 118 05b9 D70A3BC3 		.ascii	"\327\012;\303\2132\204\024\235^vQ\372\022\2113R$\356"
 118      8B328414 
 118      9D5E7651 
 118      FA128933 
 118      5224EE
 119 05cc C716091B 		.ascii	"\307\026\011\033\335G\250H\210\353\306(\245\315+\356"
 119      DD47A848 
 119      88EBC628 
 119      A5CD2BEE 
 120 05dc 0363A04C 		.ascii	"\003c\240L\177\247\360\257\000<\000\227\2625\270\032"
 120      7FA7F0AF 
 120      003C0097 
 120      B235B81A 
 121 05ec A70F9674 		.ascii	"\247\017\226t5\350r\032\340!\270\324\226\340\027\364"
 121      35E8721A 
 121      E021B8D4 
 121      96E017F4 
 122 05fc C431B666 		.ascii	"\3041\266f\321\352\242\325\350\356\003\270\011\332|"
 122      D1EAA2D5 
 122      E8EE03B8 
 122      09DA7C
 123 060b 63DEBC25 		.ascii	"c\336\274%\337\346-\313\315/X\271\242\000{\253\363\362"
 123      DFE62DCB 
 123      CD2F58B9 
 123      A2007BAB 
 123      F3F2
 124 061d 97E62F2F 		.ascii	"\227\346//\370</\357\275\334y\005\314D3\374\353\225"
 124      F83C2FEF 
 124      BDDC7905 
 124      CC4433FC 
 124      EB95
 125 062f CBB44F56 		.ascii	"\313\264OV,\313\377\362\233U\342\271|\325\012\216_("
 125      2CCBFFF2 
 125      9B55E2B9 
 125      7CD50A8E 
 125      5F28
 126 0641 80D5FF01 		.ascii	"\200\325\377\001\002\312\332\364"
 126      02CADAF4 
 127              		.text
 128              		.section	.gnu.lto_u8x8_d_pcf8812_96x65_init_seq.792a35c4,"",%progbits
 129 0000 789C4D8F 		.ascii	"x\234M\217]K\002A\030\205\347\235uM\3234\210\242`/\012"
 129      5D4B0241 
 129      1885E79D 
 129      754DD334 
 129      88A2602F 
 130 0015 FA03D58D 		.ascii	"\372\003\325\215?\257\300\015\351\252 \022\244(\372"
 130      3FAFC00D 
 130      E9AA2012 
 130      A428FA
 131 0024 C0D4FCA8 		.ascii	"\300\324\374\250\314\334UK\212.\012\203\354&\244.\002"
 131      CCDC554B 
 131      8A2E0A83 
 131      EC26A42E 
 131      02
 132 0035 0D22224C 		.ascii	"\015\"\"L\026\214L\355l3\027\015<\314>\2343\363\356"
 132      168C4CED 
ARM GAS  C:\Users\info\AppData\Local\Temp\ccewYYI6.s 			page 10


 132      6C33170D 
 132      3CCC3E9C 
 132      33F3EE
 133 0048 3818317B 		.ascii	"8\0301{\215q&\277\030\353rJ\353\215\230\313\342\272"
 133      8D7126BF 
 133      18EB724A 
 133      EB8D98CB 
 133      E2BA
 134 005a C2A84FF0 		.ascii	"\302\250O\360\373fe\303c;\3210\324\012Wj~\021O@S-+\345"
 134      FB6665C3 
 134      633BD130 
 134      D40A576A 
 134      7E114F40 
 135 0072 14A91FFA 		.ascii	"\024\251\037\372U\254ns\221NC\273O\013=.R\037\264\036"
 135      55AC6E73 
 135      914E43BB 
 135      4F0B3D2E 
 135      521FB41E 
 136 0086 ED859D22 		.ascii	"\355\205\235\"\035\205\356\274\031\227\252H\207\240"
 136      1D85EEBC 
 136      1997AA48 
 136      87A0
 137 0094 6BD97CDC 		.ascii	"k\331|\334#\322M{p\347u\265F\"\366B\037jAC\252\307\376"
 137      23D24D7B 
 137      70E775B5 
 137      4622F642 
 137      1F6A4143 
 138 00ab 0F63F1DB 		.ascii	"\017c\361\333'\332#\366\244\346]\327+\322Ah\"\267g\312"
 138      27DA23F6 
 138      A4E65DD7 
 138      2BD24168 
 138      22B767CA 
 139 00bf B21BDAE8 		.ascii	"\262\033\332\350$MYv\332g\227\364\266\"\322\001h\350"
 139      244D5976 
 139      DA6797F4 
 139      B622D201 
 139      68E8
 140 00d1 F1DDF28A 		.ascii	"\361\335\362\212t\352\177\231\376\312\327\273\346\217"
 140      74EA7F99 
 140      FECAD7BB 
 140      E68F
 141 00df BC598546 		.ascii	"\274Y\205F\012\326\215*\312.h5\230Y\227W9\240\027\255"
 141      0AD68D2A 
 141      CA2E6835 
 141      98599757 
 141      39A017AD 
 142 00f3 4C549615 		.ascii	"LT\226\025\350\347m\244.\347NB\257\372\355\262_\244"
 142      E8E76DA4 
 142      2EE74E42 
 142      AFFAEDB2 
 142      5FA4
 143 0105 1CFA117C 		.ascii	"\034\372\021|y\226\017\036\207\026\022+%w 7\037\332"
 143      79960F1E 
 143      8716122B 
 143      25772037 
 143      1FDA
 144 0117 9A5F5675 		.ascii	"\232_Vu\205\323\214F\347\244\321\254FIlg\240\004\212"
ARM GAS  C:\Users\info\AppData\Local\Temp\ccewYYI6.s 			page 11


 144      85D38C46 
 144      E7A4D1AC 
 144      46496C67 
 144      A0048A
 145 012a 24BC004C 		.ascii	"$\274\000L`H\317\203S\220\223>\247\321\011\266\254\324"
 145      6048CF83 
 145      5390933E 
 145      A7D109B6 
 145      ACD4
 146 013c 6370040E 		.ascii	"cp\004\016\245g@\032\244\244\037\200\004\210\203\030"
 146      A567401A 
 146      A4A41F80 
 146      04888318 
 147 014c D80751D2 		.ascii	"\330\007Q\322\030\225)\300~\001t\245\263\202"
 147      189529C0 
 147      7E0174A5 
 147      B382
 148              		.text
 149              		.section	.gnu.lto_u8x8_d_pcf8812_96x65_powersave0_seq.792a35c4,"",%progbits
 150 0000 789C2DCB 		.ascii	"x\234-\313\315\012\001Q\030\306\361\363\316 \241\261"
 150      CD0A0151 
 150      18C6F1F3 
 150      CE20A1B1 
 151 0010 52D42CDC 		.ascii	"R\324,\334\002\253\271,\227`1S.@M\311BQc|\016\312\302"
 151      02ABB92C 
 151      97603153 
 151      2E404DC9 
 151      4251637C 
 152 0027 4A8A522C 		.ascii	"J\212R,,g\247f\224\025a\312b|=\323\353\324\3239\277"
 152      2C67A766 
 152      941561CA 
 152      627C3DD3 
 152      EBD4D339 
 153 003c FE9D9820 		.ascii	"\376\235\230 \021\235\007\306/!\336\022\215\015\337"
 153      119D07C6 
 153      2F21DE12 
 153      8D0DDF
 154 004b 4E069221 		.ascii	"N\006\222!\013\372\022\354\207\303\205\022\231(\001"
 154      0BFA12EC 
 154      87C38512 
 154      992801
 155 005a 06E6CECD 		.ascii	"\006\346\316\315r.\200\333\316\342\225\341\032\007\303"
 155      722E80DB 
 155      CEE295E1 
 155      1A07C3
 156 0069 73DD25AE 		.ascii	"s\335%\256\031\360\240;M\231k\014\364\254\217\231\340"
 156      19F0A03B 
 156      4D996B0C 
 156      F4AC8F99 
 156      E0
 157 007a 9A035777 		.ascii	"\232\003Ww\307\372\377\225\301\333\276\341)\\\213\340"
 157      C7FAFF95 
 157      C1DBBEE1 
 157      295C8BE0 
 158 008a FAFB5C66 		.ascii	"\372\373\\f\271J\340E?\035\323\\\363\340\354\272i\247"
 158      B94AE045 
 158      3F1DD35C 
ARM GAS  C:\Users\info\AppData\Local\Temp\ccewYYI6.s 			page 12


 158      F3E0ECBA 
 158      69A7
 159 009c B479B5D6 		.ascii	"\264y\265\326\252V\014Y\242\222J\023R\251\254\322\020"
 159      AA560C59 
 159      A2924A13 
 159      52A9ACD2 
 159      10
 160 00ad 97838DB1 		.ascii	"\227\203\215\261\021\261\007X\037\353a6\326\305,R\005"
 160      11B10758 
 160      1FEB6136 
 160      D6C52C52 
 160      05
 161 00be 4D49133F 		.ascii	"MI\023?C\272S\362"
 161      43BA53F2 
 162              		.text
 163              		.section	.gnu.lto_u8x8_d_pcf8812_96x65_powersave1_seq.792a35c4,"",%progbits
 164 0000 789C2DCC 		.ascii	"x\234-\314?k\302@\030\307\361{\356\374\007\0253\011"
 164      3F6BC240 
 164      18C7F17B 
 164      EEFC0715 
 164      3309
 165 0012 166E50F0 		.ascii	"\026nP\360\015\330.\276\274\014\011H'\027\011H\007)"
 165      0DD82EBE 
 165      BC0C0948 
 165      27170948 
 165      0729
 166 0024 42AAD69A 		.ascii	"B\252\326\232\376\241C\332\241\010\016\025\035\034\273"
 166      FEA143DA 
 166      A1080E15 
 166      1D1CBB
 167 0033 15121D1C 		.ascii	"\025\022\035\034\012\225@\204\266\352/<\011|\271|\370"
 167      0A954084 
 167      B6EA2F3C 
 167      097CB97C 
 167      F8
 168 0044 1D971124 		.ascii	"\035\227\021$\222\257\206\203\377\204\370\2274\261\303"
 168      92AF8683 
 168      FF84F897 
 168      34B1C3
 169 0053 412192B6 		.ascii	"A!\222\266\022t$8r\026\237\006\373<\341\225\035\253"
 169      12742438 
 169      72169F06 
 169      FB3CE195 
 169      1DAB
 170 0065 84447970 		.ascii	"\204Dyp\377\266\272\221\274\326\301\360w\354\227x\315"
 170      FFB6BA91 
 170      BCD6C1F0 
 170      77EC9778 
 170      CD
 171 0076 81817B70 		.ascii	"\201\201{pr\274\226\301\217\276\377W\3445\013v_\243"
 171      72BC96C1 
 171      8FBEFF57 
 171      E4350B76 
 171      5FA3
 172 0088 7996D702 		.ascii	"y\226\327\002\270\262\274\353\364\345\0148\335ynzY\201"
 172      B8B2BCEB 
 172      F4E50C38 
ARM GAS  C:\Users\info\AppData\Local\Temp\ccewYYI6.s 			page 13


 172      DD796E7A 
 172      5981
 173 009a 3FCB6E50 		.ascii	"?\313nP\342\313Upv\214\337\015^%\370m\255\277\316x\255"
 173      E2CB5570 
 173      768CDF0D 
 173      5E25F86D 
 173      ADBFCE78 
 174 00af 809DE576 		.ascii	"\200\235\345v#\233/f\253g\266\225\255$54=\221\246\013"
 174      239B2F66 
 174      AB67B695 
 174      AD243534 
 174      3D91A60B 
 175 00c3 4D77381E 		.ascii	"Mw8\036\321\003\362\210=A\367h\234z\204\206h\200n\321"
 175      D103F288 
 175      3D41F768 
 175      9C7A8486 
 175      68806ED1 
 176 00d7 A52697B4 		.ascii	"\245&\227\264\240gj\212\023\371\350a2"
 176      A0676A8A 
 176      13F9E861 
 176      32
 177              		.text
 178              		.section	.gnu.lto_u8x8_d_pcf8812_96x65.792a35c4,"",%progbits
 179 0000 789C6552 		.ascii	"x\234eRMHTQ\024\276\337;o\346\315\274\361o\351b\010"
 179      4D485451 
 179      14BEDF3B 
 179      6FE6CDBC 
 179      F16FE962 
 180 0015 DB24B610 		.ascii	"\333$\266\020\263\315\264q\337\266u1\304T\022Q\210\032"
 180      B3CDB471 
 180      DFB67531 
 180      C4541251 
 180      881A
 181 0027 B89BABCF 		.ascii	"\270\233\253\317\207E\005BT\"\212A\210\245\345_i\215"
 181      87450542 
 181      54228A41 
 181      88A5E55F 
 181      698D
 182 0039 054D059A 		.ascii	"\005M\005\232\251\305\220\020V\240\025b\210T\323\017"
 182      A9C59010 
 182      56A01562 
 182      8854D30F 
 183 0049 42304EE7 		.ascii	"B0N\347\334\321M^x\334s\317;\337w\276\363\335k+(Y\031"
 183      DCD14D5E 
 183      78DC73CF 
 183      3BDF77BE 
 183      F3DD6B2B 
 184 0060 4BA943BC 		.ascii	"K\251C\274\327\361\207\240\202\325\371Z\251\326\220"
 184      D7F187A0 
 184      82D5F95A 
 184      A9D690
 185 006f 65D14CA9 		.ascii	"e\321L\251\322\256=[\247t\021!PH\333;A\000\220@\207"
 185      D2AE3D5B 
 185      A7741121 
 185      5048DB3B 
 185      41009040 
 186 0084 A09216D9 		.ascii	"\240\222\026\331\001$\361\307\312Y\230\333|y\331\255"
ARM GAS  C:\Users\info\AppData\Local\Temp\ccewYYI6.s 			page 14


 186      0124F1C7 
 186      CA5998DB 
 186      7C79D9AD 
 187 0094 1AD0BA4D 		.ascii	"\032\320\272M\257\254>>\234m\363\313}R*o)\034\214\242"
 187      AFAC3E3E 
 187      9C6DF3CB 
 187      7D522A6F 
 187      291C8CA2 
 188 00a8 262A5D06 		.ascii	"&*]\006P\305\225\231\366\321\036\372m\371\004\330|\314"
 188      50C59599 
 188      F6D11EFA 
 188      6DF904D8 
 188      7CCC
 189 00ba 2E747F29 		.ascii	".t\177)\221\243\205\012>\336\\\274\3651H{\2418\276\376"
 189      91A3850A 
 189      3EDE5CBC 
 189      F531487B 
 189      A138BEFE 
 190 00ce 6AF15B71 		.ascii	"j\361[qe\277p\352\336\223:\354\023a\020$\234w\020\305"
 190      65BF70EA 
 190      DE933AEC 
 190      13611024 
 190      9C7710C5 
 191 00e2 6D4415A7 		.ascii	"mD\025\247\024\206P\311\325\363\243\251w6\3553\310\315"
 191      148650C9 
 191      D5F3A3A9 
 191      7736ED33 
 191      C8CD
 192 00f4 272F723B 		.ascii	"'/r;\310\245c\232X\012\356\026\220\0055\242\015\367"
 192      C8A5639A 
 192      580AEE16 
 192      900535A2 
 192      0DF7
 193 0106 0CAE2BB3 		.ascii	"\014\256+\263r\305\245\375\006\327\263\372})\260\215"
 193      72C5A5FD 
 193      06D7B3FA 
 193      7D29B08D 
 194 0116 BB3A1DD1 		.ascii	"\273:\035\3215\002\034\336\005\0341\300\245\265\205"
 194      35021CDE 
 194      051C31C0 
 194      A5B585
 195 0125 B72ED51A 		.ascii	"\267.\325\032\340\340\304\362\270\263\015\314L\027\351"
 195      E0E0C4F2 
 195      B8B30DCC 
 195      4C17E9
 196 0134 4EF86463 		.ascii	"N\370dc\364\177\261\266\302\030*\005\360yl\353Zq\260"
 196      F47FB1B6 
 196      C2182A05 
 196      F0796CEB 
 196      5A71B0
 197 0147 5DF3AA10 		.ascii	"]\363\252\020\227\230u\034A\271\232\221#i\235\317{:"
 197      9798751C 
 197      41B99A91 
 197      23699DCF 
 197      7B3A
 198 0159 9D8D3CDB 		.ascii	"\235\215<\333\212D -\331+\026\313\336\363\250\016\244"
 198      8A44202D 
ARM GAS  C:\Users\info\AppData\Local\Temp\ccewYYI6.s 			page 15


 198      D92B16CB 
 198      DEF3A80E 
 198      A4
 199 016a 7F08C2E4 		.ascii	"\177\010\302\344\032=\352\007\343\345V\262\226%;}B\373"
 199      1A3DEA07 
 199      E3E556B2 
 199      96253B7D 
 199      42FB
 200 017c 7B6FED46 		.ascii	"{o\355F\271PzD\334nh\262\177\012\342r\000a\334G\324"
 200      B9507A44 
 200      DC6E68B2 
 200      7F0AE272 
 200      0061DC47 
 201 0191 3C81AC45 		.ascii	"<\201\254Ej\246\224\276\302Oo\316\221\024\213\262Tj"
 201      6AA694BE 
 201      C24F6FCE 
 201      91148BB2 
 201      546A
 202 01a3 E38393CC 		.ascii	"\343\203\223\314\351\013Z\227\371\024\314[,\012\017"
 202      E90B5A97 
 202      F914CC5B 
 202      2C0A0F
 203 01b2 90541E05 		.ascii	"\220T\036\005\344R\374\347o\034ar\314\340\336\337\247"
 203      E452FCE7 
 203      6F1C6172 
 203      CCE0DEDF 
 203      A7
 204 01c3 BF4AB8BA 		.ascii	"\277J\270\272\313T;\027E\016\247g\273\207\316\364\241"
 204      CB543B17 
 204      450EA767 
 204      BB87CEF4 
 204      A1
 205 01d4 B7B5D3A4 		.ascii	"\267\265\323\244C\230\344w2!m\371_~}|8\314\220r\341"
 205      4398E477 
 205      32216DF9 
 205      5F7E7D7C 
 205      38CC9072 
 206 01e9 78883E98 		.ascii	"x\210>\230\316x\204\244Oa#\313V\263u,\253#\235\273T"
 206      CE7884A4 
 206      4F6123CB 
 206      56B3752C 
 206      AB239DBB 
 207 01fe 5298C1DD 		.ascii	"R\230\301\335%\314\315\363\260\012\251\2020\236\322"
 207      25CCCDF3 
 207      B00AA982 
 207      309ED2
 208 020d 23C7A390 		.ascii	"#\307\243\220O\021C\0210F\254\243\255\214\177\213\255"
 208      4F114311 
 208      3046ACA3 
 208      AD8C7F8B 
 208      AD
 209 021e 3F01E698 		.ascii	"?\001\346\230\350\230\037sE\275\0020\205(\315/\2670"
 209      E8981F73 
 209      45BD0230 
 209      8528CD2F 
 209      B730
 210 0230 BBBDB1DC 		.ascii	"\273\275\261\334\300.B@\314\272\247\272\372\350\371"
ARM GAS  C:\Users\info\AppData\Local\Temp\ccewYYI6.s 			page 16


 210      C02E4240 
 210      CCBAA7BA 
 210      FAE8F9
 211 023f 587D6D3C 		.ascii	"X}m<\321\324\230\340\250%\026?\021oH\234\212\305\016"
 211      D1D498E0 
 211      A825163F 
 211      116F489C 
 211      8AC50E
 212 0252 D4562794 		.ascii	"\324V'\224-\031:\333T\357\034o\254\217\237>\327l\366"
 212      2D193ADB 
 212      54EF1C6F 
 212      AC8F9F3E 
 212      D76CF6
 213 0265 86E6C67F 		.ascii	"\206\346\306\177\226\344\005\312"
 213      96E405CA 
 214              		.text
 215              		.section	.gnu.lto_u8x8_pcf8812_96x65_display_info.792a35c4,"",%progbits
 216 0000 789C2DCD 		.ascii	"x\234-\315OK\002A\030\307\361\371\315\354\246kkZg_\200"
 216      4F4B0241 
 216      18C7F1F9 
 216      CDECA66B 
 216      6B5A675F 
 217 0015 2FC1B7E0 		.ascii	"/\301\267\340\273Z$\245\253!^4\010B\312?\351\272\224"
 217      BB5A24A5 
 217      AB215E34 
 217      0842CA3F 
 217      E9BA94
 218 0028 609D8C40 		.ascii	"`\235\214@\350\326\321\303B\007\211\002\361\222(\022"
 218      E8D6D1C3 
 218      42078902 
 218      F1922812 
 219 0038 4AF3EB71 		.ascii	"J\363\353q.\337\3710\317\3038\012\212\247h#7\245v\032"
 219      2EDFF930 
 219      CFC3380A 
 219      8AA76823 
 219      37A5761A 
 220 004c E3A017FB 		.ascii	"\343\240\027\373+]6\012\023\272\364<\253f\304\037\364"
 220      2B5D360A 
 220      13BAF43C 
 220      AB66C41F 
 220      F4
 221 005d 6031DEA6 		.ascii	"`1\336\246i\200\354\216ZO\020z\226\277_\265\331\201"
 221      6980EC8E 
 221      5A4F107A 
 221      96BF5FB5 
 221      D981
 222 006f BEE576D3 		.ascii	"\276\345v\323\334\270\302:\254\033?\361\267'\316[\276"
 222      DCB8C23A 
 222      AC1B3FF1 
 222      B727CE5B 
 222      BE
 223 0080 9F874D23 		.ascii	"\237\207M#t,\343(\272\372\237\326\010.W\234\177\273"
 223      742CE328 
 223      BAFA9FD6 
 223      082E579C 
 223      7FBB
 224 0092 59BF1CF6 		.ascii	"Y\277\034\366\347\374\355\341uZI\212\371\374\371\030"
ARM GAS  C:\Users\info\AppData\Local\Temp\ccewYYI6.s 			page 17


 224      E7FCEDE1 
 224      755A498A 
 224      F9FCF918 
 225 00a2 2FDDC228 		.ascii	"/\335\302(\270\270\016B\267l\314^+\264\221\333k`\310"
 225      B8B80E42 
 225      B76CCC5E 
 225      2BB491DB 
 225      6B60C8
 226 00b5 68848C91 		.ascii	"h\204\214\2218\022Wr$IH\222\0300\236\254\247\320g\216"
 226      38125772 
 226      24494892 
 226      18309EAC 
 226      A7D0678E 
 227 00c9 71CFF8E8 		.ascii	"q\317\370\3501it\231\023t\230\214Lf%\247\270c\316p\213"
 227      31697499 
 227      1374988C 
 227      4C6625A7 
 227      B863CE70 
 228 00de 9C428482 		.ascii	"\234B\204\202\372\0038=n\351"
 228      FA03383D 
 228      6EE9
 229              		.text
 230              		.section	.gnu.lto_.symbol_nodes.792a35c4,"",%progbits
 231 0000 789C55CB 		.ascii	"x\234U\313\275jBA\020\206\341wv\366\374\371WX[\350\255"
 231      BD6A4241 
 231      1086E177 
 231      76F6FCF9 
 231      57585BE8 
 232 0015 58E6A666 		.ascii	"X\346\246f\013QH\221\004\004k\0036\261\263\267\334R"
 232      0B514891 
 232      04046B03 
 232      36B1B3B7 
 232      DC52
 233 0027 BC86241C 		.ascii	"\274\206$\034ls\0139g5\220\255\036^\346\033\217\260"
 233      6C730B39 
 233      673590AD 
 233      1E5EE61B 
 233      8FB0
 234 0039 14C0A9C1 		.ascii	"\024\300\251\301\333\025:>\302{P( LA\013\221\273\316"
 234      DB153A3E 
 234      C27B5028 
 234      204C410B 
 234      91BBCE
 235 004c 255D61F2 		.ascii	"%]a\3627=\206E7\364\232\01622\227\016\335c\230\203\214"
 235      373D8645 
 235      37F49A0E 
 235      3232970E 
 235      DD639883 
 236 0061 4DB31E98 		.ascii	"M\263\036\230\317\272\261\"\353\241\225Y\327Ve]Y\235"
 236      CFBAB122 
 236      EBA19559 
 236      D756655D 
 236      599D
 237 0073 7569CDFF 		.ascii	"ui\315\377VF\264\2373e\310\352+\321\236&\251\3267Q\032"
 237      5646B49F 
 237      3365C8EA 
 237      2BD19E26 
ARM GAS  C:\Users\info\AppData\Local\Temp\ccewYYI6.s 			page 18


 237      A9D63751 
 238 0088 E2FAA24A 		.ascii	"\342\372\242JM\233\034\0207\275%m\262\341\360|\277\037"
 238      4D9B1C10 
 238      37BD256D 
 238      B2E1F07C 
 238      BF1F
 239 009a 5E1EBB87 		.ascii	"^\036\273\207\361\265\267\"n\177\236\372}\334u\355\307"
 239      F1B5B722 
 239      6E7F9EFA 
 239      7DDC75ED 
 239      C7
 240 00ab C4F34C3D 		.ascii	"\304\363L=|\357o\302/\253\235D\376"
 240      7CEF6FC2 
 240      2FAB9D44 
 240      FE
 241              		.text
 242              		.section	.gnu.lto_.refs.792a35c4,"",%progbits
 243 0000 789C6361 		.ascii	"x\234ca`d\020d```f`bdabbgb\346\000\322\254L\014\000"
 243      60641064 
 243      60606066 
 243      60626461 
 243      62626762 
 244 001b 03970047 		.ascii	"\003\227\000G"
 245              		.text
 246              		.section	.gnu.lto_.decls.792a35c4,"",%progbits
 247 0000 789CBD58 		.ascii	"x\234\275XkP\024Y\226\256\233\267\240\212\242@E\354"
 247      6B501459 
 247      96AE9BB7 
 247      A08AA240 
 247      45EC
 248 0012 3166D969 		.ascii	"1f\331i\243\233V6b\306\361\321c\270\373g\273\243wg{"
 248      A39B5636 
 248      62C6F1D1 
 248      63B8FB67 
 248      BBA37767 
 249 0027 26363666 		.ascii	"&66fc\246{#&\230\250-\213Dk\032\212\352\252\302\307"
 249      63A67B23 
 249      2698A82D 
 249      8B446B1A 
 249      8AEAAAC2 
 250 003c FC994410 		.ascii	"\374\231D\020\021\033\004T\344e\203\370\000\004|\201"
 250      111B0454 
 250      E46583F8 
 250      00047C81 
 251 004c F800A406 		.ascii	"\370\000\244\006\337\202\212\245\240\010\202\342\013"
 251      DF828AA5 
 251      A00882E2 
 251      0B
 252 0059 1F20028A 		.ascii	"\037 \002\212\212\302\236{ofe\026f\365\354\217\235-"
 252      8AC29E7B 
 252      6F666516 
 252      66F5EC8F 
 252      9D2D
 253 006b FDC83CF7 		.ascii	"\375\310<\367~\367\334\357\234\373\310\233\251\325 "
 253      7EF7DCEF 
 253      9CFBC89B 
 253      A9D520
ARM GAS  C:\Users\info\AppData\Local\Temp\ccewYYI6.s 			page 19


 254 007a 0DF9157E 		.ascii	"\015\371\025~\250\321\264\004h4E\234F3\011?\035\224"
 254      A8D1B404 
 254      6834459C 
 254      4633093F 
 254      1D94
 255 008c 7DAD917F 		.ascii	"}\255\221\177\006\300\347@\375\002\360+\300\177\002"
 255      06C0E740 
 255      FD02F02B 
 255      C07F02
 256 009b FE0BF07B 		.ascii	"\376\013\360{\300\037\000\313\000\261\200o\000Z\340"
 256      C01F00CB 
 256      00B1806F 
 256      005AE0
 257 00aa 3AE0BA06 		.ascii	":\340\272\006 \000\326\"\215\317\217\370\371;\270\036"
 257      2000D622 
 257      8DCF8FF8 
 257      F93BB81E 
 258 00ba 028401C2 		.ascii	"\002\204\001\302\001\037B\331Wp\375w\270F\210}'\303"
 258      011F42D9 
 258      5770FD77 
 258      B846887D 
 258      27C3
 259 00cc 3D0F4801 		.ascii	"=\017H\001\254\003|\0130\003R\001\253\001\353\001\177"
 259      AC037C0B 
 259      30035201 
 259      AB01EB01 
 259      7F
 260 00dd 06A401BE 		.ascii	"\006\244\001\276\004l\000|\015\310\007\344\001\346\000"
 260      046C007C 
 260      0DC807E4 
 260      01E600
 261 00ec 0A00BF01 		.ascii	"\012\000\277\001@h\232,\270\376\024\260\031\220\003"
 261      40689A2C 
 261      B8FE14B0 
 261      199003
 262 00fb D802D08B 		.ascii	"\330\002\320\213zb\305\030~/\306\365\007E\234\204S\010"
 262      7A62C518 
 262      7E2FC6F5 
 262      07459C84 
 262      5308
 263 010d D722C076 		.ascii	"\327\"\300v\300\367\200b\344\033\243\362G\312\261\206"
 263      C0F78062 
 263      E41BA3F2 
 263      47CAB186 
 264 011d C54162FB 		.ascii	"\305Ab\373vJ\275\362\267f\012w\365\017p\205)\334?\377"
 264      764ABDF2 
 264      B7660A77 
 264      F50F7085 
 264      29DC3FFF 
 265 0131 00978C93 		.ascii	"\000\227\214\223\321O\216I\373\022\270\237\015\370\021"
 265      D14F8E49 
 265      FB12B89F 
 265      0DF811
 266 0140 E08F8045 		.ascii	"\340\217\200E\200\305\242?,\266'cIrC\212\247\216\341"
 266      80C5A23F 
 266      2CB62763 
 266      4972438A 
ARM GAS  C:\Users\info\AppData\Local\Temp\ccewYYI6.s 			page 20


 266      A78EE1
 267 0153 5A719CE7 		.ascii	"Zq\234\347\212\376\346i\230\257\231p\015$u\000\016\240"
 267      8AFEE669 
 267      98AF9970 
 267      0D247500 
 267      0EA0
 268 0165 23F9034C 		.ascii	"#\371\003L\007L\022\337\204C\264\001\202\001A\200\020"
 268      074C12DF 
 268      8443B401 
 268      82014180 
 268      10
 269 0176 C00CE21F 		.ascii	"\300\014\342\037` cE\372\004\204\372\211\357\035\207"
 269      60206345 
 269      FA0484FA 
 269      89EF1D87 
 270 0186 92FB1E97 		.ascii	"\222\373\036\227\350\273P'\320\020\375i\304yL\032\""
 270      E8BB5027 
 270      D010FD69 
 270      C4794C1A 
 270      22
 271 0197 F1AA11FD 		.ascii	"\361\252\021\375\300_N\303\334\213,\257cD\377\301\177"
 271      C05F4EC3 
 271      DC8B2CAF 
 271      6344FFC1 
 271      7F
 272 01a8 8EF291A2 		.ascii	"\216\362\221\242\302\207G\327\004\375\311E\310\373\223"
 272      C28747D7 
 272      04FDC945 
 272      C8FB93
 273 01b7 98C8D729 		.ascii	"\230\310\327)\242\031\220L\2609\271\201\302\237\250"
 273      A219904C 
 273      B039B981 
 273      C29FA8
 274 01c6 5EEC1F29 		.ascii	"^\354\037)\273\245\256\261\024\364\330`rr(\006\237p"
 274      BBA5AEB1 
 274      14F4D860 
 274      72722806 
 274      9F70
 275 01d8 DFFBBAFC 		.ascii	"\337\373\272\374\227\363\253\004\370e\011\002\367\317"
 275      97F3AB04 
 275      F8650902 
 275      F7CF
 276 01e6 7266F655 		.ascii	"rf\366U\215\0370h!^\364\225\021-\323\222\242\375\353"
 276      8D1F3068 
 276      215EF495 
 276      112DD392 
 276      A2FDEB
 277 01f9 EE55E847 		.ascii	"\356U\350G9\024a@\223\210\330O\217\275\016a6\251\256"
 277      39146140 
 277      9388D84F 
 277      8FBD0E61 
 277      36A9AE
 278 020c 758F546B 		.ascii	"u\217Tkq\024\271\347\256\324t\236\016BQ\206=\304\363"
 278      7114B9E7 
 278      AED4749E 
 278      0E425186 
 278      3DC4F3
ARM GAS  C:\Users\info\AppData\Local\Temp\ccewYYI6.s 			page 21


 279 021f EDF6179F 		.ascii	"\355\366\027\237'\013\002B\373\221\001U#\214*\320|\""
 279      270B0242 
 279      FB910155 
 279      238C2AD0 
 279      7C22
 280 0231 2A826C06 		.ascii	"*\202l\006i\202\260V\030*\025\002gk\320\342\010\264"
 280      6982B056 
 280      182A1502 
 280      676BD0E2 
 280      08B4
 281 0243 204283F6 		.ascii	" B\203\366\241(\342\223\260P\025\212@\225(\202\370\257"
 281      A128E293 
 281      B050158A 
 281      40952882 
 281      F8AF
 282 0255 282E3F15 		.ascii	"(.?\025\202\017#\332\301\300\226'i\330\333\301\370\306"
 282      820F23DA 
 282      C1C09627 
 282      69D8DBC1 
 282      F8C6
 283 0267 884A4198 		.ascii	"\210JA\230\216\016A\007\007\344\016\240?\365\036\016"
 283      8E0E4107 
 283      07E40EA0 
 283      3FF51E0E 
 284 0277 AAF7D095 		.ascii	"\252\367\320\225Z\326\022Lc&\216\366\"\032u\373\215"
 284      5AD6124C 
 284      63268EF6 
 284      221A75FB 
 284      8D
 285 0288 9EF6206F 		.ascii	"\236\366 oa\015+\274\222r\240\010C\350a\006\244\005"
 285      610D2BBC 
 285      9272A008 
 285      43E86106 
 285      A405
 286 029a F3F9C582 		.ascii	"\363\371\305\202\273\241`\206\033\320\0340\013Gn=\012"
 286      BBA16086 
 286      1BD01C30 
 286      0B476E3D 
 286      0A
 287 02ab 62B55160 		.ascii	"b\265Q`\016\246\334\277\035\314jg\203)\364\247\024s"
 287      0EA6DCBF 
 287      1DCC6A67 
 287      8329F4A7 
 287      1473
 288 02bd B896E5DF 		.ascii	"\270\226\345\3373\324\272]\254\233\016fS\177v\223\036"
 288      33D4BA5D 
 288      AC9B0E66 
 288      537F7693 
 288      1E
 289 02ce 9F64756D 		.ascii	"\237dume\003\327Cq\0273\372K\232\016\351\361Kf\224?"
 289      6503D743 
 289      711733FA 
 289      4B9A0EE9 
 289      F14B6694 
 290 02e3 28CA34B2 		.ascii	"(\3124\262VK\025\335\207\261\356\267\272s\336\032\360"
 290      564B15DD 
 290      87B1EEB7 
ARM GAS  C:\Users\info\AppData\Local\Temp\ccewYYI6.s 			page 22


 290      BA73DE1A 
 290      F0
 291 02f4 5A4CA9F5 		.ascii	"ZL\251\365G\032\316\0040\352\0020\317\037\353[\2003"
 291      471ACE04 
 291      30EA0230 
 291      CF1FEB5B 
 291      8033
 292 0306 58952433 		.ascii	"X\225$3\234\311|\331r\355\026\306E\254nSs\343I=.g\306"
 292      9CC97CD9 
 292      72ED16C6 
 292      45AC6E53 
 292      73E3493D 
 293 031d 99EE9BED 		.ascii	"\231\356\233\355Z\\\313\214\244\306\2235!\370<3NO\216"
 293      5A5CCB8C 
 293      A4C69335 
 293      21F83C33 
 293      4E4F8E
 294 0330 B9A7B19E 		.ascii	"\271\247\261\23690\337\325\324\234D\330\303\352v\277"
 294      3930DFD5 
 294      D49C44D8 
 294      C3EA76BF 
 295 0340 191F2239 		.ascii	"\031\037\"9\232\013\323e\022+\346\313\\6_\232Z\316\357"
 295      9A0BD365 
 295      122BE6CB 
 295      5C365F9A 
 295      5ACEEF
 296 0353 31E22E4A 		.ascii	"1\342.J\346<\315y\357\202\221!\212\016\226\220,\030"
 296      E63CCD79 
 296      EF829121 
 296      8A0E9690 
 296      2C18
 297 0365 A234E838 		.ascii	"\2424\3508\214\3149\030\031t\011\206k\2568\\-Px\001"
 297      8CCC3918 
 297      19740986 
 297      6BAE385C 
 297      2D507801 
 298 0379 0AC59935 		.ascii	"\012\305\2315\360k:\263.\302\320\264\312\003?\327\300"
 298      F06B3AB3 
 298      2EC2D0B4 
 298      CA033FD7 
 298      C0
 299 038a 26F189EC 		.ascii	"&\361\211\354\256\007\006\374\200u\261\353\256P\257"
 299      AE0706FC 
 299      8075B1EB 
 299      AE50AF
 300 0399 F5D7C515 		.ascii	"\365\327\305\025\277]\214o\234[E\346V\033tqY\356\342"
 300      BF5D8C6F 
 300      9C5B45E6 
 300      561B7471 
 300      59EEE2
 301 03ac 2212FB90 		.ascii	"\"\022\373\220F7\214\215\356\203\364\212\347F\374\214"
 301      46378C8D 
 301      EE83F48A 
 301      E746FC8C 
 302 03bc A5607B7B 		.ascii	"\245`{{_V\220A\234\200Y\177}\002\026\234Nk\0160\246"
 302      5F569041 
 302      9C80597F 
ARM GAS  C:\Users\info\AppData\Local\Temp\ccewYYI6.s 			page 23


 302      7D02169C 
 302      4E6B0E30 
 303 03d1 137E56B2 		.ascii	"\023~V\262\020\366%\272\006\235\326A\375a\250\327\240"
 303      10F625BA 
 303      069DD641 
 303      FD61A8D7 
 303      A0
 304 03e2 76641457 		.ascii	"vd\024Wg\312\343\235\003\010\217\262^n\235\253\250$"
 304      67CAE39D 
 304      03088FB2 
 304      5E6E9DAB 
 304      A824
 305 03f4 899E4712 		.ascii	"\211\236G\022=99M\221\352y,\325\236M\303\273tx\202\345"
 305      3D39394D 
 305      91EA792C 
 305      D59E4DC3 
 305      BB747882 
 306 0409 A132FB89 		.ascii	"\2412\373\211G\2616w\033\217\221\360\272\240\247N9\274"
 306      47B13677 
 306      1B8F91F0 
 306      BAA0A74E 
 306      39BC
 307 041b 79DE9543 		.ascii	"y\336\225C\205h\274*\320M\220>O\224~\003\012\257\213"
 307      8568BC2A 
 307      D04D903E 
 307      4F947E03 
 307      0AAF8B
 308 042e AB735776 		.ascii	"\253sWvi \336\240\245]\354\335w\371\214NJ\365T\007="
 308      6920DEA0 
 308      A55DECDD 
 308      77F98C4E 
 308      4AF55407 
 309 0443 2A0EA454 		.ascii	"*\016\244T\177JS}\013\264t\313Z\272\244TK\213%\214-"
 309      7F4A537D 
 309      0BB474CB 
 309      5ABAA454 
 309      4B8B258C 
 310 0458 96BE8363 		.ascii	"\226\276\203cO\3658\207v\211\326O\336:\245\307\273\230"
 310      4FF53887 
 310      7689D64F 
 310      DE3AA5C7 
 310      BB98
 311 046a 91529651 		.ascii	"\221R\226Q\030\202\0170\243\240~\364B\000k\245\0073"
 311      18820F30 
 311      A3A07EF4 
 311      42006BA5 
 311      0733
 312 047c 337FB85E 		.ascii	"3\177\270^\207\217\262\272\253\356\222\302 \334\304"
 312      878FB2BA 
 312      ABEE92C2 
 312      20DCC4
 313 048b 8CBBB563 		.ascii	"\214\273\265c\273B\360\005f\334y\326\230\257\363.{\266"
 313      BB42F005 
 313      66DC79D6 
 313      98AFF32E 
 313      7BB6
 314 049d 011EF614 		.ascii	"\001\036\366\024\367\352\260\207\021\336\\\036?\216"
ARM GAS  C:\Users\info\AppData\Local\Temp\ccewYYI6.s 			page 24


 314      F7EAB087 
 314      11DE5C1E 
 314      3F8E
 315 04ab 702F33BE 		.ascii	"p/3\276\273Z\267\030?e\367U\3557\336!\374\212\031\027"
 315      BB5AB718 
 315      3F65F755 
 315      ED37DE21 
 315      FC8A1917 
 316 04bf 27864E60 		.ascii	"'\206N`\234\036@\215\352\333\251W\003p!3\366\274\335"
 316      9C1E408D 
 316      EADBA957 
 316      03702133 
 316      F6BCDD
 317 04d2 516BC465 		.ascii	"Qk\304e\31483\326\2703\000\037bF\372\306\275;B\361Y"
 317      CC3833D6 
 317      B833001F 
 317      6246FAC6 
 317      BD3B42F1 
 318 04e7 66ACFBAE 		.ascii	"f\254\373\256\262\001\343\233\314h\353=\364\"\020?c"
 318      B201E39B 
 318      CC68EB3D 
 318      F422103F 
 318      63
 319 04f8 466F4FF6 		.ascii	"FoO\366\037\361+v\377\344\232';\000\257\013\244\306"
 319      1FF12B76 
 319      FFE49A27 
 319      3B00AF0B 
 319      A4C6
 320 050a BB43EBEB 		.ascii	"\273C\353\353\2658\217\031\017\317\275\036\015\306{"
 320      B5388F19 
 320      0FCFBD1E 
 320      0DC67B
 321 0519 99F1A679 		.ascii	"\231\361\246y\3551\204\033\231Q\327\374\2725\000{\230"
 321      ED31841B 
 321      9951D7FC 
 321      BA35007B 
 321      98
 322 052a 31B8B672 		.ascii	"1\270\266r\027\302O\230\321\266u \227\303):j\274\035"
 322      17C24F98 
 322      D1B67520 
 322      97C3293A 
 322      6ABC1D
 323 053d DF9C1480 		.ascii	"\337\234\024\200\2671\243\251\273\277*\030W0\343@C\312"
 323      B731A3A9 
 323      BBBF2A18 
 323      5730E340 
 323      43CA
 324 054f 80B8EBB9 		.ascii	"\200\270\353\271\311\363\240<c\350\244\0017\323\312"
 324      C9F3A03C 
 324      63E8A401 
 324      37D3CA
 325 055e 59439579 		.ascii	"YC\225y\327\002Q\344\224_Td\344\314\310R2+n7M\330\033"
 325      D70251E4 
 325      945F5464 
 325      E4CCC852 
 325      322B6E37 
 326 0575 EBBA0521 		.ascii	"\353\272\005!\325H3\374\002\306;\207\233)-\220\237\223"
ARM GAS  C:\Users\info\AppData\Local\Temp\ccewYYI6.s 			page 25


 326      D54833FC 
 326      02C63B87 
 326      9B292D90 
 326      9F93
 327 0587 F9FE1732 		.ascii	"\371\376\0272\3535\224\356n\360\004\013\007\376\233"
 327      EB3594EE 
 327      6EF0040B 
 327      07FE9B
 328 0596 52077CA9 		.ascii	"R\007|\251\275tm,\226\251#9\241y\202\033\366?\262d\037"
 328      BD746D2C 
 328      96A92339 
 328      A179821B 
 328      F63FB264 
 329 05ab 8B64EF4A 		.ascii	"\213d\357Jg\364:\205\353\374\313!\333\004w\022\246\316"
 329      67F43A85 
 329      EBFCCB21 
 329      DB047712 
 329      A6CE
 330 05bd 5FABE838 		.ascii	"_\253\3508\256 _\273\354\3251\252B=\241\240n\221\251"
 330      AE205FBB 
 330      ECD531AA 
 330      423DA1A0 
 330      6E91A9
 331 05d0 6F54A80A 		.ascii	"oT\250\012\305\0369\270'j\301\035Ux\315\221\275\216"
 331      C51E39B8 
 331      276AC11D 
 331      5578CD91 
 331      BD8E
 332 05e2 AB785D28 		.ascii	"\253x](3\013d\346+\025\246\322i\221L\035S\241*\263u"
 332      330B64E6 
 332      2B15A6D2 
 332      69914C1D 
 332      53A12AB3 
 333 05f7 40D63AE4 		.ascii	"@\326:\344K\275\213\246\016Z\233\314}\252\026\2272\261"
 333      4BBD8BA6 
 333      0E5A9BCC 
 333      7DAA1697 
 333      32B1
 334 0609 5B64EE73 		.ascii	"[d\356s5\277'\025\334\011Y\356\260\032W\251\267V\366"
 334      35BF2715 
 334      DC0959EE 
 334      B01A57A9 
 334      B756F6
 335 061c FB4C8DAB 		.ascii	"\373L\215\253\034\261\027\312\2313\241>sX|t\303r\217"
 335      1CB117CA 
 335      9933A13E 
 335      73587C74 
 335      C3728F
 336 062f 671A0541 		.ascii	"g\032\005AOX\032q\263\322x}\025+g\325K\225\244*\003"
 336      4F581A71 
 336      B3D2787D 
 336      152B67D5 
 336      4B95A42A 
 337 0644 3A2E8B1C 		.ascii	":.\213\034TK\024\035\325l\361\230&\300\031\004\275\003"
 337      544B141D 
 337      D56CF198 
 337      26C01904 
ARM GAS  C:\Users\info\AppData\Local\Temp\ccewYYI6.s 			page 26


 337      BD03
 338 0656 551EA2EA 		.ascii	"U\036\242\352\255\310\207\376\321&.\012\245r\221(\005"
 338      ADC887FE 
 338      D1262E0A 
 338      A5729128 
 338      05
 339 0667 B016B01E 		.ascii	"\260\026\260\036\220\006\310\002L\242H\224\014\327\315"
 339      9006C802 
 339      4CA24894 
 339      0CD7CD
 340 0676 80EF001B 		.ascii	"\200\357\000\033\001\033\000\031\200l\200\000H\007\254"
 340      011B0019 
 340      806C8000 
 340      4807AC
 341 0685 03240132 		.ascii	"\003$\0012\271HE4]\233B\363\005w\012\246{\363\210\330"
 341      B9484534 
 341      5D9B42F3 
 341      05770AA6 
 341      7BF388D8 
 342 0699 A5774BBF 		.ascii	"\245wK\277+\213\204}\240sSa\3764|\217\356\003\334\213"
 342      2B8B847D 
 342      A0735361 
 342      FE347C8F 
 342      EE03DC8B 
 343 06ad 8CE62568 		.ascii	"\214\346%hf\224\272\366\\\320\373\267\324\316F)\377"
 343      6694BAF6 
 343      5CD0FBB7 
 343      D4CE4629 
 343      FF
 344 06be D24FC928 		.ascii	"\322O\311(m\205\216\266p\336\247\012\0314*\267\266o"
 344      6D858EB6 
 344      70DEA70A 
 344      19342AB7 
 344      B66F
 345 06d0 CF33DD4C 		.ascii	"\3173\335LQ\240\333\257@\315\377\271:\262\237v\244\254"
 345      51A0DBAF 
 345      40CDFFB9 
 345      3AB29F76 
 345      A4AC
 346 06e2 0F563EF0 		.ascii	"\017V>\360\267)\322\252Ay\234\364\300\037\253~\330\035"
 346      B729D2AA 
 346      41799CF4 
 346      C01FAB7E 
 346      D81D
 347 06f4 805FE97C 		.ascii	"\200_\351|\316ta\354LW\333\370|\267x\216\023\3109\253"
 347      CE7461EC 
 347      4C57DBF8 
 347      7CB7788E 
 347      13C839AB 
 348 0708 FF7EE119 		.ascii	"\377~\341\031\003N\321\263\035\373\352\376\326i8\217"
 348      034ED1B3 
 348      1DFBEAFE 
 348      D669388F 
 349 0718 1A1F77A5 		.ascii	"\032\037w\2457%!\2445\316\204]\330\347g4\316\326F\211"
 349      372521A4 
 349      35CE845D 
 349      D8E76734 
ARM GAS  C:\Users\info\AppData\Local\Temp\ccewYYI6.s 			page 27


 349      CED64689 
 350 072c 37519151 		.ascii	"7Q\221QQ\344\271W\314\031\321C\310\206B]\211\217\272"
 350      51E4B957 
 350      CC19D143 
 350      C886425D 
 350      898FBA
 351 073f 62A6CE67 		.ascii	"b\246\316gh\013\271\010T\300A\346\334\220\271Rqh\233"
 351      680BB908 
 351      54C041E6 
 351      DC90B952 
 351      71689B
 352 0752 E0FE0404 		.ascii	"\340\376\004\004~\014p\024p\004P\0078\000\330\017\330"
 352      7E0C7014 
 352      70045007 
 352      3800D80F 
 352      D8
 353 0763 07A80654 		.ascii	"\007\250\006T\001*\001{\001\025\200r@\031`\017`7`\027"
 353      012A017B 
 353      01158072 
 353      4019600F 
 353      60376017 
 354 0777 60276087 		.ascii	"`'`\207\317\324\034\357P,\264\"\030\340Ry\365\034Ql"
 354      CFD41CEF 
 354      502CB422 
 354      18E05279 
 354      F51C516C 
 355 078b 07EA3AF3 		.ascii	"\007\352:\363\305\006\177{\235\257:\274k\034\036\302"
 355      C5067F7B 
 355      9DAF3ABC 
 355      6B1C1EC2 
 356 079b EFAB54EE 		.ascii	"\357\253T\356\307/en\275\032W\271q\216\312\334\0065"
 356      C72F656E 
 356      BD1A57B9 
 356      718ECADC 
 356      0635
 357 07ad AEE23933 		.ascii	"\256\34293,S\033\325\250\212\207\307\220Lu\373R\233"
 357      2C531BD5 
 357      A88A87C7 
 357      904C75FB 
 357      529B
 358 07bf DEDB367B 		.ascii	"\336\3336{dn\263\032W\371H\350\226\271\247\324\270"
 358      646EB31A 
 358      57F948E8 
 358      96B9A7D4 
 358      B8
 359 07d0 CA5DB143 		.ascii	"\312]\261C\346\236V\343*\267\371k2\367\214\032W\231"
 359      E69E56E3 
 359      2AB7F96B 
 359      32F78C1A 
 359      5799
 360 07e2 5D8FCC3D 		.ascii	"]\217\314=\253\306Uf\367J\256\342\221p^d{\037\011MS"
 360      ABC65566 
 360      F74AAEE2 
 360      91705E64 
 360      7B1F094D 
 361 07f7 D3D6943B 		.ascii	"\323\326\224;\213\355\223pVGWE\272w\237\364\274'\273"
 361      8BED9370 
ARM GAS  C:\Users\info\AppData\Local\Temp\ccewYYI6.s 			page 28


 361      56475745 
 361      BA779FF4 
 361      BC27BB
 362 080a 3157B1AF 		.ascii	"1W\261\257v\250\363\025\356\353;\2461\372AX\234\267"
 362      76A8F315 
 362      EEEB3BA6 
 362      31FA4158 
 362      9CB7
 363 081c A7D29547 		.ascii	"\247\322\225G\033\305\252\255\341f\313\234\3030\307"
 363      1BC5AAAD 
 363      E166CB9C 
 363      C330C7
 364 082b 0F4163B6 		.ascii	"\017Ac\266\013\372ai\024\224\\\272l\222\2059Z\2320\231"
 364      0BFA6169 
 364      14945CBA 
 364      6C928539 
 364      5A9A3099 
 365 083f 020DE06F 		.ascii	"\002\015\340o-G>\337H\373E-\254-\266\351\026_\232E6"
 365      2D473EDF 
 365      48FB452D 
 365      AC2DB6E9 
 365      165F9A45 
 366 0854 5DA2F38E 		.ascii	"]\242\363\216|\224?D\267\014\026\3131e,}\352\261(B\257"
 366      7C943F44 
 366      B70C16CB 
 366      31652C7D 
 366      EAB12842 
 367 0869 EB300A59 		.ascii	"\3530\012YfJ\2767\225\254\362\324\227\331\367\325\331"
 367      664ABE37 
 367      95ACF2D4 
 367      97D9F7D5 
 367      D9
 368 087a 0AD735B9 		.ascii	"\012\3275\271\341L\311q\240?\230J\377\271jR\033\224"
 368      E14CC971 
 368      A03F984A 
 368      FFB96A52 
 368      1B94
 369 088c 496D84A4 		.ascii	"Im\204\244\326\253%\265\301'\251\365jIm\363Ij\003M\352"
 369      D6AB25B5 
 369      C127A9F5 
 369      6A496DF3 
 369      496A034D 
 370 08a1 F734A92C 		.ascii	"\3674\251,\221\0073? \211$\322\372\345D\326+\022y0\367"
 370      9107333F 
 370      208924D2 
 370      FAE544D6 
 370      2B127930 
 371 08b6 43261F1E 		.ascii	"C&\037\036\027\350\221\252\374\205\362\231e{.=\263\224"
 371      17E891AA 
 371      FC85F299 
 371      657B2E3D 
 371      B394
 372 08c8 FA9E5958 		.ascii	"\372\236YX\335\266\314\237\220:\262\315o\227\237\224"
 372      DDB6CC9F 
 372      903AB2CD 
 372      6F979F94 
 373 08d8 A5D293B2 		.ascii	"\245\322\223\262\365A\356\243\340\217J\340\014(\334"
ARM GAS  C:\Users\info\AppData\Local\Temp\ccewYYI6.s 			page 29


 373      F541EEA3 
 373      E08F4AE0 
 373      0C28DC
 374 08e7 9E2CFD55 		.ascii	"\236,\375UA\333=A\010\323\322\231S.K\203[r)\203\367"
 374      41DB3D41 
 374      08D3D299 
 374      532E4B83 
 374      5B722983 
 375 08fc 3658FADC 		.ascii	"6X\372\334G\320p\313P\231[\217O\260'\322\321\352\267"
 375      47D070CB 
 375      50995B8F 
 375      4FB027D2 
 375      D1EAB7
 376 090f 1702C14B 		.ascii	"\027\002\301K\311\001\301\335\333b$\322\241o\216\272"
 376      C901C1DD 
 376      DB6224D2 
 376      A16F8EBA 
 377 091f 69967B85 		.ascii	"i\226{\205[\331\315I\352\246>\367n0\276\312\274$\357"
 377      5BD9CD49 
 377      EAA63EF7 
 377      6E30BECA 
 377      BC24EF
 378 0932 B9DD1680 		.ascii	"\271\335\026\200\373\231\221\333\344.\232\006/k\350"
 378      FB9991DB 
 378      E42E9A06 
 378      2F6BE8
 379 0941 346D443A 		.ascii	"4mD:\031\273\262\225\275\276\221i\311^\337\3723\367"
 379      19BBB295 
 379      BDBE9169 
 379      C95EDFFA 
 379      33F7
 380 0953 77E2D97E 		.ascii	"w\342\331~\347\3639\232\372\2634\365\300\236<\372z\324"
 380      E7F3399A 
 380      FAB334F5 
 380      C09E3CFA 
 380      7AD4
 381 0965 08326FC3 		.ascii	"\0102o\303\213\351\211\211\337\024\356Lug%\011\323)"
 381      8BE98989 
 381      DF14EE4C 
 381      75672509 
 381      D329
 382 0977 0F9D9274 		.ascii	"\017\235\222t\2423\234\226X\3543\333y*s\363\216\221"
 382      A2339C96 
 382      58EC33DB 
 382      792A73F3 
 382      8E91
 383 0989 1E0E3FF7 		.ascii	"\036\016?\367'm\262\340y\236N\371\314\367\225\321\352"
 383      276DB2E0 
 383      799E4EF9 
 383      CCF795D1 
 383      EA
 384 099a 7DE6DF1B 		.ascii	"}\346\337\033/?5\215\306\320\352\215\241\272\244vg\250"
 384      2F3F358D 
 384      C6D0EA8D 
 384      A1BAA476 
 384      67A8
 385 09ac F7B5F422 		.ascii	"\367\265\364\"\307>\314=8t-\310\033\354%V\370\362\372"
ARM GAS  C:\Users\info\AppData\Local\Temp\ccewYYI6.s 			page 30


 385      C73ECC3D 
 385      38742DC8 
 385      1BEC2556 
 385      F8F2FA
 386 09bf BE8650FF 		.ascii	"\276\206P\377\321\266\321h/K\321\326L\334\351\304,Z"
 386      D1B6D168 
 386      2F4BD1D6 
 386      4CDCE9C4 
 386      2C5A
 387 09d1 F7506CBE 		.ascii	"\367Pl\276\320\234\"|F8\350\2027\322\026\210\364\202"
 387      D09C227C 
 387      4638E882 
 387      37D21688 
 387      F482
 388 09e3 14E9151A 		.ascii	"\024\351\025\032iN\366@N\020N\016\362\023\251\332;\364"
 388      694EF640 
 388      4E104E0E 
 388      F213A9DA 
 388      3BF4
 389 09f5 F8F5A3FD 		.ascii	"\370\365\243\375\234W\3535\246\265,\371B\202\177\251"
 389      9C57EB35 
 389      A6B52CF9 
 389      42827FA9 
 390 0a05 1D546ABB 		.ascii	"\035Tj\273$\265:\275o_\260(\365\246$\0258\310\343\225"
 390      24B53ABD 
 390      6F5FB028 
 390      F5A62415 
 390      38C8E395 
 391 0a19 7A15A47A 		.ascii	"z\025\244z$\251\327\251\324\314\244\243\247\265x\213"
 391      24A9D7A9 
 391      D4CCA4A3 
 391      A7B5788B 
 392 0a29 3FA91D79 		.ascii	"?\251\035y\355\275z\321\351\260\344\224\214\364\015"
 392      EDBD7AD1 
 392      E9B0E494 
 392      8CF40D
 393 0a38 AFD34E70 		.ascii	"\257\323NpzCrz\223:=x\241\341a\020\256\364\3474\273"
 393      7A43727A 
 393      933A3D78 
 393      A1E16110 
 393      AEF4E734 
 394 0a4d 6FA43F44 		.ascii	"o\244?Dt\332\255T\332\345u\332\015N\273$\247\267\250"
 394      74DAAD54 
 394      DAE575DA 
 394      0D4EBB24 
 394      A7B7A8
 395 0a60 D3F214F7 		.ascii	"\323\362\024\367p\020n`N_\246\247<`)$\017\024\226\302"
 395      70106E60 
 395      4E5FA6A7 
 395      3C602924 
 395      0F1496C2 
 396 0a74 CE91D641 		.ascii	"\316\221\326Ay\270{Y\012\037mmn\324+s\370\365\007\212"
 396      79B87B59 
 396      0A1F6D6D 
 396      6ED42B73 
 396      F8F5078A 
 397 0a88 14DEA129 		.ascii	"\024\336\241)\274-\2450u\254\335#E\373\374\341\002P"
ARM GAS  C:\Users\info\AppData\Local\Temp\ccewYYI6.s 			page 31


 397      BC2DA530 
 397      75ACDD23 
 397      45FBFCE1 
 397      0250
 398 0a9a A62514D4 		.ascii	"\246%\024\324#/\277\036IT\037\025U\231Z\235\036\200"
 398      232FBF1E 
 398      49541F15 
 398      55995A9D 
 398      1E80
 399 0aac 3D4C94DA 		.ascii	"=L\224\332\342\032\350(}\026\350\267\377\373\264\377"
 399      E21AE828 
 399      7D16E8B7 
 399      FFFBB4FF 
 400 0abc 7BDEFE33 		.ascii	"{\336\3763\217\025JCX\320etg!\302@w\345\356\357J\335"
 400      8F154A43 
 400      58D06574 
 400      6721C240 
 400      77E5EEEF 
 401 0ad2 3FA0DDF7 		.ascii	"?\240\335\367\224\366n\012\304\003\254\373[\3455\005"
 401      94F66E0A 
 401      C403ACFB 
 401      5BE53505 
 402 0ae2 ECD3749E 		.ascii	"\354\323t\236\267\373\272\301\366\016\203WR?\313\311"
 402      B7FBBAC1 
 402      F60E8357 
 402      523FCBC9 
 403 0af2 9DE41B49 		.ascii	"\235\344\033I\3765=\246\232\036I\232\334\207[Gt\242"
 403      FE353DA6 
 403      9A1E499A 
 403      DC875B47 
 403      74A2
 404 0b04 A63CA609 		.ascii	"\246<\246\011\030\350\241\254\351\241\244\351\011\325"
 404      18E8A1AC 
 404      E9A1A4E9 
 404      09D5
 405 0b12 D47276D3 		.ascii	"\324rv\323\275\020\234\305\276\260\245\235\355iG\354"
 405      BD109CC5 
 405      BEB0A59D 
 405      ED6947EC 
 406 0b22 483E837C 		.ascii	"H>\203|\003\272x\266\033\263#y\032\37142\\\364\350\036"
 406      03BA78B6 
 406      1BB32379 
 406      1AF93432 
 406      5CF4E81E 
 407 0b36 473E040A 		.ascii	"G>\004\012\342\232\017SN\360g\234AC6j\372\320\003\366"
 407      E29A0F53 
 407      4EF0679C 
 407      4143366A 
 407      FAD003F6 
 408 0b4a 8D81CD2D 		.ascii	"\215\201\315-\323\302\262\304\363\352g\210\275\027\302"
 408      D3C2B2C4 
 408      F3EA6788 
 408      BD17C2
 409 0b59 89758023 		.ascii	"\211u\200#\364!.LjD\277\212\035\033\316AJ\366\265\037"
 409      F4212E4C 
 409      6A44BF8A 
 409      1D1BCE41 
ARM GAS  C:\Users\info\AppData\Local\Temp\ccewYYI6.s 			page 32


 409      4AF6B51F 
 410 0b6d 625FEF1C 		.ascii	"b_\357\034\254\320}\262Sh+!{\270\371\376nh\205\320s"
 410      ACD07DB2 
 410      53682B21 
 410      7BB8F9FE 
 410      6E6885D0 
 411 0b82 2E0C3D65 		.ascii	".\014=e\221*\232\222\222\337\301\204\036\346>!_\370"
 411      912A9A92 
 411      92DFC184 
 411      1EE63E21 
 411      5FF8
 412 0b94 BA473B03 		.ascii	"\272G;\003\360>\026\357h\372\2721\361\003\270\216nU"
 412      F03E16EF 
 412      68FABA31 
 412      F103B88E 
 412      6E55
 413 0ba6 D5C7C52F 		.ascii	"\325\307\305/\320\201\204\352y]\252\363\033\356K)\334"
 413      D08184EA 
 413      795DAAF3 
 413      1BEE4B29 
 413      DC
 414 0bb7 171C0DB7 		.ascii	"\027\034\015\267\362H\357P\360\324p\341|\011\371$\364"
 414      F248EF50 
 414      F0D470E1 
 414      7C09F924 
 414      F4
 415 0bc8 311AC04B 		.ascii	"1\032\300K)\200\211\2355O\003\247\206\353\227-$]=\310"
 415      2980899D 
 415      354F03A7 
 415      86EB972D 
 415      245D3DC8 
 416 0bdc B170DD13 		.ascii	"\261p\335\023\001B\020z\005\221\216\210\221\312\255"
 416      0142107A 
 416      05918E88 
 416      91CAAD
 417 0beb 46C4485F 		.ascii	"F\304H_\323H\377rrbX\217=,\322\312\272\335\307\305\221"
 417      D348FF72 
 417      7262588F 
 417      3D2CD2CA 
 417      BADDC7C5 
 418 0c00 0D0273E3 		.ascii	"\015\002s\343\351\303g\304\221=G\277;V\334\177\026\344"
 418      E9C367C4 
 418      913D47BF 
 418      3B56DC7F 
 418      16E4
 419 0c12 37D47752 		.ascii	"7\324wR\250w\331\310\036\317\251Z55\322\267\220\357"
 419      A877D9C8 
 419      1ECFA95A 
 419      3535D2B7 
 419      90EF
 420 0c24 71AA6282 		.ascii	"q\252b\202j\177'i\317*x\334j\230\032\251_v}\332\336"
 420      6A7F2769 
 420      CF2A78DC 
 420      6A981AA9 
 420      5F767DDA 
 421 0c39 B10031D2 		.ascii	"\261\0001\322\357\177I\006u\022B}#\206*7{#\206*`\022"
 421      EF7F4906 
ARM GAS  C:\Users\info\AppData\Local\Temp\ccewYYI6.s 			page 33


 421      7512427D 
 421      23862A37 
 421      7B23862A 
 422 0c4f EABEBA8C 		.ascii	"\352\276\272\214'z\374\222\205Z\336\362\260Y\234\033"
 422      277AFC92 
 422      855ADEF2 
 422      B0599C1B 
 423 0c5f EEC9F44F 		.ascii	"\356\311\364O\222\004\267\226\276\220&a\346Dz-\326\320"
 423      9204B796 
 423      BE902661 
 423      E6447A2D 
 423      D6D0
 424 0c71 12E2642D 		.ascii	"\022\342d-u\222\334p\354\276V\371D\273\357s\354I\306"
 424      7592DC70 
 424      ECBE56F9 
 424      44BBEF73 
 424      EC49C6
 425 0c84 F48946AE 		.ascii	"\364\211F\256dS,\233\310\322+\311w|\310)\"9\205\222"
 425      64532C9B 
 425      C8D22BC9 
 425      777CC829 
 425      22398592 
 426 0c98 33BB32FA 		.ascii	"3\2732\372\215J2\231\2502y\235H^G\311\303\317od\370"
 426      8D4A3299 
 426      A832799D 
 426      485E47C9 
 426      C3CF6F64 
 427 0cad 905FF990 		.ascii	"\220_\371\220SEr*%\273wl\333\356C\236\364!\257\027\311"
 427      5345722A 
 427      25BB776C 
 427      DBEE439E 
 427      F421AF17 
 428 0cc2 EB29F9E0 		.ascii	"\353)\371\340\2163e!J\3629\037\315i\"9\215\222\007\036"
 428      8E336521 
 428      4AF2391F 
 428      CD692239 
 428      8D92071E 
 429 0cd6 3F1EE294 		.ascii	"?\036\342\224\344\016\037\362\006\221\274\201\222\327"
 429      E40E1FF2 
 429      0691BC81 
 429      92D7
 430 0ce4 A54F3E9C 		.ascii	"\245O>\234\206s\203i\376\217\024L\270\265\270\210\031"
 430      86738369 
 430      FE8F144C 
 430      B8B5B888 
 430      19
 431 0cf5 A9B9937D 		.ascii	"\251\271\223}\006\\\302\214\321\301\316\362@\\!\322"
 431      065CC28C 
 431      D1C1CEF2 
 431      405C21D2 
 432 0d05 062B8F84 		.ascii	"\006+\217\204\210\337]\211\235S\225\236\214\360qZ\031"
 432      88DF5D89 
 432      9D53959E 
 432      8CF0715A 
 432      19
 433 0d16 F8AABC26 		.ascii	"\370\252\274&\315\200\350\373}\224\364\241\365\263z"
 433      CD80E8FB 
ARM GAS  C:\Users\info\AppData\Local\Temp\ccewYYI6.s 			page 34


 433      7D94F4A1 
 433      F5B37A
 434 0d25 C587D674 		.ascii	"\305\207\326t\030\272l\254\366)\212\275 \273\331\013"
 434      18BA6CAC 
 434      F6298ABD 
 434      20BBD90B 
 435 0d35 72266693 		.ascii	"r&f\223\026e\210|2\001\266\342(\264\005G\242\034@\026"
 435      1665887C 
 435      3201B6E2 
 435      28B40547 
 435      A21C4016 
 436 0d49 603356BE 		.ascii	"`3V\276\340\366\\\362\276VmT\351Dy<\037\226\251\233"
 436      E0F65CF2 
 436      BE566D54 
 436      E944793C 
 436      1F96A99B 
 437 0d5d 54A8CA17 		.ascii	"T\250\312\027\306[\231\342\033\0229\004}'\222\375\236"
 437      C65B99E2 
 437      1B123904 
 437      7D2792FD 
 437      9E
 438 0d6e 6E3BD917 		.ascii	"n;\331\0279\340(O\267dKJ\037~\033\212\3354I\\Sy}y\010"
 438      39E0284F 
 438      B7644B4A 
 438      1F7E1B8A 
 438      DD34495C 
 439 0d87 8A9AC9DA 		.ascii	"\212\232\311\332\024^\212$m\362\300o.\366\356\366\304"
 439      145E8A24 
 439      6DF2C06F 
 439      2EF6EEF6 
 439      C4
 440 0d98 C5948F06 		.ascii	"\305\224\217\006\336\234l\203<\374\265\234\220!\354"
 440      DE9C6C83 
 440      3CFCB59C 
 440      9021EC
 441 0da7 D8314B39 		.ascii	"\3301K9\021\362\260\362\363I\2768\021\362\351D\3306"
 441      11F2B0F2 
 441      F349BE38 
 441      11F2E944 
 441      D836
 442 0db9 707FC867 		.ascii	"p\177\310g>\266\371\314\232\002\221\\@\311\3333\366"
 442      3EB6F9CC 
 442      9A02915C 
 442      40C9DB33 
 442      F6
 443 0dca EEE53EDE 		.ascii	"\356\345>\336\301\264\245\303:\374\372\003z\324f\217"
 443      C1B4A5C3 
 443      3AFCFA03 
 443      7AD4668F 
 444 0dda A742FC31 		.ascii	"\247B\3741p\362\252\256n10\016\331\350\013\323\201\350"
 444      70F2AAAE 
 444      6E31300E 
 444      D9E80BD3 
 444      81E8
 445 0dec CB2BA2BC 		.ascii	"\313+\242\274\344\344GUA\214\347\316\322M\345l\247\234"
 445      E4E44755 
 445      418CE7CE 
ARM GAS  C:\Users\info\AppData\Local\Temp\ccewYYI6.s 			page 35


 445      D24DE56C 
 445      A79C
 446 0dfe F4BD37BF 		.ascii	"\364\2757\277\323\211\234\233\357q\276\247\234\342\206"
 446      D3899C9B 
 446      EF71BEA7 
 446      9CE286
 447 0e0d BA42BDC8 		.ascii	"\272B\275\310y\365\036\247\230r.f\016NW\306\370\330"
 447      79F51EA7 
 447      98722E66 
 447      0E4E57C6 
 447      F8D8
 448 0e1f 27C61231 		.ascii	"'\306\0221Fr\215H\\\272z\251)\306d\267\304.]\272p\221"
 448      46728D48 
 448      5CBA7AA9 
 448      29C664B7 
 448      C42E5DBA 
 449 0e35 E91F97AC 		.ascii	"\351\037\227\254^\362\013\323r\336\306;\254\026\375"
 449      5EF20BD3 
 449      72DEC63B 
 449      AC16FD
 450 0e44 BFFDC757 		.ascii	"\277\375\307Ws\276X\270P\023d2%Zm\256\245&W\022\262"
 450      73BE58B8 
 450      50136432 
 450      255A6DAE 
 450      A5265712 
 451 0e59 FC53B4DD 		.ascii	"\374S\264\335\221\260\334a\216\237\023k\215\343\235"
 451      91B0DC61 
 451      8E9F136B 
 451      8DE39D
 452 0e68 73A2562F 		.ascii	"s\242V/]\362\017\321\2265v\007\357tF\333\235\011\226"
 452      5DF20FD1 
 452      96357607 
 452      EF7446DB 
 452      9D0996
 453 0e7b 3916076F 		.ascii	"9\026\007ov%8\242?\235\277\310\267\300\032oOp\270\242"
 453      762538A2 
 453      3F9DBFC8 
 453      B7C01A6F 
 453      4F70B8A2 
 454 0e8f 97DB12A3 		.ascii	"\227\333\022\243\315\216\370\350_\314\377t\376Br\367"
 454      CD8EF8E8 
 454      5FCCFF74 
 454      FE4272F7 
 455 0e9f 335B828D 		.ascii	"3[\202\215\377\031o^f\215\266\332,q\2111|t\274\331\262"
 455      FF196F5E 
 455      668DB6DA 
 455      2C718931 
 455      7C74BCD9 
 456 0eb4 C26AE3A3 		.ascii	"\302j\343\243M1|\25491\316er\255\261\363\316\371+4:"
 456      4D317CAC 
 456      3931CE65 
 456      72ADB1F3 
 456      CEF92B34 
 457 0ec9 51CACAFF 		.ascii	"Q\312\312\377/%\3165\316h\223\323\025\003\335B\367\241"
 457      2F25CE35 
 457      CE6893D3 
 457      1503DD42 
ARM GAS  C:\Users\info\AppData\Local\Temp\ccewYYI6.s 			page 36


 457      F7A1
 458 0edb 31FCB284 		.ascii	"1\374\262\204D\233\205\207\"\263\213\377\221\327\214"
 458      449B8587 
 458      22B38BFF 
 458      91D78C
 459 0eea 333B5D26 		.ascii	"3;]&\273\325\306\312\177\354-\227\364{\253\202\227\333"
 459      BBD5C6CA 
 459      7FEC2D97 
 459      F47BAB82 
 459      97DB
 460 0efc AD0926D0 		.ascii	"\255\011&\320\010\245\206DW\354RV\014\216WZ\201o\216"
 460      08A58644 
 460      57EC5256 
 460      0C8E575A 
 460      816F8E
 461 0f0f 8921FA83 		.ascii	"\211!\372\203\255\213,\244\302\341\342c\350\275X\036"
 461      AD8B2CA4 
 461      C2E1E263 
 461      E8BD581E 
 462 0f1f 6E759A62 		.ascii	"nu\232b\023l.\223\325\266\222w8yS|B\014\257_mJ\210\215"
 462      136C2E93 
 462      D5B69277 
 462      3879537C 
 462      420CAF5F 
 463 0f37 75F22E3D 		.ascii	"u\362.=o\263$\200\322\345\0066d\013\227\230\\z\351F"
 463      6FB32480 
 463      D2E50636 
 463      640B9798 
 463      5C7AE946 
 464 0f4b 4BDA052D 		.ascii	"K\332\005-Kt\232,q\011\226oD\312\342E\"\205\334\314"
 464      4B749A2C 
 464      7109966F 
 464      44CAE245 
 464      2285DCCC 
 465 0f5f A0DACCB6 		.ascii	"\240\332\314\266\030\220\035g^c\262,\013\2463$\336\271"
 465      18901D67 
 465      5E63B22C 
 465      0BA63324 
 465      DEB9
 466 0f71 1CEE75CB 		.ascii	"\034\356u\313\326\270x\270\006Z\3141p1\304X\235v\306"
 466      D6B878B8 
 466      065ACC31 
 466      7031C458 
 466      9D76C6
 467 0f84 D2D9F8D5 		.ascii	"\322\331\370\325.\270\032)\333\262\302\354 \206To\265"
 467      2EB81A29 
 467      DBB2C2EC 
 467      2086546F 
 467      B5
 468 0f95 C52604DB 		.ascii	"\305&\004\333\255\253\3718\323*k"
 468      ADABF938 
 468      D32A6B
 469 0fa0 8C6BC58C 		.ascii	"\214k\305\214\3308\253\235\3506I\272\247KY\222\012\202"
 469      D838AB9D 
 469      E83649BA 
 469      A74B5992 
 469      0A82
ARM GAS  C:\Users\info\AppData\Local\Temp\ccewYYI6.s 			page 37


 470 0fb2 5D30A4A6 		.ascii	"]0\244\246\025\274u\371\012\227\201\336\323\226\341"
 470      15BC75F9 
 470      0A9781DE 
 470      D396E1
 471 0fc1 AB1C5690 		.ascii	"\253\034V\220`O\214s\212%&\2333,\306\3542\233\240Q\242"
 471      604F8C73 
 471      8A25269B 
 471      332CC6EC 
 471      329BA051 
 472 0fd6 DDE4B2C6 		.ascii	"\335\344\262\306\363P\024N2\346\215\324\264p\301\202"
 472      F350144E 
 472      32E68DD4 
 472      B470C182 
 473 0fe6 6FBEFC93 		.ascii	"o\276\374\223\336i\267\322t\031\235P\306jV\374)\214"
 473      DE69B7D2 
 473      74199D50 
 473      C66A56FC 
 473      298C
 474 0ff8 18BE0E67 		.ascii	"\030\276\016g8c\246\370"
 474      3863A6F8 
 475 1000 0BB327C0 		.ascii	"\013\263'\300\350B\376y\227i\225\331\352\202\204\204"
 475      E842FE79 
 475      976995D9 
 475      EA828484 
 476 1010 334BD932 		.ascii	"3K\3312\3369\033\346\036\204o\265\233 v\3632\"\233\260"
 476      DE391BE6 
 476      1E846FB5 
 476      9B2076F3 
 476      32229BB0 
 477 1024 6D50411C 		.ascii	"mPA\034\320\032\336\246\254\010\363a\307\361+\371\270"
 477      D01ADEA6 
 477      AC08F361 
 477      C7F12BF9 
 477      B8
 478 1035 194A1A2D 		.ascii	"\031J\032-\231\315\226\251\"\23505\034\211\026\227\221"
 478      99CD96A9 
 478      229D3035 
 478      1C891697 
 478      91
 479 1046 6595E529 		.ascii	"e\225\345)|\376\374\350\304\245\313\027\231,N\207%\232"
 479      7CFEFCE8 
 479      C4A5CB17 
 479      992C4E87 
 479      259A
 480 1058 3481F93A 		.ascii	"4\201\371:\363\375\246.6\246\314\303L\357De3\222\014"
 480      F3FDA62E 
 480      36A6CCC3 
 480      4CEF4465 
 480      33920C
 481 106b 7520AD77 		.ascii	"u \255w\375\344=\177\362N1\337\242\011W\333;X!\231\037"
 481      FDE43D7F 
 481      F24E31DF 
 481      A20957DB 
 481      3B582199 
 482 1080 FF6A8BF9 		.ascii	"\377j\213\371\235\303ls\306\362\016\275-\301j\213\203"
 482      9DC36C73 
 482      C6F20EBD 
ARM GAS  C:\Users\info\AppData\Local\Temp\ccewYYI6.s 			page 38


 482      2DC16A8B 
 482      83
 483 1091 D53CC35B 		.ascii	"\325<\303[\373[\336\026\363/0l\323}J\276\210\217\371"
 483      FB5BDE16 
 483      F32F306C 
 483      D37D4ABE 
 483      888FF9
 484 10a4 402E2093 		.ascii	"@. \223_r\341\313\373\334\261|\226O\301o\371o\023a\352"
 484      5F72E1CB 
 484      FBDCB17C 
 484      964FC16F 
 484      F96F1361 
 485 10b9 F33F1635 		.ascii	"\363?\0265\255\340\343\354\274C\021\266\325\365\221"
 485      ADE0E3EC 
 485      BC4311B6 
 485      D5F591
 486 10c8 7A151BE6 		.ascii	"z\025\033\346x>>\301\261\346\357UwC\322\030h\337~\254"
 486      783E3EC1 
 486      B1E6EF55 
 486      7743D218 
 486      68DF7EAC 
 487 10dc 5A6B4F58 		.ascii	"ZkOX\005\313\320\274\222_\360\277\340,$\234\017)\307"
 487      05CBD0BC 
 487      925FF0BF 
 487      E02C249C 
 487      0F29C7
 488 10ef 97A11C9F 		.ascii	"\227\241\034\237\200\325\320\300\211-6\227\236N|\273"
 488      80D5D0C0 
 488      892D3697 
 488      9E4E7CBB 
 489 10ff 4B8C9E5A 		.ascii	"K\214\236Zl\324\002\326\020N\260\\\354\372\037\222\\"
 489      6CD402D6 
 489      104EB05C 
 489      ECFA1F92 
 489      5C
 490 1110 2132     		.ascii	"!2"
 491              		.text
 492              		.section	.gnu.lto_.symtab.792a35c4,"",%progbits
 493 0000 75387838 		.ascii	"u8x8_d_pcf8812_96x65\000"
 493      5F645F70 
 493      63663838 
 493      31325F39 
 493      36783635 
 494 0015 00       		.ascii	"\000"
 495 0016 00       		.ascii	"\000"
 496 0017 00       		.ascii	"\000"
 497 0018 00000000 		.ascii	"\000\000\000\000\000\000\000\000"
 497      00000000 
 498 0020 43010000 		.ascii	"C\001\000\000"
 499 0024 75387838 		.ascii	"u8x8_cad_EndTransfer\000"
 499      5F636164 
 499      5F456E64 
 499      5472616E 
 499      73666572 
 500 0039 00       		.ascii	"\000"
 501 003a 02       		.ascii	"\002"
 502 003b 00       		.ascii	"\000"
ARM GAS  C:\Users\info\AppData\Local\Temp\ccewYYI6.s 			page 39


 503 003c 00000000 		.ascii	"\000\000\000\000\000\000\000\000"
 503      00000000 
 504 0044 49010000 		.ascii	"I\001\000\000"
 505 0048 75387838 		.ascii	"u8x8_cad_SendData\000"
 505      5F636164 
 505      5F53656E 
 505      64446174 
 505      6100
 506 005a 00       		.ascii	"\000"
 507 005b 02       		.ascii	"\002"
 508 005c 00       		.ascii	"\000"
 509 005d 00000000 		.ascii	"\000\000\000\000\000\000\000\000"
 509      00000000 
 510 0065 51010000 		.ascii	"Q\001\000\000"
 511 0069 75387838 		.ascii	"u8x8_cad_SendCmd\000"
 511      5F636164 
 511      5F53656E 
 511      64436D64 
 511      00
 512 007a 00       		.ascii	"\000"
 513 007b 02       		.ascii	"\002"
 514 007c 00       		.ascii	"\000"
 515 007d 00000000 		.ascii	"\000\000\000\000\000\000\000\000"
 515      00000000 
 516 0085 57010000 		.ascii	"W\001\000\000"
 517 0089 75387838 		.ascii	"u8x8_cad_StartTransfer\000"
 517      5F636164 
 517      5F537461 
 517      72745472 
 517      616E7366 
 518 00a0 00       		.ascii	"\000"
 519 00a1 02       		.ascii	"\002"
 520 00a2 00       		.ascii	"\000"
 521 00a3 00000000 		.ascii	"\000\000\000\000\000\000\000\000"
 521      00000000 
 522 00ab 5A010000 		.ascii	"Z\001\000\000"
 523 00af 75387838 		.ascii	"u8x8_cad_SendArg\000"
 523      5F636164 
 523      5F53656E 
 523      64417267 
 523      00
 524 00c0 00       		.ascii	"\000"
 525 00c1 02       		.ascii	"\002"
 526 00c2 00       		.ascii	"\000"
 527 00c3 00000000 		.ascii	"\000\000\000\000\000\000\000\000"
 527      00000000 
 528 00cb 5D010000 		.ascii	"]\001\000\000"
 529 00cf 75387838 		.ascii	"u8x8_cad_SendSequence\000"
 529      5F636164 
 529      5F53656E 
 529      64536571 
 529      75656E63 
 530 00e5 00       		.ascii	"\000"
 531 00e6 02       		.ascii	"\002"
 532 00e7 00       		.ascii	"\000"
 533 00e8 00000000 		.ascii	"\000\000\000\000\000\000\000\000"
 533      00000000 
ARM GAS  C:\Users\info\AppData\Local\Temp\ccewYYI6.s 			page 40


 534 00f0 62010000 		.ascii	"b\001\000\000"
 535 00f4 75387838 		.ascii	"u8x8_d_helper_display_init\000"
 535      5F645F68 
 535      656C7065 
 535      725F6469 
 535      73706C61 
 536 010f 00       		.ascii	"\000"
 537 0110 02       		.ascii	"\002"
 538 0111 00       		.ascii	"\000"
 539 0112 00000000 		.ascii	"\000\000\000\000\000\000\000\000"
 539      00000000 
 540 011a 66010000 		.ascii	"f\001\000\000"
 541 011e 75387838 		.ascii	"u8x8_d_helper_display_setup_memory\000"
 541      5F645F68 
 541      656C7065 
 541      725F6469 
 541      73706C61 
 542 0141 00       		.ascii	"\000"
 543 0142 02       		.ascii	"\002"
 544 0143 00       		.ascii	"\000"
 545 0144 00000000 		.ascii	"\000\000\000\000\000\000\000\000"
 545      00000000 
 546 014c 6B010000 		.ascii	"k\001\000\000"
 547              		.text
 548              		.section	.gnu.lto_.opts,"",%progbits
 549 0000 272D666D 		.ascii	"'-fmath-errno' '-fsigned-zeros' '-ftrapping-math' '"
 549      6174682D 
 549      6572726E 
 549      6F272027 
 549      2D667369 
 550 0033 2D666E6F 		.ascii	"-fno-trapv' '-fno-strict-overflow' '-fno-openmp' '-"
 550      2D747261 
 550      70762720 
 550      272D666E 
 550      6F2D7374 
 551 0066 666E6F2D 		.ascii	"fno-openacc' '-mcpu=cortex-m3' '-mthumb' '-g' '-Og'"
 551      6F70656E 
 551      61636327 
 551      20272D6D 
 551      6370753D 
 552 0099 20272D66 		.ascii	" '-ffunction-sections' '-ffat-lto-objects' '-flto'\000"
 552      66756E63 
 552      74696F6E 
 552      2D736563 
 552      74696F6E 
 553              		.text
 554              		.cfi_sections	.debug_frame
 555              		.section	.text.u8x8_d_pcf8812_96x65_generic,"ax",%progbits
 556              		.align	2
 557              		.thumb
 558              		.thumb_func
 559              		.type	u8x8_d_pcf8812_96x65_generic, %function
 560              	u8x8_d_pcf8812_96x65_generic:
 561              	.LFB0:
 562              		.file 1 "..\\u8g2_csrc\\u8x8_d_pcf8812.c"
   1:..\u8g2_csrc/u8x8_d_pcf8812.c **** /*
   2:..\u8g2_csrc/u8x8_d_pcf8812.c **** 
ARM GAS  C:\Users\info\AppData\Local\Temp\ccewYYI6.s 			page 41


   3:..\u8g2_csrc/u8x8_d_pcf8812.c ****   u8x8_d_pcf8812.c
   4:..\u8g2_csrc/u8x8_d_pcf8812.c ****   
   5:..\u8g2_csrc/u8x8_d_pcf8812.c ****   pcf8812: 65x102
   6:..\u8g2_csrc/u8x8_d_pcf8812.c ****   pcf8814: 65x96
   7:..\u8g2_csrc/u8x8_d_pcf8812.c **** 
   8:..\u8g2_csrc/u8x8_d_pcf8812.c ****   Universal 8bit Graphics Library (https://github.com/olikraus/u8g2/)
   9:..\u8g2_csrc/u8x8_d_pcf8812.c **** 
  10:..\u8g2_csrc/u8x8_d_pcf8812.c ****   Copyright (c) 2017, olikraus@gmail.com
  11:..\u8g2_csrc/u8x8_d_pcf8812.c ****   All rights reserved.
  12:..\u8g2_csrc/u8x8_d_pcf8812.c **** 
  13:..\u8g2_csrc/u8x8_d_pcf8812.c ****   Redistribution and use in source and binary forms, with or without modification, 
  14:..\u8g2_csrc/u8x8_d_pcf8812.c ****   are permitted provided that the following conditions are met:
  15:..\u8g2_csrc/u8x8_d_pcf8812.c **** 
  16:..\u8g2_csrc/u8x8_d_pcf8812.c ****   * Redistributions of source code must retain the above copyright notice, this list 
  17:..\u8g2_csrc/u8x8_d_pcf8812.c ****     of conditions and the following disclaimer.
  18:..\u8g2_csrc/u8x8_d_pcf8812.c ****     
  19:..\u8g2_csrc/u8x8_d_pcf8812.c ****   * Redistributions in binary form must reproduce the above copyright notice, this 
  20:..\u8g2_csrc/u8x8_d_pcf8812.c ****     list of conditions and the following disclaimer in the documentation and/or other 
  21:..\u8g2_csrc/u8x8_d_pcf8812.c ****     materials provided with the distribution.
  22:..\u8g2_csrc/u8x8_d_pcf8812.c **** 
  23:..\u8g2_csrc/u8x8_d_pcf8812.c ****   THIS SOFTWARE IS PROVIDED BY THE COPYRIGHT HOLDERS AND 
  24:..\u8g2_csrc/u8x8_d_pcf8812.c ****   CONTRIBUTORS "AS IS" AND ANY EXPRESS OR IMPLIED WARRANTIES, 
  25:..\u8g2_csrc/u8x8_d_pcf8812.c ****   INCLUDING, BUT NOT LIMITED TO, THE IMPLIED WARRANTIES OF 
  26:..\u8g2_csrc/u8x8_d_pcf8812.c ****   MERCHANTABILITY AND FITNESS FOR A PARTICULAR PURPOSE ARE 
  27:..\u8g2_csrc/u8x8_d_pcf8812.c ****   DISCLAIMED. IN NO EVENT SHALL THE COPYRIGHT HOLDER OR 
  28:..\u8g2_csrc/u8x8_d_pcf8812.c ****   CONTRIBUTORS BE LIABLE FOR ANY DIRECT, INDIRECT, INCIDENTAL, 
  29:..\u8g2_csrc/u8x8_d_pcf8812.c ****   SPECIAL, EXEMPLARY, OR CONSEQUENTIAL DAMAGES (INCLUDING, BUT 
  30:..\u8g2_csrc/u8x8_d_pcf8812.c ****   NOT LIMITED TO, PROCUREMENT OF SUBSTITUTE GOODS OR SERVICES; 
  31:..\u8g2_csrc/u8x8_d_pcf8812.c ****   LOSS OF USE, DATA, OR PROFITS; OR BUSINESS INTERRUPTION) HOWEVER 
  32:..\u8g2_csrc/u8x8_d_pcf8812.c ****   CAUSED AND ON ANY THEORY OF LIABILITY, WHETHER IN CONTRACT, 
  33:..\u8g2_csrc/u8x8_d_pcf8812.c ****   STRICT LIABILITY, OR TORT (INCLUDING NEGLIGENCE OR OTHERWISE) 
  34:..\u8g2_csrc/u8x8_d_pcf8812.c ****   ARISING IN ANY WAY OUT OF THE USE OF THIS SOFTWARE, EVEN IF 
  35:..\u8g2_csrc/u8x8_d_pcf8812.c ****   ADVISED OF THE POSSIBILITY OF SUCH DAMAGE.  
  36:..\u8g2_csrc/u8x8_d_pcf8812.c ****   
  37:..\u8g2_csrc/u8x8_d_pcf8812.c **** */
  38:..\u8g2_csrc/u8x8_d_pcf8812.c **** 
  39:..\u8g2_csrc/u8x8_d_pcf8812.c **** 
  40:..\u8g2_csrc/u8x8_d_pcf8812.c **** #include "u8x8.h"
  41:..\u8g2_csrc/u8x8_d_pcf8812.c **** 
  42:..\u8g2_csrc/u8x8_d_pcf8812.c **** 
  43:..\u8g2_csrc/u8x8_d_pcf8812.c **** 
  44:..\u8g2_csrc/u8x8_d_pcf8812.c **** static const uint8_t u8x8_d_pcf8812_96x65_init_seq[] = {
  45:..\u8g2_csrc/u8x8_d_pcf8812.c ****     
  46:..\u8g2_csrc/u8x8_d_pcf8812.c ****   U8X8_START_TRANSFER(),             	/* enable chip, delay is part of the transfer start */
  47:..\u8g2_csrc/u8x8_d_pcf8812.c ****   
  48:..\u8g2_csrc/u8x8_d_pcf8812.c ****   U8X8_C(0x020),		                /* activate chip (PD=0), horizontal increment (V=0), enter normal
  49:..\u8g2_csrc/u8x8_d_pcf8812.c ****   U8X8_C(0x008),		                /* blank display */
  50:..\u8g2_csrc/u8x8_d_pcf8812.c ****   
  51:..\u8g2_csrc/u8x8_d_pcf8812.c ****   U8X8_C(0x021),		                /* activate chip (PD=0), horizontal increment (V=0), enter extend
  52:..\u8g2_csrc/u8x8_d_pcf8812.c ****   U8X8_C(0x006),		                /* temp. control: b10 = 2 */
  53:..\u8g2_csrc/u8x8_d_pcf8812.c ****   U8X8_C(0x013),		                /* bias system, 0x010..0x07 1:48 */
  54:..\u8g2_csrc/u8x8_d_pcf8812.c ****   U8X8_C(0x09f),				/* contrast setting, 0..127 */
  55:..\u8g2_csrc/u8x8_d_pcf8812.c ****   //U8X8_CA(0x020 | 2, 0x080 | 0),				/* contrast setting, pcf8814 */
  56:..\u8g2_csrc/u8x8_d_pcf8812.c **** 
  57:..\u8g2_csrc/u8x8_d_pcf8812.c ****   U8X8_C(0x024),		                /* deactivate chip (PD=1), horizontal increment (V=0), enter norm
  58:..\u8g2_csrc/u8x8_d_pcf8812.c ****     
  59:..\u8g2_csrc/u8x8_d_pcf8812.c ****   U8X8_END_TRANSFER(),             	/* disable chip */
ARM GAS  C:\Users\info\AppData\Local\Temp\ccewYYI6.s 			page 42


  60:..\u8g2_csrc/u8x8_d_pcf8812.c ****   U8X8_END()             			/* end of sequence */
  61:..\u8g2_csrc/u8x8_d_pcf8812.c **** };
  62:..\u8g2_csrc/u8x8_d_pcf8812.c **** 
  63:..\u8g2_csrc/u8x8_d_pcf8812.c **** static const uint8_t u8x8_d_pcf8812_96x65_powersave0_seq[] = {
  64:..\u8g2_csrc/u8x8_d_pcf8812.c ****   U8X8_START_TRANSFER(),             	/* enable chip, delay is part of the transfer start */
  65:..\u8g2_csrc/u8x8_d_pcf8812.c ****   U8X8_C(0x020),		                /* power on */
  66:..\u8g2_csrc/u8x8_d_pcf8812.c ****   U8X8_C(0x00c),		                /* display on */
  67:..\u8g2_csrc/u8x8_d_pcf8812.c ****   U8X8_END_TRANSFER(),             	/* disable chip */
  68:..\u8g2_csrc/u8x8_d_pcf8812.c ****   U8X8_END()             			/* end of sequence */
  69:..\u8g2_csrc/u8x8_d_pcf8812.c **** };
  70:..\u8g2_csrc/u8x8_d_pcf8812.c **** 
  71:..\u8g2_csrc/u8x8_d_pcf8812.c **** static const uint8_t u8x8_d_pcf8812_96x65_powersave1_seq[] = {
  72:..\u8g2_csrc/u8x8_d_pcf8812.c ****   U8X8_START_TRANSFER(),             	/* enable chip, delay is part of the transfer start */
  73:..\u8g2_csrc/u8x8_d_pcf8812.c ****   U8X8_C(0x020),		                /* power on */
  74:..\u8g2_csrc/u8x8_d_pcf8812.c ****   U8X8_C(0x008),		                /* blank display */
  75:..\u8g2_csrc/u8x8_d_pcf8812.c ****   U8X8_C(0x024),		                /* power down */
  76:..\u8g2_csrc/u8x8_d_pcf8812.c ****   U8X8_END_TRANSFER(),             	/* disable chip */
  77:..\u8g2_csrc/u8x8_d_pcf8812.c ****   U8X8_END()             			/* end of sequence */
  78:..\u8g2_csrc/u8x8_d_pcf8812.c **** };
  79:..\u8g2_csrc/u8x8_d_pcf8812.c **** 
  80:..\u8g2_csrc/u8x8_d_pcf8812.c **** 
  81:..\u8g2_csrc/u8x8_d_pcf8812.c **** static uint8_t u8x8_d_pcf8812_96x65_generic(u8x8_t *u8x8, uint8_t msg, uint8_t arg_int, void *arg_p
  82:..\u8g2_csrc/u8x8_d_pcf8812.c **** {
 563              		.loc 1 82 0
 564              		.cfi_startproc
 565              		@ args = 0, pretend = 0, frame = 0
 566              		@ frame_needed = 0, uses_anonymous_args = 0
 567              	.LVL0:
 568 0000 F8B5     		push	{r3, r4, r5, r6, r7, lr}
 569              		.cfi_def_cfa_offset 24
 570              		.cfi_offset 3, -24
 571              		.cfi_offset 4, -20
 572              		.cfi_offset 5, -16
 573              		.cfi_offset 6, -12
 574              		.cfi_offset 7, -8
 575              		.cfi_offset 14, -4
 576 0002 0646     		mov	r6, r0
 577 0004 1446     		mov	r4, r2
 578 0006 1D46     		mov	r5, r3
  83:..\u8g2_csrc/u8x8_d_pcf8812.c ****   uint8_t x, c;
  84:..\u8g2_csrc/u8x8_d_pcf8812.c ****   uint8_t *ptr;
  85:..\u8g2_csrc/u8x8_d_pcf8812.c ****   switch(msg)
 579              		.loc 1 85 0
 580 0008 0A39     		subs	r1, r1, #10
 581              	.LVL1:
 582 000a 0529     		cmp	r1, #5
 583 000c 51D8     		bhi	.L10
 584 000e DFE801F0 		tbb	[pc, r1]
 585              	.LVL2:
 586              	.L4:
 587 0012 03       		.byte	(.L3-.L4)/2
 588 0013 0B       		.byte	(.L5-.L4)/2
 589 0014 50       		.byte	(.L10-.L4)/2
 590 0015 50       		.byte	(.L10-.L4)/2
 591 0016 16       		.byte	(.L6-.L4)/2
 592 0017 27       		.byte	(.L7-.L4)/2
 593              		.p2align 1
ARM GAS  C:\Users\info\AppData\Local\Temp\ccewYYI6.s 			page 43


 594              	.L3:
  86:..\u8g2_csrc/u8x8_d_pcf8812.c ****   {
  87:..\u8g2_csrc/u8x8_d_pcf8812.c ****     /* handled by the calling function
  88:..\u8g2_csrc/u8x8_d_pcf8812.c ****     case U8X8_MSG_DISPLAY_SETUP_MEMORY:
  89:..\u8g2_csrc/u8x8_d_pcf8812.c ****       u8x8_d_helper_display_setup_memory(u8x8, &u8x8_pcf8812_96x65_display_info);
  90:..\u8g2_csrc/u8x8_d_pcf8812.c ****       break;
  91:..\u8g2_csrc/u8x8_d_pcf8812.c ****     */
  92:..\u8g2_csrc/u8x8_d_pcf8812.c ****     case U8X8_MSG_DISPLAY_INIT:
  93:..\u8g2_csrc/u8x8_d_pcf8812.c ****       u8x8_d_helper_display_init(u8x8);
 595              		.loc 1 93 0
 596 0018 FFF7FEFF 		bl	u8x8_d_helper_display_init
 597              	.LVL3:
  94:..\u8g2_csrc/u8x8_d_pcf8812.c ****       u8x8_cad_SendSequence(u8x8, u8x8_d_pcf8812_96x65_init_seq);    
 598              		.loc 1 94 0
 599 001c 2649     		ldr	r1, .L12
 600 001e 3046     		mov	r0, r6
 601 0020 FFF7FEFF 		bl	u8x8_cad_SendSequence
 602              	.LVL4:
  95:..\u8g2_csrc/u8x8_d_pcf8812.c ****       break;
  96:..\u8g2_csrc/u8x8_d_pcf8812.c ****     case U8X8_MSG_DISPLAY_SET_POWER_SAVE:
  97:..\u8g2_csrc/u8x8_d_pcf8812.c ****       if ( arg_int == 0 )
  98:..\u8g2_csrc/u8x8_d_pcf8812.c **** 	u8x8_cad_SendSequence(u8x8, u8x8_d_pcf8812_96x65_powersave0_seq);
  99:..\u8g2_csrc/u8x8_d_pcf8812.c ****       else
 100:..\u8g2_csrc/u8x8_d_pcf8812.c **** 	u8x8_cad_SendSequence(u8x8, u8x8_d_pcf8812_96x65_powersave1_seq);
 101:..\u8g2_csrc/u8x8_d_pcf8812.c ****       break;
 102:..\u8g2_csrc/u8x8_d_pcf8812.c **** /*
 103:..\u8g2_csrc/u8x8_d_pcf8812.c ****     case U8X8_MSG_DISPLAY_SET_FLIP_MODE:
 104:..\u8g2_csrc/u8x8_d_pcf8812.c ****       if ( arg_int == 0 )
 105:..\u8g2_csrc/u8x8_d_pcf8812.c ****       {
 106:..\u8g2_csrc/u8x8_d_pcf8812.c **** 	u8x8_cad_SendSequence(u8x8, u8x8_d_pcf8812_96x65_flip0_seq);
 107:..\u8g2_csrc/u8x8_d_pcf8812.c **** 	u8x8->x_offset = u8x8->display_info->default_x_offset;
 108:..\u8g2_csrc/u8x8_d_pcf8812.c ****       }
 109:..\u8g2_csrc/u8x8_d_pcf8812.c ****       else
 110:..\u8g2_csrc/u8x8_d_pcf8812.c ****       {
 111:..\u8g2_csrc/u8x8_d_pcf8812.c **** 	u8x8_cad_SendSequence(u8x8, u8x8_d_pcf8812_96x65_flip1_seq);
 112:..\u8g2_csrc/u8x8_d_pcf8812.c **** 	u8x8->x_offset = u8x8->display_info->flipmode_x_offset;
 113:..\u8g2_csrc/u8x8_d_pcf8812.c ****       }
 114:..\u8g2_csrc/u8x8_d_pcf8812.c ****       break;
 115:..\u8g2_csrc/u8x8_d_pcf8812.c **** */
 116:..\u8g2_csrc/u8x8_d_pcf8812.c **** #ifdef U8X8_WITH_SET_CONTRAST
 117:..\u8g2_csrc/u8x8_d_pcf8812.c ****     case U8X8_MSG_DISPLAY_SET_CONTRAST:
 118:..\u8g2_csrc/u8x8_d_pcf8812.c ****       u8x8_cad_StartTransfer(u8x8);
 119:..\u8g2_csrc/u8x8_d_pcf8812.c ****       u8x8_cad_SendCmd(u8x8, 0x021 );    /* command mode, extended function set */
 120:..\u8g2_csrc/u8x8_d_pcf8812.c ****       u8x8_cad_SendArg(u8x8, (arg_int>>1)|0x80 );	/* 0..127 for contrast */
 121:..\u8g2_csrc/u8x8_d_pcf8812.c ****       u8x8_cad_EndTransfer(u8x8);
 122:..\u8g2_csrc/u8x8_d_pcf8812.c ****       break;
 123:..\u8g2_csrc/u8x8_d_pcf8812.c **** #endif
 124:..\u8g2_csrc/u8x8_d_pcf8812.c ****     case U8X8_MSG_DISPLAY_DRAW_TILE:
 125:..\u8g2_csrc/u8x8_d_pcf8812.c ****       u8x8_cad_StartTransfer(u8x8);
 126:..\u8g2_csrc/u8x8_d_pcf8812.c ****       x = ((u8x8_tile_t *)arg_ptr)->x_pos;    
 127:..\u8g2_csrc/u8x8_d_pcf8812.c ****       x *= 8;
 128:..\u8g2_csrc/u8x8_d_pcf8812.c ****       x += u8x8->x_offset;
 129:..\u8g2_csrc/u8x8_d_pcf8812.c ****     
 130:..\u8g2_csrc/u8x8_d_pcf8812.c ****       u8x8_cad_SendCmd(u8x8, 0x020 );	/* activate chip (PD=0), horizontal increment (V=0), enter no
 131:..\u8g2_csrc/u8x8_d_pcf8812.c ****       u8x8_cad_SendCmd(u8x8, 0x080 | x);
 132:..\u8g2_csrc/u8x8_d_pcf8812.c ****       u8x8_cad_SendCmd(u8x8, 0x040 | ((u8x8_tile_t *)arg_ptr)->y_pos);
 133:..\u8g2_csrc/u8x8_d_pcf8812.c ****       
ARM GAS  C:\Users\info\AppData\Local\Temp\ccewYYI6.s 			page 44


 134:..\u8g2_csrc/u8x8_d_pcf8812.c ****       do
 135:..\u8g2_csrc/u8x8_d_pcf8812.c ****       {
 136:..\u8g2_csrc/u8x8_d_pcf8812.c **** 	c = ((u8x8_tile_t *)arg_ptr)->cnt;
 137:..\u8g2_csrc/u8x8_d_pcf8812.c **** 	ptr = ((u8x8_tile_t *)arg_ptr)->tile_ptr;
 138:..\u8g2_csrc/u8x8_d_pcf8812.c **** 	u8x8_cad_SendData(u8x8, c*8, ptr); 	/* note: SendData can not handle more than 255 bytes */
 139:..\u8g2_csrc/u8x8_d_pcf8812.c **** 	/*
 140:..\u8g2_csrc/u8x8_d_pcf8812.c **** 	do
 141:..\u8g2_csrc/u8x8_d_pcf8812.c **** 	{
 142:..\u8g2_csrc/u8x8_d_pcf8812.c **** 	  u8x8_cad_SendData(u8x8, 8, ptr);
 143:..\u8g2_csrc/u8x8_d_pcf8812.c **** 	  ptr += 8;
 144:..\u8g2_csrc/u8x8_d_pcf8812.c **** 	  c--;
 145:..\u8g2_csrc/u8x8_d_pcf8812.c **** 	} while( c > 0 );
 146:..\u8g2_csrc/u8x8_d_pcf8812.c **** 	*/
 147:..\u8g2_csrc/u8x8_d_pcf8812.c **** 	arg_int--;
 148:..\u8g2_csrc/u8x8_d_pcf8812.c ****       } while( arg_int > 0 );
 149:..\u8g2_csrc/u8x8_d_pcf8812.c ****       
 150:..\u8g2_csrc/u8x8_d_pcf8812.c ****       u8x8_cad_EndTransfer(u8x8);
 151:..\u8g2_csrc/u8x8_d_pcf8812.c ****       break;
 152:..\u8g2_csrc/u8x8_d_pcf8812.c ****     default:
 153:..\u8g2_csrc/u8x8_d_pcf8812.c ****       return 0;
 154:..\u8g2_csrc/u8x8_d_pcf8812.c ****   }
 155:..\u8g2_csrc/u8x8_d_pcf8812.c ****   return 1;
 603              		.loc 1 155 0
 604 0024 0120     		movs	r0, #1
  95:..\u8g2_csrc/u8x8_d_pcf8812.c ****       break;
 605              		.loc 1 95 0
 606 0026 F8BD     		pop	{r3, r4, r5, r6, r7, pc}
 607              	.LVL5:
 608              	.L5:
  97:..\u8g2_csrc/u8x8_d_pcf8812.c **** 	u8x8_cad_SendSequence(u8x8, u8x8_d_pcf8812_96x65_powersave0_seq);
 609              		.loc 1 97 0
 610 0028 22B9     		cbnz	r2, .L8
  98:..\u8g2_csrc/u8x8_d_pcf8812.c ****       else
 611              		.loc 1 98 0
 612 002a 2449     		ldr	r1, .L12+4
 613 002c FFF7FEFF 		bl	u8x8_cad_SendSequence
 614              	.LVL6:
 615              		.loc 1 155 0
 616 0030 0120     		movs	r0, #1
 617 0032 F8BD     		pop	{r3, r4, r5, r6, r7, pc}
 618              	.LVL7:
 619              	.L8:
 100:..\u8g2_csrc/u8x8_d_pcf8812.c ****       break;
 620              		.loc 1 100 0
 621 0034 2249     		ldr	r1, .L12+8
 622 0036 FFF7FEFF 		bl	u8x8_cad_SendSequence
 623              	.LVL8:
 624              		.loc 1 155 0
 625 003a 0120     		movs	r0, #1
 626 003c F8BD     		pop	{r3, r4, r5, r6, r7, pc}
 627              	.LVL9:
 628              	.L6:
 118:..\u8g2_csrc/u8x8_d_pcf8812.c ****       u8x8_cad_SendCmd(u8x8, 0x021 );    /* command mode, extended function set */
 629              		.loc 1 118 0
 630 003e FFF7FEFF 		bl	u8x8_cad_StartTransfer
 631              	.LVL10:
 119:..\u8g2_csrc/u8x8_d_pcf8812.c ****       u8x8_cad_SendArg(u8x8, (arg_int>>1)|0x80 );	/* 0..127 for contrast */
ARM GAS  C:\Users\info\AppData\Local\Temp\ccewYYI6.s 			page 45


 632              		.loc 1 119 0
 633 0042 2121     		movs	r1, #33
 634 0044 3046     		mov	r0, r6
 635 0046 FFF7FEFF 		bl	u8x8_cad_SendCmd
 636              	.LVL11:
 120:..\u8g2_csrc/u8x8_d_pcf8812.c ****       u8x8_cad_EndTransfer(u8x8);
 637              		.loc 1 120 0
 638 004a 6108     		lsrs	r1, r4, #1
 639 004c 41F08001 		orr	r1, r1, #128
 640 0050 3046     		mov	r0, r6
 641 0052 FFF7FEFF 		bl	u8x8_cad_SendArg
 642              	.LVL12:
 121:..\u8g2_csrc/u8x8_d_pcf8812.c ****       break;
 643              		.loc 1 121 0
 644 0056 3046     		mov	r0, r6
 645 0058 FFF7FEFF 		bl	u8x8_cad_EndTransfer
 646              	.LVL13:
 647              		.loc 1 155 0
 648 005c 0120     		movs	r0, #1
 122:..\u8g2_csrc/u8x8_d_pcf8812.c **** #endif
 649              		.loc 1 122 0
 650 005e F8BD     		pop	{r3, r4, r5, r6, r7, pc}
 651              	.LVL14:
 652              	.L7:
 125:..\u8g2_csrc/u8x8_d_pcf8812.c ****       x = ((u8x8_tile_t *)arg_ptr)->x_pos;    
 653              		.loc 1 125 0
 654 0060 FFF7FEFF 		bl	u8x8_cad_StartTransfer
 655              	.LVL15:
 126:..\u8g2_csrc/u8x8_d_pcf8812.c ****       x *= 8;
 656              		.loc 1 126 0
 657 0064 6F79     		ldrb	r7, [r5, #5]	@ zero_extendqisi2
 658              	.LVL16:
 127:..\u8g2_csrc/u8x8_d_pcf8812.c ****       x += u8x8->x_offset;
 659              		.loc 1 127 0
 660 0066 FF00     		lsls	r7, r7, #3
 661              	.LVL17:
 662 0068 FFB2     		uxtb	r7, r7
 663              	.LVL18:
 128:..\u8g2_csrc/u8x8_d_pcf8812.c ****     
 664              		.loc 1 128 0
 665 006a 96F82230 		ldrb	r3, [r6, #34]	@ zero_extendqisi2
 666 006e 1F44     		add	r7, r7, r3
 667              	.LVL19:
 668 0070 FFB2     		uxtb	r7, r7
 669              	.LVL20:
 130:..\u8g2_csrc/u8x8_d_pcf8812.c ****       u8x8_cad_SendCmd(u8x8, 0x080 | x);
 670              		.loc 1 130 0
 671 0072 2021     		movs	r1, #32
 672 0074 3046     		mov	r0, r6
 673 0076 FFF7FEFF 		bl	u8x8_cad_SendCmd
 674              	.LVL21:
 131:..\u8g2_csrc/u8x8_d_pcf8812.c ****       u8x8_cad_SendCmd(u8x8, 0x040 | ((u8x8_tile_t *)arg_ptr)->y_pos);
 675              		.loc 1 131 0
 676 007a 47F08001 		orr	r1, r7, #128
 677 007e 3046     		mov	r0, r6
 678 0080 FFF7FEFF 		bl	u8x8_cad_SendCmd
 679              	.LVL22:
ARM GAS  C:\Users\info\AppData\Local\Temp\ccewYYI6.s 			page 46


 132:..\u8g2_csrc/u8x8_d_pcf8812.c ****       
 680              		.loc 1 132 0
 681 0084 A979     		ldrb	r1, [r5, #6]	@ zero_extendqisi2
 682 0086 41F04001 		orr	r1, r1, #64
 683 008a 3046     		mov	r0, r6
 684 008c FFF7FEFF 		bl	u8x8_cad_SendCmd
 685              	.LVL23:
 686              	.L9:
 136:..\u8g2_csrc/u8x8_d_pcf8812.c **** 	ptr = ((u8x8_tile_t *)arg_ptr)->tile_ptr;
 687              		.loc 1 136 0 discriminator 1
 688 0090 2979     		ldrb	r1, [r5, #4]	@ zero_extendqisi2
 689              	.LVL24:
 138:..\u8g2_csrc/u8x8_d_pcf8812.c **** 	/*
 690              		.loc 1 138 0 discriminator 1
 691 0092 C900     		lsls	r1, r1, #3
 692              	.LVL25:
 693 0094 2A68     		ldr	r2, [r5]
 694 0096 01F0F801 		and	r1, r1, #248
 695 009a 3046     		mov	r0, r6
 696 009c FFF7FEFF 		bl	u8x8_cad_SendData
 697              	.LVL26:
 147:..\u8g2_csrc/u8x8_d_pcf8812.c ****       } while( arg_int > 0 );
 698              		.loc 1 147 0 discriminator 1
 699 00a0 621E     		subs	r2, r4, #1
 700              	.LVL27:
 148:..\u8g2_csrc/u8x8_d_pcf8812.c ****       
 701              		.loc 1 148 0 discriminator 1
 702 00a2 12F0FF04 		ands	r4, r2, #255
 703 00a6 F3D1     		bne	.L9
 150:..\u8g2_csrc/u8x8_d_pcf8812.c ****       break;
 704              		.loc 1 150 0
 705 00a8 3046     		mov	r0, r6
 706 00aa FFF7FEFF 		bl	u8x8_cad_EndTransfer
 707              	.LVL28:
 708              		.loc 1 155 0
 709 00ae 0120     		movs	r0, #1
 151:..\u8g2_csrc/u8x8_d_pcf8812.c ****     default:
 710              		.loc 1 151 0
 711 00b0 F8BD     		pop	{r3, r4, r5, r6, r7, pc}
 712              	.LVL29:
 713              	.L10:
 153:..\u8g2_csrc/u8x8_d_pcf8812.c ****   }
 714              		.loc 1 153 0
 715 00b2 0020     		movs	r0, #0
 716              	.LVL30:
 156:..\u8g2_csrc/u8x8_d_pcf8812.c **** }
 717              		.loc 1 156 0
 718 00b4 F8BD     		pop	{r3, r4, r5, r6, r7, pc}
 719              	.LVL31:
 720              	.L13:
 721 00b6 00BF     		.align	2
 722              	.L12:
 723 00b8 00000000 		.word	.LANCHOR0
 724 00bc 14000000 		.word	.LANCHOR0+20
 725 00c0 1C000000 		.word	.LANCHOR0+28
 726              		.cfi_endproc
 727              	.LFE0:
ARM GAS  C:\Users\info\AppData\Local\Temp\ccewYYI6.s 			page 47


 728              		.size	u8x8_d_pcf8812_96x65_generic, .-u8x8_d_pcf8812_96x65_generic
 729              		.section	.text.u8x8_d_pcf8812_96x65,"ax",%progbits
 730              		.align	2
 731              		.global	u8x8_d_pcf8812_96x65
 732              		.thumb
 733              		.thumb_func
 734              		.type	u8x8_d_pcf8812_96x65, %function
 735              	u8x8_d_pcf8812_96x65:
 736              	.LFB1:
 157:..\u8g2_csrc/u8x8_d_pcf8812.c **** 
 158:..\u8g2_csrc/u8x8_d_pcf8812.c **** 
 159:..\u8g2_csrc/u8x8_d_pcf8812.c **** static const u8x8_display_info_t u8x8_pcf8812_96x65_display_info =
 160:..\u8g2_csrc/u8x8_d_pcf8812.c **** {
 161:..\u8g2_csrc/u8x8_d_pcf8812.c ****   /* chip_enable_level = */ 0,
 162:..\u8g2_csrc/u8x8_d_pcf8812.c ****   /* chip_disable_level = */ 1,
 163:..\u8g2_csrc/u8x8_d_pcf8812.c ****   
 164:..\u8g2_csrc/u8x8_d_pcf8812.c ****   /* post_chip_enable_wait_ns = */ 100,
 165:..\u8g2_csrc/u8x8_d_pcf8812.c ****   /* pre_chip_disable_wait_ns = */ 100,
 166:..\u8g2_csrc/u8x8_d_pcf8812.c ****   /* reset_pulse_width_ms = */ 100, 
 167:..\u8g2_csrc/u8x8_d_pcf8812.c ****   /* post_reset_wait_ms = */ 100, 
 168:..\u8g2_csrc/u8x8_d_pcf8812.c ****   /* sda_setup_time_ns = */ 100,	
 169:..\u8g2_csrc/u8x8_d_pcf8812.c ****   /* sck_pulse_width_ns = */ 100,	
 170:..\u8g2_csrc/u8x8_d_pcf8812.c ****   /* sck_clock_hz = */ 4000000UL,	/* since Arduino 1.6.0, the SPI bus speed in Hz. Should be  10000
 171:..\u8g2_csrc/u8x8_d_pcf8812.c ****   /* spi_mode = */ 0,		/* active high, rising edge */
 172:..\u8g2_csrc/u8x8_d_pcf8812.c ****   /* i2c_bus_clock_100kHz = */ 4,
 173:..\u8g2_csrc/u8x8_d_pcf8812.c ****   /* data_setup_time_ns = */ 40,
 174:..\u8g2_csrc/u8x8_d_pcf8812.c ****   /* write_pulse_width_ns = */ 150,	
 175:..\u8g2_csrc/u8x8_d_pcf8812.c ****   /* tile_width = */ 12,
 176:..\u8g2_csrc/u8x8_d_pcf8812.c ****   /* tile_hight = */ 9,
 177:..\u8g2_csrc/u8x8_d_pcf8812.c ****   /* default_x_offset = */ 0,
 178:..\u8g2_csrc/u8x8_d_pcf8812.c ****   /* flipmode_x_offset = */ 0,
 179:..\u8g2_csrc/u8x8_d_pcf8812.c ****   /* pixel_width = */ 96,
 180:..\u8g2_csrc/u8x8_d_pcf8812.c ****   /* pixel_height = */ 65
 181:..\u8g2_csrc/u8x8_d_pcf8812.c **** };
 182:..\u8g2_csrc/u8x8_d_pcf8812.c **** 
 183:..\u8g2_csrc/u8x8_d_pcf8812.c **** uint8_t u8x8_d_pcf8812_96x65(u8x8_t *u8x8, uint8_t msg, uint8_t arg_int, void *arg_ptr)
 184:..\u8g2_csrc/u8x8_d_pcf8812.c **** {
 737              		.loc 1 184 0
 738              		.cfi_startproc
 739              		@ args = 0, pretend = 0, frame = 0
 740              		@ frame_needed = 0, uses_anonymous_args = 0
 741              	.LVL32:
 742 0000 08B5     		push	{r3, lr}
 743              		.cfi_def_cfa_offset 8
 744              		.cfi_offset 3, -8
 745              		.cfi_offset 14, -4
 185:..\u8g2_csrc/u8x8_d_pcf8812.c ****     if ( msg == U8X8_MSG_DISPLAY_SETUP_MEMORY )
 746              		.loc 1 185 0
 747 0002 0929     		cmp	r1, #9
 748 0004 04D1     		bne	.L15
 186:..\u8g2_csrc/u8x8_d_pcf8812.c ****     {
 187:..\u8g2_csrc/u8x8_d_pcf8812.c ****       u8x8_d_helper_display_setup_memory(u8x8, &u8x8_pcf8812_96x65_display_info);
 749              		.loc 1 187 0
 750 0006 0449     		ldr	r1, .L18
 751              	.LVL33:
 752 0008 FFF7FEFF 		bl	u8x8_d_helper_display_setup_memory
 753              	.LVL34:
ARM GAS  C:\Users\info\AppData\Local\Temp\ccewYYI6.s 			page 48


 188:..\u8g2_csrc/u8x8_d_pcf8812.c ****       return 1;
 754              		.loc 1 188 0
 755 000c 0120     		movs	r0, #1
 756 000e 08BD     		pop	{r3, pc}
 757              	.LVL35:
 758              	.L15:
 189:..\u8g2_csrc/u8x8_d_pcf8812.c ****     }
 190:..\u8g2_csrc/u8x8_d_pcf8812.c ****     return u8x8_d_pcf8812_96x65_generic(u8x8, msg, arg_int, arg_ptr);
 759              		.loc 1 190 0
 760 0010 FFF7FEFF 		bl	u8x8_d_pcf8812_96x65_generic
 761              	.LVL36:
 191:..\u8g2_csrc/u8x8_d_pcf8812.c **** }
 762              		.loc 1 191 0
 763 0014 08BD     		pop	{r3, pc}
 764              	.L19:
 765 0016 00BF     		.align	2
 766              	.L18:
 767 0018 28000000 		.word	.LANCHOR0+40
 768              		.cfi_endproc
 769              	.LFE1:
 770              		.size	u8x8_d_pcf8812_96x65, .-u8x8_d_pcf8812_96x65
 771              		.section	.rodata
 772              		.align	2
 773              		.set	.LANCHOR0,. + 0
 774              		.type	u8x8_d_pcf8812_96x65_init_seq, %object
 775              		.size	u8x8_d_pcf8812_96x65_init_seq, 17
 776              	u8x8_d_pcf8812_96x65_init_seq:
 777 0000 18       		.byte	24
 778 0001 15       		.byte	21
 779 0002 20       		.byte	32
 780 0003 15       		.byte	21
 781 0004 08       		.byte	8
 782 0005 15       		.byte	21
 783 0006 21       		.byte	33
 784 0007 15       		.byte	21
 785 0008 06       		.byte	6
 786 0009 15       		.byte	21
 787 000a 13       		.byte	19
 788 000b 15       		.byte	21
 789 000c 9F       		.byte	-97
 790 000d 15       		.byte	21
 791 000e 24       		.byte	36
 792 000f 19       		.byte	25
 793 0010 FF       		.byte	-1
 794 0011 000000   		.space	3
 795              		.type	u8x8_d_pcf8812_96x65_powersave0_seq, %object
 796              		.size	u8x8_d_pcf8812_96x65_powersave0_seq, 7
 797              	u8x8_d_pcf8812_96x65_powersave0_seq:
 798 0014 18       		.byte	24
 799 0015 15       		.byte	21
 800 0016 20       		.byte	32
 801 0017 15       		.byte	21
 802 0018 0C       		.byte	12
 803 0019 19       		.byte	25
 804 001a FF       		.byte	-1
 805 001b 00       		.space	1
 806              		.type	u8x8_d_pcf8812_96x65_powersave1_seq, %object
ARM GAS  C:\Users\info\AppData\Local\Temp\ccewYYI6.s 			page 49


 807              		.size	u8x8_d_pcf8812_96x65_powersave1_seq, 9
 808              	u8x8_d_pcf8812_96x65_powersave1_seq:
 809 001c 18       		.byte	24
 810 001d 15       		.byte	21
 811 001e 20       		.byte	32
 812 001f 15       		.byte	21
 813 0020 08       		.byte	8
 814 0021 15       		.byte	21
 815 0022 24       		.byte	36
 816 0023 19       		.byte	25
 817 0024 FF       		.byte	-1
 818 0025 000000   		.space	3
 819              		.type	u8x8_pcf8812_96x65_display_info, %object
 820              		.size	u8x8_pcf8812_96x65_display_info, 24
 821              	u8x8_pcf8812_96x65_display_info:
 822 0028 00       		.byte	0
 823 0029 01       		.byte	1
 824 002a 64       		.byte	100
 825 002b 64       		.byte	100
 826 002c 64       		.byte	100
 827 002d 64       		.byte	100
 828 002e 64       		.byte	100
 829 002f 64       		.byte	100
 830 0030 00093D00 		.word	4000000
 831 0034 00       		.byte	0
 832 0035 04       		.byte	4
 833 0036 28       		.byte	40
 834 0037 96       		.byte	-106
 835 0038 0C       		.byte	12
 836 0039 09       		.byte	9
 837 003a 00       		.byte	0
 838 003b 00       		.byte	0
 839 003c 6000     		.short	96
 840 003e 4100     		.short	65
 841              		.text
 842              	.Letext0:
 843              		.file 2 "c:\\program files (x86)\\cypress\\psoc creator\\4.2\\psoc creator\\import\\gnu\\arm\\5.4.
 844              		.file 3 "c:\\program files (x86)\\cypress\\psoc creator\\4.2\\psoc creator\\import\\gnu\\arm\\5.4.
 845              		.file 4 "..\\u8g2_csrc\\u8x8.h"