ARM GAS  C:\Users\info\AppData\Local\Temp\ccCcgjUV.s 			page 1


   1              		.syntax unified
   2              		.cpu cortex-m3
   3              		.fpu softvfp
   4              		.eabi_attribute 20, 1
   5              		.eabi_attribute 21, 1
   6              		.eabi_attribute 23, 3
   7              		.eabi_attribute 24, 1
   8              		.eabi_attribute 25, 1
   9              		.eabi_attribute 26, 1
  10              		.eabi_attribute 30, 1
  11              		.eabi_attribute 34, 1
  12              		.eabi_attribute 18, 4
  13              		.thumb
  14              		.syntax unified
  15              		.file	"u8x8_d_pcd8544_84x48.c"
  16              		.text
  17              	.Ltext0:
  18              		.section	.gnu.lto_.profile.792a2049,"",%progbits
  19 0000 789C6361 		.ascii	"x\234ca`d`e`\000\222\347\030\375\000\0038\001)"
  19      60646065 
  19      600092E7 
  19      18FD0003 
  19      380129
  20              		.text
  21              		.section	.gnu.lto_.inline.792a2049,"",%progbits
  22 0000 789C6361 		.ascii	"x\234ca`d\000\201\211\014\010\000\024\271\300p\021H"
  22      60640081 
  22      890C0800 
  22      14B9C070 
  22      1148
  23 0012 31395F98 		.ascii	"19_\230\310\314\300}O\225\011$\314\304\015\224\232\340"
  23      C8CCC07D 
  23      4F950924 
  23      CCC40D94 
  23      9AE0
  24 0024 C7C2CBC8 		.ascii	"\307\302\313\310\300|Be\202_\017\0333\017Pt\202\337"
  24      C07C4265 
  24      825F0F1B 
  24      330F5074 
  24      82DF
  25 0036 043F7406 		.ascii	"\004?t\006L-\224\302%\015\343\242\323h\322\014\000Q"
  25      4C2D94C2 
  25      250DE3A2 
  25      D368D20C 
  25      0051
  26 0048 871701   		.ascii	"\207\027\001"
  27              		.text
  28              		.section	.gnu.lto_.jmpfuncs.792a2049,"",%progbits
  29 0000 789C6361 		.ascii	"x\234ca`d\000\001\021\006\004`d\300\004\000\003\202"
  29      60640001 
  29      11060460 
  29      64C00400 
  29      0382
  30 0012 001B     		.ascii	"\000\033"
  31              		.text
  32              		.section	.gnu.lto_.pureconst.792a2049,"",%progbits
  33 0000 789C6361 		.ascii	"x\234ca`d`f`\000\222\222\000\000q\000#"
ARM GAS  C:\Users\info\AppData\Local\Temp\ccCcgjUV.s 			page 2


  33      60646066 
  33      60009292 
  33      00007100 
  33      23
  34              		.text
  35              		.section	.gnu.lto_u8x8_d_pcd8544_84x48.792a2049,"",%progbits
  36 0000 789C9557 		.ascii	"x\234\225WkpTE\026\356s\373\316\353\316\223\025\262"
  36      6B705445 
  36      16EE73FB 
  36      CEEBCE93 
  36      15B2
  37 0012 3C061390 		.ascii	"<\006\023\220\020\302&\221\322l\221\252\365\207VY\352"
  37      10C22691 
  37      D26C91AA 
  37      F5875659 
  37      EA
  38 0023 6FFD8B95 		.ascii	"o\375\213\225\332\012[\354\226\245e\241[\305\037+7\231"
  38      DA0A5BEC 
  38      96A565A1 
  38      5BC51F2B 
  38      3799
  39 0035 4C42523E 		.ascii	"LBR>\300\225\230eA\2644\242&\022\222\010\230\030tD%"
  39      C0959865 
  39      41B434A2 
  39      26129208 
  39      98187444 
  40 004a 90178444 		.ascii	"\220\027\204DB@\020#D`#\232\211,1\202\263\347\234\276"
  40      42401023 
  40      4460239A 
  40      892C3182 
  40      B3E79CBE 
  41 005e 37C99019 		.ascii	"7\311\220\031\037S5}\273{\316w\372|\347|\335}G\027 "
  41      1F53357D 
  41      BB7BCE77 
  41      FA7CE77C 
  41      DD7D4717 
  42 0073 E8931510 		.ascii	"\350\223\025\020\342A|\216\342\027\346\011\320\266\364"
  42      E2417C8E 
  42      E217E609 
  42      D0B6F4
  43 0082 0951E6D6 		.ascii	"\011Q\346\326\234\301\210_\230n\311\255\316\255\203"
  43      9CC1885F 
  43      986EC9AD 
  43      CEAD83
  44 0091 5B37B71E 		.ascii	"[7\267\036\365+\004\225\271nw\034\232ss\2160\015\027"
  44      F52B0495 
  44      B96E771C 
  44      9A73738E 
  44      300D17
  45 00a4 B53EA73D 		.ascii	"\265>\247=\355\262;n\273\343\001Cu\014\315\333\261\026"
  45      EDB23B6E 
  45      BBE30143 
  45      750CCDDB 
  45      B116
  46 00b6 11FEC10C 		.ascii	"\021\376\301\014Dx\265\300!\211#__\227\300\241\017\374"
  46      4478B5C0 
  46      2189235F 
ARM GAS  C:\Users\info\AppData\Local\Temp\ccCcgjUV.s 			page 3


  46      5F97C0A1 
  46      0FFC
  47 00c8 CACAAF85 		.ascii	"\312\312\257\205x\306\340\237}!\205\276/`\273\013\002"
  47      78C6E09F 
  47      7D2185BE 
  47      2F60BB0B 
  47      02
  48 00d9 50C77483 		.ascii	"P\307t\203(\325\244\356p\272\334\036\303\353\363\207"
  48      28D5A4EE 
  48      70BADC1E 
  48      C3EBF387 
  49 00e9 024128D5 		.ascii	"\002A(\325\014\0011\035\022\212\3615\355\246\006\335"
  49      0C01311D 
  49      128AF135 
  49      EDA606DD 
  50 00f9 D78F3C6B 		.ascii	"\327\217<k\344\3566\315r\363|\375\304C\343\345\321\205"
  50      E4EE36CD 
  50      72F37CFD 
  50      C443E3E5 
  50      D185
  51 010b 51294442 		.ascii	"Q)DB\023pw\030\326\204)\033\273!\027-\373+\366\356\220"
  51      13707718 
  51      D684291B 
  51      BB21172D 
  51      FB2BF6EE 
  52 0120 3F685109 		.ascii	"?hQ\011\240\343p\274w\373\327\001\032j\220\205\303W"
  52      A0E370BC 
  52      77FBD701 
  52      1A6A9085 
  52      C357
  53 0132 075FFFC2 		.ascii	"\007_\377\302)s@`\277\266k\360\252?\247\236|\232;\377"
  53      29734060 
  53      BFB66BF0 
  53      AA3FA79E 
  53      7C9A3BFF 
  54 0146 667AA252 		.ascii	"fz\242R\302; \311\347\333\020\206\267 ,pJ@\003\344\240"
  54      C23B20C9 
  54      E7DB1086 
  54      B7202C70 
  54      4A4003E4 
  55 015b 75CFDEB6 		.ascii	"u\317\336\266!]\3461\362z\307'7m\344\360\243\246\304"
  55      215DE631 
  55      F27AC727 
  55      376DE4F0 
  55      A3A6C4
  56 016e 50A05121 		.ascii	"P\240Q!U4\024\033\274\313\270\272\376\363\317\031r\015"
  56      5534141B 
  56      BCCBB8BA 
  56      FEF3CF19 
  56      720D
  57 0180 E3765CFC 		.ascii	"\343v\\\374n\330a\341\376u\330k\256!\340\2369\300&\006"
  57      6ED861E1 
  57      FE75D86B 
  57      AE21E09E 
  57      39C02606 
  58 0194 0E7FD33B 		.ascii	"\016\177\323;`\310\"\006\276\263\357\313\026\227\005"
  58      60C82206 
ARM GAS  C:\Users\info\AppData\Local\Temp\ccCcgjUV.s 			page 4


  58      BEB3EFCB 
  58      169705
  59 01a3 EC3FEC33 		.ascii	"\354?\3543\267@T\352\260\367\326`u\001\315\220C\200"
  59      B74054EA 
  59      B0F7D660 
  59      7501CD90 
  59      4380
  60 01b5 E7076B46 		.ascii	"\347\007kF\244\274\227\301\365\346\336\032O\366\353"
  60      A4BC97C1 
  60      F5E6DE1A 
  60      4FF6EB
  61 01c4 048E3557 		.ascii	"\004\2165W\005\376m\306*\262\242\322\001-\311p\372\240"
  61      05FE6DC6 
  61      2AB2A2D2 
  61      012DC970 
  61      FAA0
  62 01d6 75DFEEFA 		.ascii	"u\337\356\372\227\014y?#w\325\266\237\262\221\273\252"
  62      970C793F 
  62      2377D5B6 
  62      9FB291BB 
  62      AA
  63 01e7 822F9BB1 		.ascii	"\202/\233\261\262,\012\371\275\331![\270\355\355U\345"
  63      B22C0AF9 
  63      BDD9215B 
  63      B8EDED55 
  63      E5
  64 01f8 867C8071 		.ascii	"\206|\200q\221\367\207>\010*\234y`\235\031\271\227@"
  64      91F7873E 
  64      082A9C79 
  64      609D19B9 
  64      9740
  65 020a FB538046 		.ascii	"\373S\200F\232\177\336\346wV\230\370\311\202\003\220"
  65      9A7FDEE6 
  65      775698F8 
  65      C9820390 
  66 021a 0DFBF0DB 		.ascii	"\015\373\360\333\012\331TXL\304\373\340D\015\310\331"
  66      0AD95458 
  66      4CC4FBE0 
  66      440DC8D9 
  67 022a BF343D1C 		.ascii	"\2774=\0343\023\211\210\031\333\351\372\270\316\213"
  67      33138988 
  67      19DBE9FA 
  67      B8CE8B
  68 0239 69A56CA1 		.ascii	"i\245l\241[4\3015\320H\347\326A\231\364\000\325\300"
  68      5B34C135 
  68      D048E7D6 
  68      4199F400 
  68      D5C0
  69 024b 0B544114 		.ascii	"\013TA\024\034\032\316\307i\347\002j\026\001\245j1\003"
  69      1C1ACEC7 
  69      69E7026A 
  69      1601A56A 
  69      3103
  70 025d 97704B09 		.ascii	"\227pK\011t.\345n&u\227Q\263\234\232\025\202V\316f\307"
  70      742EE56E 
  70      26759751 
  70      B39C9A15 
ARM GAS  C:\Users\info\AppData\Local\Temp\ccCcgjUV.s 			page 5


  70      8256CE66 
  71 0272 2BB9CDC1 		.ascii	"+\271\315\301i\327*jr\251Y\215\215;\217\241\371\034"
  71      69D72A6A 
  71      72A9598D 
  71      8D3B8FA1 
  71      F91C
  72 0284 50015B09 		.ascii	"P\001[\011\361=\322h\271C\214k\032>\344E\250\212\265"
  72      F13DD268 
  72      B9438C6B 
  72      1A3EE445 
  72      A88AB5
  73 0297 7602D18A 		.ascii	"v\002\321\212H\017)p\370\215K\216\255\360B\031f \266"
  73      480F2970 
  73      F88D4B8E 
  73      ADF04219 
  73      6620B6
  74 02aa B51B55EA 		.ascii	"\265\033U\352\301=!)9\320\006[\201Lz\267\266;I\277\002"
  74      C13D2129 
  74      39D0065B 
  74      814C7AB7 
  74      B63B49BF 
  75 02bf 087168EC 		.ascii	"\010qh\354\314\005\260\021\373]\010\200v\254\235)i\257"
  75      CC05B011 
  75      FB5D0880 
  75      76AC9D29 
  75      69AF
  76 02d1 C0070AD3 		.ascii	"\300\007\012\323\373Zc\237\2051pX^=T\357\2661\035\214"
  76      FB5A639F 
  76      85317058 
  76      5E3D54EF 
  76      B6311D8C 
  77 02e5 E9600CE7 		.ascii	"\351`\014\347\370\240\302\3744\331w\320\2450^R\370\266"
  77      F8A0C2FC 
  77      34D977D0 
  77      A5305E52 
  77      F8B6
  78 02f7 D1579D36 		.ascii	"\321W\2356f\2201\0372\206\202\203\217\024\346\333\223"
  78      6690311F 
  78      32868283 
  78      8F14E6DB 
  78      93
  79 0308 0D8D5261 		.ascii	"\015\215Ra\0028\274\326w\372-\237\215\231dL\2141:a>"
  79      0238BCD6 
  79      77FA2D9F 
  79      8D99644C 
  79      8C313A61 
  80 031d 5698C637 		.ascii	"V\230\3067\307cA\205\011\342\360\225\367v\277\344\267"
  80      C7634185 
  80      09E2F095 
  80      F776BFE4 
  80      B7
  81 032e 31B50661 		.ascii	"1\265\006a\0161\306A\230O\020\203\317qM\212\011\207"
  81      0E31C641 
  81      984F1083 
  81      CF714D8A 
  81      0987
  82 0340 BC006521 		.ascii	"\274\000e!\312\035\221\275\004\321X[\247\244!\351\250"
ARM GAS  C:\Users\info\AppData\Local\Temp\ccCcgjUV.s 			page 6


  82      CA1D91BD 
  82      04D1585B 
  82      A7A421E9 
  82      A8
  83 0351 AD6DEC8C 		.ascii	"\255m\354\214\253\364\246\271\3314CQi$4\204\301\247"
  83      ABF4A6B9 
  83      D9344351 
  83      69243484 
  83      C1A7
  84 0363 502A2292 		.ascii	"P*\"\222\330\324F\017\035cr^%\317\251\217&\002h]\307"
  84      D8D4460F 
  84      1D63725E 
  84      25CFA98F 
  84      2602685D 
  85 0378 D6DE6AE9 		.ascii	"\326\336j\351d1\036\335\336\360\330.\330Y\266\205\247"
  85      64311EDD 
  85      DEF0D82E 
  85      D859B685 
  85      A7
  86 0389 7D70184A 		.ascii	"}p\030J\3413\332\030\370[\342J\313\036\017B\026\222"
  86      E133DA18 
  86      F85BE24A 
  86      CB1E0F42 
  86      1692
  87 039b 8F4ED8C5 		.ascii	"\217N\330\305E\024p\004J\243\322\317!\352\311!j\030"
  87      45147004 
  87      4AA3D2CF 
  87      21EAC921 
  87      6A18
  88 03ad 6245EC43 		.ascii	"bE\354CW\352\010\003\011T\204\200\243*\302\250\0142"
  88      57EA0803 
  88      09548480 
  88      A32AC2A8 
  88      0C32
  89 03bf A1E369AC 		.ascii	"\241\343i\254C\011\215\216\205\256\271|\346\245\340"
  89      43098D8E 
  89      85AEB97C 
  89      E6A5E0
  90 03ce 33AF5ABA 		.ascii	"3\257Z\272R\360\371\003\364 \237\356[\370 \304|\031"
  90      52F0F903 
  90      F4209FEE 
  90      5BF820C4 
  90      7C19
  91 03e0 C851EF34 		.ascii	"\310Q\3574\251>\"u\033\223r$\223\222\342+\2508\035i"
  91      A93E2275 
  91      1B937224 
  91      9392E22B 
  91      A8381D69 
  92 03f4 7A61B1D2 		.ascii	"za\261\3220U\260i\254\355G?\305\202[\025\216Y\347\310"
  92      3055B069 
  92      ACED473F 
  92      C5825B15 
  92      8E59E7C8 
  93 0408 B8E61453 		.ascii	"\270\346\024S\232$R\303U\360\213\254\216\317e5?\005"
  93      9A2452C3 
  93      55F08BAC 
  93      8ECF6535 
ARM GAS  C:\Users\info\AppData\Local\Temp\ccCcgjUV.s 			page 7


  93      3F05
  94 041a ABF9D5D2 		.ascii	"\253\371\325\322\235\202\325\0028\201\254\372S\260z"
  94      9D82D502 
  94      3881ACFA 
  94      53B07A
  95 0429 86FC0C4C 		.ascii	"\206\374\014L\223\032\234!\345\262C;\373+\241}>7\264"
  95      931A9C21 
  95      E5B2433B 
  95      FB2BA17D 
  95      3E37B4
  96 043c 8C14A165 		.ascii	"\214\024\241eT\323\266\235\023\332\037a\010C;\231:\264"
  96      54D3B69D 
  96      13DA1F61 
  96      08433B99 
  96      3AB4
  97 044e 0C38351D 		.ascii	"\01485\035\332\360Lh\356\344|\353,\242\237\322\351|"
  97      DAF04C68 
  97      EEE47CEB 
  97      2CA29FD2 
  97      E97C
  98 0460 61025527 		.ascii	"a\002U'\340\264\255\242E\254\242\033iT\2648\201\345"
  98      E0B4ADA2 
  98      45ACA21B 
  98      6954B438 
  98      81E5
  99 0472 1470669A 		.ascii	"\024pf\232T\365\301\372\376\200\332\212\313\340\013"
  99      54F5C1FA 
  99      FE80DA8A 
  99      CBE00B
 100 0481 0847E512 		.ascii	"\010G\345\0221\012\221x\345T\246*\357|\2540\374)L\223"
 100      310A9178 
 100      E554A62A 
 100      EF7CAC30 
 100      FC294C93 
 101 0495 934E35B5 		.ascii	"\223N5\265\000g\021\272\177\364\350aC\025\335\0048\213"
 101      006711BA 
 101      7FF4E861 
 101      4315DD04 
 101      388B
 102 04a7 1C2F81E3 		.ascii	"\034/\201\343\027\227=\247\226E\017\264\014\321\332"
 102      17973DA7 
 102      96450FB4 
 102      0CD1DA
 103 04b6 62A46585 		.ascii	"b\244e\205\373\021\276\234aE\231\361$g\306\301.\352"
 103      FB11BE9C 
 103      614599F1 
 103      2467C6C1 
 103      2EEA
 104 04c8 D2BBA0C4 		.ascii	"\322\273\240\304\234\237q1\012\345\355\315\235/J\305"
 104      9C9F7131 
 104      0AE5EDCD 
 104      9D2F4AC5 
 105 04d8 62F1EC92 		.ascii	"b\361\354\222\206\325\225\336\331\265\331G\3053yG\340"
 105      86D595DE 
 105      D9B5D947 
 105      C5337947 
 105      E0
ARM GAS  C:\Users\info\AppData\Local\Temp\ccCcgjUV.s 			page 8


 106 04e9 81BE3422 		.ascii	"\201\2764\"\027\301WV\371\352/\224\357q\335\231O\271"
 106      17C15756 
 106      F9EA2F94 
 106      EF71DD99 
 106      4FB9
 107 04fb 1AC1C2FD 		.ascii	"\032\301\302\375\254\361\031\3755\334)F\240\334\274"
 107      ACF119FD 
 107      35DC2946 
 107      A0DCBC
 108 050a 9B6F2A3C 		.ascii	"\233o*<\375\3215ek{\345\324*\265\322\022\265X\315\324"
 108      FDD13565 
 108      6B7BE5D4 
 108      2AB5D212 
 108      B558CDD4 
 109 051e D0F36E95 		.ascii	"\320\363n\225j7\\@\237#\240\315`\226\250\360z\312\035"
 109      6A375C40 
 109      9F23A0CD 
 109      6096A8F0 
 109      7ACA1D
 110 0531 0A149E1D 		.ascii	"\012\024\236\035\236L\012\017\267\352\355H\011.\316"
 110      9E4C0A0F 
 110      B7EAED48 
 110      092ECE
 111 0540 8D6B94E3 		.ascii	"\215k\224\343\342{\340\033\214\013\303\250\255\354\261"
 111      E27BE01B 
 111      8C0BC3A8 
 111      ADECB1
 112 054f 2E9BA51C 		.ascii	".\233\245\034\311-\313.e\271\264v\245Q\227U\270K\323"
 112      C92DCB2E 
 112      65B9B476 
 112      A5519755 
 112      B84BD3
 113 0562 7AA9BA6C 		.ascii	"z\251\272l\036\324\025\211,\270<\255\227\311\312\023"
 113      1ED41589 
 113      2CB83CAD 
 113      97C9CA13 
 114 0572 B96A954C 		.ascii	"\271j\225L\364\371\233\304p\305\026Cf\324\"?\336\033"
 114      F4F99BC4 
 114      70C51643 
 114      66D4223F 
 114      DE1B
 115 0584 0F2A27CB 		.ascii	"\017*'\313\222\331\246\253\302\177\231-\337`c\212\355"
 115      92D9A6AB 
 115      C27F992D 
 115      DF60638A 
 115      ED
 116 0595 64E53DCA 		.ascii	"d\345=\312\303r\345\344\300\325\206\003\326\301\024"
 116      C372E5E4 
 116      C0D58603 
 116      D6C114
 117 05a4 13F0ED6F 		.ascii	"\023\360\355o\010\353\252\035\326\362\351\260\372Z,"
 117      08EBAA1D 
 117      D6F2E9B0 
 117      FA5A2C
 118 05b3 C9ACB855 		.ascii	"\311\254\270U#\377I\257\021\007|\307\321\361]\371\275"
 118      23FF49AF 
 118      11077CC7 
ARM GAS  C:\Users\info\AppData\Local\Temp\ccCcgjUV.s 			page 9


 118      D1F15DF9 
 118      BD
 119 05c4 A591B59C 		.ascii	"\245\221\265\234\370VJ\374\012U\357c\266\034\263\177"
 119      F8564AFC 
 119      0A55EF63 
 119      B61CB37F 
 120 05d4 97FEC6D9 		.ascii	"\227\376\306\3317\337\251\361$\375\355#\337\331\226"
 120      37DFA9F1 
 120      24FDED23 
 120      DFD996
 121 05e3 FEAC92AC 		.ascii	"\376\254\222\254\304\231$\301\261\321J\336R\206\300"
 121      C49924C1 
 121      B1D14ADE 
 121      5286C0
 122 05f2 577089F8 		.ascii	"Wp\211\370\220P\323R\250\001\253C\263\006\3706\023A"
 122      9050D352 
 122      A801AB43 
 122      B306F836 
 122      1341
 123 0604 0D62C4F1 		.ascii	"\015b\304\361\252\023\253\225\327\034\262\245\031\227"
 123      AA13AB95 
 123      D71CB2A5 
 123      1997
 124 0612 1AAF2273 		.ascii	"\032\257\"s\022\234uJ\344\262\311*\005\032\2634\270"
 124      129C754A 
 124      E4B2C92A 
 124      051AB334 
 124      B8
 125 0623 1AE7E9FE 		.ascii	"\032\347\351\3768\025\311\260&\220\327\221\246\027\317"
 125      3815C9B0 
 125      2690D791 
 125      A617CF
 126 0632 F9A8486E 		.ascii	"\371\250Hn\030\0240\241\256\2178\000\236<\036l\362C"
 126      181430A1 
 126      AE8F3800 
 126      9E3C1E6C 
 126      F243
 127 0644 1D43EBE3 		.ascii	"\035C\353\343\240\241\260<\025\217Dd^\250q(\024\007"
 127      A0A1B03C 
 127      158F4464 
 127      5EA87128 
 127      1407
 128 0656 89143C37 		.ascii	"\211\024<7\006\326G\244\036\002d\342\025\035k%\273n"
 128      06D647A4 
 128      1E0264E2 
 128      151D6B25 
 128      BB6E
 129 0668 DD668544 		.ascii	"\335f\205D\177\032\256v\307\377\242\364: \340\207\351"
 129      7F1AAE76 
 129      C7FFA2F4 
 129      3A20E087 
 129      E9
 130 0679 ABC9276E 		.ascii	"\253\311'n\024\022\355\330\331\032i\347\004\255\247"
 130      1412EDD8 
 130      D91A69E7 
 130      04ADA7
 131 0688 5AF75CF6 		.ascii	"Z\367\\\366)s\014\345\032\360\271WW9eq.\240)\225\226"
ARM GAS  C:\Users\info\AppData\Local\Temp\ccCcgjUV.s 			page 10


 131      29730CE5 
 131      1AF0B957 
 131      57396571 
 131      2EA02995 
 132 069d 59992C60 		.ascii	"Y\231,`\217~q\274;)\223tpW\306&j\322\334/\231\011\274"
 132      8F7E71BC 
 132      3B299374 
 132      7057C626 
 132      6AD2DC2F 
 133 06b4 8404FCCF 		.ascii	"\204\004\374\317\326\233\216\232\210\312,\265gO6\270"
 133      D69B8E9A 
 133      88CA2CB5 
 133      674F36B8 
 134 06c4 D58A79B8 		.ascii	"\325\212y\270\032\271J\332\264y\312\350\\\303]\312("
 134      1AB94ADA 
 134      B479CAE8 
 134      5CC35DCA 
 134      28
 135 06d5 1F8B83FE 		.ascii	"\037\213\203\376\007\"\237\036\263^\305\022\000\327"
 135      07229F1E 
 135      B35EC512 
 135      00D7
 136 06e3 67159CEB 		.ascii	"g\025\234\353\227O\211?\023\231\260\263\223o\337\324"
 136      974F893F 
 136      1399B0B3 
 136      936FDFD4 
 137 06f3 71C0B5A5 		.ascii	"q\300\265\245\201\251.\360\335\370|!\276\260\206\304"
 137      81A92EF0 
 137      DDF87C21 
 137      BEB086C4 
 138 0703 CE232832 		.ascii	"\316#(2-@\007.\035\2627\323\035\020\326A=\231|P\007"
 138      2D40072E 
 138      1DB237D3 
 138      1D10D641 
 138      3D997C50 
 139 0718 45EB1D7C 		.ascii	"E\353\035|P\363\213\354\025\312I\204\337\346\342\340"
 139      50F38BEC 
 139      15CA4984 
 139      DFE6E2E0 
 140 0728 987DAEE1 		.ascii	"\230}\256\341\377Y\370\021\302\332\216\341M8\275\257"
 140      FF59F811 
 140      C2DA8EE1 
 140      4D38BDAF 
 141 0738 AAA7D950 		.ascii	"\252\247\331P\323\000S\020\326;\206\377NO\034c\353\344"
 141      D3005310 
 141      D63B86FF 
 141      4E4F1C63 
 141      EBE4
 142 074a 36C0AD9B 		.ascii	"6\300\255\233[\027\275[\003.\205'\300\212\202\202u\377"
 142      5B17BD5B 
 142      032E8527 
 142      C08A8282 
 142      75FF
 143 075c 2CDA7057 		.ascii	",\332pWq\311S\033K\260\267\251\250x}\361\223%\353\213"
 143      71C9531B 
 143      4BB0B7A9 
 143      A8787DF1 
ARM GAS  C:\Users\info\AppData\Local\Temp\ccCcgjUV.s 			page 11


 143      9325EB8B 
 144 0770 FE5C5858 		.ascii	"\376\\XX\\T\270\251\260\250\240D\3504/\037\177j\203"
 144      5C54B8A9 
 144      B0A8A044 
 144      E8342F1F 
 144      7F6A83
 145 0783 EBAF1B37 		.ascii	"\353\257\0337\024\377\343\211\247\371\371\344\323\033"
 145      14FFE389 
 145      A7F9F9E4 
 145      D31B
 146 0791 257EA104 		.ascii	"%~\241\0046\375\037\364\337\257\240"
 146      36FD1FF4 
 146      DFAFA0
 147              		.text
 148              		.section	.gnu.lto_u8x8_pcd8544_84x48_display_info.792a2049,"",%progbits
 149 0000 789C2DCD 		.ascii	"x\234-\315KK\002Q\030\306\361\363\2343\343%G\255\326"
 149      4B4B0251 
 149      18C6F1F3 
 149      9C33E325 
 149      47ADD6
 150 0013 D2BA654B 		.ascii	"\322\272eK?\230\037` \225\326\342&*\212\010\272\230"
 150      3F981F60 
 150      2095D6E2 
 150      262A8A08 
 150      BA98
 151 0025 CD3499E2 		.ascii	"\3154\231\342\350\242\2402q\025\004\341\302V-\012\334"
 151      E8A2A032 
 151      711504E1 
 151      C2562D0A 
 151      DC
 152 0036 254868E6 		.ascii	"%Hh\346\373\366\316\331\374\317\357\\-\005\305\243@"
 152      FBF6CED9 
 152      FCCFEF5C 
 152      2D05C5A3 
 152      40
 153 0047 919952BF 		.ascii	"\221\231R\277\032\235V\367\311\236\350\222Q\330\">{"
 153      1A9D56F7 
 153      C99EE892 
 153      51D8223E 
 153      7B
 154 0058 957747F8 		.ascii	"\225wG\370\312\333\336\270\375\223f\003\314\217Y=\314"
 154      CADBDEB8 
 154      FD936603 
 154      CC8F593D 
 154      CC
 155 0069 0863C4B7 		.ascii	"\010c\304\267a\261\015a\212\270\367=\372J\0127\211\341"
 155      61B10D61 
 155      8AB8F73D 
 155      FA4A0A37 
 155      89E1
 156 007b 76CD8FEE 		.ascii	"v\315\217\356n\020_\212\376\276\021Z\304Q\020\034\374"
 156      6E105F8A 
 156      FEBE115A 
 156      C451101C 
 156      FC
 157 008c 7FACE156 		.ascii	"\177\254\341V&\240\225\373iw\234\225\003\003\376l\366"
 157      26A095FB 
ARM GAS  C:\Users\info\AppData\Local\Temp\ccCcgjUV.s 			page 12


 157      69779C95 
 157      0303FE6C 
 157      F6
 158 009d 591D46AF 		.ascii	"Y\035F\257;\304\307\277\351]\264\255\211\375\223p\356"
 158      3BC4C7BF 
 158      E95DB4AD 
 158      89FD9370 
 158      EE
 159 00ae 086D62E3 		.ascii	"\010mb\343\241WN\010\371\255\371\356\361a<\337tw\216"
 159      A1574E08 
 159      F9ADF9EE 
 159      F1613CDF 
 159      74778E
 160 00c1 5CDF2E19 		.ascii	"\\\337.\031\263\320\012\347\310-4\320\340h\334p\214"
 160      B3D00AE7 
 160      C82D34D0 
 160      E068DC70 
 160      8C
 161 00d2 C442C0B1 		.ascii	"\304B\300\261%1\\s\342\3609\011x\234\244\\_\301\025"
 161      25315C73 
 161      E2F03909 
 161      789CA45C 
 161      5FC115
 162 00e5 27853AC7 		.ascii	"'\205:\307\301%'\215\032'\203\013NVN\256J\326p\306Y"
 162      C125278D 
 162      1A27830B 
 162      4E564EAE 
 162      4AD670C6 
 163 00fa C729720A 		.ascii	"\307)r\012\267\310\253%\007\334~\373"
 163      B7C8AB25 
 163      07DC7EFB 
 164              		.text
 165              		.section	.gnu.lto_u8x8_d_pcd8544_84x48_init_seq.792a2049,"",%progbits
 166 0000 789C4D90 		.ascii	"x\234M\220\315K\002A\030\207gf]\2634\015\242(\330CA"
 166      CD4B0241 
 166      18876766 
 166      5DB3340D 
 166      A228D843 
 167 0015 FF4075F1 		.ascii	"\377@u\361\317+\330\015\351\324!\020\244 \37223u\373"
 167      CF2BD80D 
 167      E9D42110 
 167      A420FA32 
 167      3375FB
 168 0028 B276B592 		.ascii	"\262v\265\222\242Ca\220]B\352\020h\020Qa\266`hj\277"
 168      A2436190 
 168      5D42EA10 
 168      68105161 
 168      B660686A 
 169 003d ED9D430B 		.ascii	"\355\235C\013\0173\017\317\313\014\263\036\306\231\373"
 169      0F330FCF 
 169      CB0CB31E 
 169      C699FB
 170 004c 0D0B2677 		.ascii	"\015\013&w\214\265\005\317\030\325\204\317\021\206\302"
 170      8CB505CF 
 170      18D584CF 
 170      1186C2
 171 005b 7897C3EF 		.ascii	"x\227\303\357j\305e\277\353\234\017@\235h\261\034\242"
ARM GAS  C:\Users\info\AppData\Local\Temp\ccCcgjUV.s 			page 13


 171      6AC565BF 
 171      EB9C0F40 
 171      9D68B11C 
 171      A2
 172 006c 3C0A4DD7 		.ascii	"<\012M\327\235\264\227j\010\372\235/\255\012\252\023"
 172      9DB4976A 
 172      08FA9D2F 
 172      AD0AAA13 
 173 007c D0F6E36C 		.ascii	"\320\366\343lGP\015B+\361N\324Ku\010\272\366j]\250T"
 173      47500D42 
 173      2BF14ED4 
 173      4B7508BA 
 173      F66A5DA8 
 174 0091 FBA1B19C 		.ascii	"\373\241\261\234s\255R\365A[/\213eN5\000\275/\353\226"
 174      73AD52F5 
 174      415B2F8B 
 174      654E3500 
 174      BD2FEB96 
 175 00a5 543FF4F3 		.ascii	"T?\364\363&V\011\322\360\230{Q\355\266\035\240\332\007"
 175      265609D2 
 175      F0987B51 
 175      EDB61DA0 
 175      DA07
 176 00b7 4D66376C 		.ascii	"Mf7l9\334\0135\363\372\273\034.\270Or\346\215\206B\271"
 176      39DC0B35 
 176      F3FABB1C 
 176      2EB84F72 
 176      E68D8642 
 177 00cc C7556BAE 		.ascii	"\307Uk\256)\363 \264\332J\331A\252^\350\325\272\375"
 177      29F320B4 
 177      DA4AD941 
 177      AA5EE8D5 
 177      BAFD
 178 00de 238F56FF 		.ascii	"#\217V\377W\366WK\272\271$\217\362@\317\353f\\\016+"
 178      57F6574B 
 178      BAB9248F 
 178      F240CFEB 
 178      665C0E2B 
 179 00f2 D0C8C39B 		.ascii	"\320\310\303\233\023\240\341q\350e\267Q\010Q\025\320"
 179      13A0E171 
 179      E865B751 
 179      085115D0 
 180 0102 0FFDF9C9 		.ascii	"\017\375\371\311Ou\004\272\2517\277\224pv&\2622\263"
 180      4F7504BA 
 180      A937BF94 
 180      707626B2 
 180      32B3
 181 0114 A01A8AE0 		.ascii	"\240\032\212\340\223\032?\343\032\237\322x\012\313)"
 181      931A3FE3 
 181      1A9FD278 
 181      0ACB29
 182 0123 3801794E 		.ascii	"8\001yN\236\0036\260\244\037\203#\220\225>\255\361C"
 182      9E0336B0 
 182      A41F8323 
 182      90953EAD 
 182      F143
 183 0135 2C0752F7 		.ascii	",\007R\367\301\036\330\225n\202\014HK\337\001I\260\015"
ARM GAS  C:\Users\info\AppData\Local\Temp\ccCcgjUV.s 			page 14


 183      C11ED895 
 183      6E820C48 
 183      4BDF0149 
 183      B00D
 184 0147 12600BC4 		.ascii	"\022`\013\304\271\346\376\2610\373\005\030\031\2644"
 184      B9E6FEB1 
 184      30FB0518 
 184      19B434
 185              		.text
 186              		.section	.gnu.lto_u8x8_d_pcd8544_84x48_powersave0_seq.792a2049,"",%progbits
 187 0000 789C2DCB 		.ascii	"x\234-\313\315\012\001Q\030\306\361\363\316 \241\261"
 187      CD0A0151 
 187      18C6F1F3 
 187      CE20A1B1 
 188 0010 52D42CDC 		.ascii	"R\324,\334\002\253\271,\227`1S.@M\311BQc|\016\312\302"
 188      02ABB92C 
 188      97603153 
 188      2E404DC9 
 188      4251637C 
 189 0027 4A8A522C 		.ascii	"J\212R,,g\247f\224\025a\312b|=\323\353\324\3239\277"
 189      2C67A766 
 189      941561CA 
 189      627C3DD3 
 189      EBD4D339 
 190 003c FE9D9820 		.ascii	"\376\235\230 \021\235\007\306/!\336\022\215\015\337"
 190      119D07C6 
 190      2F21DE12 
 190      8D0DDF
 191 004b 4E069221 		.ascii	"N\006\222!\013\372\022\354\207\303\205\022\231(\001"
 191      0BFA12EC 
 191      87C38512 
 191      992801
 192 005a 06E6CECD 		.ascii	"\006\346\316\315r.\200\333\316\342\225\341\032\007\303"
 192      722E80DB 
 192      CEE295E1 
 192      1A07C3
 193 0069 73DD25AE 		.ascii	"s\335%\256\031\360\240;M\231k\014\364\254\217\231\340"
 193      19F0A03B 
 193      4D996B0C 
 193      F4AC8F99 
 193      E0
 194 007a 9A035777 		.ascii	"\232\003Ww\307\372\377\225\301\333\276\341)\\\213\340"
 194      C7FAFF95 
 194      C1DBBEE1 
 194      295C8BE0 
 195 008a FAFB5C66 		.ascii	"\372\373\\f\271J\340E?\035\323\\\363\340\354\272i\247"
 195      B94AE045 
 195      3F1DD35C 
 195      F3E0ECBA 
 195      69A7
 196 009c B479B5D6 		.ascii	"\264y\265\326\252V\014Y\242\222J\023R\251\254\322\020"
 196      AA560C59 
 196      A2924A13 
 196      52A9ACD2 
 196      10
 197 00ad 97838DB1 		.ascii	"\227\203\215\261\021\261\007X\037\353a6\326\305,R\005"
 197      11B10758 
ARM GAS  C:\Users\info\AppData\Local\Temp\ccCcgjUV.s 			page 15


 197      1FEB6136 
 197      D6C52C52 
 197      05
 198 00be 4D49133F 		.ascii	"MI\023?C\272S\362"
 198      43BA53F2 
 199              		.text
 200              		.section	.gnu.lto_u8x8_d_pcd8544_84x48_powersave1_seq.792a2049,"",%progbits
 201 0000 789C2DCC 		.ascii	"x\234-\314?k\302@\030\307\361{\356\374\007\0253\011"
 201      3F6BC240 
 201      18C7F17B 
 201      EEFC0715 
 201      3309
 202 0012 166E50F0 		.ascii	"\026nP\360\015\330.\276\274\014\011H'\027\011H\007)"
 202      0DD82EBE 
 202      BC0C0948 
 202      27170948 
 202      0729
 203 0024 42AAD69A 		.ascii	"B\252\326\232\376\241C\332\241\010\016\025\035\034\273"
 203      FEA143DA 
 203      A1080E15 
 203      1D1CBB
 204 0033 15121D1C 		.ascii	"\025\022\035\034\012\225@\204\266\352/<\011|\271|\370"
 204      0A954084 
 204      B6EA2F3C 
 204      097CB97C 
 204      F8
 205 0044 1D971124 		.ascii	"\035\227\021$\222\257\206\203\377\204\370\2274\261\303"
 205      92AF8683 
 205      FF84F897 
 205      34B1C3
 206 0053 412192B6 		.ascii	"A!\222\266\022t$8r\026\237\006\373<\341\225\035\253"
 206      12742438 
 206      72169F06 
 206      FB3CE195 
 206      1DAB
 207 0065 84447970 		.ascii	"\204Dyp\377\266\272\221\274\326\301\360w\354\227x\315"
 207      FFB6BA91 
 207      BCD6C1F0 
 207      77EC9778 
 207      CD
 208 0076 81817B70 		.ascii	"\201\201{pr\274\226\301\217\276\377W\3445\013v_\243"
 208      72BC96C1 
 208      8FBEFF57 
 208      E4350B76 
 208      5FA3
 209 0088 7996D702 		.ascii	"y\226\327\002\270\262\274\353\364\345\0148\335ynzY\201"
 209      B8B2BCEB 
 209      F4E50C38 
 209      DD796E7A 
 209      5981
 210 009a 3FCB6E50 		.ascii	"?\313nP\342\313Upv\214\337\015^%\370m\255\277\316x\255"
 210      E2CB5570 
 210      768CDF0D 
 210      5E25F86D 
 210      ADBFCE78 
 211 00af 809DE576 		.ascii	"\200\235\345v#\233/f\253g\266\225\255$54=\221\246\013"
 211      239B2F66 
ARM GAS  C:\Users\info\AppData\Local\Temp\ccCcgjUV.s 			page 16


 211      AB67B695 
 211      AD243534 
 211      3D91A60B 
 212 00c3 4D77381E 		.ascii	"Mw8\036\321\003\362\210=A\367h\234z\204\206h\200n\321"
 212      D103F288 
 212      3D41F768 
 212      9C7A8486 
 212      68806ED1 
 213 00d7 A52697B4 		.ascii	"\245&\227\264\240gj\212\023\371\350a2"
 213      A0676A8A 
 213      13F9E861 
 213      32
 214              		.text
 215              		.section	.gnu.lto_.symbol_nodes.792a2049,"",%progbits
 216 0000 789C55CB 		.ascii	"x\234U\313\255\016\3020\024\206\341\267\355\272_\207"
 216      AD0EC230 
 216      1486E1B7 
 216      EDBA5F87 
 217 0010 2048B81C 		.ascii	" H\270\034\256\352T,!\231\000\302\005\200\251\342\012"
 217      AEEA542C 
 217      219900C2 
 217      0580A9E2 
 217      0A
 218 0021 C02F481C 		.ascii	"\300/H\034\016\271d\267\301\326NP\365\344=\371N\206"
 218      0EB964B7 
 218      C1D64E50 
 218      F5E43DF9 
 218      4E86
 219 0033 62A3009D 		.ascii	"b\243\000\235\011\234\3370qw;\260\006\267\002cQQ\245"
 219      099CDF30 
 219      71773BB0 
 219      06B70263 
 219      5151A5
 220 0046 A3DA0455 		.ascii	"\243\332\004U-*<\200s[P\215\350\244+1I\227\222%]\210"
 220      2D2A3C80 
 220      735B508D 
 220      E8A42B31 
 220      49979225 
 221 005c 4D3A973C 		.ascii	"M:\227<i+\305\177\033\032\206\307\332P\343\237\023\025"
 221      692BC57F 
 221      1B1A86C7 
 221      DA50E39F 
 221      1315
 222 006e 7DC4BF3E 		.ascii	"}\304\277>*d\260\244=\214\332P\340\027\333n\326\342"
 222      2A64B0A4 
 222      3D8CDA50 
 222      E017DB6E 
 222      D6E2
 223 0080 83254317 		.ascii	"\203%C\027\357\303q\331\235\226\335e6\247\275~\367\363"
 223      EFC371D9 
 223      9D96DD65 
 223      36A7BD7E 
 223      F7F3
 224 0092 BEBF8D9A 		.ascii	"\276\277\215\232\037\350\260:\364"
 224      1FE8B03A 
 224      F4
 225              		.text
ARM GAS  C:\Users\info\AppData\Local\Temp\ccCcgjUV.s 			page 17


 226              		.section	.gnu.lto_.refs.792a2049,"",%progbits
 227 0000 789C6361 		.ascii	"x\234ca`d\340g```a`bdfbbcb\346db\341b\000\000\002\363"
 227      6064E067 
 227      60606061 
 227      60626466 
 227      62626362 
 228 001d 0047     		.ascii	"\000G"
 229              		.text
 230              		.section	.gnu.lto_.decls.792a2049,"",%progbits
 231 0000 789CBD58 		.ascii	"x\234\275X{PT\331\231\357sO\003Mw\003\2128\261R\356"
 231      7B5054D9 
 231      99EF734F 
 231      034D7703 
 231      8A38B152 
 232 0015 8E3B1265 		.ascii	"\216;\022e\253\022Gg\314\024\265\177M*\273\223T\376"
 232      AB124767 
 232      CC14B57F 
 232      4D2ABB93 
 232      54FE
 233 0027 48529599 		.ascii	"HR\225\231\251\335*R\235\266\273\221N\240\273C7>RI\366"
 233      A9DD2A52 
 233      9DB6BB91 
 233      4EA0BB43 
 233      373E5249 
 234 003c F2D4A022 		.ascii	"\362\324\240\" \"/\243\342\013\005|\201 \257\241\203"
 234      20222FA3 
 234      E20B057C 
 234      8120AFA1 
 234      83
 235 004d 8A2F5444 		.ascii	"\212/TD@\021\004\004\037\250\200\010(*\012\373\235s"
 235      40110404 
 235      1FA88008 
 235      282A0AFB 
 235      9D73
 236 005f EEED7BBB 		.ascii	"\356\355{\273\275L\366\217\315\266\376\270\367;\347"
 236      BD4CF68F 
 236      CDB6FEB8 
 236      F73BE7
 237 006e 77CFF97D 		.ascii	"w\317\371}\337\371\316\343^\265\012\251\310o\351\207"
 237      DFF9CEE3 
 237      5EB50AA9 
 237      C86FE987 
 238 007e 2AD57E3F 		.ascii	"*\325~?\225\352KN\245\232\205\237?\224}\255\222~\032"
 238      95EA4B4E 
 238      A59A859F 
 238      3F947DAD 
 238      927E1A
 239 0091 C08F80FA 		.ascii	"\300\217\200\372\023\300/\000_\001\376\023\360k\200"
 239      13C02F00 
 239      5F01FE13 
 239      F06B80
 240 00a0 11100D50 		.ascii	"\021\020\015P\003'\006\256v\300:\300\237\220\312\353"
 240      032706AE 
 240      76C03AC0 
 240      9F90CAEB 
 241 00b0 479EFF17 		.ascii	"G\236\377\027\270\236\002\204\002\302\000\037\222\266"
 241      B89E0284 
ARM GAS  C:\Users\info\AppData\Local\Temp\ccCcgjUV.s 			page 18


 241      02C2001F 
 241      92B6
 242 00be E0FA33B8 		.ascii	"\340\3723\270.\206\353/\001\277\020\372\3763\224-\002"
 242      2E86EB2F 
 242      01BF10FA 
 242      FE33942D 
 242      02
 243 00cf 7C076001 		.ascii	"|\007`\001\3747\3407\000\036\220\010\260\001\242\000"
 243      FC37E037 
 243      001E9008 
 243      B001A200 
 244 00df 49800440 		.ascii	"I\200\004@2\340\217\200\024\300\027\200T\300\227\200"
 244      32E08F80 
 244      14C01780 
 244      54C09780 
 245 00ef 9D801CC0 		.ascii	"\235\200\034\300\022@.\340\347\000pU\265\025\256\337"
 245      12402EE0 
 245      E7007055 
 245      B515AEDF 
 246 00ff 076C0764 		.ascii	"\007l\007d\0022\220\344g\264\340\327\257\005?\277\222"
 246      023290E4 
 246      67B4E0D7 
 246      AF053FBF 
 246      92
 247 0110 F9AE05CE 		.ascii	"\371\256\005\316.\270\346\001\362\001\005\200B@\021"
 247      2EB8E601 
 247      F2010580 
 247      424011
 248 011f FA76FF63 		.ascii	"\372v\377c\204\030-S1_\227\253\230o\013\340\352O\352"
 248      84182D53 
 248      315F97AB 
 248      986F0BE0 
 248      EA4FEA
 249 0132 001C2080 		.ascii	"\000\034 \200\350\000\314\003\314B\035&\034\200\036"
 249      E800CC03 
 249      CC421D26 
 249      1C801E
 250 0141 A0030402 		.ascii	"\240\003\004\002\202\000\363I\373D\017\361\007\200\000"
 250      8200F349 
 250      FB440FF1 
 250      078000
 251 0150 C13E7D8A 		.ascii	"\301>}\212?\242\011\013\375\222\270\333\346\340\221"
 251      3FA2090B 
 251      FD92B8DB 
 251      E6E091
 252 015f DF3A1F6E 		.ascii	"\337:\037n\302\267p\377\344\303\375\343\267p\337q(y"
 252      C2B770FF 
 252      E4C3FDE3 
 252      B770DF71 
 252      2879
 253 0171 E0C95E4D 		.ascii	"\340\311^M7\352\002\251\210\376TB\376\021\361H\270\252"
 253      37EA02A9 
 253      88FE5442 
 253      FE11F148 
 253      B8AA
 254 0183 045FE02F 		.ascii	"\004_\340/\247b.\012,O\343\210\376\203\377\034\345#"
 254      A7622E0A 
ARM GAS  C:\Users\info\AppData\Local\Temp\ccCcgjUV.s 			page 19


 254      2C4FE388 
 254      FE83FF1C 
 254      E523
 255 0195 5985178F 		.ascii	"Y\205\027\217\3462\375IE\310\363\023\231\310\273QDG"
 255      E632FD49 
 255      45C8F313 
 255      99C8BB51 
 255      4447
 256 01a7 4134C1E6 		.ascii	"A4\301\346\244\007d\355\011\352\205\376\221\274[\332"
 256      A40764ED 
 256      09EA85FE 
 256      91BC5BDA 
 257 01b7 34169DDE 		.ascii	"4\026\235\336Y{\341\242\006C\233p\337\367\272\344\213"
 257      597BE1A2 
 257      06439B70 
 257      DFF7BAE4 
 257      8B
 258 01c8 15653CFC 		.ascii	"\025e<\3742y\236\373X\212\314\261\262\351\023Z5\370"
 258      32799EFB 
 258      588ACCB1 
 258      B2E9135A 
 258      35F8
 259 01da 8BBED2A3 		.ascii	"\213\276\322\2435jRt<\365\376\021\315$\207\026k\321"
 259      356A5274 
 259      3CF5FE11 
 259      CD248716 
 259      6BD1
 260 01ec 2C22F670 		.ascii	",\"\366p\315\353 f\223\352J\367D\271\032/!\367\334\215"
 260      CDEB2066 
 260      93EA4AF7 
 260      44B91A2F 
 260      21F7DC8D 
 261 0200 8AAEF381 		.ascii	"\212\256\363\201(B{\210\264\334\177\372\305\217\222"
 261      28427B88 
 261      B4DC7FFA 
 261      C58F92
 262 020f 791EA1E3 		.ascii	"y\036\241\343H\213\312\021FG\320\012\"j1I\334\315<\237"
 262      488BCA11 
 262      4647D00A 
 262      226A3149 
 262      DCCD3C9F 
 263 0223 C48F15F3 		.ascii	"\304\217\025\363\376\213T\350\323\305h\345b\025:\206"
 263      FE8B54E8 
 263      D3C568E5 
 263      62153A86 
 264 0233 22489B84 		.ascii	"\"H\233\204\205\312\320bT\212\026\223\366\217\354)9"
 264      85CAD062 
 264      548A1693 
 264      F68FEC29 
 264      39
 265 0244 1784CB11 		.ascii	"\027\204\313\021\355`$\347\351f\354\351\240{\313\342"
 265      ED6024E7 
 265      E966ECE9 
 265      A07BCBE2 
 266 0254 529E9F87 		.ascii	"R\236\237\207NA\007'\244\016\240?\345\036N*\367\320"
 266      4E410727 
 266      A40EA03F 
ARM GAS  C:\Users\info\AppData\Local\Temp\ccCcgjUV.s 			page 20


 266      E51E4E2A 
 266      F7D0
 267 0266 9D76F88A 		.ascii	"\235v\370\212\216\372L\032:\212\250\327\035\267{;\002"
 267      8EFA4C1A 
 267      3A8AA8D7 
 267      1DB77B3B 
 267      02
 268 0277 3D8515AC 		.ascii	"=\205\025\254\360F\312\211\"\014\256\207j\221\032\314"
 268      F046CA89 
 268      220CAE87 
 268      6A911ACC 
 269 0287 E7570B06 		.ascii	"\347W\013\006\203\301\014\323\242%`\026N\334}\034\310"
 269      83C10CD3 
 269      A2256016 
 269      4EDC7D1C 
 269      C8
 270 0298 6A23C01C 		.ascii	"j#\300\034My\320\257c\265\213\300\344\207R\366p\270"
 270      4D79D0AF 
 270      63B58BC0 
 270      E48752F6 
 270      70B8
 271 02aa 8CC5BF6D 		.ascii	"\214\305\277m\254e\267P7\017\314\306\241\254F\015\256"
 271      AC65B750 
 271      370FCCC6 
 271      A1AC460D 
 271      AE
 272 02bb 6375AD87 		.ascii	"cu\255\207Gn\005\343\233\314\030\332\333xJ\203G\231"
 272      476E05E3 
 272      9BCC18DA 
 272      DB784A83 
 272      4799
 273 02cd 51F2B028 		.ascii	"Q\362\260(C\317\236\212\224u\037\312\272\337\351\316"
 273      43CF9E8A 
 273      94751FCA 
 273      BADFE9CE 
 274 02dd 7EABC56F 		.ascii	"~\253\305o\030\265\256\272\276\331\217QW\202y\251f`"
 274      18B5AEBA 
 274      BED98F51 
 274      578279A9 
 274      6660
 275 02ef 254EC5B4 		.ascii	"%N\305\264J\224\031\306d\276\274\322~\027\343\034V\267"
 275      4A9419C6 
 275      64BEBCD2 
 275      7E17E31C 
 275      56B7
 276 0301 BDA9E1AC 		.ascii	"\275\251\341\254\006\357eFs\317\235\0165.cFb\303\331"
 276      06EF6546 
 276      73CF9D0E 
 276      352E6346 
 276      62C3D9
 277 0314 8A20FC37 		.ascii	"\212 \3747f\234\237\235r\207\260\23690\337UT\234E\370"
 277      669C9F9D 
 277      7287B09E 
 277      3930DF55 
 277      549C45F8 
 278 0328 32AB3BF8 		.ascii	"2\253;\370fz\214\304h\031\244\313,\226\345\3132\226"
 278      667A8CC4 
ARM GAS  C:\Users\info\AppData\Local\Temp\ccCcgjUV.s 			page 21


 278      6819A4CB 
 278      2C96E5CB 
 278      3296
 279 033a 2F8D572E 		.ascii	"/\215W.\035\322\343\233\224\314\2655\345\275\323!m\004"
 279      1DD2E39B 
 279      94CCB535 
 279      E5BDD321 
 279      6D04
 280 034c 1D2C3E99 		.ascii	"\035,>\231\327F\250P-\214\314E\030\031t\015\206k\231"
 280      D746A850 
 280      2D8CCC45 
 280      1819740D 
 280      866B99
 281 035f 305C57A0 		.ascii	"0\\W\240\3602\024\012\2315\3623\232YWahZ\244\201_\246"
 281      F032140A 
 281      9935F233 
 281      9A595761 
 281      685AA481 
 282 0375 6549FC4D 		.ascii	"eI\374MV\367C-\356e]\034\030\344\353\324suqc\316.\272"
 282      56F7432D 
 282      EE655D1C 
 282      18E4EBD4 
 282      73757163 
 283 038c B72C2B23 		.ascii	"\267,+#\271\325\012]\\\227\272\270\212\204>\304\321"
 283      B9D50A5D 
 283      5C97BAB8 
 283      8A843EC4 
 283      D1
 284 039d 0D65A3FB 		.ascii	"\015e\243\3730\375\310s=~\304B\260\273c 3P+$`\346\337"
 284      30FDC873 
 284      3D7EC442 
 284      B0BB6320 
 284      33502B24 
 285 03b4 4FC082F3 		.ascii	"O\300\202\363\233\233\374\364\351\204\237\231\314\207"
 285      9B9BFCF4 
 285      E9849F99 
 285      CC87
 286 03c2 FE14B543 		.ascii	"\376\024\265C\247UP\177\032\352U\250\003\351\205\331"
 286      A755507F 
 286      1AEA55A8 
 286      03E985D9 
 287 03d2 99F264FF 		.ascii	"\231\362d\377\010\302\303\254\227\273\027\217\224\222"
 287      08C2C3AC 
 287      97BB178F 
 287      9492
 288 03e0 402F2781 		.ascii	"@/'\201\236\235\015\221\205z9\013u\333\366\361\003\001"
 288      9E9D0D91 
 288      857A390B 
 288      75DBF6F1 
 288      0301
 289 03f2 F8258B43 		.ascii	"\370%\213Ci\326\3236\331\334<\250\257!\356uCO]\222{"
 289      69D6D336 
 289      D9DC3CA8 
 289      AF21EE75 
 289      434F5D92 
 290 0407 CB3D3387 		.ascii	"\313=3\207\012QyT\240; }\271 \3756\024\336\022f\347"
 290      0A517954 
ARM GAS  C:\Users\info\AppData\Local\Temp\ccCcgjUV.s 			page 22


 290      A03B207D 
 290      B920FD36 
 290      14DE1266 
 291 041c 81AC627F 		.ascii	"\201\254b\177\234\250\246]\034=v\2759@\014\265o\003"
 291      9CA8A65D 
 291      1C3D76BD 
 291      39400CB5 
 291      6F03
 292 042e BD0A0D88 		.ascii	"\275\012\015\210\241^MC}\027\264\364HZ\272\305P\213"
 292      A15E4D43 
 292      7D17B4F4 
 292      485ABAC5 
 292      508B
 293 0440 9325944D 		.ascii	"\223%\224M\226\201\223S\303\032\234N\273D\233f\357\236"
 293      96819353 
 293      C31A9C4E 
 293      BB449B66 
 293      EF9E
 294 0452 D3E02266 		.ascii	"\323\340\"f\244\034\336V\030\204K\230QP7y\331\217=\245"
 294      A41CDE56 
 294      18844B98 
 294      51503779 
 294      D98F3DA5 
 295 0466 0133237F 		.ascii	"\0013#\177\274.\000\237`u7\335{\013\003q53\006+\247"
 295      BC2E009F 
 295      607537DD 
 295      7B0B0371 
 295      3533062B 
 296 047b 0E04E126 		.ascii	"\016\004\341&f\334{\326\220\037\340\231\366l\001<\335"
 296      66DC7BD6 
 296      901FE099 
 296      F66C013C 
 296      DD
 297 048c B6A72F00 		.ascii	"\266\247/\000_f\2047\327\247k\021\276\305\214\2557\253"
 297      5F668437 
 297      D7A76B11 
 297      BEC58CAD 
 297      37AB
 298 049e 3EC5F7D9 		.ascii	">\305\367\331}Y\307\355w\010\2171\343\352\314\3307\030"
 298      7D59C7ED 
 298      77088F31 
 298      E3EACCD8 
 298      3718
 299 04b0 27F951A3 		.ascii	"'\371Q\243\274?\355\246\037\336\301\214Co\367U\352\361"
 299      BC3FEDA6 
 299      1FDEC18C 
 299      436FF755 
 299      EAF1
 300 04c2 1E66344F 		.ascii	"\036f4O5\354\367\303G\231\221\276\345\350\276`\334\310"
 300      35ECF7C3 
 300      479991BE 
 300      E5E8BE60 
 300      DCC8
 301 04d4 8CD4ADA5 		.ascii	"\214\324\255\245\365\030\2671\243\265\357\324\013\177"
 301      F518B731 
 301      A3B5EFD4 
 301      0B7F
ARM GAS  C:\Users\info\AppData\Local\Temp\ccCcgjUV.s 			page 23


 302 04e2 FC88197D 		.ascii	"\374\210\031}\275Y\277\305c\354\376i{[\226\037~\307"
 302      BD59BFC5 
 302      63ECFE69 
 302      7B5B961F 
 302      7EC7
 303 04f4 8C77A736 		.ascii	"\214w\2476\325\251q\246?5\036]|=\251\303\305\314x\323"
 303      D5A971A6 
 303      3F351E5D 
 303      7C3DA9C3 
 303      C5CC78D3 
 304 0508 945483F0 		.ascii	"\224T\203\360ifT5\275n\361\303\227\2311\232Tz\000\341"
 304      69665435 
 304      BD6EF1C3 
 304      9799319A 
 304      547A00E1 
 305 051c 4166B4EE 		.ascii	"Af\264\356\034\311\345\360[f\274\235\336\221\350\207"
 305      1CC9E5F0 
 305      5B66BC9D 
 305      DE91E887 
 306 052c B707B039 		.ascii	"\267\007\2609\3333T\246\303\373\230q\242>eDX\365\334"
 306      DB3354A6 
 306      C3FB9871 
 306      A23E6544 
 306      58F5DC
 307 053f 643F28D9 		.ascii	"d?(\3316vV\213ki\345\302\261\322\274v\177\024\356\363"
 307      3676568B 
 307      6B69E5C2 
 307      B1D2BC76 
 307      7F14EEF3 
 308 0553 8B080F5F 		.ascii	"\213\010\017_\020^L\262\242\177\317\214\243\241\252"
 308      105E4CB2 
 308      A27FCF8C 
 308      A3A1AA
 309 0562 87E7D3F4 		.ascii	"\207\347\323\3644\302/`\274\263\271\005\342\004\371"
 309      34C22F60 
 309      BCB3B905 
 309      E204F9
 310 0571 98E4FBDF 		.ascii	"\230\344\373\337H\326\253(\335]\337\246\343O\374\206"
 310      48D6AB28 
 310      DD5DDFA6 
 310      E34FFC86 
 311 0581 5247BCA9 		.ascii	"RG\274\251}tn|*Q'\262\203\363xw\022\246S\366\211@\366"
 311      7D746E7C 
 311      2A5127B2 
 311      83F37877 
 311      12A653F6 
 312 0598 CC7446AF 		.ascii	"\314tF\257\2225\235\177=h\027\357N\304\264\361\327\012"
 312      92359D7F 
 312      3D6817EF 
 312      4EC4B4F1 
 312      D70A
 313 05aa 3A6A65E4 		.ascii	":je\344\366\353\036\035\223\012\324od\324\034\211\372"
 313      F6EB1E1D 
 313      930AD46F 
 313      64D41C89 
 313      FA
 314 05bb 46812A53 		.ascii	"F\201*S\334&9\367T\311\2713\262V\263\245V\247\025Z]"
ARM GAS  C:\Users\info\AppData\Local\Temp\ccCcgjUV.s 			page 24


 314      DC2639F7 
 314      54C9B933 
 314      B256B3A5 
 314      56A7155A 
 315 05d0 25310B24 		.ascii	"%1\013$\346+\005\246\274\321\"\211:\245@\225G\353\204"
 315      E62B05A6 
 315      BCD12289 
 315      3AA54095 
 315      47EB84
 316 05e3 A475CC9B 		.ascii	"\244u\314\233:\210|\007\255U\342\016+\371%\017l\216"
 316      3A887C07 
 316      AD55E20E 
 316      2BF9250F 
 316      6C8E
 317 05f5 C47DAED4 		.ascii	"\304}\256\324\356Y\031wF\222;\256\304\225\353\255\224"
 317      EE591977 
 317      46923BAE 
 317      C495EBAD 
 317      94
 318 0606 DA7DA6C4 		.ascii	"\332}\246\304\225\217\330\013y\346\314(g\016\363\217"
 318      958FD80B 
 318      79E6CC28 
 318      670EF38F 
 319 0616 2E58EEE9 		.ascii	".X\356\351\014=\317k\010K%,V*O[{\344Y\365R!\250r\207"
 319      0C3DCF6B 
 319      084B252C 
 319      562A4F5B 
 319      7BE459F5 
 320 062f 6A2591A3 		.ascii	"j%\221\243J\201\242\243\232%\034\323x8\203\240w\240"
 320      4A81A2A3 
 320      9A251CD3 
 320      783883A0 
 320      77A0
 321 0641 AA8DA87A 		.ascii	"\252\215\250z+\360\241\177\264\235\213@i\\8J\001$\001"
 321      2BF0A17F 
 321      B49D8B40 
 321      695C384A 
 321      012401
 322 0654 36013603 		.ascii	"6\0016\0032\001\263(\034%\303u\007`+`\013\340/\200m"
 322      3201B328 
 322      1C25C375 
 322      07602B60 
 322      0BE02F80 
 323 0669 802C000F 		.ascii	"\200,\000\017H\007\244\002\022\001\031\\\270\314\233"
 323      4807A402 
 323      1201195C 
 323      B8CC9B
 324 0678 EEEDC1F9 		.ascii	"\356\355\301\371\274;\005\323\265yB\350\322\263\244"
 324      BC3B05D3 
 324      B57942E8 
 324      D2B3A4
 325 0687 0F4A2261 		.ascii	"\017J\"a\035\350\332^\230\037\202{\350:\300\275\330"
 325      1DE8DA5E 
 325      981F827B 
 325      E83AC0BD 
 325      D8
 326 0698 D6F4195A 		.ascii	"\326\364\031Z\020\241\254=\027\364\376#\265\263Q\312"
ARM GAS  C:\Users\info\AppData\Local\Temp\ccCcgjUV.s 			page 25


 326      10A1AC3D 
 326      17F4FE23 
 326      B5B351CA 
 327 06a8 BFF67D32 		.ascii	"\277\366}2J;\241\243\034\316\263\253\220A\243r+\007"
 327      4A3BA1A3 
 327      1CCEB3AB 
 327      9041A372 
 327      2B07
 328 06ba 0E3D0B58 		.ascii	"\016=\013X \010t\317)P\365\177\256\216\254\247\235)"
 328      200874CF 
 328      2950F57F 
 328      AE8EACA7 
 328      9D29
 329 06cc 9B74F20D 		.ascii	"\233t\362\015\177\227,\254*\224\307\211\033\376T\371"
 329      7F972CAC 
 329      2A94C789 
 329      1BFE54F9 
 330 06dc A31E3F3C 		.ascii	"\243\036?<\026\340u\246\013eg\272\312\206\347\007\205"
 330      16E075A6 
 330      0B6567BA 
 330      CA86E707 
 330      85
 331 06ed 731C4FCE 		.ascii	"s\034O\316YC\017\012\233\265\370\255\260b\337<\336\022"
 331      59430F0A 
 331      9BB5F8AD 
 331      B062DF3C 
 331      DE12
 332 06ff 823335C4 		.ascii	"\20235\304X\332\235\336\230\210\220Z\277\000Va\257\237"
 332      58DA9DDE 
 332      9888905A 
 332      BF005661 
 332      AF9F
 333 0711 5EBF481D 		.ascii	"^\277H\035!\334D\204GD\220}o\017\247G\217 \0322u{\275"
 333      21DC4484 
 333      4744907D 
 333      6F0FA747 
 333      8F201A32 
 334 0728 D4ED61EA 		.ascii	"\324\355a\352\274\206\266\220[\214\0128\210\234\033"
 334      BC86B690 
 334      5B8C0A38 
 334      889C1B
 335 0737 22572C0C 		.ascii	"\"W,\014m#\334\177\003\216\327\000\316\000\252\001U"
 335      6D23DC7F 
 335      038ED700 
 335      CE00AA01 
 335      55
 336 0748 801380E3 		.ascii	"\200\023\200\343\200c\200r@\031\240\024p\024p\004P\002"
 336      80638072 
 336      4019A014 
 336      70147004 
 336      5002
 337 075a 380C3804 		.ascii	"8\0148\0048\0108\000\330\017\330\347\225\232\323\235"
 337      38083800 
 337      D80FD8E7 
 337      959AD39D 
 338 076a B2895604 		.ascii	"\262\211V\004\003\\,\315\236j\331r\240\2543_x\340\037"
 338      035C2CCD 
ARM GAS  C:\Users\info\AppData\Local\Temp\ccCcgjUV.s 			page 26


 338      9E6AD972 
 338      A0AC335F 
 338      78E01F
 339 077d AFF355A7 		.ascii	"\257\363U\247g\216\303&\374\276J\371z\374R\342\326)"
 339      678EC326 
 339      FCBE4AF9 
 339      7AFC52E2 
 339      D629
 340 078f 71E50BE7 		.ascii	"q\345\013\347\244\304\255W\342\312\366\231q\211\332"
 340      A4C4AD57 
 340      E2CAF699 
 340      7189DA
 341 079e A044956D 		.ascii	"\240D\225m\036c\022\325\355Mm|o\331\354\225\270MJ\\"
 341      1E6312D5 
 341      ED4D6D7C 
 341      6FD9EC95 
 341      B84D4A5C 
 342 07b2 F996D023 		.ascii	"\371\226\320#q\317)q\345\253b\247\304=\257\304\225/"
 342      71CF2971 
 342      E5AB62A7 
 342      C43DAFC4 
 342      952F
 343 07c4 F3ED12B7 		.ascii	"\363\355\022\267Y\211+\217n\233\304\275"
 343      59892B8F 
 343      6E9BC4BD 
 344 07d0 A0C49547 		.ascii	"\240\304\225G\367F\256lK\270$\260=[B\243o\330\032s\027"
 344      F746AE6C 
 344      4BB824B0 
 344      3D5B42A3 
 344      6FD81A73 
 345 07e5 B27512CE 		.ascii	"\262u\022\316\352\350\246@\367\254\223m\357\311n\310"
 345      EAE8A640 
 345      F7AC936D 
 345      EFC96EC8 
 346 07f5 95ADAB9D 		.ascii	"\225\255\253\235\312|Y\363u\235!\214~\022&g\277/]~\264"
 346      CA7C59F3 
 346      759D218C 
 346      7E122667 
 346      BF2F5D7E 
 347 080a 91CDDA0A 		.ascii	"\221\315\332\012n\221\3049\0159~\012\036f\253\340\034"
 347      6E91C439 
 347      0D397E0A 
 347      1E66ABE0 
 347      1C
 348 081b 2C958C92 		.ascii	",\225\214\222K\247M2\277DM\003&Q\340\001\370[\311\221"
 348      4BA74D32 
 348      BF444D03 
 348      2651E001 
 348      F85BC991 
 349 082f 4F48E27A 		.ascii	"OH\342zQ\011s\213-\272{\256-$\213.\321yO:\312\237\242"
 349      5109738B 
 349      2DBA7BAE 
 349      2D248B2E 
 349      D1794F3A 
 350 0846 4B06F3A5 		.ascii	"K\006\363\245F\356\313\200\262/2\327\253:\365|\246\221"
 350      46EECB80 
 350      B22F32D7 
ARM GAS  C:\Users\info\AppData\Local\Temp\ccCcgjUV.s 			page 27


 350      AB3AF57C 
 350      A691
 351 0858 92EFFB92 		.ascii	"\222\357\373\222\025v}\211\375@\231-k\272\"7\214)\251"
 351      15767D89 
 351      FD40992D 
 351      6BBA2237 
 351      8C29A9
 352 086b 05FA435F 		.ascii	"\005\372C_\372\307\212A\255\227\007\265\001\202Z\247"
 352      FAC78A41 
 352      AD9707B5 
 352      01825AA7 
 353 087b 14D47AAF 		.ascii	"\024\324z\257\240\326)\005\265\325+\250\3654\250\177"
 353      A0D62905 
 353      B5D52BA8 
 353      F534A87F 
 354 088b A5416581 		.ascii	"\245Ae\201<\231\361\001\011$\2216$\005\262N\026\310"
 354      3C99F101 
 354      09249136 
 354      2405B24E 
 354      16C8
 355 089d 93B91F32 		.ascii	"\223\271\0372\371\260]\240\307\212\362WIg\226\335\271"
 355      F9B05DA0 
 355      C78AF257 
 355      496796DD 
 355      B9
 356 08ae F4CC52EC 		.ascii	"\364\314R\354}fau\2732\376\231\324\221e~\267\264S\026"
 356      7D666175 
 356      BB32FE99 
 356      D491657E 
 356      B7B45316 
 357 08c2 8B3BE5E9 		.ascii	"\213;\345\351\033\007+t\037\355\345\367\236\340\373"
 357      1B072B74 
 357      1FEDE5F7 
 357      9EE0FB
 358 08d1 FB8AAD45 		.ascii	"\373\212\255E\247\356\363|\250\232fN\211$\015n\311\345"
 358      A7EEF37C 
 358      A89A664E 
 358      89240D6E 
 358      C9E5
 359 08e3 30BCB7C1 		.ascii	"0\274\267\301\324\347>\"\033V\356\240\016\327\323=\010"
 359      D4E73E22 
 359      1B56EEA0 
 359      0ED7D33D 
 359      08
 360 08f4 251FEA6F 		.ascii	"%\037\352o\365\3037\230\221\333\350.\012\201\267,t\226"
 360      F5C33798 
 360      91DBE82E 
 360      0A81B72C 
 360      7496
 361 0906 C3AC8F33 		.ascii	"\303\254\2173S7v\262\367.\222O\354\275k(\343x\027^4"
 361      533776B2 
 361      F72E924F 
 361      ECBD6B28 
 361      E378175E 
 362 091b 672236D3 		.ascii	"g\"6\323\230\235\2471\003\366\354\231\327\223zP\331"
 362      989DA731 
 362      03F6EC99 
ARM GAS  C:\Users\info\AppData\Local\Temp\ccCcgjUV.s 			page 28


 362      D7937A50 
 362      D9
 363 092c 0F6F947F 		.ascii	"\017o\224\177\235\371e\341\3764wf\"?\217\362P\223\350"
 363      9DF965E1 
 363      FE347766 
 363      223F8FF2 
 363      5093E8
 364 093f 163AC7A9 		.ascii	"\026:\307\251\211\305\276\217]\2402w\354\233\350\345"
 364      89C5BE8F 
 364      5DA03277 
 364      EC9BE8E5 
 365 094f F09DB9A4 		.ascii	"\360\235\271\244\315\026<\317\013\220o\326\3362.{6\353"
 365      CD163CCF 
 365      0B906FD6 
 365      DE322E7B 
 365      36EB
 366 0961 FBD325E7 		.ascii	"\373\323%\347B\250\017\227=>\224\357\255\334\037\354"
 366      42A80F97 
 366      3D3E94EF 
 366      ADDC1FEC 
 367 0971 799FBCC2 		.ascii	"y\237\274\302\261/j\017O\265\007z\234ma\205/o\035\253"
 367      B12F6A0F 
 367      4FB5077A 
 367      9C6D6185 
 367      2F6F1DAB 
 368 0985 0F9EDBDB 		.ascii	"\017\236\333\333k\324\333\253\242\267\0253\367\2720"
 368      6BD4DBAB 
 368      A2B71533 
 368      F7BA30
 369 0994 F3D63D16 		.ascii	"\363\326=\026\235\3177\245\360\237\023\016\272\350\361"
 369      9DCF37A5 
 369      F09F130E 
 369      BAE8F1
 370 09a3 F412787A 		.ascii	"\364\022xzQ\364\364:\3654;k$;\020\017\317\345\251\322"
 370      51F4F43A 
 370      F5343B6B 
 370      243B100F 
 370      CFE5A9D2 
 371 09b7 CBEFF4AD 		.ascii	"\313\357\364\2553C\234Gk\033\323z8\371\262}n\251\355"
 371      33439C47 
 371      6B1BD37A 
 371      38F9B27D 
 371      6EA9ED
 372 09ca 54EA4D51 		.ascii	"T\352MQjy\372\3001\235 \365\216(\0258\250\325#\365\006"
 372      6A79FAC0 
 372      319D20F5 
 372      8E281538 
 372      A8D523F5 
 373 09df 486D15A5 		.ascii	"Hm\025\245vP\251\031\211g\316\253\361\273\271\244v\346"
 373      7650A919 
 373      8967CEAB 
 373      F1BBB9A4 
 373      76E6
 374 09f1 75F46984 		.ascii	"u\364i\204F\307\305F\311Hwz\032\275\005\215v\212\215"
 374      46C7C546 
 374      C948777A 
 374      1ABD058D 
ARM GAS  C:\Users\info\AppData\Local\Temp\ccCcgjUV.s 			page 29


 374      768A8D
 375 0a04 DEA68D96 		.ascii	"\336\246\215\226\244\270\307\003qN m\364ez\312C\346"
 375      A4B8C703 
 375      714E206D 
 375      F4657ACA 
 375      43E6
 376 0a16 2D59B499 		.ascii	"-Y\264\231\267]\023-\243\322\310\334a\336>\336\331\324"
 376      B75D132D 
 376      A3D2C8DC 
 376      61DE3EDE 
 376      D9D4
 377 0a28 A091BBFB 		.ascii	"\240\221\273\373\365\0072o{\250\267\335\242\267iS\035"
 377      F507326F 
 377      7BA8B7DD 
 377      A2B76953 
 377      1D
 378 0a39 6DA2B0E7 		.ascii	"m\242\260\347\217V\20225\241\240.ibu\211\242\356RQ\245"
 378      8F568232 
 378      35A1A02E 
 378      69627589 
 378      A2EE5251 
 379 0a4e 69E5E97E 		.ascii	"i\345\351~\370(\023\2454\017F:\213\237\371\317\331\177"
 379      F82813A5 
 379      340F463A 
 379      8B9FF9CF 
 379      D97F
 380 0a60 3FEDBFCF 		.ascii	"?\355\277\317\323\177FM\241\030\355\202n\275;\023\021"
 380      D37F464D 
 380      A118ED82 
 380      6EBD3B13 
 380      11
 381 0a71 06EA95BA 		.ascii	"\006\352\225\272\357\025\273\277G\273\357-\356\333\356"
 381      EF15BBBF 
 381      47BBEF2D 
 381      EEDBEE
 382 0a80 8FCFB3EE 		.ascii	"\217\317\263\356\357\226T\024\260\317\277y\236\356\253"
 382      EF965414 
 382      B0CFBF79 
 382      9EEEAB
 383 0a8f 463B3AB5 		.ascii	"F;:\265\036I\203,&\367\222o'\316\255\351\001\325t_\324"
 383      1E49832C 
 383      26F7926F 
 383      27CEADE9 
 383      01D5745F 
 384 0aa4 E43EDD32 		.ascii	"\344>\3352\021 h\312c\232\200\201\006$M\003\242\246"
 384      112068CA 
 384      639A8081 
 384      06244D03 
 384      A2A6
 385 0ab6 87545345 		.ascii	"\207TSEINY \036b\232n\345\355hW\177o?\337\272\227.?"
 385      494E5920 
 385      1E629A6E 
 385      E5ED6857 
 385      7F6F3FDF 
 386 0ace F939A9B0 		.ascii	"\3719\251\260\374\320\023\363#\326\200\347\334\256\242"
 386      FCD013F3 
 386      23D680E7 
ARM GAS  C:\Users\info\AppData\Local\Temp\ccCcgjUV.s 			page 30


 386      DCAEA2
 387 0add 255F429E 		.ascii	"%_B\236\014q\337#_*\222\222G1\336\314>\206m\276\320"
 387      0C71DF23 
 387      5F2A9292 
 387      4731DECC 
 387      3E866DBE 
 388 0af2 DB81D8E9 		.ascii	"\333\201\330\351y>\371\\s\365B\017f\247\347\315\344"
 388      793EF95C 
 388      73F5420F 
 388      66A7E7CD 
 388      E4
 389 0b03 2BC678D1 		.ascii	"+\306x\321\343\373\034\371f\307\013\263<T\236\322\303"
 389      E3FB1CF9 
 389      66C70BB3 
 389      3C549ED2 
 389      C3
 390 0b14 9C5645D6 		.ascii	"\234VE\326T\272?\001\373\366\310\216+!\241\231\302\321"
 390      54BA3F01 
 390      FBF6C88E 
 390      2B21A199 
 390      C2D1
 391 0b26 F273C4DE 		.ascii	"\362s\304\336\341\341p\371\204#\364\021.T|\210~\300"
 391      E1E170F9 
 391      8423F411 
 391      2E547C88 
 391      7EC0
 392 0b38 AA19CF46 		.ascii	"\252\031\317Frv\373\267\261\017]j\357F\314_wE\015J\344"
 392      7276FBB7 
 392      B10F5D6A 
 392      EF46CC5F 
 392      77450D4A 
 393 0b4d DD6A34CA 		.ascii	"\335j4\312\205\242\307\202\267\322\203\217\005o\237"
 393      85A2C782 
 393      B7D2838F 
 393      056F9F
 394 0b5c 516FF39E 		.ascii	"Qo\363\236^\032\346\360!\346\355dz\352\224\360\245:"
 394      5E1AE6F0 
 394      21E6ED64 
 394      7AEA94F0 
 394      A53A
 395 0b6e 802E4DE5 		.ascii	"\200.M\345\265\302\247b\177\362\325\256\355uq\300\234"
 395      B5C2A762 
 395      7FF2D5AE 
 395      ED7571C0 
 395      9C
 396 0b7f CE4E88CE 		.ascii	"\316N\210\316\216s\324\331\322\352\2761\235\257\263"
 396      8E73D4D9 
 396      D2EABE31 
 396      9DAFB3
 397 0b8e 701044CF 		.ascii	"p\020D\317\251\212I*\177B\224?\263\277b\330\337\327"
 397      A98A492A 
 397      7F42943F 
 397      B3BF62D8 
 397      DFD7
 398 0ba0 D939D983 		.ascii	"\3319\331\203[\256\346q\202\263\223~| z\001\236\216"
 398      5BAEE671 
 398      82B3937E 
ARM GAS  C:\Users\info\AppData\Local\Temp\ccCcgjUV.s 			page 31


 398      7C207A01 
 398      9E8E
 399 0bb2 099E4A4F 		.ascii	"\011\236JO\215\011\236\276\244\236\336k\252\276\340"
 399      8D099EBE 
 399      A49EDE6B 
 399      AABEE0
 400 0bc1 872F334F 		.ascii	"\207/3OK\253\016\326\012\343\032\010\346\226\363\247"
 400      4BAB0ED6 
 400      0AE31A08 
 400      E696F3A7 
 401 0bd1 9B8571BD 		.ascii	"\233\205q\275H?\020\036y\360,pNW\337\210\256\016\262"
 401      483F101E 
 401      79F02C70 
 401      4E57DF88 
 401      AE0EB2
 402 0be4 71ADCD2E 		.ascii	"q\255\315.[\357\353\351k\210\367+\252b\232j\177#j\317"
 402      5BEFEBE9 
 402      6B88F72B 
 402      AA629A6A 
 402      7F236ACF 
 403 0bf8 2C78D2A2 		.ascii	",x\322\242\365\365tNv\331\263\352\372\020\301\323\234"
 403      F5F5744E 
 403      76D9B3EA 
 403      FA10C1D3 
 403      9C
 404 0c09 2F789803 		.ascii	"/x\230\003o\301\325)\301U\351\261)\301\325w\324\325"
 404      6FC1D529 
 404      C155E9B1 
 404      29C1D577 
 404      D4D5
 405 0c1b AB19A3F3 		.ascii	"\253\031\243\363\344{\317\003\257\223\305\014\333{\310"
 405      E47BCF03 
 405      AF93C50C 
 405      DB7BC8
 406 0c2a 956CB1F5 		.ascii	"\225l\261\3655\017\324rr\277\027yV \317Rr\326\341\231"
 406      350FD472 
 406      72BF1779 
 406      5620CF52 
 406      72D6E199 
 407 0c3e 4C8D9CDC 		.ascii	"L\215\234\334\343E\3461#\303\225,\306\335\333\206\364"
 407      E345E631 
 407      23C3952C 
 407      C6DDDB86 
 407      F4
 408 0c4f 7232C947 		.ascii	"r2\311G\211\234(\220\023)y\374\371\355m^\344\027^\344"
 408      899C2890 
 408      132979FC 
 408      F9ED6D5E 
 408      E4175EE4 
 409 0c63 24819C44 		.ascii	"$\201\234D\311\356}\273v{\221\337z\221\223\005r2%\237"
 409      C9EE7DBB 
 409      767B91DF 
 409      7A919305 
 409      7232259F 
 410 0c77 DCD77C38 		.ascii	"\334\327|8HNn\366\322\234\"\220S(y\344\311\2231\316"
 410      484E6EF6 
 410      D29C2290 
ARM GAS  C:\Users\info\AppData\Local\Temp\ccCcgjUV.s 			page 32


 410      532879E4 
 410      C99331CE 
 411 0c8b EBA3BA17 		.ascii	"\353\243\272\0279U \247Rrj\372\354\243\020<\3122\252"
 411      395520A7 
 411      52726AFA 
 411      ECA3103C 
 411      CA32AA
 412 0c9e BA60C6AD 		.ascii	"\272`\306\255\306\223\314H\313\235\035\320\342W\302"
 412      C693CC48 
 412      CB9D1DD0 
 412      E257C2
 413 0cad AC1AED2A 		.ascii	"\254\032\355*\361\307\211:F\033-\255\016\022\276\203"
 413      F1C7893A 
 413      461B2DAD 
 413      0E12BE83 
 414 0cbd 123BBB2C 		.ascii	"\022;\273,=\031\341lZ\351\377\252\244\002\326\035\372"
 414      3D19E16C 
 414      5AE9FFAA 
 414      A402D61D 
 414      FA
 415 0cce BE1D217E 		.ascii	"\276\035!~\370\374\274N\366\3413\015c\264\015+}\032"
 415      F8FCBC4E 
 415      F6E1330D 
 415      63B40D2B 
 415      7D1A
 416 0ce0 622FAC6E 		.ascii	"b/\254n\366\302\232\216Yn\242\277\010|\222,Y8\002e\342"
 416      F6C29A8E 
 416      596EA2BF 
 416      087C922C 
 416      59380265 
 417 0cf5 709401D8 		.ascii	"p\224\001\330\012\330\216\345/\234\275\327<\2579\233"
 417      0AD88EE5 
 417      2F9CBDD7 
 417      3CAF399B 
 418 0d05 143A911F 		.ascii	"\024:\221\037\227\307%\352\026\005\252\374\005\356n"
 418      97C725EA 
 418      1605AAFC 
 418      05EE6E
 419 0d14 86F0C642 		.ascii	"\206\360\306B\3166\233\005\362\234\247\315.\366\205"
 419      CE369B05 
 419      F29CA7CD 
 419      2EF685
 420 0d23 0C38F2D3 		.ascii	"\0148\362\323&Yy\322\307\337\006\343<\032$\256\261\244"
 420      265979D2 
 420      C7DF06E3 
 420      3C1A24AE 
 420      B1A4
 421 0d35 AE240845 		.ascii	"\256$\010E,`\317\024^\013'\317\344@\273\331\330\263"
 421      2C60CF14 
 421      5E0B27CF 
 421      E440BBD9 
 421      D8B3
 422 0d47 3390267C 		.ascii	"3\220&|^\342=1\331\001q\370{1!C\330\271o\241<\021r\260"
 422      5EE23D31 
 422      D90171F8 
 422      7B312143 
 422      D8B96FA1 
ARM GAS  C:\Users\info\AppData\Local\Temp\ccCcgjUV.s 			page 33


 423 0d5f FC73C64E 		.ascii	"\374s\306N!\021v\322D\3305\362`\314+\037\257yeM\256"
 423      211176D2 
 423      44D835F2 
 423      60CC2B1F 
 423      AF79654D 
 424 0d74 40CEA5E4 		.ascii	"@\316\245\344\035\325m\025h\351>\246-\035\346\354\327"
 424      1DD56D15 
 424      68E93EA6 
 424      2D1DE6EC 
 424      D7
 425 0d85 1FD0A32F 		.ascii	"\037\320\243/\333\312v\341\245\300\031>T<\023\3048\260"
 425      DBCA76E1 
 425      A5C0193E 
 425      543C13C4 
 425      38B0
 426 0d97 7BFDD7EE 		.ascii	"{\375\327\356t z\363\362(\257r\3534\257g<w}\200/'\237"
 426      74207AF3 
 426      F228AF72 
 426      EB34AF67 
 426      3C777D80 
 427 0dae 72FA861E 		.ascii	"r\372\206\036\267\250\005N\373{\234\002\312\251\232"
 427      B7A8054E 
 427      FB7B9C02 
 427      CAA99A
 428 0dbd 69BE23B6 		.ascii	"i\276#\266\363\352=N!\353\253.#Y\320\344\316\325\372"
 428      F3EA3D4E 
 428      21EBAB2E 
 428      2359D0E4 
 428      CED5FA
 429 0dd0 728AF052 		.ascii	"r\212\360RUXB\344\206H\203\331\3400\231#\177\270z\265"
 429      555842E4 
 429      864883D9 
 429      E0309923 
 429      7FB87AB5 
 430 0de4 2172F586 		.ascii	"!r\365\206\325\221\232\237\374\374\253%?^\265J\025h"
 430      D5919A9F 
 430      FCFCAB25 
 430      3F5EB54A 
 430      1568
 431 0df6 3024586D 		.ascii	"0$Xm\256H\203+\021\231\376-\312\021o_\033o\214[\022"
 431      AE48832B 
 431      1199FE2D 
 431      CA116F5F 
 431      1B6F8C5B 
 432 0e0b 6D8DB538 		.ascii	"m\215\2658\227Dl\210\374\354_\243L\033\035\361\026\247"
 432      97446C88 
 432      FCEC5FA3 
 432      4C1B1DF1 
 432      16A7
 433 0e1d 33CAE1B4 		.ascii	"3\312\341\264\233\226\230\342-F\227=>j\365\212O\274"
 433      9B9698E2 
 433      2D46973D 
 433      3E6AF58A 
 433      4FBC
 434 0e2f 0BAC710E 		.ascii	"\013\254q\016{\274+j\255-!\312\030\037\027\365\303\025"
 434      7BBC2B6A 
 434      AD2D21CA 
ARM GAS  C:\Users\info\AppData\Local\Temp\ccCcgjUV.s 			page 34


 434      181F17F5 
 434      C315
 435 0e41 AB57AC22 		.ascii	"\253W\254\"w?\260\331m\226\037X\214k\254QV\233)6\301"
 435      773FB0D9 
 435      6D961F58 
 435      8C6BAC51 
 435      569B2936 
 436 0e56 6C898A33 		.ascii	"l\211\2123\232b\2546K\224\301l\2116&\304\272\014\256"
 436      9A62AC36 
 436      4B94C16C 
 436      893626C4 
 436      BA0CAE
 437 0e69 8D0E8B73 		.ascii	"\215\016\213sE\214*@\220\262\356\377K\211s\2433\312"
 437      458C2A40 
 437      90B2EEFF 
 437      4B8973A3 
 437      33CA
 438 0e7b E07499A1 		.ascii	"\340t\231\241[\350>\330lYcO\260\231,PdtY\276\3431c\215"
 438      5BE83ED8 
 438      6C59634F 
 438      B0992C50 
 438      647459BE 
 439 0e93 4E97C161 		.ascii	"N\227\301a\265\261\362\357z\312E\375\236*\335Z\207\325"
 439      B5B1F2EF 
 439      7ACA45FD 
 439      9E2ADD5A 
 439      87D5
 440 0ea5 6E008D50 		.ascii	"n\000\215P\252MpEG\262bhx\235\025\370F\263\231\350\327"
 440      AA4D7045 
 440      47B26268 
 440      789D15F8 
 440      46B399E8 
 441 0eba 593F3191 		.ascii	"Y?1\221\212x\227\305L\357\205\3620\253\323\020m\267"
 441      8A7897C5 
 441      4CEF85F2 
 441      30ABD310 
 441      6DB7
 442 0ecc B90C56DB 		.ascii	"\271\014V\333:K\274\323b\210\263\233-\232\015\006{t"
 442      3A4BBCD3 
 442      6288B39B 
 442      2D9A0D06 
 442      7B74
 443 0ede B4D3E2D2 		.ascii	"\264\323\342\322Xl&;(]\253eC\266\3523\203K#\336\250"
 443      586C263B 
 443      285DAB65 
 443      43B6EA33 
 443      834B23DE 
 444 0ef3 C973816B 		.ascii	"\311s\201k\022\234\006S\254\335\364;\201\362\351'\002"
 444      129C0653 
 444      ACDDF43B 
 444      81F2E927 
 444      02
 445 0f04 85DCCCA7 		.ascii	"\205\334\314\247\332\21463\310\2165n4\230\326\350hf"
 445      DA8C3633 
 445      C88E356E 
 445      3498D6E8 
 445      6866
ARM GAS  C:\Users\info\AppData\Local\Temp\ccCcgjUV.s 			page 35


 446 0f16 C439D7C2 		.ascii	"\3049\327\302}\300\232\215.\013\\\375MF3\\\264f\253"
 446      7DC09A8D 
 446      2E0B5CFD 
 446      4D46335C 
 446      B466AB
 447 0f29 D3C15801 		.ascii	"\323\301X\0016\313\006\027\\\365\224m\2121\306\023C"
 447      36CB0617 
 447      5CF5946D 
 447      8A31C613 
 447      43
 448 0f3a ACB7DAA2 		.ascii	"\254\267\332\242\355:\207u\203%\326\260\336jv\305\314"
 448      ED3A8775 
 448      8325D6B0 
 448      DE6A76C5 
 448      CC
 449 0f4b 8F8EB53A 		.ascii	"\217\216\265:\210n\203\250{\236\030%\261@\347\202!5"
 449      886E83A8 
 449      7B9E1825 
 449      B140E782 
 449      2135
 450 0f5d C458AC6B 		.ascii	"\304X\254kc\\ZzO\237\014[\037o\005\011\216\204X\247"
 450      635C5A7A 
 450      4F9F0C5B 
 450      1F6F0509 
 450      8E8458A7 
 451 0f71 5062B039 		.ascii	"Pb\2609C\315F\227\321\000\017%8\014.k\234\005\212\302"
 451      43CD4697 
 451      D1000F25 
 451      380C2E6B 
 451      9C058AC2 
 452 0f85 48C43C9E 		.ascii	"H\304<\236\032V\255\\\371\273\237\376A\343tXi\270\364"
 452      1A56AD5C 
 452      F9BB9FFE 
 452      41E37458 
 452      69B8F4
 453 0f98 4E286335 		.ascii	"N(c51\177\010%"
 453      317F0825 
 454 0fa0 867783F3 		.ascii	"\206w\203\363\235f\237\366B\035v\030]\210\277\305eX"
 454      9D669FF6 
 454      421D7618 
 454      5D88BFC5 
 454      6558
 455 0fb2 6FB4BA20 		.ascii	"o\264\272  a\314\222?\031\347\\\004\271\007\356[\035"
 455      2061CC92 
 455      3F19E75C 
 455      04B907EE 
 455      5B1D
 456 0fc4 06F0DDB8 		.ascii	"\006\360\335\270\206\310&l\033T\220\006h\215\305&\257"
 456      86C8266C 
 456      1B549006 
 456      688DC526 
 456      AF
 457 0fd5 08F562C7 		.ascii	"\010\365b\307Z\326Yb\347\313i\264d\021\233\236\262p"
 457      5AD65962 
 457      E7CB69B4 
 457      64119B9E 
 457      B270
ARM GAS  C:\Users\info\AppData\Local\Temp\ccCcgjUV.s 			page 36


 458 0fe7 426AC427 		.ascii	"Bj\304'\230\\z\026U\026\247\260\025+\242\022\"\327~"
 458      985C7A16 
 458      5516A7B0 
 458      152BA212 
 458      22D77E
 459 0ffa 623039E3 		.ascii	"b09\343MQ"
 459      4D51
 460 1000 E411C8D7 		.ascii	"\344\021\310\327\005\357?\352bc\312ZX\340IT\226\221"
 460      05EF3FEA 
 460      6263CA5A 
 460      58E04954 
 460      9691
 461 1012 64A8FD69 		.ascii	"d\250\375i\275+\374\275\366|W\210\025&a\345 \011\361"
 461      BD2BFCBD 
 461      F67C5788 
 461      152661E5 
 461      2009F1
 462 1025 1F36F397 		.ascii	"\0376\363\227\361F\2333\332\022\257\261\331\255\266"
 462      F1469B33 
 462      DA12AFB1 
 462      D9ADB6
 463 1034 5898BEF3 		.ascii	"X\230\276\363=\265\277\262\330\314\377\016\3434\317"
 463      3DB5BFB2 
 463      D8CCFF0E 
 463      E334CF
 464 1043 ABE4C771 		.ascii	"\253\344\307q\346\017\244\002\222\355b\023\013\275x"
 464      E60FA402 
 464      92ED6213 
 464      0BBD78
 465 1052 BFB2FC3E 		.ascii	"\277\262\374>\001R\333\362]AE\214%\326a\211\227\271"
 465      0152DBF2 
 465      5D41458C 
 465      25D66189 
 465      97B9
 466 1064 65757DA4 		.ascii	"eu}\244\\\305\2061\316\022g\217\337\370!\245xy\340\025"
 466      5CC58631 
 466      CE12678F 
 466      DFF821A5 
 466      7879E015 
 467 1078 997F52F2 		.ascii	"\231\177R\362\2216\016\315\374~\251b\255\303\276\036"
 467      91360ECD 
 467      FC7EA962 
 467      ADC3BE1E 
 468 1088 A6A1719D 		.ascii	"\246\241q\235e\345\377\202\263\212p\3746@\201\023\233"
 468      65E5FF82 
 468      B38A70FC 
 468      36408113 
 468      9B
 469 1099 6C2E0D4D 		.ascii	"l.\015Ml\207+\236\005\205ZlT\3746\022\216N*v\375\017"
 469      6C872B9E 
 469      05855A6C 
 469      54FC3612 
 469      8E4E2A76 
 470 10af 1ED9E6A4 		.ascii	"\036\331\346\244"
 471              		.text
 472              		.section	.gnu.lto_.symtab.792a2049,"",%progbits
 473 0000 75387838 		.ascii	"u8x8_d_pcd8544_84x48\000"
ARM GAS  C:\Users\info\AppData\Local\Temp\ccCcgjUV.s 			page 37


 473      5F645F70 
 473      63643835 
 473      34345F38 
 473      34783438 
 474 0015 00       		.ascii	"\000"
 475 0016 00       		.ascii	"\000"
 476 0017 00       		.ascii	"\000"
 477 0018 00000000 		.ascii	"\000\000\000\000\000\000\000\000"
 477      00000000 
 478 0020 41010000 		.ascii	"A\001\000\000"
 479 0024 75387838 		.ascii	"u8x8_cad_EndTransfer\000"
 479      5F636164 
 479      5F456E64 
 479      5472616E 
 479      73666572 
 480 0039 00       		.ascii	"\000"
 481 003a 02       		.ascii	"\002"
 482 003b 00       		.ascii	"\000"
 483 003c 00000000 		.ascii	"\000\000\000\000\000\000\000\000"
 483      00000000 
 484 0044 47010000 		.ascii	"G\001\000\000"
 485 0048 75387838 		.ascii	"u8x8_cad_SendData\000"
 485      5F636164 
 485      5F53656E 
 485      64446174 
 485      6100
 486 005a 00       		.ascii	"\000"
 487 005b 02       		.ascii	"\002"
 488 005c 00       		.ascii	"\000"
 489 005d 00000000 		.ascii	"\000\000\000\000\000\000\000\000"
 489      00000000 
 490 0065 4F010000 		.ascii	"O\001\000\000"
 491 0069 75387838 		.ascii	"u8x8_cad_SendCmd\000"
 491      5F636164 
 491      5F53656E 
 491      64436D64 
 491      00
 492 007a 00       		.ascii	"\000"
 493 007b 02       		.ascii	"\002"
 494 007c 00       		.ascii	"\000"
 495 007d 00000000 		.ascii	"\000\000\000\000\000\000\000\000"
 495      00000000 
 496 0085 55010000 		.ascii	"U\001\000\000"
 497 0089 75387838 		.ascii	"u8x8_cad_StartTransfer\000"
 497      5F636164 
 497      5F537461 
 497      72745472 
 497      616E7366 
 498 00a0 00       		.ascii	"\000"
 499 00a1 02       		.ascii	"\002"
 500 00a2 00       		.ascii	"\000"
 501 00a3 00000000 		.ascii	"\000\000\000\000\000\000\000\000"
 501      00000000 
 502 00ab 58010000 		.ascii	"X\001\000\000"
 503 00af 75387838 		.ascii	"u8x8_cad_SendSequence\000"
 503      5F636164 
 503      5F53656E 
ARM GAS  C:\Users\info\AppData\Local\Temp\ccCcgjUV.s 			page 38


 503      64536571 
 503      75656E63 
 504 00c5 00       		.ascii	"\000"
 505 00c6 02       		.ascii	"\002"
 506 00c7 00       		.ascii	"\000"
 507 00c8 00000000 		.ascii	"\000\000\000\000\000\000\000\000"
 507      00000000 
 508 00d0 5D010000 		.ascii	"]\001\000\000"
 509 00d4 75387838 		.ascii	"u8x8_d_helper_display_init\000"
 509      5F645F68 
 509      656C7065 
 509      725F6469 
 509      73706C61 
 510 00ef 00       		.ascii	"\000"
 511 00f0 02       		.ascii	"\002"
 512 00f1 00       		.ascii	"\000"
 513 00f2 00000000 		.ascii	"\000\000\000\000\000\000\000\000"
 513      00000000 
 514 00fa 61010000 		.ascii	"a\001\000\000"
 515 00fe 75387838 		.ascii	"u8x8_d_helper_display_setup_memory\000"
 515      5F645F68 
 515      656C7065 
 515      725F6469 
 515      73706C61 
 516 0121 00       		.ascii	"\000"
 517 0122 02       		.ascii	"\002"
 518 0123 00       		.ascii	"\000"
 519 0124 00000000 		.ascii	"\000\000\000\000\000\000\000\000"
 519      00000000 
 520 012c 66010000 		.ascii	"f\001\000\000"
 521              		.text
 522              		.section	.gnu.lto_.opts,"",%progbits
 523 0000 272D666D 		.ascii	"'-fmath-errno' '-fsigned-zeros' '-ftrapping-math' '"
 523      6174682D 
 523      6572726E 
 523      6F272027 
 523      2D667369 
 524 0033 2D666E6F 		.ascii	"-fno-trapv' '-fno-strict-overflow' '-fno-openmp' '-"
 524      2D747261 
 524      70762720 
 524      272D666E 
 524      6F2D7374 
 525 0066 666E6F2D 		.ascii	"fno-openacc' '-mcpu=cortex-m3' '-mthumb' '-g' '-Og'"
 525      6F70656E 
 525      61636327 
 525      20272D6D 
 525      6370753D 
 526 0099 20272D66 		.ascii	" '-ffunction-sections' '-ffat-lto-objects' '-flto'\000"
 526      66756E63 
 526      74696F6E 
 526      2D736563 
 526      74696F6E 
 527              		.text
 528              		.cfi_sections	.debug_frame
 529              		.section	.text.u8x8_d_pcd8544_84x48,"ax",%progbits
 530              		.align	2
 531              		.global	u8x8_d_pcd8544_84x48
ARM GAS  C:\Users\info\AppData\Local\Temp\ccCcgjUV.s 			page 39


 532              		.thumb
 533              		.thumb_func
 534              		.type	u8x8_d_pcd8544_84x48, %function
 535              	u8x8_d_pcd8544_84x48:
 536              	.LFB0:
 537              		.file 1 "..\\u8g2_csrc\\u8x8_d_pcd8544_84x48.c"
   1:..\u8g2_csrc/u8x8_d_pcd8544_84x48.c **** /*
   2:..\u8g2_csrc/u8x8_d_pcd8544_84x48.c **** 
   3:..\u8g2_csrc/u8x8_d_pcd8544_84x48.c ****   u8x8_d_pcd8544_84x48.c (so called "Nokia 5110" displays)
   4:..\u8g2_csrc/u8x8_d_pcd8544_84x48.c ****   
   5:..\u8g2_csrc/u8x8_d_pcd8544_84x48.c ****   Universal 8bit Graphics Library (https://github.com/olikraus/u8g2/)
   6:..\u8g2_csrc/u8x8_d_pcd8544_84x48.c **** 
   7:..\u8g2_csrc/u8x8_d_pcd8544_84x48.c ****   Copyright (c) 2016, olikraus@gmail.com
   8:..\u8g2_csrc/u8x8_d_pcd8544_84x48.c ****   All rights reserved.
   9:..\u8g2_csrc/u8x8_d_pcd8544_84x48.c **** 
  10:..\u8g2_csrc/u8x8_d_pcd8544_84x48.c ****   Redistribution and use in source and binary forms, with or without modification, 
  11:..\u8g2_csrc/u8x8_d_pcd8544_84x48.c ****   are permitted provided that the following conditions are met:
  12:..\u8g2_csrc/u8x8_d_pcd8544_84x48.c **** 
  13:..\u8g2_csrc/u8x8_d_pcd8544_84x48.c ****   * Redistributions of source code must retain the above copyright notice, this list 
  14:..\u8g2_csrc/u8x8_d_pcd8544_84x48.c ****     of conditions and the following disclaimer.
  15:..\u8g2_csrc/u8x8_d_pcd8544_84x48.c ****     
  16:..\u8g2_csrc/u8x8_d_pcd8544_84x48.c ****   * Redistributions in binary form must reproduce the above copyright notice, this 
  17:..\u8g2_csrc/u8x8_d_pcd8544_84x48.c ****     list of conditions and the following disclaimer in the documentation and/or other 
  18:..\u8g2_csrc/u8x8_d_pcd8544_84x48.c ****     materials provided with the distribution.
  19:..\u8g2_csrc/u8x8_d_pcd8544_84x48.c **** 
  20:..\u8g2_csrc/u8x8_d_pcd8544_84x48.c ****   THIS SOFTWARE IS PROVIDED BY THE COPYRIGHT HOLDERS AND 
  21:..\u8g2_csrc/u8x8_d_pcd8544_84x48.c ****   CONTRIBUTORS "AS IS" AND ANY EXPRESS OR IMPLIED WARRANTIES, 
  22:..\u8g2_csrc/u8x8_d_pcd8544_84x48.c ****   INCLUDING, BUT NOT LIMITED TO, THE IMPLIED WARRANTIES OF 
  23:..\u8g2_csrc/u8x8_d_pcd8544_84x48.c ****   MERCHANTABILITY AND FITNESS FOR A PARTICULAR PURPOSE ARE 
  24:..\u8g2_csrc/u8x8_d_pcd8544_84x48.c ****   DISCLAIMED. IN NO EVENT SHALL THE COPYRIGHT HOLDER OR 
  25:..\u8g2_csrc/u8x8_d_pcd8544_84x48.c ****   CONTRIBUTORS BE LIABLE FOR ANY DIRECT, INDIRECT, INCIDENTAL, 
  26:..\u8g2_csrc/u8x8_d_pcd8544_84x48.c ****   SPECIAL, EXEMPLARY, OR CONSEQUENTIAL DAMAGES (INCLUDING, BUT 
  27:..\u8g2_csrc/u8x8_d_pcd8544_84x48.c ****   NOT LIMITED TO, PROCUREMENT OF SUBSTITUTE GOODS OR SERVICES; 
  28:..\u8g2_csrc/u8x8_d_pcd8544_84x48.c ****   LOSS OF USE, DATA, OR PROFITS; OR BUSINESS INTERRUPTION) HOWEVER 
  29:..\u8g2_csrc/u8x8_d_pcd8544_84x48.c ****   CAUSED AND ON ANY THEORY OF LIABILITY, WHETHER IN CONTRACT, 
  30:..\u8g2_csrc/u8x8_d_pcd8544_84x48.c ****   STRICT LIABILITY, OR TORT (INCLUDING NEGLIGENCE OR OTHERWISE) 
  31:..\u8g2_csrc/u8x8_d_pcd8544_84x48.c ****   ARISING IN ANY WAY OUT OF THE USE OF THIS SOFTWARE, EVEN IF 
  32:..\u8g2_csrc/u8x8_d_pcd8544_84x48.c ****   ADVISED OF THE POSSIBILITY OF SUCH DAMAGE.  
  33:..\u8g2_csrc/u8x8_d_pcd8544_84x48.c **** 
  34:..\u8g2_csrc/u8x8_d_pcd8544_84x48.c ****   
  35:..\u8g2_csrc/u8x8_d_pcd8544_84x48.c **** */
  36:..\u8g2_csrc/u8x8_d_pcd8544_84x48.c **** #include "u8x8.h"
  37:..\u8g2_csrc/u8x8_d_pcd8544_84x48.c **** 
  38:..\u8g2_csrc/u8x8_d_pcd8544_84x48.c **** 
  39:..\u8g2_csrc/u8x8_d_pcd8544_84x48.c **** 
  40:..\u8g2_csrc/u8x8_d_pcd8544_84x48.c **** 
  41:..\u8g2_csrc/u8x8_d_pcd8544_84x48.c **** static const uint8_t u8x8_d_pcd8544_84x48_init_seq[] = {
  42:..\u8g2_csrc/u8x8_d_pcd8544_84x48.c ****     
  43:..\u8g2_csrc/u8x8_d_pcd8544_84x48.c ****   U8X8_START_TRANSFER(),             	/* enable chip, delay is part of the transfer start */
  44:..\u8g2_csrc/u8x8_d_pcd8544_84x48.c ****   
  45:..\u8g2_csrc/u8x8_d_pcd8544_84x48.c ****   U8X8_C(0x021),            			/* activate chip (PD=0), horizontal increment (V=0), enter extended 
  46:..\u8g2_csrc/u8x8_d_pcd8544_84x48.c ****   U8X8_C(0x006),		                /* temp. control: b10 = 2  */
  47:..\u8g2_csrc/u8x8_d_pcd8544_84x48.c ****   U8X8_C(0x013),		                /* bias system 1:48 */
  48:..\u8g2_csrc/u8x8_d_pcd8544_84x48.c ****   U8X8_C(0x0c0),		                /* medium Vop  */
  49:..\u8g2_csrc/u8x8_d_pcd8544_84x48.c ****   
  50:..\u8g2_csrc/u8x8_d_pcd8544_84x48.c ****   U8X8_C(0x020),		                /* activate chip (PD=0), horizontal increment (V=0), enter normal
  51:..\u8g2_csrc/u8x8_d_pcd8544_84x48.c ****   U8X8_C(0x008),				/* blank */
ARM GAS  C:\Users\info\AppData\Local\Temp\ccCcgjUV.s 			page 40


  52:..\u8g2_csrc/u8x8_d_pcd8544_84x48.c ****   U8X8_C(0x024),		                /* power down (PD=1), horizontal increment (V=0), enter normal co
  53:..\u8g2_csrc/u8x8_d_pcd8544_84x48.c ****     
  54:..\u8g2_csrc/u8x8_d_pcd8544_84x48.c ****   U8X8_END_TRANSFER(),             	/* disable chip */
  55:..\u8g2_csrc/u8x8_d_pcd8544_84x48.c ****   U8X8_END()             			/* end of sequence */
  56:..\u8g2_csrc/u8x8_d_pcd8544_84x48.c **** };
  57:..\u8g2_csrc/u8x8_d_pcd8544_84x48.c **** 
  58:..\u8g2_csrc/u8x8_d_pcd8544_84x48.c **** static const uint8_t u8x8_d_pcd8544_84x48_powersave0_seq[] = {
  59:..\u8g2_csrc/u8x8_d_pcd8544_84x48.c ****   U8X8_START_TRANSFER(),             	/* enable chip, delay is part of the transfer start */
  60:..\u8g2_csrc/u8x8_d_pcd8544_84x48.c ****   U8X8_C(0x020),		                /* activate chip (PD=0), horizontal increment (V=0), enter normal
  61:..\u8g2_csrc/u8x8_d_pcd8544_84x48.c ****   U8X8_C(0x00c),				/* display on */
  62:..\u8g2_csrc/u8x8_d_pcd8544_84x48.c ****   U8X8_END_TRANSFER(),             	/* disable chip */
  63:..\u8g2_csrc/u8x8_d_pcd8544_84x48.c ****   U8X8_END()             			/* end of sequence */
  64:..\u8g2_csrc/u8x8_d_pcd8544_84x48.c **** };
  65:..\u8g2_csrc/u8x8_d_pcd8544_84x48.c **** 
  66:..\u8g2_csrc/u8x8_d_pcd8544_84x48.c **** static const uint8_t u8x8_d_pcd8544_84x48_powersave1_seq[] = {
  67:..\u8g2_csrc/u8x8_d_pcd8544_84x48.c ****   U8X8_START_TRANSFER(),             	/* enable chip, delay is part of the transfer start */
  68:..\u8g2_csrc/u8x8_d_pcd8544_84x48.c ****   U8X8_C(0x020),		                /* activate chip (PD=0), horizontal increment (V=0), enter normal
  69:..\u8g2_csrc/u8x8_d_pcd8544_84x48.c ****   U8X8_C(0x008),				/* blank */
  70:..\u8g2_csrc/u8x8_d_pcd8544_84x48.c ****   U8X8_C(0x024),		                /* power down (PD=1), horizontal increment (V=0), enter normal co
  71:..\u8g2_csrc/u8x8_d_pcd8544_84x48.c ****   U8X8_END_TRANSFER(),             	/* disable chip */
  72:..\u8g2_csrc/u8x8_d_pcd8544_84x48.c ****   U8X8_END()             			/* end of sequence */
  73:..\u8g2_csrc/u8x8_d_pcd8544_84x48.c **** };
  74:..\u8g2_csrc/u8x8_d_pcd8544_84x48.c **** 
  75:..\u8g2_csrc/u8x8_d_pcd8544_84x48.c **** 
  76:..\u8g2_csrc/u8x8_d_pcd8544_84x48.c **** 
  77:..\u8g2_csrc/u8x8_d_pcd8544_84x48.c **** static const u8x8_display_info_t u8x8_pcd8544_84x48_display_info =
  78:..\u8g2_csrc/u8x8_d_pcd8544_84x48.c **** {
  79:..\u8g2_csrc/u8x8_d_pcd8544_84x48.c ****   /* chip_enable_level = */ 0,
  80:..\u8g2_csrc/u8x8_d_pcd8544_84x48.c ****   /* chip_disable_level = */ 1,
  81:..\u8g2_csrc/u8x8_d_pcd8544_84x48.c ****   
  82:..\u8g2_csrc/u8x8_d_pcd8544_84x48.c ****   /* post_chip_enable_wait_ns = */ 5,
  83:..\u8g2_csrc/u8x8_d_pcd8544_84x48.c ****   /* pre_chip_disable_wait_ns = */ 5,
  84:..\u8g2_csrc/u8x8_d_pcd8544_84x48.c ****   /* reset_pulse_width_ms = */ 2, 
  85:..\u8g2_csrc/u8x8_d_pcd8544_84x48.c ****   /* post_reset_wait_ms = */ 2, 
  86:..\u8g2_csrc/u8x8_d_pcd8544_84x48.c ****   /* sda_setup_time_ns = */ 12,		
  87:..\u8g2_csrc/u8x8_d_pcd8544_84x48.c ****   /* sck_pulse_width_ns = */ 75,	/* half of cycle time (100ns according to datasheet), AVR: below 7
  88:..\u8g2_csrc/u8x8_d_pcd8544_84x48.c ****   /* sck_clock_hz = */ 4000000UL,	/* since Arduino 1.6.0, the SPI bus speed in Hz. Should be  10000
  89:..\u8g2_csrc/u8x8_d_pcd8544_84x48.c ****   /* spi_mode = */ 0,		/* active high, rising edge */
  90:..\u8g2_csrc/u8x8_d_pcd8544_84x48.c ****   /* i2c_bus_clock_100kHz = */ 4,
  91:..\u8g2_csrc/u8x8_d_pcd8544_84x48.c ****   /* data_setup_time_ns = */ 30,
  92:..\u8g2_csrc/u8x8_d_pcd8544_84x48.c ****   /* write_pulse_width_ns = */ 40,
  93:..\u8g2_csrc/u8x8_d_pcd8544_84x48.c ****   /* tile_width = */ 11,		/* width of 11*8=88 pixel */
  94:..\u8g2_csrc/u8x8_d_pcd8544_84x48.c ****   /* tile_hight = */ 6,
  95:..\u8g2_csrc/u8x8_d_pcd8544_84x48.c ****   /* default_x_offset = */ 0,
  96:..\u8g2_csrc/u8x8_d_pcd8544_84x48.c ****   /* flipmode_x_offset = */ 0,
  97:..\u8g2_csrc/u8x8_d_pcd8544_84x48.c ****   /* pixel_width = */ 84,
  98:..\u8g2_csrc/u8x8_d_pcd8544_84x48.c ****   /* pixel_height = */ 48
  99:..\u8g2_csrc/u8x8_d_pcd8544_84x48.c **** };
 100:..\u8g2_csrc/u8x8_d_pcd8544_84x48.c **** 
 101:..\u8g2_csrc/u8x8_d_pcd8544_84x48.c **** uint8_t u8x8_d_pcd8544_84x48(u8x8_t *u8x8, uint8_t msg, uint8_t arg_int, void *arg_ptr)
 102:..\u8g2_csrc/u8x8_d_pcd8544_84x48.c **** {
 538              		.loc 1 102 0
 539              		.cfi_startproc
 540              		@ args = 0, pretend = 0, frame = 0
 541              		@ frame_needed = 0, uses_anonymous_args = 0
 542              	.LVL0:
 543 0000 2DE9F041 		push	{r4, r5, r6, r7, r8, lr}
ARM GAS  C:\Users\info\AppData\Local\Temp\ccCcgjUV.s 			page 41


 544              		.cfi_def_cfa_offset 24
 545              		.cfi_offset 4, -24
 546              		.cfi_offset 5, -20
 547              		.cfi_offset 6, -16
 548              		.cfi_offset 7, -12
 549              		.cfi_offset 8, -8
 550              		.cfi_offset 14, -4
 551 0004 0646     		mov	r6, r0
 552 0006 9046     		mov	r8, r2
 553 0008 1D46     		mov	r5, r3
 103:..\u8g2_csrc/u8x8_d_pcd8544_84x48.c ****   uint8_t x, c;
 104:..\u8g2_csrc/u8x8_d_pcd8544_84x48.c ****   uint8_t *ptr;
 105:..\u8g2_csrc/u8x8_d_pcd8544_84x48.c ****   switch(msg)
 554              		.loc 1 105 0
 555 000a 0939     		subs	r1, r1, #9
 556              	.LVL1:
 557 000c 0629     		cmp	r1, #6
 558 000e 6AD8     		bhi	.L13
 559 0010 DFE801F0 		tbb	[pc, r1]
 560              	.LVL2:
 561              	.L4:
 562 0014 04       		.byte	(.L3-.L4)/2
 563 0015 0A       		.byte	(.L5-.L4)/2
 564 0016 13       		.byte	(.L6-.L4)/2
 565 0017 69       		.byte	(.L13-.L4)/2
 566 0018 69       		.byte	(.L13-.L4)/2
 567 0019 20       		.byte	(.L7-.L4)/2
 568 001a 33       		.byte	(.L8-.L4)/2
 569 001b 00       		.p2align 1
 570              	.L3:
 106:..\u8g2_csrc/u8x8_d_pcd8544_84x48.c ****   {
 107:..\u8g2_csrc/u8x8_d_pcd8544_84x48.c ****     case U8X8_MSG_DISPLAY_SETUP_MEMORY:
 108:..\u8g2_csrc/u8x8_d_pcd8544_84x48.c ****       u8x8_d_helper_display_setup_memory(u8x8, &u8x8_pcd8544_84x48_display_info);
 571              		.loc 1 108 0
 572 001c 3349     		ldr	r1, .L15
 573 001e FFF7FEFF 		bl	u8x8_d_helper_display_setup_memory
 574              	.LVL3:
 109:..\u8g2_csrc/u8x8_d_pcd8544_84x48.c ****       break;
 110:..\u8g2_csrc/u8x8_d_pcd8544_84x48.c ****     case U8X8_MSG_DISPLAY_INIT:
 111:..\u8g2_csrc/u8x8_d_pcd8544_84x48.c ****       u8x8_d_helper_display_init(u8x8);
 112:..\u8g2_csrc/u8x8_d_pcd8544_84x48.c ****       u8x8_cad_SendSequence(u8x8, u8x8_d_pcd8544_84x48_init_seq);
 113:..\u8g2_csrc/u8x8_d_pcd8544_84x48.c ****       break;
 114:..\u8g2_csrc/u8x8_d_pcd8544_84x48.c ****     case U8X8_MSG_DISPLAY_SET_POWER_SAVE:
 115:..\u8g2_csrc/u8x8_d_pcd8544_84x48.c ****       if ( arg_int == 0 )
 116:..\u8g2_csrc/u8x8_d_pcd8544_84x48.c **** 	u8x8_cad_SendSequence(u8x8, u8x8_d_pcd8544_84x48_powersave0_seq);
 117:..\u8g2_csrc/u8x8_d_pcd8544_84x48.c ****       else
 118:..\u8g2_csrc/u8x8_d_pcd8544_84x48.c **** 	u8x8_cad_SendSequence(u8x8, u8x8_d_pcd8544_84x48_powersave1_seq);
 119:..\u8g2_csrc/u8x8_d_pcd8544_84x48.c ****       break;
 120:..\u8g2_csrc/u8x8_d_pcd8544_84x48.c ****     // case U8X8_MSG_DISPLAY_SET_FLIP_MODE:
 121:..\u8g2_csrc/u8x8_d_pcd8544_84x48.c ****     // 	  break; 	NOT SUPPORTED
 122:..\u8g2_csrc/u8x8_d_pcd8544_84x48.c ****       
 123:..\u8g2_csrc/u8x8_d_pcd8544_84x48.c **** #ifdef U8X8_WITH_SET_CONTRAST
 124:..\u8g2_csrc/u8x8_d_pcd8544_84x48.c ****     case U8X8_MSG_DISPLAY_SET_CONTRAST:
 125:..\u8g2_csrc/u8x8_d_pcd8544_84x48.c ****       u8x8_cad_StartTransfer(u8x8);
 126:..\u8g2_csrc/u8x8_d_pcd8544_84x48.c ****       u8x8_cad_SendCmd(u8x8, 0x021 ); /* command mode, extended function set */
 127:..\u8g2_csrc/u8x8_d_pcd8544_84x48.c ****       u8x8_cad_SendCmd(u8x8, 0x080 | (arg_int >> 1) );
 128:..\u8g2_csrc/u8x8_d_pcd8544_84x48.c ****       u8x8_cad_EndTransfer(u8x8);
ARM GAS  C:\Users\info\AppData\Local\Temp\ccCcgjUV.s 			page 42


 129:..\u8g2_csrc/u8x8_d_pcd8544_84x48.c ****       break;
 130:..\u8g2_csrc/u8x8_d_pcd8544_84x48.c **** #endif
 131:..\u8g2_csrc/u8x8_d_pcd8544_84x48.c ****     case U8X8_MSG_DISPLAY_DRAW_TILE:
 132:..\u8g2_csrc/u8x8_d_pcd8544_84x48.c ****       u8x8_cad_StartTransfer(u8x8);
 133:..\u8g2_csrc/u8x8_d_pcd8544_84x48.c ****     
 134:..\u8g2_csrc/u8x8_d_pcd8544_84x48.c ****       x = ((u8x8_tile_t *)arg_ptr)->x_pos;
 135:..\u8g2_csrc/u8x8_d_pcd8544_84x48.c ****       x *= 8;
 136:..\u8g2_csrc/u8x8_d_pcd8544_84x48.c ****       x += u8x8->x_offset;
 137:..\u8g2_csrc/u8x8_d_pcd8544_84x48.c ****       u8x8_cad_SendCmd(u8x8, 0x020 ); /* activate chip (PD=0), horizontal increment (V=0), enter no
 138:..\u8g2_csrc/u8x8_d_pcd8544_84x48.c ****       u8x8_cad_SendCmd(u8x8, 0x080 | (x) );	/* set X address */
 139:..\u8g2_csrc/u8x8_d_pcd8544_84x48.c ****       u8x8_cad_SendCmd(u8x8, 0x040 | (((u8x8_tile_t *)arg_ptr)->y_pos) );	/* set Y address */
 140:..\u8g2_csrc/u8x8_d_pcd8544_84x48.c ****     
 141:..\u8g2_csrc/u8x8_d_pcd8544_84x48.c ****       ptr = ((u8x8_tile_t *)arg_ptr)->tile_ptr;
 142:..\u8g2_csrc/u8x8_d_pcd8544_84x48.c ****       c = ((u8x8_tile_t *)arg_ptr)->cnt;
 143:..\u8g2_csrc/u8x8_d_pcd8544_84x48.c ****       c *= 8;	
 144:..\u8g2_csrc/u8x8_d_pcd8544_84x48.c ****       do
 145:..\u8g2_csrc/u8x8_d_pcd8544_84x48.c ****       {
 146:..\u8g2_csrc/u8x8_d_pcd8544_84x48.c **** 	if ( c + x > 84u )
 147:..\u8g2_csrc/u8x8_d_pcd8544_84x48.c **** 	{
 148:..\u8g2_csrc/u8x8_d_pcd8544_84x48.c **** 	  if ( x >= 84u )
 149:..\u8g2_csrc/u8x8_d_pcd8544_84x48.c **** 	    break;
 150:..\u8g2_csrc/u8x8_d_pcd8544_84x48.c **** 	  c = 84u;
 151:..\u8g2_csrc/u8x8_d_pcd8544_84x48.c **** 	  c -= x;
 152:..\u8g2_csrc/u8x8_d_pcd8544_84x48.c **** 	}
 153:..\u8g2_csrc/u8x8_d_pcd8544_84x48.c **** 	u8x8_cad_SendData(u8x8, c, ptr);	/* note: SendData can not handle more than 255 bytes */
 154:..\u8g2_csrc/u8x8_d_pcd8544_84x48.c **** 	x += c;
 155:..\u8g2_csrc/u8x8_d_pcd8544_84x48.c **** 	arg_int--;
 156:..\u8g2_csrc/u8x8_d_pcd8544_84x48.c ****       } while( arg_int > 0 );
 157:..\u8g2_csrc/u8x8_d_pcd8544_84x48.c ****       
 158:..\u8g2_csrc/u8x8_d_pcd8544_84x48.c ****       u8x8_cad_EndTransfer(u8x8);
 159:..\u8g2_csrc/u8x8_d_pcd8544_84x48.c ****       break;
 160:..\u8g2_csrc/u8x8_d_pcd8544_84x48.c ****     default:
 161:..\u8g2_csrc/u8x8_d_pcd8544_84x48.c ****       return 0;
 162:..\u8g2_csrc/u8x8_d_pcd8544_84x48.c ****   }
 163:..\u8g2_csrc/u8x8_d_pcd8544_84x48.c ****   return 1;
 575              		.loc 1 163 0
 576 0022 0120     		movs	r0, #1
 109:..\u8g2_csrc/u8x8_d_pcd8544_84x48.c ****       break;
 577              		.loc 1 109 0
 578 0024 BDE8F081 		pop	{r4, r5, r6, r7, r8, pc}
 579              	.LVL4:
 580              	.L5:
 111:..\u8g2_csrc/u8x8_d_pcd8544_84x48.c ****       u8x8_cad_SendSequence(u8x8, u8x8_d_pcd8544_84x48_init_seq);
 581              		.loc 1 111 0
 582 0028 FFF7FEFF 		bl	u8x8_d_helper_display_init
 583              	.LVL5:
 112:..\u8g2_csrc/u8x8_d_pcd8544_84x48.c ****       break;
 584              		.loc 1 112 0
 585 002c 3049     		ldr	r1, .L15+4
 586 002e 3046     		mov	r0, r6
 587 0030 FFF7FEFF 		bl	u8x8_cad_SendSequence
 588              	.LVL6:
 589              		.loc 1 163 0
 590 0034 0120     		movs	r0, #1
 113:..\u8g2_csrc/u8x8_d_pcd8544_84x48.c ****     case U8X8_MSG_DISPLAY_SET_POWER_SAVE:
 591              		.loc 1 113 0
 592 0036 BDE8F081 		pop	{r4, r5, r6, r7, r8, pc}
ARM GAS  C:\Users\info\AppData\Local\Temp\ccCcgjUV.s 			page 43


 593              	.LVL7:
 594              	.L6:
 115:..\u8g2_csrc/u8x8_d_pcd8544_84x48.c **** 	u8x8_cad_SendSequence(u8x8, u8x8_d_pcd8544_84x48_powersave0_seq);
 595              		.loc 1 115 0
 596 003a 2AB9     		cbnz	r2, .L9
 116:..\u8g2_csrc/u8x8_d_pcd8544_84x48.c ****       else
 597              		.loc 1 116 0
 598 003c 2D49     		ldr	r1, .L15+8
 599 003e FFF7FEFF 		bl	u8x8_cad_SendSequence
 600              	.LVL8:
 601              		.loc 1 163 0
 602 0042 0120     		movs	r0, #1
 603 0044 BDE8F081 		pop	{r4, r5, r6, r7, r8, pc}
 604              	.LVL9:
 605              	.L9:
 118:..\u8g2_csrc/u8x8_d_pcd8544_84x48.c ****       break;
 606              		.loc 1 118 0
 607 0048 2B49     		ldr	r1, .L15+12
 608 004a FFF7FEFF 		bl	u8x8_cad_SendSequence
 609              	.LVL10:
 610              		.loc 1 163 0
 611 004e 0120     		movs	r0, #1
 612 0050 BDE8F081 		pop	{r4, r5, r6, r7, r8, pc}
 613              	.LVL11:
 614              	.L7:
 125:..\u8g2_csrc/u8x8_d_pcd8544_84x48.c ****       u8x8_cad_SendCmd(u8x8, 0x021 ); /* command mode, extended function set */
 615              		.loc 1 125 0
 616 0054 FFF7FEFF 		bl	u8x8_cad_StartTransfer
 617              	.LVL12:
 126:..\u8g2_csrc/u8x8_d_pcd8544_84x48.c ****       u8x8_cad_SendCmd(u8x8, 0x080 | (arg_int >> 1) );
 618              		.loc 1 126 0
 619 0058 2121     		movs	r1, #33
 620 005a 3046     		mov	r0, r6
 621 005c FFF7FEFF 		bl	u8x8_cad_SendCmd
 622              	.LVL13:
 127:..\u8g2_csrc/u8x8_d_pcd8544_84x48.c ****       u8x8_cad_EndTransfer(u8x8);
 623              		.loc 1 127 0
 624 0060 4FEA5801 		lsr	r1, r8, #1
 625 0064 41F08001 		orr	r1, r1, #128
 626 0068 3046     		mov	r0, r6
 627 006a FFF7FEFF 		bl	u8x8_cad_SendCmd
 628              	.LVL14:
 128:..\u8g2_csrc/u8x8_d_pcd8544_84x48.c ****       break;
 629              		.loc 1 128 0
 630 006e 3046     		mov	r0, r6
 631 0070 FFF7FEFF 		bl	u8x8_cad_EndTransfer
 632              	.LVL15:
 633              		.loc 1 163 0
 634 0074 0120     		movs	r0, #1
 129:..\u8g2_csrc/u8x8_d_pcd8544_84x48.c **** #endif
 635              		.loc 1 129 0
 636 0076 BDE8F081 		pop	{r4, r5, r6, r7, r8, pc}
 637              	.LVL16:
 638              	.L8:
 132:..\u8g2_csrc/u8x8_d_pcd8544_84x48.c ****     
 639              		.loc 1 132 0
 640 007a FFF7FEFF 		bl	u8x8_cad_StartTransfer
ARM GAS  C:\Users\info\AppData\Local\Temp\ccCcgjUV.s 			page 44


 641              	.LVL17:
 134:..\u8g2_csrc/u8x8_d_pcd8544_84x48.c ****       x *= 8;
 642              		.loc 1 134 0
 643 007e 6B79     		ldrb	r3, [r5, #5]	@ zero_extendqisi2
 644              	.LVL18:
 135:..\u8g2_csrc/u8x8_d_pcd8544_84x48.c ****       x += u8x8->x_offset;
 645              		.loc 1 135 0
 646 0080 DB00     		lsls	r3, r3, #3
 647              	.LVL19:
 648 0082 DBB2     		uxtb	r3, r3
 649              	.LVL20:
 136:..\u8g2_csrc/u8x8_d_pcd8544_84x48.c ****       u8x8_cad_SendCmd(u8x8, 0x020 ); /* activate chip (PD=0), horizontal increment (V=0), enter no
 650              		.loc 1 136 0
 651 0084 96F82240 		ldrb	r4, [r6, #34]	@ zero_extendqisi2
 652 0088 1C44     		add	r4, r4, r3
 653 008a E4B2     		uxtb	r4, r4
 654              	.LVL21:
 137:..\u8g2_csrc/u8x8_d_pcd8544_84x48.c ****       u8x8_cad_SendCmd(u8x8, 0x080 | (x) );	/* set X address */
 655              		.loc 1 137 0
 656 008c 2021     		movs	r1, #32
 657 008e 3046     		mov	r0, r6
 658 0090 FFF7FEFF 		bl	u8x8_cad_SendCmd
 659              	.LVL22:
 138:..\u8g2_csrc/u8x8_d_pcd8544_84x48.c ****       u8x8_cad_SendCmd(u8x8, 0x040 | (((u8x8_tile_t *)arg_ptr)->y_pos) );	/* set Y address */
 660              		.loc 1 138 0
 661 0094 44F08001 		orr	r1, r4, #128
 662 0098 3046     		mov	r0, r6
 663 009a FFF7FEFF 		bl	u8x8_cad_SendCmd
 664              	.LVL23:
 139:..\u8g2_csrc/u8x8_d_pcd8544_84x48.c ****     
 665              		.loc 1 139 0
 666 009e A979     		ldrb	r1, [r5, #6]	@ zero_extendqisi2
 667 00a0 41F04001 		orr	r1, r1, #64
 668 00a4 3046     		mov	r0, r6
 669 00a6 FFF7FEFF 		bl	u8x8_cad_SendCmd
 670              	.LVL24:
 141:..\u8g2_csrc/u8x8_d_pcd8544_84x48.c ****       c = ((u8x8_tile_t *)arg_ptr)->cnt;
 671              		.loc 1 141 0
 672 00aa 2F68     		ldr	r7, [r5]
 673              	.LVL25:
 142:..\u8g2_csrc/u8x8_d_pcd8544_84x48.c ****       c *= 8;	
 674              		.loc 1 142 0
 675 00ac 2D79     		ldrb	r5, [r5, #4]	@ zero_extendqisi2
 676              	.LVL26:
 143:..\u8g2_csrc/u8x8_d_pcd8544_84x48.c ****       do
 677              		.loc 1 143 0
 678 00ae ED00     		lsls	r5, r5, #3
 679              	.LVL27:
 680 00b0 EDB2     		uxtb	r5, r5
 681              	.LVL28:
 682              	.L12:
 146:..\u8g2_csrc/u8x8_d_pcd8544_84x48.c **** 	{
 683              		.loc 1 146 0
 684 00b2 2B19     		adds	r3, r5, r4
 685 00b4 542B     		cmp	r3, #84
 686 00b6 04D9     		bls	.L10
 148:..\u8g2_csrc/u8x8_d_pcd8544_84x48.c **** 	    break;
ARM GAS  C:\Users\info\AppData\Local\Temp\ccCcgjUV.s 			page 45


 687              		.loc 1 148 0
 688 00b8 532C     		cmp	r4, #83
 689 00ba 0ED8     		bhi	.L11
 690              	.LVL29:
 151:..\u8g2_csrc/u8x8_d_pcd8544_84x48.c **** 	}
 691              		.loc 1 151 0
 692 00bc C4F15405 		rsb	r5, r4, #84
 693 00c0 EDB2     		uxtb	r5, r5
 694              	.LVL30:
 695              	.L10:
 153:..\u8g2_csrc/u8x8_d_pcd8544_84x48.c **** 	x += c;
 696              		.loc 1 153 0
 697 00c2 3A46     		mov	r2, r7
 698 00c4 2946     		mov	r1, r5
 699 00c6 3046     		mov	r0, r6
 700 00c8 FFF7FEFF 		bl	u8x8_cad_SendData
 701              	.LVL31:
 154:..\u8g2_csrc/u8x8_d_pcd8544_84x48.c **** 	arg_int--;
 702              		.loc 1 154 0
 703 00cc 2C44     		add	r4, r4, r5
 704              	.LVL32:
 705 00ce E4B2     		uxtb	r4, r4
 706              	.LVL33:
 155:..\u8g2_csrc/u8x8_d_pcd8544_84x48.c ****       } while( arg_int > 0 );
 707              		.loc 1 155 0
 708 00d0 08F1FF32 		add	r2, r8, #-1
 709              	.LVL34:
 156:..\u8g2_csrc/u8x8_d_pcd8544_84x48.c ****       
 710              		.loc 1 156 0
 711 00d4 12F0FF08 		ands	r8, r2, #255
 712 00d8 EBD1     		bne	.L12
 713              	.LVL35:
 714              	.L11:
 158:..\u8g2_csrc/u8x8_d_pcd8544_84x48.c ****       break;
 715              		.loc 1 158 0
 716 00da 3046     		mov	r0, r6
 717 00dc FFF7FEFF 		bl	u8x8_cad_EndTransfer
 718              	.LVL36:
 719              		.loc 1 163 0
 720 00e0 0120     		movs	r0, #1
 159:..\u8g2_csrc/u8x8_d_pcd8544_84x48.c ****     default:
 721              		.loc 1 159 0
 722 00e2 BDE8F081 		pop	{r4, r5, r6, r7, r8, pc}
 723              	.LVL37:
 724              	.L13:
 161:..\u8g2_csrc/u8x8_d_pcd8544_84x48.c ****   }
 725              		.loc 1 161 0
 726 00e6 0020     		movs	r0, #0
 727              	.LVL38:
 164:..\u8g2_csrc/u8x8_d_pcd8544_84x48.c **** }
 728              		.loc 1 164 0
 729 00e8 BDE8F081 		pop	{r4, r5, r6, r7, r8, pc}
 730              	.LVL39:
 731              	.L16:
 732              		.align	2
 733              	.L15:
 734 00ec 00000000 		.word	.LANCHOR0
ARM GAS  C:\Users\info\AppData\Local\Temp\ccCcgjUV.s 			page 46


 735 00f0 18000000 		.word	.LANCHOR0+24
 736 00f4 2C000000 		.word	.LANCHOR0+44
 737 00f8 34000000 		.word	.LANCHOR0+52
 738              		.cfi_endproc
 739              	.LFE0:
 740              		.size	u8x8_d_pcd8544_84x48, .-u8x8_d_pcd8544_84x48
 741              		.section	.rodata
 742              		.align	2
 743              		.set	.LANCHOR0,. + 0
 744              		.type	u8x8_pcd8544_84x48_display_info, %object
 745              		.size	u8x8_pcd8544_84x48_display_info, 24
 746              	u8x8_pcd8544_84x48_display_info:
 747 0000 00       		.byte	0
 748 0001 01       		.byte	1
 749 0002 05       		.byte	5
 750 0003 05       		.byte	5
 751 0004 02       		.byte	2
 752 0005 02       		.byte	2
 753 0006 0C       		.byte	12
 754 0007 4B       		.byte	75
 755 0008 00093D00 		.word	4000000
 756 000c 00       		.byte	0
 757 000d 04       		.byte	4
 758 000e 1E       		.byte	30
 759 000f 28       		.byte	40
 760 0010 0B       		.byte	11
 761 0011 06       		.byte	6
 762 0012 00       		.byte	0
 763 0013 00       		.byte	0
 764 0014 5400     		.short	84
 765 0016 3000     		.short	48
 766              		.type	u8x8_d_pcd8544_84x48_init_seq, %object
 767              		.size	u8x8_d_pcd8544_84x48_init_seq, 17
 768              	u8x8_d_pcd8544_84x48_init_seq:
 769 0018 18       		.byte	24
 770 0019 15       		.byte	21
 771 001a 21       		.byte	33
 772 001b 15       		.byte	21
 773 001c 06       		.byte	6
 774 001d 15       		.byte	21
 775 001e 13       		.byte	19
 776 001f 15       		.byte	21
 777 0020 C0       		.byte	-64
 778 0021 15       		.byte	21
 779 0022 20       		.byte	32
 780 0023 15       		.byte	21
 781 0024 08       		.byte	8
 782 0025 15       		.byte	21
 783 0026 24       		.byte	36
 784 0027 19       		.byte	25
 785 0028 FF       		.byte	-1
 786 0029 000000   		.space	3
 787              		.type	u8x8_d_pcd8544_84x48_powersave0_seq, %object
 788              		.size	u8x8_d_pcd8544_84x48_powersave0_seq, 7
 789              	u8x8_d_pcd8544_84x48_powersave0_seq:
 790 002c 18       		.byte	24
 791 002d 15       		.byte	21
ARM GAS  C:\Users\info\AppData\Local\Temp\ccCcgjUV.s 			page 47


 792 002e 20       		.byte	32
 793 002f 15       		.byte	21
 794 0030 0C       		.byte	12
 795 0031 19       		.byte	25
 796 0032 FF       		.byte	-1
 797 0033 00       		.space	1
 798              		.type	u8x8_d_pcd8544_84x48_powersave1_seq, %object
 799              		.size	u8x8_d_pcd8544_84x48_powersave1_seq, 9
 800              	u8x8_d_pcd8544_84x48_powersave1_seq:
 801 0034 18       		.byte	24
 802 0035 15       		.byte	21
 803 0036 20       		.byte	32
 804 0037 15       		.byte	21
 805 0038 08       		.byte	8
 806 0039 15       		.byte	21
 807 003a 24       		.byte	36
 808 003b 19       		.byte	25
 809 003c FF       		.byte	-1
 810              		.text
 811              	.Letext0:
 812              		.file 2 "c:\\program files (x86)\\cypress\\psoc creator\\4.2\\psoc creator\\import\\gnu\\arm\\5.4.
 813              		.file 3 "c:\\program files (x86)\\cypress\\psoc creator\\4.2\\psoc creator\\import\\gnu\\arm\\5.4.
 814              		.file 4 "..\\u8g2_csrc\\u8x8.h"