ARM GAS  C:\Users\info\AppData\Local\Temp\ccA70N4n.s 			page 1


   1              		.syntax unified
   2              		.cpu cortex-m3
   3              		.fpu softvfp
   4              		.eabi_attribute 20, 1
   5              		.eabi_attribute 21, 1
   6              		.eabi_attribute 23, 3
   7              		.eabi_attribute 24, 1
   8              		.eabi_attribute 25, 1
   9              		.eabi_attribute 26, 1
  10              		.eabi_attribute 30, 1
  11              		.eabi_attribute 34, 1
  12              		.eabi_attribute 18, 4
  13              		.thumb
  14              		.syntax unified
  15              		.file	"u8x8_message.c"
  16              		.text
  17              	.Ltext0:
  18              		.section	.gnu.lto_.profile.792a67f1,"",%progbits
  19 0000 789C6361 		.ascii	"x\234ca`d`c`\000\222K\231&3\002\000\004U\001H"
  19      60646063 
  19      6000924B 
  19      99263302 
  19      00045501 
  20              		.text
  21              		.section	.gnu.lto_.inline.792a67f1,"",%progbits
  22 0000 789C558E 		.ascii	"x\234U\2161\016\3020\014E\277\2234\021\242`\304\001"
  22      310EC230 
  22      0C45BF93 
  22      3411A260 
  22      C401
  23 0012 B271010E 		.ascii	"\262q\001\016\342\231\223p\004$6\257\235\2319\011k\006"
  23      E2999370 
  23      042436AF 
  23      9D993909 
  23      6B06
  24 0024 04EAC8CE 		.ascii	"\004\352\310\316\012\023M\210\240\375\213\377\177\266"
  24      0A134D88 
  24      A0FD8BFF 
  24      7FB6
  25 0032 6C3B10B2 		.ascii	"l;\020\262\356\370\313\000\333\213'\230\315\351\314"
  25      EEF8CB00 
  25      DB8B2798 
  25      CDE9CC
  26 0041 981DF726 		.ascii	"\230\035\367&S\317\004\327\007\225>\214\275\212[\014"
  26      53CF04D7 
  26      07953E8C 
  26      BD8A5B0C 
  27 0051 A3D91633 		.ascii	"\243\331\0263!\266\005H\205\360\300\313\016lw\275\255"
  27      21B60548 
  27      85F0C0CB 
  27      0E6C77BD 
  27      AD
  28 0062 B17C1FE8 		.ascii	"\261|\037\350\267\261\351b\027UT\272Xb\342\3049&\266"
  28      B7B1E962 
  28      175554BA 
  28      5862E2C4 
  28      3926B6
ARM GAS  C:\Users\info\AppData\Local\Temp\ccA70N4n.s 			page 2


  29 0075 2D819E3E 		.ascii	"-\201\236>\254\200&\023\025\250\324\204/\360<N\323\236"
  29      AC802613 
  29      15A8D484 
  29      2FF03C4E 
  29      D39E
  30 0087 9997D3F5 		.ascii	"\231\227\323\365\203Z\360\001T\3231p"
  30      835AF001 
  30      54D33170 
  31              		.text
  32              		.section	.gnu.lto_.jmpfuncs.792a67f1,"",%progbits
  33 0000 789C6361 		.ascii	"x\234ca`d\000\001\011\006\004`\202\263\030\031\220\001"
  33      60640001 
  33      09060460 
  33      82B31819 
  33      9001
  34 0012 0004A400 		.ascii	"\000\004\244\000!"
  34      21
  35              		.text
  36              		.section	.gnu.lto_.pureconst.792a67f1,"",%progbits
  37 0000 789C6361 		.ascii	"x\234ca`d`e```b\220b\224\002\000\000\355\000B"
  37      60646065 
  37      60606062 
  37      90629402 
  37      0000ED00 
  38              		.text
  39              		.section	.gnu.lto_u8x8_draw_button_line.792a67f1,"",%progbits
  40 0000 789C8D55 		.ascii	"x\234\215Umo\024U\024\276\347\336\231\235\335\331\351"
  40      6D6F1455 
  40      14BEE7DE 
  40      999DDDD9 
  40      E9
  41 0011 96B7C286 		.ascii	"\226\267\302\206\264\270M\272\255|\220\027\321\204\304"
  41      B4B84DBA 
  41      AD7C9017 
  41      D184C4
  42 0020 0F6AFC05 		.ascii	"\017j\374\005\372YBHm\010\211Hl!\302\247\016\335n\251"
  42      FA594248 
  42      6D088948 
  42      6C21C2A7 
  42      0EDD6EA9 
  43 0034 DA10F0A5 		.ascii	"\332\020\360\245\324\212Y\023D^\004\332\002\245\024"
  43      D48A5913 
  43      445E04DA 
  43      02A514
  44 0043 0A0E856E 		.ascii	"\012\016\205n\221B\201@\202B1R\0114(\330\022Lc\002\254"
  44      91428140 
  44      82423152 
  44      093428D8 
  44      124C6302 
  45 0058 E79C3BBB 		.ascii	"\347\234;\273,\264$L2\263\367\236y\236s\236s\3569\263"
  45      2CB4244C 
  45      32B3F79E 
  45      799E739E 
  45      73EE39B3 
  46 006c 860041D7 		.ascii	"\206\000A\327\177A!\336\301\3376\274\241@\200\3344("
  46      7F4121DE 
  46      C1DF36BC 
ARM GAS  C:\Users\info\AppData\Local\Temp\ccA70N4n.s 			page 3


  46      A14080DC 
  46      3428
  47 007e C4FAA004 		.ascii	"\304\372\240\004C/\224^\234\010\032R5\365\013\341\332"
  47      432F945E 
  47      9C081A52 
  47      35F50BE1 
  47      DA
  48 008f 66BD255C 		.ascii	"f\275%\\\307\224\201\306\012\334Y\364t\002`i\270\005"
  48      C79481C6 
  48      0ADC59F4 
  48      74026069 
  48      B805
  49 00a1 61BD08CA 		.ascii	"a\275\010\312\220\304\327\366F\334\271N\010lm\266\365"
  49      90C4D7F6 
  49      46DCB94E 
  49      086C6DB6 
  49      F5
  50 00b2 FB13C1B0 		.ascii	"\373\023\301\260\014jw\016\273s\000\310\356\006A\324"
  50      0C6A770E 
  50      BB7300C8 
  50      EE0641D4 
  51 00c2 4A659801 		.ascii	"Je\230\001+\030\262\303\016\324*C\200g@F\253\015\347"
  51      2B18B2C3 
  51      0ED42A43 
  51      80674046 
  51      AB0DE7
  52 00d5 6FFE958F 		.ascii	"o\376\225\217$\014\214\237n\262\347\356p\335:\367\217"
  52      240C8C9F 
  52      6EB2E7EE 
  52      70DD3AF7 
  52      8F
  53 00e6 BE4BCE96 		.ascii	"\276K\316\226\235\036$\225\020\031)`Q1,(\246\264v\300"
  53      9D1E2495 
  53      10192960 
  53      51312C28 
  53      A6B476C0 
  54 00fa 5C445EAC 		.ascii	"\\D^\254o\337\252\036\310\244\0020p;v\256\365\317\010"
  54      6FDFAA1E 
  54      C8A40230 
  54      703B76AE 
  54      F5CF08
  55 010d 6D25C470 		.ascii	"m%\304p\373\375\345mC\001\365\022\010\\7\237\271|\257"
  55      FBFDE56D 
  55      4301F512 
  55      085C379F 
  55      B97CAF
  56 0120 A0623BF9 		.ascii	"\240b;\371tSUn(\251\024\354\006E>wA1\354\204b\201&\001"
  56      7453556E 
  56      28A914EC 
  56      06453E77 
  56      4131EC84 
  57 0138 3F4105A2 		.ascii	"?A\005\242{>\033x\030Te\314\374\364jz4\3403\257-q\025"
  57      7B3E1B78 
  57      185465CC 
  57      FCF46A7A 
  57      34E033AF 
  58 014f 4A813D9A 		.ascii	"J\201=\232\251\325\2206\330\313\274\337.\264\177\036"
ARM GAS  C:\Users\info\AppData\Local\Temp\ccA70N4n.s 			page 4


  58      A9D59036 
  58      D8CBBCDF 
  58      2EB47F1E 
  59 015f 51E5CC3B 		.ascii	"Q\345\314;\274\351\233\326l\304\315\351\260\273\200"
  59      BCE99BD6 
  59      6CC4CDE9 
  59      B0BB80
  60 016e 88FB2610 		.ascii	"\210\373&\020\333\230\270\347\362\027\233\035\3652\023"
  60      DB98B8E7 
  60      F2179B1D 
  60      F53213
  61 017d 7FB87B3D 		.ascii	"\177\270{=\035\364\211]Yb\373\004b\007\023{\323\337"
  61      1DF4895D 
  61      5962FB04 
  61      6207137B 
  61      D3DF
  62 018f B6596A3E 		.ascii	"\266Yj>\023\217\\\275\271+\344\0233i\307\335\204e3`"
  62      138F5CBD 
  62      B92BE413 
  62      3369C7DD 
  62      84653360 
  63 01a3 FFB35962 		.ascii	"\377\263Yb\365\017@\005\021Z\217l\250\263\325B&'\016"
  63      F50F4005 
  63      115A8F6C 
  63      A8B3D542 
  63      26270E
  64 01b6 5F395A18 		.ascii	"_9Z\030\337Fd\257{\345\026\327[\037\243\270\007\363"
  64      DF4664AF 
  64      7BE516D7 
  64      5B1FA3B8 
  64      07F3
  65 01c8 E3D285D0 		.ascii	"\343\322\205\320\221+\273\272M\265\210i\327\207R=\266"
  65      912BBBBA 
  65      4DB58869 
  65      D787523D 
  65      B6
  66 01d9 4F3BB4C4 		.ascii	"O;\264\304M\274E\244C\223\220\036\336\030i\014\252\327"
  66      4DBC45A4 
  66      4393901E 
  66      DE18690C 
  66      AAD7
  67 01eb 9934B8FB 		.ascii	"\2314\270\373\307.\307'\035\314\222\016OB\352j}\354"
  67      C72EC727 
  67      1DCC920E 
  67      4F42EA6A 
  67      7DEC
  68 01fd 19EA0D26 		.ascii	"\031\352\015&\355\336{\347\266\341\223\366gIG&!m\037"
  68      EDDE7BE7 
  68      B6E193F6 
  68      67494726 
  68      216D1F
  69 0210 38793CA2 		.ascii	"8y<\242\336\324\265\034N}\245|R{\226\3243\011i\270\343"
  69      DED4B51C 
  69      4E7DA57C 
  69      527B96D4 
  69      330969B8 
  70 0225 F1D70581 		.ascii	"\361\327\005\201z\027\257\030\034\2038\034\305\273\033"
ARM GAS  C:\Users\info\AppData\Local\Temp\ccA70N4n.s 			page 5


  70      7A17AF18 
  70      1C83381C 
  70      C5BB1B
  71 0234 EF2EBC3B 		.ascii	"\357.\274;!N\335\207E?\016\001lTs2D\333{\236\233\311"
  71      214EDD87 
  71      453F0E01 
  71      6C547332 
  71      44DB7B9E 
  72 024a 245C2F65 		.ascii	"$\\/e>r*@\020F\362\023C\"\016\313\216(\223\2376\320"
  72      3E722A40 
  72      1046F213 
  72      43220ECB 
  72      8E28939F 
  73 0260 1138827C 		.ascii	"\0218\202|D\350H\012\201:o*.\315i\214\236\316\314\031"
  73      44E8480A 
  73      813A6F2A 
  73      2ECD698C 
  73      9ECECC19 
  74 0274 642862C3 		.ascii	"d(b\303L\240V\231%(\\\224\235\314\006\352\201\022\242"
  74      4CA05699 
  74      25285C94 
  74      9DCC06EA 
  74      8112A2
  75 0287 CF016AC0 		.ascii	"\317\001j\300\030\241K\371]\031-\343\274,gOB\214b\002"
  75      18A14BF9 
  75      5D192DE3 
  75      BC2C674F 
  75      428C6202 
  76 029b 38976352 		.ascii	"8\227cR\342\217\032\201z\357h\011\345\223P\016\346\337"
  76      E28F1A81 
  76      7AEF6809 
  76      E593500E 
  76      E6DF
  77 02ad DDFDF735 		.ascii	"\335\375\3675\253\366\221\333\350\272S\222*\220\221"
  77      ABF691DB 
  77      E8BA5392 
  77      2A9091
  78 02bc 9826FC0C 		.ascii	"\230&\374\014\265\"\241\354\244\262\3040HN\036\005#"
  78      B522A1EC 
  78      A4B2C430 
  78      484E1E05 
  78      23
  79 02cd 01B775DE 		.ascii	"\001\267u\336\305*\266\2406\232\257d\357y\213F\017\277"
  79      C52AB6A0 
  79      369AAF64 
  79      EF798B46 
  79      0FBF
  80 02df 41E0619F 		.ascii	"A\340a\237\021\342\322\012FP\261\310$0\270\022\370\211"
  80      11E2D20A 
  80      4650B1C8 
  80      2430B812 
  80      F889
  81 02f1 C0E849EF 		.ascii	"\300\350I\357\312:\035=2!z0\203\032\005\234\340\350"
  81      CA3A1D3D 
  81      32217A30 
  81      831A059C 
  81      E0E8
ARM GAS  C:\Users\info\AppData\Local\Temp\ccA70N4n.s 			page 6


  82 0303 C0024262 		.ascii	"\300\002Bb\004L\215\237:\001og$\015D/\343\013\321cR"
  82      044C8D9F 
  82      3A016F67 
  82      240D442F 
  82      E30BD163 
  83 0318 85C52D48 		.ascii	"\205\305-H47\014\201\346LK(\205\314\\\026\335\224\305"
  83      34370C81 
  83      E64C4B28 
  83      85CC5C16 
  83      DD94C5
  84 032b 348D196C 		.ascii	"4\215\031l\2664h:\006C\337\235\033\316v\330:\023\200"
  84      B634683A 
  84      0643DF9D 
  84      1BCE76D8 
  84      3A1380
  85 033e 939C89CC 		.ascii	"\223\234\211\314\246\201 \316\302\020\370eS\230\342"
  85      A68120CE 
  85      C210F865 
  85      5398E2
  86 034d 14A17D29 		.ascii	"\024\241})\2417\214\001q\003\352\007\023\021\355\026"
  86      A1378C01 
  86      7103EA07 
  86      1311ED16 
  87 035d A85E78DD 		.ascii	"\250^x\335GwX\005\271\023\225LW-\326}P\274o\332K\002"
  87      47775805 
  87      B913954C 
  87      572DD67D 
  87      50BC6FDA 
  88 0373 55CFDD00 		.ascii	"U\317\335\000:6\351lX\326\275f\245\3713X\273\303b\003"
  88      3A36E96C 
  88      58D6BD66 
  88      A5F93358 
  88      BBC36203 
  89 0387 DA548456 		.ascii	"\332T\204VTz)q\352\274\322J3\000\247\362\244\262\246"
  89      547A2971 
  89      EABCD24A 
  89      3300A7F2 
  89      A4B2A6
  90 039a 223E83B1 		.ascii	"\">\203\261\"\266t\371g\300\312n/\312\371\231\311\003"
  90      22B674F9 
  90      67C0CA6E 
  90      2FCAF999 
  90      C903
  91 03ac 302603A2 		.ascii	"0&\003\242WQB\336xI\026O/1hK\303\260_\240Yh\321n\345"
  91      575142DE 
  91      7849164F 
  91      2F31684B 
  91      C3B05FA0 
  92 03c5 13CC2CC2 		.ascii	"\023\314,\302\2647\334\3611Q\264\240\264\276\314\270"
  92      B437DCF1 
  92      3151B4A0 
  92      B4BECCB8 
  93 03d5 5748D24C 		.ascii	"WH\322L\304\366\345)cN\224CZ\224\253.\033[\015\326\373"
  93      C4F6E529 
  93      634E9443 
  93      5A94AB2E 
  93      1B5B0DD6 
ARM GAS  C:\Users\info\AppData\Local\Temp\ccA70N4n.s 			page 7


  94 03ea 655A033B 		.ascii	"eZ\003;\265\351\026\324=h\357[H\246\374.S<\335\343\375"
  94      B5E916D4 
  94      3D68EF5B 
  94      48A6FC2E 
  94      533CDDE3 
  95 03ff 671A9D14 		.ascii	"g\032\235\024|\207\3379\007O\036\322\324d\364\005\270"
  95      7C87DF39 
  95      074F1ED2 
  95      D464F405 
  95      B8
  96 0410 59B7CF9A 		.ascii	"Y\267\317\232\377\012\025\246\037R\360\230FW\300i\230"
  96      FF0A15A6 
  96      1F52F098 
  96      4657C069 
  96      98
  97 0421 9FEBCC2D 		.ascii	"\237\353\314-\015\005O\267\346}0ha6\265\341yE\003C\377"
  97      0D054FB7 
  97      E67D3068 
  97      6136B5E1 
  97      79450343 
  98 0436 002A0C72 		.ascii	"\000*\014r\263b\311\256&\272\232\242:A\231P\263\375"
  98      B362C9AE 
  98      26BA9AA2 
  98      3A419950 
  98      B3FD
  99 0448 9A858454 		.ascii	"\232\205\204T\254\257\377c_\337\013\010\372\345\211"
  99      ACAFFF63 
  99      5FDF0B08 
  99      FAE589
 100 0457 A03328E8 		.ascii	"\2403(\350\244?\027vn.:\032\034\035\251\344y\2031\300"
 100      A43F1776 
 100      6E2E3A1A 
 100      1C1DA9E4 
 100      798331C0 
 101 046b 8D2E7383 		.ascii	"\215.s\203\341\227>6\001_\220\301N\025p6;\030fB\315"
 101      E1973E36 
 101      015F90C1 
 101      4E157036 
 101      3B186642 
 102 0480 41BF4915 		.ascii	"A\277I\025\321\255\377\232&\226\362\233X\356\214\270"
 102      D1ADFF9A 
 102      2696F29B 
 102      58EE8CB8 
 103 0490 F4A55CFA 		.ascii	"\364\245\\\372\321\263\357\276xj\347\236\2446\350\327"
 103      D1B3EFBE 
 103      786AE79E 
 103      A436E8D7 
 104 04a0 7A043678 		.ascii	"z\0046x\235\331\204\312\236'\360|V *\231\203\240\215"
 104      9DD984CA 
 104      9E27F07C 
 104      56202A99 
 104      83A08D
 105 04b3 EBFF6A36 		.ascii	"\353\377j6K\337N\271-\370\037THQ~\275wl\320FZ4\251\246"
 105      4BDF4EB9 
 105      2DF81F54 
 105      48517EBD 
 105      776CD046 
ARM GAS  C:\Users\info\AppData\Local\Temp\ccA70N4n.s 			page 8


 106 04cb C0052825 		.ascii	"\300\005(%\207\002.B\355\263\271\304\331I\331\323\271"
 106      87022E42 
 106      EDB3B9C4 
 106      D949D9D3 
 106      B9
 107 04dc C435E4F7 		.ascii	"\3045\344\367\226j\015*\307\352M\034\355r>\210p\336"
 107      966A0D2A 
 107      C7EA4D1C 
 107      ED723E88 
 107      70DE
 108 04ee 6833D9CC 		.ascii	"h3\331\314\037m\371\324h\313\334hK\312\326\242\321."
 108      1F6DF9D4 
 108      68CBDC68 
 108      4BCAD6A2 
 108      D12E
 109 0500 B769B4B1 		.ascii	"\267i\264\261\236\206\265\265\003g7n\3579\020E\277\016"
 109      9E86B5B5 
 109      0367376E 
 109      EF391045 
 109      BF0E
 110 0512 75FB1D6C 		.ascii	"u\373\035l\275c\272\365|\352(~h\353-,Z\361\274y\357"
 110      BD63BAF5 
 110      7CEA287E 
 110      68EB2D2C 
 110      5AF1BC79 
 111 0527 AF59BCFC 		.ascii	"\257Y\274\374\325\245\2255\325\225\270Z\273x\351\312"
 111      D5A59535 
 111      D595B85A 
 111      BB78E9CA 
 112 0537 AA9A9A65 		.ascii	"\252\232\232e\313\253\346U\012\203\366\260\016>\011"
 112      CBABE655 
 112      0A83F6B0 
 112      0E3E09
 113 0546 54AEA9AE 		.ascii	"T\256\251\256YU\0155\260\026>0W\257Z\275\354CU\371\321"
 113      59550D35 
 113      B0163E30 
 113      57AF5ABD 
 113      EC4355F9 
 114 055b 6A582163 		.ascii	"jX!c\342\177\271\363\315*"
 114      E27FB9F3 
 114      CD2A
 115              		.text
 116              		.section	.gnu.lto_u8x8_UserInterfaceMessage.792a67f1,"",%progbits
 117 0000 789C8D57 		.ascii	"x\234\215WkPU\327\025\336\353\354{\317}?\200\313\303"
 117      6B5055D7 
 117      15DEEBEC 
 117      7BCF7D3F 
 117      80CBC3
 118 0013 487C204A 		.ascii	"H| J\342\003\021\264b\315\237\374j\3776\377:\315\214"
 118      E20311B4 
 118      62CD9FFC 
 118      6AFF36FF 
 118      3ACD8C
 119 0026 93524633 		.ascii	"\223RF3\223\232\216`'\375\345\221+\306fl\252)>\232\232"
 119      939A8E60 
 119      27FDE591 
 119      2BC6666C 
ARM GAS  C:\Users\info\AppData\Local\Temp\ccA70N4n.s 			page 9


 119      AA293E9A 
 120 003b A2711C25 		.ascii	"\242q\034%\305\000M\014\242\"H\024\024\011H\000[\242"
 120      C5004D0C 
 120      A2224814 
 120      14094800 
 120      5BA2
 121 004d B1812831 		.ascii	"\261\201(1\011Z/\032\215\211z\273\326\332\347\336s\201"
 121      095A2F1A 
 121      8D897ABB 
 121      D6DAE7DE 
 121      7381
 122 005f CB1466EE 		.ascii	"\313\024f\356\271g\257\363}k\357\365\255o\357s\261\011"
 122      B967AFF3 
 122      7D6BEFF5 
 122      AD6FEF73 
 122      B109
 123 0071 10F47721 		.ascii	"\020\364w! \304K\370\235\217C\310\022\240\355\350\026"
 123      20C44BF8 
 123      9D8F43C8 
 123      12A0EDE8 
 123      16
 124 0082 62B353D3 		.ascii	"b\263S\323\344\207mB\030n\333U\2170\274\022l*n\323\354"
 124      E4876D42 
 124      186EDB55 
 124      8F30BC12 
 124      6C2A6ED3 
 125 0097 DBF230AC 		.ascii	"\333\3620\254\323\325k\007]\205u\315\321\361\023\014"
 125      D3D56B07 
 125      5D8575CD 
 125      D1F1130C 
 126 00a7 3B2F6462 		.ascii	";/db\330\001N\025vB\246\272q\251\233\34735w\233D\234"
 126      D8014E15 
 126      7642A6BA 
 126      71A99BE7 
 126      3335779B 
 127 00bd A7BB1393 		.ascii	"\247\273\023\223{\335\220\241\236{\264\014\216{U\334"
 127      7BDD90A1 
 127      9E7BB40C 
 127      8E7B55DC 
 128 00cd ABF9EFA4 		.ascii	"\253\371\357\244\343\320\267\277\030G>s\224\302#\277"
 128      E3D0B7BF 
 128      18473E73 
 128      94C223BF 
 129 00dd 16E01504 		.ascii	"\026\340\025\004y\005\001\010\252\014Ap\251\233\024"
 129      79050108 
 129      AA0C4170 
 129      A99B14
 130 00ec 2D8DD1A9 		.ascii	"-\215\321\251\214N5G.\036\245i!\346\24637\004\351\212"
 130      8C4E3547 
 130      2E1EA569 
 130      21E6A633 
 130      3704E98A 
 131 0100 921EE366 		.ascii	"\222\036\343f\000\320\215\341\004\261I\2236\273\356"
 131      00D08DE1 
 131      04B14993 
 131      36BBEE
 132 010f 70BA32DD 		.ascii	"p\2722\335\036\257\317\037\010\246\244\246\205\3223"
ARM GAS  C:\Users\info\AppData\Local\Temp\ccA70N4n.s 			page 10


 132      1EAFCF1F 
 132      08A6A4A6 
 132      85D233
 133 011e 60939629 		.ascii	"`\223\226)\324\337w\332c\015.>8\277\335\375\354a\303"
 133      D4DF77DA 
 133      630D2E3E 
 133      38BFDDFD 
 133      EC61C3
 134 0131 A830BEA8 		.ascii	"\2500\276\250\274\375\363HEeV\245\024\"\252\011(\312"
 134      BCFDF348 
 134      456556A5 
 134      1422AA09 
 134      28CA
 135 0143 86826CC4 		.ascii	"\206\202l\304\301ax\026\221\275[\352\367\311{Z\245\004"
 135      C1617816 
 135      91BD5BEA 
 135      F7C97B5A 
 135      A504
 136 0155 B0E130F2 		.ascii	"\260\3410\362\311\333_\372i\250\301\034\034\356\357"
 136      C9DB5FFA 
 136      69A8C11C 
 136      1CEEEF
 137 0164 3F785597 		.ascii	"?xU\227\263A\340\375\356\316\376\333\276\274C\224\323"
 137      B341E0FD 
 137      EECEFEDB 
 137      BEBC4394 
 137      D3
 138 0175 682C355C 		.ascii	"h,5\\\225R\302{ )g\015d\303\021\310\026\030\022\360"
 138      9552C27B 
 138      2029670D 
 138      64C311C8 
 138      161812F0 
 139 0189 0FC84374 		.ascii	"\017\310Ct\203\361\321Q\227\314e\346W\335\273m&\361"
 139      83F1D151 
 139      97CC65E6 
 139      57DDBB6D 
 139      26F1
 140 019b 4726DAA0 		.ascii	"G&\332\240v\"\321&\340(\023\303\2377F\335r\021\023O"
 140      7622D126 
 140      E02813C3 
 140      9F3746DD 
 140      7211134F 
 141 01af D7FCF1AA 		.ascii	"\327\374\361\252\323d\366\265{\215\035@\334\367\223"
 141      D364F6B5 
 141      7B8D1D40 
 141      DCF793
 142 01be 70EB98DB 		.ascii	"p\353\230\333\030y\273X\0262\265\363\372\340\031\227"
 142      1879BB58 
 142      1632B5F3 
 142      FAE01997 
 143 01ce 49FD5B47 		.ascii	"I\375[G\214Z\237\204\332\300\324\252\255uGA\256b\356"
 143      8C5A9F84 
 143      DAC0D4AA 
 143      AD754741 
 143      AE62EE
 144 01e1 E081C82D 		.ascii	"\340\201\310-\217\311\275\033\347\3763\011\367\003\310"
 144      8FC9BD1B 
ARM GAS  C:\Users\info\AppData\Local\Temp\ccA70N4n.s 			page 11


 144      E7FE3309 
 144      F703C8
 145 01f0 23C2DECD 		.ascii	"#\302\336\315\217\253\375\362y&\367\364n\177\3275\377"
 145      8FABFDF2 
 145      7926F7F4 
 145      6E7FD735 
 145      FF
 146 0201 20915B1F 		.ascii	" \221[\037\267\373\366\030\255\233\347\240\366\360\241"
 146      B7FBF618 
 146      AD9BE7A0 
 146      F6F0A1
 147 0210 A2C7E417 		.ascii	"\242\307\344\027\204=\264\363O\207\234\362g\314\273"
 147      843DB4F3 
 147      4F879CF2 
 147      67CCBB
 148 021f FFF0EB2A 		.ascii	"\377\360\353*\207\311\373\241\335c\324\033N\242}\224"
 148      87C9FBA1 
 148      DD63D41B 
 148      4EA27D94 
 149 022f 8456DBFF 		.ascii	"\204V\333\377\326N\257|\201i7Z?\276l7i\337[\264\343"
 149      D64EAF7C 
 149      8169375A 
 149      3FBE6C37 
 149      69DF5BB4 
 150 0244 4968A7DE 		.ascii	"Ih\247\336\270\370\310)\177\311\2647\317\355H3Y\367"
 150      B8F8C829 
 150      7FC9B437 
 150      CFED4833 
 150      59F7
 151 0256 2DD68924 		.ascii	"-\326\211$\254\363\207\307\336\000\371+f\265<\334\226"
 151      ACF387C7 
 151      DE00F92B 
 151      66B53CDC 
 151      96
 152 0267 6BB2EE59 		.ascii	"k\262\356Y\254SIX\303\015Ov\371\364-\006\376\315\201"
 152      AC534958 
 152      C30D4F76 
 152      F9F42D06 
 152      FECD81
 153 027a 66980F27 		.ascii	"f\230\017'\361\323\204\237F\374\034\203\371dE\364\340"
 153      F1D3849F 
 153      46FC1C83 
 153      F96445F4 
 153      E0
 154 028b 69D07183 		.ascii	"i\320q\203\333\306!\360i\335\013\255F4\0326Z\357\352"
 154      DBC621F0 
 154      69DD0BAD 
 154      46341A36 
 154      5AEFEA
 155 029e 67AEB99F 		.ascii	"g\256\271\237\003A\000\234\002!\222\257(=B\355|\325"
 155      0341009C 
 155      022192AF 
 155      283D42ED 
 155      7CD5
 156 02b0 F9EAC086 		.ascii	"\371\352\300\206\010\017\220\373|@V\012`\300\036df\012"
 156      080F90FB 
 156      7C40560A 
ARM GAS  C:\Users\info\AppData\Local\Temp\ccA70N4n.s 			page 12


 156      60C01E64 
 156      660A
 157 02c2 903F5219 		.ascii	"\220?R\031\227\306\221\020P\3333\010\222\311\201,\274"
 157      97C69110 
 157      50DB3308 
 157      92C9812C 
 157      BC
 158 02d3 D567D078 		.ascii	"\325g\320x&O\220\315\327Y\024\235M\321\271t\311\341"
 158      264F90CD 
 158      D759149D 
 158      4DD1B974 
 158      C9E1
 159 02e5 E03C0AE6 		.ascii	"\340<\012\346\322x\001\217\363h\374\014\215\027\322"
 159      D278018F 
 159      F368FC0C 
 159      8D17D2
 160 02f4 65110717 		.ascii	"e\021\007\027Sp\011\215\363\201\\R\300\223\027\012\252"
 160      5370098D 
 160      F3815C52 
 160      C093170A 
 160      AA
 161 0305 AE88EF97 		.ascii	"\256\210\357\227\023b\005!V\362\270\230\306\253h\274"
 161      13620521 
 161      56F2B898 
 161      C6AB68BC 
 162 0315 9A4A11E2 		.ascii	"\232J\021\342\016*tG\027\021M\303/9\014\025\255\017"
 162      0E2A7447 
 162      17114DC3 
 162      2F390C15 
 162      AD0F
 163 0327 DB7DAC18 		.ascii	"\333}\254\030\242i?V\266\3658h\253\342\221\011-\350"
 163      A2693F56 
 163      B6F53868 
 163      ABE29109 
 163      2DE8
 164 0339 C811A8B8 		.ascii	"\310\021\250\270W\177}\031A\022\037Kn\335\203\216\316"
 164      577F7D19 
 164      41121F4B 
 164      6EDD838E 
 164      CE
 165 034a 6DDE6A78 		.ascii	"m\336jx\007\255\354\010K\017\264\"\201-x\275\342}\307"
 165      07ADEC08 
 165      4B0FB422 
 165      812D78BD 
 165      E27DC7
 166 035d D22594E5 		.ascii	"\322%\224\345\014T\303\023j\213\2006X\312)i\326=\257"
 166      0C54C313 
 166      6A8B8036 
 166      58CA2969 
 166      D63DAF
 167 0370 AB599B79 		.ascii	"\253Y\233y\326c\257w5\270\325\254\000\037#\344&li\375"
 167      D663AF77 
 167      35B8D5AC 
 167      001F23E4 
 167      266C69FD 
 168 0384 6B879F20 		.ascii	"k\207\237 a\031@DS\323\350\025\307\246\307\3066\303"
 168      61194044 
ARM GAS  C:\Users\info\AppData\Local\Temp\ccA70N4n.s 			page 13


 168      53D3E815 
 168      C7A6C7C6 
 168      36C3
 169 0396 08564A67 		.ascii	"\010VJgT\243#\374,l\022a\351\253\224.\\fx\367\326~P"
 169      54A323FC 
 169      2C6C1261 
 169      E9AB942E 
 169      5C6678F7 
 170 03ad 84207238 		.ascii	"\204 r8\3150h\261Y0*\206`\313\225p\343\233\272B\245"
 170      CD3068B1 
 170      59302A86 
 170      60CB9570 
 170      E39BBA42 
 171 03c2 24D663C3 		.ascii	"$\326c\303r\317\201rZD\223b\324.9\345\375}\305\012\235"
 171      72CF8172 
 171      5A449362 
 171      D42E39E5 
 171      FD7DC50A 
 172 03d7 A6D671AA 		.ascii	"\246\326q\252z{\215\271R\015\332'N\221\306l\233)\255"
 172      7A7B8DB9 
 172      520DDA27 
 172      4E91C66C 
 172      9B29AD
 173 03ea F24918A5 		.ascii	"\362I\030\245\242r\252c\345dLUN\007\227\023\232TN&\246"
 173      A272AA63 
 173      E5644C55 
 173      4E079713 
 173      9A544E26 
 174 03ff 40DAF8A9 		.ascii	"@\332\370\2512Y\306c\035*D67\273u\"rk\247]\021\263\246"
 174      3259C663 
 174      1D2A4436 
 174      37BB7522 
 174      726BA75D 
 175 0416 D3221DCE 		.ascii	"\323\"\035\316s\213\350\025\011\027`)\3470g\236\221"
 175      738BE815 
 175      09176029 
 175      E730679E 
 175      91
 176 0427 28913EB1 		.ascii	"(\221>\261\345n\234\001:\315|\177\337{\374\256\177\351"
 176      E56E9C01 
 176      3ACD7C7F 
 176      DF7BFCAE 
 176      7FE9
 177 0439 512AC703 		.ascii	"Q*\307\003\0279#o\306.\314\210\272w\207\237\212\027"
 177      1739236F 
 177      C62ECC88 
 177      BA77879F 
 177      8A17
 178 044b 3383441E 		.ascii	"3\203D\036\003\254)\250u5\255C\331\344h\323\357P8\273"
 178      03AC29A8 
 178      7535AD43 
 178      D9E468D3 
 178      EF5038BB 
 179 045f 382ED993 		.ascii	"8.\331\223';d\254,\202\243\032{\267\216=\255\022\314"
 179      273B64AC 
 179      2C82A31A 
 179      7BB78E3D 
ARM GAS  C:\Users\info\AppData\Local\Temp\ccA70N4n.s 			page 14


 179      AD12CC
 180 0472 C4882A5F 		.ascii	"\304\210*_\26303\011S\277\365\007\023\223\215\021\\"
 180      B3303309 
 180      53BFF507 
 180      13938D11 
 180      5C
 181 0483 D3B9E883 		.ascii	"\323\271\350\203\326\000-\335\216\330O\022\232\305\234"
 181      D6002DDD 
 181      8ED84F12 
 181      9AC59C
 182 0492 6C6E966E 		.ascii	"ln\226n5\213\243\0327k\260\203\025\020\223Z\345\215"
 182      358BA31A 
 182      376BB083 
 182      1510935A 
 182      E58D
 183 04a4 5259D0CD 		.ascii	"RY\320\315\255\362TJ\037\313\325\360 \342R3\317\232"
 183      ADF2544A 
 183      1FCBD5F0 
 183      20E25233 
 183      CF9A
 184 04b6 9EE43D96 		.ascii	"\236\344=\226\344\227L\311\017xU\206\331\011\0316\323"
 184      E4974CC9 
 184      0F785586 
 184      D9091936 
 184      D3
 185 04c7 51570D82 		.ascii	"QW\015\202\265\2365I\353\035\370t\031\351\335\313\351"
 185      B59E3549 
 185      EB1DF874 
 185      19E9DDCB 
 185      E9
 186 04d8 687FC3A7 		.ascii	"h\177\303\247\230\356&d\251\\s'\255\337\037%\030\364"
 186      98EE2664 
 186      A95C7327 
 186      ADDF1F25 
 186      18F4
 187 04ea A9F59367 		.ascii	"\251\365\223g\260d\234\224\267Q@\371n\261\"\347\360"
 187      B0649C94 
 187      B75140F9 
 187      6EB122E7 
 187      F0
 188 04fb 93B9E345 		.ascii	"\223\271\343E\313Q\233\250\345\317\261M\024\3335c\210"
 188      CB519BA8 
 188      E5CFB14D 
 188      14DB3563 
 188      88
 189 050c C26CB6DA 		.ascii	"\302l\266\332\223!\224\326\376\350d6\212\353\020#6\311"
 189      932194D6 
 189      FEE86436 
 189      8AEB1023 
 189      36C9
 190 051e 9E7CD460 		.ascii	"\236|\324`\0124oz\002\365[\002\015\230\002\015i*C\356"
 190      0A346F7A 
 190      02F55B02 
 190      0D98020D 
 190      692A43EE 
 191 0532 4481F698 		.ascii	"D\201\366\230\002\315K*\220\207\004\272l\011\364/K\240"
 191      02CD4B2A 
ARM GAS  C:\Users\info\AppData\Local\Temp\ccA70N4n.s 			page 15


 191      908704BA 
 191      6C09F42F 
 191      4BA0
 192 0544 C9ED4579 		.ascii	"\311\355Eyl\210\371w\242<\250C.\026\032\227\347r\265"
 192      6C88F977 
 192      A23CA843 
 192      2E161A97 
 192      E772B5
 193 0557 D9A905F8 		.ascii	"\331\251\005\370l\3341\303\012-`[9'\330J*\237<\211\371"
 193      6CDC31C3 
 193      0A2D605B 
 193      3927D84A 
 193      2A9F3C89 
 194 056c 246F7A32 		.ascii	"$oz2\014Z2|6\301'\317L\345\223\274\251}r\305\222\341"
 194      0C5A327C 
 194      36C127CF 
 194      4CE593BC 
 194      A97D72C5 
 195 0582 6AA24F16 		.ascii	"j\242O\026N\345\223\317\023\205\2208)\237O\343}\262"
 195      4EE593CF 
 195      13859038 
 195      299F4FE3 
 195      7DB2
 196 0594 889F2C1C 		.ascii	"\210\237,\034\257\302\"Uo4\342Q\240\305\323\253\367"
 196      AFC22255 
 196      6F34E251 
 196      A0C5D3AB 
 196      F7
 197 05a5 9A55EF7F 		.ascii	"\232U\357\177b\365\206T\206%\023\353m1\353]\234\264"
 197      62F58654 
 197      862513EB 
 197      6D31EB5D 
 197      9CB4
 198 05b7 DE5F50BD 		.ascii	"\336_P\275_X\365\016q\275{\215K\016\225\256 Y\311v\004"
 198      5F58F50E 
 198      71BD7B8D 
 198      4B0E95AE 
 198      2059C976 
 199 05cc 0EAB92B9 		.ascii	"\016\253\222\271\256%\252\360|*9V^#\225W@\206\307\252"
 199      AE25AAF0 
 199      7C2A3956 
 199      5E239557 
 199      4086C7AA 
 200 05e0 73F4D166 		.ascii	"s\364\321f\364\373\002GmK\026v\335%\366w\010\211\217"
 200      F4FB0247 
 200      6D4B1676 
 200      DD25F677 
 200      08898F
 201 05f3 52C3B228 		.ascii	"R\303\262(\275v\240<,m\251x\316\331\203\200O3\005\376"
 201      BD76A03C 
 201      2C6DA978 
 201      CED98380 
 201      4F3305FE 
 202 0607 E006658A 		.ascii	"\340\006e\212&\312b\343\263fW\247O-\251p\322\222\202"
 202      26CA62E3 
 202      B36657A7 
 202      4F2DA970 
ARM GAS  C:\Users\info\AppData\Local\Temp\ccA70N4n.s 			page 16


 202      D29282
 203 061a 513C9F04 		.ascii	"Q<\237\004|\031;mR\342\2538F\374B\332\214\237\205\353"
 203      7C193B6D 
 203      52E2AB38 
 203      46FC42DA 
 203      8C9F85EB 
 204 062e AAB2AC04 		.ascii	"\252\262\254\004}#\007\266x\325\231wI\300\365\330\346"
 204      7D2307B6 
 204      78D59977 
 204      49C0F5D8 
 204      E6
 205 063f B48565AA 		.ascii	"\264\205e\252\013\250\034gW\343+\270\030\267h\223\352"
 205      0BA81C67 
 205      57E32BB8 
 205      18B76893 
 205      EA
 206 0650 153772E4 		.ascii	"\0257r\3449E_\215+b?\223\201=\002\377=\221\234\277\261"
 206      39455F8D 
 206      2B623F93 
 206      813D02FF 
 206      3D919CBF 
 207 0665 EA692BFF 		.ascii	"\352i+\377\340\011\243\031T\376>\0017\342\257L/\227"
 207      E009A319 
 207      54FE3E01 
 207      37E2AF4C 
 207      2F97
 208 0677 CEF8E690 		.ascii	"\316\370\346\220\005?;TWk\302{\005\214\304\341>q\270"
 208      053F3B54 
 208      576BC27B 
 208      058CC4E1 
 208      3E71B8
 209 068a 48A1DF95 		.ascii	"H\241\337\225\026\372|\335[\327\314\305\367\013\370"
 209      16FA7CDD 
 209      5BD7CCC5 
 209      F70BF8
 210 0699 2A8EF68B 		.ascii	"*\216\366\213#9j\261\3355?U\360\225\261\305\306\024"
 210      23396AB1 
 210      DD353F55 
 210      F095B1C5 
 210      C614
 211 06ab 61455792 		.ascii	"aEW\222\"=\341o\253\314\267M\001\205T\216\200\250J\341"
 211      223DE16F 
 211      ABCCB74D 
 211      0185548E 
 211      80A84AE1 
 212 06bf 974B63A7 		.ascii	"\227Kc\2477F\340w&=\014\322\004\011\235\261+\373v\017"
 212      3746E077 
 212      263D0CD2 
 212      04099DB1 
 212      2BFB760F 
 213 06d3 9BDBB578 		.ascii	"\233\333\265xz\366\275i\331\367\353\330\251e\226\267"
 213      7AF6BD69 
 213      D9F7EBD8 
 213      A96596B7 
 214 06e3 6AA27DDF 		.ascii	"j\242}\3371\355[\234\324\276\001\262\3577\226}\277\375"
 214      31ED5B9C 
 214      D4BE01B2 
ARM GAS  C:\Users\info\AppData\Local\Temp\ccA70N4n.s 			page 17


 214      EF37967D 
 214      BFFD
 215 06f5 3FA71639 		.ascii	"?\247\0269w4\301\271\253\260\006\323\270\330}\274]\351"
 215      7734C1B9 
 215      ABB006D3 
 215      B8D87DBC 
 215      5DE9
 216 0707 DFD7574E 		.ascii	"\337\327WN\365\006N\365\375\006+N\021\337\347\252\006"
 216      F5064EF5 
 216      FD062B4E 
 216      11DFE7AA 
 216      06
 217 0718 FC98D8DE 		.ascii	"\374\230\330\336\232\375\235\247\035\252\003\237\012"
 217      9AFD9DA7 
 217      1DAA039F 
 217      0A
 218 0725 B815EF40 		.ascii	"\270\025\357@\252\350zjr\277\206\016\375\245\312\245"
 218      AAE87A6A 
 218      72BF860E 
 218      FDA5CAA5 
 219 0735 D003026E 		.ascii	"\320\003\002n\307\321i\342F\212B\037\334ev\202\376\017"
 219      C7D169E2 
 219      468A421F 
 219      DC657682 
 219      FE0F
 220 0747 AC1B6D7A 		.ascii	"\254\033mz\350Sp\001\377\215\243Cb\314\311\235\351\263"
 220      E8537001 
 220      FF8DA343 
 220      62CCC99D 
 220      E9B3
 221 0759 3AC35B0C 		.ascii	":\303[\014\237\245S\246\204\306\350\346\031\374\236"
 221      9FA553A6 
 221      84C6E8E6 
 221      19FC9E
 222 0768 6983220C 		.ascii	"i\203\"\014\221\353\303g{\244\372Y\026\005\2703\321"
 222      91EBC367 
 222      7BA4FA59 
 222      1605B833 
 222      D1
 223 0779 1645EA87 		.ascii	"\026E\352\207\321@\254\235\313\247\327\316\210\325\316"
 223      D140AC9D 
 223      CBA7D7CE 
 223      88D5CE
 224 0788 B109ED5C 		.ascii	"\261\011\355\\1U;\227O\335\316\273V;\357M\243\235\337"
 224      31553B97 
 224      4FDDCEBB 
 224      563BEF4D 
 224      A39DDF
 225 079b 25B47305 		.ascii	"%\264s\005W\032k'\311\231\206\307JAh\337\000\3652\203"
 225      571A6B27 
 225      C99986C7 
 225      4A4168DF 
 225      00F53283 
 226 07af 5E36DF90 		.ascii	"^6\337\220Ha\351\340\355\216\025\255vw\365\276F\015"
 226      4861E9E0 
 226      ED8E15AD 
 226      7677F5BE 
ARM GAS  C:\Users\info\AppData\Local\Temp\ccA70N4n.s 			page 18


 226      460D
 227 07c1 F78C0EAC 		.ascii	"\367\214\016\254\303\337\375\200 \374\351\222\235\237"
 227      C3DFFD80 
 227      20FCE992 
 227      9D9F
 228 07cf FF       		.ascii	"\377"
 229 07d0 E2C6E2B5 		.ascii	"\342\306\342\265\205kJ\3126\224\340\335k\305k~[ZV\366"
 229      856B4ACA 
 229      3694E0DD 
 229      6BC56B7E 
 229      5B5A56F6 
 230 07e4 D2DAD2FC 		.ascii	"\322\332\322\374\022a\243\261^\376r\371+\245\313\324"
 230      1261A3B1 
 230      5EFE72F9 
 230      2BA5CBD4 
 231 07f4 57A1FA2A 		.ascii	"W\241\372*r\374zcy\371\253\353\313\354\245\277/]_\356"
 231      72FC7A63 
 231      79F9ABEB 
 231      CBECA5BF 
 231      2F5D5FEE 
 232 0808 56A33525 		.ascii	"V\2435%\353\313\365\222\215\033\312^\335\000\177\320"
 232      EBCBF592 
 232      8D1BCA5E 
 232      DD007FD0 
 233 0818 D795BEBC 		.ascii	"\327\225\276\274v]\371\377\000'N\031\375"
 233      765DF9FF 
 233      00274E19 
 233      FD
 234              		.text
 235              		.section	.gnu.lto_.symbol_nodes.792a67f1,"",%progbits
 236 0000 789C55CF 		.ascii	"x\234U\317\275\016\001Q\020\005\3403;\367\356O\274\201"
 236      BD0E0151 
 236      1005E033 
 236      3BF7EE4F 
 236      BC81
 237 0012 062DA507 		.ascii	"\006-\245\007\234-$\012\011*^`+\357\240\221[+V#Q`CD"
 237      9C2D240A 
 237      092A5E60 
 237      2BEFA091 
 237      5B2B5623 
 238 002a 22E101FC 		.ascii	"\"\341\001\374\335\331B\334\352\234\357$S\214\001\241"
 238      DDD942DC 
 238      EA9CEF24 
 238      538C01A1 
 239 003a 4B002208 		.ascii	"K\000\"\0100]Cc\221w\374@B\301@V\242z\000\362\274\355"
 239      305D4363 
 239      9177FC40 
 239      42C14056 
 239      A27A00F2 
 240 0050 CDC2818D 		.ascii	"\315\302\201\215\230\300\221\330\300\231\304\201\023"
 240      98C091D8 
 240      C099C481 
 240      13
 241 005d 4902A792 		.ascii	"I\002\247\222\006\216%\3737\303\2428\274\211}+^\367"
 241      068E25FB 
 241      37C3A238 
 241      BC897D2B 
ARM GAS  C:\Users\info\AppData\Local\Temp\ccA70N4n.s 			page 19


 241      5EF7
 242 006f 1EC3C0D5 		.ascii	"\036\303\300\325\351]~\226\226\375\023\356W6Z\310bp"
 242      E95D7E96 
 242      96FD13EE 
 242      57365AC8 
 242      6270
 243 0081 F4279AC3 		.ascii	"\364'\232\303[\213)\203\033k&(&\232)N\345\263\251v3"
 243      5B8B2983 
 243      1B6B2628 
 243      269A294E 
 243      E5B3A976 
 244 0096 3550CD35 		.ascii	"5P\3155c\014v\347\253\255\207\352\261\357kY]\266\243"
 244      630C76E7 
 244      ABAD87EA 
 244      B1EF6B59 
 244      5DB6A3
 245 00a9 06BEFB36 		.ascii	"\006\276\3736M!"
 245      4D21
 246              		.text
 247              		.section	.gnu.lto_.refs.792a67f1,"",%progbits
 248 0000 789C6361 		.ascii	"x\234ca`\004B \000\000\0009\000\007"
 248      60044220 
 248      00000039 
 248      0007
 249              		.text
 250              		.section	.gnu.lto_.decls.792a67f1,"",%progbits
 251 0000 789CBD59 		.ascii	"x\234\275YkT\024G\026\236\352\032`\030\006\215\210\211"
 251      6B541447 
 251      169EEA1A 
 251      6018068D 
 251      8889
 252 0012 BBCBD975 		.ascii	"\273\313\331u\023\217\262\217\020\037\331\034\316\376"
 252      138FB28F 
 252      101FD91C 
 252      CEFE
 253 0020 DA3DC9E6 		.ascii	"\332=\311\346\261'\311\217\315\232_\344\314\016C\203"
 253      B127C98F 
 253      CD9A5FE4 
 253      CC0E4383 
 254 0030 13616632 		.ascii	"\023af2\323\370H\316&\315#\352j\202`\024\005\223\000"
 254      D3F848CE 
 254      26CD23EA 
 254      6A826014 
 254      059300
 255 0043 8A4F4011 		.ascii	"\212O@\021\010\212\210L \342\013\025\020P\024\005\361"
 255      088A884C 
 255      20E20B15 
 255      10501405 
 255      F1
 256 0054 45501051 		.ascii	"EP\020Q!\200\302\336\252\352\236\356\301&\273?6\333"
 256      2180C2DE 
 256      AAEA9EEE 
 256      C126BB3F 
 256      36DB
 257 0066 7AE9BEB7 		.ascii	"z\351\276\267\276\272\367\273\267\036]4z\035\322\221"
 257      BEBAF7BB 
 257      B71E5D34 
ARM GAS  C:\Users\info\AppData\Local\Temp\ccA70N4n.s 			page 20


 257      7A1DD291 
 258 0076 EB6FBFD0 		.ascii	"\353o\277\320\351\272\365:]\024\250\343pa\260\275\253"
 258      E9BAF53A 
 258      5D14A8E3 
 258      7061B0BD 
 258      AB
 259 0087 532E23C8 		.ascii	"S.#\310\333\320\366.\310{ \321 q K@\034 \037\200\270"
 259      DBD0F62E 
 259      C87B20D1 
 259      2071204B 
 259      401C201F 
 260 009d 419621DD 		.ascii	"A\226!\335\023\027\3517\015\356\225 ! \241 \277\005"
 260      1317E937 
 260      0DEE9520 
 260      2120A120 
 260      BF05
 261 00af 5B09DCC3 		.ascii	"[\011\334\303@\226\303\363\373 +@, \037\202\304\202"
 261      4096C3F3 
 261      FB202B40 
 261      2C201F82 
 261      C482
 262 00c1 FC0EE423 		.ascii	"\374\016\344#\3048\375\023\344c\020\342\376%\370\341"
 262      C438FD13 
 262      E46310E2 
 262      FE25F8E1 
 263 00d1 27F95DA2 		.ascii	"'\371]\242\342\362\236Fl\3027\344Gb?'\305\2219<\013"
 263      E2F29E46 
 263      6CC237E4 
 263      47623F27 
 263      C591393C 
 264 00e6 D20EF64F 		.ascii	"\322\016\366O\340\276\024D\004y\013$\011\304\016\242"
 264      E0BE1444 
 264      04790B24 
 264      09C40EA2 
 265 00f6 97E2BF01 		.ascii	"\227\342\277\001\022\004\022\006\022 \305Y\"\345/\327"
 265      12041206 
 265      1220C559 
 265      22E52FD7 
 266 0106 E26DA936 		.ascii	"\342m\2516\023\257\307\034J\351\352\3115\\Bm\010\351"
 266      13AFC71C 
 266      4AE9EAC9 
 266      355C426D 
 266      08E9
 267 0118 10BD74D2 		.ascii	"\020\275t\3228\350\210E\272\223\007\304\024\216\376"
 267      38E88845 
 267      BA9307C4 
 267      148EFE
 268 0127 D4C928AF 		.ascii	"\324\311(\257SD\377\301\177\216\342\221\252\301\007"
 268      5344FFC1 
 268      7F8EE291 
 268      AAC107
 269 0136 47C7945E 		.ascii	"G\307\224^\212\011y/\031\211|\235\022\257\212\012:\247"
 269      8A09792F 
 269      19897C9D 
 269      12AF8A0A 
 269      3AA7
 270 0148 7450F993 		.ascii	"tP\371\223\330K\361\221:,u\215\345\244o\014|\232\201"
ARM GAS  C:\Users\info\AppData\Local\Temp\ccA70N4n.s 			page 21


 270      D84BF191 
 270      3A2C758D 
 270      E5A46F0C 
 270      7C9A81
 271 015b 31F884E7 		.ascii	"1\370\204\347\216\341]\257F\024\212p\245\213\"\027\251"
 271      8EE15DAF 
 271      46148A70 
 271      A58B2217 
 271      A9
 272 016c 54A631B5 		.ascii	"T\2461\265\370K\374\200C!F\244\007\365\336\351\354k"
 272      F84BFC80 
 272      432146A4 
 272      07F5DEE9 
 272      EC6B
 273 017e 53400D35 		.ascii	"S@\0155\242Y\240\266\374P5b\302\277&.\364\245\311\035"
 273      A259A0B6 
 273      FC503562 
 273      C2BF262E 
 273      F4A5C91D 
 274 0192 79535078 		.ascii	"ySPx\030B\360\337\270C\366\245C\305\310\210\012\021"
 274      1842F0DF 
 274      B843F6A5 
 274      43C5C888 
 274      0A11
 275 01a4 9649648B 		.ascii	"\226Id\213\253E\261\377\023b\206g\003\275\203%Y\354"
 275      AB45B1FF 
 275      13628667 
 275      03BD8325 
 275      59EC
 276 01b6 DF2AFACF 		.ascii	"\337*\372\317\324\241\205ah^\230\016\025\241p\332\244"
 276      D4A18561 
 276      685E980E 
 276      15A170DA 
 276      A4
 277 01c7 43FBC0E1 		.ascii	"C\373\300\341^\024F\330\\<V\237\352o\224\320\351\377"
 277      5E1446D8 
 277      5C3C569F 
 277      EA6F94D0 
 277      E9FF
 278 01d9 097DA427 		.ascii	"\011}\244'\177\263\336\264\206\240\323S\304\220\327"
 278      7FB3DEB4 
 278      86A0D353 
 278      C490D7
 279 01e8 D17E6052 		.ascii	"\321~`R\000\355{\240]\207J\220IJ2\265'ce\200\236c6\024"
 279      00ED7BA0 
 279      5D874A90 
 279      494A32B5 
 279      27636580 
 280 0200 AD27B67D 		.ascii	"\255'\266}\237^\337m\200L\303\214h\034\021\375N\305"
 280      9F5EDF6D 
 280      804CC38C 
 280      681C11FD 
 280      4EC5
 281 0212 7030D349 		.ascii	"p0\323Is\231\347~\221\036\317!\317\\ci\333\321@\024"
 281      7399E77E 
 281      911ECF21 
 281      CF5C6369 
ARM GAS  C:\Users\info\AppData\Local\Temp\ccA70N4n.s 			page 22


 281      DBD14014 
 282 0226 CE72EE6C 		.ascii	"\316r\356l|\370\347\024QD\350 \004+G\030\355F\021\244"
 282      7CF8E714 
 282      5144E820 
 282      042B4718 
 282      ED4611A4 
 283 023a F46164C9 		.ascii	"\364ad\311j\344y\000\230\203O\202B\337\000\2672\306"
 283      6AE47900 
 283      98834F82 
 283      42DF00B7 
 283      32C6
 284 024c 7D77CEAE 		.ascii	"}w\316\256\357\202q)\242\001z7\334^\215\275\001\206"
 284      EF827129 
 284      A2017A37 
 284      DC5E8DBD 
 284      0186
 285 025e D6861588 		.ascii	"\326\206\025\210\342S\250\022\002T(\001\016\242I\"\034"
 285      E253A812 
 285      02542801 
 285      0EA24922 
 285      1C
 286 026f D28ED059 		.ascii	"\322\216\320Y\336\330\246\247I\023G\245\210f}d\337\215"
 286      DED8A6A7 
 286      491347A5 
 286      88667D64 
 286      DF8D
 287 0281 34CE6B3C 		.ascii	"4\316k<\314\214\271\031+\323M^c\0253n\271\177\371\373"
 287      CC8CB919 
 287      2BD34D5E 
 287      6315336E 
 287      B97FF9FB 
 288 0295 403631C2 		.ascii	"@61\302A\355K\275\321\031\304&\306LP\305\356\324\034"
 288      41ED4BBD 
 288      D119C426 
 288      C64C50C5 
 288      EED41C
 289 02a8 0E97B0C9 		.ascii	"\016\227\260\311\325\324_\377\225\324\366\024\250\325"
 289      D5D45FFF 
 289      95D4F614 
 289      A8D5
 290 02b6 DD19D506 		.ascii	"\335\031\325\006\374-kk\330\331{~\012ncJwnu\211\201"
 290      FC2D6B6B 
 290      D8D97B7E 
 290      0A6E634A 
 290      776E7589 
 291 02cb CC36A2EC 		.ascii	"\3146\242\354\272\371e\232\211\365\212T\315\274\020"
 291      BAF9659A 
 291      89F58A54 
 291      CDBC10
 292 02da 36F3367A 		.ascii	"6\3636z\326?2b\021Sh\345\201\303u~\014:\017\324\023"
 292      D63F3262 
 292      115368E5 
 292      81C3757E 
 292      0C3A0FD4 
 293 02ef 155DF3F0 		.ascii	"\025]\363\360Z\326$\323\014e4\007O5_\3068\233\265\255"
 293      5AD624D3 
 293      0C653407 
ARM GAS  C:\Users\info\AppData\Local\Temp\ccA70N4n.s 			page 23


 293      4F355FC6 
 293      389BB5AD 
 294 0303 ABA9AA35 		.ascii	"\253\251\2525\340\035L\251k\277\330\242\307%LI\252\252"
 294      E01D4CA9 
 294      6BBFD8A2 
 294      C7254C49 
 294      AAAA
 295 0315 2D0DC6C7 		.ascii	"-\015\306\307\230rt|\3103\225E\346@}\\ZZ\213p\003k\333"
 295      9872747C 
 295      C8339545 
 295      E6407D5C 
 295      5A5A8B70 
 296 032c 3E32DA4F 		.ascii	">2\332O\010\317\201Y2\216U\323d\016\233&\325\247N\354"
 296      08CF8159 
 296      328E55D3 
 296      640E9B26 
 296      D5A74EEC 
 297 0340 30E1360A 		.ascii	"0\3416\012\346\232j6?\016B\306p:Fb\212h\014\327\241"
 297      E69A6A36 
 297      3F0E42C6 
 297      703A4662 
 297      8A680CD7 
 298 0355 1A189006 		.ascii	"\032\030\220\006\030\020\324\012\2434G\032\245s`l\002"
 298      1810D40A 
 298      A334471A 
 298      A573606C 
 298      02
 299 0366 A334A17A 		.ascii	"\2434\241z\377J'T\013\024\277Y\031\3579F6y\217d\\\272"
 299      FF4A2754 
 299      0B14BF59 
 299      19EF3946 
 299      36798F64 
 300 037c 69C4D759 		.ascii	"i\304\327Y\210\374kb\245~\262\020m\223\206\030Z;\247"
 300      88FC6B62 
 300      A57EB210 
 300      6D938618 
 300      5A3BA7
 301 038f 904CA90B 		.ascii	"\220L\251\013\020\342\274\022\242\005I1\344\321\015"
 301      10E2BC12 
 301      A2054931 
 301      E4D10D
 302 039e 61A37B73 		.ascii	"a\243{s\315\356{&\334\313J\360UKWz\240\326\232\234d"
 302      CDEE7B26 
 302      DCCB4AF0 
 302      554B577A 
 302      A0D69A9C 
 303 03b3 DE651F5D 		.ascii	"\336e\037]]\343\247^\225\355>\253\362\262jUn\353Ex\200"
 303      5DE3A75E 
 303      95ED3EAB 
 303      F2B26A55 
 303      6EEB4578 
 304 03c8 45B97C7C 		.ascii	"E\271||w\001)\364\\R\350\361\361\251\252R\317e\245n"
 304      770129F4 
 304      5C52E8F1 
 304      F1A9AA52 
 304      CF65A56E 
 305 03dc 5A37901F 		.ascii	"Z7\220\037\200\037\261:\024d\334nR-\311\355\246\012"
ARM GAS  C:\Users\info\AppData\Local\Temp\ccA70N4n.s 			page 24


 305      801FB13A 
 305      1464DC6E 
 305      522DC9ED 
 305      A60A
 306 03ee 92DE3588 		.ascii	"\222\3365\210tUIo\256w\301P\":/\013\324\005\324\347"
 306      7455496F 
 306      AE77C150 
 306      223A2F0B 
 306      D405D4E7 
 307 0402 4AD43BC1 		.ascii	"J\324;\301\330!-\312\374\214\255\376x\225\236\206\330"
 307      D8212DCA 
 307      FC8CADFE 
 307      78959E86 
 307      D8
 308 0413 B3F76C5D 		.ascii	"\263\367l]\200\\\352\211\016nj8\220K\375\"-\365\015"
 308      805CEA89 
 308      0E6E6A38 
 308      904BFD22 
 308      2DF50D
 309 0426 E0725DE1 		.ascii	"\340r]\341rM.\265\274XB\330b\351\332?t\307\200\323i"
 309      724D2EB5 
 309      BC5842D8 
 309      62E9DA3F 
 309      74C780D3 
 310 043b 48B4B770 		.ascii	"H\264\267p\264\330H\027\342\"y\233\272\264r\347\251"
 310      B4D84817 
 310      E222799B 
 310      BAB472E7 
 310      A9
 311 044c 20EFDAFC 		.ascii	" \357\332\374\236\255\315\226\013WZ\002\275\306\036"
 311      9EADCD96 
 311      0B575A02 
 311      BDC61E
 312 045b 665C357E 		.ascii	"f\\5~\371;\003\336\312<\245\356\374|K0\336\313\224\354"
 312      F93B03DE 
 312      CA3CA5EE 
 312      FC7C4B30 
 312      DECB94EC 
 313 046f CA0727FD 		.ascii	"\312\007'\375XH\003\250iY\003\225\001\270\234\265\235"
 313      584803A8 
 313      69590395 
 313      01B89CB5 
 313      9D
 314 0480 F3E46E09 		.ascii	"\363\344n\011\304UL\271V6\224\037\214\2173\345\352\335"
 314      C4554CB9 
 314      5636941F 
 314      8C8F33E5 
 314      EADD
 315 0492 AAAC006F 		.ascii	"\252\254\000o\020\306\346\233\246\234\216\000\334\300"
 315      10C6E69B 
 315      A69C8E00 
 315      DCC0
 316 04a0 00236747 		.ascii	"\000#gG\017!|\231)\237\235+_\210{\330sa\313\205\307"
 316      0F217C99 
 316      299F9D2B 
 316      5F887BD8 
 316      7361CB85 
ARM GAS  C:\Users\info\AppData\Local\Temp\ccA70N4n.s 			page 25


 317 04b5 080F32E5 		.ascii	"\010\0172\345\364X\377\021\214W\373Q\245\250s\3459?"
 317      F458FF11 
 317      8C57FB51 
 317      A5A873E5 
 317      393F
 318 04c7 9CC5941D 		.ascii	"\234\305\224\035\217\362\312Lx;S\352\206\252\266\371"
 318      8FF2CA4C 
 318      783B53EA 
 318      86AAB6F9 
 319 04d7 E162A6AC 		.ascii	"\341b\246\254Y\273'o\012>\312\224O?+8\214\361\005\246"
 319      59BB276F 
 319      0A3ECA94 
 319      4F3F2B38 
 319      8CF105A6 
 320 04eb 3474943C 		.ascii	"4t\224<\364\307\275L\351\270\222\361>\036d\317\267\233"
 320      F4C7BD4C 
 320      E9B892F1 
 320      3E1E64CF 
 320      B79B
 321 04fd 9B32FC70 		.ascii	"\2332\374p\212?U\036\227\254\252\324\343L\246\334:>"
 321      8A3F551E 
 321      97ACAAD4 
 321      E34CA6DC 
 321      3A3E
 322 050f FC2008EF 		.ascii	"\374 \010\357b\312HM2l\251\225L)\257\031\256\367\303"
 322      62CA484D 
 322      326CA995 
 322      4C29AF19 
 322      AEF7C3
 323 0522 0D4CE94B 		.ascii	"\015L\351K.\310G\370{\2464l\354\315\344pr\000U\036\215"
 323      2EC847F8 
 323      7BA6346C 
 323      ECCDE470 
 323      7200551E 
 324 0537 7E91E487 		.ascii	"~\221\344\20772\245\272\275\2730\010\357dJ\361\341\324"
 324      3732A5BA 
 324      BDBB3008 
 324      EF644AF1 
 324      E1D4
 325 0549 5EE96DE9 		.ascii	"^\351m\351!\357\220]\237\367\327\032\261\2076\316\350"
 325      21EF905D 
 325      9FF7D71A 
 325      B18736CE 
 325      E8
 326 055a 2FD8DCEC 		.ascii	"/\330\334\354\217fO\270\302g\317\236>{+\231R\235\225"
 326      8F664FB8 
 326      C267CF9E 
 326      3E7B2B99 
 326      529D95
 327 056d 63CEAAF2 		.ascii	"c\316\252\362vQ\\i\242\025\0269\214\276\342\246\313"
 327      76515C69 
 327      A2151639 
 327      8CBEE2A6 
 327      CB
 328 057e ABEB05B2 		.ascii	"\253\353\005\262XN\220%\243\243p\317\341\246 \261\370"
 328      584E9025 
 328      A3A370CF 
ARM GAS  C:\Users\info\AppData\Local\Temp\ccA70N4n.s 			page 26


 328      E1A620B1 
 328      F8
 329 058f 1F14FA03 		.ascii	"\037\024\372\003\362\201\336\242\013k\241\002\275\277"
 329      F281DEA2 
 329      0B6BA102 
 329      BDBF
 330 059d 7ECA66D1 		.ascii	"~\312f\321\223\214\351z\177(\201\275\333\004\203\027"
 330      938CE97A 
 330      7F2881BD 
 330      DB048317 
 331 05ad A85C679D 		.ascii	"\250\\g\235\015\336$z\2220u\236\252\301\243F\005n>\353"
 331      0DDE247A 
 331      9230759E 
 331      AAC1A346 
 331      056E3EEB 
 332 05c1 E5318E9E 		.ascii	"\3451\216\236\204\326\251\240\033\024\350\247\032^U"
 332      84D6A9A0 
 332      1B14E8A7 
 332      1A5E55
 333 05d0 8C9B94E4 		.ascii	"\214\233\224\344\006\265\222\363\250\274\256W\274\256"
 333      06B592F3 
 333      A8BCAE57 
 333      BCAE
 334 05de D4F03A5F 		.ascii	"\324\360:_Af+\310\024\015\244\332\351\227\0124Y\003"
 334      41662BC8 
 334      140DA4DA 
 334      E9970A34 
 334      5903
 335 05f0 AAAE56B1 		.ascii	"\252\256V\261\302u\324\227k\037\2328h\015\012vH+/ua"
 335      C275D497 
 335      6B1F9A38 
 335      680D0A76 
 335      482B2F75 
 336 0605 3728D847 		.ascii	"7(\330GZ~O\251\260c\012\335\307ZX5\3372\305\357\210"
 336      5A7E4FA9 
 336      B0630ADD 
 336      C75A5835 
 336      DF32C5EF 
 337 061a 16563D62 		.ascii	"\026V=b\017\3253\347_\234\346\314a\371\321\335\3163"
 337      0FD533E7 
 337      5F9CE6CC 
 337      61F9D1DD 
 337      CE33
 338 062c 9A6612E1 		.ascii	"\232f\022\341\214\007(\235\264\323\351\274\276r\324"
 338      8C07289D 
 338      B4D3E9BC 
 338      BE72D4
 339 063b B32A49A3 		.ascii	"\263*I\243\250\352\204\016)$\207\265\012EG5C:t\212\260"
 339      A8EA840E 
 339      292487B5 
 339      0A454735 
 339      433A748A 
 340 0650 E3A1D55C 		.ascii	"\343\241\325\\\030\272HX\255\222\\C|\224\315\205\243"
 340      18BA4858 
 340      AD925C43 
 340      7C94CD85 
 340      A3
ARM GAS  C:\Users\info\AppData\Local\Temp\ccA70N4n.s 			page 27


 341 0661 0C6E365A 		.ascii	"\014n6Z\007\3629\310z\220/@\266\200\254\001I\003\371"
 341      07F239C8 
 341      7A902F40 
 341      B680AC01 
 341      4903F9
 342 0674 1A641348 		.ascii	"\032d\023H&\310\006\220\315 _\202\254\005\331\010\222"
 342      26C80690 
 342      CD205F82 
 342      AC05D908 
 342      92
 343 0685 0EF21948 		.ascii	"\016\362\031H\0267[\225\315\245uS\262DO*\246\033\373"
 343      16375B95 
 343      CDA57553 
 343      B2444F2A 
 343      A61BFB
 344 0698 9844D1FB 		.ascii	"\230D\321\373>\350SH\302>\320\266nK\326T\334E\367\001"
 344      3EE85348 
 344      C23ED0B6 
 344      6E4BD654 
 344      DC45F701 
 345 06ac EEE1E735 		.ascii	"\356\341\3475/\241\351\341\332\334\363\200\357O\311"
 345      2FA1E9E1 
 345      DADCF380 
 345      EF4FC9
 346 06bb 9D8D52D6 		.ascii	"\235\215R\326\231\337\223Q\312\205@pj\223_Id\320(\335"
 346      99DF9351 
 346      CA854070 
 346      6A935F49 
 346      64D028DD 
 347 06cf B2AE1D77 		.ascii	"\262\256\035w\003\246K\004=\223\022\324\375\317\331"
 347      03A64B04 
 347      3D9312D4 
 347      FDCFD9
 348 06de 91FDB435 		.ascii	"\221\375\2645uU\220\372\264\260UUV\035\332\306\311\247"
 348      755590FA 
 348      B4B05555 
 348      561DDAC6 
 348      C9A7
 349 06f0 85A1A25B 		.ascii	"\205\241\242[\355~x0\300\347@\030\302\016\204eU\367"
 349      ED7E7830 
 349      C0E74018 
 349      C20E8465 
 349      55F7
 350 0702 B64B8740 		.ascii	"\266K\207@\221\034\322\272ol\2513\342d\003\333\261\317"
 350      911CD2BA 
 350      6F6CA933 
 350      E26403DB 
 350      B1CF
 351 0714 EDAB9F8A 		.ascii	"\355\253\237\2123\251\362\334\2455\325I\010\351M\323"
 351      33A9F2DC 
 351      A535D549 
 351      08E94DD3 
 352 0724 6117F6B9 		.ascii	"a\027\366\271L\246\231\372p\351!|vx8y\357\355\341Lh"
 352      4CA699FA 
 352      70E9217C 
 352      76783879 
 352      EFEDE14C 
ARM GAS  C:\Users\info\AppData\Local\Temp\ccA70N4n.s 			page 28


 353 0739 00AAA162 		.ascii	"\000\252\241bW\340\303n\017c\3473\264;\240r\3339\250"
 353      57E0C36E 
 353      0F63E733 
 353      B43BA072 
 353      DB39A8
 354 074c DC29A85C 		.ascii	"\334)\250\\\2214\264'\341\371\004$\376\035H-H\015\310"
 354      9134B427 
 354      E1F90424 
 354      FE1D482D 
 354      480DC8
 355 075f B7209520 		.ascii	"\267 \225 \207@*@\016\202\034\000)\007\371\006\244\014"
 355      87402A40 
 355      0E821C00 
 355      2907F906 
 355      A40C
 356 0771 A414A404 		.ascii	"\244\024\244\004d?H1\310>\220\275 \205>Ss\264U\265\320"
 356      643F4831 
 356      C83E90BD 
 356      20853E53 
 356      73B455B5 
 357 0786 76C20017 		.ascii	"v\302\000\027)\253\247Z\265\035h\363\314\227:\374\364"
 357      29ABA75A 
 357      B51D68F3 
 357      CC973AFC 
 357      F4
 358 0797 3C7F68F5 		.ascii	"<\177h\365\256\361o\221\006K\365~<\250`k\265\260\352"
 358      AEF16F91 
 358      064BF57E 
 358      3CA8606B 
 358      B5B0EA
 359 07aa 8DF38182 		.ascii	"\215\363\201\202\375N\013\253z\317\014(\320\243ZP\325"
 359      FD4E0BAB 
 359      7ACF0C28 
 359      D0A35A50 
 359      D5
 360 07bb CBA35F81 		.ascii	"\313\243_\201\036\367\205\036{b\333\274\242`Oja\325"
 360      1EF7851E 
 360      7B62DBBC 
 360      A2604F6A 
 360      61D5
 361 07cd AF8476   		.ascii	"\257\204v"
 362 07d0 055BAF85 		.ascii	"\005[\257\205U\357\212\255\012\366\264\026V\275\315"
 362      55EF8AAD 
 362      0AF6B416 
 362      56BDCD
 363 07df 372BD833 		.ascii	"7+\3303ZXuu\233\024\354Y-\254\272\272\215\231\252WB"
 363      5A587575 
 363      9B14EC59 
 363      2DACBABA 
 363      8D99AA57 
 364 07f4 A384F6BE 		.ascii	"\243\204\366\276\022\216M,[u\346\014\266O\302A\037]"
 364      128E4D2C 
 364      5B75E60C 
 364      B64FC241 
 364      1F5D
 365 0806 92E0DE7D 		.ascii	"\222\340\336}\362\342\023\264\2532U\373\352\025m\274"
 365      F2E213B4 
ARM GAS  C:\Users\info\AppData\Local\Temp\ccA70N4n.s 			page 29


 365      AB3255FB 
 365      EA156DBC 
 366 0816 CA7D65EB 		.ascii	"\312}e\353T\006?\014\213\263{\"\\}\264Q\255\332#\334"
 366      54063F0C 
 366      8BB37B22 
 366      5C7DB451 
 366      ADDA23DC 
 367 082a 4C05E381 		.ascii	"L\005\343\2019^\005\235\331.8\011J\247\202d\322e\223"
 367      395E059D 
 367      D92E3809 
 367      4AA78264 
 367      D26593
 368 083d 22CED2D3 		.ascii	"\"\316\322\323\202)\020\350\000?\2539\362\221J\336/"
 368      822910E8 
 368      003FAB39 
 368      F2914ADE 
 368      2F
 369 084e 6EC3DA62 		.ascii	"n\303\332b\233n\316\231\031d\323%<\357(\277\007T\321"
 369      9B6ECE99 
 369      1964D325 
 369      3CEF28BF 
 369      0754D1
 370 0861 2D83E552 		.ascii	"-\203\345R\241\316\245W;\027U\352\345\255&1\335B\301"
 370      A1CEA557 
 370      3B1755EA 
 370      E5AD2631 
 370      DD42C1
 371 0874 77278235 		.ascii	"w'\2025\336\372\012\272_\033\255r]\232\031\312\230\034"
 371      DEFA0ABA 
 371      5F1BAD72 
 371      5D9A19CA 
 371      981C
 372 0886 05F8BD89 		.ascii	"\005\370\275\211\360\0274\213zL]\324\343P\324:\255\242"
 372      F017348B 
 372      7A4C5DD4 
 372      E350D43A 
 372      ADA2
 373 0898 1EF3296A 		.ascii	"\036\363)j\235VQ/\370\024\365\030-\352nZTV\310\375i"
 373      9D56512F 
 373      F814F518 
 373      2DEA6E5A 
 373      5456C8FD 
 374 08ad 4F934212 		.ascii	"O\223B\022j\367\225B\326\251\012\271?\363W\214>\274"
 374      6AF79542 
 374      D6A90AB9 
 374      3FF3578C 
 374      3EBC
 375 08bf 2ED0034D 		.ascii	".\320\003M\372\363\2253\313W\231\364\314R\344{fam\233"
 375      FAF39533 
 375      CB5799F4 
 375      CC52E47B 
 375      66616D9B 
 376 08d3 D27E49DA 		.ascii	"\322~I\332\3106\277KyS\026\311o\312\276\234\253\251"
 376      C836BF4B 
 376      795316C9 
 376      6FCABE9C 
 376      ABA9
ARM GAS  C:\Users\info\AppData\Local\Temp\ccA70N4n.s 			page 30


 377 08e5 EC4B0919 		.ascii	"\354K\011\031\353#\354\027\257o\307\277n5\315\234t\226"
 377      EB23EC17 
 377      AF6FC7BF 
 377      6E35CD9C 
 377      7496
 378 08f7 9CA609D5 		.ascii	"\234\246\011\325\323\204\000\235\177\312\263\305\357"
 378      D384009D 
 378      7FCAB3C5 
 378      EF
 379 0904 D95CB1B3 		.ascii	"\331\\\261\263X\354\034\335\372\301\206m+\305\364$Q"
 379      58EC1CDD 
 379      FAC1866D 
 379      2BC5F424 
 379      51
 380 0915 FC1305A2 		.ascii	"\374\023\005\242]J\202\273\350'5\264\023\026\221\016"
 380      5D4A82BB 
 380      E82735B4 
 380      1316910E 
 381 0925 9DE19E25 		.ascii	"\235\341\236%\257\262\335]mS\361!\366^\323\372\250\325"
 381      AFB2DD5D 
 381      6D53F121 
 381      F65ED3FA 
 381      A8D5
 382 0937 927F68B5 		.ascii	"\222\177h\265bk\340\250\261\263\273\3573?\257\261\221"
 382      626BE0A8 
 382      B1B3BBEF 
 382      333FAFB1 
 382      91
 383 0948 193777B4 		.ascii	"\0317w\264\214\005y\215M\314X\224w\370\252\301\233\336"
 383      8C05798D 
 383      4DCC5894 
 383      77F8AAC1 
 383      9BDE
 384 095a 390939BC 		.ascii	"9\0119\274\276q\352\344\351\265\320\364\232\345\364"
 384      BE71EAE4 
 384      E9B5D0F4 
 384      9AE5F4
 385 0969 CE1D2DCA 		.ascii	"\316\035-\312A\220^n1\354\240u&\226\033\001\241\263"
 385      41905E6E 
 385      31ECA075 
 385      26961B01 
 385      A1B3
 386 097b 4A3DE151 		.ascii	"J=\341QI\255\225\246\326\223\325\220b\302\315\223\247"
 386      49AD95A6 
 386      D693D590 
 386      62C2CD93 
 386      A7
 387 098c E6FB39EB 		.ascii	"\346\3739\353\002\247\3619\253\215\031\207S\006\326"
 387      02A7F139 
 387      AB8D1987 
 387      5306D6
 388 099b 2A837491 		.ascii	"*\203t\221\031\307\216Un\2302y\026\3554\213Kr\026\233"
 388      19C78E55 
 388      6E983279 
 388      16ED348B 
 388      4B72169B 
 389 09af 6B371CE0 		.ascii	"k7\034\340\310 \301/\364\207\306\234\275\333Vz\322\021"
ARM GAS  C:\Users\info\AppData\Local\Temp\ccA70N4n.s 			page 31


 389      C820C12F 
 389      F487C69C 
 389      BDDB567A 
 389      D211
 390 09c1 45A1F34A 		.ascii	"E\241\363J\032\3479\366\321\023]\246)l\270WQ\033\214"
 390      1AE739F6 
 390      D1135DA6 
 390      296CB857 
 390      511B8C
 391 09d4 BBFEDB14 		.ascii	"\273\376\333\024:\030\261\312\346\314<\243\232\030\301"
 391      3A18B1CA 
 391      E6CC3CA3 
 391      9A18C1
 392 09e3 2BC4AE52 		.ascii	"+\304\256Rb\2352\261T\361\321Z\023#\346\311\030[\234"
 392      629D32B1 
 392      54F1D15A 
 392      1323E6C9 
 392      185B9C
 393 09f6 9192FB3A 		.ascii	"\221\222\373:\201\240+\012\253+2\253.\312\352\300\366"
 393      81A02B0A 
 393      AB2B32AB 
 393      2ECAEAC0 
 393      F6
 394 0a07 F3B782F0 		.ascii	"\363\267\202\360\310\344\254\006\356\017\346\371y\313"
 394      C8E4AC06 
 394      EE0FE6F9 
 394      79CB
 395 0a15 759DB12A 		.ascii	"u\235\261*\333R2b\230\274\\7)\253\0332\253#\265]\331"
 395      DB523262 
 395      98BC5C37 
 395      29AB1B32 
 395      AB23B55D 
 396 0a2a 5862757E 		.ascii	"Xbu~\364u\312\012 \350\232\302\352\232\314\352\026e"
 396      F475CA0A 
 396      20E89AC2 
 396      EA9ACCEA 
 396      1665
 397 0a3c 752E696C 		.ascii	"u.il\267?^\0238)\253\215\017\316\364\341\311\011\364"
 397      B73F5E13 
 397      3829AB8D 
 397      0FCEF4E1 
 397      C909F4
 398 0a4f 5002DFCB 		.ascii	"P\002\337\313\004\006\326\324=\226\3132\366Q\226X\243"
 398      0406D6D4 
 398      3D96CB32 
 398      F6519658 
 398      A3
 399 0a60 2708D4AD 		.ascii	"'\010\324\255\304\357\226\343\337\246\361W\257\253\330"
 399      C4EF96E3 
 399      DFA6F157 
 399      AFABD8
 400 0a6f C6E15C16 		.ascii	"\306\341\\\026\377\340P\343\306\000o\005X\374\356\264"
 400      FFE050E3 
 400      C6006F05 
 400      58FCEEB4 
 401 0a7f 7D6D3F12 		.ascii	"}m?\022\277\217\306\357\225\343\337i\330\276M.\300#"
 401      BF8FC6EF 
ARM GAS  C:\Users\info\AppData\Local\Temp\ccA70N4n.s 			page 32


 401      95E3DF69 
 401      D8BE4D2E 
 401      C023
 402 0a91 078D0F08 		.ascii	"\007\215\017\010tG\211\177G\216\177\227\306\357\277"
 402      7447897F 
 402      478E7F97 
 402      C6EFBF
 403 0aa0 7EAA3E08 		.ascii	"~\252>\010\227\260\3707sv\036\324K\275\263?\246\275"
 403      97B0F837 
 403      73761ED4 
 403      4BBDB33F 
 403      A6BD
 404 0ab2 C95ED0AF 		.ascii	"\311^\320\257\364\356\227{\337\243\275\013;\356\225"
 404      F4EE977B 
 404      DFA3BD0B 
 404      3BEE95
 405 0ac1 19F051A9 		.ascii	"\031\360Q\251zY\3119\201R\357L\245\367\200\322{@\356"
 405      7A59C939 
 405      8152EF4C 
 405      A5F780D2 
 405      7B40EE
 406 0ad4 7D9FF6DE 		.ascii	"}\237\366\336\223\321Y\300\341\363\223\347\336\333\272"
 406      93D159C0 
 406      E1F393E7 
 406      DEDBBA
 407 0ae3 F5AEBF3A 		.ascii	"\365\256\277:\367w\237V\245>HS\177(\247\236q\377\353"
 407      F7779F56 
 407      A53E4853 
 407      7F28A79E 
 407      71FFEB
 408 0af6 7D32F9EA 		.ascii	"}2\371\352k\363h|\200\240\007J\374\007r\374!\032?3i"
 408      6BF3687C 
 408      80A0074A 
 408      FC0772FC 
 408      211A3F33 
 409 0b0b 73ACFAC4 		.ascii	"s\254\372\304\337\343\363\212\370\201\235\251\311\235"
 409      DFE3F38A 
 409      F8819DA9 
 409      C99D
 410 0b19 7C703A73 		.ascii	"|p:s1\315_\015\276\352\003\036\226\300\303\024\234z"
 410      31CD5F0D 
 410      BEEA031E 
 410      96C0C314 
 410      9C7A
 411 0b2b FA6661B0 		.ascii	"\372fa\260\032|\323\007<\"\201G(\370Lm\336\270\317/"
 411      1A7CD307 
 411      3C228147 
 411      28F84C6D 
 411      DEB8CF2F 
 412 0b3f 1EED3EE0 		.ascii	"\036\355>\340Q\011<J\301\365;\266%\321o\240\242\004"
 412      51093C4A 
 412      C1F53BB6 
 412      25D16FA0 
 412      A204
 413 0b51 0E514F86 		.ascii	"\016QO\206G\034\371\303\304\013\364\000\005\340\223"
 413      471CF9C3 
 413      C40BF400 
ARM GAS  C:\Users\info\AppData\Local\Temp\ccA70N4n.s 			page 33


 413      05E093
 414 0b60 8D3DF501 		.ascii	"\215=\365\001!\351\024\354\201\315\217\376\201D>0\351"
 414      21E914EC 
 414      81CD8FFE 
 414      81443E30 
 414      E9
 415 0b71 D0632E44 		.ascii	"\320c.D\356C\025\3501~\272w\314\347\017\031`V\371\037"
 415      EE4315E8 
 415      317EBA77 
 415      CCE70F19 
 415      6056F91F 
 416 0b85 93B88C51 		.ascii	"\223\270\214Q.)\207+n\370\200\007}\210\217K\340q\012"
 416      2E29872B 
 416      6EF88007 
 416      7D888F4B 
 416      E0710A
 417 0b98 DE549EBB 		.ascii	"\336T\236\273L\215=\355\203\0251\303\302\035\260\373"
 417      4C8D3DED 
 417      831531C3 
 417      C21DB0FB 
 418 0ba8 F3EA76FA 		.ascii	"\363\352v\372\224\257\317\007\234$\201\311}Fb\344\362"
 418      94AFCF07 
 418      9C2481C9 
 418      7D4662E4 
 418      F2
 419 0bb9 48738CCB 		.ascii	"Hs\214\313\262\314\034\235(\010\016\2739\336f\347\015"
 419      B2CC1C9D 
 419      28080EBB 
 419      39DE66E7 
 419      0D
 420 0bca AFBDBD68 		.ascii	"\257\275\275h\326\313\363\347\353\364\326\305\026W\240"
 420      D6CBF3E7 
 420      EBF4D6C5 
 420      1657A0
 421 0bd9 D99C68B3 		.ascii	"\331\234h\263\013\221f!\011Y\377\030\345t9\342\\\226"
 421      0B916621 
 421      0959FF18 
 421      E57439E2 
 421      5C96
 422 0beb 8459B1B6 		.ascii	"\204Y\261\266x\336=+|y\344K\277\211\262\256p\272x\267"
 422      78DE3D2B 
 422      7C79E44B 
 422      BF89B2AE 
 422      70BA78B7 
 423 0bff 3BCAE976 		.ascii	";\312\351vXgY]\274Ep\270\242^\214X\340k\260%8\035.!"
 423      5867595D 
 423      BC4570B8 
 423      A25E8C58 
 423      E06BB025 
 424 0c17 2ACE9E18 		.ascii	"*\316\236\030eq%D\375!\342\305\210\371\344\351y\273"
 424      65712544 
 424      FD21E2C5 
 424      88F9E4E9 
 424      79BB
 425 0c29 C3CE3FCF 		.ascii	"\303\316?\317[\242mQ6\2735>1\206\217J\260X\027\003\221"
 425      5BA26D51 
 425      36BB353E 
ARM GAS  C:\Users\info\AppData\Local\Temp\ccA70N4n.s 			page 34


 425      31868F4A 
 425      B0581703 
 426 0c3e 28730C1F 		.ascii	"(s\014\037kI\214\027\314\302\012'\357\216X\254\013\220"
 426      6B498C17 
 426      CCC20A27 
 426      EF8E58AC 
 426      0B90
 427 0c50 A82CFD7F 		.ascii	"\250,\375\1771q\257pG\231\335B\014\204\205\360Sb\370"
 427      3171AF70 
 427      4799DD42 
 427      0C8485F0 
 427      5362F8
 428 0c63 6847A2DD 		.ascii	"hG\242\335\312\203\311\"\360\317x\325x\213[0;mvf\377"
 428      CA83C922 
 428      F0CF78D5 
 428      788B5B30 
 428      3B6D7666 
 429 0c78 B9D72EF3 		.ascii	"\271\327.\363\3676\005\3059m\0163p\004\2531Q\210\215"
 429      F73605C5 
 429      396D0E33 
 429      7004AB31 
 429      51888D
 430 0c8b 646670BC 		.ascii	"dfp\274\324\006xKL\014\341\037d[`%\015.\201\217\241"
 430      D406784B 
 430      4C0CE11F 
 430      645B6025 
 430      0D2E818F 
 431 0ca0 CF923DD4 		.ascii	"\317\222=\324\3466\307:\354\202\331f_\312\273\334\274"
 431      E636C73A 
 431      EC82D966 
 431      5FCABBDC 
 431      BC
 432 0cb1 39C111C3 		.ascii	"9\301\021\303\033\226\233\035\261\261n^0\360v\253\003"
 432      1B969B1D 
 432      B1B16E5E 
 432      30F076AB 
 432      03
 433 0cc2 98C619D9 		.ascii	"\230\306\031\331\220\315\177\311,\030\344\007=\351\027"
 433      90CD7FC9 
 433      2C18E407 
 433      3DE917
 434 0cd1 189DE836 		.ascii	"\030\235\3506[\343\035\326%\022d\341\002\011B\036\246"
 434      5BE31DD6 
 434      251264E1 
 434      0209421E 
 434      A6
 435 0ce2 516E167B 		.ascii	"Qn\026{\014\320\216\267\2540[\243\203\350\374Hp\307"
 435      0CD08EB7 
 435      AC305BA3 
 435      83E8FC48 
 435      70C7
 436 0cf4 C17340F4 		.ascii	"\301s@\364\012\201\207\273\277\325\022\0037c\214\315"
 436      0A8187BB 
 436      BFD51203 
 436      37638CCD 
 437 0d04 ED64A800 		.ascii	"\355d\250\000;\277\\\200\273\211\242\311\234!\212\334"
 437      3BBF5C80 
ARM GAS  C:\Users\info\AppData\Local\Temp\ccA70N4n.s 			page 35


 437      BB89A2C9 
 437      9C218ADC 
 438 0d14 6EB3C73A 		.ascii	"n\263\307:\202\234\266\345|\274y\231-FX<-6\336\346$"
 438      829CB6E5 
 438      7CBC7999 
 438      2D46583C 
 438      2D36DEE6 
 439 0d29 BCCD32EF 		.ascii	"\274\3152\357\247\344*\311\206 \001\206\324\274\230"
 439      A7E42AC9 
 439      86200186 
 439      D4BC98
 440 0d38 B7C52D16 		.ascii	"\267\305-\026\214\364\231\366\014]\346\262\001\005g"
 440      8CF499F6 
 440      0C5DE6B2 
 440      010567
 441 0d47 62BC5BB2 		.ascii	"b\274[\262\230\355\356\220\030\213`1C\247D\247Y\260"
 441      98EDEE90 
 441      188B6031 
 441      43A744A7 
 441      59B0
 442 0d59 25F0600A 		.ascii	"%\360`\012%\025\363fj\236?o\336\222\327?4\270\2356Z"
 442      2515F366 
 442      6A9E3F6F 
 442      DE92D73F 
 442      34B89D36 
 443 0d6e 2E931B6C 		.ascii	".\223\033l\254e\361\207!D\361u8\315\0353\301_\210\323"
 443      AC65F187 
 443      2144F175 
 443      38CD1D33 
 443      C15F88D3 
 444 0d82 01A30BF5 		.ascii	"\001\243\013\365\347\005\3632\213M\200\202\2042M\335"
 444      E705F332 
 444      8B4D8082 
 444      84324DDD 
 445 0d92 33C13D13 		.ascii	"3\301=\023\346\036\244os\232!wK4\241M\320vh \016h\013"
 445      E61EA46F 
 445      739A2177 
 445      4B34A14D 
 445      D0766820 
 446 0da9 6F573784 		.ascii	"oW7\204\370\240\343\371\245|\37445\214Zf\262E\252*'"
 446      F8A0E3F9 
 446      A57CFC34 
 446      358C5A66 
 446      B245AA2A 
 447 0dbe 4C0D57A2 		.ascii	"L\015W\242U0\261\252\262:\205FDD%F\306-0[\335.k\024"
 447      5530B1AA 
 447      B23A8546 
 447      44442546 
 447      C62D305B 
 448 0dd6 E902F375 		.ascii	"\351\002\363u\372\223]\0056\246\314\303t\357De3\222"
 448      FA935D05 
 448      36A6CCC3 
 448      74EF4465 
 448      3392
 449 0de8 0CB53F6D 		.ascii	"\014\265?m\027\302\236\360gN\200\031h\211\343#\254\272"
 449      17C29EF0 
 449      674E8019 
ARM GAS  C:\Users\info\AppData\Local\Temp\ccA70N4n.s 			page 36


 449      6889E323 
 449      ACBA
 450 0dfa 9F517D91 		.ascii	"\237Q}\221\233w\275a\027xW\254\305\312\277\305\032\203"
 450      9B77BD61 
 450      177857AC 
 450      C5CABFC5 
 450      1A83
 451 0e0c 69CB2BB0 		.ascii	"i\313+\260\243,\372\373\253\221\317P\3555^xGp\301\274"
 451      A32CFAFB 
 451      AB91CF50 
 451      ED355E78 
 451      4770C1BC 
 452 0e20 7C13D6F4 		.ascii	"|\023\326\364;dVO\225\355\004\364&o\237\361$\356e\273"
 452      3B64564F 
 452      95ED04F4 
 452      266F9FF1 
 452      24EE65BB 
 453 0e34 304DB6BE 		.ascii	"0M\266\276\305\333\023\377\262\224\267\013!>\336\011"
 453      C5DB13FF 
 453      B294B70B 
 453      213EDE09 
 454 0e44 CC3DED09 		.ascii	"\314=\355\011\023\263\274\034\317[\\\257\260\314\377"
 454      13B3BC1C 
 454      CF5B5CAF 
 454      B0CCFF
 455 0e53 0D11E17A 		.ascii	"\015\021\341zo"
 455      6F
 456              		.text
 457              		.section	.gnu.lto_.symtab.792a67f1,"",%progbits
 458 0000 75387838 		.ascii	"u8x8_draw_button_line\000"
 458      5F647261 
 458      775F6275 
 458      74746F6E 
 458      5F6C696E 
 459 0016 00       		.ascii	"\000"
 460 0017 00       		.ascii	"\000"
 461 0018 00       		.ascii	"\000"
 462 0019 00000000 		.ascii	"\000\000\000\000\000\000\000\000"
 462      00000000 
 463 0021 4E010000 		.ascii	"N\001\000\000"
 464 0025 75387838 		.ascii	"u8x8_UserInterfaceMessage\000"
 464      5F557365 
 464      72496E74 
 464      65726661 
 464      63654D65 
 465 003f 00       		.ascii	"\000"
 466 0040 00       		.ascii	"\000"
 467 0041 00       		.ascii	"\000"
 468 0042 00000000 		.ascii	"\000\000\000\000\000\000\000\000"
 468      00000000 
 469 004a 56010000 		.ascii	"V\001\000\000"
 470 004e 75387838 		.ascii	"u8x8_DrawUTF8\000"
 470      5F447261 
 470      77555446 
 470      3800
 471 005c 00       		.ascii	"\000"
 472 005d 02       		.ascii	"\002"
ARM GAS  C:\Users\info\AppData\Local\Temp\ccA70N4n.s 			page 37


 473 005e 00       		.ascii	"\000"
 474 005f 00000000 		.ascii	"\000\000\000\000\000\000\000\000"
 474      00000000 
 475 0067 5D010000 		.ascii	"]\001\000\000"
 476 006b 75387838 		.ascii	"u8x8_GetStringLineStart\000"
 476      5F476574 
 476      53747269 
 476      6E674C69 
 476      6E655374 
 477 0083 00       		.ascii	"\000"
 478 0084 02       		.ascii	"\002"
 479 0085 00       		.ascii	"\000"
 480 0086 00000000 		.ascii	"\000\000\000\000\000\000\000\000"
 480      00000000 
 481 008e 62010000 		.ascii	"b\001\000\000"
 482 0092 75387838 		.ascii	"u8x8_GetUTF8Len\000"
 482      5F476574 
 482      55544638 
 482      4C656E00 
 483 00a2 00       		.ascii	"\000"
 484 00a3 02       		.ascii	"\002"
 485 00a4 00       		.ascii	"\000"
 486 00a5 00000000 		.ascii	"\000\000\000\000\000\000\000\000"
 486      00000000 
 487 00ad 67010000 		.ascii	"g\001\000\000"
 488 00b1 75387838 		.ascii	"u8x8_GetStringLineCnt\000"
 488      5F476574 
 488      53747269 
 488      6E674C69 
 488      6E65436E 
 489 00c7 00       		.ascii	"\000"
 490 00c8 02       		.ascii	"\002"
 491 00c9 00       		.ascii	"\000"
 492 00ca 00000000 		.ascii	"\000\000\000\000\000\000\000\000"
 492      00000000 
 493 00d2 6B010000 		.ascii	"k\001\000\000"
 494 00d6 75387838 		.ascii	"u8x8_GetMenuEvent\000"
 494      5F476574 
 494      4D656E75 
 494      4576656E 
 494      7400
 495 00e8 00       		.ascii	"\000"
 496 00e9 02       		.ascii	"\002"
 497 00ea 00       		.ascii	"\000"
 498 00eb 00000000 		.ascii	"\000\000\000\000\000\000\000\000"
 498      00000000 
 499 00f3 6F010000 		.ascii	"o\001\000\000"
 500 00f7 75387838 		.ascii	"u8x8_DrawUTF8Lines\000"
 500      5F447261 
 500      77555446 
 500      384C696E 
 500      657300
 501 010a 00       		.ascii	"\000"
 502 010b 02       		.ascii	"\002"
 503 010c 00       		.ascii	"\000"
 504 010d 00000000 		.ascii	"\000\000\000\000\000\000\000\000"
 504      00000000 
ARM GAS  C:\Users\info\AppData\Local\Temp\ccA70N4n.s 			page 38


 505 0115 71010000 		.ascii	"q\001\000\000"
 506 0119 75387838 		.ascii	"u8x8_DrawUTF8Line\000"
 506      5F447261 
 506      77555446 
 506      384C696E 
 506      6500
 507 012b 00       		.ascii	"\000"
 508 012c 02       		.ascii	"\002"
 509 012d 00       		.ascii	"\000"
 510 012e 00000000 		.ascii	"\000\000\000\000\000\000\000\000"
 510      00000000 
 511 0136 73010000 		.ascii	"s\001\000\000"
 512 013a 75387838 		.ascii	"u8x8_ClearDisplay\000"
 512      5F436C65 
 512      61724469 
 512      73706C61 
 512      7900
 513 014c 00       		.ascii	"\000"
 514 014d 02       		.ascii	"\002"
 515 014e 00       		.ascii	"\000"
 516 014f 00000000 		.ascii	"\000\000\000\000\000\000\000\000"
 516      00000000 
 517 0157 77010000 		.ascii	"w\001\000\000"
 518              		.text
 519              		.section	.gnu.lto_.opts,"",%progbits
 520 0000 272D666D 		.ascii	"'-fmath-errno' '-fsigned-zeros' '-ftrapping-math' '"
 520      6174682D 
 520      6572726E 
 520      6F272027 
 520      2D667369 
 521 0033 2D666E6F 		.ascii	"-fno-trapv' '-fno-strict-overflow' '-fno-openmp' '-"
 521      2D747261 
 521      70762720 
 521      272D666E 
 521      6F2D7374 
 522 0066 666E6F2D 		.ascii	"fno-openacc' '-mcpu=cortex-m3' '-mthumb' '-g' '-Og'"
 522      6F70656E 
 522      61636327 
 522      20272D6D 
 522      6370753D 
 523 0099 20272D66 		.ascii	" '-ffunction-sections' '-ffat-lto-objects' '-flto'\000"
 523      66756E63 
 523      74696F6E 
 523      2D736563 
 523      74696F6E 
 524              		.text
 525              		.cfi_sections	.debug_frame
 526              		.section	.text.u8x8_draw_button_line,"ax",%progbits
 527              		.align	2
 528              		.global	u8x8_draw_button_line
 529              		.thumb
 530              		.thumb_func
 531              		.type	u8x8_draw_button_line, %function
 532              	u8x8_draw_button_line:
 533              	.LFB0:
 534              		.file 1 "..\\u8g2_csrc\\u8x8_message.c"
   1:..\u8g2_csrc/u8x8_message.c **** /*
ARM GAS  C:\Users\info\AppData\Local\Temp\ccA70N4n.s 			page 39


   2:..\u8g2_csrc/u8x8_message.c **** 
   3:..\u8g2_csrc/u8x8_message.c ****   u8x8_message.c
   4:..\u8g2_csrc/u8x8_message.c ****   
   5:..\u8g2_csrc/u8x8_message.c ****   Universal 8bit Graphics Library (https://github.com/olikraus/u8g2/)
   6:..\u8g2_csrc/u8x8_message.c **** 
   7:..\u8g2_csrc/u8x8_message.c ****   Copyright (c) 2016, olikraus@gmail.com
   8:..\u8g2_csrc/u8x8_message.c ****   All rights reserved.
   9:..\u8g2_csrc/u8x8_message.c **** 
  10:..\u8g2_csrc/u8x8_message.c ****   Redistribution and use in source and binary forms, with or without modification, 
  11:..\u8g2_csrc/u8x8_message.c ****   are permitted provided that the following conditions are met:
  12:..\u8g2_csrc/u8x8_message.c **** 
  13:..\u8g2_csrc/u8x8_message.c ****   * Redistributions of source code must retain the above copyright notice, this list 
  14:..\u8g2_csrc/u8x8_message.c ****     of conditions and the following disclaimer.
  15:..\u8g2_csrc/u8x8_message.c ****     
  16:..\u8g2_csrc/u8x8_message.c ****   * Redistributions in binary form must reproduce the above copyright notice, this 
  17:..\u8g2_csrc/u8x8_message.c ****     list of conditions and the following disclaimer in the documentation and/or other 
  18:..\u8g2_csrc/u8x8_message.c ****     materials provided with the distribution.
  19:..\u8g2_csrc/u8x8_message.c **** 
  20:..\u8g2_csrc/u8x8_message.c ****   THIS SOFTWARE IS PROVIDED BY THE COPYRIGHT HOLDERS AND 
  21:..\u8g2_csrc/u8x8_message.c ****   CONTRIBUTORS "AS IS" AND ANY EXPRESS OR IMPLIED WARRANTIES, 
  22:..\u8g2_csrc/u8x8_message.c ****   INCLUDING, BUT NOT LIMITED TO, THE IMPLIED WARRANTIES OF 
  23:..\u8g2_csrc/u8x8_message.c ****   MERCHANTABILITY AND FITNESS FOR A PARTICULAR PURPOSE ARE 
  24:..\u8g2_csrc/u8x8_message.c ****   DISCLAIMED. IN NO EVENT SHALL THE COPYRIGHT HOLDER OR 
  25:..\u8g2_csrc/u8x8_message.c ****   CONTRIBUTORS BE LIABLE FOR ANY DIRECT, INDIRECT, INCIDENTAL, 
  26:..\u8g2_csrc/u8x8_message.c ****   SPECIAL, EXEMPLARY, OR CONSEQUENTIAL DAMAGES (INCLUDING, BUT 
  27:..\u8g2_csrc/u8x8_message.c ****   NOT LIMITED TO, PROCUREMENT OF SUBSTITUTE GOODS OR SERVICES; 
  28:..\u8g2_csrc/u8x8_message.c ****   LOSS OF USE, DATA, OR PROFITS; OR BUSINESS INTERRUPTION) HOWEVER 
  29:..\u8g2_csrc/u8x8_message.c ****   CAUSED AND ON ANY THEORY OF LIABILITY, WHETHER IN CONTRACT, 
  30:..\u8g2_csrc/u8x8_message.c ****   STRICT LIABILITY, OR TORT (INCLUDING NEGLIGENCE OR OTHERWISE) 
  31:..\u8g2_csrc/u8x8_message.c ****   ARISING IN ANY WAY OUT OF THE USE OF THIS SOFTWARE, EVEN IF 
  32:..\u8g2_csrc/u8x8_message.c ****   ADVISED OF THE POSSIBILITY OF SUCH DAMAGE.  
  33:..\u8g2_csrc/u8x8_message.c ****   
  34:..\u8g2_csrc/u8x8_message.c **** */
  35:..\u8g2_csrc/u8x8_message.c **** 
  36:..\u8g2_csrc/u8x8_message.c **** #include "u8x8.h"
  37:..\u8g2_csrc/u8x8_message.c **** 
  38:..\u8g2_csrc/u8x8_message.c **** uint8_t u8x8_draw_button_line(u8x8_t *u8x8, uint8_t y, uint8_t w, uint8_t cursor, const char *s)
  39:..\u8g2_csrc/u8x8_message.c **** {
 535              		.loc 1 39 0
 536              		.cfi_startproc
 537              		@ args = 4, pretend = 0, frame = 0
 538              		@ frame_needed = 0, uses_anonymous_args = 0
 539              	.LVL0:
 540 0000 2DE9F84F 		push	{r3, r4, r5, r6, r7, r8, r9, r10, fp, lr}
 541              		.cfi_def_cfa_offset 40
 542              		.cfi_offset 3, -40
 543              		.cfi_offset 4, -36
 544              		.cfi_offset 5, -32
 545              		.cfi_offset 6, -28
 546              		.cfi_offset 7, -24
 547              		.cfi_offset 8, -20
 548              		.cfi_offset 9, -16
 549              		.cfi_offset 10, -12
 550              		.cfi_offset 11, -8
 551              		.cfi_offset 14, -4
 552 0004 0646     		mov	r6, r0
 553 0006 8946     		mov	r9, r1
ARM GAS  C:\Users\info\AppData\Local\Temp\ccA70N4n.s 			page 40


 554 0008 1546     		mov	r5, r2
 555 000a 9A46     		mov	r10, r3
 556 000c DDF82880 		ldr	r8, [sp, #40]
  40:..\u8g2_csrc/u8x8_message.c ****   uint8_t i;
  41:..\u8g2_csrc/u8x8_message.c ****   uint8_t cnt;
  42:..\u8g2_csrc/u8x8_message.c ****   uint8_t total;
  43:..\u8g2_csrc/u8x8_message.c ****   uint8_t d;
  44:..\u8g2_csrc/u8x8_message.c ****   uint8_t x;
  45:..\u8g2_csrc/u8x8_message.c ****   cnt = u8x8_GetStringLineCnt(s);
 557              		.loc 1 45 0
 558 0010 4046     		mov	r0, r8
 559              	.LVL1:
 560 0012 FFF7FEFF 		bl	u8x8_GetStringLineCnt
 561              	.LVL2:
 562 0016 0746     		mov	r7, r0
 563              	.LVL3:
  46:..\u8g2_csrc/u8x8_message.c ****   
  47:..\u8g2_csrc/u8x8_message.c ****   /* calculate the width of the button */
  48:..\u8g2_csrc/u8x8_message.c ****   total = 0;
 564              		.loc 1 48 0
 565 0018 4FF0000B 		mov	fp, #0
  49:..\u8g2_csrc/u8x8_message.c ****   for( i = 0; i < cnt; i++ )
 566              		.loc 1 49 0
 567 001c 5C46     		mov	r4, fp
 568 001e 0CE0     		b	.L2
 569              	.LVL4:
 570              	.L3:
  50:..\u8g2_csrc/u8x8_message.c ****   {
  51:..\u8g2_csrc/u8x8_message.c ****     total += u8x8_GetUTF8Len(u8x8, u8x8_GetStringLineStart(i, s));
 571              		.loc 1 51 0 discriminator 3
 572 0020 4146     		mov	r1, r8
 573 0022 2046     		mov	r0, r4
 574 0024 FFF7FEFF 		bl	u8x8_GetStringLineStart
 575              	.LVL5:
 576 0028 0146     		mov	r1, r0
 577 002a 3046     		mov	r0, r6
 578 002c FFF7FEFF 		bl	u8x8_GetUTF8Len
 579              	.LVL6:
 580 0030 5844     		add	r0, r0, fp
 581 0032 5FFA80FB 		uxtb	fp, r0
 582              	.LVL7:
  49:..\u8g2_csrc/u8x8_message.c ****   for( i = 0; i < cnt; i++ )
 583              		.loc 1 49 0 discriminator 3
 584 0036 0134     		adds	r4, r4, #1
 585              	.LVL8:
 586 0038 E4B2     		uxtb	r4, r4
 587              	.LVL9:
 588              	.L2:
  49:..\u8g2_csrc/u8x8_message.c ****   for( i = 0; i < cnt; i++ )
 589              		.loc 1 49 0 is_stmt 0 discriminator 1
 590 003a BC42     		cmp	r4, r7
 591 003c F0D3     		bcc	.L3
  52:..\u8g2_csrc/u8x8_message.c ****   }
  53:..\u8g2_csrc/u8x8_message.c ****   total += (cnt-1);	/* had one space between the buttons */
 592              		.loc 1 53 0 is_stmt 1
 593 003e 0BEB0704 		add	r4, fp, r7
 594              	.LVL10:
ARM GAS  C:\Users\info\AppData\Local\Temp\ccA70N4n.s 			page 41


 595 0042 E4B2     		uxtb	r4, r4
 596 0044 013C     		subs	r4, r4, #1
 597 0046 E4B2     		uxtb	r4, r4
 598              	.LVL11:
  54:..\u8g2_csrc/u8x8_message.c ****   
  55:..\u8g2_csrc/u8x8_message.c ****   /* calculate the left offset */
  56:..\u8g2_csrc/u8x8_message.c ****   d = 0;
  57:..\u8g2_csrc/u8x8_message.c ****   if ( total < w )
 599              		.loc 1 57 0
 600 0048 AC42     		cmp	r4, r5
 601 004a 03D2     		bcs	.L8
 602              	.LVL12:
  58:..\u8g2_csrc/u8x8_message.c ****   {
  59:..\u8g2_csrc/u8x8_message.c ****     d = w;
  60:..\u8g2_csrc/u8x8_message.c ****     d -= total;
 603              		.loc 1 60 0
 604 004c 2C1B     		subs	r4, r5, r4
 605              	.LVL13:
  61:..\u8g2_csrc/u8x8_message.c ****     d /= 2;
 606              		.loc 1 61 0
 607 004e C4F34604 		ubfx	r4, r4, #1, #7
 608              	.LVL14:
 609 0052 00E0     		b	.L4
 610              	.LVL15:
 611              	.L8:
  56:..\u8g2_csrc/u8x8_message.c ****   if ( total < w )
 612              		.loc 1 56 0
 613 0054 0024     		movs	r4, #0
 614              	.LVL16:
 615              	.L4:
  62:..\u8g2_csrc/u8x8_message.c ****   }
  63:..\u8g2_csrc/u8x8_message.c ****   
  64:..\u8g2_csrc/u8x8_message.c ****   /* draw the buttons */
  65:..\u8g2_csrc/u8x8_message.c ****   x = d;
  66:..\u8g2_csrc/u8x8_message.c ****   u8x8_SetInverseFont(u8x8, 0);
 616              		.loc 1 66 0
 617 0056 0025     		movs	r5, #0
 618 0058 86F82350 		strb	r5, [r6, #35]
 619              	.LVL17:
  67:..\u8g2_csrc/u8x8_message.c ****   for( i = 0; i < cnt; i++ )
 620              		.loc 1 67 0
 621 005c 1DE0     		b	.L5
 622              	.LVL18:
 623              	.L7:
  68:..\u8g2_csrc/u8x8_message.c ****   {
  69:..\u8g2_csrc/u8x8_message.c ****     if ( i == cursor )
 624              		.loc 1 69 0
 625 005e 5545     		cmp	r5, r10
 626 0060 02D1     		bne	.L6
  70:..\u8g2_csrc/u8x8_message.c ****       u8x8_SetInverseFont(u8x8, 1);
 627              		.loc 1 70 0
 628 0062 0123     		movs	r3, #1
 629 0064 86F82330 		strb	r3, [r6, #35]
 630              	.L6:
  71:..\u8g2_csrc/u8x8_message.c ****       
  72:..\u8g2_csrc/u8x8_message.c ****     x+=u8x8_DrawUTF8(u8x8, x, y, u8x8_GetStringLineStart(i, s));
 631              		.loc 1 72 0 discriminator 2
ARM GAS  C:\Users\info\AppData\Local\Temp\ccA70N4n.s 			page 42


 632 0068 4146     		mov	r1, r8
 633 006a 2846     		mov	r0, r5
 634 006c FFF7FEFF 		bl	u8x8_GetStringLineStart
 635              	.LVL19:
 636 0070 0346     		mov	r3, r0
 637 0072 4A46     		mov	r2, r9
 638 0074 2146     		mov	r1, r4
 639 0076 3046     		mov	r0, r6
 640 0078 FFF7FEFF 		bl	u8x8_DrawUTF8
 641              	.LVL20:
 642 007c 2044     		add	r0, r0, r4
 643 007e C4B2     		uxtb	r4, r0
 644              	.LVL21:
  73:..\u8g2_csrc/u8x8_message.c ****     u8x8_SetInverseFont(u8x8, 0);
 645              		.loc 1 73 0 discriminator 2
 646 0080 0023     		movs	r3, #0
 647 0082 86F82330 		strb	r3, [r6, #35]
  74:..\u8g2_csrc/u8x8_message.c ****     x+=u8x8_DrawUTF8(u8x8, x, y, " ");
 648              		.loc 1 74 0 discriminator 2
 649 0086 074B     		ldr	r3, .L10
 650 0088 4A46     		mov	r2, r9
 651 008a 2146     		mov	r1, r4
 652 008c 3046     		mov	r0, r6
 653 008e FFF7FEFF 		bl	u8x8_DrawUTF8
 654              	.LVL22:
 655 0092 2044     		add	r0, r0, r4
 656 0094 C4B2     		uxtb	r4, r0
 657              	.LVL23:
  67:..\u8g2_csrc/u8x8_message.c ****   {
 658              		.loc 1 67 0 discriminator 2
 659 0096 0135     		adds	r5, r5, #1
 660              	.LVL24:
 661 0098 EDB2     		uxtb	r5, r5
 662              	.LVL25:
 663              	.L5:
  67:..\u8g2_csrc/u8x8_message.c ****   {
 664              		.loc 1 67 0 is_stmt 0 discriminator 1
 665 009a BD42     		cmp	r5, r7
 666 009c DFD3     		bcc	.L7
  75:..\u8g2_csrc/u8x8_message.c ****   }
  76:..\u8g2_csrc/u8x8_message.c ****   
  77:..\u8g2_csrc/u8x8_message.c ****   /* return the number of buttons */
  78:..\u8g2_csrc/u8x8_message.c ****   return cnt;
  79:..\u8g2_csrc/u8x8_message.c **** }
 667              		.loc 1 79 0 is_stmt 1
 668 009e 3846     		mov	r0, r7
 669 00a0 BDE8F88F 		pop	{r3, r4, r5, r6, r7, r8, r9, r10, fp, pc}
 670              	.LVL26:
 671              	.L11:
 672              		.align	2
 673              	.L10:
 674 00a4 00000000 		.word	.LC0
 675              		.cfi_endproc
 676              	.LFE0:
 677              		.size	u8x8_draw_button_line, .-u8x8_draw_button_line
 678              		.section	.text.u8x8_UserInterfaceMessage,"ax",%progbits
 679              		.align	2
ARM GAS  C:\Users\info\AppData\Local\Temp\ccA70N4n.s 			page 43


 680              		.global	u8x8_UserInterfaceMessage
 681              		.thumb
 682              		.thumb_func
 683              		.type	u8x8_UserInterfaceMessage, %function
 684              	u8x8_UserInterfaceMessage:
 685              	.LFB1:
  80:..\u8g2_csrc/u8x8_message.c **** 
  81:..\u8g2_csrc/u8x8_message.c **** /*
  82:..\u8g2_csrc/u8x8_message.c ****   title1:	Multiple lines,separated by '\n'
  83:..\u8g2_csrc/u8x8_message.c ****   title2:	A single line/string which is terminated by '\0' or '\n' . "title2" accepts the return va
  84:..\u8g2_csrc/u8x8_message.c ****   title3:	Multiple lines,separated by '\n'
  85:..\u8g2_csrc/u8x8_message.c ****   buttons:	one more more buttons separated by '\n' and terminated with '\0'
  86:..\u8g2_csrc/u8x8_message.c **** */
  87:..\u8g2_csrc/u8x8_message.c **** 
  88:..\u8g2_csrc/u8x8_message.c **** uint8_t u8x8_UserInterfaceMessage(u8x8_t *u8x8, const char *title1, const char *title2, const char 
  89:..\u8g2_csrc/u8x8_message.c **** {
 686              		.loc 1 89 0
 687              		.cfi_startproc
 688              		@ args = 4, pretend = 0, frame = 0
 689              		@ frame_needed = 0, uses_anonymous_args = 0
 690              	.LVL27:
 691 0000 2DE9F043 		push	{r4, r5, r6, r7, r8, r9, lr}
 692              		.cfi_def_cfa_offset 28
 693              		.cfi_offset 4, -28
 694              		.cfi_offset 5, -24
 695              		.cfi_offset 6, -20
 696              		.cfi_offset 7, -16
 697              		.cfi_offset 8, -12
 698              		.cfi_offset 9, -8
 699              		.cfi_offset 14, -4
 700 0004 83B0     		sub	sp, sp, #12
 701              		.cfi_def_cfa_offset 40
 702 0006 0546     		mov	r5, r0
 703 0008 0E46     		mov	r6, r1
 704 000a 9046     		mov	r8, r2
 705 000c 9946     		mov	r9, r3
 706 000e 0A9F     		ldr	r7, [sp, #40]
 707              	.LVL28:
  90:..\u8g2_csrc/u8x8_message.c ****   uint8_t height;
  91:..\u8g2_csrc/u8x8_message.c ****   uint8_t y;
  92:..\u8g2_csrc/u8x8_message.c ****   uint8_t cursor = 0;
  93:..\u8g2_csrc/u8x8_message.c ****   uint8_t button_cnt;
  94:..\u8g2_csrc/u8x8_message.c ****   uint8_t event;
  95:..\u8g2_csrc/u8x8_message.c **** 
  96:..\u8g2_csrc/u8x8_message.c ****   u8x8_SetInverseFont(u8x8, 0);
 708              		.loc 1 96 0
 709 0010 0023     		movs	r3, #0
 710              	.LVL29:
 711 0012 80F82330 		strb	r3, [r0, #35]
 712              	.LVL30:
  97:..\u8g2_csrc/u8x8_message.c ****   
  98:..\u8g2_csrc/u8x8_message.c ****   /* calculate overall height of the message box */
  99:..\u8g2_csrc/u8x8_message.c ****   height = 1;	/* button line */
 100:..\u8g2_csrc/u8x8_message.c ****   height += u8x8_GetStringLineCnt(title1);
 713              		.loc 1 100 0
 714 0016 0846     		mov	r0, r1
 715              	.LVL31:
ARM GAS  C:\Users\info\AppData\Local\Temp\ccA70N4n.s 			page 44


 716 0018 FFF7FEFF 		bl	u8x8_GetStringLineCnt
 717              	.LVL32:
 718 001c 441C     		adds	r4, r0, #1
 719 001e E4B2     		uxtb	r4, r4
 720              	.LVL33:
 101:..\u8g2_csrc/u8x8_message.c ****   if ( title2 != NULL )
 721              		.loc 1 101 0
 722 0020 B8F1000F 		cmp	r8, #0
 723 0024 01D0     		beq	.L13
 102:..\u8g2_csrc/u8x8_message.c ****     height ++;
 724              		.loc 1 102 0
 725 0026 0230     		adds	r0, r0, #2
 726 0028 C4B2     		uxtb	r4, r0
 727              	.LVL34:
 728              	.L13:
 103:..\u8g2_csrc/u8x8_message.c ****   height += u8x8_GetStringLineCnt(title3);
 729              		.loc 1 103 0
 730 002a 4846     		mov	r0, r9
 731 002c FFF7FEFF 		bl	u8x8_GetStringLineCnt
 732              	.LVL35:
 733 0030 2044     		add	r0, r0, r4
 734 0032 C0B2     		uxtb	r0, r0
 735              	.LVL36:
 104:..\u8g2_csrc/u8x8_message.c ****   
 105:..\u8g2_csrc/u8x8_message.c ****   /* calculate offset from top */
 106:..\u8g2_csrc/u8x8_message.c ****   y = 0;
 107:..\u8g2_csrc/u8x8_message.c ****   if ( height < u8x8_GetRows(u8x8)  )
 736              		.loc 1 107 0
 737 0034 2B68     		ldr	r3, [r5]
 738 0036 5C7C     		ldrb	r4, [r3, #17]	@ zero_extendqisi2
 739 0038 A042     		cmp	r0, r4
 740 003a 03D2     		bcs	.L25
 741              	.LVL37:
 108:..\u8g2_csrc/u8x8_message.c ****   {
 109:..\u8g2_csrc/u8x8_message.c ****     y = u8x8_GetRows(u8x8);
 110:..\u8g2_csrc/u8x8_message.c ****     y -= height;
 742              		.loc 1 110 0
 743 003c 241A     		subs	r4, r4, r0
 744              	.LVL38:
 111:..\u8g2_csrc/u8x8_message.c ****     y /= 2;
 745              		.loc 1 111 0
 746 003e C4F34604 		ubfx	r4, r4, #1, #7
 747              	.LVL39:
 748 0042 00E0     		b	.L14
 749              	.LVL40:
 750              	.L25:
 106:..\u8g2_csrc/u8x8_message.c ****   if ( height < u8x8_GetRows(u8x8)  )
 751              		.loc 1 106 0
 752 0044 0024     		movs	r4, #0
 753              	.LVL41:
 754              	.L14:
 112:..\u8g2_csrc/u8x8_message.c ****   }
 113:..\u8g2_csrc/u8x8_message.c **** 
 114:..\u8g2_csrc/u8x8_message.c ****   /* draw message box */
 115:..\u8g2_csrc/u8x8_message.c ****   
 116:..\u8g2_csrc/u8x8_message.c ****   u8x8_ClearDisplay(u8x8);   /* required, because not everything is filled */
 755              		.loc 1 116 0
ARM GAS  C:\Users\info\AppData\Local\Temp\ccA70N4n.s 			page 45


 756 0046 2846     		mov	r0, r5
 757              	.LVL42:
 758 0048 FFF7FEFF 		bl	u8x8_ClearDisplay
 759              	.LVL43:
 117:..\u8g2_csrc/u8x8_message.c ****   
 118:..\u8g2_csrc/u8x8_message.c ****   y += u8x8_DrawUTF8Lines(u8x8, 0, y, u8x8_GetCols(u8x8), title1);
 760              		.loc 1 118 0
 761 004c 2B68     		ldr	r3, [r5]
 762 004e 1B7C     		ldrb	r3, [r3, #16]	@ zero_extendqisi2
 763 0050 0096     		str	r6, [sp]
 764 0052 2246     		mov	r2, r4
 765 0054 0021     		movs	r1, #0
 766 0056 2846     		mov	r0, r5
 767 0058 FFF7FEFF 		bl	u8x8_DrawUTF8Lines
 768              	.LVL44:
 769 005c 2044     		add	r0, r0, r4
 770 005e C6B2     		uxtb	r6, r0
 771              	.LVL45:
 119:..\u8g2_csrc/u8x8_message.c ****   if ( title2 != NULL )
 772              		.loc 1 119 0
 773 0060 B8F1000F 		cmp	r8, #0
 774 0064 0AD0     		beq	.L15
 120:..\u8g2_csrc/u8x8_message.c ****   {
 121:..\u8g2_csrc/u8x8_message.c ****     u8x8_DrawUTF8Line(u8x8, 0, y, u8x8_GetCols(u8x8), title2);
 775              		.loc 1 121 0
 776 0066 2B68     		ldr	r3, [r5]
 777 0068 1B7C     		ldrb	r3, [r3, #16]	@ zero_extendqisi2
 778 006a CDF80080 		str	r8, [sp]
 779 006e 3246     		mov	r2, r6
 780 0070 0021     		movs	r1, #0
 781 0072 2846     		mov	r0, r5
 782 0074 FFF7FEFF 		bl	u8x8_DrawUTF8Line
 783              	.LVL46:
 122:..\u8g2_csrc/u8x8_message.c ****     y++;
 784              		.loc 1 122 0
 785 0078 0136     		adds	r6, r6, #1
 786              	.LVL47:
 787 007a F6B2     		uxtb	r6, r6
 788              	.LVL48:
 789              	.L15:
 123:..\u8g2_csrc/u8x8_message.c ****   }
 124:..\u8g2_csrc/u8x8_message.c ****   y += u8x8_DrawUTF8Lines(u8x8, 0, y, u8x8_GetCols(u8x8), title3);
 790              		.loc 1 124 0
 791 007c 2B68     		ldr	r3, [r5]
 792 007e 1B7C     		ldrb	r3, [r3, #16]	@ zero_extendqisi2
 793 0080 CDF80090 		str	r9, [sp]
 794 0084 3246     		mov	r2, r6
 795 0086 0021     		movs	r1, #0
 796 0088 2846     		mov	r0, r5
 797 008a FFF7FEFF 		bl	u8x8_DrawUTF8Lines
 798              	.LVL49:
 799 008e 3044     		add	r0, r0, r6
 800 0090 C6B2     		uxtb	r6, r0
 801              	.LVL50:
 125:..\u8g2_csrc/u8x8_message.c **** 
 126:..\u8g2_csrc/u8x8_message.c ****   button_cnt = u8x8_draw_button_line(u8x8, y, u8x8_GetCols(u8x8), cursor, buttons);
 802              		.loc 1 126 0
ARM GAS  C:\Users\info\AppData\Local\Temp\ccA70N4n.s 			page 46


 803 0092 2B68     		ldr	r3, [r5]
 804 0094 1A7C     		ldrb	r2, [r3, #16]	@ zero_extendqisi2
 805 0096 0097     		str	r7, [sp]
 806 0098 0023     		movs	r3, #0
 807 009a 3146     		mov	r1, r6
 808 009c 2846     		mov	r0, r5
 809 009e FFF7FEFF 		bl	u8x8_draw_button_line
 810              	.LVL51:
 811 00a2 8046     		mov	r8, r0
 812              	.LVL52:
  92:..\u8g2_csrc/u8x8_message.c ****   uint8_t button_cnt;
 813              		.loc 1 92 0
 814 00a4 0024     		movs	r4, #0
 815              	.LVL53:
 816              	.L16:
 127:..\u8g2_csrc/u8x8_message.c ****   
 128:..\u8g2_csrc/u8x8_message.c ****   for(;;)
 129:..\u8g2_csrc/u8x8_message.c ****   {
 130:..\u8g2_csrc/u8x8_message.c ****     event = u8x8_GetMenuEvent(u8x8);
 817              		.loc 1 130 0
 818 00a6 2846     		mov	r0, r5
 819 00a8 FFF7FEFF 		bl	u8x8_GetMenuEvent
 820              	.LVL54:
 131:..\u8g2_csrc/u8x8_message.c ****     if ( event == U8X8_MSG_GPIO_MENU_SELECT )
 821              		.loc 1 131 0
 822 00ac 5028     		cmp	r0, #80
 823 00ae 02D1     		bne	.L17
 132:..\u8g2_csrc/u8x8_message.c ****       return cursor+1;
 824              		.loc 1 132 0
 825 00b0 601C     		adds	r0, r4, #1
 826              	.LVL55:
 827 00b2 C0B2     		uxtb	r0, r0
 828 00b4 25E0     		b	.L18
 829              	.LVL56:
 830              	.L17:
 133:..\u8g2_csrc/u8x8_message.c ****     else if ( event == U8X8_MSG_GPIO_MENU_HOME )
 831              		.loc 1 133 0
 832 00b6 5328     		cmp	r0, #83
 833 00b8 22D0     		beq	.L26
 134:..\u8g2_csrc/u8x8_message.c ****       break;
 135:..\u8g2_csrc/u8x8_message.c ****     else if ( event == U8X8_MSG_GPIO_MENU_NEXT || event == U8X8_MSG_GPIO_MENU_UP )
 834              		.loc 1 135 0
 835 00ba 5128     		cmp	r0, #81
 836 00bc 01D0     		beq	.L19
 837              		.loc 1 135 0 is_stmt 0 discriminator 1
 838 00be 5428     		cmp	r0, #84
 839 00c0 0DD1     		bne	.L20
 840              	.L19:
 136:..\u8g2_csrc/u8x8_message.c ****     {
 137:..\u8g2_csrc/u8x8_message.c ****       cursor++;
 841              		.loc 1 137 0 is_stmt 1
 842 00c2 0134     		adds	r4, r4, #1
 843              	.LVL57:
 844 00c4 E4B2     		uxtb	r4, r4
 845              	.LVL58:
 138:..\u8g2_csrc/u8x8_message.c ****       if ( cursor >= button_cnt )
 846              		.loc 1 138 0
ARM GAS  C:\Users\info\AppData\Local\Temp\ccA70N4n.s 			page 47


 847 00c6 A045     		cmp	r8, r4
 848 00c8 00D8     		bhi	.L21
 139:..\u8g2_csrc/u8x8_message.c **** 	cursor = 0;
 849              		.loc 1 139 0
 850 00ca 0024     		movs	r4, #0
 851              	.LVL59:
 852              	.L21:
 140:..\u8g2_csrc/u8x8_message.c ****       u8x8_draw_button_line(u8x8, y, u8x8_GetCols(u8x8), cursor, buttons);
 853              		.loc 1 140 0
 854 00cc 2B68     		ldr	r3, [r5]
 855 00ce 1A7C     		ldrb	r2, [r3, #16]	@ zero_extendqisi2
 856 00d0 0097     		str	r7, [sp]
 857 00d2 2346     		mov	r3, r4
 858 00d4 3146     		mov	r1, r6
 859 00d6 2846     		mov	r0, r5
 860              	.LVL60:
 861 00d8 FFF7FEFF 		bl	u8x8_draw_button_line
 862              	.LVL61:
 863 00dc E3E7     		b	.L16
 864              	.LVL62:
 865              	.L20:
 141:..\u8g2_csrc/u8x8_message.c ****     }
 142:..\u8g2_csrc/u8x8_message.c ****     else if ( event == U8X8_MSG_GPIO_MENU_PREV || event == U8X8_MSG_GPIO_MENU_DOWN  )
 866              		.loc 1 142 0
 867 00de 5228     		cmp	r0, #82
 868 00e0 01D0     		beq	.L23
 869              		.loc 1 142 0 is_stmt 0 discriminator 1
 870 00e2 5528     		cmp	r0, #85
 871 00e4 DFD1     		bne	.L16
 872              	.L23:
 143:..\u8g2_csrc/u8x8_message.c ****     {
 144:..\u8g2_csrc/u8x8_message.c ****       if ( cursor == 0 )
 873              		.loc 1 144 0 is_stmt 1
 874 00e6 04B9     		cbnz	r4, .L24
 145:..\u8g2_csrc/u8x8_message.c **** 	cursor = button_cnt;
 875              		.loc 1 145 0
 876 00e8 4446     		mov	r4, r8
 877              	.LVL63:
 878              	.L24:
 146:..\u8g2_csrc/u8x8_message.c ****       cursor--;
 879              		.loc 1 146 0
 880 00ea 013C     		subs	r4, r4, #1
 881              	.LVL64:
 882 00ec E4B2     		uxtb	r4, r4
 883              	.LVL65:
 147:..\u8g2_csrc/u8x8_message.c ****       u8x8_draw_button_line(u8x8, y, u8x8_GetCols(u8x8), cursor, buttons);
 884              		.loc 1 147 0
 885 00ee 2B68     		ldr	r3, [r5]
 886 00f0 1A7C     		ldrb	r2, [r3, #16]	@ zero_extendqisi2
 887 00f2 0097     		str	r7, [sp]
 888 00f4 2346     		mov	r3, r4
 889 00f6 3146     		mov	r1, r6
 890 00f8 2846     		mov	r0, r5
 891              	.LVL66:
 892 00fa FFF7FEFF 		bl	u8x8_draw_button_line
 893              	.LVL67:
 894 00fe D2E7     		b	.L16
ARM GAS  C:\Users\info\AppData\Local\Temp\ccA70N4n.s 			page 48


 895              	.LVL68:
 896              	.L26:
 148:..\u8g2_csrc/u8x8_message.c ****     }    
 149:..\u8g2_csrc/u8x8_message.c ****   }  
 150:..\u8g2_csrc/u8x8_message.c ****   return 0;
 897              		.loc 1 150 0
 898 0100 0020     		movs	r0, #0
 899              	.LVL69:
 900              	.L18:
 151:..\u8g2_csrc/u8x8_message.c **** }
 901              		.loc 1 151 0
 902 0102 03B0     		add	sp, sp, #12
 903              		.cfi_def_cfa_offset 28
 904              		@ sp needed
 905 0104 BDE8F083 		pop	{r4, r5, r6, r7, r8, r9, pc}
 906              		.cfi_endproc
 907              	.LFE1:
 908              		.size	u8x8_UserInterfaceMessage, .-u8x8_UserInterfaceMessage
 909              		.section	.rodata.str1.4,"aMS",%progbits,1
 910              		.align	2
 911              	.LC0:
 912 0000 2000     		.ascii	" \000"
 913              		.text
 914              	.Letext0:
 915              		.file 2 "c:\\program files (x86)\\cypress\\psoc creator\\4.2\\psoc creator\\import\\gnu\\arm\\5.4.
 916              		.file 3 "c:\\program files (x86)\\cypress\\psoc creator\\4.2\\psoc creator\\import\\gnu\\arm\\5.4.
 917              		.file 4 "..\\u8g2_csrc\\u8x8.h"