ARM GAS  C:\Users\info\AppData\Local\Temp\cc8zRlCv.s 			page 1


   1              		.syntax unified
   2              		.cpu cortex-m3
   3              		.fpu softvfp
   4              		.eabi_attribute 20, 1
   5              		.eabi_attribute 21, 1
   6              		.eabi_attribute 23, 3
   7              		.eabi_attribute 24, 1
   8              		.eabi_attribute 25, 1
   9              		.eabi_attribute 26, 1
  10              		.eabi_attribute 30, 1
  11              		.eabi_attribute 34, 1
  12              		.eabi_attribute 18, 4
  13              		.thumb
  14              		.syntax unified
  15              		.file	"u8x8_d_uc1701_dogs102.c"
  16              		.text
  17              	.Ltext0:
  18              		.section	.gnu.lto_.profile.792a31ff,"",%progbits
  19 0000 789C6361 		.ascii	"x\234ca`d`e`\000\222o\030c\000\003\240\001U"
  19      60646065 
  19      6000926F 
  19      18630003 
  19      A00155
  20              		.text
  21              		.section	.gnu.lto_.inline.792a31ff,"",%progbits
  22 0000 789C6361 		.ascii	"x\234ca`d\000\201\205\014\010\000\024\271\307`\305\310"
  22      60640081 
  22      850C0800 
  22      14B9C760 
  22      C5C8
  23 0012 C0E4BF68 		.ascii	"\300\344\277h+#\003\177\223:\023H\224\211\033(3\301"
  23      2B23037F 
  23      933A1348 
  23      94891B28 
  23      33C1
  24 0024 8F859791 		.ascii	"\217\205\227\221\201y\226\341\004\277\026vf\036\240"
  24      817996E1 
  24      04BF1676 
  24      661EA0
  25 0033 E804BF09 		.ascii	"\350\004\277\011~\230\014\250b(\205.\317\200*\316@\210"
  25      7E980CA8 
  25      6228852E 
  25      CF802ACE 
  25      4088
  26 0045 4653CE00 		.ascii	"FS\316\000\000\236\350\030\306"
  26      009EE818 
  26      C6
  27              		.text
  28              		.section	.gnu.lto_.jmpfuncs.792a31ff,"",%progbits
  29 0000 789C6361 		.ascii	"x\234ca`d\000\0011\006\004`d\300\006\000\003\374\000"
  29      60640001 
  29      31060460 
  29      64C00600 
  29      03FC00
  30 0013 1D       		.ascii	"\035"
  31              		.text
  32              		.section	.gnu.lto_.pureconst.792a31ff,"",%progbits
ARM GAS  C:\Users\info\AppData\Local\Temp\cc8zRlCv.s 			page 2


  33 0000 789C6361 		.ascii	"x\234ca`d`f`\000\222R\000\000r\000$"
  33      60646066 
  33      60009252 
  33      00007200 
  33      24
  34              		.text
  35              		.section	.gnu.lto_u8x8_d_uc1701_ea_dogs102.792a31ff,"",%progbits
  36 0000 789C9D57 		.ascii	"x\234\235W[pT\307\021\235\236\331\367[\013\001l\224"
  36      5B7054C7 
  36      119D9ED9 
  36      F75B0B01 
  36      6C94
  37 0012 201E8A02 		.ascii	" \036\212\002\205^\250\012\223\252|\304\037\251\370"
  37      855EA80A 
  37      93AA7CC4 
  37      1FA9F8
  38 0021 3BDF4EA9 		.ascii	";\337N\251R\220\"v*\217\002\273\212\237\224\256v\265"
  38      52902276 
  38      2A8F02BB 
  38      8A9F94AE 
  38      76B5
  39 0033 0209F172 		.ascii	"\002\011\361r@`!\300\304V \346%\004\262\221\014\361"
  39      406021C0 
  39      C45620E6 
  39      2504B291 
  39      0CF1
  40 0045 1ADBC216 		.ascii	"\032\333\302\026H\030P,\004&\200\014\230\020aX\201\""
  40      4818502C 
  40      0426800C 
  40      98106158 
  40      8122
  41 0057 19039BEE 		.ascii	"\031\003\233\356\236{WZ\264\213\234l\325\366\235\231"
  41      9E7B575A 
  41      B48B9C6C 
  41      D5F69D99 
  42 0067 3BA7E7F4 		.ascii	";\247\347\364\231\276=\367\332\004\010\372\015\207\204"
  42      99BE3DF7 
  42      DA0408FA 
  42      0D8784
  43 0076 7801AF8F 		.ascii	"x\001\257\217\361\017\223\004\310\365\335BT\272\244"
  43      F10F9304 
  43      C8F5DD42 
  43      54BAA4
  44 0085 33B4C92B 		.ascii	"3\264\311+\014\227bkckg\353b\353e\353\323s \244A6\253"
  44      0C97626B 
  44      636B67EB 
  44      62EB65EB 
  44      D37320A4 
  45 009c 61978E55 		.ascii	"a\227\216U\005\302\3608\311\372\034\326\260\323j\270"
  45      05C2F038 
  45      C9FA1CD6 
  45      B0D36AB8 
  46 00ac A49BEF7B 		.ascii	"\244\233\357{\370\276\333\032\366X\015\257\325\360I"
  46      F8BEDB1A 
  46      F6580DAF 
  46      D5F049
  47 00bb 3F4F0CF0 		.ascii	"?O\014\360D?\004\364p\000r\250\00192\\wB\340\375`\225"
ARM GAS  C:\Users\info\AppData\Local\Temp\cc8zRlCv.s 			page 3


  47      443F04F4 
  47      700072A8 
  47      0139325C 
  47      7742E0FD 
  48 00d1 13EF87F5 		.ascii	"\023\357\207\365\360\363A\013\036\002\240\206\341\002"
  48      F0F3410B 
  48      1E02A086 
  48      E102
  49 00df 512195CD 		.ascii	"Q!\225\315\356p\272\334\036\257\317\037\310\011\007"
  49      EE70BADC 
  49      1EAFCF1F 
  49      C80907
  50 00ee 43502173 		.ascii	"CP!s\004\304m\220\324J\014\311G\022N\016\177R\347\231"
  50      04C46D90 
  50      D44A0CC9 
  50      47124E0E 
  50      7F52E799 
  51 0102 BBCB3022 		.ascii	"\273\3130\"\306\225\353\311\027\022\221\330\264\230"
  51      C695EBC9 
  51      171291D8 
  51      B498
  52 0110 12222905 		.ascii	"\022\")\005\224\345BI.\251\264\013\346\342\3143U\315"
  52      94E54249 
  52      2EA9B40B 
  52      E6E2CC33 
  52      55CD
  53 0122 8DEABE8C 		.ascii	"\215\352\276\214)\000\033v\023]\015_\006\250+!\017\273"
  53      29001B76 
  53      135D0D5F 
  53      06A82B21 
  53      0FBB
  54 0134 6FF4BCF9 		.ascii	"o\364\274\371\205C\375\010\004\266\353;{\276\366\027"
  54      8543FD08 
  54      04B6EB3B 
  54      7BBEF617 
  55 0144 34914FA3 		.ascii	"4\221O\243\365\327\206;\246\024\274\015\212|\376\015"
  55      F5D7863B 
  55      A614BC0D 
  55      8A7CFE0D 
  56 0154 726137E4 		.ascii	"ra7\344\012\034\022\260\007\012p\366\251\346\266^\233"
  56      0A1C12B0 
  56      070A70F6 
  56      A9E6B65E 
  56      9B
  57 0165 2A64E4F0 		.ascii	"*d\344\360\321\017\037Y\310\304/\015\205T`\257Fj6\304"
  57      D10F1F59 
  57      C8C42F0D 
  57      855460AF 
  57      466A36C4 
  58 0179 0DF6316E 		.ascii	"\015\3661n\313\231+k<\252\224q\215\327\357\364\331M"
  58      CB992B6B 
  58      3CAA9471 
  58      8DD7EFF4 
  58      D94D
  59 018b DCD60EAF 		.ascii	"\334\326\016\257QB\300\375\343\200\007\030\330\367U"
  59      5142C0FD 
  59      E3800718 
ARM GAS  C:\Users\info\AppData\Local\Temp\cc8zRlCv.s 			page 4


  59      D8F755
  60 019a D7398FFA 		.ascii	"\3279\217\3721\003\337n\275\334\3424\201}\035>c=\304"
  60      3103DF6E 
  60      BDDCE234 
  60      817D1D3E 
  60      633DC4
  61 01ad 940D9A9F 		.ascii	"\224\015\232\237$k\023p\020\012\010\260\266\247\266"
  61      246B1370 
  61      100A08B0 
  61      B6A7B6
  62 01bc 5FA9E719 		.ascii	"_\251\347\031\334d4\327\272\363\337$p|Sm\340u#^\225"
  62      DC6434D7 
  62      BAF3DF24 
  62      707C536D 
  62      E075235E 
  63 01d1 17537668 		.ascii	"\027SvhI\207\323\017gw\357j\332\350Q?c\344\216\372\366"
  63      4987D30F 
  63      6777EF6A 
  63      DAE8513F 
  63      63E48EFA 
  64 01e6 F316F2CF 		.ascii	"\363\026\362\317\265\301\315F\2742\217(\037\036K\331"
  64      B5C1CD46 
  64      BC328F28 
  64      1F1E4BD9 
  65 01f6 C435B4AF 		.ascii	"\3045\264\257\214x\324\317\031\027=\322\373^P\343\214"
  65      8C78D4CF 
  65      19173DD2 
  65      FB5E50E3 
  65      8C
  66 0207 775F34A2 		.ascii	"w_4\242?%\320;\031@\375\007\037o\362;\252\014\374\345"
  66      3F25D03B 
  66      1940FD07 
  66      1F6FF23B 
  66      AA0CFCE5 
  67 021b C1BB900F 		.ascii	"\301\273\220\017\255\370?\004\371\264\261(\304\021p"
  67      ADF83F04 
  67      F9B4B128 
  67      C41170
  68 022a 600EA8B1 		.ascii	"`\016\250\261w\016\374\"n$\223Q#\276\301\363AK`\021"
  68      770EFC22 
  68      6E249351 
  68      23BEC1F3 
  68      414B6011 
  69 023e B05AE816 		.ascii	"\260Z\350\026o+R\317\316M'\220\372.\276\351\001\332"
  69      6F2B52CF 
  69      CE4D2790 
  69      FA2EBEE9 
  69      01DA
  70 0250 C100503B 		.ascii	"\301\000P;\214S\034\223\3208\247Pk*\265\246\223\231"
  70      8C531C93 
  70      D038A750 
  70      6B2AB5A6 
  70      9399
  71 0262 01A45C9E 		.ascii	"\001\244\\\236\240\245f\262\235E\303\263\2719\207\232"
  71      A0A566B2 
  71      9D45C3B3 
  71      B939879A 
ARM GAS  C:\Users\info\AppData\Local\Temp\cc8zRlCv.s 			page 5


  72 0272 F9640AC8 		.ascii	"\371d\012\310\314%3\217\314|^\254\220m\221 z\3058\354"
  72      CC25338F 
  72      CC7C5EAC 
  72      906D9120 
  72      7AC538EC 
  73 0286 2A21534A 		.ascii	"*!SJf\001\032w\031\337_\310d\204\270\213\2215\224\212"
  73      66011A77 
  73      19DF5FC8 
  73      6484B88B 
  73      9135948A 
  74 029a 84947851 		.ascii	"\204\224xQ\327a\2131\362\227g(\322\250rRR\366\275u\323"
  74      D7618B31 
  74      F2976728 
  74      D2A87252 
  74      52F6BD75 
  75 02af BE01D655 		.ascii	"\276\001\326U\242(\361\255\335\230\270\036|P\024\351"
  75      A228F1AD 
  75      DD98B81E 
  75      7C5014E9 
  76 02bf 056DB001 		.ascii	"\005m\260\001hJ\327\206v\007\245\264\0007v\217\017\\"
  76      684AD786 
  76      7607A5B4 
  76      0037768F 
  76      0F5C
  77 02d1 BC0616A2 		.ascii	"\274\006\026\242\301\203\000h\307\3554\024=>\360\236"
  77      C1830068 
  77      C7ED3414 
  77      3D3EF09E 
  78 02e1 C674EDDC 		.ascii	"\306t\355\334\333mb<\330\215\324\3646\271,L3c\2162\206"
  78      DB6D623C 
  78      D88DD4F4 
  78      36B92C4C 
  78      33638E32 
  79 02f6 653FA631 		.ascii	"e?\2461\337\216t\037sj\214\227\222~\323\2157\034\026"
  79      DF8E741F 
  79      736A8C97 
  79      927ED38D 
  79      371C16
  80 0309 E60863FE 		.ascii	"\346\010c\376\316\030\"\007\357k\314\335\266\246\335"
  80      CE182207 
  80      EF6BCCDD 
  80      B6A6DD
  81 0318 5263FCD8 		.ascii	"Rc\374\330\275\376\316\353\253\224\205\351aL\23416\302"
  81      BDFECEEB 
  81      AB9485E9 
  81      614C9C31 
  81      36C2
  82 032a 7CA031B7 		.ascii	"|\2401\267?\337\263WiL\000\273C\335\027v\373,\314c\306"
  82      3FDFB357 
  82      694C00BB 
  82      43DD1776 
  82      FB2CCC63 
  83 033f 1C678C9D 		.ascii	"\034g\214\2350\037j\314\336\277&\342A\215\011bw\373"
  83      301F6ACC 
  83      DEBF26E2 
  83      418D0962 
  83      77FB
ARM GAS  C:\Users\info\AppData\Local\Temp\cc8zRlCv.s 			page 6


  84 0351 E15D1BFD 		.ascii	"\341]\033\375\026\246\321K\230\217\030\343 \314\307"
  84      16A6D14B 
  84      988F18E3 
  84      20CCC7
  85 0360 88C16B42 		.ascii	"\210\301kB*Q\345T\327\2402Dz\223@7!\026\337\326\251"
  85      2A51E554 
  85      D7A03244 
  85      7A934037 
  85      2116DFD6 
  86 0375 A84BE9D8 		.ascii	"\250K\351\330\3266p\321Y\361\310Xe\030\241\230\362&"
  86      D63670D1 
  86      59F1C858 
  86      6518A198 
  86      F226
  87 0387 25C2A003 		.ascii	"%\302\240\003*DT\221j\365\261\343\247Y\020\207\316\362"
  87      2A445491 
  87      6AF5B1E3 
  87      A7591087 
  87      CEF2
  88 0399 07EFDF0B 		.ascii	"\007\357\337\013\340\354-<\333Q\243\234\234\323\237"
  88      E0EC2D3C 
  88      DB51A39C 
  88      9CD39F
  89 03a8 36ECF9ED 		.ascii	"6\354\371\355\016\330V\271\236\207}\360\011T\300\011"
  89      0ED856B9 
  89      9E877DF0 
  89      0954C009 
  90 03b8 7ABEF05E 		.ascii	"z\276\360^\362V\313~7B\246\221\217Oa\007\360\312\320"
  90      F256CB7E 
  90      3742A691 
  90      8F4F6107 
  90      F0CAD0
  91 03cb 091531E5 		.ascii	"\011\0251\345g\212\266t\212\022)V\305[<\231\031\006"
  91      678AB674 
  91      8A122956 
  91      C55B3C99 
  91      1906
  92 03dd 92984502 		.ascii	"\222\230E\002Nj\2061\025\344\200\016g\231\035JJ\252"
  92      4E6A8631 
  92      15E4800E 
  92      67991D4A 
  92      4AAA
  93 03ef 2EA7C6C7 		.ascii	".\247\306\307\223\223!\236\234\032\345\312\020O\030"
  93      9393219E 
  93      9C1AE5CA 
  93      104F18
  94 03fe BA319EAE 		.ascii	"\2721\236\256'\342A\210\261\031\310\321\351TP\237QP"
  94      27E24188 
  94      B119C8D1 
  94      E954509F 
  94      5150
  95 0410 9338287B 		.ascii	"\2238({zPJ\\\205\252\013\321\341\215\317\352\274\247"
  95      7A504A5C 
  95      85AA0BD1 
  95      E18DCFEA 
  95      BCA7
  96 0422 5D3F30D0 		.ascii	"]?0\320\366\215\237\2708\361\221>c\226\243\204t\210"
ARM GAS  C:\Users\info\AppData\Local\Temp\cc8zRlCv.s 			page 7


  96      F68D9FB8 
  96      38F1913E 
  96      6396A384 
  96      7488
  97 0434 E34A5150 		.ascii	"\343JQP\307j\341\251Q\235\035\037\325\344\014QM\256"
  97      C76AE1A9 
  97      519D1D1F 
  97      D5E40C51 
  97      4DAE
  98 0446 51EE0C51 		.ascii	"Q\356\014Q}\017z0\252s\031\242\372\023\371\371G*\250"
  98      7D0F7A30 
  98      AA7319A2 
  98      FA13F9F9 
  98      472AA8
  99 0459 CF478372 		.ascii	"\317G\203rZ\324\316L@\2557Em\034\027OF.\347\237\306"
  99      5AD4CE4C 
  99      40AD3745 
  99      6D1C174F 
  99      462EE79F 
 100 046e A52FC5E5 		.ascii	"\245/\305\345\302(\027W\272\3006-\360\201M\226\300c"
 100      C2281757 
 100      BAC0362D 
 100      F0814D96 
 100      C063
 101 0480 14755BB4 		.ascii	"\024u[\264/N@\373bv\332\336\214\264\277x\032\355K)\332"
 101      2F4E40FB 
 101      6276DADE 
 101      8CB4BF78 
 101      1AED4B29 
 102 0495 FFD4B46F 		.ascii	"\377\324\264o@\244\375`\357\240]3\2342v\343\224>dOt"
 102      40A4FD60 
 102      EFA05D33 
 102      9C3276E3 
 102      943E644F 
 103 04aa AEF2A17F 		.ascii	"\256\362\241\177L\253)\310\003.\233\256\233\256E\366"
 103      4CAB29C8 
 103      032E9BAE 
 103      9BAE45F6 
 104 04ba 3B8B0BE9 		.ascii	";\213\013\351\011\272\202N\037K\256\215W\241\230]^\375"
 104      09BA824E 
 104      1F4BAE8D 
 104      57A1985D 
 104      5EFD
 105 04cc A1763835 		.ascii	"\241v85\335\203\017\227H=\205\333\267\034\271\027(\336"
 105      DD830F97 
 105      483D85DB 
 105      B71CB917 
 105      28DE
 106 04de 47ACA742 		.ascii	"G\254\247B?\373\340Z\371\245\366Q\177u2\371\030\343"
 106      3FFBE05A 
 106      F9A5F651 
 106      7F7532F9 
 106      18E3
 107 04f0 A0920E28 		.ascii	"\240\222\016(\1776\036\002\256\261\017\256\235\327\241"
 107      7F361E02 
 107      AEB10FAE 
 107      9DD7A1
ARM GAS  C:\Users\info\AppData\Local\Temp\cc8zRlCv.s 			page 8


 108 04ff 181767A5 		.ascii	"\030\027g\245=\226\322C\023(}#\273\322\276\214J\177"
 108      3D96D243 
 108      13287D23 
 108      BBD2BE8C 
 108      4A7F
 109 0511 F534A56F 		.ascii	"\3654\245o\246\224\376\327\250\322\211K\226\322\341"
 109      A694FED7 
 109      A8D2894B 
 109      96D2E1
 110 0520 EF26EDAD 		.ascii	"\357&\355\255Qi\377\375\204\264\223\306I\033\316,\355"
 110      5169FFFD 
 110      84B493C6 
 110      491BCE2C 
 110      ED
 111 0531 00FBE0E3 		.ascii	"\000\373\340\343\341\366\377+\355\327\243\322\336!i"
 111      E1F6FF2B 
 111      EDD7A3D2 
 111      DE2169
 112 0540 75BE7BD3 		.ascii	"u\276{\323\363\335\316Ur\303\311,\205|Z\022\313\252"
 112      F3DDCE55 
 112      72C3C92C 
 112      857C5A12 
 112      CBAA
 113 0552 80BB5699 		.ascii	"\200\273V\231|\206\313\344k\336\314\263\237Mb\275\022"
 113      7C86CBE4 
 113      6BDECCB3 
 113      9F4D62BD 
 113      12
 114 0563 90486DCA 		.ascii	"\220Hm\312\315\341\317j\314\263\263\022`\020rcj:\006"
 114      CDE1CF6A 
 114      CCB3B312 
 114      60107263 
 114      6A3A06
 115 0576 131DAC3E 		.ascii	"\023\035\254>;_+2]\327\260\217\223\303\372Pr\201\204"
 115      3B5F2B32 
 115      5DD7B08F 
 115      93C3FA50 
 115      728184
 116 0589 7B18CB4D 		.ascii	"{\030\313M\260g]\003O&\270\257\327@\007\344\222b\250"
 116      B0675D03 
 116      4F26B8AF 
 116      D74007E4 
 116      9262A8
 117 059c CF420A43 		.ascii	"\317B\012C\300\323\005\206FC \031|\35128\330\305\366"
 117      C0D30586 
 117      46432019 
 117      7CE93238 
 117      D8C5F6
 118 05af EC2E4885 		.ascii	"\354.H\205\377\214\272\340\304\030xM\351 \362\306>\202"
 118      FF8CBAE0 
 118      C418784D 
 118      E920F2C6 
 118      3E82
 119 05c1 B9698F20 		.ascii	"\271i\217 o\322f\300\227\231\357G\325\014\030\036\277"
 119      6FD266C0 
 119      9799EF47 
 119      D50C181E 
ARM GAS  C:\Users\info\AppData\Local\Temp\cc8zRlCv.s 			page 9


 119      BF
 120 05d2 4D23BC4D 		.ascii	"M#\274M|\252\177\203[\335\017\021\243\214_\337\360\365"
 120      7CAA7F83 
 120      5BDD0F11 
 120      A38C5FDF 
 120      F0F5
 121 05e4 095D935C 		.ascii	"\011]\223\\\015\325g\013\365J3\365b\265\017z\327\272"
 121      0DD5670B 
 121      F54A33F5 
 121      62B50F7A 
 121      D7BA
 122 05f6 B4AE2E78 		.ascii	"\264\256.x\200>\373Q\266\024f\246\246w;b\346\355\254"
 122      803EFB51 
 122      B61466A6 
 122      A6773B62 
 122      E6EDAC
 123 0609 EF92B702 		.ascii	"\357\222\267\002\276\035\315\227\207\234s\321\372\352"
 123      BE1DCD97 
 123      879C73D1 
 123      FAEA
 124 0617 53A05DCC 		.ascii	"S\240]\314\346\245g\245\2573[o\345\215}\001=i\016\016"
 124      E6A567A5 
 124      AF335B6F 
 124      E58D7D01 
 124      3D690E0E 
 125 062b 8DFD8C70 		.ascii	"\215\375\214p\201\015\036\341:8k\304\241\247 j\016N"
 125      810D1EE1 
 125      3A386BC4 
 125      A1A7206A 
 125      0E4E
 126 063d 397BF7D4 		.ascii	"9{\367\3246\257>\262B\360x\202\355\246\224JZ\333\235"
 126      36AF3EB2 
 126      42F07882 
 126      EDA6944A 
 126      5ADB9D
 127 0650 6F66D0C3 		.ascii	"of\320\303\352[\246$\005\270*\277\262L\344\303\220\246"
 127      EA5BA624 
 127      05B82ABF 
 127      B24CE4C3 
 127      90A6
 128 0662 8F02ED03 		.ascii	"\217\002\355\003\213\350\235\301\240v27]\242l{U)I\""
 128      8BE89DC1 
 128      A0763237 
 128      5DA26C7B 
 128      55294922 
 129 0676 7E9B8A48 		.ascii	"~\233\212H\226h\244\372'\332\303<\355\244g\347\346+"
 129      9668A4FA 
 129      27DAC33C 
 129      EDA467E7 
 129      E62B
 130 0688 6664CD00 		.ascii	"fd\315\000Q91\255*\213\326\274\024\255\373Vb\315\377"
 130      513931AD 
 130      2A8BD6BC 
 130      14ADFB56 
 130      62CDFF
 131 069b 9F3229C6 		.ascii	"\2372)\306\354\370\275\255Z\216\315\244V\332\255\371"
 131      ECF8BDAD 
ARM GAS  C:\Users\info\AppData\Local\Temp\cc8zRlCv.s 			page 10


 131      5A8ECDA4 
 131      56DAADF9 
 132 06ab 3A933A8B 		.ascii	":\223:\213\264\353B\034IK\035\236T\250\011\014\265\230"
 132      B4EB421C 
 132      494B1D9E 
 132      54A8090C 
 132      B598
 133 06bd 048A9E24 		.ascii	"\004\212\236$\2605;\001;\254d\002N\"\260\312$\360\034"
 133      B0353B01 
 133      3BAC6402 
 133      4E22B0CA 
 133      24F01C
 134 06d0 FB3E44BE 		.ascii	"\373>D\276\213\310\367\340\312\216\003\246b\305\346"
 134      8BC8F7E0 
 134      CA8E03A6 
 134      62C5E6
 135 06df 72834EDD 		.ascii	"r\203N\335/13\252\336\314\225R\236R\242Q=R\017.\300"
 135      2F3133AA 
 135      DECC9552 
 135      9E52A251 
 135      3D520F2E 
 136 06f4 713AA2CF 		.ascii	"q:\242\317G_6\007\220\302\232\267\016\255\263\223\350"
 136      475F3607 
 136      90C29AB7 
 136      0EADB393 
 136      E8
 137 0705 6EA802A8 		.ascii	"n\250\002\250\221\326\201\355\247c\004Y\304\207V\247"
 137      91D681ED 
 137      A7630459 
 137      C48756A7 
 138 0715 62C4E93B 		.ascii	"b\304\351;\037\356k\367\353\247\007\247\327J\316\320"
 138      1FEE6BF7 
 138      EBA707A7 
 138      D74ACED0 
 139 0725 2DD5178A 		.ascii	"-\325\027\212\265\3072\032\".i\312\224\261\307\000\225"
 139      B5C7321A 
 139      222E69CA 
 139      94B1C700 
 139      95
 140 0736 0D31082E 		.ascii	"\0151\010.,[>@\343\307\252f\307@|\215\227\226\340$\377"
 140      2C5B3E40 
 140      E3C7AA66 
 140      C7407C8D 
 140      9796E024 
 141 074b D1CB219C 		.ascii	"\321\313!\234\226#\360#\035\317\307HHh\264\024\272\203"
 141      9623F023 
 141      1DCFC748 
 141      4868B414 
 141      BA83
 142 075d DF31517E 		.ascii	"\3371Q~y\256\216'Wg9\332~\220\304\227\022\001\253\255"
 142      79AE8E27 
 142      576739DA 
 142      7E90C497 
 142      1201ABAD 
 143 0771 BC90285D 		.ascii	"\274\220(]L\315\320\017d\307\221\005\232\345B\364\203"
 143      4CCDD00F 
 143      64C79105 
ARM GAS  C:\Users\info\AppData\Local\Temp\cc8zRlCv.s 			page 11


 143      9AE542F4 
 143      83
 144 0782 D073D18F 		.ascii	"\320s\321\217N\233_\000I\200:9\272\237\274\324B\322"
 144      4E9B5F00 
 144      49803A39 
 144      BA9FBCD4 
 144      42D2
 145 0794 EA627457 		.ascii	"\352btW\243\251\361B\353uf\020\223S\271\002h\026\206"
 145      A3A9F142 
 145      EB756610 
 145      9353B902 
 145      681686
 146 07a7 EB124B06 		.ascii	"\353\022K\006\001W\261SW\206\001?\264\302\242\356\004"
 146      0157B153 
 146      5786013F 
 146      B4C2A2EE 
 146      04
 147 07b8 167219A4 		.ascii	"\026r\031\244x\2514n\356\316~BPy]#\323\312kH4\226ry"
 147      78A9346E 
 147      EECE7E42 
 147      50795D23 
 147      D3CA6B48 
 148 07d0 E50FB05B 		.ascii	"\345\017\260[\024{\224\277v\006A\215-\226\002_Y\327"
 148      147B94BF 
 148      7606418D 
 148      2D96025F 
 148      59D7
 149 07e2 CA5C3990 		.ascii	"\312\\9\220X\201\303\255+O\035\364\350a\200u2\327Vw"
 149      5881C3AD 
 149      2B4F1DF4 
 149      E8618075 
 149      32D75677 
 150 07f6 EF3774C5 		.ascii	"\3577t\305>Z7[\007\333 [/[\017['}\037\002.\213\005,"
 150      3E5A375B 
 150      07DB205B 
 150      2F5B0F5B 
 150      277D1F02 
 151 080e BFA8E8C5 		.ascii	"\277\250\350\305W\027-]P\276x\371\262\305\330Z\261\250"
 151      57172D5D 
 151      50BE78F9 
 151      B2C5D85A 
 151      B1A8
 152 0820 7C49F9AB 		.ascii	"|I\371\253\213K\237+)-_\362\207\245\313KK\026\024-\026"
 152      8B4B9F2B 
 152      292D5FF2 
 152      87A5CB4B 
 152      4B16142D 
 153 0835 36BAA17E 		.ascii	"6\272\241~\267|\251\363W\313\226\226\277\364\373W\370"
 153      B77CA9F3 
 153      57CB9696 
 153      BFF4FB57 
 153      F8
 154 0846 FAC75796 		.ascii	"\372\307W\226)\374\303bX\361_e\361\227|"
 154      29FCC362 
 154      58F15F65 
 154      F1977C
 155              		.text
ARM GAS  C:\Users\info\AppData\Local\Temp\cc8zRlCv.s 			page 12


 156              		.section	.gnu.lto_u8x8_uc1701_display_info.792a31ff,"",%progbits
 157 0000 789C2DCC 		.ascii	"x\234-\314=O\302P\024\306\361\373\334\333b\301\026\324"
 157      3D4FC250 
 157      14C6F1FB 
 157      DCDB62C1 
 157      16D4
 158 0012 9938FB11 		.ascii	"\2318\373\021\370b\356M\024c\\L\324\01151\301\304\227"
 158      F862EE4D 
 158      14635C4C 
 158      D4093531 
 158      C1C497
 159 0025 8A940A12 		.ascii	"\212\224\012\022\252\203F\023\337&G\0066c\324 \013M"
 159      AA834613 
 159      DF264706 
 159      3663D420 
 159      0B4D
 160 0037 8C0189E7 		.ascii	"\214\001\211\347\364\320\345\337\337\275\347\\KA\361"
 160      F4D0E5DF 
 160      DFBDE75C 
 160      4B41F1
 161 0046 B74C913F 		.ascii	"\267L\221?\245\3764\332\203\240\355%\272l\024nR76\007"
 161      A5FE34DA 
 161      83A0ED25 
 161      BA6C146E 
 161      52373607 
 162 005a 96F89D1D 		.ascii	"\226\370\235\035\257\004az\017,\022\353\375\316\357"
 162      AF04617A 
 162      0F2C12EB 
 162      FDCEEF
 163 0069 947C5BB9 		.ascii	"\224|[\271J\236m\241C\254~u\356\246\364\210\273\303"
 163      4A9E6DA1 
 163      43AC7E75 
 163      EEA6F488 
 163      BBC3
 164 007b DE6756B8 		.ascii	"\336gV\270D|]\015\367\214\320\"\366\242h?\035\326\360"
 164      447C5D0D 
 164      F78CD022 
 164      F6A2683F 
 164      1DD6F0
 165 008e B712D0C9 		.ascii	"\267\022\320\311\355\317u\277 \003/\374\372\350c\247"
 165      EDCF75BF 
 165      20032FFC 
 165      FAE863A7 
 166 009e 0BB14B7C 		.ascii	"\013\261K|\033\325\342\2740Cl\336?\2549B^~:\214\307"
 166      1BD5E2BC 
 166      30436CDE 
 166      3FAC3942 
 166      5E7E3A8C 
 167 00b3 AED0266E 		.ascii	"\256\320&n<~o\243t\351\257\037\370\241]6f\242\025NQ"
 167      3C7E6FA3 
 167      74E9AF1F 
 167      F8A15D36 
 167      66A2154E 
 168 00c8 9C68E082 		.ascii	"\234h\340\202C\373\034#\261\344\320F\304\311\240\301"
 168      43FB1C23 
 168      B1E4D046 
 168      C4C9A0C1 
ARM GAS  C:\Users\info\AppData\Local\Temp\cc8zRlCv.s 			page 13


 169 00d8 9941C871 		.ascii	"\231A\310qP\347de=\207s\316,N8.j\034\017g\234<\002N"
 169      50E76465 
 169      3D8773CE 
 169      2C4E382E 
 169      6A1C0F67 
 170 00f0 4126E764 		.ascii	"A&\347dd\036\307\234\005\034\241\250\320BI\375\003\231"
 170      641EC79C 
 170      051CA1A8 
 170      D04249FD 
 170      0399
 171 0102 427F5F   		.ascii	"B\177_"
 172              		.text
 173              		.section	.gnu.lto_u8x8_d_uc1701_dogs102_init_seq.792a31ff,"",%progbits
 174 0000 789C4D92 		.ascii	"x\234M\222\375ORQ\030\307\357\341\305$\001{\177\275"
 174      FD4F5251 
 174      18C7EFE1 
 174      C524017B 
 174      7FBD
 175 0012 BDFCD68F 		.ascii	"\275\374\326\217-\373\305\177\241\377\243?D\0264sks"
 175      2DFBC57F 
 175      A1FFA33F 
 175      44163473 
 175      6B73
 176 0024 CB8DADE5 		.ascii	"\313\215\255\345R\223\200\2107+.\367\212\206()\012\005"
 176      52938088 
 176      372B2EF7 
 176      8A862829 
 176      0A05
 177 0036 F816B335 		.ascii	"\370\026\2635K\034\254Mf\210\271\024\264\357\271\347"
 177      4B1CAC4D 
 177      6688B914 
 177      B4EFB9E7 
 178 0046 5983EDB3 		.ascii	"Y\203\355\263\313g\337\347<\367<\347\\\223\304$\376"
 178      CB67DFE7 
 178      3CF73CE7 
 178      5C93C424 
 178      FE
 179 0057 339B24FA 		.ascii	"3\233$\372'I-\003\013\273\312\376\316\206\301e\224\330"
 179      27492D03 
 179      0BBBCAFE 
 179      CE86C165 
 179      94D8
 180 0069 0983FFCE 		.ascii	"\011\203\377\316=\337\262sg\3546\264\341\316\226\272"
 180      3DDFB273 
 180      67EC36B4 
 180      E1CE96BA 
 181 0079 457C15FA 		.ascii	"E|\025\372l<\244\332Dz\013\372gI\033\261\212\324\303"
 181      6C3CA4DA 
 181      447A0BFA 
 181      67491BB1 
 181      8AD4C3
 182 008c 176B8F02 		.ascii	"\027k\217\002\021\212oB\267\274\307\356\016\021_\204"
 182      118A6F42 
 182      B7BCC7EE 
 182      0E115F84 
 183 009c 8E557319 		.ascii	"\216Us\031\263Ho@\027\243k3\364\346\020_\034\237\332"
 183      B3486F40 
ARM GAS  C:\Users\info\AppData\Local\Temp\cc8zRlCv.s 			page 14


 183      17A36B33 
 183      F4E6105F 
 183      1C9FDA
 184 00af E911A90C 		.ascii	"\351\021\251\014\363\245S\012\023z\035\2727\347\333"
 184      F3A5530A 
 184      137A1DBA 
 184      37E7DB
 185 00be A37D0CF2 		.ascii	"\243}\014\362\342Jet\310*\342k\355\333d\3726\253u-N"
 185      E24A6574 
 185      C82AE26B 
 185      EDDB64FA 
 185      36AB752D 
 186 00d3 AD0F7975 		.ascii	"\255\017yu\315\271\275\331%\342+\274\231\333\365\244"
 186      CDB9BDD9 
 186      25E22BBC 
 186      99DBF5A4 
 187 00e3 53E86568 		.ascii	"S\350eh\353\233\343\330 \252\355\320\375\277\0035\213"
 187      EB9BE3D8 
 187      20AAEDD0 
 187      FDBF0335 
 187      8B
 188 00f4 482FB5AB 		.ascii	"H/\265\253\244\353\377\231\230>\323\244?\\\241\021\035"
 188      A4EBFF99 
 188      983ED3A4 
 188      3F5CA111 
 188      1D
 189 0105 FAF13587 		.ascii	"\372\3615\207\025Z|\201\357K}|H\247y\036\352QJ\017D"
 189      155A7C81 
 189      EF4B7D7C 
 189      48A7791E 
 189      EA514A0F 
 190 011a F11D5874 		.ascii	"\361\035Xt\263\2310\211\360\034\264\177\376\373*M|\026"
 190      B3993089 
 190      F01CB47F 
 190      FEFB2A4D 
 190      7C16
 191 012c BAB0F174 		.ascii	"\272\260\361t\232:\337\205\026w\263\3034\302\031h\250"
 191      9A3ADF85 
 191      1677B3C3 
 191      34C21968 
 191      A8
 192 013d DE08D136 		.ascii	"\336\010\3216\272\241\023\205}\207Q\024\217\261\366"
 192      BAA11385 
 192      7D875114 
 192      8FB1F6
 193 014c 91983ED2 		.ascii	"\221\230>\322\253_\352,\235\274\015\352}\271\274B\327"
 193      AB5FEA2C 
 193      9DBC0DEA 
 193      7DB9BC42 
 193      D7
 194 015d F69A571F 		.ascii	"\366\232W\037U\207J\364f+t\275\344TI\273\240\221\204"
 194      55874AF4 
 194      662B74BD 
 194      E45449BB 
 194      A09184
 195 0170 73C72EAA 		.ascii	"s\307.\252\223z\357\335|\213\216\37644\020\363hTm\201"
 195      937AEFDD 
ARM GAS  C:\Users\info\AppData\Local\Temp\cc8zRlCv.s 			page 15


 195      7C8B8EFE 
 195      343410F3 
 195      68546D81 
 196 0184 E6378A61 		.ascii	"\3467\212a\272\250Q^\335\030p\035\030E|\012\252\324"
 196      BAA8515E 
 196      DD18701D 
 196      18457C0A 
 196      AAD4
 197 0196 028A8D9A 		.ascii	"\002\212\215\232\361\317\257|\024\324\350\200:\240\231"
 197      F1CFAF7C 
 197      14D4E880 
 197      3AA099
 198 01a5 71AD49BD 		.ascii	"q\255I\275\315\320\2023\362\202\026\233\240\251z\304"
 198      CDD08233 
 198      F282169B 
 198      A0A97AC4 
 199 01b5 4BA991A7 		.ascii	"K\251\221\247\301\037\017E\253\237\374M\351\223\203"
 199      C11F0F45 
 199      AB9FFC4D 
 199      E99383
 200 01c4 247D0386 		.ascii	"$}\003\206\366;\227\364;\337V\313Q{o\254\257\177\244"
 200      F63B97F4 
 200      3BDF56CB 
 200      517B6FAC 
 200      AF7FA4
 201 01d7 6FD0E232 		.ascii	"o\320\3422\032\330=\231\2553\231\365\310,\210\307\032"
 201      1AD83D99 
 201      AD3399F5 
 201      C82C88C7 
 201      1A
 202 01e8 58052B4C 		.ascii	"X\005+L\3702\010\203\"y\001\344\301\027\362\3732\373"
 202      F8320883 
 202      227901E4 
 202      C117F2FB 
 202      32FB
 203 01fa 8C478E34 		.ascii	"\214G\2164\013\226\300\"y\006,\200y\362O \015\346\310"
 203      0B96C022 
 203      79062C80 
 203      79F24F20 
 203      0DE6C8
 204 020d 67410ACC 		.ascii	"gA\012\314\220'\301G0M>\005\022`\022h@\005q\240P\036"
 204      9027C147 
 204      304D3E05 
 204      12601268 
 204      400571A0 
 205 0223 031FC07B 		.ascii	"\003\037\300{\362w`\002D\311#\264\375\020\371[\020\000"
 205      F2776002 
 205      44C923B4 
 205      FD10F95B 
 205      1000
 206 0235 6F801FF8 		.ascii	"o\200\037\370\200\227\311\022\373\312z\245\177\3431"
 206      8097C912 
 206      FBCA7AA5 
 206      7FE331
 207 0244 5DBD     		.ascii	"]\275"
 208              		.text
 209              		.section	.gnu.lto_u8x8_d_uc1701_dogs102_powersave0_seq.792a31ff,"",%progbits
ARM GAS  C:\Users\info\AppData\Local\Temp\cc8zRlCv.s 			page 16


 210 0000 789C2D8B 		.ascii	"x\234-\213\275\016\301P\030\206\317\327\037\021D'\011"
 210      BD0EC150 
 210      1886CFD7 
 210      1F114427 
 210      09
 211 0011 496F82A9 		.ascii	"Io\202\251\227\345\022:\264\211\304f \021\203\201TQ"
 211      97E5123A 
 211      B489C466 
 211      20118381 
 211      5451
 212 0023 AD0E864E 		.ascii	"\255\016\206N\"1\010\213Qb\220`5P1\370}\233\317I\236"
 212      2231088B 
 212      51629060 
 212      355031F8 
 212      7D9BCF49 
 213 0038 9CEFC993 		.ascii	"\234\357\311\223W\021$\222w\007|\011\361\226\310\267"
 213      57112492 
 213      77077C09 
 213      F196C8B7 
 214 0048 4F6E3A96 		.ascii	"On:\226lY\320\227\340\247\247\027\345\023'JA\343\326"
 214      6C59D097 
 214      E0A7A717 
 214      E513274A 
 214      41E3D6
 215 005b 66A7712E 		.ascii	"f\247q.AW\275\350\225\343\252B\033\317u3\303\325O\306"
 215      4157BDE8 
 215      95E3AA42 
 215      1BCF7533 
 215      C3D54FC6 
 216 006f 5B2BE8C8 		.ascii	"[+\350\310\234\025\350\321\371\264R\234\013\320\305"
 216      9C15E8D1 
 216      F9B4529C 
 216      0BD0C5
 217 007e 3570FE63 		.ascii	"5p\376c\031Z\017o}\225k/\031/\277\217\271\306Y\202^"
 217      195A0F6F 
 217      7D956B2F 
 217      192FBF8F 
 217      B9C65982 
 218 0093 ACF321CB 		.ascii	"\254\363!\313\271\010m/\366\253\27413k]\263j\313\022"
 218      B9086D2F 
 218      F6ABBC31 
 218      336B5DB3 
 218      6ACB12
 219 00a6 95759A92 		.ascii	"\225u\232\222N\025\235<|\001\360\301\204\330\307`\004"
 219      4E159D3C 
 219      7C01F0C1 
 219      84D8C760 
 219      04
 220 00b7 86C00503 		.ascii	"\206\300\005\003\340\220.($C\374\000\312BTO"
 220      E0902E28 
 220      2443FC00 
 220      CA42544F 
 221              		.text
 222              		.section	.gnu.lto_u8x8_d_uc1701_dogs102_powersave1_seq.792a31ff,"",%progbits
 223 0000 789C2D8D 		.ascii	"x\234-\215\271\012\302@\024E\347%Q\004\203\251\004\205"
 223      B90AC240 
 223      1445E725 
ARM GAS  C:\Users\info\AppData\Local\Temp\cc8zRlCv.s 			page 17


 223      510483A9 
 223      0485
 224 0012 FC8456F9 		.ascii	"\374\204V\371,?!E\002\342\017\330XX\250q\313fa\221J"
 224      2C3F2145 
 224      02E20FD8 
 224      5858A871 
 224      CB666191 
 225 0027 050B97C6 		.ascii	"\005\013\227\306F\260\023\324\326B\\\012\327;<\007\016"
 225      46B013D4 
 225      D6425C0A 
 225      D73B3C07 
 225      0E
 226 0038 3387C365 		.ascii	"3\207\303e4AB\236\033\340\227\020o\205B\367\330\313"
 226      3441429E 
 226      1BE09710 
 226      6F8542F7 
 226      D8CB
 227 004a 5C155715 		.ascii	"\\\025W\025\364%\370\361\351'9\351Di\350\265\276\336"
 227      F425F8F1 
 227      E92739E9 
 227      4469E8B5 
 227      BEDE
 228 005c 199C8BD0 		.ascii	"\031\234\213\320E+y\351\\S\320\373*i\352\\\333r\274"
 228      452B79E9 
 228      5C53D0FB 
 228      2A69EA5C 
 228      DB72BC
 229 006f 71A286CA 		.ascii	"q\242\206\312Y\203\036\274O=\3159\017\235]\"\357?V\241"
 229      59831EBC 
 229      4F3DCD39 
 229      0F9D5D22 
 229      EF3F56A1 
 230 0083 CB783BFD 		.ascii	"\313x;\375\377\034\310\361\374\373\230\030\234\025\350"
 230      FF1CC8F1 
 230      FCFB9818 
 230      9C15E8
 231 0092 D939EDB3 		.ascii	"\3319\355\263\234\013\320N\315=\2235\266\253M\273\342"
 231      9C0BD04E 
 231      CD3D9335 
 231      B6AB4DBB 
 231      E2
 232 00a3 AA0A954C 		.ascii	"\252\012\225L\212\311\244\262I>\256\010\204  \366!\030"
 232      8AC9A4B2 
 232      493EAE08 
 232      842020F6 
 232      2118
 233 00b5 803EE881 		.ascii	"\200>\350\201.\360\310\0244\"K\374\000\350\343TS"
 233      2EF0C814 
 233      34224BFC 
 233      00E8E354 
 233      53
 234              		.text
 235              		.section	.gnu.lto_u8x8_d_uc1701_dogs102_flip0_seq.792a31ff,"",%progbits
 236 0000 789C2D8C 		.ascii	"x\234-\214=\013\202P\030F\357\253%A\242SP\340\237\250"
 236      3D0B8250 
 236      1846EFAB 
 236      2541A253 
ARM GAS  C:\Users\info\AppData\Local\Temp\cc8zRlCv.s 			page 18


 236      50E09FA8 
 237 0014 C99FD54F 		.ascii	"\311\237\325OpPhjmi(\010\354[kh\220\006\011\032\202"
 237      7050686A 
 237      6D692808 
 237      EC5B6B68 
 237      9006091A 
 238 0029 866AA968 		.ascii	"\206j\251h\011\262\261\2060\032\372|\344\355\302\341"
 238      09B2B186 
 238      301AFA7C 
 238      E4EDC2E1 
 239 0039 DEC3E1B9 		.ascii	"\336\303\341\271)A\"9w\300/!\336\022yN\324\311\304\222"
 239      29412239 
 239      77C02F21 
 239      DE12794E 
 239      D4C9C492 
 240 004d 230BFA12 		.ascii	"#\013\372\022<z\016\002-q\"\005\032\327\226{\235s\001"
 240      3C7A0E02 
 240      2D712205 
 240      1AD7967B 
 240      9D7301
 241 0060 BA68052F 		.ascii	"\272h\005/\225k\032\352O\355\213\3065L\306k\333\257"
 241      956B1AEA 
 241      4FED8BC6 
 241      354CC66B 
 241      DBAF
 242 0072 CB9C53D0 		.ascii	"\313\234S\320\223\373\251)\234s\320\331\315w\377c\031"
 242      93FBA929 
 242      9C73D0D9 
 242      CD77FF63 
 242      19
 243 0083 BA3A6CBC 		.ascii	"\272:l\274\377\327\315d<\377>B\235\263\004\275\332\347"
 243      FFD7CD64 
 243      3CFF3E42 
 243      9DB304BD 
 243      DAE7
 244 0095 6396731E 		.ascii	"c\226s\036Z\235\355\266\2529\261*\015\253\354\310\022"
 244      5A9DEDB6 
 244      AA39B12A 
 244      0DABECC8 
 244      12
 245 00a6 150D1A91 		.ascii	"\025\015\032\221A%\203\006\270|\340\201!\261\367A\017"
 245      41258306 
 245      B87CE081 
 245      21B1F741 
 245      0F
 246 00b7 744107B4 		.ascii	"tA\007\264\201K\206\2401\231\342\007\3673T\255"
 246      814B86A0 
 246      3199E207 
 246      F73354AD 
 247              		.text
 248              		.section	.gnu.lto_u8x8_d_uc1701_dogs102_flip1_seq.792a31ff,"",%progbits
 249 0000 789C2D8B 		.ascii	"x\234-\213=\013AQ\030\307\317s\216\267\"&E\235/\301"
 249      3D0B4151 
 249      18C7CF73 
 249      8EB72226 
 249      459D2FC1 
 250 0014 E463F908 		.ascii	"\344c\371\010\206{\313hc0\030\324\365\356\222\014&)"
ARM GAS  C:\Users\info\AppData\Local\Temp\cc8zRlCv.s 			page 19


 250      867BCB68 
 250      633018D4 
 250      F5EE920C 
 250      2629
 251 0026 A22C6C26 		.ascii	"\242,l&\312e4\350\312\340\345\372\237\036\247~\235\347"
 251      CA6534E8 
 251      CAE0E5FA 
 251      9F1EA77E 
 251      9DE7
 252 0038 D7AF7F48 		.ascii	"\327\257\177H\2200\357\001\370\022\342#ih{\355\230/"
 252      9030EF01 
 252      F812E223 
 252      69687BED 
 252      982F
 253 004a 6D252820 		.ascii	"m%( \270\367\352\317\222\306\211\"P\277\272=\2448g\241"
 253      B8F7EACF 
 253      92C68922 
 253      50BFBA3D 
 253      A43867A1 
 254 005e 9BE6EC9D 		.ascii	"\233\346\354\235\340\032\206\326\254\375Ur]\233\361"
 254      E01A86D6 
 254      ACFD5572 
 254      5D9BF1
 255 006d CE72EB8A 		.ascii	"\316r\353\212s\010zv\276\325\010\3474tqw\235\377XA?"
 255      73087A76 
 255      BED508E7 
 255      34747177 
 255      9DFF5841 
 256 0082 C74A25CA 		.ascii	"\307J%\312\265a\306\313\3409Oq\226\320\233u9\3059g\240"
 256      B561C6CB 
 256      E0394F71 
 256      96D09B75 
 256      39C53967 
 257 0097 ABC9B41C 		.ascii	"\253\311\264\034+LK\345F\251h+I9M#\322\224\327\324\307"
 257      2B4C4BE5 
 257      46A9682B 
 257      49394D23 
 257      D294D7D4 
 258 00ac E7822118 		.ascii	"\347\202!\030\020{\017tA\007\264A\0138\244\005\215\251"
 258      107B0F74 
 258      4107B441 
 258      0B38A405 
 258      8DA9
 259 00be 207EBEEB 		.ascii	" ~\276\353T\034"
 259      541C
 260              		.text
 261              		.section	.gnu.lto_.symbol_nodes.792a31ff,"",%progbits
 262 0000 789C55CC 		.ascii	"x\234U\314\273\015\3020\024\205\341\343W\234w\201\030"
 262      BB0DC230 
 262      1485E1E3 
 262      579C7781 
 262      18
 263 0011 004A4661 		.ascii	"\000JFa\252\353\302\035R@Bb\002W\314a\021\211\002Zj"
 263      AAEBC21D 
 263      52404262 
 263      0257CC61 
 263      1189025A 
ARM GAS  C:\Users\info\AppData\Local\Temp\cc8zRlCv.s 			page 20


 264 0026 C80094D0 		.ascii	"\310\000\224\320\221\330)p\365\351\327}H0l\031\000\236"
 264      91D82970 
 264      F5E9D77D 
 264      48306C19 
 264      009E
 265 0038 1170B801 		.ascii	"\021p\270\001#g\263\006\224\202Y\000B\201E\031\217r"
 265      2367B306 
 265      94825900 
 265      42814519 
 265      8F72
 266 004a 1115322A 		.ascii	"\021\0252*U\2205\304\302\003\300\230\025\300Z\342IW"
 266      559035C4 
 266      C203C098 
 266      15C05AE2 
 266      4957
 267 005c 24922E49 		.ascii	"$\222.I&]\223J\272\240,\351\234t\322\232\362\377\026"
 267      265D934A 
 267      BAA02CE9 
 267      9C74D29A 
 267      F2FF16
 268 006f 68317C96 		.ascii	"h1|\226\002\015\334w\244\206\217\270K\317B\316\272~"
 268      020DDC77 
 268      A4868FB8 
 268      4BCF42CE 
 268      BA7E
 269 0081 F63A59C2 		.ascii	"\366:Y\302\357\356\\\240\300\020\254\340\272I\015\037"
 269      EFEE5CA0 
 269      C010ACE0 
 269      BA490D1F 
 270 0091 2C61F771 		.ascii	",a\367q\356\217Q{\232\367\2039\354\363\321\351\351\300"
 270      EE8F517B 
 270      9AF78339 
 270      ECF3D1E9 
 270      E9C0
 271 00a3 BEDE1BFC 		.ascii	"\276\336\033\374\000\354\220E~"
 271      00EC9045 
 271      7E
 272              		.text
 273              		.section	.gnu.lto_.refs.792a31ff,"",%progbits
 274 0000 789C6361 		.ascii	"x\234ca`d\020e```c`bdfbbcb\346db\341bb\345eb\023d\000"
 274      60641065 
 274      60606063 
 274      60626466 
 274      62626362 
 275 0020 00060600 		.ascii	"\000\006\006\000|"
 275      7C
 276              		.text
 277              		.section	.gnu.lto_.decls.792a31ff,"",%progbits
 278 0000 789CBD58 		.ascii	"x\234\275X\013PT\331\231\356sO\003Mw\203\2128\261RT"
 278      0B5054D9 
 278      99EE734F 
 278      034D7783 
 278      8A38B152 
 279 0015 C69D6194 		.ascii	"\306\235a\224\255J\0148\263\263\326n\325\326Lew\222"
 279      AD4A0C38 
 279      B3B3D66E 
 279      D5D64C65 
ARM GAS  C:\Users\info\AppData\Local\Temp\cc8zRlCv.s 			page 21


 279      7792
 280 0027 4AD526A9 		.ascii	"J\325&\251\312\314\324V\205\252\236\266\273\321\336"
 280      CACCD456 
 280      85AA9EB6 
 280      BBD1DE
 281 0036 816EA6BB 		.ascii	"\201n\246\273q$\251T.\362\320AE\360\301\333\001\021"
 281      7124A954 
 281      2EF2D041 
 281      45F0C1DB 
 281      0111
 282 0048 15C50702 		.ascii	"\025\305\007\002\242\010H\007\225\370DD@\031P\020_\214"
 282      A2084807 
 282      95F84444 
 282      40195010 
 282      5F8C
 283 005a 8AF25254 		.ascii	"\212\362RT\024\366?\347\334W\303%\223\251\332\244\365"
 283      14F63FE7 
 283      DC57C325 
 283      93A9DAA4 
 283      F5
 284 006b E3DEFF9C 		.ascii	"\343\336\377\234\357\376\347\373\377\363\274W\253A\032"
 284      EFFEE7FB 
 284      FFF3BC57 
 284      AB411A
 285 007a F2FBEF37 		.ascii	"\362\373\35775\232\247~\032M+\247\321L\301O\007e\237"
 285      359AA77E 
 285      1A4D2BA7 
 285      D14CC14F 
 285      07659F
 286 008d 6AE45F20 		.ascii	"j\344_ \340C\240\376\034\360k\300'\200\377\001\374\016"
 286      E043A0FE 
 286      1CF06BC0 
 286      2780FF01 
 286      FC0E
 287 009f F019C00A 		.ascii	"\360\031\300\012\260\003\374\201\3679\\]\200D\300\037"
 287      B003FC81 
 287      F7395C5D 
 287      8044C01F 
 288 00af 007F04FC 		.ascii	"\000\177\004\374\011i|~\304\327\"\270V\002B\000\241"
 288      09697C7E 
 288      C4D722B8 
 288      56024200 
 288      A1
 289 00c0 8037895F 		.ascii	"\2007\211_\270\376\022\256\013\001ap\377\033\300\257"
 289      B8FE12AE 
 289      0B016170 
 289      FF1BC0AF 
 290 00d0 052D3C94 		.ascii	"\005-<\224\375\000\260\012\220\004\260\000\326\002\222"
 290      FD00B00A 
 290      9004B000 
 290      D60292
 291 00df 015F004C 		.ascii	"\001_\000L\200\024\300\032\342\033\320\016\317\244\302"
 291      8014C01A 
 291      E21BD00E 
 291      CFA4C2
 292 00ee F523401A 		.ascii	"\365#@\032\340c@6`; \007\360+\000\211\363?\340\252\007"
 292      E0634036 
ARM GAS  C:\Users\info\AppData\Local\Temp\cc8zRlCv.s 			page 22


 292      603B2007 
 292      F02B0089 
 292      F33FE0AA 
 293 0103 FC18E007 		.ascii	"\374\030\340\007\330\004\310\004l\006d!9v\273\020\347"
 293      D804C804 
 293      6C066421 
 293      3976BB10 
 293      E7
 294 0114 6742EC9F 		.ascii	"gB\354\237\010\361\2139\011\002^.\\\363\000\371\200"
 294      08F18B39 
 294      09025E2E 
 294      5CF300F9 
 294      80
 295 0125 02402160 		.ascii	"\002@!`\007\340k\364\267\345\205p\264p]\254a\361/\321"
 295      07E06BF4 
 295      B7E58570 
 295      B4705DAC 
 295      61F12FD1 
 296 0139 B098E7C3 		.ascii	"\260\230\347\303\325\237\324\0018@\000\321\016\230\013"
 296      D59FD401 
 296      384000D1 
 296      0E980B
 297 0148 98823A4C 		.ascii	"\230\202:L8\000#\300@4\023=\200y\304\277\020\037\211"
 297      380023C0 
 297      4034133D 
 297      8079C4BF 
 297      101F89
 298 015b 0D0182A7 		.ascii	"\015\001\202\247\265)\376\2106,\264K\372\343\213Yx\344"
 298      B529FE88 
 298      362CB44B 
 298      FAE38B59 
 298      78E4
 299 016d 97388DBB 		.ascii	"\2278\215\273\346\257p\377\360=\270\177\374\036\334"
 299      E6AF70FF 
 299      F03DB87F 
 299      FC1EDC
 300 017c 3F7D0FEE 		.ascii	"?}\017\356k\016%\367?(\326u\243.H\001\242?\2150\366"
 300      6B0E25F7 
 300      3F28D675 
 300      A32E4801 
 300      A23F8D30 
 301 0191 49529070 		.ascii	"IR\220p\325\0109\202\277\034\375\253\021Y\222sD\377"
 301      D5083982 
 301      BF1CFDAB 
 301      11599273 
 301      44FF
 302 01a3 C17F8EF2 		.ascii	"\301\177\216\362\221\242\302\207G\347\021\375\311EH"
 302      91A2C287 
 302      47E711FD 
 302      C94548
 303 01b2 FA894CE4 		.ascii	"\372\211L\344\353\024\321\336\025M\2609\371\001\205"
 303      EB14D1DE 
 303      154DB039 
 303      F90185
 304 01c1 3F41BDD0 		.ascii	"?A\275\320>R6K]c1\350\234C\033N \014>\341\276\367E\331"
 304      3E52364B 
 304      5D6331E8 
ARM GAS  C:\Users\info\AppData\Local\Temp\cc8zRlCv.s 			page 23


 304      9C431B4E 
 304      200C3EE1 
 305 01d9 474B0FF0 		.ascii	"GK\017\360\360\313\344y\356\337\345\314\034:0Q\241\327"
 305      F0CBE479 
 305      EEDFE5CC 
 305      1C3A3051 
 305      A1D7
 306 01eb 42BCE813 		.ascii	"B\274\350\023#Z\241%E\207S\357\354\323\215q(L\217\246"
 306      235AA125 
 306      458753EF 
 306      ECD38D71 
 306      284C8FA6 
 307 01ff 10B11FD5 		.ascii	"\020\261\037\325\276\010b6\251\256\366\216\036\324\342"
 307      BE086236 
 307      A9AEF68E 
 307      1ED4E2
 308 020e 7072CF5D 		.ascii	"pr\317]\251\352:\023\210\"\364{\210\347\276\206\247"
 308      A9EA3A13 
 308      8822F47B 
 308      88E7BE86 
 308      A7
 309 021f 1F26F33C 		.ascii	"\037&\363<B\207\221\036\035D\030\355CK\211\2500=\374"
 309      4287911E 
 309      1D4418ED 
 309      434B89A8 
 309      303DFC
 310 0232 5DCFF36B 		.ascii	"]\317\363k\371\241\022\336\177\241\006\275\033\206\""
 310      F9A112DE 
 310      7FA106BD 
 310      1B8622
 311 0241 C334E810 		.ascii	"\3034\350\020\212 >\011\013\035@a\250\034\205\021\377"
 311      8A203E09 
 311      0B1D4061 
 311      A81C8511 
 311      FF
 312 0252 FB8ACA4E 		.ascii	"\373\212\312N\007\341#\21060\270\355\341z,50\272!\254"
 312      07E12388 
 312      3630B8ED 
 312      E17A2C35 
 312      30BA21AC 
 313 0266 9CE7E7A2 		.ascii	"\234\347\347\242Jh\240Bn\000\332So\341\210z\013\335"
 313      4A68A042 
 313      6E00DA53 
 313      6FE1887A 
 313      0BDD
 314 0278 697B2F18 		.ascii	"i{/\030h\314\304\321~D\243\356\270~\263#P*\254b\205"
 314      68CCC4D1 
 314      7E44A3EE 
 314      B87EB323 
 314      502AAC62 
 315 028d 57522A0A 		.ascii	"WR*\0121\204\036\242GZ0\207/\345\337\016\0063T\217\026"
 315      31841EA2 
 315      475A3087 
 315      2FE5DF0E 
 315      0633548F 
 316 02a2 8159307A 		.ascii	"\201Y0z\343\333@V\033\001\346\343\224\273}\006V\273"
 316      E3DB4056 
ARM GAS  C:\Users\info\AppData\Local\Temp\cc8zRlCv.s 			page 24


 316      1B01E6E3 
 316      94BB7D06 
 316      56BB
 317 02b4 104C7E20 		.ascii	"\020L~ \245\210\303\025,\377mC\027w\010us\301l\034\310"
 317      A588C315 
 317      2CFF6D43 
 317      17770875 
 317      73C16C1C 
 318 02c9 6AD4E146 		.ascii	"j\324\341FV\327\272w\360Z0\276\306\214\201\342\306J"
 318      56D7BA77 
 318      F05A30BE 
 318      C68C81E2 
 318      C64A
 319 02db 1D1E6146 		.ascii	"\035\036aF\331\275\302\014#{j\271\242\371\020\326\374"
 319      D9BDC20C 
 319      237B6AB9 
 319      A2F910D6 
 319      FC
 320 02ec 76EF9657 		.ascii	"v\357\226Wz<\311\250u\307\352\233\375\0305\022\314s"
 320      7A3CC9A8 
 320      75C7EA9B 
 320      FD183512 
 320      CC73
 321 02fe B5FD91F8 		.ascii	"\265\375\221\370+L\253D\231\241L\346\263\013\35570\316"
 321      2B4CAB44 
 321      99A14CE6 
 321      B30BED37 
 321      30CE
 322 0310 65759B9B 		.ascii	"eu\233\233\032N\351p)3\232{\276\351\320\342\012f$5\234"
 322      1A4EE970 
 322      29339A7B 
 322      BEE9D0E2 
 322      0A662435 
 323 0325 AA0AC267 		.ascii	"\252\012\302g\230qfj\334;\207\265\314\201\371\272\252"
 323      9871666A 
 323      DC3B87B5 
 323      CC81F9BA 
 323      AA
 324 0336 EA14C22D 		.ascii	"\352\024\302-\254n\367\313\211!\222\243\3050\\\246\260"
 324      AC6EF7CB 
 324      892192A3 
 324      C5305CA6 
 324      B0
 325 0347 62BC2C66 		.ascii	"b\274,f\343\245\361\302\271=F|\215\222\271\266\246\334"
 325      E3A5F1C2 
 325      B93D467C 
 325      8D92B9B6 
 325      A6DC
 326 0359 D706A48F 		.ascii	"\327\006\244\217\240\235\305'\363\372\010\015:\001="
 326      A09DC527 
 326      F3FA080D 
 326      3A013D
 327 0368 73167A06 		.ascii	"s\026z\006\265@w-\026\272\353\002\024\236\207Bad\015"
 327      B540772D 
 327      16BAEB02 
 327      149E8742 
 327      61640D
ARM GAS  C:\Users\info\AppData\Local\Temp\cc8zRlCv.s 			page 25


 328 037b FE928EAC 		.ascii	"\376\222\216\254K\3205\027\345\216_\254g\203\370dV\367"
 328      4BD03517 
 328      E58E5FAC 
 328      6783F864 
 328      56F7
 329 038d 3D3DEE67 		.ascii	"==\356gM\224\336\346\353\264\2635qe\326&F7,>@\306V+"
 329      4D94DEE6 
 329      EBB4B335 
 329      7165D626 
 329      46372C3E 
 330 03a5 3471596E 		.ascii	"4qYn\342\022\022\332\020{7\204\365\356\275\364}\303"
 330      E21212DA 
 330      107B3784 
 330      F5EEBDF4 
 330      7DC3
 331 03b7 46FC90A5 		.ascii	"F\374\220\245`GG\177f\240^\030\200\231\337=\000\363"
 331      6047477F 
 331      66A05E18 
 331      8099DF3D 
 331      00F3
 332 03c9 CFAC6FF2 		.ascii	"\317\254o\3623\246\023~f2\037\362\013\324\016\215\326"
 332      33A6137E 
 332      66321FF2 
 332      0BD40E8D 
 332      D6
 333 03da 40FD51A8 		.ascii	"@\375Q\250\327\240\016d\024fg\312\203]\203\010\017\261"
 333      D7A00E64 
 333      146667CA 
 333      835D8308 
 333      0FB1
 334 03ec 566E9CDD 		.ascii	"Vn\234\335WN\022\275\204$zjj\216\"\325KX\252\3336\217"
 334      574E12BD 
 334      84247A6A 
 334      6A8E22D5 
 334      4B58AADB 
 335 0402 9406E097 		.ascii	"\224\006\340\227,\017\345Y\017\333\024ss\267\261\226"
 335      2C0FE559 
 335      0FDB1473 
 335      73B7B196 
 336 0412 84D70D2D 		.ascii	"\204\327\015-u\311\341-\221f\016\025\242\221T\240o@"
 336      75C9E12D 
 336      91660E15 
 336      A29154A0 
 336      6F40
 337 0424 FA1241FA 		.ascii	"\372\022A\372u(\274&\314\316\322\254\022\177\234\252"
 337      7528BC26 
 337      CCCED2AC 
 337      127F9CAA 
 338 0434 A54DEC3F 		.ascii	"\245M\354?t\2719@L\365t\0077U\034\210\251~\217\246\372"
 338      74B93940 
 338      4CF57407 
 338      37551C88 
 338      A97E8FA6 
 339 0449 0668E991 		.ascii	"\006h\351\221\265t\213\251\026'K\010\233,\375G\306\037"
 339      B5748BA9 
 339      16274B08 
 339      9B2CFD47 
ARM GAS  C:\Users\info\AppData\Local\Temp\cc8zRlCv.s 			page 26


 339      C61F
 340 045b E970066D 		.ascii	"\351p\006m\022\255\233\272qZ\207\213\231\221\262wSA"
 340      12AD9BBA 
 340      715A878B 
 340      9991B277 
 340      5341
 341 046d 103EC08C 		.ascii	"\020>\300\214\374\272\261\363~\354)\035\230\031y#u\001"
 341      FCBAB1F3 
 341      7EEC291D 
 341      98197923 
 341      7501
 342 047f B89AD55D 		.ascii	"\270\232\325]\365\026\027\004\342:f\334\256\036/\015"
 342      F5161704 
 342      E23A66DC 
 342      AE1E2F0D 
 343 048f C2CDCCB8 		.ascii	"\302\315\314\270\365\244!/@\232\366l\001<\332V\324\033"
 343      F5A4212F 
 343      409AF66C 
 343      013CDA56 
 343      D41B
 344 04a1 805B18E1 		.ascii	"\200[\030\341\345\345\011XE\273\231\261\361j\315\273"
 344      E5E50958 
 344      45BB99B1 
 344      F16ACDBB 
 345 04b1 7880DD1F 		.ascii	"x\200\335\037\350\270\376\032\3411f\\\232\034:\211q"
 345      E8B8FE1A 
 345      E131665C 
 345      9A1C3A89 
 345      71
 346 04c2 9A1F350E 		.ascii	"\232\0375\016\366\245]\365\3039\314\330\363jg\265\021"
 346      F6A55DF5 
 346      C339CCD8 
 346      F36A67B5 
 346      11
 347 04d3 EF6246F3 		.ascii	"\357bF\363x\303.?|\210\031\351\033\366\357\014\306\247"
 347      78C32E3F 
 347      7C8819E9 
 347      1BF6EF0C 
 347      C6A7
 348 04e5 9891BAB1 		.ascii	"\230\221\272\261\274\036\343Nf\264\366V>\365\307\017"
 348      BC1EE34E 
 348      66B4F656 
 348      3EF5C70F 
 349 04f5 99D17B33 		.ascii	"\231\321{3\353\177\361\030\273\177\330\336\226\345\207"
 349      EB7FF118 
 349      BB7FD8DE 
 349      96E587
 350 0504 93FCA9F1 		.ascii	"\223\374\251\361\272r]\235\026oc\306\375\263/\306\014"
 350      BA725D9D 
 350      166F63C6 
 350      FDB32FC6 
 350      0C
 351 0515 780F335E 		.ascii	"x\0173^6\255\255E\270\226\0315M/.\372\341\026f<^[^\212"
 351      36ADAD45 
 351      B8961935 
 351      4D2F2EFA 
 351      E116663C 
ARM GAS  C:\Users\info\AppData\Local\Temp\cc8zRlCv.s 			page 27


 352 052d F07D66B4 		.ascii	"\360}f\264n\037\314\3460\037@\215W\023[\223\374\360"
 352      6E1FCCE6 
 352      301F408D 
 352      57135B93 
 352      FCF0
 353 053f 566634F6 		.ascii	"Vf4\366\014\0340\340\335\314\250\250O\031\024V=/\331"
 353      0C1C30E0 
 353      DDCCA8A8 
 353      4F191456 
 353      3D2FD9
 354 0552 0FCA360D 		.ascii	"\017\3126\015\235\322\343\223\264r\301Pyn\273?\012\237"
 354      9DD2E393 
 354      B472C150 
 354      796EBB3F 
 354      0A9F
 355 0564 F68B080F 		.ascii	"\366\213\010\017\237\037^BFE\337\261\311\370\206\232"
 355      9F1F5E42 
 355      4645DFB1 
 355      C9F8869A 
 356 0574 1E9E4F33 		.ascii	"\036\236O3\322\014?\205\376\336\302\315\027'\310O\311"
 356      D20C3F85 
 356      FEDEC2CD 
 356      1727C84F 
 356      C9
 357 0585 78FF3319 		.ascii	"x\3773\031\365\032J\367\326\267\031\370\212\317(u\320"
 357      F51A4AF7 
 357      D6B719F8 
 357      8ACF2875 
 357      D0
 358 0596 97DA4BE7 		.ascii	"\227\332K\347\306\2732utKp.\357]\213\351\224} \220\245"
 358      C6BB3275 
 358      744B702E 
 358      EF5D8BE9 
 358      947D2090 
 359 05ab 99CEE835 		.ascii	"\231\316\3505\012\327y\227\203rxo\022\246\316_\250\350"
 359      0AD77997 
 359      8372786F 
 359      12A6CE5F 
 359      A8E8
 360 05bd 38A120B7 		.ascii	"8\241 \267_\226t\214\251PO*\250\333d\352K\025\252Bq"
 360      5F96748C 
 360      A9504F2A 
 360      A8DB64EA 
 360      4B15AA42 
 361 05d2 9B1CDC43 		.ascii	"\233\034\334C\265\340\216+\274n\221\275N\250x\215\222"
 361      B5E08E2B 
 361      BC6E91BD 
 361      4EA8788D 
 361      92
 362 05e3 99F932F3 		.ascii	"\231\3712\363\271\012S\351\264P\246\216\253P\225\331"
 362      B90A53E9 
 362      B450A68E 
 362      AB5095D9 
 363 05f3 AA90B50E 		.ascii	"\252\220\265\016\371Ro\243\351\235\326*s\037\251\305"
 363      F9526FA3 
 363      E99DD62A 
 363      731FA9C5 
ARM GAS  C:\Users\info\AppData\Local\Temp\cc8zRlCv.s 			page 28


 364 0603 A54CEC36 		.ascii	"\245L\3546\231;\254\346\367\224\202;)\313\035Q\343*"
 364      993BACE6 
 364      F794823B 
 364      29CB1D51 
 364      E32A
 365 0615 F556CB7E 		.ascii	"\365V\313~\237\250q\225=\366T9r&\325G\016\213\217.X"
 365      9FA87195 
 365      3DF65439 
 365      7226D547 
 365      0E8B8F2E 
 366 062a DE890C23 		.ascii	"\336\211\014#\317\353\010K#,V\032\311W\221rT=SI\252"
 366      CFEB084B 
 366      232C561A 
 366      C9579172 
 366      543D5349 
 367 063f 32A013B2 		.ascii	"2\240\023\262\310\307j\211\242\275\232%\034\323x8\203"
 367      C8C76A89 
 367      A2BD9A25 
 367      1CD37838 
 367      83
 368 0650 A0D7A0AA 		.ascii	"\240\327\240\252\215\250z%\360\241}\264\231\213@i\\"
 368      8DA87A25 
 368      F0A17DB4 
 368      998B4069 
 368      5C
 369 0661 384A01AC 		.ascii	"8J\001\254\005\254\003\254\007d\002\246P8J\206\353V"
 369      05AC03AC 
 369      076402A6 
 369      50384A86 
 369      EB56
 370 0673 C046C006 		.ascii	"\300F\300\006\300W\200M\200,\000\017H\007\244\002\222"
 370      C057804D 
 370      802C000F 
 370      4807A402 
 370      92
 371 0684 00195CB8 		.ascii	"\000\031\\\270\"\232\356\315\301y\2747\005\323\265y"
 371      229AEECD 
 371      C179BC37 
 371      05D3B579 
 372 0694 5468525A 		.ascii	"ThRZ\322o\313\"a\035\350\332\\\2207\007\367\321u\200"
 372      D26FCB22 
 372      611DE8DA 
 372      5C903707 
 372      F7D17580 
 373 06a8 7BBAA9E9 		.ascii	"{\272\251\351}4?B]{6\350\375{jg\275\224\327\362c\322"
 373      7D343F42 
 373      5D7B36E8 
 373      FD7B6A67 
 373      BD94D7F2 
 374 06be 4BDBA1A1 		.ascii	"K\333\241\241m\234\264\253\220N\243r\253\373\367<\011"
 374      6D9CB4AB 
 374      904EA372 
 374      ABFBF73C 
 374      09
 375 06cf 982F08F4 		.ascii	"\230/\010\364\316*P\363\377\256\216\254\247\235)\353"
 375      CE2A50F3 
 375      FFAE8EAC 
ARM GAS  C:\Users\info\AppData\Local\Temp\cc8zRlCv.s 			page 29


 375      A79D29EB 
 376 06df 0CCA0D3F 		.ascii	"\014\312\015?G\221V\015\312\345\304\015\177\374\340"
 376      4791560D 
 376      CAE5C40D 
 376      7FFCE0
 377 06ee FD1E3F3C 		.ascii	"\375\036?<\026\340s\246\013ag\272\352\206\341\335\302"
 377      16E073A6 
 377      0B6167BA 
 377      EA86E1DD 
 377      C2
 378 06ff 398E27E7 		.ascii	"9\216'\347\254\201\273\005\315z\014\021\323\026\256"
 378      AC81BB05 
 378      CD7A0C11 
 378      D316AE
 379 070e 1EBE3807 		.ascii	"\036\2768\007o\243\306\333\335\351\215I\010i\215\363"
 379      6FA3C6DB 
 379      DDE98D49 
 379      08698DF3 
 380 071e 6115F6F9 		.ascii	"a\025\366\371\031\215\013\265\021\302MDxD\004\331\367"
 380      198D0BB5 
 380      11C24D44 
 380      784404D9 
 380      F7
 381 072f 8A3823BA 		.ascii	"\2128#\272\017\331P\250+\366QW\304\324\371tm\001\027"
 381      0FD950A8 
 381      2BF65157 
 381      C4D4F974 
 381      6D0117
 382 0742 86F239C8 		.ascii	"\206\3629\310\234\0272W\"tm#\334\237\204\300k\001\307"
 382      9C173257 
 382      22746D23 
 382      DC9F84C0 
 382      6B01C7
 383 0755 01C70035 		.ascii	"\001\307\0005\200\012\300a\300!\300A\300\001@9`?`\037"
 383      800AC061 
 383      C021C041 
 383      C0014039 
 383      603F601F 
 384 0769 A00CB017 		.ascii	"\240\014\260\027\260\007\260\033P\012\330\005\330\351"
 384      B007B01B 
 384      500AD805 
 384      D8E9
 385 0777 3334273A 		.ascii	"34':\025\023\255\020:\270D\236=\307\024\313\201\272"
 385      1513AD10 
 385      3AB8449E 
 385      3DC714CB 
 385      81BA
 386 0789 CE3CE181 		.ascii	"\316<\341\201\277\277\316\347\235\322\034\207Mx\246"
 386      BFBFCEE7 
 386      9DD21C87 
 386      4D78A6
 387 0798 4AE57AFC 		.ascii	"J\345z\374L\346\326\251q\225\013\347\230\314\255W\343"
 387      4CE6D6A9 
 387      71950BE7 
 387      98CCAD57 
 387      E3
 388 07a9 2AF69911 		.ascii	"*\366\231\021\231\332\240FUl\036C2\325\353Km\234\261"
ARM GAS  C:\Users\info\AppData\Local\Temp\cc8zRlCv.s 			page 30


 388      99DAA046 
 388      556C1E43 
 388      32D5EB4B 
 388      6D9CB1
 389 07bc 6CDE94B9 		.ascii	"l\336\224\271Mj\\\345\226\320#sO\253q\225\253b\247\314"
 389      4D6A5CE5 
 389      96D02373 
 389      4FAB7195 
 389      AB62A7CC 
 390 07d0 3DA3C655 		.ascii	"=\243\306U.\363\3552\267Y\215\253\314n\233\314\375\213"
 390      2EF3ED32 
 390      B7598DAB 
 390      CC6E9BCC 
 390      FD8B
 391 07e2 1A5799DD 		.ascii	"\032W\231\335+\331\212-\341\234\300\226\266\204\306"
 391      2BD98A2D 
 391      E19CC096 
 391      B684C6
 392 07f1 E9696BCC 		.ascii	"\351ik\314^\300\326I8\253\243\253\002]Z'\333f\310n\310"
 392      5EC0D649 
 392      38ABA3AB 
 392      025D5A27 
 392      DB66C86E 
 393 0806 56ACAB9D 		.ascii	"V\254\253\235\352|\205\373\272\3169\214~\004&g\337t"
 393      EA7C85FB 
 393      BACE398C 
 393      7E042667 
 393      DF74
 394 0818 BAF268A3 		.ascii	"\272\362h\243\230\265U\334B\231s\024\306x%<\314V\301"
 394      98B555DC 
 394      42997314 
 394      C678253C 
 394      CC56C1
 395 082b 59581A05 		.ascii	"YX\032\005%\233N\233d~\221\226&L\246\300\003\360\267"
 395      259B4E9B 
 395      647E9196 
 395      264CA6C0 
 395      03F0B7
 396 083e 9A239FA6 		.ascii	"\232#\237\246\304\365\242\032\346\026[t\213Z\026\220"
 396      C4F5A21A 
 396      E6165B74 
 396      8B5A1690 
 397 084e 4597E8BC 		.ascii	"E\227\350\274%\037\345+\351\222\301b\251U\306\322\257"
 397      251FE52B 
 397      E992C162 
 397      A955C6D2 
 397      AF
 398 085f 1E8B22F4 		.ascii	"\036\213\"\364\232N#\237i\246\344;\323\311*\273\276"
 398      9A4E239F 
 398      69A6E43B 
 398      D3C92ABB 
 398      BE
 399 0870 CCBEABCE 		.ascii	"\314\276\253\316V\270\256\312\016eJN\000\375\336t\372"
 399      56B8AECA 
 399      0E654A4E 
 399      00FDDE74 
 399      FA
ARM GAS  C:\Users\info\AppData\Local\Temp\cc8zRlCv.s 			page 31


 400 0881 4F55935A 		.ascii	"OU\223Z\257Lj\003$\265N-\251\365>I\255SKj\253OR\353"
 400      AF4C6A03 
 400      24B54E2D 
 400      A9F53E49 
 400      AD534B6A 
 401 0899 6952BFA6 		.ascii	"iR\277\246Ie\211<\222\361\006I$\2216 '\262N\221\310"
 401      4965893C 
 401      92F10649 
 401      24913620 
 401      27B24E91 
 402 08ae 23D96F32 		.ascii	"#\331o2\371\260]\240oU\345G\311g\226\035\331\364\314"
 402      F9B05DA0 
 402      6F55E547 
 402      C967961D 
 402      D9F4CC
 403 08c1 52E27B66 		.ascii	"R\342{fau9\031?\"ud\231\337!\357\224%\342N\231~\341"
 403      61753919 
 403      3F227564 
 403      99DF21EF 
 403      9425E24E 
 404 08d8 AB1DDC5B 		.ascii	"\253\035\334[\305|q\005\3377^\222XTy\207\347C\264t\344"
 404      C57C7105 
 404      DF375E92 
 404      58547987 
 404      E743B474 
 405 08ed 94C9D2E0 		.ascii	"\224\311\322\340\226\\\366\302{\033L}\356-\262ae\337"
 405      965CF6C2 
 405      7B1B4C7D 
 405      EE2DB261 
 405      65DF
 406 08ff 36E03FB3 		.ascii	"6\340?\263\015)yO_\253\037\356dFv\243\267p\016\274e"
 406      0D29794F 
 406      5FAB1FEE 
 406      644676A3 
 406      B7700EBC 
 407 0914 A1531C66 		.ascii	"\241S\034fm\034\037\277\262\235\275w\221\361\304\336"
 407      6D1C1FBF 
 407      B29DBD77 
 407      91F1C4DE 
 408 0924 BB06320E 		.ascii	"\273\0062\016w\341\205\263\016\304f\232\26334g\300\236"
 408      77E185B3 
 408      0EC4669A 
 408      B3333467 
 408      C09E
 409 0936 3AFE62CC 		.ascii	":\376b\314\010*\373\340\215\262f\3627\005\273\322\274"
 409      082AFBE0 
 409      8DB266F2 
 409      3705BBD2 
 409      BC
 410 0947 9949FC5C 		.ascii	"\231I\374\\\312CMbX\3504\247%\026\373>\366\027*s\353"
 410      CA434D62 
 410      58E834A7 
 410      2516FB3E 
 410      F6172A73 
 411 095c CED19B1C 		.ascii	"\316\321\233\034\356\235M\332T\376pn\200r\263\366\225"
 411      EE9D4DDA 
 411      54FE706E 
ARM GAS  C:\Users\info\AppData\Local\Temp\cc8zRlCv.s 			page 32


 411      8072B3F6 
 411      95
 412 096d 715EDAAC 		.ascii	"q^\332\254\357L\224\235\236Cc8/\305p\260\270zW\260\364"
 412      EF4C949D 
 412      9E436338 
 412      2FC570B0 
 412      B87A57B0 
 413 0982 3E798163 		.ascii	">y\201c_\324\356U\266\007J\301^d\205\317\256\035\252"
 413      5FD4EE55 
 413      B6074AC1 
 413      5E6485CF 
 413      AE1DAA
 414 0995 0F9E3DDA 		.ascii	"\017\236=\332\026\032\355%1\332\252\311[]\230E\353\035"
 414      161AED25 
 414      31DAAAC9 
 414      5B5D9845 
 414      EB1D
 415 09a7 8AC9E39B 		.ascii	"\212\311\343\233R\370\017\010\007\235\225\"=\007\221"
 415      52F80F08 
 415      079D9522 
 415      3D0791
 416 09b6 9E1523BD 		.ascii	"\236\025#\275L#\335\2225\270%\020\017\317\026\251\332"
 416      4C23DD92 
 416      35B82510 
 416      0FCF16A9 
 416      DA
 417 09c7 CBEFC4B5 		.ascii	"\313\357\304\265\343\003\234\244\265\215i\335\233|\336"
 417      E3039CA4 
 417      B58D69DD 
 417      9B7CDE
 418 09d6 39BBD476 		.ascii	"9\273\324v*\365\252(\365`z\377!\203 \365\033Q*pP\253"
 418      2AF5AA28 
 418      F5607AFF 
 418      218320F5 
 418      1B512A70 
 419 09ec 24F50A48 		.ascii	"$\365\012Hm\025\245vP\251\031I\307\317h\361\332\300"
 419      6D15A576 
 419      50A91949 
 419      C7CF68F1 
 419      DAC0
 420 09fe 59A476E6 		.ascii	"Y\244v\346v\364\352\004\247#\242S\322\323\235\222\323"
 420      76F4EA04 
 420      A723A253 
 420      D2D39D92 
 420      D3
 421 0a0f 6BE0B453 		.ascii	"k\340\264Stz\235:=r\276\376~ \316\233\315iV\377\350"
 421      747A9D3A 
 421      3D72BEFE 
 421      7E20CE9B 
 421      CD6956FF 
 422 0a24 4090E0B4 		.ascii	"@\220\340\264G\251\264Kr\372\0158\355\022\235vS\247"
 422      47A9B44B 
 422      72FA0D38 
 422      ED129D76 
 422      53A7
 423 0a36 6529DE91 		.ascii	"e)\336\221@\274\2379}\226\236r\217\245\220\354\004,"
 423      40BC9F39 
ARM GAS  C:\Users\info\AppData\Local\Temp\cc8zRlCv.s 			page 33


 423      7D969E72 
 423      8FA590EC 
 423      042C
 424 0a48 855DA317 		.ascii	"\205]\243\027\037\313\335}\203\245\360\333\355M\015"
 424      1FCBDD7D 
 424      83A5F0DB 
 424      ED4D0D
 425 0a57 3A650E3F 		.ascii	":e\016?}C\221\302^\232\302\233b\012\323\306;\332\304"
 425      7D4391C2 
 425      5E9AC29B 
 425      620AD3C6 
 425      3BDAC4
 426 0a6a 6887EF47 		.ascii	"h\207\357G\2022-\241\240\036y\266\366\210\242\372\250"
 426      82322DA1 
 426      A01E79B6 
 426      F688A2FA 
 426      A8
 427 0a7b A8F2B483 		.ascii	"\250\362\264\203\351~\330\313D\251M\256\301\316\222"
 427      E97ED8CB 
 427      44A94DAE 
 427      C1CE92
 428 0a8a 27FEB3B6 		.ascii	"'\376\263\266\177\233\266\337/\265\237Q[ va~\267\321"
 428      7F9BB6DF 
 428      2FB59F51 
 428      5B207661 
 428      7EB7D1
 429 0a9d 9B890803 		.ascii	"\233\211\010\003\335\222\233\277%6\177\2076\177\263"
 429      DD929BBF 
 429      25367F87 
 429      367FB3
 430 0aac A477B33F 		.ascii	"\244w\263?\356f\315\337(\253\312g\337\224s\245\346k"
 430      EE66CDDF 
 430      28ABCA67 
 430      DF9473A5 
 430      E66B
 431 0abe 1E7774EA 		.ascii	"\036wt\352%I\367XNn%_O\232]\323\000\325t_\324\344=z"
 431      2549F758 
 431      4E6E255F 
 431      4F9A5DD3 
 431      00D5745F 
 432 0ad6 713440D0 		.ascii	"q4@\320\224\3134\001\003\335\2255\335\0255}K5m\030O"
 432      94CB3401 
 432      03DD9535 
 432      DD15357D 
 432      4B356D18 
 433 0aeb 391D8427 		.ascii	"9\035\204'\231\246\356\2643\303\272wv\361\255\305tM"
 433      99A6EEB4 
 433      33C3BA77 
 433      76F1ADC5 
 433      744D
 434 0afd 2BDC960A 		.ascii	"+\334\226\012k\032=\206?`\016\244\227\001\015-\371\030"
 434      6B1A3D86 
 434      3F600EA4 
 434      97010D2D 
 434      F918
 435 0b0f C6C943EE 		.ascii	"\306\311C\356\035\322\356\327\215\245~8\207}a[\337\375"
 435      1DD2EED7 
ARM GAS  C:\Users\info\AppData\Local\Temp\cc8zRlCv.s 			page 34


 435      8DA57E38 
 435      877D615B 
 435      DFFD
 436 0b21 68CCC88E 		.ascii	"h\314\310\216\344\377\004\346\251{\317\037\352\330\221"
 436      E4FF04E6 
 436      A97BCF1F 
 436      EAD891
 437 0b30 7C3DF930 		.ascii	"|=\3710\332t6o\277\226|\010\344\205\245#D9O\236pz\015"
 437      DA74366F 
 437      BF967C08 
 437      E485A523 
 437      44394F9E 
 438 0b47 59A8E971 		.ascii	"Y\250\351q\002\330O\322\373\253\014!\231\302y\365\003"
 438      02D84FD2 
 438      FBAB0C21 
 438      99C279F5 
 438      03
 439 0b58 C4DE0BE1 		.ascii	"\304\336\013\341\304:\310\021\372\020\027\">D;p\377"
 439      C43AC811 
 439      FA101722 
 439      3E443B70 
 439      FF
 440 0b69 8BF33A25 		.ascii	"\213\363:%\273\375\257\261\367\025\227\326\004\262x"
 440      BBFDAFB1 
 440      F71597D6 
 440      04B278
 441 0b78 BD55B528 		.ascii	"\275U\265(\211\367j\3210\027\202\036\011\321\312\017"
 441      89F76AD1 
 441      3017821E 
 441      09D1CA0F 
 442 0b88 3E12A21D 		.ascii	">\022\242\035\241\321^.\3331\026\200kX\264c\351\251"
 442      A1D15E2E 
 442      DB311680 
 442      6B58B463 
 442      E9A9
 443 0b9a E3C2E7EF 		.ascii	"\343\302\347\357\000\272\336\035<!|\177\366'M\264\275"
 443      00BADE1D 
 443      3C217C7F 
 443      F6274DB4 
 443      BD
 444 0bab 28099835 		.ascii	"(\011\2305\330gb\260O9\032l\371\261\336\241\031\301"
 444      D86762B0 
 444      4F391A6C 
 444      F9B1DEA1 
 444      19C1
 445 0bbd C2E9128D 		.ascii	"\302\351\022\215Q\025\343T\3763Q\376\344\256\252G\376"
 445      5115E354 
 445      FE3351FE 
 445      E4AEAA47 
 445      FE
 446 0bce D3839D95 		.ascii	"\323\203\235\225\235s\261cW\260\020l\341G<\214\214\347"
 446      9D73B163 
 446      57B0106C 
 446      E1473C8C 
 446      8CE7
 447 0be0 10EAA810 		.ascii	"\020\352\250\020\252\374\330\250\020\352\013\032\352"
 447      AAFCD8A8 
ARM GAS  C:\Users\info\AppData\Local\Temp\cc8zRlCv.s 			page 35


 447      10EA0B1A 
 447      EA
 448 0bed DDD10775 		.ascii	"\335\321\007u0fY\2507NN\216\032\004\027\365\222\213"
 448      306659A8 
 448      374E4E8E 
 448      1A0417F5 
 448      928B
 449 0bff 97335CBC 		.ascii	"\2273\\\274\024\\LP\027\233\032\316=\363\303\274\201"
 449      145C4C50 
 449      179B1ACE 
 449      3DF3C3BC 
 449      81
 450 0c10 BA482B3D 		.ascii	"\272H+=\376;\301C\217\344\341\325\014\017\257\004\017"
 450      FE3BC143 
 450      8FE4E1D5 
 450      0C0FAF04 
 450      0F
 451 0c21 AFA987ED 		.ascii	"\257\251\207\355\373\356\300\236Y\314<\014\016\214\267"
 451      FBEEC09E 
 451      59CC3C0C 
 451      0E8CB7
 452 0c30 0883D4FB 		.ascii	"\010\203\324\373Jr19\303\305\244\340b\212\272\270\224"
 452      4A723139 
 452      C3C5A4E0 
 452      628ABAB8 
 452      94
 453 0c41 F178AE72 		.ascii	"\361x\256r\273\032\3609\214\360\230nW\344Jv\345\372"
 453      BB1AF039 
 453      8CF0986E 
 453      57E44A76 
 453      E5FA
 454 0c53 DABB5A25 		.ascii	"\332\273Z%\371\266\0179I 'Qr\326\336\311L\235\222\334"
 454      F9B60F39 
 454      49202751 
 454      72D6DEC9 
 454      4C9D92DC 
 455 0c67 EB435E2B 		.ascii	"\353C^+\220\327R\362\235SGF\221\222LF\233LN\026\310"
 455      90D752F2 
 455      9D534746 
 455      91924C46 
 455      9B4C4E16 
 456 0c7c C9943C32 		.ascii	"\311\224<2|}\223QI~\356CN\021\310)\224|dg\363\336 %"
 456      7C7D9351 
 456      497EEE43 
 456      4E11C829 
 456      947C6467 
 457 0c94 B9D94746 		.ascii	"\271\331GF\252@N\245\344\301\007\017\2068\237O\353>"
 457      AA404EA5 
 457      E4C1070F 
 457      86389F4F 
 457      EB3E
 458 0ca6 E434819C 		.ascii	"\3444\201\234F\311\251\351S\367\347`/K\376\261\374I"
 458      46C9A9E9 
 458      53F7E760 
 458      2F4BFEB1 
 458      FC49
 459 0cb8 AF16370B 		.ascii	"\257\0267\013}\231=\325\257\307\347\2311\366\270\253"
ARM GAS  C:\Users\info\AppData\Local\Temp\cc8zRlCv.s 			page 36


 459      7D993DD5 
 459      AFC7E799 
 459      31F6B8AB 
 460 0cc8 CC1F5F15 		.ascii	"\314\037_\025h\217\313\217\005\011_C\211\275\345@z2"
 460      688FCB8F 
 460      05095F43 
 460      89BDE540 
 460      7A32
 461 0cda C27768A5 		.ascii	"\302wh\245\377\363\262\252\365zD\337\272#\304\317\237"
 461      FFF3B2AA 
 461      F57A44DF 
 461      BA23C4CF 
 461      9F
 462 0ceb 1FD4293E 		.ascii	"\037\324)>\177\256\303\030e`\265\017D\354\265\325\313"
 462      7FAEC318 
 462      6560B50F 
 462      44ECB5D5 
 462      CB
 463 0cfc 5E5B37E0 		.ascii	"^[7\3400z|E\351\002\237\364\377\026\034\201\262p8\332"
 463      307A7C45 
 463      E9029FF4 
 463      FF161C81 
 463      B27038DA 
 464 0d10 0CD804C8 		.ascii	"\014\330\004\310\304\312\327\316\233-\322\313\316z\225"
 464      C4CAD7CE 
 464      9B2DD2CB 
 464      CE7A95
 465 0d1f 469487E6 		.ascii	"F\224\207\346\021\231\272Q\205\252|\215\273\221!\274"
 465      1199BA51 
 465      85AA7C8D 
 465      BB9121BC 
 466 0d2f B79013CE 		.ascii	"\267\220\023\316W\002y\3263g\027\373N\006\034\345\231"
 466      570279D6 
 466      336717FB 
 466      4E061CE5 
 466      99
 467 0d40 932C15E9 		.ascii	"\223,\025\351#\257\202\361\003\232$\256\261\254\256"
 467      23AF82F1 
 467      039A24AE 
 467      B1ACAE
 468 0d4f 2C0845CC 		.ascii	",\010E\314g\317\024\264\204\323\2576\340w+\226\226r"
 468      67CF14B4 
 468      84D3AF36 
 468      E0772B96 
 468      9672
 469 0d61 E262DAAB 		.ascii	"\342b\332\253\274\224\223m\220\207\357\312\011\351\302"
 469      BC94936D 
 469      9087EFCA 
 469      09E9C2
 470 0d70 CE9D0B94 		.ascii	"\316\235\013\224\003a;V~\324\310\026\006B6\035\0109"
 470      03613B56 
 470      7ED4C816 
 470      0642361D 
 470      0839
 471 0d82 8377877C 		.ascii	"\203w\207|\306c\213\317\250\311\021\3109\224\234t)\253"
 471      C6638BCF 
 471      A8C911C8 
ARM GAS  C:\Users\info\AppData\Local\Temp\cc8zRlCv.s 			page 37


 471      39949C74 
 471      29AB
 472 0d94 D5EFED9D 		.ascii	"\325\357\355\235L[:L\303O\337\240\007`\266\367\344\342"
 472      4C5B3A4C 
 472      C34FDFA0 
 472      0760B6F7 
 472      E4E2
 473 0da6 B7C9779C 		.ascii	"\267\311w\234\276\354d\3048\260\335\330\313\322\201"
 473      BEEC64C4 
 473      38B0DDD8 
 473      CBD281
 474 0db5 E8CBCBA3 		.ascii	"\350\313\313\243\274\243\215\247\357\0052\236\267B?"
 474      BCA38DA7 
 474      EF05329E 
 474      B7423F
 475 0dc4 9D934F39 		.ascii	"\235\223O9\223';N\033\004\316\361\031\234\002\312\031"
 475      93273B4E 
 475      1B04CEF1 
 475      199C02CA 
 475      19
 476 0dd5 1C294913 		.ascii	"\034)I\023\332\363\266\317\340\024R\316\261\215\225"
 476      DAF3B6CF 
 476      E01452CE 
 476      B18D95
 477 0de4 45468133 		.ascii	"EF\20139\203\263\203r\312\037N\325\211z\012\015\323"
 477      3983B383 
 477      72CA1F4E 
 477      D5897A0A 
 477      0DD3
 478 0df6 395FE3B7 		.ascii	"9_\343\2675\013\023\226\257Yn\262\232\022,Q\377\032"
 478      350B1396 
 478      AF596EB2 
 478      9A122C51 
 478      FF1A
 479 0e08 1965B299 		.ascii	"\031e\262\231MV\347JwT\3442\335\317\177\365\311\242"
 479      4D56E74A 
 479      7754E432 
 479      DDCF7FF5 
 479      C9A2
 480 0e1a 9F454569 		.ascii	"\237EEi\002M\246\004\273\303\263\334\344IB\226\177\213"
 480      024DA604 
 480      BBC3B3DC 
 480      E4494296 
 480      7F8B
 481 0e2c 8E773957 		.ascii	"\216w9W\272\314q\213b\354\2616\367\242\2105\313\337"
 481      BACC718B 
 481      62ECB136 
 481      F7A28835 
 481      CBDF
 482 0e3e FFE7684B 		.ascii	"\377\347hKb\274\313\346vG\307\273\235\226E\026\227\315"
 482      62BCCBE6 
 482      7647C7BB 
 482      9D964516 
 482      97CD
 483 0e50 EC71BAA2 		.ascii	"\354q\272\242\337[\272\314\267\300\036\027\357ty\242"
 483      DF5BBACC 
 483      B7C01E17 
ARM GAS  C:\Users\info\AppData\Local\Temp\cc8zRlCv.s 			page 38


 483      EF7479A2 
 484 0e60 573A12A2 		.ascii	"W:\022\242\315\256\270\350\177Y\372\336\322(r\367\023"
 484      CDAEB8E8 
 484      7F59FADE 
 484      D22872F7 
 484      13
 485 0e71 87D361FB 		.ascii	"\207\323a\373\211\315\274\302\036mwXb\023\254\266\350"
 485      89CDBCC2 
 485      1E6D7758 
 485      6213ACB6 
 485      E8
 486 0e82 38B36595 		.ascii	"8\263e\225\335a\2136Ym1\346\204X\217\311\223\030os/"
 486      DD618B36 
 486      596D31E6 
 486      84588FC9 
 486      93186F73 
 487 0e97 5DA50910 		.ascii	"]\245\011\020\244\254\376G)q'\272\243Mn\217\025\232"
 487      A4ACFE47 
 487      297127BA 
 487      A34D6E8F 
 487      159A
 488 0ea9 85E683AD 		.ascii	"\205\346\203\255\266\025\316\004\207\305\006Ef\217\355"
 488      B615CE04 
 488      87C50645 
 488      668FED
 489 0eb8 0792196B 		.ascii	"\007\222\031kv{L\361v\007+\377\241T.\352\227\252\014"
 489      767B4CF1 
 489      76072BFF 
 489      A1542EEA 
 489      97AA0C
 490 0ecb 2BE3ED4E 		.ascii	"+\343\355N\023h\204R}\202'f9+\006\307\253\355\3007["
 490      13688452 
 490      7D822766 
 490      392B06C7 
 490      ABEDC037 
 491 0ee0 AD44BFC1 		.ascii	"\255D\277\301\276\314B*\\\036\233\225\336\013\345\241"
 491      BECC422A 
 491      5C1E9B95 
 491      DE0BE5A1 
 492 0ef0 76B729C6 		.ascii	"v\267)\306\351\360\230\354\216\3256\227\333f\212sZm"
 492      E9F098EC 
 492      8ED53697 
 492      DB668A73 
 492      5A6D
 493 0f02 BA352667 		.ascii	"\2725&gL\214\333\346\321\331\034\026'(]\251g]\026\365"
 493      4C8CDBE6 
 493      D1D91C16 
 493      27285DA9 
 493      675D16F5 
 494 0f16 BEC9A313 		.ascii	"\276\311\243\023o\264\344\271\300\025\011n\223%\326"
 494      6FB4E4B9 
 494      C015096E 
 494      9325D6
 495 0f25 69F95CA0 		.ascii	"i\371\\\240\274\273L\240\220\233yT\233\331a\005\331"
 495      BCBB4CA0 
 495      909B7954 
 495      9BD96105 
ARM GAS  C:\Users\info\AppData\Local\Temp\cc8zRlCv.s 			page 39


 495      D9
 496 0f36 B1E64493 		.ascii	"\261\346D\223e\205\201\216\2168\367J\270\017X\221\350"
 496      6585818E 
 496      8E38F74A 
 496      B80F5891 
 496      E8
 497 0f47 B1C1D5DF 		.ascii	"\261\301\325\337b\266\302Eo\265\273\343\031+\300a[\343"
 497      62B6C245 
 497      6FB5BBE3 
 497      192BC061 
 497      5BE3
 498 0f59 81AB91B2 		.ascii	"\201\253\221\262-\253\314.b\210\365vG\214\323\020o_"
 498      2DABCC2E 
 498      6288F576 
 498      478CD310 
 498      6F5F
 499 0f6b 638B357D 		.ascii	"c\2135}i\267zV\315\213\211\265\307\023\335&Q\367\\1"
 499      69B77A56 
 499      CD8B89B5 
 499      C713DD26 
 499      51F75C31 
 500 0f7f 4B6281C1 		.ascii	"Kb\201\301\003]jZe\263\257\\\345\321\323{\372d\350\227"
 500      035D6A5A 
 500      65B3AF5C 
 500      E5D1D37B 
 500      FA64E897 
 501 0f93 2E3B4888 		.ascii	".;H\210O\210u\013%&\207;\304"
 501      4F88750B 
 501      2526873B 
 501      C4
 502 0fa0 6AF6984D 		.ascii	"j\366\230M\360PB\274\311c\217\263AQ(\311\230\024\251"
 502      F05042BC 
 502      C9638FB3 
 502      415128C9 
 502      9814A9
 503 0fb3 292A32F2 		.ascii	")*2\362\363_\374^\347\216\267\323t\031\335P\306jV\375"
 503      F35FFC5E 
 503      E78EB7D3 
 503      7419DD50 
 503      C66A56FD 
 504 0fc7 3E8418BE 		.ascii	">\204\030\276\016\347\271\255\323\374\205\304;\241w"
 504      0EE7B9AD 
 504      D3FC85C4 
 504      3BA177
 505 0fd6 21FF368F 		.ascii	"!\3776\217\351K\263\335\003\011\011e\226\362\3118\367"
 505      E94BB3DD 
 505      03090965 
 505      96F2C938 
 505      F7
 506 0fe7 42187B10 		.ascii	"B\030{\020\276=\336\004\261\233W\020\331\204\355\200"
 506      BE3DDE04 
 506      B19B5710 
 506      D984ED80 
 507 0ff7 0AE280D6 		.ascii	"\012\342\200\326\330\034\312\212\020"
 507      D81CCA8A 
 507      10
 508 1000 1F76AC6D 		.ascii	"\037v\254m\265-v\236\222FK\204)\252H'\014\015W\202\305"
ARM GAS  C:\Users\info\AppData\Local\Temp\cc8zRlCv.s 			page 40


 508      B52D769E 
 508      92464B84 
 508      29AA4827 
 508      0C0D5782 
 509 1015 63645965 		.ascii	"cdYey\012]\2724:a\371\312e&\213\333e\211&\217\300x\235"
 509      790A5DBA 
 509      343A61F9 
 509      CA65268B 
 509      DB658926 
 510 102d 3FF3510F 		.ascii	"?\363Q\017\353S\346a\2764P\331\210$]\355O\353=\357\314"
 510      EB53E661 
 510      BE3450D9 
 510      88245DED 
 510      4FEB3DEF 
 511 1042 F027AF12 		.ascii	"\360'\257\022\302\022\261\324\242\011e]\016#\342\277"
 511      C212B1D4 
 511      A209655D 
 511      0E23E2BF 
 512 1052 1CD68F5D 		.ascii	"\034\326\217]f\207;\306\346\3229\234vG,\314\337yR\355"
 512      66873BC6 
 512      E6D2399C 
 512      76472CCC 
 512      DF7952ED 
 513 1066 6F6D0EEB 		.ascii	"om\016\353\177BG\315\365)\371Y\234\365\015\271\200\014"
 513      7F4247CD 
 513      F529F959 
 513      9CF50DB9 
 513      800C
 514 1078 77D1852F 		.ascii	"w\321\205/\357C\327\312\005>\005\277\265}\221\000\203"
 514      EF43D7CA 
 514      053E05BF 
 514      B57D9100 
 514      83
 515 1089 DDF64341 		.ascii	"\335\366CA\327*[l\274\315\245\010\324\356yK\275\212"
 515      D72A5B6C 
 515      BCCDA508 
 515      D4EE794B 
 515      BD8A
 516 109b 756C9C2D 		.ascii	"ul\234-\316\351Jd\211\025cR$\351G\252\341R\267\340\340"
 516      CEE94A64 
 516      89156352 
 516      24E947AA 
 516      E152B7E0 
 517 10b0 8B70F5EA 		.ascii	"\213p\365\352x\347\2270'\315\253m\221\177\013)\212\220"
 517      78E79730 
 517      27CDAB6D 
 517      917F0B29 
 517      8A90
 518 10c2 DE542791 		.ascii	"\336T'\221\031\022\371\035\365\364y\2775\340\320\215"
 518      1912F91D 
 518      F5F479BF 
 518      35E0D08D 
 519 10d2 2D0E8F8E 		.ascii	"-\016\217\216N\223x\217\2209j\261>\366K$\034\203\\\354"
 519      4E93788F 
 519      90396AB1 
 519      3EF64B24 
 519      1C835CEC 
ARM GAS  C:\Users\info\AppData\Local\Temp\cc8zRlCv.s 			page 41


 520 10e6 F93FB8F6 		.ascii	"\371?\270\366!5"
 520      2135
 521              		.text
 522              		.section	.gnu.lto_.symtab.792a31ff,"",%progbits
 523 0000 75387838 		.ascii	"u8x8_d_uc1701_ea_dogs102\000"
 523      5F645F75 
 523      63313730 
 523      315F6561 
 523      5F646F67 
 524 0019 00       		.ascii	"\000"
 525 001a 00       		.ascii	"\000"
 526 001b 00       		.ascii	"\000"
 527 001c 00000000 		.ascii	"\000\000\000\000\000\000\000\000"
 527      00000000 
 528 0024 41010000 		.ascii	"A\001\000\000"
 529 0028 75387838 		.ascii	"u8x8_cad_EndTransfer\000"
 529      5F636164 
 529      5F456E64 
 529      5472616E 
 529      73666572 
 530 003d 00       		.ascii	"\000"
 531 003e 02       		.ascii	"\002"
 532 003f 00       		.ascii	"\000"
 533 0040 00000000 		.ascii	"\000\000\000\000\000\000\000\000"
 533      00000000 
 534 0048 47010000 		.ascii	"G\001\000\000"
 535 004c 75387838 		.ascii	"u8x8_cad_SendData\000"
 535      5F636164 
 535      5F53656E 
 535      64446174 
 535      6100
 536 005e 00       		.ascii	"\000"
 537 005f 02       		.ascii	"\002"
 538 0060 00       		.ascii	"\000"
 539 0061 00000000 		.ascii	"\000\000\000\000\000\000\000\000"
 539      00000000 
 540 0069 4F010000 		.ascii	"O\001\000\000"
 541 006d 75387838 		.ascii	"u8x8_cad_SendCmd\000"
 541      5F636164 
 541      5F53656E 
 541      64436D64 
 541      00
 542 007e 00       		.ascii	"\000"
 543 007f 02       		.ascii	"\002"
 544 0080 00       		.ascii	"\000"
 545 0081 00000000 		.ascii	"\000\000\000\000\000\000\000\000"
 545      00000000 
 546 0089 55010000 		.ascii	"U\001\000\000"
 547 008d 75387838 		.ascii	"u8x8_cad_StartTransfer\000"
 547      5F636164 
 547      5F537461 
 547      72745472 
 547      616E7366 
 548 00a4 00       		.ascii	"\000"
 549 00a5 02       		.ascii	"\002"
 550 00a6 00       		.ascii	"\000"
 551 00a7 00000000 		.ascii	"\000\000\000\000\000\000\000\000"
ARM GAS  C:\Users\info\AppData\Local\Temp\cc8zRlCv.s 			page 42


 551      00000000 
 552 00af 58010000 		.ascii	"X\001\000\000"
 553 00b3 75387838 		.ascii	"u8x8_cad_SendArg\000"
 553      5F636164 
 553      5F53656E 
 553      64417267 
 553      00
 554 00c4 00       		.ascii	"\000"
 555 00c5 02       		.ascii	"\002"
 556 00c6 00       		.ascii	"\000"
 557 00c7 00000000 		.ascii	"\000\000\000\000\000\000\000\000"
 557      00000000 
 558 00cf 5B010000 		.ascii	"[\001\000\000"
 559 00d3 75387838 		.ascii	"u8x8_cad_SendSequence\000"
 559      5F636164 
 559      5F53656E 
 559      64536571 
 559      75656E63 
 560 00e9 00       		.ascii	"\000"
 561 00ea 02       		.ascii	"\002"
 562 00eb 00       		.ascii	"\000"
 563 00ec 00000000 		.ascii	"\000\000\000\000\000\000\000\000"
 563      00000000 
 564 00f4 60010000 		.ascii	"`\001\000\000"
 565 00f8 75387838 		.ascii	"u8x8_d_helper_display_init\000"
 565      5F645F68 
 565      656C7065 
 565      725F6469 
 565      73706C61 
 566 0113 00       		.ascii	"\000"
 567 0114 02       		.ascii	"\002"
 568 0115 00       		.ascii	"\000"
 569 0116 00000000 		.ascii	"\000\000\000\000\000\000\000\000"
 569      00000000 
 570 011e 64010000 		.ascii	"d\001\000\000"
 571 0122 75387838 		.ascii	"u8x8_d_helper_display_setup_memory\000"
 571      5F645F68 
 571      656C7065 
 571      725F6469 
 571      73706C61 
 572 0145 00       		.ascii	"\000"
 573 0146 02       		.ascii	"\002"
 574 0147 00       		.ascii	"\000"
 575 0148 00000000 		.ascii	"\000\000\000\000\000\000\000\000"
 575      00000000 
 576 0150 69010000 		.ascii	"i\001\000\000"
 577              		.text
 578              		.section	.gnu.lto_.opts,"",%progbits
 579 0000 272D666D 		.ascii	"'-fmath-errno' '-fsigned-zeros' '-ftrapping-math' '"
 579      6174682D 
 579      6572726E 
 579      6F272027 
 579      2D667369 
 580 0033 2D666E6F 		.ascii	"-fno-trapv' '-fno-strict-overflow' '-fno-openmp' '-"
 580      2D747261 
 580      70762720 
 580      272D666E 
ARM GAS  C:\Users\info\AppData\Local\Temp\cc8zRlCv.s 			page 43


 580      6F2D7374 
 581 0066 666E6F2D 		.ascii	"fno-openacc' '-mcpu=cortex-m3' '-mthumb' '-g' '-Og'"
 581      6F70656E 
 581      61636327 
 581      20272D6D 
 581      6370753D 
 582 0099 20272D66 		.ascii	" '-ffunction-sections' '-ffat-lto-objects' '-flto'\000"
 582      66756E63 
 582      74696F6E 
 582      2D736563 
 582      74696F6E 
 583              		.text
 584              		.cfi_sections	.debug_frame
 585              		.section	.text.u8x8_d_uc1701_ea_dogs102,"ax",%progbits
 586              		.align	2
 587              		.global	u8x8_d_uc1701_ea_dogs102
 588              		.thumb
 589              		.thumb_func
 590              		.type	u8x8_d_uc1701_ea_dogs102, %function
 591              	u8x8_d_uc1701_ea_dogs102:
 592              	.LFB0:
 593              		.file 1 "..\\u8g2_csrc\\u8x8_d_uc1701_dogs102.c"
   1:..\u8g2_csrc/u8x8_d_uc1701_dogs102.c **** /*
   2:..\u8g2_csrc/u8x8_d_uc1701_dogs102.c **** 
   3:..\u8g2_csrc/u8x8_d_uc1701_dogs102.c ****   u8x8_d_uc1701_dogs102.c
   4:..\u8g2_csrc/u8x8_d_uc1701_dogs102.c ****   
   5:..\u8g2_csrc/u8x8_d_uc1701_dogs102.c ****   Universal 8bit Graphics Library (https://github.com/olikraus/u8g2/)
   6:..\u8g2_csrc/u8x8_d_uc1701_dogs102.c **** 
   7:..\u8g2_csrc/u8x8_d_uc1701_dogs102.c ****   Copyright (c) 2016, olikraus@gmail.com
   8:..\u8g2_csrc/u8x8_d_uc1701_dogs102.c ****   All rights reserved.
   9:..\u8g2_csrc/u8x8_d_uc1701_dogs102.c **** 
  10:..\u8g2_csrc/u8x8_d_uc1701_dogs102.c ****   Redistribution and use in source and binary forms, with or without modification, 
  11:..\u8g2_csrc/u8x8_d_uc1701_dogs102.c ****   are permitted provided that the following conditions are met:
  12:..\u8g2_csrc/u8x8_d_uc1701_dogs102.c **** 
  13:..\u8g2_csrc/u8x8_d_uc1701_dogs102.c ****   * Redistributions of source code must retain the above copyright notice, this list 
  14:..\u8g2_csrc/u8x8_d_uc1701_dogs102.c ****     of conditions and the following disclaimer.
  15:..\u8g2_csrc/u8x8_d_uc1701_dogs102.c ****     
  16:..\u8g2_csrc/u8x8_d_uc1701_dogs102.c ****   * Redistributions in binary form must reproduce the above copyright notice, this 
  17:..\u8g2_csrc/u8x8_d_uc1701_dogs102.c ****     list of conditions and the following disclaimer in the documentation and/or other 
  18:..\u8g2_csrc/u8x8_d_uc1701_dogs102.c ****     materials provided with the distribution.
  19:..\u8g2_csrc/u8x8_d_uc1701_dogs102.c **** 
  20:..\u8g2_csrc/u8x8_d_uc1701_dogs102.c ****   THIS SOFTWARE IS PROVIDED BY THE COPYRIGHT HOLDERS AND 
  21:..\u8g2_csrc/u8x8_d_uc1701_dogs102.c ****   CONTRIBUTORS "AS IS" AND ANY EXPRESS OR IMPLIED WARRANTIES, 
  22:..\u8g2_csrc/u8x8_d_uc1701_dogs102.c ****   INCLUDING, BUT NOT LIMITED TO, THE IMPLIED WARRANTIES OF 
  23:..\u8g2_csrc/u8x8_d_uc1701_dogs102.c ****   MERCHANTABILITY AND FITNESS FOR A PARTICULAR PURPOSE ARE 
  24:..\u8g2_csrc/u8x8_d_uc1701_dogs102.c ****   DISCLAIMED. IN NO EVENT SHALL THE COPYRIGHT HOLDER OR 
  25:..\u8g2_csrc/u8x8_d_uc1701_dogs102.c ****   CONTRIBUTORS BE LIABLE FOR ANY DIRECT, INDIRECT, INCIDENTAL, 
  26:..\u8g2_csrc/u8x8_d_uc1701_dogs102.c ****   SPECIAL, EXEMPLARY, OR CONSEQUENTIAL DAMAGES (INCLUDING, BUT 
  27:..\u8g2_csrc/u8x8_d_uc1701_dogs102.c ****   NOT LIMITED TO, PROCUREMENT OF SUBSTITUTE GOODS OR SERVICES; 
  28:..\u8g2_csrc/u8x8_d_uc1701_dogs102.c ****   LOSS OF USE, DATA, OR PROFITS; OR BUSINESS INTERRUPTION) HOWEVER 
  29:..\u8g2_csrc/u8x8_d_uc1701_dogs102.c ****   CAUSED AND ON ANY THEORY OF LIABILITY, WHETHER IN CONTRACT, 
  30:..\u8g2_csrc/u8x8_d_uc1701_dogs102.c ****   STRICT LIABILITY, OR TORT (INCLUDING NEGLIGENCE OR OTHERWISE) 
  31:..\u8g2_csrc/u8x8_d_uc1701_dogs102.c ****   ARISING IN ANY WAY OUT OF THE USE OF THIS SOFTWARE, EVEN IF 
  32:..\u8g2_csrc/u8x8_d_uc1701_dogs102.c ****   ADVISED OF THE POSSIBILITY OF SUCH DAMAGE.  
  33:..\u8g2_csrc/u8x8_d_uc1701_dogs102.c **** 
  34:..\u8g2_csrc/u8x8_d_uc1701_dogs102.c ****   
  35:..\u8g2_csrc/u8x8_d_uc1701_dogs102.c **** */
ARM GAS  C:\Users\info\AppData\Local\Temp\cc8zRlCv.s 			page 44


  36:..\u8g2_csrc/u8x8_d_uc1701_dogs102.c **** #include "u8x8.h"
  37:..\u8g2_csrc/u8x8_d_uc1701_dogs102.c **** 
  38:..\u8g2_csrc/u8x8_d_uc1701_dogs102.c **** 
  39:..\u8g2_csrc/u8x8_d_uc1701_dogs102.c **** 
  40:..\u8g2_csrc/u8x8_d_uc1701_dogs102.c **** 
  41:..\u8g2_csrc/u8x8_d_uc1701_dogs102.c **** static const uint8_t u8x8_d_uc1701_dogs102_init_seq[] = {
  42:..\u8g2_csrc/u8x8_d_uc1701_dogs102.c ****     
  43:..\u8g2_csrc/u8x8_d_uc1701_dogs102.c ****   U8X8_START_TRANSFER(),             	/* enable chip, delay is part of the transfer start */
  44:..\u8g2_csrc/u8x8_d_uc1701_dogs102.c ****   
  45:..\u8g2_csrc/u8x8_d_uc1701_dogs102.c ****   U8X8_C(0x0e2),            			/* soft reset */
  46:..\u8g2_csrc/u8x8_d_uc1701_dogs102.c ****   U8X8_C(0x0ae),		                /* display off */
  47:..\u8g2_csrc/u8x8_d_uc1701_dogs102.c ****   U8X8_C(0x040),		                /* set display start line to 0 */
  48:..\u8g2_csrc/u8x8_d_uc1701_dogs102.c ****   
  49:..\u8g2_csrc/u8x8_d_uc1701_dogs102.c ****   U8X8_C(0x0a1),		                /* ADC set to reverse */
  50:..\u8g2_csrc/u8x8_d_uc1701_dogs102.c ****   U8X8_C(0x0c0),		                /* common output mode */
  51:..\u8g2_csrc/u8x8_d_uc1701_dogs102.c ****   // Flipmode
  52:..\u8g2_csrc/u8x8_d_uc1701_dogs102.c ****   //U8X8_C(0x0a0),		                /* ADC set to reverse */
  53:..\u8g2_csrc/u8x8_d_uc1701_dogs102.c ****   //U8X8_C(0x0c8),		                /* common output mode */
  54:..\u8g2_csrc/u8x8_d_uc1701_dogs102.c ****   
  55:..\u8g2_csrc/u8x8_d_uc1701_dogs102.c ****   U8X8_C(0x0a6),		                /* display normal, bit val 0: LCD pixel off. */
  56:..\u8g2_csrc/u8x8_d_uc1701_dogs102.c ****   U8X8_C(0x0a2),		                /* LCD bias 1/9 */
  57:..\u8g2_csrc/u8x8_d_uc1701_dogs102.c ****   U8X8_C(0x02f),		                /* all power  control circuits on */
  58:..\u8g2_csrc/u8x8_d_uc1701_dogs102.c ****   U8X8_C(0x027),		                /* regulator, booster and follower */
  59:..\u8g2_csrc/u8x8_d_uc1701_dogs102.c ****   U8X8_CA(0x081, 0x00e),		/* set contrast, contrast value, EA default: 0x010, previous value for S1
  60:..\u8g2_csrc/u8x8_d_uc1701_dogs102.c ****   U8X8_C(0x0fa),		                /* Set Temp compensation */ 
  61:..\u8g2_csrc/u8x8_d_uc1701_dogs102.c ****   U8X8_C(0x090),		                /* 0.11 deg/c WP Off WC Off*/
  62:..\u8g2_csrc/u8x8_d_uc1701_dogs102.c ****   
  63:..\u8g2_csrc/u8x8_d_uc1701_dogs102.c ****   U8X8_C(0x0ae),		                /* display off */
  64:..\u8g2_csrc/u8x8_d_uc1701_dogs102.c ****   U8X8_C(0x0a5),		                /* enter powersafe: all pixel on, issue 142 */
  65:..\u8g2_csrc/u8x8_d_uc1701_dogs102.c ****   
  66:..\u8g2_csrc/u8x8_d_uc1701_dogs102.c ****   U8X8_END_TRANSFER(),             	/* disable chip */
  67:..\u8g2_csrc/u8x8_d_uc1701_dogs102.c ****   U8X8_END()             			/* end of sequence */
  68:..\u8g2_csrc/u8x8_d_uc1701_dogs102.c **** };
  69:..\u8g2_csrc/u8x8_d_uc1701_dogs102.c **** 
  70:..\u8g2_csrc/u8x8_d_uc1701_dogs102.c **** static const uint8_t u8x8_d_uc1701_dogs102_powersave0_seq[] = {
  71:..\u8g2_csrc/u8x8_d_uc1701_dogs102.c ****   U8X8_START_TRANSFER(),             	/* enable chip, delay is part of the transfer start */
  72:..\u8g2_csrc/u8x8_d_uc1701_dogs102.c ****   U8X8_C(0x0a4),		                /* all pixel off, issue 142 */
  73:..\u8g2_csrc/u8x8_d_uc1701_dogs102.c ****   U8X8_C(0x0af),		                /* display on */
  74:..\u8g2_csrc/u8x8_d_uc1701_dogs102.c ****   U8X8_END_TRANSFER(),             	/* disable chip */
  75:..\u8g2_csrc/u8x8_d_uc1701_dogs102.c ****   U8X8_END()             			/* end of sequence */
  76:..\u8g2_csrc/u8x8_d_uc1701_dogs102.c **** };
  77:..\u8g2_csrc/u8x8_d_uc1701_dogs102.c **** 
  78:..\u8g2_csrc/u8x8_d_uc1701_dogs102.c **** static const uint8_t u8x8_d_uc1701_dogs102_powersave1_seq[] = {
  79:..\u8g2_csrc/u8x8_d_uc1701_dogs102.c ****   U8X8_START_TRANSFER(),             	/* enable chip, delay is part of the transfer start */
  80:..\u8g2_csrc/u8x8_d_uc1701_dogs102.c ****   U8X8_C(0x0ae),		                /* display off */
  81:..\u8g2_csrc/u8x8_d_uc1701_dogs102.c ****   U8X8_C(0x0a5),		                /* enter powersafe: all pixel on, issue 142 */
  82:..\u8g2_csrc/u8x8_d_uc1701_dogs102.c ****   U8X8_END_TRANSFER(),             	/* disable chip */
  83:..\u8g2_csrc/u8x8_d_uc1701_dogs102.c ****   U8X8_END()             			/* end of sequence */
  84:..\u8g2_csrc/u8x8_d_uc1701_dogs102.c **** };
  85:..\u8g2_csrc/u8x8_d_uc1701_dogs102.c **** 
  86:..\u8g2_csrc/u8x8_d_uc1701_dogs102.c **** static const uint8_t u8x8_d_uc1701_dogs102_flip0_seq[] = {
  87:..\u8g2_csrc/u8x8_d_uc1701_dogs102.c ****   U8X8_START_TRANSFER(),             	/* enable chip, delay is part of the transfer start */
  88:..\u8g2_csrc/u8x8_d_uc1701_dogs102.c ****   U8X8_C(0x0a1),				/* segment remap a0/a1*/
  89:..\u8g2_csrc/u8x8_d_uc1701_dogs102.c ****   U8X8_C(0x0c0),				/* c0: scan dir normal, c8: reverse */
  90:..\u8g2_csrc/u8x8_d_uc1701_dogs102.c ****   U8X8_END_TRANSFER(),             	/* disable chip */
  91:..\u8g2_csrc/u8x8_d_uc1701_dogs102.c ****   U8X8_END()             			/* end of sequence */
  92:..\u8g2_csrc/u8x8_d_uc1701_dogs102.c **** };
ARM GAS  C:\Users\info\AppData\Local\Temp\cc8zRlCv.s 			page 45


  93:..\u8g2_csrc/u8x8_d_uc1701_dogs102.c **** 
  94:..\u8g2_csrc/u8x8_d_uc1701_dogs102.c **** static const uint8_t u8x8_d_uc1701_dogs102_flip1_seq[] = {
  95:..\u8g2_csrc/u8x8_d_uc1701_dogs102.c ****   U8X8_START_TRANSFER(),             	/* enable chip, delay is part of the transfer start */
  96:..\u8g2_csrc/u8x8_d_uc1701_dogs102.c ****   U8X8_C(0x0a0),				/* segment remap a0/a1*/
  97:..\u8g2_csrc/u8x8_d_uc1701_dogs102.c ****   U8X8_C(0x0c8),				/* c0: scan dir normal, c8: reverse */
  98:..\u8g2_csrc/u8x8_d_uc1701_dogs102.c ****   U8X8_END_TRANSFER(),             	/* disable chip */
  99:..\u8g2_csrc/u8x8_d_uc1701_dogs102.c ****   U8X8_END()             			/* end of sequence */
 100:..\u8g2_csrc/u8x8_d_uc1701_dogs102.c **** };
 101:..\u8g2_csrc/u8x8_d_uc1701_dogs102.c **** 
 102:..\u8g2_csrc/u8x8_d_uc1701_dogs102.c **** 
 103:..\u8g2_csrc/u8x8_d_uc1701_dogs102.c **** static const u8x8_display_info_t u8x8_uc1701_display_info =
 104:..\u8g2_csrc/u8x8_d_uc1701_dogs102.c **** {
 105:..\u8g2_csrc/u8x8_d_uc1701_dogs102.c ****   /* chip_enable_level = */ 0,
 106:..\u8g2_csrc/u8x8_d_uc1701_dogs102.c ****   /* chip_disable_level = */ 1,
 107:..\u8g2_csrc/u8x8_d_uc1701_dogs102.c ****   
 108:..\u8g2_csrc/u8x8_d_uc1701_dogs102.c ****   /* post_chip_enable_wait_ns = */ 5,
 109:..\u8g2_csrc/u8x8_d_uc1701_dogs102.c ****   /* pre_chip_disable_wait_ns = */ 5,
 110:..\u8g2_csrc/u8x8_d_uc1701_dogs102.c ****   /* reset_pulse_width_ms = */ 1, 
 111:..\u8g2_csrc/u8x8_d_uc1701_dogs102.c ****   /* post_reset_wait_ms = */ 6, 
 112:..\u8g2_csrc/u8x8_d_uc1701_dogs102.c ****   /* sda_setup_time_ns = */ 12,		
 113:..\u8g2_csrc/u8x8_d_uc1701_dogs102.c ****   /* sck_pulse_width_ns = */ 75,	/* half of cycle time (100ns according to datasheet), AVR: below 7
 114:..\u8g2_csrc/u8x8_d_uc1701_dogs102.c ****   /* sck_clock_hz = */ 4000000UL,	/* since Arduino 1.6.0, the SPI bus speed in Hz. Should be  10000
 115:..\u8g2_csrc/u8x8_d_uc1701_dogs102.c ****   /* spi_mode = */ 0,		/* active high, rising edge */
 116:..\u8g2_csrc/u8x8_d_uc1701_dogs102.c ****   /* i2c_bus_clock_100kHz = */ 4,
 117:..\u8g2_csrc/u8x8_d_uc1701_dogs102.c ****   /* data_setup_time_ns = */ 30,
 118:..\u8g2_csrc/u8x8_d_uc1701_dogs102.c ****   /* write_pulse_width_ns = */ 40,
 119:..\u8g2_csrc/u8x8_d_uc1701_dogs102.c ****   /* tile_width = */ 13,		/* width of 13*8=104 pixel */
 120:..\u8g2_csrc/u8x8_d_uc1701_dogs102.c ****   /* tile_hight = */ 8,
 121:..\u8g2_csrc/u8x8_d_uc1701_dogs102.c ****   /* default_x_offset = */ 0,
 122:..\u8g2_csrc/u8x8_d_uc1701_dogs102.c ****   /* flipmode_x_offset = */ 30,
 123:..\u8g2_csrc/u8x8_d_uc1701_dogs102.c ****   /* pixel_width = */ 102,
 124:..\u8g2_csrc/u8x8_d_uc1701_dogs102.c ****   /* pixel_height = */ 64
 125:..\u8g2_csrc/u8x8_d_uc1701_dogs102.c **** };
 126:..\u8g2_csrc/u8x8_d_uc1701_dogs102.c **** 
 127:..\u8g2_csrc/u8x8_d_uc1701_dogs102.c **** uint8_t u8x8_d_uc1701_ea_dogs102(u8x8_t *u8x8, uint8_t msg, uint8_t arg_int, void *arg_ptr)
 128:..\u8g2_csrc/u8x8_d_uc1701_dogs102.c **** {
 594              		.loc 1 128 0
 595              		.cfi_startproc
 596              		@ args = 0, pretend = 0, frame = 0
 597              		@ frame_needed = 0, uses_anonymous_args = 0
 598              	.LVL0:
 599 0000 2DE9F041 		push	{r4, r5, r6, r7, r8, lr}
 600              		.cfi_def_cfa_offset 24
 601              		.cfi_offset 4, -24
 602              		.cfi_offset 5, -20
 603              		.cfi_offset 6, -16
 604              		.cfi_offset 7, -12
 605              		.cfi_offset 8, -8
 606              		.cfi_offset 14, -4
 607 0004 0546     		mov	r5, r0
 608 0006 1446     		mov	r4, r2
 609 0008 1F46     		mov	r7, r3
 129:..\u8g2_csrc/u8x8_d_uc1701_dogs102.c ****   uint8_t x, c;
 130:..\u8g2_csrc/u8x8_d_uc1701_dogs102.c ****   uint8_t *ptr;
 131:..\u8g2_csrc/u8x8_d_uc1701_dogs102.c ****   switch(msg)
 610              		.loc 1 131 0
 611 000a 0939     		subs	r1, r1, #9
ARM GAS  C:\Users\info\AppData\Local\Temp\cc8zRlCv.s 			page 46


 612              	.LVL1:
 613 000c 0629     		cmp	r1, #6
 614 000e 7CD8     		bhi	.L14
 615 0010 DFE801F0 		tbb	[pc, r1]
 616              	.LVL2:
 617              	.L4:
 618 0014 04       		.byte	(.L3-.L4)/2
 619 0015 0A       		.byte	(.L5-.L4)/2
 620 0016 13       		.byte	(.L6-.L4)/2
 621 0017 7B       		.byte	(.L14-.L4)/2
 622 0018 20       		.byte	(.L7-.L4)/2
 623 0019 35       		.byte	(.L8-.L4)/2
 624 001a 45       		.byte	(.L9-.L4)/2
 625 001b 00       		.p2align 1
 626              	.L3:
 132:..\u8g2_csrc/u8x8_d_uc1701_dogs102.c ****   {
 133:..\u8g2_csrc/u8x8_d_uc1701_dogs102.c ****     case U8X8_MSG_DISPLAY_SETUP_MEMORY:
 134:..\u8g2_csrc/u8x8_d_uc1701_dogs102.c ****       u8x8_d_helper_display_setup_memory(u8x8, &u8x8_uc1701_display_info);
 627              		.loc 1 134 0
 628 001c 3C49     		ldr	r1, .L16
 629 001e FFF7FEFF 		bl	u8x8_d_helper_display_setup_memory
 630              	.LVL3:
 135:..\u8g2_csrc/u8x8_d_uc1701_dogs102.c ****       break;
 136:..\u8g2_csrc/u8x8_d_uc1701_dogs102.c ****     case U8X8_MSG_DISPLAY_INIT:
 137:..\u8g2_csrc/u8x8_d_uc1701_dogs102.c ****       u8x8_d_helper_display_init(u8x8);
 138:..\u8g2_csrc/u8x8_d_uc1701_dogs102.c ****       u8x8_cad_SendSequence(u8x8, u8x8_d_uc1701_dogs102_init_seq);
 139:..\u8g2_csrc/u8x8_d_uc1701_dogs102.c ****       break;
 140:..\u8g2_csrc/u8x8_d_uc1701_dogs102.c ****     case U8X8_MSG_DISPLAY_SET_POWER_SAVE:
 141:..\u8g2_csrc/u8x8_d_uc1701_dogs102.c ****       if ( arg_int == 0 )
 142:..\u8g2_csrc/u8x8_d_uc1701_dogs102.c **** 	u8x8_cad_SendSequence(u8x8, u8x8_d_uc1701_dogs102_powersave0_seq);
 143:..\u8g2_csrc/u8x8_d_uc1701_dogs102.c ****       else
 144:..\u8g2_csrc/u8x8_d_uc1701_dogs102.c **** 	u8x8_cad_SendSequence(u8x8, u8x8_d_uc1701_dogs102_powersave1_seq);
 145:..\u8g2_csrc/u8x8_d_uc1701_dogs102.c ****       break;
 146:..\u8g2_csrc/u8x8_d_uc1701_dogs102.c ****     case U8X8_MSG_DISPLAY_SET_FLIP_MODE:
 147:..\u8g2_csrc/u8x8_d_uc1701_dogs102.c ****       if ( arg_int == 0 )
 148:..\u8g2_csrc/u8x8_d_uc1701_dogs102.c ****       {
 149:..\u8g2_csrc/u8x8_d_uc1701_dogs102.c **** 	u8x8_cad_SendSequence(u8x8, u8x8_d_uc1701_dogs102_flip0_seq);
 150:..\u8g2_csrc/u8x8_d_uc1701_dogs102.c **** 	u8x8->x_offset = u8x8->display_info->default_x_offset;
 151:..\u8g2_csrc/u8x8_d_uc1701_dogs102.c ****       }
 152:..\u8g2_csrc/u8x8_d_uc1701_dogs102.c ****       else
 153:..\u8g2_csrc/u8x8_d_uc1701_dogs102.c ****       {
 154:..\u8g2_csrc/u8x8_d_uc1701_dogs102.c **** 	u8x8_cad_SendSequence(u8x8, u8x8_d_uc1701_dogs102_flip1_seq);
 155:..\u8g2_csrc/u8x8_d_uc1701_dogs102.c **** 	u8x8->x_offset = u8x8->display_info->flipmode_x_offset;
 156:..\u8g2_csrc/u8x8_d_uc1701_dogs102.c ****       }	
 157:..\u8g2_csrc/u8x8_d_uc1701_dogs102.c ****       break;
 158:..\u8g2_csrc/u8x8_d_uc1701_dogs102.c **** #ifdef U8X8_WITH_SET_CONTRAST
 159:..\u8g2_csrc/u8x8_d_uc1701_dogs102.c ****     case U8X8_MSG_DISPLAY_SET_CONTRAST:
 160:..\u8g2_csrc/u8x8_d_uc1701_dogs102.c ****       u8x8_cad_StartTransfer(u8x8);
 161:..\u8g2_csrc/u8x8_d_uc1701_dogs102.c ****       u8x8_cad_SendCmd(u8x8, 0x081 );
 162:..\u8g2_csrc/u8x8_d_uc1701_dogs102.c ****       u8x8_cad_SendArg(u8x8, arg_int >> 2 );	/* uc1701 has range from 0 to 63 */
 163:..\u8g2_csrc/u8x8_d_uc1701_dogs102.c ****       u8x8_cad_EndTransfer(u8x8);
 164:..\u8g2_csrc/u8x8_d_uc1701_dogs102.c ****       break;
 165:..\u8g2_csrc/u8x8_d_uc1701_dogs102.c **** #endif
 166:..\u8g2_csrc/u8x8_d_uc1701_dogs102.c ****     case U8X8_MSG_DISPLAY_DRAW_TILE:
 167:..\u8g2_csrc/u8x8_d_uc1701_dogs102.c ****       u8x8_cad_StartTransfer(u8x8);
 168:..\u8g2_csrc/u8x8_d_uc1701_dogs102.c ****     
 169:..\u8g2_csrc/u8x8_d_uc1701_dogs102.c ****       x = ((u8x8_tile_t *)arg_ptr)->x_pos;
ARM GAS  C:\Users\info\AppData\Local\Temp\cc8zRlCv.s 			page 47


 170:..\u8g2_csrc/u8x8_d_uc1701_dogs102.c ****       x *= 8;
 171:..\u8g2_csrc/u8x8_d_uc1701_dogs102.c ****       x += u8x8->x_offset;
 172:..\u8g2_csrc/u8x8_d_uc1701_dogs102.c ****       u8x8_cad_SendCmd(u8x8, 0x010 | (x>>4) );
 173:..\u8g2_csrc/u8x8_d_uc1701_dogs102.c ****       u8x8_cad_SendCmd(u8x8, 0x000 | ((x&15)));
 174:..\u8g2_csrc/u8x8_d_uc1701_dogs102.c ****       u8x8_cad_SendCmd(u8x8, 0x0b0 | (((u8x8_tile_t *)arg_ptr)->y_pos));
 175:..\u8g2_csrc/u8x8_d_uc1701_dogs102.c ****     
 176:..\u8g2_csrc/u8x8_d_uc1701_dogs102.c ****       c = ((u8x8_tile_t *)arg_ptr)->cnt;
 177:..\u8g2_csrc/u8x8_d_uc1701_dogs102.c ****       c *= 8;
 178:..\u8g2_csrc/u8x8_d_uc1701_dogs102.c ****       ptr = ((u8x8_tile_t *)arg_ptr)->tile_ptr;
 179:..\u8g2_csrc/u8x8_d_uc1701_dogs102.c ****       /* 
 180:..\u8g2_csrc/u8x8_d_uc1701_dogs102.c **** 	The following if condition checks the hardware limits of the uc1701 
 181:..\u8g2_csrc/u8x8_d_uc1701_dogs102.c **** 	controller: It is not allowed to write beyond the display limits.
 182:..\u8g2_csrc/u8x8_d_uc1701_dogs102.c **** 	This is in fact an issue within flip mode.
 183:..\u8g2_csrc/u8x8_d_uc1701_dogs102.c ****       */
 184:..\u8g2_csrc/u8x8_d_uc1701_dogs102.c ****       if ( c + x > 132u )
 185:..\u8g2_csrc/u8x8_d_uc1701_dogs102.c ****       {
 186:..\u8g2_csrc/u8x8_d_uc1701_dogs102.c **** 	c = 132u;
 187:..\u8g2_csrc/u8x8_d_uc1701_dogs102.c **** 	c -= x;
 188:..\u8g2_csrc/u8x8_d_uc1701_dogs102.c ****       }
 189:..\u8g2_csrc/u8x8_d_uc1701_dogs102.c ****       do
 190:..\u8g2_csrc/u8x8_d_uc1701_dogs102.c ****       {
 191:..\u8g2_csrc/u8x8_d_uc1701_dogs102.c **** 	u8x8_cad_SendData(u8x8, c, ptr);	/* note: SendData can not handle more than 255 bytes */
 192:..\u8g2_csrc/u8x8_d_uc1701_dogs102.c **** 	arg_int--;
 193:..\u8g2_csrc/u8x8_d_uc1701_dogs102.c ****       } while( arg_int > 0 );
 194:..\u8g2_csrc/u8x8_d_uc1701_dogs102.c ****       
 195:..\u8g2_csrc/u8x8_d_uc1701_dogs102.c ****       u8x8_cad_EndTransfer(u8x8);
 196:..\u8g2_csrc/u8x8_d_uc1701_dogs102.c ****       break;
 197:..\u8g2_csrc/u8x8_d_uc1701_dogs102.c ****     default:
 198:..\u8g2_csrc/u8x8_d_uc1701_dogs102.c ****       return 0;
 199:..\u8g2_csrc/u8x8_d_uc1701_dogs102.c ****   }
 200:..\u8g2_csrc/u8x8_d_uc1701_dogs102.c ****   return 1;
 631              		.loc 1 200 0
 632 0022 0120     		movs	r0, #1
 135:..\u8g2_csrc/u8x8_d_uc1701_dogs102.c ****       break;
 633              		.loc 1 135 0
 634 0024 BDE8F081 		pop	{r4, r5, r6, r7, r8, pc}
 635              	.LVL4:
 636              	.L5:
 137:..\u8g2_csrc/u8x8_d_uc1701_dogs102.c ****       u8x8_cad_SendSequence(u8x8, u8x8_d_uc1701_dogs102_init_seq);
 637              		.loc 1 137 0
 638 0028 FFF7FEFF 		bl	u8x8_d_helper_display_init
 639              	.LVL5:
 138:..\u8g2_csrc/u8x8_d_uc1701_dogs102.c ****       break;
 640              		.loc 1 138 0
 641 002c 3949     		ldr	r1, .L16+4
 642 002e 2846     		mov	r0, r5
 643 0030 FFF7FEFF 		bl	u8x8_cad_SendSequence
 644              	.LVL6:
 645              		.loc 1 200 0
 646 0034 0120     		movs	r0, #1
 139:..\u8g2_csrc/u8x8_d_uc1701_dogs102.c ****     case U8X8_MSG_DISPLAY_SET_POWER_SAVE:
 647              		.loc 1 139 0
 648 0036 BDE8F081 		pop	{r4, r5, r6, r7, r8, pc}
 649              	.LVL7:
 650              	.L6:
 141:..\u8g2_csrc/u8x8_d_uc1701_dogs102.c **** 	u8x8_cad_SendSequence(u8x8, u8x8_d_uc1701_dogs102_powersave0_seq);
 651              		.loc 1 141 0
ARM GAS  C:\Users\info\AppData\Local\Temp\cc8zRlCv.s 			page 48


 652 003a 2AB9     		cbnz	r2, .L10
 142:..\u8g2_csrc/u8x8_d_uc1701_dogs102.c ****       else
 653              		.loc 1 142 0
 654 003c 3649     		ldr	r1, .L16+8
 655 003e FFF7FEFF 		bl	u8x8_cad_SendSequence
 656              	.LVL8:
 657              		.loc 1 200 0
 658 0042 0120     		movs	r0, #1
 659 0044 BDE8F081 		pop	{r4, r5, r6, r7, r8, pc}
 660              	.LVL9:
 661              	.L10:
 144:..\u8g2_csrc/u8x8_d_uc1701_dogs102.c ****       break;
 662              		.loc 1 144 0
 663 0048 3449     		ldr	r1, .L16+12
 664 004a FFF7FEFF 		bl	u8x8_cad_SendSequence
 665              	.LVL10:
 666              		.loc 1 200 0
 667 004e 0120     		movs	r0, #1
 668 0050 BDE8F081 		pop	{r4, r5, r6, r7, r8, pc}
 669              	.LVL11:
 670              	.L7:
 147:..\u8g2_csrc/u8x8_d_uc1701_dogs102.c ****       {
 671              		.loc 1 147 0
 672 0054 4AB9     		cbnz	r2, .L11
 149:..\u8g2_csrc/u8x8_d_uc1701_dogs102.c **** 	u8x8->x_offset = u8x8->display_info->default_x_offset;
 673              		.loc 1 149 0
 674 0056 3249     		ldr	r1, .L16+16
 675 0058 FFF7FEFF 		bl	u8x8_cad_SendSequence
 676              	.LVL12:
 150:..\u8g2_csrc/u8x8_d_uc1701_dogs102.c ****       }
 677              		.loc 1 150 0
 678 005c 2B68     		ldr	r3, [r5]
 679 005e 9B7C     		ldrb	r3, [r3, #18]	@ zero_extendqisi2
 680 0060 85F82230 		strb	r3, [r5, #34]
 681              		.loc 1 200 0
 682 0064 0120     		movs	r0, #1
 683 0066 BDE8F081 		pop	{r4, r5, r6, r7, r8, pc}
 684              	.LVL13:
 685              	.L11:
 154:..\u8g2_csrc/u8x8_d_uc1701_dogs102.c **** 	u8x8->x_offset = u8x8->display_info->flipmode_x_offset;
 686              		.loc 1 154 0
 687 006a 2E49     		ldr	r1, .L16+20
 688 006c FFF7FEFF 		bl	u8x8_cad_SendSequence
 689              	.LVL14:
 155:..\u8g2_csrc/u8x8_d_uc1701_dogs102.c ****       }	
 690              		.loc 1 155 0
 691 0070 2B68     		ldr	r3, [r5]
 692 0072 DB7C     		ldrb	r3, [r3, #19]	@ zero_extendqisi2
 693 0074 85F82230 		strb	r3, [r5, #34]
 694              		.loc 1 200 0
 695 0078 0120     		movs	r0, #1
 696 007a BDE8F081 		pop	{r4, r5, r6, r7, r8, pc}
 697              	.LVL15:
 698              	.L8:
 160:..\u8g2_csrc/u8x8_d_uc1701_dogs102.c ****       u8x8_cad_SendCmd(u8x8, 0x081 );
 699              		.loc 1 160 0
 700 007e FFF7FEFF 		bl	u8x8_cad_StartTransfer
ARM GAS  C:\Users\info\AppData\Local\Temp\cc8zRlCv.s 			page 49


 701              	.LVL16:
 161:..\u8g2_csrc/u8x8_d_uc1701_dogs102.c ****       u8x8_cad_SendArg(u8x8, arg_int >> 2 );	/* uc1701 has range from 0 to 63 */
 702              		.loc 1 161 0
 703 0082 8121     		movs	r1, #129
 704 0084 2846     		mov	r0, r5
 705 0086 FFF7FEFF 		bl	u8x8_cad_SendCmd
 706              	.LVL17:
 162:..\u8g2_csrc/u8x8_d_uc1701_dogs102.c ****       u8x8_cad_EndTransfer(u8x8);
 707              		.loc 1 162 0
 708 008a A108     		lsrs	r1, r4, #2
 709 008c 2846     		mov	r0, r5
 710 008e FFF7FEFF 		bl	u8x8_cad_SendArg
 711              	.LVL18:
 163:..\u8g2_csrc/u8x8_d_uc1701_dogs102.c ****       break;
 712              		.loc 1 163 0
 713 0092 2846     		mov	r0, r5
 714 0094 FFF7FEFF 		bl	u8x8_cad_EndTransfer
 715              	.LVL19:
 716              		.loc 1 200 0
 717 0098 0120     		movs	r0, #1
 164:..\u8g2_csrc/u8x8_d_uc1701_dogs102.c **** #endif
 718              		.loc 1 164 0
 719 009a BDE8F081 		pop	{r4, r5, r6, r7, r8, pc}
 720              	.LVL20:
 721              	.L9:
 167:..\u8g2_csrc/u8x8_d_uc1701_dogs102.c ****     
 722              		.loc 1 167 0
 723 009e FFF7FEFF 		bl	u8x8_cad_StartTransfer
 724              	.LVL21:
 169:..\u8g2_csrc/u8x8_d_uc1701_dogs102.c ****       x *= 8;
 725              		.loc 1 169 0
 726 00a2 7B79     		ldrb	r3, [r7, #5]	@ zero_extendqisi2
 727              	.LVL22:
 170:..\u8g2_csrc/u8x8_d_uc1701_dogs102.c ****       x += u8x8->x_offset;
 728              		.loc 1 170 0
 729 00a4 DB00     		lsls	r3, r3, #3
 730              	.LVL23:
 731 00a6 DBB2     		uxtb	r3, r3
 732              	.LVL24:
 171:..\u8g2_csrc/u8x8_d_uc1701_dogs102.c ****       u8x8_cad_SendCmd(u8x8, 0x010 | (x>>4) );
 733              		.loc 1 171 0
 734 00a8 95F82280 		ldrb	r8, [r5, #34]	@ zero_extendqisi2
 735 00ac 9844     		add	r8, r8, r3
 736 00ae 5FFA88F8 		uxtb	r8, r8
 737              	.LVL25:
 172:..\u8g2_csrc/u8x8_d_uc1701_dogs102.c ****       u8x8_cad_SendCmd(u8x8, 0x000 | ((x&15)));
 738              		.loc 1 172 0
 739 00b2 4FEA1811 		lsr	r1, r8, #4
 740 00b6 41F01001 		orr	r1, r1, #16
 741 00ba 2846     		mov	r0, r5
 742 00bc FFF7FEFF 		bl	u8x8_cad_SendCmd
 743              	.LVL26:
 173:..\u8g2_csrc/u8x8_d_uc1701_dogs102.c ****       u8x8_cad_SendCmd(u8x8, 0x0b0 | (((u8x8_tile_t *)arg_ptr)->y_pos));
 744              		.loc 1 173 0
 745 00c0 08F00F01 		and	r1, r8, #15
 746 00c4 2846     		mov	r0, r5
 747 00c6 FFF7FEFF 		bl	u8x8_cad_SendCmd
ARM GAS  C:\Users\info\AppData\Local\Temp\cc8zRlCv.s 			page 50


 748              	.LVL27:
 174:..\u8g2_csrc/u8x8_d_uc1701_dogs102.c ****     
 749              		.loc 1 174 0
 750 00ca B979     		ldrb	r1, [r7, #6]	@ zero_extendqisi2
 751 00cc 41F0B001 		orr	r1, r1, #176
 752 00d0 2846     		mov	r0, r5
 753 00d2 FFF7FEFF 		bl	u8x8_cad_SendCmd
 754              	.LVL28:
 176:..\u8g2_csrc/u8x8_d_uc1701_dogs102.c ****       c *= 8;
 755              		.loc 1 176 0
 756 00d6 3E79     		ldrb	r6, [r7, #4]	@ zero_extendqisi2
 757              	.LVL29:
 177:..\u8g2_csrc/u8x8_d_uc1701_dogs102.c ****       ptr = ((u8x8_tile_t *)arg_ptr)->tile_ptr;
 758              		.loc 1 177 0
 759 00d8 F600     		lsls	r6, r6, #3
 760              	.LVL30:
 761 00da F6B2     		uxtb	r6, r6
 762              	.LVL31:
 178:..\u8g2_csrc/u8x8_d_uc1701_dogs102.c ****       /* 
 763              		.loc 1 178 0
 764 00dc 3F68     		ldr	r7, [r7]
 765              	.LVL32:
 184:..\u8g2_csrc/u8x8_d_uc1701_dogs102.c ****       {
 766              		.loc 1 184 0
 767 00de 06EB0803 		add	r3, r6, r8
 768 00e2 842B     		cmp	r3, #132
 769 00e4 02D9     		bls	.L13
 770              	.LVL33:
 187:..\u8g2_csrc/u8x8_d_uc1701_dogs102.c ****       }
 771              		.loc 1 187 0
 772 00e6 C8F18406 		rsb	r6, r8, #132
 773 00ea F6B2     		uxtb	r6, r6
 774              	.LVL34:
 775              	.L13:
 191:..\u8g2_csrc/u8x8_d_uc1701_dogs102.c **** 	arg_int--;
 776              		.loc 1 191 0 discriminator 1
 777 00ec 3A46     		mov	r2, r7
 778 00ee 3146     		mov	r1, r6
 779 00f0 2846     		mov	r0, r5
 780 00f2 FFF7FEFF 		bl	u8x8_cad_SendData
 781              	.LVL35:
 192:..\u8g2_csrc/u8x8_d_uc1701_dogs102.c ****       } while( arg_int > 0 );
 782              		.loc 1 192 0 discriminator 1
 783 00f6 621E     		subs	r2, r4, #1
 784              	.LVL36:
 193:..\u8g2_csrc/u8x8_d_uc1701_dogs102.c ****       
 785              		.loc 1 193 0 discriminator 1
 786 00f8 12F0FF04 		ands	r4, r2, #255
 787 00fc F6D1     		bne	.L13
 195:..\u8g2_csrc/u8x8_d_uc1701_dogs102.c ****       break;
 788              		.loc 1 195 0
 789 00fe 2846     		mov	r0, r5
 790 0100 FFF7FEFF 		bl	u8x8_cad_EndTransfer
 791              	.LVL37:
 792              		.loc 1 200 0
 793 0104 0120     		movs	r0, #1
 196:..\u8g2_csrc/u8x8_d_uc1701_dogs102.c ****     default:
ARM GAS  C:\Users\info\AppData\Local\Temp\cc8zRlCv.s 			page 51


 794              		.loc 1 196 0
 795 0106 BDE8F081 		pop	{r4, r5, r6, r7, r8, pc}
 796              	.LVL38:
 797              	.L14:
 198:..\u8g2_csrc/u8x8_d_uc1701_dogs102.c ****   }
 798              		.loc 1 198 0
 799 010a 0020     		movs	r0, #0
 800              	.LVL39:
 201:..\u8g2_csrc/u8x8_d_uc1701_dogs102.c **** }
 801              		.loc 1 201 0
 802 010c BDE8F081 		pop	{r4, r5, r6, r7, r8, pc}
 803              	.LVL40:
 804              	.L17:
 805              		.align	2
 806              	.L16:
 807 0110 00000000 		.word	.LANCHOR0
 808 0114 18000000 		.word	.LANCHOR0+24
 809 0118 3C000000 		.word	.LANCHOR0+60
 810 011c 44000000 		.word	.LANCHOR0+68
 811 0120 4C000000 		.word	.LANCHOR0+76
 812 0124 54000000 		.word	.LANCHOR0+84
 813              		.cfi_endproc
 814              	.LFE0:
 815              		.size	u8x8_d_uc1701_ea_dogs102, .-u8x8_d_uc1701_ea_dogs102
 816              		.section	.rodata
 817              		.align	2
 818              		.set	.LANCHOR0,. + 0
 819              		.type	u8x8_uc1701_display_info, %object
 820              		.size	u8x8_uc1701_display_info, 24
 821              	u8x8_uc1701_display_info:
 822 0000 00       		.byte	0
 823 0001 01       		.byte	1
 824 0002 05       		.byte	5
 825 0003 05       		.byte	5
 826 0004 01       		.byte	1
 827 0005 06       		.byte	6
 828 0006 0C       		.byte	12
 829 0007 4B       		.byte	75
 830 0008 00093D00 		.word	4000000
 831 000c 00       		.byte	0
 832 000d 04       		.byte	4
 833 000e 1E       		.byte	30
 834 000f 28       		.byte	40
 835 0010 0D       		.byte	13
 836 0011 08       		.byte	8
 837 0012 00       		.byte	0
 838 0013 1E       		.byte	30
 839 0014 6600     		.short	102
 840 0016 4000     		.short	64
 841              		.type	u8x8_d_uc1701_dogs102_init_seq, %object
 842              		.size	u8x8_d_uc1701_dogs102_init_seq, 33
 843              	u8x8_d_uc1701_dogs102_init_seq:
 844 0018 18       		.byte	24
 845 0019 15       		.byte	21
 846 001a E2       		.byte	-30
 847 001b 15       		.byte	21
 848 001c AE       		.byte	-82
ARM GAS  C:\Users\info\AppData\Local\Temp\cc8zRlCv.s 			page 52


 849 001d 15       		.byte	21
 850 001e 40       		.byte	64
 851 001f 15       		.byte	21
 852 0020 A1       		.byte	-95
 853 0021 15       		.byte	21
 854 0022 C0       		.byte	-64
 855 0023 15       		.byte	21
 856 0024 A6       		.byte	-90
 857 0025 15       		.byte	21
 858 0026 A2       		.byte	-94
 859 0027 15       		.byte	21
 860 0028 2F       		.byte	47
 861 0029 15       		.byte	21
 862 002a 27       		.byte	39
 863 002b 15       		.byte	21
 864 002c 81       		.byte	-127
 865 002d 16       		.byte	22
 866 002e 0E       		.byte	14
 867 002f 15       		.byte	21
 868 0030 FA       		.byte	-6
 869 0031 15       		.byte	21
 870 0032 90       		.byte	-112
 871 0033 15       		.byte	21
 872 0034 AE       		.byte	-82
 873 0035 15       		.byte	21
 874 0036 A5       		.byte	-91
 875 0037 19       		.byte	25
 876 0038 FF       		.byte	-1
 877 0039 000000   		.space	3
 878              		.type	u8x8_d_uc1701_dogs102_powersave0_seq, %object
 879              		.size	u8x8_d_uc1701_dogs102_powersave0_seq, 7
 880              	u8x8_d_uc1701_dogs102_powersave0_seq:
 881 003c 18       		.byte	24
 882 003d 15       		.byte	21
 883 003e A4       		.byte	-92
 884 003f 15       		.byte	21
 885 0040 AF       		.byte	-81
 886 0041 19       		.byte	25
 887 0042 FF       		.byte	-1
 888 0043 00       		.space	1
 889              		.type	u8x8_d_uc1701_dogs102_powersave1_seq, %object
 890              		.size	u8x8_d_uc1701_dogs102_powersave1_seq, 7
 891              	u8x8_d_uc1701_dogs102_powersave1_seq:
 892 0044 18       		.byte	24
 893 0045 15       		.byte	21
 894 0046 AE       		.byte	-82
 895 0047 15       		.byte	21
 896 0048 A5       		.byte	-91
 897 0049 19       		.byte	25
 898 004a FF       		.byte	-1
 899 004b 00       		.space	1
 900              		.type	u8x8_d_uc1701_dogs102_flip0_seq, %object
 901              		.size	u8x8_d_uc1701_dogs102_flip0_seq, 7
 902              	u8x8_d_uc1701_dogs102_flip0_seq:
 903 004c 18       		.byte	24
 904 004d 15       		.byte	21
 905 004e A1       		.byte	-95
ARM GAS  C:\Users\info\AppData\Local\Temp\cc8zRlCv.s 			page 53


 906 004f 15       		.byte	21
 907 0050 C0       		.byte	-64
 908 0051 19       		.byte	25
 909 0052 FF       		.byte	-1
 910 0053 00       		.space	1
 911              		.type	u8x8_d_uc1701_dogs102_flip1_seq, %object
 912              		.size	u8x8_d_uc1701_dogs102_flip1_seq, 7
 913              	u8x8_d_uc1701_dogs102_flip1_seq:
 914 0054 18       		.byte	24
 915 0055 15       		.byte	21
 916 0056 A0       		.byte	-96
 917 0057 15       		.byte	21
 918 0058 C8       		.byte	-56
 919 0059 19       		.byte	25
 920 005a FF       		.byte	-1
 921              		.text
 922              	.Letext0:
 923              		.file 2 "c:\\program files (x86)\\cypress\\psoc creator\\4.2\\psoc creator\\import\\gnu\\arm\\5.4.
 924              		.file 3 "c:\\program files (x86)\\cypress\\psoc creator\\4.2\\psoc creator\\import\\gnu\\arm\\5.4.
 925              		.file 4 "..\\u8g2_csrc\\u8x8.h"