ARM GAS  C:\Users\info\AppData\Local\Temp\cc5I06eS.s 			page 1


   1              		.syntax unified
   2              		.cpu cortex-m3
   3              		.fpu softvfp
   4              		.eabi_attribute 20, 1
   5              		.eabi_attribute 21, 1
   6              		.eabi_attribute 23, 3
   7              		.eabi_attribute 24, 1
   8              		.eabi_attribute 25, 1
   9              		.eabi_attribute 26, 1
  10              		.eabi_attribute 30, 1
  11              		.eabi_attribute 34, 1
  12              		.eabi_attribute 18, 4
  13              		.thumb
  14              		.syntax unified
  15              		.file	"u8x8_d_uc1604.c"
  16              		.text
  17              	.Ltext0:
  18              		.section	.gnu.lto_.profile.792a5dfe,"",%progbits
  19 0000 789C6361 		.ascii	"x\234ca`d`e`\000\222\177\031\223\001\003\332\001m"
  19      60646065 
  19      6000927F 
  19      19930103 
  19      DA016D
  20              		.text
  21              		.section	.gnu.lto_.inline.792a5dfe,"",%progbits
  22 0000 789C6361 		.ascii	"x\234ca`d\000\201C\014\010\300\304\300p\216\3418P\202"
  22      60640081 
  22      430C08C0 
  22      C4C0708E 
  22      E1385082 
  23 0014 C97ECE2D 		.ascii	"\311~\316-F\006\376\031ZL`an\006\006\306\011~\314<@"
  23      4606FE19 
  23      5A4C6061 
  23      6E0606C6 
  23      097ECC3C 
  24 0029 E6043F38 		.ascii	"\346\004?8\003M\234\001\027\015U\306\302\313\310\300"
  24      034D9C01 
  24      170D55C6 
  24      C2CBC8C0 
  25 0039 3C45B985 		.ascii	"<E\271\205\275\205\035\335$$\006T1+\203\2444\320\031"
  25      BD851DDD 
  25      24240654 
  25      312B83A4 
  25      34D019
  26 004c 022B8C18 		.ascii	"\002+\214\030\330\346\310\203]\201\303V6~\006\006\026"
  26      D8E6C883 
  26      5D81C356 
  26      367E0606 
  26      16
  27 005d 904E1064 		.ascii	"\220N\020d\000\000\270\237\036\240"
  27      0000B89F 
  27      1EA0
  28              		.text
  29              		.section	.gnu.lto_.jmpfuncs.792a5dfe,"",%progbits
  30 0000 789C6361 		.ascii	"x\234ca`d\000\001)\006\004`b@\007\254P\032\000\005J"
  30      60640001 
  30      29060460 
ARM GAS  C:\Users\info\AppData\Local\Temp\cc5I06eS.s 			page 2


  30      624007AC 
  30      501A0005 
  31 0015 0027     		.ascii	"\000'"
  32              		.text
  33              		.section	.gnu.lto_.pureconst.792a5dfe,"",%progbits
  34 0000 789C6361 		.ascii	"x\234ca`d`e```b\220b\225\000\000\000\363\000D"
  34      60646065 
  34      60606062 
  34      90629500 
  34      0000F300 
  35              		.text
  36              		.section	.gnu.lto_u8x8_d_uc1604_common.792a5dfe,"",%progbits
  37 0000 789C9D57 		.ascii	"x\234\235WiLTW\024\276\347\335\231y3o6@\\\231\022\022"
  37      694C5457 
  37      14BEE7DD 
  37      9979336F 
  37      36405C99 
  38 0016 B5E88FBA 		.ascii	"\265\350\217\2726\255\375\321\264\366W\177\367\267\215"
  38      36ADFDD1 
  38      B4F6577F 
  38      F7B78D
  39 0025 69B0B14D 		.ascii	"i\260\261M\323\246qI\354\217\206\307\014\203J\254bT"
  39      D3A67149 
  39      EC8F86C7 
  39      0C834AAC 
  39      6254
  40 0037 DC97C45A 		.ascii	"\334\227\304Z\255+\270\003.#\352\240\010(\212\"\356"
  40      AD2BB803 
  40      2E23EAA0 
  40      08288A22 
  40      EE
  41 0048 E2461591 		.ascii	"\342F\025\221\031\265\270O\317\271\367=\230\201\001"
  41      19B5B84F 
  41      CFB9F73D 
  41      988101
  42 0057 B52473DF 		.ascii	"\265$s\337}\367\235\357\234\357~\347\334\363\036\026"
  42      7DF79DEF 
  42      9CEF7EE7 
  42      DCF31E16 
  43 0067 068CFEF2 		.ascii	"\006\214\376\362<\214}\205\3270\376\300\313@)\252\303"
  43      3C8C7D85 
  43      D730FEC0 
  43      CB4029AA 
  43      C3
  44 0078 45BB6275 		.ascii	"E\273bu\237\3612\335n\023\243C\214.1r9\202E\032Z\024"
  44      9FF132DD 
  44      6E13A343 
  44      8C2E3172 
  44      3982451A 
  45 008e CFBC2AC6 		.ascii	"\317\274*\306t\315\232\2572\335\345\221\353\023\255"
  45      74CD9AAF 
  45      32DDE591 
  45      EB13AD
  46 009d E096CF6D 		.ascii	"\340\226\317m\212:'\033\037\333it\251\346\262\335\234"
  46      8A3A271B 
  46      1FDB6974 
  46      A9E6B2DD 
ARM GAS  C:\Users\info\AppData\Local\Temp\cc5I06eS.s 			page 3


  46      9C
  47 00ae 38144D3C 		.ascii	"8\024M<w\212\347\232\271\3544'.s\342\006\240\211n\007"
  47      778AE79A 
  47      B9EC3427 
  47      2E73E206 
  47      A0896E07 
  48 00c2 96AB708B 		.ascii	"\226\253p\213\307jS\355\016\315\351rC\256ba\020\262"
  48      C76A53ED 
  48      0ECDE972 
  48      43AE6261 
  48      10B2
  49 00d4 404CEEE8 		.ascii	"@L\356\350\251\362Z\201S\035'\346i#7\352\272_\277\021"
  49      A9F25A81 
  49      531D27E6 
  49      692337EA 
  49      BA5FBF11 
  50 00e8 BCF775C4 		.ascii	"\274\367u\304\037\034\024\344\214\305\024\006\343}0"
  50      1F1C14E4 
  50      8CC51406 
  50      E37D30
  51 00f7 C647BBDD 		.ascii	"\306G\273\335\010#\321\262>\277d\025\177\242\0049\200"
  51      0823D1B2 
  51      3EBF6415 
  51      7FA20439 
  51      80
  52 0108 056F23B5 		.ascii	"\005o#\265+ny\350V\201,\274]\327\260\376\212\215g\001"
  52      2B6E79E8 
  52      56812CBC 
  52      5DD7B0FE 
  52      8A8D6701 
  53 011c C3797175 		.ascii	"\303yquC\233;{\003\371\324W\177\257;\202\234\303f\340"
  53      439B3B7B 
  53      03F9D457 
  53      7FAF3B82 
  53      9CC366E0 
  54 0130 E4F36FF0 		.ascii	"\344\363o\360\301&\3601\\b\260\005\262\321\272\246\244"
  54      C126F031 
  54      5C62B005 
  54      B2D1BAA6 
  54      A4
  55 0141 ACD1C287 		.ascii	"\254\321\302\207\013d\307\201\243\257Md\323\267:G*\260"
  55      0B64C781 
  55      A3AF4D64 
  55      D3B73A47 
  55      2AB0
  56 0153 5522251B 		.ascii	"U\"%\033\342\006\333\004nY\375\215?4>R\340V\335y\324"
  56      E206DB04 
  56      6E59FD8D 
  56      3F343E52 
  56      E056DD79 
  57 0168 6435708B 		.ascii	"d5p\213\302N}\014\001\267\367\000\356\020\300\246{\265"
  57      C24E7D0C 
  57      01B7F700 
  57      EE10C0A6 
  57      7BB5
  58 017a E7343E56 		.ascii	"\3474>V\0007\357\271\276S5\200\365a\227^\004An\201\222"
  58      0037EFB9 
ARM GAS  C:\Users\info\AppData\Local\Temp\cc5I06eS.s 			page 4


  58      BE533580 
  58      F561975E 
  58      04416E81 
  59 018f EE6451B7 		.ascii	"\356dQ\267R\310&\300\374\206\302f\316?\023\340\015z"
  59      52C826C0 
  59      FC86C266 
  59      CE3F13E0 
  59      0D7A
  60 01a1 49A163F8 		.ascii	"I\241c\370z\002\207\016\027x\226\353\241\374\254 \267"
  60      7A02870E 
  60      177896EB 
  60      A1FCAC20 
  60      B7
  61 01b2 C2CE4438 		.ascii	"\302\316D8\375\241u\335\306\015\2135\376\271@\256-."
  61      FDA175DD 
  61      C60D8B35 
  61      FEB940AE 
  61      2D2E
  62 01c4 BF68220F 		.ascii	"\277h\"\017\206\323\227\352\241\274,\242\274;\236\262"
  62      86D397EA 
  62      A1BC2CA2 
  62      BC3B9EB2 
  63 01d4 813B5078 		.ascii	"\201;Px\352\225\235\177!p\363\217\027\365\2230\375\340"
  63      EA959D7F 
  63      2170F38F 
  63      17F59330 
  63      FDE0
  64 01e6 243DF025 		.ascii	"$=\360%a\366&\301\254(\237\355\327\370D\201\011\354"
  64      61F626C1 
  64      AC289FED 
  64      D7F84481 
  64      09EC
  65 01f8 6FACF01A 		.ascii	"o\254\360\032\240}&h\177\022Ps\351\233%n[\276\216\177"
  65      A07D2668 
  65      7F125073 
  65      E99B256E 
  65      5BBE8E7F 
  66 020c 595006C3 		.ascii	"YP\006\303a\037\376\366\340o\027\014\247\202@\001\313"
  66      611FFEF6 
  66      E06F170C 
  66      A7824001 
  66      CB
  67 021d C186B563 		.ascii	"\301\206\265c\351\376t\3077!=\026\013\350\241\012\333"
  67      E9FE74C7 
  67      37213D16 
  67      0BE8A10A 
  67      DB
  68 022e 91B3DA28 		.ascii	"\221\263\332(\020J+\244\271\025([*P\256\035@\"j\214"
  68      104A2BA4 
  68      B915285B 
  68      2A50AE1D 
  68      40226A8C 
  69 0242 D04E31BA 		.ascii	"\320N1\272\320\304\346\241\301KC*#\247i4\355'\246\351"
  69      D0C4E6A1 
  69      C14B432A 
  69      23A76934 
  69      ED27A6E9 
ARM GAS  C:\Users\info\AppData\Local\Temp\cc5I06eS.s 			page 5


  70 0256 3855FBD3 		.ascii	"8U\373\3230\200\206\201\364d0\243\250C\304\230\301("
  70      30808681 
  70      F46430A3 
  70      A843C498 
  70      C128
  71 0268 BA0F285C 		.ascii	"\272\017(\\\246\010:\024M\354\303\310.\233f#h\306X;"
  71      A6083A14 
  71      4DECC3C8 
  71      2E9B6623 
  71      68C6583B 
  72 027c 925F3C94 		.ascii	"\222_<\224E\024\005/\374\016\024\204\352\303@\233\011"
  72      4514052F 
  72      FC0E1484 
  72      EAC3409B 
  72      09
  73 028d 702BD56B 		.ascii	"p+\325k\323\237-\326\205\260 \017\367\036\252\250\306"
  73      D39F2DD6 
  73      85B0200F 
  73      F71EAAA8 
  73      C6
  74 029e 9A76E0F9 		.ascii	"\232v\340\371\341$\013T\300B@\223\227\317\352\016\252"
  74      E1240B54 
  74      C0424093 
  74      97CFEA0E 
  74      AA
  75 02af 54ED0C9C 		.ascii	"T\355\014\234T\247K\356\256\263\231\210\013*\002\340"
  75      54A74BEE 
  75      AEB39988 
  75      0B2A02E0 
  76 02bf 00665AE7 		.ascii	"\000fZ\347t\262\340\240\304\264\227m\330\244H\214\033"
  76      74B2E0A0 
  76      C4B4976D 
  76      D8A4488C 
  76      1B
  77 02d0 6FEFEC5D 		.ascii	"o\357\354]>\207\233\230\250\300\034\022\030\241\354"
  77      3E879B98 
  77      A8C01C12 
  77      18A1EC
  78 02df 61897978 		.ascii	"a\211yxa\313V.1\036\274}Zwi\223\313\304\254\322\010"
  78      61CB562E 
  78      311EBC7D 
  78      5A776993 
  78      CBC4ACD2 
  79 02f4 13121822 		.ascii	"\023\022\030\"\007G$f\353_\221\220Wb\274x\273f\367\306"
  79      07472466 
  79      EB5F9190 
  79      5762BC78 
  79      BB66F7C6 
  80 0308 C56E13D3 		.ascii	"\305n\023\323`#L\245\300X\010s\0241x\215(\234\345\253"
  80      60234CA5 
  80      C0580873 
  80      1431788D 
  80      289CE5AB 
  81 031c FC36E4A5 		.ascii	"\3746\344\245\220\016\364\260\005\362C\215aN\267T\015"
  81      900EF4B0 
  81      05F2438D 
  81      614EB754 
ARM GAS  C:\Users\info\AppData\Local\Temp\cc5I06eS.s 			page 6


  81      0D
  82 032d 6565AD97 		.ascii	"ee\255\227\325\334\327\372\034]O\011r-\246 \014\216"
  82      D5DCD7FA 
  82      1C5D4F09 
  82      722DA620 
  82      0C8E
  83 033f 412E0B70 		.ascii	"A.\013p\344\356dw\301_\036\271\260\220K\0315\2221Xy"
  83      E4EE6477 
  83      C15F1EB9 
  83      B0904B19 
  83      35923158 
  84 0354 5A68E492 		.ascii	"Zh\344\222g\271\252z\216k-\254\316\243\202Z\012\230"
  84      67B9AA7A 
  84      8E6B2DAC 
  84      CEA3825A 
  84      0A98
  85 0366 097700B9 		.ascii	"\011w\000\271\034\247\023A\207\347\266\177\273:\372"
  85      1CA71341 
  85      87E7B67F 
  85      BB3AFA
  86 0375 23621D86 		.ascii	"#b\035\206\265\360F\021rW\301h\326\014~}\274(5,\021"
  86      B5F04611 
  86      7257C168 
  86      D60C7E7D 
  86      BC28352C 
  87 038a 748DA102 		.ascii	"t\215\241\002+\012\242Cd$\247\014V\370\242q\276]n\332"
  87      2B0AA243 
  87      6424A70C 
  87      56F8A271 
  87      BE5D6EDA 
  88 039e 0E27D067 		.ascii	"\016'\320g3(]\030\242\027xU\020^\351\221 \027.\011\025"
  88      33285D18 
  88      A2177855 
  88      105EE991 
  88      20172E09 
  89 03b3 5AC09A7C 		.ascii	"Z\300\232|\203\236\030\026\007\203\223r\203\210\010"
  89      839E1816 
  89      07839372 
  89      838808
  90 03c2 722F3989 		.ascii	"r/9\211\026TgH\037\036\364\021\337\006S\300\002\325"
  90      16546748 
  90      1F1EF411 
  90      DF0653C0 
  90      02D5
  91 03d4 E8128D9E 		.ascii	"\350\022\215\236\331\244\211\027\255\320\344l{\315j"
  91      D9A48917 
  91      ADD0E46C 
  91      7BCD6A
  92 03e3 2799D820 		.ascii	"'\231\330 \005N\275C\324\0323\252WFEe\257\232\312\246"
  92      054EBD43 
  92      D41A33AA 
  92      57464565 
  92      AF9ACAA6 
  93 03f7 BE9794B5 		.ascii	"\276\227\224\265BJQ\205u\011R\356#YR\205\357\322kyV"
  93      424A5185 
  93      750952EE 
  93      23595285 
ARM GAS  C:\Users\info\AppData\Local\Temp\cc5I06eS.s 			page 7


  93      EFD26B79 
  94 040c E93B2D3E 		.ascii	"\351;->k<!k\330\007S\221\022\234\356\031\343\214\210"
  94      6B3C216B 
  94      D8075391 
  94      129CEE19 
  94      E38C88
  95 041f 21AAB61E 		.ascii	"!\252\266\036c\340\376\213\013j\214\343\324/@\260\264"
  95      63E0FE8B 
  95      0B6A8CE3 
  95      D42F40B0 
  95      B4
  96 0430 CE6C88B0 		.ascii	"\316l\210\260\375(ltv\233\231\215t\271\024xe\310\326"
  96      FD286C74 
  96      769B998D 
  96      74B91478 
  96      65C8D6
  97 0443 1F97E2EB 		.ascii	"\037\227\342\353X\005/\234MTv\000Z\241\311\221\340\241"
  97      58052F9C 
  97      4D547600 
  97      5AA1C991 
  97      E0A1
  98 0455 5A8B3429 		.ascii	"Z\2134)\311\205s\302\306\037U\245\315@4{\253\324\015"
  98      C98573C2 
  98      C61F55A5 
  98      CD40347B 
  98      ABD40D
  99 0468 A6D4033B 		.ascii	"\246\324\003;\245\276nJ=\370\275\244>/d\020\007\361"
  99      A5BE6E4A 
  99      3DF8BDA4 
  99      3E2F6410 
  99      07F1
 100 047a 4282D47B 		.ascii	"B\202\324{h\317\203e\325V\372\244\353!\270\222P\246"
 100      68CF8365 
 100      D556FAA4 
 100      EB21B892 
 100      50A6
 101 048c C2688824 		.ascii	"\302h\210$p\273\324 \220\321\235\300\312\336\011X\241"
 101      70BBD420 
 101      90D19DC0 
 101      CADE0958 
 101      A1
 102 049d 511010A7 		.ascii	"Q\020\020\247\372\242A\340S\341{\027\371\316\020\247"
 102      FAA241E0 
 102      53E17B17 
 102      F9CE10A7 
 103 04ad DCC2F05B 		.ascii	"\334\302\360[\200\343\243\024\321\036\003\230\344\026"
 103      80E3A314 
 103      D11E0398 
 103      E416
 104 04bb 6C7FCB67 		.ascii	"l\177\313gCr\225\322b\264#h2UB\336\031A\231\255\342"
 104      437295D2 
 104      62B42368 
 104      325542DE 
 104      194199AD 
 105 04d0 82B655E3 		.ascii	"\202\266U\343$\317L\364\203\320s\201c\247\215f\025\003"
 105      24CF4CF4 
 105      83D07381 
ARM GAS  C:\Users\info\AppData\Local\Temp\cc5I06eS.s 			page 8


 105      63A78D66 
 105      1503
 106 04e2 B814B73B 		.ascii	"\270\024\267;\021*\223\335\204\374\313\201\212\371F"
 106      112A93DD 
 106      84FCCB81 
 106      8AF946
 107 04f1 7E3211B2 		.ascii	"~2\021\262\243\265\354\271[\036\015\006\227\345\313"
 107      A3B5ECB9 
 107      5B1E0D06 
 107      97E5CB
 108 0500 310A10E0 		.ascii	"1\012\020\340>\216C\246\347J\331\024\354\326\036\206"
 108      3E8E43A6 
 108      E74AD914 
 108      ECD61E86 
 109 0510 9F4A1051 		.ascii	"\237J\020Q\254\324\243\250/\225V\365\336\227P\000\270"
 109      ACD4A3A8 
 109      2F9556F5 
 109      DE975000 
 109      B8
 110 0521 D2D59768 		.ascii	"\322\325\227h\327\266\304\336\006D\344R`\327\002\243"
 110      D7B6C4DE 
 110      0644E452 
 110      60D702A3 
 111 0531 85F8CCC8 		.ascii	"\205\370\314\310h\252\262J\216!\202\241\313\275I\222"
 111      68AAB24A 
 111      8E2182A1 
 111      CBBD4992 
 112 0541 1E431E0C 		.ascii	"\036C\036\014\256\312\020\361'\246\277|\277\2768\374"
 112      AECA10F1 
 112      27A6BF7C 
 112      BFBE38FC 
 113 0551 D883D6CB 		.ascii	"\330\203\326\313\204u\377\271\334*\022ur\305\226\237"
 113      8475FFB9 
 113      DC2A1275 
 113      72C5969F 
 114 0561 288D4562 		.ascii	"(\215Eby\000\\\207\\\270f$1v\177\347v\207\204\350\277"
 114      79005C87 
 114      5CB86624 
 114      31767FE7 
 114      768784E8 
 115 0576 939F1B98 		.ascii	"\223\237\033\230J\021\035nBn\220\017\024\324\354&\265"
 115      4A111D6E 
 115      426E900F 
 115      14D4EC26 
 115      B5
 116 0587 EB6FA1D6 		.ascii	"\353o\241\326\334\223\332\240$\324\006\315\245wa\017"
 116      DC93DAA0 
 116      24D406CD 
 116      A577610F 
 117 0597 6A83E136 		.ascii	"j\203\3416R\273\225\234\332 \270\323I\355n\0275G\242"
 117      52BB959C 
 117      DA20B8D3 
 117      49ED6E17 
 117      3547A2
 118 05aa C08A14F8 		.ascii	"\300\212\024\370A2\2015s\027\317\337\262\213{\235\273"
 118      41328135 
 118      7317CFDF 
ARM GAS  C:\Users\info\AppData\Local\Temp\cc5I06eS.s 			page 9


 118      B28B7B9D 
 118      BB
 119 05bb E8415B4D 		.ascii	"\350A[MJ\273\245/\332\377t\322\276/i\213\223\366&bt"
 119      4ABBA52F 
 119      DAFF74D2 
 119      BE2F698B 
 119      93F62662 
 120 05d0 BEEC7769 		.ascii	"\276\354wiuvx \216\230\225\216X\253hu\376\362\233\037"
 120      75767820 
 120      8E98958E 
 120      58AB6875 
 120      FEF29B1F 
 121 05e4 4A0F23E2 		.ascii	"J\017#\342\345\266w\357\235xn\262\341\241\341p\315\262"
 121      E5B677EF 
 121      9D786EB2 
 121      E1A1E170 
 121      CDB2
 122 05f6 FD8F3DA3 		.ascii	"\375\217=\243\267\021\353\014h\023.m\344\362\221tY|"
 122      B711EB0C 
 122      68132E6D 
 122      E4F29174 
 122      597C
 123 0608 339D5C76 		.ascii	"3\235\\v?\373\356\336;p{W\007\216\300h\344\"\224v\232"
 123      3FFBEEDE 
 123      3B707B57 
 123      078EC068 
 123      E4229476 
 124 061d 4A2F2AEC 		.ascii	"J/*\354[\351h\357J\333\223*\375\270/\245\237t*\375\264"
 124      5BE968EF 
 124      4ADB932A 
 124      FDB82FA5 
 124      9F742AFD 
 125 0632 4BE9D2E3 		.ascii	"K\351\322\343QC\351\241\357\246\364\277]JwtSzX\017i"
 125      5143E9A1 
 125      EFA6F4BF 
 125      5D4A7774 
 125      537A580F 
 126 0647 872697F6 		.ascii	"\207&\227\366\231\360\241\222\217\347\377W\332\027]"
 126      99F0A192 
 126      8FE7FF57 
 126      DA175D
 127 0656 D2BE2469 		.ascii	"\322\276$i\207\011i]\211\365\316\305\307\322\332\352"
 127      8709695D 
 127      89F5CEC5 
 127      C7D2DAEA 
 128 0666 BE3F965E 		.ascii	"\276?\226^u5%\312J\211\326\347\213\351ugRZ:\316\314"
 128      753525CA 
 128      4A89D6E7 
 128      8BE97567 
 128      525A3ACE 
 129 067b B5C9B69A 		.ascii	"\265\311\266\232\007\360\006|\364\246\"\017;{\367\200"
 129      07F0067C 
 129      F4A6220F 
 129      3B7BF780 
 130 068b F5843DD8 		.ascii	"\365\204=\330h\332\006 ?\264\273\027\200\3215u%\241"
 130      68DA0620 
 130      3FB4BB17 
ARM GAS  C:\Users\info\AppData\Local\Temp\cc5I06eS.s 			page 10


 130      80D13575 
 130      25A1
 131 069d 6BBAE9E3 		.ascii	"k\272\351\343\2306)\276}\357\323;# >N\243\240\304\027"
 131      983629BE 
 131      7DEFD33B 
 131      23203E4E 
 131      A3A0C417 
 132 06b1 3BFE430C 		.ascii	";\376C\014y\212Oi=7\013\227\367\314\256)\325\3442\200"
 132      798A4F69 
 132      3D370B97 
 132      F7CCAE29 
 132      D5E43280 
 133 06c5 5FF1D9E7 		.ascii	"_\361\331\347\235\377\201\256VF\243&FU\214.1:\351s\034"
 133      9DFF81AE 
 133      5646A326 
 133      46558C2E 
 133      313AE973 
 134 06da 30147AFE 		.ascii	"0\024z\376`\324\250I3'L\03579g\372\264\034\234\315\232"
 134      60D4A849 
 134      33274C1D 
 134      373967FA 
 134      B41C9CCD 
 135 06ef 3079CAE4 		.ascii	"0y\312\344\2319c?\031\363\361\250\034f\241\005\376\363"
 135      9939633F 
 135      19F3F1A8 
 135      1C66A105 
 135      FEF3
 136 0701 F4A9EA77 		.ascii	"\364\251\352w\323\246N\376\361\227\031\342\372\353\214"
 136      D3A64EFE 
 136      F19719E2 
 136      FAEB8C
 137 0710 691C7F90 		.ascii	"i\034\177\220\003\277\301\254\377\000\004a\306\314"
 137      03BFC1AC 
 137      FF000461 
 137      C6CC
 138              		.text
 139              		.section	.gnu.lto_u8x8_d_uc1604_powersave0_seq.792a5dfe,"",%progbits
 140 0000 789C2D8E 		.ascii	"x\234-\216\315K\002A\030\207\347\3351\315\217\362RP"
 140      CD4B0241 
 140      1887E7DD 
 140      31CD8FF2 
 140      5250
 141 0012 B0FF4476 		.ascii	"\260\377Dv\361\317\333\303.T\207\220\212\274\024t(6"
 141      F1CFDBC3 
 141      2E548790 
 141      8ABC1474 
 141      2836
 142 0024 33DBEDC3 		.ascii	"3\333\355\3035\367$A\207P\310\272\324\036\202 \213 "
 142      35F72441 
 142      8750C8BA 
 142      D41E8220 
 142      8B20
 143 0036 880AC1C3 		.ascii	"\210\012\301\303\272\332oxg\340a\346\341\231\257\224"
 143      BADA6F78 
 143      67E061E6 
 143      E199AF94 
 144 0046 20A1C626 		.ascii	" \241\306&&^\011\221\030\3449\203\332\354\320p\244\240"
ARM GAS  C:\Users\info\AppData\Local\Temp\cc5I06eS.s 			page 11


 144      265E0991 
 144      18E43983 
 144      DAECD070 
 144      A4A0
 145 0058 29C1E3CF 		.ascii	")\301\343\317\235\210\224\023\025\240\303j/*r^\206>"
 145      9D889413 
 145      15A0C36A 
 145      2F2A725E 
 145      863E
 146 006a 45765BD7 		.ascii	"Ev[\327<\264\371\261n\315q-A\223\237~R\340\232\203>"
 146      3CB4F9B1 
 146      6ECD712D 
 146      41939F7E 
 146      52E09A83 
 147 007f 7F3D76F3 		.ascii	"\177=v\363\\'\352\352zp\024\352\303Y\350V\334\335\315"
 147      5C27EAEA 
 147      7A7014EA 
 147      C359E856 
 147      DCDDCD
 148 0092 71F6547E 		.ascii	"q\366T~s'\3254\373\242zy\303\031I\336\235\201\376\216"
 148      7327D534 
 148      FBA27A79 
 148      C31949DE 
 148      9D81FE8E 
 149 00a6 F75B59AE 		.ascii	"\367[Y\256\013\320A\334\010\347\271\246\241w\207\341"
 149      0BD041DC 
 149      08E7B9A6 
 149      A17787E1 
 150 00b6 58BF3C03 		.ascii	"X\277<\003}\260\375=}6\005\275\371\363]]%\364v:\352"
 150      7DB0FD3D 
 150      7D3605BD 
 150      F9F35D5D 
 150      25F4763A 
 151 00cb 14590DE8 		.ascii	"\024Y\015\350\267\375\376\252\277\271\004\275\177\331"
 151      B7FDFEAA 
 151      BFB904BD 
 151      7FD9
 152 00d9 AE64CA81 		.ascii	"\256d\312\201\265v`\365\245#\015Z1\351\232L*\231\324"
 152      B57660F5 
 152      A5230D5A 
 152      31E99A4C 
 152      2A99D4
 153 00ec C0D40217 		.ascii	"\300\324\002\027 \000>h\002\017\\\021\367K\335\317u"
 153      20003E68 
 153      020F5C11 
 153      F74BDDCF 
 153      75
 154 00fd 5FE57CA6 		.ascii	"_\345|\246\363)\250\203\023P\003\307\300%SP\233\312"
 154      F329A883 
 154      135003C7 
 154      C0255350 
 154      9BCA
 155 010f E21FCB11 		.ascii	"\342\037\313\021\206\003"
 155      8603
 156              		.text
 157              		.section	.gnu.lto_u8x8_d_uc1604_powersave1_seq.792a5dfe,"",%progbits
 158 0000 789C6361 		.ascii	"x\234ca`d\000\201\355@\014a10\374eb\\\337\372d%\307"
ARM GAS  C:\Users\info\AppData\Local\Temp\cc5I06eS.s 			page 12


 158      60640081 
 158      ED400C61 
 158      3130FC65 
 158      625CDFFA 
 159 0017 17A65666 		.ascii	"\027\246Vf\006\306\377\214@\376\305\226\015s\230A|F"
 159      06C6FF8C 
 159      40FEC596 
 159      0D739841 
 159      7C46
 160 0029 461620F7 		.ascii	"F\026 \367\313\36437\371!\322\222@\356\241O\033\226"
 160      CBF43337 
 160      F921D292 
 160      40EEA14F 
 160      1B96
 161 003b F3406499 		.ascii	"\363@d\231\201\334S\033\257\035\204j^\007\322|\364\377"
 161      81DC531B 
 161      AF1D846A 
 161      5E07D27C 
 161      F4FF
 162 004d F703FC10 		.ascii	"\367\003\374\020i& \367\361\362\177\323\331 \322\242"
 162      692620F7 
 162      F1F27FD3 
 162      D920D2A2 
 163 005d 40EEBB96 		.ascii	"@\356\273\226\247\017\270!\\\011 \367\322\355\333\253"
 163      A70FB821 
 163      5C0920F7 
 163      D2EDDBAB 
 164 006d 792DB635 		.ascii	"y-\2665t,h\010hefb4\224\001\032\"\303h$\303\270\026"
 164      742C6808 
 164      68656662 
 164      3494011A 
 164      22C36824 
 165 0084 48AD01E2 		.ascii	"H\255\001\342\325@\274\012\210W\002\361\012 ^\316(\303"
 165      D540BC0A 
 165      885702F1 
 165      0A205ECE 
 165      28C3
 166 0096 C0B89ED1 		.ascii	"\300\270\236\321\202\001\000\317\260?\177"
 166      820100CF 
 166      B03F7F
 167              		.text
 168              		.section	.gnu.lto_u8x8_d_uc1604_flip0_seq.792a5dfe,"",%progbits
 169 0000 789C6361 		.ascii	"x\234ca`d\000\201\355@\014a10\374eb\\\337\372d%\307"
 169      60640081 
 169      ED400C61 
 169      3130FC65 
 169      625CDFFA 
 170 0017 17A65666 		.ascii	"\027\246Vf\006\306\377\214@\376\305\226\015s\230A|F"
 170      06C6FF8C 
 170      40FEC596 
 170      0D739841 
 170      7C46
 171 0029 461620F7 		.ascii	"F\026 \367\313\36437\371!\322\222@\356\241O\033\226"
 171      CBF43337 
 171      F921D292 
 171      40EEA14F 
 171      1B96
ARM GAS  C:\Users\info\AppData\Local\Temp\cc5I06eS.s 			page 13


 172 003b F3406499 		.ascii	"\363@d\231\201\334\256i\377\016rBd\217\2004\037\375"
 172      81DCAE69 
 172      FF0E7242 
 172      648F8034 
 172      1FFD
 173 004d FFFD003F 		.ascii	"\377\375\000?D\232\011\310}\274\374\337t6\210\264(\220"
 173      449A09C8 
 173      7DBCFCDF 
 173      743688B4 
 173      2890
 174 005f FBAEE5E9 		.ascii	"\373\256\345\351\003n\010W\002\310]\336\360\365\013"
 174      036E0857 
 174      02C85DDE 
 174      F0F50B
 175 006e A3C5B686 		.ascii	"\243\305\266\206\216\005\015\001\255\314L\214\2062\214"
 175      8E050D01 
 175      ADCC4C8C 
 175      86328C
 176 007d EB186518 		.ascii	"\353\030e\030\215d\030\327\002\2515@\274\032\210W\001"
 176      8D6418D7 
 176      02A93540 
 176      BC1A8857 
 176      01
 177 008e F14A205E 		.ascii	"\361J ^\001\304\313\031e\030\030\3273Z0\000\000\266"
 177      01C4CB19 
 177      651818D7 
 177      335A3000 
 177      00B6
 178 00a0 0C3F34   		.ascii	"\014?4"
 179              		.text
 180              		.section	.gnu.lto_u8x8_d_uc1604_flip1_seq.792a5dfe,"",%progbits
 181 0000 789C6361 		.ascii	"x\234ca`d\000\201\355@\014a10\374eb\\\337\372d%\307"
 181      60640081 
 181      ED400C61 
 181      3130FC65 
 181      625CDFFA 
 182 0017 17A65666 		.ascii	"\027\246Vf\006\306\377\214@\376\305\226\015s\230A|F"
 182      06C6FF8C 
 182      40FEC596 
 182      0D739841 
 182      7C46
 183 0029 461620F7 		.ascii	"F\026 \367\313\36437\371!\322\222@\356\241O\033\226"
 183      CBF43337 
 183      F921D292 
 183      40EEA14F 
 183      1B96
 184 003b F3406499 		.ascii	"\363@d\231\201\334;Wn=\205\312\036\002i>\372\377\373"
 184      81DC3B57 
 184      6E3D85CA 
 184      1E02693E 
 184      FAFFFB
 185 004e 017E8834 		.ascii	"\001~\2104\023\220\373x\371\277\351l\020iQ \367]\313"
 185      1390FB78 
 185      F9BFE96C 
 185      10695120 
 185      F75DCB
 186 0061 D307DC10 		.ascii	"\323\007\334\020\256\004\220{\367\316\374\025\354\026"
ARM GAS  C:\Users\info\AppData\Local\Temp\cc5I06eS.s 			page 14


 186      AE04907B 
 186      F7CEFC15 
 186      EC16
 187 006f DB1A3A16 		.ascii	"\333\032:\0264\004\264231\032\3120\256c\224a4\222a\\"
 187      3404B432 
 187      33311ACA 
 187      30AE6394 
 187      61349261 
 188 0084 0BA4D600 		.ascii	"\013\244\326\000\361j ^\005\304+\201x\005\020/g\224"
 188      F16A205E 
 188      05C42B81 
 188      7805102F 
 188      6794
 189 0096 61605CCF 		.ascii	"a`\\\317h\301\000\000\371\326?\276"
 189      68C10000 
 189      F9D63FBE 
 190              		.text
 191              		.section	.gnu.lto_u8x8_d_uc1604_jlx19264.792a5dfe,"",%progbits
 192 0000 789C7594 		.ascii	"x\234u\224\371KTQ\024\307\357\367\335\367\336,9\316"
 192      F94B5451 
 192      14C7EFF7 
 192      DDF7DE2C 
 192      39CE
 193 0012 D44F1153 		.ascii	"\324O\021S\370K\210\277\230V\204\377B\277\326\257\205"
 193      F84B88BF 
 193      985684FF 
 193      42BFD6AF 
 193      85
 194 0023 C4141691 		.ascii	"\304\024\026\221\204\025\364K\314\035g\036%T*T\206\330"
 194      8415F44B 
 194      CC1D671E 
 194      25542A54 
 194      86D8
 195 0035 46499BE5 		.ascii	"FI\233\345RVcSMV\322\342Bd\204-\264\223\204X\323\202"
 195      52566353 
 195      4D56D2E2 
 195      4264842D 
 195      B4938458 
 196 004b 94D874CE 		.ascii	"\224\330t\316}N\233\366`\336\273\367\276\3639\347{\226"
 196      7D4E9BF6 
 196      60DEBBF7 
 196      BEF339E7 
 196      7B96
 197 005d 37A680E0 		.ascii	"7\246\200\340\253\322\024\242\214\236\313\351\007\217"
 197      ABD214A2 
 197      8C9ECBE9 
 197      078F
 198 006b 8051D72F 		.ascii	"\200Q\327/D\314k\030rp\201P~;5O\250<)mg\216P^S\337-"
 198      44CC6B18 
 198      72708150 
 198      7E3B354F 
 198      A83C296D 
 199 0086 770DDB35 		.ascii	"w\015\3335\265r\013\033\340\205\362BD\015iZ6\242\370"
 199      B5720B1B 
 199      E085F242 
 199      440D695A 
 199      36A2F8
ARM GAS  C:\Users\info\AppData\Local\Temp\cc5I06eS.s 			page 15


 200 0099 6A4C18B8 		.ascii	"jL\030\2707v{\247\277\350\270R\325\352\305\255\321\245"
 200      37767BA7 
 200      BFE8B852 
 200      D5EAC5AD 
 200      D1A5
 201 00ab 996A67B6 		.ascii	"\231jg\266#\205\310\032\002\213\302(\011s\350\343(\""
 201      2385C81A 
 201      028BC228 
 201      0973E8E3 
 201      2822
 202 00bd CBFB89B6 		.ascii	"\313\373\211\266&\371\305p$`\3226\323\327\370:\237\267"
 202      26F9C570 
 202      2460D236 
 202      D3D7F83A 
 202      9FB7
 203 00cf 060A687B 		.ascii	"\006\012h{x\360\350S[\026@\320z\337\335\301\321@a3\373"
 203      78F0E853 
 203      5B1640D0 
 203      7ADFDDC1 
 203      D1406133 
 204 00e4 54ED6B94 		.ascii	"T\355k\224\317\221\022\247 \331\347I\204q\002aAG\002"
 204      CF9112A7 
 204      20D9E749 
 204      84710261 
 204      414702
 205 00f7 A75148D6 		.ascii	"\247QH\326\275m\311G\246\234\257\311\261\324\215\211"
 205      BD6DC947 
 205      A69CAFC9 
 205      B1D48D89 
 206 0107 1CF96CA5 		.ascii	"\034\371l\245\222$\005-.\351\252am8\243\271\375\367"
 206      9224052D 
 206      2EE9AA61 
 206      6D38A3B9 
 206      FDF7
 207 0119 5FECF2CB 		.ascii	"_\354\362\313\"\3155\275\3750dMr\015=3T\011\203g\247"
 207      22CD35BD 
 207      FD30644D 
 207      720D3D33 
 207      54098367 
 208 012e 80AD1A1C 		.ascii	"\200\255\032\034z\327\367\300/K5x\252\363y\207g\022"
 208      7AD7F7C0 
 208      2F4B3578 
 208      AAF37987 
 208      6712
 209 0140 7CD893A7 		.ascii	"|\330\223\247\352\340H\023m\377\2125\005\332Q\310\300"
 209      EAE04813 
 209      6DFF8A35 
 209      05DA51C8 
 209      C0
 210 0151 ABF61F7B 		.ascii	"\253\366\037{\003vB\321U\300U\"\257\035\260\271_\255"
 210      037642D1 
 210      55C05522 
 210      AF1DB0B9 
 210      5FAD
 211 0163 CBD22A9B 		.ascii	"\313\322*\233\215\253\364X\376\365T0\000\016i\202\223"
 211      8DABF458 
 211      FEF55430 
ARM GAS  C:\Users\info\AppData\Local\Temp\cc5I06eS.s 			page 16


 211      000E6982 
 211      93
 212 0174 B4C092A9 		.ascii	"\264\300\222\251\005\024\337\003\366\344\243\227\226"
 212      0514DF03 
 212      F6E4A397 
 212      96
 213 0181 101F89E7 		.ascii	"\020\037\211\347\266d\014\203\237r\030\333\323\343\273"
 213      B6640C83 
 213      9F7218DB 
 213      D3E3BB
 214 0190 F3D8635C 		.ascii	"\363\330c\\\372(Z29\362\304\023\235P;\224\0129\322\316"
 214      FA285A32 
 214      39F2C413 
 214      9D503B94 
 214      0A39D2CE 
 215 01a4 1A1408E7 		.ascii	"\032\024\010\347\020\025qi\306\245\025\227d\347q\244"
 215      10157169 
 215      C6A51597 
 215      64E771A4 
 216 01b4 47BC44E2 		.ascii	"G\274D\342q|\316o\260u$\371-\300\335\261 p\036a=O\031"
 216      717CCE6F 
 216      B07524F9 
 216      2DC0DDB1 
 216      20701E61 
 217 01cb 438AC105 		.ascii	"C\212\301\005\362-\022\351\372\001\3035\266\270_C\307"
 217      F22D12E9 
 217      FA01C335 
 217      B6B85F43 
 217      C7
 218 01dc 86AD7AD4 		.ascii	"\206\255z\324\306(\255\364\271\001\252\272\227FE2\202"
 218      C628ADF4 
 218      B901AABA 
 218      97464532 
 218      82
 219 01ed 4ED4834D 		.ascii	"N\324\203M\372\352\273l\366'\300\356\273G\236\274A\216"
 219      FAEABB6C 
 219      F627C0EE 
 219      BB479EBC 
 219      418E
 220 01ff D8132400 		.ascii	"\330\023$\000\027(\210\222\\\010\\t\231\276#-\375\223"
 220      17288892 
 220      5C085C74 
 220      99BE232D 
 220      FD93
 221 0211 8C9FB6D5 		.ascii	"\214\237\266\3255\217\232\2759\246Q3\2274\243\213\230"
 221      358F9ABD 
 221      39A65133 
 221      9734A38B 
 221      98
 222 0222 24464B34 		.ascii	"$FK4E&(\337 \026b}\354p\030N\272\241\026\274\025SJ\342"
 222      452628DF 
 222      2016627D 
 222      EC70184E 
 222      BAA116BC 
 223 023a CB52E904 		.ascii	"\313R\351\004\272\334\222\260P\247{\300\303A\375\272"
 223      BADC92B0 
 223      50A77BC0 
ARM GAS  C:\Users\info\AppData\Local\Temp\cc5I06eS.s 			page 17


 223      C341FDBA 
 224 024a BFF1EFD7 		.ascii	"\277\361\357\327>\347\223\365~m\355\257\241\261\343"
 224      3EE793F5 
 224      7E6DEDAF 
 224      A1B1E3
 225 0259 E33B8DA7 		.ascii	"\343;\215\247\327\037\302\201X\235>\236\201\024}\016"
 225      D71FC281 
 225      589D3E9E 
 225      81147D0E 
 226 0269 97B94AF4 		.ascii	"\227\271J\364.\373\276\343\254\217\220\331\354\343\012"
 226      2EFBBEE3 
 226      AC8F90D9 
 226      ECE30A
 227 0278 0EB99171 		.ascii	"\016\271\221q\025QG\346i\211\326\337\022\015\222\230"
 227      155147E6 
 227      6989D6DF 
 227      120D9298 
 228 0288 483705A7 		.ascii	"H7\005\247W\030\310\032<z\327\\\205\216\314\327\011"
 228      5718C81A 
 228      3C7AD75C 
 228      858ECCD7 
 228      09
 229 0299 1DFC8F75 		.ascii	"\035\374\217u0K\005\020HO\315'4M>\241\032\232\314\251"
 229      304B0510 
 229      484FCD27 
 229      344D3EA1 
 229      1A9ACCA9 
 230 02ad F9CC4437 		.ascii	"\371\314D7\345s\375\237|\010Q\333\330\317\215_9\335"
 230      E573FD9F 
 230      7C0851DB 
 230      D8CF8D5F 
 230      39DD
 231 02bf E49C66E9 		.ascii	"\344\234f\351\234lQK\003\310I\351\316\277Gu\210\024"
 231      9C6C514B 
 231      03C849E9 
 231      CEBF4775 
 231      8814
 232 02d1 704B3E01 		.ascii	"pK>\001\177\352\240\377&\334BX\266\214\257\246\343\316"
 232      7FEAA0FF 
 232      26DC4258 
 232      B68CAFA6 
 232      E3CE
 233 02e3 EDBDED7E 		.ascii	"\355\275\355~\367\030\350A\330|:\276\226\237\364\365"
 233      F718E841 
 233      D87C3ABE 
 233      969FF4F5 
 234 02f3 D05D8F38 		.ascii	"\320]\2178\33035inq\361\212-e\025\013\313#\233\252\""
 234      D8333569 
 234      6E71F18A 
 234      2D65150B 
 234      CB239BAA 
 235 0308 B4DA5A56 		.ascii	"\264\332ZV\276\272|K\244tI\311\342\342\2100\371@n\330"
 235      BEBA7C4B 
 235      A47449C9 
 235      E2E28830 
 235      F9406ED8 
 236 031c 54E15955 		.ascii	"T\341YUUQ\276\256r\263~n\334\\\365\023\315\323\216f"
ARM GAS  C:\Users\info\AppData\Local\Temp\cc5I06eS.s 			page 18


 236      5551BEAE 
 236      72B37E6E 
 236      DC5CF513 
 236      CDD38E66 
 237              		.text
 238              		.section	.gnu.lto_u8x8_uc1604_192x64_display_info.792a5dfe,"",%progbits
 239 0000 789C2DCE 		.ascii	"x\234-\316\315J\303@\030\205\34193\211M\177\375\301"
 239      CD4AC340 
 239      1885E139 
 239      33894D7F 
 239      FDC1
 240 0012 858BE2C6 		.ascii	"\205\213\342\306\233\350\025y\035\001S\365\032\304\202"
 240      9BE81579 
 240      1D0153F5 
 240      1AC482
 241 0021 0B41DB54 		.ascii	"\013A\333T3j1T](\010\202+\335\010\202B)\024\212hQ(\202"
 241      336A3154 
 241      5D280882 
 241      2BDD0882 
 241      4229148A 
 242 0039 608A73FC 		.ascii	"`\212s\374\222\315\233g\276\231I<\005\305g\335E\336"
 242      92CD9B67 
 242      BE99493C 
 242      05C567DD 
 242      45DE
 243 004b 94CA34D2 		.ascii	"\224\3124\322I\234V\247\272i\024\256i{\025}\324r\303"
 243      499C56A7 
 243      BA6914AE 
 243      697B157D 
 243      D472C3
 244 005e 3979EFFF 		.ascii	"9y\357\377\374\317\001\216w.\247\367\2760p\234D\243"
 244      FCCF018E 
 244      772EA7F7 
 244      BE30709C 
 244      44A3
 245 0070 4159B8E2 		.ascii	"AY\270\3428\264\337/F\270\346x\261\021\333\374\354\252"
 245      38B4DF2F 
 245      46B8E678 
 245      B111DBFC 
 245      ECAA
 246 0082 E3636477 		.ascii	"\343cdw\363\251\347\270\325i\277iR#\334\037\033\267"
 246      F3A9E7B8 
 246      D569BF69 
 246      5223DC1F 
 246      1BB7
 247 0094 D20FBBAF 		.ascii	"\322\017\273\257\025\331p\303\217e\237\017Y\356\222"
 247      15D970C3 
 247      8F659F0F 
 247      59EE92
 248 00a3 63EFF66E 		.ascii	"c\357\366n3\020\362\317\276~[iQ\270\314\353\236\222"
 248      3310F2CF 
 248      BE7E5B69 
 248      51B8CCEB 
 248      9E92
 249 00b5 6734CEC3 		.ascii	"g4\316\303\355\275\320\372McfZ\241\215\372L\003\247"
 249      EDBDD0FA 
 249      4D63665A 
ARM GAS  C:\Users\info\AppData\Local\Temp\cc5I06eS.s 			page 19


 249      A18DFA4C 
 249      03A7
 250 00c7 8CC61963 		.ascii	"\214\306\031c$\236,\3728a\346p\304\024`\231\000\011"
 250      249E2CFA 
 250      3861E670 
 250      C4146099 
 250      0009
 251 00d9 5394E325 		.ascii	"S\224\343%\0343e\331RA\227\251\"fj\3500\363\262sA\262"
 251      1C3365D9 
 251      524197A9 
 251      22666AE8 
 251      30F3B273 
 252 00ef 88436609 		.ascii	"\210Cf\011\007\250+\364\320P\177+\\y{"
 252      07A82BF4 
 252      D0507F2B 
 252      5C797B
 253              		.text
 254              		.section	.gnu.lto_u8x8_d_uc1604_jlx19264_init_seq.792a5dfe,"",%progbits
 255 0000 789C4D91 		.ascii	"x\234M\221}ORa\030\207\317\303\233\222\242\275\277\236"
 255      7D4F5261 
 255      1887CFC3 
 255      9B92A2BD 
 255      BF9E
 256 0012 5EBF40CB 		.ascii	"^\277@\313\372\303\017\324\007\321\005M\331j\316\\\270"
 256      FAC30FD4 
 256      07D1054D 
 256      D96ACE5C 
 256      B8
 257 0023 961BA40D 		.ascii	"\226\033\244\015\211\200c/\034\017*!J\202B)IJ\266\262"
 257      8980632F 
 257      1C0F2A21 
 257      4A824229 
 257      494AB6B2 
 258 0037 3471490C 		.ascii	"4qI\014\215\346L\301~\317y\3565\330\256\235s\355w\237"
 258      8DE64CC1 
 258      7ECF79EE 
 258      35D8AE9D 
 258      73ED779F 
 259 004b 9BFBB91F 		.ascii	"\233\373\271\037\223\304$\376\273e\222\350M\222\252"
 259      93C424FE 
 259      BB6592E8 
 259      4D92AA
 260 005a 061672AC 		.ascii	"\006\026r\254\373\032+\006\207Qb\207\014\336{_\3555"
 260      FB1A2B06 
 260      87516287 
 260      0CDE7B5F 
 260      ED35
 261 006c 7067EC1A 		.ascii	"pg\354\032\264\342J\347[E|\016\332\265R\2544\213\364"
 261      B4E24AE7 
 261      5B457C0E 
 261      DAB552AC 
 261      348BF4
 262 007f 2A74D1E3 		.ascii	"*t\321\343Zm\022\251\302?\336\316<Zk\021\361\025\350"
 262      5A6D12A9 
 262      C23FDECE 
 262      3C5A6B11 
 262      F115E8
ARM GAS  C:\Users\info\AppData\Local\Temp\cc5I06eS.s 			page 20


 263 0092 9AB7E6B2 		.ascii	"\232\267\346\262\210\370\024\364\301PP\263\211\3642"
 263      88F814F4 
 263      C15050B3 
 263      89F432
 264 00a1 345B4E0F 		.ascii	"4[N\017\320\307G\241\221;~\205\322K\320'\233\231\224"
 264      D0C747A1 
 264      913B7E85 
 264      D24BD027 
 264      9B9994
 265 00b4 59E8453E 		.ascii	"Y\350E>fQ\333\263\211b>\365\350\304\2576\021\312\260"
 265      6651DBB3 
 265      89623EF5 
 265      E8C4AF36 
 265      11CAB0
 266 00c7 E1445C65 		.ascii	"\341D\\eB/@\253\375\033\036\243\250\355\346S\025\012"
 266      422F40AB 
 266      FD1B1EA3 
 266      A8EDE653 
 266      150A
 267 00d9 9E3E1AFA 		.ascii	"\236>\032\372|\375\221\230~$\265\344W\251s\214\267."
 267      7CFD9198 
 267      7E24B5E4 
 267      57A9738C 
 267      B72E
 268 00eb D97F8833 		.ascii	"\331\177\21031v\026\372\333\345\350n\024z\206\367\376"
 268      317616FA 
 268      DBE5E86E 
 268      147A86F7 
 268      FE
 269 00fc DAD3D320 		.ascii	"\332\323\323 \252\335\274\367\237=g\311*\342\323\365"
 269      AADDBCF7 
 269      9F3D67C9 
 269      2AE2D3F5 
 270 010c 2766FA89 		.ascii	"'f\372\211\235\017k\223VQ=\255\357\347`@\245\352\223"
 270      9D0F6B93 
 270      56513DAD 
 270      EFE76040 
 270      A5EA93
 271 011f 7C12EDEE 		.ascii	"|\022\355\356_Z\327\011>\311`\321g\026\325[\274zd\365"
 271      5F5AD709 
 271      3EC960D1 
 271      6716D55B 
 271      BC7A64F5 
 272 0133 60DC24E2 		.ascii	"`\334$\342\343|\3673_rt\312cP\237{6J\223d\245\372u2"
 272      E37CF733 
 272      5F7274CA 
 272      63509F7B 
 272      364A9364 
 273 014b 7D9DFF07 		.ascii	"}\235\377\007\223\364\301\202;\225 \015\326\012\035"
 273      93F4C182 
 273      3B95200D 
 273      D60A1D
 274 015a F3850A74 		.ascii	"\363\205\012t3\235\374\257\252\237;kt\353-\320\301\237"
 274      339DFCAF 
 274      AA9F3B6B 
 274      74EB2DD0 
 274      C19F
ARM GAS  C:\Users\info\AppData\Local\Temp\cc5I06eS.s 			page 21


 275 016c DA142DDF 		.ascii	"\332\024-\337\006\355\267g7\014\242:\311\253\3677\373"
 275      06EDB767 
 275      370CA23A 
 275      C9ABF737 
 275      FB
 276 017d F2344933 		.ascii	"\3624I3ty+;G\027Y\343\361R\336\256Q\334\304{\227\347"
 276      74792B3B 
 276      471759E3 
 276      F152DEAE 
 276      51DCC47B 
 277 0193 ABB4FE23 		.ascii	"\253\264\376#P\177\370i\204R+4\271r/J\223\\\347+q:v"
 277      507FF869 
 277      84522B34 
 277      B9722F4A 
 277      935CE72B 
 278 01aa 8D226D80 		.ascii	"\215\"m\200\256\357\007\"\264!\01345\0249\240Vf\350"
 278      AEEF0722 
 278      B4210B34 
 278      351439A0 
 278      5666E8
 279 01bd 825D794C 		.ascii	"\202]yL\305&h|G\361Rj\344i\340\333m\321\370;\237*q\270"
 279      C526687C 
 279      47F1526A 
 279      E469E0DB 
 279      6DD1F83B 
 280 01d5 1BA36B37 		.ascii	"\033\243k7\324_\263\244_\363v9\027\262\264\207;\272"
 280      D45FB3A4 
 280      5FF37639 
 280      17B2B487 
 280      3BBA
 281 01e7 DC1D8AD5 		.ascii	"\334\035\212\325a4\260\0332\3133\231\265\311,\200\307"
 281      6134B01B 
 281      32CB3399 
 281      B5C92C80 
 281      C7
 282 01f8 3258021F 		.ascii	"2X\002\037A\006\344\300\034X$\377@\236e\242\376\246"
 282      4106E4C0 
 282      1C5824FF 
 282      409E65A2 
 282      FEA6
 283 020a CC16F098 		.ascii	"\314\026\360\230\247\370=\305\357\310\323\344\263T\236"
 283      A7F83DC5 
 283      EFC8D3E4 
 283      B3549E
 284 0219 02493003 		.ascii	"\002I0\003\336\202\004\230\006S\224\307\301$\210\221"
 284      DE820498 
 284      065394C7 
 284      C1248891 
 285 0229 BF015130 		.ascii	"\277\001Q0A>\016\306@\204\\\003\243@%\017\203\327\340"
 285      413E0EC6 
 285      40845C03 
 285      A340250F 
 285      83D7E0
 286 023c 15F94BF0 		.ascii	"\025\371K\360\002\214\220+ \004\202\344\317\201\037"
 286      028C902B 
 286      200482E4 
 286      CF811F
ARM GAS  C:\Users\info\AppData\Local\Temp\cc5I06eS.s 			page 22


 287 024b 3C033E30 		.ascii	"<\003>0\014\274L\226\330'\326.\375\003\267\340m\231"
 287      0CBC4C96 
 287      D827D62E 
 287      FD03B7E0 
 287      6D99
 288              		.text
 289              		.section	.gnu.lto_.symbol_nodes.792a5dfe,"",%progbits
 290 0000 789C55D0 		.ascii	"x\234U\320?\016\001A\024\307\361\337\233\267\303.\273"
 290      3F0E0141 
 290      14C7F1DF 
 290      9BB7C32E 
 290      BB
 291 0011 246A05D7 		.ascii	"$j\005\327q\013'y[l(\024\204\204\204N\266r\216\215\012"
 291      710B2779 
 291      5B6C2814 
 291      8484844E 
 291      B6728E8D 
 292 0026 67504C74 		.ascii	"gPLt\342\006b\376la\252O\276\311\233_1\011\010s\002"
 292      E20662FE 
 292      6C61AA4F 
 292      BEC99B5F 
 292      31090873 
 293 003b A0120136 		.ascii	"\240\022\0016\017\300r)\247\200\006\312\021\300\232"
 293      0FC07229 
 293      A78006CA 
 293      11C09A
 294 004a 28A85490 		.ascii	"(\250T\220\331\253\272B\361\003\235\204\203\216\366"
 294      D9ABBA42 
 294      F1039D84 
 294      838EF6
 295 0059 525F943F 		.ascii	"R_\224?\260C\345\004\240B8\352L\222\250S\321Q\347\322"
 295      B043E504 
 295      A04238EA 
 295      4C92A853 
 295      D151E7D2 
 296 006d 89BA27DD 		.ascii	"\211\272'\335\250\207\222F=\220\354\277\031}\230\347"
 296      A8879246 
 296      3D90ECBF 
 296      197D98E7 
 297 007d 98D143BD 		.ascii	"\230\321C\275\270\261\263Z\006\233\225\263\200Y\177"
 297      B8B1B35A 
 297      069B95B3 
 297      80597F
 298 008c 668C1466 		.ascii	"f\214\024f\353:G\263{\221\323\2646\373\326\203\323\316"
 298      EB3A47B3 
 298      7B91D3B4 
 298      36FBD683 
 298      D3CE
 299 009e 1DDB9D93 		.ascii	"\035\333\235\2233C\355M\3218\355\207\235\237_b=D\375"
 299      3343ED4D 
 299      D138ED87 
 299      9D9F5F62 
 299      3D44FD
 300 00b1 1EB31EC0 		.ascii	"\036\263\036\3008rT\327;\343\007\334\355K\216"
 300      387254D7 
 300      3BE307DC 
 300      ED4B8E
ARM GAS  C:\Users\info\AppData\Local\Temp\cc5I06eS.s 			page 23


 301              		.text
 302              		.section	.gnu.lto_.refs.792a5dfe,"",%progbits
 303 0000 789C6361 		.ascii	"x\234ca`d\020g```a`bTcbRgb\326bb\321cbebceb\347`\000"
 303      60641067 
 303      60606061 
 303      60625463 
 303      62526762 
 304 0022 000E7300 		.ascii	"\000\016s\000\375"
 304      FD
 305              		.text
 306              		.section	.gnu.lto_.decls.792a5dfe,"",%progbits
 307 0000 789CBD59 		.ascii	"x\234\275Y{PTW\232\357\323\247\201\246i@\361\021k\212"
 307      7B505457 
 307      9AEFD3A7 
 307      81A66940 
 307      F1116B8A 
 308 0014 DD588951 		.ascii	"\335X\211Q\246j\306\210:\226\273\177\354&\225\335\331"
 308      A66AC688 
 308      3A96BB7F 
 308      EC2695DD 
 308      D9
 309 0025 ECFE313B 		.ascii	"\354\3761;\2653I\325L\261\325\3336\215v\002\015\323"
 309      B53349D5 
 309      4CB1D5DB 
 309      368D7602 
 309      0DD3
 310 0037 DD189CA9 		.ascii	"\335\030\234\251\251\275\010\242AE@E\036*O\241\021T"
 310      A9BD08A2 
 310      41454045 
 310      1E2A4FA1 
 310      1154
 311 0049 045F0848 		.ascii	"\004_\010H\017*QDE^\212\200(> *\212\340\033\205\375"
 311      0F2A5144 
 311      455E8A80 
 311      283E202A 
 311      8AE01B85 
 312 005e CEE3F6BD 		.ascii	"\316\343\366\275\215\26735U;\323\311\307\275\3379\277"
 312      8DB73335 
 312      553BD3C9 
 312      C7BDDF39 
 312      BF
 313 006f F39DDFF7 		.ascii	"\363\235\337\3678\347\236{\325\250\220\212\374\036\317"
 313      38E79E7B 
 313      D5A8908A 
 313      FC1ECF
 314 007e 57A9867D 		.ascii	"W\251\206}T\252O\260J5\005?\177h\373R%\375t \237\002"
 314      54AA4FB0 
 314      4A35053F 
 314      7F68FB52 
 314      25FD7420 
 315 0094 F433907F 		.ascii	"\3643\220\177\007\371O\220\377\002\371\002\344\267 "
 315      07F94F90 
 315      FF02F902 
 315      E4B720
 316 00a3 AB40A240 		.ascii	"\253@\242@\276\006\361\005\254\035\256\353@\376\000"
 316      BE06F105 
 316      AC1DAEEB 
ARM GAS  C:\Users\info\AppData\Local\Temp\cc5I06eS.s 			page 24


 316      40FE00
 317 00b2 F24790FF 		.ascii	"\362G\220\377\005\331\210T\036?b/\024\256\325 ! \263"
 317      05D98854 
 317      1E3F622F 
 317      14AED520 
 317      2120B3
 318 00c5 41DE2736 		.ascii	"A\336'6\341\372\337\274o\023\\\347!\306e3\\?\007\311"
 318      E1FADFBC 
 318      6F135CE7 
 318      21C66533 
 318      5C3F07C9 
 319 00d9 03C905D9 		.ascii	"\003\311\005\331\015\362\013\220_B\337|\270\356\001"
 319      0DF20B90 
 319      5F42DF7C 
 319      B8EE01
 320 00e8 3182EC05 		.ascii	"1\202\354\005\311\007\261\201\374\006\244\000$\001\344"
 320      C907B181 
 320      FC06A400 
 320      2401E4
 321 00f7 3D904EC0 		.ascii	"=\220N\300jA2\341~'\310O@v\200d\201\374\023\210\016"
 321      6A4132E1 
 321      7E27C84F 
 321      40768064 
 321      81FC1388 
 322 010c C407C48F 		.ascii	"\304\007\304\217\363\373\202\373\271\212\373\375[\356"
 322      F3FB82FB 
 322      B98AFBFD 
 322      5BEE
 323 011a 3B894F21 		.ascii	";\211O!\\\213@\212AJ@\366\241w\375\226\377H\037\204"
 323      5C8B408A 
 323      414A40F6 
 323      A177FD96 
 323      FF481F84 
 324 012e 97FA457C 		.ascii	"\227\372E|\265M\353\227\377\326M\303&\374\000\366\017"
 324      B54DEB97 
 324      FFD64DC3 
 324      26FC00F6 
 324      0F
 325 013f 7F01F68F 		.ascii	"\177\001\366\217\177\001\226\344z\226J9?d\374R\270_"
 325      7F0196E4 
 325      7A964A39 
 325      3F64FC52 
 325      B85F
 326 0151 C67353CA 		.ascii	"\306sS\312\363Db\374\025H\031\210\231\347\302\011\222"
 326      F34462FC 
 326      15481988 
 326      99E7C209 
 326      92
 327 0162 C273417E 		.ascii	"\302sA~>\334\366\247\274^\242x\\I{9\\\367\203Tx\251"
 327      3EDCF6A7 
 327      BC5EA278 
 327      5C497B39 
 327      5CF78354 
 328 0178 19D2A681 		.ascii	"\031\322\246\201\353B\316a\221\212\315Ix\372\222>\020"
 328      EB42CE61 
 328      918ACD49 
 328      78FA923E 
ARM GAS  C:\Users\info\AppData\Local\Temp\cc5I06eS.s 			page 25


 328      10
 329 0189 35C91F88 		.ascii	"5\311\037\210\026d\006\310\024\364a\202\001\321\203"
 329      166406C8 
 329      14F46182 
 329      01D183
 330 0198 0490FC81 		.ascii	"\004\220\374\201\004\202\314$\366eyG A^b\262qZ\354R"
 330      0482CC24 
 330      F6657947 
 330      20415E62 
 330      B2715AEC 
 331 01ad 7E20766F 		.ascii	"~ vo\325(i\360~\201\266\027\365\200ID\177*\276\326\310"
 331      D52869F0 
 331      7E81B617 
 331      F5804944 
 331      7F2ABED6 
 332 01c2 24885F55 		.ascii	"$\210_U|N\370\253V1*\034\3456\216\350\177\360\277\232"
 332      7C4EF8AB 
 332      56312A1C 
 332      E5368EE8 
 332      7FF0BF9A 
 333 01d6 E291ACC3 		.ascii	"\342\221\254\303\003G\327-\375IM\310\375\023\221\310"
 333      0347D72D 
 333      FD494DC8 
 333      FD1391C8 
 334 01e6 D328A2D1 		.ascii	"\323(\242\321\022U\320\325\322\000\231=\316\236\317"
 334      1255D0D5 
 334      D200993D 
 334      CE9ECF
 335 01f5 8FE4D352 		.ascii	"\217\344\323R\323Xtzxp\375\225@\0146\341~\340\225\363"
 335      D358747A 
 335      7870FD95 
 335      400C36E1 
 335      7EE095F3 
 336 0209 E78B2B05 		.ascii	"\347\213+\005\370\245\013\202\372c)2\007+'\252t\032"
 336      F8A50B82 
 336      FA632932 
 336      072B27AA 
 336      741A
 337 021b F0177DA1 		.ascii	"\360\027}\241G\2534\244\351\320\206;\345\332\247j\024"
 337      47AB34A4 
 337      E9D0863B 
 337      E5DAA76A 
 337      14
 338 022c AA435388 		.ascii	"\252CS\210\350\017k_\0052\235t\037q\215\037\320\340"
 338      E80F6B5F 
 338      05329D74 
 338      1F718D1F 
 338      D0E0
 339 023e F9E45E7D 		.ascii	"\371\344^}\245\246\347\254?\012\323\225\022\3137\217"
 339      A5A6E7AC 
 339      3F0AD395 
 339      12CB378F 
 340 024e 3EFB3449 		.ascii	">\3734I\020\020:\204t\350\000\302\250\034-&\244B\311"
 340      10103A84 
 340      74E800C2 
 340      A81C2D26 
 340      A442C9
ARM GAS  C:\Users\info\AppData\Local\Temp\cc5I06eS.s 			page 26


 341 0261 86B54910 		.ascii	"\206\265I\020\326\013\243E\202\357<\025Z\026\212\226"
 341      D60BA345 
 341      82EF3C15 
 341      5A168A96 
 342 0271 84AAD041 		.ascii	"\204\252\320A\024Fl\022\024\252D\241\250\002\205\022"
 342      14466C12 
 342      14AA44A1 
 342      A8028512 
 343 0281 FBE5F9CE 		.ascii	"\373\345\371\3163\201\370\000\242\023\214\354x\260\011"
 343      3381F800 
 343      A2138CEC 
 343      78B009
 344 0290 BB27E8DD 		.ascii	"\273'\350\335\034Z!\0103P5LP%M\000\363)\317pXy\206\336"
 344      1C5A2108 
 344      3350354C 
 344      50254D00 
 344      F329CF70 
 345 02a8 94B20B01 		.ascii	"\224\262\013\001\324gbh?\242^w]\273\321\345\357n\254"
 345      D4676268 
 345      3FA25E77 
 345      5DBBD1E5 
 345      EF6EAC
 346 02bb 618D5792 		.ascii	"a\215W\222\253vcp=D\2074\240>\271\230{;\010\324\331"
 346      AB766370 
 346      3D448734 
 346      A03EB998 
 346      7B3B08D4 
 347 02d0 3A341FD4 		.ascii	":4\037\324\274\361\376\357\375Yo\030\250\217\222\357"
 347      BCF1FEEF 
 347      FD596F18 
 347      A88F92EF 
 348 02e0 DE0C60BD 		.ascii	"\336\014`\275\363@\025\206\223\363\325\270\222\305\277"
 348      F3401586 
 348      93F3D5B8 
 348      92C5BF
 349 02ef 7DB4750F 		.ascii	"}\264u\017\357\233\001j\343pF\243\026\327\261\276\266"
 349      EF9B016A 
 349      E37046A3 
 349      16D7B1BE 
 349      B6
 350 0300 B291AB41 		.ascii	"\262\221\253A\270\203)\303\005\215\325Z\374\210)\316"
 350      B88329C3 
 350      058DD55A 
 350      FC8829CE 
 351 0310 7BBBD3F4 		.ascii	"{\273\323\364l\324J\331\364!l\372\235\256\3147:\374"
 351      6CD44AD9 
 351      F4216CFA 
 351      9DAECC37 
 351      3AFC
 352 0322 9A41EB8E 		.ascii	"\232A\353\216\3277\3730\350\022P\317\327\016.\301\033"
 352      D737FB30 
 352      E81250CF 
 352      D70E2EC1 
 352      1B
 353 0333 30ED1269 		.ascii	"0\355\022i\316f4\237_\350\354\307x\007\353\333\326\324"
 353      CE66349F 
 353      5FE8ECC7 
ARM GAS  C:\Users\info\AppData\Local\Temp\cc5I06eS.s 			page 27


 353      7807EBDB 
 353      D6D4
 354 0345 705A8B0B 		.ascii	"pZ\213\013\230\322\334w\275K\203+\231\222\330p\272&"
 354      98D2DC77 
 354      BD4B832B 
 354      9992D870 
 354      BA26
 355 0357 10FF8929 		.ascii	"\020\377\211)g\247^\270\202\331\314jP\337\326\324\234"
 355      67A75EB8 
 355      82D9CC6A 
 355      50DFD6D4 
 355      9C
 356 0368 46B885F5 		.ascii	"F\270\205\365\355{=1Jb\264\020\312e\012\313\352e!\253"
 356      ED7B3D31 
 356      4A62B410 
 356      CA650ACB 
 356      EA6521AB 
 357 037c 97C60BE7 		.ascii	"\227\306\013\347K\365\270\203\202\325\355M\331o\003"
 357      4BF5B883 
 357      82D5ED4D 
 357      D96F03
 358 038b 902E8C26 		.ascii	"\220.\214&KH\022ta*t\0222s\0162\203.A\272\026\362t]"
 358      4B481274 
 358      612A7412 
 358      32730E32 
 358      832E41BA 
 359 03a3 80C61668 		.ascii	"\200\306\026h\344\2255\362\037\264\262.BjZ\245\304/"
 359      E49535F2 
 359      1FB4B22E 
 359      426A5AA5 
 359      C42F
 360 03b5 D4B1223E 		.ascii	"\324\261\">\225\321{O\207o\260)Jn\013u\032oS\\\361:"
 360      95D17B4F 
 360      876FB029 
 360      4A6E0B75 
 360      1A6F535C 
 361 03cb 45EFE685 		.ascii	"E\357\346\205\225\244\266\332`\212\313\322\024\027\021"
 361      95A4B6DA 
 361      608ACBD2 
 361      141711
 362 03da 9F43CC6E 		.ascii	"\237C\314n\010\313\356\275\324\362'z<\304B\260\247k"
 362      08CBEEBD 
 362      D4F2277A 
 362      3CC442B0 
 362      A76B
 363 03ec 30DD5FC7 		.ascii	"0\335_\307\0130\375\317\027`\356\331MM>\372T\202OO\022"
 363      0B30FDCF 
 363      1760EED9 
 363      4D4D3EFA 
 363      54824F4F 
 364 0401 423E479D 		.ascii	"B>G\2350\3511\350?\012\375*\324\205\364|u&\337/\036"
 364      30E931E8 
 364      3F0AFD2A 
 364      D485F47C 
 364      7526DF2F 
 365 0416 41F8219B 		.ascii	"A\370!\233\245\377\\y\005\011\364\"\022\350\251\251"
 365      A5FF5C79 
ARM GAS  C:\Users\info\AppData\Local\Temp\cc5I06eS.s 			page 28


 365      0509F422 
 365      12E8A9A9 
 366 0426 6059A817 		.ascii	"`Y\250\027\261P\267o\033+\361\303\317Y\034*2\036\264"
 366      B150B76F 
 366      1B2BF1C3 
 366      CF591C2A 
 366      321EB4
 367 0439 CBD6E63E 		.ascii	"\313\326\346>}-q\257\027f\352\221\334[\344^9\224\210"
 367      7D2D71AF 
 367      1766EA91 
 367      DC5BE45E 
 367      399488
 368 044c CACD025D 		.ascii	"\312\315\002]\007\352\2138\365k\320x\225\257\316\222"
 368      07EA8B38 
 368      F56BD078 
 368      95AFCE92 
 369 045c 8C225F9C 		.ascii	"\214\"_\234\250\241S\354?x\271\331O\014\365t\0037\024"
 369      A8A153EC 
 369      3F78B9D9 
 369      4F0CF574 
 369      033714
 370 046f 0C88A15E 		.ascii	"\014\210\241^NC\335\017\\\372$.\275b\250\305\305\022"
 370      4E43DD0F 
 370      5CFA242E 
 370      BD62A8C5 
 370      C512
 371 0481 C216CBE0 		.ascii	"\302\026\313\340\341\027\017\2658\225N\2116N\365\237"
 371      E1170FB5 
 371      38954E89 
 371      364EF59F 
 372 0491 D1E2DD4C 		.ascii	"\321\342\335LI.\333\232\027\210\235L\311\255{\332\342"
 372      492EDB9A 
 372      17889D4C 
 372      C9AD7BDA 
 372      E2
 373 04a2 C3466941 		.ascii	"\303FiAM\313\031\253\363\303U\254\257\303U\220\347\217"
 373      4DCB19AB 
 373      F3C355AC 
 373      AFC35590 
 373      E78F
 374 04b4 8F33E5F6 		.ascii	"\2173\345\366\221\027%\201\270\211)\267\0367\344\370"
 374      91172581 
 374      B88929B7 
 374      1E37E4F8 
 375 04c4 B9973DDB 		.ascii	"\271\227=\333\000\217\266\347\017\370\341\026\006x}"
 375      008FB6E7 
 375      0FF8E116 
 375      06787D
 376 04d3 79E224C2 		.ascii	"y\342$\302W\231\262\245\343\3302|\207\335Wv]{\213\360"
 376      5799B2A5 
 376      E3D8327C 
 376      87DD5776 
 376      5D7B8BF0 
 377 04e7 28532E4E 		.ascii	"(S.N\216\236\302x\275\017U\016\334L\351\360\301\333"
 377      8E9EC278 
 377      BD0F550E 
 377      DC4CE9F0 
ARM GAS  C:\Users\info\AppData\Local\Temp\cc5I06eS.s 			page 29


 377      C1DB
 378 04f9 9952FAA6 		.ascii	"\231R\372\246\360\210\036\3473\245\371EC\261\017\336"
 378      F0881EE7 
 378      33A5F945 
 378      43B10FDE 
 379 0509 CF94D4CD 		.ascii	"\317\224\324\315\373\013\203p#S6l\251\250\307\270\235"
 379      FB0B8370 
 379      2353366C 
 379      A9A8C7B8 
 379      9D
 380 051a 296D03D5 		.ascii	")m\003\325\317|\361\020S\006nd|\205G\331\375\203\316"
 380      CF7CF110 
 380      53066E64 
 380      7C8547D9 
 380      FD83CE
 381 052d F60C1FFC 		.ascii	"\366\014\037\374\226)o\2537\326ip\272/U\206\316\275"
 381      96296FAB 
 381      37D66970 
 381      BA2F5586 
 381      CEBD
 382 053f 7A1A808B 		.ascii	"z\032\200\213\230\362\272i}-\302G\231r\254\351U\253"
 382      98F2BA69 
 382      7D2DC247 
 382      9972ACE9 
 382      55AB
 383 0551 0F6E61CA 		.ascii	"\017na\312\243\365\025%\010\337fJ\333\316\221,5~\303"
 383      A3F51525 
 383      08DF664A 
 383      DBCE912C 
 383      357EC3
 384 0564 943713DB 		.ascii	"\2247\023\333\023}\3606?\266f\373\206+\003p!S\252\352"
 384      137DF036 
 384      3FB666FB 
 384      862B0370 
 384      2153AAEA 
 385 0578 9347F8AE 		.ascii	"\223G\370\256\347\"\317\003\347\326\321\323:|\222v\316"
 385      E722CF03 
 385      E7D6D1D3 
 385      3A7C9276 
 385      CE
 386 0589 19ADC8EE 		.ascii	"\031\255\310\356\364E\013\246\375\302\026,\230\265\240"
 386      F4450BA6 
 386      FDC2162C 
 386      98B5A0
 387 0598 8854C5CD 		.ascii	"\210T\305\315\374\311\270\206c}\202\220\242\247\021"
 387      FCC9B886 
 387      637D8290 
 387      A2A711
 388 05a7 7E06F9CE 		.ascii	"~\006\371\316T\317\022\027\310\307\244\336\377D\252"
 388      54CF1217 
 388      C8C7A4DE 
 388      FF44AA
 389 05b6 5E45E1AE 		.ascii	"^E\341\256\372\366\000\241\352\177(t\304\023:@\327\306"
 389      FAF600A1 
 389      EA7F2874 
 389      C4133A40 
 389      D7C6
ARM GAS  C:\Users\info\AppData\Local\Temp\cc5I06eS.s 			page 30


 390 05c8 32093A9E 		.ascii	"2\011:\236\031\224-\270\326c\272d\357s\260{\2453\370"
 390      19942DB8 
 390      D663BA64 
 390      EF73B07B 
 390      A533F8
 391 05db 3199E99C 		.ascii	"1\231\351\234\313\201\273\004W\"\246\306_)\3608)\003"
 391      CB81BB04 
 391      5722A6C6 
 391      5F29F038 
 391      2903
 392 05ed 775E76F3 		.ascii	"w^v\363x\252\000=%\203\356\220\240\257\025\2402\306"
 392      78AA003D 
 392      2583EE90 
 392      A0AF15A0 
 392      32C6
 393 05ff ED92730F 		.ascii	"\355\222s\017\224\234;!\263\232)Y\235P\260\032.!s%\344"
 393      949C3B21 
 393      B39A2959 
 393      9D50B01A 
 393      2E217325 
 394 0614 4B05A4DC 		.ascii	"K\005\244\334\350n\011\372B\001*\217V\225\304u\324\023"
 394      E86E09FA 
 394      42012A8F 
 394      5695C475 
 394      D413
 395 0626 7A1B4D4F 		.ascii	"z\033MOZ\233\204}\250\344\227<\260;$\354\023%\273\247"
 395      5A9B847D 
 395      A8E4973C 
 395      B03B24EC 
 395      1325BBA7 
 396 063a 65D84989 		.ascii	"e\330I\211\356\230\022V\316\367\210d\367\261\022V\236"
 396      EE981256 
 396      CEF78864 
 396      F7B11256 
 396      9E
 397 064b B167F2CA 		.ascii	"\261g\362\312\231T\256\034\346\037\335\260\\\023izA"
 397      9954AE1C 
 397      E61FDDB0 
 397      5C13697A 
 397      41
 398 065c D012948A 		.ascii	"\320\022\224\212oV*\267\255|yU=W\010\252\334\241\223"
 398      6F562AB7 
 398      AD7C7955 
 398      3D5708AA 
 398      DCA193
 399 066f 12C9474A 		.ascii	"\022\311GJ\201\242Y\315\340\3074\001\316 \350-\260j"
 399      81A259CD 
 399      E0C73401 
 399      CE20E82D 
 399      B06A
 400 0681 27ACDE70 		.ascii	"'\254\336p<\314\217\266\251\303P\212z\001J\006Y\017"
 400      3CCC8FB6 
 400      A9C3508A 
 400      7A014A06 
 400      590F
 401 0693 B2116413 		.ascii	"\262\021d\023H:\310\024Z\200\222\340\272\035d\013\310"
 401      483AC814 
ARM GAS  C:\Users\info\AppData\Local\Temp\cc5I06eS.s 			page 31


 401      5A8092E0 
 401      BA1D640B 
 401      C8
 402 06a4 66906F41 		.ascii	"f\220oA\266\202d\200\010 \251 \033@\022A\322\324\013"
 402      B6826480 
 402      0820A920 
 402      1B401241 
 402      D2D40B
 403 06b7 64DEF46E 		.ascii	"d\336\364n\013\312\021\\\311\230\356\315\343|J\367\226"
 403      0BCA115C 
 403      C998EECD 
 403      E37C4AF7 
 403      96
 404 06c8 7E5B2209 		.ascii	"~[\"\011\373@\317\266\274\234`\334G\367\001\365\263"
 404      FB40CFB6 
 404      BC9C60DC 
 404      47F701F5 
 404      B3
 405 06d9 AD4D2BD0 		.ascii	"\255M+\320\2540e\356Y\300\367\257\311\235e)\347\322"
 405      AC3065EE 
 405      59C0F7AF 
 405      C99D6529 
 405      E7D2
 406 06eb 4F489676 		.ascii	"OH\226v\302D;\324\356\247\012I\032\245{d\260\364\261"
 406      C2443BD4 
 406      EEA70A49 
 406      1AA57B64 
 406      B0F4B1
 407 06fe DF2C4ED0 		.ascii	"\337,N\320\345\225\240\352\377\235\035\331O\273\223"
 407      E595A0EA 
 407      FF9D1DD9 
 407      4FBB93
 408 070d 3706C81F 		.ascii	"7\006\310\037\370\273daU\241l\265\370\300\177q`\250"
 408      F8BB6461 
 408      55A16CB5 
 408      F8C07F71 
 408      60A8
 409 071f CF078FFA 		.ascii	"\317\007\217\372y\234\351B\330\231\356H\303\223}\374"
 409      799CE942 
 409      D899EE48 
 409      C3937DFC 
 410 072f 1C279073 		.ascii	"\034'\220s\326\360\335\274f\035~\303w\354\216C\255\301"
 410      D6F0DDBC 
 410      661D7EC3 
 410      77EC8E43 
 410      ADC1
 411 0741 385D4B94 		.ascii	"8]K\224\017{S\033\023\021\322\350g\301.\354\361\323"
 411      0F7B531B 
 411      1311D2E8 
 411      67C12EEC 
 411      F1D3
 412 0753 EBE769C2 		.ascii	"\353\347i\302\370M\330\202\2600\362\334\313W\353\321"
 412      F84DD882 
 412      B030F2DC 
 412      CB57EBD1 
 413 0763 104443C6 		.ascii	"\020DC\306\256\300\203]>c\347\221\332<u(\312UC\344\\"
 413      AEC0835D 
ARM GAS  C:\Users\info\AppData\Local\Temp\cc5I06eS.s 			page 32


 413      3E63E791 
 413      DA3C7528 
 413      CA5543E4 
 414 0778 10B9229E 		.ascii	"\020\271\"\236\332F\270?\005\216\327\202\234\0009\016"
 414      DA46B83F 
 414      058ED782 
 414      9C00390E 
 415 0788 720CA40A 		.ascii	"r\014\244\012\344\020\310A\220\003 \225 \025 \373A\312"
 415      E410C841 
 415      90032095 
 415      201520FB 
 415      41CA
 416 079a 419C2065 		.ascii	"A\234 e \245 \373@J@\212A\012=Js\242[\266\320vC\202"
 416      20A520FB 
 416      404A408A 
 416      410A3D4A 
 416      73A25BB6 
 417 07b2 8BA4D573 		.ascii	"\213\244\325s\\\266\035(\363\314\341\003\376\372<_v"
 417      5CB61D28 
 417      F3CCE103 
 417      FEFA3C5F 
 417      76
 418 07c3 BBD7383C 		.ascii	"\273\3278<\204\337e)\337\217\237K\330"
 418      84DF6529 
 418      DF8F9F4B 
 418      D8
 419 07d0 3A25AC7C 		.ascii	":%\254|\343|*a\353\225\260\262\347\314\230\004mP\202"
 419      E37C2A61 
 419      EB95B0B2 
 419      E7CC9804 
 419      6D5082
 420 07e3 CA1E1EA3 		.ascii	"\312\036\036\243\022\324\345\011m|g\333\274!a\233\224"
 420      12D4E509 
 420      6D7C67DB 
 420      BC21619B 
 420      94
 421 07f4 B0F24742 		.ascii	"\260\362GB\237\204=\243\204\225\357\212\335\022\366"
 421      9F843DA3 
 421      8495EF8A 
 421      DD12F6
 422 0803 AC1256BE 		.ascii	"\254\022V\276\315wJ\330f%\254<\272\355\022\366;%\254"
 422      CD774AD8 
 422      6625AC3C 
 422      BAED12F6 
 422      3B25AC
 423 0816 3CBA57B2 		.ascii	"<\272W\262d\217\204\363\034\355~$4N\017[c\326\034\266"
 423      648F84F3 
 423      1CED7E24 
 423      344E0F5B 
 423      63D61CB6 
 424 082a 4FC2591D 		.ascii	"O\302Y\035up\270{\237l\177\207vC\226l_\355V\306\313"
 424      7570B87B 
 424      9F6C7F87 
 424      7643966C 
 424      5FED56C6 
 425 083f CCD77507 		.ascii	"\314\327u\0073\370aX\2347\247\303\345G\033\331\252\255"
 425      33F86158 
ARM GAS  C:\Users\info\AppData\Local\Temp\cc5I06eS.s 			page 33


 425      9C37A7C3 
 425      E5471BD9 
 425      AAAD
 426 0851 51CF9330 		.ascii	"Q\317\2230G\241\306\253a0\333\005\275\240T2H\026]6I"
 426      47A1C6AB 
 426      6130DB05 
 426      BDA05432 
 426      48165D36 
 427 0866 C27C0D0D 		.ascii	"\302|\015\015\230\004\201\001\360\367\210\232|\352\021"
 427      98048101 
 427      F0F7889A 
 427      7CEA11
 428 0875 F78B23B0 		.ascii	"\367\213#\260\266\330\246\233\177i\016\331t\011\317"
 428      B6D8A69B 
 428      7F690ED9 
 428      7409CF
 429 0884 5BD251BE 		.ascii	"[\322Q\276\232n\031\314\227Z\271/\203\312\276\310\\"
 429      9A6E19CC 
 429      975AB92F 
 429      83CABEC8 
 429      5C
 430 0895 3FD6AD17 		.ascii	"?\326\255\027\322\215\024|g:X\341\251/\241\357*\243"
 430      D28D147C 
 430      673A58E1 
 430      A92FA1EF 
 430      2AA3
 431 08a7 65A66BB2 		.ascii	"e\246k\262f3&'\001~o:\374c\305\240\326\313\203\332\000"
 431      66332627 
 431      017E6F3A 
 431      FC63C5A0 
 431      D6CB83DA 
 432 08bc 41AD530A 		.ascii	"A\255S\012j\275GP\353\224\202\332\346\021\324z\032\324"
 432      6ABD4750 
 432      EB9482DA 
 432      E611D47A 
 432      1AD4
 433 08ce BD34A82C 		.ascii	"\2754\250,\220\207\323\346\222@\022j\303R \353d\201"
 433      9087D3E6 
 433      9240126A 
 433      C35220EB 
 433      6481
 434 08e0 3C9CF53E 		.ascii	"<\234\365>\243\017\217\013\364\275\"\375p\351\314\262"
 434      A30F8F0B 
 434      F4BD22FD 
 434      70E9CCB2 
 435 08f0 278B9E59 		.ascii	"'\213\236Y\212<\317,\254oW\332\337\223>\262\315\357"
 435      8A3CCF2C 
 435      AC6F57DA 
 435      DF933EB2 
 435      CDEF
 436 0902 919E9445 		.ascii	"\221\236\224E\342\223\262\264\265\247D\367A\201p\263"
 436      E293B2B4 
 436      B5A744F7 
 436      418170B3 
 437 0912 4AB83950 		.ascii	"J\2709Pd\314\251\276#\010!\032Z9N\211\032\334\222K\031"
 437      64CCA9BE 
 437      2308211A 
ARM GAS  C:\Users\info\AppData\Local\Temp\cc5I06eS.s 			page 34


 437      5A394E89 
 437      1ADC924B 
 438 0927 BCB7C1D2 		.ascii	"\274\267\301\322W\177\000\003\257\227;s|\361Q\372\020"
 438      577F0003 
 438      AF973B73 
 438      7CF151FA 
 438      10
 439 0938 4245E5A3 		.ascii	"BE\345\243\223\030\254\024T\301\336u\011\322\224(\010"
 439      9318AC14 
 439      54C1DE75 
 439      09D29428 
 439      08
 440 0949 9F50234D 		.ascii	"\237P#M\322\234p+\0319M\215\324e\335\016\300\255\314"
 440      D29C702B 
 440      19394D8D 
 440      D465DD0E 
 440      C0ADCC
 441 095c 4652E9CD 		.ascii	"FR\351\3156\037|\213)Y\215\256\335\301\360\252\206\316"
 441      361F7C8B 
 441      29598DAE 
 441      DDC1F0AA 
 441      86CE
 442 096e D241D072 		.ascii	"\322A\320r\342\305\225\235\354\345\215\024%{y\033N;"
 442      E2C5959D 
 442      ECE58D14 
 442      257B791B 
 442      4E3B
 443 0980 D483E779 		.ascii	"\324\203\347y\255\346s4\360\337\321\300\003z\352\304"
 443      ADE67334 
 443      F0DFD1C0 
 443      037AEAC4 
 444 0990 ABA77AE2 		.ascii	"\253\247z\342*\274\226\356\235\374e^q\212\013x\316\240"
 444      2ABC96EE 
 444      9DFC655E 
 444      718A0B78 
 444      CEA0
 445 09a2 387446E4 		.ascii	"8tF\344\211\232\325\032\242\261\217l\347)\315\303-\365"
 445      899AD51A 
 445      A2B18F6C 
 445      E729CDC3 
 445      2DF5
 446 09b4 43FEF8BE 		.ascii	"C\376\370\2767jJ\357\225\023WO\014\253\335t[\325\264"
 446      376A4AEF 
 446      9513574F 
 446      0CABDD74 
 446      5BD5B4
 447 09c7 B12CA925 		.ascii	"\261,\251%\326;\335K\224\356E\221n\306\340\370p \243"
 447      D63BDD4B 
 447      94EE4591 
 447      6EC6E0F8 
 447      7020A3
 448 09da EBEA8BCA 		.ascii	"\353\352\213\312\021\232\222!\244\200A-n\252\027\200"
 448      119A9221 
 448      A480412D 
 448      6EAA1780 
 449 09ea 6A8B48F5 		.ascii	"j\213H\3652\245\232\2311\222\351\217'\274Q=\220:x0\200"
 449      32A59A99 
ARM GAS  C:\Users\info\AppData\Local\Temp\cc5I06eS.s 			page 35


 449      3192E98F 
 449      27BC513D 
 449      903A7830 
 450 09ff 1BBD2E37 		.ascii	"\033\275.7\332\3466z\005\214\266\211F\333\251\321\264"
 450      DAE6367A 
 450      058CB689 
 450      46DBA9D1 
 450      B4
 451 0a10 C4136735 		.ascii	"\304\023g5x\213\277\027\243\335\331]\003ZntL4J\202\332"
 451      788BBF17 
 451      A3DDD95D 
 451      035A6E74 
 451      4C344A82 
 452 0a25 E136DA09 		.ascii	"\3416\332\011F;D\243]\324\2503\3315\346\217\213\231"
 452      463B44A3 
 452      5DD4A833 
 452      D935E68F 
 452      8B99
 453 0a37 D1E7A9C9 		.ascii	"\321\347\251\311\367X\010\311&\313B\3303\336\372\310"
 453      F75808C9 
 453      26CB42D8 
 453      33DEFAC8 
 454 0a47 DF1DC2AB 		.ascii	"\337\035\302\253,\204\337\357lj\320\312c\370\345\\Y"
 454      2C84DFEF 
 454      6C6AD0CA 
 454      63F8E55C 
 454      59
 455 0a58 087B6808 		.ascii	"\010{h\010\257\211!Ly\321\325.\022{2\264\004\230i\010"
 455      AF89214C 
 455      79D1D52E 
 455      127B32B4 
 455      04986908 
 456 0a6c 04754B45 		.ascii	"\004uKE\331-\222\272NIm/\034\277\241\306\265\336<\235"
 456      D92D92BA 
 456      4E496D2F 
 456      1CBFA1C6 
 456      B5DE3C9D 
 457 0a80 CA7D92ED 		.ascii	"\312}\222\355'?\333yf\260\337}\266\2733\341<\023L\271"
 457      273FDB79 
 457      66B0DF7D 
 457      B6BB33E1 
 457      3C134CB9 
 458 0a94 F7BBABF5 		.ascii	"\367\273\253\365@\301\221\342 w\231\334`\376\034\272"
 458      40C191E2 
 458      207799DC 
 458      60FE1CBA 
 459 0aa4 57DD2939 		.ascii	"W\335)99\300\032\237_=X\037\344\275PnQ/o\212^\326L\336"
 459      39C01A9F 
 459      5F3D581F 
 459      E4BD506E 
 459      512F6F8A 
 460 0abc EAC1A297 		.ascii	"\352\301\242\227\367>\317H*8GV<\240P\257;\001}\220\200"
 460      F73ECF48 
 460      2A384756 
 460      3CA050AF 
 460      3B017D90 
 461 0ad1 5ED1D741 		.ascii	"^\321\327A\352kE\312\201T\037|\201\371\252\264\274F"
ARM GAS  C:\Users\info\AppData\Local\Temp\cc5I06eS.s 			page 36


 461      EA6B45CA 
 461      81541F7C 
 461      81F9AAB4 
 461      BC46
 462 0ae3 BA8B1EFB 		.ascii	"\272\213\036\373z\215\365]\312\342\216;\326i\265ybe"
 462      7A8DF55D 
 462      CAE28E3B 
 462      D669B579 
 462      6265
 463 0af5 E5E5611A 		.ascii	"\345\345a\032k\200\240\333R\254o\213\363\337\243\363"
 463      6B80A0DB 
 463      52AC6F8B 
 463      F3DFA3F3 
 464 0b05 DF281AD8 		.ascii	"\337(\032\330\346\213\357\261\371\373\2355\271\354\333"
 464      E68BEFB1 
 464      F9FB9D35 
 464      B9ECDB
 465 0b14 74B67BFE 		.ascii	"t\266{\376c\217\272\272unN\303,6\267\222\256%z'u\237"
 465      638FBABA 
 465      756E4EC3 
 465      2C36B792 
 465      AE257A27 
 466 0b2a 92FA5E24 		.ascii	"\222\372^$\345:\332:\356\307Ie\367\352]\351\210 \320"
 466      E53ADA3A 
 466      EEC74965 
 466      F7EA5DE9 
 466      8820D0
 467 0b3d 90C46948 		.ascii	"\220\304iH\344\364\200q\312\336uJ\203\277e\237\330\212"
 467      E4F48071 
 467      CADE754A 
 467      83BF659F 
 467      D88A
 468 0b4f EFD79EE6 		.ascii	"\357\327\236\346g\362@P\373\212v\354\323\2603\3710]"
 468      67F24050 
 468      FB8A76EC 
 468      D3B033F9 
 468      305D
 469 0b61 E2C33B7A 		.ascii	"\342\303;z\020\353\326\223\357E\245\233\217i\311\207"
 469      10EBD693 
 469      EF45A59B 
 469      8F69C987 
 470 0b71 4181D746 		.ascii	"A\201\327F\210<g\243j\235\212l\334\350\261\232~[\353"
 470      883C67A3 
 470      6A9D8A6C 
 470      DCE8B19A 
 470      7E5BEB
 471 0b84 E9181FD0 		.ascii	"\351\030\037\320\207\244\363\363\353'\210\275'\302\011"
 471      87A4F3F3 
 471      EB2788BD 
 471      27C209
 472 0b93 76444DE0 		.ascii	"vDM\340O\324!\342 \202\036\273\320\225\030 Gw\376\020"
 472      4FD421E2 
 472      20821EBB 
 472      D0951820 
 472      4777FE10 
 473 0ba7 FAB273E8 		.ascii	"\372\262s\350Z\320G\305B[\001\331\323\177sw\037\214"
 473      5AD047C5 
ARM GAS  C:\Users\info\AppData\Local\Temp\cc5I06eS.s 			page 37


 473      425B01D9 
 473      D37F7377 
 473      1F8C
 474 0bb9 42684C1D 		.ascii	"BhL\035\202\0362\307eCI\313\257\241\304\307\325\037"
 474      821E32C7 
 474      654349CB 
 474      AFA1C4C7 
 474      D51F
 475 0bcb 918C97D4 		.ascii	"\221\214\227\324Wc\\\312\334?_r\362\215\236\371\347"
 475      57635CCA 
 475      DC3F5F72 
 475      F28D9EF9 
 475      E7
 476 0bdc 03EAD5EC 		.ascii	"\003\352\325\354\372V\235W\377\236\213\376\035e\337"
 476      FA569D57 
 476      FF9E8BFE 
 476      1D65DF
 477 0beb 0E37DCCD 		.ascii	"\0167\334\315~\0208\335?8\010\242gt\332\027\224\361"
 477      7E1038DD 
 477      3F3808A2 
 477      6774DA17 
 477      94F1
 478 0bfd 7391F199 		.ascii	"s\221\361\231\326\255\273\364\323\375\363\212\276r\352"
 478      D6ADBBF4 
 478      D3FDF38A 
 478      BE72EA
 479 0c0c 644600F3 		.ascii	"dF\000\363\317\325\347#\370\243\227\340\332S\356\232"
 479      CFD5E723 
 479      F8A397E0 
 479      DA53EE9A 
 480 0c1c 34EA2977 		.ascii	"4\352)w\355\025u\255w\353T\231/>\315\\{\222[S\351\307"
 480      ED1575AD 
 480      77EB5499 
 480      2F3ECD5C 
 480      7B925B53 
 481 0c32 2DBC162D 		.ascii	"-\274\026-\274~\307\302kna\202ZHl\315\333\257\306\275"
 481      BC7EC7C2 
 481      6B6E6182 
 481      5A486CCD 
 481      DBAFC6BD 
 482 0c46 CCC2D6CB 		.ascii	"\314\302\326\313\2473\364\334B\366\317I|\211\2117\357"
 482      A733F4DC 
 482      42F6CF49 
 482      7C898937 
 482      EF
 483 0c57 9878C34D 		.ascii	"\230x\303M\274\245&\362\367\264\265\371\341qf\242\347"
 483      BCA526F2 
 483      F7B4B5F9 
 483      E17166A2 
 483      E7
 484 0c68 49EB15CC 		.ascii	"I\353\025\314M\274M\375(Qpi\350\273\342$7\"\276\261"
 484      4DBC4DFD 
 484      28517069 
 484      E8BBE224 
 484      3722BEB1 
 485 0c7c AA680B31 		.ascii	"\252h\01312E\215|\233\273\341;\177\274=\200\032\031"
 485      32458D7C 
ARM GAS  C:\Users\info\AppData\Local\Temp\cc5I06eS.s 			page 38


 485      9BBBE13B 
 485      7FBC3D80 
 485      1A19
 486 0c8e AC7ADEC7 		.ascii	"\254z\336\307\377\325\342CB\253|\362}V\242\331\344\343"
 486      FFD5E243 
 486      42AB7CF2 
 486      7D56A2D9 
 486      E4E3
 487 0ca0 7D66DAF1 		.ascii	"}f\332\361L5\353%\325]z\344\360C\215\327\024&c\236\302"
 487      4C35EB25 
 487      D55D7AE4 
 487      F0438DD7 
 487      1426639E 
 488 0cb5 244C5338 		.ascii	"$LS8^]\266\363\235\022]\217CQ\"&\360\0158D\034D\320"
 488      5E5DB6F3 
 488      9D125D8F 
 488      43512226 
 488      F00D3844 
 489 0ccc 9DED6F8F 		.ascii	"\235\355o\217\005MO\241Wt\343\365S\202\230\302\376\315"
 489      054D4FA1 
 489      5774E3F5 
 489      538298C2 
 489      FECD
 490 0cde EF51DF53 		.ascii	"\357Q\337Sp\010\274\3542\337\245\201\244\205\370\276"
 490      7008BCEC 
 490      32DFA581 
 490      A485F8BE 
 491 0cee 1183EFF8 		.ascii	"\021\203\357\370L\307\241F\035\322\205\"`\215\250#\243"
 491      4CC7A146 
 491      1DD28522 
 491      608DA823 
 491      A3
 492 0cff EB65FF0A 		.ascii	"\353e\377\012\244B\233\250\023\337\302\360T\030\236"
 492      A4429BA8 
 492      13DFC2F0 
 492      54189E
 493 0d0e 2B10CC15 		.ascii	"+\020\314\025D\233\2512\372\317\364\236\374!\017\366"
 493      449BA932 
 493      FACFF49E 
 493      FC210FF6 
 494 0d1e C2E6B240 		.ascii	"\302\346\262@\371~~\316\343p\267\031\323\375\234\\I"
 494      F97E7ECE 
 494      E370B719 
 494      D3FD9C5C 
 494      49
 495 0d2f 49A74E0D 		.ascii	"I\247N\015\005\343\032\026\367\343\271\223.\015\256"
 495      05E31A16 
 495      F7E3B993 
 495      2E0DAE
 496 0d3e 654A4AD6 		.ascii	"eJJ\326\324\240\01670\345\351\243\036\247/n\346\260"
 496      D4A00E37 
 496      30E5E9A3 
 496      1EA72F6E 
 496      E6B0
 497 0d50 4715C703 		.ascii	"G\025\307\003\371\367T\242gV\246&!|\225v\372\276t\326"
 497      F9F754A2 
 497      6756A626 
ARM GAS  C:\Users\info\AppData\Local\Temp\cc5I06eS.s 			page 39


 497      217C9576 
 497      FABE74D6 
 498 0d64 6CD221FA 		.ascii	"l\322!\372\336\036&~@\375\244N\366\001u\013\370\276"
 498      DE1E267E 
 498      40FDA44E 
 498      F601750B 
 498      F8BE
 499 0d76 1D2B7D62 		.ascii	"\035+}bb/\276.\366\342\233\016\336\222\0030\332\306"
 499      622FBE2E 
 499      F6E29B0E 
 499      DE920330 
 499      DAC6
 500 0d88 F12482BB 		.ascii	"\361$\202\273p\030\312\302\013\320\016\220L\220\235"
 500      7018CAC2 
 500      0BD00E90 
 500      4C909D
 501 0d97 58FEE27A 		.ascii	"X\376\342z\343\222\373ui\253\302$\362c\367\230\004\315"
 501      E392FB75 
 501      69ABC224 
 501      F263F798 
 501      04CD
 502 0da9 5080CA5F 		.ascii	"P\200\312_\004\373\323\3047\037\330\257\3238\330\353"
 502      04FBD3C4 
 502      371FD8AF 
 502      D338D8EB 
 503 0db9 A9B5877D 		.ascii	"\251\265\207}i\003\214\374\324J\376\335!u\354M\020\356"
 503      69038CFC 
 503      D44AFEDD 
 503      2175EC4D 
 503      10EE
 504 0dcb A7415237 		.ascii	"\247AR7:\353\234\201(l\026\033\223wi\001\031\223\013"
 504      3AEB9C81 
 504      286C161B 
 504      93776901 
 504      19930B
 505 0dde 76B3B17B 		.ascii	"v\263\261{\023'&\246}\014p\307$\007\342\360\347bBR\330"
 505      132726A6 
 505      7D0C70C7 
 505      2407E2F0 
 505      E7624252 
 506 0df3 5D38475E 		.ascii	"]8G^\010\271X\376Y$\217\027B\036-\204\221\373\367G\325"
 506      08B958FE 
 506      59248F17 
 506      421E2D84 
 506      91FBF747 
 507 0e08 72F0258F 		.ascii	"r\360%\217\252\331\315\301\273)x\327\310\335Q\275\034"
 507      AAD9CDC1 
 507      BB2978D7 
 507      C8DD51BD 
 507      1C
 508 0e19 7CCB03BC 		.ascii	"|\313\003\274\207\203\367PpF\331d\272V\016\356\361\000"
 508      8783F750 
 508      7046D964 
 508      BA560EEE 
 508      F100
 509 0e2b EFE5E0BD 		.ascii	"\357\345\340\275\024\234\326<&\370\313\301d\207\227"
 509      149CD63C 
ARM GAS  C:\Users\info\AppData\Local\Temp\cc5I06eS.s 			page 40


 509      26F8CBC1 
 509      648797
 510 0e3a 7DCAE1E0 		.ascii	"}\312\341\340|\012n\351jH\365\260\374\322\003\\\300"
 510      7C0A6EE9 
 510      6A48F5B0 
 510      FCD2035C 
 510      C0
 511 0e4b C10514DC 		.ascii	"\301\005\024\334wv\262\310\377\303B\026\317TX|_\316"
 511      7776B2C8 
 511      FFC34216 
 511      CF54587C 
 511      5FCE
 512 0e5d A5C77EF6 		.ascii	"\245\307~\366\244,\304d\247y\372r\337\001\216!\017\231"
 512      A42CC464 
 512      A779FA72 
 512      DF018E21 
 512      0F99
 513 0e6f BDA900F4 		.ascii	"\275\251\000\364\304\025Q\334\203\316\013\375\301\014"
 513      C41551DC 
 513      83CE0BFD 
 513      C10C
 514 0e7d E71AF39B 		.ascii	"\347\032\363\233\216)\246\230\216\365\215\373\3748f"
 514      8E29A698 
 514      8EF58DFB 
 514      FC3866
 515 0e8c B76E3AA6 		.ascii	"\267n:\246\204b\232\312\373\263\264\034\323\351;\035"
 515      84629ACA 
 515      FBB3B41C 
 515      D3E93B1D 
 516 0e9c B38F622E 		.ascii	"\263\217b.\246=\232!\367\361\276G\364J\271\217\245\324"
 516      A63D9A21 
 516      F7F1BE47 
 516      F44AB98F 
 516      A5D4
 517 0eae C7A4FADA 		.ascii	"\307\244\372\332\273\0329\370\256\007\270\214\203\313"
 517      BB1A39F8 
 517      AE07B88C 
 517      83CB
 518 0ebc 28F8D2D9 		.ascii	"(\370\322\331\346g:9\230\354U\022\330\311\301N\012\036"
 518      E6673A39 
 518      98EC5512 
 518      D8C9C14E 
 518      0A1E
 519 0ece D87A265D 		.ascii	"\330z&];=z\247E\246\345\224i\352HU[ \367f\347e,8\265"
 519      3B3D7AA7 
 519      45A6E594 
 519      69EA4855 
 519      5B20F766 
 520 0ee7 9EA8FD14 		.ascii	"\236\250\375\024\365\370TR\253/G\345\006s\237\335\230"
 520      F5F85452 
 520      AB2F47E5 
 520      06739FDD 
 520      98
 521 0ef8 0AFCA16A 		.ascii	"\012\374\241jv\374\312\204\225\206HC\274)|\305\222\345"
 521      76FCCA84 
 521      95864843 
 521      BC297CC5 
ARM GAS  C:\Users\info\AppData\Local\Temp\cc5I06eS.s 			page 41


 521      92E5
 522 0f0a 06536C4C 		.ascii	"\006SlLL\254U\373o\277\370b\376g\341\341*\177\203!\336"
 522      4CAC55FB 
 522      6FBFF862 
 522      FE67E1E1 
 522      2A7F8321 
 523 0f1f 6275AC34 		.ascii	"bu\25448\022\221\351\037#\342l\261\253m\306\230\371"
 523      381291E9 
 523      1F23E26C 
 523      B1AB6DC6 
 523      98F9
 524 0f31 519668B3 		.ascii	"Q\226h\263}~X\302\312\025?\2160\255\213\263\231\355"
 524      7D7E58C2 
 524      CA153F8E 
 524      30AD8BB3 
 524      99ED
 525 0f43 F688387B 		.ascii	"\366\2108{\254i\276\311f6:bm\021\313\027/\365l\260\304"
 525      AC69BEC9 
 525      66363A62 
 525      6D11CB17 
 525      2FF56CB0 
 526 0f58 C4C5DA1C 		.ascii	"\304\305\332\034\021\253\255\361\021F[L\304\317\026"
 526      11ABADF1 
 526      11465B4C 
 526      C4CF16
 527 0f67 2F5F1C4E 		.ascii	"/_\034N\356~j\215\265\232\177j6\256\262DX\254\246\350"
 527      EE7E6A8D 
 527      B59A7F6A 
 527      36AEB244 
 527      58ACA6E8 
 528 0f7b F8487344 		.ascii	"\370HsD\214\321\264\306b5G\030\"\315Q\306\370h\207\301"
 528      8CD1B4C6 
 528      62354718 
 528      22CD51C6 
 528      F86887C1 
 529 0f8f B12ECE6C 		.ascii	"\261.\316l_\274F\345\307\251\254\375[1\261\257\263"
 529      5FBC46E5 
 529      C7A9ACFD 
 529      5B31B1AF 
 529      B3
 530 0fa0 4718EC8E 		.ascii	"G\030\354\216H\230\026\246\017\2124\257\212\215\267"
 530      489816A6 
 530      0F8A34AF 
 530      8A8DB7
 531 0faf 9ACCD064 		.ascii	"\232\314\320dt\230\337s\253\321F\273\303\020g\261\262"
 531      7498DF73 
 531      ABD146BB 
 531      C31067B1 
 531      B2
 532 0fc0 F61FB9DB 		.ascii	"\366\037\271\333E\376\356\256\200\325q\226X\003p\204"
 532      45FEEEAE 
 532      80D57196 
 532      58037084 
 533 0fd0 565DBC23 		.ascii	"V]\274#j%k\006\303k-\2007FF\022\376\001\226\245&\322"
 533      6A256B06 
 533      C36B2D80 
 533      37464612 
ARM GAS  C:\Users\info\AppData\Local\Temp\cc5I06eS.s 			page 42


 533      FE0196A5 
 534 0fe6 61739823 		.ascii	"as\230#\351=o\237m\261\033\242b\255\016\203\305\272"
 534      E93D6F9F 
 534      6DB11BA2 
 534      62AD0E83 
 534      C5BA
 535 0ff8 D66CB39B 		.ascii	"\326l\263\233\0151\261\221"
 535      0D31B191 
 536 1000 666D8221 		.ascii	"fm\202!6*\312nvh\315VS,0]\255c)\013_aph\305\033\015"
 536      362ACA6E 
 536      7668CD56 
 536      532C305D 
 536      AD63290B 
 537 101b 19E7BF2A 		.ascii	"\031\347\277*\336n0E\307\232\276\346\220eK9\204\334"
 537      DE6E3045 
 537      C79ABEE6 
 537      90654B39 
 537      84DC
 538 102d CCA4DC8C 		.ascii	"\314\244\334\214\326H\240\035m\\g0\255\012\240\225\021"
 538      D648A01D 
 538      6D5C6730 
 538      AD0AA095 
 538      11
 539 103e 635F0DF7 		.ascii	"c_\015\367~\253\3269\314p\3655\031#\341\242\213\264"
 539      7EABD639 
 539      CC70F535 
 539      1923E1A2 
 539      8BB4
 540 1050 D8E318CA 		.ascii	"\330\343\030\312\317jNp\300UO\321\2465F\033Q\304~\213"
 540      CF6A4E70 
 540      C0554FD1 
 540      A635461B 
 540      51C47E8B 
 541 1064 352A3620 		.ascii	"5*6 \316\222`\2166|c\211t\254\231\031\025m\211#\274"
 541      CE92608E 
 541      367C6389 
 541      74AC9919 
 541      156D8923 
 542 1079 0D22EF19 		.ascii	"\015\"\357\031b\224\304\206\000\007\244\324\260\306"
 542      6294C486 
 542      0007A4D4 
 542      B0C6
 543 1087 6C59BDC6 		.ascii	"lY\275\306\241\243\367t\344\354ol\026\240\020\027\037"
 543      A1A3F774 
 543      E4EC6F6C 
 543      16A01017 
 543      1F
 544 1098 6DE72D06 		.ascii	"m\347-\006\253=$\322\3500\032`P|\234\301a\2111C\323"
 544      AB3D24D2 
 544      E8301A60 
 544      507C9CC1 
 544      61893143 
 545 10ad 6C1231B7 		.ascii	"l\0221\267\247\206\360%K\276\376\374\367Z{\234\205\206"
 545      A786F025 
 545      4BBEFEFC 
 545      F75A7B9C 
 545      8586
ARM GAS  C:\Users\info\AppData\Local\Temp\cc5I06eS.s 			page 43


 546 10bf 4B6F8736 		.ascii	"Ko\2076\326\263\346\367!D\36148\323\0369\315^H\\,d\027"
 546      D6B3E6F7 
 546      2144F134 
 546      38D31E39 
 546      CD5E485C 
 547 10d6 E26F7618 		.ascii	"\342ov\030\2761Z\034\020\220\331L\223\217\214\261\317"
 547      BE315A1C 
 547      1090D94C 
 547      938F8CB1 
 547      CF
 548 10e7 83DA03F7 		.ascii	"\203\332\003\367-q\006\360\335\270\212\320&h+t\020\003"
 548      2D7106F0 
 548      DDB88AD0 
 548      26682B74 
 548      1003
 549 10f9 B4C76C95 		.ascii	"\264\307l\225w\204x\240\243\315k\315\3213\3450\3322"
 549      778478A0 
 549      A3CD6BCD 
 549      D133E530 
 549      DA32
 550 110b 8F2D4F59 		.ascii	"\217-OY8\2414l\361&\207\236E\225\305i\366\342\305\021"
 550      38A1346C 
 550      F126879E 
 550      4595C569 
 550      F6E2C511 
 551 111f F12B572F 		.ascii	"\361+W/5\230\3546S\004\031\002\365:\353\335\241\016"
 551      3598EC36 
 551      53041902 
 551      F53AEBDD 
 551      A10E
 552 1131 96536661 		.ascii	"\226Sfa\226\273PYE\222T\373\322~\307\337\275c\317\275"
 552      96BB5059 
 552      459254FB 
 552      D27EC7DF 
 552      BD63CFBD 
 553 1145 432C36A9 		.ascii	"C,6\251\346zn\031_E'\204\377\303\322\025\313\331NB\012"
 553      E67A6E19 
 553      5F452784 
 553      FFC3D215 
 553      CBD94E42 
 554 115a E45FAD91 		.ascii	"\344_\255\221\277\266\031\255\366(\263Mk\215\265X\243"
 554      BFB619AD 
 554      F628B34D 
 554      6B8DB558 
 554      A3
 555 116b 6139CF70 		.ascii	"a9\317p\367\376\312l\215\374\324\266\332\263\341\263"
 555      F7FECA6C 
 555      8DFCD4B6 
 555      DAB3E1B3 
 556 117b 98C8B952 		.ascii	"\230\310\271R\003)~\321\302\034\017\334\257\314\277"
 556      03297ED1 
 556      C21C0FDC 
 556      AFCCBF
 557 118a 8B874A37 		.ascii	"\213\207J7\317\364h\375\027(\203\037qVk\314\321qf\233"
 557      CFF468FD 
 557      1728831F 
 557      71566BCC 
ARM GAS  C:\Users\info\AppData\Local\Temp\cc5I06eS.s 			page 44


 557      D171669B 
 558 119e CC6F8BE3 		.ascii	"\314o\213\343\003\345.\226\347\030sL\254m]\250\247O"
 558      03E52E96 
 558      E718734C 
 558      AC6D5DA8 
 558      A74F
 559 11b0 71B1DFC0 		.ascii	"q\261\337\300\0223\2565/\001\324\357\274u\206\223\316"
 559      1233AE35 
 559      2F01D4EF 
 559      BC758693 
 559      CE
 560 11c1 F73C3B49 		.ascii	"\367<;I\201/\361\322N\361\357\323v\336\012\201KX\261"
 560      812FF1D2 
 560      4EF1EFD3 
 560      76DE0A81 
 560      4B58B1
 561 11d4 DC2349EF 		.ascii	"\334#I\357+G\227:B\306\373$\000\001;6Y\035Z\272:\342"
 561      2B47973A 
 561      42C6FB24 
 561      00013B36 
 561      591D5ABA 
 562 11ea 1C36164A 		.ascii	"\0346\026J\252\261\324\372\254#\230\000\251\331\361"
 562      AAB1D4FA 
 562      AC239800 
 562      A9D9F1
 563 11f9 7F47859A 		.ascii	"\177G\205\232\352"
 563      EA
 564              		.text
 565              		.section	.gnu.lto_.symtab.792a5dfe,"",%progbits
 566 0000 75387838 		.ascii	"u8x8_d_uc1604_common\000"
 566      5F645F75 
 566      63313630 
 566      345F636F 
 566      6D6D6F6E 
 567 0015 00       		.ascii	"\000"
 568 0016 00       		.ascii	"\000"
 569 0017 00       		.ascii	"\000"
 570 0018 00000000 		.ascii	"\000\000\000\000\000\000\000\000"
 570      00000000 
 571 0020 41010000 		.ascii	"A\001\000\000"
 572 0024 75387838 		.ascii	"u8x8_d_uc1604_jlx19264\000"
 572      5F645F75 
 572      63313630 
 572      345F6A6C 
 572      78313932 
 573 003b 00       		.ascii	"\000"
 574 003c 00       		.ascii	"\000"
 575 003d 00       		.ascii	"\000"
 576 003e 00000000 		.ascii	"\000\000\000\000\000\000\000\000"
 576      00000000 
 577 0046 43010000 		.ascii	"C\001\000\000"
 578 004a 75387838 		.ascii	"u8x8_cad_EndTransfer\000"
 578      5F636164 
 578      5F456E64 
 578      5472616E 
 578      73666572 
 579 005f 00       		.ascii	"\000"
ARM GAS  C:\Users\info\AppData\Local\Temp\cc5I06eS.s 			page 45


 580 0060 02       		.ascii	"\002"
 581 0061 00       		.ascii	"\000"
 582 0062 00000000 		.ascii	"\000\000\000\000\000\000\000\000"
 582      00000000 
 583 006a 49010000 		.ascii	"I\001\000\000"
 584 006e 75387838 		.ascii	"u8x8_cad_SendArg\000"
 584      5F636164 
 584      5F53656E 
 584      64417267 
 584      00
 585 007f 00       		.ascii	"\000"
 586 0080 02       		.ascii	"\002"
 587 0081 00       		.ascii	"\000"
 588 0082 00000000 		.ascii	"\000\000\000\000\000\000\000\000"
 588      00000000 
 589 008a 4F010000 		.ascii	"O\001\000\000"
 590 008e 75387838 		.ascii	"u8x8_cad_SendCmd\000"
 590      5F636164 
 590      5F53656E 
 590      64436D64 
 590      00
 591 009f 00       		.ascii	"\000"
 592 00a0 02       		.ascii	"\002"
 593 00a1 00       		.ascii	"\000"
 594 00a2 00000000 		.ascii	"\000\000\000\000\000\000\000\000"
 594      00000000 
 595 00aa 52010000 		.ascii	"R\001\000\000"
 596 00ae 75387838 		.ascii	"u8x8_cad_StartTransfer\000"
 596      5F636164 
 596      5F537461 
 596      72745472 
 596      616E7366 
 597 00c5 00       		.ascii	"\000"
 598 00c6 02       		.ascii	"\002"
 599 00c7 00       		.ascii	"\000"
 600 00c8 00000000 		.ascii	"\000\000\000\000\000\000\000\000"
 600      00000000 
 601 00d0 55010000 		.ascii	"U\001\000\000"
 602 00d4 75387838 		.ascii	"u8x8_cad_SendSequence\000"
 602      5F636164 
 602      5F53656E 
 602      64536571 
 602      75656E63 
 603 00ea 00       		.ascii	"\000"
 604 00eb 02       		.ascii	"\002"
 605 00ec 00       		.ascii	"\000"
 606 00ed 00000000 		.ascii	"\000\000\000\000\000\000\000\000"
 606      00000000 
 607 00f5 5A010000 		.ascii	"Z\001\000\000"
 608 00f9 75387838 		.ascii	"u8x8_cad_SendData\000"
 608      5F636164 
 608      5F53656E 
 608      64446174 
 608      6100
 609 010b 00       		.ascii	"\000"
 610 010c 02       		.ascii	"\002"
 611 010d 00       		.ascii	"\000"
ARM GAS  C:\Users\info\AppData\Local\Temp\cc5I06eS.s 			page 46


 612 010e 00000000 		.ascii	"\000\000\000\000\000\000\000\000"
 612      00000000 
 613 0116 62010000 		.ascii	"b\001\000\000"
 614 011a 75387838 		.ascii	"u8x8_d_helper_display_init\000"
 614      5F645F68 
 614      656C7065 
 614      725F6469 
 614      73706C61 
 615 0135 00       		.ascii	"\000"
 616 0136 02       		.ascii	"\002"
 617 0137 00       		.ascii	"\000"
 618 0138 00000000 		.ascii	"\000\000\000\000\000\000\000\000"
 618      00000000 
 619 0140 66010000 		.ascii	"f\001\000\000"
 620 0144 75387838 		.ascii	"u8x8_d_helper_display_setup_memory\000"
 620      5F645F68 
 620      656C7065 
 620      725F6469 
 620      73706C61 
 621 0167 00       		.ascii	"\000"
 622 0168 02       		.ascii	"\002"
 623 0169 00       		.ascii	"\000"
 624 016a 00000000 		.ascii	"\000\000\000\000\000\000\000\000"
 624      00000000 
 625 0172 6B010000 		.ascii	"k\001\000\000"
 626              		.text
 627              		.section	.gnu.lto_.opts,"",%progbits
 628 0000 272D666D 		.ascii	"'-fmath-errno' '-fsigned-zeros' '-ftrapping-math' '"
 628      6174682D 
 628      6572726E 
 628      6F272027 
 628      2D667369 
 629 0033 2D666E6F 		.ascii	"-fno-trapv' '-fno-strict-overflow' '-fno-openmp' '-"
 629      2D747261 
 629      70762720 
 629      272D666E 
 629      6F2D7374 
 630 0066 666E6F2D 		.ascii	"fno-openacc' '-mcpu=cortex-m3' '-mthumb' '-g' '-Og'"
 630      6F70656E 
 630      61636327 
 630      20272D6D 
 630      6370753D 
 631 0099 20272D66 		.ascii	" '-ffunction-sections' '-ffat-lto-objects' '-flto'\000"
 631      66756E63 
 631      74696F6E 
 631      2D736563 
 631      74696F6E 
 632              		.text
 633              		.cfi_sections	.debug_frame
 634              		.section	.text.u8x8_d_uc1604_common,"ax",%progbits
 635              		.align	2
 636              		.global	u8x8_d_uc1604_common
 637              		.thumb
 638              		.thumb_func
 639              		.type	u8x8_d_uc1604_common, %function
 640              	u8x8_d_uc1604_common:
 641              	.LFB0:
ARM GAS  C:\Users\info\AppData\Local\Temp\cc5I06eS.s 			page 47


 642              		.file 1 "..\\u8g2_csrc\\u8x8_d_uc1604.c"
   1:..\u8g2_csrc/u8x8_d_uc1604.c **** /*
   2:..\u8g2_csrc/u8x8_d_uc1604.c **** 
   3:..\u8g2_csrc/u8x8_d_uc1604.c ****   u8x8_d_uc1604.c
   4:..\u8g2_csrc/u8x8_d_uc1604.c ****   
   5:..\u8g2_csrc/u8x8_d_uc1604.c ****   Universal 8bit Graphics Library (https://github.com/olikraus/u8g2/)
   6:..\u8g2_csrc/u8x8_d_uc1604.c **** 
   7:..\u8g2_csrc/u8x8_d_uc1604.c ****   Copyright (c) 2016, olikraus@gmail.com
   8:..\u8g2_csrc/u8x8_d_uc1604.c ****   All rights reserved.
   9:..\u8g2_csrc/u8x8_d_uc1604.c **** 
  10:..\u8g2_csrc/u8x8_d_uc1604.c ****   Redistribution and use in source and binary forms, with or without modification, 
  11:..\u8g2_csrc/u8x8_d_uc1604.c ****   are permitted provided that the following conditions are met:
  12:..\u8g2_csrc/u8x8_d_uc1604.c **** 
  13:..\u8g2_csrc/u8x8_d_uc1604.c ****   * Redistributions of source code must retain the above copyright notice, this list 
  14:..\u8g2_csrc/u8x8_d_uc1604.c ****     of conditions and the following disclaimer.
  15:..\u8g2_csrc/u8x8_d_uc1604.c ****     
  16:..\u8g2_csrc/u8x8_d_uc1604.c ****   * Redistributions in binary form must reproduce the above copyright notice, this 
  17:..\u8g2_csrc/u8x8_d_uc1604.c ****     list of conditions and the following disclaimer in the documentation and/or other 
  18:..\u8g2_csrc/u8x8_d_uc1604.c ****     materials provided with the distribution.
  19:..\u8g2_csrc/u8x8_d_uc1604.c **** 
  20:..\u8g2_csrc/u8x8_d_uc1604.c ****   THIS SOFTWARE IS PROVIDED BY THE COPYRIGHT HOLDERS AND 
  21:..\u8g2_csrc/u8x8_d_uc1604.c ****   CONTRIBUTORS "AS IS" AND ANY EXPRESS OR IMPLIED WARRANTIES, 
  22:..\u8g2_csrc/u8x8_d_uc1604.c ****   INCLUDING, BUT NOT LIMITED TO, THE IMPLIED WARRANTIES OF 
  23:..\u8g2_csrc/u8x8_d_uc1604.c ****   MERCHANTABILITY AND FITNESS FOR A PARTICULAR PURPOSE ARE 
  24:..\u8g2_csrc/u8x8_d_uc1604.c ****   DISCLAIMED. IN NO EVENT SHALL THE COPYRIGHT HOLDER OR 
  25:..\u8g2_csrc/u8x8_d_uc1604.c ****   CONTRIBUTORS BE LIABLE FOR ANY DIRECT, INDIRECT, INCIDENTAL, 
  26:..\u8g2_csrc/u8x8_d_uc1604.c ****   SPECIAL, EXEMPLARY, OR CONSEQUENTIAL DAMAGES (INCLUDING, BUT 
  27:..\u8g2_csrc/u8x8_d_uc1604.c ****   NOT LIMITED TO, PROCUREMENT OF SUBSTITUTE GOODS OR SERVICES; 
  28:..\u8g2_csrc/u8x8_d_uc1604.c ****   LOSS OF USE, DATA, OR PROFITS; OR BUSINESS INTERRUPTION) HOWEVER 
  29:..\u8g2_csrc/u8x8_d_uc1604.c ****   CAUSED AND ON ANY THEORY OF LIABILITY, WHETHER IN CONTRACT, 
  30:..\u8g2_csrc/u8x8_d_uc1604.c ****   STRICT LIABILITY, OR TORT (INCLUDING NEGLIGENCE OR OTHERWISE) 
  31:..\u8g2_csrc/u8x8_d_uc1604.c ****   ARISING IN ANY WAY OUT OF THE USE OF THIS SOFTWARE, EVEN IF 
  32:..\u8g2_csrc/u8x8_d_uc1604.c ****   ADVISED OF THE POSSIBILITY OF SUCH DAMAGE.  
  33:..\u8g2_csrc/u8x8_d_uc1604.c **** 
  34:..\u8g2_csrc/u8x8_d_uc1604.c **** 
  35:..\u8g2_csrc/u8x8_d_uc1604.c ****   
  36:..\u8g2_csrc/u8x8_d_uc1604.c **** */
  37:..\u8g2_csrc/u8x8_d_uc1604.c **** #include "u8x8.h"
  38:..\u8g2_csrc/u8x8_d_uc1604.c **** 
  39:..\u8g2_csrc/u8x8_d_uc1604.c **** 
  40:..\u8g2_csrc/u8x8_d_uc1604.c **** 
  41:..\u8g2_csrc/u8x8_d_uc1604.c **** 
  42:..\u8g2_csrc/u8x8_d_uc1604.c **** 
  43:..\u8g2_csrc/u8x8_d_uc1604.c **** static const uint8_t u8x8_d_uc1604_powersave0_seq[] = {
  44:..\u8g2_csrc/u8x8_d_uc1604.c ****   U8X8_START_TRANSFER(),             	/* enable chip, delay is part of the transfer start */
  45:..\u8g2_csrc/u8x8_d_uc1604.c ****   U8X8_DLY(20),			
  46:..\u8g2_csrc/u8x8_d_uc1604.c ****   U8X8_C(0x0af),		                /* display on */
  47:..\u8g2_csrc/u8x8_d_uc1604.c ****   U8X8_DLY(20),				/* during setup, it seems that the startup is more reliable when sending this cm
  48:..\u8g2_csrc/u8x8_d_uc1604.c ****   U8X8_C(0x0af),		                /* display on */
  49:..\u8g2_csrc/u8x8_d_uc1604.c ****   U8X8_DLY(50),				/* startup takes some time */
  50:..\u8g2_csrc/u8x8_d_uc1604.c ****   U8X8_END_TRANSFER(),             	/* disable chip */
  51:..\u8g2_csrc/u8x8_d_uc1604.c ****   U8X8_END()             			/* end of sequence */
  52:..\u8g2_csrc/u8x8_d_uc1604.c **** };
  53:..\u8g2_csrc/u8x8_d_uc1604.c **** 
  54:..\u8g2_csrc/u8x8_d_uc1604.c **** static const uint8_t u8x8_d_uc1604_powersave1_seq[] = {
  55:..\u8g2_csrc/u8x8_d_uc1604.c ****   U8X8_START_TRANSFER(),             	/* enable chip, delay is part of the transfer start */
  56:..\u8g2_csrc/u8x8_d_uc1604.c ****   U8X8_C(0x0ae),		                /* display off, enter sleep mode */
ARM GAS  C:\Users\info\AppData\Local\Temp\cc5I06eS.s 			page 48


  57:..\u8g2_csrc/u8x8_d_uc1604.c ****   U8X8_END_TRANSFER(),             	/* disable chip */
  58:..\u8g2_csrc/u8x8_d_uc1604.c ****   U8X8_END()             			/* end of sequence */
  59:..\u8g2_csrc/u8x8_d_uc1604.c **** };
  60:..\u8g2_csrc/u8x8_d_uc1604.c **** 
  61:..\u8g2_csrc/u8x8_d_uc1604.c **** static const uint8_t u8x8_d_uc1604_flip0_seq[] = {
  62:..\u8g2_csrc/u8x8_d_uc1604.c ****   U8X8_START_TRANSFER(),             	/* enable chip, delay is part of the transfer start */
  63:..\u8g2_csrc/u8x8_d_uc1604.c ****   U8X8_C(0x0c4),            			/* LCD Mapping */
  64:..\u8g2_csrc/u8x8_d_uc1604.c ****   U8X8_END_TRANSFER(),             	/* disable chip */
  65:..\u8g2_csrc/u8x8_d_uc1604.c ****   U8X8_END()             			/* end of sequence */
  66:..\u8g2_csrc/u8x8_d_uc1604.c **** };
  67:..\u8g2_csrc/u8x8_d_uc1604.c **** 
  68:..\u8g2_csrc/u8x8_d_uc1604.c **** static const uint8_t u8x8_d_uc1604_flip1_seq[] = {
  69:..\u8g2_csrc/u8x8_d_uc1604.c ****   U8X8_START_TRANSFER(),             	/* enable chip, delay is part of the transfer start */
  70:..\u8g2_csrc/u8x8_d_uc1604.c ****   U8X8_C(0x0c2),            			/* LCD Mapping */
  71:..\u8g2_csrc/u8x8_d_uc1604.c ****   U8X8_END_TRANSFER(),             	/* disable chip */
  72:..\u8g2_csrc/u8x8_d_uc1604.c ****   U8X8_END()             			/* end of sequence */
  73:..\u8g2_csrc/u8x8_d_uc1604.c **** };
  74:..\u8g2_csrc/u8x8_d_uc1604.c **** 
  75:..\u8g2_csrc/u8x8_d_uc1604.c **** 
  76:..\u8g2_csrc/u8x8_d_uc1604.c **** uint8_t u8x8_d_uc1604_common(u8x8_t *u8x8, uint8_t msg, uint8_t arg_int, void *arg_ptr)
  77:..\u8g2_csrc/u8x8_d_uc1604.c **** {
 643              		.loc 1 77 0
 644              		.cfi_startproc
 645              		@ args = 0, pretend = 0, frame = 0
 646              		@ frame_needed = 0, uses_anonymous_args = 0
 647              	.LVL0:
 648 0000 F8B5     		push	{r3, r4, r5, r6, r7, lr}
 649              		.cfi_def_cfa_offset 24
 650              		.cfi_offset 3, -24
 651              		.cfi_offset 4, -20
 652              		.cfi_offset 5, -16
 653              		.cfi_offset 6, -12
 654              		.cfi_offset 7, -8
 655              		.cfi_offset 14, -4
 656 0002 0546     		mov	r5, r0
 657 0004 1446     		mov	r4, r2
 658 0006 1F46     		mov	r7, r3
  78:..\u8g2_csrc/u8x8_d_uc1604.c ****   uint8_t x, y, c;
  79:..\u8g2_csrc/u8x8_d_uc1604.c ****   uint8_t *ptr;
  80:..\u8g2_csrc/u8x8_d_uc1604.c ****   switch(msg)
 659              		.loc 1 80 0
 660 0008 0B39     		subs	r1, r1, #11
 661              	.LVL1:
 662 000a 0429     		cmp	r1, #4
 663 000c 5ED8     		bhi	.L11
 664 000e DFE801F0 		tbb	[pc, r1]
 665              	.LVL2:
 666              	.L4:
 667 0012 30       		.byte	(.L3-.L4)/2
 668 0013 5D       		.byte	(.L11-.L4)/2
 669 0014 3B       		.byte	(.L5-.L4)/2
 670 0015 4E       		.byte	(.L6-.L4)/2
 671 0016 03       		.byte	(.L7-.L4)/2
 672 0017 00       		.p2align 1
 673              	.L7:
  81:..\u8g2_csrc/u8x8_d_uc1604.c ****   {
  82:..\u8g2_csrc/u8x8_d_uc1604.c ****     case U8X8_MSG_DISPLAY_DRAW_TILE:
ARM GAS  C:\Users\info\AppData\Local\Temp\cc5I06eS.s 			page 49


  83:..\u8g2_csrc/u8x8_d_uc1604.c ****       u8x8_cad_StartTransfer(u8x8);
 674              		.loc 1 83 0
 675 0018 FFF7FEFF 		bl	u8x8_cad_StartTransfer
 676              	.LVL3:
  84:..\u8g2_csrc/u8x8_d_uc1604.c ****     
  85:..\u8g2_csrc/u8x8_d_uc1604.c ****       x = ((u8x8_tile_t *)arg_ptr)->x_pos;
 677              		.loc 1 85 0
 678 001c 7E79     		ldrb	r6, [r7, #5]	@ zero_extendqisi2
 679              	.LVL4:
  86:..\u8g2_csrc/u8x8_d_uc1604.c ****       x *= 8;
 680              		.loc 1 86 0
 681 001e F600     		lsls	r6, r6, #3
 682              	.LVL5:
 683 0020 F6B2     		uxtb	r6, r6
 684              	.LVL6:
  87:..\u8g2_csrc/u8x8_d_uc1604.c ****    
  88:..\u8g2_csrc/u8x8_d_uc1604.c ****       u8x8_cad_SendCmd(u8x8, 0x000 | ((x&15)));
 685              		.loc 1 88 0
 686 0022 06F00801 		and	r1, r6, #8
 687 0026 2846     		mov	r0, r5
 688 0028 FFF7FEFF 		bl	u8x8_cad_SendCmd
 689              	.LVL7:
  89:..\u8g2_csrc/u8x8_d_uc1604.c ****       u8x8_cad_SendCmd(u8x8, 0x010 | (x>>4) );
 690              		.loc 1 89 0
 691 002c 3109     		lsrs	r1, r6, #4
 692 002e 41F01001 		orr	r1, r1, #16
 693 0032 2846     		mov	r0, r5
 694 0034 FFF7FEFF 		bl	u8x8_cad_SendCmd
 695              	.LVL8:
  90:..\u8g2_csrc/u8x8_d_uc1604.c ****     
  91:..\u8g2_csrc/u8x8_d_uc1604.c ****       y = ((u8x8_tile_t *)arg_ptr)->y_pos;
 696              		.loc 1 91 0
 697 0038 B979     		ldrb	r1, [r7, #6]	@ zero_extendqisi2
 698              	.LVL9:
  92:..\u8g2_csrc/u8x8_d_uc1604.c ****       y += u8x8->x_offset;
 699              		.loc 1 92 0
 700 003a 95F82230 		ldrb	r3, [r5, #34]	@ zero_extendqisi2
 701 003e 1944     		add	r1, r1, r3
 702              	.LVL10:
  93:..\u8g2_csrc/u8x8_d_uc1604.c ****       u8x8_cad_SendCmd(u8x8, 0x0b0 | (y&15));
 703              		.loc 1 93 0
 704 0040 01F00F01 		and	r1, r1, #15
 705              	.LVL11:
 706 0044 41F0B001 		orr	r1, r1, #176
 707 0048 2846     		mov	r0, r5
 708 004a FFF7FEFF 		bl	u8x8_cad_SendCmd
 709              	.LVL12:
  94:..\u8g2_csrc/u8x8_d_uc1604.c ****     
  95:..\u8g2_csrc/u8x8_d_uc1604.c ****       c = ((u8x8_tile_t *)arg_ptr)->cnt;
 710              		.loc 1 95 0
 711 004e 3E79     		ldrb	r6, [r7, #4]	@ zero_extendqisi2
 712              	.LVL13:
  96:..\u8g2_csrc/u8x8_d_uc1604.c ****       c *= 8;
 713              		.loc 1 96 0
 714 0050 F600     		lsls	r6, r6, #3
 715              	.LVL14:
 716 0052 F6B2     		uxtb	r6, r6
ARM GAS  C:\Users\info\AppData\Local\Temp\cc5I06eS.s 			page 50


 717              	.LVL15:
  97:..\u8g2_csrc/u8x8_d_uc1604.c ****       ptr = ((u8x8_tile_t *)arg_ptr)->tile_ptr;
 718              		.loc 1 97 0
 719 0054 3F68     		ldr	r7, [r7]
 720              	.LVL16:
 721              	.L8:
  98:..\u8g2_csrc/u8x8_d_uc1604.c ****       do
  99:..\u8g2_csrc/u8x8_d_uc1604.c ****       {
 100:..\u8g2_csrc/u8x8_d_uc1604.c **** 	u8x8_cad_SendData(u8x8, c, ptr);	/* note: SendData can not handle more than 255 bytes */
 722              		.loc 1 100 0 discriminator 1
 723 0056 3A46     		mov	r2, r7
 724 0058 3146     		mov	r1, r6
 725 005a 2846     		mov	r0, r5
 726 005c FFF7FEFF 		bl	u8x8_cad_SendData
 727              	.LVL17:
 101:..\u8g2_csrc/u8x8_d_uc1604.c **** 	arg_int--;
 728              		.loc 1 101 0 discriminator 1
 729 0060 621E     		subs	r2, r4, #1
 730              	.LVL18:
 102:..\u8g2_csrc/u8x8_d_uc1604.c ****       } while( arg_int > 0 );
 731              		.loc 1 102 0 discriminator 1
 732 0062 12F0FF04 		ands	r4, r2, #255
 733 0066 F6D1     		bne	.L8
 103:..\u8g2_csrc/u8x8_d_uc1604.c ****       
 104:..\u8g2_csrc/u8x8_d_uc1604.c ****       u8x8_cad_EndTransfer(u8x8);
 734              		.loc 1 104 0
 735 0068 2846     		mov	r0, r5
 736 006a FFF7FEFF 		bl	u8x8_cad_EndTransfer
 737              	.LVL19:
 105:..\u8g2_csrc/u8x8_d_uc1604.c ****       break;
 106:..\u8g2_csrc/u8x8_d_uc1604.c ****     /*	handled in the calling procedure 
 107:..\u8g2_csrc/u8x8_d_uc1604.c ****     case U8X8_MSG_DISPLAY_SETUP_MEMORY:
 108:..\u8g2_csrc/u8x8_d_uc1604.c ****       u8x8_d_helper_display_setup_memory(u8x8, &u8x8_uc1604_128x64_display_info);
 109:..\u8g2_csrc/u8x8_d_uc1604.c ****       break;
 110:..\u8g2_csrc/u8x8_d_uc1604.c ****     case U8X8_MSG_DISPLAY_INIT:
 111:..\u8g2_csrc/u8x8_d_uc1604.c ****       u8x8_d_helper_display_init(u8x8);
 112:..\u8g2_csrc/u8x8_d_uc1604.c ****       u8x8_cad_SendSequence(u8x8, u8x8_d_uc1701_dogs102_init_seq);
 113:..\u8g2_csrc/u8x8_d_uc1604.c ****       break;
 114:..\u8g2_csrc/u8x8_d_uc1604.c ****     */
 115:..\u8g2_csrc/u8x8_d_uc1604.c ****     case U8X8_MSG_DISPLAY_SET_POWER_SAVE:
 116:..\u8g2_csrc/u8x8_d_uc1604.c ****       if ( arg_int == 0 )
 117:..\u8g2_csrc/u8x8_d_uc1604.c **** 	u8x8_cad_SendSequence(u8x8, u8x8_d_uc1604_powersave0_seq);
 118:..\u8g2_csrc/u8x8_d_uc1604.c ****       else
 119:..\u8g2_csrc/u8x8_d_uc1604.c **** 	u8x8_cad_SendSequence(u8x8, u8x8_d_uc1604_powersave1_seq);
 120:..\u8g2_csrc/u8x8_d_uc1604.c ****       break;
 121:..\u8g2_csrc/u8x8_d_uc1604.c ****     case U8X8_MSG_DISPLAY_SET_FLIP_MODE:
 122:..\u8g2_csrc/u8x8_d_uc1604.c ****       if ( arg_int == 0 )
 123:..\u8g2_csrc/u8x8_d_uc1604.c ****       {
 124:..\u8g2_csrc/u8x8_d_uc1604.c **** 	u8x8_cad_SendSequence(u8x8, u8x8_d_uc1604_flip0_seq);
 125:..\u8g2_csrc/u8x8_d_uc1604.c **** 	u8x8->x_offset = u8x8->display_info->default_x_offset;
 126:..\u8g2_csrc/u8x8_d_uc1604.c ****       }
 127:..\u8g2_csrc/u8x8_d_uc1604.c ****       else
 128:..\u8g2_csrc/u8x8_d_uc1604.c ****       {
 129:..\u8g2_csrc/u8x8_d_uc1604.c **** 	u8x8_cad_SendSequence(u8x8, u8x8_d_uc1604_flip1_seq);
 130:..\u8g2_csrc/u8x8_d_uc1604.c **** 	u8x8->x_offset = u8x8->display_info->flipmode_x_offset;
 131:..\u8g2_csrc/u8x8_d_uc1604.c ****       }	
 132:..\u8g2_csrc/u8x8_d_uc1604.c ****       break;
ARM GAS  C:\Users\info\AppData\Local\Temp\cc5I06eS.s 			page 51


 133:..\u8g2_csrc/u8x8_d_uc1604.c **** #ifdef U8X8_WITH_SET_CONTRAST
 134:..\u8g2_csrc/u8x8_d_uc1604.c ****     case U8X8_MSG_DISPLAY_SET_CONTRAST:
 135:..\u8g2_csrc/u8x8_d_uc1604.c ****       u8x8_cad_StartTransfer(u8x8);
 136:..\u8g2_csrc/u8x8_d_uc1604.c ****       u8x8_cad_SendCmd(u8x8, 0x081 );
 137:..\u8g2_csrc/u8x8_d_uc1604.c ****       u8x8_cad_SendArg(u8x8, arg_int  );	/* uc1604 has range from 0 to 255 */
 138:..\u8g2_csrc/u8x8_d_uc1604.c ****       u8x8_cad_EndTransfer(u8x8);
 139:..\u8g2_csrc/u8x8_d_uc1604.c ****       break;
 140:..\u8g2_csrc/u8x8_d_uc1604.c **** #endif
 141:..\u8g2_csrc/u8x8_d_uc1604.c ****     default:
 142:..\u8g2_csrc/u8x8_d_uc1604.c ****       return 0;
 143:..\u8g2_csrc/u8x8_d_uc1604.c ****   }
 144:..\u8g2_csrc/u8x8_d_uc1604.c ****   return 1;
 738              		.loc 1 144 0
 739 006e 0120     		movs	r0, #1
 105:..\u8g2_csrc/u8x8_d_uc1604.c ****       break;
 740              		.loc 1 105 0
 741 0070 F8BD     		pop	{r3, r4, r5, r6, r7, pc}
 742              	.LVL20:
 743              	.L3:
 116:..\u8g2_csrc/u8x8_d_uc1604.c **** 	u8x8_cad_SendSequence(u8x8, u8x8_d_uc1604_powersave0_seq);
 744              		.loc 1 116 0
 745 0072 22B9     		cbnz	r2, .L9
 117:..\u8g2_csrc/u8x8_d_uc1604.c ****       else
 746              		.loc 1 117 0
 747 0074 1649     		ldr	r1, .L13
 748 0076 FFF7FEFF 		bl	u8x8_cad_SendSequence
 749              	.LVL21:
 750              		.loc 1 144 0
 751 007a 0120     		movs	r0, #1
 752 007c F8BD     		pop	{r3, r4, r5, r6, r7, pc}
 753              	.LVL22:
 754              	.L9:
 119:..\u8g2_csrc/u8x8_d_uc1604.c ****       break;
 755              		.loc 1 119 0
 756 007e 1549     		ldr	r1, .L13+4
 757 0080 FFF7FEFF 		bl	u8x8_cad_SendSequence
 758              	.LVL23:
 759              		.loc 1 144 0
 760 0084 0120     		movs	r0, #1
 761 0086 F8BD     		pop	{r3, r4, r5, r6, r7, pc}
 762              	.LVL24:
 763              	.L5:
 122:..\u8g2_csrc/u8x8_d_uc1604.c ****       {
 764              		.loc 1 122 0
 765 0088 42B9     		cbnz	r2, .L10
 124:..\u8g2_csrc/u8x8_d_uc1604.c **** 	u8x8->x_offset = u8x8->display_info->default_x_offset;
 766              		.loc 1 124 0
 767 008a 1349     		ldr	r1, .L13+8
 768 008c FFF7FEFF 		bl	u8x8_cad_SendSequence
 769              	.LVL25:
 125:..\u8g2_csrc/u8x8_d_uc1604.c ****       }
 770              		.loc 1 125 0
 771 0090 2B68     		ldr	r3, [r5]
 772 0092 9B7C     		ldrb	r3, [r3, #18]	@ zero_extendqisi2
 773 0094 85F82230 		strb	r3, [r5, #34]
 774              		.loc 1 144 0
 775 0098 0120     		movs	r0, #1
ARM GAS  C:\Users\info\AppData\Local\Temp\cc5I06eS.s 			page 52


 776 009a F8BD     		pop	{r3, r4, r5, r6, r7, pc}
 777              	.LVL26:
 778              	.L10:
 129:..\u8g2_csrc/u8x8_d_uc1604.c **** 	u8x8->x_offset = u8x8->display_info->flipmode_x_offset;
 779              		.loc 1 129 0
 780 009c 0F49     		ldr	r1, .L13+12
 781 009e FFF7FEFF 		bl	u8x8_cad_SendSequence
 782              	.LVL27:
 130:..\u8g2_csrc/u8x8_d_uc1604.c ****       }	
 783              		.loc 1 130 0
 784 00a2 2B68     		ldr	r3, [r5]
 785 00a4 DB7C     		ldrb	r3, [r3, #19]	@ zero_extendqisi2
 786 00a6 85F82230 		strb	r3, [r5, #34]
 787              		.loc 1 144 0
 788 00aa 0120     		movs	r0, #1
 789 00ac F8BD     		pop	{r3, r4, r5, r6, r7, pc}
 790              	.LVL28:
 791              	.L6:
 135:..\u8g2_csrc/u8x8_d_uc1604.c ****       u8x8_cad_SendCmd(u8x8, 0x081 );
 792              		.loc 1 135 0
 793 00ae FFF7FEFF 		bl	u8x8_cad_StartTransfer
 794              	.LVL29:
 136:..\u8g2_csrc/u8x8_d_uc1604.c ****       u8x8_cad_SendArg(u8x8, arg_int  );	/* uc1604 has range from 0 to 255 */
 795              		.loc 1 136 0
 796 00b2 8121     		movs	r1, #129
 797 00b4 2846     		mov	r0, r5
 798 00b6 FFF7FEFF 		bl	u8x8_cad_SendCmd
 799              	.LVL30:
 137:..\u8g2_csrc/u8x8_d_uc1604.c ****       u8x8_cad_EndTransfer(u8x8);
 800              		.loc 1 137 0
 801 00ba 2146     		mov	r1, r4
 802 00bc 2846     		mov	r0, r5
 803 00be FFF7FEFF 		bl	u8x8_cad_SendArg
 804              	.LVL31:
 138:..\u8g2_csrc/u8x8_d_uc1604.c ****       break;
 805              		.loc 1 138 0
 806 00c2 2846     		mov	r0, r5
 807 00c4 FFF7FEFF 		bl	u8x8_cad_EndTransfer
 808              	.LVL32:
 809              		.loc 1 144 0
 810 00c8 0120     		movs	r0, #1
 139:..\u8g2_csrc/u8x8_d_uc1604.c **** #endif
 811              		.loc 1 139 0
 812 00ca F8BD     		pop	{r3, r4, r5, r6, r7, pc}
 813              	.LVL33:
 814              	.L11:
 142:..\u8g2_csrc/u8x8_d_uc1604.c ****   }
 815              		.loc 1 142 0
 816 00cc 0020     		movs	r0, #0
 817              	.LVL34:
 145:..\u8g2_csrc/u8x8_d_uc1604.c **** }
 818              		.loc 1 145 0
 819 00ce F8BD     		pop	{r3, r4, r5, r6, r7, pc}
 820              	.LVL35:
 821              	.L14:
 822              		.align	2
 823              	.L13:
ARM GAS  C:\Users\info\AppData\Local\Temp\cc5I06eS.s 			page 53


 824 00d0 00000000 		.word	.LANCHOR0
 825 00d4 10000000 		.word	.LANCHOR0+16
 826 00d8 18000000 		.word	.LANCHOR0+24
 827 00dc 20000000 		.word	.LANCHOR0+32
 828              		.cfi_endproc
 829              	.LFE0:
 830              		.size	u8x8_d_uc1604_common, .-u8x8_d_uc1604_common
 831              		.section	.text.u8x8_d_uc1604_jlx19264,"ax",%progbits
 832              		.align	2
 833              		.global	u8x8_d_uc1604_jlx19264
 834              		.thumb
 835              		.thumb_func
 836              		.type	u8x8_d_uc1604_jlx19264, %function
 837              	u8x8_d_uc1604_jlx19264:
 838              	.LFB1:
 146:..\u8g2_csrc/u8x8_d_uc1604.c **** 
 147:..\u8g2_csrc/u8x8_d_uc1604.c **** /*================================================*/
 148:..\u8g2_csrc/u8x8_d_uc1604.c **** /* JLX19264 */
 149:..\u8g2_csrc/u8x8_d_uc1604.c **** 
 150:..\u8g2_csrc/u8x8_d_uc1604.c **** /* 
 151:..\u8g2_csrc/u8x8_d_uc1604.c ****   timings from uc1608 
 152:..\u8g2_csrc/u8x8_d_uc1604.c **** 
 153:..\u8g2_csrc/u8x8_d_uc1604.c ****   UC1604 has two chip select inputs (CS0 and CS1).
 154:..\u8g2_csrc/u8x8_d_uc1604.c ****   CS0 is low active, CS1 is high active. It will depend on the display
 155:..\u8g2_csrc/u8x8_d_uc1604.c ****   module whether the display has a is low or high active chip select.
 156:..\u8g2_csrc/u8x8_d_uc1604.c **** 
 157:..\u8g2_csrc/u8x8_d_uc1604.c **** */
 158:..\u8g2_csrc/u8x8_d_uc1604.c **** static const u8x8_display_info_t u8x8_uc1604_192x64_display_info =
 159:..\u8g2_csrc/u8x8_d_uc1604.c **** {
 160:..\u8g2_csrc/u8x8_d_uc1604.c ****   /* chip_enable_level = */ 0,	/* JLX19264G uses CS0, which is low active CS*/
 161:..\u8g2_csrc/u8x8_d_uc1604.c ****   /* chip_disable_level = */ 1,
 162:..\u8g2_csrc/u8x8_d_uc1604.c ****   
 163:..\u8g2_csrc/u8x8_d_uc1604.c ****   /* post_chip_enable_wait_ns = */ 20,	
 164:..\u8g2_csrc/u8x8_d_uc1604.c ****   /* pre_chip_disable_wait_ns = */ 20,	
 165:..\u8g2_csrc/u8x8_d_uc1604.c ****   /* reset_pulse_width_ms = */ 1, 	
 166:..\u8g2_csrc/u8x8_d_uc1604.c ****   /* post_reset_wait_ms = */ 10, 	
 167:..\u8g2_csrc/u8x8_d_uc1604.c ****   /* sda_setup_time_ns = */ 30,		
 168:..\u8g2_csrc/u8x8_d_uc1604.c ****   /* sck_pulse_width_ns = */ 65,	/* half of cycle time  */
 169:..\u8g2_csrc/u8x8_d_uc1604.c ****   /* sck_clock_hz = */ 8000000UL,	/* since Arduino 1.6.0, the SPI bus speed in Hz. Should be  10000
 170:..\u8g2_csrc/u8x8_d_uc1604.c ****   /* spi_mode = */ 0,		/* active high, rising edge */
 171:..\u8g2_csrc/u8x8_d_uc1604.c ****   /* i2c_bus_clock_100kHz = */ 4,
 172:..\u8g2_csrc/u8x8_d_uc1604.c ****   /* data_setup_time_ns = */ 30,	
 173:..\u8g2_csrc/u8x8_d_uc1604.c ****   /* write_pulse_width_ns = */ 35,	
 174:..\u8g2_csrc/u8x8_d_uc1604.c ****   /* tile_width = */ 24,		/* width of 24*8=192 pixel */
 175:..\u8g2_csrc/u8x8_d_uc1604.c ****   /* tile_hight = */ 8,
 176:..\u8g2_csrc/u8x8_d_uc1604.c ****   /* default_x_offset = */ 0,	/* reused as y page offset */
 177:..\u8g2_csrc/u8x8_d_uc1604.c ****   /* flipmode_x_offset = */ 0,	/* reused as y page offset */
 178:..\u8g2_csrc/u8x8_d_uc1604.c ****   /* pixel_width = */ 192,
 179:..\u8g2_csrc/u8x8_d_uc1604.c ****   /* pixel_height = */ 64
 180:..\u8g2_csrc/u8x8_d_uc1604.c **** };
 181:..\u8g2_csrc/u8x8_d_uc1604.c **** 
 182:..\u8g2_csrc/u8x8_d_uc1604.c **** static const uint8_t u8x8_d_uc1604_jlx19264_init_seq[] = {
 183:..\u8g2_csrc/u8x8_d_uc1604.c ****     
 184:..\u8g2_csrc/u8x8_d_uc1604.c ****   U8X8_START_TRANSFER(),             	/* enable chip, delay is part of the transfer start */
 185:..\u8g2_csrc/u8x8_d_uc1604.c **** 
 186:..\u8g2_csrc/u8x8_d_uc1604.c ****   U8X8_C(0x0e2),            			/* soft reset */
 187:..\u8g2_csrc/u8x8_d_uc1604.c ****   U8X8_DLY(200),
ARM GAS  C:\Users\info\AppData\Local\Temp\cc5I06eS.s 			page 54


 188:..\u8g2_csrc/u8x8_d_uc1604.c ****   U8X8_DLY(200),
 189:..\u8g2_csrc/u8x8_d_uc1604.c **** 
 190:..\u8g2_csrc/u8x8_d_uc1604.c ****   U8X8_C(0x02f),            			/* power on, Bit 2 PC2=1 (internal charge pump), Bits 0/1: cap of pa
 191:..\u8g2_csrc/u8x8_d_uc1604.c ****   U8X8_DLY(200),
 192:..\u8g2_csrc/u8x8_d_uc1604.c ****   U8X8_DLY(200),
 193:..\u8g2_csrc/u8x8_d_uc1604.c ****   
 194:..\u8g2_csrc/u8x8_d_uc1604.c ****   U8X8_CA(0x081, 0x052),		/* set contrast, JLX19264G suggestion: 0x045 */
 195:..\u8g2_csrc/u8x8_d_uc1604.c ****   U8X8_C(0x0eb),            			/* LCD bias Bits 0/1: 00=6 01=7, 10=8, 11=9 */
 196:..\u8g2_csrc/u8x8_d_uc1604.c **** 
 197:..\u8g2_csrc/u8x8_d_uc1604.c ****   
 198:..\u8g2_csrc/u8x8_d_uc1604.c ****   //U8X8_C(0x023),            			/* Bit 0/1: Temp compenstation, Bit 2: Multiplex Rate 0=96, 1=128 
 199:..\u8g2_csrc/u8x8_d_uc1604.c ****   //U8X8_C(0x027),            			/* Bit 0/1: Temp compenstation, Bit 2: Multiplex Rate 0=96, 1=128 
 200:..\u8g2_csrc/u8x8_d_uc1604.c **** 
 201:..\u8g2_csrc/u8x8_d_uc1604.c ****   U8X8_C(0x0c4),            			/* Map control, Bit 2: MY=1, Bit 1: MX=0 */
 202:..\u8g2_csrc/u8x8_d_uc1604.c ****   U8X8_C(0x0a0),            			/* 0xa0: 76Hz FPS, controller default: 0x0a1: 95Hz FPS */
 203:..\u8g2_csrc/u8x8_d_uc1604.c ****   
 204:..\u8g2_csrc/u8x8_d_uc1604.c ****   
 205:..\u8g2_csrc/u8x8_d_uc1604.c ****   U8X8_C(0x040),            			/* set scroll line to 0 */
 206:..\u8g2_csrc/u8x8_d_uc1604.c ****   U8X8_C(0x089),            			/* RAM access control (controller default: 0x089)*/
 207:..\u8g2_csrc/u8x8_d_uc1604.c ****   
 208:..\u8g2_csrc/u8x8_d_uc1604.c ****   
 209:..\u8g2_csrc/u8x8_d_uc1604.c ****   U8X8_C(0x000),		                /* column low nibble */
 210:..\u8g2_csrc/u8x8_d_uc1604.c ****   U8X8_C(0x010),		                /* column high nibble */  
 211:..\u8g2_csrc/u8x8_d_uc1604.c ****   U8X8_C(0x0b0),		                /* page adr  */
 212:..\u8g2_csrc/u8x8_d_uc1604.c ****   
 213:..\u8g2_csrc/u8x8_d_uc1604.c ****   
 214:..\u8g2_csrc/u8x8_d_uc1604.c ****   U8X8_END_TRANSFER(),             	/* disable chip */
 215:..\u8g2_csrc/u8x8_d_uc1604.c ****   U8X8_END()             			/* end of sequence */
 216:..\u8g2_csrc/u8x8_d_uc1604.c **** };
 217:..\u8g2_csrc/u8x8_d_uc1604.c **** 
 218:..\u8g2_csrc/u8x8_d_uc1604.c **** uint8_t u8x8_d_uc1604_jlx19264(u8x8_t *u8x8, uint8_t msg, uint8_t arg_int, void *arg_ptr)
 219:..\u8g2_csrc/u8x8_d_uc1604.c **** {
 839              		.loc 1 219 0
 840              		.cfi_startproc
 841              		@ args = 0, pretend = 0, frame = 0
 842              		@ frame_needed = 0, uses_anonymous_args = 0
 843              	.LVL36:
 844 0000 38B5     		push	{r3, r4, r5, lr}
 845              		.cfi_def_cfa_offset 16
 846              		.cfi_offset 3, -16
 847              		.cfi_offset 4, -12
 848              		.cfi_offset 5, -8
 849              		.cfi_offset 14, -4
 850 0002 0546     		mov	r5, r0
 851 0004 0C46     		mov	r4, r1
 220:..\u8g2_csrc/u8x8_d_uc1604.c ****   /* call common procedure first and handle messages there */
 221:..\u8g2_csrc/u8x8_d_uc1604.c ****   if ( u8x8_d_uc1604_common(u8x8, msg, arg_int, arg_ptr) == 0 )
 852              		.loc 1 221 0
 853 0006 FFF7FEFF 		bl	u8x8_d_uc1604_common
 854              	.LVL37:
 855 000a A0B9     		cbnz	r0, .L19
 856 000c 0346     		mov	r3, r0
 222:..\u8g2_csrc/u8x8_d_uc1604.c ****   {
 223:..\u8g2_csrc/u8x8_d_uc1604.c ****     /* msg not handled, then try here */
 224:..\u8g2_csrc/u8x8_d_uc1604.c ****     switch(msg)
 857              		.loc 1 224 0
 858 000e 092C     		cmp	r4, #9
ARM GAS  C:\Users\info\AppData\Local\Temp\cc5I06eS.s 			page 55


 859 0010 02D0     		beq	.L17
 860 0012 0A2C     		cmp	r4, #10
 861 0014 06D0     		beq	.L18
 862 0016 0FE0     		b	.L16
 863              	.L17:
 225:..\u8g2_csrc/u8x8_d_uc1604.c ****     {
 226:..\u8g2_csrc/u8x8_d_uc1604.c ****       case U8X8_MSG_DISPLAY_SETUP_MEMORY:
 227:..\u8g2_csrc/u8x8_d_uc1604.c **** 	u8x8_d_helper_display_setup_memory(u8x8, &u8x8_uc1604_192x64_display_info);
 864              		.loc 1 227 0
 865 0018 0849     		ldr	r1, .L21
 866 001a 2846     		mov	r0, r5
 867 001c FFF7FEFF 		bl	u8x8_d_helper_display_setup_memory
 868              	.LVL38:
 228:..\u8g2_csrc/u8x8_d_uc1604.c **** 	break;
 229:..\u8g2_csrc/u8x8_d_uc1604.c ****       case U8X8_MSG_DISPLAY_INIT:
 230:..\u8g2_csrc/u8x8_d_uc1604.c **** 	u8x8_d_helper_display_init(u8x8);
 231:..\u8g2_csrc/u8x8_d_uc1604.c **** 	u8x8_cad_SendSequence(u8x8, u8x8_d_uc1604_jlx19264_init_seq);
 232:..\u8g2_csrc/u8x8_d_uc1604.c **** 	break;
 233:..\u8g2_csrc/u8x8_d_uc1604.c ****       default:
 234:..\u8g2_csrc/u8x8_d_uc1604.c **** 	return 0;		/* msg unknown */
 235:..\u8g2_csrc/u8x8_d_uc1604.c ****     }
 236:..\u8g2_csrc/u8x8_d_uc1604.c ****   }
 237:..\u8g2_csrc/u8x8_d_uc1604.c ****   return 1;
 869              		.loc 1 237 0
 870 0020 0123     		movs	r3, #1
 228:..\u8g2_csrc/u8x8_d_uc1604.c **** 	break;
 871              		.loc 1 228 0
 872 0022 09E0     		b	.L16
 873              	.L18:
 230:..\u8g2_csrc/u8x8_d_uc1604.c **** 	u8x8_cad_SendSequence(u8x8, u8x8_d_uc1604_jlx19264_init_seq);
 874              		.loc 1 230 0
 875 0024 2846     		mov	r0, r5
 876 0026 FFF7FEFF 		bl	u8x8_d_helper_display_init
 877              	.LVL39:
 231:..\u8g2_csrc/u8x8_d_uc1604.c **** 	break;
 878              		.loc 1 231 0
 879 002a 0549     		ldr	r1, .L21+4
 880 002c 2846     		mov	r0, r5
 881 002e FFF7FEFF 		bl	u8x8_cad_SendSequence
 882              	.LVL40:
 883              		.loc 1 237 0
 884 0032 0123     		movs	r3, #1
 232:..\u8g2_csrc/u8x8_d_uc1604.c ****       default:
 885              		.loc 1 232 0
 886 0034 00E0     		b	.L16
 887              	.L19:
 888              		.loc 1 237 0
 889 0036 0123     		movs	r3, #1
 890              	.L16:
 238:..\u8g2_csrc/u8x8_d_uc1604.c **** }
 891              		.loc 1 238 0
 892 0038 1846     		mov	r0, r3
 893 003a 38BD     		pop	{r3, r4, r5, pc}
 894              	.LVL41:
 895              	.L22:
 896              		.align	2
 897              	.L21:
ARM GAS  C:\Users\info\AppData\Local\Temp\cc5I06eS.s 			page 56


 898 003c 28000000 		.word	.LANCHOR0+40
 899 0040 40000000 		.word	.LANCHOR0+64
 900              		.cfi_endproc
 901              	.LFE1:
 902              		.size	u8x8_d_uc1604_jlx19264, .-u8x8_d_uc1604_jlx19264
 903              		.section	.rodata
 904              		.align	2
 905              		.set	.LANCHOR0,. + 0
 906              		.type	u8x8_d_uc1604_powersave0_seq, %object
 907              		.size	u8x8_d_uc1604_powersave0_seq, 13
 908              	u8x8_d_uc1604_powersave0_seq:
 909 0000 18       		.byte	24
 910 0001 FE       		.byte	-2
 911 0002 14       		.byte	20
 912 0003 15       		.byte	21
 913 0004 AF       		.byte	-81
 914 0005 FE       		.byte	-2
 915 0006 14       		.byte	20
 916 0007 15       		.byte	21
 917 0008 AF       		.byte	-81
 918 0009 FE       		.byte	-2
 919 000a 32       		.byte	50
 920 000b 19       		.byte	25
 921 000c FF       		.byte	-1
 922 000d 000000   		.space	3
 923              		.type	u8x8_d_uc1604_powersave1_seq, %object
 924              		.size	u8x8_d_uc1604_powersave1_seq, 5
 925              	u8x8_d_uc1604_powersave1_seq:
 926 0010 18       		.byte	24
 927 0011 15       		.byte	21
 928 0012 AE       		.byte	-82
 929 0013 19       		.byte	25
 930 0014 FF       		.byte	-1
 931 0015 000000   		.space	3
 932              		.type	u8x8_d_uc1604_flip0_seq, %object
 933              		.size	u8x8_d_uc1604_flip0_seq, 5
 934              	u8x8_d_uc1604_flip0_seq:
 935 0018 18       		.byte	24
 936 0019 15       		.byte	21
 937 001a C4       		.byte	-60
 938 001b 19       		.byte	25
 939 001c FF       		.byte	-1
 940 001d 000000   		.space	3
 941              		.type	u8x8_d_uc1604_flip1_seq, %object
 942              		.size	u8x8_d_uc1604_flip1_seq, 5
 943              	u8x8_d_uc1604_flip1_seq:
 944 0020 18       		.byte	24
 945 0021 15       		.byte	21
 946 0022 C2       		.byte	-62
 947 0023 19       		.byte	25
 948 0024 FF       		.byte	-1
 949 0025 000000   		.space	3
 950              		.type	u8x8_uc1604_192x64_display_info, %object
 951              		.size	u8x8_uc1604_192x64_display_info, 24
 952              	u8x8_uc1604_192x64_display_info:
 953 0028 00       		.byte	0
 954 0029 01       		.byte	1
ARM GAS  C:\Users\info\AppData\Local\Temp\cc5I06eS.s 			page 57


 955 002a 14       		.byte	20
 956 002b 14       		.byte	20
 957 002c 01       		.byte	1
 958 002d 0A       		.byte	10
 959 002e 1E       		.byte	30
 960 002f 41       		.byte	65
 961 0030 00127A00 		.word	8000000
 962 0034 00       		.byte	0
 963 0035 04       		.byte	4
 964 0036 1E       		.byte	30
 965 0037 23       		.byte	35
 966 0038 18       		.byte	24
 967 0039 08       		.byte	8
 968 003a 00       		.byte	0
 969 003b 00       		.byte	0
 970 003c C000     		.short	192
 971 003e 4000     		.short	64
 972              		.type	u8x8_d_uc1604_jlx19264_init_seq, %object
 973              		.size	u8x8_d_uc1604_jlx19264_init_seq, 35
 974              	u8x8_d_uc1604_jlx19264_init_seq:
 975 0040 18       		.byte	24
 976 0041 15       		.byte	21
 977 0042 E2       		.byte	-30
 978 0043 FE       		.byte	-2
 979 0044 C8       		.byte	-56
 980 0045 FE       		.byte	-2
 981 0046 C8       		.byte	-56
 982 0047 15       		.byte	21
 983 0048 2F       		.byte	47
 984 0049 FE       		.byte	-2
 985 004a C8       		.byte	-56
 986 004b FE       		.byte	-2
 987 004c C8       		.byte	-56
 988 004d 15       		.byte	21
 989 004e 81       		.byte	-127
 990 004f 16       		.byte	22
 991 0050 52       		.byte	82
 992 0051 15       		.byte	21
 993 0052 EB       		.byte	-21
 994 0053 15       		.byte	21
 995 0054 C4       		.byte	-60
 996 0055 15       		.byte	21
 997 0056 A0       		.byte	-96
 998 0057 15       		.byte	21
 999 0058 40       		.byte	64
 1000 0059 15       		.byte	21
 1001 005a 89       		.byte	-119
 1002 005b 15       		.byte	21
 1003 005c 00       		.byte	0
 1004 005d 15       		.byte	21
 1005 005e 10       		.byte	16
 1006 005f 15       		.byte	21
 1007 0060 B0       		.byte	-80
 1008 0061 19       		.byte	25
 1009 0062 FF       		.byte	-1
 1010              		.text
 1011              	.Letext0:
ARM GAS  C:\Users\info\AppData\Local\Temp\cc5I06eS.s 			page 58


 1012              		.file 2 "c:\\program files (x86)\\cypress\\psoc creator\\4.2\\psoc creator\\import\\gnu\\arm\\5.4.
 1013              		.file 3 "c:\\program files (x86)\\cypress\\psoc creator\\4.2\\psoc creator\\import\\gnu\\arm\\5.4.
 1014              		.file 4 "..\\u8g2_csrc\\u8x8.h"