ARM GAS  C:\Users\info\AppData\Local\Temp\cc8VD4SC.s 			page 1


   1              		.syntax unified
   2              		.cpu cortex-m3
   3              		.fpu softvfp
   4              		.eabi_attribute 20, 1
   5              		.eabi_attribute 21, 1
   6              		.eabi_attribute 23, 3
   7              		.eabi_attribute 24, 1
   8              		.eabi_attribute 25, 1
   9              		.eabi_attribute 26, 1
  10              		.eabi_attribute 30, 1
  11              		.eabi_attribute 34, 1
  12              		.eabi_attribute 18, 4
  13              		.thumb
  14              		.syntax unified
  15              		.file	"u8x8_d_uc1701_mini12864.c"
  16              		.text
  17              	.Ltext0:
  18              		.section	.gnu.lto_.profile.792a5cc0,"",%progbits
  19 0000 789C6361 		.ascii	"x\234ca`d`e`\000\222o\030c\000\003\240\001U"
  19      60646065 
  19      6000926F 
  19      18630003 
  19      A00155
  20              		.text
  21              		.section	.gnu.lto_.inline.792a5cc0,"",%progbits
  22 0000 789C6361 		.ascii	"x\234ca`d\000\201\205\014\010\000\024\271\307`\305\310"
  22      60640081 
  22      850C0800 
  22      14B9C760 
  22      C5C8
  23 0012 C0E4BF68 		.ascii	"\300\344\277h+#\003\177\223:\023H\224\211\033(3\301"
  23      2B23037F 
  23      933A1348 
  23      94891B28 
  23      33C1
  24 0024 8F859791 		.ascii	"\217\205\227\221\201y\226\341\004\277\026vf\036\240"
  24      817996E1 
  24      04BF1676 
  24      661EA0
  25 0033 E804BF09 		.ascii	"\350\004\277\011~\230\014\250b(\205.\317\200*\316@\210"
  25      7E980CA8 
  25      6228852E 
  25      CF802ACE 
  25      4088
  26 0045 4653CE00 		.ascii	"FS\316\000\000\236\350\030\306"
  26      009EE818 
  26      C6
  27              		.text
  28              		.section	.gnu.lto_.jmpfuncs.792a5cc0,"",%progbits
  29 0000 789C6361 		.ascii	"x\234ca`d\000\0011\006\004`d\300\006\000\003\374\000"
  29      60640001 
  29      31060460 
  29      64C00600 
  29      03FC00
  30 0013 1D       		.ascii	"\035"
  31              		.text
  32              		.section	.gnu.lto_.pureconst.792a5cc0,"",%progbits
ARM GAS  C:\Users\info\AppData\Local\Temp\cc8VD4SC.s 			page 2


  33 0000 789C6361 		.ascii	"x\234ca`d`f`\000\222R\000\000r\000$"
  33      60646066 
  33      60009252 
  33      00007200 
  33      24
  34              		.text
  35              		.section	.gnu.lto_u8x8_d_uc1701_mini12864.792a5cc0,"",%progbits
  36 0000 789C9D57 		.ascii	"x\234\235WipT\307\021\236\236\331\373\226 \200\215\022"
  36      697054C7 
  36      119E9ED9 
  36      FB962080 
  36      8D12
  37 0012 C4151514 		.ascii	"\304\025\025\024\272PJ\246*\371\221T~\344\370\231\337"
  37      BA504AA6 
  37      2AF99154 
  37      7EE4F899 
  37      DF
  38 0023 4EA95222 		.ascii	"N\251R\"\205I\312\256\024\266\253\370\223\322\323\256"
  38      8549CAAE 
  38      14B6ABF8 
  38      93D2D3AE 
  39 0033 5620994B 		.ascii	"V \231K6\022 \0130\261\025\260\021H\210\303\222l\354"
  39      3612200B 
  39      30B115B0 
  39      114888C3 
  39      926CEC
  40 0046 35B6C1E6 		.ascii	"5\266\301\346\020\006\024\304\031\016#\254\0200h\005"
  40      100614C4 
  40      190E23AC 
  40      10306805 
  41 0056 91C0C0A6 		.ascii	"\221\300\300\246\273\347\275\225\026\355\"'[\265\375"
  41      BBE7BD95 
  41      16ED2227 
  41      5BB5FD
  42 0065 66E6CDD7 		.ascii	"f\346\315\327\363\3657\375z\336\263\011\020\364\033"
  42      F3F537FD 
  42      7ADEB309 
  42      10F41B
  43 0074 0A09F15B 		.ascii	"\012\011\361[\274>\306?L\020 \327t\013Q\351\222\316"
  43      BC3EC63F 
  43      4C1020D7 
  43      740B51E9 
  43      92CE
  44 0086 50BD5718 		.ascii	"P\275W\030.\305\326\306\326\316\326\305\326\313\326"
  44      2EC5D6C6 
  44      D6CED6C5 
  44      D6CBD6
  45 0095 A7E74048 		.ascii	"\247\347@H\203lV\303.\035\313\363\204\341q\222\3659"
  45      836C56C3 
  45      2E1DCBF3 
  45      84E17192 
  45      F539
  46 00a7 AC61A7D5 		.ascii	"\254a\247\325pI7\337\367\360}\2675\354\261\032^\253"
  46      704937DF 
  46      F7F07DB7 
  46      35ECB11A 
  46      5EAB
ARM GAS  C:\Users\info\AppData\Local\Temp\cc8VD4SC.s 			page 3


  47 00b9 E1937E9E 		.ascii	"\341\223~\236\030\340\211~\010\350\341\000dQ\003\262"
  47      18E0897E 
  47      08E8E100 
  47      645103B2 
  48 00c9 64F68A43 		.ascii	"d\366\212C\002\357\007\253\234x?[\017\377\"h\301C\000"
  48      02EF07AB 
  48      9C783F5B 
  48      0FFF2268 
  48      C14300
  49 00dc D4305C20 		.ascii	"\3240\\ *\244\262\331\035N\227\333\343\365\371\003Y"
  49      2AA4B2D9 
  49      1D4E97DB 
  49      E3F5F903 
  49      59
  50 00ed D9C11054 		.ascii	"\331\301\020T\310,\0011\033$\264\022\367\344#\011G\206"
  50      C82C0131 
  50      1B24B412 
  50      F7E42309 
  50      4786
  51 00ff BE58E199 		.ascii	"\276X\341\231\263\3250\302\306\345\276\304\257\007\302"
  51      B3D530C2 
  51      C6E5BEC4 
  51      AF07C2
  52 010e D1295125 		.ascii	"\321)Q%DB\012(\311\201\242\034Ri+\314\301\231'\252\332"
  52      44420A28 
  52      C981A21C 
  52      52692BCC 
  52      C19927AA 
  53 0123 9AD45D19 		.ascii	"\232\324]\031U\0006\354\016\034k\374:@]\011\271\330"
  53      550036EC 
  53      0E1C6BFC 
  53      3A405D09 
  53      B9D8
  54 0135 7DABE7ED 		.ascii	"}\253\347\355\013\0165\027\004\266\033\016\367|\353"
  54      0B0E3517 
  54      04B61B0E 
  54      F77CEB
  55 0144 CF6B269F 		.ascii	"\317k&\237\306\356?\032\356\250R\360\036(\362\371.\344"
  55      C6EE3F1A 
  55      EEA852F0 
  55      1E28F2F9 
  55      2EE4
  56 0156 C036C811 		.ascii	"\3006\310\0218$`;\344\341\354\243m\235\2756U\310\310"
  56      3824603B 
  56      E4E1ECA3 
  56      6D9DBD36 
  56      55C8C8
  57 0169 A10F3F7D 		.ascii	"\241\017?}d!/\375\336PH\005Z4R\263!n\260\203q\353O\\"
  57      64212FFD 
  57      DE504805 
  57      5A3452B3 
  57      216EB083 
  58 0181 5EE95125 		.ascii	"^\351Q%\214k\352\273}\326n\3426\034\364\032E\004\334"
  58      8C6BEABB 
  58      7DD66EE2 
  58      361CF41A 
  58      4504DC
ARM GAS  C:\Users\info\AppData\Local\Temp\cc8VD4SC.s 			page 4


  59 0194 3906D8CA 		.ascii	"9\006\330\312\300\263\337\034;\345Q?e\340{{/\265;M`"
  59      C0B3DF1C 
  59      3BE5513F 
  59      65E07B7B 
  59      2FB53B4D 
  60 01a9 EF419FB1 		.ascii	"\357A\237\261\006\242\312\006mO\222\265\011\330\005"
  60      06A2CA06 
  60      6D4F92B5 
  60      09D805
  61 01b8 790458D5 		.ascii	"y\004X\325S{U\251_2\270\331h\253u\317~\233\300\261\372"
  61      537B55A9 
  61      5F32B8D9 
  61      68AB75CF 
  61      7E9BC0B1 
  62 01cd DAC00623 		.ascii	"\332\300\006#V\225\033UvhO\205\323\017gwom^\353Q\277"
  62      56951B55 
  62      76684F85 
  62      D30F6777 
  62      6F6D5EEB 
  63 01e3 62E4E686 		.ascii	"b\344\346\206\2563\026\362\215\332\340:#V\231K\224\367"
  63      AE3316F2 
  63      8DDAE03A 
  63      2356994B 
  63      94F7
  64 01f5 8CA66CE2 		.ascii	"\214\246l\342\032\273\226\205=\3527\214\213t\364~\020"
  64      1ABB9685 
  64      3DEA378C 
  64      8B74F47E 
  64      10
  65 0206 D438E3FD 		.ascii	"\3248\343\375\347\215\310\317\011\264/\015\350\352\256"
  65      E78DC8CF 
  65      09B42F0D 
  65      E8EAAE
  66 0215 C7F57E47 		.ascii	"\307\365~G\225\201\277\\x\037f\303^\374\357\206\331"
  66      9581BF5C 
  66      781F66C3 
  66      5EFCEF86 
  66      D9
  67 0226 B4B12844 		.ascii	"\264\261(D\00780\007\324\350;\255\277\213\031\211D\304"
  67      07383007 
  67      D4E83BAD 
  67      BF8B1989 
  67      44C4
  68 0238 88D5793E 		.ascii	"\210\325y>\331\027X\000\254\026\272\305\333\212\324"
  68      D9175800 
  68      AC16BAC5 
  68      DB8AD4
  69 0247 B373D309 		.ascii	"\263s\323\011\244\276\213oz\200v0\000\324\316\306)\216"
  69      A4BE8B6F 
  69      7A807630 
  69      00D4CEC6 
  69      298E
  70 0259 09689C93 		.ascii	"\011h\234\223\2505\231ZS\311L\003R.W\320R\323\331\316"
  70      A835995A 
  70      53C94C03 
  70      522E57D0 
  70      52D3D9CE 
ARM GAS  C:\Users\info\AppData\Local\Temp\cc8VD4SC.s 			page 5


  71 026d A0E199DC 		.ascii	"\240\341\231\334\234E\315\331d\362\310\314!3\227\314"
  71      9C45CDD9 
  71      64F2C8CC 
  71      213397CC 
  72 027d 3C5E2C9F 		.ascii	"<^,\237m\201 z\2058\354*\"SLf>\032w\011\337/e2B\334"
  72      6D81207A 
  72      8538EC2A 
  72      22534C66 
  72      3E1A7709 
  73 0297 C1C81A8B 		.ascii	"\301\310\032\213\305\200\224xQ}\260\336\030\376\333"
  73      C5809478 
  73      517DB0DE 
  73      18FEDB
  74 02a6 33146944 		.ascii	"3\024iD9))\317\276\323o\257\203\325\225(Jls7&\256\007"
  74      392929CF 
  74      BED36FAF 
  74      83D59528 
  74      4A6C7337 
  75 02bd 1F14457A 		.ascii	"\037\024EzA'\324\001M9V\327\345\240\224\026\340\306"
  75      4127D401 
  75      4D3956D7 
  75      E5A09416 
  75      E0C6
  76 02cf EE819BE7 		.ascii	"\356\201\233\347\257\201\205h\364 \000\272p;\015E\217"
  76      AF818568 
  76      F42000BA 
  76      703B0D45 
  76      8F
  77 02e0 0F7CA031 		.ascii	"\017|\2401\307\266\264t\233\030\017v\3035\275\315.\013"
  77      C7B6B474 
  77      9B180F76 
  77      C335BDCD 
  77      2E0B
  78 02f2 D3C6980F 		.ascii	"\323\306\230\017\031\303\262\357\327\230\357\206\273"
  78      19C3B2EF 
  78      D798EF86 
  78      BB
  79 02ff F73B35C6 		.ascii	"\367;5\306KI_\177\375-\207\205\351`\314G\214!r\360\261"
  79      4B495F7F 
  79      FD2D8785 
  79      E960CC47 
  79      8C2172F0 
  80 0314 C6DCE96C 		.ascii	"\306\334\351l\336&5\306\217\335\276}\033\226+\013\323"
  80      DE2635C6 
  80      8FDDBE7D 
  80      1B962B0B 
  80      D3
  81 0325 C3981863 		.ascii	"\303\230\030cl\204\371Dcn\235\336\336\2424&\200\335"
  81      6C84F944 
  81      636E9DDE 
  81      DEA23426 
  81      80DD
  82 0337 7BDDE7B6 		.ascii	"{\335\347\266\371,\314c\306\034`\214\2350\237jL\313"
  82      F92CCC63 
  82      C61C608C 
  82      9D309F6A 
  82      4CCB
ARM GAS  C:\Users\info\AppData\Local\Temp\cc8VD4SC.s 			page 6


  83 0349 DF076241 		.ascii	"\337\007bA\215\011bw\323\236\255k\375\026\246\311K\230"
  83      8D096277 
  83      D39EAD6B 
  83      FD16A6C9 
  83      4B98
  84 035b CF18E320 		.ascii	"\317\030\343 \314\347\210\301\353\200T\242\312\251\256"
  84      CCE788C1 
  84      EB8054A2 
  84      CAA9AE
  85 036a 416588F4 		.ascii	"Ae\210\364&\201\372!\032\333xXQ\227\322\261\263\363"
  85      2681FA21 
  85      1ADB7858 
  85      5197D2B1 
  85      B3F3
  86 037c E67967C5 		.ascii	"\346yg\305#c\271a\204\242\312\233\220\010\203\203P!"
  86      2363B961 
  86      84A2CA9B 
  86      90088383 
  86      5021
  87 038e 228A546B 		.ascii	"\"\212Tk\210\0368\316\2028t\226?\370x0\200\263\327\363"
  87      881E38CE 
  87      82387496 
  87      3FF87830 
  87      80B3D7F3 
  88 03a2 6C478D72 		.ascii	"lG\215rrN\177\331\270\375\317\233ac\345\032\036\366"
  88      724E7FD9 
  88      B8FDCF9B 
  88      6163E51A 
  88      1EF6
  89 03b4 C1175001 		.ascii	"\301\027P\001\207\350\371\302{\211\033\355;\335\010"
  89      87E8F9C2 
  89      7B891BED 
  89      3BDD08
  90 03c3 99423EBE 		.ascii	"\231B>\276\204\315\300+\303a\250\210*?S\264\245R\224"
  90      84CDC02B 
  90      C361A888 
  90      2A3F53B4 
  90      A55294
  91 03d6 48B12AD6 		.ascii	"H\261*\326\356I\3170\220\300,\022pD3\214\252 \007\264"
  91      EE49CF30 
  91      90C02C12 
  91      7044338C 
  91      AA2007B4 
  92 03ea 27C3EC50 		.ascii	"'\303\354PBRu9:6\236\2544\361d\325(W\232x\262\241\033"
  92      42527539 
  92      3A369EAC 
  92      34F164D5 
  92      28579A78 
  93 0401 E339F644 		.ascii	"\3439\366D<\0101\326\0019:\236\014\352+\012j\002\007"
  93      3C0831D6 
  93      01393A9E 
  93      0CEA2B0A 
  93      6A0207
  94 0414 654F0D4A 		.ascii	"eO\015J\211+Pu.2\264\366Y\235\367\264\353\2557;\357"
  94      892B5075 
  94      2E32B4F6 
  94      599DF7B4 
ARM GAS  C:\Users\info\AppData\Local\Temp\cc8VD4SC.s 			page 7


  94      EBAD373B 
  95 0429 FB898B13 		.ascii	"\373\211\213\023\037\351\023f9\032\220\016q@)\012j\177"
  95      1FE91366 
  95      391A900E 
  95      7140290A 
  95      6A7F
  96 043b 2D3C35AA 		.ascii	"-<5\252\223c\243\232\230&\252\2115\312\235&\252\037"
  96      9363A39A 
  96      9826AA89 
  96      35CA9D26 
  96      AA1F
  97 044d 400F4675 		.ascii	"@\017Fu*MT\177%?\377H\006uz$(\247E\355\3048\324z\223"
  97      2A4D547F 
  97      253FFF48 
  97      06757A24 
  97      28A745ED 
  98 0466 D4C670F1 		.ascii	"\324\306p\361\244\345r\346i\\\316&\271\234\033\341\342"
  98      A4E572E6 
  98      695CCE26 
  98      B99C1BE1 
  98      E2
  99 0477 4A15D8A6 		.ascii	"J\025\330\246\005n\255\267\004\036\245\250\333\242}"
  99      056EADB7 
  99      041EA5A8 
  99      DBA27D
 100 0486 7E1CDAE7 		.ascii	"~\034\332\3473\323\366\246\245}\341i\264/&i\377S\323"
 100      33D3F6A6 
 100      A57DE169 
 100      B42F2669 
 100      FF53D3
 101 0499 BE0EE1AE 		.ascii	"\276\016\341\256]\275q\273f8i\364\306)}\310\036:\274"
 101      5DBD71BB 
 101      663869F4 
 101      C6297DC8 
 101      1E3ABC
 102 04ac DC87FE31 		.ascii	"\334\207\3761\255&!\017\270d\272n\276\026\336\351,\314"
 102      AD26210F 
 102      B864BA6E 
 102      BE16DEE9 
 102      2CCC
 103 04be A727E832 		.ascii	"\247'\3502:},\2716^\201Bvy\345\307\332\341\344T\017"
 103      3A7D2CB9 
 103      365E8142 
 103      7679E5C7 
 103      DAE1E454 
 104 04d3 3E5C22F9 		.ascii	">\\\"\371\024nZ\3371\030(\334A\254'\303U\366\301\265"
 104      146E5ADF 
 104      311828DC 
 104      41AC27C3 
 104      55F6C1B5 
 105 04e7 F26BEDA3 		.ascii	"\362k\355\243\341\312D\3621\312A%\035P\376L<\004\\c"
 105      E1CA44F2 
 105      31CA4125 
 105      1D50FE4C 
 105      3C045C63 
 106 04fb 1F5C3BFB 		.ascii	"\037\\;\373\240\020\027g\245=\226\322\367\306Q\372z"
 106      A0101767 
ARM GAS  C:\Users\info\AppData\Local\Temp\cc8VD4SC.s 			page 8


 106      A53D96D2 
 106      F7C651FA 
 106      7A
 107 050c 66A57D69 		.ascii	"f\245}i\225\376\346iJ\367'\225\376\327\210\322\003\027"
 107      95FEE669 
 107      4AF72795 
 107      FED788D2 
 107      0317
 108 051e 2DA5B3BF 		.ascii	"-\245\263\277\237\2647F\244\375\367\023\322N\030#mv"
 108      9FB43746 
 108      A4FDF713 
 108      D24E1823 
 108      6D76
 109 0530 7A696FB2 		.ascii	"zio\262\017>\036n\375\277\322~;\"\355m\222V\347\273"
 109      0F3E1E6E 
 109      FDBFD27E 
 109      3B22ED6D 
 109      9256E7BB 
 110 0544 3735DFED 		.ascii	"75\337\355\\%\353\216d(\344S\022XV\005\334\261\312\344"
 110      5C25EB8E 
 110      6428E453 
 110      12585605 
 110      DCB1CAE4 
 111 0558 335C265F 		.ascii	"3\\&_\367\246\237\375l\002\353\225\200\201\344\246\364"
 111      F7A69FFD 
 111      6C02EB95 
 111      8081E4A6 
 111      F4
 112 0569 0F7D5563 		.ascii	"\017}Uc\236\235\225\000q\310\211\252\251\030L$^}r\236"
 112      9E9D9500 
 112      71C889AA 
 112      A9184C24 
 112      5E7D729E 
 113 057d 5664AAAE 		.ascii	"Vd\252\256a\237'\206\364\241\344\002\011\203\030K?\330"
 113      619F2786 
 113      F4A1E402 
 113      0983184B 
 113      3FD8
 114 058f 33AE8127 		.ascii	"3\256\201'\023\334\325k\240\003rI14d \205!\340\351\002"
 114      13DCD56B 
 114      A0037249 
 114      31346420 
 114      8521E0E9 
 115 05a4 F7464220 		.ascii	"\367FB \031|\25128\330\305\246\314.H\205\377\214\270"
 115      197CA932 
 115      38D8C5A6 
 115      CC2E4885 
 115      FF8CB8
 116 05b7 E0C4B8F9 		.ascii	"\340\304\270\371\272\322A\344\216~\004sR\036A\336\244"
 116      BAD241E4 
 116      8E7E0473 
 116      521E41DE 
 116      A4
 117 05c8 75802F33 		.ascii	"u\200/3?\214\250i04v\233\206y\233\370T\277\217[}\025"
 117      3F8CA869 
 117      3034769B 
 117      86799BF8 
ARM GAS  C:\Users\info\AppData\Local\Temp\cc8VD4SC.s 			page 9


 117      54BF8F5B 
 118 05de C24609BF 		.ascii	"\302F\011\277\276\341\353\023\272&\271\032\253O\346"
 118      BEE1EB13 
 118      BA26B91A 
 118      AB4FE6
 119 05ed EB95A6EB 		.ascii	"\353\225\246\353\305j\037\364\256ri]]\360\000}^E\331"
 119      C56A1FF4 
 119      AE72695D 
 119      5DF0007D 
 119      5E45D9
 120 0600 9298E99A 		.ascii	"\222\230\351\232\336\255\260\231\2673\276O\336\012\370"
 120      DEADB099 
 120      B733BE4F 
 120      DE0AF8
 121 060f 6E245F1E 		.ascii	"n$_\036r\316E\032\252\217\202v1\223\227\236\221\272"
 121      72CE451A 
 121      AA8F8276 
 121      3193979E 
 121      91BA
 122 0621 CE4CBD95 		.ascii	"\316L\275\225\327w\004\364\244Y84\3723\302\0056x\204"
 122      D77704F4 
 122      A4593834 
 122      FA33C205 
 122      367884
 123 0634 EBE0AC61 		.ascii	"\353\340\254a\207\236\202\250Y8\345\344\235\243\033"
 123      879E82A8 
 123      5938E5E4 
 123      9DA31B
 124 0643 BDFAC80A 		.ascii	"\275\372\310\012\301\343q\266\233R*am\367l3\203\036"
 124      C1E371B6 
 124      9B522A61 
 124      6DF76C33 
 124      831E
 125 0655 56DF3025 		.ascii	"V\3370%\311\303U\371\225e<\037\2064}\344i\037XDo\307"
 125      C9C355F9 
 125      95653C1F 
 125      86347DE4 
 125      691F5844 
 126 066b 83DAC99C 		.ascii	"\203\332\311\234T\2112\355U\245$\211\370m*,Y\242\341"
 126      548932ED 
 126      55A52489 
 126      F86D2A2C 
 126      59A2E1
 127 067e EA9F690F 		.ascii	"\352\237i\017s\265\223\236-\353.\233\221\265\001D\344"
 127      73B5939E 
 127      2DEB2E9B 
 127      91B50144 
 127      E4
 128 068f F8B4AA2C 		.ascii	"\370\264\252,Zs\223\264\356Z\2115\357\177\312\244(\263"
 128      5A7393B4 
 128      EE5A8935 
 128      EF7FCAA4 
 128      28B3
 129 06a1 E3F7B66A 		.ascii	"\343\367\266j9:\223\366\322n\315\323\231t\270@\273\316"
 129      393A93F6 
 129      D26ECDD3 
 129      9974B840 
ARM GAS  C:\Users\info\AppData\Local\Temp\cc8VD4SC.s 			page 10


 129      BBCE
 130 06b3 C79194D4 		.ascii	"\307\221\224\324\341I\371\232\300\275v\223@\301\223"
 130      E149F99A 
 130      C0BD7693 
 130      40C193
 131 06c2 04DECC4C 		.ascii	"\004\336\314L\300\016\313\230\200\223\010,7\011<\307"
 131      C00ECB98 
 131      8093082C 
 131      37093CC7 
 132 06d2 BE7793EF 		.ascii	"\276w\223\357\002\362\035_v\272\325T\254\320\\.\356"
 132      02F21D5F 
 132      76BAD554 
 132      ACD05C2E 
 132      EE
 133 06e3 D4FD2233 		.ascii	"\324\375\"3\243\032\314\\)\346)E\032\325#\365\340|\034"
 133      A31ACC5C 
 133      29E62945 
 133      1AD523F5 
 133      E07C1C
 134 06f6 A723FA4C 		.ascii	"\247#\372L\344O\346\000RX\371\316\356\325v\022\335\015"
 134      E44FE600 
 134      5258F9CE 
 134      EED57612 
 134      DD0D
 135 0708 550035D2 		.ascii	"U\0005\322:\260\375t\214 \213\330\375\327\2221\342\364"
 135      3AB0FD74 
 135      8C208BD8 
 135      FDD79231 
 135      E2F4
 136 071a 2D0F7774 		.ascii	"-\017wt\371\365\323\203\323k%g\350\372\352\033\205\332"
 136      F9F5D383 
 136      D36B2567 
 136      E8FAEA1B 
 136      85DA
 137 072c 63090D11 		.ascii	"c\011\015\021\227\024eJ\330c\200\312\206\210\203\013"
 137      9714654A 
 137      D86380CA 
 137      8688830B 
 138 073c CB960FD0 		.ascii	"\313\226\017\320\370\261\252\3311\020_\323\305\2058"
 138      F8B1AAD9 
 138      31105FD3 
 138      C58538
 139 074b C97FE152 		.ascii	"\311\177\341R\010\247e\011\374H\307\3631\034\022\032"
 139      08A76509 
 139      FC48C7F3 
 139      311C121A 
 140 075b 2D85EEE0 		.ascii	"-\205\356\340wL\204_\236\253co\254\312p\264\375(\201"
 140      774C845F 
 140      9EAB636F 
 140      ACCA70B4 
 140      FD2881
 141 076e 2F25025E 		.ascii	"/%\002^\263\362B\242tQ5M?\220\247;\346k\226\245\350"
 141      B3F242A2 
 141      7451354D 
 141      3F90A73B 
 141      E66B96A5 
 142 0783 07A1A722 		.ascii	"\007\241\247\"\237\0357\277\000\022\000+\344\310~\362"
ARM GAS  C:\Users\info\AppData\Local\Temp\cc8VD4SC.s 			page 11


 142      9F1D37BF 
 142      0012002B 
 142      E4C87EF2 
 143 0793 52A5A4D5 		.ascii	"R\245\244\325\371Hk\223\251q\251\365:\023\307\344T\256"
 143      F9486B93 
 143      A971A9F5 
 143      3A13C7E4 
 143      54AE
 144 07a5 009AD2EC 		.ascii	"\000\232\322\354\226\201\205q\300U\354\324\225\331\200"
 144      96818571 
 144      C055ECD4 
 144      95D980
 145 07b4 1F5AD962 		.ascii	"\037Z\331b\305!,\3442H\361Ri|\263;\363\011A\345u\245"
 145      C5212CE4 
 145      3248F152 
 145      697CB33B 
 145      F30941E5 
 146 07ca 4C29AF21 		.ascii	"L)\257!\321T"
 146      D154
 147 07d0 CCE5953F 		.ascii	"\314\345\225?\300nP\354\021\376\332\211\203\032],\005"
 147      C06E50EC 
 147      11FEDA89 
 147      831A5D2C 
 147      05
 148 07e1 BEB2AE92 		.ascii	"\276\262\256\2229r\305\340R\034\336\273\354\350.\217"
 148      3972C5E0 
 148      521CDEBB 
 148      ECE82E8F 
 149 07f1 1E06582D 		.ascii	"\036\006X-sl-\203/\320\025\373h\335l\035l\203l\275l"
 149      736C2D83 
 149      2FD015FB 
 149      68DD6C1D 
 149      6C836CBD 
 150 0806 3D6C9DF4 		.ascii	"=l\235\364}\010\270,\026\260\274\202\202\347_]\260h"
 150      7D08B82C 
 150      16B0BC82 
 150      82E75F5D 
 150      B068
 151 0818 7E59F9CB 		.ascii	"~Y\371\313K\312\261\265tA\331\302\262W\313\213\237+"
 151      4BCAB1B5 
 151      7441D9C2 
 151      B257CB8B 
 151      9F2B
 152 082a 2A2E7B71 		.ascii	"*.{q\361K\213\213\347/(\375IA\271\260\321-\365\342\313"
 152      F14B8B8B 
 152      E72F28FD 
 152      4941B9B0 
 152      D12DF5E2 
 153 083f 8B9C7F58 		.ascii	"\213\234\177X\262\250l\361K\257\360\365/\257,Q\370\207"
 153      B2A86CF1 
 153      4BAFF0F5 
 153      2FAF2C51 
 153      F887
 154 0851 7258FA5F 		.ascii	"rX\372_\201\307\227\311"
 154      81C797C9 
 155              		.text
 156              		.section	.gnu.lto_u8x8_uc1701_display_info.792a5cc0,"",%progbits
ARM GAS  C:\Users\info\AppData\Local\Temp\cc8VD4SC.s 			page 12


 157 0000 789C2DCD 		.ascii	"x\234-\315M/\003Q\024\306\361\373\314KM\333\231\266"
 157      4D2F0351 
 157      14C6F1FB 
 157      CC4B4DDB 
 157      99B6
 158 0012 AC1B6B1F 		.ascii	"\254\033k\037\241_\314~\022\212\265t\205&\026\304\313"
 158      A15FCC7E 
 158      128AB574 
 158      852616C4 
 158      CB
 159 0023 A88E411B 		.ascii	"\250\216A\033\303\202\244!\305\206]\027\335\211\220"
 159      C382A421 
 159      C5865D17 
 159      DD8990
 160 0032 34223189 		.ascii	"4\"1\211Hi\234\307q7\377\373\233\234s\30710<\363\022"
 160      48699CC7 
 160      7137FFFB 
 160      9B9C73C7 
 160      31303CF3 
 161 0047 BD19F363 		.ascii	"\275\031\363c\241\373\026u\203\314\252\333\006\227t"
 161      A1FB1675 
 161      83CCAADB 
 161      069774
 162 0056 E7B97F5D 		.ascii	"\347\271\177]P\207\020?,\306\0336\0158\302\366\350\354"
 162      5087103F 
 162      2CC61B36 
 162      0D38C2F6 
 162      E8EC
 163 0068 2B50727A 		.ascii	"+Prz\355<\273u\225\236\360\361\375\276YTV\204\353\037"
 163      ED3CBB75 
 163      959EF0F1 
 163      FDBE5954 
 163      5684EB1F 
 164 007c C3D7BC72 		.ascii	"\303\327\274rN\230.D\361\377\356\254p\230$\315\277]"
 164      4E982E44 
 164      F1FFEEAC 
 164      709824CD 
 164      BF5D
 165 008e 0BE16AC6 		.ascii	"\013\341j\306\177]}^\214\312:p\307\327\307/\215\001"
 165      7F5D7D5E 
 165      8CCA3A70 
 165      C7D7C72F 
 165      8D01
 166 00a0 D4BEF069 		.ascii	"\324\276\360i\334JK\312\234\360\244w\263\344)\271\334"
 166      DC4A4BCA 
 166      9CF0A477 
 166      B3E429B9 
 166      DC
 167 00b1 DF4ABF7D 		.ascii	"\337J\277}\245+\034l7\226\275Z'\\\331\014c\267n\333"
 167      A52B1C6C 
 167      3796BD5A 
 167      275CD90C 
 167      63B76EDB 
 168 00c5 13CB601F 		.ascii	"\023\313`\037\325\211\005\0343\262\317\330\032G?\272"
 168      D589051C 
 168      33B2CFD8 
 168      1A473FBA 
ARM GAS  C:\Users\info\AppData\Local\Temp\cc8VD4SC.s 			page 13


 169 00d5 48981C8E 		.ascii	"H\230\034\216\230)\304\214\2076\223\327\365\002\366"
 169      9829C48C 
 169      873693D7 
 169      F502F6
 170 00e4 98220E19 		.ascii	"\230\"\016\031\037-&\300\001SB\304\224u\262\242\223"
 170      1F2D26C0 
 170      015342C4 
 170      9475B2A2 
 170      93
 171 00f5 D3D86566 		.ascii	"\323\330ef\260\203\252\301)j\346\027\206\236\177?"
 171      B083AAC1 
 171      296AE617 
 171      869E7F3F 
 172              		.text
 173              		.section	.gnu.lto_u8x8_d_uc1701_mini12864_init_seq.792a5cc0,"",%progbits
 174 0000 789C4D91 		.ascii	"x\234M\221[S\222Q\024\206\277\015x A;\037\351|\321e"
 174      5B539251 
 174      1486BF0D 
 174      7820413B 
 174      1FE97CD1 
 175 0015 93DEF817 		.ascii	"\223\336\370\027\372\037\375\020\230\240\314\031\033"
 175      FA1FFD10 
 175      98A0CC19 
 175      1B
 176 0022 C79CA169 		.ascii	"\307\234\241ir\"\203\220\220\223\025\237|\036B\210\004"
 176      72228390 
 176      9093159F 
 176      7C1E4288 
 176      04
 177 0033 81123C85 		.ascii	"\201\022<\205:fj\3414\306\250\241f\202\366n\366\272"
 177      3A666AE1 
 177      34C6A8A1 
 177      6682F66E 
 177      F6BA
 178 0045 8099673E 		.ascii	"\200\231g>\236y\327\336{\355\2655\022\223\370\257E#"
 178      9E79D7DE 
 178      7BEDB535 
 178      1293F8AF 
 178      4523
 179 0057 D13F492A 		.ascii	"\321?I*\253\230\317\262\346\252/\252,j\211\0351x\327"
 179      AB98CFB2 
 179      E6AA2FAA 
 179      2C6A891D 
 179      3178D7
 180 006a 63B94BC5 		.ascii	"c\271K\305\235\261\033\320\2425\225k\022\361\005h\333"
 180      9DB11BD0 
 180      A235956B 
 180      12F10568 
 180      DB
 181 007b C2465127 		.ascii	"\302FQ'\322\353\320\335\244b\323\211\324\301\027o\245"
 181      D2EBD0DD 
 181      A462D389 
 181      D4C1176F 
 181      A5
 182 008c 9FAD368A 		.ascii	"\237\2556\212\370\032t\325yh\255\025\361\031\350\023"
 182      F81A74D5 
 182      7968AD15 
ARM GAS  C:\Users\info\AppData\Local\Temp\cc8VD4SC.s 			page 14


 182      F119E813 
 183 009c BB37A417 		.ascii	"\2737\244\027\351U\350D`v\214N\366\362\305\312}\267"
 183      E955E844 
 183      60768C4E 
 183      F6F2C5CA 
 183      7DB7
 184 00ae 9FE22BD0 		.ascii	"\237\342+\320\336\365t\242F\350e\250g^YR\211\352~^="
 184      DEF574A2 
 184      46E865A8 
 184      675E5952 
 184      89EA7E5E 
 185 00c3 38F2BB59 		.ascii	"8\362\273Y\244\006X_,\"3\241\227\240\0169wW\324\336"
 185      A406585F 
 185      2C2233A1 
 185      97A00E39 
 185      7757D4DE 
 186 00d7 82E5F32F 		.ascii	"\202\345\363/\273\251\351\213\325Wb\225+\015\271|yj"
 186      BBA9E98B 
 186      D5576295 
 186      2B0DB97C 
 186      796A
 187 00e9 D2C4372E 		.ascii	"\322\3047.\230\177,7\210\370<\364\217\325\362\250^\350"
 187      987F2C37 
 187      88F83CF4 
 187      8FD5F2A8 
 187      5EE8
 188 00fb 39E88A7F 		.ascii	"9\350\212\177wQ-\252oBw\366\333\013Z\221\236\255\276"
 188      77512DAA 
 188      6F4277F6 
 188      DB0B5A91 
 188      9EADBE
 189 010e 30AB5CD8 		.ascii	"0\253\\\330\267\021\332\327\213b>\352\255R\217L\305"
 189      B711DAD7 
 189      8B623EEA 
 189      AD528F4C 
 189      C5
 190 011f A7791FA1 		.ascii	"\247y\037\241\007\377hX\247xj\354xH\263\374\313\373"
 190      07FF6858 
 190      A7786AEC 
 190      7848B3FC 
 190      CBFB
 191 0131 082C9786 		.ascii	"\010,\227\2065\">\311'?\2764C7<\001\215/t\214R\327\267"
 191      35223EC9 
 191      273FBE34 
 191      43373C01 
 191      8D2F748C 
 192 0148 A1D9CD54 		.ascii	"\241\331\315T\0175}\034\352\335.z\251\217&\350@f\307"
 192      0F357D1C 
 192      EADD2E7A 
 192      A98F26E8 
 192      4066C7
 193 015b 444DF7F2 		.ascii	"DM\367\362\255\313\213\246Cz\343F\350\253_\241(MZ\017"
 193      ADCB8BA6 
 193      437AE346 
 193      E8AB5FA1 
 193      284D5A0F 
 194 016f 75BE989A 		.ascii	"u\276\230\232\246F^\363\352\203\365\356\034\235\254"
ARM GAS  C:\Users\info\AppData\Local\Temp\cc8VD4SC.s 			page 15


 194      A6465EF3 
 194      EA83F5EE 
 194      1C9DAC
 195 017e 83CEE5CC 		.ascii	"\203\316\345\314!\322\006\350Ss\366'\275K\274\262\367"
 195      21D206E8 
 195      5373F627 
 195      BD4BBCB2 
 195      F7
 196 018f E6649986 		.ascii	"\346d\231\206}\014\352\016:\024\252\326\362\364[gg\235"
 196      7D0CEA0E 
 196      3A14AAD6 
 196      F2F45B67 
 196      679D
 197 01a1 A8B6F1EA 		.ascii	"\250\266\361\352b\273eO-\342:\250\\p\3134\2600\237\330"
 197      62BB654F 
 197      2DE23AA8 
 197      5C70CB34 
 197      B0309FD8 
 198 01b5 DA8147A1 		.ascii	"\332\201G\241\021\325B\023v\245D{\327@3f\377sZ\254\201"
 198      11D54213 
 198      76A5447B 
 198      D7403366 
 198      FF735AAC 
 199 01ca 46B6FD4E 		.ascii	"F\266\375NJ\325<\365|\277'\266Z\341'\305\216\366\302"
 199      4AD53CF5 
 199      7CBF27B6 
 199      5AE127C5 
 199      8EF6C2
 200 01dd F4EAAAEA 		.ascii	"\364\352\252\352W\226*\257lJF\355\372\326\240\261\315"
 200      57962AAF 
 200      6C4A46ED 
 200      FAD6A0B1 
 200      CD
 201 01ee 66F46B2D 		.ascii	"f\364k-j\025\273c`9f`\315\006\346\301\347+\230\003\263"
 201      6A15BB63 
 201      60396660 
 201      CD06E6C1 
 201      E72B9803 
 202 0203 4CF80CF0 		.ascii	"L\370\014\360\201i\362)\220\005\031\362\026\003\233"
 202      8169F229 
 202      900519F2 
 202      16039B
 203 0212 C4E70BE9 		.ascii	"\304\347\013\351g\220\006)\362$\230\000\011\3628\030"
 203      67900629 
 203      F2249800 
 203      09F23818 
 204 0222 079FC863 		.ascii	"\007\237\310c\340#\210\222G\300\030\010\223\177\000"
 204      E0238892 
 204      47C01808 
 204      937F00
 205 0231 A360847C 		.ascii	"\243`\204|\030\014\001\205<\004\006\201L\036\004\357"
 205      180C0185 
 205      3C040681 
 205      4C1E04EF 
 206 0241 C13BF2B7 		.ascii	"\301;\362\267`\000\004\310\375t\035/y?p\2037\300\005"
 206      600004C8 
 206      FD741D2F 
ARM GAS  C:\Users\info\AppData\Local\Temp\cc8VD4SC.s 			page 16


 206      793F7083 
 206      37C005
 207 0254 FA809319 		.ascii	"\372\200\223\031$6\317Z\245\377\204dj\324"
 207      2436CF5A 
 207      A5FF8464 
 207      6AD4
 208              		.text
 209              		.section	.gnu.lto_u8x8_d_uc1701_mini12864_powersave0_seq.792a5cc0,"",%progbits
 210 0000 789C2D8B 		.ascii	"x\234-\213\275\016\301P\030\206\317\327\037\021D'\011"
 210      BD0EC150 
 210      1886CFD7 
 210      1F114427 
 210      09
 211 0011 496F82A9 		.ascii	"Io\202\251\227\345\022:\264\211\304f \021\203\201TQ"
 211      97E5123A 
 211      B489C466 
 211      20118381 
 211      5451
 212 0023 AD0E864E 		.ascii	"\255\016\206N\"1\010\213Qb\220`5P1\370}\233\317I\236"
 212      2231088B 
 212      51629060 
 212      355031F8 
 212      7D9BCF49 
 213 0038 9CEFC993 		.ascii	"\234\357\311\223W\021$\222w\007|\011\361\226\310\267"
 213      57112492 
 213      77077C09 
 213      F196C8B7 
 214 0048 4F6E3A96 		.ascii	"On:\226lY\320\227\340\247\247\027\345\023'JA\343\326"
 214      6C59D097 
 214      E0A7A717 
 214      E513274A 
 214      41E3D6
 215 005b 66A7712E 		.ascii	"f\247q.AW\275\350\225\343\252B\033\317u3\303\325O\306"
 215      4157BDE8 
 215      95E3AA42 
 215      1BCF7533 
 215      C3D54FC6 
 216 006f 5B2BE8C8 		.ascii	"[+\350\310\234\025\350\321\371\264R\234\013\320\305"
 216      9C15E8D1 
 216      F9B4529C 
 216      0BD0C5
 217 007e 3570FE63 		.ascii	"5p\376c\031Z\017o}\225k/\031/\277\217\271\306Y\202^"
 217      195A0F6F 
 217      7D956B2F 
 217      192FBF8F 
 217      B9C65982 
 218 0093 ACF321CB 		.ascii	"\254\363!\313\271\010m/\366\253\27413k]\263j\313\022"
 218      B9086D2F 
 218      F6ABBC31 
 218      336B5DB3 
 218      6ACB12
 219 00a6 95759A92 		.ascii	"\225u\232\222N\025\235<|\001\360\301\204\330\307`\004"
 219      4E159D3C 
 219      7C01F0C1 
 219      84D8C760 
 219      04
 220 00b7 86C00503 		.ascii	"\206\300\005\003\340\220.($C\374\000\312BTO"
ARM GAS  C:\Users\info\AppData\Local\Temp\cc8VD4SC.s 			page 17


 220      E0902E28 
 220      2443FC00 
 220      CA42544F 
 221              		.text
 222              		.section	.gnu.lto_u8x8_d_uc1701_mini12864_powersave1_seq.792a5cc0,"",%progbits
 223 0000 789C2D8D 		.ascii	"x\234-\215\271\012\302@\024E\347%Q\004\203\251\004\205"
 223      B90AC240 
 223      1445E725 
 223      510483A9 
 223      0485
 224 0012 FC8456F9 		.ascii	"\374\204V\371,?!E\002\342\017\330XX\250q\313fa\221J"
 224      2C3F2145 
 224      02E20FD8 
 224      5858A871 
 224      CB666191 
 225 0027 050B97C6 		.ascii	"\005\013\227\306F\260\023\324\326B\\\012\327;<\007\016"
 225      46B013D4 
 225      D6425C0A 
 225      D73B3C07 
 225      0E
 226 0038 3387C365 		.ascii	"3\207\303e4AB\236\033\340\227\020o\205B\367\330\313"
 226      3441429E 
 226      1BE09710 
 226      6F8542F7 
 226      D8CB
 227 004a 5C155715 		.ascii	"\\\025W\025\364%\370\361\351'9\351Di\350\265\276\336"
 227      F425F8F1 
 227      E92739E9 
 227      4469E8B5 
 227      BEDE
 228 005c 199C8BD0 		.ascii	"\031\234\213\320E+y\351\\S\320\373*i\352\\\333r\274"
 228      452B79E9 
 228      5C53D0FB 
 228      2A69EA5C 
 228      DB72BC
 229 006f 71A286CA 		.ascii	"q\242\206\312Y\203\036\274O=\3159\017\235]\"\357?V\241"
 229      59831EBC 
 229      4F3DCD39 
 229      0F9D5D22 
 229      EF3F56A1 
 230 0083 CB783BFD 		.ascii	"\313x;\375\377\034\310\361\374\373\230\030\234\025\350"
 230      FF1CC8F1 
 230      FCFB9818 
 230      9C15E8
 231 0092 D939EDB3 		.ascii	"\3319\355\263\234\013\320N\315=\2235\266\253M\273\342"
 231      9C0BD04E 
 231      CD3D9335 
 231      B6AB4DBB 
 231      E2
 232 00a3 AA0A954C 		.ascii	"\252\012\225L\212\311\244\262I>\256\010\204  \366!\030"
 232      8AC9A4B2 
 232      493EAE08 
 232      842020F6 
 232      2118
 233 00b5 803EE881 		.ascii	"\200>\350\201.\360\310\0244\"K\374\000\350\343TS"
 233      2EF0C814 
 233      34224BFC 
ARM GAS  C:\Users\info\AppData\Local\Temp\cc8VD4SC.s 			page 18


 233      00E8E354 
 233      53
 234              		.text
 235              		.section	.gnu.lto_u8x8_d_uc1701_mini12864_flip0_seq.792a5cc0,"",%progbits
 236 0000 789C2D8B 		.ascii	"x\234-\213=\013AQ\030\307\317s\216\267\"&E\235/\301"
 236      3D0B4151 
 236      18C7CF73 
 236      8EB72226 
 236      459D2FC1 
 237 0014 E463F908 		.ascii	"\344c\371\010\206{\313hc0\030\324\365\356\222\014&)"
 237      867BCB68 
 237      633018D4 
 237      F5EE920C 
 237      2629
 238 0026 A22C6C26 		.ascii	"\242,l&\312e4\350\312\340\345\372\237\036\247~\235\347"
 238      CA6534E8 
 238      CAE0E5FA 
 238      9F1EA77E 
 238      9DE7
 239 0038 D7AF7F48 		.ascii	"\327\257\177H\2200\357\001\370\022\342#ih{\355\230/"
 239      9030EF01 
 239      F812E223 
 239      69687BED 
 239      982F
 240 004a 6D252820 		.ascii	"m%( \270\367\352\317\222\306\211\"P\277\272=\2448g\241"
 240      B8F7EACF 
 240      92C68922 
 240      50BFBA3D 
 240      A43867A1 
 241 005e 9BE6EC9D 		.ascii	"\233\346\354\235\340\032\206\326\254\375Ur]\233\361"
 241      E01A86D6 
 241      ACFD5572 
 241      5D9BF1
 242 006d CE72EB8A 		.ascii	"\316r\353\212s\010zv\276\325\010\3474tqw\235\377XA?"
 242      73087A76 
 242      BED508E7 
 242      34747177 
 242      9DFF5841 
 243 0082 C74A25CA 		.ascii	"\307J%\312\265a\306\313\3409Oq\226\320\233u9\3059g\240"
 243      B561C6CB 
 243      E0394F71 
 243      96D09B75 
 243      39C53967 
 244 0097 ABC9B41C 		.ascii	"\253\311\264\034+LK\345F\251h+I9M#\322\224\327\324\307"
 244      2B4C4BE5 
 244      46A9682B 
 244      49394D23 
 244      D294D7D4 
 245 00ac E7822118 		.ascii	"\347\202!\030\020{\017tA\007\264A\0138\244\005\215\251"
 245      107B0F74 
 245      4107B441 
 245      0B38A405 
 245      8DA9
 246 00be 207EBEEB 		.ascii	" ~\276\353T\034"
 246      541C
 247              		.text
 248              		.section	.gnu.lto_u8x8_d_uc1701_mini12864_flip1_seq.792a5cc0,"",%progbits
ARM GAS  C:\Users\info\AppData\Local\Temp\cc8VD4SC.s 			page 19


 249 0000 789C2D8C 		.ascii	"x\234-\214=\013\202P\030F\357\253%A\242SP\340\237\250"
 249      3D0B8250 
 249      1846EFAB 
 249      2541A253 
 249      50E09FA8 
 250 0014 C99FD54F 		.ascii	"\311\237\325OpPhjmi(\010\354[kh\220\006\011\032\202"
 250      7050686A 
 250      6D692808 
 250      EC5B6B68 
 250      9006091A 
 251 0029 866AA968 		.ascii	"\206j\251h\011\262\261\2060\032\372|\344\355\302\341"
 251      09B2B186 
 251      301AFA7C 
 251      E4EDC2E1 
 252 0039 DEC3E1B9 		.ascii	"\336\303\341\271)A\"9w\300/!\336\022yN\324\311\304\222"
 252      29412239 
 252      77C02F21 
 252      DE12794E 
 252      D4C9C492 
 253 004d 230BFA12 		.ascii	"#\013\372\022<z\016\002-q\"\005\032\327\226{\235s\001"
 253      3C7A0E02 
 253      2D712205 
 253      1AD7967B 
 253      9D7301
 254 0060 BA68052F 		.ascii	"\272h\005/\225k\032\352O\355\213\3065L\306k\333\257"
 254      956B1AEA 
 254      4FED8BC6 
 254      354CC66B 
 254      DBAF
 255 0072 CB9C53D0 		.ascii	"\313\234S\320\223\373\251)\234s\320\331\315w\377c\031"
 255      93FBA929 
 255      9C73D0D9 
 255      CD77FF63 
 255      19
 256 0083 BA3A6CBC 		.ascii	"\272:l\274\377\327\315d<\377>B\235\263\004\275\332\347"
 256      FFD7CD64 
 256      3CFF3E42 
 256      9DB304BD 
 256      DAE7
 257 0095 6396731E 		.ascii	"c\226s\036Z\235\355\266\2529\261*\015\253\354\310\022"
 257      5A9DEDB6 
 257      AA39B12A 
 257      0DABECC8 
 257      12
 258 00a6 150D1A91 		.ascii	"\025\015\032\221A%\203\006\270|\340\201!\261\367A\017"
 258      41258306 
 258      B87CE081 
 258      21B1F741 
 258      0F
 259 00b7 744107B4 		.ascii	"tA\007\264\201K\206\2401\231\342\007\3673T\255"
 259      814B86A0 
 259      3199E207 
 259      F73354AD 
 260              		.text
 261              		.section	.gnu.lto_.symbol_nodes.792a5cc0,"",%progbits
 262 0000 789C55CC 		.ascii	"x\234U\314\273\015\3020\024\205\341\343W\234w\201\030"
 262      BB0DC230 
ARM GAS  C:\Users\info\AppData\Local\Temp\cc8VD4SC.s 			page 20


 262      1485E1E3 
 262      579C7781 
 262      18
 263 0011 004A4661 		.ascii	"\000JFa\252\353\302\035R@Bb\002W\314a\021\211\002Zj"
 263      AAEBC21D 
 263      52404262 
 263      0257CC61 
 263      1189025A 
 264 0026 C80094D0 		.ascii	"\310\000\224\320\221\330)p\365\351\327}H0l\031\000\236"
 264      91D82970 
 264      F5E9D77D 
 264      48306C19 
 264      009E
 265 0038 1170B801 		.ascii	"\021p\270\001#g\263\006\224\202Y\000B\201E\031\217r"
 265      2367B306 
 265      94825900 
 265      42814519 
 265      8F72
 266 004a 1115322A 		.ascii	"\021\0252*U\2205\304\302\003\300\230\025\300Z\342IW"
 266      559035C4 
 266      C203C098 
 266      15C05AE2 
 266      4957
 267 005c 24922E49 		.ascii	"$\222.I&]\223J\272\240,\351\234t\322\232\362\377\026"
 267      265D934A 
 267      BAA02CE9 
 267      9C74D29A 
 267      F2FF16
 268 006f 68317C96 		.ascii	"h1|\226\002\015\334w\244\206\217\270K\317B\316\272~"
 268      020DDC77 
 268      A4868FB8 
 268      4BCF42CE 
 268      BA7E
 269 0081 F63A59C2 		.ascii	"\366:Y\302\357\356\\\240\300\020\254\340\272I\015\037"
 269      EFEE5CA0 
 269      C010ACE0 
 269      BA490D1F 
 270 0091 2C61F771 		.ascii	",a\367q\356\217Q{\232\367\2039\354\363\321\351\351\300"
 270      EE8F517B 
 270      9AF78339 
 270      ECF3D1E9 
 270      E9C0
 271 00a3 BEDE1BFC 		.ascii	"\276\336\033\374\000\354\220E~"
 271      00EC9045 
 271      7E
 272              		.text
 273              		.section	.gnu.lto_.refs.792a5cc0,"",%progbits
 274 0000 789C6361 		.ascii	"x\234ca`d\020e```c`bdfbbcb\346db\341bb\345eb\023d\000"
 274      60641065 
 274      60606063 
 274      60626466 
 274      62626362 
 275 0020 00060600 		.ascii	"\000\006\006\000|"
 275      7C
 276              		.text
 277              		.section	.gnu.lto_.decls.792a5cc0,"",%progbits
 278 0000 789CBD58 		.ascii	"x\234\275X{PTW\232\357sO\003M\323\240\"&\326\024\265"
ARM GAS  C:\Users\info\AppData\Local\Temp\cc8VD4SC.s 			page 21


 278      7B505457 
 278      9AEF734F 
 278      034DD3A0 
 278      2226D614 
 279 0015 7123A36C 		.ascii	"q#\243l\325\214#&\233\265\346\217\255\244f735\177\314"
 279      D58C2326 
 279      9BB5E68F 
 279      ADA46637 
 279      33357FCC 
 280 0029 4CD524A9 		.ascii	"L\325$\251\255Z\252:m\323ho\240a\272\033#\251\251\251"
 280      AD5AAA3A 
 280      6DD3686F 
 280      A061BA1B 
 280      23A9A9A9 
 281 003d 8B3C7430 		.ascii	"\213<t0\"\240\"/\003\342\013\202(\002*\010H\017*cT\024"
 281      22A0222F 
 281      03E20B82 
 281      28022A08 
 281      480F2A63 
 282 0053 11500401 		.ascii	"\021P\004\001Q\024\037(O\021\021\330\357\234s_\015\267"
 282      51141F28 
 282      4F1111D8 
 282      EF9C735F 
 282      0DB7
 283 0065 2793AA9D 		.ascii	"'\223\252\235m\375q\357w\316\357~\347\367}\347y\257"
 283      6DFD71EF 
 283      77CEEF7E 
 283      E7F77DE7 
 283      79AF
 284 0077 568334E4 		.ascii	"V\2034\344\027\376\016\374\361\326hZ8\215f\016~:0?\323"
 284      17FE0EFC 
 284      F1D6685A 
 284      388D660E 
 284      7E3A303F 
 285 008c C83F5FC0 		.ascii	"\310?_\300G@\375%\340\267\200O\001\377\005\370o\300"
 285      4740FD25 
 285      E0B7804F 
 285      01FF05F8 
 285      6FC0
 286 009e E7800880 		.ascii	"\347\200\010\200\025Q\027\232/\340\352\000|\005\370"
 286      1551179A 
 286      2FE0EA00 
 286      7C05F8
 287 00ad 23E04F00 		.ascii	"#\340O\000\036i\334~\304\327\012\270V\000\002\001A\200"
 287      1E69DC7E 
 287      C4D70AB8 
 287      56000201 
 287      4180
 288 00bf 77885FB8 		.ascii	"w\210_\270\376\032\256\313\001\301p\377;\300o\005-\011"
 288      FE1AAECB 
 288      01C170FF 
 288      3BC06F05 
 288      2D09
 289 00d1 50F63660 		.ascii	"P\3666`\023`+\300\014H\004$\001\354\000# \031\020O|"
 289      13602BC0 
 289      0C480424 
 289      01EC0023 
ARM GAS  C:\Users\info\AppData\Local\Temp\cc8VD4SC.s 			page 22


 289      2019104F 
 290 00e6 03DAE099 		.ascii	"\003\332\340\231\024\270~\014\330\006\370\004\260\017"
 290      14B87E0C 
 290      D806F804 
 290      B00F
 291 00f4 9005C806 		.ascii	"\220\005\310\006\374\006@\342\374w\270\352\001?\001"
 291      FC0640E2 
 291      FC77B8EA 
 291      013F01
 292 0103 7801D200 		.ascii	"x\001\322\000\031\200t@&\222c\267\012q~.\304\376\251"
 292      19807440 
 292      269263B7 
 292      0A717E2E 
 292      C4FEA9
 293 0116 10BF9813 		.ascii	"\020\277\230\023\177\340\345\3005\027\220\007\310\007"
 293      7FE0E5C0 
 293      35179007 
 293      C807
 294 0124 EC077C03 		.ascii	"\354\007|\003(@\177_^\010G\013\327U\032\026\377j\015"
 294      28407F5F 
 294      5E08470B 
 294      D7551A16 
 294      FF6A0D
 295 0137 8B7929E9 		.ascii	"\213y)\351\036R\007\340\000>D;`1`\016\3520\341\000\014"
 295      1E5207E0 
 295      003E443B 
 295      6031600E 
 295      EA30E100 
 296 014c 003FA299 		.ascii	"\000?\242\231\350\001,!\376\205\370Hl\010\0200\257M"
 296      E8012C21 
 296      FE85F848 
 296      6C081030 
 296      AF4D
 297 015e F147B461 		.ascii	"\361G\264a\241]\322\037v\017<\362\373j\0367\376op\377"
 297      A15DD21F 
 297      760F3CF2 
 297      FB6A1E37 
 297      FE6F70FF 
 298 0172 F803B87F 		.ascii	"\370\003\270\177\372\001\\\376\007pg8\224\330\377\244"
 298      FA015CFE 
 298      07706738 
 298      94D8FFA4 
 299 0182 50D7853A 		.ascii	"P\327\205:!\005\210\3764\302\330'IA\302U#\344\010\376"
 299      210588FE 
 299      34C2D827 
 299      4941C255 
 299      23E408FE 
 300 0196 72F4AF46 		.ascii	"r\364\257FdI\316\021\375\007\3779\312G\212\0127\036"
 300      6449CE11 
 300      FD07FF39 
 300      CA478A0A 
 300      371E
 301 01a8 9D47F427 		.ascii	"\235G\364'\027!\351'2\221\273SD{W4\301\346\344\007\024"
 301      1721E927 
 301      3291BB53 
 301      447B5734 
 301      C1E6E407 
ARM GAS  C:\Users\info\AppData\Local\Temp\cc8VD4SC.s 			page 23


 302 01bd FE04F542 		.ascii	"\376\004\365B\373H\331,u\215\305\240\223\367\276l\362"
 302      FB48D92C 
 302      758DC5A0 
 302      93F7BE6C 
 302      F2
 303 01ce C7E013EE 		.ascii	"\307\340\023\356{\247\212?^s\214\207_:\317s?\2273s\374"
 303      7BA78A3F 
 303      5E738C87 
 303      5F3ACF73 
 303      3F973373 
 304 01e3 D874B95E 		.ascii	"\330t\271^\013\361\242O\015h\203\226\024\235H~P\242"
 304      0BF1A24F 
 304      0D688396 
 304      149D487E 
 304      50A2
 305 01f5 1BE750B0 		.ascii	"\033\347P\260\036\315!b?\253\231\362g6\251\256r\215"
 305      1ECD2162 
 305      3FAB99F2 
 305      6736A9AE 
 305      728D
 306 0207 9569F14A 		.ascii	"\225i\361Jr\317\335\250\354\274\350\213B\365G\210\347"
 306      72CFDDA8 
 306      ECBCE88B 
 306      42F54788 
 306      E7
 307 0218 BEDA898F 		.ascii	"\276\332\211\217\022y\036\241\023H\217\312\020F%h\015"
 307      12791EA1 
 307      13488FCA 
 307      10462568 
 307      0D
 308 0229 1115AC87 		.ascii	"\021\025\254\207\277\333y~+?\\\304{/\327\240\367\202"
 308      BFDB797E 
 308      2B3F5CC4 
 308      7B2FD7A0 
 308      F782
 309 023b D1DA600D 		.ascii	"\321\332`\015:\216B\211O\302B\307P0*E\301\304\177IA"
 309      3A8E4289 
 309      4FC242C7 
 309      50302A45 
 309      C1C47F49 
 310 0250 F1057F5C 		.ascii	"\361\005\177\\\216h\003C{\236n\307R\003#;\202Ky~1\252"
 310      8E680343 
 310      7B9E6EC7 
 310      5203233B 
 310      824B797E 
 311 0266 8006CAE5 		.ascii	"\200\006\312\345\006\240=\365\026N\252\267\320\225r"
 311      06A03DF5 
 311      164EAAB7 
 311      D09572
 312 0275 F48A1F8D 		.ascii	"\364\212\037\215\2318\372\026\321\250\333o\367\264\373"
 312      9938FA16 
 312      D1A8DB6F 
 312      F7B4FB
 313 0284 4A8595AC 		.ascii	"J\205\225\254\360FRy>\206\320\003\365H\013\346Hs\356"
 313      F0465279 
 313      3E86D003 
 313      F5480BE6 
ARM GAS  C:\Users\info\AppData\Local\Temp\cc8VD4SC.s 			page 24


 313      4873EE
 314 0297 FD003083 		.ascii	"\375\0000\203\364h\005\230ycw\037\373\262\332P0\237"
 314      F4680598 
 314      7963771F 
 314      FBB2DA50 
 314      309F
 315 02a9 270DF4F9 		.ascii	"'\015\364\371\261\332\345`\362\203I\005\034>\301\362"
 315      B1DAE560 
 315      F2834905 
 315      1C3EC1F2 
 316 02b9 DF3A7C75 		.ascii	"\337:|u\277P\267\030\314\206\301\214\006\035>\307\352"
 316      BF50B718 
 316      CC86C18C 
 316      061D3EC7 
 316      EA
 317 02ca 5A8E0EDD 		.ascii	"Z\216\016\335\012\300\035\314\030,l\250\320\341\021"
 317      0AC01DCC 
 317      182C6CA8 
 317      D0E111
 318 02d9 66143FCC 		.ascii	"f\024?\314O3\260\247\326+\232\017d\315\357ue\276\321"
 318      4F33B0A7 
 318      D62B9A0F 
 318      64CDEF75 
 318      65BED1
 319 02ec E31946AD 		.ascii	"\343\031F\255=S\327\344\305\250k\301\374\256\246\177"
 319      3D53D7E4 
 319      C5A86BC1 
 319      FCAEA67F 
 320 02fc 2D86CC69 		.ascii	"-\206\314i\0242\203\230\314\227W\332\356b\274\217\325"
 320      14328398 
 320      CC9757DA 
 320      EE62BC8F 
 320      D5
 321 030d ED6AAC3F 		.ascii	"\355j\254?\257\303\007\231\321\324}\247]\213O0#\241"
 321      AFC30799 
 321      D1D47DA7 
 321      5D8B4F30 
 321      23A1
 322 031f FE7CA53F 		.ascii	"\376|\245?\276\300\214\213s\223\256E\254e\016\314\231"
 322      BEC08C8B 
 322      7393AE45 
 322      AC650ECC 
 322      99
 323 0330 CACAF308 		.ascii	"\312\312\363\0107\263\272\303\257\247\207I\216V\301"
 323      37B3BAC3 
 323      AFA78749 
 323      8E56C1
 324 033f 7099C38A 		.ascii	"p\231\303\212\361\262\212\215\227\206+\337\0351\340"
 324      F1B28A8D 
 324      97862BDF 
 324      1D31E0
 325 034e 0E4AE65A 		.ascii	"\016J\346Z\033\263g\374\220>\224v\026\237\310\353C5"
 325      1BB367FC 
 325      903E9476 
 325      169FC8EB 
 325      4335
 326 0360 E82CF4CC 		.ascii	"\350,\364\314%\350\031t\015\272k\225\320]W\240\3602"
ARM GAS  C:\Users\info\AppData\Local\Temp\cc8VD4SC.s 			page 25


 326      25E81974 
 326      0DBA6B95 
 326      D05D57A0 
 326      F032
 327 0372 140A236B 		.ascii	"\024\012#k\350\327td5C\327\\\225;~\225\236\015\342s"
 327      E8D77464 
 327      3543D75C 
 327      953B7E95 
 327      9E0DE273 
 328 0386 195D0FF5 		.ascii	"\031]\017\365\370\036k\342\320}\276V\353\251\211\033"
 328      F81E6BE2 
 328      D07DBE56 
 328      EBA9891B 
 329 0396 1E9B18D9 		.ascii	"\036\233\030\331\261\352\030\031[-\320\304u\271\211"
 329      B1EA1819 
 329      5B2DD0C4 
 329      75B989
 330 03a5 6624B421 		.ascii	"f$\264!\366n \353\335\207\251%#\006\374\204\245`\177"
 330      F66E20EB 
 330      DD87A925 
 330      2306FC84 
 330      A5607F
 331 03b8 7B7FBAAF 		.ascii	"{\177\272\257^\030\200\351\337?\000s/no\3642\244\022"
 331      5E1880E9 
 331      DF3F0073 
 331      2F6E6FF4 
 331      32A412
 332 03cb 7E7A221F 		.ascii	"~z\"\037\370+\324\006\215\236\206\372SP\257A\355\310"
 332      F82BD406 
 332      8D9E86FA 
 332      5350AF41 
 332      EDC8
 333 03dd 20CCCEA4 		.ascii	" \314\316\244'\007\207\020~\301Z\271{\251\244\224$z"
 333      27078710 
 333      7EC15AB9 
 333      7BA9A494 
 333      247A
 334 03ef 3549F4DC 		.ascii	"5I\364\334\334\"E\252W\263T\267\356\032=\344\203\247"
 334      DC2245AA 
 334      57B354B7 
 334      EE1A3DE4 
 334      83A7
 335 0401 581E4A33 		.ascii	"X\036J3\236\266*\346\346aC\015\011\257\013Z\352\224"
 335      9EB62AE6 
 335      E661430D 
 335      09AF0B5A 
 335      EA94
 336 0413 C35B2DCD 		.ascii	"\303[-\315\034*D#\251@w@\372jA\372m(\274%\314\316C\031"
 336      1C2A4423 
 336      A9407740 
 336      FA6A41FA 
 336      6D28BC25 
 337 042b 45DE3849 		.ascii	"E\3368IK\233\370\366\370\365&\0371\325\363\035\364\250"
 337      4B9BF8F6 
 337      F8F5261F 
 337      31D5F31D 
 337      F4A8
ARM GAS  C:\Users\info\AppData\Local\Temp\cc8VD4SC.s 			page 26


 338 043d 381053FD 		.ascii	"8\020S\375>M\365]\320\322-k\351\022S-N\226@6Y\372ON"
 338      3E4DF55D 
 338      D0D22D6B 
 338      E912532D 
 338      4E964036 
 339 0455 3ED3E19D 		.ascii	">\323\341\235\264I\264m\356\356\005\035.`F\322\321\235"
 339      B449B46D 
 339      EEEE051D 
 339      2E6046D2 
 339      D19D
 340 0467 79FEB894 		.ascii	"y\376\270\224\031\271\265\343\227\275\330S:0\323rFk"
 340      19B9B5E3 
 340      97BDD853 
 340      3A30D372 
 340      466B
 341 0479 7D7025AB 		.ascii	"}p%\253\273\351*\314\363\305g\231q\277j\362\220?\276"
 341      BBE92ACC 
 341      F3C56799 
 341      71BF6AF2 
 341      903FBE
 342 048c C88C7B2F 		.ascii	"\310\214{/\352s|\244i\317\026\300S\255\005\275>\270"
 342      EA737CA4 
 342      69CF16C0 
 342      53AD05BD 
 342      3EB8
 343 049e 99115E5F 		.ascii	"\231\021^_\237>\213\360\035f|}\363\364{\370\021\273"
 343      9F3E8BF0 
 343      1D667C7D 
 343      F3F47BF8 
 343      11BB
 344 04b0 3FD67E7B 		.ascii	"?\326~{\006\3411f4\317\016\237\3038\331\213\032e})7"
 344      06E13166 
 344      34CF0E9F 
 344      C338D98B 
 344      1A657D29 
 345 04c5 BD701633 		.ascii	"\275p\0263\216\2749Pe\300E\314h\232\254?\350\205\313"
 345      8EBC3950 
 345      65C045CC 
 345      689AAC3F 
 345      E885CB
 346 04d8 9891BAE3 		.ascii	"\230\221\272\343\333\003\001\270\221\031\311_\227\326"
 346      DB0301B8 
 346      9119C95F 
 346      97D6
 347 04e6 61DCCE8C 		.ascii	"a\334\316\214\226\336\212\011o\374\204\031\275=\031"
 347      96DE8A09 
 347      6FFC8419 
 347      BD3D19
 348 04f5 FF83C7D8 		.ascii	"\377\203\307\330\375\323\266\326\014/\314{Sc\246b[\255"
 348      FDD3B6D6 
 348      0C2FCC7B 
 348      5363A662 
 348      5BAD
 349 0507 16EF66C6 		.ascii	"\026\357f\306\243KS\343~\37003^7n\255A\270\232\031\247"
 349      A34B53E3 
 349      7EF83033 
 349      5E376EAD 
ARM GAS  C:\Users\info\AppData\Local\Temp\cc8VD4SC.s 			page 27


 349      41B89A19 
 350 051c 1BA7AE7A 		.ascii	"\033\247\256z\341ff<\337Zz\010\341\207\314h\331;\224"
 350      E166663C 
 350      DF5A7A08 
 350      E187CC68 
 350      D93B94
 351 052f C5E13966 		.ascii	"\305\3419f\274\231\336\235\340\2053}\330\234\355\036"
 351      BC99DE9D 
 351      E085337D 
 351      D89CED1E 
 352 053f 3CE6870F 		.ascii	"<\346\207\0171\243\274.iHX\365\\d?(\3369|^\217\353i"
 352      31A3BC2E 
 352      694858F5 
 352      5C643F28 
 352      DE397C5E 
 353 0556 E5B2E1D2 		.ascii	"\345\262\341\322\3546o\0242\357\027\032\022\2624\244"
 353      EC366F14 
 353      32EF171A 
 353      12B234A4 
 354 0566 888C8ABE 		.ascii	"\210\214\212\276S\263\261\365\247\273y>\305@3<\001\375"
 354      53B3B1F5 
 354      A7BB793E 
 354      C540333C 
 354      01FD
 355 0578 9DC92D15 		.ascii	"\235\311-\025'\310\317\310x\377\013\031\365\032Jw\325"
 355      27C8CFC8 
 355      78FF0B19 
 355      F51A4A77 
 355      D5
 356 0589 B5FAF1E5 		.ascii	"\265\372\361\345\237S\352\220;\265\227\316\215\367d"
 356      9F53EA90 
 356      3BB597CE 
 356      8DF764
 357 0598 EA586640 		.ascii	"\352Xf@6\357\332\212\351\224}\"\220\245\231\316\350"
 357      36EFDA8A 
 357      E9947D22 
 357      90A599CE 
 357      E8
 358 05a9 A715AE73 		.ascii	"\247\025\256s\256\373\357\343]\011\230:\237R\321qVA"
 358      AEFBEFE3 
 358      5D09983A 
 358      9F52D171 
 358      5641
 359 05bb 6EBB2EE9 		.ascii	"n\273.\351\030W\241\236SP\367\310\324\327*T\205\342"
 359      1857A19E 
 359      5350F7C8 
 359      D4D72A54 
 359      85E2
 360 05cd 5639B8A7 		.ascii	"V9\270\247j\301U+\274f\312^\247U\274\206\311\314\\\231"
 360      6AC1552B 
 360      BC66CA5E 
 360      A755BC86 
 360      C9CC5C99 
 361 05e1 F94A85A9 		.ascii	"\371J\205\251t\232/S'U\250\312l\225\313Z\207\335\251"
 361      749A2F53 
 361      2755A8CA 
 361      6C95CB5A 
ARM GAS  C:\Users\info\AppData\Local\Temp\cc8VD4SC.s 			page 28


 361      87DDA9
 362 05f4 F7D1FC4E 		.ascii	"\367\321\374Nk\221\271\317\324\342R&v\217\314\035Q\363"
 362      6B91B9CF 
 362      D4E25226 
 362      768FCC1D 
 362      51F3
 363 0606 7B5EC19D 		.ascii	"{^\301\235\225\345\216\252q\225z\253d\277/\324\270\312"
 363      95E58EAA 
 363      71957AAB 
 363      64BF2FD4 
 363      B8CA
 364 0618 1E9B508E 		.ascii	"\036\233P\216\234Y\365\221\303\342\243\013\226k:\315"
 364      9C59F591 
 364      C3E2A30B 
 364      966B3ACD 
 365 0628 C0F33AC2 		.ascii	"\300\363:\302\322\010\213\225F\362U\240\034U/U\222\252"
 365      D2088B95 
 365      46F255A0 
 365      1C552F55 
 365      92AA
 366 063a 0CE8AC2C 		.ascii	"\014\350\254,\362\271Z\242h\257f\010\3074\036\316 h"
 366      F2B95AA2 
 366      68AF6608 
 366      C7341ECE 
 366      2068
 367 064c 0654B512 		.ascii	"\006T\265\022Uo\004>\264\217vq\241(\205\013AI\200\255"
 367      556F043E 
 367      B48F7671 
 367      A128850B 
 367      414980AD 
 368 0660 806D80ED 		.ascii	"\200m\200\355\200t\300\034\012A\211p\335\015\370\032"
 368      8074C01C 
 368      0A418970 
 368      DD0DF81A 
 369 0670 B003F067 		.ascii	"\260\003\360g\300N@\006\200\007\244\002\222\001\011"
 369      C04E4006 
 369      8007A402 
 369      920109
 370 067f 80342E44 		.ascii	"\2004.D\021M\327\256\200\034\336\225\204\351\332<&4"
 370      114DD7AE 
 370      801CDE95 
 370      84E9DA3C 
 370      2634
 371 0691 292DE9F7 		.ascii	")-\351\367e\221\260\016t\356\312\313Y\204{\351:\300"
 371      6591B00E 
 371      74EECACB 
 371      59847BE9 
 371      3AC0
 372 06a3 4DEC6CFC 		.ascii	"M\354l\374\000-\015U\327\236\005z\377\221\332Y/\345"
 372      002D0D55 
 372      D79E057A 
 372      FF91DA59 
 372      2FE5
 373 06b5 5CFB09E9 		.ascii	"\\\373\011\351\245\275\320\320\036N\332UH\247Q\271U"
 373      A5BDD0D0 
 373      1E4EDA55 
 373      48A751B9 
ARM GAS  C:\Users\info\AppData\Local\Temp\cc8VD4SC.s 			page 29


 373      55
 374 06c6 FD475EF8 		.ascii	"\375G^\370,\025\004\272<\012\324\374\237\253#\353iG"
 374      2C1504BA 
 374      3C0AD4FC 
 374      9FAB23EB 
 374      6947
 375 06d8 D2363FE5 		.ascii	"\3226?\345\206\277O\221V\015\312\346\304\015\177\262"
 375      86BF4F91 
 375      560DCAE6 
 375      C40D7FB2 
 376 06e8 EC51B717 		.ascii	"\354Q\267\027\036\363q;\323\005\2623]U\375\310a\341"
 376      1EF3713B 
 376      D305B233 
 376      5D55FDC8 
 376      61E1
 377 06fa 1CC79373 		.ascii	"\034\307\223s\326\340@^\223\036\317\011+\366\315\023"
 377      D6E0405E 
 377      931ECF09 
 377      2BF6CD13 
 378 070a 5717E1DD 		.ascii	"W\027\341\335:b\254\354JmH@HkX\012\253\260\333\317`"
 378      3A62ACEC 
 378      4A6D4840 
 378      486B580A 
 378      ABB0DBCF 
 379 071f 58AE0D15 		.ascii	"X\256\015\025nBCBC\311\276W\300\031\320#\310\206B]\241"
 379      6E424342 
 379      43C9BE57 
 379      C019D023 
 379      C886425D 
 380 0734 9BBA02A6 		.ascii	"\233\272\002\246\316\255k\363\270`\224\313A\346\\\220"
 380      CEAD6BF3 
 380      B86094CB 
 380      41E65C90 
 381 0744 B922A16B 		.ascii	"\271\"\241k\033\340\376\034\004^\003\250\006\234\001"
 381      1BE0FE1C 
 381      045E03A8 
 381      069C01
 382 0753 9C069403 		.ascii	"\234\006\224\003N\000\216\003\312\000\307\000\245\200"
 382      4E008E03 
 382      CA00C700 
 382      A580
 383 0761 6F012580 		.ascii	"o\001%\200b\300Q\300\021\300a\300!\300A\300\001\267"
 383      62C051C0 
 383      11C061C0 
 383      21C041C0 
 383      01B7
 384 0773 A139DDA1 		.ascii	"\2419\335\241\230h\371\320\301E\362\3549\243X\016\324"
 384      9868F9D0 
 384      C145F2EC 
 384      39A3580E 
 384      D4
 385 0784 75E6080F 		.ascii	"u\346\010\017\374\343u\276\352\220\3468l\302\013U*\327"
 385      FCE375BE 
 385      EA90E638 
 385      6CC20B55 
 385      2AD7
 386 0796 E39732B7 		.ascii	"\343\2272\267V\215\253\\8\307en\235\032W\261\317\214"
ARM GAS  C:\Users\info\AppData\Local\Temp\cc8VD4SC.s 			page 30


 386      568DAB5C 
 386      38C7656E 
 386      9D1A57B1 
 386      CF8C
 387 07a8 CAD47A35 		.ascii	"\312\324z5\252b\363\030\226\251.wj\303\202e\263G\346"
 387      AA62F318 
 387      96A92E77 
 387      6AC38265 
 387      B347E6
 388 07bb 36AA7195 		.ascii	"6\252q\225[B\267\314\275\240\306U\256\212\0352\367\242"
 388      5B42B7CC 
 388      BDA0C655 
 388      AE8A1D32 
 388      F7A2
 389 07cd 1A57B9   		.ascii	"\032W\271"
 390 07d0 CCB7C9DC 		.ascii	"\314\267\311\334&5\2562\273\2552\367\257j\\evod)\266"
 390      2635AE32 
 390      BBAD32F7 
 390      AF6A5C65 
 390      766F6429 
 391 07e5 84EF04B6 		.ascii	"\204\357\004\266\264%4\314O[C\3262\266N\302Y\035\335"
 391      B42534CC 
 391      4F5B43D6 
 391      32B64EC2 
 391      591DDD
 392 07f8 14E8D23A 		.ascii	"\024\350\322:\331\272@v}\226b]\355P\347+\334\327v,b"
 392      D9BA4076 
 392      7D96625D 
 392      ED50E72B 
 392      DCD7762C 
 393 080d F4933039 		.ascii	"\364\22309\373\346\323\225G\033\305\254\255\344\226"
 393      FBE6D395 
 393      471BC5AC 
 393      ADE496
 394 081c CB9C5330 		.ascii	"\313\234S0\306+\340a\266\012z`i\024\224,:m\022\371\025"
 394      C62BE061 
 394      B60A7A60 
 394      6914942C 
 394      3A6D12F9 
 395 0831 5A9A3099 		.ascii	"Z\2320\231\002\017\300\337*\216|\232\022\327\213*\230"
 395      020FC0DF 
 395      2A8E7C9A 
 395      12D78B2A 
 395      98
 396 0842 5B6CD12D 		.ascii	"[l\321-\270\266\214,\272D\347=\371(_A\227\014\026K\215"
 396      B8B68C2C 
 396      BA44E73D 
 396      F9285F41 
 396      970C164B 
 397 0857 32967EF5 		.ascii	"2\226~\365X\024\241\237\3560\360\351&J~0\237\254\262"
 397      5814A19F 
 397      EE30F0E9 
 397      264A7E30 
 397      9FACB2
 398 086a EBCBEC01 		.ascii	"\353\313\354\001u\266\302ueV\020Sr\026\350\017\347\323"
 398      75B6C275 
 398      65561053 
ARM GAS  C:\Users\info\AppData\Local\Temp\cc8VD4SC.s 			page 31


 398      7216E80F 
 398      E7D3
 399 087c 7FA69AD4 		.ascii	"\177\246\232\324:eR\353!\251\265jI\255sKj\255ZR[\334"
 399      3A6552EB 
 399      21A9B56A 
 399      49AD734B 
 399      6AAD5A52 
 400 0892 925A4793 		.ascii	"\222ZG\223\372\015M*K\344\311\264\267H\"\211\264A9\221"
 400      FA0D4D2A 
 400      4BE4C9B4 
 400      B7482289 
 400      B4413991 
 401 08a6 B58A449E 		.ascii	"\265\212D\236\314z\207\311\207\355\002=V\225\037&\237"
 401      CC7A87C9 
 401      87ED023D 
 401      56951F26 
 401      9F
 402 08b7 59F667D1 		.ascii	"Y\366g\3213K\221\373\231\205\325\355K\373'RG\226\371"
 402      334B91FB 
 402      9985D5ED 
 402      4BFB2752 
 402      4796F9
 403 08ca FDF24E59 		.ascii	"\375\362NY$\356\224\003'\212\006\274\337-\344\013\313"
 403      24EE9403 
 403      278A06BC 
 403      DF2DE40B 
 403      CB
 404 08db F9BE89A2 		.ascii	"\371\276\211\242\370\202\212\007<\037\250\245#\247X"
 404      F8828A07 
 404      3C1FA8A5 
 404      23A758
 405 08ea 9606B7E4 		.ascii	"\226\006\267\344r\024\336\333`\352s\357\222\015+\353"
 405      7214DEDB 
 405      60EA73EF 
 405      920D2BEB 
 406 08fa BE1F6EA4 		.ascii	"\276\037n\244{\020J<\322\327\342\205o1#\253\301\225"
 406      7B104A3C 
 406      D2D7E285 
 406      6F3123AB 
 406      C195
 407 090c BF08DEB2 		.ascii	"\277\010\336\262\320y\016\2636\252'o\354e\357]d<\261"
 407      D0790EB3 
 407      36AA276F 
 407      EC65EF5D 
 407      643CB1
 408 091f F7AEC1B4 		.ascii	"\367\256\301\264\023\235x\271\307\201\330Dsv\221\346"
 408      139D78B9 
 408      C781D844 
 408      737691E6 
 409 092f 0CD873D5 		.ascii	"\014\330s\325S\343\006P\331\007o\224U\263\277\313;\230"
 409      53E30650 
 409      D9076F94 
 409      55B3BFCB 
 409      3B98
 410 0941 E24A4FE0 		.ascii	"\342JO\340\027S\036j\024\303B\0278-\261\330\367\261"
 410      17531E6A 
 410      14C34217 
ARM GAS  C:\Users\info\AppData\Local\Temp\cc8VD4SC.s 			page 32


 410      382DB1D8 
 410      F7B1
 411 0953 BF5299BB 		.ascii	"\277R\231\273\017\214\365p\270\317\223\264\271\334\221"
 411      0F8CF570 
 411      B8CF93B4 
 411      B9DC91
 412 0962 6C1FE566 		.ascii	"l\037\345f\355.\343\262\264Y?\230.\276\260\210\306p"
 412      ED2EE3B2 
 412      B4593F98 
 412      2EBEB088 
 412      C670
 413 0974 598AA1AC 		.ascii	"Y\212\241\254\260\352`\200\364>y\205c_\324\036V\264"
 413      B0EA6080 
 413      F43E7985 
 413      635FD41E 
 413      56B4
 414 0986 F94AC15E 		.ascii	"\371J\301^e\205/o\035\257\013\360\034\3555\032m\263"
 414      65852F6F 
 414      1DAF0BF0 
 414      1CED351A 
 414      6DB3
 415 0998 186DE5EC 		.ascii	"\030m\345\354\275N\314\242u\015G\346\360\215I\374\207"
 415      BD4ECCA2 
 415      750D47E6 
 415      F08D49FC 
 415      87
 416 09a9 84832E49 		.ascii	"\204\203.I\221~\007\221^\022#\275N#\315\314\030\312"
 416      917E0791 
 416      5E1223BD 
 416      4E23CDCC 
 416      18CA
 417 09bb F4C5A39E 		.ascii	"\364\305\243\236\"U{\371\235\276U=\310IZ[\231\326\243"
 417      22557BF9 
 417      9DBE553D 
 417      C8495A5B 
 417      99D6A3
 418 09ce 8997633C 		.ascii	"\211\227c<Km\243Ro\212R\313R\373\217\373\011R\357\210"
 418      4B6DA352 
 418      6F8A52CB 
 418      52FB8FFB 
 418      0952EF88 
 419 09e2 5281835A 		.ascii	"R\201\203Z$\2517@j\213(\265\235JMK\250\276\250\305\211"
 419      24A93740 
 419      6A8B28B5 
 419      9D4A4D4B 
 419      A8BEA8C5 
 420 09f7 BE1EA476 		.ascii	"\276\036\244vd\267\367\352\004\247\243\242S\322\323"
 420      64B7F7EA 
 420      04A7A3A2 
 420      53D2D3
 421 0a06 1D92D35B 		.ascii	"\035\222\323[\340\264Ctz\233:=y\271\356\221/\316\365"
 421      E0B44374 
 421      7A9B3A3D 
 421      79B9EE91 
 421      2FCEF5
 422 0a19 E434A37F 		.ascii	"\3444\243\177l\320_p\332\255T\332)9\275\003N;E\247]"
 422      6CD05F70 
ARM GAS  C:\Users\info\AppData\Local\Temp\cc8VD4SC.s 			page 33


 422      DAAD54DA 
 422      2939BD03 
 422      4E3B45A7 
 423 0a2e D4697192 		.ascii	"\324iq\222k\324\027\2272\247/S\223\036\262\024\222\235"
 423      6BD41797 
 423      32A72F53 
 423      931EB214 
 423      929D
 424 0a40 80A5B073 		.ascii	"\200\245\260s\354\352s\271\273\357\262\024>\336\333"
 424      ECEA73B9 
 424      BBEFB214 
 424      3EDEDB
 425 0a4f 58AF53E6 		.ascii	"X\257S\346\360\263\267\024)\354\245)\354\021S\2302\331"
 425      F0B3B714 
 425      29ECA529 
 425      EC115398 
 425      32D9
 426 0a61 DE2A463B 		.ascii	"\336*F;\362h-(\323\022\012\352\226gk\267(\252\217\212"
 426      F2682D28 
 426      D3120AEA 
 426      96676BB7 
 426      28AA8F8A 
 427 0a75 2A4D294B 		.ascii	"*M)K\365\302\177a\242\324&\327PG\321\013o\217\355\337"
 427      F5C27F61 
 427      A2D426D7 
 427      5047D10B 
 427      6F8FEDDF 
 428 0a89 A7EDF74B 		.ascii	"\247\355\367K\355\247\325\344\211]\230\333ep\245#\302"
 428      EDA7D5E4 
 428      895D98DB 
 428      6570A523 
 428      C2
 429 0a9a 40F7E4E6 		.ascii	"@\367\344\346\357\211\315?\240\315\367\024\365\356\362"
 429      EF89CD3F 
 429      A0CDF714 
 429      F5EEF2
 430 0aa9 C6DDACF9 		.ascii	"\306\335\254\371\273\305\225\271\354\233r\266\324\374"
 430      BBC595B9 
 430      EC9B72B6 
 430      D4FC
 431 0ab7 E9E7ED1D 		.ascii	"\351\347\355\035zI\322C\226\223{\211\267\023<k\032\244"
 431      7A49D243 
 431      96937B89 
 431      B7133C6B 
 431      1AA4
 432 0ac9 9A1E899A 		.ascii	"\232\036\211\232\\\247\256\216\371\010\232\262\231&"
 432      5CA7AE8E 
 432      F9089AB2 
 432      9926
 433 0ad7 60A00159 		.ascii	"`\240\001Y\323\200\250\3511\325\264c2\351\202?\236c"
 433      D380A8E9 
 433      31D5B463 
 433      32E9823F 
 433      9E63
 434 0ae9 9ABA522E 		.ascii	"\232\272R.\216\350~|\220o)\244kZ\376\236dX\323\3501"
 434      8EE87E7C 
 434      906F29A4 
ARM GAS  C:\Users\info\AppData\Local\Temp\cc8VD4SC.s 			page 34


 434      6B5AFE9E 
 434      6458D3E8 
 435 0afe FC097320 		.ascii	"\374\011s \275\014hh\311'0N\236r?&\313\301\341#\271"
 435      BD0C6868 
 435      C927304E 
 435      9E723F26 
 435      CBC1E123 
 436 0b13 5E389B7D 		.ascii	"^8\233}a\353/\177\331-|\020^\011\346\316\222\331w\330"
 436      61EB2F7F 
 436      D92D7C10 
 436      5E09E6CE 
 436      92D977D8 
 437 0b27 893C9B7C 		.ascii	"\211<\233|\027\315L;\223\311\261Z\"\340H\325\311gZ\362"
 437      17CD4C3B 
 437      93C9B15A 
 437      22E048D5 
 437      C9675AF2 
 438 0b3b 59901716 		.ascii	"Y\220\027\026\222@\345\254\031\346\364\032\262l\243"
 438      9240E5AC 
 438      19E6F41A 
 438      B26CA3
 439 0b4a 171CFDB2 		.ascii	"\027\034\375\2626Vqt\257!0]8\275~\210\330[\"\234_\207"
 439      36567174 
 439      AF21305D 
 439      38BD7E88 
 439      D85B229C 
 440 0b60 38421FE1 		.ascii	"8B\037\341\002\305\207\010\273\255u\346t\200\222\335"
 440      02C58708 
 440      BBAD75E6 
 440      748092DD 
 441 0b70 F6B7D865 		.ascii	"\366\267\330eWK\006\264,zWe\015J\340]Z4\312\005\242"
 441      574B06B4 
 441      2C7A5765 
 441      0D4AE05D 
 441      5A34CA05 
 442 0b85 6742ECF2 		.ascii	"gB\354\362\203\317\204\330\307h\354;\266\235\033\361"
 442      83CF84D8 
 442      C768EC3B 
 442      B69D1BF1 
 443 0b95 C5352CF6 		.ascii	"\3055,\366\361\324\344I!v\037\272\372\225\235\025\276"
 443      F1D4E449 
 443      21761FBA 
 443      FA959D15 
 443      BE
 444 0ba6 467B930F 		.ascii	"F{\223\017\203\255SE>\036\203\235\024\203}\311\202-"
 444      83AD5345 
 444      3E1E839D 
 444      14837DC9 
 444      822D
 445 0bb8 3DD33BEC 		.ascii	"=\323;\3547?X8k\242\011\252\342\025\225?)\312\237=X"
 445      373F5838 
 445      6BA209AA 
 445      E215953F 
 445      29CA9F3D 
 446 0bcd F9CC7B7E 		.ascii	"\371\314{~\260\036\331/\306\222O\370\012\301\346\177"
 446      B01ED92F 
 446      C6924FF8 
ARM GAS  C:\Users\info\AppData\Local\Temp\cc8VD4SC.s 			page 35


 446      0AC1E67F 
 447 0bdd CCC33899 		.ascii	"\314\3038\231\202P\307\205P\345\307\306\205P_\323P\257"
 447      8250C785 
 447      50E5C7C6 
 447      85505FD3 
 447      50AF
 448 0bef 1C9A29F4 		.ascii	"\034\232)\364\302},\324\336\244\335\003^\202\213:\311"
 448      C27D2CD4 
 448      DEA4DD03 
 448      5E828B3A 
 448      C9
 449 0c00 C5F40217 		.ascii	"\305\364\002\027\323\202\2137\324\305\354\343\352q\177"
 449      D3828B37 
 449      D4C5ECE3 
 449      EA717F
 450 0c0f BCCD8F7D 		.ascii	"\274\315\217}\252\313\354\252\366\026\\tK.f\026\270"
 450      AACBECAA 
 450      F6165C74 
 450      4B2E6616 
 450      B8
 451 0c20 98115CCC 		.ascii	"\230\021\\\314R\027\215Y\003o\364\270\204\271x\223\323"
 451      52178D59 
 451      036FF4B8 
 451      84B97893 
 451      D3
 452 0c31 77C95F70 		.ascii	"w\311_p\361Fr1\267\300\305\234\340\202\307\304Es\332"
 452      F1467231 
 452      B7C0C59C 
 452      E082C7C4 
 452      4573DA
 453 0c44 F3C5CADD 		.ascii	"\363\305\312\335k\320\355l\222\200\351\356E\256d\223"
 453      6BD0ED6C 
 453      9280E9EE 
 453      45AE6493 
 454 0c54 AEAB19D0 		.ascii	"\256\253\031\320*\311\367\335\310[\005\362VJ\3168:\233"
 454      2AC9F7DD 
 454      C85B05F2 
 454      564ACE38 
 454      3A9B
 455 0c66 AE53927B 		.ascii	"\256S\222{\335\310\211\0029\221\222\257]l\232\320+\311"
 455      DDC88902 
 455      399192AF 
 455      5D6C9AD0 
 455      2BC9
 456 0c78 64B8C9E4 		.ascii	"d\270\311\344$\201\234D\311\243#\267w\032\224\344)7"
 456      24819C44 
 456      C9A323B7 
 456      771A94E4 
 456      2937
 457 0c8a 72B2404E 		.ascii	"r\262@N\246\344\223\007\232\216\372+\311Mn2R\004r\012"
 457      A6E49307 
 457      9A8EFA2B 
 457      C94D6E32 
 457      5204720A 
 458 0c9e 250F3D79 		.ascii	"%\017=y2\314\271}iw#o\023\310\333(99u\356\321\"|\205"
 458      32CCB97D 
 458      6977236F 
ARM GAS  C:\Users\info\AppData\Local\Temp\cc8VD4SC.s 			page 36


 458      13C8DB28 
 458      393975EE 
 459 0cb6 25FF4CEE 		.ascii	"%\377L\356\254K\213o0#%k\256_\217\333\2311\376\274\263"
 459      AC4B8B6F 
 459      3023256B 
 459      AE5F8FDB 
 459      9931FEBC 
 460 0ccb D81BF708 		.ascii	"\330\033\367\010\264\347\245g\374\205\217\243\304\316"
 460      B4E7A567 
 460      FC858FA3 
 460      C4CE
 461 0cd9 3C969A88 		.ascii	"<\226\232\210\360\013Z\351\375\252\270r\273\036\321"
 461      F00B5AE9 
 461      FDAAB872 
 461      BB1ED1
 462 0ce8 97F050F1 		.ascii	"\227\360P\361k\350\207\265\212\257\241\3331F\273\260"
 462      6BE887B5 
 462      8AAFA1DB 
 462      3146BBB0 
 463 0cf8 DAF722F6 		.ascii	"\332\367\"\366\026\353bo\261_\343`z\232E;\004>\351\377"
 463      16EB626F 
 463      B15FE360 
 463      7A9A453B 
 463      043EE9FF 
 464 0d0c DD381465 		.ascii	"\3358\024e\342\020\224\016H\003d`\345[h\3175\351\335"
 464      E210940E 
 464      48036460 
 464      E55B68CF 
 464      35E9DD
 465 0d1f E7CF2A8D 		.ascii	"\347\317*\215(\317\320\2432u\247\012U\371Vw7Mx\215!"
 465      28CFD0A3 
 465      3275A70A 
 465      55F95677 
 465      374D788D 
 466 0d34 079E5481 		.ascii	"\007\236T\201\354\361\010\332\311>\233\001Gy\004%kE"
 466      ECF108DA 
 466      C93E9B01 
 466      47790425 
 466      6B45
 467 0d46 EAE89B00 		.ascii	"\352\350\233\000<A\223\3045\024\327\026\373\243\320"
 467      3C4193C4 
 467      3514D716 
 467      FBA3D0
 468 0d55 A5EC99BC 		.ascii	"\245\354\231\274k!\344\231,\360\273\007K+;q1\357\315"
 468      6B21E499 
 468      2CF0BB07 
 468      4B2B3B71 
 468      31EFCD
 469 0d68 5ECAC95E 		.ascii	"^\312\311^\310\303\367\345\204ta\307\201e\312\201\220"
 469      C8C3F7E5 
 469      847461C7 
 469      8165CA81 
 469      90
 470 0d79 8595DF38 		.ascii	"\205\225\3378\366\011\003a\037\035\010\373\206\006\206"
 470      F6090361 
 470      1F1D08FB 
 470      860686
ARM GAS  C:\Users\info\AppData\Local\Temp\cc8VD4SC.s 			page 37


 471 0d88 DDC6E335 		.ascii	"\335\306\3435\267Q\223-\220\263)\371A\306\323W\334\312"
 471      B751932D 
 471      90B329F9 
 471      41C6D357 
 471      DCCA
 472 0d9a 034C5B2A 		.ascii	"\003L[*L\303\317\336\242\347a\266\025\345`\262Ot\354"
 472      4CC3CFDE 
 472      A2E761B6 
 472      15E560B2 
 472      4F74EC
 473 0dad 2B7FA063 		.ascii	"+\177\240c\034\330}\254\305\251@t\347\345R\336\376\302"
 473      1CD87DAC 
 473      C5A94074 
 473      E7E552DE 
 473      FEC2
 474 0dbf C109C197 		.ascii	"\301\011\301\227\253\\?\237\223G9\347\017\314\316\371"
 474      AB5C3F9F 
 474      934739E7 
 474      0FCCCEF9 
 475 0dcf 089CEA05 		.ascii	"\010\234\352\005\234|\312i\257/I\362\0228m\0138\373"
 475      9C7CCA69 
 475      AF2F49F2 
 475      12386D0B 
 475      38FB
 476 0de1 2967BC67 		.ascii	")g\274gO\035\0228\263\0138\337PNms\336\200^\340\344"
 476      4F1D1238 
 476      B30B38DF 
 476      504E6D73 
 476      DE805EE0 
 477 0df6 FBCDE714 		.ascii	"\373\315\347\024\340\225\232\267\343\326oYo\2140\306"
 477      E0959AB7 
 477      E3D66F59 
 477      6F8C30C6 
 478 0e06 99C3FE6D 		.ascii	"\231\303\376mm\2301\332j\263\206\255[\377\301\373\272"
 478      6D9831DA 
 478      6AB386AD 
 478      5BFFC1FB 
 478      BA
 479 0e17 5FFEE6D3 		.ascii	"_\376\346\323\025\277\010\013\323\370\032\215qV\233"
 479      15BF080B 
 479      D3F81A8D 
 479      71569B
 480 0e26 73BDD199 		.ascii	"s\275\321\231\200\314?\017\217\265\307l\264\233\242"
 480      80CC3F0F 
 480      8FB5C76C 
 480      B49BA2
 481 0e35 57445AA3 		.ascii	"WDZ\243,\216\025\241[\326\177\360/\341\346\370X\273"
 481      2C8E15A1 
 481      5BD67FF0 
 481      2FE1E6F8 
 481      58BB
 482 0e47 C5E1088F 		.ascii	"\305\341\010\217u\304\230W\230\355\026\2233\306\036"
 482      75C49857 
 482      98ED1693 
 482      33C61E
 483 0e56 FEFE9A75 		.ascii	"\376\376\232u\356\005\326\350\330\030\2733|\243-.\334"
 483      EE05D6E8 
ARM GAS  C:\Users\info\AppData\Local\Temp\cc8VD4SC.s 			page 38


 483      D818BB33 
 483      7CA32D2E 
 483      DC
 484 0e67 648F0EFF 		.ascii	"d\217\016\377\3275\357\257\011#w?\265\305\330,?\265"
 484      D735EFAF 
 484      0923773F 
 484      B5C5D82C 
 484      3FB5
 485 0e79 983658C3 		.ascii	"\2306X\303\2556sT\\\204%<\332d\336d\265Y\302\215\021"
 485      AD367354 
 485      5C84253C 
 485      DA64DE64 
 485      B559C28D 
 486 0e8e 9648535C 		.ascii	"\226HS\\\224\323\350\214\217\2658\326l\322\370\010R"
 486      94D3E88C 
 486      8FB538D6 
 486      6CD2F808 
 486      52
 487 0e9f 36FF7F29 		.ascii	"6\377\177)q\304;\302\215\016g\0044\013\315\007DX6\304"
 487      71C43BC2 
 487      8D0E6704 
 487      340BCD07 
 487      445836C4 
 488 0eb3 C4D9CC16 		.ascii	"\304\331\314\026(29-oKf\224\311\3414\306Zm\254\374G"
 488      2832392D 
 488      6F4B6694 
 488      C9E134C6 
 488      5A6DACFC 
 489 0ec8 52B9A85F 		.ascii	"R\271\250_\252\362\333\030k\2151\202F(\325\3079#\327"
 489      AAF2DB18 
 489      6B8D3182 
 489      4628D5C7 
 489      3923D7
 490 0edb B36270BC 		.ascii	"\263bp\274\331\012|SD\004\321\357g]g&\025v\247%\202"
 490      D90A7C53 
 490      4404D1EF 
 490      675D6726 
 490      1576A725 
 491 0ef0 DE0BE541 		.ascii	"\336\013\345AV\20712\306\3464Zm\233-v\207\305\030\035"
 491      56873132 
 491      C6E6345A 
 491      6D9B2D76 
 491      87C5181D 
 492 0f04 1361D16D 		.ascii	"\023a\321m1\306DF:,N\235\305f\216\001\245\033\365\254"
 492      31C64446 
 492      3A2C4E9D 
 492      C5668E01 
 492      A51BF5AC 
 493 0f18 CBC23E30 		.ascii	"\313\302>0:u\342\215\226<\347\273!\316a4G\305\230\277"
 493      3A75E28D 
 493      963CE7BB 
 493      21CE6134 
 493      47C598BF 
 494 0f2c 1028EFAD 		.ascii	"\020(\357\255\023(\344f\011\325f\262E\200\354(S\274"
 494      1328E466 
 494      09D566B2 
 494      4580EC28 
ARM GAS  C:\Users\info\AppData\Local\Temp\cc8VD4SC.s 			page 39


 494      53BC
 495 0f3e D1BCC18F 		.ascii	"\321\274\301\217\016\216h\307F\270\367\331\020\357\264"
 495      0E8E68C7 
 495      46B8F7D9 
 495      10EFB4
 496 0f4d C0D5DB6C 		.ascii	"\300\325\333l\212\200\213>\302\352\210e,\037\233e\213"
 496      8A808B3E 
 496      C2EA8865 
 496      2C1F9B65 
 496      8B
 497 0f5e 13AE06CA 		.ascii	"\023\256\006\3126o2\331\211!\326[m\2211~\261\326-\226"
 497      366F32D9 
 497      8921D65B 
 497      6D91317E 
 497      B1D62D96 
 498 0f72 28E397D6 		.ascii	"(\343\227\326\010\347\246%\221Q\326X\242\333(\352^,"
 498      08E7A625 
 498      9151D658 
 498      A2DB28EA 
 498      5E2C
 499 0f84 66492CF0 		.ascii	"fI,\360sB\227\0327Y\254\03379\365\364\236>\031\364\245"
 499      7342971A 
 499      3759AC1B 
 499      3739F5F4 
 499      9E3E19F4 
 500 0f99 DD0A1262 		.ascii	"\335\012\022b\343\242\034"
 500      E3A21C
 501 0fa0 4289D1E6 		.ascii	"B\211\321\346\010\21409MFx(.\326\350\264F[\240(\210"
 501      088C3039 
 501      4D467828 
 501      2ED6E8B4 
 501      465BA028 
 502 0fb5 644C8AD4 		.ascii	"dL\212\324\030\266v\355\027\277\372J\347\210\265\322"
 502      18B676ED 
 502      17BFFA4A 
 502      E788B5D2 
 503 0fc5 74191C50 		.ascii	"t\031\034P\306j6}\025H\014w\207K\034\021\363\374\005"
 503      C66A367D 
 503      15480C77 
 503      874B1C11 
 503      F3FC05
 504 0fd8 C6C640EF 		.ascii	"\306\306@\357B\376-N\343\227&\253\023\022\022\304,\345"
 504      42FE2D4E 
 504      E39726AB 
 504      131212C4 
 504      2CE5
 505 0fea 93D18EE5 		.ascii	"\223\321\216\3450\366 |k\254\021b7m \262\011\333\006"
 505      30F6207C 
 505      6BAC1162 
 505      376D20B2 
 505      09DB06
 506 0ffd 15C401   		.ascii	"\025\304\001"
 507 1000 ADB1D894 		.ascii	"\255\261\330\224\025\201n\354(\313fK\324\022%\215\226"
 507      15816EEC 
 507      28CB664B 
 507      D412258D 
 507      96
ARM GAS  C:\Users\info\AppData\Local\Temp\cc8VD4SC.s 			page 40


 508 1011 2C673354 		.ascii	",g3T\221N\030\032\3668\263\323\300\262\312\362\024\264"
 508      914E181A 
 508      F638B3D3 
 508      C0B2CAF2 
 508      14B4
 509 1023 664D78DC 		.ascii	"fMx\334\372\215\353\214f\207\335\034N\036\201\361\272"
 509      FA8DEB8C 
 509      6687DD1C 
 509      4E1E81F1 
 509      BA
 510 1034 74E1A34E 		.ascii	"t\341\243N\326\247\314\303Ri\240\262\021I\272\332\233"
 510      D6A7CCC3 
 510      5269A0B2 
 510      1149BADA 
 510      9B
 511 1045 D63B572F 		.ascii	"\326;W/\360\247\262H\2541k\202X\247\303\230\370O[\304"
 511      F0A7B248 
 511      AC316B82 
 511      58A7C398 
 511      F84F5BC4 
 512 1059 277693CD 		.ascii	"'v\223\315\021i\261\353l1V[\024\314\340%R\355\357-\266"
 512      1169B1EB 
 512      6C31565B 
 512      14CCE025 
 512      52EDEF2D 
 513 106e 88FF80AE 		.ascii	"\210\377\200\256Z\354V\362\213\350\210\267\344\0022"
 513      5AEC56F2 
 513      8BE888B7 
 513      E40232
 514 107d E04517EE 		.ascii	"\340E\027\356\274\217\354\033\227\271\025\374\336\362"
 514      BC8FEC1B 
 514      97B915FC 
 514      DEF2
 515 108b 873818EE 		.ascii	"\2078\030\356\226\037\011\3126Y\242b-vE\250V\347\273"
 515      961F09CA 
 515      3659A262 
 515      2D7645A8 
 515      56E7BB
 516 109e EA55AC6B 		.ascii	"\352U\254k\243-\3211\366x\226Z!*e\232Vx\010\230:\006"
 516      A32DD131 
 516      F678965A 
 516      212A659A 
 516      56780898 
 517 10b4 177F58E5 		.ascii	"\027\177X\345\211\020\033\363%\314L\323f\313\332\277"
 517      89101BF3 
 517      25CC4CD3 
 517      66CBDABF 
 518 10c4 8F164668 		.ascii	"\217\026Fh\377\354\211F\346\312\332\357eP\037^[\300"
 518      FFEC8946 
 518      E6CADAEF 
 518      65501F5E 
 518      5BC0
 519 10d6 A9039B6D 		.ascii	"\251\003\233mN\035\2352\261N!\207\324b\375\355\025O"
 519      4E1D9D32 
 519      B14E2187 
 519      D462FDED 
 519      154F
ARM GAS  C:\Users\info\AppData\Local\Temp\cc8VD4SC.s 			page 41


 520 10e8 387E72B1 		.ascii	"8~r\261\363\177\001\353t){"
 520      F37F01EB 
 520      74297B
 521              		.text
 522              		.section	.gnu.lto_.symtab.792a5cc0,"",%progbits
 523 0000 75387838 		.ascii	"u8x8_d_uc1701_mini12864\000"
 523      5F645F75 
 523      63313730 
 523      315F6D69 
 523      6E693132 
 524 0018 00       		.ascii	"\000"
 525 0019 00       		.ascii	"\000"
 526 001a 00       		.ascii	"\000"
 527 001b 00000000 		.ascii	"\000\000\000\000\000\000\000\000"
 527      00000000 
 528 0023 41010000 		.ascii	"A\001\000\000"
 529 0027 75387838 		.ascii	"u8x8_cad_EndTransfer\000"
 529      5F636164 
 529      5F456E64 
 529      5472616E 
 529      73666572 
 530 003c 00       		.ascii	"\000"
 531 003d 02       		.ascii	"\002"
 532 003e 00       		.ascii	"\000"
 533 003f 00000000 		.ascii	"\000\000\000\000\000\000\000\000"
 533      00000000 
 534 0047 47010000 		.ascii	"G\001\000\000"
 535 004b 75387838 		.ascii	"u8x8_cad_SendData\000"
 535      5F636164 
 535      5F53656E 
 535      64446174 
 535      6100
 536 005d 00       		.ascii	"\000"
 537 005e 02       		.ascii	"\002"
 538 005f 00       		.ascii	"\000"
 539 0060 00000000 		.ascii	"\000\000\000\000\000\000\000\000"
 539      00000000 
 540 0068 4F010000 		.ascii	"O\001\000\000"
 541 006c 75387838 		.ascii	"u8x8_cad_SendCmd\000"
 541      5F636164 
 541      5F53656E 
 541      64436D64 
 541      00
 542 007d 00       		.ascii	"\000"
 543 007e 02       		.ascii	"\002"
 544 007f 00       		.ascii	"\000"
 545 0080 00000000 		.ascii	"\000\000\000\000\000\000\000\000"
 545      00000000 
 546 0088 55010000 		.ascii	"U\001\000\000"
 547 008c 75387838 		.ascii	"u8x8_cad_StartTransfer\000"
 547      5F636164 
 547      5F537461 
 547      72745472 
 547      616E7366 
 548 00a3 00       		.ascii	"\000"
 549 00a4 02       		.ascii	"\002"
 550 00a5 00       		.ascii	"\000"
ARM GAS  C:\Users\info\AppData\Local\Temp\cc8VD4SC.s 			page 42


 551 00a6 00000000 		.ascii	"\000\000\000\000\000\000\000\000"
 551      00000000 
 552 00ae 58010000 		.ascii	"X\001\000\000"
 553 00b2 75387838 		.ascii	"u8x8_cad_SendArg\000"
 553      5F636164 
 553      5F53656E 
 553      64417267 
 553      00
 554 00c3 00       		.ascii	"\000"
 555 00c4 02       		.ascii	"\002"
 556 00c5 00       		.ascii	"\000"
 557 00c6 00000000 		.ascii	"\000\000\000\000\000\000\000\000"
 557      00000000 
 558 00ce 5B010000 		.ascii	"[\001\000\000"
 559 00d2 75387838 		.ascii	"u8x8_cad_SendSequence\000"
 559      5F636164 
 559      5F53656E 
 559      64536571 
 559      75656E63 
 560 00e8 00       		.ascii	"\000"
 561 00e9 02       		.ascii	"\002"
 562 00ea 00       		.ascii	"\000"
 563 00eb 00000000 		.ascii	"\000\000\000\000\000\000\000\000"
 563      00000000 
 564 00f3 60010000 		.ascii	"`\001\000\000"
 565 00f7 75387838 		.ascii	"u8x8_d_helper_display_init\000"
 565      5F645F68 
 565      656C7065 
 565      725F6469 
 565      73706C61 
 566 0112 00       		.ascii	"\000"
 567 0113 02       		.ascii	"\002"
 568 0114 00       		.ascii	"\000"
 569 0115 00000000 		.ascii	"\000\000\000\000\000\000\000\000"
 569      00000000 
 570 011d 64010000 		.ascii	"d\001\000\000"
 571 0121 75387838 		.ascii	"u8x8_d_helper_display_setup_memory\000"
 571      5F645F68 
 571      656C7065 
 571      725F6469 
 571      73706C61 
 572 0144 00       		.ascii	"\000"
 573 0145 02       		.ascii	"\002"
 574 0146 00       		.ascii	"\000"
 575 0147 00000000 		.ascii	"\000\000\000\000\000\000\000\000"
 575      00000000 
 576 014f 69010000 		.ascii	"i\001\000\000"
 577              		.text
 578              		.section	.gnu.lto_.opts,"",%progbits
 579 0000 272D666D 		.ascii	"'-fmath-errno' '-fsigned-zeros' '-ftrapping-math' '"
 579      6174682D 
 579      6572726E 
 579      6F272027 
 579      2D667369 
 580 0033 2D666E6F 		.ascii	"-fno-trapv' '-fno-strict-overflow' '-fno-openmp' '-"
 580      2D747261 
 580      70762720 
ARM GAS  C:\Users\info\AppData\Local\Temp\cc8VD4SC.s 			page 43


 580      272D666E 
 580      6F2D7374 
 581 0066 666E6F2D 		.ascii	"fno-openacc' '-mcpu=cortex-m3' '-mthumb' '-g' '-Og'"
 581      6F70656E 
 581      61636327 
 581      20272D6D 
 581      6370753D 
 582 0099 20272D66 		.ascii	" '-ffunction-sections' '-ffat-lto-objects' '-flto'\000"
 582      66756E63 
 582      74696F6E 
 582      2D736563 
 582      74696F6E 
 583              		.text
 584              		.cfi_sections	.debug_frame
 585              		.section	.text.u8x8_d_uc1701_mini12864,"ax",%progbits
 586              		.align	2
 587              		.global	u8x8_d_uc1701_mini12864
 588              		.thumb
 589              		.thumb_func
 590              		.type	u8x8_d_uc1701_mini12864, %function
 591              	u8x8_d_uc1701_mini12864:
 592              	.LFB0:
 593              		.file 1 "..\\u8g2_csrc\\u8x8_d_uc1701_mini12864.c"
   1:..\u8g2_csrc/u8x8_d_uc1701_mini12864.c **** /*
   2:..\u8g2_csrc/u8x8_d_uc1701_mini12864.c **** 
   3:..\u8g2_csrc/u8x8_d_uc1701_mini12864.c ****   u8x8_d_uc1701_mini12864.c (dealextreme, displays from ebay MP3 players)
   4:..\u8g2_csrc/u8x8_d_uc1701_mini12864.c ****   
   5:..\u8g2_csrc/u8x8_d_uc1701_mini12864.c ****   Universal 8bit Graphics Library (https://github.com/olikraus/u8g2/)
   6:..\u8g2_csrc/u8x8_d_uc1701_mini12864.c **** 
   7:..\u8g2_csrc/u8x8_d_uc1701_mini12864.c ****   Copyright (c) 2016, olikraus@gmail.com
   8:..\u8g2_csrc/u8x8_d_uc1701_mini12864.c ****   All rights reserved.
   9:..\u8g2_csrc/u8x8_d_uc1701_mini12864.c **** 
  10:..\u8g2_csrc/u8x8_d_uc1701_mini12864.c ****   Redistribution and use in source and binary forms, with or without modification, 
  11:..\u8g2_csrc/u8x8_d_uc1701_mini12864.c ****   are permitted provided that the following conditions are met:
  12:..\u8g2_csrc/u8x8_d_uc1701_mini12864.c **** 
  13:..\u8g2_csrc/u8x8_d_uc1701_mini12864.c ****   * Redistributions of source code must retain the above copyright notice, this list 
  14:..\u8g2_csrc/u8x8_d_uc1701_mini12864.c ****     of conditions and the following disclaimer.
  15:..\u8g2_csrc/u8x8_d_uc1701_mini12864.c ****     
  16:..\u8g2_csrc/u8x8_d_uc1701_mini12864.c ****   * Redistributions in binary form must reproduce the above copyright notice, this 
  17:..\u8g2_csrc/u8x8_d_uc1701_mini12864.c ****     list of conditions and the following disclaimer in the documentation and/or other 
  18:..\u8g2_csrc/u8x8_d_uc1701_mini12864.c ****     materials provided with the distribution.
  19:..\u8g2_csrc/u8x8_d_uc1701_mini12864.c **** 
  20:..\u8g2_csrc/u8x8_d_uc1701_mini12864.c ****   THIS SOFTWARE IS PROVIDED BY THE COPYRIGHT HOLDERS AND 
  21:..\u8g2_csrc/u8x8_d_uc1701_mini12864.c ****   CONTRIBUTORS "AS IS" AND ANY EXPRESS OR IMPLIED WARRANTIES, 
  22:..\u8g2_csrc/u8x8_d_uc1701_mini12864.c ****   INCLUDING, BUT NOT LIMITED TO, THE IMPLIED WARRANTIES OF 
  23:..\u8g2_csrc/u8x8_d_uc1701_mini12864.c ****   MERCHANTABILITY AND FITNESS FOR A PARTICULAR PURPOSE ARE 
  24:..\u8g2_csrc/u8x8_d_uc1701_mini12864.c ****   DISCLAIMED. IN NO EVENT SHALL THE COPYRIGHT HOLDER OR 
  25:..\u8g2_csrc/u8x8_d_uc1701_mini12864.c ****   CONTRIBUTORS BE LIABLE FOR ANY DIRECT, INDIRECT, INCIDENTAL, 
  26:..\u8g2_csrc/u8x8_d_uc1701_mini12864.c ****   SPECIAL, EXEMPLARY, OR CONSEQUENTIAL DAMAGES (INCLUDING, BUT 
  27:..\u8g2_csrc/u8x8_d_uc1701_mini12864.c ****   NOT LIMITED TO, PROCUREMENT OF SUBSTITUTE GOODS OR SERVICES; 
  28:..\u8g2_csrc/u8x8_d_uc1701_mini12864.c ****   LOSS OF USE, DATA, OR PROFITS; OR BUSINESS INTERRUPTION) HOWEVER 
  29:..\u8g2_csrc/u8x8_d_uc1701_mini12864.c ****   CAUSED AND ON ANY THEORY OF LIABILITY, WHETHER IN CONTRACT, 
  30:..\u8g2_csrc/u8x8_d_uc1701_mini12864.c ****   STRICT LIABILITY, OR TORT (INCLUDING NEGLIGENCE OR OTHERWISE) 
  31:..\u8g2_csrc/u8x8_d_uc1701_mini12864.c ****   ARISING IN ANY WAY OUT OF THE USE OF THIS SOFTWARE, EVEN IF 
  32:..\u8g2_csrc/u8x8_d_uc1701_mini12864.c ****   ADVISED OF THE POSSIBILITY OF SUCH DAMAGE.  
  33:..\u8g2_csrc/u8x8_d_uc1701_mini12864.c **** 
  34:..\u8g2_csrc/u8x8_d_uc1701_mini12864.c ****   
ARM GAS  C:\Users\info\AppData\Local\Temp\cc8VD4SC.s 			page 44


  35:..\u8g2_csrc/u8x8_d_uc1701_mini12864.c **** */
  36:..\u8g2_csrc/u8x8_d_uc1701_mini12864.c **** #include "u8x8.h"
  37:..\u8g2_csrc/u8x8_d_uc1701_mini12864.c **** 
  38:..\u8g2_csrc/u8x8_d_uc1701_mini12864.c **** 
  39:..\u8g2_csrc/u8x8_d_uc1701_mini12864.c **** 
  40:..\u8g2_csrc/u8x8_d_uc1701_mini12864.c **** 
  41:..\u8g2_csrc/u8x8_d_uc1701_mini12864.c **** static const uint8_t u8x8_d_uc1701_mini12864_init_seq[] = {
  42:..\u8g2_csrc/u8x8_d_uc1701_mini12864.c ****     
  43:..\u8g2_csrc/u8x8_d_uc1701_mini12864.c ****   U8X8_START_TRANSFER(),             	/* enable chip, delay is part of the transfer start */
  44:..\u8g2_csrc/u8x8_d_uc1701_mini12864.c ****   
  45:..\u8g2_csrc/u8x8_d_uc1701_mini12864.c ****   U8X8_C(0x0e2),            			/* soft reset */
  46:..\u8g2_csrc/u8x8_d_uc1701_mini12864.c ****   U8X8_C(0x0ae),		                /* display off */
  47:..\u8g2_csrc/u8x8_d_uc1701_mini12864.c ****   U8X8_C(0x040),		                /* set display start line to 0 */
  48:..\u8g2_csrc/u8x8_d_uc1701_mini12864.c ****   
  49:..\u8g2_csrc/u8x8_d_uc1701_mini12864.c ****   U8X8_C(0x0a0),		                /* ADC set to reverse */
  50:..\u8g2_csrc/u8x8_d_uc1701_mini12864.c ****   U8X8_C(0x0c8),		                /* common output mode */
  51:..\u8g2_csrc/u8x8_d_uc1701_mini12864.c ****   
  52:..\u8g2_csrc/u8x8_d_uc1701_mini12864.c ****   U8X8_C(0x0a6),		                /* display normal, bit val 0: LCD pixel off. */
  53:..\u8g2_csrc/u8x8_d_uc1701_mini12864.c ****   U8X8_C(0x0a2),		                /* LCD bias 1/9 */
  54:..\u8g2_csrc/u8x8_d_uc1701_mini12864.c ****   U8X8_C(0x02f),		                /* all power  control circuits on */
  55:..\u8g2_csrc/u8x8_d_uc1701_mini12864.c ****   U8X8_C(0x0f8),		/* set booster ratio to */
  56:..\u8g2_csrc/u8x8_d_uc1701_mini12864.c ****   U8X8_C(0x000),		/* 4x */
  57:..\u8g2_csrc/u8x8_d_uc1701_mini12864.c ****   U8X8_C(0x023),		/* set V0 voltage resistor ratio to large */
  58:..\u8g2_csrc/u8x8_d_uc1701_mini12864.c ****   U8X8_C(0x081),		/* set contrast */
  59:..\u8g2_csrc/u8x8_d_uc1701_mini12864.c ****   U8X8_C(0x027),		/* contrast value */
  60:..\u8g2_csrc/u8x8_d_uc1701_mini12864.c ****   U8X8_C(0x0ac),		/* indicator */
  61:..\u8g2_csrc/u8x8_d_uc1701_mini12864.c ****   //  0x000,		/* disable */
  62:..\u8g2_csrc/u8x8_d_uc1701_mini12864.c ****   
  63:..\u8g2_csrc/u8x8_d_uc1701_mini12864.c ****   U8X8_C(0x0ae),		                /* display off */
  64:..\u8g2_csrc/u8x8_d_uc1701_mini12864.c ****   U8X8_C(0x0a5),		                /* enter powersafe: all pixel on, issue 142 */
  65:..\u8g2_csrc/u8x8_d_uc1701_mini12864.c ****   
  66:..\u8g2_csrc/u8x8_d_uc1701_mini12864.c ****   U8X8_END_TRANSFER(),             	/* disable chip */
  67:..\u8g2_csrc/u8x8_d_uc1701_mini12864.c ****   U8X8_END()             			/* end of sequence */
  68:..\u8g2_csrc/u8x8_d_uc1701_mini12864.c **** };
  69:..\u8g2_csrc/u8x8_d_uc1701_mini12864.c **** 
  70:..\u8g2_csrc/u8x8_d_uc1701_mini12864.c **** static const uint8_t u8x8_d_uc1701_mini12864_powersave0_seq[] = {
  71:..\u8g2_csrc/u8x8_d_uc1701_mini12864.c ****   U8X8_START_TRANSFER(),             	/* enable chip, delay is part of the transfer start */
  72:..\u8g2_csrc/u8x8_d_uc1701_mini12864.c ****   U8X8_C(0x0a4),		                /* all pixel off, issue 142 */
  73:..\u8g2_csrc/u8x8_d_uc1701_mini12864.c ****   U8X8_C(0x0af),		                /* display on */
  74:..\u8g2_csrc/u8x8_d_uc1701_mini12864.c ****   U8X8_END_TRANSFER(),             	/* disable chip */
  75:..\u8g2_csrc/u8x8_d_uc1701_mini12864.c ****   U8X8_END()             			/* end of sequence */
  76:..\u8g2_csrc/u8x8_d_uc1701_mini12864.c **** };
  77:..\u8g2_csrc/u8x8_d_uc1701_mini12864.c **** 
  78:..\u8g2_csrc/u8x8_d_uc1701_mini12864.c **** static const uint8_t u8x8_d_uc1701_mini12864_powersave1_seq[] = {
  79:..\u8g2_csrc/u8x8_d_uc1701_mini12864.c ****   U8X8_START_TRANSFER(),             	/* enable chip, delay is part of the transfer start */
  80:..\u8g2_csrc/u8x8_d_uc1701_mini12864.c ****   U8X8_C(0x0ae),		                /* display off */
  81:..\u8g2_csrc/u8x8_d_uc1701_mini12864.c ****   U8X8_C(0x0a5),		                /* enter powersafe: all pixel on, issue 142 */
  82:..\u8g2_csrc/u8x8_d_uc1701_mini12864.c ****   U8X8_END_TRANSFER(),             	/* disable chip */
  83:..\u8g2_csrc/u8x8_d_uc1701_mini12864.c ****   U8X8_END()             			/* end of sequence */
  84:..\u8g2_csrc/u8x8_d_uc1701_mini12864.c **** };
  85:..\u8g2_csrc/u8x8_d_uc1701_mini12864.c **** 
  86:..\u8g2_csrc/u8x8_d_uc1701_mini12864.c **** static const uint8_t u8x8_d_uc1701_mini12864_flip0_seq[] = {
  87:..\u8g2_csrc/u8x8_d_uc1701_mini12864.c ****   U8X8_START_TRANSFER(),             	/* enable chip, delay is part of the transfer start */
  88:..\u8g2_csrc/u8x8_d_uc1701_mini12864.c ****   U8X8_C(0x0a0),				/* segment remap a0/a1*/
  89:..\u8g2_csrc/u8x8_d_uc1701_mini12864.c ****   U8X8_C(0x0c8),				/* c0: scan dir normal, c8: reverse */
  90:..\u8g2_csrc/u8x8_d_uc1701_mini12864.c ****   U8X8_END_TRANSFER(),             	/* disable chip */
  91:..\u8g2_csrc/u8x8_d_uc1701_mini12864.c ****   U8X8_END()             			/* end of sequence */
ARM GAS  C:\Users\info\AppData\Local\Temp\cc8VD4SC.s 			page 45


  92:..\u8g2_csrc/u8x8_d_uc1701_mini12864.c **** };
  93:..\u8g2_csrc/u8x8_d_uc1701_mini12864.c **** 
  94:..\u8g2_csrc/u8x8_d_uc1701_mini12864.c **** static const uint8_t u8x8_d_uc1701_mini12864_flip1_seq[] = {
  95:..\u8g2_csrc/u8x8_d_uc1701_mini12864.c ****   U8X8_START_TRANSFER(),             	/* enable chip, delay is part of the transfer start */
  96:..\u8g2_csrc/u8x8_d_uc1701_mini12864.c ****   U8X8_C(0x0a1),				/* segment remap a0/a1*/
  97:..\u8g2_csrc/u8x8_d_uc1701_mini12864.c ****   U8X8_C(0x0c0),				/* c0: scan dir normal, c8: reverse */
  98:..\u8g2_csrc/u8x8_d_uc1701_mini12864.c ****   U8X8_END_TRANSFER(),             	/* disable chip */
  99:..\u8g2_csrc/u8x8_d_uc1701_mini12864.c ****   U8X8_END()             			/* end of sequence */
 100:..\u8g2_csrc/u8x8_d_uc1701_mini12864.c **** };
 101:..\u8g2_csrc/u8x8_d_uc1701_mini12864.c **** 
 102:..\u8g2_csrc/u8x8_d_uc1701_mini12864.c **** 
 103:..\u8g2_csrc/u8x8_d_uc1701_mini12864.c **** static const u8x8_display_info_t u8x8_uc1701_display_info =
 104:..\u8g2_csrc/u8x8_d_uc1701_mini12864.c **** {
 105:..\u8g2_csrc/u8x8_d_uc1701_mini12864.c ****   /* chip_enable_level = */ 0,
 106:..\u8g2_csrc/u8x8_d_uc1701_mini12864.c ****   /* chip_disable_level = */ 1,
 107:..\u8g2_csrc/u8x8_d_uc1701_mini12864.c ****   
 108:..\u8g2_csrc/u8x8_d_uc1701_mini12864.c ****   /* post_chip_enable_wait_ns = */ 5,
 109:..\u8g2_csrc/u8x8_d_uc1701_mini12864.c ****   /* pre_chip_disable_wait_ns = */ 5,
 110:..\u8g2_csrc/u8x8_d_uc1701_mini12864.c ****   /* reset_pulse_width_ms = */ 1, 
 111:..\u8g2_csrc/u8x8_d_uc1701_mini12864.c ****   /* post_reset_wait_ms = */ 6, 
 112:..\u8g2_csrc/u8x8_d_uc1701_mini12864.c ****   /* sda_setup_time_ns = */ 12,		
 113:..\u8g2_csrc/u8x8_d_uc1701_mini12864.c ****   /* sck_pulse_width_ns = */ 75,	/* half of cycle time (100ns according to datasheet), AVR: below 7
 114:..\u8g2_csrc/u8x8_d_uc1701_mini12864.c ****   /* sck_clock_hz = */ 4000000UL,	/* since Arduino 1.6.0, the SPI bus speed in Hz. Should be  10000
 115:..\u8g2_csrc/u8x8_d_uc1701_mini12864.c ****   /* spi_mode = */ 0,		/* active high, rising edge */
 116:..\u8g2_csrc/u8x8_d_uc1701_mini12864.c ****   /* i2c_bus_clock_100kHz = */ 4,
 117:..\u8g2_csrc/u8x8_d_uc1701_mini12864.c ****   /* data_setup_time_ns = */ 30,
 118:..\u8g2_csrc/u8x8_d_uc1701_mini12864.c ****   /* write_pulse_width_ns = */ 40,
 119:..\u8g2_csrc/u8x8_d_uc1701_mini12864.c ****   /* tile_width = */ 16,		/* width of 16*8=128 pixel */
 120:..\u8g2_csrc/u8x8_d_uc1701_mini12864.c ****   /* tile_hight = */ 8,
 121:..\u8g2_csrc/u8x8_d_uc1701_mini12864.c ****   /* default_x_offset = */ 0,
 122:..\u8g2_csrc/u8x8_d_uc1701_mini12864.c ****   /* flipmode_x_offset = */ 4,
 123:..\u8g2_csrc/u8x8_d_uc1701_mini12864.c ****   /* pixel_width = */ 128,
 124:..\u8g2_csrc/u8x8_d_uc1701_mini12864.c ****   /* pixel_height = */ 64
 125:..\u8g2_csrc/u8x8_d_uc1701_mini12864.c **** };
 126:..\u8g2_csrc/u8x8_d_uc1701_mini12864.c **** 
 127:..\u8g2_csrc/u8x8_d_uc1701_mini12864.c **** uint8_t u8x8_d_uc1701_mini12864(u8x8_t *u8x8, uint8_t msg, uint8_t arg_int, void *arg_ptr)
 128:..\u8g2_csrc/u8x8_d_uc1701_mini12864.c **** {
 594              		.loc 1 128 0
 595              		.cfi_startproc
 596              		@ args = 0, pretend = 0, frame = 0
 597              		@ frame_needed = 0, uses_anonymous_args = 0
 598              	.LVL0:
 599 0000 2DE9F041 		push	{r4, r5, r6, r7, r8, lr}
 600              		.cfi_def_cfa_offset 24
 601              		.cfi_offset 4, -24
 602              		.cfi_offset 5, -20
 603              		.cfi_offset 6, -16
 604              		.cfi_offset 7, -12
 605              		.cfi_offset 8, -8
 606              		.cfi_offset 14, -4
 607 0004 0546     		mov	r5, r0
 608 0006 1446     		mov	r4, r2
 609 0008 1F46     		mov	r7, r3
 129:..\u8g2_csrc/u8x8_d_uc1701_mini12864.c ****   uint8_t x, c;
 130:..\u8g2_csrc/u8x8_d_uc1701_mini12864.c ****   uint8_t *ptr;
 131:..\u8g2_csrc/u8x8_d_uc1701_mini12864.c ****   switch(msg)
 610              		.loc 1 131 0
ARM GAS  C:\Users\info\AppData\Local\Temp\cc8VD4SC.s 			page 46


 611 000a 0939     		subs	r1, r1, #9
 612              	.LVL1:
 613 000c 0629     		cmp	r1, #6
 614 000e 7CD8     		bhi	.L14
 615 0010 DFE801F0 		tbb	[pc, r1]
 616              	.LVL2:
 617              	.L4:
 618 0014 04       		.byte	(.L3-.L4)/2
 619 0015 0A       		.byte	(.L5-.L4)/2
 620 0016 13       		.byte	(.L6-.L4)/2
 621 0017 7B       		.byte	(.L14-.L4)/2
 622 0018 20       		.byte	(.L7-.L4)/2
 623 0019 35       		.byte	(.L8-.L4)/2
 624 001a 45       		.byte	(.L9-.L4)/2
 625 001b 00       		.p2align 1
 626              	.L3:
 132:..\u8g2_csrc/u8x8_d_uc1701_mini12864.c ****   {
 133:..\u8g2_csrc/u8x8_d_uc1701_mini12864.c ****     case U8X8_MSG_DISPLAY_SETUP_MEMORY:
 134:..\u8g2_csrc/u8x8_d_uc1701_mini12864.c ****       u8x8_d_helper_display_setup_memory(u8x8, &u8x8_uc1701_display_info);
 627              		.loc 1 134 0
 628 001c 3C49     		ldr	r1, .L16
 629 001e FFF7FEFF 		bl	u8x8_d_helper_display_setup_memory
 630              	.LVL3:
 135:..\u8g2_csrc/u8x8_d_uc1701_mini12864.c ****       break;
 136:..\u8g2_csrc/u8x8_d_uc1701_mini12864.c ****     case U8X8_MSG_DISPLAY_INIT:
 137:..\u8g2_csrc/u8x8_d_uc1701_mini12864.c ****       u8x8_d_helper_display_init(u8x8);
 138:..\u8g2_csrc/u8x8_d_uc1701_mini12864.c ****       u8x8_cad_SendSequence(u8x8, u8x8_d_uc1701_mini12864_init_seq);
 139:..\u8g2_csrc/u8x8_d_uc1701_mini12864.c ****       break;
 140:..\u8g2_csrc/u8x8_d_uc1701_mini12864.c ****     case U8X8_MSG_DISPLAY_SET_POWER_SAVE:
 141:..\u8g2_csrc/u8x8_d_uc1701_mini12864.c ****       if ( arg_int == 0 )
 142:..\u8g2_csrc/u8x8_d_uc1701_mini12864.c **** 	u8x8_cad_SendSequence(u8x8, u8x8_d_uc1701_mini12864_powersave0_seq);
 143:..\u8g2_csrc/u8x8_d_uc1701_mini12864.c ****       else
 144:..\u8g2_csrc/u8x8_d_uc1701_mini12864.c **** 	u8x8_cad_SendSequence(u8x8, u8x8_d_uc1701_mini12864_powersave1_seq);
 145:..\u8g2_csrc/u8x8_d_uc1701_mini12864.c ****       break;
 146:..\u8g2_csrc/u8x8_d_uc1701_mini12864.c ****     case U8X8_MSG_DISPLAY_SET_FLIP_MODE:
 147:..\u8g2_csrc/u8x8_d_uc1701_mini12864.c ****       if ( arg_int == 0 )
 148:..\u8g2_csrc/u8x8_d_uc1701_mini12864.c ****       {
 149:..\u8g2_csrc/u8x8_d_uc1701_mini12864.c **** 	u8x8_cad_SendSequence(u8x8, u8x8_d_uc1701_mini12864_flip0_seq);
 150:..\u8g2_csrc/u8x8_d_uc1701_mini12864.c **** 	u8x8->x_offset = u8x8->display_info->default_x_offset;
 151:..\u8g2_csrc/u8x8_d_uc1701_mini12864.c ****       }
 152:..\u8g2_csrc/u8x8_d_uc1701_mini12864.c ****       else
 153:..\u8g2_csrc/u8x8_d_uc1701_mini12864.c ****       {
 154:..\u8g2_csrc/u8x8_d_uc1701_mini12864.c **** 	u8x8_cad_SendSequence(u8x8, u8x8_d_uc1701_mini12864_flip1_seq);
 155:..\u8g2_csrc/u8x8_d_uc1701_mini12864.c **** 	u8x8->x_offset = u8x8->display_info->flipmode_x_offset;
 156:..\u8g2_csrc/u8x8_d_uc1701_mini12864.c ****       }	
 157:..\u8g2_csrc/u8x8_d_uc1701_mini12864.c ****       break;
 158:..\u8g2_csrc/u8x8_d_uc1701_mini12864.c **** #ifdef U8X8_WITH_SET_CONTRAST
 159:..\u8g2_csrc/u8x8_d_uc1701_mini12864.c ****     case U8X8_MSG_DISPLAY_SET_CONTRAST:
 160:..\u8g2_csrc/u8x8_d_uc1701_mini12864.c ****       u8x8_cad_StartTransfer(u8x8);
 161:..\u8g2_csrc/u8x8_d_uc1701_mini12864.c ****       u8x8_cad_SendCmd(u8x8, 0x081 );
 162:..\u8g2_csrc/u8x8_d_uc1701_mini12864.c ****       u8x8_cad_SendArg(u8x8, arg_int >> 2 );	/* uc1701 has range from 0 to 63 */
 163:..\u8g2_csrc/u8x8_d_uc1701_mini12864.c ****       u8x8_cad_EndTransfer(u8x8);
 164:..\u8g2_csrc/u8x8_d_uc1701_mini12864.c ****       break;
 165:..\u8g2_csrc/u8x8_d_uc1701_mini12864.c **** #endif
 166:..\u8g2_csrc/u8x8_d_uc1701_mini12864.c ****     case U8X8_MSG_DISPLAY_DRAW_TILE:
 167:..\u8g2_csrc/u8x8_d_uc1701_mini12864.c ****       u8x8_cad_StartTransfer(u8x8);
 168:..\u8g2_csrc/u8x8_d_uc1701_mini12864.c ****     
ARM GAS  C:\Users\info\AppData\Local\Temp\cc8VD4SC.s 			page 47


 169:..\u8g2_csrc/u8x8_d_uc1701_mini12864.c ****       x = ((u8x8_tile_t *)arg_ptr)->x_pos;
 170:..\u8g2_csrc/u8x8_d_uc1701_mini12864.c ****       x *= 8;
 171:..\u8g2_csrc/u8x8_d_uc1701_mini12864.c ****       x += u8x8->x_offset;
 172:..\u8g2_csrc/u8x8_d_uc1701_mini12864.c ****       u8x8_cad_SendCmd(u8x8, 0x010 | (x>>4) );
 173:..\u8g2_csrc/u8x8_d_uc1701_mini12864.c ****       u8x8_cad_SendCmd(u8x8, 0x000 | ((x&15)));
 174:..\u8g2_csrc/u8x8_d_uc1701_mini12864.c ****       u8x8_cad_SendCmd(u8x8, 0x0b0 | (((u8x8_tile_t *)arg_ptr)->y_pos));
 175:..\u8g2_csrc/u8x8_d_uc1701_mini12864.c ****     
 176:..\u8g2_csrc/u8x8_d_uc1701_mini12864.c ****       c = ((u8x8_tile_t *)arg_ptr)->cnt;
 177:..\u8g2_csrc/u8x8_d_uc1701_mini12864.c ****       c *= 8;
 178:..\u8g2_csrc/u8x8_d_uc1701_mini12864.c ****       ptr = ((u8x8_tile_t *)arg_ptr)->tile_ptr;
 179:..\u8g2_csrc/u8x8_d_uc1701_mini12864.c ****       /* 
 180:..\u8g2_csrc/u8x8_d_uc1701_mini12864.c **** 	The following if condition checks the hardware limits of the uc1701 
 181:..\u8g2_csrc/u8x8_d_uc1701_mini12864.c **** 	controller: It is not allowed to write beyond the display limits.
 182:..\u8g2_csrc/u8x8_d_uc1701_mini12864.c **** 	This is in fact an issue within flip mode.
 183:..\u8g2_csrc/u8x8_d_uc1701_mini12864.c ****     
 184:..\u8g2_csrc/u8x8_d_uc1701_mini12864.c **** 	bug: this check should be inside the while loop, see u8x8_d_pcd8544_84x48.c 
 185:..\u8g2_csrc/u8x8_d_uc1701_mini12864.c ****       */
 186:..\u8g2_csrc/u8x8_d_uc1701_mini12864.c ****       if ( c + x > 132u )
 187:..\u8g2_csrc/u8x8_d_uc1701_mini12864.c ****       {
 188:..\u8g2_csrc/u8x8_d_uc1701_mini12864.c **** 	c = 132u;
 189:..\u8g2_csrc/u8x8_d_uc1701_mini12864.c **** 	c -= x;
 190:..\u8g2_csrc/u8x8_d_uc1701_mini12864.c ****       }
 191:..\u8g2_csrc/u8x8_d_uc1701_mini12864.c ****       do
 192:..\u8g2_csrc/u8x8_d_uc1701_mini12864.c ****       {
 193:..\u8g2_csrc/u8x8_d_uc1701_mini12864.c **** 	u8x8_cad_SendData(u8x8, c, ptr);	/* note: SendData can not handle more than 255 bytes */
 194:..\u8g2_csrc/u8x8_d_uc1701_mini12864.c **** 	arg_int--;
 195:..\u8g2_csrc/u8x8_d_uc1701_mini12864.c ****       } while( arg_int > 0 );
 196:..\u8g2_csrc/u8x8_d_uc1701_mini12864.c ****       
 197:..\u8g2_csrc/u8x8_d_uc1701_mini12864.c ****       u8x8_cad_EndTransfer(u8x8);
 198:..\u8g2_csrc/u8x8_d_uc1701_mini12864.c ****       break;
 199:..\u8g2_csrc/u8x8_d_uc1701_mini12864.c ****     default:
 200:..\u8g2_csrc/u8x8_d_uc1701_mini12864.c ****       return 0;
 201:..\u8g2_csrc/u8x8_d_uc1701_mini12864.c ****   }
 202:..\u8g2_csrc/u8x8_d_uc1701_mini12864.c ****   return 1;
 631              		.loc 1 202 0
 632 0022 0120     		movs	r0, #1
 135:..\u8g2_csrc/u8x8_d_uc1701_mini12864.c ****       break;
 633              		.loc 1 135 0
 634 0024 BDE8F081 		pop	{r4, r5, r6, r7, r8, pc}
 635              	.LVL4:
 636              	.L5:
 137:..\u8g2_csrc/u8x8_d_uc1701_mini12864.c ****       u8x8_cad_SendSequence(u8x8, u8x8_d_uc1701_mini12864_init_seq);
 637              		.loc 1 137 0
 638 0028 FFF7FEFF 		bl	u8x8_d_helper_display_init
 639              	.LVL5:
 138:..\u8g2_csrc/u8x8_d_uc1701_mini12864.c ****       break;
 640              		.loc 1 138 0
 641 002c 3949     		ldr	r1, .L16+4
 642 002e 2846     		mov	r0, r5
 643 0030 FFF7FEFF 		bl	u8x8_cad_SendSequence
 644              	.LVL6:
 645              		.loc 1 202 0
 646 0034 0120     		movs	r0, #1
 139:..\u8g2_csrc/u8x8_d_uc1701_mini12864.c ****     case U8X8_MSG_DISPLAY_SET_POWER_SAVE:
 647              		.loc 1 139 0
 648 0036 BDE8F081 		pop	{r4, r5, r6, r7, r8, pc}
 649              	.LVL7:
ARM GAS  C:\Users\info\AppData\Local\Temp\cc8VD4SC.s 			page 48


 650              	.L6:
 141:..\u8g2_csrc/u8x8_d_uc1701_mini12864.c **** 	u8x8_cad_SendSequence(u8x8, u8x8_d_uc1701_mini12864_powersave0_seq);
 651              		.loc 1 141 0
 652 003a 2AB9     		cbnz	r2, .L10
 142:..\u8g2_csrc/u8x8_d_uc1701_mini12864.c ****       else
 653              		.loc 1 142 0
 654 003c 3649     		ldr	r1, .L16+8
 655 003e FFF7FEFF 		bl	u8x8_cad_SendSequence
 656              	.LVL8:
 657              		.loc 1 202 0
 658 0042 0120     		movs	r0, #1
 659 0044 BDE8F081 		pop	{r4, r5, r6, r7, r8, pc}
 660              	.LVL9:
 661              	.L10:
 144:..\u8g2_csrc/u8x8_d_uc1701_mini12864.c ****       break;
 662              		.loc 1 144 0
 663 0048 3449     		ldr	r1, .L16+12
 664 004a FFF7FEFF 		bl	u8x8_cad_SendSequence
 665              	.LVL10:
 666              		.loc 1 202 0
 667 004e 0120     		movs	r0, #1
 668 0050 BDE8F081 		pop	{r4, r5, r6, r7, r8, pc}
 669              	.LVL11:
 670              	.L7:
 147:..\u8g2_csrc/u8x8_d_uc1701_mini12864.c ****       {
 671              		.loc 1 147 0
 672 0054 4AB9     		cbnz	r2, .L11
 149:..\u8g2_csrc/u8x8_d_uc1701_mini12864.c **** 	u8x8->x_offset = u8x8->display_info->default_x_offset;
 673              		.loc 1 149 0
 674 0056 3249     		ldr	r1, .L16+16
 675 0058 FFF7FEFF 		bl	u8x8_cad_SendSequence
 676              	.LVL12:
 150:..\u8g2_csrc/u8x8_d_uc1701_mini12864.c ****       }
 677              		.loc 1 150 0
 678 005c 2B68     		ldr	r3, [r5]
 679 005e 9B7C     		ldrb	r3, [r3, #18]	@ zero_extendqisi2
 680 0060 85F82230 		strb	r3, [r5, #34]
 681              		.loc 1 202 0
 682 0064 0120     		movs	r0, #1
 683 0066 BDE8F081 		pop	{r4, r5, r6, r7, r8, pc}
 684              	.LVL13:
 685              	.L11:
 154:..\u8g2_csrc/u8x8_d_uc1701_mini12864.c **** 	u8x8->x_offset = u8x8->display_info->flipmode_x_offset;
 686              		.loc 1 154 0
 687 006a 2E49     		ldr	r1, .L16+20
 688 006c FFF7FEFF 		bl	u8x8_cad_SendSequence
 689              	.LVL14:
 155:..\u8g2_csrc/u8x8_d_uc1701_mini12864.c ****       }	
 690              		.loc 1 155 0
 691 0070 2B68     		ldr	r3, [r5]
 692 0072 DB7C     		ldrb	r3, [r3, #19]	@ zero_extendqisi2
 693 0074 85F82230 		strb	r3, [r5, #34]
 694              		.loc 1 202 0
 695 0078 0120     		movs	r0, #1
 696 007a BDE8F081 		pop	{r4, r5, r6, r7, r8, pc}
 697              	.LVL15:
 698              	.L8:
ARM GAS  C:\Users\info\AppData\Local\Temp\cc8VD4SC.s 			page 49


 160:..\u8g2_csrc/u8x8_d_uc1701_mini12864.c ****       u8x8_cad_SendCmd(u8x8, 0x081 );
 699              		.loc 1 160 0
 700 007e FFF7FEFF 		bl	u8x8_cad_StartTransfer
 701              	.LVL16:
 161:..\u8g2_csrc/u8x8_d_uc1701_mini12864.c ****       u8x8_cad_SendArg(u8x8, arg_int >> 2 );	/* uc1701 has range from 0 to 63 */
 702              		.loc 1 161 0
 703 0082 8121     		movs	r1, #129
 704 0084 2846     		mov	r0, r5
 705 0086 FFF7FEFF 		bl	u8x8_cad_SendCmd
 706              	.LVL17:
 162:..\u8g2_csrc/u8x8_d_uc1701_mini12864.c ****       u8x8_cad_EndTransfer(u8x8);
 707              		.loc 1 162 0
 708 008a A108     		lsrs	r1, r4, #2
 709 008c 2846     		mov	r0, r5
 710 008e FFF7FEFF 		bl	u8x8_cad_SendArg
 711              	.LVL18:
 163:..\u8g2_csrc/u8x8_d_uc1701_mini12864.c ****       break;
 712              		.loc 1 163 0
 713 0092 2846     		mov	r0, r5
 714 0094 FFF7FEFF 		bl	u8x8_cad_EndTransfer
 715              	.LVL19:
 716              		.loc 1 202 0
 717 0098 0120     		movs	r0, #1
 164:..\u8g2_csrc/u8x8_d_uc1701_mini12864.c **** #endif
 718              		.loc 1 164 0
 719 009a BDE8F081 		pop	{r4, r5, r6, r7, r8, pc}
 720              	.LVL20:
 721              	.L9:
 167:..\u8g2_csrc/u8x8_d_uc1701_mini12864.c ****     
 722              		.loc 1 167 0
 723 009e FFF7FEFF 		bl	u8x8_cad_StartTransfer
 724              	.LVL21:
 169:..\u8g2_csrc/u8x8_d_uc1701_mini12864.c ****       x *= 8;
 725              		.loc 1 169 0
 726 00a2 7B79     		ldrb	r3, [r7, #5]	@ zero_extendqisi2
 727              	.LVL22:
 170:..\u8g2_csrc/u8x8_d_uc1701_mini12864.c ****       x += u8x8->x_offset;
 728              		.loc 1 170 0
 729 00a4 DB00     		lsls	r3, r3, #3
 730              	.LVL23:
 731 00a6 DBB2     		uxtb	r3, r3
 732              	.LVL24:
 171:..\u8g2_csrc/u8x8_d_uc1701_mini12864.c ****       u8x8_cad_SendCmd(u8x8, 0x010 | (x>>4) );
 733              		.loc 1 171 0
 734 00a8 95F82280 		ldrb	r8, [r5, #34]	@ zero_extendqisi2
 735 00ac 9844     		add	r8, r8, r3
 736 00ae 5FFA88F8 		uxtb	r8, r8
 737              	.LVL25:
 172:..\u8g2_csrc/u8x8_d_uc1701_mini12864.c ****       u8x8_cad_SendCmd(u8x8, 0x000 | ((x&15)));
 738              		.loc 1 172 0
 739 00b2 4FEA1811 		lsr	r1, r8, #4
 740 00b6 41F01001 		orr	r1, r1, #16
 741 00ba 2846     		mov	r0, r5
 742 00bc FFF7FEFF 		bl	u8x8_cad_SendCmd
 743              	.LVL26:
 173:..\u8g2_csrc/u8x8_d_uc1701_mini12864.c ****       u8x8_cad_SendCmd(u8x8, 0x0b0 | (((u8x8_tile_t *)arg_ptr)->y_pos));
 744              		.loc 1 173 0
ARM GAS  C:\Users\info\AppData\Local\Temp\cc8VD4SC.s 			page 50


 745 00c0 08F00F01 		and	r1, r8, #15
 746 00c4 2846     		mov	r0, r5
 747 00c6 FFF7FEFF 		bl	u8x8_cad_SendCmd
 748              	.LVL27:
 174:..\u8g2_csrc/u8x8_d_uc1701_mini12864.c ****     
 749              		.loc 1 174 0
 750 00ca B979     		ldrb	r1, [r7, #6]	@ zero_extendqisi2
 751 00cc 41F0B001 		orr	r1, r1, #176
 752 00d0 2846     		mov	r0, r5
 753 00d2 FFF7FEFF 		bl	u8x8_cad_SendCmd
 754              	.LVL28:
 176:..\u8g2_csrc/u8x8_d_uc1701_mini12864.c ****       c *= 8;
 755              		.loc 1 176 0
 756 00d6 3E79     		ldrb	r6, [r7, #4]	@ zero_extendqisi2
 757              	.LVL29:
 177:..\u8g2_csrc/u8x8_d_uc1701_mini12864.c ****       ptr = ((u8x8_tile_t *)arg_ptr)->tile_ptr;
 758              		.loc 1 177 0
 759 00d8 F600     		lsls	r6, r6, #3
 760              	.LVL30:
 761 00da F6B2     		uxtb	r6, r6
 762              	.LVL31:
 178:..\u8g2_csrc/u8x8_d_uc1701_mini12864.c ****       /* 
 763              		.loc 1 178 0
 764 00dc 3F68     		ldr	r7, [r7]
 765              	.LVL32:
 186:..\u8g2_csrc/u8x8_d_uc1701_mini12864.c ****       {
 766              		.loc 1 186 0
 767 00de 06EB0803 		add	r3, r6, r8
 768 00e2 842B     		cmp	r3, #132
 769 00e4 02D9     		bls	.L13
 770              	.LVL33:
 189:..\u8g2_csrc/u8x8_d_uc1701_mini12864.c ****       }
 771              		.loc 1 189 0
 772 00e6 C8F18406 		rsb	r6, r8, #132
 773 00ea F6B2     		uxtb	r6, r6
 774              	.LVL34:
 775              	.L13:
 193:..\u8g2_csrc/u8x8_d_uc1701_mini12864.c **** 	arg_int--;
 776              		.loc 1 193 0 discriminator 1
 777 00ec 3A46     		mov	r2, r7
 778 00ee 3146     		mov	r1, r6
 779 00f0 2846     		mov	r0, r5
 780 00f2 FFF7FEFF 		bl	u8x8_cad_SendData
 781              	.LVL35:
 194:..\u8g2_csrc/u8x8_d_uc1701_mini12864.c ****       } while( arg_int > 0 );
 782              		.loc 1 194 0 discriminator 1
 783 00f6 621E     		subs	r2, r4, #1
 784              	.LVL36:
 195:..\u8g2_csrc/u8x8_d_uc1701_mini12864.c ****       
 785              		.loc 1 195 0 discriminator 1
 786 00f8 12F0FF04 		ands	r4, r2, #255
 787 00fc F6D1     		bne	.L13
 197:..\u8g2_csrc/u8x8_d_uc1701_mini12864.c ****       break;
 788              		.loc 1 197 0
 789 00fe 2846     		mov	r0, r5
 790 0100 FFF7FEFF 		bl	u8x8_cad_EndTransfer
 791              	.LVL37:
ARM GAS  C:\Users\info\AppData\Local\Temp\cc8VD4SC.s 			page 51


 792              		.loc 1 202 0
 793 0104 0120     		movs	r0, #1
 198:..\u8g2_csrc/u8x8_d_uc1701_mini12864.c ****     default:
 794              		.loc 1 198 0
 795 0106 BDE8F081 		pop	{r4, r5, r6, r7, r8, pc}
 796              	.LVL38:
 797              	.L14:
 200:..\u8g2_csrc/u8x8_d_uc1701_mini12864.c ****   }
 798              		.loc 1 200 0
 799 010a 0020     		movs	r0, #0
 800              	.LVL39:
 203:..\u8g2_csrc/u8x8_d_uc1701_mini12864.c **** }
 801              		.loc 1 203 0
 802 010c BDE8F081 		pop	{r4, r5, r6, r7, r8, pc}
 803              	.LVL40:
 804              	.L17:
 805              		.align	2
 806              	.L16:
 807 0110 00000000 		.word	.LANCHOR0
 808 0114 18000000 		.word	.LANCHOR0+24
 809 0118 3C000000 		.word	.LANCHOR0+60
 810 011c 44000000 		.word	.LANCHOR0+68
 811 0120 4C000000 		.word	.LANCHOR0+76
 812 0124 54000000 		.word	.LANCHOR0+84
 813              		.cfi_endproc
 814              	.LFE0:
 815              		.size	u8x8_d_uc1701_mini12864, .-u8x8_d_uc1701_mini12864
 816              		.section	.rodata
 817              		.align	2
 818              		.set	.LANCHOR0,. + 0
 819              		.type	u8x8_uc1701_display_info, %object
 820              		.size	u8x8_uc1701_display_info, 24
 821              	u8x8_uc1701_display_info:
 822 0000 00       		.byte	0
 823 0001 01       		.byte	1
 824 0002 05       		.byte	5
 825 0003 05       		.byte	5
 826 0004 01       		.byte	1
 827 0005 06       		.byte	6
 828 0006 0C       		.byte	12
 829 0007 4B       		.byte	75
 830 0008 00093D00 		.word	4000000
 831 000c 00       		.byte	0
 832 000d 04       		.byte	4
 833 000e 1E       		.byte	30
 834 000f 28       		.byte	40
 835 0010 10       		.byte	16
 836 0011 08       		.byte	8
 837 0012 00       		.byte	0
 838 0013 04       		.byte	4
 839 0014 8000     		.short	128
 840 0016 4000     		.short	64
 841              		.type	u8x8_d_uc1701_mini12864_init_seq, %object
 842              		.size	u8x8_d_uc1701_mini12864_init_seq, 35
 843              	u8x8_d_uc1701_mini12864_init_seq:
 844 0018 18       		.byte	24
 845 0019 15       		.byte	21
ARM GAS  C:\Users\info\AppData\Local\Temp\cc8VD4SC.s 			page 52


 846 001a E2       		.byte	-30
 847 001b 15       		.byte	21
 848 001c AE       		.byte	-82
 849 001d 15       		.byte	21
 850 001e 40       		.byte	64
 851 001f 15       		.byte	21
 852 0020 A0       		.byte	-96
 853 0021 15       		.byte	21
 854 0022 C8       		.byte	-56
 855 0023 15       		.byte	21
 856 0024 A6       		.byte	-90
 857 0025 15       		.byte	21
 858 0026 A2       		.byte	-94
 859 0027 15       		.byte	21
 860 0028 2F       		.byte	47
 861 0029 15       		.byte	21
 862 002a F8       		.byte	-8
 863 002b 15       		.byte	21
 864 002c 00       		.byte	0
 865 002d 15       		.byte	21
 866 002e 23       		.byte	35
 867 002f 15       		.byte	21
 868 0030 81       		.byte	-127
 869 0031 15       		.byte	21
 870 0032 27       		.byte	39
 871 0033 15       		.byte	21
 872 0034 AC       		.byte	-84
 873 0035 15       		.byte	21
 874 0036 AE       		.byte	-82
 875 0037 15       		.byte	21
 876 0038 A5       		.byte	-91
 877 0039 19       		.byte	25
 878 003a FF       		.byte	-1
 879 003b 00       		.space	1
 880              		.type	u8x8_d_uc1701_mini12864_powersave0_seq, %object
 881              		.size	u8x8_d_uc1701_mini12864_powersave0_seq, 7
 882              	u8x8_d_uc1701_mini12864_powersave0_seq:
 883 003c 18       		.byte	24
 884 003d 15       		.byte	21
 885 003e A4       		.byte	-92
 886 003f 15       		.byte	21
 887 0040 AF       		.byte	-81
 888 0041 19       		.byte	25
 889 0042 FF       		.byte	-1
 890 0043 00       		.space	1
 891              		.type	u8x8_d_uc1701_mini12864_powersave1_seq, %object
 892              		.size	u8x8_d_uc1701_mini12864_powersave1_seq, 7
 893              	u8x8_d_uc1701_mini12864_powersave1_seq:
 894 0044 18       		.byte	24
 895 0045 15       		.byte	21
 896 0046 AE       		.byte	-82
 897 0047 15       		.byte	21
 898 0048 A5       		.byte	-91
 899 0049 19       		.byte	25
 900 004a FF       		.byte	-1
 901 004b 00       		.space	1
 902              		.type	u8x8_d_uc1701_mini12864_flip0_seq, %object
ARM GAS  C:\Users\info\AppData\Local\Temp\cc8VD4SC.s 			page 53


 903              		.size	u8x8_d_uc1701_mini12864_flip0_seq, 7
 904              	u8x8_d_uc1701_mini12864_flip0_seq:
 905 004c 18       		.byte	24
 906 004d 15       		.byte	21
 907 004e A0       		.byte	-96
 908 004f 15       		.byte	21
 909 0050 C8       		.byte	-56
 910 0051 19       		.byte	25
 911 0052 FF       		.byte	-1
 912 0053 00       		.space	1
 913              		.type	u8x8_d_uc1701_mini12864_flip1_seq, %object
 914              		.size	u8x8_d_uc1701_mini12864_flip1_seq, 7
 915              	u8x8_d_uc1701_mini12864_flip1_seq:
 916 0054 18       		.byte	24
 917 0055 15       		.byte	21
 918 0056 A1       		.byte	-95
 919 0057 15       		.byte	21
 920 0058 C0       		.byte	-64
 921 0059 19       		.byte	25
 922 005a FF       		.byte	-1
 923              		.text
 924              	.Letext0:
 925              		.file 2 "c:\\program files (x86)\\cypress\\psoc creator\\4.2\\psoc creator\\import\\gnu\\arm\\5.4.
 926              		.file 3 "c:\\program files (x86)\\cypress\\psoc creator\\4.2\\psoc creator\\import\\gnu\\arm\\5.4.
 927              		.file 4 "..\\u8g2_csrc\\u8x8.h"