ARM GAS  C:\Users\info\AppData\Local\Temp\cckGqDON.s 			page 1


   1              		.syntax unified
   2              		.cpu cortex-m3
   3              		.fpu softvfp
   4              		.eabi_attribute 20, 1
   5              		.eabi_attribute 21, 1
   6              		.eabi_attribute 23, 3
   7              		.eabi_attribute 24, 1
   8              		.eabi_attribute 25, 1
   9              		.eabi_attribute 26, 1
  10              		.eabi_attribute 30, 1
  11              		.eabi_attribute 34, 1
  12              		.eabi_attribute 18, 4
  13              		.thumb
  14              		.syntax unified
  15              		.file	"u8x8_debounce.c"
  16              		.text
  17              	.Ltext0:
  18              		.section	.gnu.lto_.profile.792a6170,"",%progbits
  19 0000 789C6361 		.ascii	"x\234ca`d`a`\000\222\221\216\000\001]\000\245"
  19      60646061 
  19      60009291 
  19      8E00015D 
  19      00A5
  20              		.text
  21              		.section	.gnu.lto_.inline.792a6170,"",%progbits
  22 0000 789C6361 		.ascii	"x\234ca`d\000\201\010\006\004`f`\340\326dd`\022xt\223"
  22      60640081 
  22      08060460 
  22      6660E0D6 
  22      64646012 
  23 0017 85816D81 		.ascii	"\205\201m\201<\023H\220\221A\240\203\021$\370\241\207"
  23      3C134890 
  23      9141A083 
  23      1124F8A1 
  23      87
  24 0028 8D81E357 		.ascii	"\215\201\343W\015X\220\205\227\221\201\271\231w\202"
  24      0D589085 
  24      979181B9 
  24      997782
  25 0037 1F031383 		.ascii	"\037\003\023\203\2168P\326lC!\203\310\004S\250$\003"
  25      8E3850D6 
  25      6C432183 
  25      C80453A8 
  25      2403
  26 0049 03D304BF 		.ascii	"\003\323\004\277\011~\314<@\355@5\000f$\015\227"
  26      097ECC3C 
  26      40ED4035 
  26      0066240D 
  26      97
  27              		.text
  28              		.section	.gnu.lto_.jmpfuncs.792a6170,"",%progbits
  29 0000 789C6361 		.ascii	"x\234ca`d\000\001>\006\004`\006b\220(\023\230\007\000"
  29      60640001 
  29      3E060460 
  29      06629028 
  29      13980700 
  30 0014 0276001A 		.ascii	"\002v\000\032"
ARM GAS  C:\Users\info\AppData\Local\Temp\cckGqDON.s 			page 2


  31              		.text
  32              		.section	.gnu.lto_.pureconst.792a6170,"",%progbits
  33 0000 789C6361 		.ascii	"x\234ca`d`g```f``\224b\222\002\000\001*\000G"
  33      60646067 
  33      60606066 
  33      60609462 
  33      92020001 
  34              		.text
  35              		.section	.gnu.lto_u8x8_find_first_diff.792a6170,"",%progbits
  36 0000 789C6D52 		.ascii	"x\234mR\315KTQ\024\277\347\236\367\256oF\307Z\270ha"
  36      CD4B5451 
  36      14BFE79E 
  36      F7AE6F46 
  36      C75AB868 
  37 0015 20D124B6 		.ascii	" \321$\266\220\276\026\256\202\376\205\226R\210N\222"
  37      90BE16AE 
  37      82FE8596 
  37      52884E92 
  38 0025 11152482 		.ascii	"\021\025$\202\273\256\276\351E`\220\221\232 \030\224"
  38      BBAEBEE9 
  38      45609091 
  38      9A201894 
  39 0035 69A68DD3 		.ascii	"i\246\215\323hPA<?\232\"\007#\2026mlbZT\224#}\220\230"
  39      6850413C 
  39      3F9A2207 
  39      2382366D 
  39      6C625A54 
  40 004e D339F7CD 		.ascii	"\3239\367\315\224P\027f\356\327\357\353\234\373,\001"
  40      94501766 
  40      EED7EFEB 
  40      9CFB2C01 
  41 005e 82471485 		.ascii	"\202G\024\205\330Ms#\375\240L\200\274\274$D\227#\001"
  41      D84D7323 
  41      FDA04C80 
  41      BCBC2444 
  41      972301
  42 0071 83054A7B 		.ascii	"\203\005J{\016\205\016[K\317\205\320\025\226T\227fi"
  42      0E850E5B 
  42      4BCF85D0 
  42      15965497 
  42      6669
  43 0083 11B6DD08 		.ascii	"\021\266\335\010mU\000;d\003\360\254\035\020\347$Z\312"
  43      6D55003B 
  43      6403F0AC 
  43      1D10E724 
  43      5ACA
  44 0095 069A04F8 		.ascii	"\006\232\004\370\026\330\306\345\233\374%a\361\307\263"
  44      16D8C6E5 
  44      9BFC2561 
  44      F1C7B3
  45 00a4 9E70DDA8 		.ascii	"\236p\335\250\326\335z97\\50\346\303yr/H\001\373\253"
  45      D6DD7A39 
  45      375C3530 
  45      E6C37972 
  45      2F4801FB 
  46 00b9 614F3527 		.ascii	"aO5'\030\205:B.\367\334\237\214`\015\010Z?\271\036\177"
  46      18853A42 
ARM GAS  C:\Users\info\AppData\Local\Temp\cckGqDON.s 			page 3


  46      2EF7DC9F 
  46      8C600D08 
  46      5A3FB91E 
  47 00ce 59593BC2 		.ascii	"YY;\302,\375\350\250F\242\300\030\340_\026k\300m\250"
  47      2CFDE8A8 
  47      46A2C018 
  47      E05F166B 
  47      C06DA8
  48 00e1 25EC9037 		.ascii	"%\354\2207\236C\334ax\037\275\325\317%^\276\310\033"
  48      9E43DC61 
  48      781FBDD5 
  48      CF255EBE 
  48      C81B
  49 00f3 FF877707 		.ascii	"\377\207w\007j\031<\2628\377\270\022w\032\342\315\354"
  49      6A193CB2 
  49      38FFB812 
  49      771AE2CD 
  49      EC
  50 0104 F0558CDE 		.ascii	"\360U\214\336`\242\337\227\216\014h\277\253\206\311"
  50      60A2DF97 
  50      8E0C68BF 
  50      AB86C9
  51 0113 139BC93C 		.ascii	"\023\233\311<\010[\2705u\321\301]\2067\367}\271\327"
  51      085BB835 
  51      75D1C15D 
  51      8637F77D 
  51      B9D7
  52 0125 2AF2AEA4 		.ascii	"*\362\256\244\313\365\224v\230v\367?\264lr\243/\242"
  52      CBF59476 
  52      9876F73F 
  52      B46C72A3 
  52      2FA2
  53 0137 E29A460D 		.ascii	"\342\232F\015$ \012\223\020\345>P\240)P\3640\262t\232"
  53      24200A93 
  53      10E53E50 
  53      A02950F4 
  53      30B2749A 
  54 014b 38ECEB42 		.ascii	"8\354\353B\301\325~\257\232}\250\312A\360\005\311\321"
  54      C1D57EAF 
  54      9A7DA8CA 
  54      41F005C9 
  54      D1
  55 015c 15720596 		.ascii	"\025r\005\226YR\373\251\001\012\270\2342:\006\207\377"
  55      5952FBA9 
  55      010AB89C 
  55      323A0687 
  55      FF
  56 016d 42062CC4 		.ascii	"B\006,\304\012\011\257m\021y)i\302,t\373\003^\2051\242"
  56      0A09AF6D 
  56      11792969 
  56      C22C74FB 
  56      035E8531 
  57 0182 6B4A3373 		.ascii	"kJ3s!\223\014\177\225\034\026 \011\325\202!\203ii \223"
  57      21930C7F 
  57      951C1620 
  57      09D58221 
  57      83696920 
ARM GAS  C:\Users\info\AppData\Local\Temp\cckGqDON.s 			page 4


  58 0197 06921B9B 		.ascii	"\006\222\033\233\177W\204(\270\007\\H\236\036\230\336"
  58      7F578428 
  58      B8075C48 
  58      9E1E98DE 
  59 01a7 9CF5B69A 		.ascii	"\234\365\266\232\020.J\021l\022\274\001\361\036\334"
  59      102E4A11 
  59      6C12BC01 
  59      F11EDC
  60 01b6 7E6FE39A 		.ascii	"~o\343\232\261r\321\242{Rz\345.\274\300@\251\000\220"
  60      B172D1A2 
  60      7B527AE5 
  60      2EBCC040 
  60      A90090
  61 01c9 326E7F9C 		.ascii	"2n\177\234\010\305\2545/=\330\030\260\312\\\264]T|\272"
  61      08C5AC35 
  61      2F3DD818 
  61      B0CA5CB4 
  61      5D547CBA 
  62 01dd AE822387 		.ascii	"\256\202#\207\264\351B\274\205\370\033\267\245xF\312"
  62      B4E942BC 
  62      85F81BB7 
  62      A57846CA 
  63 01ed 894F0F7E 		.ascii	"\211O\017~FX\031\250K\323&\243X\015*\222\323{]\014\251"
  63      465819A8 
  63      4BD326A3 
  63      580D2A92 
  63      D37B5D0C 
  64 0202 8954DB2A 		.ascii	"\211T\333*\231Q~\231IV\221\231ZOn\243B,A\0377\222\305"
  64      99517E99 
  64      49569199 
  64      5A4F6EA3 
  64      422C411F 
  65 0219 8AF77AF0 		.ascii	"\212\367z\360@\240\030\"\027\022\235^x\3529,*IifSZS"
  65      40A01822 
  65      17129D5E 
  65      78EA392C 
  65      2A496966 
  66 0230 632808F1 		.ascii	"c(\010\361\245\007\2135\226|\251\347J\364\037\204\274"
  66      A5078B35 
  66      967CA9E7 
  66      4AF41F84 
  66      BC
  67 0241 B4B9E71F 		.ascii	"\264\271\347\037\270-.\242I\204\204\303\241T'\347\260"
  67      B82D2EA2 
  67      498484C3 
  67      A15427E7 
  67      B0
  68 0252 32A936C2 		.ascii	"2\2516\302\002\201\350\221\266\327\327\037\351h8\276"
  68      0281E891 
  68      B6D7D71F 
  68      E96838BE 
  69 0262 AF29D67E 		.ascii	"\257)\326~6F\253\316\206\246c\255-g:N\307Z\353c\002"
  69      3646ABCE 
  69      86A663AD 
  69      2D673A4E 
  69      C75AEB63 
  70 0277 9AA1054E 		.ascii	"\232\241\005NX\247\232\333O\376\006\372\361\010~"
ARM GAS  C:\Users\info\AppData\Local\Temp\cckGqDON.s 			page 5


  70      58A79ADB 
  70      4FFE06FA 
  70      F1087E
  71              		.text
  72              		.section	.gnu.lto_u8x8_read_pin_state.792a6170,"",%progbits
  73 0000 789C7553 		.ascii	"x\234uSMHTQ\024>\347\336\367\346\177\306\011Z\032\270"
  73      4D485451 
  73      143EE7DE 
  73      F7E67FC6 
  73      095A1AB8 
  74 0014 19442847 		.ascii	"\031D(Gr\343\262]\373\026\255\012\251i\010\027Y\244"
  74      72E3B25D 
  74      FB16AD0A 
  74      A9690817 
  74      59A4
  75 0026 42BB79CE 		.ascii	"B\273y\316s\324E\013\0279B\024\032&Z\346_\376\245fL"
  75      73D4450B 
  75      17394214 
  75      1A265AE6 
  75      5FFEA566 
  76 003b 26195A59 		.ascii	"&\031ZY\344\252\\\250\225D\36633\230\006\251\3239\367"
  76      E4AA5CA8 
  76      9544F633 
  76      339806A9 
  76      D339F7
  77 004e 2A19D485 		.ascii	"*\031\324\205w\337\275\347}\347;\337\371\356}\006 \360"
  77      77DFBDE7 
  77      7DE73BDF 
  77      F9EE7D06 
  77      20F0
  78 0060 386C0094 		.ascii	"8l\000\224\320\3738=\350\000\024M/\001j]\002\015\275"
  78      D0FB383D 
  78      E800144D 
  78      2F016A5D 
  78      020DBD
  79 0073 907AF1D8 		.ascii	"\220z\361\330e\010\371k\012\300\362\230\315^\260|&\""
  79      6508F96B 
  79      0AC0F298 
  79      CD5EB07C 
  79      2622
  80 0085 C72D1742 		.ascii	"\307-\027BLH\303\304\2300@\217\037b[\340\334\346\263"
  80      4C48C3C4 
  80      9830408F 
  80      1F625BE0 
  80      DCE6B3
  81 0098 AB9EA24E 		.ascii	"\253\236\242N\313\212[K\211\344\301\226\256\024&$@N"
  81      CB8A5B4B 
  81      89E4C196 
  81      AE142624 
  81      404E
  82 00aa 0096E663 		.ascii	"\000\226\346cI>\227\353\304\"B\276\256\353\277!\327"
  82      493E97EB 
  82      C42242BE 
  82      AEEBBF21 
  82      D7
  83 00bb 4542221A 		.ascii	"EB\"\032\264\315\274\270\376>\300[\201\005\264m[h_t"
  83      B4CDBCB8 
ARM GAS  C:\Users\info\AppData\Local\Temp\cckGqDON.s 			page 6


  83      FE3EC05B 
  83      8105B46D 
  83      5B685F74 
  84 00cf C802045A 		.ascii	"\310\002\004Z'g\027\276\371\013;\230\323\032\213Z\356"
  84      276717BE 
  84      F90B3B98 
  84      D31A8B5A 
  84      EE
  85 00e0 84947817 		.ascii	"\204\224x\027%s\336\301|\354\302|\240\020`7\0262\334"
  85      2573DEC1 
  85      7CECC27C 
  85      A0106037 
  85      1632DC
  86 00f3 EEEC2997 		.ascii	"\356\354)\227!\225\331\324vk\311\035j\347\314\324\350"
  86      2195D9D4 
  86      766BC91D 
  86      6AE7CCD4 
  86      E8
  87 0104 85162B55 		.ascii	"\205\026+U[@j\360\236N\336\023\004\014\355\230{\362"
  87      5B406AF0 
  87      9E4EDE13 
  87      040CED98 
  87      7BF2
  88 0116 2820C32A 		.ascii	"( \303*\355\366J\3535\271\2336t\332\262\217qR\357?\222"
  88      EDF64AEB 
  88      35B99B36 
  88      74DAB28F 
  88      7152EF3F 
  89 012b 5606769A 		.ascii	"V\006v\232\375\216:\213F\001\366a\010{0\304\275R\223"
  89      FD8E3A8B 
  89      4601F661 
  89      087B30C4 
  89      BD5293
  90 013e FDE820A7 		.ascii	"\375\350 \247\305^\264\357D\312\312\345l+5h~\224\007"
  90      C55EB4EF 
  90      44CACAE5 
  90      6C2B3568 
  90      7E9407
  91 0151 10384E6C 		.ascii	"\0208Nl\364\305T\263\003Y\276\213\0321<<yi2}<\371y\012"
  91      F4C554B3 
  91      0359BE8B 
  91      1A313C3C 
  91      7969327D 
  92 0169 F094A790 		.ascii	"\360\224\247\220A\225\013\220\2462t$\031!\350%W0\236"
  92      41950B90 
  92      A6327424 
  92      1921E825 
  92      57309E
  93 017c 9AA85155 		.ascii	"\232\250QU\011C\322\336\330\323\363\312^\300\034\342"
  93      0943D2DE 
  93      D8D3F3CA 
  93      5EC01CE2 
  94 018c 0079C490 		.ascii	"\000y\304\220\311\012\005\351S\220dbj\336\251!\200\367"
  94      C90A05E9 
  94      53906462 
  94      6ADEA921 
  94      80F7
ARM GAS  C:\Users\info\AppData\Local\Temp\cckGqDON.s 			page 7


  95 019e 91BBCA08 		.ascii	"\221\273\312\010\011t\334r\025\355t\375\323\015\311"
  95      0974DC72 
  95      15ED74FD 
  95      D30DC9
  96 01ad 685B9AB6 		.ascii	"h[\232\266\344\263\035\232\236\251w1\236\304\342\240"
  96      E4B31D9A 
  96      9EA97731 
  96      9EC4E2A0 
  97 01bd 62147B15 		.ascii	"b\024{\025\011\004\253\030_O\017\2079\264\237]*O7gf"
  97      0904AB18 
  97      5F4F0F87 
  97      39B49F5D 
  97      2A4F3767 
  98 01d2 1B7DAD78 		.ascii	"\033}\255x\263\226\315*\245v\2346\361\014qUv\377C\274"
  98      B396CD2A 
  98      A5769C36 
  98      F10C7155 
  98      76FF43BC 
  99 01e6 D7193EC2 		.ascii	"\327\031>\302R\206\261\025w\330B\300\021\014\323\267"
  99      5286B115 
  99      77D842C0 
  99      110CD3B7 
 100 01f6 E186E703 		.ascii	"\341\206\347\003\036-\023q\224\022H\\\262~\365\244\326"
 100      1E2D1371 
 100      9412485C 
 100      B27EF5A4 
 100      D6
 101 0207 E6B22512 		.ascii	"\346\262%\022\350\355\326\367\254O\203^\001> \324'\022"
 101      E8EDD6F7 
 101      AC4F835E 
 101      013E20D4 
 101      2712
 102 0219 4608661F 		.ascii	"F\010f\037\033\373\362\316\031\333\266\032-+\230\220"
 102      1BFBF2CE 
 102      19DBB61A 
 102      2D2B9890 
 103 0229 AE9CA093 		.ascii	"\256\234\240\223\3011\214\001I \006\356=!\335\254\177"
 103      C1318C01 
 103      492006EE 
 103      3D21DDAC 
 103      7F
 104 023a 3C3352AC 		.ascii	"<3R\254y=\3734\343\377\325\216\377Q;\201a\246\3106l"
 104      793DFB34 
 104      E3FFD58E 
 104      FF513B81 
 104      61A6C836 
 105 024f A1A6F012 		.ascii	"\241\246\360\022\013\213\335r\350\275\217B\373\373\241"
 105      0B8BDD72 
 105      E8BD8F42 
 105      FBFBA1
 106 025e 7F091FAA 		.ascii	"\177\011\037\252~\342Y\247\206\370\265\217\366\317\335"
 106      7EE259A7 
 106      86F8B58F 
 106      F6CFDD
 107 026d 9480CAF2 		.ascii	"\224\200\312\362\357\207\344Q\364o\347\363\264#\033"
 107      EF87E451 
 107      F46FE7F3 
ARM GAS  C:\Users\info\AppData\Local\Temp\cckGqDON.s 			page 8


 107      B4231B
 108 027c 09AF4604 		.ascii	"\011\257F\004\311\022e\324\036\252\217QAu\274\006\320"
 108      C91265D4 
 108      1EAA8F51 
 108      4175BC06 
 108      D0
 109 028d EFCBB725 		.ascii	"\357\313\267%\010:Y\200\336(\014\3022\326\315\333\001"
 109      083A5980 
 109      DE280CC2 
 109      32D6CDDB 
 109      01
 110 029e CDC3BEEE 		.ascii	"\315\303\276\356\254-\257\371\265\257&N\252;\002Y\322"
 110      AC2DAFF9 
 110      B5AF264E 
 110      AA3B0259 
 110      D2
 111 02af 4D96892E 		.ascii	"M\226\211.I\254\262\321\233\2452t\301\304b7\271\224"
 111      49ACB2D1 
 111      9BA53274 
 111      C1C46237 
 111      B994
 112 02c1 2717BF3A 		.ascii	"'\027\277:\251\220\311\267\3623]\271L\205fS&\245\311"
 112      A990C9B7 
 112      F2335DB9 
 112      4C856653 
 112      26A5C9
 113 02d4 FA662F2D 		.ascii	"\372f/-\017\025\027\237\252);\177\264<Ru9B\253+e\345"
 113      0F15179F 
 113      AA293B7F 
 113      B43C5275 
 113      3942AB2B 
 114 02ea E7A2672F 		.ascii	"\347\242g/\326TF\242\305\02108\340\276TQY^U}\246:\212"
 114      D65446A2 
 114      C5113038 
 114      E0BE5451 
 114      595E557D 
 115 0301 15BF0162 		.ascii	"\025\277\001bJUB"
 115      4A5542
 116              		.text
 117              		.section	.gnu.lto_u8x8_GetMenuEvent.792a6170,"",%progbits
 118 0000 789C9555 		.ascii	"x\234\225U\335O\034U\024\277g\356\354\316\307\356\014"
 118      DD4F1C55 
 118      14BF67EE 
 118      ECCEC7EE 
 118      0C
 119 0011 600BE903 		.ascii	"`\013\351\003&\304\2044}(\220\372 \376\011\276\372l"
 119      26C48434 
 119      7D2890FA 
 119      20FE09BE 
 119      FA6C
 120 0023 421449A3 		.ascii	"B\024I\243\251\325\0240\2761\354\262\204\207F\333\207"
 120      A9D51430 
 120      BE31ECB2 
 120      848746DB 
 120      87
 121 0034 D2C440C0 		.ascii	"\322\304@\300 R?(\213\332R\012m\267\225R\334\226\217"
 121      20523F28 
ARM GAS  C:\Users\info\AppData\Local\Temp\cckGqDON.s 			page 9


 121      8BDA520A 
 121      6DB79552 
 121      DC968F
 122 0047 0295F2D1 		.ascii	"\002\225\362\321\332\"m\210\242]V\2641\012\3539\367"
 122      DA226D88 
 122      A25D56B4 
 122      310AEB39 
 122      F7
 123 0058 CE3010DA 		.ascii	"\3160\020\332\204\335d\317\334{\347\376\3169\277\337"
 123      84DD64CF 
 123      DC7BE7FE 
 123      CE39BFDF 
 124 0068 3977AECA 		.ascii	"9w\256\312\200\321\3577\235\261W\361y\031\377\220\303"
 124      80D1EF37 
 124      9DB157F1 
 124      7919FF90 
 124      C3
 125 0079 403931C6 		.ascii	"@91\306X\275\256\004\254\211\034\346\350\\\330\200\260"
 125      58BDAE04 
 125      AC891CE6 
 125      E85CD880 
 125      B0
 126 008a BAB021B9 		.ascii	"\272\260!\271\256\250\355\345\3141\355T>s\302*\330\022"
 126      AEA8EDE5 
 126      CC31ED54 
 126      3E73C22A 
 126      D812
 127 009c 165082B4 		.ascii	"\026P\202\264`j\3642\034\364\2265o\240+\206\200\231"
 127      606AF432 
 127      1CF49635 
 127      6FA02B86 
 127      8099
 128 00ae 026678CB 		.ascii	"\002fx\313\2467\010)a\201\267\005>\354-[\336\300\006"
 128      A6370829 
 128      6181B705 
 128      3EEC2D5B 
 128      DEC006
 129 00c1 A081A303 		.ascii	"\240\201\243\003\253S\270\032\010j\272a\206\302\226"
 129      AB53B81A 
 129      086ABA61 
 129      86C296
 130 00d0 0D75F097 		.ascii	"\015u\360\227\262\256\300\315\247#\307\315\003]\216"
 130      B2AEC0CD 
 130      A723C7CD 
 130      035D8E
 131 00df 13711E5C 		.ascii	"\023q\036\\\357zm5\022\333\027\343\214e\024\006/\027"
 131      EF7A6D35 
 131      12DB17E3 
 131      8C651406 
 131      2F17
 132 00f1 425921B1 		.ascii	"BY!\261\354\202\003\270\363vC\274\205\257)1\016\240"
 132      EC8203B8 
 132      F37643BC 
 132      85AF2931 
 132      0EA0
 133 0103 E27475F4 		.ascii	"\342tu\364\323_l\232*P\204\323\366\351\216\205 /\002"
 133      D35F6C9A 
ARM GAS  C:\Users\info\AppData\Local\Temp\cckGqDON.s 			page 10


 133      2A5084D3 
 133      F6E98E85 
 133      202F02
 134 0116 86E3E6E4 		.ascii	"\206\343\346\344\364\037\326\376N\362\351\234\256r\214"
 134      F41FD6FE 
 134      4EF2E99C 
 134      AE728C
 135 0125 18E7F015 		.ascii	"\030\347\360\025p\362\371%\024\302\031(d\270\304\340"
 135      70F2F925 
 135      14C21928 
 135      64B8C4E0 
 136 0135 6BD84FDB 		.ascii	"k\330O\333\033\222\303\017C\274X@\243m\177\016\205\213"
 136      1B92C30F 
 136      43BC5840 
 136      A36D7F0E 
 136      858B
 137 0147 3B089A98 		.ascii	";\010\232\230JZ\247\235D}\021\346\003\337H\270\227\022"
 137      4A5AA79D 
 137      447D11E6 
 137      03DF48B8 
 137      9712
 138 0159 137BBBBA 		.ascii	"\023{\273\272+x\231\200\235h\377\354\201\341\302&\222"
 138      2B789980 
 138      9D68FFEC 
 138      81E1C226 
 138      92
 139 016a 2127EEE8 		.ascii	"!'\356\350\204:\373\014\324b\357\306)+\330\340\340\257"
 139      843AFB0C 
 139      D462EFC6 
 139      292BD8E0 
 139      E0AF
 140 017c 087AA018 		.ascii	"\010z\240\030\272\241\230\350\"\3178\004\261\306\212"
 140      BAA198E8 
 140      22CF3804 
 140      B1C68A
 141 018b B7DAF37A 		.ascii	"\267\332\363z\302\311d\242N\342\212y\365\274\275\017"
 141      C2C964A2 
 141      4EE28A79 
 141      F5BCBD0F 
 142 019b 182DAA40 		.ascii	"\030-\252@i\007\031m\322\220\206\252\2231\311\330d\362"
 142      6907196D 
 142      D29086AA 
 142      9331C9D8 
 142      64F2
 143 01ad C8EC21B3 		.ascii	"\310\354!\263\227L\276\000\025\320\220\261\024F\241"
 143      974CBE00 
 143      15D090B1 
 143      1446A1
 144 01bc 6AAC2A0A 		.ascii	"j\254*\012=\371\"D\210\244\210\213\273H\271\330\265"
 144      3DF92244 
 144      88A4888B 
 144      BB48B9D8 
 144      B5
 145 01cd 718D44C5 		.ascii	"q\215D\305f\203^\324i\031\032\0223I\233\266Dy\020w\364"
 145      66835ED4 
 145      69191A12 
 145      33499BB6 
ARM GAS  C:\Users\info\AppData\Local\Temp\cckGqDON.s 			page 11


 145      44791077 
 146 01e2 F7AFCC6B 		.ascii	"\367\257\314ku\353N\223\343\344\306x \243`\306\360-"
 146      75EB4E93 
 146      E3E4C678 
 146      20A360C6 
 146      F02D
 147 01f4 D4B12857 		.ascii	"\324\261(Wc<\310\026A\021\3760=\004\260\307\020\271"
 147      633CC816 
 147      4111FE30 
 147      3D04B0C7 
 147      10B9
 148 0206 D83BB3C8 		.ascii	"\330;\263\310\245\003mk\010.\224{z#\331\024n\203V\210"
 148      A5036D6B 
 148      082E947B 
 148      7A23D914 
 148      6E835688 
 149 021a 710D5DC0 		.ascii	"q\015]\300w\030\224\326;\227\"g\265\322\203\224\311"
 149      771894D6 
 149      3B972267 
 149      B5D28394 
 149      C9
 150 022b F7D0061B 		.ascii	"\367\320\006\033$\020\203sP\312\036A\243\243m\3617\373"
 150      24108373 
 150      50CA1E41 
 150      A3A36DF1 
 150      37FB
 151 023d F972E024 		.ascii	"\371r\340$|R\217\222&Z\307\3201\036\020\207\213\355"
 151      7C528F92 
 151      265AC7D0 
 151      311E1087 
 151      8BED
 152 024f E7E124E0 		.ascii	"\347\341$\340\226\236\225\376\177,\012\251\212\220\353"
 152      969E95FE 
 152      7F2C0AA9 
 152      8A90EB
 153 025e 932D31DD 		.ascii	"\223-1\335C\244L\004@\037Fu8\0350\270 1\223\251[\255"
 153      43A44C04 
 153      401F4675 
 153      381D30B8 
 153      203193A9 
 154 0274 2189C9C5 		.ascii	"!\211\311\305i\337Z\337\200\341a6\004\246_`D\341.J\314"
 154      69DF5ADF 
 154      80E16136 
 154      04A65F60 
 154      44E12E4A 
 155 0289 664BAAA2 		.ascii	"fK\252\242%\247\333\232fs<\314`\2100\003\002C\311\301"
 155      25A7DB9A 
 155      66733CCC 
 155      60883003 
 155      0243C9C1 
 156 029d A0C40CF4 		.ascii	"\240\304\014\364\015\016\007$\246\014\247_\244;\357"
 156      0D0E0724 
 156      A60CA75F 
 156      A43BEF
 157 02ac 6D62D202 		.ascii	"mb\322\002sI`T\302\\F\014\243\372q6\221\303\227\240"
 157      73496054 
 157      C25C460C 
ARM GAS  C:\Users\info\AppData\Local\Temp\cckGqDON.s 			page 12


 157      A3FA7136 
 157      91C397A0 
 158 02c0 3E9774A0 		.ascii	">\227t\240\304I\347\325\205H@\352\242\357N\330+BX\301"
 158      C449E7D5 
 158      854840EA 
 158      A2EF4ED8 
 158      2B4258C1 
 159 02d4 3A81C23E 		.ascii	":\201\302>\204\206\371\350\273n\251\243$\243\210\245"
 159      8486F9E8 
 159      BB6EA9A3 
 159      24A388A5 
 160 02e4 B2F61047 		.ascii	"\262\366\020G\377k\361\373i\341\177\213\363zjc\353\371"
 160      FF6BF1FB 
 160      69E17F8B 
 160      F37A6A63 
 160      EBF9
 161 02f6 11AEFAA5 		.ascii	"\021\256\372\245\273\006\245\370\356\324\350\245\273"
 161      BB06A5F8 
 161      EED4E8A5 
 161      BB
 162 0303 5C36D80B 		.ascii	"\\6\330\013\360\003\0010B`;\033E\262Y\362\330\230\273"
 162      F0030130 
 162      42603B1B 
 162      45B259F2 
 162      D898BB
 163 0316 6333E4B3 		.ascii	"c3\344\263\271.\331\314mac\272l\202,\256\0126\251GY"
 163      B92ED9CC 
 163      6D6163BA 
 163      6C822CAE 
 163      0A36A947 
 164 032b B319F6D9 		.ascii	"\263\031\366\331\334\200Rq>\310\245\346\012\324\334"
 164      DC805271 
 164      3EC8A5E6 
 164      0AD4DC
 165 033a BB1231B2 		.ascii	"\273\0221\262t9\"\\\212&\372\021J\335\023\263\026\377"
 165      7439225C 
 165      8A26FA11 
 165      4ADD13B3 
 165      16FF
 166 034c 3DEBDC92 		.ascii	"=\353\334\222~n7\205\322\221\177GV\015\251\364Kp\313"
 166      7E6E3785 
 166      D2917F47 
 166      560DA9F4 
 166      4B70CB
 167 035f 4D55DFAE 		.ascii	"MU\337\2564\227J?\361\224\266w\247\364\250\237\364\330"
 167      34974A3F 
 167      F194B677 
 167      A7F4A89F 
 167      F4D8
 168 0371 CEBEB15D 		.ascii	"\316\276\261]\245\015\257oRkY\263\031\367\331LlQ\332"
 168      A50DAF6F 
 168      526B59B3 
 168      19F7D94C 
 168      6C51DA
 169 0384 DC2CDEDF 		.ascii	"\334,\336\337Y\273\274\355\273\234\024\002u\304\317"
 169      59BBBCED 
 169      BB9C1402 
ARM GAS  C:\Users\info\AppData\Local\Temp\cckGqDON.s 			page 13


 169      75C4CF
 170 0393 34BAAD58 		.ascii	"4\272\255X\006Sn\204\320v\201T)\320\272'P\336\356\004"
 170      06536E84 
 170      D0768154 
 170      29D0BA27 
 170      50DEEE04 
 171 03a7 9AF65BF1 		.ascii	"\232\366[\361\316\316V\314s\005\012o\262\331\310\232"
 171      CECE56CC 
 171      73050A6F 
 171      B2D9C89A 
 172 03b7 CD4F3E9B 		.ascii	"\315O>\233\031W \361\251\315\244\335O\355\236\335ez"
 172      195720F1 
 172      A9CDA4DD 
 172      4FED9EDD 
 172      657A
 173 03c9 D72FE52C 		.ascii	"\327/\345,f\272\014.\321\275;>\365F\206\266\301\234"
 173      66BA0C2E 
 173      D1BD3B3E 
 173      F54686B6 
 173      C19C
 174 03db F8D4E761 		.ascii	"\370\324\347a\200\030\236\251\307\020mn\\\001\211\311"
 174      80189EA9 
 174      C7106D6E 
 174      5C0189C9 
 175 03eb 97B0B9FF 		.ascii	"\227\260\271\377\236\244\303R\327\011\006\363\030\323"
 175      9EA4C352 
 175      D70906F3 
 175      18D3
 176 03f9 BB13BAE9 		.ascii	"\273\023\272\351N\310\027\334\255\355:3\351i\343\302"
 176      4EC817DC 
 176      ADED3A33 
 176      E969E3C2 
 177 0409 87D25581 		.ascii	"\207\322U\201\374\266OE\207\306\335\022e\000\026$\311"
 177      FCB64F45 
 177      87C6DD12 
 177      65001624 
 177      C9
 178 041a 66789656 		.ascii	"fx\226V\257\260\347\223\274\347\213u\237\016Y\201H\301"
 178      AFB0E793 
 178      BCE78B75 
 178      9F0E5981 
 178      48C1
 179 042c F6EEC05C 		.ascii	"\366\356\300\\&3\003\366+^\210\347>\266d\016T\2764\000"
 179      263303F6 
 179      2B5E88E7 
 179      3EB6640E 
 179      54BE3400 
 180 0440 69ABB6DC 		.ascii	"i\253\266\3349BOM\\\212&\012\220\037^\371\271\206&\226"
 180      39424F4D 
 180      5C8A260A 
 180      901F5EF9 
 180      B9862696 
 181 0454 FB8A8B57 		.ascii	"\373\212\213WAa\015aCt\341\002\005\301\320/\226\224"
 181      41610D61 
 181      4374E102 
 181      05C1D02F 
 181      9694
ARM GAS  C:\Users\info\AppData\Local\Temp\cckGqDON.s 			page 14


 182 0466 BC515B7E 		.ascii	"\274Q[~\370PEe\365\261J\034}T^\361v\325[\357\327\036"
 182      F8504565 
 182      F5B14A1C 
 182      7D545EF1 
 182      76D55BEF 
 183 047c ADAC2AA9 		.ascii	"\255\254*\251d*-\230\307\252\252k\217\324T\274W}\330"
 183      642A2D98 
 183      C7AAAA6B 
 183      8FD454BC 
 183      577DD8
 184 048f F8E09DA3 		.ascii	"\370\340\235\243\025\3255o\326T\375\017\022\037\365"
 184      15D5356F 
 184      D654FD0F 
 184      121FF5
 185 049e 72       		.ascii	"r"
 186              		.text
 187              		.section	.gnu.lto_.symbol_nodes.792a6170,"",%progbits
 188 0000 789C5DC8 		.ascii	"x\234]\310\261\015@p\020F\361w\367\331B\303\036\206"
 188      B10D4070 
 188      1046F177 
 188      F7D942C3 
 188      1E86
 189 0012 B1C9DD04 		.ascii	"\261\311\335\004b\005%c\030\300\014\012\265N+\376\221"
 189      62052563 
 189      18C00C0A 
 189      B54E2BFE 
 189      91
 190 0023 68BCE625 		.ascii	"h\274\346%\277\012\243\247\344\0260nP6\347\224*D\330"
 190      BF0AA3A7 
 190      E416306E 
 190      5036E794 
 190      2A44D8
 191 0036 9F3CFCA3 		.ascii	"\237<\374\243%[0\205^\200\314\006d\342\270\316Zn\254"
 191      255B3085 
 191      5E80CC06 
 191      64E2B8CE 
 191      5A6EAC
 192 0049 FB6D7258 		.ascii	"\373mrX\207\216\007_t\027\220"
 192      878E075F 
 192      741790
 193              		.text
 194              		.section	.gnu.lto_.refs.792a6170,"",%progbits
 195 0000 789C6361 		.ascii	"x\234ca`\004B \000\000\0009\000\007"
 195      60044220 
 195      00000039 
 195      0007
 196              		.text
 197              		.section	.gnu.lto_.decls.792a6170,"",%progbits
 198 0000 789CBD58 		.ascii	"x\234\275X{PT\327\031\277\347\236E\226e\361\001$a:\264"
 198      7B5054D7 
 198      19BFE79E 
 198      459665F1 
 198      0124613A 
 199 0015 752255D2 		.ascii	"u\"U\322&D4\3158\375'\323\351\264f:M\373G\233L\037\264"
 199      264434CD 
 199      38FD27D3 
 199      E9B4663A 
ARM GAS  C:\Users\info\AppData\Local\Temp\cckGqDON.s 			page 15


 199      4DFB479B 
 200 002c DB65F722 		.ascii	"\333e\367\"\333\300\356\016\273\370\310_\027\305\027"
 200      DBC0EE0E 
 200      BBF8C85F 
 200      17C517
 201 003b 46141F28 		.ascii	"F\024\037(\212\021\021\005\005\025\005Q\004d\005\305"
 201      8A111105 
 201      05150551 
 201      046405C5 
 202 004b B7C83322 		.ascii	"\267\3103\"\210\004\243\022\225\210\002\022\025\245"
 202      8804A312 
 202      95880212 
 202      15A5
 203 0059 DF39E7EE 		.ascii	"\3379\347\356\336\263p\235\374\323\364\316|{\317w\316"
 203      DEB3709D 
 203      FCD3F4CE 
 203      7C7BCF77 
 203      CE
 204 006a EF7CAFF3 		.ascii	"\357|\257\363\235\357\234\275:\001\011\344\011}C\020"
 204      9DEF9CBD 
 204      3A0109E4 
 204      097D4310 
 205 007a 16E90461 		.ascii	"\026\351\004a6\260c\360@S\370DP\037\302\037\003\372"
 205      36B063F0 
 205      4053F844 
 205      501FC21F 
 205      03FA
 206 008c 10C6FF00 		.ascii	"\020\306\377\000\364\027$Lx\3108\006:\014\024\011\364"
 206      F417244C 
 206      78C83806 
 206      3A0C1409 
 206      F4
 207 009d 27A51F29 		.ascii	"'\245\037)c\343\037\"\313\240\340C\201\302\201\242\020"
 207      63E31F22 
 207      CBA0E043 
 207      81C281A2 
 207      10
 208 00ae 9BFB3162 		.ascii	"\233\3731b\363\177\006\357\277\002\375\03119\277\200"
 208      F37F06EF 
 208      BF02FD19 
 208      3139BF80 
 209 00be 1F5199AB 		.ascii	"\037Q\231\253e\003\261-\370\0252\377\006\357\371\210"
 209      6503B12D 
 209      F81532FF 
 209      06EFF988 
 210 00ce C924BEFD 		.ascii	"\311$\276\375\035\336\025\212\315\321\320\3769\320["
 210      1DDE158A 
 210      CDD1D0FE 
 210      39D05B
 211 00dd 88F1440E 		.ascii	"\210\361D\016\321A\354\016\000\372\007\264\343\200\376"
 211      D141EC0E 
 211      00FA07B4 
 211      E380FE
 212 00ec 09F42F20 		.ascii	"\011\364/ \3238\335/D\264\254\367^\236\276\023u $ \372"
 212      D338DD2F 
 212      44B4ACF7 
 212      5E9EBE13 
ARM GAS  C:\Users\info\AppData\Local\Temp\cckGqDON.s 			page 16


 212      75202420 
 213 0101 084A6C05 		.ascii	"\010Jl\005\322\243\274I\0031F\364\306\006\371\242\244"
 213      D2A3BC49 
 213      033146F4 
 213      C606F9A2 
 213      A4
 214 0112 34281C09 		.ascii	"4(\034\011\"\305#n\300\017G\327\211>j\027\362=^$\362"
 214      22C5236E 
 214      C00F47D7 
 214      893E6A17 
 214      F23D5E24 
 215 0127 174AA4AA 		.ascii	"\027J\244\252,\360\242:\201\223\247X\257\350G\274Z*"
 215      2CF0A23A 
 215      8193A758 
 215      AFE847BC 
 215      5A2A
 216 0139 1A7B9DAE 		.ascii	"\032{\235\256\037.\336\2020\310\204\366\315\247E\277"
 216      1F2EDE82 
 216      30C884F6 
 216      CDA745BF 
 217 0149 8B2991E1 		.ascii	"\213)\221\341Y/\313\342\273jd\016-\377z\237~HD\221\006"
 217      592FCBE2 
 217      BB6A640E 
 217      2DFF7A9F 
 217      7E484491 
 218 015e 348608FF 		.ascii	"4\206\010\377\240\362i\010\343\311p\271g\360\200\016"
 218      A0F26908 
 218      E3C970B9 
 218      67F0800E 
 219 016e 4F276DB1 		.ascii	"O'm\261\251\254\343L\020\2126\354%bz\216\016\377z\231"
 219      A9ACE34C 
 219      108A36EC 
 219      25627A8E 
 219      0EFF7A99 
 220 0182 2C237410 		.ascii	",#t\020\031P\011\302h\037\212!\026D\222\254Y%\313K\345"
 220      195009C2 
 220      681F8A21 
 220      164492AC 
 220      5925CB4B 
 221 0197 817C7952 		.ascii	"\201|yR\204\200\346F\242\331\221\002:\200\242\211L\202"
 221      8480E646 
 221      A2D99102 
 221      3A80A289 
 221      4C82
 222 01a9 42C52812 		.ascii	"B\305(\022\355G\221D\376\276\235E\247C\360\001D\025"
 222      ED479144 
 222      FEBE9D45 
 222      A743F001 
 222      4415
 223 01bb F46FBABF 		.ascii	"\364o\272\277\012\373\024t\256\211,\226\345\251\350"
 223      0AFB1474 
 223      AE892C96 
 223      E5A9E8
 224 01ca 302838A4 		.ascii	"0(8\244*\000}\332\032J\2655|\365\260&'P\007\013J\005"
 224      2A007DDA 
 224      1A4AB535 
 224      7CF5B026 
ARM GAS  C:\Users\info\AppData\Local\Temp\cckGqDON.s 			page 17


 224      2750070B 
 225 01e0 C5EB485F 		.ascii	"\305\353H_\373\263\325\033t\276\276#\210v6\245\227\346"
 225      FBB3D51B 
 225      74BEBE23 
 225      887636A5 
 225      97E6
 226 01f2 62F03CD4 		.ascii	"b\360<\324\200t\300>\272\274\355\326d`\303\015h:\260"
 226      8074C03E 
 226      BABCEDD6 
 226      6460C30D 
 226      683AB0
 227 0205 258F721B 		.ascii	"%\217r\033C\"\262i\004\227\311\323ut\346QPS\016j\004"
 227      4322B269 
 227      0497C9D3 
 227      7574E651 
 227      50530E6A 
 228 021a 548122E0 		.ascii	"T\201\"\340\267\014\351XT\217\346Vt\353\337\314\223"
 228      B70CE958 
 228      548FE656 
 228      74EBDFCC 
 228      93
 229 022b AF96CA3D 		.ascii	"\257\226\312=\225-\037\024\035\221\345\3250SGp\250H"
 229      952D1F14 
 229      1D91E5D5 
 229      30534770 
 229      A848
 230 023d 75069AE4 		.ascii	"u\006\232\344U\210:a%\217\2417a\352\327O/\312\006|\201"
 230      55883A61 
 230      258FA137 
 230      61EAD74F 
 230      2FCA067C 
 231 0252 2DDBF6C1 		.ascii	"-\333\366\301\033\337\0041\233\242\201\3756\375vO0\263"
 231      1BDF0431 
 231      9BA281FD 
 231      36FD764F 
 231      30B3
 232 0264 290258B9 		.ascii	")\002X\271/}\247\210\273\031\264y\340\322\016el*\260"
 232      2F7DA788 
 232      BB19B479 
 232      E0D20E65 
 232      6C2AB0
 233 0277 B57D59B5 		.ascii	"\265}Y\265z\334\317\306\256\026\366\1779\031/\307\224"
 233      7ADCCFC6 
 233      AE16F67F 
 233      39192FC7 
 233      94
 234 0288 E9CBAB3D 		.ascii	"\351\313\253=\242\307y\214)\272\223\233id\263\346qN"
 234      A2C7798C 
 234      29BA939B 
 234      6964B3E6 
 234      714E
 235 029a 8732A737 		.ascii	"\2072\2477{6\214\032p\011\203V\035\253n\010`\320\331"
 235      7B368C1A 
 235      70098356 
 235      1DAB6E08 
 235      60D0D9
 236 02ad C09EAFEC 		.ascii	"\300\236\257\354\235\215\217a?3\303\231\231O.\266\336"
ARM GAS  C:\Users\info\AppData\Local\Temp\cckGqDON.s 			page 18


 236      9D8D8F61 
 236      3F33C399 
 236      994F2EB6 
 236      DE
 237 02be C0B8818D 		.ascii	"\300\270\201\215\255\253\253\251\327\343f\3064t]o\323"
 237      ADABABA9 
 237      D7E366C6 
 237      34745D6F 
 237      D3
 238 02cf E16EC6A4 		.ascii	"\341n\306\244\325\324\227\205\340A\306\234\031\033\361"
 238      D5D49785 
 238      E041C69C 
 238      191BF1
 239 02de 4C619A45 		.ascii	"La\232E`_\224\225\325#<\312\306\366<{>@Vf&\344\350\030"
 239      605F9495 
 239      D5233CCA 
 239      C6F63C7B 
 239      3E405666 
 240 02f6 E6927426 		.ascii	"\346\222t&K\322\332\213\347\367\032\361r\035M\242\346"
 240      4BD2DA8B 
 240      E7F71AF1 
 240      721D4DA2 
 240      E6
 241 0307 BAAD2F82 		.ascii	"\272\255/\202\221!\232f\210\274L6D\013\250\032\326\351"
 241      91219A66 
 241      88BC4C36 
 241      440BA81A 
 241      D6E9
 242 0319 02AC13BA 		.ascii	"\002\254\023\272\01292S\311\221\313\320y\011:\225t\356"
 242      0A393253 
 242      C991CBD0 
 242      79093A95 
 242      74EE
 243 032b FF3D4DE7 		.ascii	"\377=M\347FX\326+\352\002\3154\260\005=\231\325y\307"
 243      4658D62B 
 243      EA02CD34 
 243      B0053D99 
 243      D579C7
 244 033e 80D73315 		.ascii	"\200\3273\025\005\267\344*\335\253T\264\274RE\347\232"
 244      05B7E42A 
 244      DDAB54B4 
 244      BC5245E7 
 244      9A
 245 034f 992524A1 		.ascii	"\231%$\241\233AE\223\252\242\021):\274\253\033\312V"
 245      9B414593 
 245      AAA21129 
 245      3ABCAB1B 
 245      CA56
 246 0361 F74EC6BE 		.ascii	"\367N\306\276GF\234CU\242\035m\275\353\203\014J\326"
 246      47469C43 
 246      55A21D6D 
 246      BDEB830C 
 246      4AD6
 247 0373 AFFFFEAC 		.ascii	"\257\377\376\254\337vfU]\2001\203\340!]C?D\355~\351"
 247      DF766655 
 247      5D803183 
 247      E0215D43 
ARM GAS  C:\Users\info\AppData\Local\Temp\cckGqDON.s 			page 19


 247      3F44ED7E 
 248 0388 FA25322A 		.ascii	"\372%2*\373?\375\336\356~\204\277`Zn\234\333WL\002="
 248      FB3FFDDE 
 248      EE7E84BF 
 248      605A6E9C 
 248      DB574C02 
 249 039d 8B047A6C 		.ascii	"\213\004zll\012\027\352Y,\324\315\353\036\027\004\342"
 249      6C0A17EA 
 249      592CD4CD 
 249      EB1E1704 
 249      E2
 250 03ae 221687E2 		.ascii	"\"\026\207\342\254\373\315\\A\330c\254$\356\335\000"
 250      ACFBCD5C 
 250      41D863AC 
 250      24EEDD00 
 251 03be 4D9DAA7B 		.ascii	"M\235\252{\263|\333\225\032\"\370\254@]`\372,\305\364"
 251      B37CDB95 
 251      1A22F8AC 
 251      405D60FA 
 251      2CC5F4
 252 03d1 EBD0D9A1 		.ascii	"\353\320\331\241\224\204\202\254\374I\270\214\251\330"
 252      948482AC 
 252      FC49B88C 
 252      A9D8
 253 03df 7FB0B121 		.ascii	"\177\260\261!\320\033\352\361\002z4\004xC\375\036\015"
 253      D01BEAF1 
 253      027A3404 
 253      7843FD1E 
 253      0D
 254 03f0 F54DB0A5 		.ascii	"\365M\260\245[\265\345\2067\324\336\315\022\3126K\357"
 254      5BB5E586 
 254      37D4DECD 
 254      12CA364B 
 254      EF
 255 0401 E191077A 		.ascii	"\341\221\007z\\\315\202p\260\344y\251\201\026\207\217"
 255      5CCD8270 
 255      B0E479A9 
 255      8116878F 
 256 0411 8D4ABDE8 		.ascii	"\215J\275\350\\Qx1\330W/n\261z\321v\255\273-\310\327"
 256      5C517831 
 256      D8572F6E 
 256      B17AD176 
 256      ADBB2DC8 
 257 0426 F935EB5C 		.ascii	"\3715\353\\9v\343\264\036_a\222\322\013\327n\017\301"
 257      3976E3B4 
 257      1E5F6192 
 257      D20BD76E 
 257      0FC1
 258 0438 D719B3AD 		.ascii	"\327\031\263\255j\350B\000S\251\00763\347qU \356ec-"
 258      6AE84200 
 258      53A90736 
 258      33E77155 
 258      20EE6563 
 259 044d 9EBCED41 		.ascii	"\236\274\355A\370\033\306\334*\037)\010\301C\214\321"
 259      F81BC6DC 
 259      2A1F2908 
 259      C1438CD1 
ARM GAS  C:\Users\info\AppData\Local\Temp\cckGqDON.s 			page 20


 260 045d AA5E479B 		.ascii	"\252^G\233w\336\014\304\243\014\360\254\361\371\011"
 260      77DE0CC4 
 260      A30CF0AC 
 260      F1F909
 261 046c 84570750 		.ascii	"\204W\007P\346\363\226\212\2718\233\265K\332\256\275"
 261      E6F3968A 
 261      B9389BB5 
 261      4BDAAEBD 
 262 047c 40389F31 		.ascii	"@8\2371\227_\016\234\304\270\2341\007zV\264\004\340"
 262      975F0E9C 
 262      C4B89C31 
 262      077A56B4 
 262      04E0
 263 048e 338CD93B 		.ascii	"3\214\331;\272\253\334\210\233\030\3230R\263;\000w1"
 263      BAABDC88 
 263      9B18D330 
 263      52B33B00 
 263      7731
 264 04a0 2663CDFE 		.ascii	"&c\315\376]\223\361#\306,\377\274\270\032\343\364I\254"
 264      5D93F123 
 264      C62CFFBC 
 264      B81AE3F4 
 264      49AC
 265 04b2 9CDC3C32 		.ascii	"\234\334<2<\011\3470\346fw\326\177p>k\337om\316\012"
 265      3C09E730 
 265      E66677D6 
 265      7F703E6B 
 265      DF6F6DCE 
 266 04c7 C08718F3 		.ascii	"\300\207\030\363\342\310\312*\035\256c\314\335sO\207"
 266      E2C8CA2A 
 266      1DAE63CC 
 266      DD734F87 
 267 04d7 82712B63 		.ascii	"\202q+c\236\325-\255D\370.c*\352\236^\012\300\243\214"
 267      9ED52DAD 
 267      44F82E63 
 267      2AEA9E5E 
 267      0AC0A38C 
 268 04eb F9766971 		.ascii	"\371viq\001\302\233\003\231\232\315\375\331\">\310\230"
 268      01C29B03 
 268      999ACDFD 
 268      D9223EC8 
 268      98
 269 04fc D1E71BD3 		.ascii	"\321\347\033\323\002\360)\306\324v\365\225\004\343\026"
 269      02F029C6 
 269      D476F595 
 269      04E316
 270 050b C69456A7 		.ascii	"\306\224V\247\367+\205\332CN\260\242\265\003\365\006"
 270      F72B85DA 
 270      434EB0A2 
 270      B503F506 
 271 051b FC800EBE 		.ascii	"\374\200\016\2766P\274\025\224F\215{\242\243\242\302"
 271      3650BC15 
 271      94468D7B 
 271      A2A3A2C2 
 272 052b A2F2494A 		.ascii	"\242\362IJ\365\014\2169k*\272dy\205\221F\370\031$\313"
 272      F50C8E39 
 272      6B2ABA64 
ARM GAS  C:\Users\info\AppData\Local\Temp\cckGqDON.s 			page 21


 272      79859146 
 272      F81924CB 
 273 053f 1631CCBB 		.ascii	"\0261\314\273\273\336%\233\245\236l\031\201\302=\325"
 273      BBDE259B 
 273      A59E6C19 
 273      81C23DD5 
 274 054f CDC172E9 		.ascii	"\315\301r\351\277)\364\261?\364+\272\261\346\252\320"
 274      BF29F4B1 
 274      3FF42BBA 
 274      B1E6AAD0 
 275 055f C10D93B7 		.ascii	"\301\015\223\267\312\236\245\230\356\367\207\012\330"
 275      CA9EA598 
 275      EEF7870A 
 275      D8
 276 056c 572618FC 		.ascii	"W&\030\374(':\2471d\213\354I\303T\370K\015;\2529pk\243"
 276      28273AA7 
 276      31648BEC 
 276      49C354F8 
 276      4B0D3BAA 
 277 0584 CF8EA71A 		.ascii	"\317\216\247\032P\017\007\335\244B\3074\240\234\305"
 277      500F07DD 
 277      A442C734 
 277      A09CC5
 278 0593 CDAA7303 		.ascii	"\315\252s\003Z\316\235\340\244nP\245\312\342D\251\261"
 278      5ACE9DE0 
 278      A46E50A5 
 278      CAE244A9 
 278      B1
 279 05a4 2A729B8A 		.ascii	"*r\233\212|\241\241\237\027\232\253BG5\240|\264JU[\207"
 279      7CA1A19F 
 279      179AAB42 
 279      4735A07C 
 279      B44A555B 
 280 05b9 FDA17D68 		.ascii	"\375\241}h\374\242]U\261\217\264\374\342\003\273I\305"
 280      FCA25D55 
 280      B18FB4FC 
 280      E203BB49 
 280      C5
 281 05ca 3ED1927B 		.ascii	">\321\222{\206\303\276T\315\035\321\302\362\366\226"
 281      86C3BE54 
 281      CD1DD1C2 
 281      F2F696
 282 05d9 AB7287B4 		.ascii	"\253r\207\264\260\374\212\015\363\231\263L\324\314\034"
 282      B0FC8A0D 
 282      F399B34C 
 282      D4CC1C
 283 05e8 E61FAD76 		.ascii	"\346\037\255v\236\347\231FY\326\023\224\240T:\301'k"
 283      9EE79946 
 283      59D61394 
 283      A0543AC1 
 283      276B
 284 05fa 279F55CF 		.ascii	"'\237U\3175\202\312;tB5rP+PtU\263\224[\244\014\025\017"
 284      3582CA3B 
 284      74423572 
 284      502B5074 
 284      55B3945B 
 285 0612 2D152351 		.ascii	"-\025#Q+\261*M1\023\364\243Mb4Z#F\241\325@+\201>\007"
ARM GAS  C:\Users\info\AppData\Local\Temp\cckGqDON.s 			page 22


 285      2BB12A4D 
 285      3113F4A3 
 285      4D62345A 
 285      2346A1D5 
 286 062b 5A0BB419 		.ascii	"Z\013\264\031(\035h\025\320V\240,\240\365@\231@\033"
 286      281D6815 
 286      D056A02C 
 286      A0F54099 
 286      401B
 287 063d 80B28196 		.ascii	"\200\262\201\226\003\255\003\312\000Z\001\264Q\214\342"
 287      03AD03CA 
 287      005A01B4 
 287      518CE2
 288 064c BCE95C37 		.ascii	"\274\351\\79G\366\244cZ\330\277SL\364\235\007}\252\221"
 288      3947F6A4 
 288      635AD8BF 
 288      534CF49D 
 288      077DAA91 
 289 0660 50073AD6 		.ascii	"P\007:\326m\317\231\2023\365\364\034\031^[\367>\012"
 289      6DCF9982 
 289      33F5F41C 
 289      195E5BF7 
 289      3E0A
 290 0672 8BD6B67D 		.ascii	"\213\326\266};\330\373C\332\316V)\347\312\333d\225\266"
 290      3BD8FB43 
 290      DACE5629 
 290      E7CADB64 
 290      95B6
 291 0684 81A21CD1 		.ascii	"\201\242\034\321w$\221E\243\346\226\367\356}\030\030"
 291      77249145 
 291      A3E696F7 
 291      EE7D1818 
 292 0694 A618E879 		.ascii	"\246\030\350y\245\201\302\377\334:RO\333\323W\006\363"
 292      A581C2FF 
 292      DC3A524F 
 292      DBD35706 
 292      F3
 293 06a5 B7855C2E 		.ascii	"\267\205\\.\254\002\332!zo\013#\007\356v\005\340|\275"
 293      AC02DA21 
 293      7A6F0B23 
 293      07EE7605 
 293      E07CBD
 294 06b8 DF853094 		.ascii	"\337\2050\224]\010\313k\036\355Q.\2012\271\244\365\335"
 294      5D08CB6B 
 294      1EED512E 
 294      8132B9A4 
 294      F5DD
 295 06ca DEDE60C0 		.ascii	"\336\336`\300\007\031\266\266\345\320\245)\270\2162"
 295      0719B6B6 
 295      E5D0A529 
 295      B88E32
 296 06d9 333A336A 		.ascii	"3:3j\323\020\322\031\303\240\012\373=Fc\204.ZiDGEG\223"
 296      D310D219 
 296      C3A00AFB 
 296      3D466384 
 296      2E5A6944 
 297 06f1 73AF4034 		.ascii	"s\257@4\242\007\020\015\316\272=~\326\0250\353\374\226"
ARM GAS  C:\Users\info\AppData\Local\Temp\cckGqDON.s 			page 23


 297      A207100D 
 297      CEBA3D7E 
 297      D61530EB 
 297      FC96
 298 0703 360F22B7 		.ascii	"6\017\"\267S\204\310\235\201\310\025*K{\032\332\365"
 298      5384C89D 
 298      81C8152A 
 298      4B7B1ADA 
 298      F5
 299 0714 E0F849A0 		.ascii	"\340\370I\240\032\240j\240*\240\243@\345@e@G\200\016"
 299      1AA06AA0 
 299      2AA0A340 
 299      E5406540 
 299      47800E
 300 0727 0395021D 		.ascii	"\003\225\002\035\002:\010t\000\250\004\250\030h?\320"
 300      023A0874 
 300      00A804A8 
 300      18683FD0 
 301 0737 3EA022A0 		.ascii	">\240\"\240\275~\251\371\274\235\333h\273`\201\013\325"
 301      BD7EA9F9 
 301      BC9DDB68 
 301      BB60810B 
 301      D5
 302 0748 DD53C995 		.ascii	"\335S\311\225\003m;\277P&\374\360v~\327\356\333\343"
 302      036D3BBF 
 302      5026FCF0 
 302      767ED7EE 
 302      DBE3
 303 075a 5548C34A 		.ascii	"UH\303J\276\036?Q\2615ZX\276p\016\251\330\223ZX\356"
 303      BE1E3F51 
 303      B1355A58 
 303      BE700EA9 
 303      D8935A58 
 304 076f 9C79AC42 		.ascii	"\234y\254Bk\265\240\334\3411\240B\353\374\241\247&\224"
 304      6BB5A0DC 
 304      E131A042 
 304      EBFCA1A7 
 304      2694
 305 0781 CD6E157B 		.ascii	"\315n\025{Z\013\313\037\011]*\266A\013\313W\305v\025"
 305      5A0BCB1F 
 305      095D2AB6 
 305      410BCB57 
 305      C57615
 306 0794 7B560BCB 		.ascii	"{V\013\313\227\371V\025{N\013\313G\267Y\305\236\327"
 306      97F95615 
 306      7B4E0BCB 
 306      47B759C5 
 306      9ED7
 307 07a6 C2F2D16D 		.ascii	"\302\362\321m\312\346\216\204\213\012\332w$\234\032"
 307      CAE68E84 
 307      8B0ADA77 
 307      249C1A
 308 07b5 1FB6DAEC 		.ascii	"\037\266\332\354\327X\235\204\213>jS\340\276:\331:\301"
 308      D7589D84 
 308      8B3E6A53 
 308      E0BE3AD9 
 308      3AC1
ARM GAS  C:\Users\info\AppData\Local\Temp\cckGqDON.s 			page 24


 309 07c7 EC9A6CAE 		.ascii	"\354\232l\256\256^\323\306s"
 309      AE5ED3C6 
 309      73
 310 07d0 E2ABDAA7 		.ascii	"\342\253\332\2470x\005l\316\336\361p\376j\303\355\332"
 310      3078056C 
 310      CEDEF170 
 310      FE6AC3ED 
 310      DA
 311 07e1 E362848A 		.ascii	"\343b\204\2129\0019~\014&\263*\370\012\224\300A^\371"
 311      3901397E 
 311      0C26B32A 
 311      F80A94C0 
 311      415EF9
 312 07f4 CF1B26C0 		.ascii	"\317\033&\300o\245H\376y{\353\305m\330[\254\350\356"
 312      6FA548FE 
 312      797BEBC5 
 312      6DD85BAC 
 312      E8EE
 313 0806 BCF21A29 		.ascii	"\274\362\032)\272\304\316;\352\377\200c\264d0_*y_\356"
 313      BAC4CE3B 
 313      EAFF8063 
 313      B464305F 
 313      2A795FEE 
 314 081a 6AFBC2B9 		.ascii	"j\373\302\271^\321n\224\327\233)\370\233\361`\215S_"
 314      5ED16E94 
 314      D79B29F8 
 314      9BF1608D 
 314      535F
 315 082c 45DFD346 		.ascii	"E\337\323Fs\242\313\262\303\231%\265\000\277?\036\376"
 315      73A2CBB2 
 315      C39925B5 
 315      00BF3F1E 
 315      FE
 316 083d AE66504F 		.ascii	"\256fPO\361A\255\203\240z\264\202z\312/\250\036\255"
 316      F141AD83 
 316      A07AB482 
 316      7ACA2FA8 
 316      1EAD
 317 084f A036FB05 		.ascii	"\2406\373\005\365\024\015\352n\032T\026\310\303\231"
 317      F5140DEA 
 317      6E1A5416 
 317      C8C399
 318 085e AF934012 		.ascii	"\257\223@\022\323\372\325@z\270@\036\316\376)3\037\216"
 318      D3FAD540 
 318      7AB8401E 
 318      CEFE2933 
 318      1F8E
 319 0870 0BF4ADA6 		.ascii	"\013\364\255\246\371\261\352\235eG6\275\263\024\372"
 319      F9B1EA9D 
 319      654736BD 
 319      B314FA
 320 087f DF59D8D8 		.ascii	"\337Y\330\330\226\314\237\2201R\346\363\325\223\262"
 320      96CC9F90 
 320      3152E6F3 
 320      D593B2
 321 088e D07B521E 		.ascii	"\320{R\036\037i\332\314\376\023\221\265f\377\211\372"
 321      1F69DACC 
ARM GAS  C:\Users\info\AppData\Local\Temp\cckGqDON.s 			page 25


 321      FE1391B5 
 321      66FF89FA 
 322 089e 320F75E0 		.ascii	"2\017u\340W\177\2369K\375i\020\225\3173\203\367\006"
 322      577F9E39 
 322      4BFD6910 
 322      95CF3383 
 322      F706
 323 08b0 FA02DFCC 		.ascii	"\372\002\337\314\203[\244\334S\271\361m\365\363\014"
 323      835BA4DC 
 323      53B9F16D 
 323      F5F30C
 324 08bf E0D071D5 		.ascii	"\340\320q\325\275\343\374\347\231s\"\371<\263j]\345"
 324      BDE3FCE7 
 324      997322F9 
 324      3CB36A5D 
 324      E5
 325 08d0 6E119F67 		.ascii	"n\021\237g\247\332\345\256\376\222\000\334\311\230\322"
 325      A7DAE5AE 
 325      FE9200DC 
 325      C998D2
 326 08df DCD1263D 		.ascii	"\334\321&=\230\205.\210\230\251Y\223[\334\253\0035y"
 326      98852E88 
 326      98A95993 
 326      5BDCAB03 
 326      3579
 327 08f1 A0A9E682 		.ascii	"\240\251\346\202\221D'M\226E\252\345\274\3271tQ\324"
 327      9144274D 
 327      9645AAE5 
 327      BCD73174 
 327      51D4
 328 0903 114E5574 		.ascii	"\021NUt\211*\312]\2335\026\202{\230\354e{{\256\006\340"
 328      892ACA5D 
 328      9B351682 
 328      7B98EC65 
 328      7B7BAE06 
 329 0918 878CC9AE 		.ascii	"\207\214\311\256\365\344N!\212\256x\025}\3777\256\253"
 329      F5E44E21 
 329      8AAE7815 
 329      7DFF37AE 
 329      AB
 330 0929 22ED2C18 		.ascii	"\"\355,\030\352\030\014\361\205\256\211u\216m<\220\341"
 330      EA180CF1 
 330      85AE8975 
 330      8E6D3C90 
 330      E1
 331 093a F769EB93 		.ascii	"\367i\353\223\327\271\320\265\320\3205{C\327\336\364"
 331      D7B9D0B5 
 331      D0D0357B 
 331      43D7DEF4 
 332 094a 6C9884AE 		.ascii	"l\230\204\256G&\377\235\022O\326\337\226Wm\000\247("
 332      4726FF9D 
 332      124FD6DF 
 332      96576D00 
 332      A728
 333 095c 105DF679 		.ascii	"\020]\366y\325\010^]\026\331\267H\324J<\302\247[\016"
 333      D5085E5D 
 333      16D9B748 
ARM GAS  C:\Users\info\AppData\Local\Temp\cckGqDON.s 			page 26


 333      D44A3CC2 
 333      A75B0E
 334 096f D51A9021 		.ascii	"\325\032\220!\022\201l\264\212\250\033X\312}\300\023"
 334      12816CB4 
 334      8AA81B58 
 334      CA7DC013 
 335 097f 509B087F 		.ascii	"P\233\010\177\317Q;\234\211_\302\231\270M&\230&D\273"
 335      CF513B9C 
 335      895FC299 
 335      B84D2698 
 335      2644BB
 336 0992 2933F001 		.ascii	")3\360\001m\223\037\260\244\370\302\360\275 \376\322"
 336      6D931FB0 
 336      A4F8C2F0 
 336      BD20FED2 
 337 09a2 D2E297E5 		.ascii	"\322\342\227\345\327\330\265\200\274\001|xWCa\010\017"
 337      D7D8B580 
 337      BC017C78 
 337      57436108 
 337      0F
 338 09b3 3EEB07EE 		.ascii	">\353\007\356P\300\035\024\374\244~\3051\304\203\311"
 338      50C01D14 
 338      FCA47EC5 
 338      31C483C9 
 339 09c3 573B157C 		.ascii	"W;\025|]\001_\247\340\366Kg\227\005\316\330E?;Tn\234"
 339      5D015FA7 
 339      E0F64B67 
 339      9705CED8 
 339      453F3B54 
 340 09d9 DF225F9D 		.ascii	"\337\"_\235\012\001\244\253\310\234\357\024g\000l8\255"
 340      0A01A4AB 
 340      C89CEF14 
 340      67006C38 
 340      AD
 341 09ea AC3884C1 		.ascii	"\2548\204\301<\003\206\014\321\037\323E1\233\212\263"
 341      3C03860C 
 341      D11FD345 
 341      319B8AB3 
 342 09fa D2F50AE6 		.ascii	"\322\365\012\346\345\004\314\015\212\311\276\343\031"
 342      E504CC0D 
 342      8AC9BEE3 
 342      19
 343 0a07 15154C75 		.ascii	"\025\025Lu\360xL7\305\014\355j\251\304\012\346\361\004"
 343      F0784C37 
 343      C50CED6A 
 343      A9C40AE6 
 343      F104
 344 0a19 CC4D7186 		.ascii	"\314Mq\206\020\236:o\361<S\202\315n\205\237\024\227"
 344      109E3A6F 
 344      F13C5382 
 344      CD6E859F 
 344      1497
 345 0a2b DB64B525 		.ascii	"\333d\265%$\350\347\377\361\343\351\277\211\215\025"
 345      24E8E7FF 
 345      F1E3E9BF 
 345      898D15
 346 0a3a 824CA654 		.ascii	"\202L\246T\233\335=\317\344NC\226_\3059S\034\013R\314"
ARM GAS  C:\Users\info\AppData\Local\Temp\cckGqDON.s 			page 27


 346      9BDD3DCF 
 346      E44E4396 
 346      5FC53953 
 346      1C0B52CC 
 347 0a4e C9D3136C 		.ascii	"\311\323\023lI\222kz\364\342y\357\277\025gY\342L\221"
 347      49926B7A 
 347      F4E279EF 
 347      BF156759 
 347      E24C91
 348 0a61 5CAE38A7 		.ascii	"\\\2568\247\313a\231nI\221\314nGJ\334{1s\374;l\311N"
 348      CB61996E 
 348      4991CC6E 
 348      474ADC7B 
 348      3173FC3B 
 349 0a78 478A3B6E 		.ascii	"G\212;n\201=5\316\234\222\034\367\313\230\367bbI\353"
 349      813D35CE 
 349      9C921CF7 
 349      CB98F762 
 349      6249EB
 350 0a8b 1DBBC32E 		.ascii	"\035\273\303.\275#\231\343mq6\273%)\325*\305%\233-\211"
 350      BD2399E3 
 350      6D7136BB 
 350      2529D52A 
 350      C5259B2D 
 351 0aa0 36BB1467 		.ascii	"6\273\024g\262J\011\346\324$\267\311\275\304)\271b\022"
 351      B24A09E6 
 351      D424B7C9 
 351      BDC429B9 
 351      6212
 352 0ab2 8540C594 		.ascii	"\205@\305\224\205\377/K\\K\\q&\227\333\012jA\375\217"
 352      85FF2F4B 
 352      5C4B5C71 
 352      2697DB0A 
 352      6A41FD8F 
 353 0ac6 6362E252 		.ascii	"cb\342R\347-\230c\262\270R,q4lV)\336\221j\267H1\026"
 353      E72D9863 
 353      B2B8522C 
 353      71346C56 
 353      29DE916A 
 354 0ade 218C7680 		.ascii	"!\214v\200\016\253\311i\263\303,\263[\232\354\035g\354"
 354      0EABC969 
 354      B3C32CB3 
 354      5B9AEC1D 
 354      67EC
 355 0af0 1B3E36C9 		.ascii	"\033>6\311\014\201\366\301~\344\353\367z\354\033\012"
 355      0C81F6C1 
 355      7EE4EBF7 
 355      7AEC1B0A 
 356 0b00 5EE0B439 		.ascii	"^\340\2649@\252\013z\015\251\356\204y>\301\013m\200"
 356      40AA0B7A 
 356      0DA9EE84 
 356      793EC10B 
 356      6D80
 357 0b12 375BADC4 		.ascii	"7[\255\304\343`\333\034\013\031HqKV\332V\372\303m.S"
 357      E360DB1C 
 357      0B194871 
 357      4B56DA56 
ARM GAS  C:\Users\info\AppData\Local\Temp\cckGqDON.s 			page 28


 357      FAC36D2E 
 358 0b27 82C3EE36 		.ascii	"\202\303\3566\331\354\013\245\024\227dJvX%\375b\223"
 358      D9EC0BA5 
 358      1497644A 
 358      765825FD 
 358      6293
 359 0b39 2321C125 		.ascii	"#!\301%\271\365\222\335\342\000\337\026\030\330\"\307"
 359      B9F592DD 
 359      E200DF16 
 359      18D822C7 
 360 0b49 BE6F72EB 		.ascii	"\276or\353\275\015\035\231\027\024\237\3522Y\222\034"
 360      BD0D1D99 
 360      17149FEA 
 360      3259921C 
 361 0b59 964F15C8 		.ascii	"\226O\025\310\3349\012\2044\246Q\333\314\2208V)\311"
 361      DC390A84 
 361      34A651DB 
 361      CC903856 
 361      29C9
 362 0b6b BCC46489 		.ascii	"\274\304d\211\017\2461Hv-\200v`\374\022\267\004\357"
 362      0FA63148 
 362      762D8076 
 362      60FC12B7 
 362      04EF
 363 0b7d 49168888 		.ascii	"I\026\210\210%\336`\265\271\234\014\025h\227\026\273"
 363      25DE60B5 
 363      B99C0C15 
 363      689716BB 
 364 0b8d E16DA468 		.ascii	"\341m\244hK\2429\2050\336q\233=\301\021\354\264-\226"
 364      4BA23985 
 364      30DE719B 
 364      3DC111EC 
 364      B42D96
 365 0ba0 924C8B6C 		.ascii	"\222L\213lVw\342\264\204$\233\223\330m\362\332=\325"
 365      5677E2B4 
 365      84249B93 
 365      D86DF2DA 
 365      3DD5
 366 0bb2 1B256F47 		.ascii	"\033%oG\260\033\222\300\224(\331\026$\272\015\264Mg"
 366      B01B92C0 
 366      9428D916 
 366      24BA0DB4 
 366      4D67
 367 0bc4 862F4AB1 		.ascii	"\206/J\261\201\011\316\324$\227\322c\262\273B\255f\267"
 367      8109CED4 
 367      2497D263 
 367      B2BB42AD 
 367      66B7
 368 0bd6 D9049352 		.ascii	"\331\004\223R\235&\267-Y\202\256p\0221\237\247\246\330"
 368      9D26B72D 
 368      5982AE70 
 368      12319FA7 
 368      A6D8
 369 0be8 D9B33FFD 		.ascii	"\331\263?\375\3603\275\313i\243\3412\272\240\217\215"
 369      F033BDCB 
 369      69A3E132 
 369      BAA08F8D 
ARM GAS  C:\Users\info\AppData\Local\Temp\cckGqDON.s 			page 29


 370 0bf8 247E164A 		.ascii	"$~\026J\030\177\201\323\\\326q\362B\235\016X]\210\277"
 370      187F81D3 
 370      5CD671F2 
 370      429D0E58 
 370      5D88BF
 371 0c0b E4362D32 		.ascii	"\3446-2\333\334\020\220p\306\3613\223]\021\220\255\340"
 371      DBDC1090 
 371      70C6F133 
 371      935D1190 
 371      ADE0
 372 0c1d BECD095B 		.ascii	"\276\315\011[\316e\216'f\023\264\035\006\210\000:\""
 372      CE658E27 
 372      6613B41D 
 372      0688003A 
 372      22
 373 0c2e D9F98150 		.ascii	"\331\371\201P?t\222\264PJ\232\306\303hO\004\313L.\234"
 373      3F7492B4 
 373      504A9AC6 
 373      C3684F04 
 373      CB4C2E9C 
 374 0c42 901A29A9 		.ascii	"\220\032)\251\026\267\221E\225\305)|B2C\206\207M\234"
 374      16B79145 
 374      95C5297C 
 374      42324386 
 374      874D9C
 375 0c55 EA666BCA 		.ascii	"\352fk\312$\204\371\022\225e$Y\352It\334=\215\276\346"
 375      2484F912 
 375      95652459 
 375      EA4974DC 
 375      3D8DBEE6 
 376 0c69 4BEE8F24 		.ascii	"K\356\217${\352o\027Jv\267n\221d\376t2\355\246\211b"
 376      7BEA6F17 
 376      4A76B76E 
 376      9164FE74 
 376      32EDA689 
 377 0c7e 312725E9 		.ascii	"1'%\351\355\016\233=\0116\367\177\001\314\203\0254"
 377      ED0E9B3D 
 377      0936F77F 
 377      01CC8315 
 377      34
 378              		.text
 379              		.section	.gnu.lto_.symtab.792a6170,"",%progbits
 380 0000 75387838 		.ascii	"u8x8_GetMenuEvent\000"
 380      5F476574 
 380      4D656E75 
 380      4576656E 
 380      7400
 381 0012 00       		.ascii	"\000"
 382 0013 01       		.ascii	"\001"
 383 0014 00       		.ascii	"\000"
 384 0015 00000000 		.ascii	"\000\000\000\000\000\000\000\000"
 384      00000000 
 385 001d 4C010000 		.ascii	"L\001\000\000"
 386 0021 75387838 		.ascii	"u8x8_gpio_call\000"
 386      5F677069 
 386      6F5F6361 
 386      6C6C00
ARM GAS  C:\Users\info\AppData\Local\Temp\cckGqDON.s 			page 30


 387 0030 00       		.ascii	"\000"
 388 0031 02       		.ascii	"\002"
 389 0032 00       		.ascii	"\000"
 390 0033 00000000 		.ascii	"\000\000\000\000\000\000\000\000"
 390      00000000 
 391 003b 54010000 		.ascii	"T\001\000\000"
 392              		.text
 393              		.section	.gnu.lto_.opts,"",%progbits
 394 0000 272D666D 		.ascii	"'-fmath-errno' '-fsigned-zeros' '-ftrapping-math' '"
 394      6174682D 
 394      6572726E 
 394      6F272027 
 394      2D667369 
 395 0033 2D666E6F 		.ascii	"-fno-trapv' '-fno-strict-overflow' '-fno-openmp' '-"
 395      2D747261 
 395      70762720 
 395      272D666E 
 395      6F2D7374 
 396 0066 666E6F2D 		.ascii	"fno-openacc' '-mcpu=cortex-m3' '-mthumb' '-g' '-Og'"
 396      6F70656E 
 396      61636327 
 396      20272D6D 
 396      6370753D 
 397 0099 20272D66 		.ascii	" '-ffunction-sections' '-ffat-lto-objects' '-flto'\000"
 397      66756E63 
 397      74696F6E 
 397      2D736563 
 397      74696F6E 
 398              		.text
 399              		.cfi_sections	.debug_frame
 400              		.section	.text.u8x8_find_first_diff,"ax",%progbits
 401              		.align	2
 402              		.thumb
 403              		.thumb_func
 404              		.type	u8x8_find_first_diff, %function
 405              	u8x8_find_first_diff:
 406              	.LFB1:
 407              		.file 1 "..\\u8g2_csrc\\u8x8_debounce.c"
   1:..\u8g2_csrc/u8x8_debounce.c **** /*
   2:..\u8g2_csrc/u8x8_debounce.c **** 
   3:..\u8g2_csrc/u8x8_debounce.c ****   u8x8_debounce.c
   4:..\u8g2_csrc/u8x8_debounce.c ****   
   5:..\u8g2_csrc/u8x8_debounce.c ****   Key/button simple debounce algorithm (Addon for u8x8)
   6:..\u8g2_csrc/u8x8_debounce.c ****   
   7:..\u8g2_csrc/u8x8_debounce.c ****   Universal 8bit Graphics Library (https://github.com/olikraus/u8g2/)
   8:..\u8g2_csrc/u8x8_debounce.c **** 
   9:..\u8g2_csrc/u8x8_debounce.c ****   Copyright (c) 2016, olikraus@gmail.com
  10:..\u8g2_csrc/u8x8_debounce.c ****   All rights reserved.
  11:..\u8g2_csrc/u8x8_debounce.c **** 
  12:..\u8g2_csrc/u8x8_debounce.c ****   Redistribution and use in source and binary forms, with or without modification, 
  13:..\u8g2_csrc/u8x8_debounce.c ****   are permitted provided that the following conditions are met:
  14:..\u8g2_csrc/u8x8_debounce.c **** 
  15:..\u8g2_csrc/u8x8_debounce.c ****   * Redistributions of source code must retain the above copyright notice, this list 
  16:..\u8g2_csrc/u8x8_debounce.c ****     of conditions and the following disclaimer.
  17:..\u8g2_csrc/u8x8_debounce.c ****     
  18:..\u8g2_csrc/u8x8_debounce.c ****   * Redistributions in binary form must reproduce the above copyright notice, this 
  19:..\u8g2_csrc/u8x8_debounce.c ****     list of conditions and the following disclaimer in the documentation and/or other 
ARM GAS  C:\Users\info\AppData\Local\Temp\cckGqDON.s 			page 31


  20:..\u8g2_csrc/u8x8_debounce.c ****     materials provided with the distribution.
  21:..\u8g2_csrc/u8x8_debounce.c **** 
  22:..\u8g2_csrc/u8x8_debounce.c ****   THIS SOFTWARE IS PROVIDED BY THE COPYRIGHT HOLDERS AND 
  23:..\u8g2_csrc/u8x8_debounce.c ****   CONTRIBUTORS "AS IS" AND ANY EXPRESS OR IMPLIED WARRANTIES, 
  24:..\u8g2_csrc/u8x8_debounce.c ****   INCLUDING, BUT NOT LIMITED TO, THE IMPLIED WARRANTIES OF 
  25:..\u8g2_csrc/u8x8_debounce.c ****   MERCHANTABILITY AND FITNESS FOR A PARTICULAR PURPOSE ARE 
  26:..\u8g2_csrc/u8x8_debounce.c ****   DISCLAIMED. IN NO EVENT SHALL THE COPYRIGHT HOLDER OR 
  27:..\u8g2_csrc/u8x8_debounce.c ****   CONTRIBUTORS BE LIABLE FOR ANY DIRECT, INDIRECT, INCIDENTAL, 
  28:..\u8g2_csrc/u8x8_debounce.c ****   SPECIAL, EXEMPLARY, OR CONSEQUENTIAL DAMAGES (INCLUDING, BUT 
  29:..\u8g2_csrc/u8x8_debounce.c ****   NOT LIMITED TO, PROCUREMENT OF SUBSTITUTE GOODS OR SERVICES; 
  30:..\u8g2_csrc/u8x8_debounce.c ****   LOSS OF USE, DATA, OR PROFITS; OR BUSINESS INTERRUPTION) HOWEVER 
  31:..\u8g2_csrc/u8x8_debounce.c ****   CAUSED AND ON ANY THEORY OF LIABILITY, WHETHER IN CONTRACT, 
  32:..\u8g2_csrc/u8x8_debounce.c ****   STRICT LIABILITY, OR TORT (INCLUDING NEGLIGENCE OR OTHERWISE) 
  33:..\u8g2_csrc/u8x8_debounce.c ****   ARISING IN ANY WAY OUT OF THE USE OF THIS SOFTWARE, EVEN IF 
  34:..\u8g2_csrc/u8x8_debounce.c ****   ADVISED OF THE POSSIBILITY OF SUCH DAMAGE.  
  35:..\u8g2_csrc/u8x8_debounce.c ****   
  36:..\u8g2_csrc/u8x8_debounce.c **** */
  37:..\u8g2_csrc/u8x8_debounce.c **** 
  38:..\u8g2_csrc/u8x8_debounce.c **** #include "u8x8.h"
  39:..\u8g2_csrc/u8x8_debounce.c **** 
  40:..\u8g2_csrc/u8x8_debounce.c **** static uint8_t u8x8_read_pin_state(u8x8_t *u8x8)
  41:..\u8g2_csrc/u8x8_debounce.c **** {
  42:..\u8g2_csrc/u8x8_debounce.c ****   uint8_t i;
  43:..\u8g2_csrc/u8x8_debounce.c ****   uint8_t pin_state;
  44:..\u8g2_csrc/u8x8_debounce.c ****   
  45:..\u8g2_csrc/u8x8_debounce.c ****   pin_state = 255;	/* be compatible with the setup of the default pin setup, which is 255 */
  46:..\u8g2_csrc/u8x8_debounce.c ****   for( i = 0; i < U8X8_PIN_INPUT_CNT; i++ )
  47:..\u8g2_csrc/u8x8_debounce.c ****   {
  48:..\u8g2_csrc/u8x8_debounce.c ****     pin_state <<= 1;
  49:..\u8g2_csrc/u8x8_debounce.c ****     
  50:..\u8g2_csrc/u8x8_debounce.c ****     /* the callback function should put the return value into this variable */
  51:..\u8g2_csrc/u8x8_debounce.c ****     u8x8->gpio_result = 1;
  52:..\u8g2_csrc/u8x8_debounce.c ****     u8x8_gpio_call(u8x8, U8X8_MSG_GPIO(i+U8X8_PIN_OUTPUT_CNT), 0);
  53:..\u8g2_csrc/u8x8_debounce.c ****     pin_state |= u8x8->gpio_result & 1;
  54:..\u8g2_csrc/u8x8_debounce.c ****   }
  55:..\u8g2_csrc/u8x8_debounce.c ****   
  56:..\u8g2_csrc/u8x8_debounce.c ****   return pin_state;
  57:..\u8g2_csrc/u8x8_debounce.c **** }
  58:..\u8g2_csrc/u8x8_debounce.c **** 
  59:..\u8g2_csrc/u8x8_debounce.c **** /*
  60:..\u8g2_csrc/u8x8_debounce.c ****   return 0 to U8X8_PIN_INPUT_CNT-1 if there is a difference
  61:..\u8g2_csrc/u8x8_debounce.c ****   return U8X8_PIN_INPUT_CNT if there is no difference
  62:..\u8g2_csrc/u8x8_debounce.c **** */
  63:..\u8g2_csrc/u8x8_debounce.c **** static uint8_t u8x8_find_first_diff(uint8_t a, uint8_t b)
  64:..\u8g2_csrc/u8x8_debounce.c **** {
 408              		.loc 1 64 0
 409              		.cfi_startproc
 410              		@ args = 0, pretend = 0, frame = 0
 411              		@ frame_needed = 0, uses_anonymous_args = 0
 412              		@ link register save eliminated.
 413              	.LVL0:
 414 0000 10B4     		push	{r4}
 415              		.cfi_def_cfa_offset 4
 416              		.cfi_offset 4, -4
 417              	.LVL1:
  65:..\u8g2_csrc/u8x8_debounce.c ****   uint8_t mask;
  66:..\u8g2_csrc/u8x8_debounce.c ****   uint8_t i;
ARM GAS  C:\Users\info\AppData\Local\Temp\cckGqDON.s 			page 32


  67:..\u8g2_csrc/u8x8_debounce.c ****   mask = 1;
  68:..\u8g2_csrc/u8x8_debounce.c ****   i = U8X8_PIN_INPUT_CNT;
 418              		.loc 1 68 0
 419 0002 0623     		movs	r3, #6
  67:..\u8g2_csrc/u8x8_debounce.c ****   i = U8X8_PIN_INPUT_CNT;
 420              		.loc 1 67 0
 421 0004 0122     		movs	r2, #1
 422              	.LVL2:
 423              	.L3:
  69:..\u8g2_csrc/u8x8_debounce.c ****   do
  70:..\u8g2_csrc/u8x8_debounce.c ****   {
  71:..\u8g2_csrc/u8x8_debounce.c ****     i--;
 424              		.loc 1 71 0
 425 0006 013B     		subs	r3, r3, #1
 426              	.LVL3:
 427 0008 DBB2     		uxtb	r3, r3
 428              	.LVL4:
  72:..\u8g2_csrc/u8x8_debounce.c ****     if ( (a & mask) != (b & mask) )
 429              		.loc 1 72 0
 430 000a 80EA0104 		eor	r4, r0, r1
 431 000e 2242     		tst	r2, r4
 432 0010 05D1     		bne	.L4
  73:..\u8g2_csrc/u8x8_debounce.c ****       return i;
  74:..\u8g2_csrc/u8x8_debounce.c ****     mask <<= 1;
 433              		.loc 1 74 0
 434 0012 5200     		lsls	r2, r2, #1
 435              	.LVL5:
 436 0014 D2B2     		uxtb	r2, r2
 437              	.LVL6:
  75:..\u8g2_csrc/u8x8_debounce.c ****   } while( i > 0 );
 438              		.loc 1 75 0
 439 0016 002B     		cmp	r3, #0
 440 0018 F5D1     		bne	.L3
  76:..\u8g2_csrc/u8x8_debounce.c ****   return U8X8_PIN_INPUT_CNT;
 441              		.loc 1 76 0
 442 001a 0620     		movs	r0, #6
 443              	.LVL7:
 444 001c 00E0     		b	.L2
 445              	.LVL8:
 446              	.L4:
  73:..\u8g2_csrc/u8x8_debounce.c ****       return i;
 447              		.loc 1 73 0
 448 001e 1846     		mov	r0, r3
 449              	.LVL9:
 450              	.L2:
  77:..\u8g2_csrc/u8x8_debounce.c **** }
 451              		.loc 1 77 0
 452 0020 10BC     		pop	{r4}
 453              		.cfi_restore 4
 454              		.cfi_def_cfa_offset 0
 455 0022 7047     		bx	lr
 456              		.cfi_endproc
 457              	.LFE1:
 458              		.size	u8x8_find_first_diff, .-u8x8_find_first_diff
 459              		.section	.text.u8x8_read_pin_state,"ax",%progbits
 460              		.align	2
 461              		.thumb
ARM GAS  C:\Users\info\AppData\Local\Temp\cckGqDON.s 			page 33


 462              		.thumb_func
 463              		.type	u8x8_read_pin_state, %function
 464              	u8x8_read_pin_state:
 465              	.LFB0:
  41:..\u8g2_csrc/u8x8_debounce.c ****   uint8_t i;
 466              		.loc 1 41 0
 467              		.cfi_startproc
 468              		@ args = 0, pretend = 0, frame = 0
 469              		@ frame_needed = 0, uses_anonymous_args = 0
 470              	.LVL10:
 471 0000 70B5     		push	{r4, r5, r6, lr}
 472              		.cfi_def_cfa_offset 16
 473              		.cfi_offset 4, -16
 474              		.cfi_offset 5, -12
 475              		.cfi_offset 6, -8
 476              		.cfi_offset 14, -4
 477 0002 0646     		mov	r6, r0
 478              	.LVL11:
  45:..\u8g2_csrc/u8x8_debounce.c ****   for( i = 0; i < U8X8_PIN_INPUT_CNT; i++ )
 479              		.loc 1 45 0
 480 0004 FF20     		movs	r0, #255
 481              	.LVL12:
  46:..\u8g2_csrc/u8x8_debounce.c ****   {
 482              		.loc 1 46 0
 483 0006 0024     		movs	r4, #0
 484 0008 12E0     		b	.L7
 485              	.LVL13:
 486              	.L8:
  48:..\u8g2_csrc/u8x8_debounce.c ****     
 487              		.loc 1 48 0 discriminator 3
 488 000a 4000     		lsls	r0, r0, #1
 489              	.LVL14:
 490 000c C5B2     		uxtb	r5, r0
 491              	.LVL15:
  51:..\u8g2_csrc/u8x8_debounce.c ****     u8x8_gpio_call(u8x8, U8X8_MSG_GPIO(i+U8X8_PIN_OUTPUT_CNT), 0);
 492              		.loc 1 51 0 discriminator 3
 493 000e 0123     		movs	r3, #1
 494 0010 86F82830 		strb	r3, [r6, #40]
  52:..\u8g2_csrc/u8x8_debounce.c ****     pin_state |= u8x8->gpio_result & 1;
 495              		.loc 1 52 0 discriminator 3
 496 0014 04F15001 		add	r1, r4, #80
 497 0018 0022     		movs	r2, #0
 498 001a C9B2     		uxtb	r1, r1
 499 001c 3046     		mov	r0, r6
 500 001e FFF7FEFF 		bl	u8x8_gpio_call
 501              	.LVL16:
  53:..\u8g2_csrc/u8x8_debounce.c ****   }
 502              		.loc 1 53 0 discriminator 3
 503 0022 96F82800 		ldrb	r0, [r6, #40]	@ zero_extendqisi2
 504 0026 00F00100 		and	r0, r0, #1
 505 002a 2843     		orrs	r0, r0, r5
 506              	.LVL17:
  46:..\u8g2_csrc/u8x8_debounce.c ****   {
 507              		.loc 1 46 0 discriminator 3
 508 002c 0134     		adds	r4, r4, #1
 509              	.LVL18:
 510 002e E4B2     		uxtb	r4, r4
ARM GAS  C:\Users\info\AppData\Local\Temp\cckGqDON.s 			page 34


 511              	.LVL19:
 512              	.L7:
  46:..\u8g2_csrc/u8x8_debounce.c ****   {
 513              		.loc 1 46 0 is_stmt 0 discriminator 1
 514 0030 052C     		cmp	r4, #5
 515 0032 EAD9     		bls	.L8
  57:..\u8g2_csrc/u8x8_debounce.c **** 
 516              		.loc 1 57 0 is_stmt 1
 517 0034 70BD     		pop	{r4, r5, r6, pc}
 518              		.cfi_endproc
 519              	.LFE0:
 520              		.size	u8x8_read_pin_state, .-u8x8_read_pin_state
 521 0036 00BF     		.section	.text.u8x8_GetMenuEvent,"ax",%progbits
 522              		.align	2
 523              		.weak	u8x8_GetMenuEvent
 524              		.thumb
 525              		.thumb_func
 526              		.type	u8x8_GetMenuEvent, %function
 527              	u8x8_GetMenuEvent:
 528              	.LFB2:
  78:..\u8g2_csrc/u8x8_debounce.c **** 
  79:..\u8g2_csrc/u8x8_debounce.c **** /*
  80:..\u8g2_csrc/u8x8_debounce.c ****   State A:
  81:..\u8g2_csrc/u8x8_debounce.c ****     u8x8->debounce_last_pin_state == current_state 
  82:..\u8g2_csrc/u8x8_debounce.c ****       --> State A
  83:..\u8g2_csrc/u8x8_debounce.c ****     u8x8->debounce_last_pin_state != current_state 
  84:..\u8g2_csrc/u8x8_debounce.c ****       --> u8x8->debounce_last_pin_state = current_state 
  85:..\u8g2_csrc/u8x8_debounce.c ****       --> State B + cnt
  86:..\u8g2_csrc/u8x8_debounce.c **** 
  87:..\u8g2_csrc/u8x8_debounce.c ****   State B + cnt
  88:..\u8g2_csrc/u8x8_debounce.c ****     --> state--
  89:..\u8g2_csrc/u8x8_debounce.c **** 
  90:..\u8g2_csrc/u8x8_debounce.c ****   State B
  91:..\u8g2_csrc/u8x8_debounce.c ****     u8x8->debounce_last_pin_state == current_state 
  92:..\u8g2_csrc/u8x8_debounce.c ****       --> keypress detected
  93:..\u8g2_csrc/u8x8_debounce.c ****       --> State C
  94:..\u8g2_csrc/u8x8_debounce.c ****     u8x8->debounce_last_pin_state != current_state 
  95:..\u8g2_csrc/u8x8_debounce.c ****       --> State A
  96:..\u8g2_csrc/u8x8_debounce.c **** 
  97:..\u8g2_csrc/u8x8_debounce.c ****   State C
  98:..\u8g2_csrc/u8x8_debounce.c ****     u8x8->debounce_last_pin_state == current_state 
  99:..\u8g2_csrc/u8x8_debounce.c ****       --> State C
 100:..\u8g2_csrc/u8x8_debounce.c ****     u8x8->debounce_last_pin_state != current_state 
 101:..\u8g2_csrc/u8x8_debounce.c ****       --> State A
 102:..\u8g2_csrc/u8x8_debounce.c **** 
 103:..\u8g2_csrc/u8x8_debounce.c **** */
 104:..\u8g2_csrc/u8x8_debounce.c **** 
 105:..\u8g2_csrc/u8x8_debounce.c **** #ifdef __unix__xxxxxx_THIS_IS_DISABLED
 106:..\u8g2_csrc/u8x8_debounce.c **** 
 107:..\u8g2_csrc/u8x8_debounce.c **** #include <stdio.h>
 108:..\u8g2_csrc/u8x8_debounce.c **** #include <stdlib.h>
 109:..\u8g2_csrc/u8x8_debounce.c **** uint8_t u8x8_GetMenuEvent(u8x8_t *u8x8)
 110:..\u8g2_csrc/u8x8_debounce.c **** {
 111:..\u8g2_csrc/u8x8_debounce.c ****     int c;
 112:..\u8g2_csrc/u8x8_debounce.c ****     c = getc(stdin);
 113:..\u8g2_csrc/u8x8_debounce.c ****     switch(c)
 114:..\u8g2_csrc/u8x8_debounce.c ****     {
ARM GAS  C:\Users\info\AppData\Local\Temp\cckGqDON.s 			page 35


 115:..\u8g2_csrc/u8x8_debounce.c ****         case 'n':
 116:..\u8g2_csrc/u8x8_debounce.c ****             return  U8X8_MSG_GPIO_MENU_NEXT;
 117:..\u8g2_csrc/u8x8_debounce.c ****         case 'p':
 118:..\u8g2_csrc/u8x8_debounce.c ****             return  U8X8_MSG_GPIO_MENU_PREV;
 119:..\u8g2_csrc/u8x8_debounce.c ****         case 's':
 120:..\u8g2_csrc/u8x8_debounce.c ****             return  U8X8_MSG_GPIO_MENU_SELECT;
 121:..\u8g2_csrc/u8x8_debounce.c ****         case 'h':
 122:..\u8g2_csrc/u8x8_debounce.c ****             return  U8X8_MSG_GPIO_MENU_HOME;
 123:..\u8g2_csrc/u8x8_debounce.c ****         case 'x':
 124:..\u8g2_csrc/u8x8_debounce.c ****             exit(0);
 125:..\u8g2_csrc/u8x8_debounce.c ****         default:
 126:..\u8g2_csrc/u8x8_debounce.c ****             puts("press n, p, s, h or x");
 127:..\u8g2_csrc/u8x8_debounce.c ****             break;
 128:..\u8g2_csrc/u8x8_debounce.c ****     }
 129:..\u8g2_csrc/u8x8_debounce.c ****     return 0;
 130:..\u8g2_csrc/u8x8_debounce.c **** }
 131:..\u8g2_csrc/u8x8_debounce.c **** 
 132:..\u8g2_csrc/u8x8_debounce.c **** 
 133:..\u8g2_csrc/u8x8_debounce.c **** #else  /* __unix__ */
 134:..\u8g2_csrc/u8x8_debounce.c **** 
 135:..\u8g2_csrc/u8x8_debounce.c **** 
 136:..\u8g2_csrc/u8x8_debounce.c **** #define U8X8_DEBOUNCE_WAIT 2
 137:..\u8g2_csrc/u8x8_debounce.c **** /* do debounce and return a GPIO msg which indicates the event */
 138:..\u8g2_csrc/u8x8_debounce.c **** /* returns 0, if there is no event */
 139:..\u8g2_csrc/u8x8_debounce.c **** #if defined(__GNUC__) && !defined(__CYGWIN__)
 140:..\u8g2_csrc/u8x8_debounce.c **** # pragma weak  u8x8_GetMenuEvent
 141:..\u8g2_csrc/u8x8_debounce.c **** #endif
 142:..\u8g2_csrc/u8x8_debounce.c **** uint8_t u8x8_GetMenuEvent(u8x8_t *u8x8)
 143:..\u8g2_csrc/u8x8_debounce.c **** {
 529              		.loc 1 143 0
 530              		.cfi_startproc
 531              		@ args = 0, pretend = 0, frame = 0
 532              		@ frame_needed = 0, uses_anonymous_args = 0
 533              	.LVL20:
 534 0000 10B5     		push	{r4, lr}
 535              		.cfi_def_cfa_offset 8
 536              		.cfi_offset 4, -8
 537              		.cfi_offset 14, -4
 538 0002 0446     		mov	r4, r0
 539              	.LVL21:
 144:..\u8g2_csrc/u8x8_debounce.c ****   uint8_t pin_state;
 145:..\u8g2_csrc/u8x8_debounce.c ****   uint8_t result_msg = 0;	/* invalid message, no event */
 146:..\u8g2_csrc/u8x8_debounce.c ****   
 147:..\u8g2_csrc/u8x8_debounce.c ****   pin_state = u8x8_read_pin_state(u8x8);
 540              		.loc 1 147 0
 541 0004 FFF7FEFF 		bl	u8x8_read_pin_state
 542              	.LVL22:
 148:..\u8g2_csrc/u8x8_debounce.c ****   
 149:..\u8g2_csrc/u8x8_debounce.c ****   /* States A, B, C & D are encoded in the upper 4 bit*/
 150:..\u8g2_csrc/u8x8_debounce.c ****   switch(u8x8->debounce_state)
 543              		.loc 1 150 0
 544 0008 94F82B30 		ldrb	r3, [r4, #43]	@ zero_extendqisi2
 545 000c 102B     		cmp	r3, #16
 546 000e 10D0     		beq	.L12
 547 0010 01D8     		bhi	.L13
 548 0012 2BB1     		cbz	r3, .L14
 549 0014 38E0     		b	.L11
ARM GAS  C:\Users\info\AppData\Local\Temp\cckGqDON.s 			page 36


 550              	.L13:
 551 0016 202B     		cmp	r3, #32
 552 0018 1AD0     		beq	.L15
 553 001a 302B     		cmp	r3, #48
 554 001c 25D0     		beq	.L16
 555 001e 33E0     		b	.L11
 556              	.L14:
 151:..\u8g2_csrc/u8x8_debounce.c ****   {
 152:..\u8g2_csrc/u8x8_debounce.c ****     case 0x00:	/* State A, default state */
 153:..\u8g2_csrc/u8x8_debounce.c ****       if ( u8x8->debounce_default_pin_state != pin_state )
 557              		.loc 1 153 0
 558 0020 94F82930 		ldrb	r3, [r4, #41]	@ zero_extendqisi2
 559 0024 9842     		cmp	r0, r3
 560 0026 34D0     		beq	.L20
 154:..\u8g2_csrc/u8x8_debounce.c ****       {
 155:..\u8g2_csrc/u8x8_debounce.c **** 	//u8x8->debounce_last_pin_state = pin_state;
 156:..\u8g2_csrc/u8x8_debounce.c **** 	u8x8->debounce_state = 0x010 + U8X8_DEBOUNCE_WAIT;
 561              		.loc 1 156 0
 562 0028 1223     		movs	r3, #18
 563 002a 84F82B30 		strb	r3, [r4, #43]
 145:..\u8g2_csrc/u8x8_debounce.c ****   
 564              		.loc 1 145 0
 565 002e 0020     		movs	r0, #0
 566              	.LVL23:
 567 0030 10BD     		pop	{r4, pc}
 568              	.LVL24:
 569              	.L12:
 157:..\u8g2_csrc/u8x8_debounce.c ****       }
 158:..\u8g2_csrc/u8x8_debounce.c ****       break;
 159:..\u8g2_csrc/u8x8_debounce.c ****     case 0x10:	/* State B */
 160:..\u8g2_csrc/u8x8_debounce.c ****       //if ( u8x8->debounce_last_pin_state != pin_state )
 161:..\u8g2_csrc/u8x8_debounce.c ****       if ( u8x8->debounce_default_pin_state == pin_state )
 570              		.loc 1 161 0
 571 0032 94F82930 		ldrb	r3, [r4, #41]	@ zero_extendqisi2
 572 0036 9842     		cmp	r0, r3
 573 0038 03D1     		bne	.L18
 162:..\u8g2_csrc/u8x8_debounce.c ****       {
 163:..\u8g2_csrc/u8x8_debounce.c **** 	u8x8->debounce_state = 0x00;	/* back to state A */
 574              		.loc 1 163 0
 575 003a 0020     		movs	r0, #0
 576              	.LVL25:
 577 003c 84F82B00 		strb	r0, [r4, #43]
 578 0040 10BD     		pop	{r4, pc}
 579              	.LVL26:
 580              	.L18:
 164:..\u8g2_csrc/u8x8_debounce.c ****       }
 165:..\u8g2_csrc/u8x8_debounce.c ****       else
 166:..\u8g2_csrc/u8x8_debounce.c ****       {
 167:..\u8g2_csrc/u8x8_debounce.c **** 	/* keypress detected */
 168:..\u8g2_csrc/u8x8_debounce.c **** 	u8x8->debounce_last_pin_state = pin_state;
 581              		.loc 1 168 0
 582 0042 84F82A00 		strb	r0, [r4, #42]
 169:..\u8g2_csrc/u8x8_debounce.c **** 	//result_msg = U8X8_MSG_GPIO_MENU_NEXT;
 170:..\u8g2_csrc/u8x8_debounce.c **** 	u8x8->debounce_state = 0x020 + U8X8_DEBOUNCE_WAIT;	/* got to state C */	
 583              		.loc 1 170 0
 584 0046 2223     		movs	r3, #34
 585 0048 84F82B30 		strb	r3, [r4, #43]
ARM GAS  C:\Users\info\AppData\Local\Temp\cckGqDON.s 			page 37


 145:..\u8g2_csrc/u8x8_debounce.c ****   
 586              		.loc 1 145 0
 587 004c 0020     		movs	r0, #0
 588              	.LVL27:
 589 004e 10BD     		pop	{r4, pc}
 590              	.LVL28:
 591              	.L15:
 171:..\u8g2_csrc/u8x8_debounce.c ****       }
 172:..\u8g2_csrc/u8x8_debounce.c ****       break;
 173:..\u8g2_csrc/u8x8_debounce.c ****       
 174:..\u8g2_csrc/u8x8_debounce.c ****     case 0x20:	/* State C */
 175:..\u8g2_csrc/u8x8_debounce.c ****       if ( u8x8->debounce_last_pin_state != pin_state )
 592              		.loc 1 175 0
 593 0050 94F82A30 		ldrb	r3, [r4, #42]	@ zero_extendqisi2
 594 0054 9842     		cmp	r0, r3
 595 0056 03D0     		beq	.L19
 176:..\u8g2_csrc/u8x8_debounce.c ****       {
 177:..\u8g2_csrc/u8x8_debounce.c **** 	u8x8->debounce_state = 0x00;	/* back to state A */
 596              		.loc 1 177 0
 597 0058 0020     		movs	r0, #0
 598              	.LVL29:
 599 005a 84F82B00 		strb	r0, [r4, #43]
 600 005e 10BD     		pop	{r4, pc}
 601              	.LVL30:
 602              	.L19:
 178:..\u8g2_csrc/u8x8_debounce.c ****       }
 179:..\u8g2_csrc/u8x8_debounce.c ****       else
 180:..\u8g2_csrc/u8x8_debounce.c ****       {
 181:..\u8g2_csrc/u8x8_debounce.c **** 	u8x8->debounce_state = 0x030;	/* got to state D */	
 603              		.loc 1 181 0
 604 0060 3023     		movs	r3, #48
 605 0062 84F82B30 		strb	r3, [r4, #43]
 145:..\u8g2_csrc/u8x8_debounce.c ****   
 606              		.loc 1 145 0
 607 0066 0020     		movs	r0, #0
 608              	.LVL31:
 609 0068 10BD     		pop	{r4, pc}
 610              	.LVL32:
 611              	.L16:
 182:..\u8g2_csrc/u8x8_debounce.c ****       }
 183:..\u8g2_csrc/u8x8_debounce.c ****       break;
 184:..\u8g2_csrc/u8x8_debounce.c ****       
 185:..\u8g2_csrc/u8x8_debounce.c ****     case 0x30:	/* State D */
 186:..\u8g2_csrc/u8x8_debounce.c ****       /* wait until key release */
 187:..\u8g2_csrc/u8x8_debounce.c ****       if ( u8x8->debounce_default_pin_state == pin_state )
 612              		.loc 1 187 0
 613 006a 94F82930 		ldrb	r3, [r4, #41]	@ zero_extendqisi2
 614 006e 9842     		cmp	r0, r3
 615 0070 11D1     		bne	.L21
 188:..\u8g2_csrc/u8x8_debounce.c ****       {
 189:..\u8g2_csrc/u8x8_debounce.c **** 	u8x8->debounce_state = 0x00;	/* back to state A */
 616              		.loc 1 189 0
 617 0072 0022     		movs	r2, #0
 618 0074 84F82B20 		strb	r2, [r4, #43]
 190:..\u8g2_csrc/u8x8_debounce.c **** 	result_msg = U8X8_MSG_GPIO(u8x8_find_first_diff(u8x8->debounce_default_pin_state, u8x8->debounce_l
 619              		.loc 1 190 0
 620 0078 94F82A10 		ldrb	r1, [r4, #42]	@ zero_extendqisi2
ARM GAS  C:\Users\info\AppData\Local\Temp\cckGqDON.s 			page 38


 621 007c 1846     		mov	r0, r3
 622              	.LVL33:
 623 007e FFF7FEFF 		bl	u8x8_find_first_diff
 624              	.LVL34:
 625 0082 5030     		adds	r0, r0, #80
 626 0084 C0B2     		uxtb	r0, r0
 627              	.LVL35:
 628 0086 10BD     		pop	{r4, pc}
 629              	.LVL36:
 630              	.L11:
 191:..\u8g2_csrc/u8x8_debounce.c ****       }
 192:..\u8g2_csrc/u8x8_debounce.c ****       else
 193:..\u8g2_csrc/u8x8_debounce.c ****       {
 194:..\u8g2_csrc/u8x8_debounce.c **** 	//result_msg = U8X8_MSG_GPIO_MENU_NEXT;
 195:..\u8g2_csrc/u8x8_debounce.c **** 	// maybe implement autorepeat here 
 196:..\u8g2_csrc/u8x8_debounce.c ****       }
 197:..\u8g2_csrc/u8x8_debounce.c ****       break;
 198:..\u8g2_csrc/u8x8_debounce.c ****     default:
 199:..\u8g2_csrc/u8x8_debounce.c ****       u8x8->debounce_state--;	/* count down, until there is a valid state */
 631              		.loc 1 199 0
 632 0088 013B     		subs	r3, r3, #1
 633 008a 84F82B30 		strb	r3, [r4, #43]
 145:..\u8g2_csrc/u8x8_debounce.c ****   
 634              		.loc 1 145 0
 635 008e 0020     		movs	r0, #0
 636              	.LVL37:
 200:..\u8g2_csrc/u8x8_debounce.c ****       break;
 637              		.loc 1 200 0
 638 0090 10BD     		pop	{r4, pc}
 639              	.LVL38:
 640              	.L20:
 145:..\u8g2_csrc/u8x8_debounce.c ****   
 641              		.loc 1 145 0
 642 0092 0020     		movs	r0, #0
 643              	.LVL39:
 644 0094 10BD     		pop	{r4, pc}
 645              	.LVL40:
 646              	.L21:
 647 0096 0020     		movs	r0, #0
 648              	.LVL41:
 201:..\u8g2_csrc/u8x8_debounce.c ****   }
 202:..\u8g2_csrc/u8x8_debounce.c ****   return result_msg;
 203:..\u8g2_csrc/u8x8_debounce.c **** }
 649              		.loc 1 203 0
 650 0098 10BD     		pop	{r4, pc}
 651              		.cfi_endproc
 652              	.LFE2:
 653              		.size	u8x8_GetMenuEvent, .-u8x8_GetMenuEvent
 654 009a 00BF     		.text
 655              	.Letext0:
 656              		.file 2 "c:\\program files (x86)\\cypress\\psoc creator\\4.2\\psoc creator\\import\\gnu\\arm\\5.4.
 657              		.file 3 "c:\\program files (x86)\\cypress\\psoc creator\\4.2\\psoc creator\\import\\gnu\\arm\\5.4.
 658              		.file 4 "..\\u8g2_csrc\\u8x8.h"