ARM GAS  C:\Users\info\AppData\Local\Temp\ccvd5hmY.s 			page 1


   1              		.syntax unified
   2              		.cpu cortex-m3
   3              		.fpu softvfp
   4              		.eabi_attribute 20, 1
   5              		.eabi_attribute 21, 1
   6              		.eabi_attribute 23, 3
   7              		.eabi_attribute 24, 1
   8              		.eabi_attribute 25, 1
   9              		.eabi_attribute 26, 1
  10              		.eabi_attribute 30, 1
  11              		.eabi_attribute 34, 1
  12              		.eabi_attribute 18, 4
  13              		.thumb
  14              		.syntax unified
  15              		.file	"u8x8_d_a2printer.c"
  16              		.text
  17              	.Ltext0:
  18              		.section	.gnu.lto_.profile.792a47af,"",%progbits
  19 0000 789C6361 		.ascii	"x\234ca`d`e`\000\222'\230\312\000\003P\001L"
  19      60646065 
  19      60009227 
  19      98CA0003 
  19      50014C
  20              		.text
  21              		.section	.gnu.lto_.inline.792a47af,"",%progbits
  22 0000 789C6361 		.ascii	"x\234ca`d\000\001f\010\005a30p_\000\2123\011L8\300\311"
  22      60640001 
  22      66080561 
  22      3330705F 
  22      008A3309 
  23 0018 C0B6409E 		.ascii	"\300\266@\236\011$\312\310\360\220a3'PT\247o\2338\003"
  23      0924CAC8 
  23      F0906133 
  23      275054A7 
  23      6F9B3803 
  24 002c D7BD0B8C 		.ascii	"\327\275\013\214`a&n\240\324\004?f\036 s\202\037\003"
  24      6061266E 
  24      A0D4043F 
  24      661E2073 
  24      821F03
  25 003f 219A8597 		.ascii	"!\232\205\227\211\201\251z\202\037\210f~\317\\\015\327"
  25      8981A97A 
  25      821F8866 
  25      7ECF5C0D 
  25      D7
  26 0050 49BC11B8 		.ascii	"I\274\021\270h\250K\240\024\2730#\003K\207:\003P\202"
  26      68A84BA0 
  26      14BB3023 
  26      034B873A 
  26      035082
  27 0063 5D988981 		.ascii	"]\230\211\201\345=3\310\261\014\002B@\037p,\220\207"
  27      E53D33C8 
  27      B10C0242 
  27      401F702C 
  27      9087
  28 0075 7B8B8D9F 		.ascii	"{\213\215\237\201\201\005d=\262\023\030\000j4%t"
  28      81810564 
ARM GAS  C:\Users\info\AppData\Local\Temp\ccvd5hmY.s 			page 2


  28      3DB21318 
  28      006A3425 
  28      74
  29              		.text
  30              		.section	.gnu.lto_.jmpfuncs.792a47af,"",%progbits
  31 0000 789C6361 		.ascii	"x\234ca`d\000\0015\006\004`\006bF\006\254\240^\000\210"
  31      60640001 
  31      35060460 
  31      06624606 
  31      ACA05E00 
  32 0015 98C04C00 		.ascii	"\230\300L\000\023\343\001P"
  32      13E30150 
  33              		.text
  34              		.section	.gnu.lto_.pureconst.792a47af,"",%progbits
  35 0000 789C6361 		.ascii	"x\234ca`d`g```f`e\264d\222\000\000\001\236\000i"
  35      60646067 
  35      60606066 
  35      6065B464 
  35      92000001 
  36              		.text
  37              		.section	.gnu.lto_get_delay_in_milliseconds.792a47af,"",%progbits
  38 0000 789C4D53 		.ascii	"x\234MSKOSQ\020\2369s\037\245\345\265\227E\023B\032"
  38      4B4F5351 
  38      109E3973 
  38      1FA5E5B5 
  38      97451342 
  39 0015 12431437 		.ascii	"\022C\0247\376\016\327\032\202\2451]@\024k\342\216K"
  39      FE0ED71A 
  39      82A5315D 
  39      40146BE2 
  39      8E4B
  40 0027 2F157C24 		.ascii	"/\025|$\270P@,\351B\020\004\264`A@\215\271>\260\211"
  40      B850402C 
  40      E9421004 
  40      B4604140 
  40      8DB93EB0 
  41 003c 224617BA 		.ascii	"\"F\027\272 \361\201\011&j\"\255\"\001#u\3169%\364&"
  41      20F18109 
  41      266A22AD 
  41      22012375 
  41      CE3925F4 
  42 0051 BDF7CE9C 		.ascii	"\275\367\316\234\357\373f\276\231[\003\020\3445C\000"
  42      EFFB66BE 
  42      995B0310 
  42      E4354300 
  43 0061 8DFC8CF0 		.ascii	"\215\374\214\360\017}\200\342\3622@\247O\240\245_H\030"
  43      0F7D80E2 
  43      F23240A7 
  43      4FA0A55F 
  43      4818
  44 0073 3D2170FC 		.ascii	"=!p\374\246\274\227\033h\352\264\251\317\037\373,A\227"
  44      A6BC971B 
  44      68EAB4A9 
  44      CF1FFB2C 
  44      4197
  45 0085 B2C000BB 		.ascii	"\262\300\000\273\313f\200\215(\363\216\017\241C\220"
  45      CB66808D 
ARM GAS  C:\Users\info\AppData\Local\Temp\ccvd5hmY.s 			page 3


  45      28F38E0F 
  45      A14390
  46 0094 615A3676 		.ascii	"aZ6v\010\013\3203\260\240\013n\210\177\002\027\013\233"
  46      080BD033 
  46      B0A00B6E 
  46      887F0217 
  46      0B9B
  47 00a6 5ED56F91 		.ascii	"^\325o\221 .\310\341\333\365\245\241\200\014\021\253"
  47      202EC8E1 
  47      DBF5A5A1 
  47      800C11AB 
  48 00b6 391C1F4E 		.ascii	"9\034\037N\347}\365\243\216\023w>-^\257\030\030\363"
  48      E77DF5A3 
  48      8E13773E 
  48      2D5EAF18 
  48      18F3
  49 00c8 F8484041 		.ascii	"\370H@A\000\216a\015\216b\215l\366\026\3263vnp\3073"
  49      008E610D 
  49      8E628D6C 
  49      F616D633 
  49      766E70C7 
  50 00dd A81681DF 		.ascii	"\250\026\201\337\337\377\314\244\354\320\210\3449\013"
  50      DFFFCCA4 
  50      ECD088E4 
  50      390B
  51 00eb C71C4A10 		.ascii	"\307\034J\020\3418\222\344\035\252\301\0035\300\011"
  51      E13892E4 
  51      1DAAC103 
  51      35C009
  52 00fa C0090C31 		.ascii	"\300\011\0141\366M\327T\222t\007\006\207\271W\203_*"
  52      F64DD754 
  52      92740706 
  52      87B95783 
  52      5F2A
  53 010c 7507410E 		.ascii	"u\007A\016'\376d\037\"\205\224\352\366\305\035\327*"
  53      27FE641F 
  53      228594EA 
  53      F6C51DD7 
  53      2A
  54 011d AA6E449C 		.ascii	"\252nD\234\262\004\031xG\253\336\346n&Q\352\032\200"
  54      B2041978 
  54      47ABDEE6 
  54      6E2651EA 
  54      1A80
  55 012f 690C49F8 		.ascii	"i\014I\370y\357\3023?\355\327\015\255\014\365\373\353"
  55      79EFC233 
  55      3FEDD70D 
  55      AD0CF5FB 
  55      EB
  56 0140 6E48AAF7 		.ascii	"nH\252\367\353\324\200\343\305\203l\004\2474{\317\013"
  56      EBD480E3 
  56      C5836C04 
  56      A7347BCF 
  56      0B
  57 0151 48F0C8CB 		.ascii	"H\360\310\313\247\217*\351\240\"\016\257\246\256P\221"
  57      A78F2AE9 
  57      A0220EAF 
ARM GAS  C:\Users\info\AppData\Local\Temp\ccvd5hmY.s 			page 4


  57      A6AE5091 
  58 0161 986BED77 		.ascii	"\230k\355w\274\316\2404s\267\324L\221\266:\275s\265"
  58      BCCEA034 
  58      73B7D44C 
  58      91B63ABD 
  58      73B5
  59 0173 C2EA72F8 		.ascii	"\302\352r\370\012b\006\353p\032\353\344\250xB3h\361"
  59      0A6206EB 
  59      701AEBE4 
  59      A8784233 
  59      68F1
  60 0185 CCC56E36 		.ascii	"\314\305n6}\304s\012\005\327\361>\232[T\216 \363\254"
  60      7DC4730A 
  60      05D7F13E 
  60      9A5B548E 
  60      20F3AC
  61 0198 C627A4EE 		.ascii	"\306'\244\356\006\312\331\230\354\006,\224vli\254\214"
  61      06CAD998 
  61      EC062C94 
  61      766C69AC 
  61      8C
  62 01a9 6FA65F01 		.ascii	"o\246_\001\002\212\002\260\316\352\274\355\234\020\374"
  62      028A02B0 
  62      CEEABCED 
  62      9C10FC
  63 01b8 A0558CB3 		.ascii	"\240U\214\2639U\2141\334\321\344\315\234^\256\300*\234"
  63      39558C31 
  63      DCD1E4CD 
  63      9C5EAEC0 
  63      2A9C
  64 01ca 658312B1 		.ascii	"e\203\022\261\321\252\020\031\205\350K<ymK\004q\027"
  64      D1AA1019 
  64      85E84B3C 
  64      796D4B04 
  64      7117
  65 01dc F7D40872 		.ascii	"\367\324\010r\202\200?$Z\303x\276\373\303W\222h\227"
  65      82803F24 
  65      5AC378BE 
  65      FBC35792 
  65      6897
  66 01ee 4C97116B 		.ascii	"L\227\021k\350&-\035\333.\311,\247\342\333~\235*+\325"
  66      E8262D1D 
  66      DB2EC92C 
  66      A7E2DB7E 
  66      9D2A2BD5 
  67 0202 33D4F436 		.ascii	"3\324\3646\263/z\312S8\204\\\20098'+\340<\246\020>c"
  67      B32F7ACA 
  67      5338845C 
  67      80393827 
  67      2BE03CA6 
  68 0219 D78A7B7C 		.ascii	"\327\212{|\217\231\376\261\260U!\231&w\262P\\FN\030"
  68      8F99FEB1 
  68      B0552199 
  68      2677B250 
  68      5C464E18 
  69 022d F0BC965B 		.ascii	"\360\274\226[q\373\316\255e\213\255\370]\"\271\336\344"
  69      71FBCEAD 
ARM GAS  C:\Users\info\AppData\Local\Temp\ccvd5hmY.s 			page 5


  69      658BADF8 
  69      5D22B9DE 
  69      E4
  70 023e B5095B9B 		.ascii	"\265\011[\233#\274\257\314\211]\357\014RlS9a\327\325"
  70      23BCAFCC 
  70      895DEF0C 
  70      526C5339 
  70      61D7D5
  71 0251 A0D30294 		.ascii	"\240\323\002\224\326\273Q[k\005\330\026k\315v/M\373"
  71      D6BB515B 
  71      6B05D816 
  71      6BCD762F 
  71      4DFB
  72 0263 F518101F 		.ascii	"\365\030\020\037\224he$)\000\220G\301U\011Y\330X\352"
  72      94686524 
  72      29009047 
  72      C1550959 
  72      D858EA
  73 0276 9513B780 		.ascii	"\225\023\267\200\377^\245\322\004:P\024\345o\331\375"
  73      FF5EA5D2 
  73      043A5014 
  73      E56FD9FD 
  74 0286 BE4F9761 		.ascii	"\276O\227a\236!\375\344Y\236\247,\346y\032\001s\314"
  74      9E21FDE4 
  74      599EA72C 
  74      E6791A01 
  74      73CC
  75 0298 CE73EBBC 		.ascii	"\316s\353\274\027\221\354\345y\012v\236\023\266\334"
  75      1791ECE5 
  75      790A769E 
  75      13B6DC
  76 02a7 E437DED3 		.ascii	"\3447\336\323\337\250\346\222$\256\013\344<o;\330\320"
  76      DFA8E692 
  76      24AE0BE4 
  76      3C6F3BD8 
  76      D0
  77 02b8 70F4CCE1 		.ascii	"p\364\314\341\023\215M\341\323\355a~;{\270\251\245\251"
  77      138D4DE1 
  77      D3ED617E 
  77      3B7BB8A9 
  77      A5A9
  78 02ca B9F1647B 		.ascii	"\271\361d{\264-\026io\010\003\205\333bFKs\254\331\210"
  78      B42D1669 
  78      6F080385 
  78      DB62464B 
  78      73ACD988 
  79 02de 455B2318 		.ascii	"E[#\030\375\017\370F8\256"
  79      FD0FF846 
  79      38AE
  80              		.text
  81              		.section	.gnu.lto_u8x8_d_a2printer_common.792a47af,"",%progbits
  82 0000 789C8D56 		.ascii	"x\234\215VkpTE\026\356s\373\316\275w\356\274\202\342"
  82      6B705445 
  82      16EE73FB 
  82      CEBD77EE 
  82      BC82E2
  83 0013 2A3265A5 		.ascii	"*2e\245\212G\222\345\221(?\260j\377l\325\376\331\337"
ARM GAS  C:\Users\info\AppData\Local\Temp\ccvd5hmY.s 			page 6


  83      8A4792E5 
  83      91283FB0 
  83      6AFF6CD5 
  83      FED9DF
  84 0026 FB6FABB4 		.ascii	"\373o\253\264bLR\310\026\262V\002UZ\376\340&w\206 \""
  84      624C52C8 
  84      16B25602 
  84      555AFEE0 
  84      26778620 
  85 003b A24B6254 		.ascii	"\242KbT ni\214b\204DE\022\302\270\023\036\011\006\022"
  85      206E698C 
  85      62844445 
  85      12C2B813 
  85      1E090612 
  86 004f 4C882460 		.ascii	"L\210$`$\0200\216\312bfx\204R\310\3549\335w\036`\230"
  86      2410308E 
  86      CA626678 
  86      8452C8EC 
  86      39DD771E 
  87 0065 75AAA6EF 		.ascii	"u\252\246\357\355\356\363}\247\373\353s\316m\225\001"
  87      EDEEF37D 
  87      A7FBEB73 
  87      CE6D9501 
  88 0075 A3DF6E1F 		.ascii	"\243\337n\037cO\343\363[\374C\036\003e\333\000c5\206"
  88      634FE3F3 
  88      5BFC431E 
  88      0365DB00 
  88      633586
  89 0088 A2FA8EDC 		.ascii	"\242\372\216\334\317,\203\213\326+ZU\216\200O\232\250"
  89      CF2C838B 
  89      D62B5A55 
  89      8E804F9A 
  89      A8
  90 0099 60CA1717 		.ascii	"`\312\027\027\004\350\245\333\010(\256-\275\214Y\246"
  90      04E8A5DB 
  90      0828AE2D 
  90      BD8C59A6 
  91 00a9 11D299E5 		.ascii	"\021\322\231\3455\300O\343\240\313g\267\341Wt9\357\026"
  91      35C04FE3 
  91      A0CB67B7 
  91      E1577439 
  91      EF16
  92 00bb F36E49D0 		.ascii	"\363nI\320m\230\212\326y\224\306=#\006\216k\222\017"
  92      6D988AD6 
  92      7994C63D 
  92      23068E6B 
  92      920F
  93 00cd 3C294F5E 		.ascii	"<)O^\371\002>\000zZ\006\260\015\012W]\001C\367\273M"
  93      F9023E00 
  93      7A5A06B0 
  93      0D0A575D 
  93      0143F7BB 
  94 00e2 CDE3F5C1 		.ascii	"\315\343\365\301\006\325d\020U\301\020\015m,\300\344"
  94      06D56410 
  94      55C1100D 
  94      6D2CC0E4 
  95 00f2 CFEF3CAF 		.ascii	"\317\357<\257+\267\0258>}l\213Y\324bY\265\326\371\360"
ARM GAS  C:\Users\info\AppData\Local\Temp\ccvd5hmY.s 			page 7


  95      2BB71538 
  95      3E7D6C8B 
  95      59D46259 
  95      B5D6F9F0 
  96 0106 C45FE3B5 		.ascii	"\304_\343\265\341\207\302\234\261\244\302`E\020J\202"
  96      E187C29C 
  96      B1A4C260 
  96      45104A82 
  97 0116 24420B14 		.ascii	"$B\013\024\241\345`\250m\007\277\246\2049\200\212\335"
  97      A1E560A8 
  97      6D07BFA6 
  97      8439808A 
  97      DD
  98 0127 78FF5B17 		.ascii	"x\377[\027\375\324U \037\273\357\014\277;\246\361\005"
  98      FDD45520 
  98      1FBBEF0C 
  98      BF3BA6F1 
  98      05
  99 0138 C0F0BDA1 		.ascii	"\300\360\275\241o\370\212\257\240\2318\255O+-w\230s"
  99      6FF88AAF 
  99      A09938AD 
  99      4F2B2D77 
  99      9873
 100 014a D80D9C38 		.ascii	"\330\015\2348?\204 |\000A\206C\014>\202\002\264>\321"
 100      3F84207C 
 100      00418643 
 100      0C3E8202 
 100      B43ED1
 101 015d D639A2F2 		.ascii	"\3269\242\362B\201\234>x\370v\0129\376\244\305q)\320"
 101      42819C3E 
 101      78F8760A 
 101      39FEA4C5 
 101      7129D0
 102 0170 2A917235 		.ascii	"*\221r5\2646\370X\340\216E\372_\344K\005\254\357\342"
 102      B436F858 
 102      E08E45FA 
 102      5FE44B05 
 102      ACEFE2
 103 0183 6487A6A2 		.ascii	"d\207\246\242\321\036\300y\032i\034<\377\212\311W\210"
 103      D11EC079 
 103      1A691C3C 
 103      FF8AC957 
 103      88
 104 0194 D9DE8D57 		.ascii	"\331\336\215W7q\207t\260\307c\225\020k[\026+\354\005"
 104      37718774 
 104      B0C76395 
 104      106B5B16 
 104      2BEC05
 105 01a7 5510B70B 		.ascii	"U\020\267\013\3423\337\367\2372\371\237\004v\367\276"
 105      E233DFF7 
 105      9F32F99F 
 105      0476F7BE 
 106 01b7 F14F7407 		.ascii	"\361Ot\007\233\354\361Z\333 \314U\370\344\356\315\250"
 106      9BECF15A 
 106      DB20CC55 
 106      F8E4EECD 
 106      A8
ARM GAS  C:\Users\info\AppData\Local\Temp\ccvd5hmY.s 			page 8


 107 01c8 0C3E8502 		.ascii	"\014>\205\002\002\034MNG\003R%\222wh\352\304N\217T)"
 107      021C4D4E 
 107      47035225 
 107      927768EA 
 107      C44E8F54 
 108 01dd 0FBBB1BE 		.ascii	"\017\273\261\276\367g\374\374/\202\372\345#\203\373"
 108      F767FCFC 
 108      2F82FAE5 
 108      2383FB
 109 01ec 8D45EF12 		.ascii	"\215E\357\022u\364\315\215\376F+Z\233\037\346.\370\\"
 109      75F4CD8D 
 109      FE462B5A 
 109      9B1FE62E 
 109      F85C
 110 01fe 92EF43F2 		.ascii	"\222\357C\362\317 (N\012\255\267\016o\236\340\374\357"
 110      CF20284E 
 110      0AADB70E 
 110      6F9EE0FC 
 110      EF
 111 020f 02D96CB5 		.ascii	"\002\331l\265mv;\310\006ZT\215\021\346\032t\334\271"
 111      6D763BC8 
 111      065A548D 
 111      11E61A74 
 111      DCB9
 112 0221 2A07D831 		.ascii	"*\007\3301t=\342\343OJ%\"-7|\016\260\276g\356\033V\264"
 112      743DE2E3 
 112      4F4A2522 
 112      2D377C0E 
 112      B0BE67EE 
 113 0238 269FC438 		.ascii	"&\237\3048\220-\261\203k>~\370\013?/\025\270\367&\232"
 113      902DB183 
 113      6B3E7EF8 
 113      0B3F2F15 
 113      B8F7269A 
 114 024c B67389B3 		.ascii	"\266s\211\263\"OX\366\237\011tp\026\320@K\363v\223\227"
 114      224F58F6 
 114      9F097470 
 114      16D0404B 
 114      F3769397 
 115 0260 095053C3 		.ascii	"\011PS\303\201Qg\225\326\376\024\350\213Y@\023\3553"
 115      81516795 
 115      D6FE14E8 
 115      8B594013 
 115      ED33
 116 0272 F53E2D64 		.ascii	"\365>-d\341/\037\376\003\213 \202\377.\374w\342\177"
 116      E12F1FFE 
 116      038B2082 
 116      FF2EFC77 
 116      E27F
 117 0284 3F2CA260 		.ascii	"?,\242`\304\303\211\202\206\011\352\232\315b\357\337"
 117      C4C38982 
 117      8609EA9A 
 117      CD62EFDF 
 118 0294 A2563269 		.ascii	"\242V2i[\321\177i\335m\346J`d\200n\320\004}\242\221"
 118      5BD17F69 
 118      DD6DE64A 
 118      6064806E 
ARM GAS  C:\Users\info\AppData\Local\Temp\ccvd5hmY.s 			page 9


 118      D0047DA2 
 119 02a9 2A5A1723 		.ascii	"*Z\027#cM\264:\205\022\246\017\306\222_\014\344\211"
 119      634DB43A 
 119      8512A60F 
 119      C6925F0C 
 119      E489
 120 02bb 760E5054 		.ascii	"v\016PT\316\303I\375aF\256\346\003\235lP\340\027\340"
 120      CEC349FD 
 120      6146AEE6 
 120      039D6C50 
 120      E017E0
 121 02ce B0B150D8 		.ascii	"\260\261P\330-\302WX,F\013\204\267B\321\026\341\260"
 121      2DC25758 
 121      2C460B84 
 121      B742D116 
 121      E1B0
 122 02e0 7B89B058 		.ascii	"{\211\260XJ\257\313\2601\213\205Y\211X\016cS\270\231"
 122      4AAFCBB0 
 122      318B8559 
 122      89580E63 
 122      53B899
 123 02f3 439CC515 		.ascii	"C\234\305\025\005\037\374;\010G\337\356\001\332\234"
 123      051FFC3B 
 123      0847DFEE 
 123      01DA9C
 124 0302 CD7D943B 		.ascii	"\315}\224;g\336\213\271^\203WkP\217\350\233}\0309\036"
 124      67DE8BB9 
 124      5E83576B 
 124      508FE89B 
 124      7D18391E 
 125 0316 CC6F8A6A 		.ascii	"\314o\212j\006\335\360\032\240I\377\277[\0074\212)\006"
 125      06DDF01A 
 125      A049FFBF 
 125      5B07348A 
 125      2906
 126 0328 26766B5F 		.ascii	"&vk_\032i6R\210\016\015\001p\010\217\337\342T\316\340"
 126      1A693652 
 126      880E0D01 
 126      70088FDF 
 126      E254CEE0 
 127 033c B0C4FC7A 		.ascii	"\260\304\374zs \242K\214\207\362\254~\362\035-\205\031"
 127      7320A24B 
 127      8C87F2AC 
 127      7EF21D2D 
 127      8519
 128 034e 12982302 		.ascii	"\022\230#\002#\224>*1\255\357\307e(3\010`w\327g-\333"
 128      23943E2A 
 128      31ADEFC7 
 128      65283308 
 128      6077D767 
 129 0364 7D29CCA8 		.ascii	"})\314\250\300\364\010\014-\016z\021\203\317\270\302"
 129      C0F4080C 
 129      2D0E7A11 
 129      83CFB8C2 
 130 0374 D914E397 		.ascii	"\331\024\343\227\240&\217\366D\213\210A(\332\325\303"
 130      A0268FF6 
 130      448B8841 
ARM GAS  C:\Users\info\AppData\Local\Temp\ccvd5hmY.s 			page 10


 130      28DAD5C3 
 131 0384 A94BA7DD 		.ascii	"\251K\247\335\331y\371\033}\303mk\223e\345\205\2717"
 131      D979F91B 
 131      7DC36D6B 
 131      9365E585 
 131      B937
 132 0396 A9200C8E 		.ascii	"\251 \014\216\301\006f\3639a\356\023\034\352\235\034"
 132      C10666F3 
 132      3961EE13 
 132      1CEA9D1C 
 133 03a6 5C709CD5 		.ascii	"\\p\234\325f\247\360'QJ\006_\246(\002h\035\216\236\273"
 133      66A7F027 
 133      514A065F 
 133      A6280268 
 133      1D8E9EBB 
 134 03ba 87755E52 		.ascii	"\207u^R\241L\357\223\326TF\256\207\342>\271\313\371"
 134      A14CEF93 
 134      D65446AE 
 134      87E23EB9 
 134      CBF9
 135 03cc 701C8261 		.ascii	"p\034\202a>G\020L\345&8\221&8:\336\275\325#\011VB\177"
 135      3E47104C 
 135      E5263891 
 135      26383ADE 
 135      BDD52309 
 136 03e3 86E05A6E 		.ascii	"\206\340Zn\202\2014AC\370\320I\347l\030\234\314\020"
 136      82813441 
 136      43F8D049 
 136      E76C189C 
 136      CC10
 137 03f5 DCC84DF0 		.ascii	"\334\310M\360U\232`hs\350\021\211?\0060\230!\270\231"
 137      559A6068 
 137      73E81189 
 137      3F063098 
 137      21B899
 138 0408 9B60284D 		.ascii	"\233`(Mp\260i\313\207\246dP\340\224$\230\204\332\003"
 138      70B069CB 
 138      87A66450 
 138      E0942498 
 138      84DA03
 139 041b F1F13897 		.ascii	"\361\3618\227\2419/{\235\\\326\352\336\276M\336&\330"
 139      A1392F7B 
 139      9D5CD6EA 
 139      DEBE4DDE 
 139      26D8
 140 042d 8915F13E 		.ascii	"\211\025\361>\244\201a\2529T8.\325\356\321\213\227a"
 140      A48161AA 
 140      3954382E 
 140      D5EED18B 
 140      9761
 141 043f 06C1D7D0 		.ascii	"\006\301\327\320\0043\212\210\335\323P,(/x%\341\303"
 141      04338A88 
 141      DDD3502C 
 141      282F7825 
 141      E1C3
 142 0451 D984FA1D 		.ascii	"\331\204\372\035\2045T\011^\304\314\271\037\375\302"
 142      84355409 
ARM GAS  C:\Users\info\AppData\Local\Temp\ccvd5hmY.s 			page 11


 142      5EC4CCB9 
 142      1FFDC2
 143 0460 8843BBAB 		.ascii	"\210C\273\253\261\343\252\277\370cZ\377\\\030\025\304"
 143      B1E3AABF 
 143      F8635AFF 
 143      5C1815C4 
 144 0470 22C0CF20 		.ascii	"\"\300\317 \361\004\324Z+D\201\300\214En\341\251\375"
 144      F104D45A 
 144      2B4481C0 
 144      8C456EE1 
 144      A9FD
 145 0482 52BBB3F8 		.ascii	"R\273\263\370`\266\257\007~\353\353m@g\177\260\371|"
 145      60B6AF07 
 145      7EEBEB6D 
 145      40677FB0 
 145      F97C
 146 0494 387BF71E 		.ascii	"8{\367\0364\370F\270\022y1\346\270Z)\\u\222\253\240"
 146      34F846B8 
 146      127931E6 
 146      B85A295C 
 146      7592ABA0 
 147 04a8 10BABEF7 		.ascii	"\020\272\276\367\036\341\355(\375mZ\351\372\376\310"
 147      1EE1ED28 
 147      FD6D5AE9 
 147      FAFEC8
 148 04b7 28974ADF 		.ascii	"(\227J\337\007\3472G\325\240\347$\030O\023\204\366\034"
 148      07E73247 
 148      D5A0E724 
 148      184F1384 
 148      F61C
 149 04c9 7FC949CA 		.ascii	"\177\311I\312?\302\371\014Acn\202\013i\202\315\277\214"
 149      3FC2F90C 
 149      41636E82 
 149      0B6982CD 
 149      BF8C
 150 04db 6C352481 		.ascii	"l5$\201\001\023\031\202\267r\023\\\224\004(.\001P\205"
 150      01131982 
 150      B772135C 
 150      9404282E 
 150      015085
 151 04ee 68535D40 		.ascii	"hS]@\350@u\370\244\370\336\304\025\027\303\353\014\217"
 151      E84075F8 
 151      A4F8DEC4 
 151      1517C3EB 
 151      0C8F
 152 0500 C1C66857 		.ascii	"\301\306hW\2352;\337\203ILo\006\227\322|6\307\317\374"
 152      9D323BDF 
 152      83494C6F 
 152      0697D27C 
 152      36C7CFFC 
 153 0514 43620D91 		.ascii	"Cb\015\221\336G\344\211-\370\015l^\022\311\031|'`\022"
 153      DE47E489 
 153      2DF80D6C 
 153      5E12C919 
 153      7C276012 
 154 0528 43C76C37 		.ascii	"C\307l7l\034vNy\241\315]\210\304\265\011\317T\203q\220"
 154      6C1C764E 
ARM GAS  C:\Users\info\AppData\Local\Temp\ccvd5hmY.s 			page 12


 154      79A1CD5D 
 154      88C4B509 
 154      CF548371 
 155 053d 42215137 		.ascii	"B!Q7\263\263D\0329\321a\357\320d\17712\341h\032$\016"
 155      B3B3441A 
 155      39D161EF 
 155      D0647F31 
 155      32E1681A 
 156 0553 75B1243E 		.ascii	"u\261$>\267s\314)\314\2056\247\202\270\257\356D\273"
 156      B773CC29 
 156      CC8536A7 
 156      82B8AFEE 
 156      44BB
 157 0565 93260093 		.ascii	"\223&\000\223\270\345\024*B\250B\241@\200\341\205\014"
 157      B8E5142A 
 157      42A842A1 
 157      4080E185 
 157      0C
 158 0576 75AD95DF 		.ascii	"u\255\225\337\023\\\023\223\035\301\314\235\216\000"
 158      135C1393 
 158      1DC1CC9D 
 158      8E00
 159 0584 00BB00A1 		.ascii	"\000\273\000\241\263\266)}\200#\"K\000\330\274@\303"
 159      B3B6297D 
 159      8023224B 
 159      00D8BC40 
 159      C3
 160 0595 A6D015F3 		.ascii	"\246\320\025\363%\000\327WL\275\305\256[]O%\000\367"
 160      2500D757 
 160      4CBDC5AE 
 160      5B5D4F25 
 160      00F7
 161 05a7 9847DD85 		.ascii	"\230G\335\205\256\313]1@\217\006\013\351\034Q~\364\025"
 161      AECB5D31 
 161      408F060B 
 161      E91C517E 
 161      F415
 162 05b9 A0015D1C 		.ascii	"\240\001]\034\202H\201\0335\2168E\277'a\347\303\367"
 162      8248811B 
 162      358E3845 
 162      BF2761E7 
 162      C3F7
 163 05cb 22D84541 		.ascii	"\"\330EA\217a\260\307\240\316r\213cD\006'~Z\353{T\251"
 163      8F61B0C7 
 163      A0CE728B 
 163      63440627 
 163      7E5AEB7B 
 164 05e1 4111FC80 		.ascii	"A\021\374\200W\015\2547\260\034\243((E\273\262k\235"
 164      570DAC37 
 164      B01CA328 
 164      2845BBB2 
 164      6B9D
 165 05f3 F4B8C4E6 		.ascii	"\364\270\304\346\032\232\237>0y\032\310\336\005\035"
 165      1A9A9F3E 
 165      30791AC8 
 165      DE051D
 166 0602 331C7ECC 		.ascii	"3\034~\314RM\310\263D\250\346\277[5\215\264\031\265"
ARM GAS  C:\Users\info\AppData\Local\Temp\ccvd5hmY.s 			page 13


 166      524DC8B3 
 166      44A8E6BF 
 166      5B358DB4 
 166      19B5
 167 0614 3F7A5597 		.ascii	"?zU\227lD\325\030\032\232T\210\312\240:\367SJ-\234\365"
 167      6C44D518 
 167      1A9A5488 
 167      CAA03AF7 
 167      534A2D9C 
 168 0629 1B28C812 		.ascii	"\033(\310\022},\"\004q\223 \242|M\227I\364\322\337\267"
 168      7D2C2204 
 168      719320A2 
 168      7C4D9749 
 168      F4D2DFB7 
 169 063d FBCB99DD 		.ascii	"\373\313\231\335\377W\226\253D\335\\\311\260\214\226"
 169      FF5796AB 
 169      44DD5CC9 
 169      B08C96
 170 064c 1403DD11 		.ascii	"\024\003\335\021c)\211A\333\307\231\354\335\317\354"
 170      63298941 
 170      DBC799EC 
 170      DDCFEC
 171 065b D8E60456 		.ascii	"\330\346\004V\211\215W\276\354\030\351\242m\225\210"
 171      898D57BE 
 171      EC18E9A2 
 171      6D9588
 172 066a DD9AEC9A 		.ascii	"\335\232\354\232\316\263\242Bu\242B\230(\264\363\223"
 172      CEB3A242 
 172      75A24298 
 172      28B4F393 
 173 067a B6930874 		.ascii	"\266\223\010t\207\374\262\357\215\017\274Rr\035\256"
 173      87FCB2EF 
 173      8D0FBC52 
 173      721DAE
 174 0689 A4B6AD50 		.ascii	"\244\266\255P\274\2501\214\216\022\367\246G\023\240"
 174      BCA8318C 
 174      8E12F7A6 
 174      4713A0
 175 0698 623152B7 		.ascii	"b1R\267t\256\301 s\223\012\232\023\026\005dg\036\354"
 175      74AEC120 
 175      73930A9A 
 175      13160564 
 175      671EEC
 176 06ab AA484031 		.ascii	"\252H@1\2722!!n\242\351z\350\302\217\316\317h\321\332"
 176      BA322121 
 176      6EA2E97A 
 176      E8C28FCE 
 176      CF68D1DA 
 177 06bf 759E601E 		.ascii	"u\236`\036\372\364R.N\377\237\2326%\0238\373\223y3w"
 177      FAF4522E 
 177      4EFF9F9A 
 177      36251338 
 177      FB937933 
 178 06d4 09893B88 		.ascii	"\011\211;\210\254o\344/\271\021\011\007q%\203\270\225"
 178      AC6FE42F 
 178      B9110907 
 178      712583B8 
ARM GAS  C:\Users\info\AppData\Local\Temp\ccvd5hmY.s 			page 14


 178      95
 179 06e5 1B71355D 		.ascii	"\033q5]\347\316\336\3729\341\250\366\025\203k\031\206"
 179      E7CEDEFA 
 179      39E1A8F6 
 179      15836B19 
 179      86
 180 06f6 99DC0CD7 		.ascii	"\231\334\014\327\035\237\247R\210P\364u\363\2367\017"
 180      1D9FA752 
 180      8850F475 
 180      F39E370F 
 181 0706 0D113732 		.ascii	"\015\021727\017:]/*\010tyq\256Sq\305G7=g\204\261\037"
 181      370F3A5D 
 181      2F2A0874 
 181      7971AE53 
 181      71C54737 
 182 071f E9AC6DAE 		.ascii	"\351\254m\256\213S\324\351t\224\261\301\347)V\274\267"
 182      8B53D4E9 
 182      7494B1C1 
 182      E72956BC 
 182      B7
 183 0730 069FA127 		.ascii	"\006\237\241'.\031[\017\335\025\001\241H\222\277|\371"
 183      2E195B0F 
 183      DD1501A1 
 183      4892BF7C 
 183      F9
 184 0741 13EB1F5F 		.ascii	"\023\353\037_\365XiyuU9\276=\377xiEi\331c\317U\255^"
 184      F5586979 
 184      755539BE 
 184      3DFF7869 
 184      4569D963 
 185 0759 BBAEB26A 		.ascii	"\273\256\262jy9Si\214?[\275J[\277v}ue\205^V\265\252"
 185      79395369 
 185      8C3F5BBD 
 185      4A5BBF76 
 185      7D756585 
 186 0771 1427C5F3 		.ascii	"\024'\305\363\271uU\017TT\256){\001GJ\237]\275f\315"
 186      B975550F 
 186      5454AE29 
 186      7B01474A 
 186      9F5DBD66 
 187 0786 EAEACAF2 		.ascii	"\352\352\312\362\177\256\255\250\3468\003\377\200\325"
 187      7FAEADA8 
 187      E63803FF 
 187      80D5
 188 0794 50FE3F7D 		.ascii	"P\376?}\010\200\360"
 188      0880F0
 189              		.text
 190              		.section	.gnu.lto_u8x8_d_a2printer_384x240.792a47af,"",%progbits
 191 0000 789C6552 		.ascii	"x\234eR[H\024a\024\376\27793;{I\363\321\207E\204\036"
 191      5B481461 
 191      14FEBF39 
 191      333B7B49 
 191      F3D18745 
 192 0016 540815EB 		.ascii	"T\010\025\353A\010z\357\265\347b\021\023\213(d5\350"
 192      41087AEF 
 192      B5E76211 
 192      138B2864 
ARM GAS  C:\Users\info\AppData\Local\Temp\ccvd5hmY.s 			page 15


 192      35E8
 193 0028 6DFF751D 		.ascii	"m\377u\035,*\322\207\"L1(\261\264\274\254m\265\272\320"
 193      2C2AD287 
 193      224C3128 
 193      B1B4BCAC 
 193      6DB5BAD0 
 194 003c 6620D56A 		.ascii	"f \325j%-\204\030$\245$\"\325vA\210l;gV!r`\346\377\317"
 194      252D8418 
 194      24A52422 
 194      D5764188 
 194      6C3B6756 
 195 0056 E53BE73B 		.ascii	"\345;\347;\337\031SA\311SIJ\035\340\363 \277\360(\030"
 195      DF195341 
 195      C953494A 
 195      1DE0F320 
 195      BFF02818 
 196 006a 5D2F958A 		.ascii	"]/\225\212z\015\303\314\326(\355\245T\231|a\025\334"
 196      7A0DC3CC 
 196      D628EDA5 
 196      54997C61 
 196      15DC
 197 007c E6F6C502 		.ascii	"\346\366\305\002\344\242\275P\021\203L\013\021\3744"
 197      E4A2BD50 
 197      11834C0B 
 197      11FC34
 198 008b 360D6436 		.ascii	"6\015d6\236]\364W\015j\335\256\227\006&\016\345\332"
 198      9E5DF457 
 198      0D6ADDAE 
 198      9706260E 
 198      E5DA
 199 009d 9D52873B 		.ascii	"\235R\207;\344\015\205}A\324\006\245\313 \2528s\276"
 199      E40D857D 
 199      41D406A5 
 199      CB20AA38 
 199      73BE
 200 00af 63AC977E 		.ascii	"c\254\227~\030\016\001&\233\271\271\236\217\305b\032"
 200      180E0126 
 200      9BB9B99E 
 200      8FC5621A 
 201 00bf 2867F346 		.ascii	"(g\363F\366\346;\017\355\201\342\373\325\027\331\317"
 201      F6E63B0F 
 201      ED81E2FB 
 201      D517D9CF 
 202 00cf 45150352 		.ascii	"E\025\003RS'\232\264\317!\302\020Hj\336A\020\267\021"
 202      53279AB4 
 202      CF21C210 
 202      486ADE41 
 202      10B711
 203 00e2 54EC5218 		.ascii	"T\354R\030F\005g\317\216%\337\232T\351\"7RO7\267\221"
 203      460567CF 
 203      8E25DF9A 
 203      54E92237 
 203      524F37B7 
 204 00f7 B9A39A98 		.ascii	"\271\243\232\230\012\356\026\220\0056\302\015\367\\"
 204      0AEE1690 
 204      0536C20D 
 204      F75C
ARM GAS  C:\Users\info\AppData\Local\Temp\ccvd5hmY.s 			page 16


 205 0105 DCB5F9A5 		.ascii	"\334\265\371\245K~\332\353\342zW\276,X[\270\3533\001"
 205      4B7EDAEB 
 205      E27A57BE 
 205      2C585BB8 
 205      EB3301
 206 0118 5D2BC091 		.ascii	"]+\300\221\035\300Q\027\270\360i\356\215\237\366\273"
 206      1DC05117 
 206      B8F069EE 
 206      8D9FF6BB 
 207 0128 C0A1C4FB 		.ascii	"\300\241\304\373\270\275\005\\\230\331\245\273\340\220"
 207      B8BD055C 
 207      98D9A5BB 
 207      E090
 208 0136 89B1FFC9 		.ascii	"\211\261\377\311\232\012\343\250\020\300\207\361?W\212"
 208      9A0AE3A8 
 208      10C087F1 
 208      3F578A
 209 0145 3C1D9A9F 		.ascii	"<\035\232\237rQ\211\253\306\341\221\325\214\036N\353"
 209      725189AB 
 209      C6E191D5 
 209      8C1E4EEB 
 210 0155 7C3EA6D3 		.ascii	"|>\246\323}\201'\257\003\001HK\326\212\311\262\366<"
 210      7D8127AF 
 210      0301484B 
 210      D68AC9B2 
 210      F63C
 211 0167 AA07D2DF 		.ascii	"\252\007\322\337\206T\362\271|\324W\306\313Vr\206!'"
 211      8654F2B9 
 211      7CD457C6 
 211      CB567286 
 211      2127
 212 0179 AD2096EE 		.ascii	"\255 \226\356\317@*\306\210D\311\205[\253V7.G\271a:"
 212      CF402AC6 
 212      8844C985 
 212      5BAB5637 
 212      2E47B961 
 213 018e 9961B52D 		.ascii	"\231a\265-\336\241@\025&\320\015I\231\353\236\364\310"
 213      DEA14015 
 213      26D00D49 
 213      99EB9EF4 
 213      C8
 214 019f 1E147C6C 		.ascii	"\036\024|lN\257/.c\033\021\0170\000\367y\004MB\021\011"
 214      4EAF2F2E 
 214      631B110F 
 214      3000F779 
 214      044D4211 
 215 01b4 0E29E947 		.ascii	"\016)\351G*UF\313\210\226H/\011\256\302I'2$\246\214"
 215      2A5546CB 
 215      8896482F 
 215      09AEC249 
 215      273224A6 
 216 01c9 994CAE2F 		.ascii	"\231L\256/\332\221M}N\353\022\207<y\203ax\200\210\212"
 216      DA914D7D 
 216      4EEB1287 
 216      3C798361 
 216      7880888A 
 217 01dd 91254D9D 		.ascii	"\221%M\235\351W\2664\265]\025c\277\036\177/\346\354"
ARM GAS  C:\Users\info\AppData\Local\Temp\ccvd5hmY.s 			page 17


 217      E957B634 
 217      B55D1563 
 217      BF1E7F2F 
 217      E6EC
 218 01ef 6B6EB67D 		.ascii	"kn\266}\236x.v?\357\031>\331\217\276h\227\353\366\342"
 218      9E782E76 
 218      3FEF193E 
 218      D98FBE68 
 218      97EBF6E2 
 219 0203 11FF740F 		.ascii	"\021\377t\017\231\214\304\362k\361\021\037CJ\245F\022"
 219      998CC4F2 
 219      6BF1111F 
 219      434AA546 
 219      12
 220 0214 FDEED00A 		.ascii	"\375\356\320\012\223\2108\344s)\232*[\363\017E\305\024"
 220      938838E4 
 220      73299A2A 
 220      5BF30F45 
 220      C514
 221 0226 3BD35317 		.ascii	";\323S\027v\027\324\361\355 \351\317\263\212\012S\005"
 221      7617D4F1 
 221      ED20E9CF 
 221      B38A0A53 
 221      05
 222 0237 92AC5F8C 		.ascii	"\222\254_\2148\317v(\340\226\263\\\205\327\320^\302"
 222      38CF7628 
 222      E096B35C 
 222      85D7D05E 
 222      C2
 223 0248 6111E11B 		.ascii	"a\021\341\033\300eL!\223\350\234\035\367\0274\004R\010"
 223      C0654C21 
 223      93E89C1D 
 223      F7173404 
 223      5208
 224 025a D2EFC5E3 		.ascii	"\322\357\305\343\274\034\010\204k\226WW\0379S\337\\"
 224      BC1C0884 
 224      6B965757 
 224      1F3953DF 
 224      5C
 225 026b 176A6C0D 		.ascii	"\027jl\0157\362\355l}\350X\250\241\256%|\342t[S\270"
 225      37F2ED6C 
 225      7DE858A8 
 225      A1AE257C 
 225      E2745B53 
 226 0280 BA5199E2 		.ascii	"\272Q\231\342\243S\255\315vC\2709\304^\367li\013\377"
 226      A353ADCD 
 226      7643B839 
 226      C45EF76C 
 226      690BFF
 227 0293 056DA41F 		.ascii	"\005m\244\037O"
 227      4F
 228              		.text
 229              		.section	.gnu.lto_u8x8_a2printer_384x240_display_info.792a47af,"",%progbits
 230 0000 789C2DCE 		.ascii	"x\234-\316\275J\003A\024\206\341\371fv\223\254I\326"
 230      BD4A0341 
 230      1486E1F9 
 230      667693AC 
ARM GAS  C:\Users\info\AppData\Local\Temp\ccvd5hmY.s 			page 18


 230      49D6
 231 0012 1F2C83B5 		.ascii	"\037,\203\265\245e\032/\307\373Xp\023,\322\010\351T"
 231      A5651A2F 
 231      C7FB5870 
 231      132CD208 
 231      E954
 232 0024 1054FC89 		.ascii	"\020T\374\2111\253\006\203\253\001\013Q\264\020\274"
 232      31AB0683 
 232      AB010B51 
 232      B410BC
 233 0033 80341210 		.ascii	"\2004\022\020A\304\240E\304\030<\037'\323\274\363\314"
 233      41C4A045 
 233      C4183C1F 
 233      27D3BCF3 
 233      CC
 234 0044 9C61D733 		.ascii	"\234a\32730\\+\022\335\031\363gQ]\177\331\011\277m\305"
 234      305C2B12 
 234      DD19F367 
 234      515D7FD9 
 234      09BF6DC5 
 235 0058 197C42DC 		.ascii	"\031|B\334\356\016\366\002u\344\304\255\367\313\237"
 235      EE0EF602 
 235      75E4C4AD 
 235      F7CB9F
 236 0067 220D703C 		.ascii	"\"\015p<]m$\023.\010\257:\327w\276rI\270\361\325{\013"
 236      5D6D2413 
 236      2E08AF3A 
 236      D777BE72 
 236      49B8F1D5 
 237 007d 948BC2E7 		.ascii	"\224\213\302\3478\331tJO\370:\354\015\263\244\305M\274"
 237      38D9744A 
 237      4FF83AEC 
 237      0DB3A4C5 
 237      4DBC
 238 008f 2C0771FF 		.ascii	",\007q\377\343)\257\3675~{0\332\352L\236\317\013\373"
 238      E329AFF7 
 238      357E7B30 
 238      DAEA4C9E 
 238      CF0BFB
 239 00a2 BFCD3454 		.ascii	"\277\3154Tf\370g\267\367\325\234\222\303\017\273\351"
 239      66F867B7 
 239      F7D59C92 
 239      C30FBBE9 
 240 00b2 A8A0F485 		.ascii	"\250\240\364\205\217\365z\315/_Dk\333Q\342W\234\033"
 240      8FF57ACD 
 240      2F5F446B 
 240      DB51E257 
 240      9C1B
 241 00c4 5B833394 		.ascii	"[\2033\224\306\0268d,\316\031\247\361\364\316\307)\223"
 241      C6163864 
 241      2CCE19A7 
 241      F1F4CEC7 
 241      2993
 242 00d6 41C264D1 		.ascii	"A\302d\321br8a\002}7\205&\223\307\021S\3001SD\203\011"
 242      62723861 
 242      027D3785 
 242      2693C711 
ARM GAS  C:\Users\info\AppData\Local\Temp\ccvd5hmY.s 			page 19


 242      53C03153 
 243 00ed F5705A27 		.ascii	"\365pZ'g4\2638`\346\260\217\222A\033e\363\017T\227x"
 243      6734B338 
 243      60E6B08F 
 243      92411B65 
 243      F30F5497 
 244 0102 BE       		.ascii	"\276"
 245              		.text
 246              		.section	.gnu.lto_.symbol_nodes.792a47af,"",%progbits
 247 0000 789C55CF 		.ascii	"x\234U\317\275\015\3020\020\005\340w>;!-\013\000;\320"
 247      BD0DC230 
 247      1005E077 
 247      3E3B212D 
 247      0B003BD0 
 248 0014 3304039D 		.ascii	"3\004\003\235\213\210\002\032$\012:\220P\032\230\200"
 248      8B88021A 
 248      240A3A90 
 248      501A9880 
 249 0024 1AB94EC5 		.ascii	"\032\271N\305\000 y\003J\220\300I\256\300\325w\357\371"
 249      00207903 
 249      4A90C049 
 249      AEC0D577 
 249      EFF9
 250 0036 4FB6202C 		.ascii	"O\266 ,\011\200\201\000\333\026\035\027?K\005\011\345"
 250      09808100 
 250      DB161D17 
 250      3F4B0509 
 250      E5
 251 0047 058BC90A 		.ascii	"\005\213\311\012g\340\307\000\323H\270_\000\274\237"
 251      67E0C700 
 251      D348B85F 
 251      00BC9F
 252 0056 025488CD 		.ascii	"\002T\210\315r).\313N\212,[)\263\\\311\350?\247\007"
 252      72292ECB 
 252      4E8A2C5B 
 252      29B35CC9 
 252      E83FA707 
 253 006a 101F13A6 		.ascii	"\020\037\023\246\022\3153\341\020\006\342@\275\372p"
 253      12CD33E1 
 253      1006E240 
 253      BDFA70
 254 0079 67A306B5 		.ascii	"g\243\006\265^k\257\0065\366\026h6\337w\305\351\363"
 254      5E6BAF06 
 254      35F61668 
 254      36DF77C5 
 254      E9F3
 255 008b B761483B 		.ascii	"\267aH;\016\272C\255\217z\203\032z-b\322\022^\273t\016"
 255      0EBA43AD 
 255      8F7A831A 
 255      7A2D62D2 
 255      125EBB74 
 256 00a0 DDB0BF2F 		.ascii	"\335\260\277/\300\246B\274\316\331\020N\347\226\360"
 256      C0A642BC 
 256      CED9104E 
 256      E796F0
 257 00af 03BC2654 		.ascii	"\003\274&TW"
 257      57
ARM GAS  C:\Users\info\AppData\Local\Temp\ccvd5hmY.s 			page 20


 258              		.text
 259              		.section	.gnu.lto_.refs.792a47af,"",%progbits
 260 0000 789C6361 		.ascii	"x\234ca`d`c```dbbff\000\000\000\265\000\027"
 260      60646063 
 260      60606064 
 260      62626666 
 260      000000B5 
 261              		.text
 262              		.section	.gnu.lto_.decls.792a47af,"",%progbits
 263 0000 789CBD58 		.ascii	"x\234\275XkPTI\226\256\274Y@QU\200\002m3\023\354\254"
 263      6B505449 
 263      96AEBC59 
 263      40515580 
 263      026D3313 
 264 0016 D1D2CAC6 		.ascii	"\321\322\312\306\3140\276\246\307\331\230\037;1\275"
 264      CC30BEA6 
 264      C7D9981F 
 264      3B31BD
 265 0025 3BB31BB1 		.ascii	";\263\033\261=\261\261\335\375g\331\250-\253\012\250"
 265      3DB1B1DD 
 265      FD67D9A8 
 265      2DAB0AA8 
 266 0035 6EA8AAA9 		.ascii	"n\250\252\251*\272ub\037\027A\332\301\026\301ni\005"
 266      2ABA7562 
 266      1F1741DA 
 266      C116C16E 
 266      6905
 267 0047 6D055FA5 		.ascii	"m\005_\245<D\240\025\005\232\022\225\361\211\210\200"
 267      3C44A015 
 267      059A1295 
 267      F1898880 
 268 0057 2222888A 		.ascii	"\"\"\210\212\264\012\"\210/\004\366d\346}\025\\\242"
 268      B40A2288 
 268      2F04F664 
 268      E67D155C 
 268      A2
 269 0068 FFECEC8D 		.ascii	"\377\354\354\2158u\363d~y\362;'O>\352j5HC\236\037\307"
 269      3875F364 
 269      7E79F23B 
 269      274F3EEA 
 269      6A354843 
 270 007f 6A34FF1E 		.ascii	"j4\377\036\244\321\374\212\323h\246\341\201\242\346"
 270      A4D1FC8A 
 270      D368A6E1 
 270      81A2E6
 271 008e 438DFC84 		.ascii	"C\215\374\204\2024\201\374\026\340\377\010\362{\220"
 271      823481FC 
 271      16E0FF08 
 271      F27B90
 272 009d 0F401241 		.ascii	"\017@\022AL \026\220\024\020b\355#\244\011xH\277`\220"
 272      4C201690 
 272      141062ED 
 272      23A40978 
 272      48BF6090 
 273 00b1 48906890 		.ascii	"H\220h\220F\220j\220\032\220X\001\203\004\334\314\207"
 273      46906A90 
 273      1A905801 
ARM GAS  C:\Users\info\AppData\Local\Temp\ccvd5hmY.s 			page 21


 273      8304DCCC 
 273      87
 274 00c2 8CF75702 		.ascii	"\214\367W\002^\354\3776\031[\260Cl\374\010\364\305\360"
 274      5EECFF36 
 274      195BB043 
 274      6CFC08F4 
 274      C5F0
 275 00d4 5E85983D 		.ascii	"^\205\230=\302\373c(\257\006I\005y\017$\015\344}\202"
 275      C2FB6328 
 275      AF064905 
 275      790F240D 
 275      E47D82
 276 00e7 23F6406E 		.ascii	"#\366@n\000\346\277\340\375\237 \377\015\362o \377\003"
 276      00E6BFE0 
 276      FD9F20FF 
 276      0DF26F20 
 276      FF03
 277 00f9 7212EA7F 		.ascii	"r\022\352\177\001\357_\202h\241\374.\274\337\004Y\003"
 277      01EF5F82 
 277      68A1FC2E 
 277      BCDF0459 
 277      03
 278 010a F20E4888 		.ascii	"\362\016H\210\300\311\"\370-\306\200p\377\275\320\207"
 278      C0C922F8 
 278      2DC68070 
 278      FFBDD087 
 279 011a 877706C8 		.ascii	"\207w\006\310:\220\314\031\261 \2613\316\341\017\341"
 279      3A90CC19 
 279      B120B133 
 279      CEE10FE1 
 280 012a 9D85983F 		.ascii	"\235\205\230?\204c2b>\375R\260\201\205\376$\316\204"
 280      84633262 
 280      3EFD52B0 
 280      8185FE24 
 280      CE84
 281 013c 03D1D7C3 		.ascii	"\003\321\327\303;\033\315\216\371G\002\227\305B\214"
 281      3B1BCD8E 
 281      F9470297 
 281      C5428C
 282 014b 976898CD 		.ascii	"\227h\230\315(x\033\341\255\007\321\201\204\201\204"
 282      28781BE1 
 282      AD07D181 
 282      848184
 283 015a 832C0009 		.ascii	"\203,\000\011\002\011\005\371\001H$\310|\220\010\322"
 283      020905F9 
 283      014824C8 
 283      7C9008D2 
 284 016a 47884130 		.ascii	"G\210A0\310<\020\003\211\003H\364\2141\305g\222C\231"
 284      C83C1003 
 284      890348F4 
 284      8C31C567 
 284      924399
 285 017d FD0F76EB 		.ascii	"\375\017v\353\272Q\027B\032D\037\215\220g\032R#\274"
 285      BA511742 
 285      1A441F8D 
 285      90671A52 
 285      23BC
ARM GAS  C:\Users\info\AppData\Local\Temp\ccvd5hmY.s 			page 22


 286 018f 49013185 		.ascii	"I\0011\205\023s\000I\331 \024(\034i8\212G\212\206\000"
 286      13730049 
 286      D9201428 
 286      1C69388A 
 286      478A8600 
 287 01a3 1CCD59FA 		.ascii	"\034\315Y\372\310UHzD$\0124J\254\312*\350\234\334Aa"
 287      C855487A 
 287      44240A34 
 287      4AACCA2A 
 287      E89CDC41 
 288 01b8 4F602F8C 		.ascii	"O`/\214\217\224\303R\323Xt\272u\303\310)\035\006\233"
 288      8F94C352 
 288      D35874BA 
 288      75C3C829 
 288      1D069B
 289 01cb 50EE7DE9 		.ascii	"P\356}\351\373\207\2042\036\236<\236\347~%G\346JV\345"
 289      FB878432 
 289      1E9E3C9E 
 289      E77E2547 
 289      E64A56E5 
 290 01df 0EFC9443 		.ascii	"\016\374\224C\221z\244\005\365\311\245\302;\341\240"
 290      917AA405 
 290      F5C9A5C2 
 290      3BE1A0
 291 01ee 46EBD142 		.ascii	"F\353\321BP\017\257\277{P\007j\254\036M#\242?:\3762"
 291      500FAFBF 
 291      7B50076A 
 291      AC1E4D23 
 291      A23F3AFE 
 292 0203 8CE9A473 		.ascii	"\214\351\244s\215\177\254\\\213\337&e\356Ju\327\231"
 292      8D7FAC5C 
 292      8BDF2665 
 292      EE4A75D7 
 292      99
 293 0214 5014AFDF 		.ascii	"P\024\257\337O\006\351k\034\377u&\317#T\211\364\250"
 293      4F06E96B 
 293      1CFF7526 
 293      CF235489 
 293      F4A8
 294 0226 02617410 		.ascii	"\002at\020%\020~\261z\370\335\300\363\353\370\221\022"
 294      25107EB1 
 294      7AF8DDC0 
 294      F3EBF891 
 294      12
 295 0237 3E384683 		.ascii	">8F\203V\304\242\245\261\032t\030\305\023\233\004\205"
 295      56C4A2A5 
 295      B11A7418 
 295      C5139B04 
 295      85
 296 0248 CA512C2A 		.ascii	"\312Q,*C\261\304\376\301]\276\323a\270\012\321\001\206"
 296      43B1C4FE 
 296      C15DBED3 
 296      61B80AD1 
 296      0186
 297 025a BE7CB801 		.ascii	"\276|\270\001K\003\214o\214-\345\371y\250\032\0068\""
 297      4B038C6F 
 297      8C2DE5F9 
ARM GAS  C:\Users\info\AppData\Local\Temp\ccvd5hmY.s 			page 23


 297      79A81A06 
 297      3822
 298 026c 0F00E3A9 		.ascii	"\017\000\343\251\217P\245>\302t\341\223m!\306\034\202"
 298      8F50A53E 
 298      C274E193 
 298      6D21C61C 
 298      82
 299 027d CFCBE423 		.ascii	"\317\313\344#\177G\355\225B\373!h\327\240\032d\024\342"
 299      7F47ED95 
 299      42FB2168 
 299      D7A01A64 
 299      14E2
 300 028f 7477C277 		.ascii	"tw\302w:B\313\261:\264ZK\352\312w\327\354\011\247u\244"
 300      3A42CBB1 
 300      3AB45A4B 
 300      EACA77D7 
 300      EC09A775 
 301 02a4 D7378856 		.ascii	"\3277\210V\356{51B\002\272\030B6\215\0251[\314b\326"
 301      EE7B3531 
 301      4202BA18 
 301      42368D15 
 301      315BCC62 
 302 02b9 78E1DC7E 		.ascii	"x\341\334~#>\302\246\345\314\364s\177\004\213>\007j"
 302      233EC2A6 
 302      E5CCF473 
 302      7F048B3E 
 302      076A
 303 02cb DBC8C59D 		.ascii	"\333\310\305\235\006\026\375y\340q[\323\266I\003\322"
 303      0616FD79 
 303      E0715BD3 
 303      B64903D2 
 304 02db C75377F8 		.ascii	"\307Sw\370L^\037\257Au\300\355\004pC\015\340\320b\301"
 304      4C5E1FAF 
 304      4175C0ED 
 304      0470430D 
 304      E0D062C1 
 305 02ef A15AA83C 		.ascii	"\241Z\250<\006\225B\354\207\376\211\306\276\036H\035"
 305      069542EC 
 305      87FE89C6 
 305      BE1E481D 
 306 02ff 9743B358 		.ascii	"\227C\263X\317<\3716\277{@\217\353)\001n\357\035\276"
 306      CF3CF936 
 306      BF7B408F 
 306      EB29016E 
 306      EF1DBE
 307 0312 4E3BD710 		.ascii	"N;\327\020\3769\207\030\337\270\270\214D\277\021\206"
 307      FE398718 
 307      DFB8B88C 
 307      44BF1186 
 308 0322 F8561EA2 		.ascii	"\370V\036\242\036\011c\024\327\026\3375\304\024\320"
 308      1E096314 
 308      D716DF35 
 308      C414D0
 309 0331 7CCBE417 		.ascii	"|\313\344\027j)P\016\353I\024\003\277G\221\226\241\233"
 309      6A29500E 
 309      EB491403 
 309      BF479196 
ARM GAS  C:\Users\info\AppData\Local\Temp\ccvd5hmY.s 			page 24


 309      A19B
 310 0343 1F9F6CD0 		.ascii	"\037\237l\320\276\265\233\357\253\344\373\212\012~Q"
 310      BEB59BEF 
 310      ABE4FB8A 
 310      0A7E51
 311 0352 58C5F37F 		.ascii	"X\305\363\177\202\236q\004\207|\262y(\222\327\001\324"
 311      829E7104 
 311      877CB279 
 311      2892D701 
 311      D4
 312 0363 0D79DF84 		.ascii	"\015y\337\204\336\202\256Me%\371\034\036`\321\254(\233"
 312      DE82AE4D 
 312      6525F91C 
 312      1E60D1AC 
 312      289B
 313 0375 A8D4D3F9 		.ascii	"\250\324\323\371\370@\234\242\356\354\003\027\014\322"
 313      F8409CA2 
 313      EEEC0317 
 313      0CD2
 314 0383 149D6653 		.ascii	"\024\235fS\324q\375VG\250Ty\206U\026\215\365|\027\312"
 314      D471FD56 
 314      47A85479 
 314      8655168D 
 314      F57C17CA 
 315 0397 A6221ED4 		.ascii	"\246\"\036\324\341\254{}\302T\304\200\312\017f\355\342"
 315      E1AC7B7D 
 315      C254C480 
 315      CA0F66ED 
 315      E2
 316 03a8 F0141BA7 		.ascii	"\360\024\033\247q0\277Q\2077a\252\264\036\030\272\026"
 316      7130BF51 
 316      873761AA 
 316      B41E18BA 
 316      16
 317 03b9 8EF73165 		.ascii	"\216\3671epwc\225\016\373\231\342\033\330\221kd&V)\226"
 317      70776395 
 317      0EFB99E2 
 317      1BD8916B 
 317      64265629 
 318 03ce 56245B5A 		.ascii	"V$[Z[\375[^\353\361E\006\255;V\337\034\304\240KA=w\274"
 318      5BFD5B5E 
 318      EBF14506 
 318      AD3B56DF 
 318      1CC4A04B 
 319 03e6 7F29BEC6 		.ascii	"\177)\276\306\232D^\321\214\327\263\013\355=\030\017"
 319      9A445ED1 
 319      8CD7B30B 
 319      ED3D180F 
 320 03f6 B0B6CD4D 		.ascii	"\260\266\315M\015\260\302G\231\322|\363F\207\026O1%"
 320      0DB0C247 
 320      99D27CF3 
 320      4687164F 
 320      3125
 321 0408 A3E15475 		.ascii	"\243\341Tu\030\376BK\225\311\352\352S\010\357`\212\350"
 321      18FE424B 
 321      95C9EAEA 
 321      5308EF60 
ARM GAS  C:\Users\info\AppData\Local\Temp\ccvd5hmY.s 			page 25


 321      8AE8
 322 041a 5824736C 		.ascii	"X$sl \347\340\023#\336\307\332vv\364\347\205\352\205"
 322      20E7E013 
 322      23DEC7DA 
 322      7676F4E7 
 322      85EA85
 323 042d D593F7FD 		.ascii	"\325\223\367\375\253\247\360\314\206\246 \345\352\271"
 323      ABA7F0CC 
 323      86A620E5 
 323      EAB9
 324 043b 1130CDDD 		.ascii	"\0210\315\335\322\352\311z\260g\010\341Cl\224\236\263"
 324      D2EAC97A 
 324      B06708E1 
 324      436C949E 
 324      B3
 325 044c 074BC90A 		.ascii	"\007K\311\012YBV\310\364t\204b\215,ak\244m\363\350\336"
 325      594256C8 
 325      F4748462 
 325      8D2C616B 
 325      A46DF3E8 
 326 0461 105C43E1 		.ascii	"\020\\C\341\\i\376\3036\305\306\262\317x\234d\336m\030"
 326      5C69FEC3 
 326      36C5C6B2 
 326      CF789C64 
 326      DE6D18
 327 0474 A9574E8D 		.ascii	"\251WN\215%\322\262\247D4\022\013\324\007\324\227\010"
 327      25D2B2A7 
 327      4434120B 
 327      D407D497 
 327      08
 328 0485 D46F4165 		.ascii	"\324oAe\217\260\265\354\315/\011\306\215l\210C\025\227"
 328      8FB0B5EC 
 328      CD2F09C6 
 328      8D6C8843 
 328      1597
 329 0497 9B43C455 		.ascii	"\233C\304U0\323\300]\025\003\342*XIW\301\035\340\322"
 329      30D3C05D 
 329      1503E22A 
 329      584957C1 
 329      1DE0D2
 330 04aa 2F73B92D 		.ascii	"/s\271-\256\002q9G\322\345\214\372\217<\177\244\303"
 330      AE027139 
 330      47D2E58C 
 330      FA8F3C7F 
 330      A4C3
 331 04bc 6759103E 		.ascii	"gY\020>\233\3569\255\3037\230\222u`SQ\030\036`Ja\335"
 331      9BEE39AD 
 331      C3379892 
 331      75605351 
 331      181E604A 
 332 04d2 D3F341AC 		.ascii	"\323\363A\254\227\016\324\334\355\243u!x\230\265]\365"
 332      970ED4DC 
 332      EDA37521 
 332      7898B55D 
 332      F5
 333 04e3 EF2E0AC5 		.ascii	"\357.\012\305\343L\271S\363|o\030\346\203\250r\373q"
 333      E34CB953 
ARM GAS  C:\Users\info\AppData\Local\Temp\ccvd5hmY.s 			page 26


 333      F37C6F18 
 333      E683A872 
 333      FB71
 334 04f5 C3F61029 		.ascii	"\303\366\020)\247Y\362\177\323\266\2537\004o`\200W\227"
 334      A759F27F 
 334      D3B6AB37 
 334      046F6080 
 334      5797
 335 0507 274E20BC 		.ascii	"'N \274\225)\237_=\272\002\227\260rY\307\365I\204+\230"
 335      95299F5F 
 335      3DBA0297 
 335      B07259C7 
 335      F549842B 
 336 051c 72696AE4 		.ascii	"rij\344[\214\375L)\357\313\276\032\204\2570e\377\353"
 336      5B8CFD4C 
 336      29EFCBBE 
 336      1A84AF30 
 336      65FFEB
 337 052f E21A23EE 		.ascii	"\342\032#\356aJ\363\363\206=Ax\220)9\033\017\025\207"
 337      614AF3F3 
 337      863D4178 
 337      9029391B 
 337      0F1587
 338 0542 E349A6AC 		.ascii	"\343I\246\254\377\274\264\036\343\274`\2666z\253\306"
 338      FFBCB41E 
 338      E3BC60B6 
 338      367AABC6 
 339 0552 83F13EA6 		.ascii	"\203\361>\246\364\336\312\377\010W\260\362\303\366\266"
 339      F4DECAFF 
 339      0857B0F2 
 339      C3F6B6
 340 0561 FC205CC7 		.ascii	"\374 \\\307\224\311\252\317\352\264\270\205)\367\317"
 340      94C9AACF 
 340      EAB4B885 
 340      29F7CF
 341 0570 BE7C6AC0 		.ascii	"\276|j\300}Ly\325\264\0166\2601\246\034mzy1\010o\010"
 341      7D4C79D5 
 341      B40E36B0 
 341      31A61C6D 
 341      7A793108 
 342 0586 6159BCAE 		.ascii	"aY\274\256t/\302\305Li\335:T\300\341\023Ly=\361EF\020"
 342      742FC2C5 
 342      4C69DD3A 
 342      54C0E113 
 342      4C793DF1 
 343 059d BEC494C6 		.ascii	"\276\304\224\306\233\203e\006\334\313\224\312\372\254"
 343      9B836506 
 343      DCCB94CA 
 343      FAAC
 344 05ab 21E16CF3 		.ascii	"!\341l\363\223\303\314\267i\344\224\036\277\240\215"
 344      93C3CCB7 
 344      69E4941E 
 344      BFA08D
 345 05ba 6F8C946E 		.ascii	"o\214\224nk\017Fq3\236\370\270\270\250\270\022\222\025"
 345      6B0F4671 
 345      339EF8B8 
 345      B8A8B812 
ARM GAS  C:\Users\info\AppData\Local\Temp\ccvd5hmY.s 			page 27


 345      9215
 346 05cc 7D45257F 		.ascii	"}E%\177h8z\223\347\263\2154\302\0230\337\333\270(q\201"
 346      68387A93 
 346      E7B38D34 
 346      C21330DF 
 346      DBB82871 
 347 05e1 FC8CE47B 		.ascii	"\374\214\344{+\311z\015\205\373\353\333\014|\345\177"
 347      2BC97A0D 
 347      85FBEBDB 
 347      0C7CE57F 
 348 05f1 50E85820 		.ascii	"P\350X \364\036]\033+d\350\330\226\360m\274\177\035"
 348      F41E5D1B 
 348      2B64E8D8 
 348      96F06DBC 
 348      7F1D
 349 0603 A69BE488 		.ascii	"\246\233\344\210\000\2266a\006/U\230\336~9\354+\336"
 349      00963661 
 349      062F5598 
 349      DE7E39EC 
 349      2BDE
 350 0615 9F81A9F1 		.ascii	"\237\201\251\361i\025\036u\012p\373e\211\307+\025\350"
 350      69151E75 
 350      0A70FB65 
 350      89C72B15 
 350      E8
 351 0626 2505F44B 		.ascii	"%\005\364K\031\312s\263\241\012\306m\262sO\324\234;"
 351      19CA73B3 
 351      A10AC66D 
 351      B2734FD4 
 351      9C3B
 352 0638 ABB0BA45 		.ascii	"\253\260\272E\266\232\241bu\231\214,\224\221S*T\225"
 352      B69AA162 
 352      75998C2C 
 352      9491532A 
 352      5495
 353 064a 4677C8D0 		.ascii	"Fw\310\320I\025\2502Z\2252\327g\201\320\357\320\314"
 353      4915A832 
 353      5A9532D7 
 353      6781D0EF 
 353      D0CC
 354 065c 496B95B1 		.ascii	"Ik\225\261\243j~)\003\373\245\214}\256f\267M\201\235"
 354      A36A7E29 
 354      03FBA58C 
 354      7DAE66B7 
 354      4D819D
 355 066f 92E9BE50 		.ascii	"\222\351\276P\303*\371\326\310v\307\325\260\312\031"
 355      C32AF9D6 
 355      C876C7D5 
 355      B0CA19
 356 067e 1B57664E 		.ascii	"\033WfN\026\247\2329\314?\272a\371'r\215<\257#(\215"
 356      16A79A39 
 356      CC3FBA61 
 356      F927728D 
 356      3CAF2328 
 357 0693 B0596924 		.ascii	"\260Yi$[\273\224Y\365Z%\250J\207N\310$\237\252\005\212"
 357      5BBB9459 
 357      F55A25A8 
ARM GAS  C:\Users\info\AppData\Local\Temp\ccvd5hmY.s 			page 28


 357      4A874EC8 
 357      249FAA05 
 358 06a8 CE6ABE70 		.ascii	"\316j\276p\335\344\341\200E\231\\,\272NX\255\023h\302"
 358      DDE4E180 
 358      45995C2C 
 358      BA4E58AD 
 358      1368C2
 359 06bb F8682B17 		.ascii	"\370h+\027\217>\347\342P\016\310\006\220M \271 \005"
 359      8F3EE7E2 
 359      500EC806 
 359      904D20B9 
 359      2005
 360 06cd 20EB41FE 		.ascii	" \353A\376\004\262\035d\013H>\310f\220/@\276\002\311"
 360      04B21D64 
 360      0B483EC8 
 360      66902F40 
 360      BE02C9
 361 06e0 06C903D9 		.ascii	"\006\311\003\331\010\362\031\310\227\\\234\302\233\356"
 361      08F219C8 
 361      975C9CC2 
 361      9BEE
 362 06ee CDE1DB79 		.ascii	"\315\341\333y\177\026\246{\363K\201\242\264\245\177"
 362      7F16A67B 
 362      F34B81A2 
 362      B4A57F
 363 06fd 2793847D 		.ascii	"'\223\204}\240ks\321\366\010\\\250\243G\301\370\246"
 363      A06B73D1 
 363      F6085CA8 
 363      A347C1F8 
 363      A6
 364 070e A6775054 		.ascii	"\246wPT\274:\367\035\300\367/\311\235\315\322\366\226"
 364      BC3AF71D 
 364      C0F72FC9 
 364      9DCDD2F6 
 364      96
 365 071f 9F90592A 		.ascii	"\237\220Y*\202\201\0129\351T!\223F\351\326\364\357\177"
 365      82810A39 
 365      E9542193 
 365      46E9D6F4 
 365      EF7F
 366 0731 1C122510 		.ascii	"\034\022%\020\364\317IP\363\177\316\216\354\247\235"
 366      F4CF4950 
 366      F37FCE8E 
 366      ECA79D
 367 0740 599F1994 		.ascii	"Y\237\031\224\007\376NEX5\350kN<\360\237\227\337\277"
 367      07FE4E45 
 367      5835E86B 
 367      4E3CF09F 
 367      97DFBF
 368 0753 19842B74 		.ascii	"\031\204+t\001\267\233Hv\273\251ix\262O\270\321\360"
 368      01B79B48 
 368      76BBA969 
 368      78B24FB8 
 368      D1F0
 369 0765 E4823C78 		.ascii	"\344\202<x\257\250Y\217O0l\343\325\303\027#p\013U\026"
 369      AFA8598F 
 369      4F306CE3 
ARM GAS  C:\Users\info\AppData\Local\Temp\ccvd5hmY.s 			page 29


 369      D5C31723 
 369      700B5516 
 370 0779 75E73466 		.ascii	"u\3474f \2445F\301.\034\360\030\2151\332x\241\020\037"
 370      20A43546 
 370      C12E1CF0 
 370      188D31DA 
 370      78A1101F 
 371 078d 171F4FCE 		.ascii	"\027\037O\316\275}\234\021\015A4\024\354\366\007\260"
 371      BD7D9C11 
 371      0D413414 
 371      ECF607B0 
 372 079d DBC7D805 		.ascii	"\333\307\330\005Lm1Dn7\007\221k\206\310\371\204\251"
 372      4C6D3144 
 372      6E370791 
 372      6B86C8F9 
 372      84A9
 373 07af 3D03E5D3 		.ascii	"=\003\345\323\340x#\310\267 \015 \365 GA\276\001\251"
 373      E07823C8 
 373      B7200D20 
 373      F5204741 
 373      BE01A9
 374 07c2 01A906A9 		.ascii	"\001\251\006\251\0029\002R\011r\030\244\002\244"
 374      02390252 
 374      097218A4 
 374      02A4
 375 07d0 1CA40CA4 		.ascii	"\034\244\014\244\024\344\020\310A\220\003\001\2519\321"
 375      14E410C8 
 375      41900301 
 375      A939D1
 376 07df A9586825 		.ascii	"\251Xh%0\301>y\365\374Y\261\035\250\363\334%t\370\313"
 376      30C13E79 
 376      F5FC59B1 
 376      1DA8F3DC 
 376      2574F8CB 
 377 07f3 F37CD129 		.ascii	"\363|\321)\255\361sH\205\245r?~&c\317\253a\225\033\347"
 377      ADF17348 
 377      85A5723F 
 377      7E2663CF 
 377      AB61951B 
 378 0808 53197B41 		.ascii	"S\031{A\015\2538gFe\350E5\250\342\360\030\221\241\227"
 378      0DAB3867 
 378      4665E845 
 378      35A8E2F0 
 378      1891A197 
 379 081c 03A12DB3 		.ascii	"\003\241-\263\266\315[2\366\212\032Vy$\334\224\261W"
 379      B6CD5B32 
 379      F68A1A56 
 379      7924DC94 
 379      B157
 380 082e D5B0CA5D 		.ascii	"\325\260\312]\261S\306\266\253a\225\333|\273\214\355"
 380      B153C6B6 
 380      AB6195DB 
 380      7CBB8CED 
 381 083e 50C32AA3 		.ascii	"P\303*\243\333&c;\325\260\312\350^)P\034\011\327\004"
 381      DB26633B 
 381      D5B0CAE8 
 381      5E29501C 
ARM GAS  C:\Users\info\AppData\Local\Temp\ccvd5hmY.s 			page 30


 381      09D704
 382 0851 B47424B4 		.ascii	"\264t$\264\314\014[c\301\033l\237\204\273:\352\022\340"
 382      CC0C5B63 
 382      C11B6C9F 
 382      84BB3AEA 
 382      12E0
 383 0863 D23E797D 		.ascii	"\322>y}\026\355\206\002\305\276zS\035\2570_\327\031"
 383      16ED8602 
 383      C5BE7A53 
 383      1DAF305F 
 383      D719
 384 0875 C1E0C760 		.ascii	"\301\340\307`q\016\314\204+\2576\212U{\234\213\2211"
 384      710ECC84 
 384      2BAF368A 
 384      557B9C8B 
 384      9131
 385 0887 7590E3B5 		.ascii	"u\220\343\265\320\231\355\202s\2404\012\210\342Og\340"
 385      D099ED82 
 385      73A0340A 
 385      88E24F67 
 385      E0
 386 0898 7F79E800 		.ascii	"\177y\350\000\277'8\362\247S\334/\232am\261MwW\313\033"
 386      BF2738F2 
 386      A753DC2F 
 386      9A616DB1 
 386      4D7757CB 
 387 08ad 64D3253C 		.ascii	"d\323%<\357\313W\371Z\272e0_\216+}\031T\367E\341\372"
 387      EFCB57F9 
 387      5ABA6530 
 387      5F8E2B7D 
 387      1954F745 
 388 08c3 D14E239F 		.ascii	"\321N#\237g\246\340\0073\301*\247\276\214~\250\216V"
 388      67A6E007 
 388      33C12AA7 
 388      BE8C7EA8 
 388      8E56
 389 08d5 98AE2E88 		.ascii	"\230\256.\210fL\374\000\1774\023\3763\325\2406)\203"
 389      664CFC00 
 389      7F3413FE 
 389      33D5A036 
 389      2983
 390 08e7 7A0A827A 		.ascii	"z\012\202zR-\250M\001A=\251\026\324\300\177\362M4\250"
 390      522DA84D 
 390      01413DA9 
 390      16D4C07F 
 390      F24D34A8 
 391 08fb 7B695059 		.ascii	"{iPY \217\344. \201$\324\206\345@\236T\004\362H\301"
 391      208FE42E 
 391      208124D4 
 391      86E5409E 
 391      5404F248 
 392 0910 5F33FA70 		.ascii	"_3\372p\\\240\307\252\364\227\311w\226\235\005\364\316"
 392      5CA0C7AA 
 392      F497C977 
 392      969D05F4 
 392      CE
 393 0921 E20BBCB3 		.ascii	"\342\013\274\263\260\266\257r\177D\332\3106\277G>)}"
ARM GAS  C:\Users\info\AppData\Local\Temp\ccvd5hmY.s 			page 31


 393      B0B6AF72 
 393      7F44DAC8 
 393      36BF473E 
 393      297D
 394 0933 E249F9EC 		.ascii	"\342I\371\354\201\3575\222\276+\274\233\277'\233\317"
 394      81EF3592 
 394      BE2BBC9B 
 394      BF279BCF 
 395 0943 CBE0F9BF 		.ascii	"\313\340\371\277\243\271\200N\311\354N)?,\374\231#\037"
 395      A3B9804E 
 395      C9EC4E29 
 395      3F2CFC99 
 395      231F
 396 0955 16CE8FD7 		.ascii	"\026\316\217\327<3\340\016v(\345\214U?\214\000C\273"
 396      3C33E00E 
 396      7628E58C 
 396      553F8C00 
 396      43BB
 397 0967 2BE1967A 		.ascii	"+\341\226z\301\310\254P#g\345a\241(\0339G\215\324\025"
 397      C1C8AC50 
 397      2367E561 
 397      A1281B39 
 397      478DD415 
 398 097b DC31E061 		.ascii	"\3341\340af#s\177_k\020\316\014\245JA\243\177\007\371"
 398      6623737F 
 398      5F6B10CE 
 398      0CA54A41 
 398      A37F07F9 
 399 098f 9A842ED0 		.ascii	"\232\204.\320NPS\373\374\312V\366\377\215\344%\373\377"
 399      4E5053FB 
 399      FCCA56F6 
 399      FF8DE425 
 399      FBFF
 400 09a1 36987BB8 		.ascii	"6\230{\270\013\307\314\231\320-4\366\2278\341+\312t"
 400      0BC7CC99 
 400      D02D34F6 
 400      9738E12B 
 400      CA74
 401 09b3 EDCBA746 		.ascii	"\355\313\247F\342-\3743-,\371\227\242=\331~\3409\217"
 401      E22DFC33 
 401      2D2CF997 
 401      A23DD97E 
 401      E0398F
 402 09c6 E2D07991 		.ascii	"\342\320y\221'\272\310i\211\306\276\027^\2464\267\344"
 402      27BAC869 
 402      89C6BE17 
 402      5EA634B7 
 402      E4
 403 09d7 0F6D09C5 		.ascii	"\017m\011\305\237\317EM\355\257\345\304\265\332AN\242"
 403      9FCF454D 
 403      EDAFE5C4 
 403      B5DA414E 
 403      A2
 404 09e8 DBC6D1CA 		.ascii	"\333\306\321\312\003\231\347\235s\323m\247t\257\212"
 404      0399E79D 
 404      73D36DA7 
 404      74AF8A
ARM GAS  C:\Users\info\AppData\Local\Temp\ccvd5hmY.s 			page 32


 405 09f7 74CB73FA 		.ascii	"t\313s\372+\014\214\256\377F\322v\276)\013B\012\030"
 405      2B0C8CAE 
 405      FF46D276 
 405      BE290B42 
 405      0A18
 406 0a09 D42A51BD 		.ascii	"\324*Q\275\002T[E\252\035\224\352\027\305c\2678\274"
 406      02545B45 
 406      AA1D94EA 
 406      17C563B7 
 406      38BC
 407 0a1b 732EAADF 		.ascii	"s.\252\337\377\225\356:\243zx\240\252=T\342\337\305"
 407      FF95EE3A 
 407      A37A78A0 
 407      AA3D54E2 
 407      DFC5
 408 0a2d 2A9F5DAB 		.ascii	"*\237]\253\250\017\237\333\201n\352\300\015\321\201"
 408      A80F9FDB 
 408      816EEAC0 
 408      0DD181
 409 0a3c EAA9DB5D 		.ascii	"\352\251\333]Xp`Dt\0000\250Sr\340\0328\320):p\223:\220"
 409      58706044 
 409      740030A8 
 409      5372E01A 
 409      38D0293A 
 410 0a54 9B517B46 		.ascii	"\233Q{F\213\017\317\345@\347\266\216^\235`tT4J&\260"
 410      8B0FCFE5 
 410      40E7B68E 
 410      5E9D6074 
 410      54344A26 
 411 0a69 47327A0B 		.ascii	"G2z\013\214\366\210F{\251\321\322\354\362\234 \334\314"
 411      8CF68846 
 411      7BA9D1D2 
 411      ECF29C20 
 411      DCCC
 412 0a7b 8CAA65D2 		.ascii	"\214\252e\322Pg\311\343`\245g\037.P8\326O\035\273-:"
 412      5067C9E3 
 412      60A5671F 
 412      2E5038D6 
 412      4F1DBB2D 
 413 0a90 969D7BBC 		.ascii	"\226\235{\274H\234\231\242\"\014$\264\004\202\372\344"
 413      489C99A2 
 413      220C24B4 
 413      0482FAE4 
 414 0aa0 5CEF13C7 		.ascii	"\\\357\023\307\277C\307\277U\322\2739\030\337f\343\367"
 414      BF43C7BF 
 414      55D2BB39 
 414      18DF66E3 
 414      F7
 415 0ab1 F8AA0BD9 		.ascii	"\370\252\013\331W\270\257\245\361\217\016wt\352%N\367"
 415      57B8AFA5 
 415      F18F0E77 
 415      74EA254E 
 415      F7
 416 0ac2 58B86F67 		.ascii	"X\270og^\317\230\233\324}Jj@$\345\377\346\342X\210@"
 416      5ECF989B 
 416      D47D4A6A 
 416      4024E5FF 
ARM GAS  C:\Users\info\AppData\Local\Temp\ccvd5hmY.s 			page 33


 416      E6E25888 
 417 0ad7 6A5BB7D1 		.ascii	"j[\267\321\237\207\010\002\335\2259\335\0259\015RN\335"
 417      9F870802 
 417      DD9539DD 
 417      15390D52 
 417      4EDD
 418 0ae9 F7B66519 		.ascii	"\367\266e\031p\026\373\240ts\317\306q\343\333{\370V"
 418      7016FBA0 
 418      7473CFC6 
 418      71E3DB7B 
 418      F856
 419 0afb 3050D4F9 		.ascii	"0P\324\371\317%\007aHD/\257\3371\003\322\025ZCk\336"
 419      CF250761 
 419      48442FAF 
 419      DF3103D2 
 419      155A436B 
 420 0b10 873979C0 		.ascii	"\2079y\300\275M\226m\375\361{Z\345\215\267?`\213|\310"
 420      BD4D966D 
 420      FDF17B5A 
 420      E58DB73F 
 420      608B7CC8 
 421 0b24 EE94E40D 		.ascii	"\356\224\344\015\340#\305\315\007\302\224\340\226\000"
 421      E023C5CD 
 421      07C294E0 
 421      9600
 422 0b32 F02301FC 		.ascii	"\360#\001\374\210\202\207\036<\030\341\224\340\366\000"
 422      8882871E 
 422      3C18E194 
 422      E0F600
 423 0b41 F090001E 		.ascii	"\360\220\000\036\242\340\3659\323\367#\260\217ys\254"
 423      A2E0F539 
 423      D3F723B0 
 423      8F7973AC 
 424 0b51 70CAAFC5 		.ascii	"p\312\257\305\025L\311.\230\356\327\343*\246<\035\356"
 424      154CC92E 
 424      98EED7E3 
 424      2AA63C1D 
 424      EE
 425 0b62 F205E33A 		.ascii	"\362\005\343:\0016\\z,L\370\336A\364-e9\231\010_\244"
 425      01365C7A 
 425      2C4CF8DE 
 425      41F42D65 
 425      3999085F 
 426 0b77 8DC12F7C 		.ascii	"\215\301/|\325\033\364\210\336\253\343\305\017\034\277"
 426      D51BF488 
 426      DEABE3C5 
 426      0F1CBF
 427 0b86 AE537CE0 		.ascii	"\256S|\340\030\2060\214\253\376\005d\027S?\273\230\216"
 427      1886308C 
 427      ABFE0564 
 427      17533FBB 
 427      988E
 428 0b98 42DCC801 		.ascii	"B\334\310\001\205\236\010x\022\314\227p\276\274\200"
 428      859E0878 
 428      12CC9770 
 428      BEBC80
 429 0ba7 0BE53390 		.ascii	"\013\3453\220\247 \317\003.\226\267Z\244\353\314c\225"
ARM GAS  C:\Users\info\AppData\Local\Temp\ccvd5hmY.s 			page 34


 429      A720CF03 
 429      2E96B75A 
 429      A4EBCC63 
 429      95
 430 0bb8 4194C7E2 		.ascii	"A\224\307\342\250\014\035S\201*/j=\271\302\315\204\254"
 430      A80C1D53 
 430      812A2F6A 
 430      3DB9C2CD 
 430      84AC
 431 0bca FC11013C 		.ascii	"\374\021\001<\347\251\322\305\376\011\217\007\236*\344"
 431      E7A9D2C5 
 431      FE098F07 
 431      9E2AE4
 432 0bd9 BB60CEE8 		.ascii	"\273`\316\350\353p\334F\203\3045\372\352|a(>\212\365"
 432      EB70DC46 
 432      83C435FA 
 432      EA7C6128 
 432      3E8AF5
 433 0bec 296A8923 		.ascii	")j\211#}^\203\335Wr\332\215\323\323&\340\262.\305d\002"
 433      7D5E83DD 
 433      5772DA8D 
 433      D3D326E0 
 433      B22EC564 
 434 0c01 E2F07D31 		.ascii	"\342\360}1!S\330Y\374\2062\021^\007\374m\231\024\022"
 434      2153D859 
 434      FC863211 
 434      5E07FC6D 
 434      991412
 435 0c14 619226C2 		.ascii	"a\222&\302WC\367F\214Jpw@\326L\011\340)\012\316:\261"
 435      5743F746 
 435      8C4A7077 
 435      40D64C09 
 435      E0290ACE 
 436 0c2a 772A2079 		.ascii	"w* y\311\007u\031<-\200\247)x:;\2538hQ1s$\007\026\300"
 436      C9077519 
 436      3C2D80A7 
 436      29783A3B 
 436      AB386851 
 437 0c44 870BE861 		.ascii	"\207\013\350a\310\026\025\217\027\001f\343\341\276W"
 437      C816158F 
 437      170166E3 
 437      E1BE57
 438 0c53 C10C0327 		.ascii	"\301\014\003'\352{W\370\326y\201\260\014\012\373\372"
 438      EA7B57F8 
 438      D67981B0 
 438      0C0AFBFA 
 439 0c63 42D350F8 		.ascii	"B\323P\370\234\246\326QL}U\336\270\221a\374\327\203"
 439      9CA6D651 
 439      4C7D55DE 
 439      B89161FC 
 439      D783
 440 0c75 73B8404C 		.ascii	"s\270@L&\305\\\312\035\236\247\244\177?\300\327,\314"
 440      26C55CCA 
 440      1D9EA7A4 
 440      7F3FC0D7 
 440      2CCC
 441 0c87 E8C31BB0 		.ascii	"\350\303\033\260\327r\272Ft\202\275Z\203`\357\234ho"
ARM GAS  C:\Users\info\AppData\Local\Temp\ccvd5hmY.s 			page 35


 441      D772BA46 
 441      7482BD5A 
 441      8360EF9C 
 441      686F
 442 0c99 3DB59731 		.ascii	"=\265\2271u\267\334 `\252fa\262\361\"\315\017\222m^"
 442      75B7DC20 
 442      60AA6661 
 442      B2F122CD 
 442      0F926D5E 
 443 0cad 93D5966A 		.ascii	"\223\325\226j^k\262;Li\366\324T\273\307fq:\254\036\335"
 443      5E6BB23B 
 443      4C69F6D4 
 443      54BBC766 
 443      713AAC1E 
 444 0cc2 6FDFFB60 		.ascii	"o\337\373`\341o\226-\323\204\232L\351v\207w\225\311"
 444      E16F962D 
 444      D3849A4C 
 444      E9768777 
 444      95C9
 445 0cd4 9B812C7F 		.ascii	"\233\201,\177\233\350r;\223\335\346\264\205I\366T\233"
 445      9BE8723B 
 445      93DDE6B4 
 445      8549F654 
 445      9B
 446 0ce5 6761FC9A 		.ascii	"ga\374\232U\357\374M\242e\255\313m\363x\022]\036\247"
 446      55EFFC4D 
 446      A265ADCB 
 446      6DF37812 
 446      5D1EA7
 447 0cf8 65A1C56D 		.ascii	"e\241\305m3{\235\356\304\225\011\313\003+\354i.\247"
 447      337B9DEE 
 447      C49509CB 
 447      032BEC69 
 447      2EA7
 448 0d0a DB9B98EC 		.ascii	"\333\233\230\354HO4\273\323\022\177\236\2602a\031)\375"
 448      484F34BB 
 448      D3127F9E 
 448      B0326119 
 448      29FD
 449 0d1c D4E174D8 		.ascii	"\324\341t\330~j3\257\266'\332\035\226\324t\253-1\315"
 449      7E6A33AF 
 449      B627DA1D 
 449      96D474AB 
 449      2D31CD
 450 0d2f 6C49B13B 		.ascii	"lI\261;l\211@-\311\234\236\3525y\327\272l\236\204\024"
 450      6C89402D 
 450      C99C9EEA 
 450      3579D7BA 
 450      6C9E8414 
 451 0d43 4D8840E5 		.ascii	"M\210@\345\223\377/&\236\265\236D\223\307k\205aax=\213"
 451      93FF2F26 
 451      9EB59E44 
 451      93C76B85 
 451      6161783D 
 452 0d58 C5B2774C 		.ascii	"\305\262wL^\235XX\230\220\220\230\276*y\271\311\342"
 452      5E9D5858 
 452      98909098 
ARM GAS  C:\Users\info\AppData\Local\Temp\ccvd5hmY.s 			page 36


 452      BE2A79B9 
 452      C9E2
 453 0d6a 715BA0B4 		.ascii	"q[\240\264f\225\311j2/w\271\241\335\346N\260h\336\234"
 453      6695C96A 
 453      322F77B9 
 453      A1DDE64E 
 453      B068DE9C 
 454 0d7e 5967B238 		.ascii	"Yg\2628\323\322\234\216p\253m\2653\335a\261\201}\263"
 454      D3D29C8E 
 454      70AB6DB5 
 454      33DD61B1 
 454      817DB3
 455 0d91 D7F6A6A4 		.ascii	"\327\366\246\244\246\232=^\223\013\346\203\326\377P"
 455      A69A3D5E 
 455      930BE683 
 455      D6FF50
 456 0da0 AA178321 		.ascii	"\252\027\203!5\031\222]v\247\011\034\206Z}\2727i\025"
 456      3519925D 
 456      76A7091C 
 456      865A7DBA 
 456      376915
 457 0db3 AB06C39F 		.ascii	"\253\006\303\237\330\001o\266ZI0\014\366\345\026\322"
 457      D8016FB6 
 457      5A49300C 
 457      F6E516D2 
 458 0dc3 E0F6DAAC 		.ascii	"\340\366\332\254\264,\324G\333=\246$\247\303\0133\377"
 458      B42CD447 
 458      DB3DA624 
 458      A7C30B33 
 458      FF
 459 0dd4 89CDEDB1 		.ascii	"\211\315\355\261\231\322\234V\233n\215\311\231\224\344"
 459      99D29C56 
 459      9B6E8DC9 
 459      9994E4
 460 0de3 B1797536 		.ascii	"\261yu6\207\305\011n'k\011&tu\272\307dIuZ>\026B\260"
 460      87C5096E 
 460      276B0926 
 460      7475BAC7 
 460      6449755A 
 461 0dfb 62B91002 		.ascii	"b\271\020\002R\230Oy\230\035V!\225,\253\015\324\347"
 461      52984F79 
 461      981D5621 
 461      952CAB0D 
 461      D4E7
 462 0e0d 344F3294 		.ascii	"4O2\224CV\257\365\332\340\035l1[\341\245\267\332=.\206"
 462      4356AFF5 
 462      DAE01D6C 
 462      315BE1A5 
 462      B7DA3D2E 
 463 0e22 0A71D8D6 		.ascii	"\012q\330\326x\341m\244hK\212\331M\024\261\335\356H"
 463      78E16DA4 
 463      684B8AD9 
 463      4D14B1DD 
 463      EE48
 464 0e34 721A5CF6 		.ascii	"r\032\\\3665\266T\323\247v\2537e~R\252\335E8\232D\216"
 464      35B654D3 
 464      A776AB37 
ARM GAS  C:\Users\info\AppData\Local\Temp\ccvd5hmY.s 			page 37


 464      657E52AA 
 464      DD45389A 
 465 0e4a F3C48888 		.ascii	"\363\304\210\210\025\006/\344\202)\305fON\361\352i\231"
 465      15062FE4 
 465      8229C566 
 465      4F4EF1EA 
 465      6999
 466 0e5c F68CFED4 		.ascii	"\366\214\376\324m\007\012\256\364T\217Pcrx\"\255f\257"
 466      6D070AAE 
 466      F4548F50 
 466      63727822 
 466      AD66AF
 467 0e6f D9049DD2 		.ascii	"\331\004\235\322]&\257=\315\006U\321$:\222\247\246e"
 467      5D26AF3D 
 467      CD0655D1 
 467      243A92A7 
 467      A665
 468 0e81 4B977EFC 		.ascii	"K\227~\374\273?\352<.;\015\215\321\003u\254%\345\217"
 468      BB3FEA3C 
 468      2E3B0D8D 
 468      D10375AC 
 468      25E58F
 469 0e94 91440934 		.ascii	"\221D\01148\337c\235a/\322\345\204\231\204X\303\"\373"
 469      38DF639D 
 469      612FD2E5 
 469      84998458 
 469      C322FB
 470 0ea7 D46CF742 		.ascii	"\324l\367B@\242\231\246\354\231\346\211\201\244\005"
 470      40A299A6 
 470      EC99E689 
 470      81A405
 471 0eb6 F7ED2E13 		.ascii	"\367\355.\023\370n^Mh\023\264\003\032\210\001\332bs"
 471      F86E5E4D 
 471      6813B403 
 471      1A8801DA 
 471      6273
 472 0ec8 281B2203 		.ascii	"(\033\"\003\320\251\266Ol\251\363\2250Z\023\303\022"
 472      D0A9B64F 
 472      6CA9F395 
 472      305A13C3 
 472      12
 473 0ed9 4F114E48 		.ascii	"O\021NH\003w\272\305kdQeq\212\236\225\277\220\350Q\263"
 473      0377BAC5 
 473      6B645165 
 473      718A9E95 
 473      BF90E851 
 474 0eee BB7AD99C 		.ascii	"\273z\331\2342\013QRR\262\354#S\035L\333\2751\263\322"
 474      320B5152 
 474      52B2EC23 
 474      531D4CDB 
 474      BD31B3D2 
 475 0f02 7DC5AA95 		.ascii	"}\305\252\225k\226\257\\\032\315f\031\222\340\357\035"
 475      6B96AF5C 
 475      1ACD6619 
 475      92E0EF1D 
 476 0f12 D6F7DD66 		.ascii	"\326\367\335f\207'\311\346\3269\234vG*\254\365yR\353"
 476      8727C9E6 
ARM GAS  C:\Users\info\AppData\Local\Temp\ccvd5hmY.s 			page 38


 476      D6399C76 
 476      472AACF5 
 476      7952EB
 477 0f25 BFDA1CD6 		.ascii	"\277\332\034\326\337\244Y\347\007T\274\013\223\265@"
 477      DFA459E7 
 477      0754BC0B 
 477      93B540
 478 0f34 AE21D92C 		.ascii	"\256!\331,\232\370\2410`\212-\325\005\243\311\244\355"
 478      9AF8A130 
 478      608A2DD5 
 478      05A3C9A4 
 478      ED
 479 0f45 DEB7D49B 		.ascii	"\336\267\324\233\330$\245\331\322\234\356\265\213(d"
 479      D824A5D9 
 479      D29CEEB5 
 479      8B2864
 480 0f54 16D900DF 		.ascii	"\026\331\000\337\203\326\230`\"\260\305\341\325\321"
 480      83D69860 
 480      22B0C5E1 
 480      D5D1
 481 0f62 A47279DD 		.ascii	"\244ry\335\214.\325XD\202\326\022\214A\256\366\376/"
 481      8C2ED558 
 481      4482D612 
 481      8C41AEF6 
 481      FE2F
 482 0f74 645DFBB0 		.ascii	"d]\373\260"
 483              		.text
 484              		.section	.gnu.lto_.symtab.792a47af,"",%progbits
 485 0000 6765745F 		.ascii	"get_delay_in_milliseconds\000"
 485      64656C61 
 485      795F696E 
 485      5F6D696C 
 485      6C697365 
 486 001a 00       		.ascii	"\000"
 487 001b 00       		.ascii	"\000"
 488 001c 00       		.ascii	"\000"
 489 001d 00000000 		.ascii	"\000\000\000\000\000\000\000\000"
 489      00000000 
 490 0025 C2000000 		.ascii	"\302\000\000\000"
 491 0029 75387838 		.ascii	"u8x8_d_a2printer_common\000"
 491      5F645F61 
 491      32707269 
 491      6E746572 
 491      5F636F6D 
 492 0041 00       		.ascii	"\000"
 493 0042 00       		.ascii	"\000"
 494 0043 00       		.ascii	"\000"
 495 0044 00000000 		.ascii	"\000\000\000\000\000\000\000\000"
 495      00000000 
 496 004c 47010000 		.ascii	"G\001\000\000"
 497 0050 75387838 		.ascii	"u8x8_d_a2printer_384x240\000"
 497      5F645F61 
 497      32707269 
 497      6E746572 
 497      5F333834 
 498 0069 00       		.ascii	"\000"
 499 006a 00       		.ascii	"\000"
ARM GAS  C:\Users\info\AppData\Local\Temp\ccvd5hmY.s 			page 39


 500 006b 00       		.ascii	"\000"
 501 006c 00000000 		.ascii	"\000\000\000\000\000\000\000\000"
 501      00000000 
 502 0074 49010000 		.ascii	"I\001\000\000"
 503 0078 75387838 		.ascii	"u8x8_cad_EndTransfer\000"
 503      5F636164 
 503      5F456E64 
 503      5472616E 
 503      73666572 
 504 008d 00       		.ascii	"\000"
 505 008e 02       		.ascii	"\002"
 506 008f 00       		.ascii	"\000"
 507 0090 00000000 		.ascii	"\000\000\000\000\000\000\000\000"
 507      00000000 
 508 0098 4F010000 		.ascii	"O\001\000\000"
 509 009c 75387838 		.ascii	"u8x8_cad_SendCmd\000"
 509      5F636164 
 509      5F53656E 
 509      64436D64 
 509      00
 510 00ad 00       		.ascii	"\000"
 511 00ae 02       		.ascii	"\002"
 512 00af 00       		.ascii	"\000"
 513 00b0 00000000 		.ascii	"\000\000\000\000\000\000\000\000"
 513      00000000 
 514 00b8 55010000 		.ascii	"U\001\000\000"
 515 00bc 75387838 		.ascii	"u8x8_cad_SendData\000"
 515      5F636164 
 515      5F53656E 
 515      64446174 
 515      6100
 516 00ce 00       		.ascii	"\000"
 517 00cf 02       		.ascii	"\002"
 518 00d0 00       		.ascii	"\000"
 519 00d1 00000000 		.ascii	"\000\000\000\000\000\000\000\000"
 519      00000000 
 520 00d9 5C010000 		.ascii	"\\\001\000\000"
 521 00dd 75387838 		.ascii	"u8x8_cad_StartTransfer\000"
 521      5F636164 
 521      5F537461 
 521      72745472 
 521      616E7366 
 522 00f4 00       		.ascii	"\000"
 523 00f5 02       		.ascii	"\002"
 524 00f6 00       		.ascii	"\000"
 525 00f7 00000000 		.ascii	"\000\000\000\000\000\000\000\000"
 525      00000000 
 526 00ff 5F010000 		.ascii	"_\001\000\000"
 527 0103 75387838 		.ascii	"u8x8_d_helper_display_init\000"
 527      5F645F68 
 527      656C7065 
 527      725F6469 
 527      73706C61 
 528 011e 00       		.ascii	"\000"
 529 011f 02       		.ascii	"\002"
 530 0120 00       		.ascii	"\000"
 531 0121 00000000 		.ascii	"\000\000\000\000\000\000\000\000"
ARM GAS  C:\Users\info\AppData\Local\Temp\ccvd5hmY.s 			page 40


 531      00000000 
 532 0129 63010000 		.ascii	"c\001\000\000"
 533 012d 75387838 		.ascii	"u8x8_d_helper_display_setup_memory\000"
 533      5F645F68 
 533      656C7065 
 533      725F6469 
 533      73706C61 
 534 0150 00       		.ascii	"\000"
 535 0151 02       		.ascii	"\002"
 536 0152 00       		.ascii	"\000"
 537 0153 00000000 		.ascii	"\000\000\000\000\000\000\000\000"
 537      00000000 
 538 015b 68010000 		.ascii	"h\001\000\000"
 539              		.text
 540              		.section	.gnu.lto_.opts,"",%progbits
 541 0000 272D666D 		.ascii	"'-fmath-errno' '-fsigned-zeros' '-ftrapping-math' '"
 541      6174682D 
 541      6572726E 
 541      6F272027 
 541      2D667369 
 542 0033 2D666E6F 		.ascii	"-fno-trapv' '-fno-strict-overflow' '-fno-openmp' '-"
 542      2D747261 
 542      70762720 
 542      272D666E 
 542      6F2D7374 
 543 0066 666E6F2D 		.ascii	"fno-openacc' '-mcpu=cortex-m3' '-mthumb' '-g' '-Og'"
 543      6F70656E 
 543      61636327 
 543      20272D6D 
 543      6370753D 
 544 0099 20272D66 		.ascii	" '-ffunction-sections' '-ffat-lto-objects' '-flto'\000"
 544      66756E63 
 544      74696F6E 
 544      2D736563 
 544      74696F6E 
 545              		.text
 546              		.cfi_sections	.debug_frame
 547              		.section	.text.get_delay_in_milliseconds,"ax",%progbits
 548              		.align	2
 549              		.global	get_delay_in_milliseconds
 550              		.thumb
 551              		.thumb_func
 552              		.type	get_delay_in_milliseconds, %function
 553              	get_delay_in_milliseconds:
 554              	.LFB0:
 555              		.file 1 "..\\u8g2_csrc\\u8x8_d_a2printer.c"
   1:..\u8g2_csrc/u8x8_d_a2printer.c **** /*
   2:..\u8g2_csrc/u8x8_d_a2printer.c **** 
   3:..\u8g2_csrc/u8x8_d_a2printer.c ****   u8x8_d_a2printer.c
   4:..\u8g2_csrc/u8x8_d_a2printer.c ****   
   5:..\u8g2_csrc/u8x8_d_a2printer.c ****   Universal 8bit Graphics Library (https://github.com/olikraus/u8g2/)
   6:..\u8g2_csrc/u8x8_d_a2printer.c **** 
   7:..\u8g2_csrc/u8x8_d_a2printer.c ****   Copyright (c) 2016, olikraus@gmail.com
   8:..\u8g2_csrc/u8x8_d_a2printer.c ****   All rights reserved.
   9:..\u8g2_csrc/u8x8_d_a2printer.c **** 
  10:..\u8g2_csrc/u8x8_d_a2printer.c ****   Redistribution and use in source and binary forms, with or without modification, 
  11:..\u8g2_csrc/u8x8_d_a2printer.c ****   are permitted provided that the following conditions are met:
ARM GAS  C:\Users\info\AppData\Local\Temp\ccvd5hmY.s 			page 41


  12:..\u8g2_csrc/u8x8_d_a2printer.c **** 
  13:..\u8g2_csrc/u8x8_d_a2printer.c ****   * Redistributions of source code must retain the above copyright notice, this list 
  14:..\u8g2_csrc/u8x8_d_a2printer.c ****     of conditions and the following disclaimer.
  15:..\u8g2_csrc/u8x8_d_a2printer.c ****     
  16:..\u8g2_csrc/u8x8_d_a2printer.c ****   * Redistributions in binary form must reproduce the above copyright notice, this 
  17:..\u8g2_csrc/u8x8_d_a2printer.c ****     list of conditions and the following disclaimer in the documentation and/or other 
  18:..\u8g2_csrc/u8x8_d_a2printer.c ****     materials provided with the distribution.
  19:..\u8g2_csrc/u8x8_d_a2printer.c **** 
  20:..\u8g2_csrc/u8x8_d_a2printer.c ****   THIS SOFTWARE IS PROVIDED BY THE COPYRIGHT HOLDERS AND 
  21:..\u8g2_csrc/u8x8_d_a2printer.c ****   CONTRIBUTORS "AS IS" AND ANY EXPRESS OR IMPLIED WARRANTIES, 
  22:..\u8g2_csrc/u8x8_d_a2printer.c ****   INCLUDING, BUT NOT LIMITED TO, THE IMPLIED WARRANTIES OF 
  23:..\u8g2_csrc/u8x8_d_a2printer.c ****   MERCHANTABILITY AND FITNESS FOR A PARTICULAR PURPOSE ARE 
  24:..\u8g2_csrc/u8x8_d_a2printer.c ****   DISCLAIMED. IN NO EVENT SHALL THE COPYRIGHT HOLDER OR 
  25:..\u8g2_csrc/u8x8_d_a2printer.c ****   CONTRIBUTORS BE LIABLE FOR ANY DIRECT, INDIRECT, INCIDENTAL, 
  26:..\u8g2_csrc/u8x8_d_a2printer.c ****   SPECIAL, EXEMPLARY, OR CONSEQUENTIAL DAMAGES (INCLUDING, BUT 
  27:..\u8g2_csrc/u8x8_d_a2printer.c ****   NOT LIMITED TO, PROCUREMENT OF SUBSTITUTE GOODS OR SERVICES; 
  28:..\u8g2_csrc/u8x8_d_a2printer.c ****   LOSS OF USE, DATA, OR PROFITS; OR BUSINESS INTERRUPTION) HOWEVER 
  29:..\u8g2_csrc/u8x8_d_a2printer.c ****   CAUSED AND ON ANY THEORY OF LIABILITY, WHETHER IN CONTRACT, 
  30:..\u8g2_csrc/u8x8_d_a2printer.c ****   STRICT LIABILITY, OR TORT (INCLUDING NEGLIGENCE OR OTHERWISE) 
  31:..\u8g2_csrc/u8x8_d_a2printer.c ****   ARISING IN ANY WAY OUT OF THE USE OF THIS SOFTWARE, EVEN IF 
  32:..\u8g2_csrc/u8x8_d_a2printer.c ****   ADVISED OF THE POSSIBILITY OF SUCH DAMAGE.  
  33:..\u8g2_csrc/u8x8_d_a2printer.c **** 
  34:..\u8g2_csrc/u8x8_d_a2printer.c **** 
  35:..\u8g2_csrc/u8x8_d_a2printer.c ****   Use DC2 bitmap command of the A2 Micro panel termal printer
  36:..\u8g2_csrc/u8x8_d_a2printer.c ****   double stroke
  37:..\u8g2_csrc/u8x8_d_a2printer.c ****   
  38:..\u8g2_csrc/u8x8_d_a2printer.c ****   
  39:..\u8g2_csrc/u8x8_d_a2printer.c **** */
  40:..\u8g2_csrc/u8x8_d_a2printer.c **** 
  41:..\u8g2_csrc/u8x8_d_a2printer.c **** 
  42:..\u8g2_csrc/u8x8_d_a2printer.c **** #include "u8x8.h"
  43:..\u8g2_csrc/u8x8_d_a2printer.c **** 
  44:..\u8g2_csrc/u8x8_d_a2printer.c **** #define LINE_MIN_DELAY_MS 15
  45:..\u8g2_csrc/u8x8_d_a2printer.c **** /* higher values improve quality */
  46:..\u8g2_csrc/u8x8_d_a2printer.c **** /* however if the value is too high (>=5) then form feed does not work any more */
  47:..\u8g2_csrc/u8x8_d_a2printer.c **** #define LINE_EXTRA_8PIXEL_DELAY_MS 3
  48:..\u8g2_csrc/u8x8_d_a2printer.c **** /* this must be a power of two and between 1 and 8 */
  49:..\u8g2_csrc/u8x8_d_a2printer.c **** /* best quality only with 1 */
  50:..\u8g2_csrc/u8x8_d_a2printer.c **** #define NO_OF_LINES_TO_SEND_WITHOUT_DELAY 1
  51:..\u8g2_csrc/u8x8_d_a2printer.c **** 
  52:..\u8g2_csrc/u8x8_d_a2printer.c **** /* calculates the delay, based on the number of black pixel */
  53:..\u8g2_csrc/u8x8_d_a2printer.c **** /* actually only "none-zero" bytes are calculated which is, of course not so accurate, but should b
  54:..\u8g2_csrc/u8x8_d_a2printer.c **** uint16_t get_delay_in_milliseconds(uint8_t cnt, uint8_t *data)
  55:..\u8g2_csrc/u8x8_d_a2printer.c **** {
 556              		.loc 1 55 0
 557              		.cfi_startproc
 558              		@ args = 0, pretend = 0, frame = 0
 559              		@ frame_needed = 0, uses_anonymous_args = 0
 560              		@ link register save eliminated.
 561              	.LVL0:
 562 0000 10B4     		push	{r4}
 563              		.cfi_def_cfa_offset 4
 564              		.cfi_offset 4, -4
 565 0002 0446     		mov	r4, r0
 566              	.LVL1:
  56:..\u8g2_csrc/u8x8_d_a2printer.c ****   uint8_t i;
  57:..\u8g2_csrc/u8x8_d_a2printer.c ****   uint16_t time = LINE_MIN_DELAY_MS;
ARM GAS  C:\Users\info\AppData\Local\Temp\ccvd5hmY.s 			page 42


 567              		.loc 1 57 0
 568 0004 0F20     		movs	r0, #15
 569              	.LVL2:
  58:..\u8g2_csrc/u8x8_d_a2printer.c ****   for ( i = 0; i < cnt; i++ )
 570              		.loc 1 58 0
 571 0006 0023     		movs	r3, #0
 572 0008 05E0     		b	.L2
 573              	.LVL3:
 574              	.L4:
  59:..\u8g2_csrc/u8x8_d_a2printer.c ****     if ( data[i] != 0 )
 575              		.loc 1 59 0
 576 000a CA5C     		ldrb	r2, [r1, r3]	@ zero_extendqisi2
 577 000c 0AB1     		cbz	r2, .L3
  60:..\u8g2_csrc/u8x8_d_a2printer.c ****       time += LINE_EXTRA_8PIXEL_DELAY_MS;
 578              		.loc 1 60 0
 579 000e C21C     		adds	r2, r0, #3
 580 0010 90B2     		uxth	r0, r2
 581              	.LVL4:
 582              	.L3:
  58:..\u8g2_csrc/u8x8_d_a2printer.c ****   for ( i = 0; i < cnt; i++ )
 583              		.loc 1 58 0 discriminator 2
 584 0012 0133     		adds	r3, r3, #1
 585              	.LVL5:
 586 0014 DBB2     		uxtb	r3, r3
 587              	.LVL6:
 588              	.L2:
  58:..\u8g2_csrc/u8x8_d_a2printer.c ****   for ( i = 0; i < cnt; i++ )
 589              		.loc 1 58 0 is_stmt 0 discriminator 1
 590 0016 A342     		cmp	r3, r4
 591 0018 F7D3     		bcc	.L4
  61:..\u8g2_csrc/u8x8_d_a2printer.c ****   return time;
  62:..\u8g2_csrc/u8x8_d_a2printer.c **** }
 592              		.loc 1 62 0 is_stmt 1
 593 001a 10BC     		pop	{r4}
 594              		.cfi_restore 4
 595              		.cfi_def_cfa_offset 0
 596 001c 7047     		bx	lr
 597              		.cfi_endproc
 598              	.LFE0:
 599              		.size	get_delay_in_milliseconds, .-get_delay_in_milliseconds
 600 001e 00BF     		.section	.text.u8x8_d_a2printer_common,"ax",%progbits
 601              		.align	2
 602              		.global	u8x8_d_a2printer_common
 603              		.thumb
 604              		.thumb_func
 605              		.type	u8x8_d_a2printer_common, %function
 606              	u8x8_d_a2printer_common:
 607              	.LFB1:
  63:..\u8g2_csrc/u8x8_d_a2printer.c **** 
  64:..\u8g2_csrc/u8x8_d_a2printer.c **** uint8_t u8x8_d_a2printer_common(u8x8_t *u8x8, uint8_t msg, U8X8_UNUSED uint8_t arg_int, void *arg_p
  65:..\u8g2_csrc/u8x8_d_a2printer.c **** {
 608              		.loc 1 65 0
 609              		.cfi_startproc
 610              		@ args = 0, pretend = 0, frame = 0
 611              		@ frame_needed = 0, uses_anonymous_args = 0
 612              	.LVL7:
  66:..\u8g2_csrc/u8x8_d_a2printer.c ****   uint8_t c, i, j;
ARM GAS  C:\Users\info\AppData\Local\Temp\ccvd5hmY.s 			page 43


  67:..\u8g2_csrc/u8x8_d_a2printer.c ****   uint8_t *ptr;
  68:..\u8g2_csrc/u8x8_d_a2printer.c ****   uint16_t delay_in_milliseconds;
  69:..\u8g2_csrc/u8x8_d_a2printer.c ****   switch(msg)
 613              		.loc 1 69 0
 614 0000 0B29     		cmp	r1, #11
 615 0002 00F08280 		beq	.L16
  65:..\u8g2_csrc/u8x8_d_a2printer.c ****   uint8_t c, i, j;
 616              		.loc 1 65 0
 617 0006 2DE9F843 		push	{r3, r4, r5, r6, r7, r8, r9, lr}
 618              		.cfi_def_cfa_offset 32
 619              		.cfi_offset 3, -32
 620              		.cfi_offset 4, -28
 621              		.cfi_offset 5, -24
 622              		.cfi_offset 6, -20
 623              		.cfi_offset 7, -16
 624              		.cfi_offset 8, -12
 625              		.cfi_offset 9, -8
 626              		.cfi_offset 14, -4
 627 000a 1C46     		mov	r4, r3
 628 000c 0746     		mov	r7, r0
 629              		.loc 1 69 0
 630 000e 0F29     		cmp	r1, #15
 631 0010 09D0     		beq	.L9
 632 0012 0A29     		cmp	r1, #10
 633 0014 02D0     		beq	.L10
  70:..\u8g2_csrc/u8x8_d_a2printer.c ****   {
  71:..\u8g2_csrc/u8x8_d_a2printer.c ****     /* U8X8_MSG_DISPLAY_SETUP_MEMORY is handled by the calling function */
  72:..\u8g2_csrc/u8x8_d_a2printer.c ****     /*
  73:..\u8g2_csrc/u8x8_d_a2printer.c ****     case U8X8_MSG_DISPLAY_SETUP_MEMORY:
  74:..\u8g2_csrc/u8x8_d_a2printer.c ****       break;
  75:..\u8g2_csrc/u8x8_d_a2printer.c ****     */
  76:..\u8g2_csrc/u8x8_d_a2printer.c ****     case U8X8_MSG_DISPLAY_INIT:
  77:..\u8g2_csrc/u8x8_d_a2printer.c ****       u8x8_d_helper_display_init(u8x8);
  78:..\u8g2_csrc/u8x8_d_a2printer.c ****       // no setup required
  79:..\u8g2_csrc/u8x8_d_a2printer.c ****       // u8x8_cad_SendSequence(u8x8, u8x8_d_a2printer_init_seq);
  80:..\u8g2_csrc/u8x8_d_a2printer.c ****       break;
  81:..\u8g2_csrc/u8x8_d_a2printer.c ****     case U8X8_MSG_DISPLAY_SET_POWER_SAVE:
  82:..\u8g2_csrc/u8x8_d_a2printer.c ****       // no powersave 
  83:..\u8g2_csrc/u8x8_d_a2printer.c ****       break;
  84:..\u8g2_csrc/u8x8_d_a2printer.c ****     case U8X8_MSG_DISPLAY_DRAW_TILE:
  85:..\u8g2_csrc/u8x8_d_a2printer.c ****       u8x8_cad_StartTransfer(u8x8);
  86:..\u8g2_csrc/u8x8_d_a2printer.c ****       
  87:..\u8g2_csrc/u8x8_d_a2printer.c ****       u8x8_cad_SendCmd(u8x8, 27);      /* ESC */
  88:..\u8g2_csrc/u8x8_d_a2printer.c ****       u8x8_cad_SendCmd(u8x8, 55 );      /* parameter command */
  89:..\u8g2_csrc/u8x8_d_a2printer.c ****       /* increasing the "max printing dots" requires a good power supply, but LINE_EXTRA_8PIXEL_DEL
  90:..\u8g2_csrc/u8x8_d_a2printer.c ****       u8x8_cad_SendCmd(u8x8, 0);      /* Max printing dots,Unit(8dots),Default:7(64 dots) 8*(x+1) .
  91:..\u8g2_csrc/u8x8_d_a2printer.c ****       u8x8_cad_SendCmd(u8x8, 200);      /* 3-255 Heating time,Unit(10us),Default:80(800us) */
  92:..\u8g2_csrc/u8x8_d_a2printer.c ****       u8x8_cad_SendCmd(u8x8, 2);      /* 0-255 Heating interval,Unit(10us),Default:2(20us) ... does
  93:..\u8g2_csrc/u8x8_d_a2printer.c ****       
  94:..\u8g2_csrc/u8x8_d_a2printer.c ****       //c = ((u8x8_tile_t *)arg_ptr)->cnt;	/* number of tiles */
  95:..\u8g2_csrc/u8x8_d_a2printer.c ****       c = u8x8->display_info->tile_width;
  96:..\u8g2_csrc/u8x8_d_a2printer.c ****       ptr = ((u8x8_tile_t *)arg_ptr)->tile_ptr;	/* data ptr to the tiles */
  97:..\u8g2_csrc/u8x8_d_a2printer.c ****     
  98:..\u8g2_csrc/u8x8_d_a2printer.c ****       u8x8_cad_SendCmd(u8x8, 18);      /* DC2 */
  99:..\u8g2_csrc/u8x8_d_a2printer.c ****       u8x8_cad_SendCmd(u8x8, 42 );      /* *  */
 100:..\u8g2_csrc/u8x8_d_a2printer.c ****       u8x8_cad_SendCmd(u8x8, 8 ); 	/* height */
 101:..\u8g2_csrc/u8x8_d_a2printer.c ****       u8x8_cad_SendCmd(u8x8, c ); 	/* c, u8x8->display_info->tile_width */
ARM GAS  C:\Users\info\AppData\Local\Temp\ccvd5hmY.s 			page 44


 102:..\u8g2_csrc/u8x8_d_a2printer.c ****       
 103:..\u8g2_csrc/u8x8_d_a2printer.c ****       for( j = 0; j < 8 / NO_OF_LINES_TO_SEND_WITHOUT_DELAY; j ++ )
 104:..\u8g2_csrc/u8x8_d_a2printer.c ****       {
 105:..\u8g2_csrc/u8x8_d_a2printer.c **** 
 106:..\u8g2_csrc/u8x8_d_a2printer.c **** 	delay_in_milliseconds = 0;
 107:..\u8g2_csrc/u8x8_d_a2printer.c **** 	for( i = 0; i < NO_OF_LINES_TO_SEND_WITHOUT_DELAY; i++ )
 108:..\u8g2_csrc/u8x8_d_a2printer.c **** 	{
 109:..\u8g2_csrc/u8x8_d_a2printer.c **** 	  u8x8_cad_SendData(u8x8, c, ptr);	/* c, note: SendData can not handle more than 255 bytes, send o
 110:..\u8g2_csrc/u8x8_d_a2printer.c **** 	  delay_in_milliseconds += get_delay_in_milliseconds(c, ptr);
 111:..\u8g2_csrc/u8x8_d_a2printer.c **** 	  ptr += c;
 112:..\u8g2_csrc/u8x8_d_a2printer.c **** 	}
 113:..\u8g2_csrc/u8x8_d_a2printer.c **** 	
 114:..\u8g2_csrc/u8x8_d_a2printer.c **** 	while( delay_in_milliseconds > 200 )
 115:..\u8g2_csrc/u8x8_d_a2printer.c **** 	{
 116:..\u8g2_csrc/u8x8_d_a2printer.c **** 	  u8x8->gpio_and_delay_cb(u8x8, U8X8_MSG_DELAY_MILLI, 200, NULL);	
 117:..\u8g2_csrc/u8x8_d_a2printer.c **** 	  delay_in_milliseconds -= 200;
 118:..\u8g2_csrc/u8x8_d_a2printer.c **** 	}
 119:..\u8g2_csrc/u8x8_d_a2printer.c **** 	u8x8->gpio_and_delay_cb(u8x8, U8X8_MSG_DELAY_MILLI, delay_in_milliseconds, NULL);	
 120:..\u8g2_csrc/u8x8_d_a2printer.c ****       }
 121:..\u8g2_csrc/u8x8_d_a2printer.c **** 
 122:..\u8g2_csrc/u8x8_d_a2printer.c ****       /* set parameters back to their default values */
 123:..\u8g2_csrc/u8x8_d_a2printer.c ****       u8x8_cad_SendCmd(u8x8, 27);      /* ESC */
 124:..\u8g2_csrc/u8x8_d_a2printer.c ****       u8x8_cad_SendCmd(u8x8, 55 );      /* parameter command */
 125:..\u8g2_csrc/u8x8_d_a2printer.c ****       u8x8_cad_SendCmd(u8x8, 7);      /* Max printing dots,Unit(8dots),Default:7(64 dots) 8*(x+1)*/
 126:..\u8g2_csrc/u8x8_d_a2printer.c ****       u8x8_cad_SendCmd(u8x8, 80);      /* 3-255 Heating time,Unit(10us),Default:80(800us) */
 127:..\u8g2_csrc/u8x8_d_a2printer.c ****       u8x8_cad_SendCmd(u8x8, 2);      /* 0-255 Heating interval,Unit(10us),Default:2(20us)*/
 128:..\u8g2_csrc/u8x8_d_a2printer.c **** 
 129:..\u8g2_csrc/u8x8_d_a2printer.c ****       u8x8_cad_EndTransfer(u8x8);
 130:..\u8g2_csrc/u8x8_d_a2printer.c **** 
 131:..\u8g2_csrc/u8x8_d_a2printer.c ****       break;
 132:..\u8g2_csrc/u8x8_d_a2printer.c ****     default:
 133:..\u8g2_csrc/u8x8_d_a2printer.c ****       return 0;
 634              		.loc 1 133 0
 635 0016 0020     		movs	r0, #0
 636              	.LVL8:
 637 0018 BDE8F883 		pop	{r3, r4, r5, r6, r7, r8, r9, pc}
 638              	.LVL9:
 639              	.L10:
  77:..\u8g2_csrc/u8x8_d_a2printer.c ****       // no setup required
 640              		.loc 1 77 0
 641 001c FFF7FEFF 		bl	u8x8_d_helper_display_init
 642              	.LVL10:
 134:..\u8g2_csrc/u8x8_d_a2printer.c ****   }
 135:..\u8g2_csrc/u8x8_d_a2printer.c ****   return 1;
 643              		.loc 1 135 0
 644 0020 0120     		movs	r0, #1
  80:..\u8g2_csrc/u8x8_d_a2printer.c ****     case U8X8_MSG_DISPLAY_SET_POWER_SAVE:
 645              		.loc 1 80 0
 646 0022 BDE8F883 		pop	{r3, r4, r5, r6, r7, r8, r9, pc}
 647              	.LVL11:
 648              	.L9:
  85:..\u8g2_csrc/u8x8_d_a2printer.c ****       
 649              		.loc 1 85 0
 650 0026 FFF7FEFF 		bl	u8x8_cad_StartTransfer
 651              	.LVL12:
  87:..\u8g2_csrc/u8x8_d_a2printer.c ****       u8x8_cad_SendCmd(u8x8, 55 );      /* parameter command */
 652              		.loc 1 87 0
ARM GAS  C:\Users\info\AppData\Local\Temp\ccvd5hmY.s 			page 45


 653 002a 1B21     		movs	r1, #27
 654 002c 3846     		mov	r0, r7
 655 002e FFF7FEFF 		bl	u8x8_cad_SendCmd
 656              	.LVL13:
  88:..\u8g2_csrc/u8x8_d_a2printer.c ****       /* increasing the "max printing dots" requires a good power supply, but LINE_EXTRA_8PIXEL_DEL
 657              		.loc 1 88 0
 658 0032 3721     		movs	r1, #55
 659 0034 3846     		mov	r0, r7
 660 0036 FFF7FEFF 		bl	u8x8_cad_SendCmd
 661              	.LVL14:
  90:..\u8g2_csrc/u8x8_d_a2printer.c ****       u8x8_cad_SendCmd(u8x8, 200);      /* 3-255 Heating time,Unit(10us),Default:80(800us) */
 662              		.loc 1 90 0
 663 003a 0021     		movs	r1, #0
 664 003c 3846     		mov	r0, r7
 665 003e FFF7FEFF 		bl	u8x8_cad_SendCmd
 666              	.LVL15:
  91:..\u8g2_csrc/u8x8_d_a2printer.c ****       u8x8_cad_SendCmd(u8x8, 2);      /* 0-255 Heating interval,Unit(10us),Default:2(20us) ... does
 667              		.loc 1 91 0
 668 0042 C821     		movs	r1, #200
 669 0044 3846     		mov	r0, r7
 670 0046 FFF7FEFF 		bl	u8x8_cad_SendCmd
 671              	.LVL16:
  92:..\u8g2_csrc/u8x8_d_a2printer.c ****       
 672              		.loc 1 92 0
 673 004a 0221     		movs	r1, #2
 674 004c 3846     		mov	r0, r7
 675 004e FFF7FEFF 		bl	u8x8_cad_SendCmd
 676              	.LVL17:
  95:..\u8g2_csrc/u8x8_d_a2printer.c ****       ptr = ((u8x8_tile_t *)arg_ptr)->tile_ptr;	/* data ptr to the tiles */
 677              		.loc 1 95 0
 678 0052 3B68     		ldr	r3, [r7]
 679 0054 93F81080 		ldrb	r8, [r3, #16]	@ zero_extendqisi2
 680              	.LVL18:
  96:..\u8g2_csrc/u8x8_d_a2printer.c ****     
 681              		.loc 1 96 0
 682 0058 2668     		ldr	r6, [r4]
 683              	.LVL19:
  98:..\u8g2_csrc/u8x8_d_a2printer.c ****       u8x8_cad_SendCmd(u8x8, 42 );      /* *  */
 684              		.loc 1 98 0
 685 005a 1221     		movs	r1, #18
 686 005c 3846     		mov	r0, r7
 687 005e FFF7FEFF 		bl	u8x8_cad_SendCmd
 688              	.LVL20:
  99:..\u8g2_csrc/u8x8_d_a2printer.c ****       u8x8_cad_SendCmd(u8x8, 8 ); 	/* height */
 689              		.loc 1 99 0
 690 0062 2A21     		movs	r1, #42
 691 0064 3846     		mov	r0, r7
 692 0066 FFF7FEFF 		bl	u8x8_cad_SendCmd
 693              	.LVL21:
 100:..\u8g2_csrc/u8x8_d_a2printer.c ****       u8x8_cad_SendCmd(u8x8, c ); 	/* c, u8x8->display_info->tile_width */
 694              		.loc 1 100 0
 695 006a 0821     		movs	r1, #8
 696 006c 3846     		mov	r0, r7
 697 006e FFF7FEFF 		bl	u8x8_cad_SendCmd
 698              	.LVL22:
 101:..\u8g2_csrc/u8x8_d_a2printer.c ****       
 699              		.loc 1 101 0
ARM GAS  C:\Users\info\AppData\Local\Temp\ccvd5hmY.s 			page 46


 700 0072 4146     		mov	r1, r8
 701 0074 3846     		mov	r0, r7
 702 0076 FFF7FEFF 		bl	u8x8_cad_SendCmd
 703              	.LVL23:
 103:..\u8g2_csrc/u8x8_d_a2printer.c ****       {
 704              		.loc 1 103 0
 705 007a 4FF00009 		mov	r9, #0
 706 007e 27E0     		b	.L11
 707              	.LVL24:
 708              	.L12:
 109:..\u8g2_csrc/u8x8_d_a2printer.c **** 	  delay_in_milliseconds += get_delay_in_milliseconds(c, ptr);
 709              		.loc 1 109 0 discriminator 3
 710 0080 3246     		mov	r2, r6
 711 0082 4146     		mov	r1, r8
 712 0084 3846     		mov	r0, r7
 713 0086 FFF7FEFF 		bl	u8x8_cad_SendData
 714              	.LVL25:
 110:..\u8g2_csrc/u8x8_d_a2printer.c **** 	  ptr += c;
 715              		.loc 1 110 0 discriminator 3
 716 008a 3146     		mov	r1, r6
 717 008c 4046     		mov	r0, r8
 718 008e FFF7FEFF 		bl	get_delay_in_milliseconds
 719              	.LVL26:
 720 0092 2044     		add	r0, r0, r4
 721 0094 84B2     		uxth	r4, r0
 722              	.LVL27:
 111:..\u8g2_csrc/u8x8_d_a2printer.c **** 	}
 723              		.loc 1 111 0 discriminator 3
 724 0096 4644     		add	r6, r6, r8
 725              	.LVL28:
 107:..\u8g2_csrc/u8x8_d_a2printer.c **** 	{
 726              		.loc 1 107 0 discriminator 3
 727 0098 0135     		adds	r5, r5, #1
 728              	.LVL29:
 729 009a EDB2     		uxtb	r5, r5
 730              	.LVL30:
 731 009c 01E0     		b	.L15
 732              	.LVL31:
 733              	.L17:
 734 009e 0024     		movs	r4, #0
 735 00a0 2546     		mov	r5, r4
 736              	.L15:
 737              	.LVL32:
 107:..\u8g2_csrc/u8x8_d_a2printer.c **** 	{
 738              		.loc 1 107 0 is_stmt 0 discriminator 1
 739 00a2 002D     		cmp	r5, #0
 740 00a4 ECD0     		beq	.L12
 741 00a6 07E0     		b	.L13
 742              	.LVL33:
 743              	.L14:
 116:..\u8g2_csrc/u8x8_d_a2printer.c **** 	  delay_in_milliseconds -= 200;
 744              		.loc 1 116 0 is_stmt 1
 745 00a8 7D69     		ldr	r5, [r7, #20]
 746 00aa 0023     		movs	r3, #0
 747 00ac C822     		movs	r2, #200
 748 00ae 2921     		movs	r1, #41
 749 00b0 3846     		mov	r0, r7
ARM GAS  C:\Users\info\AppData\Local\Temp\ccvd5hmY.s 			page 47


 750 00b2 A847     		blx	r5
 751              	.LVL34:
 117:..\u8g2_csrc/u8x8_d_a2printer.c **** 	}
 752              		.loc 1 117 0
 753 00b4 C83C     		subs	r4, r4, #200
 754              	.LVL35:
 755 00b6 A4B2     		uxth	r4, r4
 756              	.LVL36:
 757              	.L13:
 114:..\u8g2_csrc/u8x8_d_a2printer.c **** 	{
 758              		.loc 1 114 0
 759 00b8 C82C     		cmp	r4, #200
 760 00ba F5D8     		bhi	.L14
 119:..\u8g2_csrc/u8x8_d_a2printer.c ****       }
 761              		.loc 1 119 0 discriminator 2
 762 00bc 7D69     		ldr	r5, [r7, #20]
 763 00be 0023     		movs	r3, #0
 764 00c0 E2B2     		uxtb	r2, r4
 765 00c2 2921     		movs	r1, #41
 766 00c4 3846     		mov	r0, r7
 767 00c6 A847     		blx	r5
 768              	.LVL37:
 103:..\u8g2_csrc/u8x8_d_a2printer.c ****       {
 769              		.loc 1 103 0 discriminator 2
 770 00c8 09F10109 		add	r9, r9, #1
 771              	.LVL38:
 772 00cc 5FFA89F9 		uxtb	r9, r9
 773              	.LVL39:
 774              	.L11:
 103:..\u8g2_csrc/u8x8_d_a2printer.c ****       {
 775              		.loc 1 103 0 is_stmt 0 discriminator 1
 776 00d0 B9F1070F 		cmp	r9, #7
 777 00d4 E3D9     		bls	.L17
 123:..\u8g2_csrc/u8x8_d_a2printer.c ****       u8x8_cad_SendCmd(u8x8, 55 );      /* parameter command */
 778              		.loc 1 123 0 is_stmt 1
 779 00d6 1B21     		movs	r1, #27
 780 00d8 3846     		mov	r0, r7
 781 00da FFF7FEFF 		bl	u8x8_cad_SendCmd
 782              	.LVL40:
 124:..\u8g2_csrc/u8x8_d_a2printer.c ****       u8x8_cad_SendCmd(u8x8, 7);      /* Max printing dots,Unit(8dots),Default:7(64 dots) 8*(x+1)*/
 783              		.loc 1 124 0
 784 00de 3721     		movs	r1, #55
 785 00e0 3846     		mov	r0, r7
 786 00e2 FFF7FEFF 		bl	u8x8_cad_SendCmd
 787              	.LVL41:
 125:..\u8g2_csrc/u8x8_d_a2printer.c ****       u8x8_cad_SendCmd(u8x8, 80);      /* 3-255 Heating time,Unit(10us),Default:80(800us) */
 788              		.loc 1 125 0
 789 00e6 0721     		movs	r1, #7
 790 00e8 3846     		mov	r0, r7
 791 00ea FFF7FEFF 		bl	u8x8_cad_SendCmd
 792              	.LVL42:
 126:..\u8g2_csrc/u8x8_d_a2printer.c ****       u8x8_cad_SendCmd(u8x8, 2);      /* 0-255 Heating interval,Unit(10us),Default:2(20us)*/
 793              		.loc 1 126 0
 794 00ee 5021     		movs	r1, #80
 795 00f0 3846     		mov	r0, r7
 796 00f2 FFF7FEFF 		bl	u8x8_cad_SendCmd
 797              	.LVL43:
ARM GAS  C:\Users\info\AppData\Local\Temp\ccvd5hmY.s 			page 48


 127:..\u8g2_csrc/u8x8_d_a2printer.c **** 
 798              		.loc 1 127 0
 799 00f6 0221     		movs	r1, #2
 800 00f8 3846     		mov	r0, r7
 801 00fa FFF7FEFF 		bl	u8x8_cad_SendCmd
 802              	.LVL44:
 129:..\u8g2_csrc/u8x8_d_a2printer.c **** 
 803              		.loc 1 129 0
 804 00fe 3846     		mov	r0, r7
 805 0100 FFF7FEFF 		bl	u8x8_cad_EndTransfer
 806              	.LVL45:
 807              		.loc 1 135 0
 808 0104 0120     		movs	r0, #1
 131:..\u8g2_csrc/u8x8_d_a2printer.c ****     default:
 809              		.loc 1 131 0
 810 0106 BDE8F883 		pop	{r3, r4, r5, r6, r7, r8, r9, pc}
 811              	.LVL46:
 812              	.L16:
 813              		.cfi_def_cfa_offset 0
 814              		.cfi_restore 3
 815              		.cfi_restore 4
 816              		.cfi_restore 5
 817              		.cfi_restore 6
 818              		.cfi_restore 7
 819              		.cfi_restore 8
 820              		.cfi_restore 9
 821              		.cfi_restore 14
 822              		.loc 1 135 0
 823 010a 0120     		movs	r0, #1
 824              	.LVL47:
 825 010c 7047     		bx	lr
 826              		.cfi_endproc
 827              	.LFE1:
 828              		.size	u8x8_d_a2printer_common, .-u8x8_d_a2printer_common
 829 010e 00BF     		.section	.text.u8x8_d_a2printer_384x240,"ax",%progbits
 830              		.align	2
 831              		.global	u8x8_d_a2printer_384x240
 832              		.thumb
 833              		.thumb_func
 834              		.type	u8x8_d_a2printer_384x240, %function
 835              	u8x8_d_a2printer_384x240:
 836              	.LFB2:
 136:..\u8g2_csrc/u8x8_d_a2printer.c **** }
 137:..\u8g2_csrc/u8x8_d_a2printer.c **** 
 138:..\u8g2_csrc/u8x8_d_a2printer.c **** 
 139:..\u8g2_csrc/u8x8_d_a2printer.c **** static const u8x8_display_info_t u8x8_a2printer_384x240_display_info =
 140:..\u8g2_csrc/u8x8_d_a2printer.c **** {
 141:..\u8g2_csrc/u8x8_d_a2printer.c ****   /* most of the settings are not required, because this is a serial RS232 printer */
 142:..\u8g2_csrc/u8x8_d_a2printer.c ****   
 143:..\u8g2_csrc/u8x8_d_a2printer.c ****   /* chip_enable_level = */ 1,
 144:..\u8g2_csrc/u8x8_d_a2printer.c ****   /* chip_disable_level = */ 0,
 145:..\u8g2_csrc/u8x8_d_a2printer.c ****   
 146:..\u8g2_csrc/u8x8_d_a2printer.c ****   /* post_chip_enable_wait_ns = */ 5,
 147:..\u8g2_csrc/u8x8_d_a2printer.c ****   /* pre_chip_disable_wait_ns = */ 5,
 148:..\u8g2_csrc/u8x8_d_a2printer.c ****   /* reset_pulse_width_ms = */ 1, 
 149:..\u8g2_csrc/u8x8_d_a2printer.c ****   /* post_reset_wait_ms = */ 6, 
 150:..\u8g2_csrc/u8x8_d_a2printer.c ****   /* sda_setup_time_ns = */ 20,		
ARM GAS  C:\Users\info\AppData\Local\Temp\ccvd5hmY.s 			page 49


 151:..\u8g2_csrc/u8x8_d_a2printer.c ****   /* sck_pulse_width_ns = */  140,	
 152:..\u8g2_csrc/u8x8_d_a2printer.c ****   /* sck_clock_hz = */ 1000000UL,	/* since Arduino 1.6.0, the SPI bus speed in Hz. Should be  10000
 153:..\u8g2_csrc/u8x8_d_a2printer.c ****   /* spi_mode = */ 0,		/* old: sck_takeover_edge, new: active high (bit 1), rising edge (bit 0) */
 154:..\u8g2_csrc/u8x8_d_a2printer.c ****   /* i2c_bus_clock_100kHz = */ 4,
 155:..\u8g2_csrc/u8x8_d_a2printer.c ****   /* data_setup_time_ns = */ 30,
 156:..\u8g2_csrc/u8x8_d_a2printer.c ****   /* write_pulse_width_ns = */ 40,
 157:..\u8g2_csrc/u8x8_d_a2printer.c ****   /* tile_width = */ 48,
 158:..\u8g2_csrc/u8x8_d_a2printer.c ****   /* tile_hight = */ 30,
 159:..\u8g2_csrc/u8x8_d_a2printer.c ****   /* default_x_offset = */ 0,
 160:..\u8g2_csrc/u8x8_d_a2printer.c ****   /* flipmode_x_offset = */ 0,
 161:..\u8g2_csrc/u8x8_d_a2printer.c ****   /* pixel_width = */ 384,
 162:..\u8g2_csrc/u8x8_d_a2printer.c ****   /* pixel_height = */ 240
 163:..\u8g2_csrc/u8x8_d_a2printer.c **** };
 164:..\u8g2_csrc/u8x8_d_a2printer.c **** 
 165:..\u8g2_csrc/u8x8_d_a2printer.c **** uint8_t u8x8_d_a2printer_384x240(u8x8_t *u8x8, uint8_t msg, uint8_t arg_int, void *arg_ptr)
 166:..\u8g2_csrc/u8x8_d_a2printer.c **** {
 837              		.loc 1 166 0
 838              		.cfi_startproc
 839              		@ args = 0, pretend = 0, frame = 0
 840              		@ frame_needed = 0, uses_anonymous_args = 0
 841              	.LVL48:
 842 0000 08B5     		push	{r3, lr}
 843              		.cfi_def_cfa_offset 8
 844              		.cfi_offset 3, -8
 845              		.cfi_offset 14, -4
 167:..\u8g2_csrc/u8x8_d_a2printer.c ****   switch(msg)
 846              		.loc 1 167 0
 847 0002 0929     		cmp	r1, #9
 848 0004 04D1     		bne	.L24
 168:..\u8g2_csrc/u8x8_d_a2printer.c ****   {
 169:..\u8g2_csrc/u8x8_d_a2printer.c ****     case U8X8_MSG_DISPLAY_SETUP_MEMORY:
 170:..\u8g2_csrc/u8x8_d_a2printer.c ****       u8x8_d_helper_display_setup_memory(u8x8, &u8x8_a2printer_384x240_display_info);
 849              		.loc 1 170 0
 850 0006 0449     		ldr	r1, .L26
 851              	.LVL49:
 852 0008 FFF7FEFF 		bl	u8x8_d_helper_display_setup_memory
 853              	.LVL50:
 171:..\u8g2_csrc/u8x8_d_a2printer.c ****       break;
 172:..\u8g2_csrc/u8x8_d_a2printer.c ****     default:
 173:..\u8g2_csrc/u8x8_d_a2printer.c ****       return u8x8_d_a2printer_common(u8x8, msg, arg_int, arg_ptr);
 174:..\u8g2_csrc/u8x8_d_a2printer.c ****   }
 175:..\u8g2_csrc/u8x8_d_a2printer.c ****   return 1;
 854              		.loc 1 175 0
 855 000c 0120     		movs	r0, #1
 856 000e 08BD     		pop	{r3, pc}
 857              	.LVL51:
 858              	.L24:
 173:..\u8g2_csrc/u8x8_d_a2printer.c ****   }
 859              		.loc 1 173 0
 860 0010 FFF7FEFF 		bl	u8x8_d_a2printer_common
 861              	.LVL52:
 176:..\u8g2_csrc/u8x8_d_a2printer.c **** }
 862              		.loc 1 176 0
 863 0014 08BD     		pop	{r3, pc}
 864              	.L27:
 865 0016 00BF     		.align	2
 866              	.L26:
ARM GAS  C:\Users\info\AppData\Local\Temp\ccvd5hmY.s 			page 50


 867 0018 00000000 		.word	.LANCHOR0
 868              		.cfi_endproc
 869              	.LFE2:
 870              		.size	u8x8_d_a2printer_384x240, .-u8x8_d_a2printer_384x240
 871              		.section	.rodata
 872              		.align	2
 873              		.set	.LANCHOR0,. + 0
 874              		.type	u8x8_a2printer_384x240_display_info, %object
 875              		.size	u8x8_a2printer_384x240_display_info, 24
 876              	u8x8_a2printer_384x240_display_info:
 877 0000 01       		.byte	1
 878 0001 00       		.byte	0
 879 0002 05       		.byte	5
 880 0003 05       		.byte	5
 881 0004 01       		.byte	1
 882 0005 06       		.byte	6
 883 0006 14       		.byte	20
 884 0007 8C       		.byte	-116
 885 0008 40420F00 		.word	1000000
 886 000c 00       		.byte	0
 887 000d 04       		.byte	4
 888 000e 1E       		.byte	30
 889 000f 28       		.byte	40
 890 0010 30       		.byte	48
 891 0011 1E       		.byte	30
 892 0012 00       		.byte	0
 893 0013 00       		.byte	0
 894 0014 8001     		.short	384
 895 0016 F000     		.short	240
 896              		.text
 897              	.Letext0:
 898              		.file 2 "c:\\program files (x86)\\cypress\\psoc creator\\4.2\\psoc creator\\import\\gnu\\arm\\5.4.
 899              		.file 3 "c:\\program files (x86)\\cypress\\psoc creator\\4.2\\psoc creator\\import\\gnu\\arm\\5.4.
 900              		.file 4 "..\\u8g2_csrc\\u8x8.h"