ARM GAS  C:\Users\info\AppData\Local\Temp\ccOo2neL.s 			page 1


   1              		.syntax unified
   2              		.cpu cortex-m3
   3              		.fpu softvfp
   4              		.eabi_attribute 20, 1
   5              		.eabi_attribute 21, 1
   6              		.eabi_attribute 23, 3
   7              		.eabi_attribute 24, 1
   8              		.eabi_attribute 25, 1
   9              		.eabi_attribute 26, 1
  10              		.eabi_attribute 30, 1
  11              		.eabi_attribute 34, 1
  12              		.eabi_attribute 18, 4
  13              		.thumb
  14              		.syntax unified
  15              		.file	"u8x8_string.c"
  16              		.text
  17              	.Ltext0:
  18              		.section	.gnu.lto_.profile.792a64c9,"",%progbits
  19 0000 789C6361 		.ascii	"x\234ca`d`e`\000\222\253\030c\001\002\333\001\024"
  19      60646065 
  19      600092AB 
  19      18630102 
  19      DB0114
  20              		.text
  21              		.section	.gnu.lto_.inline.792a64c9,"",%progbits
  22 0000 789C6361 		.ascii	"x\234ca`d\000\201\203\014\010\300\312\300\300s\000("
  22      60640081 
  22      830C08C0 
  22      CAC0C073 
  22      0028
  23 0012 CE24B4EB 		.ascii	"\316$\264\353\010;\003\333\002y&\220(#\003\337i\220"
  23      083B03DB 
  23      02792690 
  23      282303DF 
  23      6990
  24 0024 A0D8AAEF 		.ascii	"\240\330\252\357\034pA&\006\221S A\251%g\020*Yx\201"
  24      1C704126 
  24      06915320 
  24      41A92567 
  24      102A5978 
  25 0039 1213FC26 		.ascii	"\022\023\374&\37013\25062\003ee\236\334Gha\345cd`\271"
  25      F83133A8 
  25      36320365 
  25      659EDC47 
  25      6861E563 
  26 0050 CB3EC1EF 		.ascii	"\313>\301\357.P\007?P5H%\010\"K\300\215`a\020\271\302"
  26      2E50073F 
  26      50354825 
  26      08224BC0 
  26      8D606110 
  27 0066 04348263 		.ascii	"\0044\202c\306tV\270\021l\374\214\014\254w\331!j\201"
  27      C67456B8 
  27      116CFC8C 
  27      0CAC77D9 
  27      216A81
  28 0079 6A781941 		.ascii	"jx\031A\212\357\2623\363\000\2359\301\217\001\000]\346"
  28      8AEFB233 
ARM GAS  C:\Users\info\AppData\Local\Temp\ccOo2neL.s 			page 2


  28      F3009D39 
  28      C18F0100 
  28      5DE6
  29 008b 24DA     		.ascii	"$\332"
  30              		.text
  31              		.section	.gnu.lto_.jmpfuncs.792a64c9,"",%progbits
  32 0000 789C6361 		.ascii	"x\234ca`d\000\001I\006\004`\005b\240(\023\220b\206\210"
  32      60640001 
  32      49060460 
  32      0562A028 
  32      13906286 
  33 0015 B0402800 		.ascii	"\260@(\000\005\245\000."
  33      05A5002E 
  34              		.text
  35              		.section	.gnu.lto_.pureconst.792a64c9,"",%progbits
  36 0000 789C6361 		.ascii	"x\234ca`d\340f```e0e4e\222b\226`\221\000\000\005\246"
  36      6064E066 
  36      60606065 
  36      30653465 
  36      92629660 
  37 0019 00D4     		.ascii	"\000\324"
  38              		.text
  39              		.section	.gnu.lto_u8x8_GetStringLineCnt.792a64c9,"",%progbits
  40 0000 789C6D53 		.ascii	"x\234mSMKTQ\030>\3179\367k\356\334\311 Z5\204\004\""
  40      4D4B5451 
  40      183ECF39 
  40      F76BEEDC 
  40      C9205A35 
  41 0017 5248E8C6 		.ascii	"RH\350\306m\177\241u 1\210\0105\013\265h\347u\356\214"
  41      6D7FA175 
  41      20318808 
  41      350BB568 
  41      E775EE8C 
  42 002b 458DD0A2 		.ascii	"E\215\320\242\024\304P\210r\372\034'3\021\205\206\002"
  42      14C45088 
  42      72FA1C27 
  42      33118586 
  42      02
  43 003c 95CA3E16 		.ascii	"\225\312>\026\025\210\2134p\241%\316dJ\221\331\373\236"
  43      15888B34 
  43      70A125CE 
  43      644A91D9 
  43      FB9E
  44 004e ABD9A20B 		.ascii	"\253\331\242\013s\316y\277\236\367y\336s\306\020\020"
  44      73CE79BF 
  44      9EF779DE 
  44      73C61010 
  45 005e FC259510 		.ascii	"\374%\225\020\307x\247\037\"\002\362\352k!:\035)\255"
  45      C778A71F 
  45      2202F2EA 
  45      6B213A1D 
  45      29AD
  46 0070 0D5BF8AE 		.ascii	"\015[\370\256\3357%\204\357\331p\330\017\025\356'\034"
  46      DD372584 
  46      EFD970D8 
  46      0F15EE27 
  46      1C
ARM GAS  C:\Users\info\AppData\Local\Temp\ccOo2neL.s 			page 3


  47 0081 69A5396C 		.ascii	"i\2459ld\2479lHs\355 \231j\260\201,\023*\004\261\000"
  47      64A7396C 
  47      4873ED20 
  47      996AB081 
  47      2C132A04 
  48 0097 3EF80E44 		.ascii	">\370\016D\207\264\225c\230\026:\244#\302\357\273\334"
  48      87B49563 
  48      98163AA4 
  48      23C2EFBB 
  48      DC
  49 00a8 9278B939 		.ascii	"\222x\2719\223uk\206|?\345\177\312|\360zsEd\210\321"
  49      93756B86 
  49      7C3FE57F 
  49      CA7CF07A 
  49      73456488 
  50 00bd B614A88F 		.ascii	"\266\024\250\217\343x\234Y\015\241\2062\337\245\207"
  50      E3789C59 
  50      0DA18632 
  50      DFA587
  51 00cc FBD5BACC 		.ascii	"\373\325\272\314(\300 \2634\333\367y\037\233\022\225"
  51      28C020B3 
  51      34DBF779 
  51      1F9B1295 
  52 00dc 64BEDFFC 		.ascii	"d\276\337\374\230\367\324a\010:\247\006\263+V\365-\306"
  52      98F7D461 
  52      083AA706 
  52      B32B56F5 
  52      2DC6
  53 00ee F4C79AFC 		.ascii	"\364\307\232\374HF)\334\205b\314;\210#\207\270 \227"
  53      484629DC 
  53      8562CC3B 
  53      882387B8 
  53      2097
  54 0100 C03D5473 		.ascii	"\300=TszO.(W\250#\272\364\351j\317x\254\352&\227\026"
  54      7A4F2E28 
  54      57A823BA 
  54      F4E96ACF 
  54      78ACEA26 
  55 0116 C7CEF6FA 		.ascii	"\307\316\366\372\305\316J\242\203\373a\365.#\301\251"
  55      C5CE4AA2 
  55      83FB61F5 
  55      2E23C1A9 
  56 0126 DDEBB919 		.ascii	"\335\353\271\031[\035\325e\267'\256M\330;e\243\247w"
  56      5B1DD565 
  56      B727AE4D 
  56      D83B65A3 
  56      A777
  57 0138 CA0C3CFC 		.ascii	"\312\014<\374O\331b\341\367\365\230\225\366\351\253"
  57      4FD962E1 
  57      F7F59895 
  57      F6E9AB
  58 0147 441E5578 		.ascii	"D\036Ux\200*\226K:\207a\321\235\310]o\376d\321\337\336"
  58      802A964B 
  58      3A8761D1 
  58      9DC85D6F 
  58      FE64D1DF 
  59 015c 0EFCE288 		.ascii	"\016\374\342\210\271\240b\320|\011\215\"\212\370\013"
ARM GAS  C:\Users\info\AppData\Local\Temp\ccOo2neL.s 			page 4


  59      B9A062D0 
  59      7C098D22 
  59      8AF80B
  60 016b 433B4CF0 		.ascii	"C;L\360ji\267#\2704\242\375\256^\243\332\357\351U\210"
  60      6A69B723 
  60      B834A2FD 
  60      AE5EA3DA 
  60      EFE95588 
  61 017f 35EAB26C 		.ascii	"5\352\262l\213\222\224\264\251E\244H\242nJQb6z\361U"
  61      8B9294B4 
  61      A945A448 
  61      A26E4A51 
  61      62367AF1 
  62 0194 C1E5890A 		.ascii	"\301\345\211\012\000\005\032\322\002\322s\301\267:N"
  62      00051AD2 
  62      02D273C1 
  62      B73A4E
  63 01a3 0994C993 		.ascii	"\011\224\311\223\312<{cs\206\"6\217\020j*I[\244m\210"
  63      CA3C7B63 
  63      73862236 
  63      8F106A2A 
  63      495BA46D 
  64 01b8 320CCA92 		.ascii	"2\014\312\222(\023 U\313\311\025\213bJ\320\013Q\024"
  64      28132055 
  64      CBC9158B 
  64      624AD00B 
  64      5114
  65 01ca 74031531 		.ascii	"t\003\0251&\273\011)b\222\351\005J\032\010T\324\234"
  65      26BB0929 
  65      6292E905 
  65      4A1A0854 
  65      D49C
  66 01dc FFCA941C 		.ascii	"\377\312\224\034A/\005\304i\277&KQ\021\032\244\"\240"
  66      412F05C4 
  66      69BF264B 
  66      51111AA4 
  66      22A0
  67 01ee 764B48FD 		.ascii	"vKH\375\274<u>\344\342\020\227\315\351\027\227\274\001"
  67      BC3C753E 
  67      E4E21097 
  67      CDE91797 
  67      BC01
  68 0200 DCE8E449 		.ascii	"\334\350\344I\326\323@LJ\013Ia\004\003\340r\277B\313"
  68      D6D3404C 
  68      4A0B4961 
  68      0403E072 
  68      BF42CB
  69 0213 CB339E13 		.ascii	"\3133\236\023\312\031z\216=\214\374\227\361\0371\326"
  69      CA197A8E 
  69      3D8CFC97 
  69      F11F31D6 
  70 0223 4373C7E3 		.ascii	"Cs\307\343PO\031\304\312\260iq\025i\221\201\262\330"
  70      504F19C4 
  70      CAB06971 
  70      15699181 
  70      B2D8
  71 0235 F0884349 		.ascii	"\360\210CI\032Z\315\022\202\376\2569+\304\211p[\272"
ARM GAS  C:\Users\info\AppData\Local\Temp\ccOo2neL.s 			page 5


  71      1A5ACD12 
  71      82FEAE39 
  71      2BC48970 
  71      5BBA
  72 0247 DE4548DD 		.ascii	"\336EH\335L\363\215\204\315\012j\257\327\326\332\333"
  72      4CF38D84 
  72      CD0A6AAF 
  72      D7D6DADB 
  73 0257 2D2FECE5 		.ascii	"-/\354\345b\364\357\354L\261~\200\001{\272V7v\262\243"
  73      62F4EFEC 
  73      4CB17E80 
  73      017BBA56 
  73      3776B2A3 
  74 026b 245ECF7F 		.ascii	"$^\317\177\027R\317#\252\323-\276\271e\036L@/\230\331"
  74      1752CF23 
  74      AAD32DBE 
  74      B9651E4C 
  74      402F98D9 
  75 027f AA7FEF85 		.ascii	"\252\177\357\205\376\323xB\263\237\277b\023\210\363"
  75      FED37842 
  75      B39FBF62 
  75      1388F3
  76 028e 6BD6A24B 		.ascii	"k\326\242K\007\325\320\315\037\252\255=u\256\241\271"
  76      07D5D0CD 
  76      1FAAAD3D 
  76      75AEA1B9 
  77 029e AE31D1D6 		.ascii	"\2561\321\326\232\240\323\205\206\306\266\366\326\226"
  77      9AA0D385 
  77      86C6B6F6 
  77      D696
  78 02ac 64736D42 		.ascii	"dsmB(:9gZ\222M\215\211d;\232\376\000\354\327\032\307"
  78      283A3967 
  78      5A924D8D 
  78      89643B9A 
  78      FE00ECD7 
  79              		.text
  80              		.section	.gnu.lto_u8x8_GetStringLineStart.792a64c9,"",%progbits
  81 0000 789C6D53 		.ascii	"x\234mS]H\024Q\024\276\347\336\371\331\031g5\250\240"
  81      5D481451 
  81      14BEE7DE 
  81      F9D91967 
  81      35A8A0
  82 0013 9F457C91 		.ascii	"\237E|\221E\002\213,\360)\350\255\347\236\013\203UT"
  82      45028B2C 
  82      F029E8AD 
  82      E79E0B83 
  82      5554
  83 0025 100935F0 		.ascii	"\020\0115\360\241p\334q\355\207\025\014JI\015\215(5"
  83      A170DC71 
  83      ED87150C 
  83      4A490D8D 
  83      2835
  84 0037 CB75B32D 		.ascii	"\313u\263-L\301MHML+\372\201\350\2416\330\207\012\331"
  84      4CC14D48 
  84      4D4C2BFA 
  84      81E8A136 
  84      D8870AD9 
ARM GAS  C:\Users\info\AppData\Local\Temp\ccOo2neL.s 			page 6


  85 004b 5D2C4934 		.ascii	"],I4;\347\316n\365\320\205\231{\317=\337w\316w\316\231"
  85      3BE7CE6E 
  85      F5D08599 
  85      7BCF3DDF 
  85      77CE77CE 
  86 0060 5118305A 		.ascii	"Q\0300Z\213\202\261\303\270\237\303\007L\006\274s\211"
  86      8B82B1C3 
  86      B89FC307 
  86      4C06BC73 
  86      89
  87 0071 B1560FE7 		.ascii	"\261V\017\347\372T!\263M\317\353\375\314\266<`\3205"
  87      FA5421B3 
  87      4DCFEBFD 
  87      CCB63C60 
  87      D035
  88 0083 08773F6A 		.ascii	"\010w?jp}F\240WYZ`\350V\270\232\332\211\246\030(GK\315"
  88      707D46A0 
  88      57595A60 
  88      E856B89A 
  88      DA89A618 
  89 009b 3A35D7A9 		.ascii	":5\327\251\201pC\352\000t\260=\300Z\270G\030\212\252"
  89      817043EA 
  89      0074B03D 
  89      C05AB847 
  89      188AAA
  90 00ae E9D0C20D 		.ascii	"\351\320\302\015\346\256\357|\223\303\313\266\261>\261"
  90      E6AEEF7C 
  90      93C3CBB6 
  90      B13EB1
  91 00bd CA438281 		.ascii	"\312C\202\201\202f\372y\317\347|2\001\212\320\354\265"
  91      8266FA79 
  91      CFE77C32 
  91      018AD0EC 
  91      B5
  92 00ce 5F5DD44B 		.ascii	"_]\324K\006m;h\177|\232\250\271\354\204\216\205\004"
  92      066D3B68 
  92      7F7C9AA8 
  92      B9EC848E 
  92      8504
  93 00e0 675B9CC1 		.ascii	"g[\234\301\020\370`\020|T\3040\224 vtx\345\007\027\205"
  93      10F86010 
  93      7C54C430 
  93      94207674 
  93      78E50717 
  94 00f5 C0F03CB7 		.ascii	"\300\360<\267\334?o\372o\021\317\236<i\213\220\020p"
  94      DC3F6FFA 
  94      6F11CF9E 
  94      3C698B90 
  94      1070
  95 0107 0704F1CA 		.ascii	"\007\004\361\312|p\300\307\360\202\301\010\370\021\373"
  95      7C70C0C7 
  95      F082C108 
  95      F811FB
  96 0116 66ED5DC4 		.ascii	"f\355]\304\022~\311\013\016\204\277jY^\367\254ew\002"
  96      127EC90B 
  96      0E84BF6A 
  96      595EF7AC 
ARM GAS  C:\Users\info\AppData\Local\Temp\ccOo2neL.s 			page 7


  96      657702
  97 0129 A683BB2E 		.ascii	"\246\203\273.3\227\221\024\300=\360\023\241k\310\311"
  97      33979114 
  97      C03DF013 
  97      A16BC8C9 
  98 0139 14887D92 		.ascii	"\024\210}\222<\275\3225\341-\276I\344x\357\254\267\333"
  98      3CBDD235 
  98      E12DBE49 
  98      E478EFAC 
  98      B7DB
  99 014b 8EB71651 		.ascii	"\216\267\026Q\342\321\177\023\323Bl\307\352\320\274"
  99      E2D17F13 
  99      D3426CC7 
  99      EAD0BC
 100 015a 2E0E49DE 		.ascii	".\016I\336\355\311+\223z\226w\255\335\312\362\024\030"
 100      EDC92B93 
 100      7A9677AD 
 100      DDCAF214 
 100      18
 101 016b FB0F2F11 		.ascii	"\373\017/\021\375u\325\253\265\331\270\212 \012\305"
 101      FD75D5AB 
 101      B5D9B88A 
 101      200AC5
 102 017a 1081626A 		.ascii	"\020\201bj\007v\341>h8`\236\273\215\034\217\333[[\216"
 102      0776E13E 
 102      6838609E 
 102      BB8D1C8F 
 102      DB5B5B8E 
 103 018e 1DEFD69E 		.ascii	"\035\357\326\236\244\264|\220\2221\034\272\004\225\240"
 103      A4B47C90 
 103      92311CBA 
 103      0495A0
 104 019d C8A30AD4 		.ascii	"\310\243\012\324\005\015\310\251K\210\301(\202)\317"
 104      050DC8A9 
 104      4B88C128 
 104      8229CF
 105 01ac 791263C9 		.ascii	"y\022c\311\267\327\255\231\2450\331\240\316\322\234"
 105      B7D7AD99 
 105      A530D9A0 
 105      CED29C
 106 01bb E3261210 		.ascii	"\343&\022\020\244Zer\004\241\302\330\371\305\250I\023"
 106      A45A6572 
 106      04A1C2D8 
 106      F9C5A849 
 106      13
 107 01cc C411C238 		.ascii	"\304\021\3028\266\353\023\264\275w\246\303\032a\034"
 107      B6EB13B4 
 107      BD77A6C3 
 107      1A611C
 108 01db A12224F2 		.ascii	"\241\"$\362m\342\247\227 *\252z\000nqi\356a\217\025"
 108      6DE2A797 
 108      202AAA7A 
 108      006E7169 
 108      EE618F15 
 109 01ef 6019F03A 		.ascii	"`\031\360:B\343\220\001\205\350\374C\264\016}\202\275"
 109      42E39001 
 109      85E8FC43 
ARM GAS  C:\Users\info\AppData\Local\Temp\ccOo2neL.s 			page 8


 109      B40E7D82 
 109      BD
 110 0200 7DC6043A 		.ascii	"}\306\004:uG\230\312\306\370)\33444\363\034\254\004"
 110      754798CA 
 110      C6F829DC 
 110      3434F31C 
 110      AC04
 111 0212 1C61698B 		.ascii	"\034ai\213\261\263\2103\030~q\200\252\266I\321\350e"
 111      B1B38833 
 111      187E7180 
 111      AAB649D1 
 111      E865
 112 0224 AE81DA1D 		.ascii	"\256\201\332\035\001,\011\301\365K\311k\371\256\030"
 112      012C09C1 
 112      F54BC96B 
 112      F9AE18
 113 0233 8326189A 		.ascii	"\203&\030\232Y\326I\014\227\303X\233[\270`\365\303\365"
 113      59D6490C 
 113      97C3589B 
 113      5BB860F5 
 113      C3F5
 114 0245 566A7119 		.ascii	"Vjq\0316\012a\0001\022\011\017\241\037(\234] \353\215"
 114      360A6100 
 114      3112090F 
 114      A11F289C 
 114      5D20EB8D 
 115 0259 527CC3AD 		.ascii	"R|\303\255o-\274+\0332WP\006P\226\327\203/]`1\334\021"
 115      6F2DBC2B 
 115      1B325750 
 115      065096D7 
 115      832F5D60 
 116 0270 0A197928 		.ascii	"\012\031y(\"\215\315\307_E$\301\351k_\337\355\022M\312"
 116      228DCDC7 
 116      5F4524C1 
 116      E96B5FDF 
 116      ED124DCA 
 117 0284 83834E00 		.ascii	"\203\203N\000\227\321\245`\323\215~\303\373W\357f\352"
 117      97D1A560 
 117      D38D7EC3 
 117      FB57EF66 
 117      EA
 118 0295 C5A6E536 		.ascii	"\305\246\3456\317\204G\177\232\247\262\314\016!\301"
 118      CF84477F 
 118      9AA7B2CC 
 118      0E21C1
 119 02a4 231D7B5C 		.ascii	"#\035{\\4\246T\263^\215\255o\247t]\355\311\236#\256"
 119      34A654B3 
 119      5E8DAD6F 
 119      A7745DED 
 119      C99E23AE 
 120 02b8 D742809C 		.ascii	"\327B\200\234O.\241l\227%\341:\215\366\013\365\315\301"
 120      4F2EA16C 
 120      9725E13A 
 120      8DF60BF5 
 120      CDC1
 121 02ca FF846A11 		.ascii	"\377\204j\0214\223\360\370i\224\244N\305*\251!\306F"
 121      3493F0F8 
ARM GAS  C:\Users\info\AppData\Local\Temp\ccOo2neL.s 			page 9


 121      6994A44E 
 121      C52AA921 
 121      C646
 122 02dc AC06BF06 		.ascii	"\254\006\277\006@,~\022{KKO\234)\257>X\021hl\010\340"
 122      402C7E12 
 122      7B4B4B4F 
 122      9C29AF3E 
 122      5811686C 
 123 02f2 A9B9BCA2 		.ascii	"\251\271\274\242\261\251\241\266\276\2724\300<u\265"
 123      B1A9A1B6 
 123      BEBA34C0 
 123      3C75B5
 124 0301 F55515B5 		.ascii	"\365U\025\265\225\315\002\257\\#P\337\004U\277\001\354"
 124      95CD02AF 
 124      5C2350DF 
 124      0455BF01 
 124      EC
 125 0312 B43F7E   		.ascii	"\264?~"
 126              		.text
 127              		.section	.gnu.lto_u8x8_CopyStringLine.792a64c9,"",%progbits
 128 0000 789C6D52 		.ascii	"x\234mR\313K\225A\024?g\316w\277W\327'\355\222\020Z"
 128      CB4B9541 
 128      143F67CE 
 128      77BF57D7 
 128      27ED9210 
 129 0015 88101615 		.ascii	"\210\020\026\025a\213\376\011\327\205\013\0253\304\205"
 129      618BFE09 
 129      D7850B15 
 129      33C485
 130 0024 1AB8BBA3 		.ascii	"\032\270\273\243\237\267\354%J(\024\327t#j\232\217\262"
 130      9FB7EC25 
 130      4A2814D7 
 130      74236A9A 
 130      8FB2
 131 0036 C7C50215 		.ascii	"\307\305\002\025\312\020\322\\\364 [\224\201D\211]/"
 131      CA10D25C 
 131      F4205B94 
 131      8144895D 
 131      2F
 132 0047 3E48B8DD 		.ascii	">H\270\335\316\314\230J4\360\3157g\346w\316\357w\036"
 132      CECC984A 
 132      34F0CD37 
 132      67E677CE 
 132      EF771E
 133 005a 1620A8B5 		.ascii	"\026 \250\265A\000\307\370\037\341\017}@\3216\007\320"
 133      4100C7F8 
 133      1FE10F7D 
 133      40D13607 
 133      D0
 134 006b E80AE1AE 		.ascii	"\350\012\341\256g\203\364)v\026d\230\2045>\015l:\237"
 134      6783F429 
 134      76166498 
 134      84353E0D 
 134      6C3A9F
 135 007e 0EB069A1 		.ascii	"\016\260i\241\247P\350\011g\232\370647\313\217\341\320"
 135      A750E809 
 135      679AF836 
ARM GAS  C:\Users\info\AppData\Local\Temp\ccOo2neL.s 			page 10


 135      3437CB8F 
 135      E1D0
 136 0090 8E691BD3 		.ascii	"\216i\033\3236\250)\327A\327\004u\021\325A\272\010\021"
 136      36A829D7 
 136      41D70475 
 136      11D541BA 
 136      0811
 137 00a2 419617B2 		.ascii	"A\226\027\262\035\027#\302\003\2636DJ\340\364\225\345"
 137      1D1723C2 
 137      03B33644 
 137      4AE0F495 
 137      E5
 138 00b3 B828EC93 		.ascii	"\270(\354\223\274>\367\376<.\373'1\312\022\323\302`"
 138      BC3EF7FE 
 138      3C2EFB27 
 138      31CA12D3 
 138      C260
 139 00c5 B00F0B19 		.ascii	"\260\017\013\031\265\320<\032\243u\021%D\213\315\265"
 139      B5D03C1A 
 139      A3751125 
 139      448BCDB5 
 140 00d5 D777BE66 		.ascii	"\327w\276f*S`>\233\333w_\\\265\3510\002\237\273\327"
 140      2A53603E 
 140      9BDB775F 
 140      5CB5E930 
 140      029FBBD7 
 141 00e9 3B3E3805 		.ascii	";>8\005\275R6I\331^!\275(\021\336C\342x8\200y\330\217"
 141      BD523649 
 141      D95E21BD 
 141      2811DE43 
 141      E2783880 
 142 0100 79C05780 		.ascii	"y\300W\200\203X\300\350\341\201\325MAG\264\347\314|"
 142      8358C0E8 
 142      E181D54D 
 142      4147B4E7 
 142      CC7C
 143 0112 F72B7FC7 		.ascii	"\367+\177\307\363\371yIQ\262p\310x\236\314\303\343\312"
 143      F3F97949 
 143      51B270C8 
 143      789ECCC3 
 143      E3CA
 144 0124 CF02BCAF 		.ascii	"\317\002\274\257\375\336n\275\037\011\323Q\355\327\324"
 144      FDDE6EBD 
 144      1F09D351 
 144      EDD7D4
 145 0133 73E387BD 		.ascii	"s\343\207\275\343w\373eX\266q\002!\034\376\2273\004"
 145      E377FB65 
 145      58B67102 
 145      211CFE97 
 145      3304
 146 0145 388205CA 		.ascii	"8\202\005\312ai\354wG\206\335\254R\3167\211\342(\332"
 146      6169EC77 
 146      4786DDAC 
 146      52CE3789 
 146      E228DA
 147 0158 AA3D2325 		.ascii	"\252=#%\2232\235\016\344d\312\236z\346\034D-S\350\235"
 147      93329D0E 
ARM GAS  C:\Users\info\AppData\Local\Temp\ccOo2neL.s 			page 11


 147      E464CA9E 
 147      7AE61C44 
 147      2D53E89D 
 148 016c B4BB83EA 		.ascii	"\264\273\203\352\354\241\222\341\243\272\011\353\373"
 148      ECA192E1 
 148      A3BA09EB 
 148      FB
 149 0179 0C26B033 		.ascii	"\014&\260350K_\344\350s\256\341\204\004\223\014\370"
 149      35304B5F 
 149      E4E873AE 
 149      E1840493 
 149      0CF8
 150 018b B02604FF 		.ascii	"\260&\004\377\350\0136\177\014\3227m\305\032\220\303"
 150      E80B367F 
 150      0CD2376D 
 150      C51A90C3 
 151 019b 8A3AA3D3 		.ascii	"\212:\243\323\363\216\252'1\345\030\313UkM\020\\w\351"
 151      F38EAA27 
 151      31E518CB 
 151      556B4D10 
 151      5C77E9
 152 01ae 1B46276F 		.ascii	"\033F'o\315\220\001\207\031\034\217\257,:\221\224l\221"
 152      CD900187 
 152      191C8FAF 
 152      2C3A9194 
 152      6C91
 153 01c0 323B4A4E 		.ascii	"2;JNZ\260r|\200\021\010\310\013\310\217\222\013K(tJ"
 153      5AB0727C 
 153      801108C8 
 153      0BC88F92 
 153      0B4B2874 
 154 01d5 4CCE3EC0 		.ascii	"L\316>\300\204\213\301`\253\275\027c\2270\304\204\017"
 154      848BC160 
 154      ABBD1763 
 154      9730C484 
 154      0F
 155 01e6 77092D48 		.ascii	"w\011-H\330\004I\314dY\204I\314b4\305\342y\374\344\001"
 155      D80449CC 
 155      64598449 
 155      CC6234C5 
 155      E279FCE4 
 156 01fb 8F122E61 		.ascii	"\217\022.aS6\230\260\004\306\030T\006\30226m_\333\214"
 156      533698B0 
 156      04C61854 
 156      06C23236 
 156      6D5FDB8C 
 157 020f 95188E0C 		.ascii	"\225\030\216\014\346\330\232\231m\011wc\027\267\203"
 157      E6D89A99 
 157      6D097763 
 157      17B783
 158 021e 7591A1C1 		.ascii	"u\221\241\301q\354F\320\025\270\270\007M%\336\244\302"
 158      71EC46D0 
 158      15B8B807 
 158      4D25DEA4 
 158      C2
 159 022f 4A8E8F3E 		.ascii	"J\216\217>>2r\222\210\001eZ\274\345\330\261\211\352"
 159      3E327292 
ARM GAS  C:\Users\info\AppData\Local\Temp\ccOo2neL.s 			page 12


 159      8801655A 
 159      BCE5D8B1 
 159      89EA
 160 0241 24524059 		.ascii	"$R@Y\312\314\265\207&.\260\242\020\360\334\233bN\264"
 160      CACCB587 
 160      262EB0A2 
 160      10F0DC9B 
 160      624EB4
 161 0254 9ED90B36 		.ascii	"\236\331\0136\262\022\377\225a\202\001>\336\315\315"
 161      B212FF95 
 161      6182013E 
 161      DECDCD
 162 0263 869E1920 		.ascii	"\206\236\031 \226\3319\266\262\240\313\271Oc\243\032"
 162      96D939B6 
 162      B2A0CBB9 
 162      4F63A31A 
 163 0273 862CEE21 		.ascii	"\206,\356!\247b\032\200OX(\007\344\304\202\330\345\271"
 163      A7621A80 
 163      4F582807 
 163      E4C482D8 
 163      E5B9
 164 0285 AED38620 		.ascii	"\256\323\206 G\001x\026\377VXg\237c@\357\272N\031P\256"
 164      47017816 
 164      FF565867 
 164      9F6340EF 
 164      BA4E1950 
 165 029a 4A771F48 		.ascii	"Jw\037H\327+W\253pTK\367\025N\250\302\255'V\333\377"
 165      D72B57AB 
 165      70544BF7 
 165      154EA8C2 
 165      AD2756DB 
 166 02af ABC8D18A 		.ascii	"\253\310\321\212\304\216\242\247\254h\177\357xd1\256"
 166      C48EA2A7 
 166      AC687FEF 
 166      786431AE 
 167 02bf 5E922874 		.ascii	"^\222(t\303X\233\2476n\352\232p\325\250}WLz%xL\006|"
 167      C3589BA7 
 167      366EEA9A 
 167      70D5A87D 
 167      574C7A25 
 168 02d7 9EC34345 		.ascii	"\236\303CEE\347.\025W\236(-\253\253-\343SCqi]}mUMeQ"
 168      45E72E15 
 168      579E282D 
 168      ABAB2DE3 
 168      53437169 
 169 02f2 1958E515 		.ascii	"\031X\345\025u\365nuUMEiUy\003\361\375\037W\033M\337"
 169      75F56E75 
 169      554D4569 
 169      557903F1 
 169      FD1F571B 
 170              		.text
 171              		.section	.gnu.lto_u8x8_DrawUTF8Line.792a64c9,"",%progbits
 172 0000 789C8D54 		.ascii	"x\234\215T_L\034E\034\236\337\314\336\356\336r\177\010"
 172      5F4C1C45 
 172      1C9EDFCC 
 172      DEEEDE72 
 172      7F08
ARM GAS  C:\Users\info\AppData\Local\Temp\ccOo2neL.s 			page 13


 173 0012 0172E8C5 		.ascii	"\001r\350\305\320\030r\022\023R\2651<\372\350\263\317"
 173      D0187212 
 173      1352B531 
 173      3CFAE8B3 
 173      CF
 174 0023 357DA0A6 		.ascii	"5}\240\24611>\024M\361\351\026\356\216C$\006\265^\221"
 174      31313E14 
 174      4DF1E916 
 174      EE8E4324 
 174      06B55E91 
 175 0037 6A68420C 		.ascii	"jhB\014BQ\016\365\244\320\303\036h\217\006(\025\251"
 175      42510EF5 
 175      A4D0C31E 
 175      688F0628 
 175      15A9
 176 0049 FF801A4B 		.ascii	"\377\200\032KmC\2646\\\225\324\252\347\371\373\315\354"
 176      6D43B436 
 176      5C95D4AA 
 176      E7F9FBCD 
 176      EC
 177 005a E9716074 		.ascii	"\351q`t\223\335\235\231\375\276o\276\33773\2531`tm\350"
 177      93DD9D99 
 177      FDBE6FBE 
 177      DF3733AB 
 177      3160746D 
 178 006f 8C35E33B 		.ascii	"\2145\343;\2017T0\340\275K\214\265\233\234\213\256\020"
 178      81375430 
 178      E0BD4B8C 
 178      B59B9C8B 
 178      AE10
 179 0081 B32D8D9E 		.ascii	"\263-\215\236\036\001\232\032\326@W\015\227j\314\230"
 179      1E019A1A 
 179      D640570D 
 179      976ACC98 
 180 0091 3A77F5CC 		.ascii	":w\365\3141D\032Q\003\221\006\270\025\300T\215\031\323"
 180      31441A51 
 180      039106B8 
 180      15C0548D 
 180      19D3
 181 00a3 CD4D05B0 		.ascii	"\315M\005\260$\300\002\240q\333\004\026\346Bs\351\206"
 181      24C002A0 
 181      71DB0416 
 181      E64273E9 
 181      86
 182 00b4 E9B6202C 		.ascii	"\351\266 ,t\006\031\015\012\312\224\273\264\263\315"
 182      7406190D 
 182      0ACA94BB 
 182      B4B3CD
 183 00c3 F31C16EE 		.ascii	"\363\034\026\356\\\350\261\032\207l\273\303\376\356"
 183      5CE8B11A 
 183      876CBBC3 
 183      FEEE
 184 00d1 FAEF8FE7 		.ascii	"\372\357\217\347:b\201\230`\254\300\031<\022\204\375"
 184      3A628198 
 184      60ACC019 
 184      3C1284FD 
 185 00e1 41723F04 		.ascii	"Ar?\004\215\210\\\216&\337\024\277\360\230\000\320\260"
ARM GAS  C:\Users\info\AppData\Local\Temp\ccOo2neL.s 			page 14


 185      8D885C8E 
 185      26DF14BF 
 185      F09800D0 
 185      B0
 186 00f2 9BBBD87F 		.ascii	"\233\273\330\177\315G]\016\365\330=uyp]\027\367\001"
 186      CD475D0E 
 186      F5D83D75 
 186      79705D17 
 186      F701
 187 0104 C37662FE 		.ascii	"\303vb\376\362-o\350m\322\264O<e\273cB\300\010\010\322"
 187      F22D6FE8 
 187      6DD2B44F 
 187      3C65BB63 
 187      42C00808 
 188 0119 1C8620BC 		.ascii	"\034\206 \274\003A\206C\014NC\010\321\375S\361\016K"
 188      03418643 
 188      0C4E4308 
 188      D1FD53F1 
 188      0E4B
 189 012b DC2F99C7 		.ascii	"\334/\231\307O\377z\322t\230+O\332\002\255\300\250b"
 189      4FFF7AD2 
 189      74982B4F 
 189      DA02ADC0 
 189      A862
 190 013d 2A37E40D 		.ascii	"*7\344\015\336\225\274t\367\302\037\246h\220\274\027"
 190      DE95BC74 
 190      F7C21FA6 
 190      6890BC17 
 191 014d 57B35BBA 		.ascii	"W\263[\272\303\273\353\360\336\333\305\033\223\274o"
 191      C3BBEBF0 
 191      DEDBC51B 
 191      93BC6F
 192 015c 3E4BBEE4 		.ascii	">K\276\344\023!\311;\323\373F\177\321\351@\266\302\336"
 192      1321C93B 
 192      D3FB467F 
 192      D1E940B6 
 192      C2DE
 193 016e 4FC4E42E 		.ascii	"O\304\344.\342\270$\316fO\216\031\242Q\022\247V\277"
 193      E2B824CE 
 193      664F8E19 
 193      A25112A7 
 193      56BF
 194 0180 1F763BC4 		.ascii	"\037v;\304+Y\217\335\0131\241\301\373\345Ej\014>\200"
 194      2B598FDD 
 194      0B31A1C1 
 194      FBE5456A 
 194      0C3E80
 195 0193 1011AE0F 		.ascii	"\020\021\256\017n\327\212\007%7\031\277\360\252\257"
 195      6ED78A07 
 195      253719BF 
 195      F0AAAF
 196 01a2 6190B899 		.ascii	"a\220\270\231\3559\377\011;\323^O\363~X:/]\210mO-\374"
 196      ED39FF09 
 196      3BD35E4F 
 196      F37E583A 
 196      2F5D886D 
 197 01b9 244493E4 		.ascii	"$D\223\344\365_\232\356\362+\236=q\320\216<F\244\217"
ARM GAS  C:\Users\info\AppData\Local\Temp\ccOo2neL.s 			page 15


 197      F55F9AEE 
 197      F22B9E3D 
 197      71D08E3C 
 197      46A48F
 198 01cc F620F55C 		.ascii	"\366 \365\\=5\344\026\017I\322Z~t\021\234\311~\216\377"
 198      3D35E416 
 198      0F49D25A 
 198      7E74119C 
 198      C97E8EFF 
 199 01e0 33D9993D 		.ascii	"3\331\231=x\233_\015O\272\304\001\311\273\262>\220\266"
 199      789B5F0D 
 199      4FBAC401 
 199      C9BBB23E 
 199      90B6
 200 01f2 CA279BDA 		.ascii	"\312'\233\332\203\2641\376\347\353^=j\343U\017g\241"
 200      83B431FE 
 200      E7EB5E3D 
 200      6AE3550F 
 200      67A1
 201 0204 0126F19E 		.ascii	"\001&\361\236\300;\005\015\264\2150\2764\350\270\343"
 201      C03B050D 
 201      B48D30BE 
 201      34E8B8E3 
 202 0214 B4F2AF63 		.ascii	"\264\362\257cOd\354B!bgr\306\314\272u\0170\002p\271"
 202      4F64EC42 
 202      21626772 
 202      C6CCBA75 
 202      0F300270 
 203 0229 BC381782 		.ascii	"\2748\027\202\014\240-b\002eh1\242V\000\255\205G\"\275"
 203      0CA02D62 
 203      02656831 
 203      A25600AD 
 203      854722BD 
 204 023d F2E903C2 		.ascii	"\362\351\003\302\373\031\011V\002-q\225T\250\306\364"
 204      FB190956 
 204      022D7195 
 204      54A8C6F4 
 205 024d 5D3552A6 		.ascii	"]5R\246V~\014\310v\235|2\266\205\306\360\330\3448\307"
 205      567E0CC8 
 205      769D7C32 
 205      B685C6F0 
 205      D8E438C7 
 206 0261 97D8808E 		.ascii	"\227\330\200\216\314\3359.\215\242&m\341\330\354%\203"
 206      CCDD392E 
 206      8DA2266D 
 206      E1D8EC25 
 206      83
 207 0272 76379E66 		.ascii	"v7\236f\230\306\265\334\204X&\037\027\004\211\010\013"
 207      98C6B5DC 
 207      8458261F 
 207      17048908 
 207      0B
 208 0283 11939337 		.ascii	"\021\223\2237\327\214p\336\356\262\355\312\230\320\013"
 208      D78C70DE 
 208      EEB2EDCA 
 208      98D00B
 209 0292 1C4B848F 		.ascii	"\034K\204\217!\314\"\302\210\0103&\014\266\001J\022"
ARM GAS  C:\Users\info\AppData\Local\Temp\ccOo2neL.s 			page 16


 209      21CC22C2 
 209      88083326 
 209      0CB6014A 
 209      12
 210 02a3 8D23875D 		.ascii	"\215#\207]\205\350R$\357w$\"\242BF\230\343\202\315\012"
 210      85E85224 
 210      EF772422 
 210      A2424698 
 210      E382CD0A 
 211 02b7 69E1B579 		.ascii	"i\341\265yQ\264@_o@\244\257\363\363\007\024\336\203"
 211      51B4405F 
 211      6F40A4AF 
 211      F3F30714 
 211      DE83
 212 02c9 232452D4 		.ascii	"#$R\324\224\030\017a\222\235\253\016\306\213#\350\354"
 212      94180F61 
 212      929DAB0E 
 212      C68B23E8 
 212      EC
 213 02da 7CE14EC6 		.ascii	"|\341N\306O\336]\210=\207\336wp\274rN\315)\273\222\251"
 213      4FDE5D88 
 213      3D87DE77 
 213      70BC724E 
 213      CD29BB92 
 214 02ef 516064E0 		.ascii	"Q`d\340\255ne`\202\206|$\236\350\374\315\021\367#\210"
 214      AD6E6560 
 214      82867C24 
 214      9EE8FCCD 
 214      11F72388 
 215 0303 068B6229 		.ascii	"\006\213b)\302\370\031\273\015@\001\361\305s\325(.\322"
 215      C2F819BB 
 215      0D4001F1 
 215      C573D528 
 215      2ED2
 216 0315 CB419477 		.ascii	"\313A\224w1\3745\211M\210gR\363\022\316v%f\0260{\374"
 216      31FC3589 
 216      4D886752 
 216      F312CE76 
 216      25661630 
 217 032b 1D1513E3 		.ascii	"\035\025\023\343\021Q\211\240\227\333\177L\270\366="
 217      115189A0 
 217      97DB7F4C 
 217      B8F63D
 218 033a 3A60F7E1 		.ascii	":`\367\3416u\023\355\353[\323K\026\322\372p\207\275"
 218      367513ED 
 218      EB5BD34B 
 218      16D2FA70 
 218      87BD
 219 034c 82C7CC82 		.ascii	"\202\307\314\202\031\330'5a\026\3021\025T\242\363\333"
 219      19D82735 
 219      6116C231 
 219      1554A2F3 
 219      DB
 220 035d 619F325A 		.ascii	"a\2372Z\205ZHK\305\027\307-\265\202\000\237\224\244"
 220      855A484B 
 220      C517C72D 
 220      B582009F 
ARM GAS  C:\Users\info\AppData\Local\Temp\ccOo2neL.s 			page 17


 220      94A4
 221 036f 208BAB92 		.ascii	" \213\253\222)\350\014\177\231N\014r\230\253E\272v<"
 221      29E80C7F 
 221      994E0C72 
 221      98AB45BA 
 221      763C
 222 0381 A0B4B82C 		.ascii	"\240\264\270,\221\212\304\226O\273\271\034@\252+\275"
 222      918AC496 
 222      4FBBB91C 
 222      40AA2BBD 
 223 0391 42351A14 		.ascii	"B5\032\024!\225xv\336\243\320\325\377V\344\247\245E"
 223      21957876 
 223      DEA3D0D5 
 223      FF56E4A7 
 223      A545
 224 03a3 CACDE198 		.ascii	"\312\315\341\230>\240\2105\362K\365N\2135\012r\273Q"
 224      3EA08835 
 224      F24BF54E 
 224      8B350A72 
 224      BB51
 225 03b5 616AE506 		.ascii	"aj\345\006(\313\277V\226a\376\235\366\312\177\244}\276"
 225      28CBBF56 
 225      9661FE9D 
 225      F6CA7FA4 
 225      7DBE
 226 03c7 6844FCFF 		.ascii	"hD\374\377\264\263\305\264\347J\322\376r\304I\033\003"
 226      B4B3C5B4 
 226      E74AD2FE 
 226      72C4491B 
 226      03
 227 03d8 11BBE30D 		.ascii	"\021\273\343\015H_\356\362x\205\212\267P\214W\250\012"
 227      485FEEF2 
 227      78858AB7 
 227      508C57A8 
 227      0A
 228 03e9 305E6CD5 		.ascii	"0^l\325\030\353+\250\0260G\277\240x-\212W\036\201\033"
 228      18EB2BA8 
 228      163047BF 
 228      A0782D8A 
 228      571E811B 
 229 03fd 234EBE75 		.ascii	"#N\276u\222\341\3339U\035\373\001w\356Z\267\327\301"
 229      92E1DB39 
 229      551DFB01 
 229      77EE5AB7 
 229      D7C1
 230 040f 90DE161E 		.ascii	"\220\336\026\036\306\250\201\005\337\333\324t\360\371"
 230      C6A88105 
 230      DFDBD474 
 230      F0F9
 231 041d E6230F1F 		.ascii	"\346#\017\037ji=\332\202\255\266\346C\255\317\035}\372"
 231      6A693DDA 
 231      82ADB6E6 
 231      43ADCF1D 
 231      7DFA
 232 042f D9234D2D 		.ascii	"\331#M-L\243.\264\301\013p\014Z\371\3416\336\322\306"
 232      4CA32EB4 
 232      C10B700C 
ARM GAS  C:\Users\info\AppData\Local\Temp\ccOo2neL.s 			page 18


 232      5AF9E136 
 232      DED2C6
 233 0442 9F390687 		.ascii	"\2379\006\207y=\373\013\315\0142\036"
 233      793DFB0B 
 233      CD0C321E 
 234              		.text
 235              		.section	.gnu.lto_u8x8_DrawUTF8Lines.792a64c9,"",%progbits
 236 0000 789C6D93 		.ascii	"x\234m\223\337K\223Q\030\307\317s\236w\333\273\315-"
 236      DF4B9351 
 236      18C7CF73 
 236      9E77DBBB 
 236      CD2D
 237 0012 A11BA111 		.ascii	"\241\033\241\021B\214!\201I\335\370/\004]u]x1\302\274"
 237      428C2181 
 237      49DDF82F 
 237      045D755D 
 237      7831C2BC 
 238 0026 F1428DEC 		.ascii	"\361B\215\354j\307\275{\263\322\013\013\177\344,\012"
 238      6AC7BD7B 
 238      B3D20B0B 
 238      7FE42C0A 
 239 0036 4CCC5F6D 		.ascii	"L\314_mK\315\037Y\274\032\254hf\005v\241\005\225\225"
 239      4BCD1F59 
 239      BC1AAC68 
 239      660576A1 
 239      059595
 240 0049 89443829 		.ascii	"\211D8)\012R\327s\316;\241Z\007\266\367\234\363>\237"
 240      0A52D773 
 240      CE3BA15A 
 240      07B6F79C 
 240      F33E9F
 241 005c E7F93E3F 		.ascii	"\347\371>?^\215\001\223k\257\306X\005=\217\321\017\234"
 241      5E8D0193 
 241      6BAFC658 
 241      053D8FD1 
 241      0F9C
 242 006e 0C78DB02 		.ascii	"\014x\333\002cM:\007\315\336\240\275\231\3255\216\255"
 242      634D3A07 
 242      CDDEA0BD 
 242      99D5358E 
 242      AD
 243 007f 8F19131E 		.ascii	"\217\031\023\036G\314\305D\221\003@\336\013\035X\204"
 243      47CCC544 
 243      910340DE 
 243      0B1D5884 
 244 008f A3E68008 		.ascii	"\243\346\200\010\327\030X\032\344l\277\337\3716\207"
 244      D718581A 
 244      E46CBFDF 
 244      F93687
 245 009e CC8F27AD 		.ascii	"\314\217'\255\236\262~!\242\342\335\247\304\321l\324"
 245      9EB27E21 
 245      A2E2DDA7 
 245      C4D16CD4 
 246 00ae 2C3191B1 		.ascii	",1\221\261\034gp$\000\025\001\031\263\037\312\310\362"
 246      1C677024 
 246      00150119 
 246      B31FCAC8 
ARM GAS  C:\Users\info\AppData\Local\Temp\ccOo2neL.s 			page 19


 246      F2
 247 00bf 652C790D 		.ascii	"e,y\015\277q\023\0014:f\237\305?\370\345\221C)\035o"
 247      BF711301 
 247      343A669F 
 247      C53FF8E5 
 247      9143291D 
 248 00d4 2EF6BE71 		.ascii	".\366\276q\342~`\264\357|\272\370\325\027\352\223>E"
 248      E27E60B4 
 248      EF7CBAF8 
 248      D517EA93 
 248      3E45
 249 00e6 F729E136 		.ascii	"\367)\3416\021a\020P\372\034\200\000\334\206\000\243"
 249      11611050 
 249      FA1C8000 
 249      DC8600A3 
 250 00f6 2B064310 		.ascii	"+\006C\020\"\353\370ts\324\203\007\024\331>\364\263"
 250      22EBF874 
 250      73D48307 
 250      14D93EF4 
 250      B3
 251 0107 47CF93AF 		.ascii	"G\317\223\257N\012$)0l\223\266\032\251\015F\0247s)\263"
 251      4E0A2429 
 251      306C93B6 
 251      1AA90D46 
 251      14377329 
 252 011c A5635071 		.ascii	"\245cPq\027\227\323\033\316<\367+\317\335)\340\022\212"
 252      1797D31B 
 252      CE3CF72B 
 252      CFDD29E0 
 252      128A
 253 012e 5B7A916C 		.ascii	"[z\221l\361cHq\223m\335\361]\245\251\264WTH0Y\000\246"
 253      F1634871 
 253      936DDDF1 
 253      5DA5A9B4 
 253      57544830 
 254 0145 143897EE 		.ascii	"\0248\227\356I\270\260L\201\323\313\037\007\334y\360"
 254      49B8B04C 
 254      81D3CB1F 
 254      07DC79F0 
 255 0155 6DBA48B4 		.ascii	"m\272H\264\201\211\032\334\3757I\252\367(\204$0\021"
 255      81891ADC 
 255      FD3749AA 
 255      F7288424 
 255      3011
 256 0167 DFB1343C 		.ascii	"\337\2614<\250\340\301\221\365\317Z\260W\302VG\306\327"
 256      A8E0C191 
 256      F5CF5AB0 
 256      57C25647 
 256      C6D7
 257 0179 25ACA652 		.ascii	"%\254\246R\031x\354\317\300r\221m_\346\321C?\036R\334"
 257      1978ECCF 
 257      C072916D 
 257      5FE6D143 
 257      3F1E52DC 
 258 018d AD951BED 		.ascii	"\255\225\033\355\230\347\256d\274\")t\211\335\373\017"
 258      98E7AE64 
 258      BC222974 
ARM GAS  C:\Users\info\AppData\Local\Temp\ccOo2neL.s 			page 20


 258      89DDFB0F 
 259 019d B692DAE9 		.ascii	"\266\222\332\351\3609c\202V)L@\020\306!(\233J\311L\202"
 259      F0396382 
 259      56294C40 
 259      10C62128 
 259      9B4AC94C 
 260 01b2 93FACF77 		.ascii	"\223\372\317wo\023\307-\221\313\031\302\272\354\235"
 260      6F13C72D 
 260      91CB19C2 
 260      BAEC9D
 261 01c1 1DF3EE01 		.ascii	"\035\363\356\001U&rG\257i\200H=M\034\231\271@\336\353"
 261      55267247 
 261      AF698048 
 261      3D4D1C99 
 261      B940DEEB 
 262 01d5 322737C8 		.ascii	"2'7\310\316y@\366\301\013\2628>\005\371\025\304\330"
 262      CE7940F6 
 262      C10BB238 
 262      3E05F915 
 262      C4D8
 263 01e7 0685A101 		.ascii	"\006\205\241\001\314rN\017\\\203\230\325\225A\031\326"
 263      CC724E0F 
 263      5C8398D5 
 263      954119D6 
 264 01f7 4027499B 		.ascii	"@'I\233\232\372\362\332\025\331\026\027\204(6\321\221"
 264      9AFAF2DA 
 264      15D91617 
 264      842836D1 
 264      91
 265 0208 E3A406A6 		.ascii	"\343\244\006\246 \302\014t\230\350d+\300\225F\012j\250"
 265      20C20C74 
 265      98E8642B 
 265      C095460A 
 265      6AA8
 266 021a 63D4EA6E 		.ascii	"c\324\352n\361\251+r/\307\313\234{\356\222\223G\337"
 266      F1A92B72 
 266      2FC7CB9C 
 266      7BEE9293 
 266      47DF
 267 022c 074C83CC 		.ascii	"\007L\203\3149\313\221\321\350S0\323\272\236\341v0\275"
 267      39CB91D1 
 267      E85330D3 
 267      BA9EE176 
 267      30BD
 268 023e 20982B47 		.ascii	" \230+G\232\030\334W\301\270\212\247\2635(\221\366\254"
 268      9A18DC57 
 268      C1B88AA7 
 268      B3352891 
 268      F6AC
 269 0250 C0DA9DE3 		.ascii	"\300\332\235\343\262\3713\312\332m\240\307@0\320K\216"
 269      B2F933CA 
 269      DA6DA0C7 
 269      4030D04B 
 269      8E
 270 0261 4DF4B055 		.ascii	"M\364\260U0:\317\357\014\027\331\261|\364\216\034\214"
 270      303ACFEF 
 270      0C17D9B1 
ARM GAS  C:\Users\info\AppData\Local\Temp\ccOo2neL.s 			page 21


 270      7CF48E1C 
 270      8C
 271 0272 37CFA73C 		.ascii	"7\317\247<\2664\200\007$m7\031*\017\031\331\320\352"
 271      B6348007 
 271      246D3719 
 271      2A0F19D9 
 271      D0EA
 272 0284 709D0DF9 		.ascii	"p\235\015\371I\304_V\0232e\277\312Gc\364\355\"%_\314"
 272      49C45F56 
 272      133265BF 
 272      CA4763F4 
 272      ED22255F 
 273 0299 EC6BCEEC 		.ascii	"\354k\316\354\203\362\004\354=\304\026\014\277\355\207"
 273      83F204EC 
 273      3DC4160C 
 273      BFED87
 274 02a8 CB3AD1DA 		.ascii	"\313:\321\332\004\322\347\342\364\347\303\255\245\222"
 274      04D2E7E2 
 274      F4E7C3AD 
 274      A592
 275 02b6 4DF24AE5 		.ascii	"M\362J\345\341\363K\247\311+^\225-q\310\226\254SIG\355"
 275      E1F34BA7 
 275      C92B5E95 
 275      2D71C896 
 275      AC534947 
 276 02cb 92E6C90D 		.ascii	"\222\346\311\015jB\314E\265\331W^~\342Le\365\341\252"
 276      6A42CC45 
 276      B5D9575E 
 276      7EE24C65 
 276      F5E1AA
 277 02de 707D5D98 		.ascii	"p}]\230v\215\225U\365\015u5\265\325\345a\246\311#4\302"
 277      768D9555 
 277      F50D7535 
 277      B5D5E561 
 277      A6C92334 
 278 02f3 39380BF5 		.ascii	"98\013\365\030\256m\200\232\337qnN\345"
 278      18AE6D80 
 278      9ADF716E 
 278      4EE5
 279              		.text
 280              		.section	.gnu.lto_.symbol_nodes.792a64c9,"",%progbits
 281 0000 789C55CA 		.ascii	"x\234U\312\261\015\203@\014\205\341\347\263\357\326"
 281      B10D8340 
 281      0C85E1E7 
 281      B3EFD6
 282 000f 80D40CE9 		.ascii	"\200\324\014\351\023m\032f8Q\261A\2124\021\022\0353"
 282      136D1A66 
 282      3851B141 
 282      8A341112 
 282      1D33
 283 0021 A4A08C94 		.ascii	"\244\240\214\224\005H\202\235\212s\363\333\237, \334"
 283      0548829D 
 283      8A73F3DB 
 283      9F2C20DC 
 284 0031 6013A0C0 		.ascii	"`\023\240\300\260\3023\345\213\001)\325\0204\324\300"
 284      B0C233E5 
 284      8B0129D5 
ARM GAS  C:\Users\info\AppData\Local\Temp\ccOo2neL.s 			page 22


 284      1034D4C0 
 285 0041 CA35884A 		.ascii	"\3125\210J\005\2244\376\001\310\271\265;j:\337\034\010"
 285      059434FE 
 285      01C8B9B5 
 285      3B6A3ADF 
 285      1C08
 286 0053 8F7D23E6 		.ascii	"\217}#\346\204\371\371\265Fl\313\357\036}\031\257\257"
 286      84F9F9B5 
 286      466CCBEF 
 286      1E7D19AF 
 286      AF
 287 0064 C63BAF0E 		.ascii	"\306;\257\016\002\024\377\020B\377yw,\214b\305\001\236"
 287      0214FF10 
 287      42FF7977 
 287      2C8C62C5 
 287      019E
 288 0076 5C2F90   		.ascii	"\\/\220"
 289              		.text
 290              		.section	.gnu.lto_.refs.792a64c9,"",%progbits
 291 0000 789C6361 		.ascii	"x\234ca`\004B \000\000\0009\000\007"
 291      60044220 
 291      00000039 
 291      0007
 292              		.text
 293              		.section	.gnu.lto_.decls.792a64c9,"",%progbits
 294 0000 789CBD58 		.ascii	"x\234\275XkPTG\026\236\276=\30003h\004L\334]j\327\315"
 294      6B505447 
 294      169EBE3D 
 294      C0303368 
 294      044CDC5D 
 295 0017 5ACA5625 		.ascii	"Z\312V%\304G6E\345\327ne+Imm\355\237l\362\213\315d\034"
 295      C4473645 
 295      E5D76E65 
 295      2B496D6D 
 295      ED9F6CF2 
 296 002f 069C0D0C 		.ascii	"\006\234\015\014\204\031|d\177\354E\021\215\017\004"
 296      84197C64 
 296      7FEC4511 
 296      8D0F04
 297 003e 1FC84303 		.ascii	"\037\310C\003\210\212\012*\002b\220\327\010\212/@\336"
 297      888A0A2A 
 297      026290D7 
 297      088A2F40 
 297      DE
 298 004f 3E00417C 		.ascii	">\000A|!\212\242\240DQ\330\323\335\367\316\355\301K"
 298      218AA2A0 
 298      4451D8D3 
 298      DDF7CEED 
 298      C14B
 299 0061 6D7E6CF6 		.ascii	"m~l\366\026\207{\317\351\257O\177\347t\367\271=W\253"
 299      16877BCF 
 299      E9AF4F7F 
 299      E774F7B9 
 299      3D57AB
 300 0074 411A72B5 		.ascii	"A\032r\265\376B\243\311\327j4\015\240N\302\345\015\266"
 300      FE42A3C9 
 300      D76A340D 
ARM GAS  C:\Users\info\AppData\Local\Temp\ccOo2neL.s 			page 23


 300      A04EC2E5 
 300      0DB6
 301 0086 2F34CAE5 		.ascii	"/4\312\345\003R\005R\013r\036\344K\300}\005\022\011"
 301      03520552 
 301      0B721EE4 
 301      4BC07D05 
 301      1209
 302 0098 128534AF 		.ascii	"\022\2054\257]UR\237\012\020\177\220@\220b\220\"\220"
 302      5D55529F 
 302      0A107F90 
 302      40906290 
 302      2290
 303 00aa 63204112 		.ascii	"c A\022\016I\330\251W\255\324\237\357[!\365\017\222"
 303      0E49D8A9 
 303      57ADD49F 
 303      EF5B21F5 
 303      0F92
 304 00bc 7CC8FD6B 		.ascii	"|\310\375kU\372\023\216\006)\006\331G\275\344C\346\021"
 304      55FA138E 
 304      062906D9 
 304      47BDE443 
 304      E611
 305 00ce 0D9D4F4D 		.ascii	"\015\235OM\341#H}\325|\222\230\215Sb\372\0201\177\244"
 305      E123487D 
 305      D57C9298 
 305      8D5362FA 
 305      10317FA4 
 306 00e2 BF1D9EBF 		.ascii	"\277\035\236\277\006\211\001\371\006$\016$B\312\015"
 306      068901F9 
 306      06240E24 
 306      42CA0D
 307 00f1 96FA4749 		.ascii	"\226\372GI9\233z\221\\\032\246\361\355\200{%\307\327"
 307      399B7A91 
 307      5C1AA6F1 
 307      ED807B25 
 307      C7D7
 308 0103 09F77F48 		.ascii	"\011\367\177H>\264R_yn\276T\361\375J@k\372\007st]\350"
 308      3EB4525F 
 308      796EBE54 
 308      F1FD4A40 
 308      6BFA0773 
 309 011a 2A421A44 		.ascii	"*B\032D/\2154\357\032b\221\356\344\0011E\220s\213\334"
 309      2F8D34EF 
 309      1A6291EE 
 309      E4013145 
 309      90738BDC 
 310 012e 59961E28 		.ascii	"Y\226\036(\034i\004\212G\\\203\007\216\256!z)&\344\276"
 310      1C69048A 
 310      475C8307 
 310      8EAE217A 
 310      2926E4BE 
 311 0142 6424F274 		.ascii	"d$\362tJ\274**\350\202\322\201\363'\261\227\306G\374"
 311      4ABC2A2A 
 311      E882D281 
 311      F327B197 
 311      C647FC
 312 0155 B0D43596 		.ascii	"\260\3245\226\203nK\2308\350\215\301'<\367>?\360qH\241"
ARM GAS  C:\Users\info\AppData\Local\Temp\ccOo2neL.s 			page 24


 312      836E4B98 
 312      38E88DC1 
 312      273CF73E 
 312      3FF07148 
 313 016a 08578A28 		.ascii	"\010W\212(\012\241JfZ\022\213v\341Q\001\371\353\221"
 313      0AA14A66 
 313      5A128B76 
 313      E15101F9 
 313      EB91
 314 017c 16D4C78D 		.ascii	"\026\324\307\215\2317g\200\032\250GsA\355\370\261\352"
 314      99376780 
 314      1AA84773 
 314      41EDF8B1 
 314      EA
 315 018d 8511FF96 		.ascii	"\205\021\377\226\270\320\226\254\356\315\235\201\202"
 315      B8D096AC 
 315      EECD9D81 
 315      82
 316 019a 8310823F 		.ascii	"\203\020\202?\375~\331\227\006\025!=*DX&\221)\256\027"
 316      FD7ED997 
 316      0615213D 
 316      2A445826 
 316      9129AE17 
 317 01ae C5E17F13 		.ascii	"\305\341\177\0233<\353\350\035,\253\305\341=\242\367"
 317      333CEBE8 
 317      1D2CABC5 
 317      E13DA2F7 
 318 01be 1C0D5A12 		.ascii	"\034\015Z\022\204\026\006i\320a\024L\2334\350(8<\202"
 318      84160669 
 318      D061144C 
 318      9B34E828 
 318      383C82
 319 01d1 82089B6B 		.ascii	"\202\010\233kg\033\022\275\365\022:\345\277\241\253"
 319      671B12BD 
 319      F5123AE5 
 319      BFA1AB
 320 01e0 07F7A66B 		.ascii	"\007\367\246k\215\033\010:e\215\350\377):\006L\012\240"
 320      8D1B083A 
 320      658DE8FF 
 320      293A064C 
 320      0AA0
 321 01f2 FD10B46B 		.ascii	"\375\020\264kP12JA&\016\246&\371h\005fCK\265\304vt\355"
 321      5031324A 
 321      41260EA6 
 321      26F96805 
 321      66434BB5 
 322 020a AD833A88 		.ascii	"\255\203:\2104H\217&\021\321\037\224?\367c:i.u\215\034"
 322      34488F26 
 322      11D11F94 
 322      3FF7633A 
 322      692E758D 
 323 021f D6E2F9E4 		.ascii	"\326\342\371\344Yh)\271z\306\027\005\263\230\373Z\236"
 323      596829B9 
 323      7AC61705 
 323      B398FB5A 
 323      9E
 324 0230 FE698D28 		.ascii	"\376i\215(\"\364\003\014V\2060:\210BH\352\203\200\234"
ARM GAS  C:\Users\info\AppData\Local\Temp\ccOo2neL.s 			page 25


 324      22F4030C 
 324      5686303A 
 324      884248EA 
 324      83809C
 325 0243 5A9C2780 		.ascii	"Z\234'\2009\370$(t\034\270\2252\356\007\263\017\234"
 325      39F82428 
 325      741CB895 
 325      32EE07B3 
 325      0F9C
 326 0255 F6C32588 		.ascii	"\366\303%\210\0160\264\375\376z\354\036`lcP\201(\276"
 326      0E30B4FD 
 326      FE7AEC1E 
 326      606C6350 
 326      8128BE
 327 0268 812A6080 		.ascii	"\201*`\200re\200\037\3204#\234T\037a\307h\323C<'\215"
 327      7265801F 
 327      D034239C 
 327      541F61C7 
 327      68D3433C 
 328 027e CED31A71 		.ascii	"\316\323\032q\256\226\372S\262S\211\346\300\377\022"
 328      AE96FA53 
 328      B25389E6 
 328      C0FF12
 329 028d A46529EA 		.ascii	"\244e)\352\311\337\362\322\373\355\034\261\257H\354"
 329      C9DFF2D2 
 329      FBED1CB1 
 329      AF48EC
 330 029c EBD8F64E 		.ascii	"\353\330\366NF\261(~\007=\303\011\016\035PX\034\240"
 330      46B1287E 
 330      073DC309 
 330      0E1D5058 
 330      1CA0
 331 02ae 138DF251 		.ascii	"\023\215\362Q\027\254\275*\3646t\335\376\270\274\316"
 331      17ACBD2A 
 331      F43674DD 
 331      FEB8BCCE 
 332 02be 0F37B185 		.ascii	"\0177\261\205\246\226\352\276\262\226\253Zj#\024j\020"
 332      A696EABE 
 332      B296AB5A 
 332      6A23146A 
 332      10
 333 02cf 3556B4A7 		.ascii	"5V\264\247\345\352yz\004\257\320;E\351\271dz\375\345"
 333      E5EA797A 
 333      04AFD03B 
 333      45E9B964 
 333      7AFDE5
 334 02e2 854F0546 		.ascii	"\205O\005F\317\265\243~F\206\350J\204\216\213\011\014"
 334      CFB5A37E 
 334      4686E84A 
 334      848E8B09 
 334      0C
 335 02f3 552BECAA 		.ascii	"U+\354\252yv\265\224\335\266m\211\365Z|\347\247\262"
 335      7976B594 
 335      DDB66D89 
 335      F55A7CE7 
 335      A7B2
 336 0305 3BCDD8DD 		.ascii	";\315\330\335\255_w\312\300/\255\"\217\344\325\273\227"
ARM GAS  C:\Users\info\AppData\Local\Temp\ccOo2neL.s 			page 26


 336      AD5F77CA 
 336      C02FAD22 
 336      8FE4D5BB 
 336      97
 337 0316 96ABF144 		.ascii	"\226\253\361D\247\037\355\0156t\206\365\336sem\2727"
 337      A71FED0D 
 337      367486F5 
 337      DE73656D 
 337      BA37
 338 0328 1FDB176F 		.ascii	"\037\333\027or\235\317\321\320\316\312\241\235\3529"
 338      729DCFD1 
 338      D0CECAA1 
 338      9DEA39
 339 0337 9DE905A1 		.ascii	"\235\351\005\241\345@h\343IX\012M 0T\247\204V\307\207"
 339      E54068E3 
 339      49580A4D 
 339      203054A7 
 339      8456C787 
 340 034b 769E8656 		.ascii	"v\236\206V\330\373\270T\207_\374\324\320.2r\325Go'\013"
 340      D8FBB854 
 340      875FFCD4 
 340      D02E3272 
 340      D5476F27 
 341 0360 6E630333 		.ascii	"nc\0033\346\244&\245\030\335\306Ff\314\032\351\271\347"
 341      E6A426A5 
 341      18DDC646 
 341      66CC1AE9 
 341      B9E7
 342 0372 CB6A4330 		.ascii	"\313jC0\250\017\023o\367\031Xm\230\003\2528\220\230"
 342      A80F136F 
 342      F719586D 
 342      9803AA38 
 342      9098
 343 0384 2DE04D98 		.ascii	"-\340M\230\216\336:\334\260[j{\003\324\232\201\324\032"
 343      8EDE3ADC 
 343      B05B6A7B 
 343      03D49A81 
 343      D41A
 344 0396 1DCE626D 		.ascii	"\035\316bm\315\371C\227g\340\022\246\014\344\324\024"
 344      CDF94397 
 344      67E012A6 
 344      0CE4D414 
 345 03a6 EB701353 		.ascii	"\353p\023S\016\334\331\225ld\275B\271\342\343\317\212"
 345      0EDCD995 
 345      6C64BD42 
 345      B9E2E3CF 
 345      8A
 346 03b7 CF0ED7D6 		.ascii	"\317\016\327\326\227z|\215A+NT\326{1\350BP\317\227\367"
 346      977A7C8D 
 346      412B4E54 
 346      D67B31E8 
 346      4250CF97 
 347 03cc 2FC4B759 		.ascii	"/\304\267Y\223L3\220\321|v\261\275\007\343Q\326\266"
 347      934C3390 
 347      D17C76B1 
 347      BD07E351 
 347      D6B6
ARM GAS  C:\Users\info\AppData\Local\Temp\ccOo2neL.s 			page 27


 348 03de A5B6AA4E 		.ascii	"\245\266\252N\207E-U\352\273\257uh\361&\246$T\325\225"
 348      87452D55 
 348      EABBAF75 
 348      68F126A6 
 348      2454D595 
 349 03f2 F8E15CA6 		.ascii	"\370\341\\\246\234\231\034s\315d#\013\240\276*)\201"
 349      9C991C73 
 349      CD64230B 
 349      A0BE2A29 
 349      81
 350 0403 741F626D 		.ascii	"t\037bm\373^\214\017\223\0129\037\012\305$\346*\305"
 350      FB5E8C0F 
 350      930A391F 
 350      0AC524E6 
 350      2AC5
 351 0415 7C56296A 		.ascii	"|V)j.\236\337o\304%\024,\264\326\246\2772 }0\335\246"
 351      2E9EDF6F 
 351      C425142C 
 351      B4D6A6BF 
 351      32207D30 
 352 042b E21A511F 		.ascii	"\342\032Q\037\254A\2550\363}0\363\350\016l\324\371\322"
 352      AC41AD30 
 352      F37D30F3 
 352      E80E6CD4 
 352      F9D2
 353 043d 46BD09C6 		.ascii	"F\275\011\306~0J5e\350/\264\246\334\206\344\337R\346"
 353      7E304A35 
 353      65E82FB4 
 353      A6DC86E4 
 353      DF52E6
 354 0450 7CBE9E2D 		.ascii	"|\276\236-\221\352\324\256;z\\\315\206\330{S\254\320"
 354      91EAD4AE 
 354      3B7A5CCD 
 354      86D87B53 
 354      ACD0
 355 0462 4E37C4BD 		.ascii	"N7\304\275i\207\030\3338\277\220T\225\001\030\342\256"
 355      698718DB 
 355      38BF9054 
 355      950118E2 
 355      AE
 356 0473 32C46D24 		.ascii	"2\304m$\215!\317\256?\233\335;\033\016>6\342\263,\005"
 356      8D21CFAE 
 356      3F9BDD3B 
 356      1B0E3E36 
 356      E2B32C05 
 357 0487 BB3BFA53 		.ascii	"\273;\372S|\325\312\3624\245'\363\314\372Z/~\367<\360"
 357      7CD5CAF2 
 357      34A527F3 
 357      CCFA5A2F 
 357      7EF73CF0 
 358 049b D83D435C 		.ascii	"\330=C\\a\316\033B\270\201\215\322s\356`\001I\364\002"
 358      61CE1B42 
 358      B8818DD2 
 358      73EE6001 
 358      49F402
 359 04ae 92E8C9C9 		.ascii	"\222\350\311\311\231\\\252\027\260T\267ny\262\327\007"
 359      995CAA17 
ARM GAS  C:\Users\info\AppData\Local\Temp\ccOo2neL.s 			page 28


 359      B054B76E 
 359      79B2D707 
 360 04be 77B23C14 		.ascii	"w\262<\024\244\336o\345\252\362>c9\011o\004Fz\254\204"
 360      A4DE6FE5 
 360      AAF23E63 
 360      39096F04 
 360      467AAC84 
 361 04d2 B7C05D33 		.ascii	"\267\300]3)\021\215\233\005z\002\324\027H\324\207\301"
 361      29118D9B 
 361      057A02D4 
 361      1748D487 
 361      C1
 362 04e3 F848AACB 		.ascii	"\370H\252\313{S\367x\343\033l\210CG.\325\373\310\251"
 362      7B53F778 
 362      E31B6C88 
 362      43472ED5 
 362      FBC8A9
 363 04f6 9EEAE099 		.ascii	"\236\352\340\231\212\0039\325\357\323T?\005.\243\012"
 363      8A0339D5 
 363      EFD3543F 
 363      052EA30A 
 364 0506 971139D5 		.ascii	"\227\0219\325\362f\361g\233\245\377\330\330\003\035"
 364      F266F167 
 364      9BA5FFD8 
 364      D8031D
 365 0515 1E644938 		.ascii	"\036dI8R8^\244\247\033\361sy\027w%\345_4\270\367\346"
 365      52385EA4 
 365      A71BF173 
 365      79177725 
 365      E55F34B8 
 366 052b 73B6373B 		.ascii	"s\2667;\256\\\357\360u\033_0\343\272\311\236\323:\374"
 366      AE5CEFF0 
 366      751B5F30 
 366      E3BAC99E 
 366      D33AFC
 367 053e 92794ACC 		.ascii	"\222yJ\314\337\234\345\207\327{Q%\263b\364\202\027\033"
 367      DF9CE587 
 367      D77B5125 
 367      B362F482 
 367      171B
 368 0550 52076A72 		.ascii	"R\007jr\306\223\012\037\234\302\332\332\\9Y\276x'Sn"
 368      C6930A1F 
 368      9CC2DADA 
 368      5C3959BE 
 368      7827536E 
 369 0564 968EEDF5 		.ascii	"\226\216\355\365\303{\230r\343QU\206\217{\020\306\346"
 369      C37B9872 
 369      E3515586 
 369      8F7B10C6 
 369      E6
 370 0575 786B76AF 		.ascii	"xkv\257\017>\304\000/.\215\237D\370\004S6\265\225-\301"
 370      0F3EC400 
 370      2F2E8D9F 
 370      44F80453 
 370      36B5952D 
 371 058a A7D97361 		.ascii	"\247\331sa\307\225W\01073\245qb\270\032\343~\246\034"
 371      C7955708 
ARM GAS  C:\Users\info\AppData\Local\Temp\ccOo2neL.s 			page 29


 371      3733A571 
 371      62B81AE3 
 371      7EA61C
 372 059d EE4B6AF3 		.ascii	"\356Kj\363\302#L\331\3772\267\324\210'\231R?V\225\347"
 372      C2234CD9 
 372      FF32B7D4 
 372      88279952 
 372      3F5695E7 
 373 05b1 85377853 		.ascii	"\2057xSe\303\306C\2713p6S\326n*\250\304\270\230)\315"
 373      65C3C643 
 373      B9337036 
 373      53D66E2A 
 373      A8C4B898 
 374 05c7 BDC54FBD 		.ascii	"\275\305O\275\361Y\246\364^O\375'nf\317\367\333[S\275"
 374      F159A6F4 
 374      5E4FFD27 
 374      6E66CFF7 
 374      DB5B53BD 
 375 05db 700F535E 		.ascii	"p\017S^\025\257\253\320\342a\246\334=\367|\324\200W"
 375      15AFABD0 
 375      E261A6DC 
 375      3DF77CD4 
 375      8057
 376 05ed FB30CEB5 		.ascii	"\3730\316\265\253\341\255\272\203)e\265\317\033\274"
 376      ABE1ADBA 
 376      832965B5 
 376      CF1BBC
 377 05fc F021A63C 		.ascii	"\360!\246<\\]\260\027\341:\2464\357\030J\023p7S^\216"
 377      5C5DB017 
 377      E13AA634 
 377      EF184A13 
 377      7037535E 
 378 0611 6F4BF0C2 		.ascii	"oK\360\302\217\230R\323=Ph\300\011:\252\024U&\016I\007"
 378      8F9852D3 
 378      3D5068C0 
 378      093AAA14 
 378      55260E49 
 379 0626 26173946 		.ascii	"&\0279F\034\330<\\\247\307\231\264q\366pAz\2737\232"
 379      1CD83C5C 
 379      A7C799B4 
 379      71F67041 
 379      7ABB379A 
 380 063a 37E50A9E 		.ascii	"7\345\012\2367/`\336\036\262\244\372\262\363\276\251"
 380      372F60DE 
 380      1EB2A4FA 
 380      B2F3BEA9 
 381 064a 2AEB16C5 		.ascii	"*\353\026\305$#\315p\212\200\321a!@\336]\357\221\315"
 381      2423CD70 
 381      8A80D161 
 381      2140DE5D 
 381      EF91CD
 382 065d 72956C19 		.ascii	"r\225l\031\015\205\273*[\015b\321W\024\272\336\023:"
 382      0D85BB2A 
 382      5B0D62D1 
 382      5714BADE 
 382      133A
 383 066f 4637D612 		.ascii	"F7\326\022\005:\262uF\272\350Z\215\351~_+\201\335e\202"
ARM GAS  C:\Users\info\AppData\Local\Temp\ccOo2neL.s 			page 30


 383      053AB275 
 383      46BAE85A 
 383      8DE97E5F 
 383      2B81DD65 
 384 0684 C10B38D7 		.ascii	"\301\0138\327\031\227\374v\212\256\004L\235oW\341\321"
 384      1997FC76 
 384      8AAE044C 
 384      9D6F57E1 
 384      D1
 385 0695 CA81DB2F 		.ascii	"\312\201\333/\271ylQ\201vr\320\355\012t\207\012\224"
 385      B9796C51 
 385      817672D0 
 385      ED0A7487 
 385      0A94
 386 06a7 63DCAA04 		.ascii	"c\334\252\004\227\244\026\\3\347u\253\3425M\305\353"
 386      97A4165C 
 386      33E775AB 
 386      E2354DC5 
 386      EB
 387 06b8 220599A9 		.ascii	"\"\005\231\251 \267\251 y\247\273\024\350V\025(\237"
 387      20B7A920 
 387      79A7BB14 
 387      E8561528 
 387      9F
 388 06c9 AD2285EB 		.ascii	"\255\"\205\353FO\350\004\232:i\315\012v\235Z\\|b\267"
 388      464FE804 
 388      9A3A69CD 
 388      0A769D5A 
 388      5C7C62B7 
 389 06dd 2BD84D6A 		.ascii	"+\330Mj~\2738\354\204Bw\263\032\226\347[\252\370\335"
 389      7EBB38EC 
 389      844277B3 
 389      1A96E75B 
 389      AAF8DD
 390 06f0 A086E567 		.ascii	"\240\206\345g\354)\277r2\324W\016\213\217V;\327x\262"
 390      EC29BF72 
 390      32D4570E 
 390      8B8F563B 
 390      D778B2
 391 0703 5184633E 		.ascii	"Q\204c>\2404R\245\323\270}e\363\253*U%\251|@'\025\222"
 391      A03452A5 
 391      D3B87D65 
 391      F3AB2A55 
 391      25A97C40 
 392 071a DFA9258A 		.ascii	"\337\251%\212\316j\252\364\273C\204\212\207\322\205"
 392      CE6AAAF4 
 392      BB43848A 
 392      87D285
 393 0729 20344858 		.ascii	" 4HX\355\224\3600>:$\004\243\\a\036\312\006\331\015"
 393      ED94F030 
 393      3E3A2404 
 393      A35C611E 
 393      CA06D90D 
 394 073d B207240F 		.ascii	"\262\007$\017\244\000$\023\344{\220# \371 \373A\366"
 394      A4002413 
 394      E47B9023 
 394      20F920FB 
ARM GAS  C:\Users\info\AppData\Local\Temp\ccOo2neL.s 			page 31


 394      41F6
 395 074f 821C0029 		.ascii	"\202\034\000)\004\311\002\331\007\222\003\262\013\344"
 395      04C902D9 
 395      079203B2 
 395      0BE4
 396 075d A0308F8B 		.ascii	"\2400\217\213\246k\013=xbZ\330\223\245!\335\357\203"
 396      A66B0B3D 
 396      78625AD8 
 396      93A521DD 
 396      EF83
 397 076f 098524D4 		.ascii	"\011\205$\324\201\253[\2622f\342JZ\007\204\247\233k"
 397      81AB5BB2 
 397      3266E24A 
 397      5A0784A7 
 397      9B6B
 398 0781 3F4001C1 		.ascii	"?@\001\301\352\334\217\001\337\237\223;\233\245\214"
 398      EADC8F01 
 398      DF9F933B 
 398      9BA58C
 399 0790 A677C82C 		.ascii	"\246w\310,\025\301@G\005\367+\211L\032\245[\332\277"
 399      15C14047 
 399      05F72B89 
 399      4C1AA55B 
 399      DABF
 400 07a2 FF914F80 		.ascii	"\377\221O\200D\3205-A\315\377\234\035\251\247\235\211"
 400      44D0352D 
 400      41CDFF9C 
 400      1DA9A79D 
 400      89
 401 07b3 EB3CCEDA 		.ascii	"\353<\316\332\305\\Z\341'\212 \237\026\306\016\337\355"
 401      C55C5AE1 
 401      278A209F 
 401      16C60EDF 
 401      ED
 402 07c4 F6C2CD3A 		.ascii	"\366\302\315:\217\003\241?;\020\226V"
 402      8F03A13F 
 402      3B109656 
 403 07d0 3DDE271D 		.ascii	"=\336'\035\002ErH\033\270\235U\257\307\335\014[\323"
 403      02457248 
 403      1BB89D55 
 403      AFC7DD0C 
 403      5BD3
 404 07e2 76B46126 		.ascii	"v\264a&\036\246\312\357\2726\324$ \2445\006@\025\366"
 404      1EA6CAEF 
 404      BA36D424 
 404      20A43506 
 404      4015F6
 405 07f5 B88CC639 		.ascii	"\270\214\3069\332`\351!x^p0y\357\235\024\214h\265\240"
 405      DA60E921 
 405      785E7030 
 405      79EF9D14 
 405      8C68B5A0 
 406 0809 D570EC2A 		.ascii	"\325p\354*<\330\235d\354<\246\266\0142w\\\200\314uA"
 406      3CD89D64 
 406      EC3CA6B6 
 406      0C32775C 
 406      80CC7541 
ARM GAS  C:\Users\info\AppData\Local\Temp\ccOo2neL.s 			page 32


 407 081d E6AAA4A9 		.ascii	"\346\252\244\251\275\006\317W!\360v\2206\220V\220\026"
 407      BD06CF57 
 407      21F07690 
 407      36905690 
 407      16
 408 082e 908B2017 		.ascii	"\220\213 \027@\316\203\234\0039\013R\017r\006\3444H"
 408      40CE839C 
 408      03390B52 
 408      0F7206E4 
 408      3448
 409 0840 1D482DC8 		.ascii	"\035H-\310)\020\027H\015H5H\245\307\322\034\357\344"
 409      29101748 
 409      0D483548 
 409      A5C7D21C 
 409      EFE4
 410 0852 36DA0998 		.ascii	"6\332\011\230\340*e\367\\\342\312\201:\317R\251\303"
 410      E02A65F7 
 410      5CE2CA81 
 410      3ACF52A9 
 410      C3
 411 0863 CFCFF3C7 		.ascii	"\317\317\363\307N\367\036oA*,\371z\374L\301\266\251"
 411      4EF71E6F 
 411      412A2CF9 
 411      7AFC4CC1 
 411      B6A9
 412 0875 61F9C239 		.ascii	"a\371\3029\252`\333\325\260\334{\346\211\002\355P\203"
 412      AA60DBD5 
 412      B0DC7BE6 
 412      8902ED50 
 412      83
 413 0886 722F8F61 		.ascii	"r/\217a\005z\305\023z\371\265\262y]\301^S\303\362\257"
 413      057AC513 
 413      7AF9B5B2 
 413      795DC15E 
 413      53C3F2AF 
 414 089a 846E05DB 		.ascii	"\204n\005\333\255\206\345\253b\247\202\355Q\303\362"
 414      AD86E5AB 
 414      62A782ED 
 414      51C3F2
 415 08a9 65BE5DC1 		.ascii	"e\276]\301^W\303\362\331mU\260\275jX>\273-i\334+\341"
 415      5E57C3F2 
 415      D96D55B0 
 415      BD6A583E 
 415      BB2D69DC 
 416 08bf 868476BF 		.ascii	"\206\204v\277\022.OM[M\332lV'\341\240\217\356Kpw\235"
 416      122E4F4D 
 416      5B4DDA6C 
 416      5627E1A0 
 416      8FEE4B70 
 417 08d5 1C7C8D76 		.ascii	"\034|\215vU\032WW\037\252\3439\367\025\2353\031\274"
 417      551A5757 
 417      1FAAE339 
 417      F7159D33 
 417      19BC
 418 08e7 0136E78F 		.ascii	"\0016\347\217S\341\374\321\206\333\265M\302\034\005"
 418      53E1FCD1 
 418      86DBB54D 
ARM GAS  C:\Users\info\AppData\Local\Temp\ccOo2neL.s 			page 33


 418      C21C05
 419 08f6 D30C6BBC 		.ascii	"\323\014k\274\021:\263*8\015J\303A\246\375\212\002\035"
 419      113AB32A 
 419      380D4AC3 
 419      41A6FD8A 
 419      021D
 420 0908 E0FF2581 		.ascii	"\340\377%\201\374\226\227\353\3058\354-Vt\263\233f\223"
 420      FC9697EB 
 420      C538EC2D 
 420      5674B39B 
 420      6693
 421 091a A24B78BE 		.ascii	"\242Kx\276T~\0074\322\222\301b)\347cy\245\036\013\027"
 421      547E0734 
 421      D292C162 
 421      29E76379 
 421      A51E0B17 
 422 092e 7A59A751 		.ascii	"zY\247QL1S\360\344T\260\312[_A\213\202*\232s]\222\026"
 422      4C3153F0 
 422      E454B0CA 
 422      5B5F418B 
 422      822A9A73 
 423 0945 C8987400 		.ascii	"\310\230t\000<a*\374=\325\244^\346\223z\005\222\332"
 423      3C612AFC 
 423      3DD5A45E 
 423      E6937A05 
 423      92DA
 424 0957 A996D4CB 		.ascii	"\251\226\324\313\036I\355TK\352\200GR/\323\244\226\323"
 424      1E49ED54 
 424      4BEA8047 
 424      522FD3A4 
 424      96D3
 425 0969 A4B2441E 		.ascii	"\244\262D\036K~\223$\222P[\243\274\275:\271D\036K\373"
 425      4B7E9324 
 425      92505BA3 
 425      BCBD3AB9 
 425      441E4BFB 
 426 097d 0DA30FAF 		.ascii	"\015\243\017\257\013\224\250J\177\221rf\331\235F\317"
 426      0B94A84A 
 426      7F917266 
 426      D99D46CF 
 427 098d 2C559E67 		.ascii	",U\236g\026\326\2663\371\327\244\215\224\371\037\224"
 427      16D6B633 
 427      F9D7A48D 
 427      94F91F94 
 428 099d B1AAE437 		.ascii	"\261\252\3447\345\303\354\033\211\354K\011\231\353&"
 428      E5C3EC1B 
 428      89EC4B09 
 428      99EB26
 429 09ac F6C3EBD4 		.ascii	"\366\303\353\324\344\367\235\306\351\277\265\365\320"
 429      E4F79DC6 
 429      E9BFB5F5 
 429      D0
 430 09b9 80BA05E9 		.ascii	"\200\272\005\351\213\317\243\222\316\021\235\374\255"
 430      8BCFA392 
 430      CE119DFC 
 430      AD
 431 09c6 AD6D456A 		.ascii	"\255mEj^\222\230\222 \212\177\244@tAY)\027\370o>\327"
ARM GAS  C:\Users\info\AppData\Local\Temp\ccOo2neL.s 			page 34


 431      5E929892 
 431      208A7FA4 
 431      40744159 
 431      2917F86F 
 432 09dc 05F2CD67 		.ascii	"\005\362\315g\370\326\305\006\003\036c\357\265{{\262"
 432      F8D6C506 
 432      031E63EF 
 432      B57B7BB2 
 433 09ec F205E9D3 		.ascii	"\362\005\351\323\321\304\005#\363B\235\364*\314\341"
 433      D1C40523 
 433      F3429DF4 
 433      2ACCE1
 434 09fb 5171D247 		.ascii	"Qq\322G\235\014f4\2571\342\015\276?\361\303Q\277\240"
 434      9D0C6634 
 434      AF31E20D 
 434      BE3FF1C3 
 434      51BFA0
 435 0a0e F2E1E826 		.ascii	"\362\341\350&3>_\363d\243\222\216[\3148q\266b\373\214"
 435      333E5FF3 
 435      64A3928E 
 435      5BCC3871 
 435      B662FB8C 
 436 0a22 E9D37187 		.ascii	"\351\323q\207\246\343\266\234\216\364\272\355'\350\267"
 436      A6E3B69C 
 436      8EF4BAED 
 436      27E8B7
 437 0a31 3DF8E9FC 		.ascii	"=\370\351\374}\3367CyI\256\024DQ\350\206\022\306\015"
 437      7DDE3743 
 437      7949AE14 
 437      4451E886 
 437      12C60D
 438 0a44 817D6146 		.ascii	"\201}aFwi\010'\366]\276k\300\351\323\207\360d\344Y\256"
 438      77690827 
 438      F65DBE6B 
 438      C0E9D387 
 438      F064E459 
 439 0a59 979BD83D 		.ascii	"\227\233\330=F\2544\253\370\205nzb\367)\261A\231Xu]"
 439      46AC34AB 
 439      F8856E7A 
 439      62F729B1 
 439      41995875 
 440 0a6e 7F2666C4 		.ascii	"\177&f\304\\\235\377\312\020k\265\004\201\006\024R\003"
 440      5C9DFFCA 
 440      106BB504 
 440      81061452 
 440      03
 441 0a7f 32A90794 		.ascii	"2\251\007\224\324\361\246k\311\336\374I\206|\236\344"
 441      D4F1A66B 
 441      C9DEFC49 
 441      867C9EE4 
 442 0a8f BE7BB0B3 		.ascii	"\276{\260\263\002\271\023\322\215w\012\375x\360}\217"
 442      02B913D2 
 442      8D770AFD 
 442      78F07D8F 
 443 0a9f 7DF25002 		.ascii	"}\362P\002?\244\340\246\272\334I\2173\322\035\017\360"
 443      3FA4E0A6 
 443      BADC498F 
ARM GAS  C:\Users\info\AppData\Local\Temp\ccOo2neL.s 			page 35


 443      33D21D0F 
 443      F0
 444 0ab0 2309FC88 		.ascii	"#\011\374\210\202\033\366\347%\320\3175\242\004\366"
 444      821BF6E7 
 444      25D0CF35 
 444      A204F6
 445 0abf E7831C16 		.ascii	"\347\203\034\026\310g\364\367h\255\007\360\205\226\301"
 445      C867F4F7 
 445      68AD07F0 
 445      8596C1
 446 0ace 061FFF14 		.ascii	"\006\037\377\024\012v\301\352\241_:\345\332\256A\217"
 446      0A76C1EA 
 446      A15F3AE5 
 446      DAAE418F 
 447 0ade 057FB90F 		.ascii	"\005\177\271\017U\240\307d\343\320\204\307gw0s\376\237"
 447      55A0C764 
 447      E3D084C7 
 447      67773073 
 447      FE9F
 448 0af0 485C9E50 		.ascii	"H\\\236P.i\011\351\021<\266\322###\022v\204bw\226\345"
 448      2E6909E9 
 448      113CB6D2 
 448      23232312 
 448      76846277 
 449 0b06 ACE0B13D 		.ascii	"\254\340\261=\0361\216JXr\237\035\037\2722\324\364\211"
 449      1E318E4A 
 449      58729F1D 
 449      1FBA32D4 
 449      F489
 450 0b18 D5F99933 		.ascii	"\325\371\2313\316f\217\374\253\315n\375\310\356\324"
 450      CE668FFC 
 450      ABCD6EFD 
 450      C8EED4
 451 0b27 7DF2B7CF 		.ascii	"}\362\267\317\347~\264h\221FkYf\216\3635\231\342mvg"
 451      E77EB468 
 451      91466B59 
 451      668EF335 
 451      99E26D76 
 452 0b3c A8C99980 		.ascii	"\250\311\231\200,\037\206\305\306\305D\306\231\243\347"
 452      2C1F86C5 
 452      C6C544C6 
 452      99A3E7
 453 0b4b 46D8A2AC 		.ascii	"F\330\242\254\216\271\301+C?\370}\230eUl\234\325\341"
 453      8EB9C12B 
 453      433FF87D 
 453      9865556C 
 453      9CD5E1
 454 0b5e 088B75C4 		.ascii	"\010\213u\304X\346Z\342\254fgL\\\330\373!\213=\015\266"
 454      58E65AE2 
 454      AC66674C 
 454      5CD8FB21 
 454      8B3D0DB6 
 455 0b72 E8D89838 		.ascii	"\350\330\2308gX\244=>\314\034\027\035\366\207\220\367"
 455      6758A43D 
 455      3ECC1C17 
 455      1DF68790 
 455      F7
ARM GAS  C:\Users\info\AppData\Local\Temp\ccOo2neL.s 			page 36


 456 0b83 431691A7 		.ascii	"C\026\221\247w\3551v\353\273V\363R[\230\315n\211\212"
 456      77ED3176 
 456      EBBB56F3 
 456      525B98CD 
 456      6E898A
 457 0b96 0FB78645 		.ascii	"\017\267\206E\233-\313\200K\230)\334\032a\216\217r\232"
 457      9B2DCB80 
 457      4B9829DC 
 457      1A618E8F 
 457      729A
 458 0ba8 9CAB62AD 		.ascii	"\234\253b\255\216\220e\032\037\211\312\362\377\027\023"
 458      8E90651A 
 458      1F89CAF2 
 458      FF1713
 459 0bb7 C72A4798 		.ascii	"\307*G\230\311\341\014\207aa\370_\205\204\204\305\207"
 459      C9E10C87 
 459      6161F85F 
 459      858484C5 
 459      87
 460 0bc8 462E3659 		.ascii	"F.6Y\034q\2260\232<\007\315\\\210E\363\326\353\271\374"
 460      1C719630 
 460      9A3C07CD 
 460      5C8845F3 
 460      D6EBB9FC 
 461 0bdc CC698E73 		.ascii	"\314i\216s\006P\373G1\261\253\224\206Y\324\366\3478"
 461      0650FB47 
 461      31B1AB94 
 461      8659D4F6 
 461      E738
 462 0bee F38ACFFF 		.ascii	"\363\212\317\377\376q(\261\314\010\267.\215\211\267"
 462      FE7128B1 
 462      CC08B72E 
 462      8D89B7
 463 0bfd 5BACE0D0 		.ascii	"[\254\340\320\354\264\276\345V\243\314\016\247)\326"
 463      ECB4BEE5 
 463      56A3CC0E 
 463      A729D6
 464 0c0c 6667F65F 		.ascii	"fg\366_\272\355rf\334M\206\310X[\214\011\242\007\253"
 464      BAED7266 
 464      DC4D86C8 
 464      585B8C09 
 464      A207AB
 465 0c1f 3EDE1911 		.ascii	">\336\031\021\312\314\340x\271\015\360\346\360p\222"
 465      CACCE078 
 465      B90DF0E6 
 465      F07092
 466 0c2e 19836DB1 		.ascii	"\031\203m\261\2054\3049\255\341\364Y\262\007\332\034"
 466      8534C439 
 466      ADE1F459 
 466      B207DA1C 
 467 0c3e A68818BB 		.ascii	"\246\210\030\273\323d\263/\267\3069\254\246\350\230"
 467      D364B32F 
 467      B7C639AC 
 467      A6E898
 468 0c4d 70AB6EA5 		.ascii	"p\253n\245)&\"\302au\352\254vK\014\344 R\317\026\303"
 468      292622C2 
 468      6175EAAC 
ARM GAS  C:\Users\info\AppData\Local\Temp\ccOo2neL.s 			page 37


 468      764B0CE4 
 468      2052CF16 
 469 0c62 A20F4C4E 		.ascii	"\242\017LN\235\374\240%\375|\227\306;L\226\250\030\313"
 469      9DFCA025 
 469      FD7C97C6 
 469      3B4C96A8 
 469      18CB
 470 0c74 D71264C9 		.ascii	"\327\022d\311b\011B\036fQnf{8\320\2162\2572Y\226\032"
 470      6209421E 
 470      66516E66 
 470      7B38D08E 
 470      32AF3259 
 471 0c8a 6806A21D 		.ascii	"h\006\242\035\221\360\354\263t\225\323\012wo\2139\034"
 471      91F0ECB3 
 471      7495D30A 
 471      776F8B39 
 471      1C
 472 0c9b 6EFA709B 		.ascii	"n\372p\233#\226\241|\354\326\225N\270\033)\232\254F"
 472      2396A17C 
 472      ECD6954E 
 472      B81B299A 
 472      AC46
 473 0cad A2C8ED36 		.ascii	"\242\310\3556{D\214!\326\266\322\032eZa\013w.\233\025"
 473      7B448C21 
 473      D6B6D21A 
 473      655A610B 
 473      772E9B15 
 474 0cc1 11658B25 		.ascii	"\021e\213%\274M2\3577\344,\311\006\203\023\026\213i"
 474      BC4D32EF 
 474      37E42CC9 
 474      06831316 
 474      8B69
 475 0cd3 99D516B9 		.ascii	"\231\325\026\271\314\251\247\317\264g\340\2128\033P"
 475      CCA9A7CF 
 475      B467E08A 
 475      381B50
 476 0ce2 888D8F72 		.ascii	"\210\215\217rH\026\223\335\341\037nv\232M\320)>\326"
 476      481693DD 
 476      E11F6E76 
 476      9A4DD029 
 476      3ED6
 477 0cf4 E4B4455B 		.ascii	"\344\264E[\301\024H2\346\216\324\264h\341\302\257?\375"
 477      C1144832 
 477      E68ED4B4 
 477      68E1C2AF 
 477      3FFD
 478 0d06 56E788B5 		.ascii	"V\347\210\265\321t\031\035`c-\313\276\365'\212\247\303"
 478      D174191D 
 478      60632DCB 
 478      BEF5278A 
 478      A7C3
 479 0d18 598EF029 		.ascii	"Y\216\360)\376\374cc`v!\377V\247i\205\331\346\204\204"
 479      FEFC6363 
 479      607621FF 
 479      56A76985 
 479      D9E68484 
 480 0d2c 04328DEF 		.ascii	"\0042\215\357\031\355\230\003\253\032\302\267\305\232"
ARM GAS  C:\Users\info\AppData\Local\Temp\ccOo2neL.s 			page 38


 480      19ED9803 
 480      AB1AC2B7 
 480      C59A
 481 0d3a 2076F352 		.ascii	" v\363RB\233\240\355\320@\034\320\026\253\235o\360\367"
 481      429BA0ED 
 481      D0401CD0 
 481      16AB9D6F 
 481      F0F7
 482 0d4c 40475997 		.ascii	"@GY\227[\243f\3610j\231C\323\312\247\223,\347x\213\323"
 482      5BA366F1 
 482      306A9943 
 482      D3CAA793 
 482      2CE7788B 
 483 0d61 C8B2CAF2 		.ascii	"\310\262\312\362\024\370\332\242\207\235\020\360zW\247"
 483      14F8DAA2 
 483      879D10F0 
 483      7A57A7
 484 0d70 41DE10E0 		.ascii	"A\336\020\340!\300\275P\331\212$S\355M\333\235\376\257"
 484      21C0BD50 
 484      D98A2453 
 484      ED4DDB9D 
 484      FEAF
 485 0d82 2D7E879F 		.ascii	"-~\207\237\207i\246\274\223h\273\325\376\037A\337\012"
 485      8769A6BC 
 485      9368BBD5 
 485      FE1F41DF 
 485      0A
 486 0d93 14       		.ascii	"\024"
 487              		.text
 488              		.section	.gnu.lto_.symtab.792a64c9,"",%progbits
 489 0000 75387838 		.ascii	"u8x8_GetStringLineCnt\000"
 489      5F476574 
 489      53747269 
 489      6E674C69 
 489      6E65436E 
 490 0016 00       		.ascii	"\000"
 491 0017 00       		.ascii	"\000"
 492 0018 00       		.ascii	"\000"
 493 0019 00000000 		.ascii	"\000\000\000\000\000\000\000\000"
 493      00000000 
 494 0021 BD000000 		.ascii	"\275\000\000\000"
 495 0025 75387838 		.ascii	"u8x8_GetStringLineStart\000"
 495      5F476574 
 495      53747269 
 495      6E674C69 
 495      6E655374 
 496 003d 00       		.ascii	"\000"
 497 003e 00       		.ascii	"\000"
 498 003f 00       		.ascii	"\000"
 499 0040 00000000 		.ascii	"\000\000\000\000\000\000\000\000"
 499      00000000 
 500 0048 C2000000 		.ascii	"\302\000\000\000"
 501 004c 75387838 		.ascii	"u8x8_CopyStringLine\000"
 501      5F436F70 
 501      79537472 
 501      696E674C 
 501      696E6500 
ARM GAS  C:\Users\info\AppData\Local\Temp\ccOo2neL.s 			page 39


 502 0060 00       		.ascii	"\000"
 503 0061 00       		.ascii	"\000"
 504 0062 00       		.ascii	"\000"
 505 0063 00000000 		.ascii	"\000\000\000\000\000\000\000\000"
 505      00000000 
 506 006b C9000000 		.ascii	"\311\000\000\000"
 507 006f 75387838 		.ascii	"u8x8_DrawUTF8Line\000"
 507      5F447261 
 507      77555446 
 507      384C696E 
 507      6500
 508 0081 00       		.ascii	"\000"
 509 0082 00       		.ascii	"\000"
 510 0083 00       		.ascii	"\000"
 511 0084 00000000 		.ascii	"\000\000\000\000\000\000\000\000"
 511      00000000 
 512 008c 5E010000 		.ascii	"^\001\000\000"
 513 0090 75387838 		.ascii	"u8x8_DrawUTF8Lines\000"
 513      5F447261 
 513      77555446 
 513      384C696E 
 513      657300
 514 00a3 00       		.ascii	"\000"
 515 00a4 00       		.ascii	"\000"
 516 00a5 00       		.ascii	"\000"
 517 00a6 00000000 		.ascii	"\000\000\000\000\000\000\000\000"
 517      00000000 
 518 00ae 60010000 		.ascii	"`\001\000\000"
 519 00b2 75387838 		.ascii	"u8x8_DrawUTF8\000"
 519      5F447261 
 519      77555446 
 519      3800
 520 00c0 00       		.ascii	"\000"
 521 00c1 02       		.ascii	"\002"
 522 00c2 00       		.ascii	"\000"
 523 00c3 00000000 		.ascii	"\000\000\000\000\000\000\000\000"
 523      00000000 
 524 00cb 67010000 		.ascii	"g\001\000\000"
 525 00cf 75387838 		.ascii	"u8x8_GetUTF8Len\000"
 525      5F476574 
 525      55544638 
 525      4C656E00 
 526 00df 00       		.ascii	"\000"
 527 00e0 02       		.ascii	"\002"
 528 00e1 00       		.ascii	"\000"
 529 00e2 00000000 		.ascii	"\000\000\000\000\000\000\000\000"
 529      00000000 
 530 00ea 6C010000 		.ascii	"l\001\000\000"
 531              		.text
 532              		.section	.gnu.lto_.opts,"",%progbits
 533 0000 272D666D 		.ascii	"'-fmath-errno' '-fsigned-zeros' '-ftrapping-math' '"
 533      6174682D 
 533      6572726E 
 533      6F272027 
 533      2D667369 
 534 0033 2D666E6F 		.ascii	"-fno-trapv' '-fno-strict-overflow' '-fno-openmp' '-"
 534      2D747261 
ARM GAS  C:\Users\info\AppData\Local\Temp\ccOo2neL.s 			page 40


 534      70762720 
 534      272D666E 
 534      6F2D7374 
 535 0066 666E6F2D 		.ascii	"fno-openacc' '-mcpu=cortex-m3' '-mthumb' '-g' '-Og'"
 535      6F70656E 
 535      61636327 
 535      20272D6D 
 535      6370753D 
 536 0099 20272D66 		.ascii	" '-ffunction-sections' '-ffat-lto-objects' '-flto'\000"
 536      66756E63 
 536      74696F6E 
 536      2D736563 
 536      74696F6E 
 537              		.text
 538              		.cfi_sections	.debug_frame
 539              		.section	.text.u8x8_GetStringLineCnt,"ax",%progbits
 540              		.align	2
 541              		.global	u8x8_GetStringLineCnt
 542              		.thumb
 543              		.thumb_func
 544              		.type	u8x8_GetStringLineCnt, %function
 545              	u8x8_GetStringLineCnt:
 546              	.LFB0:
 547              		.file 1 "..\\u8g2_csrc\\u8x8_string.c"
   1:..\u8g2_csrc/u8x8_string.c **** /*
   2:..\u8g2_csrc/u8x8_string.c **** 
   3:..\u8g2_csrc/u8x8_string.c ****   u8x8_string.c
   4:..\u8g2_csrc/u8x8_string.c ****   
   5:..\u8g2_csrc/u8x8_string.c ****   string line procedures
   6:..\u8g2_csrc/u8x8_string.c ****   
   7:..\u8g2_csrc/u8x8_string.c ****   Universal 8bit Graphics Library (https://github.com/olikraus/u8g2/)
   8:..\u8g2_csrc/u8x8_string.c **** 
   9:..\u8g2_csrc/u8x8_string.c ****   Copyright (c) 2016, olikraus@gmail.com
  10:..\u8g2_csrc/u8x8_string.c ****   All rights reserved.
  11:..\u8g2_csrc/u8x8_string.c **** 
  12:..\u8g2_csrc/u8x8_string.c ****   Redistribution and use in source and binary forms, with or without modification, 
  13:..\u8g2_csrc/u8x8_string.c ****   are permitted provided that the following conditions are met:
  14:..\u8g2_csrc/u8x8_string.c **** 
  15:..\u8g2_csrc/u8x8_string.c ****   * Redistributions of source code must retain the above copyright notice, this list 
  16:..\u8g2_csrc/u8x8_string.c ****     of conditions and the following disclaimer.
  17:..\u8g2_csrc/u8x8_string.c ****     
  18:..\u8g2_csrc/u8x8_string.c ****   * Redistributions in binary form must reproduce the above copyright notice, this 
  19:..\u8g2_csrc/u8x8_string.c ****     list of conditions and the following disclaimer in the documentation and/or other 
  20:..\u8g2_csrc/u8x8_string.c ****     materials provided with the distribution.
  21:..\u8g2_csrc/u8x8_string.c **** 
  22:..\u8g2_csrc/u8x8_string.c ****   THIS SOFTWARE IS PROVIDED BY THE COPYRIGHT HOLDERS AND 
  23:..\u8g2_csrc/u8x8_string.c ****   CONTRIBUTORS "AS IS" AND ANY EXPRESS OR IMPLIED WARRANTIES, 
  24:..\u8g2_csrc/u8x8_string.c ****   INCLUDING, BUT NOT LIMITED TO, THE IMPLIED WARRANTIES OF 
  25:..\u8g2_csrc/u8x8_string.c ****   MERCHANTABILITY AND FITNESS FOR A PARTICULAR PURPOSE ARE 
  26:..\u8g2_csrc/u8x8_string.c ****   DISCLAIMED. IN NO EVENT SHALL THE COPYRIGHT HOLDER OR 
  27:..\u8g2_csrc/u8x8_string.c ****   CONTRIBUTORS BE LIABLE FOR ANY DIRECT, INDIRECT, INCIDENTAL, 
  28:..\u8g2_csrc/u8x8_string.c ****   SPECIAL, EXEMPLARY, OR CONSEQUENTIAL DAMAGES (INCLUDING, BUT 
  29:..\u8g2_csrc/u8x8_string.c ****   NOT LIMITED TO, PROCUREMENT OF SUBSTITUTE GOODS OR SERVICES; 
  30:..\u8g2_csrc/u8x8_string.c ****   LOSS OF USE, DATA, OR PROFITS; OR BUSINESS INTERRUPTION) HOWEVER 
  31:..\u8g2_csrc/u8x8_string.c ****   CAUSED AND ON ANY THEORY OF LIABILITY, WHETHER IN CONTRACT, 
  32:..\u8g2_csrc/u8x8_string.c ****   STRICT LIABILITY, OR TORT (INCLUDING NEGLIGENCE OR OTHERWISE) 
  33:..\u8g2_csrc/u8x8_string.c ****   ARISING IN ANY WAY OUT OF THE USE OF THIS SOFTWARE, EVEN IF 
ARM GAS  C:\Users\info\AppData\Local\Temp\ccOo2neL.s 			page 41


  34:..\u8g2_csrc/u8x8_string.c ****   ADVISED OF THE POSSIBILITY OF SUCH DAMAGE.    
  35:..\u8g2_csrc/u8x8_string.c **** 
  36:..\u8g2_csrc/u8x8_string.c **** */
  37:..\u8g2_csrc/u8x8_string.c **** 
  38:..\u8g2_csrc/u8x8_string.c **** #include "u8x8.h"
  39:..\u8g2_csrc/u8x8_string.c **** 
  40:..\u8g2_csrc/u8x8_string.c **** uint8_t u8x8_GetStringLineCnt(const char *str)
  41:..\u8g2_csrc/u8x8_string.c **** {
 548              		.loc 1 41 0
 549              		.cfi_startproc
 550              		@ args = 0, pretend = 0, frame = 0
 551              		@ frame_needed = 0, uses_anonymous_args = 0
 552              		@ link register save eliminated.
 553              	.LVL0:
  42:..\u8g2_csrc/u8x8_string.c ****   char e;
  43:..\u8g2_csrc/u8x8_string.c ****   uint8_t line_cnt = 1;
  44:..\u8g2_csrc/u8x8_string.c ****   if ( str == NULL )
 554              		.loc 1 44 0
 555 0000 0346     		mov	r3, r0
 556 0002 40B1     		cbz	r0, .L5
 557 0004 0120     		movs	r0, #1
 558              	.LVL1:
 559              	.L3:
  45:..\u8g2_csrc/u8x8_string.c ****     return 0;
  46:..\u8g2_csrc/u8x8_string.c ****   for(;;)
  47:..\u8g2_csrc/u8x8_string.c ****   {
  48:..\u8g2_csrc/u8x8_string.c ****     e = *str;
 560              		.loc 1 48 0
 561 0006 1A78     		ldrb	r2, [r3]	@ zero_extendqisi2
 562              	.LVL2:
  49:..\u8g2_csrc/u8x8_string.c ****     if ( e == '\0' )
 563              		.loc 1 49 0
 564 0008 32B1     		cbz	r2, .L2
  50:..\u8g2_csrc/u8x8_string.c ****       break;
  51:..\u8g2_csrc/u8x8_string.c ****     str++;
 565              		.loc 1 51 0
 566 000a 0133     		adds	r3, r3, #1
 567              	.LVL3:
  52:..\u8g2_csrc/u8x8_string.c ****     if ( e == '\n' )
 568              		.loc 1 52 0
 569 000c 0A2A     		cmp	r2, #10
 570 000e FAD1     		bne	.L3
  53:..\u8g2_csrc/u8x8_string.c ****       line_cnt++;
 571              		.loc 1 53 0
 572 0010 0130     		adds	r0, r0, #1
 573              	.LVL4:
 574 0012 C0B2     		uxtb	r0, r0
 575              	.LVL5:
 576 0014 F7E7     		b	.L3
 577              	.LVL6:
 578              	.L5:
  45:..\u8g2_csrc/u8x8_string.c ****   for(;;)
 579              		.loc 1 45 0
 580 0016 0020     		movs	r0, #0
 581              	.LVL7:
 582              	.L2:
  54:..\u8g2_csrc/u8x8_string.c ****   }
ARM GAS  C:\Users\info\AppData\Local\Temp\ccOo2neL.s 			page 42


  55:..\u8g2_csrc/u8x8_string.c ****   return line_cnt;
  56:..\u8g2_csrc/u8x8_string.c **** }
 583              		.loc 1 56 0
 584 0018 7047     		bx	lr
 585              		.cfi_endproc
 586              	.LFE0:
 587              		.size	u8x8_GetStringLineCnt, .-u8x8_GetStringLineCnt
 588 001a 00BF     		.section	.text.u8x8_GetStringLineStart,"ax",%progbits
 589              		.align	2
 590              		.global	u8x8_GetStringLineStart
 591              		.thumb
 592              		.thumb_func
 593              		.type	u8x8_GetStringLineStart, %function
 594              	u8x8_GetStringLineStart:
 595              	.LFB1:
  57:..\u8g2_csrc/u8x8_string.c **** 
  58:..\u8g2_csrc/u8x8_string.c **** 
  59:..\u8g2_csrc/u8x8_string.c **** /*
  60:..\u8g2_csrc/u8x8_string.c ****     Assumes strings, separated by '\n' in "str".
  61:..\u8g2_csrc/u8x8_string.c ****     Returns the string at index "line_idx". First strng has line_idx = 0
  62:..\u8g2_csrc/u8x8_string.c ****     Example:
  63:..\u8g2_csrc/u8x8_string.c ****       Returns "xyz" for line_idx = 1 with str = "abc\nxyz"
  64:..\u8g2_csrc/u8x8_string.c ****     Support both UTF8 and normal strings.
  65:..\u8g2_csrc/u8x8_string.c **** */
  66:..\u8g2_csrc/u8x8_string.c **** const char *u8x8_GetStringLineStart(uint8_t line_idx, const char *str )
  67:..\u8g2_csrc/u8x8_string.c **** {
 596              		.loc 1 67 0
 597              		.cfi_startproc
 598              		@ args = 0, pretend = 0, frame = 0
 599              		@ frame_needed = 0, uses_anonymous_args = 0
 600              		@ link register save eliminated.
 601              	.LVL8:
  68:..\u8g2_csrc/u8x8_string.c ****   char e;
  69:..\u8g2_csrc/u8x8_string.c ****   uint8_t line_cnt = 1;
  70:..\u8g2_csrc/u8x8_string.c ****   
  71:..\u8g2_csrc/u8x8_string.c ****   if ( line_idx == 0 )
 602              		.loc 1 71 0
 603 0000 60B1     		cbz	r0, .L11
  67:..\u8g2_csrc/u8x8_string.c ****   char e;
 604              		.loc 1 67 0
 605 0002 10B4     		push	{r4}
 606              		.cfi_def_cfa_offset 4
 607              		.cfi_offset 4, -4
 608 0004 0446     		mov	r4, r0
 609 0006 0122     		movs	r2, #1
 610              	.LVL9:
 611              	.L9:
  72:..\u8g2_csrc/u8x8_string.c ****     return str;
  73:..\u8g2_csrc/u8x8_string.c **** 
  74:..\u8g2_csrc/u8x8_string.c ****   for(;;)
  75:..\u8g2_csrc/u8x8_string.c ****   {
  76:..\u8g2_csrc/u8x8_string.c ****     e = *str;
 612              		.loc 1 76 0
 613 0008 0B78     		ldrb	r3, [r1]	@ zero_extendqisi2
 614              	.LVL10:
  77:..\u8g2_csrc/u8x8_string.c ****     if ( e == '\0' )
 615              		.loc 1 77 0
ARM GAS  C:\Users\info\AppData\Local\Temp\ccOo2neL.s 			page 43


 616 000a 4BB1     		cbz	r3, .L12
  78:..\u8g2_csrc/u8x8_string.c ****       break;
  79:..\u8g2_csrc/u8x8_string.c ****     str++;
 617              		.loc 1 79 0
 618 000c 0131     		adds	r1, r1, #1
 619              	.LVL11:
  80:..\u8g2_csrc/u8x8_string.c ****     if ( e == '\n' )
 620              		.loc 1 80 0
 621 000e 0A2B     		cmp	r3, #10
 622 0010 FAD1     		bne	.L9
  81:..\u8g2_csrc/u8x8_string.c ****     {
  82:..\u8g2_csrc/u8x8_string.c ****       if ( line_cnt == line_idx )
 623              		.loc 1 82 0
 624 0012 A242     		cmp	r2, r4
 625 0014 06D0     		beq	.L13
  83:..\u8g2_csrc/u8x8_string.c **** 	return str;
  84:..\u8g2_csrc/u8x8_string.c ****       line_cnt++;
 626              		.loc 1 84 0
 627 0016 0132     		adds	r2, r2, #1
 628              	.LVL12:
 629 0018 D2B2     		uxtb	r2, r2
 630              	.LVL13:
 631 001a F5E7     		b	.L9
 632              	.LVL14:
 633              	.L11:
 634              		.cfi_def_cfa_offset 0
 635              		.cfi_restore 4
  72:..\u8g2_csrc/u8x8_string.c **** 
 636              		.loc 1 72 0
 637 001c 0846     		mov	r0, r1
 638              	.LVL15:
  85:..\u8g2_csrc/u8x8_string.c ****     }
  86:..\u8g2_csrc/u8x8_string.c ****   }
  87:..\u8g2_csrc/u8x8_string.c ****   return NULL;	/* line not found */
  88:..\u8g2_csrc/u8x8_string.c **** }
 639              		.loc 1 88 0
 640 001e 7047     		bx	lr
 641              	.LVL16:
 642              	.L12:
 643              		.cfi_def_cfa_offset 4
 644              		.cfi_offset 4, -4
  87:..\u8g2_csrc/u8x8_string.c **** }
 645              		.loc 1 87 0
 646 0020 0020     		movs	r0, #0
 647              	.LVL17:
 648 0022 00E0     		b	.L8
 649              	.LVL18:
 650              	.L13:
  83:..\u8g2_csrc/u8x8_string.c ****       line_cnt++;
 651              		.loc 1 83 0
 652 0024 0846     		mov	r0, r1
 653              	.LVL19:
 654              	.L8:
 655              		.loc 1 88 0
 656 0026 10BC     		pop	{r4}
 657              		.cfi_restore 4
 658              		.cfi_def_cfa_offset 0
ARM GAS  C:\Users\info\AppData\Local\Temp\ccOo2neL.s 			page 44


 659 0028 7047     		bx	lr
 660              		.cfi_endproc
 661              	.LFE1:
 662              		.size	u8x8_GetStringLineStart, .-u8x8_GetStringLineStart
 663 002a 00BF     		.section	.text.u8x8_CopyStringLine,"ax",%progbits
 664              		.align	2
 665              		.global	u8x8_CopyStringLine
 666              		.thumb
 667              		.thumb_func
 668              		.type	u8x8_CopyStringLine, %function
 669              	u8x8_CopyStringLine:
 670              	.LFB2:
  89:..\u8g2_csrc/u8x8_string.c **** 
  90:..\u8g2_csrc/u8x8_string.c **** /* copy until first '\n' or '\0' in str */
  91:..\u8g2_csrc/u8x8_string.c **** /* Important: There is no string overflow check, ensure */
  92:..\u8g2_csrc/u8x8_string.c **** /* that the destination buffer is large enough */
  93:..\u8g2_csrc/u8x8_string.c **** void u8x8_CopyStringLine(char *dest, uint8_t line_idx, const char *str)
  94:..\u8g2_csrc/u8x8_string.c **** {
 671              		.loc 1 94 0
 672              		.cfi_startproc
 673              		@ args = 0, pretend = 0, frame = 0
 674              		@ frame_needed = 0, uses_anonymous_args = 0
 675              	.LVL20:
  95:..\u8g2_csrc/u8x8_string.c ****   if ( dest == NULL )
 676              		.loc 1 95 0
 677 0000 98B1     		cbz	r0, .L20
  94:..\u8g2_csrc/u8x8_string.c ****   if ( dest == NULL )
 678              		.loc 1 94 0
 679 0002 10B5     		push	{r4, lr}
 680              		.cfi_def_cfa_offset 8
 681              		.cfi_offset 4, -8
 682              		.cfi_offset 14, -4
 683 0004 0B46     		mov	r3, r1
 684 0006 0446     		mov	r4, r0
  96:..\u8g2_csrc/u8x8_string.c ****     return;
  97:..\u8g2_csrc/u8x8_string.c ****   str = u8x8_GetStringLineStart( line_idx, str );
 685              		.loc 1 97 0
 686 0008 1146     		mov	r1, r2
 687              	.LVL21:
 688 000a 1846     		mov	r0, r3
 689              	.LVL22:
 690 000c FFF7FEFF 		bl	u8x8_GetStringLineStart
 691              	.LVL23:
  98:..\u8g2_csrc/u8x8_string.c ****   if ( str != NULL )
 692              		.loc 1 98 0
 693 0010 0246     		mov	r2, r0
 694 0012 38B1     		cbz	r0, .L17
 695              	.LVL24:
 696              	.L18:
  99:..\u8g2_csrc/u8x8_string.c ****   {
 100:..\u8g2_csrc/u8x8_string.c ****     for(;;)
 101:..\u8g2_csrc/u8x8_string.c ****     {
 102:..\u8g2_csrc/u8x8_string.c ****       if ( *str == '\n' || *str == '\0' )
 697              		.loc 1 102 0
 698 0014 1378     		ldrb	r3, [r2]	@ zero_extendqisi2
 699 0016 0A2B     		cmp	r3, #10
 700 0018 04D0     		beq	.L17
ARM GAS  C:\Users\info\AppData\Local\Temp\ccOo2neL.s 			page 45


 701              		.loc 1 102 0 is_stmt 0 discriminator 1
 702 001a 1BB1     		cbz	r3, .L17
 103:..\u8g2_csrc/u8x8_string.c **** 	break;
 104:..\u8g2_csrc/u8x8_string.c ****       *dest = *str;
 703              		.loc 1 104 0 is_stmt 1
 704 001c 04F8013B 		strb	r3, [r4], #1
 705              	.LVL25:
 105:..\u8g2_csrc/u8x8_string.c ****       dest++;
 106:..\u8g2_csrc/u8x8_string.c ****       str++;
 706              		.loc 1 106 0
 707 0020 0132     		adds	r2, r2, #1
 708              	.LVL26:
 107:..\u8g2_csrc/u8x8_string.c ****     }
 709              		.loc 1 107 0
 710 0022 F7E7     		b	.L18
 711              	.L17:
 108:..\u8g2_csrc/u8x8_string.c ****   }
 109:..\u8g2_csrc/u8x8_string.c ****   *dest = '\0';
 712              		.loc 1 109 0
 713 0024 0023     		movs	r3, #0
 714 0026 2370     		strb	r3, [r4]
 715 0028 10BD     		pop	{r4, pc}
 716              	.LVL27:
 717              	.L20:
 718              		.cfi_def_cfa_offset 0
 719              		.cfi_restore 4
 720              		.cfi_restore 14
 721 002a 7047     		bx	lr
 722              		.cfi_endproc
 723              	.LFE2:
 724              		.size	u8x8_CopyStringLine, .-u8x8_CopyStringLine
 725              		.section	.text.u8x8_DrawUTF8Line,"ax",%progbits
 726              		.align	2
 727              		.global	u8x8_DrawUTF8Line
 728              		.thumb
 729              		.thumb_func
 730              		.type	u8x8_DrawUTF8Line, %function
 731              	u8x8_DrawUTF8Line:
 732              	.LFB3:
 110:..\u8g2_csrc/u8x8_string.c **** }
 111:..\u8g2_csrc/u8x8_string.c **** 
 112:..\u8g2_csrc/u8x8_string.c **** /*
 113:..\u8g2_csrc/u8x8_string.c ****   Draw a string
 114:..\u8g2_csrc/u8x8_string.c ****   Extend the string to size "w"
 115:..\u8g2_csrc/u8x8_string.c ****   Center the string within "w"
 116:..\u8g2_csrc/u8x8_string.c ****   return the size of the string
 117:..\u8g2_csrc/u8x8_string.c **** 
 118:..\u8g2_csrc/u8x8_string.c **** */
 119:..\u8g2_csrc/u8x8_string.c **** uint8_t u8x8_DrawUTF8Line(u8x8_t *u8x8, uint8_t x, uint8_t y, uint8_t w, const char *s)
 120:..\u8g2_csrc/u8x8_string.c **** {
 733              		.loc 1 120 0
 734              		.cfi_startproc
 735              		@ args = 4, pretend = 0, frame = 0
 736              		@ frame_needed = 0, uses_anonymous_args = 0
 737              	.LVL28:
 738 0000 2DE9F843 		push	{r3, r4, r5, r6, r7, r8, r9, lr}
 739              		.cfi_def_cfa_offset 32
ARM GAS  C:\Users\info\AppData\Local\Temp\ccOo2neL.s 			page 46


 740              		.cfi_offset 3, -32
 741              		.cfi_offset 4, -28
 742              		.cfi_offset 5, -24
 743              		.cfi_offset 6, -20
 744              		.cfi_offset 7, -16
 745              		.cfi_offset 8, -12
 746              		.cfi_offset 9, -8
 747              		.cfi_offset 14, -4
 748 0004 0546     		mov	r5, r0
 749 0006 0F46     		mov	r7, r1
 750 0008 1646     		mov	r6, r2
 751 000a 9846     		mov	r8, r3
 752              	.LVL29:
 121:..\u8g2_csrc/u8x8_string.c ****   uint8_t d, lw;
 122:..\u8g2_csrc/u8x8_string.c ****   uint8_t cx, dx;
 123:..\u8g2_csrc/u8x8_string.c ****     
 124:..\u8g2_csrc/u8x8_string.c ****   d = 0;
 125:..\u8g2_csrc/u8x8_string.c ****   
 126:..\u8g2_csrc/u8x8_string.c ****   lw = u8x8_GetUTF8Len(u8x8, s);
 753              		.loc 1 126 0
 754 000c 0899     		ldr	r1, [sp, #32]
 755              	.LVL30:
 756 000e FFF7FEFF 		bl	u8x8_GetUTF8Len
 757              	.LVL31:
 127:..\u8g2_csrc/u8x8_string.c ****   if ( lw < w )
 758              		.loc 1 127 0
 759 0012 4045     		cmp	r0, r8
 760 0014 04D2     		bcs	.L27
 761              	.LVL32:
 128:..\u8g2_csrc/u8x8_string.c ****   {
 129:..\u8g2_csrc/u8x8_string.c ****     d = w;
 130:..\u8g2_csrc/u8x8_string.c ****     d -=lw;
 762              		.loc 1 130 0
 763 0016 C0EB0809 		rsb	r9, r0, r8
 764              	.LVL33:
 131:..\u8g2_csrc/u8x8_string.c ****     d /= 2;
 765              		.loc 1 131 0
 766 001a C9F34609 		ubfx	r9, r9, #1, #7
 767              	.LVL34:
 768 001e 01E0     		b	.L22
 769              	.LVL35:
 770              	.L27:
 124:..\u8g2_csrc/u8x8_string.c ****   
 771              		.loc 1 124 0
 772 0020 4FF00009 		mov	r9, #0
 773              	.LVL36:
 774              	.L22:
 132:..\u8g2_csrc/u8x8_string.c ****   }
 133:..\u8g2_csrc/u8x8_string.c ****     
 134:..\u8g2_csrc/u8x8_string.c ****   cx = x;
 135:..\u8g2_csrc/u8x8_string.c ****   dx = cx + d;
 775              		.loc 1 135 0
 776 0024 B944     		add	r9, r9, r7
 777              	.LVL37:
 778 0026 5FFA89F9 		uxtb	r9, r9
 779              	.LVL38:
 134:..\u8g2_csrc/u8x8_string.c ****   dx = cx + d;
ARM GAS  C:\Users\info\AppData\Local\Temp\ccOo2neL.s 			page 47


 780              		.loc 1 134 0
 781 002a 3C46     		mov	r4, r7
 136:..\u8g2_csrc/u8x8_string.c ****   while( cx < dx )
 782              		.loc 1 136 0
 783 002c 07E0     		b	.L23
 784              	.LVL39:
 785              	.L24:
 137:..\u8g2_csrc/u8x8_string.c ****   {
 138:..\u8g2_csrc/u8x8_string.c ****     u8x8_DrawUTF8(u8x8, cx, y, " ");
 786              		.loc 1 138 0
 787 002e 124B     		ldr	r3, .L29
 788 0030 3246     		mov	r2, r6
 789 0032 2146     		mov	r1, r4
 790 0034 2846     		mov	r0, r5
 791 0036 FFF7FEFF 		bl	u8x8_DrawUTF8
 792              	.LVL40:
 139:..\u8g2_csrc/u8x8_string.c ****     cx++;
 793              		.loc 1 139 0
 794 003a 0134     		adds	r4, r4, #1
 795              	.LVL41:
 796 003c E4B2     		uxtb	r4, r4
 797              	.LVL42:
 798              	.L23:
 136:..\u8g2_csrc/u8x8_string.c ****   while( cx < dx )
 799              		.loc 1 136 0
 800 003e 4C45     		cmp	r4, r9
 801 0040 F5D3     		bcc	.L24
 140:..\u8g2_csrc/u8x8_string.c ****   }
 141:..\u8g2_csrc/u8x8_string.c ****   cx += u8x8_DrawUTF8(u8x8, cx, y, s);
 802              		.loc 1 141 0
 803 0042 089B     		ldr	r3, [sp, #32]
 804 0044 3246     		mov	r2, r6
 805 0046 2146     		mov	r1, r4
 806 0048 2846     		mov	r0, r5
 807 004a FFF7FEFF 		bl	u8x8_DrawUTF8
 808              	.LVL43:
 809 004e 2044     		add	r0, r0, r4
 810 0050 C4B2     		uxtb	r4, r0
 811              	.LVL44:
 142:..\u8g2_csrc/u8x8_string.c ****   dx = x + w;
 812              		.loc 1 142 0
 813 0052 B844     		add	r8, r8, r7
 814 0054 5FFA88F8 		uxtb	r8, r8
 815              	.LVL45:
 143:..\u8g2_csrc/u8x8_string.c ****   while( cx < dx )
 816              		.loc 1 143 0
 817 0058 07E0     		b	.L25
 818              	.L26:
 144:..\u8g2_csrc/u8x8_string.c ****   {
 145:..\u8g2_csrc/u8x8_string.c ****     u8x8_DrawUTF8(u8x8, cx, y, " ");
 819              		.loc 1 145 0
 820 005a 074B     		ldr	r3, .L29
 821 005c 3246     		mov	r2, r6
 822 005e 2146     		mov	r1, r4
 823 0060 2846     		mov	r0, r5
 824 0062 FFF7FEFF 		bl	u8x8_DrawUTF8
 825              	.LVL46:
ARM GAS  C:\Users\info\AppData\Local\Temp\ccOo2neL.s 			page 48


 146:..\u8g2_csrc/u8x8_string.c ****     cx++;
 826              		.loc 1 146 0
 827 0066 0134     		adds	r4, r4, #1
 828              	.LVL47:
 829 0068 E4B2     		uxtb	r4, r4
 830              	.LVL48:
 831              	.L25:
 143:..\u8g2_csrc/u8x8_string.c ****   while( cx < dx )
 832              		.loc 1 143 0
 833 006a 4445     		cmp	r4, r8
 834 006c F5D3     		bcc	.L26
 147:..\u8g2_csrc/u8x8_string.c ****   }
 148:..\u8g2_csrc/u8x8_string.c ****   cx -= x;
 835              		.loc 1 148 0
 836 006e E01B     		subs	r0, r4, r7
 837              	.LVL49:
 149:..\u8g2_csrc/u8x8_string.c ****   return cx;
 150:..\u8g2_csrc/u8x8_string.c **** }
 838              		.loc 1 150 0
 839 0070 C0B2     		uxtb	r0, r0
 840 0072 BDE8F883 		pop	{r3, r4, r5, r6, r7, r8, r9, pc}
 841              	.LVL50:
 842              	.L30:
 843 0076 00BF     		.align	2
 844              	.L29:
 845 0078 00000000 		.word	.LC0
 846              		.cfi_endproc
 847              	.LFE3:
 848              		.size	u8x8_DrawUTF8Line, .-u8x8_DrawUTF8Line
 849              		.section	.text.u8x8_DrawUTF8Lines,"ax",%progbits
 850              		.align	2
 851              		.global	u8x8_DrawUTF8Lines
 852              		.thumb
 853              		.thumb_func
 854              		.type	u8x8_DrawUTF8Lines, %function
 855              	u8x8_DrawUTF8Lines:
 856              	.LFB4:
 151:..\u8g2_csrc/u8x8_string.c **** 
 152:..\u8g2_csrc/u8x8_string.c **** /*
 153:..\u8g2_csrc/u8x8_string.c ****   draw several lines at position x,y.
 154:..\u8g2_csrc/u8x8_string.c ****   lines are stored in s and must be separated with '\n'.
 155:..\u8g2_csrc/u8x8_string.c ****   lines can be centered with respect to "w" 
 156:..\u8g2_csrc/u8x8_string.c ****   if s == NULL nothing is drawn and 0 is returned
 157:..\u8g2_csrc/u8x8_string.c ****   returns the number of lines in s
 158:..\u8g2_csrc/u8x8_string.c **** */
 159:..\u8g2_csrc/u8x8_string.c **** uint8_t u8x8_DrawUTF8Lines(u8x8_t *u8x8, uint8_t x, uint8_t y, uint8_t w, const char *s)
 160:..\u8g2_csrc/u8x8_string.c **** {
 857              		.loc 1 160 0
 858              		.cfi_startproc
 859              		@ args = 4, pretend = 0, frame = 0
 860              		@ frame_needed = 0, uses_anonymous_args = 0
 861              	.LVL51:
 862 0000 2DE9F047 		push	{r4, r5, r6, r7, r8, r9, r10, lr}
 863              		.cfi_def_cfa_offset 32
 864              		.cfi_offset 4, -32
 865              		.cfi_offset 5, -28
 866              		.cfi_offset 6, -24
ARM GAS  C:\Users\info\AppData\Local\Temp\ccOo2neL.s 			page 49


 867              		.cfi_offset 7, -20
 868              		.cfi_offset 8, -16
 869              		.cfi_offset 9, -12
 870              		.cfi_offset 10, -8
 871              		.cfi_offset 14, -4
 872 0004 82B0     		sub	sp, sp, #8
 873              		.cfi_def_cfa_offset 40
 874 0006 8246     		mov	r10, r0
 875 0008 8946     		mov	r9, r1
 876 000a 1546     		mov	r5, r2
 877 000c 9846     		mov	r8, r3
 878 000e 0A9E     		ldr	r6, [sp, #40]
 161:..\u8g2_csrc/u8x8_string.c ****   uint8_t i;
 162:..\u8g2_csrc/u8x8_string.c ****   uint8_t cnt;
 163:..\u8g2_csrc/u8x8_string.c ****   cnt = u8x8_GetStringLineCnt(s);
 879              		.loc 1 163 0
 880 0010 3046     		mov	r0, r6
 881              	.LVL52:
 882 0012 FFF7FEFF 		bl	u8x8_GetStringLineCnt
 883              	.LVL53:
 884 0016 0746     		mov	r7, r0
 885              	.LVL54:
 164:..\u8g2_csrc/u8x8_string.c ****   for( i = 0; i < cnt; i++ )
 886              		.loc 1 164 0
 887 0018 0024     		movs	r4, #0
 888 001a 0EE0     		b	.L32
 889              	.LVL55:
 890              	.L33:
 165:..\u8g2_csrc/u8x8_string.c ****   {
 166:..\u8g2_csrc/u8x8_string.c ****     u8x8_DrawUTF8Line(u8x8, x, y, w, u8x8_GetStringLineStart(i, s));
 891              		.loc 1 166 0 discriminator 3
 892 001c 3146     		mov	r1, r6
 893 001e 2046     		mov	r0, r4
 894 0020 FFF7FEFF 		bl	u8x8_GetStringLineStart
 895              	.LVL56:
 896 0024 0090     		str	r0, [sp]
 897 0026 4346     		mov	r3, r8
 898 0028 2A46     		mov	r2, r5
 899 002a 4946     		mov	r1, r9
 900 002c 5046     		mov	r0, r10
 901 002e FFF7FEFF 		bl	u8x8_DrawUTF8Line
 902              	.LVL57:
 167:..\u8g2_csrc/u8x8_string.c ****     y++;
 903              		.loc 1 167 0 discriminator 3
 904 0032 0135     		adds	r5, r5, #1
 905              	.LVL58:
 906 0034 EDB2     		uxtb	r5, r5
 907              	.LVL59:
 164:..\u8g2_csrc/u8x8_string.c ****   for( i = 0; i < cnt; i++ )
 908              		.loc 1 164 0 discriminator 3
 909 0036 0134     		adds	r4, r4, #1
 910              	.LVL60:
 911 0038 E4B2     		uxtb	r4, r4
 912              	.LVL61:
 913              	.L32:
 164:..\u8g2_csrc/u8x8_string.c ****   for( i = 0; i < cnt; i++ )
 914              		.loc 1 164 0 is_stmt 0 discriminator 1
ARM GAS  C:\Users\info\AppData\Local\Temp\ccOo2neL.s 			page 50


 915 003a BC42     		cmp	r4, r7
 916 003c EED3     		bcc	.L33
 168:..\u8g2_csrc/u8x8_string.c ****   }
 169:..\u8g2_csrc/u8x8_string.c ****   return cnt;
 170:..\u8g2_csrc/u8x8_string.c **** }
 917              		.loc 1 170 0 is_stmt 1
 918 003e 3846     		mov	r0, r7
 919 0040 02B0     		add	sp, sp, #8
 920              		.cfi_def_cfa_offset 32
 921              		@ sp needed
 922 0042 BDE8F087 		pop	{r4, r5, r6, r7, r8, r9, r10, pc}
 923              		.cfi_endproc
 924              	.LFE4:
 925              		.size	u8x8_DrawUTF8Lines, .-u8x8_DrawUTF8Lines
 926 0046 00BF     		.section	.rodata.str1.4,"aMS",%progbits,1
 927              		.align	2
 928              	.LC0:
 929 0000 2000     		.ascii	" \000"
 930              		.text
 931              	.Letext0:
 932              		.file 2 "c:\\program files (x86)\\cypress\\psoc creator\\4.2\\psoc creator\\import\\gnu\\arm\\5.4.
 933              		.file 3 "c:\\program files (x86)\\cypress\\psoc creator\\4.2\\psoc creator\\import\\gnu\\arm\\5.4.
 934              		.file 4 "..\\u8g2_csrc\\u8x8.h"