ARM GAS  C:\Users\info\AppData\Local\Temp\ccKpCAvq.s 			page 1


   1              		.syntax unified
   2              		.cpu cortex-m3
   3              		.fpu softvfp
   4              		.eabi_attribute 20, 1
   5              		.eabi_attribute 21, 1
   6              		.eabi_attribute 23, 3
   7              		.eabi_attribute 24, 1
   8              		.eabi_attribute 25, 1
   9              		.eabi_attribute 26, 1
  10              		.eabi_attribute 30, 1
  11              		.eabi_attribute 34, 1
  12              		.eabi_attribute 18, 4
  13              		.thumb
  14              		.syntax unified
  15              		.file	"u8x8_d_uc1638.c"
  16              		.text
  17              	.Ltext0:
  18              		.section	.gnu.lto_.profile.792a5c69,"",%progbits
  19 0000 789C6361 		.ascii	"x\234ca`d`e`\000\222S\2312\001\002\252\001\014"
  19      60646065 
  19      60009253 
  19      99320102 
  19      AA010C
  20              		.text
  21              		.section	.gnu.lto_.inline.792a5c69,"",%progbits
  22 0000 789C6361 		.ascii	"x\234ca`d\000\201K\014\010\300\304\300p\205\341\014"
  22      60640081 
  22      4B0C08C0 
  22      C4C07085 
  22      E10C
  23 0012 5082C97E 		.ascii	"P\202\311~\316-F\006\376\031ZL`an\006\006\306\011~\314"
  23      CE2D4606 
  23      FE195A4C 
  23      60616E06 
  23      06C6097E 
  24 0027 3C40E604 		.ascii	"<@\346\004?8\003M\234\001\027\015U\306\302\313\310\300"
  24      3F38034D 
  24      9C01170D 
  24      55C6C2CB 
  24      C8C0
  25 0039 3C45B985 		.ascii	"<E\271\205\275\205\035M\005\246\321\030v\2602HJ\003"
  25      BD851D4D 
  25      05A6D118 
  25      76B03248 
  25      4A03
  26 004b 9D25B0C2 		.ascii	"\235%\260\302\210\201m\216<\330U8\\\301\306\317\300"
  26      88816D8E 
  26      3CD85538 
  26      5CC1C6CF 
  26      C0
  27 005c C0023201 		.ascii	"\300\0022\001\004\031\000\227\017 \231"
  27      04190097 
  27      0F2099
  28              		.text
  29              		.section	.gnu.lto_.jmpfuncs.792a5c69,"",%progbits
  30 0000 789C6361 		.ascii	"x\234ca`d\000\001\031\006\004`b\300\004\254P\032\000"
  30      60640001 
ARM GAS  C:\Users\info\AppData\Local\Temp\ccKpCAvq.s 			page 2


  30      19060460 
  30      62C004AC 
  30      501A00
  31 0013 05DE0029 		.ascii	"\005\336\000)"
  32              		.text
  33              		.section	.gnu.lto_.pureconst.792a5c69,"",%progbits
  34 0000 789C6361 		.ascii	"x\234ca`d`e```b\220b\225\000\000\000\363\000D"
  34      60646065 
  34      60606062 
  34      90629500 
  34      0000F300 
  35              		.text
  36              		.section	.gnu.lto_u8x8_d_uc1638_common.792a5c69,"",%progbits
  37 0000 789C9D57 		.ascii	"x\234\235Wkl\024U\024\276g\356\316\314\356\354\253@"
  37      6B6C1455 
  37      14BE67EE 
  37      CECCEEEC 
  37      AB40
  38 0012 2BD56EC9 		.ascii	"+\325n\311&\246\220\232\010(\211\342\017\343\343\227"
  38      26A6909A 
  38      082889E2 
  38      0FE3E397 
  39 0022 BFFDAD21 		.ascii	"\277\375\255!\246\0324Fc\020\023\374a:\335G\201\006"
  39      A61A3446 
  39      631013FC 
  39      613ADD47 
  39      8106
  40 0034 1122202F 		.ascii	"\021\" /\301\004\021\004\004Z(\245\025dA)X\240\200T"
  40      C1041104 
  40      045A28A5 
  40      15644129 
  40      58A08054 
  41 0048 4B01B554 		.ascii	"K\001\265T\212\025Q\330\002\202\274\326s\316\235\331"
  41      8A1551D8 
  41      0282BCD6 
  41      73CE9DD9 
  42 0058 76DBDDA2 		.ascii	"v\333\335\242n2wf\356\234\357\334\357~\347\334s\357"
  42      6E327766 
  42      EE9CEFDC 
  42      EF7EE7DC 
  42      73EF
  43 006a 7A0408FA 		.ascii	"z\004\010\372\215\015\013\361,\336[\361\202\260\000"
  43      8D0D0BF1 
  43      2CDE5BF1 
  43      82B000
  44 0079 6D41BB10 		.ascii	"mA\273\0205^M\017\036\013\013\333kp\353\3436\300\255"
  44      355E4D0F 
  44      1E0B0BDB 
  44      6B70EBE3 
  44      36C0AD
  45 008c 542D7894 		.ascii	"T-x\224\241G\013\315; \204m\351\011S\330\201\220\352"
  45      A1470BCD 
  45      3B20846D 
  45      E90953D8 
  45      8190EA
  46 009f 7F4687A0 		.ascii	"\177F\207\240\372nh\346\234\011\370\331Km\300t\273\275"
  46      FA6E68E6 
ARM GAS  C:\Users\info\AppData\Local\Temp\ccKpCAvq.s 			page 3


  46      9C09F8D9 
  46      4B6DC074 
  46      BBBD
  47 00b1 EE834FB3 		.ascii	"\356\203O\263\370\273\237\277[n\267\337}\010\270\017"
  47      F8BB9FBF 
  47      5B6EB7DF 
  47      7D08B80F 
  48 00c1 41007AB0 		.ascii	"A\000z\260\275 \2525\351\011\351\206\351\365Y\376@\020"
  48      BD20AA35 
  48      E909E986 
  48      E9F559FE 
  48      4010
  49 00d3 AA358F80 		.ascii	"\2525\217\200\224\0072jF\327\264;\032\034\272~p\236"
  49      9407326A 
  49      46D7B43B 
  49      1A1CBA7E 
  49      709E
  50 00e5 55B9CEB6 		.ascii	"U\271\316\266cvw\362\374s\351X\2624)\205\310h\002\246"
  50      637677F2 
  50      FC73E958 
  50      B2342985 
  50      C86802A6 
  51 00f9 44607284 		.ascii	"D`r\204f\273\016*\321\362xb\353JyUKJ\000\017\276\246"
  51      66BB0E2A 
  51      D1F27862 
  51      EB4A7955 
  51      4B4A000F 
  52 010f 8F2CFF25 		.ascii	"\217,\377%D\257\032D\361\365\223\2165g\014\031\005\201"
  52      44AF1A44 
  52      F1F5938E 
  52      35670C19 
  52      0581
  53 0121 CF4BDA3A 		.ascii	"\317K\332:\376\014NXK>\355\217_\261}I)a\003H\362\371"
  53      FE0C4E58 
  53      4B3EED8F 
  53      5FB17D49 
  53      29610348 
  54 0137 3944603D 		.ascii	"9D`=D\004v\011\330\010\023\320\372\360\326\346N\217"
  54      44047609 
  54      D80813D0 
  54      FAF0D6E6 
  54      4E8F
  55 0149 AC60E4F5 		.ascii	"\254`\344\365]_\337q\221]/\332\022\251\300&\205Tl\210"
  55      5D5FDF71 
  55      915D2FDA 
  55      12A9C026 
  55      85546C88 
  56 015d 1B7CC1B8 		.ascii	"\033|\301\270\245\307\273\337\267d%\343V\366^\352\322"
  56      A5C7BBDF 
  56      B76425E3 
  56      56F65EEA 
  56      D2
  57 016e 1DDC87AD 		.ascii	"\035\334\207\255~{2\0017\017\003na`\327\257GNX\362\021"
  57      7E7B3201 
  57      370F036E 
  57      6160D7AF 
  57      474E58F2 
ARM GAS  C:\Users\info\AppData\Local\Temp\ccKpCAvq.s 			page 4


  58 0183 066E68FC 		.ascii	"\006nh\374\271\301t\200\307[\003\366\002HJ\017l\035"
  58      B9C17480 
  58      C75B03F6 
  58      02484A0F 
  58      6C1D
  59 0195 4A1675AB 		.ascii	"J\026u\253\207\011\004\230\337Q\327#\345\023\014^ko"
  59      87090498 
  59      DF51D723 
  59      E5130C5E 
  59      6B6F
  60 01a7 ADF355AC 		.ascii	"\255\363U\254!p\252\2516\264\314N%\242I\251CC.\234~"
  60      2170AAA9 
  60      36B4CC4E 
  60      25A249A9 
  60      43432E9C 
  61 01bc 68DDBE6E 		.ascii	"h\335\276n\355\"K>\311\310\325KZN\272\310\306\326\342"
  61      ED224B3E 
  61      C9C8D54B 
  61      5A4EBAC8 
  61      C6D6E2
  62 01cf 8FEC544D 		.ascii	"\217\354TM\224(o\037L\331\301\355\252;t\333+\237b\334"
  62      94286F1F 
  62      4CD9C1ED 
  62      AA3B74DB 
  62      2B9F62DC 
  63 01e3 FCFD0BC6 		.ascii	"\374\375\013\306(\230\275\373\005;\3764av\344\301,o"
  63      2898BDFB 
  63      053BFE34 
  63      6176E4C1 
  63      2C6F
  64 01f5 991DB3E4 		.ascii	"\231\035\263\3443\214\211\357\354\3742\354\200\232\\"
  64      338C89EF 
  64      ECFC32EC 
  64      809A5C
  65 0204 D0CE3CA0 		.ascii	"\320\316<\240\236\372\273\213\203F\302\306_\024\232"
  65      9EFABB8B 
  65      8346C2C6 
  65      5F149A
  66 0213 A1029AF0 		.ascii	"\241\002\232\360j\304k\033TPB\240\200-``\356x\206~\335"
  66      6AC46B1B 
  66      545042A0 
  66      802D6060 
  66      EE78867E 
  67 0228 F27CCACE 		.ascii	"\362|\312\316d\342vj\233\261\267\303\232\014\254\264"
  67      64E2766A 
  67      9BB1B7C3 
  67      9A0CACB4 
  68 0238 469AEB40 		.ascii	"F\232\353@\3212\201b\355\003\022\321\022\204\366s\033"
  68      D1328162 
  68      ED0312D1 
  68      1284F673 
  68      1B
  69 0249 12E4258C 		.ascii	"\022\344%\214\206F\021?\216\342v4v\230c\250)\246\246"
  69      8646113F 
  69      8EE27634 
  69      769863A8 
  69      29A6A6
ARM GAS  C:\Users\info\AppData\Local\Temp\ccKpCAvq.s 			page 5


  70 025c 84BE8FA5 		.ascii	"\204\276\217\245\246\224\2322A\303F\270-\0274\3748\240"
  70      A6949A32 
  70      41C346B8 
  70      2D1734FC 
  70      38A0
  71 026e F1A23C6A 		.ascii	"\361\242<j\005\232x\307\223]%==DOB\\F\366\213\036\024"
  71      059A78C7 
  71      935D253D 
  71      3D444F42 
  71      5C46F68B 
  72 0284 694DC39B 		.ascii	"iM\303\233\354\205\332Ts+\320l\342R\247\204\355\372"
  72      EC85DA54 
  72      732BD06C 
  72      E252A784 
  72      EDFA
  73 0296 B44F5F08 		.ascii	"\264O_\010\037\324\340\344S\273\3330\251}\270\200$\351"
  73      1FD4E0E4 
  73      53BBDB30 
  73      A97DB880 
  73      24E9
  74 02a8 025FC242 		.ascii	"\002_\302B@\223[7\332w\233\224\356\002\374\224\250\213"
  74      40935B37 
  74      DA779B94 
  74      EE02FC94 
  74      A88B
  75 02ba CF7F62B8 		.ascii	"\317\177b\270\210\223&\002`\027\206\332\226\264\264"
  75      88932602 
  75      601786DA 
  75      96B4B4
  76 02c9 60B7C25C 		.ascii	"`\267\302\\n^\273^S\230 \276\366\356X6G\272\230\253"
  76      6E5EBB5E 
  76      539820BE 
  76      F6EE5836 
  76      47BA98AB 
  77 02dd 8CF98A31 		.ascii	"\214\371\2121,\355\036\205\371\343\207\215\233\244\302"
  77      2CED1E85 
  77      F9E3878D 
  77      9BA4C2
  78 02ec 84F0F55A 		.ascii	"\204\360\365Z\373\251\365\001\027\263\312\"L\2121D\016"
  78      FBA9F501 
  78      17B3CA22 
  78      4C8A3144 
  78      0E
  79 02fd F62ACCA6 		.ascii	"\366*\314\246\317\322\251\260\302\204\361u\325\366u"
  79      CFD2A9B0 
  79      C284F175 
  79      D5F675
  80 030c 8B822E66 		.ascii	"\213\202.f\227A\230}\214\361\020\346k\304\340=\255I"
  80      9741987D 
  80      8CF110E6 
  80      6BC4E03D 
  80      AD49
  81 031e 9130E539 		.ascii	"\2210\3459\250)\"\035\350c\037$R{Z%\275R:47_<mV\337"
  81      A829221D 
  81      E8631F24 
  81      527B5A25 
  81      BD523A34 
ARM GAS  C:\Users\info\AppData\Local\Temp\ccKpCAvq.s 			page 6


  82 0338 B1E7D876 		.ascii	"\261\347\330vQRZ\031\015a\360\015T\213\270D\356~q\036"
  82      51525A19 
  82      0D61F00D 
  82      548BB844 
  82      EE7E711E 
  83 034c 622DE98E 		.ascii	"b-\351\216\205R\311h\221\214\311}GY\243\200Z\314\007"
  83      8552C968 
  83      918CC97D 
  83      4759A380 
  83      5ACC07
  84 035f DAE60456 		.ascii	"\332\346\004V\303\3075\224Q\037\001F\"\030G.\373iI\320"
  84      C3C73594 
  84      511F0146 
  84      2218472E 
  84      FB6949D0 
  85 0373 EA3917DB 		.ascii	"\3529\027\333lNz\230X\267\302j\270\253\261\334\007`"
  85      6C4E7A98 
  85      58B7C26A 
  85      B8ABB1DC 
  85      0760
  86 0385 92E88198 		.ascii	"\222\350\201\230=\205s\015s\004]\343P\361\345\265\337"
  86      3D85730D 
  86      73045DE3 
  86      50F1E5B5 
  86      DF
  87 0396 3DA046F2 		.ascii	"=\240F\362\253\301\352nv\316\367\252I{\341 \372\354"
  87      ABC1EA6E 
  87      76CEF7AA 
  87      497BE120 
  87      FAEC
  88 03a8 016D00E3 		.ascii	"\001m\000\343\307\331$S]\205f\023\312`&\010\370V\315"
  88      C7D92453 
  88      5D856613 
  88      CA602608 
  88      F856CD
  89 03bb 063FEFED 		.ascii	"\006?\357\355nH\373\2257\017\264A$)\303\354\341\224"
  89      6E48FB95 
  89      370FB441 
  89      2429C3EC 
  89      E194
  90 03cd 51D00115 		.ascii	"Q\320\001\025\224C\312\001\216G\000V\244\323U$\364\237"
  90      9443CA01 
  90      8E470056 
  90      A4D35524 
  90      F49F
  91 03df 2438CC12 		.ascii	"$8\314\022p\366\034\311\221\240\211\246\023b\337\365"
  91      70F61CC9 
  91      91A089A6 
  91      1362DFF5 
  92 03ef 676A74E5 		.ascii	"gjt\345;<Xm\231\2436\026\260\"\244\004\355\303\3078"
  92      3B3C586D 
  92      99A33616 
  92      B022A404 
  92      EDC3C738 
  93 0403 CA6370B6 		.ascii	"\312cp\266\035\3031P\325%\265\207\235e\200\230\020\372"
  93      1DC33150 
  93      D525B587 
ARM GAS  C:\Users\info\AppData\Local\Temp\ccKpCAvq.s 			page 7


  93      9D658098 
  93      10FA
  94 0415 CDAAC8C3 		.ascii	"\315\252\310\303\026)\345\333\312\224\315(\354\241\202"
  94      1629E5DB 
  94      CA94CD28 
  94      ECA182
  95 0424 B47ADEE7 		.ascii	"\264z\336\347\226\322\012w\205A\3123f\024Q\355\237\375"
  95      96D20A77 
  95      8541CA33 
  95      661451ED 
  95      9FFD
  96 0436 D38A9002 		.ascii	"\323\212\220\002\215V]\361\333\206z\037\203]\203s\326"
  96      8D565DF1 
  96      DB867A1F 
  96      835D8373 
  96      D6
  97 0447 84307C87 		.ascii	"\2040|\207N\320\344\206cR\214Vh\262\271w\331\006\217"
  97      4ED0E486 
  97      63528C56 
  97      68B2B977 
  97      D9068F
  98 045a 32E91670 		.ascii	"2\351\026p\202mb\375\246\262)A3\214\220>b|;\334\360"
  98      826D62FD 
  98      A6B22941 
  98      338C903E 
  98      627C3BDC 
  99 046f 94A8F0C4 		.ascii	"\224\250\360\304\373k{\234\271\214EZ\2037\265Q\030\367"
  99      FB6B7B9C 
  99      B98C455A 
  99      8337B551 
  99      18F7
 100 0481 EF736994 		.ascii	"\357si\224\242\025\232d~\353Z\343#\023\003.\013\370"
 100      A2159A64 
 100      7EEB5AE3 
 100      2313032E 
 100      0BF8
 101 0493 016DEE35 		.ascii	"\001m\3565l\247;l\251\233Fw\013\247\021\001Nf\363\260"
 101      6CA73B6C 
 101      A99B4677 
 101      0BA71101 
 101      4E66F3B0 
 102 04a7 71F6E17A 		.ascii	"q\366\341zG[\200.\225\207\034\372snZ\225\375\247\264"
 102      475B802E 
 102      95871CFA 
 102      736E5A95 
 102      FDA7B4
 103 04ba 3AC521E7 		.ascii	":\305!\347bq:'\255\032)VeN|#\312u\004{r\226\022\033"
 103      62713A27 
 103      AD1A2956 
 103      654E7C23 
 103      CA75047B 
 104 04d2 451481DE 		.ascii	"E\024\201\336z\207@\371P\002+\012\023\320\341\014\023"
 104      7A8740F9 
 104      50022B0A 
 104      13D0E10C 
 104      13
 105 04e3 E0CAF3A3 		.ascii	"\340\312\363\243C\340q\366\275\215|\227s%\362\010<\260"
ARM GAS  C:\Users\info\AppData\Local\Temp\ccKpCAvq.s 			page 8


 105      43E071F6 
 105      BD8D7C97 
 105      7325F208 
 105      3CB0
 106 04f5 48FC54C4 		.ascii	"H\374T\304%<\216\011\335\207%z\305l\310\257\332\350"
 106      253C8E09 
 106      DD87257A 
 106      C56CC8AF 
 106      DAE8
 107 0507 0C39849F 		.ascii	"\0149\204\237\\\231\221wyR\216Q\011\375\327\312G\025"
 107      5C999177 
 107      79528E51 
 107      09FDD7CA 
 107      4715
 108 0519 CF28FA41 		.ascii	"\317(\372A\350\211\3707G\235\202\232\001\370y\320\354"
 108      E889F837 
 108      479D829A 
 108      01F879D0 
 108      EC
 109 052a 78A8A838 		.ascii	"x\250\2508\013\211\323\361=\363\235\274\242\263\314"
 109      0B89D3F1 
 109      3DF39DBC 
 109      A2B3CC
 110 0539 968BCD7F 		.ascii	"\226\213\315\177\007U\304\005t\253\035\274\037 .\307"
 110      0755C405 
 110      74AB1DBC 
 110      1F202EC7 
 111 0549 496CA2A1 		.ascii	"Il\242\241\213\315/\343\216\022\022x\236\203\264\246"
 111      8BCD2FE3 
 111      8E121278 
 111      9E83B4A6 
 112 0559 531DA5DA 		.ascii	"S\035\245\332\271\355@\341\332\251#\337\263\003\265"
 112      B9ED40E1 
 112      DAA923DF 
 112      B303B5
 113 0568 93666DE4 		.ascii	"\223fm\344\326_ \"\247\342M\0378en\234;2\232\232b\237"
 113      D65F2022 
 113      A7E24D1F 
 113      38656E9C 
 113      3B329A9A 
 114 057e 9494473F 		.ascii	"\224\224G?\026\222\2448\203\376\004\364d\023)[\035J"
 114      1692A438 
 114      83FE04F4 
 114      6413295B 
 114      1D4A
 115 0590 D421E0E6 		.ascii	"\324!\340\346\236+!\264^\312\326%s\245\316\201\372v"
 115      9E2B21B4 
 115      5ECAD625 
 115      73A5CE81 
 115      FA76
 116 05a2 F9C6D729 		.ascii	"\371\306\327)\214\013\270\373>8\007\325\360\213\023"
 116      8C0BB8FB 
 116      3E3807D5 
 116      F08B13
 117 05b1 C4CC8586 		.ascii	"\304\314\205\206\315>\005\261\337#?\275\030J\036\035"
 117      CD3E05B1 
 117      DF233FBD 
ARM GAS  C:\Users\info\AppData\Local\Temp\ccKpCAvq.s 			page 9


 117      184A1E1D 
 118 05c1 CE437552 		.ascii	"\316CuR\216ej^\227Z\372\036\324~\315R\033\306\305\310"
 118      8E656A5E 
 118      975AFA1E 
 118      D47ECD52 
 118      1BC6C5C8 
 119 05d5 CBA56F24 		.ascii	"\313\245o$.\277e\271\\\030\340\342\313UTS\212^\312\247"
 119      2EBF65B9 
 119      5C18E0E2 
 119      CB555453 
 119      8A5ECAA7 
 120 05e9 A8E5D2BE 		.ascii	"\250\345\322\276u\017\332\277\017W\2644\217\242\245"
 120      750FDABF 
 120      0F57B434 
 120      8FA2A5
 121 05f8 73A59967 		.ascii	"s\245\231g\026\367\303\0378\213\213\371gQ\012\177fg"
 121      16F7C31F 
 121      388B8BF9 
 121      67510A7F 
 121      6667
 122 060a 7149CD82 		.ascii	"qI\315\202WZ&\355T\371\312\177S\326\275p\231\227\230"
 122      575A26ED 
 122      54F9CA7F 
 122      53D6BD70 
 122      999798
 123 061d 4E4B2CCD 		.ascii	"NK,\315e=\326rv\274\362\360\320`\336\336\241\373\304"
 123      653DD672 
 123      76BCF2F0 
 123      D060DEDE 
 123      A1FBC4
 124 0630 033804F4 		.ascii	"\0038\004\364;\016W-\335y%4\351\013b]\006W\330\245A"
 124      3B0E572D 
 124      DD792534 
 124      E90B625D 
 124      0657D8A5 
 125 0645 2EAF2A97 		.ascii	".\257*\227K\316\026\223\313\241k?Xx\267\2716\260\333"
 125      4BCE1693 
 125      CBA16B3F 
 125      5878B7B9 
 125      36B0DB
 126 0658 FC059390 		.ascii	"\374\005\223\220\013\013\357w\205_\\7\262\360\327\013"
 126      0B0BEF77 
 126      855F5C37 
 126      B2F0D70B 
 127 0668 E40B2AED 		.ascii	"\344\013*\355\315\253\364\215\221\224\376;\253\364\315"
 127      CDABF48D 
 127      9194FE3B 
 127      ABF4CD
 128 0677 01A5D3FB 		.ascii	"\001\245\323\373\373\035\245+\376\235\322\267\006\224"
 128      FB1DA52B 
 128      FE9DD2B7 
 128      0694
 129 0685 BE3D44E9 		.ascii	"\276=D\351\361\303\244\255\310/\355\035\366a\222\217"
 129      F1C3A4AD 
 129      C82FED1D 
 129      F661928F 
 130 0695 BBFF57DA 		.ascii	"\273\377W\332\314\200\264\266\206\322\216gi\003\271"
ARM GAS  C:\Users\info\AppData\Local\Temp\ccKpCAvq.s 			page 10


 130      CC80B4B6 
 130      86D28E67 
 130      6903B9
 131 06a4 E92FF940 		.ascii	"\351/\371@W\3376\362\201\256F\313\026%\212J\2035\342"
 131      57DF36F2 
 131      81AE46CB 
 131      16258A4A 
 131      8335E2
 132 06b7 4615D3DC 		.ascii	"F\025\323\334\240\364]?6\327Pe\265\006K\243\226=1m/"
 132      A0F45D3F 
 132      36D75065 
 132      B5064BA3 
 132      963D316D 
 133 06cc EC814E4C 		.ascii	"\354\201NL\011\315)\332\343\024 \221\332Q\000\340T\315"
 133      09CD29DA 
 133      E3142091 
 133      DA5100E0 
 133      54CD
 134 06de A4965335 		.ascii	"\244\226S5\203t\200\247I\362\371\374\002\355\031q>@"
 134      837480A7 
 134      49F2F9FC 
 134      02ED1971 
 134      3E40
 135 06f0 F7833638 		.ascii	"\367\20368\331\361_;\324j\021\355\366\211Y\264\217z"
 135      D9F15F3B 
 135      D46A11ED 
 135      F68959B4 
 135      8F7A
 136 0702 577EFF2A 		.ascii	"W~\377*\335uA\255\305\255\311m\200[?\375G\000\364\215"
 136      DD7541AD 
 136      C5ADC96D 
 136      805B3FFD 
 136      4700F48D 
 137 0716 AECA274E 		.ascii	"\256\312'N|\341\235\251\323\037\235V\365\366\214*|\232"
 137      7CE19DA9 
 137      D31F9D56 
 137      F5F68C2A 
 137      7C9A
 138 0728 3575DACB 		.ascii	"5u\332\313\323\336\251z\344\261)S'V\011\017u\3107\336"
 138      D3DEA97A 
 138      E4B12953 
 138      2756090F 
 138      75C837DE 
 139 073c 9E6EBE34 		.ascii	"\236n\2764c\372\264\327\336\234\311\367\267f\316\220"
 139      63FAB4D7 
 139      DE9CC9F7 
 139      B766CE90 
 140 074c 784115BC 		.ascii	"xA\025\274\013\263\376\001\305\000\371w"
 140      0BB3FE01 
 140      C500F977 
 141              		.text
 142              		.section	.gnu.lto_u8x8_d_uc1638_powersave0_seq.792a5c69,"",%progbits
 143 0000 789C2D8B 		.ascii	"x\234-\213M\013\001Q\030F\357;3D\276VD\315\237`5?\313"
 143      4D0B0151 
 143      1846EF3B 
 143      3344BE56 
 143      44CD9F60 
ARM GAS  C:\Users\info\AppData\Local\Temp\ccKpCAvq.s 			page 11


 144 0017 4F98C54C 		.ascii	"O\230\305L\311BY\331XX\250\3615fP\322DI)J\312F\331)"
 144      C94259D9 
 144      5858A8F1 
 144      356650D2 
 144      4449294A 
 145 002f 6C2D4492 		.ascii	"l-D\222\317gz\335:\275\367tz\024A\302\177\012\016\377"
 145      CF677ADD 
 145      3ABDF774 
 145      7A1441C2 
 145      7F0A0EFF 
 146 0043 84784BE4 		.ascii	"\204xK\344\230\307f\350*\231\262\240/\301\217O\333\213"
 146      98C766E8 
 146      2A99B2A0 
 146      2FC18F4F 
 146      DB8B
 147 0055 FB4E1484 		.ascii	"\373N\024\204^+\253]\202s\006\272\254{\257(\327\000"
 147      5E2BAB5D 
 147      827306BA 
 147      AC7BAF28 
 147      D700
 148 0067 D42B1726 		.ascii	"\324+\027&\377\261\355\2177\206[\2259+\320\333\243x"
 148      FFB1ED8F 
 148      37865B95 
 148      392BD0DB 
 148      A378
 149 0079 0E734E41 		.ascii	"\016sNAg\027\327\372\217e\350bV\333\306\270.\375\361"
 149      6717D7FA 
 149      8F65E862 
 149      56DBC6B8 
 149      2EFDF1
 150 008c FC7B9F26 		.ascii	"\374{\237&8K\320\203\365\251\0049'\241g\343\264\217"
 150      384BD083 
 150      F5A90439 
 150      27A167E3 
 150      B48F
 151 009e B0A6A1E3 		.ascii	"\260\246\241\343Qi\035\325\206z\241\246\347MY\242\254"
 151      51691DD5 
 151      867AA1A6 
 151      E74D59A2 
 151      AC
 152 00af 4A7D5229 		.ascii	"J}R)\247R\017\307\005\016\350\002\033t@\033\264@\023"
 152      A7520FC7 
 152      050EE802 
 152      1B74401B 
 152      B44013
 153 00c2 348045AA 		.ascii	"4\200E\252\240\001i\342\007\227}Y,"
 153      A00169E2 
 153      07977D59 
 153      2C
 154              		.text
 155              		.section	.gnu.lto_u8x8_d_uc1638_powersave1_seq.792a5c69,"",%progbits
 156 0000 789C2D8B 		.ascii	"x\234-\213\315\012\001Q\030\206\317wf\210\374\314\212"
 156      CD0A0151 
 156      1886CF77 
 156      6688FCCC 
 156      8A
 157 0011 A8B90956 		.ascii	"\250\271\011V.\313%X\230\022\027`#Y\250\3617fP\322\254"
ARM GAS  C:\Users\info\AppData\Local\Temp\ccKpCAvq.s 			page 12


 157      2ECB2558 
 157      98121760 
 157      2359A8F1 
 157      376650D2 
 158 0026 A4146563 		.ascii	"\244\024ec\243XHa;\013\221\344\367\235>\247\236\276"
 158      A3584861 
 158      3B0B91E4 
 158      F79D3EA7 
 158      9EBE
 159 0038 F3F4F4AA 		.ascii	"\363\364\364\252\202\204\377T\034\376\011\361\226d\033"
 159      8284FF54 
 159      1CFE09F1 
 159      96641B
 160 0047 A776E82A 		.ascii	"\247v\350*\015E\320\227\340\247\247\345\306}'\012B\257"
 160      0D45D097 
 160      E0A7A7E5 
 160      C67D270A 
 160      42AF
 161 0059 D5D556E3 		.ascii	"\325\325V\343\234\206.\233\356+\3125\000\265v\356^r"
 161      9C862E9B 
 161      EE2BCA35 
 161      00B576EE 
 161      5E72
 162 006b EDF9E375 		.ascii	"\355\371\343u\321\251)\234U\350\355Q\366\302\234\223"
 162      D1A9299C 
 162      55E8ED51 
 162      F6C29C93 
 163 007b D0D9C531 		.ascii	"\320\331\3051\377c\005\272\230561\256K\177<\377\336"
 163      FF6305BA 
 163      98353631 
 163      AE4B7F3C 
 163      FFDE
 164 008d A71A6709 		.ascii	"\247\032g\011=\232\237j\220s\002\352\025\317\207\010"
 164      3D9A9F6A 
 164      907302EA 
 164      15CF8708 
 165 009d 6B0A5A99 		.ascii	"k\012Z\231\324m-7.\224\032\205\274\241H\312\3504$\235"
 165      D46D2D37 
 165      2E941A85 
 165      BCA148CA 
 165      E834249D 
 166 00b1 B23A0D70 		.ascii	"\262:\015p\034`\203>\260@\017tA\007\264A\013\230\244"
 166      1C60833E 
 166      B0400F74 
 166      4107B441 
 166      0B98A4
 167 00c4 0B1A514E 		.ascii	"\013\032QN\374\000\355\212Yw"
 167      FC00ED8A 
 167      5977
 168              		.text
 169              		.section	.gnu.lto_u8x8_d_uc1638_flip0_seq.792a5c69,"",%progbits
 170 0000 789C6361 		.ascii	"x\234ca`d\000\201\355@\014a10\374eb\\\337\372d%\307"
 170      60640081 
 170      ED400C61 
 170      3130FC65 
 170      625CDFFA 
 171 0017 17A65666 		.ascii	"\027\246Vf\006\306\377\214@\376\305\226\015s\230A|F"
ARM GAS  C:\Users\info\AppData\Local\Temp\ccKpCAvq.s 			page 13


 171      06C6FF8C 
 171      40FEC596 
 171      0D739841 
 171      7C46
 172 0029 461620F7 		.ascii	"F\026 \367\313\36437\371!\322\222@\356\241O\033\226"
 172      CBF43337 
 172      F921D292 
 172      40EEA14F 
 172      1B96
 173 003b F3406499 		.ascii	"\363@d\231\201\334\256i\377\016rBd\217\2004\037\375"
 173      81DCAE69 
 173      FF0E7242 
 173      648F8034 
 173      1FFD
 174 004d FFFD003F 		.ascii	"\377\375\000?D\232\011\310}\274\374\337t6\210\264(\220"
 174      449A09C8 
 174      7DBCFCDF 
 174      743688B4 
 174      2890
 175 005f FBAEE5E9 		.ascii	"\373\256\345\351\003n\010W\002\310]\336\360\365\013"
 175      036E0857 
 175      02C85DDE 
 175      F0F50B
 176 006e A3C5B686 		.ascii	"\243\305\266\206\216\005\015\001\255\314L\214\2062\214"
 176      8E050D01 
 176      ADCC4C8C 
 176      86328C
 177 007d EB186518 		.ascii	"\353\030e\030\215d\030\327\002\2515@\274\032\210W\001"
 177      8D6418D7 
 177      02A93540 
 177      BC1A8857 
 177      01
 178 008e F14A205E 		.ascii	"\361J ^\001\304\313\031e\030\030\3273Z0\000\000\266"
 178      01C4CB19 
 178      651818D7 
 178      335A3000 
 178      00B6
 179 00a0 0C3F34   		.ascii	"\014?4"
 180              		.text
 181              		.section	.gnu.lto_u8x8_d_uc1638_flip1_seq.792a5c69,"",%progbits
 182 0000 789C6361 		.ascii	"x\234ca`d\000\201\355@\014a10\374eb\\\337\372d%\307"
 182      60640081 
 182      ED400C61 
 182      3130FC65 
 182      625CDFFA 
 183 0017 17A65666 		.ascii	"\027\246Vf\006\306\377\214@\376\305\226\015s\230A|F"
 183      06C6FF8C 
 183      40FEC596 
 183      0D739841 
 183      7C46
 184 0029 461620F7 		.ascii	"F\026 \367\313\36437\371!\322\222@\356\241O\033\226"
 184      CBF43337 
 184      F921D292 
 184      40EEA14F 
 184      1B96
 185 003b F3406499 		.ascii	"\363@d\231\201\334;Wn=\205\312\036\002i>\372\377\373"
 185      81DC3B57 
ARM GAS  C:\Users\info\AppData\Local\Temp\ccKpCAvq.s 			page 14


 185      6E3D85CA 
 185      1E02693E 
 185      FAFFFB
 186 004e 017E8834 		.ascii	"\001~\2104\023\220\373x\371\277\351l\020iQ \367]\313"
 186      1390FB78 
 186      F9BFE96C 
 186      10695120 
 186      F75DCB
 187 0061 D307DC10 		.ascii	"\323\007\334\020\256\004\220{\367\316\374\025\354\026"
 187      AE04907B 
 187      F7CEFC15 
 187      EC16
 188 006f DB1A3A16 		.ascii	"\333\032:\0264\004\264231\032\3120\256c\224a4\222a\\"
 188      3404B432 
 188      33311ACA 
 188      30AE6394 
 188      61349261 
 189 0084 0BA4D600 		.ascii	"\013\244\326\000\361j ^\005\304+\201x\005\020/g\224"
 189      F16A205E 
 189      05C42B81 
 189      7805102F 
 189      6794
 190 0096 61605CCF 		.ascii	"a`\\\317h\301\000\000\371\326?\276"
 190      68C10000 
 190      F9D63FBE 
 191              		.text
 192              		.section	.gnu.lto_u8x8_d_uc1638_160x128.792a5c69,"",%progbits
 193 0000 789C7594 		.ascii	"x\234u\224\333K\024Q\034\307\317w\316\314\354%w\335"
 193      DB4B1451 
 193      1CC7CF77 
 193      CECCEC25 
 193      77DD
 194 0012 7A92D8C2 		.ascii	"z\222\330\302\227\020_\354\006\341\277\320k\275\026"
 194      97105FEC 
 194      06E1BFD0 
 194      6BBD16
 195 0021 125B5844 		.ascii	"\022[XD\021V\320K\354\321\335\301\004\363\362`\210\030"
 195      1156D04B 
 195      ECD1DDC1 
 195      04F3F260 
 195      8818
 196 0033 1625DDF3 		.ascii	"\026%\335\363RV[[mV\322m-Q*3\350j\211H\265]\260\002"
 196      52565B5B 
 196      6D56D26D 
 196      2D512A33 
 196      E86A8948 
 197 004b DB7EBF33 		.ascii	"\333~\2773\332\305\255\201\2359\347\314\357\363\373"
 197      DAC5AD81 
 197      9D39E7CC 
 197      EFF3FB
 198 005a 7D7F9759 		.ascii	"}\177\227YS@\360\265\325\024\242\224\236\253\351\007"
 198      5340F0B5 
 198      D514A294 
 198      9EABE907 
 199 006a 8F80D1D0 		.ascii	"\217\200\321\320/D\245\3270\344\320b\241\374vr\241P"
 199      2F44A5D7 
 199      30E4D062 
ARM GAS  C:\Users\info\AppData\Local\Temp\ccKpCAvq.s 			page 15


 199      A1FC7672 
 199      A150
 200 007c 7952DACE 		.ascii	"yR\332\316|\241\274\246\276[\356\032\266kj\315,l\200"
 200      7CA1BCA6 
 200      BE5BEE1A 
 200      B66B6ACD 
 200      2C6C80
 201 008f 17CA0B11 		.ascii	"\027\312\013\0215\244i\331\210\342\2131e\340\356\344"
 201      35A469D9 
 201      88E28B31 
 201      65E0EEE4 
 202 009f AD5A7FF1 		.ascii	"\255Z\177\361\021\245\252\324s\347\315\312L\225S\340"
 202      11A5AAD4 
 202      73E7CDCA 
 202      4C9553E0 
 203 00af 4821B286 		.ascii	"H!\262\206\300\3620\226\2049\364\021\024\223\345@\274"
 203      C0F23096 
 203      8439F411 
 203      1493E540 
 203      BC
 204 00c0 B3557E36 		.ascii	"\263U~6\034\011\230\264\315\244[^\005yk\240\220\266"
 204      1C0998B4 
 204      CDA45B5E 
 204      05796BA0 
 204      90B6
 205 00d2 07860E3D 		.ascii	"\007\206\016=\265e!\004\255\367\335\031z\027(jg\237"
 205      B5652104 
 205      ADF7DD19 
 205      7A17286A 
 205      679F
 206 00e4 AA6D83F2 		.ascii	"\252m\203\3629R\3428$\373<\2060\216\",\350H\340\004"
 206      3952E238 
 206      24FB3C86 
 206      308E222C 
 206      E848E004 
 207 00f8 8AC8FA5E 		.ascii	"\212\310\372^g\342\221)\027ir2y}j\206\034Y\253$I\301"
 207      67E29129 
 207      17697232 
 207      797D6A86 
 207      1C59AB24 
 208 010e 499774D5 		.ascii	"I\227t\325\2606\234\322\\\363\300\363\275~Y\254\271"
 208      B0369CD2 
 208      5CF3C0F3 
 208      BD7E59AC 
 208      B9
 209 011f D6D1F7C3 		.ascii	"\326\321\367\303\3264\327\3247G-a\360t\016\330\241\301"
 209      D634D7D4 
 209      37472D61 
 209      F0740ED8 
 209      A1C1
 210 0131 E1B7E941 		.ascii	"\341\267\351A\277\\\252\301\343=\317\272=\323\340`_"
 210      BF5CAAC1 
 210      E33DCFBA 
 210      3DD3E060 
 210      5F
 211 0142 9E6A8023 		.ascii	"\236j\200#Mt\316\026k\012t\241\210\201\227]?\232\002"
 211      4D74CE16 
ARM GAS  C:\Users\info\AppData\Local\Temp\ccKpCAvq.s 			page 16


 211      6B0A74A1 
 211      8881975D 
 211      3F9A02
 212 0155 765CD155 		.ascii	"v\\\321U\310U\"\257\335\260\271_\035\253R*\233\215\251"
 212      C85522AF 
 212      DDB0B95F 
 212      1DAB522A 
 212      9B8DA9
 213 0168 D499E0B5 		.ascii	"\324\231\340\265\257\301\0008\244\011N\322\002K\246"
 213      AFC10038 
 213      A4094ED2 
 213      024BA6
 214 0177 16507C0F 		.ascii	"\026P|\017\330\223\217^ZB| \236\333\2221\014~\3121T"
 214      D8938F5E 
 214      5A427C20 
 214      9EDB9231 
 214      0C7ECA31 
 215 018c A7CED7E5 		.ascii	"\247\316\327\345\261\307\230\364Q\264Dbb\304\023\235"
 215      B1C798F4 
 215      51B44462 
 215      62C4139D 
 216 019c 527B940A 		.ascii	"R{\224\0129\322\316\032\024\010g\020\0251i\306\244\025"
 216      39D2CE1A 
 216      14086710 
 216      153169C6 
 216      A415
 217 01ae 9364E771 		.ascii	"\223d\347q\244G\274@\374Il\376o\260c\"\361-\300\335"
 217      A447BC40 
 217      FC496CFE 
 217      6FB06322 
 217      F12DC0DD 
 218 01c2 B1207016 		.ascii	"\261 p\026a=O\031C\212\241\305r\024\361\324\345~\303"
 218      613D4F19 
 218      438AA1C5 
 218      7214F1D4 
 218      E57EC3
 219 01d5 35B6B85F 		.ascii	"5\266\270_\303\207\307\254F\324WRZ\251g\375Tu/\215\212"
 219      C387C7AC 
 219      46D45752 
 219      5AA967FD 
 219      54752F8D 
 220 01ea 64043D68 		.ascii	"d\004=h\004\233\244\033/\332\354O\200\335\367N\214\274"
 220      049BA41B 
 220      2FDAEC4F 
 220      80DDF74E 
 220      8CBC
 221 01fc C60CF120 		.ascii	"\306\014\361 H\000\316Q\020%\271\0208\3572\351\203'"
 221      4800CE51 
 221      1025B910 
 221      38EF32E9 
 221      8327
 222 020e FBA7193F 		.ascii	"\373\247\031?m\253j\036\265{g\230\207\232\271\240\031"
 222      6DAB6A1E 
 222      B57B6798 
 222      879AB9A0 
 222      19
 223 021f 5DC40431 		.ascii	"]\304\0041Z\242)2\371\3625*C\254\217\035\216\301I\015"
ARM GAS  C:\Users\info\AppData\Local\Temp\ccKpCAvq.s 			page 17


 223      5AA22932 
 223      F9F2352A 
 223      43AC8F1D 
 223      8EC1490D 
 224 0233 D681B722 		.ascii	"\326\201\267\"\247$\276,\225N\340\242[\022\026\352\364"
 224      A724BE2C 
 224      954EE0A2 
 224      5B1216EA 
 224      F4
 225 0244 DEF77050 		.ascii	"\336\367pP\277\356o\354\373\325OA\262n\326\326\376\032"
 225      BFEE6FEC 
 225      FBD54F41 
 225      B26ED6D6 
 225      FE1A
 226 0256 1A3B3EBE 		.ascii	"\032;>\276\335rbs\033\366W6\350\3439H\322\347p\211\253"
 226      DD726273 
 226      1BF65736 
 226      E8E33948 
 226      D2E77089 
 227 026b 44EFB2E3 		.ascii	"D\357\262\343\335\247}\204\024\260\217\313hs#\343\012"
 227      DDA77D84 
 227      14B08FCB 
 227      687323E3 
 227      0A
 228 027c A28ECCD3 		.ascii	"\242\216\314\323\022\255\277%\032$1\236z\034\374\267"
 228      12ADBF25 
 228      1A24319E 
 228      7A1CFCB7 
 229 028c C240D6E0 		.ascii	"\302@\326\340\321\273\352*tdP'\364\344?\326\371Y*\200"
 229      D1BBEA2A 
 229      74645027 
 229      F4E43FD6 
 229      F9592A80 
 230 02a0 402A379F 		.ascii	"@*7\237\320?\362\011\325\320d\346\3463\027\275\224\317"
 230      D03FF209 
 230      D5D064E6 
 230      E63317BD 
 230      94CF
 231 02b2 B559F910 		.ascii	"\265Y\371\020\242v\263\237\353\277r\272\3019\315\323"
 231      A276B39F 
 231      EBBF72BA 
 231      C139CDD3 
 232 02c2 39D9A29E 		.ascii	"9\331\242\236\006\220\223\322\235\037GU\210\024pK>\002"
 232      069093D2 
 232      9D1F4755 
 232      8814704B 
 232      3E02
 233 02d4 7FEAA0FF 		.ascii	"\177\352\240\377&\334DX\326N\256\247\343\236\352{]~"
 233      26DC4458 
 233      D64EAEA7 
 233      E39EEA7B 
 233      5D7E
 234 02e6 F718E843 		.ascii	"\367\030\350C\330LNn\344'}=t\327#\016\366LMZPR\262f"
 234      D84C4E6E 
 234      E4277D3D 
 234      74D7230E 
 234      F64C4D5A 
ARM GAS  C:\Users\info\AppData\Local\Temp\ccKpCAvq.s 			page 18


 235 02fe 6769F9B2 		.ascii	"gi\371\262\262\310\366\212\010\255v\225\226\255/\333"
 235      B2C8F68A 
 235      08AD7695 
 235      96AD2FDB 
 236 030e 1959BA62 		.ascii	"\031Y\272byiID\230| \267l/\367\254\253(/\333\264u\207"
 236      79694944 
 236      987C20B7 
 236      6C2FF7AC 
 236      AB282FDB 
 237 0325 7E6EDB51 		.ascii	"~n\333Q\361\023\015\250\216\365"
 237      F1130DA8 
 237      8EF5
 238              		.text
 239              		.section	.gnu.lto_u8x8_uc1638_160x128_display_info.792a5c69,"",%progbits
 240 0000 789C2DCE 		.ascii	"x\234-\316?O\302@\030\307\361\373\365z\002\005\024\215"
 240      3F4FC240 
 240      18C7F1FB 
 240      F57A0205 
 240      148D
 241 0012 2371F14D 		.ascii	"#q\361M\260\370\336\232X\214#\223\023M\030LPA9\377\325"
 241      B0F8DE9A 
 241      588C2393 
 241      134D184C 
 241      504139FF 
 242 0027 C060D418 		.ascii	"\300`\324\030\015\211\203\232\270IL\034tq@b\004\022"
 242      0D89839A 
 242      B8494C1C 
 242      74714062 
 242      0412
 243 0039 4A7C1E9F 		.ascii	"J|\036\237\353\362\355\247w\327\347|\005\305OD\2217"
 243      EBF2EDA7 
 243      77D7E77C 
 243      05C54F44 
 243      9137
 244 004b A5520FC9 		.ascii	"\245R\017\311G\377.\370\361\252Z!\0049}\253\3252\342"
 244      47FF2EF8 
 244      F1AA5A21 
 244      04397DAB 
 244      D532E2
 245 005e 06BBF3D5 		.ascii	"\006\273\363\325\235\026\331\000o\177\036>\304ya\211"
 245      9D16D900 
 245      6F7F1E3E 
 245      C4796189 
 246 006e F83D8B2F 		.ascii	"\370=\213/r\302U\342\273\375}\325\302ubo\263e\335\331"
 246      72C255E2 
 246      BBFD7DD5 
 246      C275626F 
 246      B365DDD9 
 247 0082 35E25364 		.ascii	"5\342Sd\353n\325'\336\214l\263 \324\304\317\311`\362"
 247      EB6ED527 
 247      DE8C6CB3 
 247      20D4C4CF 
 247      C960F2
 248 0095 3FD8C355 		.ascii	"?\330\303U\264A\037\272a{\340\326\257y\364t\\\037\033"
 248      B4411FBA 
 248      617BE0D6 
 248      AF79F474 
ARM GAS  C:\Users\info\AppData\Local\Temp\ccKpCAvq.s 			page 19


 248      5C1F1B
 249 00a8 F10EDFAC 		.ascii	"\361\016\337\254\277\333\233\271u\303\027\037>\246\216"
 249      BFDB9BB9 
 249      75C3171F 
 249      3EA68E
 250 00b7 01F1ECF6 		.ascii	"\001\361\354\366~++\344\315\243\227\370\322T\222p\273"
 250      7E2B2BE4 
 250      CDA397F8 
 250      D2549270 
 250      BB
 251 00c8 115A53D5 		.ascii	"\021ZS\325z\356)\234\243<\367\200}\016\035\340h\264"
 251      7AEE299C 
 251      A33CF780 
 251      7D0E1DE0 
 251      68B4
 252 00da 383E4E39 		.ascii	"8>N9\006'\234\005\034r28\346da99t8\001\2168y\331R@\233"
 252      06279C05 
 252      1C723238 
 252      E6646139 
 252      39743801 
 253 00f5 5394BF2C 		.ascii	"S\224\277,\342\200\263$\023J\222e\354qV\320DY!AE\375"
 253      E280B324 
 253      134A9265 
 253      EC7156D0 
 253      44592141 
 254 010b 015EAC86 		.ascii	"\001^\254\206\\"
 254      5C
 255              		.text
 256              		.section	.gnu.lto_u8x8_d_uc1638_160x128_init_seq.792a5c69,"",%progbits
 257 0000 789C4D92 		.ascii	"x\234M\222\333n\022Q\024\206g\315@i\001\251\347S\270"
 257      DB6E1251 
 257      148667CD 
 257      406901A9 
 257      E753B8
 258 0013 F405D4C4 		.ascii	"\364\005\324\304\364\201z\353;\224\004L\313U/\252x!"
 258      F4817AEB 
 258      3B94044C 
 258      CB552FAA 
 258      7821
 259 0025 09A51AC4 		.ascii	"\011\245\032\304\012L[\205\016\305\212=\330\326b-M<"
 259      0A4C5B85 
 259      0EC58A3D 
 259      D8D6622D 
 259      4D3C
 260 0037 9018A55A 		.ascii	"\220\030\245Z\305Xm*B\252\026\250\377\236\265.\230\344"
 260      C5586D2A 
 260      42AA16A8 
 260      FF9EB52E 
 260      98E4
 261 0049 CBCC97FF 		.ascii	"\313\314\227\377\337{\366\354\331\016\2154u]74y\322"
 261      DF7BF6EC 
 261      D90E8D34 
 261      755D3734 
 261      79D2
 262 005b B4B64E99 		.ascii	"\264\266N\231\320N\262\267\241\207\014\215\216\010^"
 262      D04EB2B7 
 262      A1870C8D 
ARM GAS  C:\Users\info\AppData\Local\Temp\ccKpCAvq.s 			page 20


 262      8E085E
 263 006a AB8D8F79 		.ascii	"\253\215\217y\225\023]\2046\"\245J?\307\027\272\225"
 263      95135D84 
 263      3622A54A 
 263      3FC717BA 
 263      95
 264 007b 6C6D7F1C 		.ascii	"lm\177\034\035uq\032S\203\367\202_\252\036\216\317C"
 264      1D75711A 
 264      5383F782 
 264      5FAA1E8E 
 264      CF43
 265 008d 9B7FC37B 		.ascii	"\233\177\303{}\034\237\205\376\216\204Fz9=\007\235K"
 265      7D1C9F85 
 265      FE8E8446 
 265      7A393D07 
 265      9D4B
 266 009f 666A3D9C 		.ascii	"fj=\234\006\250\273Mv\373s\242\023\221\370L\267\222"
 266      06A8BB4D 
 266      76FB73A2 
 266      1391F84C 
 266      B792
 267 00b1 ADEDDB5F 		.ascii	"\255\355\333_\307\015NG\324\340_\255hN\006\237V\353"
 267      C70D4E47 
 267      D4E05FAD 
 267      684E069F 
 267      56EB
 268 00c3 B46EFCF3 		.ascii	"\264n\374\363\261\236\202\226nY\327\270|S\225\247\252"
 268      B19E8296 
 268      6E59D7B8 
 268      7C5395A7 
 268      AA
 269 00d4 AD8283D3 		.ascii	"\255\202\203\323\223\320\341\225\017\257\211\365\004"
 269      93D0E195 
 269      0FAF89F5 
 269      04
 270 00e1 3437F123 		.ascii	"47\361#\351\344\366\256jo\355\227\242\362Q\307\241\351"
 270      E9E4F6AE 
 270      6A6FED97 
 270      A2F251C7 
 270      A1E9
 271 00f3 7A232D0B 		.ascii	"z#-\013\351\207\316n,\305\334\334~\243\332\355\367\201"
 271      E987CE6E 
 271      2CC5DCDC 
 271      7EA3DAED 
 271      F781
 272 0105 8ECEB10F 		.ascii	"\216\316\261\017:\361\335Zt\262\036\203N\227\233\001"
 272      3AF1DD5A 
 272      74B21E83 
 272      4E979B01 
 273 0115 59765CB5 		.ascii	"Yv\\\265\017\277\215U\344\325^\350\333J\320\022\365"
 273      0FBF8D55 
 273      E4D55EE8 
 273      DB4AD012 
 273      F5
 274 0126 40CD42F0 		.ascii	"@\315B\360\247\217\333E{\356\375\315\266\374\0337t2"
 274      A78FDB45 
 274      7BEEFDCD 
ARM GAS  C:\Users\info\AppData\Local\Temp\ccKpCAvq.s 			page 21


 274      B6FC1B37 
 274      7432
 275 0138 7B2F2FED 		.ascii	"{//\355>\350\237B9\256s\373\222\332\202p\350\300\340"
 275      3EE89F42 
 275      39AE73FB 
 275      92DA8270 
 275      E8C0E0
 276 014b D4055DBB 		.ascii	"\324\005]\273\233oy9uBw\016Sy\331\240\036\350\273\335"
 276      9B6F7939 
 276      7542770E 
 276      5379D9A0 
 276      1EE8BBDD 
 277 015f AD750FA7 		.ascii	"\255u\017\247\035\352n\223\335.\247\266\0079\375\244"
 277      1DEA6E93 
 277      DD2EA7B6 
 277      0739FDA4 
 278 016f D272D0BC 		.ascii	"\322r\320\274#S;\240\013u3!e\003\272\032\255\307\345"
 278      23533BA0 
 278      0B753321 
 278      6503BA1A 
 278      ADC7E5
 279 0182 C86CABF6 		.ascii	"\310l\253\366\362\321AQ\316\214\336}F4\373\214\314\207"
 279      F2D14151 
 279      CE8CDE7D 
 279      4634FB8C 
 279      CC87
 280 0194 AB4DF740 		.ascii	"\253M\367@vh86d\272B\206N\227\375\264I~\272\342\247"
 280      76683836 
 280      64BA4286 
 280      4E97FDB4 
 280      497EBAE2 
 281 01a9 29DC5E81 		.ascii	")\334^\201\015\360\022\244@\011\254\203\027`\015\254"
 281      0DF012A4 
 281      4009AC83 
 281      17600DAC 
 282 01b9 8215F09C 		.ascii	"\202\025\360\234\270\177\325O\313\270-\211.\202\005"
 282      B87FD54F 
 282      CBB82D89 
 282      2E8205
 283 01c8 F04CBC08 		.ascii	"\360L\274\010\236\202y\361'\240\000\346\304\363\300"
 283      9E8279F1 
 283      27A000E6 
 283      C4F3C0
 284 01d7 02B3E239 		.ascii	"\002\263\3429\220\005\217\305\037\201\0310-n\202\014"
 284      90058FC5 
 284      1F811930 
 284      2D6E820C 
 285 01e7 48CBF21E 		.ascii	"H\313\362\036\202I\360\000$\301}\220 \277Fe\032\320"
 285      8249F000 
 285      24C17D90 
 285      20BF4665 
 285      1AD0
 286 01f9 FE0350F1 		.ascii	"\376\003P\361,\235"
 286      2C9D
 287              		.text
 288              		.section	.gnu.lto_.symbol_nodes.792a5c69,"",%progbits
 289 0000 789C55D0 		.ascii	"x\234U\320\277J\003A\020\200\361own\223\373\227\004"
ARM GAS  C:\Users\info\AppData\Local\Temp\ccKpCAvq.s 			page 22


 289      BF4A0341 
 289      1080F16F 
 289      776E93FB 
 289      9704
 290 0012 AC53E8EB 		.ascii	"\254S\350\353\3706y\202\271\342\260\021D\024\"\030\260"
 290      F8367982 
 290      B9E2B011 
 290      44142218 
 290      B0
 291 0023 90AD7C8E 		.ascii	"\220\255|\216\303J\363\014)\216t\3017\020ow\257p\253"
 291      C34AF30C 
 291      298E74C1 
 291      37106F77 
 291      AF70AB
 292 0036 1F1FCC4C 		.ascii	"\037\037\314L1\005\206\235\001l\241\360x\204\211\217"
 292      3105869D 
 292      016CA1F0 
 292      7884898F 
 293 0046 EE061C74 		.ascii	"\356\006\034tW \316\230\244\265I\221\250]\252\311\027"
 293      5720CE98 
 293      A4B54991 
 293      A85DAAC9 
 293      17
 294 0057 5C910616 		.ascii	"\\\221\006\026.jZ\265q`:\324]\203\251U\262\256\264\310"
 294      2E6A5AB5 
 294      71603AD4 
 294      5D83A955 
 294      B2AEB4C8 
 295 006b BA5497F5 		.ascii	"\272T\227\365J\027Y7\272\314z\243e\326k\255\376\267"
 295      4A175937 
 295      BACC7AA3 
 295      65D66BAD 
 295      FEB7
 296 007d D0309EB6 		.ascii	"\3200\236\266BM\177\367%B\205\217\326\370\373d\3770"
 296      424D7FF7 
 296      2542858F 
 296      D6F8FB64 
 296      FF30
 297 008f 7774C5F0 		.ascii	"wt\305\360\364s+\224\014\317\241[\374\376l\202\303\254"
 297      F4732B94 
 297      0CCFA15B 
 297      FCFE6C82 
 297      C3AC
 298 00a1 7F997D0D 		.ascii	"\177\231}\0156\014\207\264?\036\322\375\376-X\342\203"
 298      360C87B4 
 298      3F1ED2FD 
 298      FE2D58E2 
 298      83
 299 00b2 D303DF4F 		.ascii	"\323\003\337O\277F\334\006\177\331\212[3\006Z\372\317"
 299      BF46DC06 
 299      7FD98A5B 
 299      33065AFA 
 299      CF
 300 00c3 6FE10F3D 		.ascii	"o\341\017=\311N\315"
 300      C94ECD
 301              		.text
 302              		.section	.gnu.lto_.refs.792a5c69,"",%progbits
ARM GAS  C:\Users\info\AppData\Local\Temp\ccKpCAvq.s 			page 23


 303 0000 789C6361 		.ascii	"x\234ca`d\020g```a`b\324db\322bb\326eb1dbebceb\347`"
 303      60641067 
 303      60606061 
 303      6062D464 
 303      62D26262 
 304 0021 00000F21 		.ascii	"\000\000\017!\001\011"
 304      0109
 305              		.text
 306              		.section	.gnu.lto_.decls.792a5c69,"",%progbits
 307 0000 789CBD59 		.ascii	"x\234\275Y{PTW\232\357\323\247\201\246i@\001\023+\313"
 307      7B505457 
 307      9AEFD3A7 
 307      81A66940 
 307      01132BCB 
 308 0014 CE508951 		.ascii	"\316P\211Q\246j\306\210f-k\377\330M*\273\263\231\375"
 308      A66AC688 
 308      662D6BFF 
 308      D84D2ABB 
 308      B399FD
 309 0027 63666A67 		.ascii	"cfjg\222\252\331b\253\247m\032\355\0114\244\2731\232"
 309      92AAD962 
 309      ABA76D1A 
 309      ED0934A4 
 309      BB319A
 310 003a 9ADABA08 		.ascii	"\232\332\272\010\242\203\021A\021y\210\274\024P@\021"
 310      A2831141 
 310      117988BC 
 310      14504011 
 311 004a 7C21201D 		.ascii	"|! \035|\214\342\013y)\362\020Q\304\027\212\200\242"
 311      7C8CE20B 
 311      7929F210 
 311      51C4178A 
 311      80A2
 312 005c A2B0DF79 		.ascii	"\242\260\337y\334\276\267\361v\246\246jg:\371\274\367"
 312      DCBEB7F1 
 312      76A6A66A 
 312      673AF9BC 
 312      F7
 313 006d 3BE777BE 		.ascii	";\347w\276\363}\277\357;\347\236{\321\250\220\212\374"
 313      F37DBFEF 
 313      3BE79E7B 
 313      D1A8908A 
 313      FC
 314 007e 06C254AA 		.ascii	"\006\302T\252a/\225\352\023\254R\315\300\317\027\332"
 314      612F95EA 
 314      13AC52CD 
 314      C0CF17DA 
 315 008e BE54493F 		.ascii	"\276TI?\035\310\247\000\375\014\344\027 \277\002\371"
 315      1DC8A700 
 315      FD0CE417 
 315      20BF02F9 
 316 009e 2F902F40 		.ascii	"/\220/@\376\033d%H4\310W \336\200\265\301\325\001\362"
 316      FE1B6425 
 316      4834C857 
 316      20DE80B5 
 316      C1D501F2 
 317 00b2 2DC81F41 		.ascii	"-\310\037A\376\027$\005\251\334~\304^(\\k@\202@B@~L"
ARM GAS  C:\Users\info\AppData\Local\Temp\ccKpCAvq.s 			page 24


 317      FE172405 
 317      A9DC7EC4 
 317      5E285C6B 
 317      40824042 
 318 00c9 6CC2F57F 		.ascii	"l\302\365\177x\337F\270\316G\314\227T\270~\016\222\013"
 318      78DF46B8 
 318      CE47CC97 
 318      54B87E0E 
 318      920B
 319 00db 92039207 		.ascii	"\222\003\222\007\362K\2200\220_C\377.\270\032A\362A"
 319      F24B9030 
 319      905F43FF 
 319      2EB81A41 
 319      F241
 320 00ed 76837C0D 		.ascii	"v\203|\015\362;\220\002\220u \357\202t\000N\013\222"
 320      F23B9002 
 320      907520EF 
 320      8274004E 
 320      0B92
 321 00ff 01F79920 		.ascii	"\001\367\231 ?\005\331\016\262\003\344_@t ^ >\334\277"
 321      3F05D90E 
 321      B203E45F 
 321      4074205E 
 321      203EDCBF 
 322 0113 2F789CBF 		.ascii	"/x\234\277\3421\376\202\307K\370)\204k\021H1H\011\310"
 322      E231FE82 
 322      C74BF829 
 322      846B1148 
 322      314809C8 
 323 0127 1EF476DC 		.ascii	"\036\364v\334\362\037\351\003zi\\$\326\257g\365\313"
 323      F21FE903 
 323      7A695C24 
 323      D6AF67F5 
 323      CB
 324 0138 7F8EBF02 		.ascii	"\177\216\277\002\373\355,\354\272\037\300\376\361\257"
 324      FBED2CEC 
 324      BA1FC0FE 
 324      F1AF
 325 0146 C0925C07 		.ascii	"\300\222\\\007\253\224\363C\306/\205\373e<7{y\236\010"
 325      AB94F343 
 325      C62F85FB 
 325      653C377B 
 325      799E08
 326 0159 C77F0029 		.ascii	"\307\177\000)\0051\363\\\224\201l\340\271 ?/n\373S^"
 326      0531F35C 
 326      94816CE0 
 326      B9203F2F 
 326      6EFB535E 
 327 016d 2FD19C53 		.ascii	"/\321\234S\322^\016\327} \373=\324\014i\323\300u!\367"
 327      D25E0ED7 
 327      7D20FB3D 
 327      D40C69D3 
 327      C07521F7 
 328 0181 61918ACD 		.ascii	"a\221\212\315I\374\364&} j\222?\020-\310\034\220\031"
 328      49FCF426 
 328      7D206A92 
 328      3F102DC8 
ARM GAS  C:\Users\info\AppData\Local\Temp\ccKpCAvq.s 			page 25


 328      1C9019
 329 0194 E8C30403 		.ascii	"\350\303\004\003\242\007\361#\371\003\361\007\231K\354"
 329      A207F123 
 329      F903F107 
 329      994BEC
 330 01a3 CBF28E40 		.ascii	"\313\362\216@\002<p\2222\213\273\015?\300\335\0335J"
 330      023C7092 
 330      328BBB0D 
 330      3FC0DD1B 
 330      354A
 331 01b5 1A7C50A8 		.ascii	"\032|P\250\355A\335`\022\321\237\212\25752\011\342W"
 331      ED41DD60 
 331      12D19F8A 
 331      AF353209 
 331      E257
 332 01c7 159F13FE 		.ascii	"\025\237\023\376U\253\230+\034\3452\216\350\177\360"
 332      55AB982B 
 332      1CE5328E 
 332      E87FF0
 333 01d6 BF9AE291 		.ascii	"\277\232\342\221\254\303\015G\327-\375IM\310\365\023"
 333      ACC30D47 
 333      D72DFD49 
 333      4DC8F513 
 334 01e6 91C8DD28 		.ascii	"\221\310\335(\242l\211*\350ji\200\314\036\367\236\317"
 334      A26C892A 
 334      E86A6980 
 334      CC1EF79E 
 334      CF
 335 01f7 8FE4D352 		.ascii	"\217\344\323R\323X\014zf\373tw\000\006\233p\177\363"
 335      D3580C7A 
 335      66FB7477 
 335      00069B70 
 335      7FF3
 336 0209 65F9CF17 		.ascii	"e\371\317\027W\012\360K\027\004\365G\0223\007*\247\252"
 336      570AF04B 
 336      1704F547 
 336      1233072A 
 336      A7AA
 337 021b 751A8817 		.ascii	"u\032\210\027}\241G+5\244\351\340\206;\373\264\023j"
 337      7DA1472B 
 337      35A4E9E0 
 337      863BFBB4 
 337      136A
 338 022d 14AA4333 		.ascii	"\024\252C3\210\350\217\352^\3723\235t\037v\216Wip\030"
 338      88E88FEA 
 338      5EFA339D 
 338      741F768E 
 338      57697018 
 339 0241 B9575FAD 		.ascii	"\271W_\255\355>\343\213\302u\245\304\362\300\221g\237"
 339      ED3EE38B 
 339      C275A5C4 
 339      F2C09167 
 339      9F
 340 0252 26090242 		.ascii	"&\011\002B\007\221\016U!\214\366\241\305\304\251P\262"
 340      07910E55 
 340      218CF6A1 
 340      C5C4A950 
ARM GAS  C:\Users\info\AppData\Local\Temp\ccKpCAvq.s 			page 26


 340      B2
 341 0263 616D1284 		.ascii	"am\022\204\365\302h\261\340=_\205\226\205\242%\241*"
 341      F5C268B1 
 341      E03D5F85 
 341      9685A225 
 341      A12A
 342 0275 74008513 		.ascii	"t\000\205\023\233\004\205*Q(\252@\241\304\376\276\202"
 342      9B04852A 
 342      5128AA40 
 342      A1C4FEBE 
 342      82
 343 0286 F2D3FEB8 		.ascii	"\362\323\376\270\012\321\011F2\037n\302\256\011z6\207"
 343      0AD10946 
 343      321F6EC2 
 343      AE097A36 
 343      87
 344 0297 5608C21C 		.ascii	"V\010\302\034T\003\023TK\023\300|\3123\034R\236\241"
 344      54031354 
 344      4B13C07C 
 344      CA331C52 
 344      9EA1
 345 02a9 27A5EC82 		.ascii	"'\245\354\202\037\215\231\030\332\217h\324\235\327\373"
 345      1F8D9918 
 345      DA8F68D4 
 345      9DD7FB
 346 02b8 3B7D5D8D 		.ascii	";}]\215\265\254\361jr\365.\014\241\007\351\220\006\324"
 346      B5ACF16A 
 346      72F52E0C 
 346      A107E990 
 346      06D4
 347 02ca A797726F 		.ascii	"\247\227ro\007\200\032\242Ca\240\346\215\367\335\367"
 347      07801AA2 
 347      4361A0E6 
 347      8DF7DDF7 
 348 02da 65BDE1A0 		.ascii	"e\275\341\240>N\036\032\360c\275\363A\025\356%\027\250"
 348      3E4E1E1A 
 348      F063BDF3 
 348      4115EE25 
 348      17A8
 349 02ec 7125E3BF 		.ascii	"q%\343\277m\364b>\357\233\003j\323\275\214&-\256g}\255"
 349      6DF4623E 
 349      EF9B036A 
 349      D3BD8C26 
 349      2DAE677D 
 350 0301 6523D702 		.ascii	"e#\327\002p;S\356\0256\325h\361c\246\224\337\335\225"
 350      703B53EE 
 350      1536D568 
 350      F163A694 
 350      DFDD95
 351 0314 A667A356 		.ascii	"\246g\243V\310\246\017b\323\357pn{\255\303\257\030\264"
 351      C8A60F62 
 351      D3EF706E 
 351      7BADC3AF 
 351      18B4
 352 0326 FE58C359 		.ascii	"\376X\303Y/\006]\002\352\371\272\301%x\003\246]\242"
 352      2F065D02 
 352      EAF9BAC1 
ARM GAS  C:\Users\info\AppData\Local\Temp\ccKpCAvq.s 			page 27


 352      257803A6 
 352      5DA2
 353 0338 9B21CCCD 		.ascii	"\233!\314\315\347\027:\3720\316d}[\233\033Oiq!S\316"
 353      E7173AFA 
 353      30CE647D 
 353      5B9B1B4F 
 353      69712153 
 354 034d F6DEE8D4 		.ascii	"\366\336\350\324\340J\246$6\236\252\365\307\3373\345"
 354      E04AA624 
 354      369EAAF5 
 354      C7DF33E5 
 355 035d CCCCA433 		.ascii	"\314\314\2443\220\315\254\006\365Mm\355)\204[X\337\336"
 355      90CDAC06 
 355      F54D6DED 
 355      29845B58 
 355      DFDE
 356 036f 5753A384 		.ascii	"WS\243\204\243\205P.3XV/\013Y\2754]8_\252\307\355\024"
 356      A385502E 
 356      3358562F 
 356      0B59BD34 
 356      5D385FAA 
 357 0386 AC6E6BCE 		.ascii	"\254nk\316~\343\207t\3414YB\222\240\013W\241\023\220"
 357      7EE38774 
 357      E1345942 
 357      92A00B57 
 357      A11390
 358 0399 99739019 		.ascii	"\231s\220\031t\031\322\265\220\247\353\0024\266@#\257"
 358      7419D2B5 
 358      90A7EB02 
 358      34B64023 
 358      AF
 359 03aa AC91FFA4 		.ascii	"\254\221\377\244\225u\011RsQJ\374B\035+\342\223\031"
 359      95750952 
 359      73514AFC 
 359      421D2BE2 
 359      9319
 360 03bc 3D7775B8 		.ascii	"=wu\270\237M\261\347\266P\257\3614\305U\217S\364l^X"
 360      9F4DB1E7 
 360      B650AFF1 
 360      34C5558F 
 360      53F46C5E 
 361 03d1 496AAB15 		.ascii	"Ij\253\025\246\270\"Mq\011\3619\304\354\006\261\354"
 361      A6B8224D 
 361      7109F139 
 361      C4EC06B1 
 361      EC
 362 03e2 DE4DDDF7 		.ascii	"\336M\335\367T\217\207\031\005\371\235\203\351\276:"
 362      548F8719 
 362      05F99D83 
 362      E9BE3A
 363 03f1 5E80E97F 		.ascii	"^\200\351\177\271\000s\317lj\366\322\247\022|z\222\020"
 363      B90073CF 
 363      6C6AF6D2 
 363      A7127C7A 
 363      9210
 364 0403 F439EA80 		.ascii	"\3649\352\200I\217B\377\021\350W\241N\244\347\2533\371"
 364      498F42FF 
ARM GAS  C:\Users\info\AppData\Local\Temp\ccKpCAvq.s 			page 28


 364      11E857A1 
 364      4EA4E7AB 
 364      33F9
 365 0415 41C908C2 		.ascii	"A\311\010\302\217\330,}\347\366U\020\242\027\021\242"
 365      8FD82C7D 
 365      E7F65510 
 365      A21711A2 
 366 0425 67660265 		.ascii	"gf\002eT/bT\267m\035\333\343\203\2373\036*2\036\266"
 366      542F6254 
 366      B76D1DDB 
 366      E3839F33 
 366      1E2A321E 
 367 043a C9D6E65E 		.ascii	"\311\326\346^}\035\011\257\007f\352\226\302[\344Z9\324"
 367      7D1D09AF 
 367      0766EA96 
 367      C25BE45A 
 367      39D4
 368 044c 1195CB0B 		.ascii	"\021\225\313\013t\003\\_\304]\277\016\215\327\370\352"
 368      74035C5F 
 368      C45DBF0E 
 368      8DD7F8EA 
 369 045c DC9351EC 		.ascii	"\334\223Q\354\215\0235t\212\375\007\256\234\365\021"
 369      8D133574 
 369      8AFD07AE 
 369      9CF511
 370 046b A99E6DA0 		.ascii	"\251\236m\240_\301\200H\365\307\224\352>\360\245W\362"
 370      5FC18048 
 370      F5C794EA 
 370      3EF0A557 
 370      F2
 371 047c A547A45A 		.ascii	"\245G\244Z\\,Al\261\014\036\232|\244\305\251tJ\264q"
 371      5C2C416C 
 371      B10C1E9A 
 371      7CA4C5A9 
 371      744AB471 
 372 0490 A6EFB416 		.ascii	"\246\357\264\026\357bJr\331\226<\177\\\316\224\334\372"
 372      EF624A72 
 372      D9963C7F 
 372      5CCE94DC 
 372      FA
 373 04a1 89162F36 		.ascii	"\211\026/6J\013jZ\316X\275\017\256f}\355\316\302<_|"
 373      4A0B6A5A 
 373      CE58BD0F 
 373      AE667DED 
 373      CEC23C5F 
 374 04b6 8C29B70F 		.ascii	"\214)\267\017O\356\361\307\315L\271\365\2441\307\307"
 374      4FEEF1C7 
 374      CD4CB9F5 
 374      A431C7C7 
 375 04c6 B5ECD906 		.ascii	"\265\354\331\006x\244\255\340\246\017na\200WW\246N "
 375      78A4ADE0 
 375      A60F6E61 
 375      805757A6 
 375      4E20
 376 04d8 7C8D29DF 		.ascii	"|\215)\337\265\037]\206\357\260\373\312\316\353o\020"
 376      B51F5D86 
 376      EFB0FBCA 
ARM GAS  C:\Users\info\AppData\Local\Temp\ccKpCAvq.s 			page 29


 376      CEEB6F10 
 377 04e8 1E65CAA5 		.ascii	"\036e\312\245\351\321\223\030\257\367\242J\325@J\273"
 377      E9D19318 
 377      AFF7A24A 
 377      D5404ABB 
 378 04f8 17DECE94 		.ascii	"\027\336\316\224\322\327E\207\365\270\200)g'\033K\274"
 378      D2D74587 
 378      F5B88029 
 378      67271B4B 
 378      BC
 379 0509 F07EA6A4 		.ascii	"\360~\246\244n\336_\024\200\233\230\262\341\273\212"
 379      6EDE5F14 
 379      809B98B2 
 379      E1BB8A
 380 0518 068CDB98 		.ascii	"\006\214\333\230\322z\263\346\2317\036f\312\315\376"
 380      D27AB3E6 
 380      99371E66 
 380      CACDFE
 381 0527 8C3FE051 		.ascii	"\214?\340Qv\377\260\243-\303\013\277a\312\233\232\215"
 381      76FFB0A3 
 381      2DC30BBF 
 381      61CA9B9A 
 381      8D
 382 0538 F51A9CEE 		.ascii	"\365\032\234\356M\225\341s/'\374p1S^5\257\257C\370\010"
 382      4D95E173 
 382      2F27FC70 
 382      31535E35 
 382      AFAF43F8 
 383 054d 538E36BF 		.ascii	"S\2166\277\274\350\205[\230\362x}\305\036\204o3\245"
 383      BCE8855B 
 383      98F2787D 
 383      C51E846F 
 383      33A5
 384 055f 75C74896 		.ascii	"u\307H\226\032\277f\312\353\251\355\211^x\253\017[\263"
 384      1ABF66CA 
 384      EBA9ED89 
 384      5E78AB0F 
 384      5BB3
 385 0571 BDF72AFD 		.ascii	"\275\367*\375p\021S\252\033\222G\370\256\347$\317\203"
 385      701153AA 
 385      1B9247F8 
 385      AEE724CF 
 385      83
 386 0582 F22DA3A7 		.ascii	"\362-\243\247t\370\004\355\2347Z\221\335\341\215\026"
 386      74F804ED 
 386      9C375A91 
 386      DDE18D16 
 387 0592 CCFA852F 		.ascii	"\314\372\205/X\020\274\240\230T\305@\301t|\343\321^"
 387      5810BCA0 
 387      9854C540 
 387      C1747CE3 
 387      D15E
 388 05a4 4148D153 		.ascii	"AH\321S\206\237A\276\267\251\203\305\005\362\021\251"
 388      869F41BE 
 388      B7A983C5 
 388      05F211A9 
 389 05b4 F7EF49D5 		.ascii	"\367\357I\325\253(\334\331\320\346'T\377\236BG\334\241"
ARM GAS  C:\Users\info\AppData\Local\Temp\ccKpCAvq.s 			page 30


 389      AB28DCD9 
 389      D0E62754 
 389      FF9E4247 
 389      DCA1
 390 05c6 37E9DA58 		.ascii	"7\351\332X&A\307\267\005d\013\316\365\230.\331\007\034"
 390      2641C7B7 
 390      05640BCE 
 390      F5982ED9 
 390      071C
 391 05d8 EC5AE90C 		.ascii	"\354Z\351\014~Tf:\347\212\377N\301\231\210\251\361\227"
 391      7E54663A 
 391      E78AFF4E 
 391      C19988A9 
 391      F197
 392 05ea 0A7E9C90 		.ascii	"\012~\234\220\201;\256\270\374\230P\200\236\224A3%\350"
 392      813BAEB8 
 392      FC985080 
 392      9E944133 
 392      25E8
 393 05fc 2B05A8CC 		.ascii	"+\005\250\314\3436)\270\207J\301\035\227Y\335&Y\235"
 393      E33629B8 
 393      874AC11D 
 393      9759DD26 
 393      599D
 394 060e 52B01A21 		.ascii	"R\260\032!!s%\344\013\005\244\334\350.\011:\251\000"
 394      217325E4 
 394      0B05A4DC 
 394      E82E093A 
 394      A900
 395 0620 95B3552D 		.ascii	"\225\263U-\371:\352\016\275\215f'\255U\302>R\212KNl"
 395      F93AEA0E 
 395      BD8D6627 
 395      AD55C23E 
 395      528A4B4E 
 396 0635 A6847DAA 		.ascii	"\246\204}\252d\367\224\014;-\271;\246\204\225\373{X"
 396      64F7940C 
 396      3B2DB93B 
 396      A68495FB 
 396      7B58
 397 0647 B2FB4409 		.ascii	"\262\373D\011+\317\3303y\345L+W\016\213\217nX\316\251"
 397      2BCFD833 
 397      79E54C2B 
 397      570E8B8F 
 397      6E58CEA9 
 398 065b 34BD2068 		.ascii	"4\275 h\011J\3057+\225\313V\201\274\252\236+\220*\017"
 398      094AC537 
 398      2B95CB56 
 398      81BCAA9E 
 398      2B902A0F 
 399 066f E884E4E4 		.ascii	"\350\204\344\344c%\242hV3\3701M\2003\010z\003^\265\021"
 399      6325A268 
 399      5633F831 
 399      4D803308 
 399      7A035EB5 
 400 0684 AF5E733C 		.ascii	"\257^s<\314\217\266\252\303Q\212z\001J\006Y\017\262"
 400      CC8FB6AA 
 400      C3518A7A 
ARM GAS  C:\Users\info\AppData\Local\Temp\ccKpCAvq.s 			page 31


 400      014A0659 
 400      0FB2
 401 0696 11641348 		.ascii	"\021d\023H:\310\014Z\200\222\340\272\035\344;\220\315"
 401      3AC80C5A 
 401      8092E0BA 
 401      1DE43B90 
 401      CD
 402 06a7 207F02D9 		.ascii	" \177\002\331\002\222\001\"\200\244\202l\000I\004IS"
 402      02920122 
 402      80A4826C 
 402      00490449 
 402      53
 403 06b8 2F9045D3 		.ascii	"/\220E\323\2635 Gp&c\2727\217\363)][\372m\311I\330\007"
 403      B3352047 
 403      702663BA 
 403      378FF329 
 403      5D5BFA6D 
 404 06d0 BAB7E6E5 		.ascii	"\272\267\346\345\004\342^\272\017\250\237mi^\216\202"
 404      04E25EBA 
 404      0FA89F6D 
 404      695E8E82 
 405 06e0 C3957DCF 		.ascii	"\303\225}\317\002\177\377\226\276\263,\345\\\376)\311"
 405      027FFF96 
 405      BEB32CE5 
 405      5CFE29C9 
 406 06f0 D20E9828 		.ascii	"\322\016\230(S\355z\252\220\244Qw\017\017\226>\361\011"
 406      53ED7AAA 
 406      90A45177 
 406      0F0F963E 
 406      F109
 407 0702 E60E3A3D 		.ascii	"\346\016:=:\250\372\177\367\216\354\247]\311\033\375"
 407      3AA8FA7F 
 407      F78EECA7 
 407      5DC91BFD 
 408 0712 E40FFC9D 		.ascii	"\344\017\374\2352ZU([->\360'\253\206{\275\360\250\217"
 408      325A5528 
 408      5B2D3EF0 
 408      27AB867B 
 408      BDF0A88F 
 409 0726 DB992E88 		.ascii	"\333\231.\210\235\351\0167>\335\313\317q\0029g\335\033"
 409      9DE90E37 
 409      3EDDCBCF 
 409      71023967 
 409      DD1B
 410 0738 CA3BABC3 		.ascii	"\312;\253\303\257\371\216\335~\360b N\327\022\345\203"
 410      AFF98EDD 
 410      7EF06220 
 410      4ED712E5 
 410      83
 411 0749 9ED4A644 		.ascii	"\236\324\246D\2044\372`\330\205\335~z\375|M8\277\011"
 411      8434FA60 
 411      D885DD7E 
 411      7AFD7C4D 
 411      38BF09
 412 075c 5F101E4E 		.ascii	"_\020\036N\236{\005j=\032\0066d\336\025\272yW\300\274"
 412      9E7B056A 
 412      3D1A0636 
ARM GAS  C:\Users\info\AppData\Local\Temp\ccKpCAvq.s 			page 32


 412      64DE15BA 
 412      7957C0BC 
 413 0770 734B6D9E 		.ascii	"sKm\236:\024\345\252\2019'0W\314S\333\004\367'!\360"
 413      3A14E5AA 
 413      81392730 
 413      57CC53DB 
 413      04F72721 
 414 0785 3A90E320 		.ascii	":\220\343 \307@\216\202T\203\034\0049\000R\005R\011"
 414      C7408E82 
 414      54831C04 
 414      39005205 
 414      5209
 415 0797 5201B21F 		.ascii	"R\001\262\037d\037H9H\031H)\310^\220= % En\2459\325"
 415      641F4839 
 415      48194829 
 415      C85E903D 
 415      20252045 
 416 07af 255B68BB 		.ascii	"%[h\273 \301\305\322\3529&\333\016\224\375\314\341\003"
 416      20C1C5D2 
 416      EA3926DB 
 416      0E94FDCC 
 416      E103
 417 07c1 FEF67EBE 		.ascii	"\376\366~\276\350r\255qx\010\277\355\245|?"
 417      E872AD71 
 417      7808BFED 
 417      A57C3F
 418 07d0 7E2E61EB 		.ascii	"~.a\353\225\260\362\215sB\3026(ae\317\2311\011\332\250"
 418      95B0F28D 
 418      7342C236 
 418      286165CF 
 418      993109DA 
 419 07e5 04953D3C 		.ascii	"\004\225=<F%\250\323\035\332\364\326\266\331/a\233\225"
 419      4625A8D3 
 419      1DDAF4D6 
 419      B6D92F61 
 419      9B95
 420 07f7 B0F24742 		.ascii	"\260\362GB\257\204=\255\204\225\357\212]\022\366\214"
 420      AF843DAD 
 420      8495EF8A 
 420      5D12F68C 
 421 0807 1256BECD 		.ascii	"\022V\276\315wH\330\263JX9\273m\022\366\317JX9\273W"
 421      7748D8B3 
 421      4A5839BB 
 421      6D12F6CF 
 421      4A5839BB 
 422 081c B3648F84 		.ascii	"\263d\217\204\363\034\355z$4\315\246\255)k\036\333'"
 422      F31CED7A 
 422      2434CDA6 
 422      AD296B1E 
 422      DB27
 423 082e E1AC8EDA 		.ascii	"\341\254\216\3329\334\265O\266\275\345vc\226l_\355R"
 423      39DCB54F 
 423      B6BDE576 
 423      63966C5F 
 423      ED52
 424 0840 C6CBCCD7 		.ascii	"\306\313\314\327w\0052\370!X\234\003\263\341\362\243"
 424      770532F8 
ARM GAS  C:\Users\info\AppData\Local\Temp\ccKpCAvq.s 			page 33


 424      21589C03 
 424      B3E1F2A3 
 425 0850 8D6CD5D6 		.ascii	"\215l\325\326\252\347K\230#P\34350\230\355\202\036P"
 425      AAE74B98 
 425      2350E335 
 425      3098ED82 
 425      1E50
 426 0862 2A19248B 		.ascii	"*\031$\213.\233$!LC\011\223 0\000\376=\254&\237z\304"
 426      2E9B2421 
 426      4C430993 
 426      203000FE 
 426      3DAC269F 
 427 0878 FDE230AC 		.ascii	"\375\3420\254-\266\351\026\\\236G6]\342\347-\351(_C"
 427      2DB6E916 
 427      5C9E4736 
 427      5DE2E72D 
 427      E9285F43 
 428 088c B70C164B 		.ascii	"\267\014\026K\235<\226A\345Xd\241\037\355\322\013\351"
 428      9D3C9641 
 428      E55864A1 
 428      1FEDD20B 
 428      E9
 429 089d 460ABE33 		.ascii	"F\012\2763\033\254\360\324\227\320C\312h\231\351\332"
 429      1BACF0D4 
 429      97D043CA 
 429      6899E9DA 
 430 08ad AC10E6C9 		.ascii	"\254\020\346\311\011\200\337\235\015\377H\221\324\006"
 430      0980DF9D 
 430      0DFF4891 
 430      D406
 431 08bb 39A98D40 		.ascii	"9\251\215@j\275\022\251\015n\244\326+\221\332\352Fj"
 431      6ABD12A9 
 431      0D6EA4D6 
 431      2B91DAEA 
 431      466A
 432 08cd 03257537 		.ascii	"\003%u7%\225\021y(\355\035B$q\355\236Dd\275\214\310"
 432      25951179 
 432      28ED1D42 
 432      2471ED9E 
 432      4464BD8C 
 433 08e2 43593F66 		.ascii	"CY?f\356\303\343\002\335Wt?B:\263\344g\3213K\261\373"
 433      EEC3E302 
 433      DD57743F 
 433      423AB3E4 
 433      67D1334B 
 434 08f8 9985F5ED 		.ascii	"\231\205\365\355L\373\021\351#\333|\276\364\244,\026"
 434      4CFB11E9 
 434      23DB7CBE 
 434      F4A42C16 
 435 0908 9F941557 		.ascii	"\237\224\025W\326\327\352\336/\024\006\252\205\201\233"
 435      D6D7EADE 
 435      2F1406AA 
 435      85819B
 436 0917 C59FE6D4 		.ascii	"\305\237\346\324\334\021\204 \015\255\234r\3115\270"
 436      DC118420 
 436      0DAD9C72 
 436      C935B8
ARM GAS  C:\Users\info\AppData\Local\Temp\ccKpCAvq.s 			page 34


 437 0926 25973278 		.ascii	"%\2272xo\203\245\257~\237<\204N\246\314\300{\007}\010"
 437      6F83A5AF 
 437      7E9F3C84 
 437      4EA6CCC0 
 437      7B077D08 
 438 093a A1AEDA9C 		.ascii	"\241\256\332\234J_\260RX\015\207\311\313\220\246DA\370"
 438      4A5FB052 
 438      580D87C9 
 438      CB90A644 
 438      41F8
 439 094c 841A6996 		.ascii	"\204\032i\226\346\204[\311\310)j\244>\353\266\037\276"
 439      E6845BC9 
 439      C8296AA4 
 439      3EEBB61F 
 439      BE
 440 095d C06C2495 		.ascii	"\300l$\225\016\264z\341\001\246d59w\005\302\253\032"
 440      0EB47AE1 
 440      01A66435 
 440      397705C2 
 440      AB1A
 441 096f 3A430741 		.ascii	":C\007A\313\361\311\253;\330\313\033)J\366\362v/\355"
 441      CBF1C9AB 
 441      3BD8CB1B 
 441      294AF6F2 
 441      762FED
 442 0982 60379EEF 		.ascii	"`7\236\357\261\232\317Q\342\377L\211'\337\310\216\277"
 442      B19ACF51 
 442      E2FF4C89 
 442      27DFC88E 
 442      BF
 443 0993 9CD09350 		.ascii	"\234\320\223P\341\265t\367\364\257\363JR\234\340\347"
 443      E1B574F7 
 443      F4AFF34A 
 443      529CE0E7 
 444 09a3 1C8A43A7 		.ascii	"\034\212C\247E?\321Y\265\206h\354#\333y\352\346\241"
 444      453FD159 
 444      B58668EC 
 444      23DB79EA 
 444      E6A1
 445 09b5 9686615F 		.ascii	"\226\206a_|\337\223kJ\357\225S\327\216\337S\273\334"
 445      7CDF936B 
 445      4AEF9553 
 445      D78EDF53 
 445      BBDC
 446 09c7 BDA8A68D 		.ascii	"\275\250\246\215eI-q\236\335\275L\335\275$\272\2331"
 446      65492D71 
 446      9EDDBD4C 
 446      DDBD24BA 
 446      9B31
 447 09d9 387ECF9F 		.ascii	"8~\317\237\271\353\354\215\316\021\232\223\201R\300"
 447      B9EBEC8D 
 447      CE119A93 
 447      8152C0
 448 09e8 A01697AB 		.ascii	"\240\026\227\253\027\300\325\026\321\325+\324\325m\031"
 448      17C0D516 
 448      D1D52BD4 
 448      D56D19
ARM GAS  C:\Users\info\AppData\Local\Temp\ccKpCAvq.s 			page 35


 449 09f7 23DB7CF1 		.ascii	"#\333|\361+O\256V\245\016\036\360\343Fo\310\215\266"
 449      2B4FAE56 
 449      A50E1EF0 
 449      E3466FC8 
 449      8DB6
 450 0a09 BA8C5E05 		.ascii	"\272\214^\005\243\255\242\3216j4-\361\370\031\015\336"
 450      A3ADA2D1 
 450      366A342D 
 450      F1F8190D 
 450      DE
 451 0a1a ECEBC168 		.ascii	"\354\353\301hWv\347M-7:&\032%\244\266\273\214v\200\321"
 451      5776E74D 
 451      2D373A26 
 451      1A25A4B6 
 451      BB8C7680 
 452 0a2f 76D16827 		.ascii	"v\321h'5Z\236\354\034\363\305\305\314\350\363\324\344"
 452      355A9EEC 
 452      1CF3C5C5 
 452      CCE8F3D4 
 452      E4
 453 0a40 BB8C42B2 		.ascii	"\273\214B\262\3112\012\273\307/>\366uQx\215Qx\177Gs"
 453      C9320ABB 
 453      C72F3EF6 
 453      7551788D 
 453      51787F47 
 454 0a55 A356CEE1 		.ascii	"\243V\316\341\227\357\310(\354\246\024^\027)L\231\354"
 454      97EFC828 
 454      ECA6145E 
 454      17294C99 
 454      EC
 455 0a66 6C131D7B 		.ascii	"l\023\035{:\274\004<\323\020\010\352\222\212\262Kt\352"
 455      3ABC043C 
 455      D31008EA 
 455      928AB24B 
 455      74EA
 456 0a78 06756A7B 		.ascii	"\006uj{\321x\277\032\037\367\024\351L\356\323l\037\371"
 456      D178BF1A 
 456      1FF714E9 
 456      4CEED36C 
 456      1FF9
 457 0a8a D9CE3D83 		.ascii	"\331\316=\203}\256\263\335\235\251\362\323\201\324\367"
 457      7DAEB3DD 
 457      9DA9F2D3 
 457      81D4F7
 458 0a99 3E57B556 		.ascii	">W\265V\025\036.\011p\225I?\213\347\340\335\232\016"
 458      151E2E09 
 458      7095493F 
 458      8BE7E0DD 
 458      9A0E
 459 0aab 29C89BAC 		.ascii	")\310\233\254\361\371\265\003\015\001\236\013\345\026"
 459      F1F9B503 
 459      0D019E0B 
 459      E516
 460 0ab9 8D72408C 		.ascii	"\215r@\214\262v\372V7\026\243\274\373yFR\3419\262\342"
 460      B276FA56 
 460      3716A3BC 
 460      FB794652 
ARM GAS  C:\Users\info\AppData\Local\Temp\ccKpCAvq.s 			page 36


 460      E139B2E2 
 461 0acd 01857A5C 		.ascii	"\001\205z\\\011\350\205\004\364\210\261\016\322X+R\252"
 461      09E88504 
 461      F488B10E 
 461      D2582B52 
 461      AA
 462 0ade 52BD700B 		.ascii	"R\275p\013\213Uiy\215t\025?\361\366\310\365\020\365"
 462      8B556979 
 462      8D74153F 
 462      F1F6C8F5 
 462      10F5
 463 0af0 E28E8BEB 		.ascii	"\342\216\213\353\264\272<\261\262\362\3620\345\032 "
 463      B4BA3CB1 
 463      B2F2F230 
 463      E51A20
 464 0aff E8B6C4F5 		.ascii	"\350\266\304\365mq\376\273t\376\376\342\233[\275\361"
 464      6D71FEBB 
 464      74FEFEE2 
 464      9B5BBDF1 
 465 0b0f 109BBFAF 		.ascii	"\020\233\277\257\2746\227}\233\316v\315\177\364qg\227"
 465      BC36977D 
 465      9BCE76CD 
 465      7FF47167 
 465      97
 466 0b20 CEE5D33D 		.ascii	"\316\345\323=\306\315\255\244\353\211\236\235z@\235"
 466      C6CDADA4 
 466      EB899E9D 
 466      7A409D
 467 0b2f BA2F3AE5 		.ascii	"\272/:\345<rq\334\207;\225\335\243w\246#\202@\303\222"
 467      3C7271DC 
 467      873B95DD 
 467      A377A623 
 467      8240C392 
 468 0b43 4FC3A24F 		.ascii	"O\303\242O\017\231O\3332\363\275\360&\366\211m\"u\303"
 468      0F994FDB 
 468      32F3BDF0 
 468      26F6896D 
 468      2275C3
 469 0b56 24FF22EC 		.ascii	"$\377\"\354CsZu\202\177\222\365&_\307\332^\026\373\220"
 469      43735A75 
 469      827F92F5 
 469      265FC7DA 
 469      5E16FB90 
 470 0b6a 0F8102AF 		.ascii	"\017\201\002\257\205 y\216\236\250u*\262Q\243\307j\372"
 470      8520798E 
 470      9EA8752A 
 470      B251A3C7 
 470      6AFA
 471 0b7c 2DADE2D8 		.ascii	"-\255\342\330\315Q\277\240t~^\375\004\321\224\302\201"
 471      CD51BFA0 
 471      747E5EFD 
 471      04D194C2 
 471      81
 472 0b8d 0B8DA809 		.ascii	"\013\215\250\011|T\035$\016\"\350\351\222\332G\336r"
 472      7C541D24 
 472      0E22E8E9 
 472      92DA47DE 
ARM GAS  C:\Users\info\AppData\Local\Temp\ccKpCAvq.s 			page 37


 472      72
 473 0b9e 74C70FA1 		.ascii	"t\307\017\241\367m:4\022\360a\211\320ZH\366\360\337"
 473      F76D3A34 
 473      12F06189 
 473      D05A48F6 
 473      F0DF
 474 0bb0 0DED8551 		.ascii	"\015\355\205Q\010=U\007\241G,P\331P\322\362[(\3511\365"
 474      083D5507 
 474      A1472C50 
 474      D950D2F2 
 474      5B28E931 
 475 0bc5 8730F2C2 		.ascii	"\2070\362\302\361\313{ux/\013w\350\305\320\021of\306"
 475      F1CB7B75 
 475      782F0B77 
 475      E8C5D011 
 475      6F66C6
 476 0bd8 D9E125F8 		.ascii	"\331\341%\370R\013\343oY\030\347\026&\250\205\353\211"
 476      520BE36F 
 476      5918E716 
 476      26A885EB 
 476      89
 477 0be9 19670371 		.ascii	"\031g\003q3\263p~\317\211\327z\306\220\027\250\327\262"
 477      33B3707E 
 477      CF89D77A 
 477      C69017A8 
 477      D7B2
 478 0bfb 1B2EEA3C 		.ascii	"\033.\352<24)2t\204}m\3340\224\375\320\1776CptD\317"
 478      32342932 
 478      74847D6D 
 478      DC3094FD 
 478      D07F3643 
 479 0c13 E9B42F68 		.ascii	"\351\264/h\314\223b\314\247/n\331\251\237\315\220G\364"
 479      CC9362CC 
 479      A72F6ED9 
 479      A99FCD90 
 479      47F4
 480 0c25 F6D1038D 		.ascii	"\366\321\003\215~<\2641\022\332K\010\355\031\017M\032"
 480      7E3CB431 
 480      12DA4B08 
 480      ED190F4D 
 480      1A
 481 0c36 F58C87F6 		.ascii	"\365\214\207\366\212\206\326\235U\367\304\027\337`\241"
 481      8A86D69D 
 481      55F7C417 
 481      DF60A1
 482 0c45 DD2FCADA 		.ascii	"\335/\312\332\250\345\026\322\177N\370%&\246\33621\305"
 482      A8E516D2 
 482      7F4EF825 
 482      26A6DE32 
 482      31C5
 483 0c57 4DBCA626 		.ascii	"M\274\246&\266\014V\267\370\3431f\242\370i_\211?71\236"
 483      B60C56B7 
 483      F8E33166 
 483      A2F8695F 
 483      893F3731 
 484 0c6c FA61A2E0 		.ascii	"\372a\242\340\324\320w\3037\334\210\370\206\252\242"
 484      D4D077C3 
ARM GAS  C:\Users\info\AppData\Local\Temp\ccKpCAvq.s 			page 38


 484      37DC88F8 
 484      86AAA2
 485 0c7b 2DC4C834 		.ascii	"-\304\31045\222?3\\\020\210\267\373\261?\023\234i>\206"
 485      35923F33 
 485      5C1088B7 
 485      FBB13F13 
 485      9C693E86 
 486 0c8f 18C5FF40 		.ascii	"\030\305\377@\336\023S\012.\361\2775\\'\337\353\206"
 486      DE13530A 
 486      2EF1BF35 
 486      5C27DFEB 
 486      86
 487 0ca0 878B3279 		.ascii	"\207\2132y\006\336#%[s\350{\317\031H\302<\003\3531\315"
 487      06DE2325 
 487      5B73E87B 
 487      CF1948C2 
 487      3C03EB31 
 488 0cb5 C0F313A5 		.ascii	"\300\363\023\245\327\337\252\321D\034\012\257\240\004"
 488      D7DFAAD1 
 488      441C0AAF 
 488      A004
 489 0cc3 9E8C83C4 		.ascii	"\236\214\203\304A\364\011\227\263![;;\003\036\321]\015"
 489      41F40997 
 489      B3215B3B 
 489      3B031ED1 
 489      5D0D
 490 0cd5 4DDB788D 		.ascii	"M\333x\215:\3337\277K\203\337\200\203\320\014\017^\032"
 490      3ADB37BF 
 490      4B83DF80 
 490      83D00C0F 
 490      5E1A
 491 0ce7 38C3834F 		.ascii	"8\303\203O\301\020<>\335~\260I\207t\241\010\274F4\220"
 491      C1103C3E 
 491      DD7EB049 
 491      8774A108 
 491      BC463490 
 492 0cfb D1F5B23F 		.ascii	"\321\365\262?\373\250\320F\032\304&\030\376'\030\236"
 492      FBA8D046 
 492      1AC42618 
 492      FE27189E 
 493 0d0b 2B10CC55 		.ascii	"+\020\314UD\233\2512\372\257\364\236\374C\236\344Eg"
 493      449BA932 
 493      FAAFF49E 
 493      FC439EE4 
 493      4567
 494 0d1d CBFCE51B 		.ascii	"\313\374\345\033\3709\267\323\\*\246\0338\271\222\212"
 494      F839B7D3 
 494      5C2AA61B 
 494      38B9928A 
 495 0d2d 4C9D190E 		.ascii	"L\235\031\016\3045\214\370c\271\323N\015>\316\224\224"
 495      C4358CF8 
 495      63B9D34E 
 495      0D3ECE94 
 495      94
 496 0d3e AC99411D 		.ascii	"\254\231A\035n`\312\304\343\356ro|\206\303\036W\034"
 496      6E60CAC4 
 496      E3EE726F 
ARM GAS  C:\Users\info\AppData\Local\Temp\ccKpCAvq.s 			page 39


 496      7C86C31E 
 496      571C
 497 0d50 F3E71F50 		.ascii	"\363\347\037P\211\276\25525\011\341.\332\351\375\242"
 497      89BEAD32 
 497      3509E12E 
 497      DAE9FDA2 
 498 0d60 BC16B616 		.ascii	"\274\026\266\026\372\242\036.~1\375\244^\366\305t3\306"
 498      FAA21E2E 
 498      7E31FDA4 
 498      5EF6C574 
 498      33C6
 499 0d72 681B56FA 		.ascii	"h\033V\372\246\304\336t\235\354Mw+DKN\274(\215\343\011"
 499      A6C4DE74 
 499      9DEC4D77 
 499      2B444B4E 
 499      BC288DE3 
 500 0d87 8359381C 		.ascii	"\203Y8\034\355\300\013\320v\220\014\220L,\177S\355\277"
 500      EDC00BD0 
 500      76900C90 
 500      4C2C7F53 
 500      EDBF
 501 0d99 EC7A3FFA 		.ascii	"\354z?\372Na\022\3719{L\202\246+@\345o~}i\342\253\016"
 501      4E6112F9 
 501      397B4C82 
 501      A62B40E5 
 501      6F7E7D69 
 502 0db0 6CD05B38 		.ascii	"l\320[8\330\3431\265\233\177Z\303n\307T\262\201\245"
 502      D8E331B5 
 502      9B7F5AC3 
 502      6EC754B2 
 502      81A5
 503 0dc2 8EBD0EC0 		.ascii	"\216\275\016\300\275\224$uSy}\271?\012\017fc\362./ "
 503      BD942475 
 503      53797DB9 
 503      3F0A0F66 
 503      63F22E2F 
 504 0dd7 6372C0EE 		.ascii	"cr\300\356N,}\350\301\301\263\337\376]\234d\003\017"
 504      4E2C7DE8 
 504      C1C1B3DF 
 504      FE5D9C64 
 504      030F
 505 0de9 7F891392 		.ascii	"\177\211\023\222\302\256\242y\362B\310\301\362\357 "
 505      C2AEA279 
 505      F242C8C1 
 505      F2EF20
 506 0df8 B9BC1072 		.ascii	"\271\274\020ri!\214<x0\252\226\203/\273UM\036\007\347"
 506      69218C3C 
 506      7830AA96 
 506      832FBB55 
 506      4D1E07E7 
 507 0e0c 51F0CE91 		.ascii	"Q\360\316\221\241Q\275\034|\313\015\274\213\203wQpF"
 507      A151BD1C 
 507      7CCB0DBC 
 507      8B837751 
 507      7046
 508 0e1e D974BA56 		.ascii	"\331t\272V\016\356v\003\347sp>\005\217=\275\276\305"
 508      0EEE7603 
ARM GAS  C:\Users\info\AppData\Local\Temp\ccKpCAvq.s 			page 40


 508      E773703E 
 508      058F3DBD 
 508      BEC5
 509 0e30 CD32D9A0 		.ascii	"\3152\331\240%\360n\016\336M\301-\235\215\251n\226_"
 509      25F06E0E 
 509      DE4DC12D 
 509      9D8DA96E 
 509      965F
 510 0e42 BA810B38 		.ascii	"\272\201\0138\270\200\271q\240\263L\367A\021\3433\025"
 510      B880B971 
 510      A0B34CF7 
 510      4111E333 
 510      15
 511 0e53 16DF97EF 		.ascii	"\026\337\227\357\320s>{4\026\342\017\310\337CN\365g"
 511      D0733E7B 
 511      3416E20F 
 511      C8DF434E 
 511      F567
 512 0e65 06320C3C 		.ascii	"\0062\014<e\214\273S\001\350\216+\242\270+\275\027\223"
 512      658CBB53 
 512      01E88E2B 
 512      A2B82BBD 
 512      1793
 513 0e77 B50CE79C 		.ascii	"\265\014\347\234\360\231\215)\246\230k7\352\012|8f\267"
 513      F0998D29 
 513      A6986B37 
 513      EA0A7C38 
 513      66B7
 514 0e89 6E36A684 		.ascii	"n6\246\204b\2067}\237\2179\246\301{6f\017\305\\J{<G"
 514      6286377D 
 514      9F8F39A6 
 514      C17B3666 
 514      0FC55C4A 
 515 0ea0 1EE30337 		.ascii	"\036\343\0037\366\366\362\030\367\322\030\223\032\352"
 515      F6F6F218 
 515      F7D21893 
 515      1AEA
 516 0eae 863472F0 		.ascii	"\2064r\360\220\033\270\224\203K)x\243\263+\023\311\301"
 516      901BB894 
 516      834B2978 
 516      A3B32B13 
 516      C9C1
 517 0ec0 64AF92C0 		.ascii	"d\257\222\300e\034\\F\301/\012\356f\370\316f\357\224"
 517      651C5C46 
 517      C12F0AEE 
 517      66F8CE66 
 517      EF94
 518 0ed2 E86939F5 		.ascii	"\350i9\365t\177\351\375d\177\036\315\325\313X(\327\272"
 518      747FE9FD 
 518      647F1ECD 
 518      D5CB5828 
 518      D7BA
 519 0ee4 A3F65154 		.ascii	"\243\366QTz\313\303\373\001\034\325\025\300cva\366\343"
 519      7ACBC3FB 
 519      011CD515 
 519      C0637661 
 519      F6E3
ARM GAS  C:\Users\info\AppData\Local\Temp\ccKpCAvq.s 			page 41


 520 0ef6 0F542109 		.ascii	"\017T!\011+\326\2560D\031\022L\021\313\227\2550\230"
 520      2BD6AE30 
 520      4419124C 
 520      11CB97AD 
 520      3098
 521 0f08 E26263E3 		.ascii	"\342bc\343\254\332\377\370\345\027a\237ED\250|\015\206"
 521      ACDAFFF8 
 521      E517619F 
 521      4544A87C 
 521      0D86
 522 0f1a 048BD5B1 		.ascii	"\004\213\325\261\302\340HD\246\177\216\214\267\305\255"
 522      C2E04844 
 522      A67F8E8C 
 522      B7C5AD
 523 0f29 B21963C3 		.ascii	"\262\031c\303\242-1f{X\370\332\025\313\177\022iZ\027"
 523      A22D3166 
 523      7B58F8DA 
 523      15CB7F12 
 523      695A17
 524 0f3c 6F33DBED 		.ascii	"o3\333\355\221\361\3668S\230\311f6:\342l\221\037/^\352"
 524      91F1F638 
 524      5398C966 
 524      363AE26C 
 524      911F2F5E 
 525 0f51 DE60898D 		.ascii	"\336`\211\215\217\2639\"WY\023\"\215\266\330\310\177"
 525      8FB33922 
 525      57591322 
 525      8DB6D8C8 
 525      7F
 526 0f62 5AFCF1E2 		.ascii	"Z\374\361\342\010r\3673k\234\325\3743\263q\245%\322"
 526      0872F733 
 526      6B9CD5FC 
 526      33B371A5 
 526      25D2
 527 0f74 6235C524 		.ascii	"b5\305$D\231#c\215\246\325\026\2539\322\020e\2166&\304"
 527      44992363 
 527      8DA6D516 
 527      AB39D210 
 527      658E3626 
 528 0f89 380C8E75 		.ascii	"8\014\216u\361f\373\342\325*\037\356\312\232\277\227"
 528      F166FBE2 
 528      D52A1FEE 
 528      CA9ABF97 
 529 0f99 27F675F6 		.ascii	"'\366u\366H\203\335"
 529      4883DD
 530 0fa0 1105D3C2 		.ascii	"\021\005\323\302\364\001Q\346\225q\011V\223\031\232"
 530      F40151E6 
 530      95710956 
 530      93199A
 531 0faf 8C0EF3BB 		.ascii	"\214\016\363\273.5\306hw\030\342-V\326\376\236\253]"
 531      2E35C668 
 531      7718E22D 
 531      56D6FE9E 
 531      AB5D
 532 0fc1 F4DFD5E5 		.ascii	"\364\337\325\345\267*\336\022g\000\037\241U\227\340"
 532      B72ADE12 
 532      67001FA1 
ARM GAS  C:\Users\info\AppData\Local\Temp\ccKpCAvq.s 			page 42


 532      5597E0
 533 0fd0 885EC19A 		.ascii	"\210^\301\232\301\360\032\013\340\215QQ\304\177?\313"
 533      C1F01A0B 
 533      E08D5151 
 533      C47F3FCB 
 534 0fe0 5213E9B0 		.ascii	"R\023\351\2609\314Q\364\236\267\207X\354\206\3508\253"
 534      39CC51F4 
 534      9EB78758 
 534      EC86E838 
 534      AB
 535 0ff1 C360B1AE 		.ascii	"\303`\261\2561\333\354fCl\\\224Y\273\326"
 535      31DBEC66 
 535      436C5C94 
 535      59BBD6
 536 1000 10171D6D 		.ascii	"\020\027\035m7;\264f\253)\016<]\245c)\213Xnph\305\033"
 536      373BB466 
 536      AB290E3C 
 536      5DA56329 
 536      8B586E70 
 537 1017 0D19E7BB 		.ascii	"\015\031\347\2732\301n0\305\304\231\276\342\220eK9\204"
 537      32C16E30 
 537      C5C499BE 
 537      E290654B 
 537      3984
 538 1029 DCCCA5BE 		.ascii	"\334\314\245\276\031\255Q\340v\214q\235\301\264\322"
 538      19AD51E0 
 538      768C719D 
 538      C1B4D2
 539 1038 8F5646AC 		.ascii	"\217VF\254}\025\334\373\254\\\3470\303\325\333d\214"
 539      7D15DCFB 
 539      AC5CE730 
 539      C3D5DB64 
 539      8C
 540 1049 828B2ECA 		.ascii	"\202\213.\312b\217g(\037\253y\255\003\256z\2126\255"
 540      628F6728 
 540      1FAB79AD 
 540      03AE7A8A 
 540      36AD
 541 105b 36DA8822 		.ascii	"6\332\210\"\366[\254\321q~\361\226\265\346\030\3037"
 541      F65BACD1 
 541      717EF196 
 541      B5E618C3 
 541      37
 542 106c 9628C7EA 		.ascii	"\226(\307\352\271\3211\226x\342\267A\364{\216\310\222"
 542      B9D13196 
 542      78E2B741 
 542      F47B8EC8 
 542      92
 543 107d D8E0E780 		.ascii	"\330\340\347\200\224\032V\233-\253V;t\364\236\216\014"
 543      941A569B 
 543      2DAB563B 
 543      74F49E8E 
 543      0C
 544 108e F9C66601 		.ascii	"\371\306f\001\027\342\023b\354\274\305`\265\007E\031"
 544      17E21362 
 544      ECBCC560 
 544      B5074519 
ARM GAS  C:\Users\info\AppData\Local\Temp\ccKpCAvq.s 			page 43


 545 109e 1D46030C 		.ascii	"\035F\003\014J\21078,\261fh\012!\214\271\"5D,Y\362\325"
 545      4A883738 
 545      2CB16668 
 545      0A218CB9 
 545      2235442C 
 546 10b5 E7DF6AED 		.ascii	"\347\337j\355\361\026J\227\336\016m\254g\365\267ADq"
 546      F1164A97 
 546      DE0E6DAC 
 546      67F5B741 
 546      4471
 547 10c7 3738D71E 		.ascii	"78\327\0365\313^P|\034d\027\3707;\014\337\030-\016 "
 547      35CB5E50 
 547      7C1C6417 
 547      F8373B0C 
 547      DF182D0E 
 548 10dc 248469F2 		.ascii	"$\204i\362\221\261\366\371P{\020\276%\336\000\261\033"
 548      91B1F6F9 
 548      507B10BE 
 548      25DE00B1 
 548      1B
 549 10ed 5712B709 		.ascii	"W\022\267\011\332\012\035\304\000\3551[\345\035An\350"
 549      DA0A1DC4 
 549      00ED315B 
 549      E51D416E 
 549      E8
 550 10fe 18F31A73 		.ascii	"\030\363\032s\314\\9\214\266\314g\313SF'\224\206-\301"
 550      CC5C398C 
 550      B6CC67CB 
 550      53462794 
 550      862DC1
 551 1111 E4D03356 		.ascii	"\344\3203V\031O!\213\027G&\254X\265\324`\262\333L\221"
 551      194F218B 
 551      174726AC 
 551      58B5D460 
 551      B2DB4C91 
 552 1125 6408D46B 		.ascii	"d\010\324k\360\333C\035,\247\314B\260\253PYE\222T{\323"
 552      F0DB431D 
 552      2CA7CC42 
 552      B0AB5059 
 552      4592547B 
 553 113a 7EC73FBE 		.ascii	"~\307?\276e\317\265C,6\251\346\271o\031\021\313\227"
 553      65CFB543 
 553      2C36A9E6 
 553      B96F1911 
 553      CB97
 554 114c AC8D58BA 		.ascii	"\254\215X\272\202m$\244>\376\335\032\365[\233\321j\217"
 554      826D24A4 
 554      3EFEDD1A 
 554      F55B9BD1 
 554      6A8F
 555 115e 36DBB4D6 		.ascii	"6\333\264\3268\2135\006V\363\034W\357o\314\326\250O"
 555      388B3506 
 555      56F31C57 
 555      EF6FCCD6 
 555      A84F
 556 1170 6DABDC1B 		.ascii	"m\253\334\033>\213\215zGj \265/Z\230\347\206\373\215"
 556      3E8B8D7A 
ARM GAS  C:\Users\info\AppData\Local\Temp\ccKpCAvq.s 			page 44


 556      476A20B5 
 556      2F5A98E7 
 556      86FB8D
 557 1183 F9EB0428 		.ascii	"\371\353\004(t\363\\\267\326\177\203*x\217;\265\332"
 557      74F35CB7 
 557      D67F832A 
 557      788F3BB5 
 557      DA
 558 1194 1C136FB6 		.ascii	"\034\023o\266\311\302\2668\336W\356bi\2165\307\306\331"
 558      C9C2B638 
 558      DE57EE62 
 558      698E35C7 
 558      C6D9
 559 11a6 D685BA87 		.ascii	"\326\205\272\207\024\037\367\015\2540\343\032\363\022"
 559      141FF70D 
 559      AC30E31A 
 559      F312
 560 11b4 407DEDA9 		.ascii	"@}\355\2513\202t\276\353\336I\352{\211\207v\212\017"
 560      338274BE 
 560      EBDE49EA 
 560      7B898776 
 560      8A0F
 561 11c6 A3EDEED4 		.ascii	"\243\355\356\324\271%\351G\212\354\322@\310x\257\265"
 561      B925E947 
 561      8AECD240 
 561      C878AFB5 
 562 11d6 E0801D9B 		.ascii	"\340\200\035\233\254\016-]\034\361\016\033\243\222j"
 562      AC0E2D5D 
 562      1CF10E1B 
 562      A3926A
 563 11e5 2CB35EEB 		.ascii	",\263^\353\010\306Ojv\374\0372\355\224\033"
 563      08C64F6A 
 563      76FC1F32 
 563      ED941B
 564              		.text
 565              		.section	.gnu.lto_.symtab.792a5c69,"",%progbits
 566 0000 75387838 		.ascii	"u8x8_d_uc1638_common\000"
 566      5F645F75 
 566      63313633 
 566      385F636F 
 566      6D6D6F6E 
 567 0015 00       		.ascii	"\000"
 568 0016 00       		.ascii	"\000"
 569 0017 00       		.ascii	"\000"
 570 0018 00000000 		.ascii	"\000\000\000\000\000\000\000\000"
 570      00000000 
 571 0020 41010000 		.ascii	"A\001\000\000"
 572 0024 75387838 		.ascii	"u8x8_d_uc1638_160x128\000"
 572      5F645F75 
 572      63313633 
 572      385F3136 
 572      30783132 
 573 003a 00       		.ascii	"\000"
 574 003b 00       		.ascii	"\000"
 575 003c 00       		.ascii	"\000"
 576 003d 00000000 		.ascii	"\000\000\000\000\000\000\000\000"
 576      00000000 
ARM GAS  C:\Users\info\AppData\Local\Temp\ccKpCAvq.s 			page 45


 577 0045 43010000 		.ascii	"C\001\000\000"
 578 0049 75387838 		.ascii	"u8x8_cad_EndTransfer\000"
 578      5F636164 
 578      5F456E64 
 578      5472616E 
 578      73666572 
 579 005e 00       		.ascii	"\000"
 580 005f 02       		.ascii	"\002"
 581 0060 00       		.ascii	"\000"
 582 0061 00000000 		.ascii	"\000\000\000\000\000\000\000\000"
 582      00000000 
 583 0069 49010000 		.ascii	"I\001\000\000"
 584 006d 75387838 		.ascii	"u8x8_cad_SendArg\000"
 584      5F636164 
 584      5F53656E 
 584      64417267 
 584      00
 585 007e 00       		.ascii	"\000"
 586 007f 02       		.ascii	"\002"
 587 0080 00       		.ascii	"\000"
 588 0081 00000000 		.ascii	"\000\000\000\000\000\000\000\000"
 588      00000000 
 589 0089 4F010000 		.ascii	"O\001\000\000"
 590 008d 75387838 		.ascii	"u8x8_cad_SendCmd\000"
 590      5F636164 
 590      5F53656E 
 590      64436D64 
 590      00
 591 009e 00       		.ascii	"\000"
 592 009f 02       		.ascii	"\002"
 593 00a0 00       		.ascii	"\000"
 594 00a1 00000000 		.ascii	"\000\000\000\000\000\000\000\000"
 594      00000000 
 595 00a9 52010000 		.ascii	"R\001\000\000"
 596 00ad 75387838 		.ascii	"u8x8_cad_StartTransfer\000"
 596      5F636164 
 596      5F537461 
 596      72745472 
 596      616E7366 
 597 00c4 00       		.ascii	"\000"
 598 00c5 02       		.ascii	"\002"
 599 00c6 00       		.ascii	"\000"
 600 00c7 00000000 		.ascii	"\000\000\000\000\000\000\000\000"
 600      00000000 
 601 00cf 55010000 		.ascii	"U\001\000\000"
 602 00d3 75387838 		.ascii	"u8x8_cad_SendSequence\000"
 602      5F636164 
 602      5F53656E 
 602      64536571 
 602      75656E63 
 603 00e9 00       		.ascii	"\000"
 604 00ea 02       		.ascii	"\002"
 605 00eb 00       		.ascii	"\000"
 606 00ec 00000000 		.ascii	"\000\000\000\000\000\000\000\000"
 606      00000000 
 607 00f4 5A010000 		.ascii	"Z\001\000\000"
 608 00f8 75387838 		.ascii	"u8x8_cad_SendData\000"
ARM GAS  C:\Users\info\AppData\Local\Temp\ccKpCAvq.s 			page 46


 608      5F636164 
 608      5F53656E 
 608      64446174 
 608      6100
 609 010a 00       		.ascii	"\000"
 610 010b 02       		.ascii	"\002"
 611 010c 00       		.ascii	"\000"
 612 010d 00000000 		.ascii	"\000\000\000\000\000\000\000\000"
 612      00000000 
 613 0115 62010000 		.ascii	"b\001\000\000"
 614 0119 75387838 		.ascii	"u8x8_d_helper_display_init\000"
 614      5F645F68 
 614      656C7065 
 614      725F6469 
 614      73706C61 
 615 0134 00       		.ascii	"\000"
 616 0135 02       		.ascii	"\002"
 617 0136 00       		.ascii	"\000"
 618 0137 00000000 		.ascii	"\000\000\000\000\000\000\000\000"
 618      00000000 
 619 013f 66010000 		.ascii	"f\001\000\000"
 620 0143 75387838 		.ascii	"u8x8_d_helper_display_setup_memory\000"
 620      5F645F68 
 620      656C7065 
 620      725F6469 
 620      73706C61 
 621 0166 00       		.ascii	"\000"
 622 0167 02       		.ascii	"\002"
 623 0168 00       		.ascii	"\000"
 624 0169 00000000 		.ascii	"\000\000\000\000\000\000\000\000"
 624      00000000 
 625 0171 6B010000 		.ascii	"k\001\000\000"
 626              		.text
 627              		.section	.gnu.lto_.opts,"",%progbits
 628 0000 272D666D 		.ascii	"'-fmath-errno' '-fsigned-zeros' '-ftrapping-math' '"
 628      6174682D 
 628      6572726E 
 628      6F272027 
 628      2D667369 
 629 0033 2D666E6F 		.ascii	"-fno-trapv' '-fno-strict-overflow' '-fno-openmp' '-"
 629      2D747261 
 629      70762720 
 629      272D666E 
 629      6F2D7374 
 630 0066 666E6F2D 		.ascii	"fno-openacc' '-mcpu=cortex-m3' '-mthumb' '-g' '-Og'"
 630      6F70656E 
 630      61636327 
 630      20272D6D 
 630      6370753D 
 631 0099 20272D66 		.ascii	" '-ffunction-sections' '-ffat-lto-objects' '-flto'\000"
 631      66756E63 
 631      74696F6E 
 631      2D736563 
 631      74696F6E 
 632              		.text
 633              		.cfi_sections	.debug_frame
 634              		.section	.text.u8x8_d_uc1638_common,"ax",%progbits
ARM GAS  C:\Users\info\AppData\Local\Temp\ccKpCAvq.s 			page 47


 635              		.align	2
 636              		.global	u8x8_d_uc1638_common
 637              		.thumb
 638              		.thumb_func
 639              		.type	u8x8_d_uc1638_common, %function
 640              	u8x8_d_uc1638_common:
 641              	.LFB0:
 642              		.file 1 "..\\u8g2_csrc\\u8x8_d_uc1638.c"
   1:..\u8g2_csrc/u8x8_d_uc1638.c **** /*
   2:..\u8g2_csrc/u8x8_d_uc1638.c **** 
   3:..\u8g2_csrc/u8x8_d_uc1638.c ****   u8x8_d_uc1638.c
   4:..\u8g2_csrc/u8x8_d_uc1638.c ****   
   5:..\u8g2_csrc/u8x8_d_uc1638.c ****   Universal 8bit Graphics Library (https://github.com/olikraus/u8g2/)
   6:..\u8g2_csrc/u8x8_d_uc1638.c **** 
   7:..\u8g2_csrc/u8x8_d_uc1638.c ****   Copyright (c) 2016, olikraus@gmail.com
   8:..\u8g2_csrc/u8x8_d_uc1638.c ****   All rights reserved.
   9:..\u8g2_csrc/u8x8_d_uc1638.c **** 
  10:..\u8g2_csrc/u8x8_d_uc1638.c ****   Redistribution and use in source and binary forms, with or without modification, 
  11:..\u8g2_csrc/u8x8_d_uc1638.c ****   are permitted provided that the following conditions are met:
  12:..\u8g2_csrc/u8x8_d_uc1638.c **** 
  13:..\u8g2_csrc/u8x8_d_uc1638.c ****   * Redistributions of source code must retain the above copyright notice, this list 
  14:..\u8g2_csrc/u8x8_d_uc1638.c ****     of conditions and the following disclaimer.
  15:..\u8g2_csrc/u8x8_d_uc1638.c ****     
  16:..\u8g2_csrc/u8x8_d_uc1638.c ****   * Redistributions in binary form must reproduce the above copyright notice, this 
  17:..\u8g2_csrc/u8x8_d_uc1638.c ****     list of conditions and the following disclaimer in the documentation and/or other 
  18:..\u8g2_csrc/u8x8_d_uc1638.c ****     materials provided with the distribution.
  19:..\u8g2_csrc/u8x8_d_uc1638.c **** 
  20:..\u8g2_csrc/u8x8_d_uc1638.c ****   THIS SOFTWARE IS PROVIDED BY THE COPYRIGHT HOLDERS AND 
  21:..\u8g2_csrc/u8x8_d_uc1638.c ****   CONTRIBUTORS "AS IS" AND ANY EXPRESS OR IMPLIED WARRANTIES, 
  22:..\u8g2_csrc/u8x8_d_uc1638.c ****   INCLUDING, BUT NOT LIMITED TO, THE IMPLIED WARRANTIES OF 
  23:..\u8g2_csrc/u8x8_d_uc1638.c ****   MERCHANTABILITY AND FITNESS FOR A PARTICULAR PURPOSE ARE 
  24:..\u8g2_csrc/u8x8_d_uc1638.c ****   DISCLAIMED. IN NO EVENT SHALL THE COPYRIGHT HOLDER OR 
  25:..\u8g2_csrc/u8x8_d_uc1638.c ****   CONTRIBUTORS BE LIABLE FOR ANY DIRECT, INDIRECT, INCIDENTAL, 
  26:..\u8g2_csrc/u8x8_d_uc1638.c ****   SPECIAL, EXEMPLARY, OR CONSEQUENTIAL DAMAGES (INCLUDING, BUT 
  27:..\u8g2_csrc/u8x8_d_uc1638.c ****   NOT LIMITED TO, PROCUREMENT OF SUBSTITUTE GOODS OR SERVICES; 
  28:..\u8g2_csrc/u8x8_d_uc1638.c ****   LOSS OF USE, DATA, OR PROFITS; OR BUSINESS INTERRUPTION) HOWEVER 
  29:..\u8g2_csrc/u8x8_d_uc1638.c ****   CAUSED AND ON ANY THEORY OF LIABILITY, WHETHER IN CONTRACT, 
  30:..\u8g2_csrc/u8x8_d_uc1638.c ****   STRICT LIABILITY, OR TORT (INCLUDING NEGLIGENCE OR OTHERWISE) 
  31:..\u8g2_csrc/u8x8_d_uc1638.c ****   ARISING IN ANY WAY OUT OF THE USE OF THIS SOFTWARE, EVEN IF 
  32:..\u8g2_csrc/u8x8_d_uc1638.c ****   ADVISED OF THE POSSIBILITY OF SUCH DAMAGE.  
  33:..\u8g2_csrc/u8x8_d_uc1638.c **** 
  34:..\u8g2_csrc/u8x8_d_uc1638.c **** 
  35:..\u8g2_csrc/u8x8_d_uc1638.c ****   
  36:..\u8g2_csrc/u8x8_d_uc1638.c **** */
  37:..\u8g2_csrc/u8x8_d_uc1638.c **** #include "u8x8.h"
  38:..\u8g2_csrc/u8x8_d_uc1638.c **** 
  39:..\u8g2_csrc/u8x8_d_uc1638.c **** 
  40:..\u8g2_csrc/u8x8_d_uc1638.c **** 
  41:..\u8g2_csrc/u8x8_d_uc1638.c **** 
  42:..\u8g2_csrc/u8x8_d_uc1638.c **** 
  43:..\u8g2_csrc/u8x8_d_uc1638.c **** static const uint8_t u8x8_d_uc1638_powersave0_seq[] = {
  44:..\u8g2_csrc/u8x8_d_uc1638.c ****   U8X8_START_TRANSFER(),             	/* enable chip, delay is part of the transfer start */
  45:..\u8g2_csrc/u8x8_d_uc1638.c ****   U8X8_CA(0x0c9, 0x0ad),		                /* display on */   /* UC1638 B/W mode */
  46:..\u8g2_csrc/u8x8_d_uc1638.c ****   U8X8_END_TRANSFER(),             	/* disable chip */
  47:..\u8g2_csrc/u8x8_d_uc1638.c ****   U8X8_END()             			/* end of sequence */
  48:..\u8g2_csrc/u8x8_d_uc1638.c **** };
  49:..\u8g2_csrc/u8x8_d_uc1638.c **** 
ARM GAS  C:\Users\info\AppData\Local\Temp\ccKpCAvq.s 			page 48


  50:..\u8g2_csrc/u8x8_d_uc1638.c **** static const uint8_t u8x8_d_uc1638_powersave1_seq[] = {
  51:..\u8g2_csrc/u8x8_d_uc1638.c ****   U8X8_START_TRANSFER(),             	/* enable chip, delay is part of the transfer start */
  52:..\u8g2_csrc/u8x8_d_uc1638.c ****   U8X8_CA(0x0c9, 0x0ac),		                /* display off */   /* UC1638 */
  53:..\u8g2_csrc/u8x8_d_uc1638.c ****   U8X8_END_TRANSFER(),             	/* disable chip */
  54:..\u8g2_csrc/u8x8_d_uc1638.c ****   U8X8_END()             			/* end of sequence */
  55:..\u8g2_csrc/u8x8_d_uc1638.c **** };
  56:..\u8g2_csrc/u8x8_d_uc1638.c **** 
  57:..\u8g2_csrc/u8x8_d_uc1638.c **** static const uint8_t u8x8_d_uc1638_flip0_seq[] = {
  58:..\u8g2_csrc/u8x8_d_uc1638.c ****   U8X8_START_TRANSFER(),             	/* enable chip, delay is part of the transfer start */
  59:..\u8g2_csrc/u8x8_d_uc1638.c ****   U8X8_C(0x0c4),            	/* LCD Mapping */    /* UC1638*/
  60:..\u8g2_csrc/u8x8_d_uc1638.c ****   U8X8_END_TRANSFER(),             	/* disable chip */
  61:..\u8g2_csrc/u8x8_d_uc1638.c ****   U8X8_END()             			/* end of sequence */
  62:..\u8g2_csrc/u8x8_d_uc1638.c **** };
  63:..\u8g2_csrc/u8x8_d_uc1638.c **** 
  64:..\u8g2_csrc/u8x8_d_uc1638.c **** static const uint8_t u8x8_d_uc1638_flip1_seq[] = {
  65:..\u8g2_csrc/u8x8_d_uc1638.c ****   U8X8_START_TRANSFER(),             	/* enable chip, delay is part of the transfer start */
  66:..\u8g2_csrc/u8x8_d_uc1638.c ****   U8X8_C(0x0c2),            	/* LCD Mapping */    /* UC1638*/
  67:..\u8g2_csrc/u8x8_d_uc1638.c ****   U8X8_END_TRANSFER(),             	/* disable chip */
  68:..\u8g2_csrc/u8x8_d_uc1638.c ****   U8X8_END()             			/* end of sequence */
  69:..\u8g2_csrc/u8x8_d_uc1638.c **** };
  70:..\u8g2_csrc/u8x8_d_uc1638.c **** 
  71:..\u8g2_csrc/u8x8_d_uc1638.c **** 
  72:..\u8g2_csrc/u8x8_d_uc1638.c **** uint8_t u8x8_d_uc1638_common(u8x8_t *u8x8, uint8_t msg, uint8_t arg_int, void *arg_ptr)
  73:..\u8g2_csrc/u8x8_d_uc1638.c **** {
 643              		.loc 1 73 0
 644              		.cfi_startproc
 645              		@ args = 0, pretend = 0, frame = 0
 646              		@ frame_needed = 0, uses_anonymous_args = 0
 647              	.LVL0:
 648 0000 F8B5     		push	{r3, r4, r5, r6, r7, lr}
 649              		.cfi_def_cfa_offset 24
 650              		.cfi_offset 3, -24
 651              		.cfi_offset 4, -20
 652              		.cfi_offset 5, -16
 653              		.cfi_offset 6, -12
 654              		.cfi_offset 7, -8
 655              		.cfi_offset 14, -4
 656 0002 0546     		mov	r5, r0
 657 0004 1446     		mov	r4, r2
 658 0006 1F46     		mov	r7, r3
  74:..\u8g2_csrc/u8x8_d_uc1638.c ****   uint8_t x, y, c;
  75:..\u8g2_csrc/u8x8_d_uc1638.c ****   uint8_t *ptr;
  76:..\u8g2_csrc/u8x8_d_uc1638.c ****   switch(msg)
 659              		.loc 1 76 0
 660 0008 0B39     		subs	r1, r1, #11
 661              	.LVL1:
 662 000a 0429     		cmp	r1, #4
 663 000c 68D8     		bhi	.L11
 664 000e DFE801F0 		tbb	[pc, r1]
 665              	.LVL2:
 666              	.L4:
 667 0012 3A       		.byte	(.L3-.L4)/2
 668 0013 67       		.byte	(.L11-.L4)/2
 669 0014 45       		.byte	(.L5-.L4)/2
 670 0015 58       		.byte	(.L6-.L4)/2
 671 0016 03       		.byte	(.L7-.L4)/2
 672 0017 00       		.p2align 1
ARM GAS  C:\Users\info\AppData\Local\Temp\ccKpCAvq.s 			page 49


 673              	.L7:
  77:..\u8g2_csrc/u8x8_d_uc1638.c ****   {
  78:..\u8g2_csrc/u8x8_d_uc1638.c ****     case U8X8_MSG_DISPLAY_DRAW_TILE:
  79:..\u8g2_csrc/u8x8_d_uc1638.c ****       u8x8_cad_StartTransfer(u8x8);
 674              		.loc 1 79 0
 675 0018 FFF7FEFF 		bl	u8x8_cad_StartTransfer
 676              	.LVL3:
  80:..\u8g2_csrc/u8x8_d_uc1638.c ****     
  81:..\u8g2_csrc/u8x8_d_uc1638.c ****       x = ((u8x8_tile_t *)arg_ptr)->x_pos;
 677              		.loc 1 81 0
 678 001c 7E79     		ldrb	r6, [r7, #5]	@ zero_extendqisi2
 679              	.LVL4:
  82:..\u8g2_csrc/u8x8_d_uc1638.c ****       x *= 8;
 680              		.loc 1 82 0
 681 001e F600     		lsls	r6, r6, #3
 682              	.LVL5:
 683 0020 F6B2     		uxtb	r6, r6
 684              	.LVL6:
  83:..\u8g2_csrc/u8x8_d_uc1638.c **** 
  84:..\u8g2_csrc/u8x8_d_uc1638.c ****       u8x8_cad_SendCmd(u8x8, 0x004);  /* UC1638 */
 685              		.loc 1 84 0
 686 0022 0421     		movs	r1, #4
 687 0024 2846     		mov	r0, r5
 688 0026 FFF7FEFF 		bl	u8x8_cad_SendCmd
 689              	.LVL7:
  85:..\u8g2_csrc/u8x8_d_uc1638.c ****       u8x8_cad_SendArg(u8x8, x);
 690              		.loc 1 85 0
 691 002a 3146     		mov	r1, r6
 692 002c 2846     		mov	r0, r5
 693 002e FFF7FEFF 		bl	u8x8_cad_SendArg
 694              	.LVL8:
  86:..\u8g2_csrc/u8x8_d_uc1638.c ****     
  87:..\u8g2_csrc/u8x8_d_uc1638.c ****       y = ((u8x8_tile_t *)arg_ptr)->y_pos;
 695              		.loc 1 87 0
 696 0032 BE79     		ldrb	r6, [r7, #6]	@ zero_extendqisi2
 697              	.LVL9:
  88:..\u8g2_csrc/u8x8_d_uc1638.c ****       y += u8x8->x_offset;
 698              		.loc 1 88 0
 699 0034 95F82230 		ldrb	r3, [r5, #34]	@ zero_extendqisi2
 700 0038 1E44     		add	r6, r6, r3
 701              	.LVL10:
 702 003a F6B2     		uxtb	r6, r6
 703              	.LVL11:
  89:..\u8g2_csrc/u8x8_d_uc1638.c ****       y *= 2;		/* for B/W mode, use only every second page */
 704              		.loc 1 89 0
 705 003c 7600     		lsls	r6, r6, #1
 706              	.LVL12:
 707 003e F6B2     		uxtb	r6, r6
 708              	.LVL13:
  90:..\u8g2_csrc/u8x8_d_uc1638.c **** 
  91:..\u8g2_csrc/u8x8_d_uc1638.c ****       u8x8_cad_SendCmd(u8x8, 0x060 | (y&15));  /* UC1638 */
 709              		.loc 1 91 0
 710 0040 06F00F01 		and	r1, r6, #15
 711 0044 41F06001 		orr	r1, r1, #96
 712 0048 2846     		mov	r0, r5
 713 004a FFF7FEFF 		bl	u8x8_cad_SendCmd
 714              	.LVL14:
ARM GAS  C:\Users\info\AppData\Local\Temp\ccKpCAvq.s 			page 50


  92:..\u8g2_csrc/u8x8_d_uc1638.c ****       u8x8_cad_SendCmd(u8x8, 0x070 | (y>>4));  /* UC1638 */
 715              		.loc 1 92 0
 716 004e 3109     		lsrs	r1, r6, #4
 717 0050 41F07001 		orr	r1, r1, #112
 718 0054 2846     		mov	r0, r5
 719 0056 FFF7FEFF 		bl	u8x8_cad_SendCmd
 720              	.LVL15:
  93:..\u8g2_csrc/u8x8_d_uc1638.c ****     
  94:..\u8g2_csrc/u8x8_d_uc1638.c ****     
  95:..\u8g2_csrc/u8x8_d_uc1638.c ****       u8x8_cad_SendCmd(u8x8, 0x001); /* UC1638 */
 721              		.loc 1 95 0
 722 005a 0121     		movs	r1, #1
 723 005c 2846     		mov	r0, r5
 724 005e FFF7FEFF 		bl	u8x8_cad_SendCmd
 725              	.LVL16:
  96:..\u8g2_csrc/u8x8_d_uc1638.c ****       c = ((u8x8_tile_t *)arg_ptr)->cnt;
 726              		.loc 1 96 0
 727 0062 3E79     		ldrb	r6, [r7, #4]	@ zero_extendqisi2
 728              	.LVL17:
  97:..\u8g2_csrc/u8x8_d_uc1638.c ****       c *= 8;
 729              		.loc 1 97 0
 730 0064 F600     		lsls	r6, r6, #3
 731              	.LVL18:
 732 0066 F6B2     		uxtb	r6, r6
 733              	.LVL19:
  98:..\u8g2_csrc/u8x8_d_uc1638.c ****       ptr = ((u8x8_tile_t *)arg_ptr)->tile_ptr;
 734              		.loc 1 98 0
 735 0068 3F68     		ldr	r7, [r7]
 736              	.LVL20:
 737              	.L8:
  99:..\u8g2_csrc/u8x8_d_uc1638.c ****       do
 100:..\u8g2_csrc/u8x8_d_uc1638.c ****       {
 101:..\u8g2_csrc/u8x8_d_uc1638.c **** 	u8x8_cad_SendData(u8x8, c, ptr);	/* note: SendData can not handle more than 255 bytes */
 738              		.loc 1 101 0 discriminator 1
 739 006a 3A46     		mov	r2, r7
 740 006c 3146     		mov	r1, r6
 741 006e 2846     		mov	r0, r5
 742 0070 FFF7FEFF 		bl	u8x8_cad_SendData
 743              	.LVL21:
 102:..\u8g2_csrc/u8x8_d_uc1638.c **** 	arg_int--;
 744              		.loc 1 102 0 discriminator 1
 745 0074 621E     		subs	r2, r4, #1
 746              	.LVL22:
 103:..\u8g2_csrc/u8x8_d_uc1638.c ****       } while( arg_int > 0 );
 747              		.loc 1 103 0 discriminator 1
 748 0076 12F0FF04 		ands	r4, r2, #255
 749 007a F6D1     		bne	.L8
 104:..\u8g2_csrc/u8x8_d_uc1638.c ****       
 105:..\u8g2_csrc/u8x8_d_uc1638.c ****       u8x8_cad_EndTransfer(u8x8);
 750              		.loc 1 105 0
 751 007c 2846     		mov	r0, r5
 752 007e FFF7FEFF 		bl	u8x8_cad_EndTransfer
 753              	.LVL23:
 106:..\u8g2_csrc/u8x8_d_uc1638.c ****       break;
 107:..\u8g2_csrc/u8x8_d_uc1638.c ****     /*	handled in the calling procedure 
 108:..\u8g2_csrc/u8x8_d_uc1638.c ****     case U8X8_MSG_DISPLAY_SETUP_MEMORY:
 109:..\u8g2_csrc/u8x8_d_uc1638.c ****       u8x8_d_helper_display_setup_memory(u8x8, &u8x8_uc1638_128x64_display_info);
ARM GAS  C:\Users\info\AppData\Local\Temp\ccKpCAvq.s 			page 51


 110:..\u8g2_csrc/u8x8_d_uc1638.c ****       break;
 111:..\u8g2_csrc/u8x8_d_uc1638.c ****     case U8X8_MSG_DISPLAY_INIT:
 112:..\u8g2_csrc/u8x8_d_uc1638.c ****       u8x8_d_helper_display_init(u8x8);
 113:..\u8g2_csrc/u8x8_d_uc1638.c ****       u8x8_cad_SendSequence(u8x8, u8x8_d_uc1701_dogs102_init_seq);
 114:..\u8g2_csrc/u8x8_d_uc1638.c ****       break;
 115:..\u8g2_csrc/u8x8_d_uc1638.c ****     */
 116:..\u8g2_csrc/u8x8_d_uc1638.c ****     case U8X8_MSG_DISPLAY_SET_POWER_SAVE:
 117:..\u8g2_csrc/u8x8_d_uc1638.c ****       if ( arg_int == 0 )
 118:..\u8g2_csrc/u8x8_d_uc1638.c **** 	u8x8_cad_SendSequence(u8x8, u8x8_d_uc1638_powersave0_seq);
 119:..\u8g2_csrc/u8x8_d_uc1638.c ****       else
 120:..\u8g2_csrc/u8x8_d_uc1638.c **** 	u8x8_cad_SendSequence(u8x8, u8x8_d_uc1638_powersave1_seq);
 121:..\u8g2_csrc/u8x8_d_uc1638.c ****       break;
 122:..\u8g2_csrc/u8x8_d_uc1638.c ****     case U8X8_MSG_DISPLAY_SET_FLIP_MODE:
 123:..\u8g2_csrc/u8x8_d_uc1638.c ****       if ( arg_int == 0 )
 124:..\u8g2_csrc/u8x8_d_uc1638.c ****       {
 125:..\u8g2_csrc/u8x8_d_uc1638.c **** 	u8x8_cad_SendSequence(u8x8, u8x8_d_uc1638_flip0_seq);
 126:..\u8g2_csrc/u8x8_d_uc1638.c **** 	u8x8->x_offset = u8x8->display_info->default_x_offset;
 127:..\u8g2_csrc/u8x8_d_uc1638.c ****       }
 128:..\u8g2_csrc/u8x8_d_uc1638.c ****       else
 129:..\u8g2_csrc/u8x8_d_uc1638.c ****       {
 130:..\u8g2_csrc/u8x8_d_uc1638.c **** 	u8x8_cad_SendSequence(u8x8, u8x8_d_uc1638_flip1_seq);
 131:..\u8g2_csrc/u8x8_d_uc1638.c **** 	u8x8->x_offset = u8x8->display_info->flipmode_x_offset;
 132:..\u8g2_csrc/u8x8_d_uc1638.c ****       }	
 133:..\u8g2_csrc/u8x8_d_uc1638.c ****       break;
 134:..\u8g2_csrc/u8x8_d_uc1638.c **** #ifdef U8X8_WITH_SET_CONTRAST
 135:..\u8g2_csrc/u8x8_d_uc1638.c ****     case U8X8_MSG_DISPLAY_SET_CONTRAST:
 136:..\u8g2_csrc/u8x8_d_uc1638.c ****       u8x8_cad_StartTransfer(u8x8);
 137:..\u8g2_csrc/u8x8_d_uc1638.c ****       u8x8_cad_SendCmd(u8x8, 0x081 );
 138:..\u8g2_csrc/u8x8_d_uc1638.c ****       u8x8_cad_SendArg(u8x8, arg_int  );	/* uc1638 has range from 0 to 255 */
 139:..\u8g2_csrc/u8x8_d_uc1638.c ****       u8x8_cad_EndTransfer(u8x8);
 140:..\u8g2_csrc/u8x8_d_uc1638.c ****       break;
 141:..\u8g2_csrc/u8x8_d_uc1638.c **** #endif
 142:..\u8g2_csrc/u8x8_d_uc1638.c ****     default:
 143:..\u8g2_csrc/u8x8_d_uc1638.c ****       return 0;
 144:..\u8g2_csrc/u8x8_d_uc1638.c ****   }
 145:..\u8g2_csrc/u8x8_d_uc1638.c ****   return 1;
 754              		.loc 1 145 0
 755 0082 0120     		movs	r0, #1
 106:..\u8g2_csrc/u8x8_d_uc1638.c ****       break;
 756              		.loc 1 106 0
 757 0084 F8BD     		pop	{r3, r4, r5, r6, r7, pc}
 758              	.LVL24:
 759              	.L3:
 117:..\u8g2_csrc/u8x8_d_uc1638.c **** 	u8x8_cad_SendSequence(u8x8, u8x8_d_uc1638_powersave0_seq);
 760              		.loc 1 117 0
 761 0086 22B9     		cbnz	r2, .L9
 118:..\u8g2_csrc/u8x8_d_uc1638.c ****       else
 762              		.loc 1 118 0
 763 0088 1649     		ldr	r1, .L13
 764 008a FFF7FEFF 		bl	u8x8_cad_SendSequence
 765              	.LVL25:
 766              		.loc 1 145 0
 767 008e 0120     		movs	r0, #1
 768 0090 F8BD     		pop	{r3, r4, r5, r6, r7, pc}
 769              	.LVL26:
 770              	.L9:
 120:..\u8g2_csrc/u8x8_d_uc1638.c ****       break;
ARM GAS  C:\Users\info\AppData\Local\Temp\ccKpCAvq.s 			page 52


 771              		.loc 1 120 0
 772 0092 1549     		ldr	r1, .L13+4
 773 0094 FFF7FEFF 		bl	u8x8_cad_SendSequence
 774              	.LVL27:
 775              		.loc 1 145 0
 776 0098 0120     		movs	r0, #1
 777 009a F8BD     		pop	{r3, r4, r5, r6, r7, pc}
 778              	.LVL28:
 779              	.L5:
 123:..\u8g2_csrc/u8x8_d_uc1638.c ****       {
 780              		.loc 1 123 0
 781 009c 42B9     		cbnz	r2, .L10
 125:..\u8g2_csrc/u8x8_d_uc1638.c **** 	u8x8->x_offset = u8x8->display_info->default_x_offset;
 782              		.loc 1 125 0
 783 009e 1349     		ldr	r1, .L13+8
 784 00a0 FFF7FEFF 		bl	u8x8_cad_SendSequence
 785              	.LVL29:
 126:..\u8g2_csrc/u8x8_d_uc1638.c ****       }
 786              		.loc 1 126 0
 787 00a4 2B68     		ldr	r3, [r5]
 788 00a6 9B7C     		ldrb	r3, [r3, #18]	@ zero_extendqisi2
 789 00a8 85F82230 		strb	r3, [r5, #34]
 790              		.loc 1 145 0
 791 00ac 0120     		movs	r0, #1
 792 00ae F8BD     		pop	{r3, r4, r5, r6, r7, pc}
 793              	.LVL30:
 794              	.L10:
 130:..\u8g2_csrc/u8x8_d_uc1638.c **** 	u8x8->x_offset = u8x8->display_info->flipmode_x_offset;
 795              		.loc 1 130 0
 796 00b0 0F49     		ldr	r1, .L13+12
 797 00b2 FFF7FEFF 		bl	u8x8_cad_SendSequence
 798              	.LVL31:
 131:..\u8g2_csrc/u8x8_d_uc1638.c ****       }	
 799              		.loc 1 131 0
 800 00b6 2B68     		ldr	r3, [r5]
 801 00b8 DB7C     		ldrb	r3, [r3, #19]	@ zero_extendqisi2
 802 00ba 85F82230 		strb	r3, [r5, #34]
 803              		.loc 1 145 0
 804 00be 0120     		movs	r0, #1
 805 00c0 F8BD     		pop	{r3, r4, r5, r6, r7, pc}
 806              	.LVL32:
 807              	.L6:
 136:..\u8g2_csrc/u8x8_d_uc1638.c ****       u8x8_cad_SendCmd(u8x8, 0x081 );
 808              		.loc 1 136 0
 809 00c2 FFF7FEFF 		bl	u8x8_cad_StartTransfer
 810              	.LVL33:
 137:..\u8g2_csrc/u8x8_d_uc1638.c ****       u8x8_cad_SendArg(u8x8, arg_int  );	/* uc1638 has range from 0 to 255 */
 811              		.loc 1 137 0
 812 00c6 8121     		movs	r1, #129
 813 00c8 2846     		mov	r0, r5
 814 00ca FFF7FEFF 		bl	u8x8_cad_SendCmd
 815              	.LVL34:
 138:..\u8g2_csrc/u8x8_d_uc1638.c ****       u8x8_cad_EndTransfer(u8x8);
 816              		.loc 1 138 0
 817 00ce 2146     		mov	r1, r4
 818 00d0 2846     		mov	r0, r5
 819 00d2 FFF7FEFF 		bl	u8x8_cad_SendArg
ARM GAS  C:\Users\info\AppData\Local\Temp\ccKpCAvq.s 			page 53


 820              	.LVL35:
 139:..\u8g2_csrc/u8x8_d_uc1638.c ****       break;
 821              		.loc 1 139 0
 822 00d6 2846     		mov	r0, r5
 823 00d8 FFF7FEFF 		bl	u8x8_cad_EndTransfer
 824              	.LVL36:
 825              		.loc 1 145 0
 826 00dc 0120     		movs	r0, #1
 140:..\u8g2_csrc/u8x8_d_uc1638.c **** #endif
 827              		.loc 1 140 0
 828 00de F8BD     		pop	{r3, r4, r5, r6, r7, pc}
 829              	.LVL37:
 830              	.L11:
 143:..\u8g2_csrc/u8x8_d_uc1638.c ****   }
 831              		.loc 1 143 0
 832 00e0 0020     		movs	r0, #0
 833              	.LVL38:
 146:..\u8g2_csrc/u8x8_d_uc1638.c **** }
 834              		.loc 1 146 0
 835 00e2 F8BD     		pop	{r3, r4, r5, r6, r7, pc}
 836              	.LVL39:
 837              	.L14:
 838              		.align	2
 839              	.L13:
 840 00e4 00000000 		.word	.LANCHOR0
 841 00e8 08000000 		.word	.LANCHOR0+8
 842 00ec 10000000 		.word	.LANCHOR0+16
 843 00f0 18000000 		.word	.LANCHOR0+24
 844              		.cfi_endproc
 845              	.LFE0:
 846              		.size	u8x8_d_uc1638_common, .-u8x8_d_uc1638_common
 847              		.section	.text.u8x8_d_uc1638_160x128,"ax",%progbits
 848              		.align	2
 849              		.global	u8x8_d_uc1638_160x128
 850              		.thumb
 851              		.thumb_func
 852              		.type	u8x8_d_uc1638_160x128, %function
 853              	u8x8_d_uc1638_160x128:
 854              	.LFB1:
 147:..\u8g2_csrc/u8x8_d_uc1638.c **** 
 148:..\u8g2_csrc/u8x8_d_uc1638.c **** 
 149:..\u8g2_csrc/u8x8_d_uc1638.c **** /*================================================*/
 150:..\u8g2_csrc/u8x8_d_uc1638.c **** /* uc1638 160x128 */
 151:..\u8g2_csrc/u8x8_d_uc1638.c **** 
 152:..\u8g2_csrc/u8x8_d_uc1638.c **** /* values taken from uc1608 */
 153:..\u8g2_csrc/u8x8_d_uc1638.c **** static const u8x8_display_info_t u8x8_uc1638_160x128_display_info =
 154:..\u8g2_csrc/u8x8_d_uc1638.c **** {
 155:..\u8g2_csrc/u8x8_d_uc1638.c ****   /* chip_enable_level = */ 1,	/* uc1638 has high active CS */
 156:..\u8g2_csrc/u8x8_d_uc1638.c ****   /* chip_disable_level = */ 0,
 157:..\u8g2_csrc/u8x8_d_uc1638.c ****   
 158:..\u8g2_csrc/u8x8_d_uc1638.c ****   /* post_chip_enable_wait_ns = */ 10,	/* */
 159:..\u8g2_csrc/u8x8_d_uc1638.c ****   /* pre_chip_disable_wait_ns = */ 20,	/* */
 160:..\u8g2_csrc/u8x8_d_uc1638.c ****   /* reset_pulse_width_ms = */ 5, 	/* */
 161:..\u8g2_csrc/u8x8_d_uc1638.c ****   /* post_reset_wait_ms = */ 150, 	
 162:..\u8g2_csrc/u8x8_d_uc1638.c ****   /* sda_setup_time_ns = */ 30,		/* */
 163:..\u8g2_csrc/u8x8_d_uc1638.c ****   /* sck_pulse_width_ns = */ 65,	/* */
 164:..\u8g2_csrc/u8x8_d_uc1638.c ****   /* sck_clock_hz = */ 1000000UL,	/* since Arduino 1.6.0, the SPI bus speed in Hz. Should be  10000
ARM GAS  C:\Users\info\AppData\Local\Temp\ccKpCAvq.s 			page 54


 165:..\u8g2_csrc/u8x8_d_uc1638.c ****   /* spi_mode = */ 3,		/* active high, rising edge */
 166:..\u8g2_csrc/u8x8_d_uc1638.c ****   /* i2c_bus_clock_100kHz = */ 4,
 167:..\u8g2_csrc/u8x8_d_uc1638.c ****   /* data_setup_time_ns = */ 30,	/*  */
 168:..\u8g2_csrc/u8x8_d_uc1638.c ****   /* write_pulse_width_ns = */ 35,	/*  */
 169:..\u8g2_csrc/u8x8_d_uc1638.c ****   /* tile_width = */ 20,		/* width of 20*8=160 pixel */
 170:..\u8g2_csrc/u8x8_d_uc1638.c ****   /* tile_hight = */ 16,
 171:..\u8g2_csrc/u8x8_d_uc1638.c ****   /* default_x_offset = */ 0,	/*  */
 172:..\u8g2_csrc/u8x8_d_uc1638.c ****   /* flipmode_x_offset = */ 0,	/* */
 173:..\u8g2_csrc/u8x8_d_uc1638.c ****   /* pixel_width = */ 160,
 174:..\u8g2_csrc/u8x8_d_uc1638.c ****   /* pixel_height = */ 128
 175:..\u8g2_csrc/u8x8_d_uc1638.c **** };
 176:..\u8g2_csrc/u8x8_d_uc1638.c **** 
 177:..\u8g2_csrc/u8x8_d_uc1638.c **** static const uint8_t u8x8_d_uc1638_160x128_init_seq[] = {
 178:..\u8g2_csrc/u8x8_d_uc1638.c ****     
 179:..\u8g2_csrc/u8x8_d_uc1638.c ****   U8X8_START_TRANSFER(),             	/* enable chip, delay is part of the transfer start */
 180:..\u8g2_csrc/u8x8_d_uc1638.c **** 
 181:..\u8g2_csrc/u8x8_d_uc1638.c ****   U8X8_CA(0x0e1, 0x0e2),		/* software reset */    /* UC1638*/
 182:..\u8g2_csrc/u8x8_d_uc1638.c ****   U8X8_DLY(5),					/* 5 ms */	
 183:..\u8g2_csrc/u8x8_d_uc1638.c **** 
 184:..\u8g2_csrc/u8x8_d_uc1638.c ****   U8X8_C(0x024),            		/*	 set temp comp*/
 185:..\u8g2_csrc/u8x8_d_uc1638.c ****   U8X8_C(0x0c0),            		/*	mirror y and mirror x */  /* WAS: c2 */
 186:..\u8g2_csrc/u8x8_d_uc1638.c ****   U8X8_C(0x0a2),            		/*	line rate */
 187:..\u8g2_csrc/u8x8_d_uc1638.c ****   U8X8_C(0x0d6),            		/*	gray scale 2 */
 188:..\u8g2_csrc/u8x8_d_uc1638.c ****   U8X8_C(0x0eb),            		/*	 set bias*/
 189:..\u8g2_csrc/u8x8_d_uc1638.c ****   U8X8_C(0x095),            		/*	 set 1 bit per pixel, pattern 0*/
 190:..\u8g2_csrc/u8x8_d_uc1638.c ****   U8X8_C(0x089),            		/*	 set auto increment, low bits are AC2 AC1 AC0 */  /* WAS 89 */
 191:..\u8g2_csrc/u8x8_d_uc1638.c **** 
 192:..\u8g2_csrc/u8x8_d_uc1638.c **** 
 193:..\u8g2_csrc/u8x8_d_uc1638.c ****   U8X8_CA(0x081, 0x0a0),		/* set contrast */    /* UC1638*/
 194:..\u8g2_csrc/u8x8_d_uc1638.c ****   
 195:..\u8g2_csrc/u8x8_d_uc1638.c ****   
 196:..\u8g2_csrc/u8x8_d_uc1638.c ****   U8X8_END_TRANSFER(),             	/* disable chip */
 197:..\u8g2_csrc/u8x8_d_uc1638.c ****   U8X8_END()             			/* end of sequence */
 198:..\u8g2_csrc/u8x8_d_uc1638.c **** };
 199:..\u8g2_csrc/u8x8_d_uc1638.c **** 
 200:..\u8g2_csrc/u8x8_d_uc1638.c **** uint8_t u8x8_d_uc1638_160x128(u8x8_t *u8x8, uint8_t msg, uint8_t arg_int, void *arg_ptr)
 201:..\u8g2_csrc/u8x8_d_uc1638.c **** {
 855              		.loc 1 201 0
 856              		.cfi_startproc
 857              		@ args = 0, pretend = 0, frame = 0
 858              		@ frame_needed = 0, uses_anonymous_args = 0
 859              	.LVL40:
 860 0000 38B5     		push	{r3, r4, r5, lr}
 861              		.cfi_def_cfa_offset 16
 862              		.cfi_offset 3, -16
 863              		.cfi_offset 4, -12
 864              		.cfi_offset 5, -8
 865              		.cfi_offset 14, -4
 866 0002 0546     		mov	r5, r0
 867 0004 0C46     		mov	r4, r1
 202:..\u8g2_csrc/u8x8_d_uc1638.c ****   /* call common procedure first and handle messages there */
 203:..\u8g2_csrc/u8x8_d_uc1638.c ****   if ( u8x8_d_uc1638_common(u8x8, msg, arg_int, arg_ptr) == 0 )
 868              		.loc 1 203 0
 869 0006 FFF7FEFF 		bl	u8x8_d_uc1638_common
 870              	.LVL41:
 871 000a A0B9     		cbnz	r0, .L19
 872 000c 0346     		mov	r3, r0
ARM GAS  C:\Users\info\AppData\Local\Temp\ccKpCAvq.s 			page 55


 204:..\u8g2_csrc/u8x8_d_uc1638.c ****   {
 205:..\u8g2_csrc/u8x8_d_uc1638.c ****     /* msg not handled, then try here */
 206:..\u8g2_csrc/u8x8_d_uc1638.c ****     switch(msg)
 873              		.loc 1 206 0
 874 000e 092C     		cmp	r4, #9
 875 0010 02D0     		beq	.L17
 876 0012 0A2C     		cmp	r4, #10
 877 0014 06D0     		beq	.L18
 878 0016 0FE0     		b	.L16
 879              	.L17:
 207:..\u8g2_csrc/u8x8_d_uc1638.c ****     {
 208:..\u8g2_csrc/u8x8_d_uc1638.c ****       case U8X8_MSG_DISPLAY_SETUP_MEMORY:
 209:..\u8g2_csrc/u8x8_d_uc1638.c **** 	u8x8_d_helper_display_setup_memory(u8x8, &u8x8_uc1638_160x128_display_info);
 880              		.loc 1 209 0
 881 0018 0849     		ldr	r1, .L21
 882 001a 2846     		mov	r0, r5
 883 001c FFF7FEFF 		bl	u8x8_d_helper_display_setup_memory
 884              	.LVL42:
 210:..\u8g2_csrc/u8x8_d_uc1638.c **** 	break;
 211:..\u8g2_csrc/u8x8_d_uc1638.c ****       case U8X8_MSG_DISPLAY_INIT:
 212:..\u8g2_csrc/u8x8_d_uc1638.c **** 	u8x8_d_helper_display_init(u8x8);
 213:..\u8g2_csrc/u8x8_d_uc1638.c **** 	u8x8_cad_SendSequence(u8x8, u8x8_d_uc1638_160x128_init_seq);
 214:..\u8g2_csrc/u8x8_d_uc1638.c **** 	break;
 215:..\u8g2_csrc/u8x8_d_uc1638.c ****       default:
 216:..\u8g2_csrc/u8x8_d_uc1638.c **** 	return 0;		/* msg unknown */
 217:..\u8g2_csrc/u8x8_d_uc1638.c ****     }
 218:..\u8g2_csrc/u8x8_d_uc1638.c ****   }
 219:..\u8g2_csrc/u8x8_d_uc1638.c ****   return 1;
 885              		.loc 1 219 0
 886 0020 0123     		movs	r3, #1
 210:..\u8g2_csrc/u8x8_d_uc1638.c **** 	break;
 887              		.loc 1 210 0
 888 0022 09E0     		b	.L16
 889              	.L18:
 212:..\u8g2_csrc/u8x8_d_uc1638.c **** 	u8x8_cad_SendSequence(u8x8, u8x8_d_uc1638_160x128_init_seq);
 890              		.loc 1 212 0
 891 0024 2846     		mov	r0, r5
 892 0026 FFF7FEFF 		bl	u8x8_d_helper_display_init
 893              	.LVL43:
 213:..\u8g2_csrc/u8x8_d_uc1638.c **** 	break;
 894              		.loc 1 213 0
 895 002a 0549     		ldr	r1, .L21+4
 896 002c 2846     		mov	r0, r5
 897 002e FFF7FEFF 		bl	u8x8_cad_SendSequence
 898              	.LVL44:
 899              		.loc 1 219 0
 900 0032 0123     		movs	r3, #1
 214:..\u8g2_csrc/u8x8_d_uc1638.c ****       default:
 901              		.loc 1 214 0
 902 0034 00E0     		b	.L16
 903              	.L19:
 904              		.loc 1 219 0
 905 0036 0123     		movs	r3, #1
 906              	.L16:
 220:..\u8g2_csrc/u8x8_d_uc1638.c **** }
 907              		.loc 1 220 0
 908 0038 1846     		mov	r0, r3
ARM GAS  C:\Users\info\AppData\Local\Temp\ccKpCAvq.s 			page 56


 909 003a 38BD     		pop	{r3, r4, r5, pc}
 910              	.LVL45:
 911              	.L22:
 912              		.align	2
 913              	.L21:
 914 003c 20000000 		.word	.LANCHOR0+32
 915 0040 38000000 		.word	.LANCHOR0+56
 916              		.cfi_endproc
 917              	.LFE1:
 918              		.size	u8x8_d_uc1638_160x128, .-u8x8_d_uc1638_160x128
 919              		.section	.rodata
 920              		.align	2
 921              		.set	.LANCHOR0,. + 0
 922              		.type	u8x8_d_uc1638_powersave0_seq, %object
 923              		.size	u8x8_d_uc1638_powersave0_seq, 7
 924              	u8x8_d_uc1638_powersave0_seq:
 925 0000 18       		.byte	24
 926 0001 15       		.byte	21
 927 0002 C9       		.byte	-55
 928 0003 16       		.byte	22
 929 0004 AD       		.byte	-83
 930 0005 19       		.byte	25
 931 0006 FF       		.byte	-1
 932 0007 00       		.space	1
 933              		.type	u8x8_d_uc1638_powersave1_seq, %object
 934              		.size	u8x8_d_uc1638_powersave1_seq, 7
 935              	u8x8_d_uc1638_powersave1_seq:
 936 0008 18       		.byte	24
 937 0009 15       		.byte	21
 938 000a C9       		.byte	-55
 939 000b 16       		.byte	22
 940 000c AC       		.byte	-84
 941 000d 19       		.byte	25
 942 000e FF       		.byte	-1
 943 000f 00       		.space	1
 944              		.type	u8x8_d_uc1638_flip0_seq, %object
 945              		.size	u8x8_d_uc1638_flip0_seq, 5
 946              	u8x8_d_uc1638_flip0_seq:
 947 0010 18       		.byte	24
 948 0011 15       		.byte	21
 949 0012 C4       		.byte	-60
 950 0013 19       		.byte	25
 951 0014 FF       		.byte	-1
 952 0015 000000   		.space	3
 953              		.type	u8x8_d_uc1638_flip1_seq, %object
 954              		.size	u8x8_d_uc1638_flip1_seq, 5
 955              	u8x8_d_uc1638_flip1_seq:
 956 0018 18       		.byte	24
 957 0019 15       		.byte	21
 958 001a C2       		.byte	-62
 959 001b 19       		.byte	25
 960 001c FF       		.byte	-1
 961 001d 000000   		.space	3
 962              		.type	u8x8_uc1638_160x128_display_info, %object
 963              		.size	u8x8_uc1638_160x128_display_info, 24
 964              	u8x8_uc1638_160x128_display_info:
 965 0020 01       		.byte	1
ARM GAS  C:\Users\info\AppData\Local\Temp\ccKpCAvq.s 			page 57


 966 0021 00       		.byte	0
 967 0022 0A       		.byte	10
 968 0023 14       		.byte	20
 969 0024 05       		.byte	5
 970 0025 96       		.byte	-106
 971 0026 1E       		.byte	30
 972 0027 41       		.byte	65
 973 0028 40420F00 		.word	1000000
 974 002c 03       		.byte	3
 975 002d 04       		.byte	4
 976 002e 1E       		.byte	30
 977 002f 23       		.byte	35
 978 0030 14       		.byte	20
 979 0031 10       		.byte	16
 980 0032 00       		.byte	0
 981 0033 00       		.byte	0
 982 0034 A000     		.short	160
 983 0036 8000     		.short	128
 984              		.type	u8x8_d_uc1638_160x128_init_seq, %object
 985              		.size	u8x8_d_uc1638_160x128_init_seq, 27
 986              	u8x8_d_uc1638_160x128_init_seq:
 987 0038 18       		.byte	24
 988 0039 15       		.byte	21
 989 003a E1       		.byte	-31
 990 003b 16       		.byte	22
 991 003c E2       		.byte	-30
 992 003d FE       		.byte	-2
 993 003e 05       		.byte	5
 994 003f 15       		.byte	21
 995 0040 24       		.byte	36
 996 0041 15       		.byte	21
 997 0042 C0       		.byte	-64
 998 0043 15       		.byte	21
 999 0044 A2       		.byte	-94
 1000 0045 15       		.byte	21
 1001 0046 D6       		.byte	-42
 1002 0047 15       		.byte	21
 1003 0048 EB       		.byte	-21
 1004 0049 15       		.byte	21
 1005 004a 95       		.byte	-107
 1006 004b 15       		.byte	21
 1007 004c 89       		.byte	-119
 1008 004d 15       		.byte	21
 1009 004e 81       		.byte	-127
 1010 004f 16       		.byte	22
 1011 0050 A0       		.byte	-96
 1012 0051 19       		.byte	25
 1013 0052 FF       		.byte	-1
 1014              		.text
 1015              	.Letext0:
 1016              		.file 2 "c:\\program files (x86)\\cypress\\psoc creator\\4.2\\psoc creator\\import\\gnu\\arm\\5.4.
 1017              		.file 3 "c:\\program files (x86)\\cypress\\psoc creator\\4.2\\psoc creator\\import\\gnu\\arm\\5.4.
 1018              		.file 4 "..\\u8g2_csrc\\u8x8.h"