ARM GAS  C:\Users\info\AppData\Local\Temp\ccpdNS7R.s 			page 1


   1              		.syntax unified
   2              		.cpu cortex-m3
   3              		.fpu softvfp
   4              		.eabi_attribute 20, 1
   5              		.eabi_attribute 21, 1
   6              		.eabi_attribute 23, 3
   7              		.eabi_attribute 24, 1
   8              		.eabi_attribute 25, 1
   9              		.eabi_attribute 26, 1
  10              		.eabi_attribute 30, 1
  11              		.eabi_attribute 34, 1
  12              		.eabi_attribute 18, 4
  13              		.thumb
  14              		.syntax unified
  15              		.file	"u8x8_d_sh1108.c"
  16              		.text
  17              	.Ltext0:
  18              		.section	.gnu.lto_.profile.792a4d43,"",%progbits
  19 0000 789C6361 		.ascii	"x\234ca`d`e`\000\222\355L)\000\002{\000\371"
  19      60646065 
  19      600092ED 
  19      4C290002 
  19      7B00F9
  20              		.text
  21              		.section	.gnu.lto_.inline.792a4d43,"",%progbits
  22 0000 789C6361 		.ascii	"x\234ca`d\000\201S\014\010\300\304\300p\036\010\031"
  22      60640081 
  22      530C08C0 
  22      C4C0701E 
  22      0819
  23 0012 1998ACA7 		.ascii	"\031\230\254\247Lfb\340\177\342\311\004\026\346f``\234"
  23      4C6662E0 
  23      7FE2C904 
  23      16E66660 
  23      609C
  24 0024 E0C7C2CB 		.ascii	"\340\307\302\313\310\300<Ey\202\337\004?f\036\240(\022"
  24      C8C03C45 
  24      7982DF04 
  24      3F661EA0 
  24      2812
  25 0036 83015D60 		.ascii	"\203\001]`\202\037T\023\224\302\320\200*\316\200\213"
  25      821F5413 
  25      94C2D080 
  25      2ACE808B 
  26 0046 66659094 		.ascii	"fe\220\224\006:G`\205\021\003\333\034y\260k\320\225"
  26      063A4760 
  26      851103DB 
  26      1C79B06B 
  26      D095
  27 0058 404D62E3 		.ascii	"@Mb\343g``\001\331\000\202\014\000\244@ _"
  27      67606001 
  27      D900820C 
  27      00A44020 
  27      5F
  28              		.text
  29              		.section	.gnu.lto_.jmpfuncs.792a4d43,"",%progbits
  30 0000 789C6361 		.ascii	"x\234ca`d\000\001i\006\004`b\300\000\254P\032\000\005"
ARM GAS  C:\Users\info\AppData\Local\Temp\ccpdNS7R.s 			page 2


  30      60640001 
  30      69060460 
  30      62C000AC 
  30      501A0005 
  31 0014 930028   		.ascii	"\223\000("
  32              		.text
  33              		.section	.gnu.lto_.pureconst.792a4d43,"",%progbits
  34 0000 789C6361 		.ascii	"x\234ca`d`e```b\220b\225\000\000\000\363\000D"
  34      60646065 
  34      60606062 
  34      90629500 
  34      0000F300 
  35              		.text
  36              		.section	.gnu.lto_u8x8_d_sh1108_generic.792a4d43,"",%progbits
  37 0000 789C9D57 		.ascii	"x\234\235W\353OTG\024\237sg\367\336}\335\005[\333\372"
  37      EB4F5447 
  37      149F7367 
  37      F7DE7DDD 
  37      055BDBFA 
  38 0014 582D8901 		.ascii	"X-\211\001J\232\372\374b?4\265\375\023\372\331\206\264"
  38      4A9AFAFC 
  38      623F34B5 
  38      FD13FAD9 
  38      86B4
  39 0026 D868D3B4 		.ascii	"\330h\323\264i\324&~1\\X\026\037Q*\211\242\022_\211"
  39      69D4267E 
  39      315C5816 
  39      1F512A89 
  39      A2125F89 
  40 003a A5BE1554 		.ascii	"\245\276\025T\252\240\326\365QP\004\024\001Q\244UQ\220"
  40      AAA0D6F5 
  40      51500414 
  40      0151A455 
  40      5190
  41 004c 5A1F2C6A 		.ascii	"Z\037,j}\342\366\2343{a\201\005M7\271s\347\316\235\337"
  41      7DE2F69C 
  41      337B6181 
  41      054D37B9 
  41      73E7CE9D 
  42 0061 6F7EF33B 		.ascii	"o~\363;g\346\316:\004\010\372u\230B\314\302{\025^\220"
  42      67E6CE3A 
  42      0408FA75 
  42      9842CCC2 
  42      7B155E90 
  43 0075 24405B55 		.ascii	"$@[U/D\216Ks\232\027\222\204\345\222\\\352\\\272\271"
  43      2F448E4B 
  43      739A1792 
  43      84E5925C 
  43      EA5CBAB9 
  44 0089 F4A876CD 		.ascii	"\364\250v\315\2614]X\036'\225>\007\230\012\346\264+"
  44      B1345D58 
  44      1E27953E 
  44      07980AE6 
  44      B42B
  45 009b BA66F07B 		.ascii	"\272f\360{\027\2777\354f\227]q\333\025\017xU\305\253"
  45      17BF37EC 
  45      66975D71 
ARM GAS  C:\Users\info\AppData\Local\Temp\ccpdNS7R.s 			page 3


  45      DB150F78 
  45      55C5AB
  46 00ae F957540B 		.ascii	"\371WT\013\204\370\362\014\204\370U\373g>\273\243\011"
  46      84F8F20C 
  46      84F855FB 
  46      673EBBA3 
  46      09
  47 00bf 4015CB05 		.ascii	"@\025\313\005\"[\223\016\247n\270\334\036\257\337gB"
  47      225B930E 
  47      A76EB8DC 
  47      1EAFDF67 
  47      42
  48 00d0 B6E61510 		.ascii	"\266\346\025\020v@T\315\350\261\326\253\301\271'gVx"
  48      764054CD 
  48      E8B1D6AB 
  48      C1B92767 
  48      5678
  49 00e2 32B65956 		.ascii	"2\266YV\256u\275\344\366\254\236\334\320\230\220\024"
  49      AE75BDE4 
  49      F6AC9EDC 
  49      D0989014 
  50 00f2 22AA0998 		.ascii	"\"\252\011\230\021\200\251\001\232\3556\310\300\236"
  50      1180A901 
  50      9AED36C8 
  50      C09E
  51 0100 0D79A51B 		.ascii	"\015y\245\033\344#-$\001\034\370\030\251+\276\351\247"
  51      E4232D24 
  51      011CF818 
  51      A92BBEE9 
  51      A7
  52 0111 470D52F0 		.ascii	"G\015R\360qK\323\3266]\246\200\300zQM\323}3\275\204"
  52      714BD3D6 
  52      365DA680 
  52      C07A514D 
  52      D37D33BD 
  53 0126 38AD63DF 		.ascii	"8\255c\337X\356\220\224\260\023$q\356\200\000l\207\200"
  53      58EE9094 
  53      B0132471 
  53      EE80006C 
  53      8780
  54 0138 C02601BB 		.ascii	"\300&\001\273 \035{\327\226V\2648d*#\237\034=\325k#"
  54      201D7BD7 
  54      9656B438 
  54      642A239F 
  54      1C3DD56B 
  55 014d 9F7D6949 		.ascii	"\237}iI\224\002\273\025R\251!m\260\207q\353\032\256"
  55      9402BB15 
  55      52A9216D 
  55      B08771EB 
  55      1AAE
  56 015f AFF4C80C 		.ascii	"\257\364\310\014\306m\350xp\305\031\303\035\250\362"
  56      C66DE878 
  56      70C519C3 
  56      1DA8F2
  57 016e 5A5309B8 		.ascii	"ZS\011\270w\010p\037\003\257\334\256k\364\310i\014\334"
  57      7708701F 
  57      03AFDCAE 
ARM GAS  C:\Users\info\AppData\Local\Temp\ccpdNS7R.s 			page 4


  57      6BF4C869 
  57      0CDC
  58 0180 597E6DBF 		.ascii	"Y~m\277\021\003F\252|\326*\010I\007\224\016\026\353"
  58      110346AA 
  58      7CD62A08 
  58      4907940E 
  58      16EB
  59 0192 105006E9 		.ascii	"\020P\006\351\004(hZ\336.\345\307\014.\261J\227\273"
  59      0428685A 
  59      DE2EE5C7 
  59      0C2EB14A 
  59      97BB
  60 01a4 53B71238 		.ascii	"S\267\0228\334\220\357_o\205\363RB\322\011\373\007\302"
  60      DC90EF5F 
  60      6F85F352 
  60      42D209FB 
  60      07C2
  61 01b6 E987BDEB 		.ascii	"\351\207\275\353\267\225\254\366\310O\030\271\271\250"
  61      B795ACF6 
  61      C84F18B9 
  61      B9A8
  62 01c4 F2B28D3C 		.ascii	"\362\262\215<\236\237\264\326\012\347\244\220\344\203"
  62      9E9FB4D6 
  62      0AE7A490 
  62      E483
  63 01d2 F19263B8 		.ascii	"\361\222c\270\342\312%\271\036\371)\343\202\207[\216"
  63      E2CA25B9 
  63      1EF929E3 
  63      82875B8E 
  64 01e2 24299C75 		.ascii	"$)\234uh\266\025\234E\240\337\022\200\332\313^\2551"
  64      68B6159C 
  64      45A0DF12 
  64      80DACB5E 
  64      AD31
  65 01f4 F53C0B7F 		.ascii	"\365<\013\177)p\010R\241\034\257\003\220J\201E#\016"
  65      29700852 
  65      A11CAF03 
  65      904A8145 
  65      230E
  66 0206 838E3920 		.ascii	"\203\2169 \343\337\354\373\"lE\243A+|L?\321\346\371"
  66      E3DFECFB 
  66      226C45A3 
  66      412B7C4C 
  66      3FD1E6F9 
  67 021a 10D82D8D 		.ascii	"\020\330-\215|s\0029n\0005\270\200\242\346\303f\335"
  67      7C730239 
  67      6E0035B8 
  67      80A2E6C3 
  67      66DD
  68 022c C4C248A6 		.ascii	"\304\302H\246\332(\252\215\001\262h\254 \316q\\\216"
  68      DA28AA8D 
  68      01B268AC 
  68      20CE715C 
  68      8E
  69 023d A7E60057 		.ascii	"\247\346\000W'Pu\"\025)TL\242\"U\320\320i\202\006O\247"
  69      27507522 
  69      1529544C 
ARM GAS  C:\Users\info\AppData\Local\Temp\ccpdNS7R.s 			page 5


  69      A22255D0 
  69      D0698206 
  70 0253 860C1E52 		.ascii	"\206\014\036R\210n\224\270z\222\210h\032\336d\007\344"
  70      886E94B8 
  70      7A928868 
  70      1ADE6407 
  70      E4
  71 0264 871BAB80 		.ascii	"\207\033\253\200$\007\245\223\262\353\312/]\316B\370"
  71      2407A593 
  71      B2EBCA2F 
  71      5DCE42F8 
  72 0274 39076717 		.ascii	"9\007g\027n\256\301\014ta\266K\2328T@!`\227\027O\353"
  72      6EAEC10C 
  72      7461B64B 
  72      9A385440 
  72      21609717 
  73 028a 8F19949B 		.ascii	"\217\031\224\233\002\274\224Uk:\267\3506\342\245\216"
  73      02BC9455 
  73      6B3AB7E8 
  73      36E2A58E 
  74 029a 00A8C4B8 		.ascii	"\000\250\304\270X\222\326\001\034Q\230\356\212\222\355"
  74      5892D601 
  74      1C5198EE 
  74      8A92ED
  75 02a9 9AC298F8 		.ascii	"\232\302\230\370\330\361\333\372\245\322\306\2543\010"
  75      D8F1DBFA 
  75      A5D2C6AC 
  75      3308
  76 02b7 739431EC 		.ascii	"s\2241\354\3371\205\271wi\327n\2510~||\\\337\272\335"
  76      DF3185B9 
  76      7769D76E 
  76      A9307E7C 
  76      7C5CDFBA 
  77 02cc 67632E32 		.ascii	"gc.2\346w\306\22088\2560\273\177\215\204\223\024&\011"
  77      E677C690 
  77      3838AE30 
  77      BB7F8D84 
  77      93142609 
  78 02e0 1F371DDC 		.ascii	"\0377\035\334\266\332\2641\335\214\0113\306A\230\023"
  78      B6DAB431 
  78      DD8C0933 
  78      C6419813 
  79 02f0 88C17B44 		.ascii	"\210\301{D\223\"\317\220\267 '\231| \3417 \2575\030"
  79      9322CF90 
  79      B7202799 
  79      7C20E137 
  79      20AF3518 
  80 0304 5D394EF9 		.ascii	"]9N\371b \323\276\273\025\317L\"60v'cy\027\321\034\342"
  80      6220D3BE 
  80      BB15CF4C 
  80      22363076 
  80      27637917 
  81 031b A4945D10 		.ascii	"\244\224]\020\012\027.a\023);**\356^5\262{\255\245\226"
  81      0A172E61 
  81      13293B2A 
  81      2AEE5E35 
  81      B27BADA5 
ARM GAS  C:\Users\info\AppData\Local\Temp\ccpdNS7R.s 			page 6


  82 0330 951C92EE 		.ascii	"\225\034\222\356\250\206\203\300)\310\026A\351\"\207"
  82      A88683C0 
  82      29C81641 
  82      E92287
  83 033f 4327CFB3 		.ascii	"C'\317\263}\036\225t\317\217?\364c\357u\334\333\263"
  83      7D1E9574 
  83      CF8F3FF4 
  83      63EF75DC 
  83      DBB3
  84 0351 4C3A39C5 		.ascii	"L:9\305\316\026\357\372n3l\314Y\305\315^\370\003\262"
  84      CE16EFFA 
  84      6E336CCC 
  84      59C5CD5E 
  84      F803B2
  85 0364 E1340D8B 		.ascii	"\3414\015\213\357\242w\366\357u+\210\265\230x\252`\263"
  85      EFA277F6 
  85      EF752B88 
  85      B59878AA 
  85      60B3
  86 0376 1A1DAA21 		.ascii	"\032\035\252!;$},\315iK[\363\032ig\372\244\015\321\242"
  86      3B247D2C 
  86      CD694B5B 
  86      F31A6967 
  86      FAA40DD1 
  87 038b 27D47276 		.ascii	"'\324rv$-5}Z\316\365k\321\007\032\254)\203\017\025\330"
  87      242D357D 
  87      5ACEF56B 
  87      D1071AAC 
  87      29830F15 
  88 03a0 06C7396A 		.ascii	"\006\3079j\330\2627\277Fv\355PG\315\004\216\232\313"
  88      D8B237BF 
  88      4676ED50 
  88      47CD048E 
  88      9ACB
  89 03b2 A4916016 		.ascii	"\244\221`\026~\250\307Y\324%\236\205\011\347\373fqA"
  89      7EA8C759 
  89      D4259E85 
  89      09E7FB66 
  89      7141
  90 03c4 CDA21372 		.ascii	"\315\242\023r+\313\356F\234Jpr\374\250Rm\256\3255K}"
  90      2BCBEE46 
  90      9C4A7072 
  90      FCA8526D 
  90      AED5354B 
  91 03d9 C88F5B5C 		.ascii	"\310\217[\\\022\312\202\206\030u\311\255\334\275\306"
  91      12CA8286 
  91      1875C9AD 
  91      DCBDC6
  92 03e8 948F7021 		.ascii	"\224\217p!\303E$}\245\361Rj\204)Ly#M\021\216\212'\324"
  92      C345247D 
  92      A5F1526A 
  92      84294C79 
  92      234D118E 
  93 03ff 071326E3 		.ascii	"\007\023&\343\210\320\024#\334\264\356\360C\377\224"
  93      88D01423 
  93      DCB4EEF0 
  93      43FF94
ARM GAS  C:\Users\info\AppData\Local\Temp\ccpdNS7R.s 			page 7


  94 040e 3D348951 		.ascii	"=4\211Q\320\314\224\274\322.)\312\242\033\243\2112\216"
  94      D0CC94BC 
  94      D22E29CA 
  94      A21BA389 
  94      328E
  95 0420 2087F629 		.ascii	" \207\366)s8Y\002Z\230\203W\336e\230\202Z8\016.;\016"
  95      73385902 
  95      5A988357 
  95      DE659882 
  95      5A380E2E 
  96 0436 15AF89C3 		.ascii	"\025\257\211\303\225a\322\007\215w%4\276u$\343\257\366"
  96      9561D207 
  96      8D772534 
  96      BE7524E3 
  96      AFF6
  97 0448 19DFD66F 		.ascii	"\031\337\326o|\344\276m\274\357\315\234\376\263\337"
  97      7CE4BE6D 
  97      BCEFCD9C 
  97      FEB3DF
  98 0457 E9BF0639 		.ascii	"\351\277\0069m\016\261\326\227\330\332k\314\301\233"
  98      6D0EB1D6 
  98      97D8DA6B 
  98      CCC19B
  99 0466 CBF5FF6B 		.ascii	"\313\365\377k\355\215~k\333\311Z\223\255u\017\\\015"
  99      ED8D7E6B 
  99      DBC95A93 
  99      AD750F5C 
  99      0D
 100 0477 5274415E 		.ascii	"RtA^\270\271Z&\266\371\255(\021\300MesH\276-(*\227\214"
 100      B8B95A26 
 100      B6F9AD28 
 100      11C04D65 
 100      7348BE2D 
 101 048f C4BD4747 		.ascii	"\304\275GGI2\334\352\013J\327\223\013\313t\265#\346"
 101      4932DCEA 
 101      0B4AD793 
 101      0BCB74B5 
 101      23E6
 102 04a1 00744020 		.ascii	"\000t@ $\337a\206\313\3033\340\356\010\235\212\001\027"
 102      24DF6186 
 102      CBC333E0 
 102      EE089D8A 
 102      0117
 103 04b3 A702E485 		.ascii	"\247\002\344\205[\207\001\240@\334\263\340v\277@\232"
 103      5B8701A0 
 103      40DCB3E0 
 103      76BF409A 
 104 04c3 A467E024 		.ascii	"\244g\340$\035L\3213<\005\315\261\253\237\202\327[o"
 104      1D4CD133 
 104      3C05CDB1 
 104      AB9F82D7 
 104      5B6F
 105 04d5 A154411B 		.ascii	"\241TA\033\033\277<\336\035\260<8\004k\001?q\357\005"
 105      1BBF3CDE 
 105      1DB03C38 
 105      046B013F 
 105      71EF05
ARM GAS  C:\Users\info\AppData\Local\Temp\ccpdNS7R.s 			page 8


 106 04e8 E518F87B 		.ascii	"\345\030\370{h\020\356p\020x\307\377\007\003\331\016"
 106      6810EE70 
 106      1078C7FF 
 106      0703D90E 
 107 04f8 B9D60CFE 		.ascii	"\271\326\014\376F\343\247\023\251q\250`q~\353\373j\244"
 107      46E3A713 
 107      A971A860 
 107      717EEBFB 
 107      6AA4
 108 050a 716AB0E5 		.ascii	"qj\260\345\317[\012\\\3125\027\334E\316v\320\3721\343"
 108      CF5B0A5C 
 108      CA3517DC 
 108      45CE76D0 
 108      FA31E3
 109 051d 94BC5739 		.ascii	"\224\274W9\261\254\034\377&Y)\340^\1776\334\347\214"
 109      B1AC1CFF 
 109      265929E0 
 109      5E7F36DC 
 109      E78C
 110 052f 0A16E5D7 		.ascii	"\012\026\345\327\306\276\275\001\036z\374\300q\002\324"
 110      C6BEBD01 
 110      1E7AFCC0 
 110      7102D4
 111 053e A727BF7E 		.ascii	"\247'\277~\273_u\232\200M\361g\3051\340\200\007\300"
 111      BB5F759A 
 111      804DF167 
 111      C531E080 
 111      07C0
 112 0550 BD9EEAAA 		.ascii	"\275\236\352\252\313D\354\205].v\327n\364\252\317U2"
 112      CB44EC85 
 112      5D2E76D7 
 112      6EF4AACF 
 112      5532
 113 0562 7463972E 		.ascii	"tc\227.p\216\2300\021;\334\023)\334H\3702\377\342\007"
 113      708E9830 
 113      113BDC13 
 113      29DC48F8 
 113      32FFE207 
 114 0576 8A320547 		.ascii	"\2122\005G\345\317\346\3538zl\216\024;\307\212=#\002"
 114      E5CFE6EB 
 114      387A6C8E 
 114      143BC78A 
 114      3D2302
 115 0589 1EF665E9 		.ascii	"\036\366e\351\362\202\023\235\261\363A)\300#\225\245"
 115      F282139D 
 115      B1F34129 
 115      C02395A5 
 116 0599 647261B5 		.ascii	"dra\265\246TL\032\034\363k\303\304|\017\275\264\222"
 116      A6544C1A 
 116      1CF36BC3 
 116      C47C0FBD 
 116      B492
 117 05ab 88EA311B 		.ascii	"\210\3521\033\356$\303\377E\303G\322O)\377\304\326?"
 117      EE24C3FF 
 117      45C347D2 
 117      4F29FFC4 
 117      D63F
ARM GAS  C:\Users\info\AppData\Local\Temp\ccpdNS7R.s 			page 9


 118 05bd 8946A724 		.ascii	"\211F\247$\366\012<\354K\314\230d>=\005q\253\347\310"
 118      F60A3CEC 
 118      4BCC9864 
 118      3E3D0571 
 118      ABE7C8
 119 05d0 D77DAE44 		.ascii	"\327}\256D\245\016\026\265x\204<|\312jtR\363,\226\207"
 119      A50E16B5 
 119      78843C7C 
 119      CA6A7452 
 119      F32C9687 
 120 05e4 6E8E7539 		.ascii	"n\216u9\305:U\355tu_+\346\264\301\314\205\303\247\270"
 120      C53A55ED 
 120      74755F2B 
 120      E6B4C1CC 
 120      85C3A7B8 
 121 05f8 139E33B5 		.ascii	"\023\2363\265A\324/b\324&S\037 \3524\225\342\235;\034"
 121      41D42F62 
 121      D426531F 
 121      20EA3495 
 121      E29D3B1C 
 122 060c 8A1BE791 		.ascii	"\212\033\347\221\312I\335\005zbC\306FI'\274\264\015"
 122      CA49DD05 
 122      7A6243C6 
 122      464927BC 
 122      B40D
 123 061e 41445A88 		.ascii	"ADZ\210\323\036S\366\376\216\351\212'\003\375@hc\360"
 123      D31E53F6 
 123      FE8EE98A 
 123      2703FD40 
 123      6863F0
 124 0631 F4F9D839 		.ascii	"\364\371\3309-\012\320\033\267X\330\262\014\372\330"
 124      2D0AD01B 
 124      B758D8B2 
 124      0CFAD8
 125 0640 5F0DBE58 		.ascii	"_\015\276Xm\304P\366\307\276\007\000w\027\017\026\031"
 125      6DC450F6 
 125      C7BE0700 
 125      77170F16 
 125      19
 126 0651 FEB6C639 		.ascii	"\376\266\3069x2\365\013\374\357\005\021\315G{\007\355"
 126      7832F50B 
 126      FCEF0511 
 126      CD477B07 
 126      ED
 127 0662 170D35C3 		.ascii	"\027\0155\303o\212\264\347\274\032\270\347\230t\244"
 127      6F8AB4E7 
 127      BC1AB8E7 
 127      9874A4
 128 0671 A53D874F 		.ascii	"\245=\207O\254w(lA>R\366\200\026\277\203\340\237N\224"
 128      AC77286C 
 128      413E52F6 
 128      8016BF83 
 128      E09F4E94 
 129 0685 1AD08E36 		.ascii	"\032\320\2166/\302\346\362%\265e\036\325\014`i\001W"
 129      2FC2E6F2 
 129      25B5651E 
 129      D50C6069 
ARM GAS  C:\Users\info\AppData\Local\Temp\ccpdNS7R.s 			page 10


 129      0157
 130 0697 5BF33CBA 		.ascii	"[\363<\272;\005\225\006\227\016.}\\\272\351\020\015"
 130      3B059506 
 130      970E2E7D 
 130      5CBAE910 
 130      0D
 131 06a8 3814324F 		.ascii	"8\0242O\230<y\366O3\347N\317\314Z0?\013k\213ff\316\311"
 131      983C79F6 
 131      4F33E74E 
 131      CFCC5A30 
 131      3F0B6B8B 
 132 06c0 5C306FDA 		.ascii	"\\0o\332\264\2513'g\011\0075\310\357\027\3145\276\232"
 132      B4A93327 
 132      67090735 
 132      C8EF17CC 
 132      35BE9A
 133 06d3 3F37F3DB 		.ascii	"?7\363\333\037\026\362\375\307\205\363%^\220\005\213"
 133      1F16F2FD 
 133      C785F325 
 133      5E90058B 
 134 06e3 FE0345AC 		.ascii	"\376\003E\254\237\365"
 134      9FF5
 135              		.text
 136              		.section	.gnu.lto_u8x8_d_sh1108_noname_powersave0_seq.792a4d43,"",%progbits
 137 0000 789C6361 		.ascii	"x\234ca`d\000\201\355@\014a10\374eb\\\337\372d%\307"
 137      60640081 
 137      ED400C61 
 137      3130FC65 
 137      625CDFFA 
 138 0017 17A65666 		.ascii	"\027\246Vf\006\306\377\214@\376\305\226\015s\230A|F"
 138      06C6FF8C 
 138      40FEC596 
 138      0D739841 
 138      7C46
 139 0029 461620F7 		.ascii	"F\026 \367\313\36437\371!\322\222@\356\241O\033\226"
 139      CBF43337 
 139      F921D292 
 139      40EEA14F 
 139      1B96
 140 003b F3406499 		.ascii	"\363@d\231\201\334I\277OO\343\202\310\256\007i>\372"
 140      81DC49BF 
 140      4F4FE382 
 140      C8AE0769 
 140      3EFA
 141 004d FFFB017E 		.ascii	"\377\373\001~\2104\023\220\373x\371\277\351l\020iQ "
 141      88341390 
 141      FB78F9BF 
 141      E96C1069 
 141      5120
 142 005f F75DCBD3 		.ascii	"\367]\313\323\007\334\020\256\004\220\373\371\344\306"
 142      07DC10AE 
 142      0490FBF9 
 142      E4C6
 143 006d 257C16DB 		.ascii	"%|\026\333\032:\0264\004\264231\032\3120\256c\224a4"
 143      1A3A1634 
 143      04B43233 
 143      311ACA30 
ARM GAS  C:\Users\info\AppData\Local\Temp\ccpdNS7R.s 			page 11


 143      AE639461 
 144 0082 92615C0B 		.ascii	"\222a\\\013\244\326\000\361j ^\005\304+\201x\005\020"
 144      A4D600F1 
 144      6A205E05 
 144      C42B8178 
 144      0510
 145 0094 2F679401 		.ascii	"/g\224\001Yd\301\000\000\271N?="
 145      5964C100 
 145      00B94E3F 
 145      3D
 146              		.text
 147              		.section	.gnu.lto_u8x8_d_sh1108_noname_powersave1_seq.792a4d43,"",%progbits
 148 0000 789C6361 		.ascii	"x\234ca`d\000\201\355@\014a10\374eb\\\337\372d%\307"
 148      60640081 
 148      ED400C61 
 148      3130FC65 
 148      625CDFFA 
 149 0017 17A65666 		.ascii	"\027\246Vf\006\306\377\214@\376\305\226\015s\230A|F"
 149      06C6FF8C 
 149      40FEC596 
 149      0D739841 
 149      7C46
 150 0029 461620F7 		.ascii	"F\026 \367\313\36437\371!\322\222@\356\241O\033\226"
 150      CBF43337 
 150      F921D292 
 150      40EEA14F 
 150      1B96
 151 003b F3406499 		.ascii	"\363@d\231\201\334S\033\257\035\204j^\007\322|\364\377"
 151      81DC531B 
 151      AF1D846A 
 151      5E07D27C 
 151      F4FF
 152 004d F703FC10 		.ascii	"\367\003\374\020i& \367\361\362\177\323\331 \322\242"
 152      692620F7 
 152      F1F27FD3 
 152      D920D2A2 
 153 005d 40EEBB96 		.ascii	"@\356\273\226\247\017\270!\\\011 \367\322\355\333\253"
 153      A70FB821 
 153      5C0920F7 
 153      D2EDDBAB 
 154 006d 792DB635 		.ascii	"y-\2665t,h\010hefb4\224\001\032\"\303h$\303\270\026"
 154      742C6808 
 154      68656662 
 154      3494011A 
 154      22C36824 
 155 0084 48AD01E2 		.ascii	"H\255\001\342\325@\274\012\210W\002\361\012 ^\316(\303"
 155      D540BC0A 
 155      885702F1 
 155      0A205ECE 
 155      28C3
 156 0096 C0B89ED1 		.ascii	"\300\270\236\321\202\001\000\317\260?\177"
 156      820100CF 
 156      B03F7F
 157              		.text
 158              		.section	.gnu.lto_u8x8_d_sh1108_160x160_noname_powersave0_seq.792a4d43,"",%progbits
 159 0000 789C2D8B 		.ascii	"x\234-\213\275\016\301P\030\206\317\327R\202\324$!\351"
 159      BD0EC150 
ARM GAS  C:\Users\info\AppData\Local\Temp\ccpdNS7R.s 			page 12


 159      1886CFD7 
 159      5282D424 
 159      21E9
 160 0012 4D30F5B2 		.ascii	"M0\365\262\\\202\241ML\322\315b\350 \251\242Z\006\203"
 160      5C82A14D 
 160      4CD2CD62 
 160      E820A9A2 
 160      5A0683
 161 0025 181A8941 		.ascii	"\030\032\211Ab1\232H\324$\004!\006\277o\3639\311\223"
 161      62319A48 
 161      D4240421 
 161      06BF6FF3 
 161      39C993
 162 0038 F33D79F2 		.ascii	"\363=y\362&\004\211\370\335\001_B\274%\362\315\310M"
 162      260489F8 
 162      DD015F42 
 162      BC25F2CD 
 162      C84D
 163 004a DF245316 		.ascii	"\337$S\026\364%x\364\364&j\354D\012\364\326\\\256\363"
 163      F42578F4 
 163      F4266AEC 
 163      440AF4D6 
 163      5CAEF3
 164 005d 9C4BD045 		.ascii	"\234K\320E{\362\312qMB\203\251qT\271\206\361xe\004-"
 164      7BF2CA71 
 164      4D4283A9 
 164      7154B986 
 164      F1786504 
 165 0072 997302BA 		.ascii	"\231s\002\272s>M\205s\001:\273\006\316\177,C\337\033"
 165      733E4D85 
 165      73013ABB 
 165      06CE7F2C 
 165      43DF1B
 166 0085 CB4A71B5 		.ascii	"\313Jq\265\343\361\374\373\010\363\234%\350\311\330"
 166      E3F1FCFB 
 166      08F39C25 
 166      E8C9D8
 167 0094 6FB39C8B 		.ascii	"o\263\234\213\320K\343|\310\350\343Z\335\256UMY\242"
 167      D04BE37C 
 167      C8E8E35A 
 167      DDAE554D 
 167      59A2
 168 00a6 B24643D2 		.ascii	"\262FC\322\250\242\221\207/\000>\030\020{\037\364@\027"
 168      A8A29187 
 168      2F003E18 
 168      107B1FF4 
 168      4017
 169 00b8 B8A0031C 		.ascii	"\270\240\003\034\322\004\215H\027?\367-T\315"
 169      D2048D48 
 169      173FF72D 
 169      54CD
 170              		.text
 171              		.section	.gnu.lto_u8x8_d_sh1108_160x160_noname_powersave1_seq.792a4d43,"",%progbits
 172 0000 789C2D8C 		.ascii	"x\234-\214;\012\302@\024E\347M\242\010\212\251\004\205"
 172      3B0AC240 
 172      1445E74D 
 172      A2088AA9 
ARM GAS  C:\Users\info\AppData\Local\Temp\ccpdNS7R.s 			page 13


 172      0485
 173 0012 6C422B97 		.ascii	"lB+\227\345\022R$\340\016ba\241 \304\2501\321\302\""
 173      E5125224 
 173      E00E6261 
 173      A120C4A8 
 173      31D1C222 
 174 0026 58882028 		.ascii	"X\210 (\244P\261\021\033\301Oi!\212\205\337\033\236"
 174      A450B111 
 174      1BC14F69 
 174      218A85DF 
 174      1B9E
 175 0038 038799C3 		.ascii	"\003\207\231\303\341\216*H\304\347\016\370%\304[\222"
 175      E18E2A48 
 175      C4E70EF8 
 175      25C45B92 
 176 0048 6F1DDDD4 		.ascii	"o\035\335\324MZ\212\240/\301\217O/\314\306N\224\204"
 176      4D5A8AA0 
 176      2FC18F4F 
 176      2FCCC64E 
 176      9484
 177 005a DEEC68AB 		.ascii	"\336\354h\253q.@\027\255\360\225\341\232\200\326\314"
 177      712E4017 
 177      ADF095E1 
 177      9A80D6CC 
 178 006a F559729D 		.ascii	"\365Yr\235\307\343\225\031\324\025\316*\364\340|\354"
 178      C7E39519 
 178      D415CE2A 
 178      F4E07CEC 
 179 007a 24E71C74 		.ascii	"$\347\034tz\015\234\377X\201.wk\377\377u3\036\317\276"
 179      7A0D9CFF 
 179      58812E77 
 179      6BFFFF75 
 179      331ECFBE 
 180 008e 8F89C659 		.ascii	"\217\211\306YB/\346i\237\346\234\207\236\242\361F+\217"
 180      422FE669 
 180      9FE69C87 
 180      9EA2F146 
 180      2B8F
 181 00a0 8C6AC3A8 		.ascii	"\214j\303\250X\212\244\242N\003\322\251\244\223\207"
 181      588AA4A2 
 181      4E03D2A9 
 181      A49387
 182 00af 2B003EE8 		.ascii	"+\000>\350\023{\017tA\007\270\240\015\034\322\005\015"
 182      137B0F74 
 182      4107B8A0 
 182      0D1CD205 
 182      0D
 183 00c0 A92C7E01 		.ascii	"\251,~\001\357T\345"
 183      EF54E5
 184              		.text
 185              		.section	.gnu.lto_u8x8_d_sh1108_160x160.792a4d43,"",%progbits
 186 0000 789C7594 		.ascii	"x\234u\224\333oLQ\024\306\367w\3269g.f\306\360$2\244"
 186      DB6F4C51 
 186      14C6F777 
 186      D639672E 
 186      66C6F024 
 187 0016 2FD2F4A5 		.ascii	"/\322\364\245Z^\372/x\345\2254RR\"DZ\022o\263\333\351"
ARM GAS  C:\Users\info\AppData\Local\Temp\ccpdNS7R.s 			page 14


 187      5A5EFA2F 
 187      78E59534 
 187      52522244 
 187      5A126FB3 
 188 002c 094D5CDA 		.ascii	"\011M\\\332\007\227\010)A\334\365B1\224\216\242qiGD"
 188      07970829 
 188      41DCF542 
 188      31948EA2 
 188      71694744 
 189 0040 8566248A 		.ascii	"\205f$\212\212F\032\214K&$5\326\332\247u+'\231\263o"
 189      8A461A8C 
 189      4B262435 
 189      D6DAA775 
 189      2B2799B3 
 190 0055 EBB7D6B7 		.ascii	"\353\267\326\267\327Zgl\005%O\235\255T\025\217\313\370"
 190      D75A676C 
 190      05254F9D 
 190      AD54158F 
 190      CBF8
 191 0067 878082D5 		.ascii	"\207\200\202\325\222U\252!hYn\317|\245\3034\264P\351"
 191      9255AA21 
 191      68596ECF 
 191      7CA5C334 
 191      B450E9
 192 007a 0891EBCD 		.ascii	"\010\221\353\315U:\350\230\267\355\277\341\372\246\316"
 192      553AE898 
 192      B7EDBFE1 
 192      FAA6CE
 193 0089 D4C40564 		.ascii	"\324\304\005d\242\203PI\213l\307E\022_\254\011\013\367"
 193      A2835049 
 193      8B6CC745 
 193      125FAC09 
 193      0BF7
 194 009b 0B77B687 		.ascii	"\013w\266\207\313\216k\335\250G\2747K\362\215\336\034"
 194      CB8E6BDD 
 194      A847BC37 
 194      4BF28DDE 
 194      1C
 195 00ac 8F942A5A 		.ascii	"\217\224*Z\012\213\023\250HH\350\343(c\313\207M\035"
 195      0A8B13A8 
 195      4848E8E3 
 195      2863CB87 
 195      4D1D
 196 00be 07E8B3E5 		.ascii	"\007\350\263\345\021`\3632?\270\377UL\226\026Jxyh\350"
 196      1160F332 
 196      3FB8FF55 
 196      4C96164A 
 196      787968E8 
 197 00d2 C833974A 		.ascii	"\3103\227J\240x\276\347\336\320\273h\3511\361\251\333"
 197      A078BEE7 
 197      DED0BB68 
 197      E931F1A9 
 197      DB
 198 00e3 56EB9047 		.ascii	"V\353\220G\204S \361y\022\011\234@B\361\226\302i\224"
 198      845320F1 
 198      7912099C 
 198      4042F196 
ARM GAS  C:\Users\info\AppData\Local\Temp\ccpdNS7R.s 			page 15


 198      C26994
 199 00f6 B2F54047 		.ascii	"\262\365@G\372\211M\013\014Y\350\27191E\346Vhb)8\343"
 199      FA894D0B 
 199      0C59E8B9 
 199      393145E6 
 199      56686229 
 200 010c 93BE1AD1 		.ascii	"\223\276\032\321\206\263\206\333\367pdG\230\312\014"
 200      86B386DB 
 200      F7706447 
 200      98CA0C
 201 011b 77E0F5FB 		.ascii	"w\340\365\373ag\222\333\335?CW\010xn\032\330n\300\341"
 201      616792DB 
 201      DD3F4357 
 201      08786E1A 
 201      D86EC0E1 
 202 012f 37838FC2 		.ascii	"7\203\217\302Ti\300S\335\317\273\002\223\340\243\376"
 202      5469C053 
 202      DDCFBB02 
 202      93E0A3FE 
 203 013f 886E8147 		.ascii	"\210n\201G6:\376\026k+t\242T\200\227\235\337wG\335&"
 203      363AFE16 
 203      6B2B74A2 
 203      5480979D 
 203      DF7747DD 
 204 0154 CD4F8964 		.ascii	"\315O\211d\211\275v\301\225z\265/\315\350b1\2453Wc7"
 204      89BD76C1 
 204      957AB52F 
 204      CDE86231 
 204      A5335763 
 205 0169 BEC7A290 		.ascii	"\276\307\242\220\2206\344\222\016D2\227\200\343\007"
 205      9036E492 
 205      0E443297 
 205      80E307
 206 0178 209E427C 		.ascii	" \236B|\350(\365\201y)K\336\262d\2441l\315\364\356\214"
 206      E828F581 
 206      79294BDE 
 206      B264A431 
 206      6CCDF4EE 
 207 018d 88C71485 		.ascii	"\210\307\024\2058Z:=\236\013$'\3646\255\343\036\271"
 207      385A3A3D 
 207      9E0B2427 
 207      F436ADE3 
 207      1EB9
 208 019f 458B03E1 		.ascii	"E\213\003\341<\222*Ev\212\234\024\261]\300\243\200z"
 208      3C922A45 
 208      768A9C14 
 208      B15DC0A3 
 208      807A
 209 01b1 81A65C6A 		.ascii	"\201\246\\j\356/\260}<\3755*\325q\240p\001\011\323O"
 209      EE2FB07D 
 209      3CFD352A 
 209      D571A070 
 209      0109D34F 
 210 01c5 798BD4D0 		.ascii	"y\213\324\320Bz\215\246\314\343,|cG\3525|t\314i\305"
 210      427A8DA6 
 210      CCE32C7C 
 210      6347EA35 
ARM GAS  C:\Users\info\AppData\Local\Temp\ccpdNS7R.s 			page 16


 210      7C74CC69 
 211 01da AE06BE56 		.ascii	"\256\006\276V\246\220e*\310\255B\202\240\033\255\020"
 211      A690652A 
 211      C8AD4282 
 211      A01BAD10 
 212 01ea 93C1D62B 		.ascii	"\223\301\326+\256\370S\020\367}\343\271QL\021\037b\014"
 212      AEF85310 
 212      F77DE3B9 
 212      514C111F 
 212      620C
 213 01fc E02207D1 		.ascii	"\340\"\007\321$\211\300%\237\031<|&;\311\204y\331\330"
 213      2489C025 
 213      9F193C7C 
 213      263BC984 
 213      79D9D8
 214 020f FCE45870 		.ascii	"\374\344Xp\212yj\230\313\2061IL3c$\332*?\223F\321\020"
 214      8A796A98 
 214      CB863149 
 214      4C336324 
 214      DA2A3F93 
 215 0226 177D7238 		.ascii	"\027}r8\306rsY\222\245\232\226\222P\221S\247p\305O\211"
 215      C6727359 
 215      92A59A96 
 215      92509153 
 215      A770C54F 
 216 023b 476136F7 		.ascii	"Ga6\3672\317b\377\266\236Q\264\244\015\256\372\326r"
 216      32CF62FF 
 216      B69E51B4 
 216      A40DAEFA 
 216      D672
 217 024d 2DAFEF41 		.ascii	"-\257\357A@$FL7\244\276\365~\212\261\365>c\035i\346"
 217      4024464C 
 217      37A4BEF5 
 217      7E8AB1F5 
 217      3E631D69 
 218 0262 2695EDBB 		.ascii	"&\225\355\273\373O\257k\303\301\206\026\263\035\305"
 218      FB4FAF6B 
 218      C3C18616 
 218      B31DC5
 219 0271 35FE787A 		.ascii	"5\376xz$\247|V|\333u.\344#z/\304\321u\264\231\334*\364"
 219      24A77C56 
 219      7CDB752E 
 219      E4237A2F 
 219      C4D175B4 
 220 0289 22E951CC 		.ascii	"\"\351Q\314\334\312\371\363V02?\375\357V3\213\234\006"
 220      DCCAF9F3 
 220      5630323F 
 220      FDEF5633 
 220      8B9C06
 221 029c 85CC749D 		.ascii	"\205\314t\235\361\177\350\2147s\177N\3279\013}\254\363"
 221      F17FE88C 
 221      37737F4E 
 221      D7390B7D 
 221      ACF3
 222 02ae C65F3AE7 		.ascii	"\306_:\347\210\217\233?%\336\022\211\263\215DW\355\342"
 222      888F9B3F 
 222      25DE1289 
ARM GAS  C:\Users\info\AppData\Local\Temp\ccpdNS7R.s 			page 17


 222      B38D4457 
 222      EDE2
 223 02c0 16148DA6 		.ascii	"\026\024\215\246\366o\321\030\347\350R\224\217\220r"
 223      F66FD118 
 223      E7E85294 
 223      8F9072
 224 02cf 766F1DE8 		.ascii	"vo\035\350\014\373\345\004n#am\377\262\361wi\374\247"
 224      0CFBE504 
 224      6E23616D 
 224      FFB2F177 
 224      69FCA7
 225 02e2 857E2468 		.ascii	"\205~$h\240\260E\216\235\361\302\032\031mis\210o.\324"
 225      A0B0458E 
 225      9DF1C21A 
 225      196D6973 
 225      886F2ED4 
 226 02f6 BCF2F2E5 		.ascii	"\274\362\362\345\233\253j\027U\327\324\327\325\360l"
 226      9BAB6A17 
 226      55D7D4D7 
 226      D5F06C
 227 0305 4B55F5AA 		.ascii	"KU\365\252\352\3725\225\225\025U\3455\312\226\015Z_"
 227      EAFA3595 
 227      951555E5 
 227      35CA960D 
 227      5A5F
 228 0317 5F1B5859 		.ascii	"_\033XYW[\275v\303&3n\334T\367\003\324\265\223\030"
 228      575BBD76 
 228      C326336E 
 228      DC54F703 
 228      D4B59318 
 229              		.text
 230              		.section	.gnu.lto_u8x8_d_sh1108_160x160_noname_init_seq.792a4d43,"",%progbits
 231 0000 789C4D93 		.ascii	"x\234M\223iOSA\024\206\357ta+\213\373Z\367}\371\240"
 231      694F5341 
 231      1486EF74 
 231      612B8BFB 
 231      5AF77DF9 
 232 0015 1813FE82 		.ascii	"\030\023\376\202\177\310o&\240-a\211\246 \011\211B@"
 232      7FC86F26 
 232      A02D6189 
 232      A6200989 
 232      4240
 233 0027 2C968294 		.ascii	",\226\202\224\202\330\215\242\005\004d\247P\226J\241"
 233      82D88DA2 
 233      050464A7 
 233      50964AA1 
 234 0037 95AD8500 		.ascii	"\225\255\205\000AZA\201\202\357\33491m\362\244}\362"
 234      415A4181 
 234      82EFDC39 
 234      316DF2A4 
 234      7DF2
 235 0049 9E3B9D39 		.ascii	"\236;\2359g\256Jb\022\377<UK\364K\222\342\012\326\244"
 235      67AE4A62 
 235      12FF3C55 
 235      4BF44B92 
 235      E20AD6A4 
 236 005d 5F34A7C4 		.ascii	"_4\247\304\024z\245\304\016\031\\Wi\030Qpg\354>4V>\350"
ARM GAS  C:\Users\info\AppData\Local\Temp\ccpdNS7R.s 			page 18


 236      147AA5C4 
 236      0E195C57 
 236      69185170 
 236      67EC3E34 
 237 0074 CF12F159 		.ascii	"\317\022\361Yho42\236*\322{PS\325\270/]\244\037\370"
 237      686F3432 
 237      9E2AD27B 
 237      5053D5B8 
 237      2F5DA41F 
 238 0089 C3266F59 		.ascii	"\303&oYq\226\210\357B\027L\007\345I\">\011\335u\316"
 238      719688EF 
 238      42174C07 
 238      E549223E 
 238      09DD75CE 
 239 009d D6A8447A 		.ascii	"\326\250Dz\007Z\334\022\255U\213\324\310\037~\033\235"
 239      075ADC12 
 239      AD558BD4 
 239      C81F7E1B 
 239      9D
 240 00ae 5DA1B56F 		.ascii	"]\241\265oCk\355\376'\302n\301\254n\335z\246(\366\360"
 240      436BEDFE 
 240      27C26EC1 
 240      AC6EDD7A 
 240      A628F6F0 
 241 00c2 E26D43DE 		.ascii	"\342mC\336K\245\210oB\347<\303\323IBo@\343A\203!YTW"
 241      4BA5886F 
 241      42E73CC3 
 241      D349426F 
 241      40E34183 
 242 00da F3EA3F6E 		.ascii	"\363\352?no\015\035\352:t\336\272\035\240\207\257A\203"
 242      6F0D1DEA 
 242      3A74DEBA 
 242      1DA087AF 
 242      4183
 243 00ec BE708552 		.ascii	"\276p\205RT?\206\226\276\262\227R\361U\350\357\277E"
 243      543F8696 
 243      BEB29752 
 243      F155E8EF 
 243      BF45
 244 00fe 1BA9223D 		.ascii	"\033\251\"=\005-\230Y\213\245\213\364\012t\315a\364"
 244      052D9859 
 244      8BA58BF4 
 244      0A74CD61 
 244      F4
 245 010f 6B441AE0 		.ascii	"kD\032\340\377\364k\350\315B\246\210/C_\033-\316\014"
 245      FFF46BE8 
 245      CD42A688 
 245      2F435F1B 
 245      2DCE0C
 246 0122 A197A0AE 		.ascii	"\241\227\240\256\027\015V\322\213\320\232\310P\237Z"
 246      170D56D2 
 246      8BD09AC8 
 246      509F5A
 247 0131 E80568D5 		.ascii	"\350\005h\325^\3133\261\324\014_\312\321\276\236-B-"
 247      5ECB33B1 
 247      D40C5FCA 
 247      D1BE9E2D 
ARM GAS  C:\Users\info\AppData\Local\Temp\ccpdNS7R.s 			page 19


 247      422D
 248 0143 ACAEBBD3 		.ascii	"\254\256\273\323\316\204\236Ol\226$7+\034~WF\273:\227"
 248      CE849E4F 
 248      6C962437 
 248      2B1C7E57 
 248      46BB3A97 
 249 0157 3835264F 		.ascii	"85&O\255\301\227\037\244\031\373\371\312\033\272\245"
 249      ADC1971F 
 249      A419FBF9 
 249      CA1BBAA5 
 250 0167 9046C467 		.ascii	"\220F\304g\240\321r}a\212\320\323\3206\273\273\207\346"
 250      A0D1727D 
 250      618AD0D3 
 250      D036BBBB 
 250      87E6
 251 0179 F220F1FC 		.ascii	"\362 \361\374L>\377\377\2312y\246\266\345\276\2364Q"
 251      4C3EFFFF 
 251      993279A6 
 251      B6E5BE9E 
 251      3451
 252 018b 9C2B9F7F 		.ascii	"\234+\237\177\277\322N\325'\370F\234\371\273\324\216"
 252      BFD24ED5 
 252      27F8469C 
 252      F9BBD48E 
 253 019b E3FCFC25 		.ascii	"\343\374\374%\005\355\264\221F^\335\034\332w\323\215"
 253      05EDB491 
 253      465EDD1C 
 253      DA77D38D 
 254 01ab 38C67BDB 		.ascii	"8\306{\333;7Ag<\232\330<In\336\330\346`%\355\372\010"
 254      3B374167 
 254      3C9AD83C 
 254      496EDED8 
 254      E66025ED 
 255 01c1 D4B215B3 		.ascii	"\324\262\025\263\320F\262\370\256\315Ma\272ky|\351x"
 255      D046B2F8 
 255      AECD4D61 
 255      BA6B797C 
 255      E978
 256 01d3 20EF80A6 		.ascii	" \357\200\246\230\011}\277\352\354\242Vg$\216I\222\307"
 256      98097DBF 
 256      EAECA256 
 256      67248E49 
 256      92C7
 257 01e5 B41729F3 		.ascii	"\264\027)\363\323\037\247C\247\374:'\251\006\332\271"
 257      D31FA743 
 257      A7FC3A27 
 257      A906DAB9 
 258 01f5 6535D12D 		.ascii	"e5\321-W\362\2257G\343\324\3534\336\\[\255\213\212S"
 258      57F29537 
 258      47E3D4EB 
 258      34DE5C5B 
 258      AD8B8A53 
 259 0209 F9110BED 		.ascii	"\371\021\013\355E*Ql\346\373\210\025\351w\350\256%C"
 259      452A516C 
 259      E6FB8815 
 259      E977E8AE 
 259      2543
ARM GAS  C:\Users\info\AppData\Local\Temp\ccpdNS7R.s 			page 20


 260 021b 9FB7F94B 		.ascii	"\237\267\371K\350}\012\361\327oq\257\321E\015J\202\366"
 260      E87D0AF1 
 260      D76F71AF 
 260      D1450D4A 
 260      82F6
 261 022d 195DFBB4 		.ascii	"\031]\373\264\266\032j\336h\365*D\365\004_\314\253\263"
 261      B61A6ADE 
 261      68F52A44 
 261      F5045FCC 
 261      ABB3
 262 023f 56D062AA 		.ascii	"V\320b\252\304\2151yc\375\315\223\035\324]\013\257\356"
 262      C48D3179 
 262      63FDCD93 
 262      1DD45D0B 
 262      AFEE
 263 0251 3EDCF1D0 		.ascii	">\334\361\320-P$N]\222\247\356\250\017\016(sl\271\005"
 263      2D50244E 
 263      5D92A7EE 
 263      A80F0E28 
 263      736CB905 
 264 0265 D5B9A31A 		.ascii	"\325\271\243\032\275R\301\036j\331\012\323\262l-f\243"
 264      BD52C11E 
 264      6AD90AD3 
 264      B26C2D66 
 264      A3
 265 0276 65111006 		.ascii	"e\021\020\006\313L\370\022X\004\013\300\005\346\301"
 265      CB4CF812 
 265      58040BC0 
 265      05E6C1
 266 0285 4F10A2FC 		.ascii	"O\020\242\374\221\226\005\3615G\361,\010\200\031\212"
 266      919605F1 
 266      3547F12C 
 266      0880198A 
 267 0295 7F003F98 		.ascii	"\177\000?\230&\237\002\223`\202\352}`\034\214Q\356\005"
 267      269F0293 
 267      6082EA7D 
 267      601C8C51 
 267      EE05
 268 02a7 A36084F2 		.ascii	"\243`\204\362a0\004\006)\037\000\375\240\217\374;\350"
 268      61300406 
 268      291F00FD 
 268      A08FFC3B 
 268      E8
 269 02b8 053D54DF 		.ascii	"\005=T\337\015\276\201.\312;A\007\360P\376\0258\300"
 269      0DBE812E 
 269      CA3B4107 
 269      F050FE15 
 269      38C0
 270 02ca 17CADB81 		.ascii	"\027\312\333\201\033\264Q\356\244\334N\271\015|\006"
 270      1BB451EE 
 270      A4DC4EB9 
 270      0D7C06
 271 02d9 ADE49F40 		.ascii	"\255\344\237@\013h&\267\202&`!\377\010\032@=0\203:`"
 271      0B6826B7 
 271      82266021 
 271      FF081A40 
 271      3D30833A 
ARM GAS  C:\Users\info\AppData\Local\Temp\ccpdNS7R.s 			page 21


 272 02ee 625A89AD 		.ascii	"bZ\211\255\262\034\351\037Gi\333}"
 272      B21CE91F 
 272      4769DB7D 
 273              		.text
 274              		.section	.gnu.lto_u8x8_sh1108_160x160_noname_display_info.792a4d43,"",%progbits
 275 0000 789C2DCC 		.ascii	"x\234-\314\315JBA\030\306\361yf\316\311\217<\371A\313"
 275      CD4A4241 
 275      18C6F179 
 275      66CEC98F 
 275      3CF941CB 
 276 0014 2EA04B70 		.ascii	".\240Kp\341\005tUr\240,w\212\0137*\010-\372\326\323"
 276      E1057455 
 276      72A02C77 
 276      8A0B372A 
 276      082DFAD6 
 277 0029 4194B611 		.ascii	"A\224\266\021\005\356\244\265J\340Fh\023J*\2518O\257"
 277      05EEA4B5 
 277      4AE04668 
 277      134A2AA9 
 277      384FAF
 278 003c B3F9CD9F 		.ascii	"\263\371\315\237y\337q\024\024\317\231EnJm46\343r92"
 278      79DF7114 
 278      14CF9945 
 278      6E4A6D34 
 278      36E37239 
 279 0051 D705A3D0 		.ascii	"\327\005\243\320\204\355\366\367\313\312c\003|\376Y"
 279      84EDF6F7 
 279      CBCA6303 
 279      7CFE59
 280 0060 377A31C9 		.ascii	"7z1\311c\233\253E}\341JV9]\233\015\247\373\347S\233"
 280      639BAB45 
 280      7DE14A56 
 280      395D9B0D 
 280      A7FBE753 
 281 0075 838BA06E 		.ascii	"\203\213\240n$\035\233\3030l\374Ok\370\2259\347\373"
 281      241D9BC3 
 281      306CFC4F 
 281      6BF89539 
 281      E7FB
 282 0087 D7BFAFFB 		.ascii	"\327\277\257\373\375\011\277/~]}\306\245\227\354\322"
 282      FD09BF2F 
 282      7E5D7DC6 
 282      A597ECD2 
 283 0097 F9282F99 		.ascii	"\371(/\231\263\325y\373\270\214Jr\371\275_\375\363\262"
 283      B3D579FB 
 283      B88C4A72 
 283      F9BD5FFD 
 283      F3B2
 284 00a9 5DBFD8F4 		.ascii	"]\277\330\364\003\267`\314V+\334\342d\253\201g\242\021"
 284      03B760CC 
 284      562BDCE2 
 284      64AB8167 
 284      A211
 285 00bb 10833671 		.ascii	"\020\2036q\320\"\256p D\204(\236HL\326\343x$\207x \011"
 285      D022AE70 
 285      20448428 
 285      9E484CD6 
ARM GAS  C:\Users\info\AppData\Local\Temp\ccpdNS7R.s 			page 22


 285      E3782487 
 286 00d2 DC130F77 		.ascii	"\334\023\017w\344HH\312dJH\343\206d\210B\210\254\332"
 286      E44848CA 
 286      644A48E3 
 286      86648842 
 286      88ACDA
 287 00e5 0151D16E 		.ascii	"\001Q\321n\270"
 287      B8
 288              		.text
 289              		.section	.gnu.lto_.symbol_nodes.792a4d43,"",%progbits
 290 0000 789C55D0 		.ascii	"x\234U\320;n\0021\024\205\341s}\3070\357\221\250S\300"
 290      3B6E0231 
 290      1485E173 
 290      7DC730EF 
 290      91A853C0 
 291 0014 76B2946C 		.ascii	"v\262\224l\342\272\260\022\011\232\210\024\221\350@"
 291      E2BAB012 
 291      099A8814 
 291      91E840
 292 0023 6E42C71E 		.ascii	"nB\307\036F\251\222\254!\005J\207\330\001\302\017\220"
 292      46A992AC 
 292      21054A87 
 292      D801C20F 
 292      90
 293 0034 E2EAD3AF 		.ascii	"\342\352\323\2579\327\305\024 <\021\000U\010\360\372"
 293      39D7C514 
 293      203C1100 
 293      5508F0FA 
 294 0044 03783ECC 		.ascii	"\003x>\314\3260\240\0013\003X\023%\225J2G\325T\350~"
 294      D630A001 
 294      33035813 
 294      25954A32 
 294      47D554E8 
 295 0059 B2370B7F 		.ascii	"\2627\013\177\240\2134\230\350(\365\242\342\300?d\346"
 295      A08B3498 
 295      E828F5A2 
 295      E2C03F64 
 295      E6
 296 006a 000DC259 		.ascii	"\000\015\302YwRd\335\212\316\272\221I\326\225L\263\256"
 296      775264DD 
 296      8ACEBA91 
 296      49D6954C 
 296      B3AE
 297 007c A5CCBA94 		.ascii	"\245\314\272\224\352\1773:\330C\037p\011\373\374G\321"
 297      EA7F333A 
 297      D8431F70 
 297      09FBFC47 
 297      D1
 298 008d 97600BB7 		.ascii	"\227`\013\267\374bF\2031Z\343\030-aW\301\026\343*}\267"
 298      FC624683 
 298      315AE318 
 298      2D6157C1 
 298      16E32A7D 
 299 00a2 EBDBEEE6 		.ascii	"\353\333\356\346q\235\366\356-X\301\275\237\037\303"
 299      719DF6EE 
 299      2D58C1BD 
 299      9F1FC3
ARM GAS  C:\Users\info\AppData\Local\Temp\ccpdNS7R.s 			page 23


 300 00b1 9DDBF8F6 		.ascii	"\235\333\370\366\377m\367{!\326\003\334\351\201u\207"
 300      FF6DF77B 
 300      21D603DC 
 300      E9817587 
 301 00c1 31D0C37E 		.ascii	"1\320\303~~3\256=\011K\350"
 301      7E33AE3D 
 301      094BE8
 302              		.text
 303              		.section	.gnu.lto_.refs.792a4d43,"",%progbits
 304 0000 789C6361 		.ascii	"x\234ca`d\020g```a`bdabbeb\346`b\341\001\322llL\354"
 304      60641067 
 304      60606061 
 304      60626461 
 304      62626562 
 305 001e 1C0C0006 		.ascii	"\034\014\000\006\304\000v"
 305      C40076
 306              		.text
 307              		.section	.gnu.lto_.decls.792a4d43,"",%progbits
 308 0000 789CBD58 		.ascii	"x\234\275X{PTYz\357\323\247\201\246iP\021g\255\015\311"
 308      7B505459 
 308      7AEFD3A7 
 308      81A66950 
 308      1167AD0D 
 309 0015 9A915152 		.ascii	"\232\221QR\231qE'SV*\225\232\251I6\223\255TjS\2733\251"
 309      99714527 
 309      53562A95 
 309      9AA94936 
 309      93AD546A 
 310 002d DA22D569 		.ascii	"\332\"\325i\241\301\336\201\246\207n\034\235\332?.\202"
 310      A1C1DE81 
 310      A6876E1C 
 310      9DDA3F2E 
 310      82
 311 003e A8ED88C0 		.ascii	"\250\355\210\300(\362\320\341\251\340 \312CA\005\244"
 311      28F2D0E1 
 311      A9E020CA 
 311      434105A4 
 312 004e 838F5541 		.ascii	"\203\217UAD\004\024\001A\024E\035\220\207\212\210@\276"
 312      44041401 
 312      4114451D 
 312      90878A88 
 312      40BE
 313 0060 F3B87D6F 		.ascii	"\363\270}o\303e&[\265\233\326\217{\277s~\347;\277\357"
 313      C365265B 
 313      B59BD68F 
 313      7BBF737E 
 313      E73BBFEF 
 314 0074 3BDF79DC 		.ascii	";\337y\334\243Q!\025\371\355^\241R\275\353\251R\375"
 314      A3512115 
 314      F9ED5EA1 
 314      52BDEBA9 
 314      52FD
 315 0086 0356A966 		.ascii	"\003V\251f\341\347\015e\237\251\244\237\016\344#\200"
 315      E1E70D65 
 315      9FA9A49F 
 315      0EE42380 
 316 0096 7E0CF2AF 		.ascii	"~\014\362\257 \377\001\362\237 \277\005\371/\220\215"
ARM GAS  C:\Users\info\AppData\Local\Temp\ccpdNS7R.s 			page 24


 316      20FF01F2 
 316      9F20BF05 
 316      F92F908D 
 317 00a6 2091209F 		.ascii	" \221 \237\203\200\031\325\027\360\264\201|\005\362"
 317      838019D5 
 317      17F0B481 
 317      7C05F2
 318 00b5 7B904490 		.ascii	"{\220D\220$\244r\373\021{\177\001\317\012\020\177\220"
 318      24A472FB 
 318      117B7F01 
 318      CF0A107F 
 318      90
 319 00c6 00909F41 		.ascii	"\000\220\237A\331\247\360\3747x.\007\011\344<v\300\373"
 319      D9A7F0FC 
 319      37782E07 
 319      09E43C76 
 319      C0FB
 320 00d8 4E102B88 		.ascii	"N\020+\210\021d\027\310V\220\025 ?\001i\003\214\003"
 320      116417C8 
 320      56901520 
 320      3F016903 
 320      8C03
 321 00ea 9E9F80EC 		.ascii	"\236\237\200\354\006\371\014$\033$\013\344WPw\220<A"
 321      06F90C24 
 321      1B240BE4 
 321      57507790 
 321      3C41
 322 00fc B4F0FE8F 		.ascii	"\264\360\376\217\360\324\201\274\013\342\001\222\006"
 322      F0D481BC 
 322      0BE20192 
 322      06
 323 0109 B21F641F 		.ascii	"\262\037d\037H:\210\027\347\266\221\373\366[\356\253"
 323      483A8817 
 323      E7B691FB 
 323      F65BEEAB 
 324 0119 E83789CD 		.ascii	"\3507\211\315!x~\013\222\003\222\013\222\207\346\373"
 324      21787E0B 
 324      9203920B 
 324      9287E6FB 
 325 0129 2CFF913A 		.ascii	",\377\221:\010-\365\207\370i\235S/\377\331\376\010\354"
 325      082DF587 
 325      F8699D53 
 325      2FFFD9FE 
 325      08EC
 326 013b 5773B05B 		.ascii	"Ws\260[\177\000\373\373?\002K\306y\251JylH\373u\360"
 326      7F00FBFB 
 326      3F024BC6 
 326      79A94A79 
 326      6C48FB75 
 327 0150 BE1EB1B1 		.ascii	"\276\036\261\261\311\207\347\357\020\033\243\002\220"
 327      C987E7EF 
 327      101BA302 
 327      90
 328 015d 043E4685 		.ascii	"\004>F\205|\014\311\370D\360\276<\270\355\217x\256\210"
 328      7C0CC9F8 
 328      44F0BE3C 
 328      B8ED8F78 
ARM GAS  C:\Users\info\AppData\Local\Temp\ccpdNS7R.s 			page 25


 328      AE88
 329 016f 7943CA0F 		.ascii	"yC\312\017\303\363\010H\321\002\371\2228\207\177\302"
 329      C3F30848 
 329      D102F992 
 329      38877FC2 
 330 017f 0FF0276D 		.ascii	"\017\360'm5\360\\\305\361\253U\214\007\361\311\223\324"
 330      35F05CC5 
 330      F1AB558C 
 330      07F1C993 
 330      D4
 331 0190 81A8C958 		.ascii	"\201\250\311X\223\234\000Y\0142\013u\230`@\364 >d\254"
 331      939C0059 
 331      0C320B75 
 331      986040F4 
 331      203E64AC 
 332 01a4 417C4196 		.ascii	"A|A\226\220\276x\336\220\234A ~\013\364?\255F\011\375"
 332      90BE78DE 
 332      909C4120 
 332      7E0BF43F 
 332      AD4609FD 
 333 01b8 4F72B55D 		.ascii	"Or\265]\250\023`\210\376T|\236\221\206\210?U\334\016"
 333      A8136088 
 333      FE547C9E 
 333      9186883F 
 333      55DC0E
 334 01cb FC55AB98 		.ascii	"\374U\253\230y\216r\031F\364\037\374WS<\222U\270\341"
 334      798E7219 
 334      46F41FFC 
 334      57533C92 
 334      55B8E1
 335 01de E89CA53F 		.ascii	"\350\234\245?\251\010\271~\"\022\271\033E4\002\242\012"
 335      A908B97E 
 335      2212B91B 
 335      453402A2 
 335      0A
 336 01ef BA5A6A20 		.ascii	"\272Zj \263\307\331\363\376\221\274[j\032\213N\217\367"
 336      B3C7D9F3 
 336      FE91BC5B 
 336      6A1A8B4E 
 336      8FF7
 337 0201 DE1BD363 		.ascii	"\336\033\323c\260\011\357\275\223\305\277XsL\200_\212"
 337      B009EFBD 
 337      93C5BF58 
 337      734C805F 
 337      8A
 338 0212 20A83748 		.ascii	" \2507H\2219~l\252L\247\001\177\321\247z\264QC\212N"
 338      91397E6C 
 338      AA4CA701 
 338      7FD1A77A 
 338      B451438A 
 339 0227 6C7F7054 		.ascii	"l\177pT\373\\\215\002uh\026\021\375\3733\223\276L'\325"
 339      FB5C8D02 
 339      75681611 
 339      FDFB3393 
 339      BE4C27D5 
 340 023b 279DE3A5 		.ascii	"'\235\343\245\032\374\327\344]}\243\262\363\2427\012"
 340      1AFCD7E4 
ARM GAS  C:\Users\info\AppData\Local\Temp\ccpdNS7R.s 			page 26


 340      5D7DA3B2 
 340      F3A2370A 
 341 024b D61D2196 		.ascii	"\326\035!\226\373\252_|\224 \010\010\235@:T\2120:\212"
 341      FBAA5F7C 
 341      94200808 
 341      9D403A54 
 341      8A303A8A 
 342 025f D6105281 		.ascii	"\326\020R\201d\261\332)\010\333\204\221|\301s\271\012"
 342      64B1DA29 
 342      08DB8491 
 342      7CC173B9 
 342      0A
 343 0270 AD0F446B 		.ascii	"\255\017Dk\003U\3508\012&6\011\012\035C\201\250\004"
 343      0355E838 
 343      0A263609 
 343      0A1D4381 
 343      A804
 344 0282 0512FB47 		.ascii	"\005\022\373Gs\212/\370\342\343\210v0\264\357\351N\354"
 344      738A2FF8 
 344      E2E38876 
 344      30B4EFE9 
 344      4EEC
 345 0294 EAA06777 		.ascii	"\352\240gw`\211 ,F\025\320A\231\324\001\364\247\334"
 345      6089202C 
 345      4615D041 
 345      99D401F4 
 345      A7DC
 346 02a6 43B9720F 		.ascii	"C\271r\017]IE\215>\324gb\350;D\275n\277}\267\335\333"
 346      5D49458D 
 346      3ED46762 
 346      E83B44BD 
 346      6EBF7DB7 
 347 02bc 5558C90A 		.ascii	"UX\311\012o$\226\035\304\340\272\277\016i@\035\275\226"
 347      6F24961D 
 347      C4E0BABF 
 347      0E69401D 
 347      BD96
 348 02ce 75DF0FD4 		.ascii	"u\337\017\324\000\035Z\001j\366x\317coV\033\014\352"
 348      001D5A01 
 348      6AF678CF 
 348      636F561B 
 348      0CEA
 349 02e0 70E2409F 		.ascii	"p\342@\237\017\253]\016\2520\230\230\243\306\245,\376"
 349      0FAB5D0E 
 349      AA309898 
 349      A3C6A52C 
 349      FE
 350 02f1 AD234D87 		.ascii	"\255#M\207x\335bP\353\007S\353\265\270\226\325\265\024"
 350      78DD6250 
 350      EB0753EB 
 350      B5B896D5 
 350      B514
 351 0303 0DDDF2C3 		.ascii	"\015\335\362\303mL\031\314\255\257\320\342gL)~x0Y\317"
 351      6D4C19CC 
 351      ADAFD0E2 
 351      674C297E 
 351      783059CF 
ARM GAS  C:\Users\info\AppData\Local\Temp\ccpdNS7R.s 			page 27


 352 0317 5A6D9075 		.ascii	"Zm\220u\357\317\272\337\357L{\243\303S\014ZS]{\311\203"
 352      EFCFBADF 
 352      EF4C7BA3 
 352      C3530C5A 
 352      535D7BC9 
 353 032c 41D7827A 		.ascii	"A\327\202z\345L\377Z\234\204i\225H3\200\321|\331\330"
 353      E54CFF5A 
 353      9C846995 
 353      483380D1 
 353      7CD9D8
 354 033f D683F17E 		.ascii	"\326\203\361~V\267\267\241\356\274\026\3471\345R\367"
 354      56B7B7A1 
 354      EEBC16E7 
 354      31E552F7 
 355 034f 9D760D2E 		.ascii	"\235v\015.eJ|\335\371J_\334\300\224\213\263\023\316"
 355      654A7CDD 
 355      F94A5FDC 
 355      C0948BB3 
 355      13CE
 356 0361 45AC6735 		.ascii	"E\254g5\250\323\225\225\347\021ndu\207_O\215\220\030"
 356      A8D39595 
 356      E7116E64 
 356      75875F4F 
 356      8D9018
 357 0374 AD827499 		.ascii	"\255\202t\231\305\262|Y\305\362\245\276\361\312\021"
 357      C5B27C59 
 357      C5F2A5BE 
 357      F1CA11
 358 0383 3D6EA360 		.ascii	"=n\243`ukC\306\264\017\322\005\323\301\022\022\004]"
 358      756B43C6 
 358      B40FD205 
 358      D3C11212 
 358      045D
 359 0395 B00A9D85 		.ascii	"\260\012\235\205\221\271\014#\203\232a\270V\361\341"
 359      91B90C23 
 359      839A61B8 
 359      56F1E1
 360 03a4 6A84C2AB 		.ascii	"j\204\302\253P\3103k\350\2274\263\256\301\3204I\003"
 360      50C8336B 
 360      E89734B3 
 360      AEC1D034 
 360      4903
 361 03b6 BF4AC792 		.ascii	"\277J\307\222\370\\j\327C\035\356e]\024\336\027j4\013"
 361      F85C6AD7 
 361      431DEE65 
 361      5D14DE17 
 361      6A340B
 362 03c9 757163C1 		.ascii	"uqc\301.zv\257:Fr\253\005\272\270.uq\015\361>\304\321"
 362      2E7A76AF 
 362      3A4672AB 
 362      05BAB82E 
 362      75710DF1 
 363 03e0 F567A3FB 		.ascii	"\365g\243\373\320qtT\217\007Y\010\016\265\367\247x\353"
 363      D0717454 
 363      8F075908 
 363      0EB5F7A7 
 363      78EB
ARM GAS  C:\Users\info\AppData\Local\Temp\ccpdNS7R.s 			page 28


 364 03f2 7802A6FC 		.ascii	"x\002\246\374x\002f]\334\331\340\241w\020|J\202\340"
 364      7802665D 
 364      DCD9E0A1 
 364      77107C4A 
 364      82E0
 365 0404 FF096A83 		.ascii	"\377\011j\203N\253\240\376\024\324\253P;\322\363\331"
 365      4EABA0FE 
 365      14D4AB50 
 365      3BD2F3D9 
 366 0414 99F8A460 		.ascii	"\231\370\244`\010\341!\326K\317\345\243%$\320\253I\240"
 366      08E121D6 
 366      4BCFE5A3 
 366      2524D0AB 
 366      49A0
 367 0426 676717C9 		.ascii	"gg\027\311B\275\232\205\272u\357X\241\027\236`q(I}\332"
 367      42BD9A85 
 367      BA75EF58 
 367      A1179E60 
 367      7128497D 
 368 043b 2A9B9B87 		.ascii	"*\233\233\207\365g\210{]\320S\247\344\336j\327\314\241"
 368      F567887B 
 368      5DD053A7 
 368      E4DE6AD7 
 368      CCA1
 369 044d 44542E16 		.ascii	"DT.\026\350\016P_\315\251\337\206\302[|v\026\246\346"
 369      E80E505F 
 369      CDA9DF86 
 369      C25B7C76 
 369      16A6E6
 370 0460 7BE26D1A 		.ascii	"{\342m\032\332\305w\307\257_\362\022C=\327\300]\005"
 370      DAC577C7 
 370      AF5FF212 
 370      433DD7C0 
 370      5D05
 371 0472 0362A8DF 		.ascii	"\003b\250\337\247\241\356\001.\335\022\227.1\324\342"
 371      A7A1EE01 
 371      2EDD1297 
 371      2E31D4E2 
 372 0482 64F16793 		.ascii	"d\361g\223\245\277|\342{-\336M\273D;f{.h\361!\246$\026"
 372      A5BF7CE2 
 372      7B2DDE4D 
 372      BB443B66 
 372      7B2E68F1 
 373 049a EDC9F6C5 		.ascii	"\355\311\366\305G\231\222U\363\374\252\007k\245\005"
 373      47999255 
 373      F3FCAA07 
 373      6BA505
 374 04a9 353973AC 		.ascii	"59s\254\306\013\227\263\272\233\316\334lo|\232)\367"
 374      C60B97B3 
 374      BA9BCEDC 
 374      6C6F7C9A 
 374      29F7
 375 04bb 4F4E14FA 		.ascii	"ON\024\372\342\363L\271\367\254.\323\3135\355\331\002"
 375      E2F34CB9 
 375      F7AC2ED3 
 375      CB35EDD9 
 375      02
ARM GAS  C:\Users\info\AppData\Local\Temp\ccpdNS7R.s 			page 29


 376 04cc 78AA35A7 		.ascii	"x\2525\247\327\01372\300\353\353Sg\021\276\315\224\257"
 376      D70B3732 
 376      C0EBEB53 
 376      6711BECD 
 376      94AF
 377 04de 6F56ADC7 		.ascii	"oV\255\307\003\354\375X\373\355i\204G\231rmf\344\034"
 377      03ECFD58 
 377      FBED6984 
 377      4799726D 
 377      66E41C
 378 04f1 C6091E54 		.ascii	"\306\011\036T)\355K\272\351\201\3671\345\310\233\274"
 378      29ED4BBA 
 378      E981F731 
 378      E5C89BBC 
 379 0501 937A9CCB 		.ascii	"\223z\234\313\224K\023u\005\036\270\204)\216\335\337"
 379      944B1375 
 379      051EB884 
 379      298EDDDF 
 380 0511 E5F96127 		.ascii	"\345\371a'S\266\177]R\213\361M\246\264\364V\274\360"
 380      53B67F5D 
 380      528BF14D 
 380      A6B4F456 
 380      BCF0
 381 0523 C4834CE9 		.ascii	"\304\203L\351\275\233\372;<\312\336\237\266\265\246"
 381      BD9BFA3B 
 381      3CCADE9F 
 381      B6B5A6
 382 0532 7AE019A6 		.ascii	"z\340\031\246LW\354\250\321\340TO\252<\272<\371\334"
 382      4C57ECA8 
 382      D1E0544F 
 382      AA3CBA3C 
 382      F9DC
 383 0544 071730E5 		.ascii	"\007\0270\345u\303\2663\010W1\245\252a\262\311\0037"
 383      75C3B633 
 383      085731A5 
 383      AA61B2C9 
 383      0337
 384 0556 3265785B 		.ascii	"2ex[I!\302\017\230\322\262\177(]\215\247\231\362f\352"
 384      4921C20F 
 384      98D2B27F 
 384      285D8DA7 
 384      99F266EA 
 385 056a 9B780F9C 		.ascii	"\233x\017\234\342\305\346l\367\3401\037\234\317\224"
 385      E2C5E66C 
 385      F7E0311F 
 385      9CCF94
 386 0579 B2DAC421 		.ascii	"\262\332\304!\276\3529\311~P\274g\344\274\016\327\320"
 386      BEEA39C9 
 386      7E50BC67 
 386      E4BC0ED7 
 386      D0
 387 058a CA652325 		.ascii	"\312e#%\031m\236(h\316/8(hiP>\311\212\276\362\031k]"
 387      196D9E28 
 387      68CE2F38 
 387      28686950 
 387      3EC98ABE 
 388 05a2 55B72024 		.ascii	"U\267 $\351i\204_\300x\247\251\227\212\023\344\347$"
ARM GAS  C:\Users\info\AppData\Local\Temp\ccpdNS7R.s 			page 30


 388      E969845F 
 388      C078A7A9 
 388      978A13E4 
 388      E724
 389 05b4 DFFF8764 		.ascii	"\337\377\207d\275\212\302\235\265\255>B\331\177S\350"
 389      BD8AC29D 
 389      B5AD3E42 
 389      D97F53E8 
 390 05c4 903BB497 		.ascii	"\220;\264\227\316\215\365\022t<\315/Cpn\303t\312>\341"
 390      CE8DF512 
 390      743CCD2F 
 390      43706EC3 
 390      74CA3EE1 
 391 05d8 60D74C67 		.ascii	"`\327Lg\360*\231\351\314\353\276\007\004g<\246\306'"
 391      F02A99E9 
 391      CCEBBE07 
 391      04673CA6 
 391      C627
 392 05ea 15789C95 		.ascii	"\025x\234\225\201\333\256\273x<W\200\236\223A\367I\320"
 392      81DBAEBB 
 392      783C5780 
 392      9E9341F7 
 392      49D0
 393 05fc D70A5019 		.ascii	"\327\012P\031\343V\311\271\247J\316\235\226YM\223\254"
 393      E356C9B9 
 393      A74ACE9D 
 393      96594D93 
 393      AC
 394 060d 4E29580D 		.ascii	"N)X\015\221\220Y\022\362\225\002Rn\364\240\004\235P"
 394      91905912 
 394      F2950252 
 394      6EF4A004 
 394      9D50
 395 061f 80CAA355 		.ascii	"\200\312\243U&q\035q\207\336Gs\007\255E\302~\257\344"
 395      26711D71 
 395      87DE4773 
 395      07AD45C2 
 395      7EAFE4
 396 0632 973CB0FB 		.ascii	"\227<\260\373$\354\250\222\335\3632\354\214DwL\011+"
 396      24ECA892 
 396      DDF332EC 
 396      8C44774C 
 396      092B
 397 0644 E77B52B2 		.ascii	"\347{R\262\373L\011+\037\261\027\362\314\231Q\316\034"
 397      FB4C092B 
 397      1FB117F2 
 397      CC9951CE 
 397      1C
 398 0655 E61F5DB0 		.ascii	"\346\037]\260\234S\311zA\320\022\224\212/V*\227\255"
 398      9C53C97A 
 398      41D01294 
 398      8A2F562A 
 398      97AD
 399 0667 1C7956BD 		.ascii	"\034yV\275T\010\252\334\241\263\022\311a\245@\321QM"
 399      5408AADC 
 399      A1B312C9 
 399      61A540D1 
ARM GAS  C:\Users\info\AppData\Local\Temp\ccpdNS7R.s 			page 31


 399      514D
 400 0679 E5C73401 		.ascii	"\345\3074\001\316 h\032X\265\022Vo8\036\372G{\325\301"
 400      CE20681A 
 400      58B51256 
 400      6F381EFA 
 400      477BD5C1 
 401 068d 28491D84 		.ascii	"(I\035\204\022A\266\201\354\000\331\011\222\0022\213"
 401      1241B681 
 401      EC00D909 
 401      9202328B 
 402 069d 8250023C 		.ascii	"\202P\002<\277\001\371\032d7\310.\220= \251 \002\210"
 402      BF01F91A 
 402      6437C82E 
 402      903D20A9 
 402      200288
 403 06b0 03643B48 		.ascii	"\003d;H<H\262:H\346M\327^\277L\301\231\210\351\332<"
 403      3C48B23A 
 403      48E64DD7 
 403      5EBF4CC1 
 403      9988E9DA 
 404 06c5 CEBB742D 		.ascii	"\316\273t-\351\367%\222\260\016t\356\315\316\\\204{"
 404      E9F72592 
 404      B00E74EE 
 404      CDCE5C84 
 404      7B
 405 06d6 E83AA07E 		.ascii	"\350:\240~\261\247\341\003\2644X\231{:\360\375srg\243"
 405      B1A7E103 
 405      B4345899 
 405      7B3AF0FD 
 405      737267A3 
 406 06ea 94D9FC2E 		.ascii	"\224\331\374.\031\245\375\320\321>\265kW!\203F\351\236"
 406      19A5FDD0 
 406      D13EB56B 
 406      57218346 
 406      E99E
 407 06fc EC3FF2CC 		.ascii	"\354?\362\314k)'\350\\\220\240\352O\316\216\254\247"
 407      6B2927E8 
 407      5C90A0EA 
 407      4FCE8EAC 
 407      A7
 408 070d 1D893B7C 		.ascii	"\035\211;|\344\033\376\001YXU(C-n\370\023\245\217\272"
 408      E41BFE01 
 408      59585528 
 408      432D6EF8 
 408      13A58FBA 
 409 0721 3DF0A897 		.ascii	"=\360\250\227\333\231\316\237\235\351N\326\215\036\346"
 409      DB99CE9F 
 409      9DE94ED6 
 409      8D1EE6
 410 0730 E738819C 		.ascii	"\3478\201\234\263\006\007\262/\351\3604_\261o\236hZ"
 410      B30607B2 
 410      2FE9F034 
 410      5FB16F9E 
 410      685A
 411 0742 8453B544 		.ascii	"\204S\265DY\331\345\250\217GH\243_\012\253\260\333O"
 411      59D9E5A8 
 411      8F4748A3 
ARM GAS  C:\Users\info\AppData\Local\Temp\ccpdNS7R.s 			page 32


 411      5F0AABB0 
 411      DB4F
 412 0754 AF5FAE09 		.ascii	"\257_\256\011\346/\301A\301\301d\337\313Q\353\321#\210"
 412      E62FC141 
 412      C1C164DF 
 412      CB51EBD1 
 412      2388
 413 0766 868C5DAE 		.ascii	"\206\214]\256\033\273\034\306\316mh\263\325\201(K\015"
 413      1BBB1CC6 
 413      CE6D68B3 
 413      D581284B 
 413      0D
 414 0777 917342E4 		.ascii	"\221sB\344\362\371\320\326\303\3739p\374\014\310i\220"
 414      F2F9D0D6 
 414      C3FB3970 
 414      FC0CC869 
 414      90
 415 0788 6A902A90 		.ascii	"j\220*\2202\220\023 \307AJA\216\201\224\200|\007r\024"
 415      32901320 
 415      C7414A41 
 415      8E819480 
 415      7C077214 
 416 079c A418A408 		.ascii	"\244\030\244\010\344\010\310a\220B\220\002\220<\267"
 416      E408C861 
 416      90429002 
 416      903CB7
 417 07ab D49CEA90 		.ascii	"\324\234\352\220M\264\2030\300\371\322\354\251\226-"
 417      4DB48330 
 417      C0F9D2EC 
 417      A9962D
 418 07ba 07CA3C33 		.ascii	"\007\312<3y\203??\317W\035\2569\016\233\360|\226\362"
 418      79833F3F 
 418      CF571DAE 
 418      390E9BF0 
 418      7C96F2
 419 07cd F5F8A5   		.ascii	"\365\370\245"
 420 07d0 84AD51C2 		.ascii	"\204\255Q\302\312\027\316\347\022\266V\011+\333g\306"
 420      CA17CEE7 
 420      12B65609 
 420      2BDB67C6 
 421 07e0 24689D12 		.ascii	"$h\235\022T\266y\214HP\247;\264~\336\262yW\3026(a\345"
 421      54B6798C 
 421      4850A73B 
 421      B47EDEB2 
 421      7957C236 
 422 07f7 5B42B784 		.ascii	"[B\267\204\275\240\204\225\257\212\035\022\366\242\022"
 422      BDA08495 
 422      AF8A1D12 
 422      F6A212
 423 0806 56BECCB7 		.ascii	"V\276\314\267I\330KJXyt[%\354\037\224\260\362\350\336"
 423      49D84B4A 
 423      5879745B 
 423      25EC1F94 
 423      B0F2E8DE 
 424 081a 48976D09 		.ascii	"H\227m\011W8\332\265%\324\317\015[}\3722\266N\302Y\035"
 424      5738DAB5 
 424      25D4CF0D 
ARM GAS  C:\Users\info\AppData\Local\Temp\ccpdNS7R.s 			page 33


 424      5B7DFA32 
 424      B64EC259 
 425 082f DDE470D7 		.ascii	"\335\344p\327:\331:\217v]\272l]\355P\306\313\314\327"
 425      3AD93A8F 
 425      765DBA6C 
 425      5DED50C6 
 425      CBCCD7
 426 0842 742C62F0 		.ascii	"t,b\360r\230\234}s\341\362\243\215l\326V\252\227K\230"
 426      72989C7D 
 426      73E1F2A3 
 426      8D6CD656 
 426      AA974B98 
 427 0856 5390E315 		.ascii	"S\220\343\025\320\230\255\202\013\240T2H:\2356\011\302"
 427      D098AD82 
 427      0BA05432 
 427      483A9D36 
 427      09C2
 428 0868 0A0D0D98 		.ascii	"\012\015\015\230\004\201\006\360\367\244\232\\\337\210"
 428      048106F0 
 428      F7A49A5C 
 428      DF88
 429 0876 EBC54998 		.ascii	"\353\305I\230[l\321\315i^F\026]\302\363\236t\224\257"
 429      5B6CD1CD 
 429      695E4616 
 429      5DC2F39E 
 429      7494AF
 430 0889 A04B06F3 		.ascii	"\240K\006\363\345\214\334\227~e_d\256Wu\350\205\024"
 430      E58CDC97 
 430      7E655F64 
 430      AE5775E8 
 430      8514
 431 089b 23053F98 		.ascii	"#\005?\230\013V\330\365%\364\2002Zf\2722=\20019\013"
 431      0B56D8F5 
 431      25F48032 
 431      5A66BA32 
 431      3D803139 
 432 08b0 F08773E1 		.ascii	"\360\207s\341?W\014j\255<\250u\020\324\032\245\240\326"
 432      3F570C6A 
 432      AD3CA875 
 432      10D41AA5 
 432      A0D6
 433 08c2 BA05B546 		.ascii	"\272\005\265F)\250-nA\255\245A\375\226\006\225\005\262"
 433      29A82D6E 
 433      41ADA541 
 433      FD960695 
 433      05B2
 434 08d4 3CF92D12 		.ascii	"<\371-\022HBmP\012d\215,\220\345\351?c\364a\273@\217"
 434      48426D50 
 434      0A648D2C 
 434      90E5E93F 
 434      63F461BB 
 435 08ea 15E98748 		.ascii	"\025\351\207Hg\226C\351\364\314\222\357~fau\007\222"
 435      679643E9 
 435      F4CC92EF 
 435      7E666175 
 435      0792
 436 08fc FF8AD491 		.ascii	"\377\212\324\221e\376\220\264S\346\213;\345\271\346"
ARM GAS  C:\Users\info\AppData\Local\Temp\ccpdNS7R.s 			page 34


 436      65FE90B4 
 436      53E68B3B 
 436      E5B9E6
 437 090b D252CFB7 		.ascii	"\322R\317\267s\341\014(\364\215\346\2333[\036\010\202"
 437      73E10C28 
 437      F48DE69B 
 437      335B1E08 
 437      82
 438 091c BF86664E 		.ascii	"\277\206fN\261D\015^\311\243\010\276\333`\352\253\337"
 438      B1440D5E 
 438      C9A308BE 
 438      DB60EAAB 
 438      DF
 439 092d 8686FB46 		.ascii	"\206\206\373F\012\372=p\225\226\335\013\354\274\331"
 439      0AFA3D70 
 439      9596DD0B 
 439      ECBCD9
 440 093c E30D5672 		.ascii	"\343\015Vr\313 \007\232\365\204:\364\255\246f\032\244"
 440      CB20079A 
 440      F5843AF4 
 440      ADA6661A 
 440      A4
 441 094d 5EE15532 		.ascii	"^\341U2s\236\232\251I\277\357\203\233\230\225\204#}"
 441      739E9AA9 
 441      49BFEF83 
 441      9B989584 
 441      237D
 442 095f 2D1EF81E 		.ascii	"-\036\370\036S\322\353\235\007\027\301\307\032\272H"
 442      53D2EB9D 
 442      0717C1C7 
 442      1ABA48
 443 096e 1B41C9E9 		.ascii	"\033A\311\351\211\033\373\331\347\033IK\366\3716\230"
 443      891BFBD9 
 443      E71B494B 
 443      F6F93698 
 444 097e 7CA2132F 		.ascii	"|\242\023/_0\237/\323\320\377\201\206\036\320\263\247"
 444      5F309F2F 
 444      D3D0FF81 
 444      861ED0B3 
 444      A7
 445 098f 279FEB81 		.ascii	"'\237\353\201f\037|\230\226\315\374*\273 \311\231\022"
 445      661F7C98 
 445      96CDFC2A 
 445      BB20C999 
 445      12
 446 09a0 2F2CA638 		.ascii	"/,\2468tA\344\211.\2515Dc\327lW(\315o\362\306\357\252"
 446      7441E489 
 446      2EA93544 
 446      63D76C57 
 446      28CD6FF2 
 447 09b7 F19385A8 		.ascii	"\361\223\205\250\315f\215fx\311\367|w\032M\256=\377"
 447      CD668D66 
 447      78C9F77C 
 447      771A4DAE 
 447      3DFF
 448 09c9 C154F185 		.ascii	"\301T\361\205E\324\207&\227\017\245\271'\013\374\\\237"
 448      45D48726 
ARM GAS  C:\Users\info\AppData\Local\Temp\ccpdNS7R.s 			page 35


 448      970FA5B9 
 448      270BFC5C 
 448      9F
 449 09da A5D7D4EC 		.ascii	"\245\327\324\354b\356aE\233\267\313\331fV\370\362\326"
 449      62EE6145 
 449      9BB7CBD9 
 449      6656F8F2 
 449      D6
 450 09eb F15ABF85 		.ascii	"\361Z\277\205\275m\241\336^\027\275\255\234\271\327"
 450      BD6DA1DE 
 450      5E17BDAD 
 450      9CB9D7
 451 09fa 8999B7CE 		.ascii	"\211\231\267\316\221\210L\241!Q\370\220`\320U\227\247"
 451      91884CA1 
 451      2151F890 
 451      60D05597 
 451      A7
 452 0a0b 8DE0E955 		.ascii	"\215\340\351U\321\323\033\324\323\362\253\265\217\274"
 452      D1D31BD4 
 452      D3F2ABB5 
 452      8FBC
 453 0a19 F19B853C 		.ascii	"\361\233\205<U\372\206\236\272uzP\355\342\332\306\270"
 453      55FA869E 
 453      BA757A50 
 453      EDE2DAC6 
 453      B8
 454 0a2a 16255C8D 		.ascii	"\026%\\\215Y\230j\007\245\332.RM\355\037\037\364\345"
 454      59986A07 
 454      A5DA2E52 
 454      4DED1F1F 
 454      F4E5
 455 0a3c 54BB45AA 		.ascii	"T\273E\252\200A\255.\2527\201j\253H\365\026\245\232"
 455      8041AD2E 
 455      AA37816A 
 455      AB48F516 
 455      A59A
 456 0a4e 963A94E6 		.ascii	"\226:\224\346\215\367x/@\265\324\321\177\334\207\033"
 456      8DF7782F 
 456      40B5D4D1 
 456      7FDC871B 
 457 0a5e BD23377A 		.ascii	"\275#7z\333e\264\023\214\336\026\215\336\241F\223\343"
 457      DB65B413 
 457      8CDE168D 
 457      DEA14693 
 457      E3
 458 0a6f 4F5FD4E0 		.ascii	"O_\324\340o\0272\332\221\321\336\253\345F\307D\243$"
 458      6F1732DA 
 458      91D1DEAB 
 458      E546C744 
 458      A324
 459 0a81 7DBA5C46 		.ascii	"}\272\\F\273\301h\227h\264\207\032-Nt\216y\343S\314"
 459      BBC16897 
 459      68B4871A 
 459      2D4E748E 
 459      79E353CC 
 460 0a95 E84B47E2 		.ascii	"\350KG\342C\026B\262\241\260\020v\2167\015K\303\335"
 460      431642B2 
ARM GAS  C:\Users\info\AppData\Local\Temp\ccpdNS7R.s 			page 36


 460      A1B01076 
 460      8E370D4B 
 460      C3DD
 461 0aa7 CB42F878 		.ascii	"\313B\370x\177C\235V\036\303\317\336\222\205\360\036"
 461      7F439D56 
 461      1EC3CFDE 
 461      9285F01E 
 462 0ab7 0D619F18 		.ascii	"\015a\237\030\302\244\211\366V\221\330\350\243\265\300"
 462      C2A489F6 
 462      5691D8E8 
 462      A3B5C0
 463 0ac6 4C4320E8 		.ascii	"LC \350\2564\375\356\212\244\372)\251\273\371\275{="
 463      AE34FDEE 
 463      8AA4FA29 
 463      A9BBF9BD 
 463      7B3D
 464 0ad8 712323D5 		.ascii	"q##\325S\\\231\305\356\2063\\\211Y5\334\336\241s\221"
 464      535C99C5 
 464      EE86335C 
 464      895935DC 
 464      DEA17391 
 465 0aec 7AC048DD 		.ascii	"z\300H\335K\270\035\357\271 \251\207\224\324\200H\312"
 465      4BB81DEF 
 465      B920A987 
 465      94D48048 
 465      CA
 466 0afd 79AA69DC 		.ascii	"y\252i\334\213\223\312\350\322;S\020A\240\373\022\247"
 466      8B93CAE8 
 466      D23B5310 
 466      41A0FB12 
 466      A7
 467 0b0e FB22A747 		.ascii	"\373\"\247G\224SIR\251\303\003\0173NJ\023~\250#\377"
 467      94534952 
 467      A9C3030F 
 467      334E4A13 
 467      7EA823FF 
 468 0b22 D9C2DD3F 		.ascii	"\331\302\335?\241\335?v\305$\371L\266\230\001Y\254{"
 468      A1DD3F76 
 468      C524F94C 
 468      B6980159 
 468      AC7B
 469 0b34 40A041A9 		.ascii	"@\240A\251\373A\261\373\247\264\373\244\211\234\307"
 469      FB41B1FB 
 469      A7B4FBA4 
 469      899CC7
 470 0b43 5E7817BB 		.ascii	"^x\027\273a\273Rx\366\215\236\035\311=@\275\225Q\333"
 470      61BB5278 
 470      F68D9E1D 
 470      C93D40BD 
 470      9551DB
 471 0b56 A423177F 		.ascii	"\244#\027\177\002\237\343\376\362\204\036V\353Tda\246"
 471      029FE3FE 
 471      F2841E56 
 471      EB546461 
 471      A6
 472 0b67 2AB9E319 		.ascii	"*\271\343\031\310x\352\353\237\302\317\247\037\"\232"
 472      C878EAEB 
ARM GAS  C:\Users\info\AppData\Local\Temp\ccpdNS7R.s 			page 37


 472      9FC2CFA7 
 472      1F229A
 473 0b76 FF701042 		.ascii	"\377p\020BCj\002\177\246\366\027\033\021\364\205\246"
 473      436A027F 
 473      A6F6171B 
 473      11F485A6 
 474 0b86 3D07F472 		.ascii	"=\007\364rt\333\017\241;\004G\202\346\235\002\241%\227"
 474      74DB0FA1 
 474      3B044782 
 474      E69D02A1 
 474      2597
 475 0b98 ACD95F0C 		.ascii	"\254\331_\014\034\206V\010\215\250\375\321\367\3143"
 475      1C865608 
 475      8DA8FDD1 
 475      F7CC33
 476 0ba7 595352F2 		.ascii	"YSR\362\033H\340Q\365;\344\026\350\314\256)O\\\312\374"
 476      1B48E051 
 476      F53BE416 
 476      E8CCAE29 
 476      4F5CCAFC 
 477 0bbb 9BCCBCD6 		.ascii	"\233\314\274\326\277\210\231q\336\361\020\274\251\205"
 477      BF889971 
 477      DEF110BC 
 477      A985
 478 0bc9 B17916C6 		.ascii	"\261y\026\306\270\205qj!g{N\263\036\337`\026\236;\266"
 478      B885716A 
 478      21677B4E 
 478      B31EDF60 
 478      169E3BB6 
 479 0bdd 4FF02B73 		.ascii	"O\360+s/\272\270\225\236\345w\326\236\344\372\260u2"
 479      2FBAB895 
 479      9EE577D6 
 479      9EE4FAB0 
 479      7532
 480 0bef DF6BC180 		.ascii	"\337k\301\200M\210\001{\251\246\001+\251\356\035\361"
 480      4D88017B 
 480      A9A6012B 
 480      A9EE1DF1 
 481 0bff 991B3038 		.ascii	"\231\03308\221\242\027\224\305+\032\202\0111\0043\005"
 481      91A21794 
 481      C52B1A82 
 481      09310433 
 481      05
 482 0c10 95DF7BCE 		.ascii	"\225\337{\316\015\330\202\350\342\370G\271~\334\323"
 482      0DD882E8 
 482      E2F847B9 
 482      7EDCD3
 483 0c1f 57C4D349 		.ascii	"W\304\323I\360\3649\367Tj\365\234{\372\232zZ\225<\\"
 483      F0F439F7 
 483      546AF59C 
 483      7BFA9A7A 
 483      5A953C5C 
 484 0c33 A8C6D3CC 		.ascii	"\250\306\323\314\323\307\307\237\355\303\334B\306/H"
 484      D3C7C79F 
 484      EDC3DC42 
 484      C62F48
 485 0c42 B88989A9 		.ascii	"\270\211\211\251y&\246\270\2117\324D\371\305\326i\015"
ARM GAS  C:\Users\info\AppData\Local\Temp\ccpdNS7R.s 			page 38


 485      7926A6B8 
 485      8937D444 
 485      F9C5D669 
 485      0D
 486 0c53 3EEA434D 		.ascii	">\352CM\214?\252\036\342\301z\217\2543ic\0275\354\013"
 486      8C3FAA1E 
 486      E2C17A8F 
 486      AC336963 
 486      1735EC0B 
 487 0c67 6F90DCB3 		.ascii	"o\220\334\263'\036J\271\256f\325\357\202z\376\361X\265"
 487      271E4AB9 
 487      AE66D5EF 
 487      827AFEF1 
 487      58B5
 488 0c79 EF82C18B 		.ascii	"\357\202\301\213\307<x\002\246\301\033\310\272\364x"
 488      C73C7802 
 488      A6C11BC8 
 488      BAF478
 489 0c88 5EB6CDC2 		.ascii	"^\266\315\302\367\320\014e\265\015\373\213\215\350\274"
 489      F7D00C65 
 489      B50DFB8B 
 489      8DE8BC
 490 0c97 6A2CC9F5 		.ascii	"j,\311\365\233\033\274\005\321g\033\222\353}\270\353"
 490      9B1BBC05 
 490      D1671B92 
 490      EB7DB8EB 
 491 0ca7 2F7F495C 		.ascii	"/\177I\\O\300\376h\232\273.5\233\346\256'b\342z\363"
 491      4FC0FE68 
 491      9ABB2E35 
 491      9BE6AE27 
 491      62E27AF3 
 492 0cbb FE4E07C2 		.ascii	"\376N\007\302\327\231\353i\017\356U\350\270\211\316"
 492      D799EB69 
 492      0FEE55E8 
 492      B889CE
 493 0cca DDEFC40B 		.ascii	"\335\357\304\013N\015\375*\336\216\231\021\361\333\\"
 493      4E0DFD2A 
 493      DE8E9911 
 493      F1DB5C
 494 0cd9 454B8891 		.ascii	"EK\210\221$j$\265h&E+\337V\357\271\235\275v`\272\255"
 494      246A24B5 
 494      6826452B 
 494      DF56EFB9 
 494      9DBD7660 
 495 0cef 922780AF 		.ascii	"\222'\200\257\266\3279\334\300$\235%\360N\016\336I\301"
 495      B6D739DC 
 495      C0249D25 
 495      F04E0EDE 
 495      49C1
 496 0d01 63A3B7F7 		.ascii	"c\243\267\367\350\345\340I7\360.\016\336E\301\345y\227"
 496      E8E5E049 
 496      37F02E0E 
 496      DE45C1E5 
 496      7997
 497 0d13 8A7CE5E0 		.ascii	"\212|\345\340\313n4\034\034\354\240\340\241'OF\324r"
 497      CB6E341C 
 497      1CECA0E0 
ARM GAS  C:\Users\info\AppData\Local\Temp\ccpdNS7R.s 			page 39


 497      A1274F46 
 497      D472
 498 0d25 70871B78 		.ascii	"p\207\033x7\007\357\246\340\355\216\331G\213\360\004"
 498      3707EFA6 
 498      E0ED8ED9 
 498      478BF004 
 499 0d35 8B5275D6 		.ascii	"\213Ru\326\214S\203\247\231\222\224>\333\257\303\361"
 499      8C5383A7 
 499      9992943E 
 499      DBAFC3F1 
 500 0d45 7A36CF86 		.ascii	"z6\317\206;\213=\261\203)\325\303%\325\276\374\212\226"
 500      3B8B3DB1 
 500      8329D5C3 
 500      25D5BEFC 
 500      8A96
 501 0d57 06F79823 		.ascii	"\006\367\230#\001\341lZ\351\371\252\270r\247\016\321"
 501      01E16C5A 
 501      E9F9AAB8 
 501      72A70ED1 
 502 0d67 AB8060F1 		.ascii	"\253\200`\361N\366\303\032\331\235\354\327\020\340o"
 502      4EF6C31A 
 502      D99DECD7 
 502      10E06F
 503 0d76 B0D2AD15 		.ascii	"\260\322\255\025\373\226v\262o\351\024\034H\317\324"
 503      FB9676B2 
 503      6FE9141C 
 503      48CFD4
 504 0d85 682FC793 		.ascii	"h/\307\223a:\200\203Q:\016B\373@\322@\366c\371\267\360"
 504      613A8083 
 504      513A0E42 
 504      FB40D240 
 504      F663F9B7 
 505 0d9a DD66D717 		.ascii	"\335f\327\027\330\036\205N\344'\3711\011\232\252\000"
 505      D81E854E 
 505      E427F931 
 505      099AAA00 
 506 0daa 957F5BF6 		.ascii	"\225\177[\366$\363\217)r^J\346\340\005\017\302\235\354"
 506      24F38F29 
 506      725E4AE6 
 506      E0050FC2 
 506      9DEC
 507 0dbc F20E30F2 		.ascii	"\362\0160\362\2030Y\213\034co\374p\036\015\222\272\276"
 507      8330598B 
 507      1C636FFC 
 507      701E0D92 
 507      BABE
 508 0dce B8A6D817 		.ascii	"\270\246\330\027\005/em\262\233\203H\233,\260\233\201"
 508      052F656D 
 508      B29B8348 
 508      9B2CB09B 
 508      81
 509 0ddf 5D1B0331 		.ascii	"]\033\00311\347~\301\025\223L\210\303\217\305\204\014"
 509      31E77EC1 
 509      15934C88 
 509      C38FC584 
 509      0C
 510 0df0 6147DE32 		.ascii	"aG\3362y\"da\371MK6O\204l\232\010\007\206\006F\334\362"
ARM GAS  C:\Users\info\AppData\Local\Temp\ccpdNS7R.s 			page 40


 510      79226461 
 510      F94D4B36 
 510      4F846C9A 
 510      08078606 
 511 0e07 B1C52D6B 		.ascii	"\261\305-k\016r\360A\012.{\365\332\351\2712\217qs\300"
 511      0E72F041 
 511      0A2E7BF5 
 511      DAE9B932 
 511      8F7173C0 
 512 0e1b 6CF9EC2D 		.ascii	"l\371\354-z*g;\331!\274\222\034(\272+\306t\014C\366"
 512      7A2A673B 
 512      D921BC92 
 512      1C28BA2B 
 512      C6740C43 
 513 0e30 886C0700 		.ascii	"\210l\007\000\335q\337R\334\223\227\365i\230\341\234"
 513      DD71DF52 
 513      DC9397F5 
 513      6998E19C 
 514 0e40 195E7331 		.ascii	"\031^s19\024\223\337\367t\220\367\347l\235\207\311\245"
 514      391493DF 
 514      F77490F7 
 514      E76C9D87 
 514      C9A5
 515 0e52 98A6EEA2 		.ascii	"\230\246\356\242\3179dd\036$\217B\022j\317\014h\344"
 515      CF396464 
 515      1E248F42 
 515      126ACF0C 
 515      68E4
 516 0e64 3E3E71F3 		.ascii	">>q\3631\237\373\230O}\354\035\237iw\003\223EG\002\027"
 516      319FFB98 
 516      4F7DEC1D 
 516      9F697703 
 516      93454702 
 517 0e79 70700105 		.ascii	"pp\001\005_K\036^,\307>t3\\\310\261\205\024\333\325"
 517      5F4B1E5E 
 517      2CC73E74 
 517      335CC8B1 
 517      8514DBD5 
 518 0e8d F3E08DD7 		.ascii	"\363\340\215\327\334\340\235\027\231\036\246L\233\247"
 518      DCE09D17 
 518      991EA64C 
 518      9BA7
 519 0e9b 67C7BD44 		.ascii	"g\307\275Do\374\2707.\314\021\212\331\23325\"bn\317"
 519      6FFCB837 
 519      2ECC118A 
 519      D99B3235 
 519      22626ECF 
 520 0eaf C314E195 		.ascii	"\303\024\341\225\252eq\033\266l0\204\033l\233BB\326"
 520      AA65711B 
 520      B66C3084 
 520      1B6C9B42 
 520      42D6
 521 0ec1 6E30449A 		.ascii	"n0D\232,\246Xs\230\366_\376\375\323\025\037\207\204"
 521      2CA65873 
 521      98F65FFE 
 521      FDD3151F 
 521      8784
ARM GAS  C:\Users\info\AppData\Local\Temp\ccpdNS7R.s 			page 41


 522 0ed3 A8BC0D86 		.ascii	"\250\274\015\2068\263\305\276\301`\217Ga\177\037j\215"
 522      38B3C5BE 
 522      C1608F47 
 522      617F1F6A 
 522      8D
 523 0ee4 8D898C35 		.ascii	"\215\211\2145F\257\2100G\231l+\202\267l\370\340oB\303"
 523      46AF8830 
 523      47996C2B 
 523      82B76CF8 
 523      E06F42C3 
 524 0ef8 B65A634D 		.ascii	"\266ZcM6[\250\325\026\023\266\",\326d\264\307\304\206"
 524      365BA8D5 
 524      1613B622 
 524      2CD664B4 
 524      C7C486
 525 0f0b BEBF669D 		.ascii	"\276\277f\235{\2019\332\032\023k\017\215\264\304\205"
 525      7B8139DA 
 525      1A136B0F 
 525      8DB4C485 
 526 0f1b 1A63A343 		.ascii	"\032c\243C\377n\315\373kB\310\333{\226\030\213\351="
 526      FF6ECDFB 
 526      6B42C8DB 
 526      7B96188B 
 526      E93D
 527 0f2d 9371A339 		.ascii	"\223q\2439\324l\011\213\212\0137\205F\033\3036\231-"
 527      D46C098B 
 527      8A0B3785 
 527      461BC336 
 527      992D
 528 0f3f A65043B8 		.ascii	"\246PC\270)\302\030\027e7\330\267ZM\2665\233T^\234\312"
 528      29C21817 
 528      6537D8B7 
 528      5A4DB635 
 528      9B545E9C 
 529 0f54 E6FF2F26 		.ascii	"\346\377/&\266\255\266P\203\315\036\016\335B\367~\341"
 529      B6ADB650 
 529      83CD1E0E 
 529      DD42F77E 
 529      E1
 530 0f65 A68D3171 		.ascii	"\246\2151q\2260\023\024\031\355\246\237\270\324(\243"
 530      96301314 
 530      19EDA69F 
 530      B8D428A3 
 531 0f75 CD6EB09A 		.ascii	"\315n\260\232-\254\374\247\256r\221\277\253\312'\322"
 531      2DACFCA7 
 531      AE7291BF 
 531      ABCA27D2 
 532 0f85 6A8E3100 		.ascii	"j\2161\000G(\325\305\331#6\260b0\274\331\014xcx8\341"
 532      4728D5C5 
 532      D92336B0 
 532      6230BCD9 
 532      0C786378 
 533 0f9b EF635E17 		.ascii	"\357c^\027F"
 533      46
 534 0fa0 2A62EDA6 		.ascii	"*b\355\246p\372\316\313\003\3146CD\214\305n0[6\233b"
 534      70FACECB 
 534      03CC3643 
ARM GAS  C:\Users\info\AppData\Local\Temp\ccpdNS7R.s 			page 42


 534      448CC56E 
 534      305B369B 
 535 0fb5 6D264374 		.ascii	"m&CtL\270I\273\305\020\023\021a3\331\265&KX\0140\215"
 535      4CB849BB 
 535      C5101311 
 535      6133D9B5 
 535      264B580C 
 536 0fcb D4B1210B 		.ascii	"\324\261!\013\371\300`\327\212/\032\322\316{c\234\315"
 536      F9C060D7 
 536      8A2F1AD2 
 536      CE7B639C 
 536      CD
 537 0fdc 10161513 		.ascii	"\020\026\025\023\3669\207\254_\307!\344e\011\345f\264"
 537      F63987AC 
 537      5FC721E4 
 537      6509E566 
 537      B4
 538 0fed 8403ED28 		.ascii	"\204\003\355(\343VC\330F\037\232\032\321\266Hx\367\332"
 538      E35643D8 
 538      461F9A1A 
 538      D1B64878 
 538      F7DA
 539 0fff B8       		.ascii	"\270"
 540 1000 D56E82A7 		.ascii	"\325n\202\247g\2301\034\036\272p\263\315\312P^\026\323"
 540      6798311C 
 540      1EBA70B3 
 540      CDCA505E 
 540      16D3
 541 1012 163B3CF5 		.ascii	"\026;<\365\024\035\266\311\030K\024\261\336l\211\210"
 541      141DB6C9 
 541      184B14B1 
 541      DE6C8988 
 542 1022 F1B19AB7 		.ascii	"\361\261\232\267\230\242\014_\232\303\355\233\226DD"
 542      98A20C5F 
 542      9AC3ED9B 
 542      964444
 543 1031 99AD84B7 		.ascii	"\231\255\204\267A\344\275X\214\222X\340c\207!5l2\231"
 543      41E4BD58 
 543      8C9258E0 
 543      63872135 
 543      6C3299
 544 1044 2337D975 		.ascii	"#7\331u\364\235\266\014\3702\326\014\024\254qQ6^b\260"
 544      F49DB60C 
 544      F832D60C 
 544      14AC7151 
 544      365E62B0 
 545 1058 D8FCC38D 		.ascii	"\330\374\303\215v\243\001\032\305Y\015vs\264\011\212"
 545      76A3011A 
 545      C5590D76 
 545      73B4098A 
 546 1068 0248C45C 		.ascii	"\002H\304\\\236\032B\326\256\375\374\223\257\2646\253"
 546      9E1A42D6 
 546      AEFDFC93 
 546      AFB436AB 
 547 1078 99864B6F 		.ascii	"\231\206Ko\2032V\263\351+\177\242\270\033\\b\013\237"
 547      833256B3 
 547      E92B7FA2 
ARM GAS  C:\Users\info\AppData\Local\Temp\ccpdNS7R.s 			page 43


 547      B81B5C62 
 547      0B9F
 548 108a 63CFDF1A 		.ascii	"c\317\337\032\003\243\013\3617\331\015_\032\315v\010"
 548      03A30BF1 
 548      37D90D5F 
 548      1ACD7608 
 549 109a 4800D3E4 		.ascii	"H\000\323\344-\243m\313!\367\300}\263\325\000\276\033"
 549      2DA36DCB 
 549      21F7C07D 
 549      B3D500BE 
 549      1B
 550 10ab 3712DA04 		.ascii	"7\022\332\004m\201\012b\200\326\230,\362\012\1777t\224"
 550      6D810A62 
 550      80D6982C 
 550      F20A7F37 
 550      7494
 551 10bd 69B3296A 		.ascii	"i\263)j\211\034FK\226\263\371)\013'\244Fl\\\230]\317"
 551      891C464B 
 551      96B3F929 
 551      0B27A446 
 551      6C5C985D 
 552 10d2 A2CAE214 		.ascii	"\242\312\342\024\260fMh\334\206\310u\2060[lX(i\002\371"
 552      B0664D68 
 552      DC86C875 
 552      86305B6C 
 552      58286902 
 553 10e7 BA747E53 		.ascii	"\272t~S;\033Sfa\251+QYF\222\241\366\244\365\366\277"
 553      3B1B5366 
 553      61A92B51 
 553      594692A1 
 553      F6A4F5F6 
 554 10fc 9C67CFB5 		.ascii	"\234g\317\265D\254\011\233\273f\204|\260v\013H\000K"
 554      44AC099B 
 554      BB66847C 
 554      B0760B48 
 554      004B
 555 110e 00C88F7F 		.ascii	"\000\310\217\177\266\204\377&\326h\261E\230b\265\226"
 555      B684FF26 
 555      D668B145 
 555      9862B596 
 556 111e 18B3250A 		.ascii	"\030\263%\012f\363\022W\355\257M\226\360\177\202a[\354"
 556      66F31257 
 556      EDAF4D96 
 556      F07F8261 
 556      5BEC
 557 1130 56F2516C 		.ascii	"V\362Ql\244{\301\307\321\341oI\005d6\2106\227\271\341"
 557      A47BC1C7 
 557      D1E16F49 
 557      05643688 
 557      3697B9E1 
 558 1144 7E6DFA22 		.ascii	"~m\372\"\016R\337\3646'\265\311\024e5\305\272\334fc"
 558      0E52DFF4 
 558      3627B5C9 
 558      146535C5 
 558      BADC6663 
 559 1158 196D8A8E 		.ascii	"\031m\212\216\211\335\372Se\210\331b\266\257tw\011\226"
 559      89DDFA53 
ARM GAS  C:\Users\info\AppData\Local\Temp\ccpdNS7R.s 			page 44


 559      6588D962 
 559      B6AF7477 
 559      0996
 560 116a 02238CBE 		.ascii	"\002#\214\2765\346K\230h\306\315\246\265`\347\213\037"
 560      35E64B98 
 560      68C6CDA6 
 560      B560E78B 
 560      1F
 561 117b C18410CC 		.ascii	"\301\204\020\314\337*\206F\331\336\377\021K\355\276"
 561      DF2A8646 
 561      D9DEFF11 
 561      4BEDBE
 562 118a F38358E2 		.ascii	"\363\203X\342\001A\255f\243\253\210\221\347\201\307"
 562      0141AD66 
 562      A3AB8891 
 562      E781C7
 563 1199 16306FC3 		.ascii	"\0260o\303a\026\273\226N0\253=\226\005\237j,;<\266\022"
 563      6116BB96 
 563      4E30AB3D 
 563      96059F6A 
 563      2C3B3CB6 
 564 11ae 8C8F546C 		.ascii	"\214\217Tl\377_E\002\232\327"
 564      FF5F4502 
 564      9AD7
 565              		.text
 566              		.section	.gnu.lto_.symtab.792a4d43,"",%progbits
 567 0000 75387838 		.ascii	"u8x8_d_sh1108_160x160\000"
 567      5F645F73 
 567      68313130 
 567      385F3136 
 567      30783136 
 568 0016 00       		.ascii	"\000"
 569 0017 00       		.ascii	"\000"
 570 0018 00       		.ascii	"\000"
 571 0019 00000000 		.ascii	"\000\000\000\000\000\000\000\000"
 571      00000000 
 572 0021 43010000 		.ascii	"C\001\000\000"
 573 0025 75387838 		.ascii	"u8x8_cad_EndTransfer\000"
 573      5F636164 
 573      5F456E64 
 573      5472616E 
 573      73666572 
 574 003a 00       		.ascii	"\000"
 575 003b 02       		.ascii	"\002"
 576 003c 00       		.ascii	"\000"
 577 003d 00000000 		.ascii	"\000\000\000\000\000\000\000\000"
 577      00000000 
 578 0045 49010000 		.ascii	"I\001\000\000"
 579 0049 75387838 		.ascii	"u8x8_cad_SendData\000"
 579      5F636164 
 579      5F53656E 
 579      64446174 
 579      6100
 580 005b 00       		.ascii	"\000"
 581 005c 02       		.ascii	"\002"
 582 005d 00       		.ascii	"\000"
 583 005e 00000000 		.ascii	"\000\000\000\000\000\000\000\000"
ARM GAS  C:\Users\info\AppData\Local\Temp\ccpdNS7R.s 			page 45


 583      00000000 
 584 0066 51010000 		.ascii	"Q\001\000\000"
 585 006a 75387838 		.ascii	"u8x8_cad_SendArg\000"
 585      5F636164 
 585      5F53656E 
 585      64417267 
 585      00
 586 007b 00       		.ascii	"\000"
 587 007c 02       		.ascii	"\002"
 588 007d 00       		.ascii	"\000"
 589 007e 00000000 		.ascii	"\000\000\000\000\000\000\000\000"
 589      00000000 
 590 0086 57010000 		.ascii	"W\001\000\000"
 591 008a 75387838 		.ascii	"u8x8_cad_SendCmd\000"
 591      5F636164 
 591      5F53656E 
 591      64436D64 
 591      00
 592 009b 00       		.ascii	"\000"
 593 009c 02       		.ascii	"\002"
 594 009d 00       		.ascii	"\000"
 595 009e 00000000 		.ascii	"\000\000\000\000\000\000\000\000"
 595      00000000 
 596 00a6 5A010000 		.ascii	"Z\001\000\000"
 597 00aa 75387838 		.ascii	"u8x8_cad_StartTransfer\000"
 597      5F636164 
 597      5F537461 
 597      72745472 
 597      616E7366 
 598 00c1 00       		.ascii	"\000"
 599 00c2 02       		.ascii	"\002"
 600 00c3 00       		.ascii	"\000"
 601 00c4 00000000 		.ascii	"\000\000\000\000\000\000\000\000"
 601      00000000 
 602 00cc 5D010000 		.ascii	"]\001\000\000"
 603 00d0 75387838 		.ascii	"u8x8_cad_SendSequence\000"
 603      5F636164 
 603      5F53656E 
 603      64536571 
 603      75656E63 
 604 00e6 00       		.ascii	"\000"
 605 00e7 02       		.ascii	"\002"
 606 00e8 00       		.ascii	"\000"
 607 00e9 00000000 		.ascii	"\000\000\000\000\000\000\000\000"
 607      00000000 
 608 00f1 62010000 		.ascii	"b\001\000\000"
 609 00f5 75387838 		.ascii	"u8x8_d_helper_display_setup_memory\000"
 609      5F645F68 
 609      656C7065 
 609      725F6469 
 609      73706C61 
 610 0118 00       		.ascii	"\000"
 611 0119 02       		.ascii	"\002"
 612 011a 00       		.ascii	"\000"
 613 011b 00000000 		.ascii	"\000\000\000\000\000\000\000\000"
 613      00000000 
 614 0123 67010000 		.ascii	"g\001\000\000"
ARM GAS  C:\Users\info\AppData\Local\Temp\ccpdNS7R.s 			page 46


 615 0127 75387838 		.ascii	"u8x8_d_helper_display_init\000"
 615      5F645F68 
 615      656C7065 
 615      725F6469 
 615      73706C61 
 616 0142 00       		.ascii	"\000"
 617 0143 02       		.ascii	"\002"
 618 0144 00       		.ascii	"\000"
 619 0145 00000000 		.ascii	"\000\000\000\000\000\000\000\000"
 619      00000000 
 620 014d 6B010000 		.ascii	"k\001\000\000"
 621              		.text
 622              		.section	.gnu.lto_.opts,"",%progbits
 623 0000 272D666D 		.ascii	"'-fmath-errno' '-fsigned-zeros' '-ftrapping-math' '"
 623      6174682D 
 623      6572726E 
 623      6F272027 
 623      2D667369 
 624 0033 2D666E6F 		.ascii	"-fno-trapv' '-fno-strict-overflow' '-fno-openmp' '-"
 624      2D747261 
 624      70762720 
 624      272D666E 
 624      6F2D7374 
 625 0066 666E6F2D 		.ascii	"fno-openacc' '-mcpu=cortex-m3' '-mthumb' '-g' '-Og'"
 625      6F70656E 
 625      61636327 
 625      20272D6D 
 625      6370753D 
 626 0099 20272D66 		.ascii	" '-ffunction-sections' '-ffat-lto-objects' '-flto'\000"
 626      66756E63 
 626      74696F6E 
 626      2D736563 
 626      74696F6E 
 627              		.text
 628              		.cfi_sections	.debug_frame
 629              		.section	.text.u8x8_d_sh1108_generic,"ax",%progbits
 630              		.align	2
 631              		.thumb
 632              		.thumb_func
 633              		.type	u8x8_d_sh1108_generic, %function
 634              	u8x8_d_sh1108_generic:
 635              	.LFB0:
 636              		.file 1 "..\\u8g2_csrc\\u8x8_d_sh1108.c"
   1:..\u8g2_csrc/u8x8_d_sh1108.c **** /*
   2:..\u8g2_csrc/u8x8_d_sh1108.c **** 
   3:..\u8g2_csrc/u8x8_d_sh1108.c ****   u8x8_d_sh1108.c
   4:..\u8g2_csrc/u8x8_d_sh1108.c **** 
   5:..\u8g2_csrc/u8x8_d_sh1108.c ****   Universal 8bit Graphics Library (https://github.com/olikraus/u8g2/)
   6:..\u8g2_csrc/u8x8_d_sh1108.c **** 
   7:..\u8g2_csrc/u8x8_d_sh1108.c ****   Copyright (c) 2018, olikraus@gmail.com
   8:..\u8g2_csrc/u8x8_d_sh1108.c ****   All rights reserved.
   9:..\u8g2_csrc/u8x8_d_sh1108.c **** 
  10:..\u8g2_csrc/u8x8_d_sh1108.c ****   Redistribution and use in source and binary forms, with or without modification, 
  11:..\u8g2_csrc/u8x8_d_sh1108.c ****   are permitted provided that the following conditions are met:
  12:..\u8g2_csrc/u8x8_d_sh1108.c **** 
  13:..\u8g2_csrc/u8x8_d_sh1108.c ****   * Redistributions of source code must retain the above copyright notice, this list 
  14:..\u8g2_csrc/u8x8_d_sh1108.c ****     of conditions and the following disclaimer.
ARM GAS  C:\Users\info\AppData\Local\Temp\ccpdNS7R.s 			page 47


  15:..\u8g2_csrc/u8x8_d_sh1108.c ****     
  16:..\u8g2_csrc/u8x8_d_sh1108.c ****   * Redistributions in binary form must reproduce the above copyright notice, this 
  17:..\u8g2_csrc/u8x8_d_sh1108.c ****     list of conditions and the following disclaimer in the documentation and/or other 
  18:..\u8g2_csrc/u8x8_d_sh1108.c ****     materials provided with the distribution.
  19:..\u8g2_csrc/u8x8_d_sh1108.c **** 
  20:..\u8g2_csrc/u8x8_d_sh1108.c ****   THIS SOFTWARE IS PROVIDED BY THE COPYRIGHT HOLDERS AND 
  21:..\u8g2_csrc/u8x8_d_sh1108.c ****   CONTRIBUTORS "AS IS" AND ANY EXPRESS OR IMPLIED WARRANTIES, 
  22:..\u8g2_csrc/u8x8_d_sh1108.c ****   INCLUDING, BUT NOT LIMITED TO, THE IMPLIED WARRANTIES OF 
  23:..\u8g2_csrc/u8x8_d_sh1108.c ****   MERCHANTABILITY AND FITNESS FOR A PARTICULAR PURPOSE ARE 
  24:..\u8g2_csrc/u8x8_d_sh1108.c ****   DISCLAIMED. IN NO EVENT SHALL THE COPYRIGHT HOLDER OR 
  25:..\u8g2_csrc/u8x8_d_sh1108.c ****   CONTRIBUTORS BE LIABLE FOR ANY DIRECT, INDIRECT, INCIDENTAL, 
  26:..\u8g2_csrc/u8x8_d_sh1108.c ****   SPECIAL, EXEMPLARY, OR CONSEQUENTIAL DAMAGES (INCLUDING, BUT 
  27:..\u8g2_csrc/u8x8_d_sh1108.c ****   NOT LIMITED TO, PROCUREMENT OF SUBSTITUTE GOODS OR SERVICES; 
  28:..\u8g2_csrc/u8x8_d_sh1108.c ****   LOSS OF USE, DATA, OR PROFITS; OR BUSINESS INTERRUPTION) HOWEVER 
  29:..\u8g2_csrc/u8x8_d_sh1108.c ****   CAUSED AND ON ANY THEORY OF LIABILITY, WHETHER IN CONTRACT, 
  30:..\u8g2_csrc/u8x8_d_sh1108.c ****   STRICT LIABILITY, OR TORT (INCLUDING NEGLIGENCE OR OTHERWISE) 
  31:..\u8g2_csrc/u8x8_d_sh1108.c ****   ARISING IN ANY WAY OUT OF THE USE OF THIS SOFTWARE, EVEN IF 
  32:..\u8g2_csrc/u8x8_d_sh1108.c ****   ADVISED OF THE POSSIBILITY OF SUCH DAMAGE.  
  33:..\u8g2_csrc/u8x8_d_sh1108.c ****   
  34:..\u8g2_csrc/u8x8_d_sh1108.c **** */
  35:..\u8g2_csrc/u8x8_d_sh1108.c **** 
  36:..\u8g2_csrc/u8x8_d_sh1108.c **** 
  37:..\u8g2_csrc/u8x8_d_sh1108.c **** #include "u8x8.h"
  38:..\u8g2_csrc/u8x8_d_sh1108.c **** 
  39:..\u8g2_csrc/u8x8_d_sh1108.c **** /* 
  40:..\u8g2_csrc/u8x8_d_sh1108.c ****   code copyied from sh1107
  41:..\u8g2_csrc/u8x8_d_sh1108.c ****   SH1108: 160x160 controller from Sino Wealth
  42:..\u8g2_csrc/u8x8_d_sh1108.c **** */
  43:..\u8g2_csrc/u8x8_d_sh1108.c **** 
  44:..\u8g2_csrc/u8x8_d_sh1108.c **** 
  45:..\u8g2_csrc/u8x8_d_sh1108.c **** 
  46:..\u8g2_csrc/u8x8_d_sh1108.c **** static const uint8_t u8x8_d_sh1108_noname_powersave0_seq[] = {
  47:..\u8g2_csrc/u8x8_d_sh1108.c ****   U8X8_START_TRANSFER(),             	/* enable chip, delay is part of the transfer start */
  48:..\u8g2_csrc/u8x8_d_sh1108.c ****   U8X8_C(0x0af),		                /* display on */
  49:..\u8g2_csrc/u8x8_d_sh1108.c ****   U8X8_END_TRANSFER(),             	/* disable chip */
  50:..\u8g2_csrc/u8x8_d_sh1108.c ****   U8X8_END()             			/* end of sequence */
  51:..\u8g2_csrc/u8x8_d_sh1108.c **** };
  52:..\u8g2_csrc/u8x8_d_sh1108.c **** 
  53:..\u8g2_csrc/u8x8_d_sh1108.c **** static const uint8_t u8x8_d_sh1108_noname_powersave1_seq[] = {
  54:..\u8g2_csrc/u8x8_d_sh1108.c ****   U8X8_START_TRANSFER(),             	/* enable chip, delay is part of the transfer start */
  55:..\u8g2_csrc/u8x8_d_sh1108.c ****   U8X8_C(0x0ae),		                /* display off */
  56:..\u8g2_csrc/u8x8_d_sh1108.c ****   U8X8_END_TRANSFER(),             	/* disable chip */
  57:..\u8g2_csrc/u8x8_d_sh1108.c ****   U8X8_END()             			/* end of sequence */
  58:..\u8g2_csrc/u8x8_d_sh1108.c **** };
  59:..\u8g2_csrc/u8x8_d_sh1108.c **** 
  60:..\u8g2_csrc/u8x8_d_sh1108.c **** static const uint8_t u8x8_d_sh1108_160x160_noname_powersave0_seq[] = {
  61:..\u8g2_csrc/u8x8_d_sh1108.c ****   U8X8_START_TRANSFER(),             	/* enable chip, delay is part of the transfer start */
  62:..\u8g2_csrc/u8x8_d_sh1108.c ****   U8X8_C(0x0a0),				/* segment remap a0/a1*/
  63:..\u8g2_csrc/u8x8_d_sh1108.c ****   U8X8_C(0x0c0),				/* c0: scan dir normal, c8: reverse */
  64:..\u8g2_csrc/u8x8_d_sh1108.c ****   U8X8_END_TRANSFER(),             	/* disable chip */
  65:..\u8g2_csrc/u8x8_d_sh1108.c ****   U8X8_END()             			/* end of sequence */
  66:..\u8g2_csrc/u8x8_d_sh1108.c **** };
  67:..\u8g2_csrc/u8x8_d_sh1108.c **** 
  68:..\u8g2_csrc/u8x8_d_sh1108.c **** static const uint8_t u8x8_d_sh1108_160x160_noname_powersave1_seq[] = {
  69:..\u8g2_csrc/u8x8_d_sh1108.c ****   U8X8_START_TRANSFER(),             	/* enable chip, delay is part of the transfer start */
  70:..\u8g2_csrc/u8x8_d_sh1108.c ****   U8X8_C(0x0a1),				/* segment remap a0/a1*/
  71:..\u8g2_csrc/u8x8_d_sh1108.c ****   U8X8_C(0x0c8),				/* c0: scan dir normal, c8: reverse */
ARM GAS  C:\Users\info\AppData\Local\Temp\ccpdNS7R.s 			page 48


  72:..\u8g2_csrc/u8x8_d_sh1108.c ****   U8X8_END_TRANSFER(),             	/* disable chip */
  73:..\u8g2_csrc/u8x8_d_sh1108.c ****   U8X8_END()             			/* end of sequence */
  74:..\u8g2_csrc/u8x8_d_sh1108.c **** };
  75:..\u8g2_csrc/u8x8_d_sh1108.c **** 
  76:..\u8g2_csrc/u8x8_d_sh1108.c **** 
  77:..\u8g2_csrc/u8x8_d_sh1108.c **** static uint8_t u8x8_d_sh1108_generic(u8x8_t *u8x8, uint8_t msg, uint8_t arg_int, void *arg_ptr)
  78:..\u8g2_csrc/u8x8_d_sh1108.c **** {
 637              		.loc 1 78 0
 638              		.cfi_startproc
 639              		@ args = 0, pretend = 0, frame = 0
 640              		@ frame_needed = 0, uses_anonymous_args = 0
 641              	.LVL0:
 642 0000 F8B5     		push	{r3, r4, r5, r6, r7, lr}
 643              		.cfi_def_cfa_offset 24
 644              		.cfi_offset 3, -24
 645              		.cfi_offset 4, -20
 646              		.cfi_offset 5, -16
 647              		.cfi_offset 6, -12
 648              		.cfi_offset 7, -8
 649              		.cfi_offset 14, -4
 650 0002 0546     		mov	r5, r0
 651 0004 1446     		mov	r4, r2
 652 0006 1E46     		mov	r6, r3
  79:..\u8g2_csrc/u8x8_d_sh1108.c ****   uint8_t x, c;
  80:..\u8g2_csrc/u8x8_d_sh1108.c ****   uint8_t *ptr;
  81:..\u8g2_csrc/u8x8_d_sh1108.c ****   switch(msg)
 653              		.loc 1 81 0
 654 0008 0B39     		subs	r1, r1, #11
 655              	.LVL1:
 656 000a 0429     		cmp	r1, #4
 657 000c 5ED8     		bhi	.L11
 658 000e DFE801F0 		tbb	[pc, r1]
 659              	.LVL2:
 660              	.L4:
 661 0012 03       		.byte	(.L3-.L4)/2
 662 0013 5D       		.byte	(.L11-.L4)/2
 663 0014 0E       		.byte	(.L5-.L4)/2
 664 0015 21       		.byte	(.L6-.L4)/2
 665 0016 30       		.byte	(.L7-.L4)/2
 666 0017 00       		.p2align 1
 667              	.L3:
  82:..\u8g2_csrc/u8x8_d_sh1108.c ****   {
  83:..\u8g2_csrc/u8x8_d_sh1108.c ****     /* handled by the calling function
  84:..\u8g2_csrc/u8x8_d_sh1108.c ****     case U8X8_MSG_DISPLAY_SETUP_MEMORY:
  85:..\u8g2_csrc/u8x8_d_sh1108.c ****       u8x8_d_helper_display_setup_memory(u8x8, &u8x8_sh1108_64x128_noname_display_info);
  86:..\u8g2_csrc/u8x8_d_sh1108.c ****       break;
  87:..\u8g2_csrc/u8x8_d_sh1108.c ****     */
  88:..\u8g2_csrc/u8x8_d_sh1108.c ****     /* handled by the calling function
  89:..\u8g2_csrc/u8x8_d_sh1108.c ****     case U8X8_MSG_DISPLAY_INIT:
  90:..\u8g2_csrc/u8x8_d_sh1108.c ****       u8x8_d_helper_display_init(u8x8);
  91:..\u8g2_csrc/u8x8_d_sh1108.c ****       u8x8_cad_SendSequence(u8x8, u8x8_d_sh1108_64x128_noname_init_seq);    
  92:..\u8g2_csrc/u8x8_d_sh1108.c ****       break;
  93:..\u8g2_csrc/u8x8_d_sh1108.c ****     */
  94:..\u8g2_csrc/u8x8_d_sh1108.c ****     case U8X8_MSG_DISPLAY_SET_POWER_SAVE:
  95:..\u8g2_csrc/u8x8_d_sh1108.c ****       if ( arg_int == 0 )
 668              		.loc 1 95 0
 669 0018 22B9     		cbnz	r2, .L8
ARM GAS  C:\Users\info\AppData\Local\Temp\ccpdNS7R.s 			page 49


  96:..\u8g2_csrc/u8x8_d_sh1108.c **** 	u8x8_cad_SendSequence(u8x8, u8x8_d_sh1108_noname_powersave0_seq);
 670              		.loc 1 96 0
 671 001a 2D49     		ldr	r1, .L13
 672 001c FFF7FEFF 		bl	u8x8_cad_SendSequence
 673              	.LVL3:
  97:..\u8g2_csrc/u8x8_d_sh1108.c ****       else
  98:..\u8g2_csrc/u8x8_d_sh1108.c **** 	u8x8_cad_SendSequence(u8x8, u8x8_d_sh1108_noname_powersave1_seq);
  99:..\u8g2_csrc/u8x8_d_sh1108.c ****       break;
 100:..\u8g2_csrc/u8x8_d_sh1108.c ****     case U8X8_MSG_DISPLAY_SET_FLIP_MODE:
 101:..\u8g2_csrc/u8x8_d_sh1108.c ****       if ( arg_int == 0 )
 102:..\u8g2_csrc/u8x8_d_sh1108.c ****       {
 103:..\u8g2_csrc/u8x8_d_sh1108.c **** 	u8x8_cad_SendSequence(u8x8, u8x8_d_sh1108_160x160_noname_powersave0_seq);
 104:..\u8g2_csrc/u8x8_d_sh1108.c **** 	u8x8->x_offset = u8x8->display_info->default_x_offset;
 105:..\u8g2_csrc/u8x8_d_sh1108.c ****       }
 106:..\u8g2_csrc/u8x8_d_sh1108.c ****       else
 107:..\u8g2_csrc/u8x8_d_sh1108.c ****       {
 108:..\u8g2_csrc/u8x8_d_sh1108.c **** 	u8x8_cad_SendSequence(u8x8, u8x8_d_sh1108_160x160_noname_powersave1_seq);
 109:..\u8g2_csrc/u8x8_d_sh1108.c **** 	u8x8->x_offset = u8x8->display_info->flipmode_x_offset;
 110:..\u8g2_csrc/u8x8_d_sh1108.c ****       }
 111:..\u8g2_csrc/u8x8_d_sh1108.c ****       break;
 112:..\u8g2_csrc/u8x8_d_sh1108.c **** #ifdef U8X8_WITH_SET_CONTRAST
 113:..\u8g2_csrc/u8x8_d_sh1108.c ****     case U8X8_MSG_DISPLAY_SET_CONTRAST:
 114:..\u8g2_csrc/u8x8_d_sh1108.c ****       u8x8_cad_StartTransfer(u8x8);
 115:..\u8g2_csrc/u8x8_d_sh1108.c ****       u8x8_cad_SendCmd(u8x8, 0x081 );
 116:..\u8g2_csrc/u8x8_d_sh1108.c ****       u8x8_cad_SendArg(u8x8, arg_int );	/* sh1108 has range from 0 to 255 */
 117:..\u8g2_csrc/u8x8_d_sh1108.c ****       u8x8_cad_EndTransfer(u8x8);
 118:..\u8g2_csrc/u8x8_d_sh1108.c ****       break;
 119:..\u8g2_csrc/u8x8_d_sh1108.c **** #endif
 120:..\u8g2_csrc/u8x8_d_sh1108.c ****     case U8X8_MSG_DISPLAY_DRAW_TILE:
 121:..\u8g2_csrc/u8x8_d_sh1108.c ****       u8x8_cad_StartTransfer(u8x8);
 122:..\u8g2_csrc/u8x8_d_sh1108.c ****       x = ((u8x8_tile_t *)arg_ptr)->x_pos;    
 123:..\u8g2_csrc/u8x8_d_sh1108.c ****       x *= 8;
 124:..\u8g2_csrc/u8x8_d_sh1108.c ****       x += u8x8->x_offset;
 125:..\u8g2_csrc/u8x8_d_sh1108.c **** 
 126:..\u8g2_csrc/u8x8_d_sh1108.c ****       //u8x8_cad_SendCmd(u8x8, 0x040 ); /* set line offset to 0 */
 127:..\u8g2_csrc/u8x8_d_sh1108.c **** 
 128:..\u8g2_csrc/u8x8_d_sh1108.c ****       // set column address
 129:..\u8g2_csrc/u8x8_d_sh1108.c ****       u8x8_cad_SendCmd(u8x8, 0x010 | (x >> 4));
 130:..\u8g2_csrc/u8x8_d_sh1108.c ****       u8x8_cad_SendCmd(u8x8, 0x000 | ((x & 15))); 
 131:..\u8g2_csrc/u8x8_d_sh1108.c ****       
 132:..\u8g2_csrc/u8x8_d_sh1108.c ****       // set page address
 133:..\u8g2_csrc/u8x8_d_sh1108.c ****       u8x8_cad_SendCmd(u8x8, 0x0b0 ); 		// page cmd is a two byte command
 134:..\u8g2_csrc/u8x8_d_sh1108.c ****       u8x8_cad_SendArg(u8x8, (((u8x8_tile_t *)arg_ptr)->y_pos)); 
 135:..\u8g2_csrc/u8x8_d_sh1108.c ****     
 136:..\u8g2_csrc/u8x8_d_sh1108.c ****       do
 137:..\u8g2_csrc/u8x8_d_sh1108.c ****       {
 138:..\u8g2_csrc/u8x8_d_sh1108.c **** 	c = ((u8x8_tile_t *)arg_ptr)->cnt;
 139:..\u8g2_csrc/u8x8_d_sh1108.c **** 	ptr = ((u8x8_tile_t *)arg_ptr)->tile_ptr;
 140:..\u8g2_csrc/u8x8_d_sh1108.c **** 	u8x8_cad_SendData(u8x8, c*8, ptr); 	/* note: SendData can not handle more than 255 bytes */
 141:..\u8g2_csrc/u8x8_d_sh1108.c **** 	arg_int--;
 142:..\u8g2_csrc/u8x8_d_sh1108.c ****       } while( arg_int > 0 );
 143:..\u8g2_csrc/u8x8_d_sh1108.c ****       
 144:..\u8g2_csrc/u8x8_d_sh1108.c ****       u8x8_cad_EndTransfer(u8x8);
 145:..\u8g2_csrc/u8x8_d_sh1108.c ****       break;
 146:..\u8g2_csrc/u8x8_d_sh1108.c ****     default:
 147:..\u8g2_csrc/u8x8_d_sh1108.c ****       return 0;
 148:..\u8g2_csrc/u8x8_d_sh1108.c ****   }
ARM GAS  C:\Users\info\AppData\Local\Temp\ccpdNS7R.s 			page 50


 149:..\u8g2_csrc/u8x8_d_sh1108.c ****   return 1;
 674              		.loc 1 149 0
 675 0020 0120     		movs	r0, #1
 676 0022 F8BD     		pop	{r3, r4, r5, r6, r7, pc}
 677              	.LVL4:
 678              	.L8:
  98:..\u8g2_csrc/u8x8_d_sh1108.c ****       break;
 679              		.loc 1 98 0
 680 0024 2B49     		ldr	r1, .L13+4
 681 0026 FFF7FEFF 		bl	u8x8_cad_SendSequence
 682              	.LVL5:
 683              		.loc 1 149 0
 684 002a 0120     		movs	r0, #1
 685 002c F8BD     		pop	{r3, r4, r5, r6, r7, pc}
 686              	.LVL6:
 687              	.L5:
 101:..\u8g2_csrc/u8x8_d_sh1108.c ****       {
 688              		.loc 1 101 0
 689 002e 42B9     		cbnz	r2, .L9
 103:..\u8g2_csrc/u8x8_d_sh1108.c **** 	u8x8->x_offset = u8x8->display_info->default_x_offset;
 690              		.loc 1 103 0
 691 0030 2949     		ldr	r1, .L13+8
 692 0032 FFF7FEFF 		bl	u8x8_cad_SendSequence
 693              	.LVL7:
 104:..\u8g2_csrc/u8x8_d_sh1108.c ****       }
 694              		.loc 1 104 0
 695 0036 2B68     		ldr	r3, [r5]
 696 0038 9B7C     		ldrb	r3, [r3, #18]	@ zero_extendqisi2
 697 003a 85F82230 		strb	r3, [r5, #34]
 698              		.loc 1 149 0
 699 003e 0120     		movs	r0, #1
 700 0040 F8BD     		pop	{r3, r4, r5, r6, r7, pc}
 701              	.LVL8:
 702              	.L9:
 108:..\u8g2_csrc/u8x8_d_sh1108.c **** 	u8x8->x_offset = u8x8->display_info->flipmode_x_offset;
 703              		.loc 1 108 0
 704 0042 2649     		ldr	r1, .L13+12
 705 0044 FFF7FEFF 		bl	u8x8_cad_SendSequence
 706              	.LVL9:
 109:..\u8g2_csrc/u8x8_d_sh1108.c ****       }
 707              		.loc 1 109 0
 708 0048 2B68     		ldr	r3, [r5]
 709 004a DB7C     		ldrb	r3, [r3, #19]	@ zero_extendqisi2
 710 004c 85F82230 		strb	r3, [r5, #34]
 711              		.loc 1 149 0
 712 0050 0120     		movs	r0, #1
 713 0052 F8BD     		pop	{r3, r4, r5, r6, r7, pc}
 714              	.LVL10:
 715              	.L6:
 114:..\u8g2_csrc/u8x8_d_sh1108.c ****       u8x8_cad_SendCmd(u8x8, 0x081 );
 716              		.loc 1 114 0
 717 0054 FFF7FEFF 		bl	u8x8_cad_StartTransfer
 718              	.LVL11:
 115:..\u8g2_csrc/u8x8_d_sh1108.c ****       u8x8_cad_SendArg(u8x8, arg_int );	/* sh1108 has range from 0 to 255 */
 719              		.loc 1 115 0
 720 0058 8121     		movs	r1, #129
 721 005a 2846     		mov	r0, r5
ARM GAS  C:\Users\info\AppData\Local\Temp\ccpdNS7R.s 			page 51


 722 005c FFF7FEFF 		bl	u8x8_cad_SendCmd
 723              	.LVL12:
 116:..\u8g2_csrc/u8x8_d_sh1108.c ****       u8x8_cad_EndTransfer(u8x8);
 724              		.loc 1 116 0
 725 0060 2146     		mov	r1, r4
 726 0062 2846     		mov	r0, r5
 727 0064 FFF7FEFF 		bl	u8x8_cad_SendArg
 728              	.LVL13:
 117:..\u8g2_csrc/u8x8_d_sh1108.c ****       break;
 729              		.loc 1 117 0
 730 0068 2846     		mov	r0, r5
 731 006a FFF7FEFF 		bl	u8x8_cad_EndTransfer
 732              	.LVL14:
 733              		.loc 1 149 0
 734 006e 0120     		movs	r0, #1
 118:..\u8g2_csrc/u8x8_d_sh1108.c **** #endif
 735              		.loc 1 118 0
 736 0070 F8BD     		pop	{r3, r4, r5, r6, r7, pc}
 737              	.LVL15:
 738              	.L7:
 121:..\u8g2_csrc/u8x8_d_sh1108.c ****       x = ((u8x8_tile_t *)arg_ptr)->x_pos;    
 739              		.loc 1 121 0
 740 0072 FFF7FEFF 		bl	u8x8_cad_StartTransfer
 741              	.LVL16:
 122:..\u8g2_csrc/u8x8_d_sh1108.c ****       x *= 8;
 742              		.loc 1 122 0
 743 0076 7779     		ldrb	r7, [r6, #5]	@ zero_extendqisi2
 744              	.LVL17:
 123:..\u8g2_csrc/u8x8_d_sh1108.c ****       x += u8x8->x_offset;
 745              		.loc 1 123 0
 746 0078 FF00     		lsls	r7, r7, #3
 747              	.LVL18:
 748 007a FFB2     		uxtb	r7, r7
 749              	.LVL19:
 124:..\u8g2_csrc/u8x8_d_sh1108.c **** 
 750              		.loc 1 124 0
 751 007c 95F82230 		ldrb	r3, [r5, #34]	@ zero_extendqisi2
 752 0080 1F44     		add	r7, r7, r3
 753              	.LVL20:
 754 0082 FFB2     		uxtb	r7, r7
 755              	.LVL21:
 129:..\u8g2_csrc/u8x8_d_sh1108.c ****       u8x8_cad_SendCmd(u8x8, 0x000 | ((x & 15))); 
 756              		.loc 1 129 0
 757 0084 3909     		lsrs	r1, r7, #4
 758 0086 41F01001 		orr	r1, r1, #16
 759 008a 2846     		mov	r0, r5
 760 008c FFF7FEFF 		bl	u8x8_cad_SendCmd
 761              	.LVL22:
 130:..\u8g2_csrc/u8x8_d_sh1108.c ****       
 762              		.loc 1 130 0
 763 0090 07F00F01 		and	r1, r7, #15
 764 0094 2846     		mov	r0, r5
 765 0096 FFF7FEFF 		bl	u8x8_cad_SendCmd
 766              	.LVL23:
 133:..\u8g2_csrc/u8x8_d_sh1108.c ****       u8x8_cad_SendArg(u8x8, (((u8x8_tile_t *)arg_ptr)->y_pos)); 
 767              		.loc 1 133 0
 768 009a B021     		movs	r1, #176
ARM GAS  C:\Users\info\AppData\Local\Temp\ccpdNS7R.s 			page 52


 769 009c 2846     		mov	r0, r5
 770 009e FFF7FEFF 		bl	u8x8_cad_SendCmd
 771              	.LVL24:
 134:..\u8g2_csrc/u8x8_d_sh1108.c ****     
 772              		.loc 1 134 0
 773 00a2 B179     		ldrb	r1, [r6, #6]	@ zero_extendqisi2
 774 00a4 2846     		mov	r0, r5
 775 00a6 FFF7FEFF 		bl	u8x8_cad_SendArg
 776              	.LVL25:
 777              	.L10:
 138:..\u8g2_csrc/u8x8_d_sh1108.c **** 	ptr = ((u8x8_tile_t *)arg_ptr)->tile_ptr;
 778              		.loc 1 138 0 discriminator 1
 779 00aa 3179     		ldrb	r1, [r6, #4]	@ zero_extendqisi2
 780              	.LVL26:
 140:..\u8g2_csrc/u8x8_d_sh1108.c **** 	arg_int--;
 781              		.loc 1 140 0 discriminator 1
 782 00ac C900     		lsls	r1, r1, #3
 783              	.LVL27:
 784 00ae 3268     		ldr	r2, [r6]
 785 00b0 01F0F801 		and	r1, r1, #248
 786 00b4 2846     		mov	r0, r5
 787 00b6 FFF7FEFF 		bl	u8x8_cad_SendData
 788              	.LVL28:
 141:..\u8g2_csrc/u8x8_d_sh1108.c ****       } while( arg_int > 0 );
 789              		.loc 1 141 0 discriminator 1
 790 00ba 621E     		subs	r2, r4, #1
 791              	.LVL29:
 142:..\u8g2_csrc/u8x8_d_sh1108.c ****       
 792              		.loc 1 142 0 discriminator 1
 793 00bc 12F0FF04 		ands	r4, r2, #255
 794 00c0 F3D1     		bne	.L10
 144:..\u8g2_csrc/u8x8_d_sh1108.c ****       break;
 795              		.loc 1 144 0
 796 00c2 2846     		mov	r0, r5
 797 00c4 FFF7FEFF 		bl	u8x8_cad_EndTransfer
 798              	.LVL30:
 799              		.loc 1 149 0
 800 00c8 0120     		movs	r0, #1
 145:..\u8g2_csrc/u8x8_d_sh1108.c ****     default:
 801              		.loc 1 145 0
 802 00ca F8BD     		pop	{r3, r4, r5, r6, r7, pc}
 803              	.LVL31:
 804              	.L11:
 147:..\u8g2_csrc/u8x8_d_sh1108.c ****   }
 805              		.loc 1 147 0
 806 00cc 0020     		movs	r0, #0
 807              	.LVL32:
 150:..\u8g2_csrc/u8x8_d_sh1108.c **** }
 808              		.loc 1 150 0
 809 00ce F8BD     		pop	{r3, r4, r5, r6, r7, pc}
 810              	.LVL33:
 811              	.L14:
 812              		.align	2
 813              	.L13:
 814 00d0 00000000 		.word	.LANCHOR0
 815 00d4 08000000 		.word	.LANCHOR0+8
 816 00d8 10000000 		.word	.LANCHOR0+16
ARM GAS  C:\Users\info\AppData\Local\Temp\ccpdNS7R.s 			page 53


 817 00dc 18000000 		.word	.LANCHOR0+24
 818              		.cfi_endproc
 819              	.LFE0:
 820              		.size	u8x8_d_sh1108_generic, .-u8x8_d_sh1108_generic
 821              		.section	.text.u8x8_d_sh1108_160x160,"ax",%progbits
 822              		.align	2
 823              		.global	u8x8_d_sh1108_160x160
 824              		.thumb
 825              		.thumb_func
 826              		.type	u8x8_d_sh1108_160x160, %function
 827              	u8x8_d_sh1108_160x160:
 828              	.LFB1:
 151:..\u8g2_csrc/u8x8_d_sh1108.c **** 
 152:..\u8g2_csrc/u8x8_d_sh1108.c **** /*==================================================*/
 153:..\u8g2_csrc/u8x8_d_sh1108.c **** 
 154:..\u8g2_csrc/u8x8_d_sh1108.c **** /* issue #619, 160x160 OLED */
 155:..\u8g2_csrc/u8x8_d_sh1108.c **** static const uint8_t u8x8_d_sh1108_160x160_noname_init_seq[] = {
 156:..\u8g2_csrc/u8x8_d_sh1108.c ****     
 157:..\u8g2_csrc/u8x8_d_sh1108.c ****   U8X8_START_TRANSFER(),             	/* enable chip, delay is part of the transfer start */
 158:..\u8g2_csrc/u8x8_d_sh1108.c ****     
 159:..\u8g2_csrc/u8x8_d_sh1108.c ****   U8X8_C(0x0ae),		                /* display off */
 160:..\u8g2_csrc/u8x8_d_sh1108.c ****   U8X8_CA(0x0d5, 0x060),		/* clock divide ratio and oscillator frequency */
 161:..\u8g2_csrc/u8x8_d_sh1108.c ****   U8X8_CA(0x0a9, 0x003), 		/* set display resolution, 0=64x160, 1=96x160, 2=128x160, 3=160x160 */
 162:..\u8g2_csrc/u8x8_d_sh1108.c ****   U8X8_C(0x020),		                /* use page addressing mode */
 163:..\u8g2_csrc/u8x8_d_sh1108.c ****   U8X8_CA(0x081, 0x01f), 		/* set contrast control */
 164:..\u8g2_csrc/u8x8_d_sh1108.c ****   U8X8_CA(0x0ad, 0x80),			/* DC/DC control 80=Use external Vpp, 89=Use internal DC/DC*/
 165:..\u8g2_csrc/u8x8_d_sh1108.c ****   U8X8_C(0x030),				/* set discharge VSL level, 0x030..0x03f */
 166:..\u8g2_csrc/u8x8_d_sh1108.c ****   U8X8_CA(0x0d9, 0x028), 		/* pre-charge period */
 167:..\u8g2_csrc/u8x8_d_sh1108.c ****   U8X8_CA(0x0db, 0x035), 		/* vcomh deselect level */    
 168:..\u8g2_csrc/u8x8_d_sh1108.c ****   U8X8_CA(0x0dc, 0x035),		/* VSEGM Deselect Level */
 169:..\u8g2_csrc/u8x8_d_sh1108.c **** 
 170:..\u8g2_csrc/u8x8_d_sh1108.c ****   U8X8_C(0x0a0),				/* segment remap a0/a1*/
 171:..\u8g2_csrc/u8x8_d_sh1108.c ****   U8X8_C(0x0c0),				/* c0: scan dir normal, c8: reverse */
 172:..\u8g2_csrc/u8x8_d_sh1108.c ****   
 173:..\u8g2_csrc/u8x8_d_sh1108.c ****   U8X8_C(0x0a4),				/* output ram to display */
 174:..\u8g2_csrc/u8x8_d_sh1108.c ****   U8X8_C(0x0a6),				/* none inverted normal display mode */
 175:..\u8g2_csrc/u8x8_d_sh1108.c ****     
 176:..\u8g2_csrc/u8x8_d_sh1108.c ****   U8X8_END_TRANSFER(),             	/* disable chip */
 177:..\u8g2_csrc/u8x8_d_sh1108.c ****   U8X8_END()             			/* end of sequence */
 178:..\u8g2_csrc/u8x8_d_sh1108.c **** };
 179:..\u8g2_csrc/u8x8_d_sh1108.c **** 
 180:..\u8g2_csrc/u8x8_d_sh1108.c **** static const u8x8_display_info_t u8x8_sh1108_160x160_noname_display_info =
 181:..\u8g2_csrc/u8x8_d_sh1108.c **** {
 182:..\u8g2_csrc/u8x8_d_sh1108.c ****   /* chip_enable_level = */ 0,
 183:..\u8g2_csrc/u8x8_d_sh1108.c ****   /* chip_disable_level = */ 1,
 184:..\u8g2_csrc/u8x8_d_sh1108.c ****   
 185:..\u8g2_csrc/u8x8_d_sh1108.c ****   /* post_chip_enable_wait_ns = */ 60,
 186:..\u8g2_csrc/u8x8_d_sh1108.c ****   /* pre_chip_disable_wait_ns = */ 120,
 187:..\u8g2_csrc/u8x8_d_sh1108.c ****   /* reset_pulse_width_ms = */ 100, 	/* sh1108: 3 us */
 188:..\u8g2_csrc/u8x8_d_sh1108.c ****   /* post_reset_wait_ms = */ 100, /* sometimes OLEDs need much longer setup time */
 189:..\u8g2_csrc/u8x8_d_sh1108.c ****   /* sda_setup_time_ns = */ 100,		/* sh1108: 100ns */
 190:..\u8g2_csrc/u8x8_d_sh1108.c ****   /* sck_pulse_width_ns = */ 100,	/* sh1108: 100ns */
 191:..\u8g2_csrc/u8x8_d_sh1108.c ****   /* sck_clock_hz = */ 4000000UL,	/* since Arduino 1.6.0, the SPI bus speed in Hz. Should be  10000
 192:..\u8g2_csrc/u8x8_d_sh1108.c ****   /* spi_mode = */ 0,		/* active high, rising edge */
 193:..\u8g2_csrc/u8x8_d_sh1108.c ****   /* i2c_bus_clock_100kHz = */ 4,
 194:..\u8g2_csrc/u8x8_d_sh1108.c ****   /* data_setup_time_ns = */ 40,
 195:..\u8g2_csrc/u8x8_d_sh1108.c ****   /* write_pulse_width_ns = */ 150,	/* sh1108: cycle time is 300ns, so use 300/2 = 150 */
ARM GAS  C:\Users\info\AppData\Local\Temp\ccpdNS7R.s 			page 54


 196:..\u8g2_csrc/u8x8_d_sh1108.c ****   /* tile_width = */ 20,
 197:..\u8g2_csrc/u8x8_d_sh1108.c ****   /* tile_height = */ 20,
 198:..\u8g2_csrc/u8x8_d_sh1108.c ****   /* default_x_offset = */ 0,
 199:..\u8g2_csrc/u8x8_d_sh1108.c ****   /* flipmode_x_offset = */ 0,
 200:..\u8g2_csrc/u8x8_d_sh1108.c ****   /* pixel_width = */ 160,
 201:..\u8g2_csrc/u8x8_d_sh1108.c ****   /* pixel_height = */ 160
 202:..\u8g2_csrc/u8x8_d_sh1108.c **** };
 203:..\u8g2_csrc/u8x8_d_sh1108.c **** 
 204:..\u8g2_csrc/u8x8_d_sh1108.c **** uint8_t u8x8_d_sh1108_160x160(u8x8_t *u8x8, uint8_t msg, uint8_t arg_int, void *arg_ptr)
 205:..\u8g2_csrc/u8x8_d_sh1108.c **** {
 829              		.loc 1 205 0
 830              		.cfi_startproc
 831              		@ args = 0, pretend = 0, frame = 0
 832              		@ frame_needed = 0, uses_anonymous_args = 0
 833              	.LVL34:
 834 0000 38B5     		push	{r3, r4, r5, lr}
 835              		.cfi_def_cfa_offset 16
 836              		.cfi_offset 3, -16
 837              		.cfi_offset 4, -12
 838              		.cfi_offset 5, -8
 839              		.cfi_offset 14, -4
 840 0002 0546     		mov	r5, r0
 841 0004 0C46     		mov	r4, r1
 206:..\u8g2_csrc/u8x8_d_sh1108.c ****     
 207:..\u8g2_csrc/u8x8_d_sh1108.c ****   if ( u8x8_d_sh1108_generic(u8x8, msg, arg_int, arg_ptr) != 0 )
 842              		.loc 1 207 0
 843 0006 FFF7FEFF 		bl	u8x8_d_sh1108_generic
 844              	.LVL35:
 845 000a 98B9     		cbnz	r0, .L19
 846 000c 0346     		mov	r3, r0
 208:..\u8g2_csrc/u8x8_d_sh1108.c ****     return 1;
 209:..\u8g2_csrc/u8x8_d_sh1108.c ****   
 210:..\u8g2_csrc/u8x8_d_sh1108.c ****   switch(msg)
 847              		.loc 1 210 0
 848 000e 092C     		cmp	r4, #9
 849 0010 0AD0     		beq	.L17
 850 0012 0A2C     		cmp	r4, #10
 851 0014 0FD1     		bne	.L16
 211:..\u8g2_csrc/u8x8_d_sh1108.c ****   {
 212:..\u8g2_csrc/u8x8_d_sh1108.c ****     case U8X8_MSG_DISPLAY_INIT:
 213:..\u8g2_csrc/u8x8_d_sh1108.c ****       u8x8_d_helper_display_init(u8x8);
 852              		.loc 1 213 0
 853 0016 2846     		mov	r0, r5
 854 0018 FFF7FEFF 		bl	u8x8_d_helper_display_init
 855              	.LVL36:
 214:..\u8g2_csrc/u8x8_d_sh1108.c ****       u8x8_cad_SendSequence(u8x8, u8x8_d_sh1108_160x160_noname_init_seq);
 856              		.loc 1 214 0
 857 001c 0749     		ldr	r1, .L21
 858 001e 2846     		mov	r0, r5
 859 0020 FFF7FEFF 		bl	u8x8_cad_SendSequence
 860              	.LVL37:
 215:..\u8g2_csrc/u8x8_d_sh1108.c ****       break;
 216:..\u8g2_csrc/u8x8_d_sh1108.c ****     case U8X8_MSG_DISPLAY_SETUP_MEMORY:
 217:..\u8g2_csrc/u8x8_d_sh1108.c ****       u8x8_d_helper_display_setup_memory(u8x8, &u8x8_sh1108_160x160_noname_display_info);
 218:..\u8g2_csrc/u8x8_d_sh1108.c ****       break;
 219:..\u8g2_csrc/u8x8_d_sh1108.c ****     default:
 220:..\u8g2_csrc/u8x8_d_sh1108.c ****       return 0;
ARM GAS  C:\Users\info\AppData\Local\Temp\ccpdNS7R.s 			page 55


 221:..\u8g2_csrc/u8x8_d_sh1108.c ****   }
 222:..\u8g2_csrc/u8x8_d_sh1108.c ****   return 1;
 861              		.loc 1 222 0
 862 0024 0123     		movs	r3, #1
 215:..\u8g2_csrc/u8x8_d_sh1108.c ****       break;
 863              		.loc 1 215 0
 864 0026 06E0     		b	.L16
 865              	.L17:
 217:..\u8g2_csrc/u8x8_d_sh1108.c ****       break;
 866              		.loc 1 217 0
 867 0028 0549     		ldr	r1, .L21+4
 868 002a 2846     		mov	r0, r5
 869 002c FFF7FEFF 		bl	u8x8_d_helper_display_setup_memory
 870              	.LVL38:
 871              		.loc 1 222 0
 872 0030 0123     		movs	r3, #1
 218:..\u8g2_csrc/u8x8_d_sh1108.c ****     default:
 873              		.loc 1 218 0
 874 0032 00E0     		b	.L16
 875              	.L19:
 208:..\u8g2_csrc/u8x8_d_sh1108.c ****   
 876              		.loc 1 208 0
 877 0034 0123     		movs	r3, #1
 878              	.L16:
 223:..\u8g2_csrc/u8x8_d_sh1108.c **** }
 879              		.loc 1 223 0
 880 0036 1846     		mov	r0, r3
 881 0038 38BD     		pop	{r3, r4, r5, pc}
 882              	.LVL39:
 883              	.L22:
 884 003a 00BF     		.align	2
 885              	.L21:
 886 003c 20000000 		.word	.LANCHOR0+32
 887 0040 50000000 		.word	.LANCHOR0+80
 888              		.cfi_endproc
 889              	.LFE1:
 890              		.size	u8x8_d_sh1108_160x160, .-u8x8_d_sh1108_160x160
 891              		.section	.rodata
 892              		.align	2
 893              		.set	.LANCHOR0,. + 0
 894              		.type	u8x8_d_sh1108_noname_powersave0_seq, %object
 895              		.size	u8x8_d_sh1108_noname_powersave0_seq, 5
 896              	u8x8_d_sh1108_noname_powersave0_seq:
 897 0000 18       		.byte	24
 898 0001 15       		.byte	21
 899 0002 AF       		.byte	-81
 900 0003 19       		.byte	25
 901 0004 FF       		.byte	-1
 902 0005 000000   		.space	3
 903              		.type	u8x8_d_sh1108_noname_powersave1_seq, %object
 904              		.size	u8x8_d_sh1108_noname_powersave1_seq, 5
 905              	u8x8_d_sh1108_noname_powersave1_seq:
 906 0008 18       		.byte	24
 907 0009 15       		.byte	21
 908 000a AE       		.byte	-82
 909 000b 19       		.byte	25
 910 000c FF       		.byte	-1
ARM GAS  C:\Users\info\AppData\Local\Temp\ccpdNS7R.s 			page 56


 911 000d 000000   		.space	3
 912              		.type	u8x8_d_sh1108_160x160_noname_powersave0_seq, %object
 913              		.size	u8x8_d_sh1108_160x160_noname_powersave0_seq, 7
 914              	u8x8_d_sh1108_160x160_noname_powersave0_seq:
 915 0010 18       		.byte	24
 916 0011 15       		.byte	21
 917 0012 A0       		.byte	-96
 918 0013 15       		.byte	21
 919 0014 C0       		.byte	-64
 920 0015 19       		.byte	25
 921 0016 FF       		.byte	-1
 922 0017 00       		.space	1
 923              		.type	u8x8_d_sh1108_160x160_noname_powersave1_seq, %object
 924              		.size	u8x8_d_sh1108_160x160_noname_powersave1_seq, 7
 925              	u8x8_d_sh1108_160x160_noname_powersave1_seq:
 926 0018 18       		.byte	24
 927 0019 15       		.byte	21
 928 001a A1       		.byte	-95
 929 001b 15       		.byte	21
 930 001c C8       		.byte	-56
 931 001d 19       		.byte	25
 932 001e FF       		.byte	-1
 933 001f 00       		.space	1
 934              		.type	u8x8_d_sh1108_160x160_noname_init_seq, %object
 935              		.size	u8x8_d_sh1108_160x160_noname_init_seq, 45
 936              	u8x8_d_sh1108_160x160_noname_init_seq:
 937 0020 18       		.byte	24
 938 0021 15       		.byte	21
 939 0022 AE       		.byte	-82
 940 0023 15       		.byte	21
 941 0024 D5       		.byte	-43
 942 0025 16       		.byte	22
 943 0026 60       		.byte	96
 944 0027 15       		.byte	21
 945 0028 A9       		.byte	-87
 946 0029 16       		.byte	22
 947 002a 03       		.byte	3
 948 002b 15       		.byte	21
 949 002c 20       		.byte	32
 950 002d 15       		.byte	21
 951 002e 81       		.byte	-127
 952 002f 16       		.byte	22
 953 0030 1F       		.byte	31
 954 0031 15       		.byte	21
 955 0032 AD       		.byte	-83
 956 0033 16       		.byte	22
 957 0034 80       		.byte	-128
 958 0035 15       		.byte	21
 959 0036 30       		.byte	48
 960 0037 15       		.byte	21
 961 0038 D9       		.byte	-39
 962 0039 16       		.byte	22
 963 003a 28       		.byte	40
 964 003b 15       		.byte	21
 965 003c DB       		.byte	-37
 966 003d 16       		.byte	22
 967 003e 35       		.byte	53
ARM GAS  C:\Users\info\AppData\Local\Temp\ccpdNS7R.s 			page 57


 968 003f 15       		.byte	21
 969 0040 DC       		.byte	-36
 970 0041 16       		.byte	22
 971 0042 35       		.byte	53
 972 0043 15       		.byte	21
 973 0044 A0       		.byte	-96
 974 0045 15       		.byte	21
 975 0046 C0       		.byte	-64
 976 0047 15       		.byte	21
 977 0048 A4       		.byte	-92
 978 0049 15       		.byte	21
 979 004a A6       		.byte	-90
 980 004b 19       		.byte	25
 981 004c FF       		.byte	-1
 982 004d 000000   		.space	3
 983              		.type	u8x8_sh1108_160x160_noname_display_info, %object
 984              		.size	u8x8_sh1108_160x160_noname_display_info, 24
 985              	u8x8_sh1108_160x160_noname_display_info:
 986 0050 00       		.byte	0
 987 0051 01       		.byte	1
 988 0052 3C       		.byte	60
 989 0053 78       		.byte	120
 990 0054 64       		.byte	100
 991 0055 64       		.byte	100
 992 0056 64       		.byte	100
 993 0057 64       		.byte	100
 994 0058 00093D00 		.word	4000000
 995 005c 00       		.byte	0
 996 005d 04       		.byte	4
 997 005e 28       		.byte	40
 998 005f 96       		.byte	-106
 999 0060 14       		.byte	20
 1000 0061 14       		.byte	20
 1001 0062 00       		.byte	0
 1002 0063 00       		.byte	0
 1003 0064 A000     		.short	160
 1004 0066 A000     		.short	160
 1005              		.text
 1006              	.Letext0:
 1007              		.file 2 "c:\\program files (x86)\\cypress\\psoc creator\\4.2\\psoc creator\\import\\gnu\\arm\\5.4.
 1008              		.file 3 "c:\\program files (x86)\\cypress\\psoc creator\\4.2\\psoc creator\\import\\gnu\\arm\\5.4.
 1009              		.file 4 "..\\u8g2_csrc\\u8x8.h"