ARM GAS  C:\Users\info\AppData\Local\Temp\ccvuDAPJ.s 			page 1


   1              		.syntax unified
   2              		.cpu cortex-m3
   3              		.fpu softvfp
   4              		.eabi_attribute 20, 1
   5              		.eabi_attribute 21, 1
   6              		.eabi_attribute 23, 3
   7              		.eabi_attribute 24, 1
   8              		.eabi_attribute 25, 1
   9              		.eabi_attribute 26, 1
  10              		.eabi_attribute 30, 1
  11              		.eabi_attribute 34, 1
  12              		.eabi_attribute 18, 4
  13              		.thumb
  14              		.syntax unified
  15              		.file	"u8x8_d_uc1601.c"
  16              		.text
  17              	.Ltext0:
  18              		.section	.gnu.lto_.profile.792a5c95,"",%progbits
  19 0000 789C6361 		.ascii	"x\234ca`d`e`\000\222\317\031\303\001\003\214\001K"
  19      60646065 
  19      600092CF 
  19      19C30103 
  19      8C014B
  20              		.text
  21              		.section	.gnu.lto_.inline.792a5c95,"",%progbits
  22 0000 789C6361 		.ascii	"x\234ca`d\000\201\205\014\010\000\024\271\311`\311\310"
  22      60640081 
  22      850C0800 
  22      14B9C960 
  22      C9C8
  23 0012 C0E4BA64 		.ascii	"\300\344\272d5#\003\177\223:\023H\224\211\033(3\301"
  23      3523037F 
  23      933A1348 
  23      94891B28 
  23      33C1
  24 0024 8F859791 		.ascii	"\217\205\227\221\201y\226a\013{\013;3\017Pt\202\337"
  24      81799661 
  24      0B7B0B3B 
  24      330F5074 
  24      82DF
  25 0036 043F4C06 		.ascii	"\004?L\006T1\224B\227g@\025g D\243)g\000\000hX\030["
  25      54319442 
  25      97674015 
  25      672044A3 
  25      29670000 
  26              		.text
  27              		.section	.gnu.lto_.jmpfuncs.792a5c95,"",%progbits
  28 0000 789C6361 		.ascii	"x\234ca`d\000\0011\006\004`d\300\006\000\003\374\000"
  28      60640001 
  28      31060460 
  28      64C00600 
  28      03FC00
  29 0013 1D       		.ascii	"\035"
  30              		.text
  31              		.section	.gnu.lto_.pureconst.792a5c95,"",%progbits
  32 0000 789C6361 		.ascii	"x\234ca`d`f`\000\222R\000\000r\000$"
  32      60646066 
ARM GAS  C:\Users\info\AppData\Local\Temp\ccvuDAPJ.s 			page 2


  32      60009252 
  32      00007200 
  32      24
  33              		.text
  34              		.section	.gnu.lto_u8x8_d_uc1601_128x32.792a5c95,"",%progbits
  35 0000 789C9D57 		.ascii	"x\234\235WkpTE\026\356s{f\356\314\235\247\222uQ&\020"
  35      6B705445 
  35      16EE737B 
  35      66EECC9D 
  35      A7927551 
  36 0016 8A0A102A 		.ascii	"\212\012\020*\002\321\252]\255\332\255u\377\355\357"
  36      02D1AA5D 
  36      ADDAAD75 
  36      FFEDEF
  37 0025 FDED1665 		.ascii	"\375\355\026e\305-\326\332\332\255-\324*\376X\271\231"
  37      C52DD6DA 
  37      DAAD2DD4 
  37      2AFE58B9 
  37      99
  38 0036 475EA282 		.ascii	"G^\242\202B\022c\000-7\013+\021\302KH|\215QA!\011F\242"
  38      42126300 
  38      2D370B2B 
  38      11C24B48 
  38      7C8D5141 
  39 004e 21441608 		.ascii	"!D\026\010\020\"\006d\002l\302+\3439\247\347\316\203"
  39      10220664 
  39      026CC22B 
  39      E339A7E7 
  39      CE83
  40 0060 9949DC9D 		.ascii	"\231I\334\235\2529\267o\337\376N\177\347\353sO\367\265"
  40      AA39B76F 
  40      DFFE4E7F 
  40      E7EB734F 
  40      F7B5
  41 0072 0910F4DB 		.ascii	"\011\020\364\333\347\027\342\011\274\216\342\037\356"
  41      E717E209 
  41      BC8EE21F 
  41      EE
  42 007f 13A0ADEF 		.ascii	"\023\240\255\357\023\242\332\251\351\376Mna:%[\033["
  42      13A2DAA9 
  42      E9FE4D6E 
  42      613A255B 
  42      1B5B
  43 0091 3B5B275B 		.ascii	";['[7[\217\032\003~\005\262Y\015\273\346\250[\"LC'\353"
  43      375B8F1A 
  43      037E05B2 
  43      590DBBE6 
  43      A85B224C 
  44 00a8 7158DDBA 		.ascii	"qX\335\272\325pj.~n\360s\227\325mX\015\267\325\360\200"
  44      D5706A2E 
  44      7E6EF073 
  44      97D56D58 
  44      0DB7D5F0 
  45 00bd 5735BC5A 		.ascii	"W5\274Z`\335a\201\020_DGH@\365\377\336g\015\364\003"
  45      60DD6181 
  45      105F4447 
  45      4840F5FF 
ARM GAS  C:\Users\info\AppData\Local\Temp\ccvuDAPJ.s 			page 3


  45      DE670DF4 
  46 00d2 50C37482 		.ascii	"P\303t\202\250\322\244\315\356\320\235.\303\355\361"
  46      A8D2A4CD 
  46      EED09D2E 
  46      C3EDF1
  47 00e1 067C7EA8 		.ascii	"\006|~\250\322\274\002b6H\250\210ohw58:\371\305:\243"
  47      D2BC0262 
  47      3648A888 
  47      6F687735 
  47      383AF9C5 
  48 00f7 6C9B6986 		.ascii	"l\233i\206\3143\237O\377!\036\212\316\215J!\022\232"
  48      CC339F4F 
  48      FF211E8A 
  48      CE8D4A21 
  48      129A
  49 0109 804783B0 		.ascii	"\200G\203\2602Hjl\2032\034\331\037\351h\225\327\265"
  49      32486A6C 
  49      83321CD9 
  49      1FE96895 
  49      D7B5
  50 011b A804B0E1 		.ascii	"\250\004\260\341m\274\267\345\234\217n5(\301\3337\007"
  50      6DBCB7E5 
  50      9C8F6E35 
  50      28C1DB37 
  50      07
  51 012c DEFECE21 		.ascii	"\336\376\316!K@`\273\361\310\300\025\357\2226\362in"
  51      4B4060BB 
  51      F1C8C015 
  51      EF9236F2 
  51      696E
  52 013e FEB3E98A 		.ascii	"\376\263\351\212J\011\357\200$\237\377\206 l\207\240"
  52      4A09EF80 
  52      249FFF86 
  52      206C87A0 
  53 014e C02E013B 		.ascii	"\300.\001;`\011\216\356\351\350\034\264\311RFN~\360"
  53      60098EEE 
  53      E9E81CB4 
  53      C952464E 
  53      7EF0
  54 0160 E95D0B39 		.ascii	"\351]\0139\364'S\"\025hWH\305\206\270\301\273\214k\356"
  54      F4275322 
  54      15685748 
  54      C586B8C1 
  54      BB8C6BEE 
  55 0174 3FF39221 		.ascii	"?\363\222!\313\030\327z\341\307!{\022\367\332!\267\271"
  55      CB18D77A 
  55      E1C7217B 
  55      12F7DA21 
  55      B7B9
  56 0186 92803B73 		.ascii	"\222\200;s\200\273\0308t\261\367\270!+\030\370\316\376"
  56      80BB1838 
  56      74B1F7B8 
  56      212B18F8 
  56      CEFE
  57 0198 D37BF424 		.ascii	"\323{\364$\260\377\220\307\\\017Qi\203\216{\311\332"
  57      B0FF90C7 
  57      5C0F5169 
ARM GAS  C:\Users\info\AppData\Local\Temp\ccvuDAPJ.s 			page 4


  57      838E7BC9 
  57      DA
  58 01a9 04EC8625 		.ascii	"\004\354\206%\004xy\240aD\312\307\031\334fv4\270J\337"
  58      047879A0 
  58      6144CAC7 
  58      19DC6676 
  58      34B84ADF 
  59 01bd 2670EC76 		.ascii	"&p\354v\255\357u3\026)\211J;\354\311\206\323\017G\367"
  59      ADEF7533 
  59      1629894A 
  59      3BECC986 
  59      D30F47F7 
  60 01d1 6D6BDB68 		.ascii	"mk\333h\310\3372rkc\327\011\013y\263\326\337d\306\252"
  60      C8DF3272 
  60      6B63D709 
  60      0B79B3D6 
  60      DF64C6AA 
  61 01e5 4B88F2BE 		.ascii	"K\210\362\276L\312I\\KWm\310\220\277c\\\370\340\340"
  61      4CCA495C 
  61      4B576DC8 
  61      90BF635C 
  61      F8E0E0
  62 01f8 FB7E8533 		.ascii	"\373~\2053\017<i\206\237 \320{y@#\273\2477y\035\021"
  62      0F3C6986 
  62      9F20D07B 
  62      794023BB 
  62      A737791D 
  63 020d 137F2570 		.ascii	"\023\177%p\000Ja?\376\367B)-,\012q\020\034\230\0032"
  63      004A613F 
  63      FEF74229 
  63      2D2C0A71 
  63      101C9803 
  64 0222 F3C9AE3F 		.ascii	"\363\311\256?\306\314D\"l\306&\365O\256\273\227\003"
  64      C6CC4422 
  64      6CC626F5 
  64      4FAEBB97 
  64      03
  65 0233 ABA5916E 		.ascii	"\253\245\221nv \305u\240\365r\003u\373\261\333\021@"
  65      7620C575 
  65      A0F57203 
  65      75FBB1DB 
  65      1140
  66 0245 A3CFA156 		.ascii	"\243\317\241V\021\265\346\001I\024\024\344\263\230\355"
  66      11B5E601 
  66      491414E4 
  66      B398ED
  67 0254 7CEA5EC0 		.ascii	"|\352^\300\315\022j.$\263\210L)\231\305d\226\012\232"
  67      CD126A2E 
  67      24B3884C 
  67      2999C564 
  67      960A9A
  68 0267 BF8CED32 		.ascii	"\277\214\3552A<\312yb!\256\"\321\226\012\021\3274\274"
  68      413CCA79 
  68      6221AE22 
  68      D1960A11 
  68      D734BC
  69 027a C80BD06C 		.ascii	"\310\013\320l\236H\314%\342ai\247\034\033\372\347\230"
ARM GAS  C:\Users\info\AppData\Local\Temp\ccvuDAPJ.s 			page 5


  69      9E48CC25 
  69      E26169A7 
  69      1C1BFAE7 
  69      98
  70 028b 7D03BC52 		.ascii	"}\003\274R\2151\306N\035\305<tb\326K\012\037:a\003\320"
  70      8D31C64E 
  70      1DC53C74 
  70      62D64B0A 
  70      1F3A6103 
  71 02a0 90DE0D5D 		.ascii	"\220\336\015]\016\312P\001.\274\355\036\037>\017\026"
  71      0ECA5001 
  71      2EBCED1E 
  71      1F3E0F16 
  72 02b0 62BD8100 		.ascii	"b\275\201\000\350\302\3251%\275\015\360\276\302\364"
  72      E8C2D531 
  72      25BD0DF0 
  72      BEC2F4
  73 02bf BED5DE97 		.ascii	"\276\325\336\227\304\030x\033\252\037lsZ\230F\306|\300"
  73      C418781B 
  73      AA1F6C73 
  73      5A9846C6 
  73      7CC0
  74 02d1 1856F143 		.ascii	"\030V\361C\205\271=\325\367\241\2560n\312\341M\243o"
  74      85B93DD5 
  74      F7A1AE30 
  74      6ECAE14D 
  74      A36F
  75 02e3 3A2CCC16 		.ascii	":,\314\026\306|\304\030\"\007\037+\314\325\316\266\355"
  75      C67CC418 
  75      22071F2B 
  75      CCD5CEB6 
  75      ED
  76 02f4 9AC278F1 		.ascii	"\232\302x\361\366\302{\257\327I\013\323\305\230\030"
  76      F6C27BAF 
  76      D7490BD3 
  76      C59818
  77 0303 636C84F9 		.ascii	"cl\204\371Da.\177\273\243]*\214\017oo\364\235\334\356"
  77      44612E7F 
  77      BBA35D2A 
  77      8C0F6F6F 
  77      F49DDCEE 
  78 0317 B130D719 		.ascii	"\2610\327\031\323\315\030;a>U\230\366\177\305c~\205"
  78      D3CD183B 
  78      613E5598 
  78      F67FC563 
  78      7E85
  79 0329 F1E3ED96 		.ascii	"\361\343\355\226}\3336z-\314\253n\302|\306\030\007a"
  79      7DDB367A 
  79      2DCCAB6E 
  79      C27CC618 
  79      0761
  80 033b 3E470C5E 		.ascii	">G\014^\343\232\024\021]\236\207\352\000\351M\002\215"
  80      E39A1411 
  80      5D9E87EA 
  80      00E94D02 
  80      8D
  81 034c 4134F6DA 		.ascii	"A4\366\332\021I\267\224]\235\235\343\303z\325]\263\316"
ARM GAS  C:\Users\info\AppData\Local\Temp\ccvuDAPJ.s 			page 6


  81      1149B794 
  81      5D9D9DE3 
  81      C37AD55D 
  81      B3CE
  82 035e 340351E9 		.ascii	"4\003Q\351Jh\010\203CP%\302R'\341\243\335\307X\020\207"
  82      4A680883 
  82      435025C2 
  82      5227E1A3 
  82      DDC75810 
  83 0373 4ADA5B1F 		.ascii	"J\332[\037_\363\341\350f\036\355\250\227:\247\350\227"
  83      5FF3E1E8 
  83      661EEDA8 
  83      973AA7E8 
  83      97
  84 0384 2D3BFEBA 		.ascii	"-;\376\272\0256W\257\347n\003\276\200*8L\257\013>K\\"
  84      153657AF 
  84      E76E03BE 
  84      802A384C 
  84      AF0B3E4B 
  85 0399 DAB3D385 		.ascii	"\332\263\323\205\220\271\344\343K\330\012<3\034\201"
  85      90B9E4E3 
  85      4BD80A3C 
  85      331C81
  86 03a8 AAA87433 		.ascii	"\252\250t3E[6E\015)Fb\315F~\206\236\004f\221\200\243"
  86      455B3645 
  86      0D294662 
  86      CD467E86 
  86      9E046691 
  87 03be 8A61547A 		.ascii	"\212aTz9\240\226\002\243}\011\215\212EOn<\376<\361\370"
  87      39A09602 
  87      A37D098D 
  87      8A454F6E 
  87      3CFE3CF1 
  88 03d3 EB29F372 		.ascii	"\353)\363r\342\011@\037\306\323{O<\0101\233\200\034"
  88      E209401F 
  88      C6D37B4F 
  88      3C08319B 
  88      801C
  89 03e5 1D4B05F5 		.ascii	"\035K\005\365\025\005u\037\007e\317\016J\212\263\020"
  89      1505751F 
  89      0765CF0E 
  89      4A8AB310 
  90 03f5 39193EB7 		.ascii	"9\031>\267\361!\225\367\224]\273\306;oz\211\213\216"
  90      F12195F7 
  90      945DBBC6 
  90      3B6F7A89 
  90      8B8E
  91 0407 6F687FB2 		.ascii	"oh\177\262\272\3045\207\350\226\222\202\332\333\000"
  91      BAC43587 
  91      E8969282 
  91      DADB00
  92 0416 3346F575 		.ascii	"3F\365unT\367\347\211\352\376z\351\312\023\325\034\030"
  92      6E54F7E7 
  92      89EAFE7A 
  92      E9CA13D5 
  92      1C18
  93 0428 C0A88EE7 		.ascii	"\300\250\216\347\211\352\005\362\363M*\250o\323A\351"
ARM GAS  C:\Users\info\AppData\Local\Temp\ccvuDAPJ.s 			page 7


  93      89EA05F2 
  93      F34D2AA8 
  93      6FD341E9 
  94 0438 16B503B3 		.ascii	"\026\265\003\263P\033LQ\313\341b\344\345rb&.C).'\323"
  94      501B4C51 
  94      CBE162E4 
  94      E5726226 
  94      2E43292E 
  95 044e 5C9CD902 		.ascii	"\\\234\331\002\333\224\300\267S\002g(\352\262h\367\317"
  95      DB94C0B7 
  95      53026728 
  95      EAB268F7 
  95      CF
  96 045f 427B3857 		.ascii	"B{8W\321\242<\212\026\325S\346\346D\361\0138\205Q|\227"
  96      D1A23C8A 
  96      16D553E6 
  96      E644F10B 
  96      3885517C 
  97 0474 3F8A22F8 		.ascii	"?\212\"\370O*\212\323*\212Q\010u\305\007&\354\212\360"
  97      4F2A8AD3 
  97      2A8A5108 
  97      75C50726 
  97      EC8AF0
  98 0487 9CCC59A5 		.ascii	"\234\314Y\245\332B\017\037\251\363\240\177\314\262\007"
  98      DA420F1F 
  98      A9F3A07F 
  98      CCB207
  99 0496 90169C49 		.ascii	"\220\026\234I\272n;\037\332\251\257x\230^\250\263\350"
  99      BA6E3B1F 
  99      DAA9AF78 
  99      985EA8B3 
  99      E8
 100 04a7 745AE352 		.ascii	"tZ\343R9\002+\330\345\331\305\312aQ\266\007\003\247"
 100      39022BD8 
 100      E5D9C5CA 
 100      6151B607 
 100      03A7
 101 04b9 48BD945B 		.ascii	"H\275\224[\232\017^\363\255x\227X\377\022\316\261\017"
 101      9A0F5EF3 
 101      AD789758 
 101      FF12CEB1 
 101      0F
 102 04ca 2E9DE795 		.ascii	".\235\347\225\217\306\263E\344#\303A5m?\336B<\004\\"
 102      8FC6B345 
 102      E423C341 
 102      356D3FDE 
 102      423C045C 
 103 04de 601F5C4A 		.ascii	"`\037\\JGa\005N\316\302\033\226\360\303\263\010\177"
 103      4761054E 
 103      CEC21B96 
 103      F0C3B308 
 103      7F
 104 04ef B140BEA0 		.ascii	"\261@\276\240\322\236\274J\217\315\244\364\367)\245"
 104      D29EBC4A 
 104      8FCDA4F4 
 104      F729A5
 105 04fe 2FA595DE 		.ascii	"/\245\225\336=h)\355\377y\322\376\220\226v\374\036i"
ARM GAS  C:\Users\info\AppData\Local\Temp\ccvuDAPJ.s 			page 8


 105      3D6829ED 
 105      FF79D2FE 
 105      909676FC 
 105      1E69
 106 0510 0339D2FA 		.ascii	"\0039\322\372\363K{\231}\360nq\345\377\225\366\307\264"
 106      F34B7B99 
 106      7DF06E71 
 106      E5FF95F6 
 106      C7B4
 107 0522 B45749DA 		.ascii	"\264WI\332\000K\353\316N\177;\027\315\311Bu}n\002\253"
 107      004BEBCE 
 107      4E7F3B17 
 107      CDC94275 
 107      7D6E02AB 
 108 0536 AC80B855 		.ascii	"\254\200\270U5\037\344\2529U\240j>\224\300\362%`\"\265"
 108      351FE4AA 
 108      3955A06A 
 108      3E94C0F2 
 108      256022B5 
 109 054a 2863935F 		.ascii	"(c\223_\325'\267\322j\200k\020\214\312y\354\341Va\017"
 109      D527B7D2 
 109      6A806B10 
 109      8CCA79EC 
 109      E156610F 
 110 055e B80DC175 		.ascii	"\270\015\301u\345\001\337F\005\210\304\356\024\000 "
 110      E501DF46 
 110      0588C4EE 
 110      140020
 111 056d 41DC4AE0 		.ascii	"A\334J\340F\232 \005\351\311\016\322\301.6\272g\214"
 111      469A2005 
 111      E9C90ED2 
 111      C12E36BA 
 111      678C
 112 057f F1BF6917 		.ascii	"\361\277i\027\274\354\243\257J\265h\301\314\027,\230"
 112      BCECA3AF 
 112      4AB568C1 
 112      CC172C98 
 113 058f F582F112 		.ascii	"\365\202\361\0224\001\236b\212\303r\036L\346.\302\024"
 113      34019E62 
 113      8AC3721E 
 113      4CE62EC2 
 113      14
 114 05a0 2F026FE1 		.ascii	"/\002o\3417q!G d>\312G/<\021\241k\234*\334Rs\251\\\315"
 114      37712147 
 114      20643ECA 
 114      472F3C11 
 114      A16B9C2A 
 115 05ba 54AC266B 		.ascii	"T\254&k\2705\370\262S\251\346\204[\350s\004\2644\246"
 115      B835F8B2 
 115      53A9E684 
 115      5BE87304 
 115      B434A6
 116 05cd 58D1BB18 		.ascii	"X\321\273\030Jf\345\374\237\223\225\002n\247\263\341"
 116      4A66E5FC 
 116      9F939502 
 116      6EA7B3E1 
 117 05dd 0E6754B8 		.ascii	"\016gT\270\261\246\007\224\213\005<\365\374\354y\026"
ARM GAS  C:\Users\info\AppData\Local\Temp\ccvuDAPJ.s 			page 9


 117      B1A60794 
 117      8B053CF5 
 117      FCEC7916 
 118 05ed D098899A 		.ascii	"\320\230\211\232\351v\237\032T\202]\231\237\000\363"
 118      E9769F1A 
 118      54825D99 
 118      9F00F3
 119 05fc C1067781 		.ascii	"\301\006w\201#\230r\250!\013q\024\016\371\372j\317f"
 119      239872A8 
 119      210B7114 
 119      0EF9FA6A 
 119      CF66
 120 060e B7DA9F02 		.ascii	"\267\332\237\0020\215C\306\300>c\302$\254\345^H\313"
 120      308D43C6 
 120      C03E63C2 
 120      24ACE55E 
 120      48CB
 121 0620 8D0EEFD4 		.ascii	"\215\016\357\324t?\254\\.\302Y\371|2\233\017SK\372X"
 121      743FAC5C 
 121      2EC259F9 
 121      7C329B0F 
 121      534BFA58 
 122 0634 A47C6089 		.ascii	"\244|`\211\034\237\360+'\245\331\022\025Z\253j\215$"
 122      1C9FF02B 
 122      27A5D912 
 122      155AAB6A 
 122      8D24
 123 0646 E2A35348 		.ascii	"\342\243SHc\211\246j~\243<,VN\006\336j:\223\214\254"
 123      6389A66A 
 123      7EA33C2C 
 123      564E06DE 
 123      6A3A938C 
 124 065b 0320ACCD 		.ascii	"\003 \254\315N+b\321Z\234\242u\331J\254\245\377S&E\231"
 124      4E2B62D1 
 124      5A9CA275 
 124      D94AACA5 
 124      FF532645 
 125 0670 1D1FD26A 		.ascii	"\035\037\322j\264\314L\332O\253\265Te\322HR\2662\354"
 125      B4CC4CDA 
 125      4FABB554 
 125      65D24852 
 125      B632EC
 126 0683 C94A1D1E 		.ascii	"\311J\035\036T\246\010\\\331\223$\260\354^\002o\024"
 126      54A6085C 
 126      D99324B0 
 126      EC5E026F 
 126      14
 127 0694 2660875A 		.ascii	"&`\207Z&\240\023\201\272$\201_\263\357\275\344{\031"
 127      26A01381 
 127      BA24815F 
 127      B3EFBDE4 
 127      7B19
 128 06a6 BF785E81 		.ascii	"\277x^\201_\236\022\037\005\370\010\037\346scM\254\377"
 128      5F9E121F 
 128      05F8081F 
 128      E673634D 
 128      ACFF
ARM GAS  C:\Users\info\AppData\Local\Temp\ccvuDAPJ.s 			page 10


 129 06b8 C502657C 		.ascii	"\305\002e|A\002\367c\001\365\226J\310{YT\226\250\364"
 129      4102F763 
 129      01F5964A 
 129      C87B5954 
 129      96A8F4
 130 06cb ECDBF988 		.ascii	"\354\333\371\210\342Y\216~\020z<\374\331\261\344\341"
 130      E2598E7E 
 130      107A3CFC 
 130      D9B1E4E1 
 131 06db 3701D0A0 		.ascii	"7\001\320\240\245\243\343\251\312i'\037\016\357h\322"
 131      A5A3E3A9 
 131      CA69271F 
 131      0EEF68D2 
 132 06eb 93286B27 		.ascii	"\223(k'\237\300\245\222n\017\232\362@\353\251\247\361"
 132      9FC0A592 
 132      6E0F9AF2 
 132      40EBA9A7 
 132      F1
 133 06fc B32220F0 		.ascii	"\263\" \360\003\032\342\232\217\352\004\325\206\241"
 133      031AE29A 
 133      8FEA04D5 
 133      86A1
 134 070a A3850B20 		.ascii	"\243\205\013 \325\227\027\265\254\372\342\027\255\025"
 134      D59717B5 
 134      ACFAE217 
 134      AD15
 135 0718 5C5FF873 		.ascii	"\\_\370s\343\022\205\033\346\357\201\011\3202\253\205"
 135      E312851B 
 135      E6EF8109 
 135      D032AB85 
 136 0728 C003DA3A 		.ascii	"\300\003\332:-\250\3359\265\026\273\367\327\366\354"
 136      2DA8DD39 
 136      B516BBF7 
 136      D7F6EC
 137 0737 365437C0 		.ascii	"6T7\300KZ\320\326z\372/t\305{\264.\266\016\266>\266"
 137      4B5AD0D6 
 137      7AFA2F74 
 137      C57BB42E 
 137      B60EB63E 
 138 074c 6EB6065B 		.ascii	"n\266\006[\235\276\206\000\247\305Y\212\227/\177\362"
 138      9DBE8600 
 138      A7C5598A 
 138      972F7FF2 
 139 075c F9C7563F 		.ascii	"\371\307V?\262\252\362\3315\225\330Z\373\330\252\247"
 139      B2AAF2D9 
 139      3595D85A 
 139      FBD8AAA7 
 140 076c 573D5F59 		.ascii	"W=_Y\361\253\225\025\313+\205\215:\344\337\236]\255"
 140      F1AB9515 
 140      CB2B858D 
 140      3AE4DF9E 
 140      5DAD
 141 077e 3FB566F5 		.ascii	"?\265f\365\252g\376\376\034_\377\361\334\032\211\177"
 141      AA67FEFE 
 141      1C5FFFF1 
 141      DC1A897F 
 142 078e A884B53F 		.ascii	"\250\204\265?\001\033\326<\252"
ARM GAS  C:\Users\info\AppData\Local\Temp\ccvuDAPJ.s 			page 11


 142      011BD63C 
 142      AA
 143              		.text
 144              		.section	.gnu.lto_u8x8_uc1601_128x32_display_info.792a5c95,"",%progbits
 145 0000 789C2DCD 		.ascii	"x\234-\315OK\002A\030\307\361\371\315\354n\272\256\253"
 145      4F4B0241 
 145      18C7F1F9 
 145      CDEC6EBA 
 145      AEAB
 146 0012 75F6E0CB 		.ascii	"u\366\340\313\360\320\313\351u\304\202\032u\362\322"
 146      F0D0CBE9 
 146      75C4821A 
 146      75F2D2
 147 0021 49140C02 		.ascii	"I\024\014\002\313r\335T\304<K!\024\364\347\024D\227"
 147      CB72DD54 
 147      C43C4B21 
 147      14F4E714 
 147      4497
 148 0033 443C74A8 		.ascii	"D<t\250\330\213\177\222\236\247\247\271|\347\303<3c"
 148      D88B7F92 
 148      9EA7A7B9 
 148      7CE7C33C 
 148      3363
 149 0045 29285E7B 		.ascii	")(^{\024\331)\365\243\361u_}\367c]6\012y\342`6\271q"
 149      14D929F5 
 149      A3F1755F 
 149      7DF7635D 
 149      360A79E2 
 150 005d 8501C88F 		.ascii	"\205\001\310\217\245\250f\330\200E\354|\\/\322B\276"
 150      A5A866D8 
 150      8045EC7C 
 150      5C2FD242 
 150      BE
 151 006e FCF47957 		.ascii	"\374\364yWO\011\263\304\347\331I\311\023>\360q\245\370"
 151      4F09B3C4 
 151      E7D949C9 
 151      133EF071 
 151      A5F8
 152 0080 B62FDC25 		.ascii	"\266/\334%\365\307\267\007\011!\277\\y\215\207\177O"
 152      F5C7B707 
 152      0921BF5C 
 152      798D877F 
 152      4F
 153 0091 6904474B 		.ascii	"i\004GK\036\017\277\343\320\221\201\014q5?~\201\320"
 153      1E0FBFE3 
 153      D091810C 
 153      71353F7E 
 153      81D0
 154 00a3 234E57ED 		.ascii	"#NW\355\221/t\210\223\323\321\372\377/\233X\035\257"
 154      912F7488 
 154      93D3D1FA 
 154      FF2F9B58 
 154      1DAF
 155 00b5 1B6E6110 		.ascii	"\033na\020\0346\202\310.\033\263\321\012-\3446\032\010"
 155      1C3682C8 
 155      2E1BB3D1 
 155      0A2DE436 
ARM GAS  C:\Users\info\AppData\Local\Temp\ccvuDAPJ.s 			page 12


 155      1A08
 156 00c7 395A62D0 		.ascii	"9Zb\320\343X\"\033]\216\203+\316\026\"N\002\035NR\256"
 156      E358221B 
 156      5D8E832B 
 156      CE16224E 
 156      021D4E52 
 157 00dc BB329942 		.ascii	"\2732\231B\233\343\341\222\223\306\005\307\3079'#\223"
 157      9BE3E192 
 157      93C605C7 
 157      C7392723 
 157      93
 158 00ed 59D136CE 		.ascii	"Y\3216\3168;h\"\247\320GA\375\002\016\242x\352"
 158      383B6822 
 158      A7D04741 
 158      FD020EA2 
 158      78EA
 159              		.text
 160              		.section	.gnu.lto_u8x8_d_uc1601_128x32_init_seq.792a5c95,"",%progbits
 161 0000 789C4D92 		.ascii	"x\234M\222YOSQ\024\205\317\276\267\003C\245\202\242"
 161      594F5351 
 161      1485CFBE 
 161      B70343A5 
 161      82A2
 162 0012 92DC071F 		.ascii	"\222\334\007\037|&Q_\370A\376\020Jz\015\364\251&\306"
 162      7C26515F 
 162      F841FE10 
 162      4A7A0DF4 
 162      A926C6
 163 0025 F2201141 		.ascii	"\362 \021A-\025;\340\320\322AeF\260\032\306\230&(Uq"
 163      2D153BE0 
 163      D0D24165 
 163      46B01AC6 
 163      98262855 
 164 003a 08180258 		.ascii	"\010\030\002X\003\332\001\327\351\336\017m\362\345\366"
 164      03DA01D7 
 164      E9DE0F6D 
 164      F2E5F6
 165 0049 CB5A679F 		.ascii	"\313Zg\237\335\346:\024)\375\271l*\371\246T\325\240"
 165      DDE63A14 
 165      29FDB96C 
 165      2AF9A654 
 165      D5A0
 166 005b B8BD1369 		.ascii	"\270\275\023i*\031\266\251\350\224\340\373\376o\305"
 166      2A19B6A9 
 166      E894E0FB 
 166      FE6FC5
 167 006a 56ED4497 		.ascii	"V\355D\227\240\245P\276\340\345\270\013\372;d\0174q"
 167      A0A550BE 
 167      E0E5B80B 
 167      FA3B640F 
 167      3471
 168 007c 7A111ABE 		.ascii	"z\021\032\276\267\276\341\341\364\221>\374\347o`\277"
 168      B7BEE1E1 
 168      F4913EFC 
 168      E76F60BF 
 169 008c 99E30BD0 		.ascii	"\231\343\013\320\257\341Z\310\305qg\243R]\373\262\205"
 169      AFE15AC8 
ARM GAS  C:\Users\info\AppData\Local\Temp\ccvuDAPJ.s 			page 13


 169      C57167A3 
 169      525DFBB2 
 169      85
 170 009d 5B32BAA8 		.ascii	"[2\272\25079\254\014\245\344\360y}s\372\346\2776\326"
 170      3739AC0C 
 170      A5E4F079 
 170      7D73FAE6 
 170      BF36D6
 171 00b0 73D044F1 		.ascii	"s\320D\361\243OfuC'\212\225\234\203\323\016h\377\342"
 171      A34F6675 
 171      43278A95 
 171      9C83D30E 
 171      68FFE2
 172 00c3 A74D626D 		.ascii	"\247Mbm\207\356\036\216\214\271\271\274\255\367Z;\310"
 172      87EE1E8E 
 172      8CB9B9BC 
 172      ADF75A3B 
 172      C8
 173 00d4 0FC98F3A 		.ascii	"\017\311\217:\333\270\246\252\257\031;*\305d//4\033"
 173      DBB8A6AA 
 173      AF193B2A 
 173      C5642F2F 
 173      341B
 174 00e6 89FF909B 		.ascii	"\211\377\220\233|\372pu\313W38n\203\216\356\246g\235"
 174      7CFA7075 
 174      CB573338 
 174      6E838EEE 
 174      A6679D
 175 00f9 AC6774BA 		.ascii	"\254gt\272\035\014\312U\303\272]\376y\273 \233x\240"
 175      1D0CCA55 
 175      C3BA5DFE 
 175      79BB209B 
 175      78A0
 176 010b 1F0AFEB4 		.ascii	"\037\012\376\264h+4p\2476-7\317\325g\037\254T=\034\267"
 176      682B3470 
 176      A7362D37 
 176      CFD5671F 
 176      AC543D1C 
 177 0120 40C7930F 		.ascii	"@\307\223\0173\322n\326\351\340\367\373&\267\007t\273"
 177      33D26ED6 
 177      E9E0F7FB 
 177      26B70774 
 177      BB
 178 0131 14B08F4D 		.ascii	"\024\260\217M\216\335\320\223\334\352\210\301\361\025"
 178      8EDDD093 
 178      DCEA88C1 
 178      F115
 179 013f E84E399A 		.ascii	"\350N9\232\221?\314\005]z\220\251\310h'45\372+\342\344"
 179      913FCC05 
 179      5D7A90A9 
 179      C8682734 
 179      35FA2BE2 
 180 0154 F29E9EB5 		.ascii	"\362\236\236\265\352O\334\225Y\016\350\314Q\",mS\247"
 180      EA4FDC95 
 180      590EE8CC 
 180      51222C6D 
 180      53A7
ARM GAS  C:\Users\info\AppData\Local\Temp\ccvuDAPJ.s 			page 14


 181 0166 D1CF37B8 		.ascii	"\321\3177\270\374E\227\347O\217\247\274\234\032\215"
 181      FC4597E7 
 181      4F8FA7BC 
 181      9C1A8D
 182 0175 EF88AABF 		.ascii	"\357\210\252\277#\331\365\367QWO\262\267\177\2707\350"
 182      23D9F5F7 
 182      51574FB2 
 182      B77FB837 
 182      E8
 183 0186 B64D83AE 		.ascii	"\266M\203\256Z\224'\213\256Y\024\305\343-X\006K\304"
 183      5A94278B 
 183      AE5914C5 
 183      E32D5806 
 183      4BC4
 184 0198 FE062C82 		.ascii	"\376\006,\202\005\361y0\007f\305\257[4\203\307\264\350"
 184      05F17930 
 184      0766C5AF 
 184      5B3483C7 
 184      B4E8
 185 01aa 14780D5E 		.ascii	"\024x\015^\211\277\0049\220\025\317\2004\230\004)\220"
 185      89BF0439 
 185      9015CF80 
 185      34980429 
 185      90
 186 01bb 042FC073 		.ascii	"\004/\300s\311\237\201\247`B<\001\342 &\376\004\214"
 186      C99F81A7 
 186      60423C01 
 186      E22026FE 
 186      048C
 187 01cd 83C72002 		.ascii	"\203\307 \002\306@\230,E\357\250G\375\007%\371\020O"
 187      C640982C 
 187      45EFA847 
 187      FD0725F9 
 187      104F
 188              		.text
 189              		.section	.gnu.lto_u8x8_d_uc1601_128x32_powersave0_seq.792a5c95,"",%progbits
 190 0000 789C6361 		.ascii	"x\234ca`d\000\201\355@\014a10\374eb\\\337\372d%\307"
 190      60640081 
 190      ED400C61 
 190      3130FC65 
 190      625CDFFA 
 191 0017 17A65666 		.ascii	"\027\246Vf\006\306\377\214@\376\305\226\015s\230A|F"
 191      06C6FF8C 
 191      40FEC596 
 191      0D739841 
 191      7C46
 192 0029 461620F7 		.ascii	"F\026 \367\313\36437\371!\322\222@\356\241O\033\226"
 192      CBF43337 
 192      F921D292 
 192      40EEA14F 
 192      1B96
 193 003b F3406499 		.ascii	"\363@d\231\201\334I\277OO\343\202\310\256\007i>\372"
 193      81DC49BF 
 193      4F4FE382 
 193      C8AE0769 
 193      3EFA
 194 004d FFFB017E 		.ascii	"\377\373\001~\2104\023\220\373x\371\277\351l\020iQ "
ARM GAS  C:\Users\info\AppData\Local\Temp\ccvuDAPJ.s 			page 15


 194      88341390 
 194      FB78F9BF 
 194      E96C1069 
 194      5120
 195 005f F75DCBD3 		.ascii	"\367]\313\323\007\334\020\256\004\220\373\371\344\306"
 195      07DC10AE 
 195      0490FBF9 
 195      E4C6
 196 006d 257C16DB 		.ascii	"%|\026\333\032:\0264\004\264231\032\3120\256c\224a4"
 196      1A3A1634 
 196      04B43233 
 196      311ACA30 
 196      AE639461 
 197 0082 92615C0B 		.ascii	"\222a\\\013\244\326\000\361j ^\005\304+\201x\005\020"
 197      A4D600F1 
 197      6A205E05 
 197      C42B8178 
 197      0510
 198 0094 2F679401 		.ascii	"/g\224\001Yd\301\000\000\271N?="
 198      5964C100 
 198      00B94E3F 
 198      3D
 199              		.text
 200              		.section	.gnu.lto_u8x8_d_uc1601_128x32_powersave1_seq.792a5c95,"",%progbits
 201 0000 789C6361 		.ascii	"x\234ca`d\000\201\355@\014a10\374eb\\\337\372d%\307"
 201      60640081 
 201      ED400C61 
 201      3130FC65 
 201      625CDFFA 
 202 0017 17A65666 		.ascii	"\027\246Vf\006\306\377\214@\376\305\226\015s\230A|F"
 202      06C6FF8C 
 202      40FEC596 
 202      0D739841 
 202      7C46
 203 0029 461620F7 		.ascii	"F\026 \367\313\36437\371!\322\222@\356\241O\033\226"
 203      CBF43337 
 203      F921D292 
 203      40EEA14F 
 203      1B96
 204 003b F3406499 		.ascii	"\363@d\231\201\334S\033\257\035\204j^\007\322|\364\377"
 204      81DC531B 
 204      AF1D846A 
 204      5E07D27C 
 204      F4FF
 205 004d F703FC10 		.ascii	"\367\003\374\020i& \367\361\362\177\323\331 \322\242"
 205      692620F7 
 205      F1F27FD3 
 205      D920D2A2 
 206 005d 40EEBB96 		.ascii	"@\356\273\226\247\017\270!\\\011 \367\322\355\333\253"
 206      A70FB821 
 206      5C0920F7 
 206      D2EDDBAB 
 207 006d 792DB635 		.ascii	"y-\2665t,h\010hefb4\224\001\032\"\303h$\303\270\026"
 207      742C6808 
 207      68656662 
 207      3494011A 
 207      22C36824 
ARM GAS  C:\Users\info\AppData\Local\Temp\ccvuDAPJ.s 			page 16


 208 0084 48AD01E2 		.ascii	"H\255\001\342\325@\274\012\210W\002\361\012 ^\316(\303"
 208      D540BC0A 
 208      885702F1 
 208      0A205ECE 
 208      28C3
 209 0096 C0B89ED1 		.ascii	"\300\270\236\321\202\001\000\317\260?\177"
 209      820100CF 
 209      B03F7F
 210              		.text
 211              		.section	.gnu.lto_u8x8_d_uc1601_128x32_flip0_seq.792a5c95,"",%progbits
 212 0000 789C2D8D 		.ascii	"x\234-\215M\013\001Q\024\206\357\231a\"2+E\315\237`"
 212      4D0B0151 
 212      1486EF99 
 212      6122322B 
 212      45CD9F60 
 213 0014 E567F909 		.ascii	"\345g\371\011\310\224\354l\314\306BQc|\016\305\202\015"
 213      C894EC6C 
 213      CCC64251 
 213      637C0EC5 
 213      820D
 214 0026 62A16C2C 		.ascii	"b\241l,g'\037[\013\221\005\206\367v\346\326\323\275"
 214      67271F5B 
 214      0B910586 
 214      F776E6D6 
 214      D3BD
 215 0038 4F4FE7DC 		.ascii	"OO\347\334\220 !\317\023\360K\210\257B#\363\342D\036"
 215      902021CF 
 215      13F04B88 
 215      AF4223F3 
 215      E2441E
 216 004b 8AA90AFA 		.ascii	"\212\251\012\372\021\374\362\036\314\023\322\2114\350"
 216      11FCF21E 
 216      CC13D289 
 216      34E8
 217 0059 C3DA7B3A 		.ascii	"\303\332{:\3474t\327\236\177\342\\\303\320\322\302\253"
 217      E73474D7 
 217      9E7FE25C 
 217      C3D0D2C2 
 217      AB
 218 006a 05F52897 		.ascii	"\005\365(\227\035\312nC\345\034\202\236m\337\3228'\241"
 218      1DCA6E43 
 218      E51C829E 
 218      6DDFD238 
 218      27A1
 219 007c EBBB6B07 		.ascii	"\353\273k\007\303*\264Z\367WQ\256\033\371\363\366\367"
 219      C32AB45A 
 219      F75751AE 
 219      1BF9F3F6 
 219      F7
 220 008d 5AEA9C15 		.ascii	"Z\352\234\025\350\255|=\3068\247\240\247bk\232\310\315"
 220      E8AD7C3D 
 220      C638A7A0 
 220      A7626B9A 
 220      C8CD
 221 009f 0A956621 		.ascii	"\012\225f!o\252\012e\014\032\223AY\203\006\270\\0\002"
 221      6FAA0A65 
 221      0C1A9341 
ARM GAS  C:\Users\info\AppData\Local\Temp\ccvuDAPJ.s 			page 17


 221      598306B8 
 221      5C3002
 222 00b2 4362EF83 		.ascii	"Cb\357\203\036\350\002\007t\200M\206\240\011\345\304"
 222      1EE80207 
 222      74804D86 
 222      A009E5C4 
 223 00c2 1FBBF354 		.ascii	"\037\273\363T%"
 223      25
 224              		.text
 225              		.section	.gnu.lto_u8x8_d_uc1601_128x32_flip1_seq.792a5c95,"",%progbits
 226 0000 789C2D8D 		.ascii	"x\234-\215\273\012\302@\020Ew\022\015\202\257JP\330"
 226      BB0AC240 
 226      10457712 
 226      0D82AF4A 
 226      50D8
 227 0012 9FD02A9F 		.ascii	"\237\320*\237\345'X$\340\037\330(X\010\361\235h\241"
 227      E5275824 
 227      E01FD828 
 227      5808F19D 
 227      68A1
 228 0024 6025010B 		.ascii	"`%\001\013\301B\305F\261\020LZ\013\211X\370\210w\031"
 228      C142C546 
 228      B1104C5A 
 228      0B8958F8 
 228      887719
 229 0037 170EBB87 		.ascii	"\027\016\273\207\303\316$\004\011u\036\200_B|4r\355"
 229      C3CE2404 
 229      09751E80 
 229      5F427C34 
 229      72ED
 230 0049 A0978A34 		.ascii	"\240\227\2124[\027\024\023<x\215\0269\345D\0064jl\216"
 230      5B171413 
 230      3C788D16 
 230      39E54406 
 230      346A6C8E 
 231 005d 79CE25E8 		.ascii	"y\316%\350\272\263xg\270&\241\363\333`\236\345\272T"
 231      BAB37867 
 231      B826A1F3 
 231      DB609EE5 
 231      BA54
 232 006f C37696D7 		.ascii	"\303v\226\327\3249'\240W\347\33308\027\240\376\335s"
 232      D43927A0 
 232      57E7DB30 
 232      3817A0FE 
 232      DD73
 233 0081 FE9F75E8 		.ascii	"\376\237u\350\371p\012\377\243}\265y\025?\227y\316\032"
 233      F9700AFF 
 233      A37DB579 
 233      153F9779 
 233      CE1A
 234 0093 F4668597 		.ascii	"\364f\205\2274\347\"t\337\332\336\223\346\254Vo\327"
 234      34E72274 
 234      DFDADE93 
 234      E6AC566F 
 234      D7
 235 00a4 AAB6AE51 		.ascii	"\252\266\256QY\322\204$U$\215py\300\005cb\037\202\001"
 235      59D28424 
ARM GAS  C:\Users\info\AppData\Local\Temp\ccvuDAPJ.s 			page 18


 235      55248D70 
 235      79C00563 
 235      621F8201 
 236 00b8 E8831EE8 		.ascii	"\350\203\036\350\002\207\244\240)\231\342\007M\253U"
 236      0287A4A0 
 236      2999E207 
 236      4DAB55
 237 00c7 64       		.ascii	"d"
 238              		.text
 239              		.section	.gnu.lto_.symbol_nodes.792a5c95,"",%progbits
 240 0000 789C55CC 		.ascii	"x\234U\314;\012\302@\024\205\341s\347\221wR\210\013"
 240      3B0AC240 
 240      1485E173 
 240      E7917752 
 240      880B
 241 0012 D05DB804 		.ascii	"\320]\270\004wu\247\260\023\202 \330\330N\345:\202\001"
 241      7775A7B0 
 241      138220D8 
 241      D84EE53A 
 241      8201
 242 0024 0BD35BCF 		.ascii	"\013\323[\317\026\004\355\314\314\244p\252\217\237{"
 242      1604EDCC 
 242      CCA470AA 
 242      8F9F7B
 243 0033 B80A843D 		.ascii	"\270\012\204=\001\020\031\003\247'0s3[@+\230\025 \265"
 243      01101903 
 243      A7273073 
 243      335B402B 
 243      981520B5 
 244 0047 A6284494 		.ascii	"\246(D\224dT\250\250\324Aj\231\302\003\300\230\015@"
 244      6454A8A8 
 244      D4416A99 
 244      C203C098 
 244      0D40
 245 0059 1D8BA46B 		.ascii	"\035\213\244k\226IW\254\222nX']r\226t\301y\3229\027"
 245      964957AC 
 245      926E5827 
 245      5D729674 
 245      C179D239 
 246 006e FF2DD1C1 		.ascii	"\377-\321\301}\326\022-\354w\246\301\020\261\367\221"
 246      7DD6122D 
 246      EC77A6C1 
 246      10B1F791 
 247 007e 422EDA71 		.ascii	"B.\332q\361\341\2550\034'!Q\302\005k\034zo\016\033\254"
 247      F1E1AD30 
 247      1C272151 
 247      C2056B1C 
 247      7A6F0E1B 
 248 0093 E0FA78B7 		.ascii	"\340\372x\267\347e\2678\\\274\005\334\353\275\363{w"
 248      E765B738 
 248      5CBC05DC 
 248      EBBDF37B 
 248      77
 249 00a4 9D047EB0 		.ascii	"\235\004~\260\213E\241"
 249      8B45A1
 250              		.text
 251              		.section	.gnu.lto_.refs.792a5c95,"",%progbits
ARM GAS  C:\Users\info\AppData\Local\Temp\ccvuDAPJ.s 			page 19


 252 0000 789C6361 		.ascii	"x\234ca`d\020e```c`bdfbbcb\346db\341bb\345eb\023d\000"
 252      60641065 
 252      60606063 
 252      60626466 
 252      62626362 
 253 0020 00060600 		.ascii	"\000\006\006\000|"
 253      7C
 254              		.text
 255              		.section	.gnu.lto_.decls.792a5c95,"",%progbits
 256 0000 789CBD59 		.ascii	"x\234\275Y{P\024W\272\237\323g\200af@EL\334-v\343\215"
 256      7B501457 
 256      BA9FD367 
 256      80616640 
 256      454CDC2D 
 257 0017 ACB255BB 		.ascii	"\254\262U\273F47e\335?n%\265\367f\267\366\217\335\275"
 257      46343765 
 257      DD3F6E25 
 257      B5F766B7 
 257      F68FDDBD 
 258 002b B549EA56 		.ascii	"\265I\352V]\252&\343\314\240\263\201\2010\203\217\374"
 258      5DAA26E3 
 258      CCA0B381 
 258      8130838F 
 258      FC
 259 003c D5C84382 		.ascii	"\325\310C\202\021\001\025y\250\274|\240\200\242 *\217"
 259      11011579 
 259      A8BC7CA0 
 259      80A2202A 
 259      8F
 260 004d 308B4A14 		.ascii	"0\213J\024Q\020\001E@\020DPA\021PD\024\356w\316\351"
 260      51100145 
 260      40104450 
 260      41115044 
 260      14EE77CE 
 261 0062 9EEEC126 		.ascii	"\236\356\301&\273[u\367N\362\243\373;\347\327\337\371"
 261      BB5B75F7 
 261      4EF2A3FB 
 261      3BE7D7DF 
 261      F9
 262 0073 7DDF7976 		.ascii	"}\337yv\253V!\025\371-\\\246R=\366P\251Z9\225j\026~"
 262      AB562115 
 262      F92D5CA6 
 262      523DF650 
 262      A95A3995 
 263 008a 1A28FB42 		.ascii	"\032(\373B%\375\274\001\237\000\365\267\200?\002>\007"
 263      25FDBC01 
 263      9F00F5B7 
 263      803F023E 
 263      07
 264 009b FC37E07F 		.ascii	"\3747\340\177\000_\002\314\000+\300\023x_\3015\012\260"
 264      005F02CC 
 264      002BC013 
 264      785FC135 
 264      0AB0
 265 00ad 05F00D20 		.ascii	"\005\360\015 \006\020\213Tn?\342\353_\340z\032\340\007"
 265      06108B54 
 265      6E3FE2EB 
ARM GAS  C:\Users\info\AppData\Local\Temp\ccvuDAPJ.s 			page 20


 265      5FE07A1A 
 265      E007
 266 00bf F007BC47 		.ascii	"\360\007\274G\374\302\365\367p]\012\010\0204\304\301"
 266      FCC2F5F7 
 266      705D0A08 
 266      1034C4C1 
 267 00cf FDBB808D 		.ascii	"\375\273\200\215\200x\200\011\220\000\330\016\370\032"
 267      80788009 
 267      9000D80E 
 267      F81A
 268 00dd 60002402 		.ascii	"`\000$\0026\003\276\005\360\200e\200Vx6\011\256\237"
 268      3603BE05 
 268      F0806580 
 268      56783609 
 268      AE9F
 269 00ef 0276003E 		.ascii	"\002v\000>\003d\003\262\000\177\202\272\375p\375\003"
 269      036403B2 
 269      007F82BA 
 269      FD70FD03 
 270 00ff 80C4FAEF 		.ascii	"\200\304\372\357p\325\002~\005\360\000\244\001\366\002"
 270      70D5027E 
 270      05F000A4 
 270      01F602
 271 010e F600D291 		.ascii	"\366\000\322\221\024\277U\210\365K!\376\317\205\034"
 271      14BF5588 
 271      F54B21FE 
 271      CF851C
 272 011d 8879F101 		.ascii	"\210y\361\001\336\001\270\036\004\344\000r\001y\200"
 272      DE01B81E 
 272      04E40072 
 272      017980
 273 012c 7C4001FA 		.ascii	"|@\001\372\373rC8j\270\256P\261\034\254T\261\370\027"
 273      FB724338 
 273      6AB8AE50 
 273      B11CAC54 
 273      B1F817
 274 013f C3D593D4 		.ascii	"\303\325\223\324\0018\200\027\321\016X\010\230\205:"
 274      01388017 
 274      D10E5808 
 274      98853A
 275 014e 4C38003D 		.ascii	"L8\000=@G4\023=\200E\304\277\020\037\211\015\001|\347"
 275      40473413 
 275      3D8045C4 
 275      BF101F89 
 275      0D017CE7 
 276 0162 B429FE88 		.ascii	"\264)\376\2106,\264K\372\344\353yx\344\267e\016w\363"
 276      362CB44B 
 276      FAE4EB79 
 276      78E4B765 
 276      0E77F3
 277 0175 8F70BFF9 		.ascii	"\217p\277\371\007\2701s\270\374\217pc\377\001\356\033"
 277      07B83173 
 277      B8FC8F70 
 277      63FF01EE 
 277      1B
 278 0186 0EC5F63D 		.ascii	"\016\305\366=\312\325t\242\016H\001\242?\2250\376IR"
 278      CAD574A2 
ARM GAS  C:\Users\info\AppData\Local\Temp\ccvuDAPJ.s 			page 21


 278      0E4801A2 
 278      3F9530FE 
 278      4952
 279 0198 90705509 		.ascii	"\220pU\0119\202\277\034\375\253\022Y.\347\210\376\007"
 279      3982BF1C 
 279      FDAB1259 
 279      2EE788FE 
 279      07
 280 01a9 FF73948F 		.ascii	"\377s\224\217d\025n<:\227\350O*B\256\237\310D\356N\021"
 280      64156E3C 
 280      3A97E84F 
 280      2A42AE9F 
 280      C844EE4E 
 281 01be ED5DD104 		.ascii	"\355]\321\004\233\223\036\220\371\023\324\013\355#y"
 281      9B931E90 
 281      F913D40B 
 281      ED2379
 282 01cd B3D43516 		.ascii	"\263\3245\026\203\256\351\316x\2140\370\204\373\236"
 282      83AEE9CE 
 282      788C30F8 
 282      84FB9E
 283 01dc A9C24F57 		.ascii	"\251\302OW\025\363\360K\341y\356\003)3'\212\247K\265"
 283      15F3F04B 
 283      E179EE03 
 283      2933278A 
 283      A74BB5
 284 01ef 6A88177D 		.ascii	"j\210\027}\256G\353\325\244\350d\374\375c\232\011\016"
 284      AE47EBD5 
 284      A4E864FC 
 284      FD639A09 
 284      0E
 285 0200 0568D12C 		.ascii	"\005h\321,\"\366\360\371)\037f\223\352r\347x\211\032"
 285      22F6F0F9 
 285      291F6693 
 285      EA72E778 
 285      891A
 286 0212 2F23F7DC 		.ascii	"/#\367\334\215\262\216K\336(H{\204x\356=\363\374\223"
 286      8DB28E4B 
 286      DE28487B 
 286      8478EE3D 
 286      F3FC93
 287 0225 589E47E8 		.ascii	"X\236G\350$\322\242\022\204\3211\264\212\210\012\320"
 287      24D2A212 
 287      84D131B4 
 287      8A880AD0 
 288 0235 C2DF449E 		.ascii	"\302\337D\236\337\306\217\346\363\236KUhm\000Z\035\240"
 288      DFC68FE6 
 288      F39E4B55 
 288      686D005A 
 288      1DA0
 289 0247 42275010 		.ascii	"B'P\020\361IX\250\030\005\240\"\024@\374\037\313)\274"
 289      F14958A8 
 289      1805A022 
 289      1440FC1F 
 289      CB29BC
 290 025a E8834B10 		.ascii	"\350\203K\020m`d\317\343D\354j\240sG@\021\317/D\247"
 290      6D6064CF 
ARM GAS  C:\Users\info\AppData\Local\Temp\ccvuDAPJ.s 			page 22


 290      E344EC6A 
 290      A0734740 
 290      11CF2F44 
 291 026f A18152A9 		.ascii	"\241\201R\251\001hO\271\205S\312-t&\034\275\252\243"
 291      01684FB9 
 291      8553CA2D 
 291      74261CBD 
 291      AAA3
 292 0281 311347C7 		.ascii	"1\023G\307\021\215\272\355\366\3356oWa\031+\274\021"
 292      118DBAED 
 292      F6DD366F 
 292      5761192B 
 292      BC11
 293 0293 57BA1F43 		.ascii	"W\272\037C\350~Z\244\006\363\331\265\254~_0\375\265"
 293      E87E5AA4 
 293      06F3D9B5 
 293      AC7E5F30 
 293      FDB5
 294 02a5 681998D9 		.ascii	"h\031\230\331\343\335\017\275Ym\020\230O\342\006zu\254"
 294      E3DD0FBD 
 294      596D1098 
 294      4FE2067A 
 294      75AC
 295 02b7 762998FC 		.ascii	"v)\230\374P\\\016\207\213Y\376[F\033\017\010u\013\301"
 295      505C0E87 
 295      8B59FE5B 
 295      461B0F08 
 295      750BC1
 296 02ca AC1D4AAD 		.ascii	"\254\035J\255\325\340*V\327|t\344\226/\276\311\214\241"
 296      D5E02A56 
 296      D77C74E4 
 296      962FBEC9 
 296      8CA1
 297 02dc DCDAD31A 		.ascii	"\334\332\323\032\374\204\031\205\017\366'\353\331S\353"
 297      FC841985 
 297      0FF627EB 
 297      D953EB
 298 02eb 64CDFBB1 		.ascii	"d\315\373\261\346\367:\323^k\361+F\255:[]\357\301\250"
 298      E6F73AD3 
 298      5E6BF12B 
 298      46AD3A5B 
 298      5DEFC1A8 
 299 02ff ABC1BC72 		.ascii	"\253\301\274r\276o5\216\307\264J\224\351\317d\276\270"
 299      BE6F358E 
 299      C7B44A94 
 299      E9CF64BE 
 299      B8
 300 0310 DADA8DF1 		.ascii	"\332\332\215\361\036V\267\253\256\346\202\006\3472\243"
 300      1E56B7AB 
 300      AEE68206 
 300      E732A3
 301 031f BEEB4E9B 		.ascii	"\276\353N\233\032\0273#\246\346B\231\017\376+3.\315"
 301      1A173323 
 301      A6E64299 
 301      0FFE2B33 
 301      2ECD
 302 0331 4E3A17B0 		.ascii	"N:\027\260\22690\337\224\225]@\270\201\325\035~5=Jr"
ARM GAS  C:\Users\info\AppData\Local\Temp\ccvuDAPJ.s 			page 23


 302      963930DF 
 302      94955D40 
 302      B881D51D 
 302      7E353D4A 
 303 0346 B40286CB 		.ascii	"\264\002\206\313,\226\215\227\025l\274\324^\275rD\217"
 303      2C968D97 
 303      156CBCD4 
 303      5EBD7244 
 303      8F
 304 0357 6F5232D7 		.ascii	"oR2\327R\227\361F\207\264A\264\263\370X^\033\244B\225"
 304      5297F146 
 304      87B441B4 
 304      B3F8585E 
 304      1BA44295 
 305 036b D03397A1 		.ascii	"\3203\227\241g\320u\350\256\025Bw]\205\302\006(\024"
 305      67D075E8 
 305      AE154277 
 305      5D85C206 
 305      2814
 306 037d 46D6C8EF 		.ascii	"F\326\310\357\351\310\272\006]\323(u\374\012-\033\304"
 306      E9C8BA06 
 306      5DD32875 
 306      FC0A2D1B 
 306      C4
 307 038e DFA7763E 		.ascii	"\337\247v>\320\342\273\254\211C\375|\225z\276&n\314"
 307      D0E2BBAC 
 307      8943FD7C 
 307      957ABE26 
 307      6ECC
 308 03a0 DB44E78E 		.ascii	"\333D\347\216\025\305dl5C\023MR\023\327\220\320\206"
 308      15C5646C 
 308      3543134D 
 308      5213D790 
 308      D086
 309 03b2 D8BB7EAC 		.ascii	"\330\273~\254w\037$\035{\246\307\203,\005\007\332\372"
 309      771F241D 
 309      7BA6C783 
 309      2C0507DA 
 309      FA
 310 03c3 52BCB5C2 		.ascii	"R\274\265\302\000L\371\333\0030\353Rb\235\207>\211\360"
 310      004CF9DB 
 310      0330EB52 
 310      629D873E 
 310      89F0
 311 03d5 536279BF 		.ascii	"Sby\277\337\241Vh\264\002\352\317@\275\012\265!\275"
 311      DFA15668 
 311      B402EACF 
 311      40BD0AB5 
 311      21BD
 312 03e7 303BE31E 		.ascii	"0;\343\036\025\214 <\314Z\351\276|\254\210$z%I\364\354"
 312      158C203C 
 312      CC5AE9BE 
 312      7CAC8824 
 312      7A2549F4 
 313 03fc EC0259AA 		.ascii	"\354\002Y\252W\262T\267\354\032;\344\205_\260<\024\245"
 313      57B254B7 
 313      EC1A3BE4 
ARM GAS  C:\Users\info\AppData\Local\Temp\ccvuDAPJ.s 			page 24


 313      855FB03C 
 313      14A5
 314 040e 3E6E91CD 		.ascii	">n\221\315\315\303\372\363$\274Nh\251C\012o\245k\346"
 314      CDC3FAF3 
 314      24BC4E68 
 314      A9430A6F 
 314      A56BE6
 315 0421 50212A97 		.ascii	"P!*\227\012t\007\244\257\024\244\337\206\302[\302\354"
 315      0A7407A4 
 315      AF14A4DF 
 315      86C25BC2 
 315      EC
 316 0432 3C949AEF 		.ascii	"<\224\232\357\211c\324\264\211\343'\232\352\275\304"
 316      8963D4B4 
 316      89E3279A 
 316      EABDC4
 317 0441 54CF7570 		.ascii	"T\317upW\301\201\230\352\017i\252\273AK\227\244\245"
 317      57C18198 
 317      EA0F69AA 
 317      BB414B97 
 317      A4A5
 318 0453 534CB538 		.ascii	"SL\2658Y\374\330d\351;59\254\301I\264I\264}\266\373"
 318      59FCD864 
 318      E93B3539 
 318      ACC149B4 
 318      49B47DB6 
 319 0468 A206EF67 		.ascii	"\242\006\357gF\334\321\235\331>\270\220\031YU\023\015"
 319      46DCD19D 
 319      D93EB890 
 319      19595513 
 319      0D
 320 0479 1EEC290D 		.ascii	"\036\354)\015\230\311\231cU^\270\224\325\335t\346f{"
 320      98C99963 
 320      555EB894 
 320      D5DD74E6 
 320      667B
 321 048b E3B3CCE8 		.ascii	"\343\263\314\350/\237<\344\203\353\230q\357iM\246\227"
 321      2F9F3CE4 
 321      83EB9871 
 321      EF694DA6 
 321      97
 322 049c 6BDAB305 		.ascii	"k\332\263\005\360LKN\217\027n`\204WM\323\225\010\337"
 322      F04C4B4E 
 322      8F176E60 
 322      84574DD3 
 322      9508DF
 323 04af 62C67737 		.ascii	"b\306w7+\326\342\373\354\276\270\355\366\033\204G\231"
 323      2BD6E2FB 
 323      ECBEB8ED 
 323      F61B8447 
 323      99
 324 04c0 716D66F4 		.ascii	"qmf\364{\214\267yP\243\2447\341\246\007\336\315\214"
 324      7B8CB779 
 324      50A3A437 
 324      E1A607DE 
 324      CD8C
 325 04d2 23AFF3CA 		.ascii	"#\257\363\312\3658\207\031\365\2235\005\036\37083\222"
ARM GAS  C:\Users\info\AppData\Local\Temp\ccvuDAPJ.s 			page 25


 325      F5388719 
 325      F5933505 
 325      1EF83833 
 325      92
 326 04e3 761CCFF3 		.ascii	"v\034\317\363\305\265\314\210\377\256\250\032\343\026"
 326      C5B5CC88 
 326      FFAEA81A 
 326      E316
 327 04f1 6634F79C 		.ascii	"f4\367\234~\356\211\007\231\321s7\365/x\224\335?nmI"
 327      7EEE8907 
 327      99D17337 
 327      F52F7894 
 327      DD3F6E6D 
 328 0506 F5C06F98 		.ascii	"\365\300o\230\361\346\364\366*5N\361\244\306\340\345"
 328      F1E6F4F6 
 328      2A354EF1 
 328      A4C6E0E5 
 329 0516 A9091DCE 		.ascii	"\251\011\035\316g\306\253\272m\347\021>\303\214\212"
 329      67C6ABBA 
 329      6DE7113E 
 329      C38C8A
 330 0525 BAA9460F 		.ascii	"\272\251F\017\334\300\214'\333\212\016!\334\317\214"
 330      DCC08C27 
 330      DB8A0E21 
 330      DCCF8C
 331 0534 E6BD23E9 		.ascii	"\346\275#\351\034~\315\214\327\323\273c<\360./6g\273"
 331      1C7ECD8C 
 331      D7D3BB63 
 331      3CF02E2F 
 331      3667BB
 332 0547 868A7538 		.ascii	"\206\212u8\217\031\245\325q#\302\252\347$\373A\341\316"
 332      8F19A5D5 
 332      7123C2AA 
 332      E724FB41 
 332      E1CE
 333 0559 D10B5A5C 		.ascii	"\321\013Z\\I+\227\214\026e\264z\242\3009\277\240\300"
 333      492B978C 
 333      1665B47A 
 333      A2C039BF 
 333      A0C0
 334 056b C0C581F9 		.ascii	"\300\305\201\371dT\364\346\314D\326Tt\361|\202\236f"
 334      6454F4E6 
 334      CC44D654 
 334      74F17C82 
 334      9E66
 335 057d F839F477 		.ascii	"\3709\364w\032\267X\234 \037\220\361\376W2\352U\224"
 335      1AB7589C 
 335      201F90F1 
 335      FE5732EA 
 335      5594
 336 058f EEAC6ED1 		.ascii	"\356\254n\321\361\245_R\352\210;\265\207\316\215\265"
 336      F1A55F52 
 336      EA883BB5 
 336      87CE8DB5 
 337 059f 12753CCD 		.ascii	"\022u<\3157\203wn\303t\312>\022\310\256\231\316\350"
 337      3783776E 
 337      C374CA3E 
ARM GAS  C:\Users\info\AppData\Local\Temp\ccvuDAPJ.s 			page 26


 337      12C8AE99 
 337      CEE8
 338 05b1 1532D799 		.ascii	"\0252\327\231M>\373xg\014\246\316\247\024tT\312\310"
 338      4D3EFB78 
 338      670CA6CE 
 338      A7147454 
 338      CAC8
 339 05c3 AD4D2E1D 		.ascii	"\255M.\035\023\012\324\357e\324=\022\365\225\002U\246"
 339      130AD4EF 
 339      65D43D12 
 339      F5950255 
 339      A6
 340 05d4 B8450AEE 		.ascii	"\270E\012\356\261Rp\347d^\323$\257\323\012^\203%f\226"
 340      B15270E7 
 340      645ED324 
 340      AFD30A5E 
 340      83256696 
 341 05e8 C47CA9C0 		.ascii	"\304|\251\300\224;\335/Q'\025\250\362l\225JZG\335\251"
 341      943BDD2F 
 341      512715A8 
 341      F26C954A 
 341      5A47DDA9 
 342 05fc FD686EA7 		.ascii	"\375hn\2475K\334a\245\270\344\211\335#q\237)\371\275"
 342      354BDC61 
 342      A5B8E489 
 342      DD23719F 
 342      29F9BD
 343 060f 20E3CE48 		.ascii	" \343\316Hr\307\224\270r\275\345\222\337\247J\\y\217"
 343      72C794B8 
 343      72BDE592 
 343      DFA74A5C 
 343      798F
 344 0621 3D978F9C 		.ascii	"=\227\217\234\031\345\221\303\342\243\013\226s:Y\317"
 344      19E591C3 
 344      E2A30B96 
 344      733A59CF 
 345 0631 F31AC252 		.ascii	"\363\032\302R\011\213\225\312\345+G>\252^($U\036P\245"
 345      098B95CA 
 345      E52B473E 
 345      AA5E2824 
 345      551E50A5 
 346 0645 24F28952 		.ascii	"$\362\211R\242h\257\246\012\3074\036\316 \350\015\250"
 346      A268AFA6 
 346      0AC7341E 
 346      CE20E80D 
 346      A8
 347 0656 6A21AA5E 		.ascii	"j!\252^\013|h\037\355\342\202P\002\027\210\342\000\333"
 347      0B7C681F 
 347      EDE28250 
 347      021788E2 
 347      00DB
 348 0668 00DB0189 		.ascii	"\000\333\001\211\200\024\300,\012D\261p\335\015\370"
 348      8014C02C 
 348      0A44B170 
 348      DD0DF8
 349 0677 0EB003F0 		.ascii	"\016\260\003\360-`' \025\300\003\222\000\361\200\030"
 349      2D602720 
ARM GAS  C:\Users\info\AppData\Local\Temp\ccvuDAPJ.s 			page 27


 349      15C00392 
 349      00F18018 
 350 0687 40321728 		.ascii	"@2\027(\213\246s\227o&\357\214\303tm\036\027\232t-\351"
 350      8BA67397 
 350      6F26EF8C 
 350      C3746D1E 
 350      179A742D 
 351 069c FD924858 		.ascii	"\375\222HX\007:veg.\300]t\035\340\236\357\254\373\010"
 351      073A7665 
 351      672EC05D 
 351      741DE09E 
 351      EFACFB08 
 352 06b0 2D0E52D6 		.ascii	"-\016R\326\236\016z\377\231\332Y/e^\377\025\351\245"
 352      9E0E7AFF 
 352      99DA592F 
 352      655EFF15 
 352      E9A5
 353 06c2 BDD0D01E 		.ascii	"\275\320\320\036\316\265\253\220N\243r\313\373\216<"
 353      CEB5AB90 
 353      4EA372CB 
 353      FB8E3C
 354 06d1 F55A2C08 		.ascii	"\365Z,\010t\316+P\365\177\256\216\254\247\355q\333u"
 354      74CE2B50 
 354      F57FAE8E 
 354      ACA7ED71 
 354      DB75
 355 06e3 F20D7F9F 		.ascii	"\362\015\177\237,\255*\224\301\211\033\376d\311`\227"
 355      2CAD2A94 
 355      C1891BFE 
 355      64C96097 
 356 06f3 071EF572 		.ascii	"\007\036\365r;\323\371\2613]y\315\263\303\3029\216'"
 356      3BD3F9B1 
 356      335D79CD 
 356      B3C3C239 
 356      8E27
 357 0705 E7ACA181 		.ascii	"\347\254\241\201\354z-~-\254\3307O6.\300)\032b,\357"
 357      EC7A2D7E 
 357      2DACD837 
 357      4F362EC0 
 357      291A622C 
 358 071a 4CAA8D41 		.ascii	"L\252\215AH\255_\014\253\260\333O\257_\252\016\022n"
 358      48AD5F0C 
 358      ABB0DB4F 
 358      AF5FAA0E 
 358      126E
 359 072c 82028382 		.ascii	"\202\002\203\202\310\276\227\303\351\321 dC\246.\327"
 359      C8BE97C3 
 359      E9D12064 
 359      43A62ED7 
 360 073c 4D5D0E53 		.ascii	"M]\016S\347\326\265\331\\\000\312\342 sN\310\\\276\320"
 360      E7D6B5D9 
 360      5C00CAE2 
 360      20734EC8 
 360      5CBED0
 361 074f B5B570FF 		.ascii	"\265\265p\377=\004~\036p\016p\026P\001(\005\234\004"
 361      3D047E1E 
 361      700E7016 
ARM GAS  C:\Users\info\AppData\Local\Temp\ccvuDAPJ.s 			page 28


 361      50012805 
 361      9C04
 362 0761 9C009400 		.ascii	"\234\000\224\000\212\001E\200\343\200c\200B\300Q\300"
 362      8A014580 
 362      E3806380 
 362      42C051C0 
 363 0771 11C061C0 		.ascii	"\021\300a\300!@\001 \317mhN\267\313&\332~\350\340|i"
 363      21400120 
 363      CF6D684E 
 363      B7CB26DA 
 363      7EE8E07C 
 364 0786 F69C952D 		.ascii	"\366\234\225-\007\312:3\205\007\376\371:_\266\273\346"
 364      07CA3A33 
 364      8507FEF9 
 364      3A5FB6BB 
 364      E6
 365 0797 386CC26F 		.ascii	"8l\302o\253\224\257\307/$n\225\022W\276pNH\334j%\256"
 365      AB94AFC7 
 365      2F246E95 
 365      1257BE70 
 365      4E48DC6A 
 366 07ad 6C9F1993 		.ascii	"l\237\031\223\2505JT\331\3461*Q\235\356\324\332\267"
 366      A8354A54 
 366      D9E6312A 
 366      519DEED4 
 366      DAB7
 367 07bf 96CDBB12 		.ascii	"\226\315\273\022\267N\211+\337\022\272$\356E%\256|"
 367      B74E892B 
 367      DF12BA24 
 367      EE4525AE 
 367      7C
 368 07d0 556C97B8 		.ascii	"Ul\227\270\227\224\270\362e\276U\342\326+q\345\331m"
 368      9794B8F2 
 368      65BE55E2 
 368      D62B71E5 
 368      D96D
 369 07e2 91B83F28 		.ascii	"\221\270?(q\345\331\275\221.\333\022\256\010l\327\226"
 369      71E5D9BD 
 369      912EDB12 
 369      AE086CD7 
 369      96
 370 07f3 503B376D 		.ascii	"P;7m\265\351K\330:\011gutS\240\273\326\311\226\267d"
 370      B5E94BD8 
 370      3A096775 
 370      7453A0BB 
 370      D6C996B7 
 371 0808 D7A4CBD6 		.ascii	"\327\244\313\326\325ve\276\314}U\373\002F?\005\223\263"
 371      D57665BE 
 371      CC7D55FB 
 371      02463F05 
 371      93B3
 372 081a 772E5D7E 		.ascii	"w.]~\264\221\315\3322n\251\3049\003c\3744<\314V\301"
 372      B491CDDA 
 372      326EA9C4 
 372      390363FC 
 372      343CCC56 
 373 082f 79582A19 		.ascii	"yX*\031%\235N\233X~\231\232&L\242\300\003\360\267\234"
ARM GAS  C:\Users\info\AppData\Local\Temp\ccvuDAPJ.s 			page 29


 373      259D4E9B 
 373      587E999A 
 373      264CA2C0 
 373      03F0B79C 
 374 0843 239FA6C4 		.ascii	"#\237\246\304\365\242\034\346\026[ts\256/!\213.\321"
 374      F5A21CE6 
 374      165B7473 
 374      AE2F218B 
 374      2ED1
 375 0855 794F3ACA 		.ascii	"yO:\312\237\246K\006\213\345\274<\226>\345Xd\241W\264"
 375      9FA64B06 
 375      8BE5BC3C 
 375      963EE558 
 375      64A157B4 
 376 0869 EBF91423 		.ascii	"\353\371\024#%\337\237KV\330\365%\366\2002[\346\272"
 376      25DF9F4B 
 376      56D8F525 
 376      F680325B 
 376      E6BA
 377 087b 2CDD9F29 		.ascii	",\335\237)\251\004\372\203\271\364\017\024\223Z-Oj\015"
 377      A904FA83 
 377      B9F40F14 
 377      935A2D4F 
 377      6A0D
 378 088d 24B54A29 		.ascii	"$\265J)\251\325nI\255RJj\263[R\253iR\017\322\244\262"
 378      A9D56E49 
 378      AD524A6A 
 378      B35B52AB 
 378      69520FD2 
 379 08a3 449E4A7E 		.ascii	"D\236J~\207$\222H\033\222\022Y%K\344\251\364\367\230"
 379      87249248 
 379      1B921259 
 379      254BE4A9 
 379      F4F798
 380 08b6 7CD82ED0 		.ascii	"|\330.\320CE\371\301\322\231\345@:=\263\344\273\237"
 380      4345F9C1 
 380      D299E540 
 380      3A3DB3E4 
 380      BB9F
 381 08c8 5958DDBE 		.ascii	"YX\335\276\344\237\223:\262\314\037\220v\312|q\247\274"
 381      E49F933A 
 381      B2CC1F90 
 381      76CA7C71 
 381      A7BC
 382 08da 5E9BD8AE 		.ascii	"^\233\330\256~?\227\317-\345{{\362\377+\347\364}\236"
 382      7E3F97CF 
 382      2DE57B7B 
 382      F2FF2BE7 
 382      F47D9E
 383 08ed F753D391 		.ascii	"\367S\323\221S(I\203[r9\012\357m0\365\271\367\311\206"
 383      53284983 
 383      5B72390A 
 383      EF6D30F5 
 383      B9F7C986 
 384 0901 95DEAFC3 		.ascii	"\225\336\257\303g\350\036\204b\217\3646\303k\0073\322"
 384      67E81E84 
 384      628FF436 
ARM GAS  C:\Users\info\AppData\Local\Temp\ccvuDAPJ.s 			page 30


 384      C36B0733 
 384      D2
 385 0912 6B9DFB17 		.ascii	"k\235\373\027\300[\026\272\300a\326\306\271\311\033"
 385      C05B16BA 
 385      C061D6C6 
 385      B9C91B
 386 0921 7BD97B17 		.ascii	"{\331{\027\031O\354\275k(\371d\007^:\357@\254\2479\273"
 386      194FECBD 
 386      6B28F964 
 386      075E3AEF 
 386      40ACA739 
 387 0936 447306EC 		.ascii	"Ds\006\354\331sS\023zP\331\013o\224\007g\376\224]\220"
 387      D9735313 
 387      7A50D90B 
 387      6F940767 
 387      FE945D90 
 388 094a E04C89E1 		.ascii	"\340L\211\341\027R\036\252\023\303B\02795\261\330\367"
 388      17521EAA 
 388      13C34217 
 388      3935B1D8 
 388      F7
 389 095b B11FA8CC 		.ascii	"\261\037\250\314\335y\343w9|s>i\263Y\3172\274\344\233"
 389      DD79E377 
 389      397C733E 
 389      69B359CF 
 389      32BCE49B 
 390 096f B5BB8C06 		.ascii	"\265\273\214\006\327f}\177\272\360\342\002\032C\203"
 390      D7667D7F 
 390      BAF0E202 
 390      1A4383
 391 097e 2B8692DC 		.ascii	"+\206\222\334\362\002_\327\373\344U\216}Q{p\272\325"
 391      F2025FD7 
 391      FBE4558E 
 391      7D517B70 
 391      BAD5
 392 0990 DB156C23 		.ascii	"\333\025l#+|q\353D\265\357\374\321^\247\321^\023\243"
 392      2B7C71EB 
 392      44B5EFFC 
 392      D15EA7D1 
 392      5E13A3
 393 09a3 2D9BB9D7 		.ascii	"-\233\271\327\201Y\264\316\321\320L\276.\216\377\230"
 393      8159B4CE 
 393      D1D04CBE 
 393      2E8EFF98 
 394 09b3 70D06557 		.ascii	"p\320eW\244W \322\313b\244M4\322\264\324\2214o<0_\244"
 394      A45720D2 
 394      CB62A44D 
 394      34D2B4D4 
 394      91346F3C 
 395 09ca 4A2FBFD3 		.ascii	"J/\277\323\267\316\015q.\255-L\353\321\330\206\210\371"
 395      B7CE0D71 
 395      2EAD2D4C 
 395      EBD1D886 
 395      88F9
 396 09dc A5B652A9 		.ascii	"\245\266R\2517E\251%I}'t\202\324;\242T\340\240f\227"
 396      3745A925 
 396      497D2774 
ARM GAS  C:\Users\info\AppData\Local\Temp\ccvuDAPJ.s 			page 31


 396      82D43BA2 
 396      54E0A066 
 397 09f1 D41B20B5 		.ascii	"\324\033 \265Y\224\332F\245&\307\234\273\244\306/\346"
 397      5994DA46 
 397      A526C79C 
 397      BBA4C62F 
 397      E6
 398 0a02 93DA9ED1 		.ascii	"\223\332\236\321\326\243\021\234\216\211NIO\267\273"
 398      D6A3119C 
 398      8E894E49 
 398      4FB7BB
 399 0a11 9CDE02A7 		.ascii	"\234\336\002\247\355\242\323\333\324\351\251\206\352"
 399      EDA2D3DB 
 399      D4E9A986 
 399      EA
 400 0a1e 416FBCD3 		.ascii	"Ao\274\323{\036\247\251}\343C>\202\323.\271\322\016"
 400      7B1EA7A9 
 400      7DE3433E 
 400      82D32EB9 
 400      D20E
 401 0a30 97D33BE0 		.ascii	"\227\323;\340\264Ct\332I\235\026\3069\307\274\361A\346"
 401      B44374DA 
 401      499D16C6 
 401      39C7BCF1 
 401      41E6
 402 0a42 F44552DC 		.ascii	"\364ER\334\003\226B\262\023\260\024v\2147>\221\272\273"
 402      039642B2 
 402      13B01476 
 402      8C373E91 
 402      BABB
 403 0a54 9BA5F0E1 		.ascii	"\233\245\360\341\336\272\032\215<\207_\274#Ka\017M\341"
 403      DEBA1A8D 
 403      3C875FBC 
 403      234B610F 
 403      4DE1
 404 0a66 5D318509 		.ascii	"]1\205\011\223m-b\264\317\006W\20325\241\240.i\266v"
 404      936D2D62 
 404      B4CF0657 
 404      833235A1 
 404      A02E69B6 
 405 0a7b 89A27AA9 		.ascii	"\211\242z\251\250\242\204\222$\017\\\316D)M\256\221"
 405      A8A28492 
 405      240F5CCE 
 405      44294DAE 
 405      91
 406 0a8c F6FCA79E 		.ascii	"\366\374\247\236\363\266\337O\333\357s\265\237|>[\354"
 406      F3B6DF4F 
 406      DBEF73B5 
 406      9F7C3E5B 
 406      EC
 407 0a9d C2AC4EBD 		.ascii	"\302\254N\2753\005\021\006\272'5\177Ol\376>m\376n~\317"
 407      33051106 
 407      BA27357F 
 407      4F6CFE3E 
 407      6DFE6E7E 
 408 0ab2 2E4FDCC4 		.ascii	".O\334\304\232\357.,\313b\337\2243\\\315W<ik\327\272"
 408      9AEF2E2C 
ARM GAS  C:\Users\info\AppData\Local\Temp\ccvuDAPJ.s 			page 32


 408      CB62DF94 
 408      335CCD57 
 408      3C696BD7 
 409 0ac7 243D6039 		.ascii	"$=`9\271\027{;f~MCT\323\240\250\311y\246q\334K\320\224"
 409      B9177B3B 
 409      667E4D43 
 409      54D3A0A8 
 409      C979A671 
 410 0adf C1340103 		.ascii	"\3014\001\003\015H\232\006DM\017\251\246\372\322\251"
 410      0D489A06 
 410      444D0FA9 
 410      A6FAD2A9 
 411 0aef 373E788C 		.ascii	"7>x\214i\332W<\356\364\371E\001\337\234K\327\264\314"
 411      69DA573C 
 411      EEF4F945 
 411      01DF9C4B 
 411      D7B4CC
 412 0b02 3DF1B0A6 		.ascii	"=\361\260\246\321c\370#\346\300\3652\240\242%\237\301"
 412      D163F823 
 412      E6C0F532 
 412      A0A2259F 
 412      C1
 413 0b13 3879CCFD 		.ascii	"8y\314\375\202,d)\017\333\275p\032\373\3026\261\257"
 413      822C6429 
 413      0FDBBD70 
 413      1AFBC236 
 413      B1AF
 414 0b25 B143F810 		.ascii	"\261C\370\020\372\02303\342Z\036p\354H~\231|\032\031"
 414      FA133033 
 414      E25A1E70 
 414      EC487E99 
 414      7C1A19
 415 0b38 BE71AB08 		.ascii	"\276q\253\010\223\017\201\274\260t\370\311\347\311S"
 415      930F81BC 
 415      B074F8C9 
 415      E7C953
 416 0b47 4EAB220B 		.ascii	"N\253\"\0135m\006\330\005U\003\243Z\277\024\341\274"
 416      356D06D8 
 416      055503A3 
 416      5ABF14E1 
 416      BC
 417 0b58 FA3162EF 		.ascii	"\3721b\357\205pb\035\341\010}\224\363\023\037\242_\352"
 417      8570621D 
 417      E1087D94 
 417      F3131FA2 
 417      5FEA
 418 0b6a EF9DF889 		.ascii	"\357\235\370\211\234\334\372c\344\204W\374\0365\013"
 418      9CDCFA63 
 418      E48457FC 
 418      1E350B
 419 0b79 D7B977FB 		.ascii	"\327\271w\373\2731\274S\215\236q~hX\010VzpX\010v\214"
 419      BB31BC53 
 419      8D9E717E 
 419      68580856 
 419      7A705808 
 420 0b8f 065B3A58 		.ascii	"\006[:X\270C\217KY\260W\016U\276\326\263`=\300\274\225"
 420      B8438F4B 
ARM GAS  C:\Users\info\AppData\Local\Temp\ccvuDAPJ.s 			page 33


 420      59B0570E 
 420      55BED6B3 
 420      603DC0BC 
 421 0ba4 51DDA89D 		.ascii	"Q\335\250\2357\270\347bpgXp\361\003\031\217}\346\006"
 421      37B8E762 
 421      70675870 
 421      F103198F 
 421      7DE606
 422 0bb7 07A73E34 		.ascii	"\007\247>4A\233}A\365>\027\365^l\334\271O?7\272y\331"
 422      419B7D41 
 422      F53E17F5 
 422      5E6CDCB9 
 422      4F3F37BA 
 423 0bcd 3F348D9C 		.ascii	"?4\215\234\301Bt\025\036\2747\232\204\320\306\205\320"
 423      C1427415 
 423      1EBC379A 
 423      84D0C685 
 423      D0
 424 0bde A4A7C685 		.ascii	"\244\247\306\205\320^\322\320\232\022\017\315x\341V"
 424      D05ED2D0 
 424      9A120FCD 
 424      78E156
 425 0bed 16DAE5C2 		.ascii	"\026\332\345\302\376\0378\301C\253\350a\352-\017S\202"
 425      FE1F38C1 
 425      43ABE861 
 425      EA2D0F53 
 425      82
 426 0bfe 8757D443 		.ascii	"\207W\324C\302\211\356Ro\374R\030\011I\361\223\302?"
 426      C289EE52 
 426      6FFC5218 
 426      0949F193 
 426      C23F
 427 0c10 0D78D1BD 		.ascii	"\015x\321\275\240\244R\3706\357I>\223\266L\345{\315"
 427      A0A452F8 
 427      36EF493E 
 427      93B64CE5 
 427      7BCD
 428 0c22 9BAB1931 		.ascii	"\233\253\0311Wo8\232\253\242\263=\243\272\271\271\202"
 428      576F389A 
 428      ABA2B33D 
 428      A3BAB9B9 
 428      82
 429 0c33 93377A4D 		.ascii	"\2237zMU\314\322\350g\304\350g\012\312\206=\347\346"
 429      55CCD2E8 
 429      67C4E867 
 429      0ACA863D 
 429      E7E6
 430 0c45 6A5E76C3 		.ascii	"j^v\303\375\241N1Wc$R\036\373\241i!R\351\251i!\322\030"
 430      FDA14E31 
 430      57632452 
 430      1EFBA169 
 430      2152E9A9 
 431 0c5d 4C221DAE 		.ascii	"L\"\035\256)x\345\215\367\351h\244\267\263Z'}\005\017"
 431      2978E58D 
 431      F7E968A4 
 431      B7B35A27 
 431      7D050F
ARM GAS  C:\Users\info\AppData\Local\Temp\ccvuDAPJ.s 			page 34


 432 0c70 699FF230 		.ascii	"i\237\3620\357\210\213mx\256\013RB\\\304R\027\327\222"
 432      EF888B6D 
 432      78AE0B52 
 432      425CC452 
 432      17D792
 433 0c83 9F2C946F 		.ascii	"\237,\224o\242CnG\2448L7Qr%S\254\372\374\200ZN\356w"
 433      A2436E47 
 433      A4384C37 
 433      51722553 
 433      ACFAFC80 
 434 0c9b 23C70BE4 		.ascii	"#\307\013\344xJN=:\223\242\221\223{\334\310\011\002"
 434      784A4E3D 
 434      3A93A291 
 434      937BDCC8 
 434      0902
 435 0cad 398192A7 		.ascii	"9\201\222\247\017\367\345\351\345d2\011$\362v\201\274"
 435      0FF7E5E9 
 435      E5643209 
 435      24F27681 
 435      BC
 436 0cbe 9D921BDA 		.ascii	"\235\222\033\332j\222\334<O\272\221\023\005r\"%\217"
 436      6A92DC3C 
 436      4FBA9113 
 436      05722225 
 436      8F
 437 0ccf 3DBBBDD3 		.ascii	"=\273\275\323\3153I\212D\376V \177K\311\247\362\352"
 437      CD33498A 
 437      44FE5620 
 437      7F4BC9A7 
 437      F2EA
 438 0ce1 8FFAC8C9 		.ascii	"\217\372\310\311\365n\232\223\004r\022%\217<z4\312\271"
 438      F56E9A93 
 438      04721225 
 438      8F3C7A34 
 438      CAB9
 439 0cf3 FDEB801B 		.ascii	"\375\353\200\033y\207@\336A\311\361I\263\203\013p\005"
 439      798740DE 
 439      41C9F149 
 439      B3830B70 
 439      05
 440 0d04 EBA9B359 		.ascii	"\353\251\263Y3N5\256fFB\372l\237\026;\2311\361\244\243"
 440      334E35AE 
 440      664642FA 
 440      6C9F163B 
 440      9931F1A4 
 441 0d19 D0135F11 		.ascii	"\320\023_\021hO\212\316\372\010\037t\211\235V\234\024"
 441      684F8ACE 
 441      FA081F74 
 441      899D569C 
 441      14
 442 0d2a 8BF01D5A 		.ascii	"\213\360\035Z\351\371\262\260,Q\213\350\207\203 \361"
 442      E9F9B2B0 
 442      2C518BE8 
 442      878320F1 
 443 0d3a 0BEEC755 		.ascii	"\013\356\307U\262/\270\337A7\357\306J\337\270\330\233"
 443      B22FB8DF 
 443      4137EFC6 
ARM GAS  C:\Users\info\AppData\Local\Temp\ccvuDAPJ.s 			page 35


 443      4ADFB8D8 
 443      9B
 444 0d4b B793BD79 		.ascii	"\267\223\275y\247\340\000z\002G\273\004>\031,\373p\020"
 444      A7E0007A 
 444      0247BB04 
 444      3E192CFB 
 444      7010
 445 0d5d 4AC78168 		.ascii	"J\307\201h\017 \015\260\027\313\337\234\357^w\275\257"
 445      0F200DB0 
 445      17CBDF9C 
 445      EF5E77BD 
 445      AF
 446 0d6e ED546844 		.ascii	"\355ThD~\356\037\223\250\251\012T\371\233hw\262\360"
 446      7EEE1F93 
 446      A8A90A54 
 446      F99B6877 
 446      B2F0
 447 0d80 EA450E69 		.ascii	"\352E\016i\311\002y\336cs\007\373\324\007\034\371\261"
 447      C90279DE 
 447      637307FB 
 447      D4071CF9 
 447      B1
 448 0d91 99CCE8A4 		.ascii	"\231\314\350\244\261\327\276\270\227&\211\253-\254*"
 448      B1D7BEB8 
 448      972689AB 
 448      2DAC2A
 449 0da0 F441418B 		.ascii	"\364AA\213\3313\331\327\003\3113Y\3407\003\273v#\342"
 449      D933D9D7 
 449      03C93359 
 449      E03703BB 
 449      7623E2
 450 0db3 62CED708 		.ascii	"b\316\327\010WN2!\017\177+'\244\013\333\363\226\310"
 450      574E3221 
 450      0F7F2B27 
 450      A40BDBF3 
 450      96C8
 451 0dc5 07421696 		.ascii	"\007B\026\226\177\227\311\026\006B6\035\010\373F\006"
 451      7F97C916 
 451      0642361D 
 451      08FB4606 
 452 0dd5 46DDC6E3 		.ascii	"F\335\306\343u\267Q\263_ \357\247\344\316\276\035\303"
 452      75B751B3 
 452      5F20EFA7 
 452      E4CEBE1D 
 452      C3
 453 0de6 DCF23CA6 		.ascii	"\334\362<\246-\011\346\354\027\357\3203<\333>\017\340"
 453      2D09E6EC 
 453      17EFD033 
 453      3CDB3E0F 
 453      E0
 454 0df7 E5649E3D 		.ascii	"\345d\236=\332U\355\3138\260c~R\230\004Dw\336A\312{"
 454      DA55EDCB 
 454      38B0637E 
 454      52980444 
 454      77DE41CA 
 455 0e0c 59D0E2D4 		.ascii	"Y\320\342\3243\2363];\227\223C9\317r\277\313\365\026"
 455      339E335D 
ARM GAS  C:\Users\info\AppData\Local\Temp\ccvuDAPJ.s 			page 36


 455      3B979343 
 455      39CF72BF 
 455      CBF516
 456 0e1f 3807DFE2 		.ascii	"8\007\337\342\344R\316\366\211\222\335\202&g\345[\234"
 456      E452CEF6 
 456      8992DD82 
 456      2667E55B 
 456      9C
 457 0e30 3CCA69EE 		.ascii	"<\312i\356\256\274\245\0258\023oq\362)\347^Ss\252\350"
 457      AEBCA515 
 457      38136F71 
 457      F229E75E 
 457      5373AAE8 
 458 0e44 274D3797 		.ascii	"'M7\227S\200\227\253\374\243\327mYg0\033\242M\301\037"
 458      538097AB 
 458      FCA3D76D 
 458      5967301B 
 458      A24DC11F 
 459 0e58 AD0E3604 		.ascii	"\255\0166\004\257Y\267e\355\032\315o\377\360\371\262"
 459      AF59B765 
 459      ED1ACD6F 
 459      FFF0F9B2 
 460 0e68 DF0407AB 		.ascii	"\337\004\007\253\274\015\206h\253\315\261\316\340\210"
 460      BC0D8668 
 460      ABCDB1CE 
 460      E088
 461 0e76 41A67F0B 		.ascii	"A\246\177\013\211\214\212\330\020e\014_\026j\015\263"
 461      898C8AD8 
 461      10650C5F 
 461      166A0DB3 
 462 0e86 D897056D 		.ascii	"\330\227\005mY\367\321/CL[#\243,v{H\244=\302\264\314"
 462      59F7D12F 
 462      434C5B23 
 462      A32C767B 
 462      48A43DC2 
 463 0e9c 1465313A 		.ascii	"\024e1:\"\242B>\\\265\306\275\300\032\036\031\021\345"
 463      22A2423E 
 463      5CB5C6BD 
 463      C01A1E19 
 463      11E5
 464 0eae 08D9608B 		.ascii	"\010\331`\213\0161F\205\207\374\353\252\017W\005\223"
 464      0E314685 
 464      87FCEBAA 
 464      0F570593 
 465 0ebe BB5FDB22 		.ascii	"\273_\333\"l\226_[\214\353\255!V\233),\332l\011\011"
 465      6C965F5B 
 465      8CEBAD21 
 465      569B292C 
 465      DA6C0909 
 466 0ed2 379A365A 		.ascii	"7\2326Zm\226\020\203\331\022j\214\016s\030\034[#-\366"
 466      6D961083 
 466      D9126A8C 
 466      0E73181C 
 466      5B232DF6 
 467 0ee6 551B555E 		.ascii	"U\033U^\202\224M\377_J\354[\355!\006\273\303\014\315"
 467      82944DFF 
 467      5F4AEC5B 
ARM GAS  C:\Users\info\AppData\Local\Temp\ccvuDAPJ.s 			page 37


 467      ED2106BB 
 467      C30CCD
 468 0ef9 42F3BE66 		.ascii	"B\363\276f\313\372\210h\233\311\002EF\207\345]\227\031"
 468      CBFA8868 
 468      9BC90245 
 468      4687E55D 
 468      9719
 469 0f0b 66B43B0C 		.ascii	"f\264;\014\221V\033+\377\251\253\\\324\357\252\322m"
 469      91561B2B 
 469      FFA9AB5C 
 469      D4EFAAD2 
 469      6D
 470 0f1c 88B44618 		.ascii	"\210\264F\030@#\224j\243\035\241\353X18\336d\005\276"
 470      4023946A 
 470      A31DA1EB 
 470      583138DE 
 470      6405BE
 471 0f2f D16C26FA 		.ascii	"\321l&\372u\3265&R\021\345\260\230\351\275P\356o\265"
 471      75D63526 
 471      5211E5B0 
 471      98E9BD50 
 471      EE6FB5
 472 0f42 1B42236C 		.ascii	"\033B#l\016\203\325\266\311\022e\267\030\302#\314\026"
 472      0E83D5B6 
 472      C91265B7 
 472      18C223CC 
 472      16
 473 0f53 CD164344 		.ascii	"\315\026CDh\250\335\342\320Xl\246\010P\272A\313\272"
 473      68A8DDE2 
 473      D0586CA6 
 473      0850BA41 
 473      CBBA
 474 0f65 2CF82383 		.ascii	",\370#\203C#\336\250\311s\336\353\243\355\006SX\204"
 474      4323DEA8 
 474      C973DEEB 
 474      A3ED0653 
 474      5884
 475 0f77 E92B81B2 		.ascii	"\351+\201\262v\215@!7\213\2506\243\315\014\262\303\214"
 475      768D4021 
 475      378BA836 
 475      A3CD0CB2 
 475      C38C
 476 0f89 5B0DA6F5 		.ascii	"[\015\246\365::2\302\355\033\340\336k\375V\207\005\256"
 476      3A3A32C2 
 476      ED1BE0DE 
 476      6BFD5687 
 476      05AE
 477 0f9b 9E26A319 		.ascii	"\236&\243\031."
 477      2E
 478 0fa0 5AB3D51E 		.ascii	"Z\263\325\036\311X^6\313\026\007\\\365\224m\332h\214"
 478      C9585E36 
 478      CB16075C 
 478      F5946DDA 
 478      688C
 479 0fb2 2286586F 		.ascii	"\"\206Xo\265\205F\350\"\255[,a\206\315V\263c\343\242"
 479      B58546E8 
 479      22AD5B2C 
ARM GAS  C:\Users\info\AppData\Local\Temp\ccvuDAPJ.s 			page 38


 479      6186CD56 
 479      B363E3A2 
 480 0fc6 D0306B24 		.ascii	"\3200k$\321m\020u/\024\263$\026\350\034\320\245\206"
 480      D16D1075 
 480      2F14B324 
 480      16E81CD0 
 480      A586
 481 0fd8 8D16EB86 		.ascii	"\215\026\353\206\215\016-\275\247O\372o\216\262\202"
 481      8D0E2DBD 
 481      A74FFA6F 
 481      8EB282
 482 0fe7 84C8E830 		.ascii	"\204\310\3500\273Pb\260\331\375\314F\207\321\000\017"
 482      BB5062B0 
 482      D9FDCC46 
 482      87D1000F 
 483 0ff7 45471A1C 		.ascii	"EG\032\034\326p\013\024\371"
 483      D6700B14 
 483      F9
 484 1000 938CB922 		.ascii	"\223\214\271\"5\004\257^\375\325\357\276\321\330#\255"
 484      3504AF5E 
 484      FDD5EFBE 
 484      D1D823AD 
 485 1010 345D7A3B 		.ascii	"4]z;\224\261\232\215\337\370\021\303\335\341\"\273y"
 485      94B19A8D 
 485      DFF811C3 
 485      DDE122BB 
 485      79
 486 1021 8E3FBFC8 		.ascii	"\216?\277\310\010\350]\310\277\305a\330l\264: !\376"
 486      08E85DC8 
 486      BFC561D8 
 486      6CB43A20 
 486      21FE
 487 1033 CC923F19 		.ascii	"\314\222?\031n_\012c\017\302\267F\032 v\343z\"\233\260"
 487      6E5F0A63 
 487      0FC2B746 
 487      1A2076E3 
 487      7A229BB0 
 488 1047 6D50411C 		.ascii	"mPA\034\320\032\213M^\341\347\306\016\263l\262\204-"
 488      D01A8B4D 
 488      5EE1E7C6 
 488      0EB36CB2 
 488      842D
 489 1059 92D368C9 		.ascii	"\222\323h\311R6=e\351\204\241\021\025mr\350YVY\236\374"
 489      52363D65 
 489      E984A111 
 489      156D72E8 
 489      5956599E 
 490 106e 57AD0A89 		.ascii	"W\255\012\211^\267a\215\301d\2172\205\220G`\274.~\373"
 490      5EB7618D 
 490      C1648F32 
 490      85904760 
 490      BC2E7EFB 
 491 1082 5107EB53 		.ascii	"Q\007\353S\346a\261k\240\262\021I\272\332\223\326;~"
 491      E661B16B 
 491      A0B21149 
 491      BADA93D6 
 491      3B7E
ARM GAS  C:\Users\info\AppData\Local\Temp\ccvuDAPJ.s 			page 39


 492 1094 F6963FD7 		.ascii	"\366\226?\327\012\261\312$,\031d$\374\247\315\374Y\224"
 492      0AB1CA24 
 492      2C196424 
 492      FCA7CDFC 
 492      5994
 493 10a6 D1660FB5 		.ascii	"\321f\017\265Dil\021V[\030\314\333E\256\332?[l\346\377"
 493      44696C11 
 493      565B18CC 
 493      DB45AEDA 
 493      3F5B6CE6 
 494 10bb 800E5AE8 		.ascii	"\200\016Z\350V\362\233p\363;R\001\031\346\242\013w\336"
 494      56F29B70 
 494      F33B5201 
 494      19E6A20B 
 494      77DE
 495 10cd 27511B96 		.ascii	"'Q\033\226\270\025\374\331\362u4\014r\313O\005=\033"
 495      B815FCD9 
 495      F275340C 
 495      72CB4F05 
 495      3D1B
 496 10df 2D619196 		.ascii	"-a\221\226(Y\200V\307\373\312U\254C\303-\341\021Q[\337"
 496      28598056 
 496      C7FBCA55 
 496      AC43C32D 
 496      E111515B 
 497 10f4 A314B7D5 		.ascii	"\243\024\267\325\316-G?SZ\017\251sp\363\365r\305\332"
 497      CE2D473F 
 497      535A0FA9 
 497      7370F3F5 
 497      72C5DA
 498 1107 C888CD30 		.ascii	"\310\210\3150!\215\233,\253\377\016N0\341\374\\\221"
 498      218D9B2C 
 498      ABFF0E4E 
 498      30E1FC5C 
 498      91
 499 1118 4326C7EA 		.ascii	"C&\307\352\037\257\246O{l\001wvl\26294t\202D:\204\334"
 499      1FAFA64F 
 499      7B6C0177 
 499      766CB239 
 499      34748244 
 500 112f 518BF5AE 		.ascii	"Q\213\365\256\307V\302\321I\305\216\377\005R\215Nr"
 500      C756C2D1 
 500      49C58EFF 
 500      05528D4E 
 500      72
 501              		.text
 502              		.section	.gnu.lto_.symtab.792a5c95,"",%progbits
 503 0000 75387838 		.ascii	"u8x8_d_uc1601_128x32\000"
 503      5F645F75 
 503      63313630 
 503      315F3132 
 503      38783332 
 504 0015 00       		.ascii	"\000"
 505 0016 00       		.ascii	"\000"
 506 0017 00       		.ascii	"\000"
 507 0018 00000000 		.ascii	"\000\000\000\000\000\000\000\000"
 507      00000000 
ARM GAS  C:\Users\info\AppData\Local\Temp\ccvuDAPJ.s 			page 40


 508 0020 41010000 		.ascii	"A\001\000\000"
 509 0024 75387838 		.ascii	"u8x8_cad_EndTransfer\000"
 509      5F636164 
 509      5F456E64 
 509      5472616E 
 509      73666572 
 510 0039 00       		.ascii	"\000"
 511 003a 02       		.ascii	"\002"
 512 003b 00       		.ascii	"\000"
 513 003c 00000000 		.ascii	"\000\000\000\000\000\000\000\000"
 513      00000000 
 514 0044 47010000 		.ascii	"G\001\000\000"
 515 0048 75387838 		.ascii	"u8x8_cad_SendData\000"
 515      5F636164 
 515      5F53656E 
 515      64446174 
 515      6100
 516 005a 00       		.ascii	"\000"
 517 005b 02       		.ascii	"\002"
 518 005c 00       		.ascii	"\000"
 519 005d 00000000 		.ascii	"\000\000\000\000\000\000\000\000"
 519      00000000 
 520 0065 4F010000 		.ascii	"O\001\000\000"
 521 0069 75387838 		.ascii	"u8x8_cad_SendCmd\000"
 521      5F636164 
 521      5F53656E 
 521      64436D64 
 521      00
 522 007a 00       		.ascii	"\000"
 523 007b 02       		.ascii	"\002"
 524 007c 00       		.ascii	"\000"
 525 007d 00000000 		.ascii	"\000\000\000\000\000\000\000\000"
 525      00000000 
 526 0085 55010000 		.ascii	"U\001\000\000"
 527 0089 75387838 		.ascii	"u8x8_cad_StartTransfer\000"
 527      5F636164 
 527      5F537461 
 527      72745472 
 527      616E7366 
 528 00a0 00       		.ascii	"\000"
 529 00a1 02       		.ascii	"\002"
 530 00a2 00       		.ascii	"\000"
 531 00a3 00000000 		.ascii	"\000\000\000\000\000\000\000\000"
 531      00000000 
 532 00ab 58010000 		.ascii	"X\001\000\000"
 533 00af 75387838 		.ascii	"u8x8_cad_SendArg\000"
 533      5F636164 
 533      5F53656E 
 533      64417267 
 533      00
 534 00c0 00       		.ascii	"\000"
 535 00c1 02       		.ascii	"\002"
 536 00c2 00       		.ascii	"\000"
 537 00c3 00000000 		.ascii	"\000\000\000\000\000\000\000\000"
 537      00000000 
 538 00cb 5B010000 		.ascii	"[\001\000\000"
 539 00cf 75387838 		.ascii	"u8x8_cad_SendSequence\000"
ARM GAS  C:\Users\info\AppData\Local\Temp\ccvuDAPJ.s 			page 41


 539      5F636164 
 539      5F53656E 
 539      64536571 
 539      75656E63 
 540 00e5 00       		.ascii	"\000"
 541 00e6 02       		.ascii	"\002"
 542 00e7 00       		.ascii	"\000"
 543 00e8 00000000 		.ascii	"\000\000\000\000\000\000\000\000"
 543      00000000 
 544 00f0 60010000 		.ascii	"`\001\000\000"
 545 00f4 75387838 		.ascii	"u8x8_d_helper_display_init\000"
 545      5F645F68 
 545      656C7065 
 545      725F6469 
 545      73706C61 
 546 010f 00       		.ascii	"\000"
 547 0110 02       		.ascii	"\002"
 548 0111 00       		.ascii	"\000"
 549 0112 00000000 		.ascii	"\000\000\000\000\000\000\000\000"
 549      00000000 
 550 011a 64010000 		.ascii	"d\001\000\000"
 551 011e 75387838 		.ascii	"u8x8_d_helper_display_setup_memory\000"
 551      5F645F68 
 551      656C7065 
 551      725F6469 
 551      73706C61 
 552 0141 00       		.ascii	"\000"
 553 0142 02       		.ascii	"\002"
 554 0143 00       		.ascii	"\000"
 555 0144 00000000 		.ascii	"\000\000\000\000\000\000\000\000"
 555      00000000 
 556 014c 69010000 		.ascii	"i\001\000\000"
 557              		.text
 558              		.section	.gnu.lto_.opts,"",%progbits
 559 0000 272D666D 		.ascii	"'-fmath-errno' '-fsigned-zeros' '-ftrapping-math' '"
 559      6174682D 
 559      6572726E 
 559      6F272027 
 559      2D667369 
 560 0033 2D666E6F 		.ascii	"-fno-trapv' '-fno-strict-overflow' '-fno-openmp' '-"
 560      2D747261 
 560      70762720 
 560      272D666E 
 560      6F2D7374 
 561 0066 666E6F2D 		.ascii	"fno-openacc' '-mcpu=cortex-m3' '-mthumb' '-g' '-Og'"
 561      6F70656E 
 561      61636327 
 561      20272D6D 
 561      6370753D 
 562 0099 20272D66 		.ascii	" '-ffunction-sections' '-ffat-lto-objects' '-flto'\000"
 562      66756E63 
 562      74696F6E 
 562      2D736563 
 562      74696F6E 
 563              		.text
 564              		.cfi_sections	.debug_frame
 565              		.section	.text.u8x8_d_uc1601_128x32,"ax",%progbits
ARM GAS  C:\Users\info\AppData\Local\Temp\ccvuDAPJ.s 			page 42


 566              		.align	2
 567              		.global	u8x8_d_uc1601_128x32
 568              		.thumb
 569              		.thumb_func
 570              		.type	u8x8_d_uc1601_128x32, %function
 571              	u8x8_d_uc1601_128x32:
 572              	.LFB0:
 573              		.file 1 "..\\u8g2_csrc\\u8x8_d_uc1601.c"
   1:..\u8g2_csrc/u8x8_d_uc1601.c **** /*
   2:..\u8g2_csrc/u8x8_d_uc1601.c **** 
   3:..\u8g2_csrc/u8x8_d_uc1601.c ****   u8x8_d_uc1601.c
   4:..\u8g2_csrc/u8x8_d_uc1601.c ****   
   5:..\u8g2_csrc/u8x8_d_uc1601.c ****   Universal 8bit Graphics Library (https://github.com/olikraus/u8g2/)
   6:..\u8g2_csrc/u8x8_d_uc1601.c **** 
   7:..\u8g2_csrc/u8x8_d_uc1601.c ****   Copyright (c) 2017, olikraus@gmail.com
   8:..\u8g2_csrc/u8x8_d_uc1601.c ****   All rights reserved.
   9:..\u8g2_csrc/u8x8_d_uc1601.c **** 
  10:..\u8g2_csrc/u8x8_d_uc1601.c ****   Redistribution and use in source and binary forms, with or without modification, 
  11:..\u8g2_csrc/u8x8_d_uc1601.c ****   are permitted provided that the following conditions are met:
  12:..\u8g2_csrc/u8x8_d_uc1601.c **** 
  13:..\u8g2_csrc/u8x8_d_uc1601.c ****   * Redistributions of source code must retain the above copyright notice, this list 
  14:..\u8g2_csrc/u8x8_d_uc1601.c ****     of conditions and the following disclaimer.
  15:..\u8g2_csrc/u8x8_d_uc1601.c ****     
  16:..\u8g2_csrc/u8x8_d_uc1601.c ****   * Redistributions in binary form must reproduce the above copyright notice, this 
  17:..\u8g2_csrc/u8x8_d_uc1601.c ****     list of conditions and the following disclaimer in the documentation and/or other 
  18:..\u8g2_csrc/u8x8_d_uc1601.c ****     materials provided with the distribution.
  19:..\u8g2_csrc/u8x8_d_uc1601.c **** 
  20:..\u8g2_csrc/u8x8_d_uc1601.c ****   THIS SOFTWARE IS PROVIDED BY THE COPYRIGHT HOLDERS AND 
  21:..\u8g2_csrc/u8x8_d_uc1601.c ****   CONTRIBUTORS "AS IS" AND ANY EXPRESS OR IMPLIED WARRANTIES, 
  22:..\u8g2_csrc/u8x8_d_uc1601.c ****   INCLUDING, BUT NOT LIMITED TO, THE IMPLIED WARRANTIES OF 
  23:..\u8g2_csrc/u8x8_d_uc1601.c ****   MERCHANTABILITY AND FITNESS FOR A PARTICULAR PURPOSE ARE 
  24:..\u8g2_csrc/u8x8_d_uc1601.c ****   DISCLAIMED. IN NO EVENT SHALL THE COPYRIGHT HOLDER OR 
  25:..\u8g2_csrc/u8x8_d_uc1601.c ****   CONTRIBUTORS BE LIABLE FOR ANY DIRECT, INDIRECT, INCIDENTAL, 
  26:..\u8g2_csrc/u8x8_d_uc1601.c ****   SPECIAL, EXEMPLARY, OR CONSEQUENTIAL DAMAGES (INCLUDING, BUT 
  27:..\u8g2_csrc/u8x8_d_uc1601.c ****   NOT LIMITED TO, PROCUREMENT OF SUBSTITUTE GOODS OR SERVICES; 
  28:..\u8g2_csrc/u8x8_d_uc1601.c ****   LOSS OF USE, DATA, OR PROFITS; OR BUSINESS INTERRUPTION) HOWEVER 
  29:..\u8g2_csrc/u8x8_d_uc1601.c ****   CAUSED AND ON ANY THEORY OF LIABILITY, WHETHER IN CONTRACT, 
  30:..\u8g2_csrc/u8x8_d_uc1601.c ****   STRICT LIABILITY, OR TORT (INCLUDING NEGLIGENCE OR OTHERWISE) 
  31:..\u8g2_csrc/u8x8_d_uc1601.c ****   ARISING IN ANY WAY OUT OF THE USE OF THIS SOFTWARE, EVEN IF 
  32:..\u8g2_csrc/u8x8_d_uc1601.c ****   ADVISED OF THE POSSIBILITY OF SUCH DAMAGE.  
  33:..\u8g2_csrc/u8x8_d_uc1601.c **** 
  34:..\u8g2_csrc/u8x8_d_uc1601.c ****   This is for the uc1601s controller
  35:..\u8g2_csrc/u8x8_d_uc1601.c ****   
  36:..\u8g2_csrc/u8x8_d_uc1601.c ****   
  37:..\u8g2_csrc/u8x8_d_uc1601.c **** */
  38:..\u8g2_csrc/u8x8_d_uc1601.c **** #include "u8x8.h"
  39:..\u8g2_csrc/u8x8_d_uc1601.c **** 
  40:..\u8g2_csrc/u8x8_d_uc1601.c **** 
  41:..\u8g2_csrc/u8x8_d_uc1601.c **** 
  42:..\u8g2_csrc/u8x8_d_uc1601.c **** 
  43:..\u8g2_csrc/u8x8_d_uc1601.c **** static const uint8_t u8x8_d_uc1601_128x32_powersave0_seq[] = {
  44:..\u8g2_csrc/u8x8_d_uc1601.c ****   U8X8_START_TRANSFER(),             	/* enable chip, delay is part of the transfer start */
  45:..\u8g2_csrc/u8x8_d_uc1601.c ****   U8X8_C(0x0af),		                /* display on */
  46:..\u8g2_csrc/u8x8_d_uc1601.c ****   U8X8_END_TRANSFER(),             	/* disable chip */
  47:..\u8g2_csrc/u8x8_d_uc1601.c ****   U8X8_END()             			/* end of sequence */
  48:..\u8g2_csrc/u8x8_d_uc1601.c **** };
  49:..\u8g2_csrc/u8x8_d_uc1601.c **** 
ARM GAS  C:\Users\info\AppData\Local\Temp\ccvuDAPJ.s 			page 43


  50:..\u8g2_csrc/u8x8_d_uc1601.c **** static const uint8_t u8x8_d_uc1601_128x32_powersave1_seq[] = {
  51:..\u8g2_csrc/u8x8_d_uc1601.c ****   U8X8_START_TRANSFER(),             	/* enable chip, delay is part of the transfer start */
  52:..\u8g2_csrc/u8x8_d_uc1601.c ****   U8X8_C(0x0ae),		                /* display off */
  53:..\u8g2_csrc/u8x8_d_uc1601.c ****   U8X8_END_TRANSFER(),             	/* disable chip */
  54:..\u8g2_csrc/u8x8_d_uc1601.c ****   U8X8_END()             			/* end of sequence */
  55:..\u8g2_csrc/u8x8_d_uc1601.c **** };
  56:..\u8g2_csrc/u8x8_d_uc1601.c **** 
  57:..\u8g2_csrc/u8x8_d_uc1601.c **** static const uint8_t u8x8_d_uc1601_128x32_flip0_seq[] = {
  58:..\u8g2_csrc/u8x8_d_uc1601.c ****   U8X8_START_TRANSFER(),             	/* enable chip, delay is part of the transfer start */
  59:..\u8g2_csrc/u8x8_d_uc1601.c ****   U8X8_C(0x0c4),				/* bit 1: MX, bit 2: MY */
  60:..\u8g2_csrc/u8x8_d_uc1601.c ****   U8X8_C(0x060),		                /* set display start line to 32 */
  61:..\u8g2_csrc/u8x8_d_uc1601.c ****   U8X8_END_TRANSFER(),             	/* disable chip */
  62:..\u8g2_csrc/u8x8_d_uc1601.c ****   U8X8_END()             			/* end of sequence */
  63:..\u8g2_csrc/u8x8_d_uc1601.c **** };
  64:..\u8g2_csrc/u8x8_d_uc1601.c **** 
  65:..\u8g2_csrc/u8x8_d_uc1601.c **** static const uint8_t u8x8_d_uc1601_128x32_flip1_seq[] = {
  66:..\u8g2_csrc/u8x8_d_uc1601.c ****   U8X8_START_TRANSFER(),             	/* enable chip, delay is part of the transfer start */
  67:..\u8g2_csrc/u8x8_d_uc1601.c ****   U8X8_C(0x0c2),				/* bit 1: MX, bit 2: MY */
  68:..\u8g2_csrc/u8x8_d_uc1601.c ****   U8X8_C(0x040),		                /* set display start line to 0 */
  69:..\u8g2_csrc/u8x8_d_uc1601.c ****   U8X8_END_TRANSFER(),             	/* disable chip */
  70:..\u8g2_csrc/u8x8_d_uc1601.c ****   U8X8_END()             			/* end of sequence */
  71:..\u8g2_csrc/u8x8_d_uc1601.c **** };
  72:..\u8g2_csrc/u8x8_d_uc1601.c **** 
  73:..\u8g2_csrc/u8x8_d_uc1601.c **** 
  74:..\u8g2_csrc/u8x8_d_uc1601.c **** static const u8x8_display_info_t u8x8_uc1601_128x32_display_info =
  75:..\u8g2_csrc/u8x8_d_uc1601.c **** {
  76:..\u8g2_csrc/u8x8_d_uc1601.c ****   /* chip_enable_level = */ 0,
  77:..\u8g2_csrc/u8x8_d_uc1601.c ****   /* chip_disable_level = */ 1,
  78:..\u8g2_csrc/u8x8_d_uc1601.c ****   
  79:..\u8g2_csrc/u8x8_d_uc1601.c ****   /* post_chip_enable_wait_ns = */ 1,	/* uc1601 datasheet, page 46 */
  80:..\u8g2_csrc/u8x8_d_uc1601.c ****   /* pre_chip_disable_wait_ns = */ 5,	/* uc1601 datasheet, page 46 */
  81:..\u8g2_csrc/u8x8_d_uc1601.c ****   /* reset_pulse_width_ms = */ 1, 
  82:..\u8g2_csrc/u8x8_d_uc1601.c ****   /* post_reset_wait_ms = */ 6, 
  83:..\u8g2_csrc/u8x8_d_uc1601.c ****   /* sda_setup_time_ns = */ 12,		/* uc1601 datasheet, page 44 */
  84:..\u8g2_csrc/u8x8_d_uc1601.c ****   /* sck_pulse_width_ns = */ 15,	/* uc1601 datasheet, page 44 */
  85:..\u8g2_csrc/u8x8_d_uc1601.c ****   /* sck_clock_hz = */ 2000000UL,	/* */
  86:..\u8g2_csrc/u8x8_d_uc1601.c ****   /* spi_mode = */ 0,		/* active high, rising edge */
  87:..\u8g2_csrc/u8x8_d_uc1601.c ****   /* i2c_bus_clock_100kHz = */ 1,
  88:..\u8g2_csrc/u8x8_d_uc1601.c ****   /* data_setup_time_ns = */ 60,	/* uc1601 datasheet, page 43 */
  89:..\u8g2_csrc/u8x8_d_uc1601.c ****   /* write_pulse_width_ns = */ 80,	/* uc1601 datasheet, page 43 */
  90:..\u8g2_csrc/u8x8_d_uc1601.c ****   /* tile_width = */ 16,		
  91:..\u8g2_csrc/u8x8_d_uc1601.c ****   /* tile_hight = */ 4,
  92:..\u8g2_csrc/u8x8_d_uc1601.c ****   /* default_x_offset = */ 0,
  93:..\u8g2_csrc/u8x8_d_uc1601.c ****   /* flipmode_x_offset = */ 4,
  94:..\u8g2_csrc/u8x8_d_uc1601.c ****   /* pixel_width = */ 128,
  95:..\u8g2_csrc/u8x8_d_uc1601.c ****   /* pixel_height = */ 32
  96:..\u8g2_csrc/u8x8_d_uc1601.c **** };
  97:..\u8g2_csrc/u8x8_d_uc1601.c **** 
  98:..\u8g2_csrc/u8x8_d_uc1601.c **** static const uint8_t u8x8_d_uc1601_128x32_init_seq[] = {
  99:..\u8g2_csrc/u8x8_d_uc1601.c ****     
 100:..\u8g2_csrc/u8x8_d_uc1601.c ****   U8X8_START_TRANSFER(),             	/* enable chip, delay is part of the transfer start */
 101:..\u8g2_csrc/u8x8_d_uc1601.c ****   
 102:..\u8g2_csrc/u8x8_d_uc1601.c ****   U8X8_C(0x0e2),            			/* soft reset */
 103:..\u8g2_csrc/u8x8_d_uc1601.c ****   U8X8_C(0x0eb),            			/* LCD Bias: 0xe8: 6, 0xe9: 7, 0xea: 8, 0xeb: 9 */
 104:..\u8g2_csrc/u8x8_d_uc1601.c ****   //U8X8_C(0x023),            			/* 0x020...0x023 only for UC1601, not for UC1601s */
 105:..\u8g2_csrc/u8x8_d_uc1601.c **** 	
 106:..\u8g2_csrc/u8x8_d_uc1601.c **** 
ARM GAS  C:\Users\info\AppData\Local\Temp\ccvuDAPJ.s 			page 44


 107:..\u8g2_csrc/u8x8_d_uc1601.c ****   //U8X8_C(0x02e),            			/* LCD Load + Internal Charge Pump (default: 0x2e) */
 108:..\u8g2_csrc/u8x8_d_uc1601.c ****   U8X8_C(0x024),		                /* Temperature Compenstation, default: 0x24 */
 109:..\u8g2_csrc/u8x8_d_uc1601.c ****   U8X8_C(0x089),		                /* RAM address ctrl, default: 0x89 */
 110:..\u8g2_csrc/u8x8_d_uc1601.c ****   U8X8_C(0x0c4),		                /* RAM mapping ctrl */
 111:..\u8g2_csrc/u8x8_d_uc1601.c ****   U8X8_C(0x0a0),		                /* Frame Rate, 0x0a0 or 0x0a1 */
 112:..\u8g2_csrc/u8x8_d_uc1601.c ****   U8X8_CA(0x081, 0x0df),		/* set contrast */
 113:..\u8g2_csrc/u8x8_d_uc1601.c ****   U8X8_C(0x02e),            			/* LCD Load + Internal Charge Pump (default: 0x2e) */	
 114:..\u8g2_csrc/u8x8_d_uc1601.c ****   U8X8_C(0x060),		                /* set display start line to 32 */
 115:..\u8g2_csrc/u8x8_d_uc1601.c ****   
 116:..\u8g2_csrc/u8x8_d_uc1601.c ****   U8X8_C(0x0a6),		                /* normal display */
 117:..\u8g2_csrc/u8x8_d_uc1601.c ****    
 118:..\u8g2_csrc/u8x8_d_uc1601.c ****   U8X8_END_TRANSFER(),             	/* disable chip */
 119:..\u8g2_csrc/u8x8_d_uc1601.c ****   U8X8_END()             			/* end of sequence */
 120:..\u8g2_csrc/u8x8_d_uc1601.c **** };
 121:..\u8g2_csrc/u8x8_d_uc1601.c **** 
 122:..\u8g2_csrc/u8x8_d_uc1601.c **** uint8_t u8x8_d_uc1601_128x32(u8x8_t *u8x8, uint8_t msg, uint8_t arg_int, void *arg_ptr)
 123:..\u8g2_csrc/u8x8_d_uc1601.c **** {
 574              		.loc 1 123 0
 575              		.cfi_startproc
 576              		@ args = 0, pretend = 0, frame = 0
 577              		@ frame_needed = 0, uses_anonymous_args = 0
 578              	.LVL0:
 579 0000 F8B5     		push	{r3, r4, r5, r6, r7, lr}
 580              		.cfi_def_cfa_offset 24
 581              		.cfi_offset 3, -24
 582              		.cfi_offset 4, -20
 583              		.cfi_offset 5, -16
 584              		.cfi_offset 6, -12
 585              		.cfi_offset 7, -8
 586              		.cfi_offset 14, -4
 587 0002 0546     		mov	r5, r0
 588 0004 1446     		mov	r4, r2
 589 0006 1F46     		mov	r7, r3
 124:..\u8g2_csrc/u8x8_d_uc1601.c ****   uint8_t x, c;
 125:..\u8g2_csrc/u8x8_d_uc1601.c ****   uint8_t *ptr;
 126:..\u8g2_csrc/u8x8_d_uc1601.c ****   switch(msg)
 590              		.loc 1 126 0
 591 0008 0939     		subs	r1, r1, #9
 592              	.LVL1:
 593 000a 0629     		cmp	r1, #6
 594 000c 6BD8     		bhi	.L13
 595 000e DFE801F0 		tbb	[pc, r1]
 596              	.LVL2:
 597              	.L4:
 598 0012 04       		.byte	(.L3-.L4)/2
 599 0013 09       		.byte	(.L5-.L4)/2
 600 0014 11       		.byte	(.L6-.L4)/2
 601 0015 6A       		.byte	(.L13-.L4)/2
 602 0016 1C       		.byte	(.L7-.L4)/2
 603 0017 2F       		.byte	(.L8-.L4)/2
 604 0018 3E       		.byte	(.L9-.L4)/2
 605 0019 00       		.p2align 1
 606              	.L3:
 127:..\u8g2_csrc/u8x8_d_uc1601.c ****   {
 128:..\u8g2_csrc/u8x8_d_uc1601.c ****     case U8X8_MSG_DISPLAY_SETUP_MEMORY:
 129:..\u8g2_csrc/u8x8_d_uc1601.c ****       u8x8_d_helper_display_setup_memory(u8x8, &u8x8_uc1601_128x32_display_info);
 607              		.loc 1 129 0
ARM GAS  C:\Users\info\AppData\Local\Temp\ccvuDAPJ.s 			page 45


 608 001a 3449     		ldr	r1, .L15
 609 001c FFF7FEFF 		bl	u8x8_d_helper_display_setup_memory
 610              	.LVL3:
 130:..\u8g2_csrc/u8x8_d_uc1601.c ****       break;
 131:..\u8g2_csrc/u8x8_d_uc1601.c ****     case U8X8_MSG_DISPLAY_INIT:
 132:..\u8g2_csrc/u8x8_d_uc1601.c ****       u8x8_d_helper_display_init(u8x8);
 133:..\u8g2_csrc/u8x8_d_uc1601.c ****       u8x8_cad_SendSequence(u8x8, u8x8_d_uc1601_128x32_init_seq);
 134:..\u8g2_csrc/u8x8_d_uc1601.c ****       break;
 135:..\u8g2_csrc/u8x8_d_uc1601.c ****     case U8X8_MSG_DISPLAY_SET_POWER_SAVE:
 136:..\u8g2_csrc/u8x8_d_uc1601.c ****       if ( arg_int == 0 )
 137:..\u8g2_csrc/u8x8_d_uc1601.c **** 	u8x8_cad_SendSequence(u8x8, u8x8_d_uc1601_128x32_powersave0_seq);
 138:..\u8g2_csrc/u8x8_d_uc1601.c ****       else
 139:..\u8g2_csrc/u8x8_d_uc1601.c **** 	u8x8_cad_SendSequence(u8x8, u8x8_d_uc1601_128x32_powersave1_seq);
 140:..\u8g2_csrc/u8x8_d_uc1601.c ****       break;
 141:..\u8g2_csrc/u8x8_d_uc1601.c ****     case U8X8_MSG_DISPLAY_SET_FLIP_MODE:
 142:..\u8g2_csrc/u8x8_d_uc1601.c ****       if ( arg_int == 0 )
 143:..\u8g2_csrc/u8x8_d_uc1601.c ****       {
 144:..\u8g2_csrc/u8x8_d_uc1601.c **** 	u8x8_cad_SendSequence(u8x8, u8x8_d_uc1601_128x32_flip0_seq);
 145:..\u8g2_csrc/u8x8_d_uc1601.c **** 	u8x8->x_offset = u8x8->display_info->default_x_offset;
 146:..\u8g2_csrc/u8x8_d_uc1601.c ****       }
 147:..\u8g2_csrc/u8x8_d_uc1601.c ****       else
 148:..\u8g2_csrc/u8x8_d_uc1601.c ****       {
 149:..\u8g2_csrc/u8x8_d_uc1601.c **** 	u8x8_cad_SendSequence(u8x8, u8x8_d_uc1601_128x32_flip1_seq);
 150:..\u8g2_csrc/u8x8_d_uc1601.c **** 	u8x8->x_offset = u8x8->display_info->flipmode_x_offset;
 151:..\u8g2_csrc/u8x8_d_uc1601.c ****       }	
 152:..\u8g2_csrc/u8x8_d_uc1601.c ****       break;
 153:..\u8g2_csrc/u8x8_d_uc1601.c **** #ifdef U8X8_WITH_SET_CONTRAST
 154:..\u8g2_csrc/u8x8_d_uc1601.c ****     case U8X8_MSG_DISPLAY_SET_CONTRAST:
 155:..\u8g2_csrc/u8x8_d_uc1601.c ****       u8x8_cad_StartTransfer(u8x8);
 156:..\u8g2_csrc/u8x8_d_uc1601.c ****       u8x8_cad_SendCmd(u8x8, 0x081 );
 157:..\u8g2_csrc/u8x8_d_uc1601.c ****       u8x8_cad_SendArg(u8x8, arg_int );	/* uc1601 has range from 0 to 255 */
 158:..\u8g2_csrc/u8x8_d_uc1601.c ****       u8x8_cad_EndTransfer(u8x8);
 159:..\u8g2_csrc/u8x8_d_uc1601.c ****       break;
 160:..\u8g2_csrc/u8x8_d_uc1601.c **** #endif
 161:..\u8g2_csrc/u8x8_d_uc1601.c ****     case U8X8_MSG_DISPLAY_DRAW_TILE:
 162:..\u8g2_csrc/u8x8_d_uc1601.c ****       u8x8_cad_StartTransfer(u8x8);
 163:..\u8g2_csrc/u8x8_d_uc1601.c ****     
 164:..\u8g2_csrc/u8x8_d_uc1601.c ****       x = ((u8x8_tile_t *)arg_ptr)->x_pos;
 165:..\u8g2_csrc/u8x8_d_uc1601.c ****       x *= 8;
 166:..\u8g2_csrc/u8x8_d_uc1601.c ****       x += u8x8->x_offset;
 167:..\u8g2_csrc/u8x8_d_uc1601.c ****       u8x8_cad_SendCmd(u8x8, 0x010 | (x>>4) );
 168:..\u8g2_csrc/u8x8_d_uc1601.c ****       u8x8_cad_SendCmd(u8x8, 0x000 | ((x&15)));
 169:..\u8g2_csrc/u8x8_d_uc1601.c ****       u8x8_cad_SendCmd(u8x8, 0x0b0 | (((u8x8_tile_t *)arg_ptr)->y_pos));
 170:..\u8g2_csrc/u8x8_d_uc1601.c ****     
 171:..\u8g2_csrc/u8x8_d_uc1601.c ****       c = ((u8x8_tile_t *)arg_ptr)->cnt;
 172:..\u8g2_csrc/u8x8_d_uc1601.c ****       c *= 8;
 173:..\u8g2_csrc/u8x8_d_uc1601.c ****       ptr = ((u8x8_tile_t *)arg_ptr)->tile_ptr;
 174:..\u8g2_csrc/u8x8_d_uc1601.c ****       do
 175:..\u8g2_csrc/u8x8_d_uc1601.c ****       {
 176:..\u8g2_csrc/u8x8_d_uc1601.c **** 	u8x8_cad_SendData(u8x8, c, ptr);	/* note: SendData can not handle more than 255 bytes */
 177:..\u8g2_csrc/u8x8_d_uc1601.c **** 	arg_int--;
 178:..\u8g2_csrc/u8x8_d_uc1601.c ****       } while( arg_int > 0 );
 179:..\u8g2_csrc/u8x8_d_uc1601.c ****       
 180:..\u8g2_csrc/u8x8_d_uc1601.c ****       u8x8_cad_EndTransfer(u8x8);
 181:..\u8g2_csrc/u8x8_d_uc1601.c ****       break;
 182:..\u8g2_csrc/u8x8_d_uc1601.c ****     default:
 183:..\u8g2_csrc/u8x8_d_uc1601.c ****       return 0;
ARM GAS  C:\Users\info\AppData\Local\Temp\ccvuDAPJ.s 			page 46


 184:..\u8g2_csrc/u8x8_d_uc1601.c ****   }
 185:..\u8g2_csrc/u8x8_d_uc1601.c ****   return 1;
 611              		.loc 1 185 0
 612 0020 0120     		movs	r0, #1
 130:..\u8g2_csrc/u8x8_d_uc1601.c ****       break;
 613              		.loc 1 130 0
 614 0022 F8BD     		pop	{r3, r4, r5, r6, r7, pc}
 615              	.LVL4:
 616              	.L5:
 132:..\u8g2_csrc/u8x8_d_uc1601.c ****       u8x8_cad_SendSequence(u8x8, u8x8_d_uc1601_128x32_init_seq);
 617              		.loc 1 132 0
 618 0024 FFF7FEFF 		bl	u8x8_d_helper_display_init
 619              	.LVL5:
 133:..\u8g2_csrc/u8x8_d_uc1601.c ****       break;
 620              		.loc 1 133 0
 621 0028 3149     		ldr	r1, .L15+4
 622 002a 2846     		mov	r0, r5
 623 002c FFF7FEFF 		bl	u8x8_cad_SendSequence
 624              	.LVL6:
 625              		.loc 1 185 0
 626 0030 0120     		movs	r0, #1
 134:..\u8g2_csrc/u8x8_d_uc1601.c ****     case U8X8_MSG_DISPLAY_SET_POWER_SAVE:
 627              		.loc 1 134 0
 628 0032 F8BD     		pop	{r3, r4, r5, r6, r7, pc}
 629              	.LVL7:
 630              	.L6:
 136:..\u8g2_csrc/u8x8_d_uc1601.c **** 	u8x8_cad_SendSequence(u8x8, u8x8_d_uc1601_128x32_powersave0_seq);
 631              		.loc 1 136 0
 632 0034 22B9     		cbnz	r2, .L10
 137:..\u8g2_csrc/u8x8_d_uc1601.c ****       else
 633              		.loc 1 137 0
 634 0036 2F49     		ldr	r1, .L15+8
 635 0038 FFF7FEFF 		bl	u8x8_cad_SendSequence
 636              	.LVL8:
 637              		.loc 1 185 0
 638 003c 0120     		movs	r0, #1
 639 003e F8BD     		pop	{r3, r4, r5, r6, r7, pc}
 640              	.LVL9:
 641              	.L10:
 139:..\u8g2_csrc/u8x8_d_uc1601.c ****       break;
 642              		.loc 1 139 0
 643 0040 2D49     		ldr	r1, .L15+12
 644 0042 FFF7FEFF 		bl	u8x8_cad_SendSequence
 645              	.LVL10:
 646              		.loc 1 185 0
 647 0046 0120     		movs	r0, #1
 648 0048 F8BD     		pop	{r3, r4, r5, r6, r7, pc}
 649              	.LVL11:
 650              	.L7:
 142:..\u8g2_csrc/u8x8_d_uc1601.c ****       {
 651              		.loc 1 142 0
 652 004a 42B9     		cbnz	r2, .L11
 144:..\u8g2_csrc/u8x8_d_uc1601.c **** 	u8x8->x_offset = u8x8->display_info->default_x_offset;
 653              		.loc 1 144 0
 654 004c 2B49     		ldr	r1, .L15+16
 655 004e FFF7FEFF 		bl	u8x8_cad_SendSequence
 656              	.LVL12:
ARM GAS  C:\Users\info\AppData\Local\Temp\ccvuDAPJ.s 			page 47


 145:..\u8g2_csrc/u8x8_d_uc1601.c ****       }
 657              		.loc 1 145 0
 658 0052 2B68     		ldr	r3, [r5]
 659 0054 9B7C     		ldrb	r3, [r3, #18]	@ zero_extendqisi2
 660 0056 85F82230 		strb	r3, [r5, #34]
 661              		.loc 1 185 0
 662 005a 0120     		movs	r0, #1
 663 005c F8BD     		pop	{r3, r4, r5, r6, r7, pc}
 664              	.LVL13:
 665              	.L11:
 149:..\u8g2_csrc/u8x8_d_uc1601.c **** 	u8x8->x_offset = u8x8->display_info->flipmode_x_offset;
 666              		.loc 1 149 0
 667 005e 2849     		ldr	r1, .L15+20
 668 0060 FFF7FEFF 		bl	u8x8_cad_SendSequence
 669              	.LVL14:
 150:..\u8g2_csrc/u8x8_d_uc1601.c ****       }	
 670              		.loc 1 150 0
 671 0064 2B68     		ldr	r3, [r5]
 672 0066 DB7C     		ldrb	r3, [r3, #19]	@ zero_extendqisi2
 673 0068 85F82230 		strb	r3, [r5, #34]
 674              		.loc 1 185 0
 675 006c 0120     		movs	r0, #1
 676 006e F8BD     		pop	{r3, r4, r5, r6, r7, pc}
 677              	.LVL15:
 678              	.L8:
 155:..\u8g2_csrc/u8x8_d_uc1601.c ****       u8x8_cad_SendCmd(u8x8, 0x081 );
 679              		.loc 1 155 0
 680 0070 FFF7FEFF 		bl	u8x8_cad_StartTransfer
 681              	.LVL16:
 156:..\u8g2_csrc/u8x8_d_uc1601.c ****       u8x8_cad_SendArg(u8x8, arg_int );	/* uc1601 has range from 0 to 255 */
 682              		.loc 1 156 0
 683 0074 8121     		movs	r1, #129
 684 0076 2846     		mov	r0, r5
 685 0078 FFF7FEFF 		bl	u8x8_cad_SendCmd
 686              	.LVL17:
 157:..\u8g2_csrc/u8x8_d_uc1601.c ****       u8x8_cad_EndTransfer(u8x8);
 687              		.loc 1 157 0
 688 007c 2146     		mov	r1, r4
 689 007e 2846     		mov	r0, r5
 690 0080 FFF7FEFF 		bl	u8x8_cad_SendArg
 691              	.LVL18:
 158:..\u8g2_csrc/u8x8_d_uc1601.c ****       break;
 692              		.loc 1 158 0
 693 0084 2846     		mov	r0, r5
 694 0086 FFF7FEFF 		bl	u8x8_cad_EndTransfer
 695              	.LVL19:
 696              		.loc 1 185 0
 697 008a 0120     		movs	r0, #1
 159:..\u8g2_csrc/u8x8_d_uc1601.c **** #endif
 698              		.loc 1 159 0
 699 008c F8BD     		pop	{r3, r4, r5, r6, r7, pc}
 700              	.LVL20:
 701              	.L9:
 162:..\u8g2_csrc/u8x8_d_uc1601.c ****     
 702              		.loc 1 162 0
 703 008e FFF7FEFF 		bl	u8x8_cad_StartTransfer
 704              	.LVL21:
ARM GAS  C:\Users\info\AppData\Local\Temp\ccvuDAPJ.s 			page 48


 164:..\u8g2_csrc/u8x8_d_uc1601.c ****       x *= 8;
 705              		.loc 1 164 0
 706 0092 7E79     		ldrb	r6, [r7, #5]	@ zero_extendqisi2
 707              	.LVL22:
 165:..\u8g2_csrc/u8x8_d_uc1601.c ****       x += u8x8->x_offset;
 708              		.loc 1 165 0
 709 0094 F600     		lsls	r6, r6, #3
 710              	.LVL23:
 711 0096 F6B2     		uxtb	r6, r6
 712              	.LVL24:
 166:..\u8g2_csrc/u8x8_d_uc1601.c ****       u8x8_cad_SendCmd(u8x8, 0x010 | (x>>4) );
 713              		.loc 1 166 0
 714 0098 95F82230 		ldrb	r3, [r5, #34]	@ zero_extendqisi2
 715 009c 1E44     		add	r6, r6, r3
 716              	.LVL25:
 717 009e F6B2     		uxtb	r6, r6
 718              	.LVL26:
 167:..\u8g2_csrc/u8x8_d_uc1601.c ****       u8x8_cad_SendCmd(u8x8, 0x000 | ((x&15)));
 719              		.loc 1 167 0
 720 00a0 3109     		lsrs	r1, r6, #4
 721 00a2 41F01001 		orr	r1, r1, #16
 722 00a6 2846     		mov	r0, r5
 723 00a8 FFF7FEFF 		bl	u8x8_cad_SendCmd
 724              	.LVL27:
 168:..\u8g2_csrc/u8x8_d_uc1601.c ****       u8x8_cad_SendCmd(u8x8, 0x0b0 | (((u8x8_tile_t *)arg_ptr)->y_pos));
 725              		.loc 1 168 0
 726 00ac 06F00F01 		and	r1, r6, #15
 727 00b0 2846     		mov	r0, r5
 728 00b2 FFF7FEFF 		bl	u8x8_cad_SendCmd
 729              	.LVL28:
 169:..\u8g2_csrc/u8x8_d_uc1601.c ****     
 730              		.loc 1 169 0
 731 00b6 B979     		ldrb	r1, [r7, #6]	@ zero_extendqisi2
 732 00b8 41F0B001 		orr	r1, r1, #176
 733 00bc 2846     		mov	r0, r5
 734 00be FFF7FEFF 		bl	u8x8_cad_SendCmd
 735              	.LVL29:
 171:..\u8g2_csrc/u8x8_d_uc1601.c ****       c *= 8;
 736              		.loc 1 171 0
 737 00c2 3E79     		ldrb	r6, [r7, #4]	@ zero_extendqisi2
 738              	.LVL30:
 172:..\u8g2_csrc/u8x8_d_uc1601.c ****       ptr = ((u8x8_tile_t *)arg_ptr)->tile_ptr;
 739              		.loc 1 172 0
 740 00c4 F600     		lsls	r6, r6, #3
 741              	.LVL31:
 742 00c6 F6B2     		uxtb	r6, r6
 743              	.LVL32:
 173:..\u8g2_csrc/u8x8_d_uc1601.c ****       do
 744              		.loc 1 173 0
 745 00c8 3F68     		ldr	r7, [r7]
 746              	.LVL33:
 747              	.L12:
 176:..\u8g2_csrc/u8x8_d_uc1601.c **** 	arg_int--;
 748              		.loc 1 176 0 discriminator 1
 749 00ca 3A46     		mov	r2, r7
 750 00cc 3146     		mov	r1, r6
 751 00ce 2846     		mov	r0, r5
ARM GAS  C:\Users\info\AppData\Local\Temp\ccvuDAPJ.s 			page 49


 752 00d0 FFF7FEFF 		bl	u8x8_cad_SendData
 753              	.LVL34:
 177:..\u8g2_csrc/u8x8_d_uc1601.c ****       } while( arg_int > 0 );
 754              		.loc 1 177 0 discriminator 1
 755 00d4 621E     		subs	r2, r4, #1
 756              	.LVL35:
 178:..\u8g2_csrc/u8x8_d_uc1601.c ****       
 757              		.loc 1 178 0 discriminator 1
 758 00d6 12F0FF04 		ands	r4, r2, #255
 759 00da F6D1     		bne	.L12
 180:..\u8g2_csrc/u8x8_d_uc1601.c ****       break;
 760              		.loc 1 180 0
 761 00dc 2846     		mov	r0, r5
 762 00de FFF7FEFF 		bl	u8x8_cad_EndTransfer
 763              	.LVL36:
 764              		.loc 1 185 0
 765 00e2 0120     		movs	r0, #1
 181:..\u8g2_csrc/u8x8_d_uc1601.c ****     default:
 766              		.loc 1 181 0
 767 00e4 F8BD     		pop	{r3, r4, r5, r6, r7, pc}
 768              	.LVL37:
 769              	.L13:
 183:..\u8g2_csrc/u8x8_d_uc1601.c ****   }
 770              		.loc 1 183 0
 771 00e6 0020     		movs	r0, #0
 772              	.LVL38:
 186:..\u8g2_csrc/u8x8_d_uc1601.c **** }
 773              		.loc 1 186 0
 774 00e8 F8BD     		pop	{r3, r4, r5, r6, r7, pc}
 775              	.LVL39:
 776              	.L16:
 777 00ea 00BF     		.align	2
 778              	.L15:
 779 00ec 00000000 		.word	.LANCHOR0
 780 00f0 18000000 		.word	.LANCHOR0+24
 781 00f4 34000000 		.word	.LANCHOR0+52
 782 00f8 3C000000 		.word	.LANCHOR0+60
 783 00fc 44000000 		.word	.LANCHOR0+68
 784 0100 4C000000 		.word	.LANCHOR0+76
 785              		.cfi_endproc
 786              	.LFE0:
 787              		.size	u8x8_d_uc1601_128x32, .-u8x8_d_uc1601_128x32
 788              		.section	.rodata
 789              		.align	2
 790              		.set	.LANCHOR0,. + 0
 791              		.type	u8x8_uc1601_128x32_display_info, %object
 792              		.size	u8x8_uc1601_128x32_display_info, 24
 793              	u8x8_uc1601_128x32_display_info:
 794 0000 00       		.byte	0
 795 0001 01       		.byte	1
 796 0002 01       		.byte	1
 797 0003 05       		.byte	5
 798 0004 01       		.byte	1
 799 0005 06       		.byte	6
 800 0006 0C       		.byte	12
 801 0007 0F       		.byte	15
 802 0008 80841E00 		.word	2000000
ARM GAS  C:\Users\info\AppData\Local\Temp\ccvuDAPJ.s 			page 50


 803 000c 00       		.byte	0
 804 000d 01       		.byte	1
 805 000e 3C       		.byte	60
 806 000f 50       		.byte	80
 807 0010 10       		.byte	16
 808 0011 04       		.byte	4
 809 0012 00       		.byte	0
 810 0013 04       		.byte	4
 811 0014 8000     		.short	128
 812 0016 2000     		.short	32
 813              		.type	u8x8_d_uc1601_128x32_init_seq, %object
 814              		.size	u8x8_d_uc1601_128x32_init_seq, 25
 815              	u8x8_d_uc1601_128x32_init_seq:
 816 0018 18       		.byte	24
 817 0019 15       		.byte	21
 818 001a E2       		.byte	-30
 819 001b 15       		.byte	21
 820 001c EB       		.byte	-21
 821 001d 15       		.byte	21
 822 001e 24       		.byte	36
 823 001f 15       		.byte	21
 824 0020 89       		.byte	-119
 825 0021 15       		.byte	21
 826 0022 C4       		.byte	-60
 827 0023 15       		.byte	21
 828 0024 A0       		.byte	-96
 829 0025 15       		.byte	21
 830 0026 81       		.byte	-127
 831 0027 16       		.byte	22
 832 0028 DF       		.byte	-33
 833 0029 15       		.byte	21
 834 002a 2E       		.byte	46
 835 002b 15       		.byte	21
 836 002c 60       		.byte	96
 837 002d 15       		.byte	21
 838 002e A6       		.byte	-90
 839 002f 19       		.byte	25
 840 0030 FF       		.byte	-1
 841 0031 000000   		.space	3
 842              		.type	u8x8_d_uc1601_128x32_powersave0_seq, %object
 843              		.size	u8x8_d_uc1601_128x32_powersave0_seq, 5
 844              	u8x8_d_uc1601_128x32_powersave0_seq:
 845 0034 18       		.byte	24
 846 0035 15       		.byte	21
 847 0036 AF       		.byte	-81
 848 0037 19       		.byte	25
 849 0038 FF       		.byte	-1
 850 0039 000000   		.space	3
 851              		.type	u8x8_d_uc1601_128x32_powersave1_seq, %object
 852              		.size	u8x8_d_uc1601_128x32_powersave1_seq, 5
 853              	u8x8_d_uc1601_128x32_powersave1_seq:
 854 003c 18       		.byte	24
 855 003d 15       		.byte	21
 856 003e AE       		.byte	-82
 857 003f 19       		.byte	25
 858 0040 FF       		.byte	-1
 859 0041 000000   		.space	3
ARM GAS  C:\Users\info\AppData\Local\Temp\ccvuDAPJ.s 			page 51


 860              		.type	u8x8_d_uc1601_128x32_flip0_seq, %object
 861              		.size	u8x8_d_uc1601_128x32_flip0_seq, 7
 862              	u8x8_d_uc1601_128x32_flip0_seq:
 863 0044 18       		.byte	24
 864 0045 15       		.byte	21
 865 0046 C4       		.byte	-60
 866 0047 15       		.byte	21
 867 0048 60       		.byte	96
 868 0049 19       		.byte	25
 869 004a FF       		.byte	-1
 870 004b 00       		.space	1
 871              		.type	u8x8_d_uc1601_128x32_flip1_seq, %object
 872              		.size	u8x8_d_uc1601_128x32_flip1_seq, 7
 873              	u8x8_d_uc1601_128x32_flip1_seq:
 874 004c 18       		.byte	24
 875 004d 15       		.byte	21
 876 004e C2       		.byte	-62
 877 004f 15       		.byte	21
 878 0050 40       		.byte	64
 879 0051 19       		.byte	25
 880 0052 FF       		.byte	-1
 881              		.text
 882              	.Letext0:
 883              		.file 2 "c:\\program files (x86)\\cypress\\psoc creator\\4.2\\psoc creator\\import\\gnu\\arm\\5.4.
 884              		.file 3 "c:\\program files (x86)\\cypress\\psoc creator\\4.2\\psoc creator\\import\\gnu\\arm\\5.4.
 885              		.file 4 "..\\u8g2_csrc\\u8x8.h"