ARM GAS  C:\Users\info\AppData\Local\Temp\ccNY7Myh.s 			page 1


   1              		.syntax unified
   2              		.cpu cortex-m3
   3              		.fpu softvfp
   4              		.eabi_attribute 20, 1
   5              		.eabi_attribute 21, 1
   6              		.eabi_attribute 23, 3
   7              		.eabi_attribute 24, 1
   8              		.eabi_attribute 25, 1
   9              		.eabi_attribute 26, 1
  10              		.eabi_attribute 30, 1
  11              		.eabi_attribute 34, 1
  12              		.eabi_attribute 18, 4
  13              		.thumb
  14              		.syntax unified
  15              		.file	"u8x8_d_ist3020.c"
  16              		.text
  17              	.Ltext0:
  18              		.section	.gnu.lto_.profile.792a44c2,"",%progbits
  19 0000 789C6361 		.ascii	"x\234ca`d`e`\000\222/\030#\000\003\220\001M"
  19      60646065 
  19      6000922F 
  19      18230003 
  19      90014D
  20              		.text
  21              		.section	.gnu.lto_.inline.792a44c2,"",%progbits
  22 0000 789C6361 		.ascii	"x\234ca`d\000\201\205\014\010\000\024\271\305`\311\310"
  22      60640081 
  22      850C0800 
  22      14B9C560 
  22      C9C8
  23 0012 C0E47E60 		.ascii	"\300\344~`-#\003\177\223:\023H\224\211\033(3\301\217"
  23      2D23037F 
  23      933A1348 
  23      94891B28 
  23      33C18F
  24 0025 85979181 		.ascii	"\205\227\221\201y\226a\013{\013;3\017Pt\202\337\004"
  24      7996610B 
  24      7B0B3B33 
  24      0F507482 
  24      DF04
  25 0037 3F4C0654 		.ascii	"?L\006T1\224B\227g@\025g D\243)g\000\000{\326\030|"
  25      31944297 
  25      67401567 
  25      2044A329 
  25      6700007B 
  26              		.text
  27              		.section	.gnu.lto_.jmpfuncs.792a44c2,"",%progbits
  28 0000 789C6361 		.ascii	"x\234ca`d\000\0011\006\004`d\300\006\000\003\374\000"
  28      60640001 
  28      31060460 
  28      64C00600 
  28      03FC00
  29 0013 1D       		.ascii	"\035"
  30              		.text
  31              		.section	.gnu.lto_.pureconst.792a44c2,"",%progbits
  32 0000 789C6361 		.ascii	"x\234ca`d`f`\000\222R\000\000r\000$"
  32      60646066 
ARM GAS  C:\Users\info\AppData\Local\Temp\ccNY7Myh.s 			page 2


  32      60009252 
  32      00007200 
  32      24
  33              		.text
  34              		.section	.gnu.lto_u8x8_d_ist3020_erc19264.792a44c2,"",%progbits
  35 0000 789C9D57 		.ascii	"x\234\235W]lT\307\025\2363\263\273w\367\356o\002M\035"
  35      5D6C54C7 
  35      159E33B3 
  35      BB77F7EE 
  35      6F024D1D 
  36 0014 BA804180 		.ascii	"\272\200A\200e\2201\201\207FUU%\217}\355s*T\221\212"
  36      65903181 
  36      87465555 
  36      258F7DED 
  36      732A5491 
  37 0029 4655AB0A 		.ascii	"FU\253\012\250\304K\345\353]\257\261\035\222@\022cp"
  37      A8C44BE5 
  37      EB5DAFB1 
  37      1D924012 
  37      6370
  38 003b 9D381175 		.ascii	"\2358\021u\240\201\200\215!\301\206$\033'@bl\363\347"
  38      A081808D 
  38      21C18624 
  38      1B274062 
  38      6CF3E7
  39 004e 62C01483 		.ascii	"b\300\024\203\203\211K\010a\015\304\374o\3179\263w\177"
  39      83894B08 
  39      610DC4FC 
  39      6FCF39B3 
  39      777F
  40 0060 F0AE9D76 		.ascii	"\360\256\235v\245=w\356\334\371\316|\347\233s\317\314"
  40      A53D77EE 
  40      DCF9CE7C 
  40      E79B73CF 
  40      CC
  41 0071 750810F4 		.ascii	"u\010\020\364\353\011\012\361<^\257\340\037\236\020"
  41      EB090AF1 
  41      3C5EAFE0 
  41      1F9E10
  42 0080 2037F409 		.ascii	" 7\364\011Q\351\226F\260\336+,\267b\353`\353d\353f\353"
  42      51E99646 
  42      B0DE2B2C 
  42      B762EB60 
  42      EB64EB66 
  43 0095 65EBD363 		.ascii	"e\353\323c \250A\016\273\341\224\256\232\022a\231\006"
  43      20A8410E 
  43      BBE194AE 
  43      9A126199 
  43      06
  44 00a6 599FCBEE 		.ascii	"Y\237\313\3566\354\206[z\370\271\311\317=v\267i7\274"
  44      36EC865B 
  44      7AF8B9C9 
  44      CF3D76B7 
  44      6937BC
  45 00b9 76C3077E 		.ascii	"v\303\007~\335\360\313\320\372#\002!\201*\003!!\335"
  45      DDF0CBD0 
  45      FA230221 
ARM GAS  C:\Users\info\AppData\Local\Temp\ccNY7Myh.s 			page 3


  45      812A0321 
  45      21DD
  46 00cb FF7CC01E 		.ascii	"\377|\300\036\030\004\240\206\345\006Q!\225\303\351"
  46      1804A086 
  46      E5065121 
  46      95C3E9
  47 00da 32DC1ED3 		.ascii	"2\334\036\323\353\363\207\002A\250\220~\001q\007$u\304"
  47      EBF38702 
  47      41A8907E 
  47      01710724 
  47      75C4
  48 00ec B7E54309 		.ascii	"\267\345C\011G\307\277\\o\226n\263\254\210u\361\320"
  48      47C7BF5C 
  48      6F966EB3 
  48      AC8875F1 
  48      D0
  49 00fd D65F2722 		.ascii	"\326_'\"\261\242\230\022\")\005,\013\303\2220\251\261"
  49      B1A29812 
  49      2229052C 
  49      0BC39230 
  49      A9B1
  50 010f 0D4A71E4 		.ascii	"\015Jq\344\211\252\326&uK\306\024\200\003o\023\275\215"
  50      89AAD626 
  50      754BC614 
  50      80036F13 
  50      BD8D
  51 0121 5F07E856 		.ascii	"_\007\350VB1\336\276\323\277\365\274K\315\001\201\355"
  51      4231DEBE 
  51      D3BFF5BC 
  51      4BCD0181 
  51      ED
  52 0132 4DDDFDD7 		.ascii	"M\335\375\327\375%-\344\323j\377\275\345\211)\005\357"
  52      FD252DE4 
  52      D36AFFBD 
  52      E5892905 
  52      EF
  53 0143 83229FFF 		.ascii	"\203\"\237\377\2040l\207\260\300.\001;\240\004G\367"
  53      84306C87 
  53      B0C02E01 
  53      3BA00447 
  53      F7
  54 0154 B4760C38 		.ascii	"\264v\0148\324\002F\216\037\374\374\241\215\034\372"
  54      D402468E 
  54      1FFCFCA1 
  54      8D1CFA
  55 0163 ADA5900A 		.ascii	"\255\245\220\012\354\324H\315\206\270\301\007\214\333"
  55      ECD448CD 
  55      86B8C107 
  55      8CDB
  56 0171 7CE2E22B 		.ascii	"|\342\342+\246Z\310\270\246\221\357\317:S\270-\207\275"
  56      A65AC8B8 
  56      A691EFCF 
  56      3A53B82D 
  56      87BD
  57 0183 D61202EE 		.ascii	"\326\022\002\356\232\000\334\315\300\263\337\364\236"
  57      9A00DCCD 
  57      C0B3DFF4 
ARM GAS  C:\Users\info\AppData\Local\Temp\ccNY7Myh.s 			page 4


  57      9E
  58 0190 32D55206 		.ascii	"2\325R\006\276\277oh\217\221\002\016\034\366Y\033 \246"
  58      BEBF6F68 
  58      8F91020E 
  58      1CF6591B 
  58      20A6
  59 01a2 1CD0FA38 		.ascii	"\034\320\3728Y\207\2006(!\300\253\375u\303J\375\202"
  59      59878036 
  59      2821C0AB 
  59      FD75C34A 
  59      FD82
  60 01b4 C12D566B 		.ascii	"\301-Vk\235g\376V\002\307\333\353\002[\254xUqL9aO.\234"
  60      9D67FE56 
  60      02C7DBEB 
  60      025BAC78 
  60      55714C39 
  61 01cc 7E38BA6F 		.ascii	"~8\272o[\313\233\246\372\025#\2337u\236\261\221mu\301"
  61      5BCB9BA6 
  61      FA15239B 
  61      37759EB1 
  61      916D75C1 
  62 01e0 062B5E59 		.ascii	"\006+^YL\224\367fSN\341\032;\327EL\365\034\343\242\373"
  62      4C94F766 
  62      534EE11A 
  62      3BD7454C 
  62      F51CE3A2 
  63 01f5 070E0435 		.ascii	"\007\016\0045\316\372\350\005+\372\034\201>\314\003"
  63      CEFAE805 
  63      2BFA1C81 
  63      3ECC03
  64 0204 1A6E7B54 		.ascii	"\032n{T\357wUY\370+\206\217`>\354\303\177;\314\247\205"
  64      EF775559 
  64      F82B868F 
  64      603EECC3 
  64      7F3BCCA7 
  65 0219 4521F683 		.ascii	"E!\366\203\013s@e?\331\375\233\270\225LF\255x\263\371"
  65      0B734065 
  65      3FD9FD9B 
  65      B8954C46 
  65      AD78B3F9 
  66 022d 5953A01C 		.ascii	"YS\240\034X-I\2729\201\0247\200\326\313\013\324\035"
  66      582D49BA 
  66      39811437 
  66      80D6CB0B 
  66      D41D
  67 023f C46E5708 		.ascii	"\304nW\010\2151\215Z\323\251UD&\014\244\323LA\216g\261"
  67      8D318D5A 
  67      D3A95544 
  67      260CA4D3 
  67      4C418E67 
  68 0254 9D4DDDC5 		.ascii	"\235M\335\305\334\234C\315\271d\346\221Y@\246\204L\251"
  68      DC9C43CD 
  68      B964E691 
  68      5940A684 
  68      4CA9
  69 0266 20120BD9 		.ascii	" \022\013\331.\022D\246\214g\027\342\006\262m|F$\244"
  69      2E1244A6 
ARM GAS  C:\Users\info\AppData\Local\Temp\ccNY7Myh.s 			page 5


  69      8C6717E2 
  69      06B26D7C 
  69      4624A4
  70 0279 C48B1A81 		.ascii	"\304\213\032\201\315\326\231\367\236&\366Q\345\244D"
  70      CDD699F7 
  70      9E26F651 
  70      E5A444
  71 0288 3BFB8F51 		.ascii	";\373\217Q\347Fx\255\022\003\215\327\367a2\2721\365"
  71      E74678AD 
  71      12038DD7 
  71      F76132BA 
  71      31F5
  72 029a 1569001D 		.ascii	"\025i\000\035\260\021hH\357\306N\027\245\251\000\017"
  72      B0116848 
  72      EFC64E17 
  72      A5A9000F 
  73 02aa DE765D1B 		.ascii	"\336v]\033\274\0146b\277\211\000\350\304%\262\024\275"
  73      BC0C3662 
  73      BF8900E8 
  73      C425B214 
  73      BD
  74 02bb 12704063 		.ascii	"\022p@cz\337\335\331\227\302\230x\033\251\035hq\333"
  74      7ADFDDD9 
  74      97C29878 
  74      1BA91D68 
  74      71DB
  75 02cd 984F1873 		.ascii	"\230O\030s\2201,\345\307\032s\377N\337\307\206\306x"
  75      90312CE5 
  75      C71A73FF 
  75      4EDFC786 
  75      C678
  76 02df 2991EBAF 		.ascii	")\221\353\257\274\343\2621\247\031\363\011c\210\034"
  76      BCE3B231 
  76      A719F309 
  76      63881C
  77 02ee 7CAA3137 		.ascii	"|\25217:Z\266K\215\361\343\355\310\207[j\224\215\031"
  77      3A5AB64B 
  77      8DF1E3ED 
  77      C8875B6A 
  77      948D19
  78 0301 634C9C31 		.ascii	"cL\2341\016\302|\2461\337\235\336\261SiL\000oo\367\235"
  78      0EC27CA6 
  78      31DF9DDE 
  78      B153694C 
  78      006F6FF7 
  79 0316 DBEEB331 		.ascii	"\333\356\2631M^\302t1\306I\230\3175f\347{\211xPc\202"
  79      4D5EC274 
  79      31C64998 
  79      CF3566E7 
  79      7B897850 
  80 032c 78FBF6DE 		.ascii	"x\373\366\336mo\372mL'c\276`\214\2130\207\020\203\327"
  80      6D6FFA6D 
  80      4C2763BE 
  80      608C8B30 
  80      871083D7 
  81 0340 8454A2CA 		.ascii	"\204T\242\312P\227\2412Dz\223@\243\020\213\037\350V"
  81      5097A132 
ARM GAS  C:\Users\info\AppData\Local\Temp\ccNY7Myh.s 			page 6


  81      447A9340 
  81      A3108B1F 
  81      E856
  82 0352 744B29D6 		.ascii	"tK)\326\321qm\320\250xh\325XV(\246<I\21108\014\025\""
  82      D1716DD0 
  82      A87868D5 
  82      585628A6 
  82      3C498930 
  83 036a AA0C123E 		.ascii	"\252\014\022>\326u\214\005q\351\314\275\367\351\315"
  83      D6758C05 
  83      71E9CCBD 
  83      F7E9CD
  84 0379 008EDECC 		.ascii	"\000\216\336\314\243]\265\312\340<\375\252q\307\037"
  84      A35DB5CA 
  84      E03CFDAA 
  84      71C71F
  85 0388 9BE1ADCA 		.ascii	"\233\341\255\312\015\334m\302\227P\001G\350\235\301"
  85      0DDC6DC2 
  85      97500147 
  85      E89DC1
  86 0397 67C9AB7B 		.ascii	"g\311\253{vy\020RD>\276\202f\340\231\241\033*b\312\313"
  86      76791052 
  86      443EBE82 
  86      66E099A1 
  86      1B2A62CA 
  87 03ac 141DB914 		.ascii	"\024\035\271\024%R\254\212\0377\3633\364%1\213\004\034"
  87      2552AC8A 
  87      1F37F333 
  87      F425318B 
  87      041C
  88 03be D50C63CA 		.ascii	"\325\014c\312\317\001\235,0:\220\224T1z&\306\023\314"
  88      CF019D2C 
  88      303A9094 
  88      54317A26 
  88      C613CC
  89 03d1 134FB096 		.ascii	"\023O\260\2262oB<!\350\303xz\037\213\007!V\003\220\243"
  89      326F423C 
  89      21E8C378 
  89      7A1F8B07 
  89      21560390 
  90 03e6 63E9A08E 		.ascii	"c\351\240\216SPOpP\316\334\240\224\270\004U\347\242"
  90      53504F70 
  90      50CEDCA0 
  90      94B80455 
  90      E7A2
  91 03f8 EDF53374 		.ascii	"\355\3653t\336Sv\355\276\326q\327O\\\014|MO\244JLB\272"
  91      DE5376ED 
  91      BED671D7 
  91      4F5C0C7C 
  91      4D4FA44A 
  92 040f 44975214 		.ascii	"D\227R\024\324`\035L\032\325\311\211Q=\231'\252'k\225"
  92      D4601D4C 
  92      1AD5C989 
  92      513D9927 
  92      AA276B95 
  93 0423 274F54D3 		.ascii	"'OT\323\240\037\243:\225'\252\277\221\237\177\245\203"
  93      A01FA33A 
ARM GAS  C:\Users\info\AppData\Local\Temp\ccNY7Myh.s 			page 7


  93      9527AABF 
  93      919F7FA5 
  93      83
  94 0434 3A9D09CA 		.ascii	":\235\011\312\260\251\015MAm Mm\002\0273/\2273\223q"
  94      B0A90D4D 
  94      416D204D 
  94      6D021733 
  94      2F973393 
  95 0449 399BE672 		.ascii	"9\233\346r.\303\305\235+\260C\013\374mZ\340,E=6\355"
  95      2EC3C59D 
  95      2BB0430B 
  95      FC6D5AE0 
  95      2C453D36 
  96 045e BB53D01E 		.ascii	"\273S\320\036,L\333\233\227\366\371\311h\377;M\373\202"
  96      2C4CDB9B 
  96      97F6F9C9 
  96      68FF3B4D 
  96      FB82
  97 0470 A67D0522 		.ascii	"\246}\005\"\235\211\013cN\315pZ\366\302)\275q\036\351"
  97      9D890B63 
  97      4ECD705A 
  97      F6C229BD 
  97      711EE9
  98 0483 AEF1A17F 		.ascii	"\256\361\241\177L\253\351\310\003\206R\256[.Gv\031\345"
  98      4CABE9C8 
  98      038652AE 
  98      5B2E4776 
  98      19E5
  99 0495 65F4065D 		.ascii	"e\364\006]D\247\217$\327\306KP\316./-\320\016\247\347"
  99      44A78F24 
  99      D7C64B50 
  99      CE2E2F2D 
  99      D00EA7E7 
 100 04a9 7A30718A 		.ascii	"z0q\212\364[\370\366\346\3757\003\345\037\020\353\237"
 100      F45BF8F6 
 100      E6FD3703 
 100      E51F10EB 
 100      9F
 101 04ba C030FBE0 		.ascii	"\3000\373\340Z\371\265\366\261\351\322t\362\221\345"
 101      5AF9B5F6 
 101      B1E9D274 
 101      F291E5
 102 04c9 A092361D 		.ascii	"\240\2226\035\177!\036\002.\263\017\256\235#P\216\223"
 102      7F211E02 
 102      2EB30FAE 
 102      9D23508E 
 102      93
 103 04da B3D2A6AD 		.ascii	"\263\322\246\255\364\033/O\256\364\225\302J\373\362"
 103      F41B2F4F 
 103      AEF495C2 
 103      4AFBF2
 104 04e9 2AFDCD64 		.ascii	"*\375\315dJ\217\246\225\376OF\351\266\021[\351\340\217"
 104      4A8FA695 
 104      FE4F46E9 
 104      B6115BE9 
 104      E08F
 105 04fb 93F66A46 		.ascii	"\223\366jF\332o\037\22364A\332`~i\257\261\017\336\036"
ARM GAS  C:\Users\info\AppData\Local\Temp\ccNY7Myh.s 			page 8


 105      DA6F1F93 
 105      363441DA 
 105      607E69AF 
 105      B10FDE1E 
 106 050f BEFB7FA5 		.ascii	"\276\373\177\245\275\236\221\366{\2226\304\322zs\363"
 106      BD9E91F6 
 106      7B9236C4 
 106      D27A73F3 
 107 051f DDC955B2 		.ascii	"\335\311U\262\371h\201B\376T\022\313\252\200\033v\231"
 107      F9688142 
 107      FE5412CB 
 107      AA801B76 
 107      99
 108 0530 FC2997C9 		.ascii	"\374)\227\311Vo\376\321EI\254W\002\022\351E\031\035"
 108      566FFED1 
 108      4549AC57 
 108      0212E945 
 108      191D
 109 0542 3F5E9BDA 		.ascii	"?^\233\332;+\001\306 \034SOc0\321\261\352\3562\255H"
 109      3B2B01C6 
 109      201C534F 
 109      6330D1B1 
 109      EAEE32AD 
 110 0557 91AE6187 		.ascii	"\221\256a\207\222\343zS\232\001\022nb,\243\340,8\007"
 110      92E37A53 
 110      9A01126E 
 110      622CA3E0 
 110      2C3807
 111 056a EE4C704B 		.ascii	"\356LpK\317\201\016\310%\305\260\267\000)\014\001w\027"
 111      CF810EC8 
 111      25C5B0B7 
 111      00290C01 
 111      7717
 112 057c B89D0981 		.ascii	"\270\235\011\201d\360\345\312\340b\027\007\013\273 "
 112      64F0E5CA 
 112      E0621707 
 112      0BBB20
 113 058b 157EC8B8 		.ascii	"\025~\310\270\340\304\270\365\272\322A\314\314~\005"
 113      E0C4B8F5 
 113      BAD241CC 
 113      CC7E05
 114 059a 7F96F30A 		.ascii	"\177\226\363\012\362\"5\000\036l\302Q\025\206\361\211"
 114      F2223500 
 114      1E6CC251 
 114      1586F189 
 115 05aa CB748797 		.ascii	"\313t\207\227\211w\365\273\270\324\303\020\261\226\361"
 115      8977F5BB 
 115      B8D4C310 
 115      B196F1
 116 05b9 910C0F49 		.ascii	"\221\014\017I\350\232\344j\254\356^\254g\232\245'\253"
 116      E89AE46A 
 116      ACEE5EAC 
 116      679AA527 
 116      AB
 117 05ca BB37F0AA 		.ascii	"\2737\360\252[\353\352\206{\350s\030eKcfiz\267#\251"
 117      5BEBEA86 
 117      7BE87318 
ARM GAS  C:\Users\info\AppData\Local\Temp\ccNY7Myh.s 			page 9


 117      654B6366 
 117      697AB723 
 118 05df BC9DFD63 		.ascii	"\274\235\375c\362V\300\375L\276<\340\234\213n\252\356"
 118      F256C0FD 
 118      4CBE3CE0 
 118      9C8B6EAA 
 118      EE
 119 05f0 01EDA298 		.ascii	"\001\355\242\230\247\236\235;O\261^\312\013\273\002"
 119      A79E9D3B 
 119      4FB15ECA 
 119      0BBB02
 120 05ff 7AD01CEC 		.ascii	"z\320\034\354\312\3764\230\001\016x\210\363\340\250"
 120      CAFE3498 
 120      010E7888 
 120      F3E0A8
 121 060e 3B2E3D64 		.ascii	";.=d.\216\302!'o\364\274\345\325[V\010\036M\261\334"
 121      2E8EC221 
 121      276FF4BC 
 121      E5D55B56 
 121      081E4DB1 
 122 0623 9452497B 		.ascii	"\224RI{\271\347\2462\350A\365pJ\222y8+\037Y\246\362"
 122      B9E7A632 
 122      E841F570 
 122      4A927938 
 122      2B1F59A6 
 123 0638 61C9948F 		.ascii	"a\311\224\217y\332\007\026\321\037\306\202\332\311\202"
 123      79DA0716 
 123      D11FC682 
 123      DAC982
 124 0647 5C890AAD 		.ascii	"\\\211\012\255U\245$\211\3704\025\221,\321\235\352_"
 124      55A52489 
 124      F8341591 
 124      2CD19DEA 
 124      5F
 125 0658 6A0F25DA 		.ascii	"j\017%\332I\377\273\015\027S\221\265\002D\345\324\264"
 125      49FFBB0D 
 125      175391B5 
 125      0244E5D4 
 125      B4
 126 0669 AA6C5A25 		.ascii	"\252lZ%iZ\343vb\225\376O\231\024cv|n\253\226\331\231"
 126      695AE376 
 126      6295FE4F 
 126      99146376 
 126      7C6EAB96 
 127 067f B48F56AB 		.ascii	"\264\217V\253TgRW\271v\275\020{rR\207\007-\324\004\036"
 127      54675257 
 127      B976BD10 
 127      7B725287 
 127      072DD404 
 128 0694 EC491158 		.ascii	"\354I\021X\3648\201\277\027&\340\204uL\300 \0025)\002"
 128      F43881BF 
 128      1726E084 
 128      754CC020 
 128      02352902 
 129 06a8 3F67DFED 		.ascii	"?g\337\355\344{\021\277x~\201_\244\012\037\205\370T"
 129      E47B11BF 
 129      787E815F 
ARM GAS  C:\Users\info\AppData\Local\Temp\ccNY7Myh.s 			page 10


 129      A40A1F85 
 129      F854
 130 06ba 1FE5A364 		.ascii	"\037\345\243du\374n\241B?3\211[\264\200Z[%\344\275("
 130      75FC6EA1 
 130      423F3389 
 130      5BB4805A 
 130      5B25E4BD 
 131 06cf C6298EE9 		.ascii	"\306)\216\351y}\367R\315\263\014\375 \364T\364\213c"
 131      797DF752 
 131      CDB30CFD 
 131      20F454F4 
 131      8B63
 132 06e1 A9F37012 		.ascii	"\251\363p\022\240Nf\242\343\251\312hs\037\214\336o0"
 132      A04E66A2 
 132      E3A9CA68 
 132      731F8CDE 
 132      6F30
 133 06f3 52287B73 		.ascii	"R({s\037\303\245R^\037\232\262\320\371\241\027\361K"
 133      1FC3A552 
 133      5E1F9AB2 
 133      D0F9A117 
 133      F14B
 134 0705 2324F0C3 		.ascii	"#$\360\303\032\0222@u\202j\303\306\276\302%\222\352"
 134      1A123240 
 134      75826AC3 
 134      C6BEC225 
 134      92EA
 135 0717 CBCB32A7 		.ascii	"\313\3132\247\276\004E\3233\\_\370\013\344*\205\033"
 135      BE0445D3 
 135      335C5FF8 
 135      0BE42A85 
 135      1B
 136 0728 E54F8431 		.ascii	"\345O\2041\220\331\325B\340\231m\275\014\313\203\211"
 136      90D9D542 
 136      E0996DBD 
 136      0CCB8389 
 137 0738 B5D8BD6F 		.ascii	"\265\330\275o]O\233\251\273\001^\221a\307\371\304\037"
 137      5D4F9BA9 
 137      BB015E91 
 137      61C7F9C4 
 137      1F
 138 0749 E88AF768 		.ascii	"\350\212\367h=l]l\003l\275lM\266\006} \001N\213\263"
 138      3D6C5D6C 
 138      036CBD6C 
 138      4DB6067D 
 138      20014E8B 
 139 075e CC5ABCF8 		.ascii	"\314Z\274\370\205\277>\273r\351\362\025\253W\255\300"
 139      85BF3EBB 
 139      72E9F215 
 139      AB57ADC0 
 140 076e D6DA6797 		.ascii	"\326\332g\227\277\270\374\245\325k\226-Y\272d\361\012"
 140      BFB8FCA5 
 140      D56B962D 
 140      59BA64F1 
 140      0A
 141 077f E1A01EF5 		.ascii	"\341\240\036\365\247\325+\215\337\255Z\271\374\245?"
 141      A7D52B8D 
ARM GAS  C:\Users\info\AppData\Local\Temp\ccNY7Myh.s 			page 11


 141      DFAD5AB9 
 141      FCA53F
 142 078e AFE1EB5F 		.ascii	"\257\341\353_\326\254R\370\207\025\260\366\277\234\232"
 142      D6AC52F8 
 142      8715B0F6 
 142      BF9C9A
 143 079d 425B     		.ascii	"B["
 144              		.text
 145              		.section	.gnu.lto_u8x8_ist3020_erc19264_display_info.792a44c2,"",%progbits
 146 0000 789C4DCD 		.ascii	"x\234M\315\275J\303P\030\306\361\363\234\223\330\324"
 146      BD4AC350 
 146      18C6F1F3 
 146      9C93D8D4 
 147 0010 DAB43A39 		.ascii	"\332\264:9\364\002\274\204\016\336\217w!\001Sq\023\004"
 147      F402BC84 
 147      0EDE8F77 
 147      21015371 
 147      1304
 148 0022 3B688582 		.ascii	";h\205\202\203\037U\033c\261\024\035D\012B\234z\001"
 148      831F551B 
 148      63B1141D 
 148      440A429C 
 148      7A01
 149 0034 1507A508 		.ascii	"\025\007\245\010\332\305`\351`\361<}3\230\345\237\337"
 149      DAC560E9 
 149      60F13C7D 
 149      3398E59F 
 149      DF
 150 0045 79CF87A3 		.ascii	"y\317\207\243\240\370m\330\310\237R\277\032\335q\253"
 150      A0F86DD8 
 150      C89F52BF 
 150      1ADD71AB 
 151 0055 5B4C75CD 		.ascii	"[Lu\315(<\320\321}\370\345g\306\3779d\336\376\354M3"
 151      283CD0D1 
 151      7DF8E567 
 151      C6FF3964 
 151      DEFEEC4D 
 152 006a 93077769 		.ascii	"\223\007wi\342\012=\313q\370\376Z\020\256Z\356n\275"
 152      E20A3DCB 
 152      71F8FE5A 
 152      10AE5AEE 
 152      6EBD
 153 007c 6C8AD6AD 		.ascii	"l\212\326\255\016\277\207\037y\341\232\345 \214\032"
 153      0EBF871F 
 153      79E19AE5 
 153      208C1A
 154 008b 46E8580E 		.ascii	"F\350X\016\343\370h~\223F\260\227\362\351\344\370\347"
 154      E3F8687E 
 154      9346B097 
 154      F2E9E4F8 
 154      E7
 155 009c 31BBFB8D 		.ascii	"1\273\373\215ou\372O\333\236\230\343\351\2441\311\306"
 155      6F75FA4F 
 155      DB9E98E3 
 155      E9A431C9 
 155      C6
 156 00ad 75FA79B4 		.ascii	"u\372y\264\337\364\253\267\301N3\210\334\23213\255p"
ARM GAS  C:\Users\info\AppData\Local\Temp\ccNY7Myh.s 			page 12


 156      DFF4ABB7 
 156      C14E3388 
 156      DC9A3133 
 156      AD70
 157 00bf 8ECA4C03 		.ascii	"\216\312L\0031\243q\303\030\211#\213\256d\001\327LN"
 157      31A371C3 
 157      1889238B 
 157      AE6401D7 
 157      4C4E
 158 00d1 E22162F2 		.ascii	"\342!b\362r|\021m\246\200+f\011\227L\021\027\214\217"
 158      727C116D 
 158      A6802B66 
 158      09974C11 
 158      178C8F
 159 00e4 1653929D 		.ascii	"\026S\222\235e\2341\3138eVp\202\212B\007U\365\007\201"
 159      659C31CB 
 159      38655670 
 159      828A4207 
 159      55F50781 
 160 00f8 8C7AD5   		.ascii	"\214z\325"
 161              		.text
 162              		.section	.gnu.lto_u8x8_d_ist3020_erc19264_init_seq.792a44c2,"",%progbits
 163 0000 789C4D92 		.ascii	"x\234M\222iOSA\024\206\357\334\226\262\224\305}\255"
 163      694F5341 
 163      1486EFDC 
 163      96B294C5 
 163      7DAD
 164 0012 FBFAC168 		.ascii	"\373\372\301h\304/\374\005\377\207?\204\306\326\000"
 164      C42FFC05 
 164      FF873F84 
 164      C6D600
 165 0021 09A64192 		.ascii	"\011\246A\222\032\224\210,\026\254\224\242\302\245\227"
 165      1A94882C 
 165      16AC94A2 
 165      C2A597
 166 0030 82052C50 		.ascii	"\202\005,P\366\226\265\026JY\004\334\220\245\026\025"
 166      F696B516 
 166      4A5904DC 
 166      90A51615 
 167 0040 28BE73E7 		.ascii	"(\276s\347\304\264\311\223\333'\357\231\355\314\350"
 167      C4B4C993 
 167      DB27EF99 
 167      EDCCE8
 168 004f 2526F15F 		.ascii	"%&\361_D/\321?I\332\227Y\223u\271!#.[u\022;`\360g\333"
 168      442FD13F 
 168      49DA9759 
 168      9375B921 
 168      232E5B75 
 169 0069 735F32B9 		.ascii	"s_2\2713v\023\032\267\017\205\363D|\032Z\247\204\357"
 169      3376131A 
 169      B70F85F3 
 169      447C1A5A 
 169      A784EF
 170 007c 8BF0062C 		.ascii	"\213\360\006,1\250Ve\213\260\216\217M\330\314\245:\021"
 170      31A85665 
 170      8BB08E8F 
 170      4DD8CCA5 
ARM GAS  C:\Users\info\AppData\Local\Temp\ccNY7Myh.s 			page 13


 170      3A11
 171 008e 5F872E39 		.ascii	"_\207.9\222v\203\210\217C\243\276\221\031\203H\257A"
 171      92768388 
 171      8F43A3BE 
 171      91198348 
 171      AF41
 172 00a0 079AA7BA 		.ascii	"\007\232\247\272ha\027\037\374\333\033\254\226E|\025"
 172      6861171F 
 172      FCDB1BAC 
 172      96457C15 
 173 00b0 BAE84ECC 		.ascii	"\272\350N\314\322\\W\240e\217\2252J/C\177\375)Y\317"
 173      D25C57A0 
 173      658F9532 
 173      4A2F437F 
 173      FD2959CF 
 174 00c4 14834F40 		.ascii	"\024\203O@\213\"\337\343\331\"\275\004mohZ\245\205\315"
 174      8B22DFE3 
 174      D922BD04 
 174      6D6F685A 
 174      A585CD
 175 00d7 7CEACDE1 		.ascii	"|\352\315\341\212\245\\\021_\204>\251uyr\204^HM%-U\037"
 175      8AA55C11 
 175      5F843EA9 
 175      75797284 
 175      5E484D25 
 176 00ee 3ADD949E 		.ascii	":\335\224\236\207V\257\015\007\322\204\236\203\266\254"
 176      8756AF0D 
 176      07D2849E 
 176      83B6AC
 177 00fd 1417E688 		.ascii	"\024\027\346\210\342|h[\307\217|\021\232`3\337B\203"
 177      E27C685B 
 177      C78F7C11 
 177      9A6033DF 
 177      4283
 178 010f 461126F9 		.ascii	"F\021&\371\272\365\376n\205\211\370,\264?R\332I\333"
 178      BAF5FE6E 
 178      8589F82C 
 178      B43F52DA 
 178      49DB
 179 0121 BA035D5D 		.ascii	"\272\003]]}YN\233>\223\332i\246uz\335\3629f\024z\012"
 179      7D594E9B 
 179      3E93DA69 
 179      A6757ADD 
 179      F2396614 
 180 0137 BA6DB716 		.ascii	"\272m\267\026g\010=\011u\307\346\3144\325\355\324v0"
 180      67083D09 
 180      75C7E6CC 
 180      34D5EDD4 
 180      7630
 181 0149 AD1DFF1B 		.ascii	"\255\035\377\033\317\264\306o\356U*\224\036\343\013"
 181      CFB4C66F 
 181      EE552A94 
 181      1EE30B
 182 0158 791EFDA5 		.ascii	"y\036\375\245n\034\205Z*m\243\262\230\352\026\2649\266"
 182      6E1C855A 
 182      2A6DA3B2 
 182      98EA16B4 
ARM GAS  C:\Users\info\AppData\Local\Temp\ccNY7Myh.s 			page 14


 182      39B6
 183 016a E7D58BF4 		.ascii	"\347\325\213\364\010\357l_t\222\216p\030\332U\274\343"
 183      08EF6C5F 
 183      74928E70 
 183      18DA55BC 
 183      E3
 184 017b CF12C535 		.ascii	"\317\022\3055\374\204\241\215\241J\332\345!\250k+\356"
 184      FC84A18D 
 184      A14ADAE5 
 184      21A86B2B 
 184      EE
 185 018c A285F3A0 		.ascii	"\242\205\363\240\216\027\343\023\364>^\361\352\375Y"
 185      8E17E313 
 185      F43E5EF1 
 185      EAFD59
 186 019b 73922E31 		.ascii	"s\222.1\027Z\363\325\323C\255\315\201>\265\204Vh#\375"
 186      175AF3D5 
 186      D343ADCD 
 186      813EB584 
 186      566823FD 
 187 01af BC7A77AD 		.ascii	"\274zw\255<LKgC\247\303\026\017\251\221\3175o\263\245"
 187      3C4C4B67 
 187      43A7C316 
 187      0FA991CF 
 187      356FB3A5 
 188 01c3 8BEA2A6D 		.ascii	"\213\352*m\356\215\261}\352f\026\324\331Z\247Ru&TYw"
 188      EE8DB17D 
 188      EA6616D4 
 188      D95AA752 
 188      75265459 
 189 01d8 2A746D3E 		.ascii	"*tm>\376\352\343%\326\035z]\351\320\345\335F\225Zb\200"
 189      FEEAE325 
 189      D61D7A5D 
 189      E9D0E5DD 
 189      46955A62 
 190 01ed 066AD53D 		.ascii	"\006j\325=\232+\015:\265R\323K\017\304\311\227\012Z"
 190      9A2B0D3A 
 190      B552D34B 
 190      0FC4C997 
 190      0A5A
 191 01ff DCCF69B0 		.ascii	"\334\317i\260\036\332\275\345vP\265\216\247\215\013"
 191      1EDABDE5 
 191      7650B58E 
 191      A78D0B
 192 020e 0F44F122 		.ascii	"\017D\361\"/\366\037\354\370\350Z\345\324k\225\264k"
 192      2FF61FEC 
 192      F8E85AE5 
 192      D46B95B4 
 192      6B
 193 021f 0DA83F2B 		.ascii	"\015\250?+\262\012Z\013\213\252\012mF\253NfwMl\201\231"
 193      B20A5A0B 
 193      8BAA0A6D 
 193      46AB4E66 
 193      774D6C81 
 194 0234 58BE8935 		.ascii	"X\276\2115\342\023\003\363 \312\204\317\201Y\020!\377"
 194      E21303F3 
 194      20CA84CF 
ARM GAS  C:\Users\info\AppData\Local\Temp\ccNY7Myh.s 			page 15


 194      81591021 
 194      FF
 195 0245 049A4098 		.ascii	"\004\232@\230\374\236\211\315\3403M:\005&\301\004\371"
 195      FC9E89CD 
 195      E0334D3A 
 195      0526C104 
 195      F9
 196 0256 38088120 		.ascii	"8\010\201 \371\030\030\005#\344\303`\010\014\222\017"
 196      F9181805 
 196      23E4C360 
 196      080C920F 
 197 0266 8000E807 		.ascii	"\200\000\350\007\035\240\017\264\203^\312\375\340#\350"
 197      1DA00FB4 
 197      835ECAFD 
 197      E023E8
 198 0275 A1BC9BF2 		.ascii	"\241\274\233\362.\312}\340\003\350\244\334K\271J\271"
 198      2ECA7DE0 
 198      03E8A4DC 
 198      4BB94AB9 
 199 0285 07B40185 		.ascii	"\007\264\001\205\274\025\264\200\367\340\035x\013\032"
 199      BC15B480 
 199      F7E01D78 
 199      0B1A
 200 0293 4033E56E 		.ascii	"@3\345n:\256\213\374\015p\202\327TW\017\034\314\304"
 200      3AAE8BFC 
 200      0D7082D7 
 200      54570F1C 
 200      CCC4
 201 02a5 3B5F20FD 		.ascii	";_ \375\003\377s\245E"
 201      03FF73A5 
 201      45
 202              		.text
 203              		.section	.gnu.lto_u8x8_d_ist3020_erc19264_powersave0_seq.792a44c2,"",%progbits
 204 0000 789C2D8B 		.ascii	"x\234-\213\275\016\301P\030\206\317\327\037\021D'\011"
 204      BD0EC150 
 204      1886CFD7 
 204      1F114427 
 204      09
 205 0011 496F82A9 		.ascii	"Io\202\251\227\345\022:\264\211\304f \021\203\201TQ"
 205      97E5123A 
 205      B489C466 
 205      20118381 
 205      5451
 206 0023 AD0E864E 		.ascii	"\255\016\206N\"1\010\213Qb\220`5P1\370}\233\317I\236"
 206      2231088B 
 206      51629060 
 206      355031F8 
 206      7D9BCF49 
 207 0038 9CEFC993 		.ascii	"\234\357\311\223W\021$\222w\007|\011\361\226\310\267"
 207      57112492 
 207      77077C09 
 207      F196C8B7 
 208 0048 4F6E3A96 		.ascii	"On:\226lY\320\227\340\247\247\027\345\023'JA\343\326"
 208      6C59D097 
 208      E0A7A717 
 208      E513274A 
 208      41E3D6
ARM GAS  C:\Users\info\AppData\Local\Temp\ccNY7Myh.s 			page 16


 209 005b 66A7712E 		.ascii	"f\247q.AW\275\350\225\343\252B\033\317u3\303\325O\306"
 209      4157BDE8 
 209      95E3AA42 
 209      1BCF7533 
 209      C3D54FC6 
 210 006f 5B2BE8C8 		.ascii	"[+\350\310\234\025\350\321\371\264R\234\013\320\305"
 210      9C15E8D1 
 210      F9B4529C 
 210      0BD0C5
 211 007e 3570FE63 		.ascii	"5p\376c\031Z\017o}\225k/\031/\277\217\271\306Y\202^"
 211      195A0F6F 
 211      7D956B2F 
 211      192FBF8F 
 211      B9C65982 
 212 0093 ACF321CB 		.ascii	"\254\363!\313\271\010m/\366\253\27413k]\263j\313\022"
 212      B9086D2F 
 212      F6ABBC31 
 212      336B5DB3 
 212      6ACB12
 213 00a6 95759A92 		.ascii	"\225u\232\222N\025\235<|\001\360\301\204\330\307`\004"
 213      4E159D3C 
 213      7C01F0C1 
 213      84D8C760 
 213      04
 214 00b7 86C00503 		.ascii	"\206\300\005\003\340\220.($C\374\000\312BTO"
 214      E0902E28 
 214      2443FC00 
 214      CA42544F 
 215              		.text
 216              		.section	.gnu.lto_u8x8_d_ist3020_erc19264_powersave1_seq.792a44c2,"",%progbits
 217 0000 789C2D8D 		.ascii	"x\234-\215\271\012\302@\024E\347%Q\004\203\251\004\205"
 217      B90AC240 
 217      1445E725 
 217      510483A9 
 217      0485
 218 0012 FC8456F9 		.ascii	"\374\204V\371,?!E\002\342\017\330XX\250q\313fa\221J"
 218      2C3F2145 
 218      02E20FD8 
 218      5858A871 
 218      CB666191 
 219 0027 050B97C6 		.ascii	"\005\013\227\306F\260\023\324\326B\\\012\327;<\007\016"
 219      46B013D4 
 219      D6425C0A 
 219      D73B3C07 
 219      0E
 220 0038 3387C365 		.ascii	"3\207\303e4AB\236\033\340\227\020o\205B\367\330\313"
 220      3441429E 
 220      1BE09710 
 220      6F8542F7 
 220      D8CB
 221 004a 5C155715 		.ascii	"\\\025W\025\364%\370\361\351'9\351Di\350\265\276\336"
 221      F425F8F1 
 221      E92739E9 
 221      4469E8B5 
 221      BEDE
 222 005c 199C8BD0 		.ascii	"\031\234\213\320E+y\351\\S\320\373*i\352\\\333r\274"
 222      452B79E9 
ARM GAS  C:\Users\info\AppData\Local\Temp\ccNY7Myh.s 			page 17


 222      5C53D0FB 
 222      2A69EA5C 
 222      DB72BC
 223 006f 71A286CA 		.ascii	"q\242\206\312Y\203\036\274O=\3159\017\235]\"\357?V\241"
 223      59831EBC 
 223      4F3DCD39 
 223      0F9D5D22 
 223      EF3F56A1 
 224 0083 CB783BFD 		.ascii	"\313x;\375\377\034\310\361\374\373\230\030\234\025\350"
 224      FF1CC8F1 
 224      FCFB9818 
 224      9C15E8
 225 0092 D939EDB3 		.ascii	"\3319\355\263\234\013\320N\315=\2235\266\253M\273\342"
 225      9C0BD04E 
 225      CD3D9335 
 225      B6AB4DBB 
 225      E2
 226 00a3 AA0A954C 		.ascii	"\252\012\225L\212\311\244\262I>\256\010\204  \366!\030"
 226      8AC9A4B2 
 226      493EAE08 
 226      842020F6 
 226      2118
 227 00b5 803EE881 		.ascii	"\200>\350\201.\360\310\0244\"K\374\000\350\343TS"
 227      2EF0C814 
 227      34224BFC 
 227      00E8E354 
 227      53
 228              		.text
 229              		.section	.gnu.lto_u8x8_d_ist3020_erc19264_flip0_seq.792a44c2,"",%progbits
 230 0000 789C2D8B 		.ascii	"x\234-\213=\013AQ\030\307\317s\216\267\"&E\235/\301"
 230      3D0B4151 
 230      18C7CF73 
 230      8EB72226 
 230      459D2FC1 
 231 0014 E463F908 		.ascii	"\344c\371\010\206{\313hc0\030\324\365\356\222\014&)"
 231      867BCB68 
 231      633018D4 
 231      F5EE920C 
 231      2629
 232 0026 A22C6C26 		.ascii	"\242,l&\312e4\350\312\340\345\372\237\036\247~\235\347"
 232      CA6534E8 
 232      CAE0E5FA 
 232      9F1EA77E 
 232      9DE7
 233 0038 D7AF7F48 		.ascii	"\327\257\177H\2200\357\001\370\022\342#ih{\355\230/"
 233      9030EF01 
 233      F812E223 
 233      69687BED 
 233      982F
 234 004a 6D252820 		.ascii	"m%( \270\367\352\317\222\306\211\"P\277\272=\2448g\241"
 234      B8F7EACF 
 234      92C68922 
 234      50BFBA3D 
 234      A43867A1 
 235 005e 9BE6EC9D 		.ascii	"\233\346\354\235\340\032\206\326\254\375Ur]\233\361"
 235      E01A86D6 
 235      ACFD5572 
ARM GAS  C:\Users\info\AppData\Local\Temp\ccNY7Myh.s 			page 18


 235      5D9BF1
 236 006d CE72EB8A 		.ascii	"\316r\353\212s\010zv\276\325\010\3474tqw\235\377XA?"
 236      73087A76 
 236      BED508E7 
 236      34747177 
 236      9DFF5841 
 237 0082 C74A25CA 		.ascii	"\307J%\312\265a\306\313\3409Oq\226\320\233u9\3059g\240"
 237      B561C6CB 
 237      E0394F71 
 237      96D09B75 
 237      39C53967 
 238 0097 ABC9B41C 		.ascii	"\253\311\264\034+LK\345F\251h+I9M#\322\224\327\324\307"
 238      2B4C4BE5 
 238      46A9682B 
 238      49394D23 
 238      D294D7D4 
 239 00ac E7822118 		.ascii	"\347\202!\030\020{\017tA\007\264A\0138\244\005\215\251"
 239      107B0F74 
 239      4107B441 
 239      0B38A405 
 239      8DA9
 240 00be 207EBEEB 		.ascii	" ~\276\353T\034"
 240      541C
 241              		.text
 242              		.section	.gnu.lto_u8x8_d_ist3020_erc19264_flip1_seq.792a44c2,"",%progbits
 243 0000 789C2D8C 		.ascii	"x\234-\214=\013\202P\030F\357\253%A\242SP\340\237\250"
 243      3D0B8250 
 243      1846EFAB 
 243      2541A253 
 243      50E09FA8 
 244 0014 C99FD54F 		.ascii	"\311\237\325OpPhjmi(\010\354[kh\220\006\011\032\202"
 244      7050686A 
 244      6D692808 
 244      EC5B6B68 
 244      9006091A 
 245 0029 866AA968 		.ascii	"\206j\251h\011\262\261\2060\032\372|\344\355\302\341"
 245      09B2B186 
 245      301AFA7C 
 245      E4EDC2E1 
 246 0039 DEC3E1B9 		.ascii	"\336\303\341\271)A\"9w\300/!\336\022yN\324\311\304\222"
 246      29412239 
 246      77C02F21 
 246      DE12794E 
 246      D4C9C492 
 247 004d 230BFA12 		.ascii	"#\013\372\022<z\016\002-q\"\005\032\327\226{\235s\001"
 247      3C7A0E02 
 247      2D712205 
 247      1AD7967B 
 247      9D7301
 248 0060 BA68052F 		.ascii	"\272h\005/\225k\032\352O\355\213\3065L\306k\333\257"
 248      956B1AEA 
 248      4FED8BC6 
 248      354CC66B 
 248      DBAF
 249 0072 CB9C53D0 		.ascii	"\313\234S\320\223\373\251)\234s\320\331\315w\377c\031"
 249      93FBA929 
 249      9C73D0D9 
ARM GAS  C:\Users\info\AppData\Local\Temp\ccNY7Myh.s 			page 19


 249      CD77FF63 
 249      19
 250 0083 BA3A6CBC 		.ascii	"\272:l\274\377\327\315d<\377>B\235\263\004\275\332\347"
 250      FFD7CD64 
 250      3CFF3E42 
 250      9DB304BD 
 250      DAE7
 251 0095 6396731E 		.ascii	"c\226s\036Z\235\355\266\2529\261*\015\253\354\310\022"
 251      5A9DEDB6 
 251      AA39B12A 
 251      0DABECC8 
 251      12
 252 00a6 150D1A91 		.ascii	"\025\015\032\221A%\203\006\270|\340\201!\261\367A\017"
 252      41258306 
 252      B87CE081 
 252      21B1F741 
 252      0F
 253 00b7 744107B4 		.ascii	"tA\007\264\201K\206\2401\231\342\007\3673T\255"
 253      814B86A0 
 253      3199E207 
 253      F73354AD 
 254              		.text
 255              		.section	.gnu.lto_.symbol_nodes.792a44c2,"",%progbits
 256 0000 789C55CC 		.ascii	"x\234U\314\273\015\3020\024\205\341s\375\310;\024\210"
 256      BB0DC230 
 256      1485E173 
 256      FDC83B14 
 256      88
 257 0011 01600B46 		.ascii	"\001`\013F`\253\353\302\035\022 !QR\271b\016\213H\024"
 257      60ABEBC2 
 257      1D122021 
 257      5152B962 
 257      0E8B4814 
 258 0025 6400DAAC 		.ascii	"d\000\332\254\200\004\035\211\235\002W\237~\335\243"
 258      80041D89 
 258      9D02579F 
 258      7EDDA3
 259 0034 AB40D811 		.ascii	"\253@\330\021\000\2211pz\002#7\263\001\264\202Y\002"
 259      00913170 
 259      7A022337 
 259      B301B482 
 259      5902
 260 0046 526B8A42 		.ascii	"Rk\212BDIF\205\212J\035\244\226)<\000\214Y\003\264`"
 260      44494685 
 260      8A4A1DA4 
 260      96293C00 
 260      8C5903B4 
 261 005b 9174CD32 		.ascii	"\221t\3152\351\212U\322\015\353\244K\316\222.8O:\347"
 261      E98A55D2 
 261      0DEBA44B 
 261      CE922E38 
 261      4F3AE7
 262 006e E2BF2516 		.ascii	"\342\277%\026\030>+\211\026\356;\322\300G\334\275\243"
 262      183E2B89 
 262      16EE3BD2 
 262      C047DCBD 
 262      A3
ARM GAS  C:\Users\info\AppData\Local\Temp\ccNY7Myh.s 			page 20


 263 007f 90B3AE9B 		.ascii	"\220\263\256\233}LV\360\373^H\224\030\2025\334a2\207"
 263      7D4C56F0 
 263      FB5E4894 
 263      188235DC 
 263      613287
 264 0092 0F56B0C7 		.ascii	"\017V\260\307x\367\347\250\275\314\373`\001\373zo\247"
 264      78F7E7A8 
 264      BDCCFB60 
 264      01FB7A6F 
 264      A7
 265 00a3 BDBDF602 		.ascii	"\275\275\366\002?\244#D\251"
 265      3FA42344 
 265      A9
 266              		.text
 267              		.section	.gnu.lto_.refs.792a44c2,"",%progbits
 268 0000 789C6361 		.ascii	"x\234ca`d\020e```c`bdfbbcb\346db\341bb\345eb\023d\000"
 268      60641065 
 268      60606063 
 268      60626466 
 268      62626362 
 269 0020 00060600 		.ascii	"\000\006\006\000|"
 269      7C
 270              		.text
 271              		.section	.gnu.lto_.decls.792a44c2,"",%progbits
 272 0000 789CBD59 		.ascii	"x\234\275Y{P\024\331\271\237\323g\200af@E\334\265RT"
 272      7B5014D9 
 272      B99FD367 
 272      80616640 
 272      45DCB552 
 273 0015 D6BB1225 		.ascii	"\326\273\022%U\211A\335ly\363\307\255\335\312\275\273"
 273      558941DD 
 273      6C79F3C7 
 273      ADDDCABD 
 273      BB
 274 0026 A9FC91E4 		.ascii	"\251\374\221\344Vv\267nU\250\232\035g\006\235,\0148"
 274      5676B76E 
 274      55A89A1D 
 274      67069D2C 
 274      0C38
 275 0038 33B8BAA9 		.ascii	"3\270\272\251T\032yhpE@\035^\272(>@\021E@\344)\263\370"
 275      541A7968 
 275      7045401D 
 275      5EBA283E 
 275      40114540 
 276 0050 58DF22C2 		.ascii	"X\337\"\302(*\242\340\003\037(/EE\341~\347\234\356\351"
 276      282AA2E0 
 276      031F282F 
 276      4545E17E 
 276      E79CEEE9 
 277 0064 1EE8C966 		.ascii	"\036\350\311f\253n\356\270?\272\277s~\375\235\337\367"
 277      AB6EEEB8 
 277      3FBABF73 
 277      7EFD9DDF 
 277      F7
 278 0075 9D67F7AA 		.ascii	"\235g\367\252UHE~\037\277\243R\241@\225\352\034\247"
 278      5548457E 
 278      1FBFA352 
ARM GAS  C:\Users\info\AppData\Local\Temp\ccNY7Myh.s 			page 21


 278      A14095EA 
 278      1CA7
 279 0087 524DC04F 		.ascii	"RM\300O\003e\237\251\244_0\340C\240~\014\370=\340S\300"
 279      03659FA9 
 279      A45F30E0 
 279      43A07E0C 
 279      F83DE053 
 280 009c FF00FE04 		.ascii	"\377\000\376\004\370\034`\006X\001\340B\365\005\\\355"
 280      F81C6006 
 280      5801E042 
 280      F5055CED 
 281 00ac 80D580BF 		.ascii	"\200\325\200\277\000\376\012\370\033R\371\374\210/h"
 281      00FE0AF8 
 281      1B52F9FC 
 281      882F68
 282 00bb 52550908 		.ascii	"RU\011\010\003\204\003\336!~\341\372[\270\316\006D\010"
 282      038403DE 
 282      217EE1FA 
 282      5BB8CE06 
 282      4408
 283 00cd 1A78B87F 		.ascii	"\032x\270\177\033\260\034\220\0140\001\326\000R\000"
 283      1BB01C90 
 283      0C3001D6 
 283      005200
 284 00dc 2B000640 		.ascii	"+\000\006@*`\025`\016\240\035\236I\203\353G\200t\300"
 284      2A601560 
 284      0EA01D9E 
 284      4983EB47 
 284      8074C0
 285 00ef 27803F40 		.ascii	"'\200?@\231\013\256[\000\271\200\337\001H\214\377\001"
 285      990BAE5B 
 285      00B980DF 
 285      01488CFF 
 285      01
 286 0100 572DE067 		.ascii	"W-\340g\200\000\300\006@\026`# \033Iq[\205\030?\027"
 286      8000C006 
 286      40166023 
 286      201B4971 
 286      5B85183F 
 287 0115 E2FE5488 		.ascii	"\342\376T\210]\314G\010\360\362\340\232\017(\000\024"
 287      5DCC4708 
 287      F0F2E09A 
 287      0F280014 
 288 0125 02B602B6 		.ascii	"\002\266\002\266\001\276A\377\\N\010G\015\327y*\026"
 288      01BE41FF 
 288      5C4E0847 
 288      0DD7792A 
 288      16
 289 0136 FB7C158B 		.ascii	"\373|\025\213{&\\\003I\035\200\003\004\021\355\200\351"
 289      7B265C03 
 289      491D8003 
 289      0411ED80 
 289      E9
 290 0147 8009A8C3 		.ascii	"\200\011\250\303\204\003\320\003tD3\321\003\230A\374"
 290      8403D003 
 290      744433D1 
 290      039841FC 
ARM GAS  C:\Users\info\AppData\Local\Temp\ccNY7Myh.s 			page 22


 291 0157 0BF191D8 		.ascii	"\013\361\221\330\020 tR\233\342\217h\303B\273\244/V"
 291      10207452 
 291      9BE28F68 
 291      C342BBA4 
 291      2F56
 292 0169 F8E191DF 		.ascii	"\370\341\221\337\352I\334U\377\200\373\227\037\300\375"
 292      EA49DC55 
 292      FF80FB97 
 292      1FC0FD
 293 0178 EB0FE0FE 		.ascii	"\353\017\340\376\355\007p\337p(\245\347\341v\315u\324"
 293      ED0770DF 
 293      7028A5E7 
 293      E176CD75 
 293      D4
 294 0189 092940F4 		.ascii	"\011)@\364\247\022\306=I\012\022\256*!G\360\227\243"
 294      A712C63D 
 294      490A12AE 
 294      2A2147F0 
 294      97A3
 295 019b 7F5522CB 		.ascii	"\177U\"\313\353\034\321\177\360\037G\371HV\341\303\243"
 295      EB1CD17F 
 295      F01F47F9 
 295      4856E1C3 
 295      A3
 296 01ac 7388FEA4 		.ascii	"s\210\376\244\"\344\375\211L\344\353\024\321\336\025"
 296      22E4FD89 
 296      4CE4EB14 
 296      D1DE15
 297 01bb 4DB039E9 		.ascii	"M\2609\351\001\231?A\275\320>\2227K]c1hW\353\366\247"
 297      01993F41 
 297      BDD03E92 
 297      374B5D63 
 297      316857EB 
 298 01d1 81187CC2 		.ascii	"\201\030|\302}\367\313\322\217\026\354\347\341\227\305"
 298      7DF7CBD2 
 298      8F16ECE7 
 298      E197C5
 299 01e0 F3DCAFA4 		.ascii	"\363\334\257\244\314\034\330?V\241UC\274\350S=Z\252"
 299      CC1CD83F 
 299      56A15543 
 299      BCE8533D 
 299      5AAA
 300 01f2 264507D3 		.ascii	"&E\007\323\356\354\325\214p(B\213&\020\261\037\327\275"
 300      EEECD58C 
 300      7028428B 
 300      2610B11F 
 300      D7BD
 301 0204 0C6136A9 		.ascii	"\014a6\251\256v\017\227\253\361\\r\317]\252\352<\021"
 301      AE760F97 
 301      ABF15C72 
 301      CF5DAAEA 
 301      3C11
 302 0216 8CA2B47B 		.ascii	"\214\242\264{\210\347[\015\317>L\341y\204\016\"-*G\030"
 302      88E75B0D 
 302      CF3E4CE1 
 302      79840E22 
 302      2D2A4718 
ARM GAS  C:\Users\info\AppData\Local\Temp\ccNY7Myh.s 			page 23


 303 022a ED450B88 		.ascii	"\355E\013\210\250\010-\374]\307\363k\370\201b>p\266"
 303      A8082DFC 
 303      5DC7F36B 
 303      F881623E 
 303      70B6
 304 023c 0A2D8E40 		.ascii	"\012-\216@\321\021*t\000E\021\237\204\205\366\243\010"
 304      D1112A74 
 304      0045119F 
 304      8485F6A3 
 304      08
 305 024d 54862288 		.ascii	"T\206\"\210\377\275E\245\307Cp\005\242\015\364o~\264"
 305      FFBD45A5 
 305      C7437005 
 305      A20DF46F 
 305      7EB4
 306 025f 0E7B1B18 		.ascii	"\016{\033\030\\\037Q\306\363\323Q%4P!5\000\355)\267"
 306      5C1F51C6 
 306      F3D35125 
 306      34502135 
 306      00ED29B7 
 307 0273 7048B985 		.ascii	"pH\271\205\353\351%gu4f\342h\037\242Qw\\\275\331\021"
 307      EBE92567 
 307      753466E2 
 307      681FA251 
 307      775CBDD9 
 308 0288 EC2DAC62 		.ascii	"\354-\254b\205\227R+\266b\010=L\213\324`\016\236/\350"
 308      8597522B 
 308      B662083D 
 308      4C8BD460 
 308      0E9E2FE8 
 309 029c 0D05335C 		.ascii	"\015\0053\\\213\346\200Y8\334\365 \230\325F\201\371"
 309      8BE68059 
 309      38DCF520 
 309      98D54681 
 309      F9
 310 02ad 24F5EE2D 		.ascii	"$\365\356-\035\253\235\015&\337\227Z\304\341\203,\377"
 310      1DAB9D0D 
 310      26DF975A 
 310      C4E1832C 
 310      FF
 311 02be 6D03E7B6 		.ascii	"m\003\347\266\011u\323\301l\356\313n\326\340\243\254"
 311      0975D3C1 
 311      6CEECB6E 
 311      D6E0A3AC 
 312 02ce AEB5A4FF 		.ascii	"\256\265\244\377J(\3660\243o{s\245\006\0172\243\364"
 312      4A28F630 
 312      A36F7B73 
 312      A5060F32 
 312      A3F4
 313 02e0 DED64C3D 		.ascii	"\336\326L={j\211\254\3710\326\374\026w\316k-~\303\250"
 313      7B6A89AC 
 313      F930D6FC 
 313      1677CE6B 
 313      2D7EC3A8 
 314 02f4 0D471A4F 		.ascii	"\015G\032O\0060j4\230\247\353z\2421dN%\223\031\316d"
 314      06306A34 
 314      98A7EB7A 
ARM GAS  C:\Users\info\AppData\Local\Temp\ccNY7Myh.s 			page 24


 314      A231644E 
 314      259319CE 
 315 0309 3E3FDBDE 		.ascii	">?\333\336\205q.\253\333\330\322tL\203w2\343\344\215"
 315      85712EAB 
 315      DBD8D274 
 315      4C837732 
 315      E3E48D
 316 031c 6B1D6A7C 		.ascii	"k\035j|\220\031\311M\307\252B\360qf\234\230\030uOc-"
 316      9019C94D 
 316      C7AA42F0 
 316      71669C98 
 316      18754F63 
 317 0331 7360BEA9 		.ascii	"s`\276\251\252:\206\360yV\267\373\325\330\000\311\321"
 317      AA3A86F0 
 317      7956B7FB 
 317      D5D800C9 
 317      D1
 318 0342 3C182E13 		.ascii	"<\030.\023X6^\346\261\361\322|\366\364\036=\366P2\327"
 318      58365EE6 
 318      B1F1D27C 
 318      F6F41E3D 
 318      F65032D7 
 319 0356 D692F746 		.ascii	"\326\222\367F\207\264Q\264\263\370\024^\033\245B\365"
 319      87B451B4 
 319      B3F8145E 
 319      1BA542F5 
 320 0366 D033A7A0 		.ascii	"\3203\247\240g\320\005\350\256yBw\235\205\3023P(\214"
 320      67D005E8 
 320      AE794277 
 320      9D85C233 
 320      50288C
 321 0379 ACFEDFD2 		.ascii	"\254\376\337\322\221u\036\272\346\234\324\361\363\264"
 321      91751EBA 
 321      E69CD4F1 
 321      F3B4
 322 0387 6C101FCD 		.ascii	"l\020\037\315\276~O\213o\263&v\365\362\015j\177M\\\362"
 322      BE7E4F8B 
 322      6FB32676 
 322      F5F20D6A 
 322      7F4D5CF2 
 323 039b DBC4E0FA 		.ascii	"\333\304\340\372y\373\311\330j\205&.JM\234GB\033b\357"
 323      79FBC9D8 
 323      6A85262E 
 323      4A4D9C47 
 323      421B62EF 
 324 03af 86B1DEBD 		.ascii	"\206\261\336\275\227\261wP\217\037\262\024l\353\350"
 324      97B17750 
 324      8F1FB214 
 324      6CEBE8
 325 03be C90AD60A 		.ascii	"\311\012\326\012\0030\353\373\007`\301\211u-\001\372"
 325      0330EBFB 
 325      0760C189 
 325      752D01FA 
 326 03ce 0CC2CF4A 		.ascii	"\014\302\317J\341\303~\203\332\241\321\032\250?\014"
 326      E1C37E83 
 326      DAA1D11A 
 326      A83F0C
ARM GAS  C:\Users\info\AppData\Local\Temp\ccNY7Myh.s 			page 25


 327 03dd F52AD481 		.ascii	"\365*\324\201\364\302\354L}\270\263\037\341\247\254"
 327      F4C2EC4C 
 327      7DB8B31F 
 327      E1A7AC
 328 03ec 95AE537B 		.ascii	"\225\256S{\313H\242\347\223DOLL\223\245z>Ku\333\306"
 328      CB48A2E7 
 328      93444F4C 
 328      4C93A57A 
 328      3E4B75DB 
 329 0401 A15D41F8 		.ascii	"\241]A\370%\313CY\366\2436\331\334\334\255\257#\341"
 329      25CB4359 
 329      F6A336D9 
 329      DCDCADAF 
 329      23E1
 330 0413 5D87963A 		.ascii	"]\207\226:\245\360\346{g\016\025\242\362\252@\327@\372"
 330      A5F0E67B 
 330      670E15A2 
 330      F2AA40D7 
 330      40FA
 331 0425 7C41FA55 		.ascii	"|A\372U(\274\"\314\316]\331\305\2018UM\233\330w\340"
 331      28BC22CC 
 331      CE5DD9C5 
 331      8138554D 
 331      9BD877E0 
 332 0439 E2C92031 		.ascii	"\342\311 1\325\223\035\334Tp \246\372=\232\352.\320"
 332      D5931DDC 
 332      547020A6 
 332      FA3D9AEA 
 332      2ED0
 333 044b 7243D272 		.ascii	"rC\322r]L\2658Y\302\330d\35194\372X\2037\320&\321\332"
 333      5D4CB538 
 333      59C2D864 
 333      E93934FA 
 333      588337D0 
 334 0462 89AEE31A 		.ascii	"\211\256\343\032\\\304\214\324\222\015\205!\270\214"
 334      5CC48CD4 
 334      920D8521 
 334      B88C
 335 0470 19050D23 		.ascii	"\031\005\015#g\002\330S\03203\363\207\032\202p\025\253"
 335      6702D853 
 335      1A3033F3 
 335      871A8270 
 335      15AB
 336 0482 BBECDE5E 		.ascii	"\273\354\336^\030\214\353\231\321[=\272+\004\237`\306"
 336      188CEB99 
 336      D15B3DBA 
 336      2B049F60 
 336      C6
 337 0493 EDA74DF9 		.ascii	"\355\247M\371A\336i\317\026\300\303mE\335A\370<#\274"
 337      41DE69CF 
 337      16C0C36D 
 337      45DD41F8 
 337      3C23BC
 338 04a6 BA38568F 		.ascii	"\2728V\217\3605f|}\271f1\276\317\356\367w\\}\203\360"
 338      F035667C 
 338      7DB96631 
 338      BECFEEF7 
ARM GAS  C:\Users\info\AppData\Local\Temp\ccNY7Myh.s 			page 26


 338      775C7D83 
 339 04bb 3033CE8F 		.ascii	"03\316\217\017\034\3058-\200\032\345\267\322/\007`\027"
 339      0F1CC538 
 339      2D801AE5 
 339      B7D22F07 
 339      6017
 340 04cd 33F6BCDE 		.ascii	"3\366\274\336Q\255\307\305\31489\332\2643\000\2273#"
 340      51ADC7C5 
 340      CC3839DA 
 340      B4330097 
 340      3323
 341 04df 63FDBE1D 		.ascii	"c\375\276\035\241\270\205\031i_\2275b\334\301\214\326"
 341      A1B88519 
 341      695F9735 
 341      62DCC18C 
 341      D6
 342 04f0 EECA6781 		.ascii	"\356\312g\201\370!3\272of\377\031\017\263\373G\355m"
 342      F82133BA 
 342      6F66FF19 
 342      0FB3FB47 
 342      ED6D
 343 0502 D901980F 		.ascii	"\331\001\230\017\244\306\233\312\265\015j\274\211\031"
 343      A4C69BCA 
 343      B50D6ABC 
 343      8919
 344 0510 F74FBD1C 		.ascii	"\367O\275\034\321\341\335\314x\325\262\246\016\341Z"
 344      D1E1DDCC 
 344      78D5B2A6 
 344      0EE15A
 345 051f 66D4B4BC 		.ascii	"f\324\264\274<\027\200\3173\343\311\232\262]\010\337"
 345      3C1780CF 
 345      33E3C99A 
 345      B25D08DF 
 346 052f 6346EB96 		.ascii	"cF\353\226~\027\207'\230\361zlSr\000\316\011bs\366F"
 346      7E178727 
 346      98F17A6C 
 346      537200CE 
 346      096273F6 
 347 0544 DF7E1DDE 		.ascii	"\337~\035\336\305\214\212\306\324~a\325s\223\375\240"
 347      C58C8AC6 
 347      D47E61D5 
 347      7393FDA0 
 348 0554 74C3C031 		.ascii	"t\303\3001-n\242\225\263\006\312\362\332\003Q\344\244"
 348      2D6EA295 
 348      B306CAF2 
 348      DA0351E4 
 348      A4
 349 0565 5F5464E4 		.ascii	"_Td\344\314\310b2*n\035\036Ol\252\271\301\363\351z\232"
 349      CCC86232 
 349      2A6E1D1E 
 349      4F6CAAB9 
 349      C1F3E97A 
 350 057a E167D0DF 		.ascii	"\341g\320\3379\334Lq\202\374\202\214\367o\311\250WQ"
 350      39DC4C71 
 350      82FC828C 
 350      F76FC9A8 
 350      5751
ARM GAS  C:\Users\info\AppData\Local\Temp\ccNY7Myh.s 			page 27


 351 058c BABBB14D 		.ascii	"\272\273\261M\307W|N\251\375\276\324n:7\026K\324\341"
 351      C7577C4E 
 351      A9FDBED4 
 351      6E3A3716 
 351      4BD4E1
 352 059f 9CD03CDE 		.ascii	"\234\320<\336\275\006\323)\373P {g:\243\327\310\\\347"
 352      BD06D329 
 352      FB50207B 
 352      673AA3D7 
 352      C85CE7
 353 05b2 5F0CC9E5 		.ascii	"_\014\311\345\335\311\230:\177\251\240\243^Fn\277\350"
 353      DDC9983A 
 353      7FA9A0A3 
 353      5E466EBF 
 353      E8
 354 05c3 D531A240 		.ascii	"\3251\242@=*\243n\226\250\257\024\2502\305mRp\217\224"
 354      3D2AA36E 
 354      96A8AF14 
 354      A832C56D 
 354      52708F94 
 355 05d7 82AB9579 		.ascii	"\202\253\225y\315\221\274\216)x](1\013$\346\013\005"
 355      CD91BC8E 
 355      29785D28 
 355      310B24E6 
 355      0B05
 356 05e9 A6DCE956 		.ascii	"\246\334\351V\211:\252@\225g\253B\322:\340K\355E\223"
 356      893AAA40 
 356      9567AB42 
 356      D23AE04B 
 356      ED4593
 357 05fc 3BAD55E2 		.ascii	";\255U\342>V\212K\236\330\315\022wP\311\3571\031w\\"
 357      3E568A4B 
 357      9ED8CD12 
 357      7750C9EF 
 357      3119775C 
 358 0610 923BA4C4 		.ascii	"\222;\244\304\225\353\255\226\374>U\342\312{\354\231"
 358      95EBAD96 
 358      FC3E55E2 
 358      CA7BEC99 
 359 0620 7CE48C2B 		.ascii	"|\344\214+\217\034\026\037]\260\334c\231z\236\327\020"
 359      8F1C161F 
 359      5DB0DC63 
 359      997A9ED7 
 359      10
 360 0631 964A58AC 		.ascii	"\226JX\254T^_E\362Q\365\\!\251\362\200\352%\221O\224"
 360      545E5F45 
 360      F251F55C 
 360      21A9F280 
 360      EA25914F 
 361 0646 12457B35 		.ascii	"\022E{5[8\246\361p\006Ao@U\033Q\365Z\340C\373h#\027"
 361      5B38A6F1 
 361      7006416F 
 361      40551B51 
 361      F55AE043 
 362 065e 85D2B948 		.ascii	"\205\322\271H\224\012X\003X\013X\007\310\002L\240H\224"
 362      940A5803 
 362      580B5807 
ARM GAS  C:\Users\info\AppData\Local\Temp\ccNY7Myh.s 			page 28


 362      C8024CA0 
 362      4894
 363 0670 02D74D80 		.ascii	"\002\327M\200\257\001\353\001\177\007l\000d\003x@\006"
 363      AF01EB01 
 363      7F076C00 
 363      64037840 
 363      06
 364 0681 200D900C 		.ascii	" \015\220\014\310\344\"e\321\\\337\030\232\317\273S"
 364      C8E42265 
 364      D15CDF18 
 364      9ACFBB53 
 365 0691 315D9B87 		.ascii	"1]\233\207\205&\275Kz\257$\022\326\201\316\215\205\371"
 365      8526BD4B 
 365      7AAF2412 
 365      D681CE8D 
 365      85F9
 366 06a3 D370375D 		.ascii	"\323p7]\007\270g\033Z\336G3\243\224\265\273@\357\277"
 366      07B8671B 
 366      5ADE4733 
 366      A394B5BB 
 366      40EFBF
 367 06b6 523BEBA5 		.ascii	"R;\353\245\374\013?#\275\264\005\032\332\314yw\025\322"
 367      FC0B3F23 
 367      BDB4051A 
 367      DACC7977 
 367      15D2
 368 06c8 69546E75 		.ascii	"iTnu\317\236\247A3\005\201n\277\002U\377\347\352\310"
 368      CF9EA741 
 368      3305816E 
 368      BF0255FF 
 368      E7EAC8
 369 06db 7AEA495D 		.ascii	"z\352I]\253\223o\370\271\262\264\252P\036'n\370\243"
 369      AB936FF8 
 369      B9B2B4AA 
 369      501E276E 
 369      F8A3
 370 06ed E5F76F04 		.ascii	"\345\367o\004\340\341 \2373]\030;\323U7\015\356\026"
 370      E0E1209F 
 370      335D183B 
 370      D355370D 
 370      EE16
 371 06ff CE713C39 		.ascii	"\316q<9g\365\335-<\251\305\023\302\212}\371\340\271"
 371      67F5DD2D 
 371      3CA9C513 
 371      C28A7DF9 
 371      E0B9
 372 0711 69789386 		.ascii	"ix\223\206\030s\257g4'#\244\326\317\204U\330\347\247"
 372      1873AF67 
 372      342723A4 
 372      D6CF8455 
 372      D8E7A7
 373 0724 D7CF5647 		.ascii	"\327\317VG\0117Q\221QQd\337+\342\364\350>dC\246n\273"
 373      09375191 
 373      515164DF 
 373      2BE2F4E8 
 373      3E6443A6 
 374 073a 8FBA22A6 		.ascii	"\217\272\"\246\316\247k\013\271\010T\300A\346\334\220"
ARM GAS  C:\Users\info\AppData\Local\Temp\ccNY7Myh.s 			page 29


 374      CEA76B0B 
 374      B90854C0 
 374      41E6DC90 
 375 074a B962A16B 		.ascii	"\271b\241k\233\341\376(\004^\007\250\005\034\001\324"
 375      9BE1FE28 
 375      045E07A8 
 375      051C01D4 
 376 075a 002A0007 		.ascii	"\000*\000\007\001\007\000\345\200\375\2002\300>\300"
 376      010700E5 
 376      80FD8032 
 376      C03EC0
 377 0769 5E4029A0 		.ascii	"^@)\240\004\260\007\260\033\260\013\260\023\260\303"
 377      04B007B0 
 377      1BB00BB0 
 377      13B0C3
 378 0778 67688E79 		.ascii	"gh\216yd\023m+tp\2614{\216\310\226\003e\235\371\302"
 378      64136D2B 
 378      7470B134 
 378      7B8EC896 
 378      03659DF9 
 379 078d 03FF7A9D 		.ascii	"\003\377z\235/<\3369\016\233\360T\225\362\365\370\271"
 379      2F3CDE39 
 379      0E9BF054 
 379      95F2F5F8 
 379      B9
 380 079e C46D50E2 		.ascii	"\304mP\342\312\027\316\021\211\333\250\304\225\3553"
 380      CA17CE11 
 380      89DBA8C4 
 380      95ED33
 381 07ad 4312B549 		.ascii	"C\022\265I\211*\333<\006$\252\333\227\332<e\331\274"
 381      892ADB3C 
 381      0624AADB 
 381      97DA3C65 
 381      D9BC
 382 07bf 29715B94 		.ascii	")q[\224\270\362-\341\206\304=\256\304\225\257\212\036"
 382      B8F22DE1 
 382      86C43DAE 
 382      C495AF8A 
 382      1E
 383 07d0 897B4289 		.ascii	"\211{B\211+_\346\333%\356I%\256<\273m\022\367;%\256"
 383      2B5FE6DB 
 383      25EE4925 
 383      AE3CBB6D 
 383      12F73B25 
 384 07e5 3CBB975C 		.ascii	"<\273\227\\\262-\341\264\300\366n\011\315\223\323\326"
 384      B22DE1B4 
 384      C0F66E09 
 384      CD93D3D6 
 385 07f5 EC9AC5D6 		.ascii	"\354\232\305\326I8\253\243\313\002\335\273N\266M\221"
 385      4938ABA3 
 385      CB02DDBB 
 385      4EB64D91 
 386 0805 DDE492AD 		.ascii	"\335\344\222\255\253\036e\276\314}\203g\032\243\037"
 386      AB1E65BE 
 386      CC7D8367 
 386      1AA31F
 387 0814 82C9796B 		.ascii	"\202\311yk2]~\264\221\315\332*n\266\3049\014c\274\022"
ARM GAS  C:\Users\info\AppData\Local\Temp\ccNY7Myh.s 			page 30


 387      325D7EB4 
 387      91CDDA2A 
 387      6EB6C439 
 387      0C63BC12 
 388 0828 1E66ABA0 		.ascii	"\036f\253\240\037\226JFq\321i\223\302\317Q\323\204I"
 388      1F964A46 
 388      71D16993 
 388      C2CF51D3 
 388      8449
 389 083a 147800FE 		.ascii	"\024x\000\376Vs\344\323\224\270^T\303\334b\213n\321"
 389      5673E4D3 
 389      94B85E54 
 389      C3DC628B 
 389      6ED1
 390 084c 855964D1 		.ascii	"\205Yd\321%:oKG\371J\272d\260X\352\344\261\364(\307"
 390      253A6F4B 
 390      47F94ABA 
 390      64B058EA 
 390      E4B1F428 
 391 0861 220BBDC6 		.ascii	"\"\013\275\306\243\347\263\214\224|g2Ya\327\227\330"
 391      A3E7B38C 
 391      947C6732 
 391      5961D797 
 391      D8
 392 0872 7795D932 		.ascii	"w\225\3312\327U\256p\246\244\036\350\367&\323\177\241"
 392      D755AE70 
 392      A6A41EE8 
 392      F726D37F 
 392      A1
 393 0883 98D44679 		.ascii	"\230\324FyR\233 \251\015JIm\364Ij\203RR[}\222\332H\223"
 393      529B20A9 
 393      0D4A496D 
 393      F4496A83 
 393      52525B7D 
 394 089b FA0D4D2A 		.ascii	"\372\015M*K\344\241\314\267H\"\211\264>)\221\015\262"
 394      4BE4A1CC 
 394      B7482289 
 394      B43E2991 
 394      0DB2
 395 08ad 441E72BD 		.ascii	"D\036r\275\303\344\303v\201\036(\312_(\235Y\266\271"
 395      C3E4C376 
 395      811E28CA 
 395      5F289D59 
 395      B6B9
 396 08bf E899A5D8 		.ascii	"\350\231\245\330\367\314\302\352r3\177L\352\3102\277"
 396      F7CCC2EA 
 396      72337F4C 
 396      EAC832BF 
 397 08cf 4DDA298B 		.ascii	"M\332)\213\305\235r\244oW\247\376\335\355\374\366\012"
 397      C59D72A4 
 397      6F57A7FE 
 397      DDEDFCF6 
 397      0A
 398 08e0 FED6B3E2 		.ascii	"\376\326\263\342\025\245\225wx>LMGN\251$\015n\311\245"
 398      15A59577 
 398      783E4C4D 
 398      474EA924 
ARM GAS  C:\Users\info\AppData\Local\Temp\ccNY7Myh.s 			page 31


 398      0D6EC9A5 
 399 08f4 04DEDB60 		.ascii	"\004\336\333`\352s\357\222\015\313\325\253\303ut\017"
 399      EA73EF92 
 399      0DCBD5AB 
 399      C375740F 
 400 0904 42297B6E 		.ascii	"B){n\265\006\340\013\314p5\273\267N\203\267,t\214\303"
 400      B506E00B 
 400      CC7035BB 
 400      B74E83B7 
 400      2C748CC3 
 401 0918 AC8DDAD1 		.ascii	"\254\215\332\321K[\330{\027\031O\354\275\253/\363`'"
 401      4B5BD87B 
 401      17194FEC 
 401      BDAB2FF3 
 401      6027
 402 092a 9EED7720 		.ascii	"\236\355w \236\2449;As\006\354\211\332\227#D\345-x\243"
 402      9EA4393B 
 402      417306EC 
 402      89DA9723 
 402      44E52D78 
 403 093f AC1EFF43 		.ascii	"\254\036\377C\341\316twV2?\235\362P\213\030\026:\316"
 403      E1CE7477 
 403      56323F9D 
 403      F2508B18 
 403      163ACE
 404 0952 A989C5BE 		.ascii	"\251\211\305\276\217}Gen\3321|\223\303W\374I\233(\030"
 404      8F7D4765 
 404      6EDA317C 
 404      93C357FC 
 404      499B2818 
 405 0966 CC0B926F 		.ascii	"\314\013\222o\326\2762\316x7\353;c\245\307\247\321\030"
 405      D6BE32CE 
 405      7837EB3B 
 405      63A5C7A7 
 405      D118
 406 0978 CE786328 		.ascii	"\316xc(\337^\2753\324\373>y\226c_\324\356U\266\007{"
 406      DF5EBD33 
 406      D4FB3E79 
 406      96635FD4 
 406      EE55B607 
 407 098d 833DC70A 		.ascii	"\203=\307\012\237_9\320\030\352?\332\0134\332\363b\264"
 407      9F5F39D0 
 407      18EA3FDA 
 407      0B34DAF3 
 407      62B4
 408 099f 55E3B73B 		.ascii	"U\343\267;1\213\326=\020\233\317\267\244\362\037\020"
 408      318BD63D 
 408      109BCFB7 
 408      A4F21F10 
 409 09af 0E3AE58D 		.ascii	"\016:\345\215\3644DzJ\214\364\"\2154'\273?'\030?\360"
 409      F434447A 
 409      4A8CF422 
 409      8D3427BB 
 409      3F27183F 
 410 09c4 17A9D2CB 		.ascii	"\027\251\322\313\357\330\225\332>\316\253\265\215i-"
 410      EFD895DA 
 410      3ECEABB5 
ARM GAS  C:\Users\info\AppData\Local\Temp\ccNY7Myh.s 			page 32


 410      8D692D
 411 09d3 493993E0 		.ascii	"I9\223\340_j;\225zY\224Z\236\321s@'H\275&J\005\016j"
 411      5F6A3B95 
 411      7A59945A 
 411      9ED17340 
 411      2748BD26 
 412 09eb F54ABD04 		.ascii	"\365J\275\004R[E\251\035Tjfr\355\0115~\345O\252'\257"
 412      525B45A9 
 412      1D546A66 
 412      72ED0935 
 412      7EE54FAA 
 413 0a01 A35B2338 		.ascii	"\243[#8\035\022\235\222\236\366x\235^\001\247\036\321"
 413      1D129D92 
 413      9EF6789D 
 413      5E01A71E 
 413      D1
 414 0a12 E955EAF4 		.ascii	"\351U\352\364\320\231\306\373\3018;\330\217\323\354"
 414      D099C6FB 
 414      C1383BD8 
 414      8FD3EC
 415 0a21 9EE1BE10 		.ascii	"\236\341\276\020\301\351\015\271\322N\257\323k\340\264"
 415      C1E90DB9 
 415      D24EAFD3 
 415      6BE0B4
 416 0a30 53747A9D 		.ascii	"Stz\235:-Mu\017\005\343b\346\364yF\352=\226B\262\023"
 416      3A2D4D75 
 416      0F05E362 
 416      E6F47946 
 416      EA3D9642 
 417 0a46 B014760E 		.ascii	"\260\024v\016\237{\"uw\027K\341\203--M\032y\016?{K\226"
 417      9F7B2275 
 417      77174BE1 
 417      832D2D4D 
 417      1A790E3F 
 418 0a5d C26E9AC2 		.ascii	"\302n\232\302\233b\012\323G;\332\304h\007\357G\2032"
 418      9B620AD3 
 418      473BDAC4 
 418      6807EF47 
 418      8332
 419 0a6f 35A1A01B 		.ascii	"5\241\240\033\322l\275!\212\272EE\225\245\227g\004\340"
 419      D26CBD21 
 419      8ABA4545 
 419      95A59767 
 419      04E0
 420 0a81 5A264A69 		.ascii	"Z&Jir\365{\212\237\006\372m\277\227\266\337\343m?\263"
 420      72F57B8A 
 420      9F06FA6D 
 420      BF97B6DF 
 420      E36D3FB3 
 421 0a95 AE50ECC2 		.ascii	"\256P\354\302\202\353zw\026\"\014t[j\376\266\330\374"
 421      82EB7A77 
 421      16220C74 
 421      5B6AFEB6 
 421      D8FC
 422 0aa7 1DDAFCCD 		.ascii	"\035\332\374\315\342\356\215\201\3702k\276\253\264\252"
 422      E2EE8D81 
 422      F8326BBE 
ARM GAS  C:\Users\info\AppData\Local\Temp\ccNY7Myh.s 			page 33


 422      ABB4AA
 423 0ab6 807D53CE 		.ascii	"\200}S\316\3636_\363\244\303\243\365J\272\307rr;\345"
 423      F3365FF3 
 423      A4C3A3F5 
 423      4ABAC772 
 423      723BE5
 424 0ac9 6AB27F4D 		.ascii	"j\262\177M}T\323}Q\223\373\360\271\341 AS\036\323\004"
 424      7D54D37D 
 424      5193FBF0 
 424      B9E12041 
 424      531ED304 
 425 0add 0C7457D2 		.ascii	"\014tW\322tW\324\364\200j:^S\033\212\2373I\207\037\036"
 425      7457D4F4 
 425      806A3A5E 
 425      531B8A9F 
 425      3349871F 
 426 0af2 DA19F093 		.ascii	"\332\031\360\223\235|\353v\262\244\375w\376\3464X\322"
 426      9D7CEB76 
 426      B2A4FD77 
 426      FEE63458 
 426      D2
 427 0b03 E829FC21 		.ascii	"\350)\374!{\336\373.\240\242%\237\3000y\304\375\004"
 427      7BDEFB2E 
 427      A0A2259F 
 427      C03079C4 
 427      FD04
 428 0b15 9E5CCFF7 		.ascii	"\236\\\317\367\265hp>\373\300\366\252\256\253X\315N"
 428      B568703E 
 428      FBC0F6AA 
 428      AEAB58CD 
 428      4E
 429 0b26 E43F05B3 		.ascii	"\344?\005\263(\253>5\204\235\310O\221\357\242%o\306"
 429      28AB3E35 
 429      849DC84F 
 429      91EFA225 
 429      6FC6
 430 0b38 EA03C977 		.ascii	"\352\003\311w@^X9\302\344\323\344)\247U\221u\232\036"
 430      405E5839 
 430      C2E4D3E4 
 430      29A75591 
 430      759A1E
 431 0b4b C280BDF5 		.ascii	"\302\200\275\365Y\177\367\264\260,\341\270\372\001b"
 431      597FF7B4 
 431      B02CE1B8 
 431      FA0162
 432 0b5a AF857060 		.ascii	"\257\205p`\355\347\010}\200\013\023\037\242\237YO\277"
 432      EDE7087D 
 432      800B131F 
 432      A29F594F 
 432      BF
 433 0b6b 28C37276 		.ascii	"(\303rv\373?b\267?i\316\010b\361\272\267\254};\231w"
 433      FB3F62B7 
 433      3F69CE08 
 433      62F1BAB7 
 433      AC7D3B99 
 434 0b80 ABD12017 		.ascii	"\253\321 \027\206\036\013\321J\017>\026\242\035\242"
 434      861E0BD1 
ARM GAS  C:\Users\info\AppData\Local\Temp\ccNY7Myh.s 			page 34


 434      4A0F3E16 
 434      A21DA2
 435 0b8f D1167C37 		.ascii	"\321\026|7\352\012\305\365,\332\221\214\264Q\341\353"
 435      EA0AC5F5 
 435      2CDA918C 
 435      B451E1EB 
 436 0b9f 77105DEE 		.ascii	"w\020]\356\312\353\205\317\317\201\344K`\333\313\342"
 436      CAEB85CF 
 436      CF81E44B 
 436      60DBCBE2 
 437 0baf 20BFC13E 		.ascii	" \277\301>\027\203}\306\321`\313\216t\017\350&\007\013"
 437      17837DC6 
 437      D160CB8E 
 437      740FE826 
 437      070B
 438 0bc1 874B3442 		.ascii	"\207K4BU\214R\371\317E\371\343;\253\036\007N\016\326"
 438      558C52F9 
 438      CF45F9E3 
 438      3BAB1E07 
 438      4E0ED6
 439 0bd4 2FFB4565 		.ascii	"/\373Ee]Q\260\020le\000\037\214^@\244\303B\244\322S"
 439      5D51B010 
 439      6C65001F 
 439      8C5E40A4 
 439      C342A4D2 
 440 0be9 C342A42F 		.ascii	"\303B\244/i\244;\332\306S\002\361m\026i\311\325\332"
 440      69A43BDA 
 440      C65302F1 
 440      6D1669C9 
 440      D5DA
 441 0bfb 012C7868 		.ascii	"\001,xh\023=\274\232\342\341\225\340a\214z\250\370\256"
 441      133DBC9A 
 441      E2E195E0 
 441      618C7AA8 
 441      F8AE
 442 0c0d 7AAD0EAF 		.ascii	"z\255\016\257\323Q\017/v\234\371Jp0$:x=\305\301k\301"
 442      D3510F2F 
 442      769CF94A 
 442      7030243A 
 442      783DC5C1 
 443 0c23 C11BEA60 		.ascii	"\301\033\352`\242\325]\240\301\373\230\203\261\256\232"
 443      A2D55DA0 
 443      C1FB9883 
 443      B1AE9A
 444 0c32 5A9DE021 		.ascii	"Z\235\340!\347#\036F7q1>\305\305\270\340b\202\2728\237"
 444      E7231E46 
 444      3771313E 
 444      C5C5B8E0 
 444      6282BA38 
 445 0c47 F964BA7C 		.ascii	"\371d\272|\253\352\3639\210\360\230nU\344Jv\344\306"
 445      ABEAF339 
 445      88F0986E 
 445      55E44A76 
 445      E4C6
 446 0c59 BABB6A39 		.ascii	"\272\273j9\271\327\207\234,\220\223)9\273d<K#'w\373"
 446      B9D7879C 
 446      2C909329 
ARM GAS  C:\Users\info\AppData\Local\Temp\ccNY7Myh.s 			page 35


 446      39BB643C 
 446      4B232777 
 447 0c6e 90D708E4 		.ascii	"\220\327\010\3445\224\354\316,\210\224s\311H\223\270"
 447      3594ECCE 
 447      2C889473 
 447      C94893B8 
 448 0c7e 29023785 		.ascii	")\0027\205r\207\006\257n\320\313\311/|\310\251\0029"
 448      728706AF 
 448      6ED0CBC9 
 448      2F7CC8A9 
 448      0239
 449 0c90 95920FED 		.ascii	"\225\222\017\3558Y\022\"'\237\364Q\221&\220\323(\271"
 449      38591222 
 449      279FF451 
 449      912690D3 
 449      28B9
 450 0ca2 FFE1C301 		.ascii	"\377\341\303\001\316\347\253\272\0179] \247SrZ\306\304"
 450      CEE7ABBA 
 450      0F395D20 
 450      A753725A 
 450      C6C4
 451 0cb4 FD69F81C 		.ascii	"\375i\370\034\313\375\221\202q\267\032\2671#\3355\321"
 451      CBFD9182 
 451      71B71AB7 
 451      3123DD35 
 451      D1
 452 0cc5 A3C51E66 		.ascii	"\243\305\036f\214<\351,\015\304\335\002\355I\331\021"
 452      8C3CE92C 
 452      0DC4DD02 
 452      ED49D911 
 453 0cd5 61BABB89 		.ascii	"a\272\273\211\235\263?#\005\341\001Z\031\370\242\264"
 453      9DB33F23 
 453      05E1015A 
 453      19F8A2B4 
 454 0ce5 6A9D16D1 		.ascii	"j\235\026\321\027\356(\361\313\347\007\015\262/\237"
 454      17EE28F1 
 454      CBE7070D 
 454      B22F9F
 455 0cf4 6B314699 		.ascii	"k1F\231X\351\333\020{cu\2637\326\3658\202\236\\Q\206"
 455      58E9DB10 
 455      7B6375B3 
 455      37D6F538 
 455      829E5C51 
 456 0d09 C027DD9F 		.ascii	"\300'\335\237\203\243P6\216D\033\001\033\000YX\376\306"
 456      83A35036 
 456      8E441B01 
 456      1B005958 
 456      FEC6
 457 0d1b 79F382F7 		.ascii	"y\363\202\367=g\235B#\362\363\362\220D\375Z\201*\177"
 457      3D679D42 
 457      23F2F3F2 
 457      9044FD5A 
 457      812A7F
 458 0d2e 83EBCA14 		.ascii	"\203\353\312\024^Y\310\341\346\357\002\331\357q\263"
 458      5E59C8E1 
 458      E6EF02D9 
 458      EF71B3
ARM GAS  C:\Users\info\AppData\Local\Temp\ccNY7Myh.s 			page 36


 459 0d3d 937D2203 		.ascii	"\223}\"\003\216\374\270I\226\211\214\241\327\260\014"
 459      8EFCB849 
 459      96898CA1 
 459      D7B00C
 460 0d4c D32471CD 		.ascii	"\323$q\315\245\015\245!(j&{\246\360B$\375`\003~7a\357"
 460      A50DA521 
 460      286A267B 
 460      A6F04224 
 460      FD60037E 
 461 0d63 2A4E5C4C 		.ascii	"*N\\Lz\213\367\346d3\344\341\373rB\272\320\263c\226"
 461      7A8BF7E6 
 461      6433E4E1 
 461      FB7242BA 
 461      D0B36396 
 462 0d77 7C206CC1 		.ascii	"| l\301\362\357\031.a \270\350@\310\355\277;\3403\036"
 462      F2EF192E 
 462      6120B8E8 
 462      40C8EDBF 
 462      3BE0331E 
 463 0d8b 2FF88C9A 		.ascii	"/\370\214\232\\\201\234K\311\265\367=#!sw0m\0310\013"
 463      5C819C4B 
 463      C9B5F73D 
 463      23217377 
 463      306D1930 
 464 0da0 3F7B8B9E 		.ascii	"?{\213\236}\331\266\223\207\347\222\377{\261\267b\033"
 464      7DD9B693 
 464      87E792FF 
 464      7BB1B762 
 464      1B
 465 0db1 C738B0D5 		.ascii	"\3078\260\325\030\367f\000\321\227\227Oy\275\337n\352"
 465      18F76600 
 465      D197974F 
 465      79BDDF6E 
 465      EA
 466 0dc2 08663CF7 		.ascii	"\010f<\367Q\355dN\001\345\344n\371\366h\250\300\361"
 466      51ED644E 
 466      01E5E46E 
 466      F9F668A8 
 466      C0F1
 467 0dd4 4CE11452 		.ascii	"L\341\024R\316\035O\357\001\275\300\031\232\302\331"
 467      CE1D4FEF 
 467      01BDC019 
 467      9AC2D9
 468 0de3 4A39671E 		.ascii	"J9g\036\270\376$P\266\352&S\266QJ\307\335\272\011\255"
 468      B8FE2450 
 468      B6EA2653 
 468      B6514AC7 
 468      DDBA09AD 
 469 0df7 C0A99FC2 		.ascii	"\300\251\237\302\371\006\317U\275\235\264d\325\022\203"
 469      F906CF55 
 469      BD9DB464 
 469      D51283
 470 0e06 D9607538 		.ascii	"\331`u8\027G/\2126X\354\246\205\377\276\350\375\367"
 470      17472F8A 
 470      3658ECA6 
 470      85FFBEE8 
 470      FDF7
ARM GAS  C:\Users\info\AppData\Local\Temp\ccNY7Myh.s 			page 37


 471 0e18 341FFFEE 		.ascii	"4\037\377\356\3239\277^\270P\025l0$Ym\316%\006g22\375"
 471      D339BF5E 
 471      B850156C 
 471      3024596D 
 471      CE250667 
 472 0e2f 2A26D19E 		.ascii	"*&\321\236\260\314n\214\237\023k\215\2638\346D\255Z"
 472      B0CC6E8C 
 472      9F136B8D 
 472      B338E644 
 472      AD5A
 473 0e41 F2FE4F63 		.ascii	"\362\376OcL\253\023\355\026\207#&\321\221`\232c\262"
 473      4CAB13ED 
 473      16872326 
 473      D191609A 
 473      63B2
 474 0e53 5B8CCE04 		.ascii	"[\214\316\004{\314{\013\026\371\026X\343\023\023\354"
 474      7BCC7B0B 
 474      16F91658 
 474      E31313EC 
 475 0e63 CE9865B6 		.ascii	"\316\230e\266\244\030\243=>\346\227\013\336[\260\220"
 475      A418A33D 
 475      3EE6970B 
 475      DE5BB090 
 476 0e73 DCFDDC96 		.ascii	"\334\375\334\226`\263\374\334b\\j\215\261\332LqIfKL"
 476      60B3FCDC 
 476      625C6A8D 
 476      B1DA4C71 
 476      49664B4C 
 477 0e87 BCD1B4DC 		.ascii	"\274\321\264\334j\263\304\030\314\226XcR\234\323\340"
 477      6AB3C418 
 477      CC965863 
 477      529CD3E0 
 478 0e97 5C9D6871 		.ascii	"\\\235hq,X\256\012\022\244\254\374\377R\342X\355\210"
 478      2C58AE0A 
 478      12A4ACFC 
 478      FF52E258 
 478      ED88
 479 0ea9 31389C66 		.ascii	"18\234fh\026\232\0175[\226&$\331L\026(2:-o{\3158\243"
 479      68169A0F 
 479      355B9626 
 479      24D94C16 
 479      28323A2D 
 480 0ec2 C36948B4 		.ascii	"\303iH\264\332X\371\217\274\345\242~o\225nY\2425\301"
 480      DA58F98F 
 480      BCE5A27E 
 480      6F956E59 
 480      A235C1
 481 0ed5 001AA154 		.ascii	"\000\032\241T\233\344\214]\302\212\301\361J+\360\215"
 481      9BE48C5D 
 481      C28AC1F1 
 481      4A2BF08D 
 482 0ee5 6633D1AF 		.ascii	"f3\321\257\263.2\221\012\273\323b\246\367By\270\325"
 482      B32E3291 
 482      0ABBD362 
 482      A6F74279 
 482      B8D5
 483 0ef7 61884DB0 		.ascii	"a\210M\2609\015V\333J\213\335a1\304'\230-\232U\206\204"
ARM GAS  C:\Users\info\AppData\Local\Temp\ccNY7Myh.s 			page 38


 483      390D56DB 
 483      4A8BDD61 
 483      31C42798 
 483      2D9A5586 
 484 0f0c D85887C5 		.ascii	"\330X\207\305\251\261\330L\011\240t\231\226u\331\302"
 484      A9B1D84C 
 484      09A07499 
 484      9675D9C2 
 485 0f1c F70D4E8D 		.ascii	"\367\015N\215x\243&\317\005/Mr\030Lq\011\246/\004\312"
 485      78A326CF 
 485      052F4D72 
 485      184C7109 
 485      A62F04CA 
 486 0f30 E2450285 		.ascii	"\342E\002\205\334\314\240\332\21463\310\2163\2566\230"
 486      DCCCA0DA 
 486      8C3633C8 
 486      8E33AE36 
 486      98
 487 0f41 96EAE8E0 		.ascii	"\226\352\350\340\210w,\203\373\240\245\253\235\026\270"
 487      88772C83 
 487      FBA0A5AB 
 487      9D16B8
 488 0f50 069A8C66 		.ascii	"\006\232\214f\270h\315VG\"c\005\331,\253\234p\325S\266"
 488      B868CD56 
 488      47226305 
 488      D92CAB9C 
 488      70D553B6 
 489 0f64 69B9D14E 		.ascii	"i\271\321N\014\261\336j\213M\320%ZWY\342\014_Z\315\316"
 489      0CB1DE6A 
 489      8B4DD025 
 489      5A5759E2 
 489      0C5F5ACD 
 490 0f79 E53362E3 		.ascii	"\3453b\343\254\211D\267A\324=]\314\222X\240sB\227\032"
 490      AC8944B7 
 490      41D43D5D 
 490      CC9258A0 
 490      7342971A 
 491 0f8d 965BACCB 		.ascii	"\226[\254\313\226;\265\364\236>\031\376\245\335\012"
 491      963BB5F4 
 491      9E3E19FE 
 491      A5DD0A
 492 0f9c 121293E2 		.ascii	"\022\022\223\342"
 493 0fa0 1C4289C1 		.ascii	"\034B\211\301\346\0103\033\235F\003<\224\224hpZ\343"
 493      E608331B 
 493      9D46033C 
 493      94946870 
 493      5AE3
 494 0fb2 2D50144E 		.ascii	"-P\024N2\346\215\324\2600:\372\213\337|\245q$Zi\272"
 494      32E68DD4 
 494      B0303AFA 
 494      8BDF7CA5 
 494      71245A69 
 495 0fc7 F40E2863 		.ascii	"\364\016(c5\313\277\012#\206\257\303\031\016\363$\177"
 495      35CBBF0A 
 495      2386AFC3 
 495      190EF324 
 495      7F
ARM GAS  C:\Users\info\AppData\Local\Temp\ccNY7Myh.s 			page 39


 496 0fd8 618909D0 		.ascii	"a\211\011\320\273\220\177\213\323\360\245\321\352\204"
 496      BB907F8B 
 496      D3F0A5D1 
 496      EA84
 497 0fe6 8484334B 		.ascii	"\204\2043K\376d\274c6\214=\010\337\232h\200\330\215"
 497      FE64BC63 
 497      368C3D08 
 497      DF9A6880 
 497      D88D
 498 0ff8 4B896CC2 		.ascii	"K\211l\302\266A\005q"
 498      B6410571 
 499 1000 406B2C36 		.ascii	"@k,6yE\230\017;\316\262\322\0227CN\243%\263\331\014"
 499      7945980F 
 499      3BCEB2D2 
 499      1237434E 
 499      A325B3D9 
 500 1015 95A51386 		.ascii	"\225\245\023\206\206=\311\344\324\263\254\262<\205/"
 500      863DC9E4 
 500      D4B3ACB2 
 500      3C852F
 501 1024 581093B4 		.ascii	"X\020\223\264d\331\"\203\311a7\305\220G`\274\316\234"
 501      64D92283 
 501      C96137C5 
 501      904760BC 
 501      CE9C
 502 1036 FAA893F5 		.ascii	"\372\250\223\365)\3630\323;P\331\210$]\035H\353\235"
 502      29F330D3 
 502      3B50D988 
 502      245D1D48 
 502      EB9D
 503 1048 3F9EE24F 		.ascii	"?\236\342OZ$\026\230T\341\254\257a(\374\227\315\374"
 503      5A241698 
 503      54E1ACAF 
 503      6128FC97 
 503      CDFC
 504 105a 89DD6873 		.ascii	"\211\335hs\304Z\354\032[\202\325\026\007\023w\206\267"
 504      C45AEC1A 
 504      5B82D516 
 504      07137786 
 504      B7
 505 106b F68F169B 		.ascii	"\366\217\026\233\371?\241\207\246\373\224\374:\336\374"
 505      F93FA187 
 505      A6FB94FC 
 505      3ADEFC
 506 107a 965440C6 		.ascii	"\226T@\306\271\350\302\227\367\241}\331,\237\202?ZV"
 506      B9E8C297 
 506      F7A17DD9 
 506      2C9F823F 
 506      5A56
 507 108c 24C128B7 		.ascii	"$\301(\267\374H\020\264\334\022\227h\261\313\"\264:"
 507      FC4810B4 
 507      DC129768 
 507      B1CB22B4 
 507      3A
 508 109d DF55AE62 		.ascii	"\337U\256b=\032o\211O\260\257f\224\311+\236O\236\346"
 508      3D1A6F89 
 508      4FB0AF66 
ARM GAS  C:\Users\info\AppData\Local\Temp\ccNY7Myh.s 			page 40


 508      94C92B9E 
 508      4F9EE6
 509 10b0 F8591669 		.ascii	"\370Y\026i\023\340l\305<\177\204\304\204/aj\032WZ\242"
 509      13E06CC5 
 509      3C7F84C4 
 509      842F616A 
 509      1A575AA2 
 510 10c4 FF39DA42 		.ascii	"\3779\332BB\3737\17742Y\242\277\227A}\004\254\002\247"
 510      42FB377F 
 510      343259A2 
 510      BF97417D 
 510      04AC02A7 
 511 10d8 0E6CB239 		.ascii	"\016l\26295t\316$:\205lR\213ux\300j\302\321I\305\316"
 511      3574CE24 
 511      3A856C52 
 511      8B7578C0 
 511      6AC2D149 
 512 10ee FF05A1C6 		.ascii	"\377\005\241\306\037\266"
 512      1FB6
 513              		.text
 514              		.section	.gnu.lto_.symtab.792a44c2,"",%progbits
 515 0000 75387838 		.ascii	"u8x8_d_ist3020_erc19264\000"
 515      5F645F69 
 515      73743330 
 515      32305F65 
 515      72633139 
 516 0018 00       		.ascii	"\000"
 517 0019 00       		.ascii	"\000"
 518 001a 00       		.ascii	"\000"
 519 001b 00000000 		.ascii	"\000\000\000\000\000\000\000\000"
 519      00000000 
 520 0023 41010000 		.ascii	"A\001\000\000"
 521 0027 75387838 		.ascii	"u8x8_cad_EndTransfer\000"
 521      5F636164 
 521      5F456E64 
 521      5472616E 
 521      73666572 
 522 003c 00       		.ascii	"\000"
 523 003d 02       		.ascii	"\002"
 524 003e 00       		.ascii	"\000"
 525 003f 00000000 		.ascii	"\000\000\000\000\000\000\000\000"
 525      00000000 
 526 0047 47010000 		.ascii	"G\001\000\000"
 527 004b 75387838 		.ascii	"u8x8_cad_SendData\000"
 527      5F636164 
 527      5F53656E 
 527      64446174 
 527      6100
 528 005d 00       		.ascii	"\000"
 529 005e 02       		.ascii	"\002"
 530 005f 00       		.ascii	"\000"
 531 0060 00000000 		.ascii	"\000\000\000\000\000\000\000\000"
 531      00000000 
 532 0068 4F010000 		.ascii	"O\001\000\000"
 533 006c 75387838 		.ascii	"u8x8_cad_SendCmd\000"
 533      5F636164 
 533      5F53656E 
ARM GAS  C:\Users\info\AppData\Local\Temp\ccNY7Myh.s 			page 41


 533      64436D64 
 533      00
 534 007d 00       		.ascii	"\000"
 535 007e 02       		.ascii	"\002"
 536 007f 00       		.ascii	"\000"
 537 0080 00000000 		.ascii	"\000\000\000\000\000\000\000\000"
 537      00000000 
 538 0088 55010000 		.ascii	"U\001\000\000"
 539 008c 75387838 		.ascii	"u8x8_cad_StartTransfer\000"
 539      5F636164 
 539      5F537461 
 539      72745472 
 539      616E7366 
 540 00a3 00       		.ascii	"\000"
 541 00a4 02       		.ascii	"\002"
 542 00a5 00       		.ascii	"\000"
 543 00a6 00000000 		.ascii	"\000\000\000\000\000\000\000\000"
 543      00000000 
 544 00ae 58010000 		.ascii	"X\001\000\000"
 545 00b2 75387838 		.ascii	"u8x8_cad_SendArg\000"
 545      5F636164 
 545      5F53656E 
 545      64417267 
 545      00
 546 00c3 00       		.ascii	"\000"
 547 00c4 02       		.ascii	"\002"
 548 00c5 00       		.ascii	"\000"
 549 00c6 00000000 		.ascii	"\000\000\000\000\000\000\000\000"
 549      00000000 
 550 00ce 5B010000 		.ascii	"[\001\000\000"
 551 00d2 75387838 		.ascii	"u8x8_cad_SendSequence\000"
 551      5F636164 
 551      5F53656E 
 551      64536571 
 551      75656E63 
 552 00e8 00       		.ascii	"\000"
 553 00e9 02       		.ascii	"\002"
 554 00ea 00       		.ascii	"\000"
 555 00eb 00000000 		.ascii	"\000\000\000\000\000\000\000\000"
 555      00000000 
 556 00f3 60010000 		.ascii	"`\001\000\000"
 557 00f7 75387838 		.ascii	"u8x8_d_helper_display_init\000"
 557      5F645F68 
 557      656C7065 
 557      725F6469 
 557      73706C61 
 558 0112 00       		.ascii	"\000"
 559 0113 02       		.ascii	"\002"
 560 0114 00       		.ascii	"\000"
 561 0115 00000000 		.ascii	"\000\000\000\000\000\000\000\000"
 561      00000000 
 562 011d 64010000 		.ascii	"d\001\000\000"
 563 0121 75387838 		.ascii	"u8x8_d_helper_display_setup_memory\000"
 563      5F645F68 
 563      656C7065 
 563      725F6469 
 563      73706C61 
ARM GAS  C:\Users\info\AppData\Local\Temp\ccNY7Myh.s 			page 42


 564 0144 00       		.ascii	"\000"
 565 0145 02       		.ascii	"\002"
 566 0146 00       		.ascii	"\000"
 567 0147 00000000 		.ascii	"\000\000\000\000\000\000\000\000"
 567      00000000 
 568 014f 69010000 		.ascii	"i\001\000\000"
 569              		.text
 570              		.section	.gnu.lto_.opts,"",%progbits
 571 0000 272D666D 		.ascii	"'-fmath-errno' '-fsigned-zeros' '-ftrapping-math' '"
 571      6174682D 
 571      6572726E 
 571      6F272027 
 571      2D667369 
 572 0033 2D666E6F 		.ascii	"-fno-trapv' '-fno-strict-overflow' '-fno-openmp' '-"
 572      2D747261 
 572      70762720 
 572      272D666E 
 572      6F2D7374 
 573 0066 666E6F2D 		.ascii	"fno-openacc' '-mcpu=cortex-m3' '-mthumb' '-g' '-Og'"
 573      6F70656E 
 573      61636327 
 573      20272D6D 
 573      6370753D 
 574 0099 20272D66 		.ascii	" '-ffunction-sections' '-ffat-lto-objects' '-flto'\000"
 574      66756E63 
 574      74696F6E 
 574      2D736563 
 574      74696F6E 
 575              		.text
 576              		.cfi_sections	.debug_frame
 577              		.section	.text.u8x8_d_ist3020_erc19264,"ax",%progbits
 578              		.align	2
 579              		.global	u8x8_d_ist3020_erc19264
 580              		.thumb
 581              		.thumb_func
 582              		.type	u8x8_d_ist3020_erc19264, %function
 583              	u8x8_d_ist3020_erc19264:
 584              	.LFB0:
 585              		.file 1 "..\\u8g2_csrc\\u8x8_d_ist3020.c"
   1:..\u8g2_csrc/u8x8_d_ist3020.c **** /*
   2:..\u8g2_csrc/u8x8_d_ist3020.c **** 
   3:..\u8g2_csrc/u8x8_d_ist3020.c ****   u8x8_d_ist3020.c
   4:..\u8g2_csrc/u8x8_d_ist3020.c ****   
   5:..\u8g2_csrc/u8x8_d_ist3020.c ****   Universal 8bit Graphics Library (https://github.com/olikraus/u8g2/)
   6:..\u8g2_csrc/u8x8_d_ist3020.c **** 
   7:..\u8g2_csrc/u8x8_d_ist3020.c ****   Copyright (c) 2017, olikraus@gmail.com
   8:..\u8g2_csrc/u8x8_d_ist3020.c ****   All rights reserved.
   9:..\u8g2_csrc/u8x8_d_ist3020.c **** 
  10:..\u8g2_csrc/u8x8_d_ist3020.c ****   Redistribution and use in source and binary forms, with or without modification, 
  11:..\u8g2_csrc/u8x8_d_ist3020.c ****   are permitted provided that the following conditions are met:
  12:..\u8g2_csrc/u8x8_d_ist3020.c **** 
  13:..\u8g2_csrc/u8x8_d_ist3020.c ****   * Redistributions of source code must retain the above copyright notice, this list 
  14:..\u8g2_csrc/u8x8_d_ist3020.c ****     of conditions and the following disclaimer.
  15:..\u8g2_csrc/u8x8_d_ist3020.c ****     
  16:..\u8g2_csrc/u8x8_d_ist3020.c ****   * Redistributions in binary form must reproduce the above copyright notice, this 
  17:..\u8g2_csrc/u8x8_d_ist3020.c ****     list of conditions and the following disclaimer in the documentation and/or other 
  18:..\u8g2_csrc/u8x8_d_ist3020.c ****     materials provided with the distribution.
ARM GAS  C:\Users\info\AppData\Local\Temp\ccNY7Myh.s 			page 43


  19:..\u8g2_csrc/u8x8_d_ist3020.c **** 
  20:..\u8g2_csrc/u8x8_d_ist3020.c ****   THIS SOFTWARE IS PROVIDED BY THE COPYRIGHT HOLDERS AND 
  21:..\u8g2_csrc/u8x8_d_ist3020.c ****   CONTRIBUTORS "AS IS" AND ANY EXPRESS OR IMPLIED WARRANTIES, 
  22:..\u8g2_csrc/u8x8_d_ist3020.c ****   INCLUDING, BUT NOT LIMITED TO, THE IMPLIED WARRANTIES OF 
  23:..\u8g2_csrc/u8x8_d_ist3020.c ****   MERCHANTABILITY AND FITNESS FOR A PARTICULAR PURPOSE ARE 
  24:..\u8g2_csrc/u8x8_d_ist3020.c ****   DISCLAIMED. IN NO EVENT SHALL THE COPYRIGHT HOLDER OR 
  25:..\u8g2_csrc/u8x8_d_ist3020.c ****   CONTRIBUTORS BE LIABLE FOR ANY DIRECT, INDIRECT, INCIDENTAL, 
  26:..\u8g2_csrc/u8x8_d_ist3020.c ****   SPECIAL, EXEMPLARY, OR CONSEQUENTIAL DAMAGES (INCLUDING, BUT 
  27:..\u8g2_csrc/u8x8_d_ist3020.c ****   NOT LIMITED TO, PROCUREMENT OF SUBSTITUTE GOODS OR SERVICES; 
  28:..\u8g2_csrc/u8x8_d_ist3020.c ****   LOSS OF USE, DATA, OR PROFITS; OR BUSINESS INTERRUPTION) HOWEVER 
  29:..\u8g2_csrc/u8x8_d_ist3020.c ****   CAUSED AND ON ANY THEORY OF LIABILITY, WHETHER IN CONTRACT, 
  30:..\u8g2_csrc/u8x8_d_ist3020.c ****   STRICT LIABILITY, OR TORT (INCLUDING NEGLIGENCE OR OTHERWISE) 
  31:..\u8g2_csrc/u8x8_d_ist3020.c ****   ARISING IN ANY WAY OUT OF THE USE OF THIS SOFTWARE, EVEN IF 
  32:..\u8g2_csrc/u8x8_d_ist3020.c ****   ADVISED OF THE POSSIBILITY OF SUCH DAMAGE.  
  33:..\u8g2_csrc/u8x8_d_ist3020.c **** 
  34:..\u8g2_csrc/u8x8_d_ist3020.c ****   
  35:..\u8g2_csrc/u8x8_d_ist3020.c **** */
  36:..\u8g2_csrc/u8x8_d_ist3020.c **** #include "u8x8.h"
  37:..\u8g2_csrc/u8x8_d_ist3020.c **** 
  38:..\u8g2_csrc/u8x8_d_ist3020.c **** 
  39:..\u8g2_csrc/u8x8_d_ist3020.c **** 
  40:..\u8g2_csrc/u8x8_d_ist3020.c **** 
  41:..\u8g2_csrc/u8x8_d_ist3020.c **** static const uint8_t u8x8_d_ist3020_erc19264_powersave0_seq[] = {
  42:..\u8g2_csrc/u8x8_d_ist3020.c ****   U8X8_START_TRANSFER(),             	/* enable chip, delay is part of the transfer start */
  43:..\u8g2_csrc/u8x8_d_ist3020.c ****   U8X8_C(0x0a4),		                /* all pixel off, issue 142 */
  44:..\u8g2_csrc/u8x8_d_ist3020.c ****   U8X8_C(0x0af),		                /* display on */
  45:..\u8g2_csrc/u8x8_d_ist3020.c ****   U8X8_END_TRANSFER(),             	/* disable chip */
  46:..\u8g2_csrc/u8x8_d_ist3020.c ****   U8X8_END()             			/* end of sequence */
  47:..\u8g2_csrc/u8x8_d_ist3020.c **** };
  48:..\u8g2_csrc/u8x8_d_ist3020.c **** 
  49:..\u8g2_csrc/u8x8_d_ist3020.c **** static const uint8_t u8x8_d_ist3020_erc19264_powersave1_seq[] = {
  50:..\u8g2_csrc/u8x8_d_ist3020.c ****   U8X8_START_TRANSFER(),             	/* enable chip, delay is part of the transfer start */
  51:..\u8g2_csrc/u8x8_d_ist3020.c ****   U8X8_C(0x0ae),		                /* display off */
  52:..\u8g2_csrc/u8x8_d_ist3020.c ****   U8X8_C(0x0a5),		                /* enter powersafe: all pixel on, issue 142 */
  53:..\u8g2_csrc/u8x8_d_ist3020.c ****   U8X8_END_TRANSFER(),             	/* disable chip */
  54:..\u8g2_csrc/u8x8_d_ist3020.c ****   U8X8_END()             			/* end of sequence */
  55:..\u8g2_csrc/u8x8_d_ist3020.c **** };
  56:..\u8g2_csrc/u8x8_d_ist3020.c **** 
  57:..\u8g2_csrc/u8x8_d_ist3020.c **** static const uint8_t u8x8_d_ist3020_erc19264_flip0_seq[] = {
  58:..\u8g2_csrc/u8x8_d_ist3020.c ****   U8X8_START_TRANSFER(),             	/* enable chip, delay is part of the transfer start */
  59:..\u8g2_csrc/u8x8_d_ist3020.c ****   U8X8_C(0x0a0),				/* segment remap a0/a1*/
  60:..\u8g2_csrc/u8x8_d_ist3020.c ****   U8X8_C(0x0c8),				/* c0: scan dir normal, c8: reverse */
  61:..\u8g2_csrc/u8x8_d_ist3020.c ****   U8X8_END_TRANSFER(),             	/* disable chip */
  62:..\u8g2_csrc/u8x8_d_ist3020.c ****   U8X8_END()             			/* end of sequence */
  63:..\u8g2_csrc/u8x8_d_ist3020.c **** };
  64:..\u8g2_csrc/u8x8_d_ist3020.c **** 
  65:..\u8g2_csrc/u8x8_d_ist3020.c **** static const uint8_t u8x8_d_ist3020_erc19264_flip1_seq[] = {
  66:..\u8g2_csrc/u8x8_d_ist3020.c ****   U8X8_START_TRANSFER(),             	/* enable chip, delay is part of the transfer start */
  67:..\u8g2_csrc/u8x8_d_ist3020.c ****   U8X8_C(0x0a1),				/* segment remap a0/a1*/
  68:..\u8g2_csrc/u8x8_d_ist3020.c ****   U8X8_C(0x0c0),				/* c0: scan dir normal, c8: reverse */
  69:..\u8g2_csrc/u8x8_d_ist3020.c ****   U8X8_END_TRANSFER(),             	/* disable chip */
  70:..\u8g2_csrc/u8x8_d_ist3020.c ****   U8X8_END()             			/* end of sequence */
  71:..\u8g2_csrc/u8x8_d_ist3020.c **** };
  72:..\u8g2_csrc/u8x8_d_ist3020.c **** 
  73:..\u8g2_csrc/u8x8_d_ist3020.c **** 
  74:..\u8g2_csrc/u8x8_d_ist3020.c **** static const u8x8_display_info_t u8x8_ist3020_erc19264_display_info =
  75:..\u8g2_csrc/u8x8_d_ist3020.c **** {
ARM GAS  C:\Users\info\AppData\Local\Temp\ccNY7Myh.s 			page 44


  76:..\u8g2_csrc/u8x8_d_ist3020.c ****   /* chip_enable_level = */ 0,
  77:..\u8g2_csrc/u8x8_d_ist3020.c ****   /* chip_disable_level = */ 1,
  78:..\u8g2_csrc/u8x8_d_ist3020.c ****   
  79:..\u8g2_csrc/u8x8_d_ist3020.c ****   /* post_chip_enable_wait_ns = */ 150,	/* IST3020 datasheet, page 56 */
  80:..\u8g2_csrc/u8x8_d_ist3020.c ****   /* pre_chip_disable_wait_ns = */ 150,	/* IST3020 datasheet, page 56 */
  81:..\u8g2_csrc/u8x8_d_ist3020.c ****   /* reset_pulse_width_ms = */ 1, 
  82:..\u8g2_csrc/u8x8_d_ist3020.c ****   /* post_reset_wait_ms = */ 1, 
  83:..\u8g2_csrc/u8x8_d_ist3020.c ****   /* sda_setup_time_ns = */ 100,		/* IST3020 datasheet, page 56 */
  84:..\u8g2_csrc/u8x8_d_ist3020.c ****   /* sck_pulse_width_ns = */ 100,	/* IST3020 datasheet, page 56 */
  85:..\u8g2_csrc/u8x8_d_ist3020.c ****   /* sck_clock_hz = */ 4000000UL,	/* */
  86:..\u8g2_csrc/u8x8_d_ist3020.c ****   /* spi_mode = */ 0,		/* active high, rising edge */
  87:..\u8g2_csrc/u8x8_d_ist3020.c ****   /* i2c_bus_clock_100kHz = */ 4,
  88:..\u8g2_csrc/u8x8_d_ist3020.c ****   /* data_setup_time_ns = */ 40,	/* IST3020 datasheet, page 54 */
  89:..\u8g2_csrc/u8x8_d_ist3020.c ****   /* write_pulse_width_ns = */ 60,	/* IST3020 datasheet, page 54 */
  90:..\u8g2_csrc/u8x8_d_ist3020.c ****   /* tile_width = */ 24,		/* width of 24*8=192 pixel */
  91:..\u8g2_csrc/u8x8_d_ist3020.c ****   /* tile_hight = */ 8,
  92:..\u8g2_csrc/u8x8_d_ist3020.c ****   /* default_x_offset = */ 0,
  93:..\u8g2_csrc/u8x8_d_ist3020.c ****   /* flipmode_x_offset = */ 64,
  94:..\u8g2_csrc/u8x8_d_ist3020.c ****   /* pixel_width = */ 192,
  95:..\u8g2_csrc/u8x8_d_ist3020.c ****   /* pixel_height = */ 64
  96:..\u8g2_csrc/u8x8_d_ist3020.c **** };
  97:..\u8g2_csrc/u8x8_d_ist3020.c **** 
  98:..\u8g2_csrc/u8x8_d_ist3020.c **** static const uint8_t u8x8_d_ist3020_erc19264_init_seq[] = {
  99:..\u8g2_csrc/u8x8_d_ist3020.c ****     
 100:..\u8g2_csrc/u8x8_d_ist3020.c ****   U8X8_START_TRANSFER(),             	/* enable chip, delay is part of the transfer start */
 101:..\u8g2_csrc/u8x8_d_ist3020.c ****   
 102:..\u8g2_csrc/u8x8_d_ist3020.c ****   U8X8_C(0x0e2),            			/* soft reset */
 103:..\u8g2_csrc/u8x8_d_ist3020.c ****   U8X8_C(0x0ab),            			/* build in osc on, used in ER code, but not mentioned in data sheet
 104:..\u8g2_csrc/u8x8_d_ist3020.c ****   U8X8_C(0x0ae),		                /* display off */
 105:..\u8g2_csrc/u8x8_d_ist3020.c ****   
 106:..\u8g2_csrc/u8x8_d_ist3020.c ****   U8X8_C(0x040),		                /* set display start line to 0 */
 107:..\u8g2_csrc/u8x8_d_ist3020.c ****   
 108:..\u8g2_csrc/u8x8_d_ist3020.c ****   U8X8_C(0x0a0),		                /* ADC set to reverse */
 109:..\u8g2_csrc/u8x8_d_ist3020.c ****   U8X8_C(0x0c8),		                /* common output mode */
 110:..\u8g2_csrc/u8x8_d_ist3020.c ****   // Flipmode
 111:..\u8g2_csrc/u8x8_d_ist3020.c ****   //U8X8_C(0x0a0),		                /* ADC set to reverse */
 112:..\u8g2_csrc/u8x8_d_ist3020.c ****   //U8X8_C(0x0c8),		                /* common output mode */
 113:..\u8g2_csrc/u8x8_d_ist3020.c ****   
 114:..\u8g2_csrc/u8x8_d_ist3020.c ****   U8X8_C(0x0a6),		                /* display normal, bit val 0: LCD pixel off. */
 115:..\u8g2_csrc/u8x8_d_ist3020.c ****   U8X8_C(0x0a3),		                /* FIX: LCD bias 1/7, old value was 1/9 (0x0a2) */
 116:..\u8g2_csrc/u8x8_d_ist3020.c ****   
 117:..\u8g2_csrc/u8x8_d_ist3020.c ****   U8X8_C(0x028|4),		                /* all power  control circuits on */
 118:..\u8g2_csrc/u8x8_d_ist3020.c ****   U8X8_DLY(50),
 119:..\u8g2_csrc/u8x8_d_ist3020.c ****   U8X8_C(0x028|6),		                /* all power  control circuits on */
 120:..\u8g2_csrc/u8x8_d_ist3020.c ****   U8X8_DLY(50),
 121:..\u8g2_csrc/u8x8_d_ist3020.c ****   U8X8_C(0x028|7),		                /* all power  control circuits on */
 122:..\u8g2_csrc/u8x8_d_ist3020.c ****   U8X8_DLY(50),
 123:..\u8g2_csrc/u8x8_d_ist3020.c ****   
 124:..\u8g2_csrc/u8x8_d_ist3020.c ****   U8X8_C(0x020),		                /* v0 voltage resistor ratio */
 125:..\u8g2_csrc/u8x8_d_ist3020.c ****   U8X8_CA(0x081, 0x019),		/* set contrast, contrast value (from ER code: 45) */
 126:..\u8g2_csrc/u8x8_d_ist3020.c ****   
 127:..\u8g2_csrc/u8x8_d_ist3020.c ****   U8X8_C(0x0ae),		                /* display off */
 128:..\u8g2_csrc/u8x8_d_ist3020.c ****   U8X8_C(0x0a5),		                /* enter powersafe: all pixel on, issue 142 */
 129:..\u8g2_csrc/u8x8_d_ist3020.c ****    
 130:..\u8g2_csrc/u8x8_d_ist3020.c ****   U8X8_END_TRANSFER(),             	/* disable chip */
 131:..\u8g2_csrc/u8x8_d_ist3020.c ****   U8X8_END()             			/* end of sequence */
 132:..\u8g2_csrc/u8x8_d_ist3020.c **** };
ARM GAS  C:\Users\info\AppData\Local\Temp\ccNY7Myh.s 			page 45


 133:..\u8g2_csrc/u8x8_d_ist3020.c **** 
 134:..\u8g2_csrc/u8x8_d_ist3020.c **** uint8_t u8x8_d_ist3020_erc19264(u8x8_t *u8x8, uint8_t msg, uint8_t arg_int, void *arg_ptr)
 135:..\u8g2_csrc/u8x8_d_ist3020.c **** {
 586              		.loc 1 135 0
 587              		.cfi_startproc
 588              		@ args = 0, pretend = 0, frame = 0
 589              		@ frame_needed = 0, uses_anonymous_args = 0
 590              	.LVL0:
 591 0000 F8B5     		push	{r3, r4, r5, r6, r7, lr}
 592              		.cfi_def_cfa_offset 24
 593              		.cfi_offset 3, -24
 594              		.cfi_offset 4, -20
 595              		.cfi_offset 5, -16
 596              		.cfi_offset 6, -12
 597              		.cfi_offset 7, -8
 598              		.cfi_offset 14, -4
 599 0002 0546     		mov	r5, r0
 600 0004 1446     		mov	r4, r2
 601 0006 1F46     		mov	r7, r3
 136:..\u8g2_csrc/u8x8_d_ist3020.c ****   uint8_t x, c;
 137:..\u8g2_csrc/u8x8_d_ist3020.c ****   uint8_t *ptr;
 138:..\u8g2_csrc/u8x8_d_ist3020.c ****   switch(msg)
 602              		.loc 1 138 0
 603 0008 0939     		subs	r1, r1, #9
 604              	.LVL1:
 605 000a 0629     		cmp	r1, #6
 606 000c 6BD8     		bhi	.L13
 607 000e DFE801F0 		tbb	[pc, r1]
 608              	.LVL2:
 609              	.L4:
 610 0012 04       		.byte	(.L3-.L4)/2
 611 0013 09       		.byte	(.L5-.L4)/2
 612 0014 11       		.byte	(.L6-.L4)/2
 613 0015 6A       		.byte	(.L13-.L4)/2
 614 0016 1C       		.byte	(.L7-.L4)/2
 615 0017 2F       		.byte	(.L8-.L4)/2
 616 0018 3E       		.byte	(.L9-.L4)/2
 617 0019 00       		.p2align 1
 618              	.L3:
 139:..\u8g2_csrc/u8x8_d_ist3020.c ****   {
 140:..\u8g2_csrc/u8x8_d_ist3020.c ****     case U8X8_MSG_DISPLAY_SETUP_MEMORY:
 141:..\u8g2_csrc/u8x8_d_ist3020.c ****       u8x8_d_helper_display_setup_memory(u8x8, &u8x8_ist3020_erc19264_display_info);
 619              		.loc 1 141 0
 620 001a 3449     		ldr	r1, .L15
 621 001c FFF7FEFF 		bl	u8x8_d_helper_display_setup_memory
 622              	.LVL3:
 142:..\u8g2_csrc/u8x8_d_ist3020.c ****       break;
 143:..\u8g2_csrc/u8x8_d_ist3020.c ****     case U8X8_MSG_DISPLAY_INIT:
 144:..\u8g2_csrc/u8x8_d_ist3020.c ****       u8x8_d_helper_display_init(u8x8);
 145:..\u8g2_csrc/u8x8_d_ist3020.c ****       u8x8_cad_SendSequence(u8x8, u8x8_d_ist3020_erc19264_init_seq);
 146:..\u8g2_csrc/u8x8_d_ist3020.c ****       break;
 147:..\u8g2_csrc/u8x8_d_ist3020.c ****     case U8X8_MSG_DISPLAY_SET_POWER_SAVE:
 148:..\u8g2_csrc/u8x8_d_ist3020.c ****       if ( arg_int == 0 )
 149:..\u8g2_csrc/u8x8_d_ist3020.c **** 	u8x8_cad_SendSequence(u8x8, u8x8_d_ist3020_erc19264_powersave0_seq);
 150:..\u8g2_csrc/u8x8_d_ist3020.c ****       else
 151:..\u8g2_csrc/u8x8_d_ist3020.c **** 	u8x8_cad_SendSequence(u8x8, u8x8_d_ist3020_erc19264_powersave1_seq);
 152:..\u8g2_csrc/u8x8_d_ist3020.c ****       break;
ARM GAS  C:\Users\info\AppData\Local\Temp\ccNY7Myh.s 			page 46


 153:..\u8g2_csrc/u8x8_d_ist3020.c ****     case U8X8_MSG_DISPLAY_SET_FLIP_MODE:
 154:..\u8g2_csrc/u8x8_d_ist3020.c ****       if ( arg_int == 0 )
 155:..\u8g2_csrc/u8x8_d_ist3020.c ****       {
 156:..\u8g2_csrc/u8x8_d_ist3020.c **** 	u8x8_cad_SendSequence(u8x8, u8x8_d_ist3020_erc19264_flip0_seq);
 157:..\u8g2_csrc/u8x8_d_ist3020.c **** 	u8x8->x_offset = u8x8->display_info->default_x_offset;
 158:..\u8g2_csrc/u8x8_d_ist3020.c ****       }
 159:..\u8g2_csrc/u8x8_d_ist3020.c ****       else
 160:..\u8g2_csrc/u8x8_d_ist3020.c ****       {
 161:..\u8g2_csrc/u8x8_d_ist3020.c **** 	u8x8_cad_SendSequence(u8x8, u8x8_d_ist3020_erc19264_flip1_seq);
 162:..\u8g2_csrc/u8x8_d_ist3020.c **** 	u8x8->x_offset = u8x8->display_info->flipmode_x_offset;
 163:..\u8g2_csrc/u8x8_d_ist3020.c ****       }	
 164:..\u8g2_csrc/u8x8_d_ist3020.c ****       break;
 165:..\u8g2_csrc/u8x8_d_ist3020.c **** #ifdef U8X8_WITH_SET_CONTRAST
 166:..\u8g2_csrc/u8x8_d_ist3020.c ****     case U8X8_MSG_DISPLAY_SET_CONTRAST:
 167:..\u8g2_csrc/u8x8_d_ist3020.c ****       u8x8_cad_StartTransfer(u8x8);
 168:..\u8g2_csrc/u8x8_d_ist3020.c ****       u8x8_cad_SendCmd(u8x8, 0x081 );
 169:..\u8g2_csrc/u8x8_d_ist3020.c ****       u8x8_cad_SendArg(u8x8, arg_int >> 2 );	/* st7567 has range from 0 to 63 */
 170:..\u8g2_csrc/u8x8_d_ist3020.c ****       u8x8_cad_EndTransfer(u8x8);
 171:..\u8g2_csrc/u8x8_d_ist3020.c ****       break;
 172:..\u8g2_csrc/u8x8_d_ist3020.c **** #endif
 173:..\u8g2_csrc/u8x8_d_ist3020.c ****     case U8X8_MSG_DISPLAY_DRAW_TILE:
 174:..\u8g2_csrc/u8x8_d_ist3020.c ****       u8x8_cad_StartTransfer(u8x8);
 175:..\u8g2_csrc/u8x8_d_ist3020.c ****     
 176:..\u8g2_csrc/u8x8_d_ist3020.c ****       x = ((u8x8_tile_t *)arg_ptr)->x_pos;
 177:..\u8g2_csrc/u8x8_d_ist3020.c ****       x *= 8;
 178:..\u8g2_csrc/u8x8_d_ist3020.c ****       x += u8x8->x_offset;
 179:..\u8g2_csrc/u8x8_d_ist3020.c ****       u8x8_cad_SendCmd(u8x8, 0x010 | (x>>4) );
 180:..\u8g2_csrc/u8x8_d_ist3020.c ****       u8x8_cad_SendCmd(u8x8, 0x000 | ((x&15)));
 181:..\u8g2_csrc/u8x8_d_ist3020.c ****       u8x8_cad_SendCmd(u8x8, 0x0b0 | (((u8x8_tile_t *)arg_ptr)->y_pos));
 182:..\u8g2_csrc/u8x8_d_ist3020.c ****     
 183:..\u8g2_csrc/u8x8_d_ist3020.c ****       c = ((u8x8_tile_t *)arg_ptr)->cnt;
 184:..\u8g2_csrc/u8x8_d_ist3020.c ****       c *= 8;
 185:..\u8g2_csrc/u8x8_d_ist3020.c ****       ptr = ((u8x8_tile_t *)arg_ptr)->tile_ptr;
 186:..\u8g2_csrc/u8x8_d_ist3020.c ****       do
 187:..\u8g2_csrc/u8x8_d_ist3020.c ****       {
 188:..\u8g2_csrc/u8x8_d_ist3020.c **** 	u8x8_cad_SendData(u8x8, c, ptr);	/* note: SendData can not handle more than 255 bytes */
 189:..\u8g2_csrc/u8x8_d_ist3020.c **** 	arg_int--;
 190:..\u8g2_csrc/u8x8_d_ist3020.c ****       } while( arg_int > 0 );
 191:..\u8g2_csrc/u8x8_d_ist3020.c ****       
 192:..\u8g2_csrc/u8x8_d_ist3020.c ****       u8x8_cad_EndTransfer(u8x8);
 193:..\u8g2_csrc/u8x8_d_ist3020.c ****       break;
 194:..\u8g2_csrc/u8x8_d_ist3020.c ****     default:
 195:..\u8g2_csrc/u8x8_d_ist3020.c ****       return 0;
 196:..\u8g2_csrc/u8x8_d_ist3020.c ****   }
 197:..\u8g2_csrc/u8x8_d_ist3020.c ****   return 1;
 623              		.loc 1 197 0
 624 0020 0120     		movs	r0, #1
 142:..\u8g2_csrc/u8x8_d_ist3020.c ****       break;
 625              		.loc 1 142 0
 626 0022 F8BD     		pop	{r3, r4, r5, r6, r7, pc}
 627              	.LVL4:
 628              	.L5:
 144:..\u8g2_csrc/u8x8_d_ist3020.c ****       u8x8_cad_SendSequence(u8x8, u8x8_d_ist3020_erc19264_init_seq);
 629              		.loc 1 144 0
 630 0024 FFF7FEFF 		bl	u8x8_d_helper_display_init
 631              	.LVL5:
 145:..\u8g2_csrc/u8x8_d_ist3020.c ****       break;
ARM GAS  C:\Users\info\AppData\Local\Temp\ccNY7Myh.s 			page 47


 632              		.loc 1 145 0
 633 0028 3149     		ldr	r1, .L15+4
 634 002a 2846     		mov	r0, r5
 635 002c FFF7FEFF 		bl	u8x8_cad_SendSequence
 636              	.LVL6:
 637              		.loc 1 197 0
 638 0030 0120     		movs	r0, #1
 146:..\u8g2_csrc/u8x8_d_ist3020.c ****     case U8X8_MSG_DISPLAY_SET_POWER_SAVE:
 639              		.loc 1 146 0
 640 0032 F8BD     		pop	{r3, r4, r5, r6, r7, pc}
 641              	.LVL7:
 642              	.L6:
 148:..\u8g2_csrc/u8x8_d_ist3020.c **** 	u8x8_cad_SendSequence(u8x8, u8x8_d_ist3020_erc19264_powersave0_seq);
 643              		.loc 1 148 0
 644 0034 22B9     		cbnz	r2, .L10
 149:..\u8g2_csrc/u8x8_d_ist3020.c ****       else
 645              		.loc 1 149 0
 646 0036 2F49     		ldr	r1, .L15+8
 647 0038 FFF7FEFF 		bl	u8x8_cad_SendSequence
 648              	.LVL8:
 649              		.loc 1 197 0
 650 003c 0120     		movs	r0, #1
 651 003e F8BD     		pop	{r3, r4, r5, r6, r7, pc}
 652              	.LVL9:
 653              	.L10:
 151:..\u8g2_csrc/u8x8_d_ist3020.c ****       break;
 654              		.loc 1 151 0
 655 0040 2D49     		ldr	r1, .L15+12
 656 0042 FFF7FEFF 		bl	u8x8_cad_SendSequence
 657              	.LVL10:
 658              		.loc 1 197 0
 659 0046 0120     		movs	r0, #1
 660 0048 F8BD     		pop	{r3, r4, r5, r6, r7, pc}
 661              	.LVL11:
 662              	.L7:
 154:..\u8g2_csrc/u8x8_d_ist3020.c ****       {
 663              		.loc 1 154 0
 664 004a 42B9     		cbnz	r2, .L11
 156:..\u8g2_csrc/u8x8_d_ist3020.c **** 	u8x8->x_offset = u8x8->display_info->default_x_offset;
 665              		.loc 1 156 0
 666 004c 2B49     		ldr	r1, .L15+16
 667 004e FFF7FEFF 		bl	u8x8_cad_SendSequence
 668              	.LVL12:
 157:..\u8g2_csrc/u8x8_d_ist3020.c ****       }
 669              		.loc 1 157 0
 670 0052 2B68     		ldr	r3, [r5]
 671 0054 9B7C     		ldrb	r3, [r3, #18]	@ zero_extendqisi2
 672 0056 85F82230 		strb	r3, [r5, #34]
 673              		.loc 1 197 0
 674 005a 0120     		movs	r0, #1
 675 005c F8BD     		pop	{r3, r4, r5, r6, r7, pc}
 676              	.LVL13:
 677              	.L11:
 161:..\u8g2_csrc/u8x8_d_ist3020.c **** 	u8x8->x_offset = u8x8->display_info->flipmode_x_offset;
 678              		.loc 1 161 0
 679 005e 2849     		ldr	r1, .L15+20
 680 0060 FFF7FEFF 		bl	u8x8_cad_SendSequence
ARM GAS  C:\Users\info\AppData\Local\Temp\ccNY7Myh.s 			page 48


 681              	.LVL14:
 162:..\u8g2_csrc/u8x8_d_ist3020.c ****       }	
 682              		.loc 1 162 0
 683 0064 2B68     		ldr	r3, [r5]
 684 0066 DB7C     		ldrb	r3, [r3, #19]	@ zero_extendqisi2
 685 0068 85F82230 		strb	r3, [r5, #34]
 686              		.loc 1 197 0
 687 006c 0120     		movs	r0, #1
 688 006e F8BD     		pop	{r3, r4, r5, r6, r7, pc}
 689              	.LVL15:
 690              	.L8:
 167:..\u8g2_csrc/u8x8_d_ist3020.c ****       u8x8_cad_SendCmd(u8x8, 0x081 );
 691              		.loc 1 167 0
 692 0070 FFF7FEFF 		bl	u8x8_cad_StartTransfer
 693              	.LVL16:
 168:..\u8g2_csrc/u8x8_d_ist3020.c ****       u8x8_cad_SendArg(u8x8, arg_int >> 2 );	/* st7567 has range from 0 to 63 */
 694              		.loc 1 168 0
 695 0074 8121     		movs	r1, #129
 696 0076 2846     		mov	r0, r5
 697 0078 FFF7FEFF 		bl	u8x8_cad_SendCmd
 698              	.LVL17:
 169:..\u8g2_csrc/u8x8_d_ist3020.c ****       u8x8_cad_EndTransfer(u8x8);
 699              		.loc 1 169 0
 700 007c A108     		lsrs	r1, r4, #2
 701 007e 2846     		mov	r0, r5
 702 0080 FFF7FEFF 		bl	u8x8_cad_SendArg
 703              	.LVL18:
 170:..\u8g2_csrc/u8x8_d_ist3020.c ****       break;
 704              		.loc 1 170 0
 705 0084 2846     		mov	r0, r5
 706 0086 FFF7FEFF 		bl	u8x8_cad_EndTransfer
 707              	.LVL19:
 708              		.loc 1 197 0
 709 008a 0120     		movs	r0, #1
 171:..\u8g2_csrc/u8x8_d_ist3020.c **** #endif
 710              		.loc 1 171 0
 711 008c F8BD     		pop	{r3, r4, r5, r6, r7, pc}
 712              	.LVL20:
 713              	.L9:
 174:..\u8g2_csrc/u8x8_d_ist3020.c ****     
 714              		.loc 1 174 0
 715 008e FFF7FEFF 		bl	u8x8_cad_StartTransfer
 716              	.LVL21:
 176:..\u8g2_csrc/u8x8_d_ist3020.c ****       x *= 8;
 717              		.loc 1 176 0
 718 0092 7E79     		ldrb	r6, [r7, #5]	@ zero_extendqisi2
 719              	.LVL22:
 177:..\u8g2_csrc/u8x8_d_ist3020.c ****       x += u8x8->x_offset;
 720              		.loc 1 177 0
 721 0094 F600     		lsls	r6, r6, #3
 722              	.LVL23:
 723 0096 F6B2     		uxtb	r6, r6
 724              	.LVL24:
 178:..\u8g2_csrc/u8x8_d_ist3020.c ****       u8x8_cad_SendCmd(u8x8, 0x010 | (x>>4) );
 725              		.loc 1 178 0
 726 0098 95F82230 		ldrb	r3, [r5, #34]	@ zero_extendqisi2
 727 009c 1E44     		add	r6, r6, r3
ARM GAS  C:\Users\info\AppData\Local\Temp\ccNY7Myh.s 			page 49


 728              	.LVL25:
 729 009e F6B2     		uxtb	r6, r6
 730              	.LVL26:
 179:..\u8g2_csrc/u8x8_d_ist3020.c ****       u8x8_cad_SendCmd(u8x8, 0x000 | ((x&15)));
 731              		.loc 1 179 0
 732 00a0 3109     		lsrs	r1, r6, #4
 733 00a2 41F01001 		orr	r1, r1, #16
 734 00a6 2846     		mov	r0, r5
 735 00a8 FFF7FEFF 		bl	u8x8_cad_SendCmd
 736              	.LVL27:
 180:..\u8g2_csrc/u8x8_d_ist3020.c ****       u8x8_cad_SendCmd(u8x8, 0x0b0 | (((u8x8_tile_t *)arg_ptr)->y_pos));
 737              		.loc 1 180 0
 738 00ac 06F00F01 		and	r1, r6, #15
 739 00b0 2846     		mov	r0, r5
 740 00b2 FFF7FEFF 		bl	u8x8_cad_SendCmd
 741              	.LVL28:
 181:..\u8g2_csrc/u8x8_d_ist3020.c ****     
 742              		.loc 1 181 0
 743 00b6 B979     		ldrb	r1, [r7, #6]	@ zero_extendqisi2
 744 00b8 41F0B001 		orr	r1, r1, #176
 745 00bc 2846     		mov	r0, r5
 746 00be FFF7FEFF 		bl	u8x8_cad_SendCmd
 747              	.LVL29:
 183:..\u8g2_csrc/u8x8_d_ist3020.c ****       c *= 8;
 748              		.loc 1 183 0
 749 00c2 3E79     		ldrb	r6, [r7, #4]	@ zero_extendqisi2
 750              	.LVL30:
 184:..\u8g2_csrc/u8x8_d_ist3020.c ****       ptr = ((u8x8_tile_t *)arg_ptr)->tile_ptr;
 751              		.loc 1 184 0
 752 00c4 F600     		lsls	r6, r6, #3
 753              	.LVL31:
 754 00c6 F6B2     		uxtb	r6, r6
 755              	.LVL32:
 185:..\u8g2_csrc/u8x8_d_ist3020.c ****       do
 756              		.loc 1 185 0
 757 00c8 3F68     		ldr	r7, [r7]
 758              	.LVL33:
 759              	.L12:
 188:..\u8g2_csrc/u8x8_d_ist3020.c **** 	arg_int--;
 760              		.loc 1 188 0 discriminator 1
 761 00ca 3A46     		mov	r2, r7
 762 00cc 3146     		mov	r1, r6
 763 00ce 2846     		mov	r0, r5
 764 00d0 FFF7FEFF 		bl	u8x8_cad_SendData
 765              	.LVL34:
 189:..\u8g2_csrc/u8x8_d_ist3020.c ****       } while( arg_int > 0 );
 766              		.loc 1 189 0 discriminator 1
 767 00d4 621E     		subs	r2, r4, #1
 768              	.LVL35:
 190:..\u8g2_csrc/u8x8_d_ist3020.c ****       
 769              		.loc 1 190 0 discriminator 1
 770 00d6 12F0FF04 		ands	r4, r2, #255
 771 00da F6D1     		bne	.L12
 192:..\u8g2_csrc/u8x8_d_ist3020.c ****       break;
 772              		.loc 1 192 0
 773 00dc 2846     		mov	r0, r5
 774 00de FFF7FEFF 		bl	u8x8_cad_EndTransfer
ARM GAS  C:\Users\info\AppData\Local\Temp\ccNY7Myh.s 			page 50


 775              	.LVL36:
 776              		.loc 1 197 0
 777 00e2 0120     		movs	r0, #1
 193:..\u8g2_csrc/u8x8_d_ist3020.c ****     default:
 778              		.loc 1 193 0
 779 00e4 F8BD     		pop	{r3, r4, r5, r6, r7, pc}
 780              	.LVL37:
 781              	.L13:
 195:..\u8g2_csrc/u8x8_d_ist3020.c ****   }
 782              		.loc 1 195 0
 783 00e6 0020     		movs	r0, #0
 784              	.LVL38:
 198:..\u8g2_csrc/u8x8_d_ist3020.c **** }
 785              		.loc 1 198 0
 786 00e8 F8BD     		pop	{r3, r4, r5, r6, r7, pc}
 787              	.LVL39:
 788              	.L16:
 789 00ea 00BF     		.align	2
 790              	.L15:
 791 00ec 00000000 		.word	.LANCHOR0
 792 00f0 18000000 		.word	.LANCHOR0+24
 793 00f4 44000000 		.word	.LANCHOR0+68
 794 00f8 4C000000 		.word	.LANCHOR0+76
 795 00fc 54000000 		.word	.LANCHOR0+84
 796 0100 5C000000 		.word	.LANCHOR0+92
 797              		.cfi_endproc
 798              	.LFE0:
 799              		.size	u8x8_d_ist3020_erc19264, .-u8x8_d_ist3020_erc19264
 800              		.section	.rodata
 801              		.align	2
 802              		.set	.LANCHOR0,. + 0
 803              		.type	u8x8_ist3020_erc19264_display_info, %object
 804              		.size	u8x8_ist3020_erc19264_display_info, 24
 805              	u8x8_ist3020_erc19264_display_info:
 806 0000 00       		.byte	0
 807 0001 01       		.byte	1
 808 0002 96       		.byte	-106
 809 0003 96       		.byte	-106
 810 0004 01       		.byte	1
 811 0005 01       		.byte	1
 812 0006 64       		.byte	100
 813 0007 64       		.byte	100
 814 0008 00093D00 		.word	4000000
 815 000c 00       		.byte	0
 816 000d 04       		.byte	4
 817 000e 28       		.byte	40
 818 000f 3C       		.byte	60
 819 0010 18       		.byte	24
 820 0011 08       		.byte	8
 821 0012 00       		.byte	0
 822 0013 40       		.byte	64
 823 0014 C000     		.short	192
 824 0016 4000     		.short	64
 825              		.type	u8x8_d_ist3020_erc19264_init_seq, %object
 826              		.size	u8x8_d_ist3020_erc19264_init_seq, 41
 827              	u8x8_d_ist3020_erc19264_init_seq:
 828 0018 18       		.byte	24
ARM GAS  C:\Users\info\AppData\Local\Temp\ccNY7Myh.s 			page 51


 829 0019 15       		.byte	21
 830 001a E2       		.byte	-30
 831 001b 15       		.byte	21
 832 001c AB       		.byte	-85
 833 001d 15       		.byte	21
 834 001e AE       		.byte	-82
 835 001f 15       		.byte	21
 836 0020 40       		.byte	64
 837 0021 15       		.byte	21
 838 0022 A0       		.byte	-96
 839 0023 15       		.byte	21
 840 0024 C8       		.byte	-56
 841 0025 15       		.byte	21
 842 0026 A6       		.byte	-90
 843 0027 15       		.byte	21
 844 0028 A3       		.byte	-93
 845 0029 15       		.byte	21
 846 002a 2C       		.byte	44
 847 002b FE       		.byte	-2
 848 002c 32       		.byte	50
 849 002d 15       		.byte	21
 850 002e 2E       		.byte	46
 851 002f FE       		.byte	-2
 852 0030 32       		.byte	50
 853 0031 15       		.byte	21
 854 0032 2F       		.byte	47
 855 0033 FE       		.byte	-2
 856 0034 32       		.byte	50
 857 0035 15       		.byte	21
 858 0036 20       		.byte	32
 859 0037 15       		.byte	21
 860 0038 81       		.byte	-127
 861 0039 16       		.byte	22
 862 003a 19       		.byte	25
 863 003b 15       		.byte	21
 864 003c AE       		.byte	-82
 865 003d 15       		.byte	21
 866 003e A5       		.byte	-91
 867 003f 19       		.byte	25
 868 0040 FF       		.byte	-1
 869 0041 000000   		.space	3
 870              		.type	u8x8_d_ist3020_erc19264_powersave0_seq, %object
 871              		.size	u8x8_d_ist3020_erc19264_powersave0_seq, 7
 872              	u8x8_d_ist3020_erc19264_powersave0_seq:
 873 0044 18       		.byte	24
 874 0045 15       		.byte	21
 875 0046 A4       		.byte	-92
 876 0047 15       		.byte	21
 877 0048 AF       		.byte	-81
 878 0049 19       		.byte	25
 879 004a FF       		.byte	-1
 880 004b 00       		.space	1
 881              		.type	u8x8_d_ist3020_erc19264_powersave1_seq, %object
 882              		.size	u8x8_d_ist3020_erc19264_powersave1_seq, 7
 883              	u8x8_d_ist3020_erc19264_powersave1_seq:
 884 004c 18       		.byte	24
 885 004d 15       		.byte	21
ARM GAS  C:\Users\info\AppData\Local\Temp\ccNY7Myh.s 			page 52


 886 004e AE       		.byte	-82
 887 004f 15       		.byte	21
 888 0050 A5       		.byte	-91
 889 0051 19       		.byte	25
 890 0052 FF       		.byte	-1
 891 0053 00       		.space	1
 892              		.type	u8x8_d_ist3020_erc19264_flip0_seq, %object
 893              		.size	u8x8_d_ist3020_erc19264_flip0_seq, 7
 894              	u8x8_d_ist3020_erc19264_flip0_seq:
 895 0054 18       		.byte	24
 896 0055 15       		.byte	21
 897 0056 A0       		.byte	-96
 898 0057 15       		.byte	21
 899 0058 C8       		.byte	-56
 900 0059 19       		.byte	25
 901 005a FF       		.byte	-1
 902 005b 00       		.space	1
 903              		.type	u8x8_d_ist3020_erc19264_flip1_seq, %object
 904              		.size	u8x8_d_ist3020_erc19264_flip1_seq, 7
 905              	u8x8_d_ist3020_erc19264_flip1_seq:
 906 005c 18       		.byte	24
 907 005d 15       		.byte	21
 908 005e A1       		.byte	-95
 909 005f 15       		.byte	21
 910 0060 C0       		.byte	-64
 911 0061 19       		.byte	25
 912 0062 FF       		.byte	-1
 913              		.text
 914              	.Letext0:
 915              		.file 2 "c:\\program files (x86)\\cypress\\psoc creator\\4.2\\psoc creator\\import\\gnu\\arm\\5.4.
 916              		.file 3 "c:\\program files (x86)\\cypress\\psoc creator\\4.2\\psoc creator\\import\\gnu\\arm\\5.4.
 917              		.file 4 "..\\u8g2_csrc\\u8x8.h"