ARM GAS  C:\Users\info\AppData\Local\Temp\ccz2UUAb.s 			page 1


   1              		.syntax unified
   2              		.cpu cortex-m3
   3              		.fpu softvfp
   4              		.eabi_attribute 20, 1
   5              		.eabi_attribute 21, 1
   6              		.eabi_attribute 23, 3
   7              		.eabi_attribute 24, 1
   8              		.eabi_attribute 25, 1
   9              		.eabi_attribute 26, 1
  10              		.eabi_attribute 30, 1
  11              		.eabi_attribute 34, 1
  12              		.eabi_attribute 18, 4
  13              		.thumb
  14              		.syntax unified
  15              		.file	"u8x8_d_sbn1661.c"
  16              		.text
  17              	.Ltext0:
  18              		.section	.gnu.lto_.profile.792a363a,"",%progbits
  19 0000 789C6361 		.ascii	"x\234ca`d`c`\000\222\035,G\031\001\004K\001_"
  19      60646063 
  19      6000921D 
  19      2C471901 
  19      044B015F 
  20              		.text
  21              		.section	.gnu.lto_.inline.792a363a,"",%progbits
  22 0000 789C6361 		.ascii	"x\234ca`d\000\001o\010\005\006L\014\014\007\030\257"
  22      60640001 
  22      6F080506 
  22      4C0C0C07 
  22      18AF
  23 0012 0225980C 		.ascii	"\002%\230\014O\2442H\3360c\002\211\262\360200O\360c"
  23      4FA43248 
  23      DE306302 
  23      89B2F032 
  23      30304FF0 
  24 0027 98E0C7CC 		.ascii	"\230\340\307\314\003T3\301\017\316\300'E*\315\304\315"
  24      035433C1 
  24      0FCEC027 
  24      452ACDC4 
  24      CD
  25 0038 C0C088D0 		.ascii	"\300\300\210\320\316.\014\264\030H3\014R\026+\003\247"
  25      CE2E0CB4 
  25      1848330C 
  25      52162B03 
  25      A7
  26 0049 202328C0 		.ascii	" #(\300\030\330\026\310\203\203\211\215\037,\007\201"
  26      18D816C8 
  26      8383898D 
  26      1F2C0781 
  27 0059 0C0027FF 		.ascii	"\014\000'\377);"
  27      293B
  28              		.text
  29              		.section	.gnu.lto_.jmpfuncs.792a363a,"",%progbits
  30 0000 789C6361 		.ascii	"x\234ca`d\000\001w\006\004`b\300\000\365\002$!V\220"
  30      60640001 
  30      77060460 
  30      62C000F5 
ARM GAS  C:\Users\info\AppData\Local\Temp\ccz2UUAb.s 			page 2


  30      02242156 
  31 0015 1E002083 		.ascii	"\036\000 \203\011D"
  31      0944
  32              		.text
  33              		.section	.gnu.lto_.pureconst.792a363a,"",%progbits
  34 0000 789C6361 		.ascii	"x\234ca`d`e```b\220d\225\000\000\000\360\000C"
  34      60646065 
  34      60606062 
  34      90649500 
  34      0000F000 
  35              		.text
  36              		.section	.gnu.lto_u8x8_d_sbn1661_122x32.792a363a,"",%progbits
  37 0000 789C9557 		.ascii	"x\234\225W\373O\024W\024\276g\356\276\227\227\322R\324"
  37      FB4F1457 
  37      14BE67EE 
  37      BE9797D2 
  37      52D4
  38 0012 B5A12414 		.ascii	"\265\241$\024i\024\021\0220D\377\200\376\332\237\333"
  38      69141112 
  38      3044FF80 
  38      FEDA9FDB 
  39 0022 90D636B6 		.ascii	"\220\3266\266ij\032\265\211\277\030\006\226E\240>\240"
  39      696A1AB5 
  39      89BF1806 
  39      9645A03E 
  39      A0
  40 0033 15ABD6FA 		.ascii	"\025\253\326\372\210E\253R\005|b}\254oE@Q*E\360\205"
  40      8845AB52 
  40      057C627D 
  40      AC6F4540 
  40      512A45F0 
  41 0048 88D4228A 		.ascii	"\210\324\"\212\210\317\342\366\234;3;\354\260\273\231"
  41      88CFE2F6 
  41      9C3B333B 
  41      ECB0BB99 
  42 0058 6EB267E7 		.ascii	"n\262g\347\336\235\357\236\357\373\316\271\263w-\014"
  42      DE9DEF9E 
  42      EFFBCEB9 
  42      B3772D0C 
  43 0068 18BD5227 		.ascii	"\030\275R'06\027?\227\342\033\\\014\244\312V\306\212"
  43      3036173F 
  43      97E21B5C 
  43      0CA4CA56 
  43      C68A
  44 007a 1C92D579 		.ascii	"\034\222\325y9\236\311\016.\242ED\253\210\016e\036\234"
  44      399EC90E 
  44      2EA24544 
  44      AB880E65 
  44      1E9C
  45 008c CA8D16ED 		.ascii	"\312\215\026\355\302*\331\312\322\231\354\262S\214\261"
  45      C22AD9CA 
  45      D299ECB2 
  45      538CB1
  46 009b 69D376ED 		.ascii	"i\323v\355\302\241]8\001\350Bv\000+\224\270\305j\263"
  46      C2A15D38 
  46      01E84276 
  46      002B94B8 
ARM GAS  C:\Users\info\AppData\Local\Temp\ccz2UUAb.s 			page 3


  46      C56AB3
  47 00ae E354218C 		.ascii	"\343T!\214H\243\022\\|~~\271+c\273,\027\313\267\317"
  47      48A3125C 
  47      7C7E7EB9 
  47      2B63BB2C 
  47      17CBB7CF 
  48 00c2 6CFB70A8 		.ascii	"l\373p\250\330\227\354\343\214\005$\0069\036\310\362"
  48      D897ECE3 
  48      8C052406 
  48      391EC8F2 
  49 00d2 10C9ED90 		.ascii	"\020\311\355\220\201w\266\225\324m\340O%\037\007\260"
  49      8177B695 
  49      D46DE04F 
  49      251F07B0 
  50 00e2 E070A865 		.ascii	"\340p\250e\375\3358\032J\220\202\303\315\355[\273m\374"
  50      FDDD381A 
  50      4A9082C3 
  50      CDED5BBB 
  50      6DFC
  51 00f4 3D6078BD 		.ascii	"=`x\275\246\251}06\275\206\326\2247}!;}\234\303N\340"
  51      A6A97D30 
  51      36BD86D6 
  51      94377D21 
  51      3B7D9CC3 
  52 010a B4E60EF0 		.ascii	"\264\346\016\360\300o\340a8\305`\027\244\343\335\315"
  52      C06FE061 
  52      38C56017 
  52      A4E3DDCD 
  53 011a 758D1D16 		.ascii	"u\215\035\026\376\276@>?rjTCv}\"s\244\002\265\012Ra"
  53      FEBE403E 
  53      3F726A54 
  53      43767D22 
  53      73A402B5 
  54 0131 43DCE077 		.ascii	"C\334\340w\201[\333v{\205\213\177 p\033\356=\352\264"
  54      815BDB76 
  54      7B858B7F 
  54      20701BEE 
  54      3DEAB4
  55 0144 AAB8EAB3 		.ascii	"\252\270\352\263n9\213\200\273\307\001\367\010`\347"
  55      6E398B80 
  55      BBC701F7 
  55      0860E7
  56 0153 FD96AB2E 		.ascii	"\375\226\253.\236-\200;\367\337j\260\253\300\253gc\344"
  56      9E2D803B 
  56      F7DF6AB0 
  56      ABC0AB67 
  56      63E4
  57 0165 4AF0710B 		.ascii	"J\360q\013\324\031\311Z\030\324C:\001V\266W\364p\236"
  57      D419C95A 
  57      18D4433A 
  57      0156B657 
  57      F4709E
  58 0178 2FC03572 		.ascii	"/\3005r]\2053m+\201\375\215\025q\353d\177I\212\217["
  58      5D85336D 
  58      2B81FD8D 
  58      1571EB64 
  58      7F498A8F 
ARM GAS  C:\Users\info\AppData\Local\Temp\ccz2UUAb.s 			page 4


  59 018d A121144E 		.ascii	"\241!\024N/\274\273\247\376Mu\254\255D\306W\012\354"
  59      2FBCBBA7 
  59      FE4D75AC 
  59      AD44C657 
  59      0AEC
  60 019f 8534F218 		.ascii	"\2054\362\0309\355\003\033\366\005\320\314\236\217\374"
  60      39ED031B 
  60      F605D0CC 
  60      9E8FFC
  61 01ae 7220E095 		.ascii	"r \340\225\375\007]'\256\305\315\001\"\215n\243\\+\220"
  61      FD075D27 
  61      AEC5CD01 
  61      228D6EA3 
  61      5C2B90
  62 01c1 590E9CB0 		.ascii	"Y\016\234\260\271)\304RH\2400\021HU\"]&QH\2460\205\302"
  62      B929C452 
  62      48A03011 
  62      4855225D 
  62      265148A6 
  63 01d8 540A2914 		.ascii	"T\012)\024R)\244QH\007\3221\215Q\266\014\232\230\216"
  63      5229A451 
  63      4807D231 
  63      8D51B60C 
  63      9A988E
  64 01eb C13E8342 		.ascii	"\301>\203B\026\015\263\30579t\231K\223y\024\362i\310"
  64      160DB3C5 
  64      37397499 
  64      4B937914 
  64      F269C8
  65 01fe D863A44B 		.ascii	"\330c\244Km4$I\364\311\357A\251\277\255\011H\200\227"
  65      6D342449 
  65      F4C9EF41 
  65      A9BFAD09 
  65      488097
  66 0211 732A7BE7 		.ascii	"s*{\347\257\375\326*XU\204\032\375\307[\2615\034\330"
  66      AFFDD62A 
  66      5855841A 
  66      FDC75BB1 
  66      351CD8
  67 0224 749CE4C3 		.ascii	"t\234\344\303~\250\002\272\245\245\352\260\215\232\206"
  67      7EA802BA 
  67      A5A5EAB0 
  67      8D9A86
  68 0233 81138727 		.ascii	"\201\023\207'\007\272zAC\264\273\020\000\007\3200\231"
  68      07BA7A41 
  68      43B4BB10 
  68      0007D030 
  68      99
  69 0244 D34E8183 		.ascii	"\323N\201\203\012\246eKm\253\212q\341\260\270\274\243"
  69      0AA6654B 
  69      6DAB8A71 
  69      E1B0B8BC 
  69      A3
  70 0255 C6A161AE 		.ascii	"\306\241a\256\013\314!\201\021n6*\230\327/Z\217\332"
  70      0BCC2181 
  70      116E362A 
  70      98D72F5A 
ARM GAS  C:\Users\info\AppData\Local\Temp\ccz2UUAb.s 			page 5


  70      8FDA
  71 0267 158C9BDA 		.ascii	"\025\214\233\332\252\272o\263M\303T\272\011sX`\210\034"
  71      AABA6FB3 
  71      4DC354BA 
  71      09735860 
  71      881C
  72 0279 FCA1606A 		.ascii	"\374\241`j\267\015\371\343\025L<\0167\356\333\276:V"
  72      B70DF9E3 
  72      154C3C0E 
  72      37EEDBBE 
  72      3A56
  73 028b C33C1698 		.ascii	"\303<\026\230#\002c!\314Q\3040\362\202\263\313\361\274"
  73      23026321 
  73      CC51C430 
  73      F282B3CB 
  73      F1BC
  74 029d 178A12C8 		.ascii	"\027\212\022\310\007\"\336\017>\177G\023\247!U\275\261"
  74      0722DE0F 
  74      3E7F4713 
  74      A72155BD 
  74      B1
  75 02ae 71A0CB5E 		.ascii	"q\240\313^8*\227\311r\202\217;\003\022\025\373\030\024"
  75      382A97C9 
  75      72828F3B 
  75      031215FB 
  75      1814
  76 02c0 322FB792 		.ascii	"2/\267\222!\276\223\227\004Q\227\350(\357\253\343\303"
  76      21BE9397 
  76      045197E8 
  76      28EFABE3 
  76      C3
  77 02d1 7178F75A 		.ascii	"qx\367Zq\267\253\234[E\353\\X\277\353\353M\360KQ\245"
  77      71B7AB9C 
  77      5B45EB5C 
  77      58BFEBEB 
  77      4DF04B51 
  78 02e6 9876831F 		.ascii	"\230v\203\037w\357q\352,\374.\360\240a\267\023!\311"
  78      77EF71EA 
  78      2CFC2EF0 
  78      A061B713 
  78      21C9
  79 02f8 B4C609D8 		.ascii	"\264\306\011\330$\012\302\340$\024\372x\214\240h\011"
  79      240AC2E0 
  79      2414FA78 
  79      8CA06809 
  80 0308 A52821C5 		.ascii	"\245(!\305\022\177\267+<\303\330\000\226\227\301)\205"
  80      127FB72B 
  80      3CC3D800 
  80      9697C129 
  80      85
  81 0319 A18FC7B1 		.ascii	"\241\217\307\261>(>\\\337\335\300\225B;\306\222\346"
  81      3E283E5C 
  81      DFDDC095 
  81      423BC692 
  81      E6
  82 032a CAA63DD7 		.ascii	"\312\246=\327T\026\203\364p\353\304#\006N\253\314jz"
  82      541683F4 
ARM GAS  C:\Users\info\AppData\Local\Temp\ccz2UUAb.s 			page 6


  82      70EBC423 
  82      064EABCC 
  82      6A7A
  83 033c 8B77DB67 		.ascii	"\213w\333g\316\360\361\0048\203\274\336H\242\023\316"
  83      CEF0F104 
  83      3883BCDE 
  83      48A213CE 
  84 034c C24C24B0 		.ascii	"\302L$\260L\216\027\371qA\325\211\341\332\216U.\305"
  84      4C8E17F9 
  84      7141D589 
  84      E1DA8E55 
  84      2EC5
  85 035e FE643807 		.ascii	"\376d8\007\236\261y\360\311\011\347q7ez||\202p\370I"
  85      9EB179F0 
  85      C909E771 
  85      37657A7C 
  85      7C8270F8 
  86 0373 04FA1303 		.ascii	"\004\372\023\003\022m\364\013\343\015N\014cpb95\366"
  86      126DF40B 
  86      E30D4E0C 
  86      63706239 
  86      35F6
  87 0385 3883DF82 		.ascii	"8\203\337\202\213hp\223\301`\204\310?\001-\324\034t"
  87      8B687093 
  87      C16084C8 
  87      3F012DD4 
  87      1C74
  88 0397 B9855C7E 		.ascii	"\271\205\\~[\261\350\206f\221\333\234'\255\272'\227"
  88      5BB1E886 
  88      6691DB9C 
  88      27ADBA27 
  88      97
  89 03a8 0C9EB855 		.ascii	"\014\236\270U\362\243\2737^Q[r\022\\F\003t\023D\312"
  89      F2A3BB37 
  89      5E515B72 
  89      125C4603 
  89      741344CA 
  90 03bc 9B5ACA58 		.ascii	"\233Z\312Xs)\333\364\224W\014)c)\245\352\373\376e\315"
  90      7329DBF4 
  90      94570C29 
  90      6329A5EA 
  90      FBFE65CD 
  91 03d0 F56A2900 		.ascii	"\365j)\000\256\206\370\376*\272\357\355A\337M\032\375"
  91      AE86F8FE 
  91      2ABAEFED 
  91      41DF4D1A 
  91      FD
  92 03e1 6754A3AF 		.ascii	"gT\243\257\005\215\356\030c\364-Mu\2029\325\177\351"
  92      058DEE18 
  92      63F42D4D 
  92      758239D5 
  92      7FE9
  93 03f3 AA3B0DAA 		.ascii	"\252;\015\252\023\204jrV\227I[\306\032\272e8\273\003"
  93      13846A72 
  93      5697495B 
  93      C61ABA65 
  93      38BB03
ARM GAS  C:\Users\info\AppData\Local\Temp\ccz2UUAb.s 			page 7


  94 0406 25D7BDBB 		.ascii	"%\327\275\273\326LV\022O\304\004{\006\032_\306\222I"
  94      D64C5612 
  94      4FC4047B 
  94      061A5FC6 
  94      9249
  95 0418 766CCEEB 		.ascii	"vl\316\353\352c~H\262\261~;\0274\373>Sn\236j\216e\227"
  95      EA637E48 
  95      B2B17E3B 
  95      1734FB3E 
  95      536E9E6A 
  96 042f CEB25B65 		.ascii	"\316\262[eiUYN\325jc\330\004\353\335Q\213qc\374&H\012"
  96      6955594E 
  96      D56A63D8 
  96      04EBDD51 
  96      8B7163FC 
  97 0446 B30992CA 		.ascii	"\263\011\222\312\271=Lm\336\201[X\233\233aj\263\224"
  97      B93D4C6D 
  97      DE815B58 
  97      9B9B616A 
  97      B394
  98 0458 D6B91D2C 		.ascii	"\326\271\035,\315\2351\245\271\257jN1\247\271G\327|"
  98      CD9D31A5 
  98      B9AF6A4E 
  98      31A7B947 
  98      D77C
  99 046a D7A03925 		.ascii	"\327\2409%X\031C\317\017\250)R\315\245\350\325S\334"
  99      581943CF 
  99      0FA82952 
  99      CDA5E8D5 
  99      53DC
 100 047c 33A4480D 		.ascii	"3\244H\015\332\032\332\343\015\321m\355\213\320\343"
 100      DA1ADAE3 
 100      0DD16DED 
 100      8BD0E3
 101 048b 117DBC1F 		.ascii	"\021}\274\037\315\307\376\240\217\177\217\361\361\241"
 101      CDC7FEA0 
 101      8F7F8FF1 
 101      F1A1
 102 0499 2A32CD9C 		.ascii	"*2\315\234\310\007\272\310\177\014\"\323\"t\270=\330"
 102      C807BAC8 
 102      7F0C22D3 
 102      2274B83D 
 102      D8
 103 04aa A78FD45C 		.ascii	"\247\217\324\\\211\346r\015\350\271\036\032r%F\350\323"
 103      89E6720D 
 103      E8B91E1A 
 103      722546E8 
 103      D3
 104 04bb 63D10D1D 		.ascii	"c\321\015\035\214l\250#\254\241\217\242\031\3728h\350"
 104      8C6CA823 
 104      ACA18FA2 
 104      19FA3868 
 104      E8
 105 04cc D018439F 		.ascii	"\320\030C\237\252\"\223\314\211|\242\213\0346\210L\212"
 105      AA2293CC 
 105      897CA28B 
 105      1C36884C 
ARM GAS  C:\Users\info\AppData\Local\Temp\ccz2UUAb.s 			page 8


 105      8A
 106 04dd D498236A 		.ascii	"\324\230#j\212ds)\236\352)F\014)\222#4\346\265\350>"
 106      8A647329 
 106      9EEA2946 
 106      0C299223 
 106      34E6B5E8 
 107 04f2 3EFBBF3E 		.ascii	">\373\277>>\217\346\343\213\240\217/\307\370\370L\025"
 107      3E8FE6E3 
 107      8BA08F2F 
 107      C7F8F84C 
 107      15
 108 0503 39C59CC8 		.ascii	"9\305\234\310W\272\310\327\006\221S\"4\246#\364\321"
 108      57BAC8D7 
 108      06915322 
 108      34A623F4 
 108      D1
 109 0514 6B51F28E 		.ascii	"kQ\362\216j\317\374ic\037g\311!\347\217\":Z\377L\247"
 109      6ACFFC69 
 109      631F67C9 
 109      21E78F22 
 109      3A5AFF4C 
 110 0529 E6495E9E 		.ascii	"\346I^\236\016\377\032\351XaT\320\021\207\3137H\247"
 110      0EFF1AE9 
 110      586154D0 
 110      1187CB37 
 110      48A7
 111 053b 078AE53C 		.ascii	"\007\212\345<q\000\307C/.-R\265\341\021Md\3120'1\240"
 111      7100C743 
 111      2F2E2D52 
 111      B5E1114D 
 111      64CA3027 
 112 0551 4B94A5D0 		.ascii	"K\224\245\320_\227\214\010\373\2412.|\035'\007\360\254"
 112      5F978C08 
 112      FBA1322E 
 112      7C1D2707 
 112      F0AC
 113 0563 C6A04812 		.ascii	"\306\240H\022u$\220\017m\"RC\247\207\343\025V\323CY"
 113      7524900F 
 113      6D225243 
 113      A787E315 
 113      56D34359 
 114 0577 8557CAA0 		.ascii	"\205W\312\240X\"V\342H\354EV}\340}Q:GYa\206\262\310"
 114      582256E2 
 114      48EC4556 
 114      7DE07D51 
 114      3A475961 
 115 058e BAF2728B 		.ascii	"\272\362r\213\362\363u\010\240D\362 3kTZ>\205\026.@"
 115      F2F37508 
 115      A044F220 
 115      336B545A 
 115      3E85162E 
 116 05a3 ACFAF1F4 		.ascii	"\254\372\361\364\277:\202\016O\000\177@\031\224JZ?V"
 116      BF3A820E 
 116      4F007F40 
 116      19944A5A 
 116      3F56
 117 05b5 0F7AB780 		.ascii	"\017z\267\200r\240\230\013\313$\017z\355\303_5\241\354"
ARM GAS  C:\Users\info\AppData\Local\Temp\ccz2UUAb.s 			page 9


 117      72A0980B 
 117      CB240F7A 
 117      EDC35F35 
 117      A1EC
 118 05c7 CC5EB5B2 		.ascii	"\314^\265\262Y\346\374.\223\202~\227\033\374\316\012"
 118      59E6FC2E 
 118      93827E97 
 118      1BFCCE0A 
 119 05d7 BB35BD1B 		.ascii	"\2735\275\033J\007\017\345*9\262\225\006*\335\321}\336"
 119      4A070FE5 
 119      2A39B295 
 119      062ADDD1 
 119      7DDE
 120 05e9 AEFC959D 		.ascii	"\256\374\225\235\013\025\250\275\007$\275\017\262\225"
 120      0B15A8BD 
 120      0724BD0F 
 120      B295
 121 05f7 3E38A7F2 		.ascii	">8\247\362\3121\307\353{\235\327r\003\257\234\010\373"
 121      CA31C7EB 
 121      7B9DD772 
 121      03AF9C08 
 121      FB
 122 0608 B92E7A1F 		.ascii	"\271.z\037\254\010\323\007\315Z\037\344\232\353\203"
 122      AC08D307 
 122      CD5A1FE4 
 122      9AEB83
 123 0617 957A1FAC 		.ascii	"\225z\037\2542\364A\036.b\252\360\225Z\341\363\264\302"
 123      32F4411E 
 123      2E62AAF0 
 123      955AE1F3 
 123      B4C2
 124 0629 1F885EF8 		.ascii	"\037\210^\370*\225\270\250t\266V\351\372V\255\322\371"
 124      2A95B8A8 
 124      74B656E9 
 124      FA56ADD2 
 124      F9
 125 063a E61CFD41 		.ascii	"\346\034\375Aw\364G\203\243\371\021\036\036N\361\317"
 125      77F44783 
 125      A3F9111E 
 125      1E4EF1CF 
 126 064a 949E1EE2 		.ascii	"\224\236\036\342\217\347\003(\246\023\036m\370'x\224"
 126      8FE70328 
 126      A6131E6D 
 126      F8277894 
 127 065a 4523A5E5 		.ascii	"E#\245\345#K\010c\251\035\371\222>\321\"\2146\021\035"
 127      234B0863 
 127      A91DF992 
 127      3ED1228C 
 127      36111D
 128 066d 22DAE99F 		.ascii	"\"\332\351\237.\320:\230\372\335\314\314\217\277\233"
 128      2ED03A98 
 128      FADDCCCC 
 128      8FBF9B
 129 067c 3D3FBB60 		.ascii	"=?\273`\336\242\205\363\360j\311\354\202\317\013\026"
 129      DEA285F3 
 129      F06AC9EC 
 129      82CF0B16 
ARM GAS  C:\Users\info\AppData\Local\Temp\ccz2UUAb.s 			page 10


 130 068c 7DB66056 		.ascii	"}\266`Vn\356\254\314y\314B3\374\233E\363\355\237.\234"
 130      6EEEACCC 
 130      79CC4233 
 130      FC9B45F3 
 130      ED9F2E9C 
 131 06a0 5FF0D582 		.ascii	"_\360\325\202\305\342\363\333\305\0139\276\377\003\226"
 131      C5E2F3DB 
 131      C50B39BE 
 131      FF0396
 132 06af EF70F7   		.ascii	"\357p\367"
 133              		.text
 134              		.section	.gnu.lto_u8x8_sbn1661_122x32_display_info.792a363a,"",%progbits
 135 0000 789C25CC 		.ascii	"x\234%\314\275N\002A\030\205\34193\273\010\002\013\032"
 135      BD4E0241 
 135      1885E139 
 135      33BB0802 
 135      0B1A
 136 0012 4B0A2F83 		.ascii	"K\012/\203;\361\016\270\216-\300P\033\013C\\cb\341/"
 136      3BF10EB8 
 136      8E2DC050 
 136      1B0B435C 
 136      6362E12F 
 137 0026 B22E4402 		.ascii	"\262.D\002\261\321\030%(\005t\024V\022b\201\211$D\243"
 137      B1D11825 
 137      28057414 
 137      56126281 
 137      892444A3 
 138 003a 28618EDF 		.ascii	"(a\216\3374\357<\363\3639\012\212\253`#;\245\3764\246"
 138      34EF3CF3 
 138      F3390A8A 
 138      AB60233B 
 138      A5FE34A6 
 139 004e BDCAAB37 		.ascii	"\275\312\2537\323%\243\260i\371P~\367\323\302\037^\327"
 139      D325A3B0 
 139      69F9507E 
 139      F7D3C21F 
 139      5ED7
 140 0060 26ADEF7F 		.ascii	"&\255\357\177\003d\277\030\356\033\241c9\370x\016\222"
 140      0364BF18 
 140      EE1BA163 
 140      39F8780E 
 140      92
 141 0071 C2ACE55E 		.ascii	"\302\254\345^q0\326\302\016\254_\242(pi\015\177g\306"
 141      7130D6C2 
 141      0EAC5FA2 
 141      2870690D 
 141      7F67C6
 142 0084 93DBAF9B 		.ascii	"\223\333\257\233IF^<q\336\374mw\010q\312r4\257\266="
 142      49465E3C 
 142      71DEFC6D 
 142      770871CA 
 142      7234AFB6 
 143 0099 61CCB271 		.ascii	"a\314\262q\377\270\035\027\362\363\3647h&\204\033\226"
 143      FFB81D17 
 143      F2F3F437 
 143      6826841B 
 143      96
ARM GAS  C:\Users\info\AppData\Local\Temp\ccz2UUAb.s 			page 11


 144 00aa DDA3CF3B 		.ascii	"\335\243\317;W8\342\254\203qw+\177\355\227\017\375\320"
 144      5738E2AC 
 144      8371772B 
 144      7FED970F 
 144      FDD0
 145 00bc 2D19B3D0 		.ascii	"-\031\263\320\012\247\310-4p\305h\324\031\203\210q\344"
 145      0AA7C82D 
 145      3470C568 
 145      D4198388 
 145      71E4
 146 00ce D045C8C4 		.ascii	"\320E\310\304PcVp\311\304Qe\022\362}\025gL\022\027L"
 146      50635670 
 146      C9C45165 
 146      12F27D15 
 146      674C1217 
 147 00e3 4A92C639 		.ascii	"J\222\3069\343\311]F^f%k8a\326q\214\234B\003y\265\004"
 147      E3C95D46 
 147      5E66256B 
 147      3861D671 
 147      8C9C4203 
 148 00fa 268E7AAD 		.ascii	"&\216z\255"
 149              		.text
 150              		.section	.gnu.lto_u8x8_d_sbn1661_init_seq.792a363a,"",%progbits
 151 0000 789C2DCC 		.ascii	"x\234-\314\277\017\301@\024\007\360{\275j\015R\023\323"
 151      BF0FC140 
 151      1407F07B 
 151      BD6A0D52 
 151      13D3
 152 0012 FD1358FA 		.ascii	"\375\023X\372\347u\320\370\265t\263\030\014\225*JUB"
 152      E775D0F8 
 152      B574B318 
 152      0C952A4A 
 152      5542
 153 0024 D2184462 		.ascii	"\322\030Db0\372\013\014\272ZhBB\325\273\274^\362\315"
 153      30FA0B0C 
 153      BA5A6842 
 153      42D5BBBC 
 153      5EF2CD
 154 0037 BB4FDEF7 		.ascii	"\273O\336\367Ne\300\344\251\343\240\033c\231\002+;\361"
 154      4E65C0E4 
 154      A9E3A01B 
 154      6399022B 
 154      3BF1
 155 0049 CBA96273 		.ascii	"\313\251bs\0069\240\343\336\256\257\222}\351\264o\277"
 155      0639A0E3 
 155      DEAEAF92 
 155      7DE9B46F 
 155      BF
 156 005a B834808E 		.ascii	"\2704\200\216\274y\277\241F\353\0322\371\004\261A[\015"
 156      BC79BFA1 
 156      46EB1A32 
 156      F904B141 
 156      5B0D
 157 006c 39889E93 		.ascii	"9\210\236\223\022m]\371\370\354\306\337\012\255K\310"
 157      126D5DF9 
 157      F8ECC6DF 
 157      0AAD4BC8 
ARM GAS  C:\Users\info\AppData\Local\Temp\ccz2UUAb.s 			page 12


 158 007c 4B3B1C15 		.ascii	"K;\034\025\177\251\310\354\3528:\265\307\262}|\204^"
 158      7FA9C8EC 
 158      EA383AB5 
 158      C7B27D7C 
 158      845E
 159 008e D1E6C853 		.ascii	"\321\346\310S\376:T\211\0122\334\267\357\006\265\017"
 159      FE3A5489 
 159      0A32DCB7 
 159      EF06B50F 
 160 009e B2DD79EF 		.ascii	"\262\335y\357}\303\334Z\335\261\345p\233+\320\0200\003"
 160      7DC3DC5A 
 160      DDB1E570 
 160      9B2BD010 
 160      3003
 161 00b0 014D0111 		.ascii	"\001M\001\021\2165\020C\314\012\263,\034`\026\230ya"
 161      8E351043 
 161      CC0AB32C 
 161      1C601698 
 161      7961
 162 00c2 1F33C5B4 		.ascii	"\0373\305\264\004x \030l\300d\177Z\264[\321"
 162      04782018 
 162      6CC0647F 
 162      5AB45BD1 
 163              		.text
 164              		.section	.gnu.lto_u8x8_d_sbn1661_powersave0_seq.792a363a,"",%progbits
 165 0000 789C6361 		.ascii	"x\234ca`d\000\201l \206\260\030\030\37621\256o}\262"
 165      60640081 
 165      6C2086B0 
 165      1818FE32 
 165      31AE6F7D 
 166 0015 92E30B53 		.ascii	"\222\343\013S+3\003\343\177F \377\350\377\357\007\370"
 166      2B3303E3 
 166      7F4620FF 
 166      E8FFEF07 
 166      F8
 167 0026 417C4646 		.ascii	"A|FF& w\322\357\323\323\270 \322\353A\322\217\227\377"
 167      262077D2 
 167      EFD3D3B8 
 167      20D2EB41 
 167      D28F97FF 
 168 003a 9BCE06E1 		.ascii	"\233\316\006\341\213\202\270\023\266n\344\267\330\326"
 168      8B82B813 
 168      B66EE4B7 
 168      D8D6
 169 0048 D0B1A0C1 		.ascii	"\320\261\240\301\240\225\231\211\321P\206q\025\243\014"
 169      A0959989 
 169      D1508671 
 169      15A30C
 170 0057 A3910CE3 		.ascii	"\243\221\014\343J \265\002\210\2273\31200\256f\264`"
 170      4A20B502 
 170      889733CA 
 170      3030AE66 
 170      B460
 171 0069 000025F3 		.ascii	"\000\000%\363$\372"
 171      24FA
 172              		.text
 173              		.section	.gnu.lto_u8x8_d_sbn1661_powersave1_seq.792a363a,"",%progbits
ARM GAS  C:\Users\info\AppData\Local\Temp\ccz2UUAb.s 			page 13


 174 0000 789C6361 		.ascii	"x\234ca`d\000\201l \206\260\030\030\37621\256o}\262"
 174      60640081 
 174      6C2086B0 
 174      1818FE32 
 174      31AE6F7D 
 175 0015 92E30B53 		.ascii	"\222\343\013S+3\003\343\177F \377\350\377\357\007\370"
 175      2B3303E3 
 175      7F4620FF 
 175      E8FFEF07 
 175      F8
 176 0026 417C4646 		.ascii	"A|FF& \367\324\306k\007\241\322\353@\322\217\227\377"
 176      2620F7D4 
 176      C66B07A1 
 176      D2EB40D2 
 176      8F97FF
 177 0039 9BCE06E1 		.ascii	"\233\316\006\341\213\002\271\213\267\274:\314n\261\255"
 177      8B02B98B 
 177      B7BC3ACC 
 177      6EB1AD
 178 0048 A1634183 		.ascii	"\241cA\203A+3\023\243\241\014\343*F\031F#\031\306\225"
 178      412B3313 
 178      A3A10CE3 
 178      2A461946 
 178      2319C695 
 179 005c 406A0510 		.ascii	"@j\005\020/g\224a`\\\315h\301\000\0004\200%>"
 179      2F679461 
 179      605CCD68 
 179      C1000034 
 179      80253E
 180              		.text
 181              		.section	.gnu.lto_u8x8_d_sed1520_122x32.792a363a,"",%progbits
 182 0000 789C6591 		.ascii	"x\234e\221\301KTQ\024\306\317w\317\233y:5CK\241!t\323"
 182      C14B5451 
 182      14C6CF77 
 182      CF9B793A 
 182      35434BA1 
 183 0017 A08B410D 		.ascii	"\240\213A\015\304\376\004\267\255\213!\307\030\\$1c"
 183      C4FE04B7 
 183      AD8B21C7 
 183      185C2431 
 183      63
 184 0028 D06E6E3E 		.ascii	"\320nn>\037\266\250pcD\010\011\"\226e\216\206\213\001"
 184      1FB6A870 
 184      63440809 
 184      2296658E 
 184      868B01
 185 003b 17238288 		.ascii	"\027#\202\210\251 \012!ZJ\021JE5R\270\232\246s\236\323"
 185      A9200A21 
 185      5A4A114A 
 185      453552B8 
 185      9AA6739E 
 186 0050 A62E5CCE 		.ascii	"\246.\\\3169\227\373\373\316w\317u\010\244\353\275\204"
 186      3997FBFB 
 186      CE77CF75 
 186      08A4EBBD 
 186      84
 187 0061 CB12CFCB 		.ascii	"\313\022\317\313\006\023\314\360\006\321\335:\003hb"
ARM GAS  C:\Users\info\AppData\Local\Temp\ccz2UUAb.s 			page 14


 187      0613CCF0 
 187      06D1DD3A 
 187      036862
 188 0070 EB407983 		.ascii	"\353@y\203<~\231\212\301\233\223\225\373\221\346Ik\007"
 188      3C7E998A 
 188      C19B9395 
 188      FB91E649 
 188      6B07
 189 0082 ECC1C497 		.ascii	"\354\301\304\227\256\362\200\337\3403Q\325\020.\305"
 189      AEF280DF 
 189      E03351D5 
 189      102EC5
 190 0091 D11A5789 		.ascii	"\321\032W\211I4\313\315\315\301\302(\3774>\003\216\224"
 190      4934CBCD 
 190      CDC1C228 
 190      FF343E03 
 190      8E94
 191 00a3 E5F5271F 		.ascii	"\345\365'\037cZ\0324J9\266=\276\027\346&\220\344\217"
 191      635A1A34 
 191      4A39B63D 
 191      BE17E626 
 191      90E48F
 192 00b6 56B7BF45 		.ascii	"V\267\277E\023\023\252i\237\336\260\365>3\246\300\252"
 192      1313AA69 
 192      9FDEB0F5 
 192      3E33A6C0 
 192      AA
 193 00c7 F91C713C 		.ascii	"\371\034q<C\234\344\210\360\002\011\271\275V(\276u\370"
 193      439CE488 
 193      F00209B9 
 193      BD5628BE 
 193      75F8
 194 00d9 62409E2C 		.ascii	"b@\236,,U\376\222\273\327,\213\025\274<%O\335\2507L"
 194      2C55FE92 
 194      BBD72C8B 
 194      15BC3C25 
 194      4FDDA837 
 195 00ee 07DCE3CD 		.ascii	"\007\334\343\315\203\007\021n\011\270\321O\337wB5nd"
 195      8307116E 
 195      09B8D14F 
 195      DF774235 
 195      6E64
 196 0100 F98C6D55 		.ascii	"\371\214mU\360\325\177\340L\000\356\034\256oE\270=\000"
 196      F0D57FE0 
 196      4C00EE1C 
 196      AE6F45B8 
 196      3D00
 197 0112 A7E6F7E7 		.ascii	"\247\346\367\347\334\032\270\265|\326\016\303g\007\205"
 197      DC1AB8B5 
 197      7CD60EC3 
 197      670785
 198 0121 7FCD3A84 		.ascii	"\177\315:\204Y$\024\3700\373{$\032\036\264\262\032u"
 198      592414F8 
 198      30FB7B24 
 198      1A1EB4B2 
 198      1A75
 199 0133 4AA23A87 		.ascii	"J\242:\207\260\316}\346J\311V\253\236-\275\213-\036"
ARM GAS  C:\Users\info\AppData\Local\Temp\ccz2UUAb.s 			page 15


 199      B0CE7DE6 
 199      4AC956AB 
 199      9E2DBD8B 
 199      2D1E
 200 0145 C774DAF2 		.ascii	"\307t\332\362>\031\226\270u\240\255CP\0217\260B?\004"
 200      3E1996B8 
 200      75A0AD43 
 200      501137B0 
 200      423F04
 201 0158 D5DF281B 		.ascii	"\325\337(\033\243\221\2170T\332\177\030U1\217]iT,~\335"
 201      A3918F30 
 201      54DA7F18 
 201      55318F5D 
 201      69542C7E 
 202 016d 75F3157B 		.ascii	"u\363\025{\317\332s>\207\252Fz\3405\362\344\261\361"
 202      CFDA733E 
 202      87AA467A 
 202      E035F2E4 
 202      B1F1
 203 017f 983D763C 		.ascii	"\230=v<\016\371\034\246\31705\212\002]\250\236\250_"
 203      0EF91CA6 
 203      CF30358A 
 203      025DA89E 
 203      A85F
 204 0191 4826AFDE 		.ascii	"H&\257\336\356\314\264\247\322\271lZ\262;\235\251\236"
 204      EECCB4A7 
 204      D2B96C5A 
 204      B23B9DA9 
 204      9E
 205 01a2 54AEBBAF 		.ascii	"T\256\273\257\255\243\243-\231&GO\370f.\343^\317fR\275"
 205      ADA3A32D 
 205      9926474F 
 205      F8662EE3 
 205      5ECF6652 
 206 01b7 7DFD41BC 		.ascii	"}\375A\274\325\237\375\003\352\014\255\304"
 206      D59FFD03 
 206      EA0CADC4 
 207              		.text
 208              		.section	.gnu.lto_.symbol_nodes.792a363a,"",%progbits
 209 0000 789C55D0 		.ascii	"x\234U\320\275\012\3020\024\206\341\357$ik;:;\350\225"
 209      BD0AC230 
 209      1486E1EF 
 209      24696B3B 
 209      3A3BE895 
 210 0014 A6835854 		.ascii	"\246\203XTP\261\240`AA:\271\366\026:\212\2137\320B\351"
 210      50B1A060 
 210      41413AB9 
 210      F6163A8A 
 210      8B37D042 
 211 0029 0D741793 		.ascii	"\015t\027\223\234\010vzxO\376 \012\2045\001\020J\003"
 211      9C08767A 
 211      784FFE20 
 211      0A843501 
 211      104A03
 212 003c 87176078 		.ascii	"\207\027`x\244\013 \220H\247\200\014@,\011VH\247\010"
 212      A40B2090 
 212      48A7800C 
ARM GAS  C:\Users\info\AppData\Local\Temp\ccz2UUAb.s 			page 16


 212      402C0956 
 212      48A708
 213 004f 348D0E50 		.ascii	"4\215\016P\242\205\033\000i:7\035k9\352\211V\243\216"
 213      A2851B00 
 213      693A371D 
 213      6B39EA89 
 213      56A38E
 214 0062 7430EA50 		.ascii	"t0\352P\207\377-\221\240kf\0221\312\3260\301r\365\224"
 214      87FF2D91 
 214      A06B6612 
 214      31CAD630 
 214      C172F594 
 215 0076 D6326397 		.ascii	"\3262c\227\333\236\\\357\330z\317vGk\204\356d\367E\250"
 215      DB9E5CEF 
 215      D87ACF76 
 215      476B84EE 
 215      64F745A8 
 216 008a CFD610DD 		.ascii	"\317\326\020\335\331w\301\226W\236\327F\005\014\355"
 216      D977C196 
 216      579ED746 
 216      050CED
 217 0099 0C86B779 		.ascii	"\014\206\267y\305\232g\354\360s\323\223[\337\262\371"
 217      C59A67EC 
 217      F073D393 
 217      5BDFB2F9 
 218 00a9 8E1DBCD5 		.ascii	"\216\035\274\325\336\317\217~\237\267\312}\237\370\236"
 218      DECF8F7E 
 218      9FB7CA7D 
 218      9FF89E
 219 00b8 EAE22DFC 		.ascii	"\352\342-\374;7\243\371f\334\233\017\341\013\217\213"
 219      3B37A3F9 
 219      66DC9B0F 
 219      E10B8F8B 
 220 00c8 5C9A     		.ascii	"\\\232"
 221              		.text
 222              		.section	.gnu.lto_.refs.792a363a,"",%progbits
 223 0000 789C6361 		.ascii	"x\234ca`d\220````g`bdfb\342`b\342eb\026ab\226db\221"
 223      60649060 
 223      60606067 
 223      60626466 
 223      62E26062 
 224 001e 63625166 		.ascii	"cbQf\000\000\011p\000\314"
 224      00000970 
 224      00CC
 225              		.text
 226              		.section	.gnu.lto_.decls.792a363a,"",%progbits
 227 0000 789CBD58 		.ascii	"x\234\275XkP\024Y\226\256\233\267\200\242\252@\005\354"
 227      6B501459 
 227      96AE9BB7 
 227      80A2AA40 
 227      05EC
 228 0012 3626981E 		.ascii	"6&\230\036\267\233Q&b\206\021\354\261\215\375\325\035"
 228      B79B5126 
 228      628611EC 
 228      B18DFDD5 
 228      1D
 229 0023 BDB133B1 		.ascii	"\275\2613\2613\261\021\263\263\335\023\261KDuQUH\355"
ARM GAS  C:\Users\info\AppData\Local\Temp\ccz2UUAb.s 			page 17


 229      33B111B3 
 229      B3DD13B1 
 229      4B447551 
 229      5548ED
 230 0036 40553555 		.ascii	"@U5U\370\230_\211 \322\340\003hE\005\035\036\276@@\021"
 230      F8985F89 
 230      20D2E003 
 230      6845051D 
 230      1EBE4040 
 231 004b 1044A0A9 		.ascii	"\020D\240\251\305\307\330\015(\362R\004\004Q\024Q\220"
 231      C5C7D80D 
 231      28F25204 
 231      04511451 
 231      90
 232 005c 87422B02 		.ascii	"\207B+\002{\356\275Y\225Y\230\364\304F\354l\351!\363"
 232      7BEEBD59 
 232      955998F4 
 232      C446EC6C 
 232      E921F3
 233 006f DCFBE539 		.ascii	"\334\373\3459\3379\367\334G\246R\201\024\344\367\351"
 233      DF39F7DC 
 233      47A65281 
 233      14E4F7E9 
 234 007f 8F158A6D 		.ascii	"\217\025\212m^\012\205\203S(\026\341\347\003m\237+\304"
 234      5E0A8583 
 234      532816E1 
 234      E7036D9F 
 234      2BC4
 235 0091 1FD13F01 		.ascii	"\037\321?\001\350\247 \277\003\3717\220?\202\374'\310"
 235      E8A720BF 
 235      03F93790 
 235      3F82FC27 
 235      C8
 236 00a2 17204AE8 		.ascii	"\027 J\350\217\202\253\031\304\012\362%Rx\374\310\263"
 236      8F82AB19 
 236      C40AF225 
 236      5278FCC8 
 236      B3
 237 00b3 EFC1B502 		.ascii	"\357\301\265\002$\000$\010\344'\320\366\031\\\177\015"
 237      24002408 
 237      E427D0F6 
 237      195C7F0D 
 238 00c3 D7089060 		.ascii	"\327\010\220`\301g<\334\257\001y\027D\007b\007\371\017"
 238      C1673CDC 
 238      AF017917 
 238      44076207 
 238      F90F
 239 00d5 90B520E1 		.ascii	"\220\265 \341 \033A\034 \011 1 \237\203l\005\261\200"
 239      201B411C 
 239      20092031 
 239      209F836C 
 239      05B180
 240 00e8 A480EC02 		.ascii	"\244\200\354\002\331\015\362{\220T\220\337\202`\260"
 240      D90DF27B 
 240      905490DF 
 240      8260B0
 241 00f7 FB115C13 		.ascii	"\373\021\\\023Ax\020o\201\323\027B\014\177\024b\"\261"
ARM GAS  C:\Users\info\AppData\Local\Temp\ccz2UUAb.s 			page 18


 241      4178106F 
 241      81D31742 
 241      0C7F1462 
 241      22B1
 242 0109 F942DF57 		.ascii	"\371B\337WpM\003I\007\331\003\262\027\375p|QB\016\326"
 242      704D0349 
 242      07D903B2 
 242      17FD707C 
 242      51420ED6 
 243 011d 29581CEB 		.ascii	")X\034\353\025\214\177 \\\275I\037\010\007\342\003\242"
 243      158C7F20 
 243      5CBD491F 
 243      0807E203 
 243      A2
 244 012e 025909B2 		.ascii	"\002Y\011\262\010}\230`@\264 \032\342\033\304\017d\025"
 244      087D9860 
 244      40B4201A 
 244      E21BC40F 
 244      6415
 245 0140 B10FA206 		.ascii	"\261\017\242\006\361\002A \376K|\272~f!\276`!\2571\313"
 245      F1024120 
 245      FE4B7CBA 
 245      7E6621BE 
 245      6021AF31 
 246 0155 E0C8CFBA 		.ascii	"\340\310\317\272\004k\371\001\354\227\377\013,\251\013"
 246      046BF901 
 246      EC97FF0B 
 246      2CA90B
 247 0164 522372E3 		.ascii	"R#r\343\033!\214\031\371q\002\366\023\031[\363\034J"
 247      1B218C19 
 247      F97102F6 
 247      13195BF3 
 247      1C4A
 248 0176 1A1ACD57 		.ascii	"\032\032\315W\365\242\036\010\027\321\237B\250O\222"
 248      F5A21E08 
 248      17D19F42 
 248      A84F92
 249 0185 00245C15 		.ascii	"\000$\\\025B>\340/G\377*\\(\267QD\377\301\177\216\342"
 249      423EE02F 
 249      47FF2A5C 
 249      28B75144 
 249      FFC17F8E 
 250 019a 91A4C303 		.ascii	"\221\244\303\003Gk\235\376\304&\344\376\271\220\310"
 250      476B9DFE 
 250      C426E4FE 
 250      B990C8
 251 01a9 D328A223 		.ascii	"\323(\242#\351RA\347\304\007$\366\004\366\202\177$u"
 251      E95241E7 
 251      C40724F6 
 251      04F6827F 
 251      2475
 252 01bb 4B4D6357 		.ascii	"KMcW\320\375\363\251\037a0\011\267\003\257\212\3769"
 252      D0FDF3A9 
 252      1F613009 
 252      B703AF8A 
 252      FE39
 253 01cd AC94875F 		.ascii	"\254\224\207_\006\317s\233\305\304\234-\235+W+!\\\364"
ARM GAS  C:\Users\info\AppData\Local\Temp\ccz2UUAb.s 			page 19


 253      06CF739B 
 253      C5C49C2D 
 253      9D2B572B 
 253      215CF4
 254 01e0 99164529 		.ascii	"\231\026E)I\323\271]\017\213U/8\024\254F\213\210\350"
 254      49D3B95D 
 254      0F8B552F 
 254      3814AC46 
 254      8B88E8
 255 01f3 CF6A5FF9 		.ascii	"\317j_\3711\235tW9\247\313\224\370\037\310=w\253\262"
 255      319D7457 
 255      39A7CB94 
 255      F81FC83D 
 255      77ABB2
 256 0206 E7AA2F0A 		.ascii	"\347\252/\012U\237\"\226\007k^~\222\304\363\010\235"
 256      559F2296 
 256      076B5E7E 
 256      92C4F308 
 256      9D
 257 0217 436A5486 		.ascii	"CjT\2060*Fa\204S\260\032\376\246\362\374N~\242\220\367"
 257      302A4661 
 257      8453B01A 
 257      FEA6F2FC 
 257      4E7EA290 
 258 022c 5EA3401B 		.ascii	"^\243@\033\203\321\206`\005:\213B\211M\202B\245(\030"
 258      83D18660 
 258      053A8B42 
 258      894D8242 
 258      A52818
 259 023f 95A06062 		.ascii	"\225\240`b\2778\257\350\212\037>\213\250\203\261\003"
 259      BF38AFE8 
 259      8A1F3E8B 
 259      A883B103 
 260 024f 4F53B1DB 		.ascii	"OS\261\333A\177zp\011\317\257D\025\340\240\\t\000\376"
 260      417F7A70 
 260      09CFAF44 
 260      15E0A05C 
 260      7400FE
 261 0262 E43D9C97 		.ascii	"\344=\234\227\367\320\233r\272YCc&\206\316 \032u\327"
 261      F7D09B72 
 261      BA594363 
 261      2686CE20 
 261      1A75D7
 262 0275 9D7B5DBE 		.ascii	"\235{]\276\356\306J\326x+\271\374(\206\320\003\324H"
 262      EEC64AD6 
 262      782BB9FC 
 262      2886D003 
 262      D448
 263 0287 09EA646B 		.ascii	"\011\352dk\316\003\177P\203\324h-\250\271\323\375O|"
 263      CE037F50 
 263      83D4682D 
 263      A8B9D3FD 
 263      4F7C
 264 0299 596F28A8 		.ascii	"Yo(\250\343\311\303\203\032\326\273\006T~$9\217\303"
 264      E3C9C383 
 264      1AD6BB06 
 264      547E2439 
ARM GAS  C:\Users\info\AppData\Local\Temp\ccz2UUAb.s 			page 20


 264      8FC3
 265 02ab 652CFFED 		.ascii	"e,\377\355\023-\307\204\276\225\2406\216d6\252p=\353"
 265      132DC784 
 265      BE95A036 
 265      8E6436AA 
 265      703DEB
 266 02be 6B3B3D76 		.ascii	"k;=v\333\037w2e$\277\261B\205\2373\245\350\321\321}"
 266      DB1F7732 
 266      6524BFB1 
 266      42859F33 
 266      A5E8D1D1 
 267 02d3 5AF6D466 		.ascii	"Z\366\324f\211\373\000\346\376\2403\353\215\032\317"
 267      89FB00E6 
 267      FEA033EB 
 267      8D1ACF
 268 02e2 31685D4D 		.ascii	"1h]M\3755/\006\335\000\352\267\265C\033p\012\246].\232"
 268      FD352F06 
 268      DD00EAB7 
 268      B5431B70 
 268      0AA65D2E 
 269 02f7 418CE64C 		.ascii	"A\214\346Lsg?\306\007Y\337\376\246\206\313*\\\300\224"
 269      73673FC6 
 269      0759DFFE 
 269      A686CB2A 
 269      5CC094
 270 030a 6B7D77BB 		.ascii	"k}w\273\224\270\214)\211\015\227+\375p\023S\256.\316"
 270      94B88C29 
 270      890D972B 
 270      FD701353 
 270      AE2ECE
 271 031d 3A5730CF 		.ascii	":W0\317\034\250\363\225\225\227\021nf}'_\317M\220\034"
 271      1CA8F395 
 271      9597116E 
 271      667D275F 
 271      CF4D901C 
 272 0331 AD837259 		.ascii	"\255\203rY\304\222zY\307\352\245\261\371\333SZ\334I"
 272      C4927A59 
 272      C7EAA5B1 
 272      F9DB535A 
 272      DC49
 273 0343 C15C7BD3 		.ascii	"\301\\{\323\341y\015R\207\322\301\342\223xu\250\002"
 273      E1790D52 
 273      87D2C1E2 
 273      937875A8 
 273      02
 274 0354 5D8291B9 		.ascii	"]\202\221\271\016#\203n\300p\255\023\206\253\031\032"
 274      0E23836E 
 274      C070AD13 
 274      86AB191A 
 275 0364 BF8346A1 		.ascii	"\277\203F\241\262\306\376\205VV+\014M\2138\360\353\324"
 275      B2C6FE85 
 275      56562B0C 
 275      4D8B38F0 
 275      EBD4
 276 0376 AC88BFC9 		.ascii	"\254\210\277\311\354}\244\306\003\314\305\211\007|\235"
 276      EC7DA4C6 
 276      03CCC589 
ARM GAS  C:\Users\info\AppData\Local\Temp\ccz2UUAb.s 			page 21


 276      077C9D
 277 0385 723917B7 		.ascii	"r9\027\267\226u\321\237\276\256\224\324V\033\270\270"
 277      9675D19F 
 277      BEAE94D4 
 277      561BB8B8 
 278 0395 29BA6845 		.ascii	")\272hE\202\017\327\350\006\260\321}\224V<\251\305#"
 278      820FD7E8 
 278      06B0D17D 
 278      94563CA9 
 278      C523
 279 03a7 2C05C7BA 		.ascii	",\005\307\272\2062|\325B\001f\374\355\002\314\271\232"
 279      86327CD5 
 279      420166FC 
 279      ED02CCB9 
 279      9A
 280 03b8 DAE4A54D 		.ascii	"\332\344\245M#\370\214$>\3407\250\023\234VC\377\005"
 280      23F88C24 
 280      3EE037A8 
 280      139C5643 
 280      FF05
 281 03ca E857A02E 		.ascii	"\350W\240.\244\025fg\362\350\3611\204\307\230\227\376"
 281      A4156667 
 281      F2E8F131 
 281      84C79897 
 281      FE
 282 03db EBC52524 		.ascii	"\353\305%$\321\353I\242\027\027WHR\275\236\245\272}"
 282      D1EB49A2 
 282      17175748 
 282      52BD9EA5 
 282      BA7D
 283 03ed FFD4091F 		.ascii	"\377\324\011\037<\313\362P\222\371\264]27OjkIx\275\340"
 283      3CCBF250 
 283      92F9B45D 
 283      32374F6A 
 283      6B4978BD 
 284 0402 A9470C6F 		.ascii	"\251G\014o\275{\346P\"\0127\013t\027\250\257\027\250"
 284      BD7BE650 
 284      220A370B 
 284      7417A8AF 
 284      17A8
 285 0414 DF81C6DB 		.ascii	"\337\201\306\333\302\354<\221Y\350\215w*\251\2133go"
 285      C2EC3C91 
 285      59E88D77 
 285      2AA98B33 
 285      676F
 286 0426 5EF371A5 		.ascii	"^\363q\245z\251\201{2\006\\\251\376\220\246\272\037"
 286      7AA9817B 
 286      32065CA9 
 286      FE90A6BA 
 286      1F
 287 0437 B8F4895C 		.ascii	"\270\364\211\\z]\251vM\226\0006Y\206\316\317>S\341t"
 287      7A5DA976 
 287      4D960036 
 287      5986CECF 
 287      3E53E174 
 288 044b EA12ED5E 		.ascii	"\352\022\355^\354\277\242\302\307\230\222|zo\256\037"
 288      ECBFA2C2 
ARM GAS  C:\Users\info\AppData\Local\Temp\ccz2UUAb.s 			page 22


 288      C798927C 
 288      7A6FAE1F 
 289 045b 2E664A4E 		.ascii	".fJN\335\213\357\274\330S*P\367\035\231\252\363\301"
 289      DD8BEFBC 
 289      D8532A50 
 289      F71D99AA 
 289      F3C1
 290 046d E7595F87 		.ascii	"\347Y_\2073?\327\027_d\312\203\252\331\023~\3702S\356"
 290      333FD717 
 290      5F64CA83 
 290      AAD9137E 
 290      F83253EE 
 291 0481 3F6F38E2 		.ascii	"?o8\342\343\236\366l\001\274\320\2367\340\203\233\031"
 291      E39EF66C 
 291      01BCD09E 
 291      37E0839B 
 291      19
 292 0492 E0F5CDB9 		.ascii	"\340\365\315\271K\010\337a\312\236\216\352\215x\230"
 292      4B08DF61 
 292      CA9E8EEA 
 292      8D7898
 293 04a1 DD9776DD 		.ascii	"\335\227v\335\231Gx\222)\255\013\023\337`\234\344E\225"
 293      99477892 
 293      29AD0B13 
 293      DF609CE4 
 293      4595
 294 04b3 B2C1940E 		.ascii	"\262\301\224\016/|\200)\247\336\024Tiq>S\256\3156\034"
 294      2F7C8029 
 294      A7DE1454 
 294      69713E53 
 294      AECD361C 
 295 04c7 F7C2254C 		.ascii	"\367\302%LIK?S\340\217\235L\331\265\247\244\036\343"
 295      494B3F53 
 295      E08F9D4C 
 295      D9B5A7A4 
 295      1EE3
 296 04d9 0EA6B40D 		.ascii	"\016\246\264\015T\274\364\306#L\031\270\227\371_x\222"
 296      54BCF4C6 
 296      234C19B8 
 296      97F95F78 
 296      92
 297 04ea DD3FED6C 		.ascii	"\335?\355l\317\364\302\013L\231\257\330]\247\304\231"
 297      CFF4C20B 
 297      4C99AFD8 
 297      5DA7C499 
 298 04fa DE54797C 		.ascii	"\336Ty|\375\325\013\015>\316\224\327M;k\021\256fJu\323"
 298      FDD50B0D 
 298      3ECE94D7 
 298      4D3B6B11 
 298      AE664A75 
 299 050f AB162FDC 		.ascii	"\253\026/\334\314\224\361\235%'\020~\310\224\266\203"
 299      CC94F19D 
 299      2527107E 
 299      C894B683 
 300 051f 63D91C9E 		.ascii	"c\331\034\236g\312\233\271\257\023\275p\206\017\233"
 300      67CA9BB9 
 300      AF13BD70 
ARM GAS  C:\Users\info\AppData\Local\Temp\ccz2UUAb.s 			page 23


 300      860F9B
 301 052e B37D23A5 		.ascii	"\263}#\245\032\\\310\224\362\372\3441a\325s\222\375"
 301      1A5CC894 
 301      F2FAE431 
 301      61D57392 
 301      FD
 302 053f A068EFC4 		.ascii	"\240h\357\304e5\256\243\235\253'J\016wz\243\220%\277"
 302      6535AEA3 
 302      9DAB274A 
 302      0E777AA3 
 302      9025BF
 303 0552 D09090C0 		.ascii	"\320\220\220\300\220BR\025\203\347\027l\015\325}<\237"
 303      90425215 
 303      83E7176C 
 303      0DD57D3C 
 303      9F
 304 0563 A2A5197E 		.ascii	"\242\245\031~\011\343\235\305\005\272&\310/I\275\377"
 304      09E39DC5 
 304      05BA26C8 
 304      2F49BDFF 
 305 0573 37A97A05 		.ascii	"7\251z\005\205;\353\3335|\371\027\024:\346\011\035\240"
 305      853BEBDB 
 305      357CF917 
 305      143AE609 
 305      1DA0
 306 0585 7363A308 		.ascii	"sc\243\010\235\316\362?\314;wb:eG\005\260{\2463x\265"
 306      9DCEF23F 
 306      CC3B7762 
 306      3A654705 
 306      B07BA633 
 307 059b C4F4919B 		.ascii	"\304\364\221\233~\207xg\"\246\306_\311\360\270$\001"
 307      7E877867 
 307      22A6C65F 
 307      C9F0B824 
 307      01
 308 05ac 77DE74F3 		.ascii	"w\336t\363x!\003\375F\002= B_\313@%\214\333\305\340"
 308      782103FD 
 308      46023D20 
 308      425FCB40 
 308      258CDBC5 
 309 05c1 9ECA0577 		.ascii	"\236\312\005wQb5K\264:'c5\\D\346\210\310\357e\220R\243"
 309      5162354B 
 309      B43A2763 
 309      355C44E6 
 309      88C8EF65 
 310 05d8 4745E8AC 		.ascii	"GE\350\254\014T\232\255r\221\353\204'\364\001Z:hm\""
 310      0C549AAD 
 310      7291EB84 
 310      27F4015A 
 310      3A686D22 
 311 05ec F6995C5C 		.ascii	"\366\231\\\\\322\304\036\020\261\223rv/K\260\013\"\335"
 311      D2C41E10 
 311      B1937276 
 311      2F4BB00B 
 311      22DD
 312 05fe 2939AC94 		.ascii	")9\254\224o\225h\367\271\034V:b/\245\225\263 _9,>\272"
 312      6F9568F7 
ARM GAS  C:\Users\info\AppData\Local\Temp\ccz2UUAb.s 			page 24


 312      B91C563A 
 312      622FA595 
 312      B3205F39 
 313 0615 6039E7F6 		.ascii	"`9\347\366iy^EP\012a\261R\270m\345I\253jF&\251\322\200"
 313      69795E45 
 313      500A61B1 
 313      52B86DE5 
 313      49AB6A46 
 314 062d 2E8924C7 		.ascii	".\211$\307\345\022EG5S8\246\361p\006A\363\300\252\235"
 314      E5124547 
 314      355338A6 
 314      F1700641 
 314      F3C0AA9D 
 315 0641 B07A23E0 		.ascii	"\260z#\340\301?\332\317\205\242\024.\004%\203\354\004"
 315      C13FDACF 
 315      85A2142E 
 315      042583EC 
 315      04
 316 0652 D90D920A 		.ascii	"\331\015\222\012\222\001\262\210BP\022\\\277\006\331"
 316      9201B288 
 316      4250125C 
 316      BF06D9
 317 0661 03920EF2 		.ascii	"\003\222\016\362\025\310^\220L\020\036$\015d\027H\""
 317      15C85E90 
 317      4C101E24 
 317      0D641748 
 317      22
 318 0672 C83E2E44 		.ascii	"\310>.D\022M\357~\377#\2743\031\323\265yZp\351^\322"
 318      124DEF7E 
 318      FF23BC33 
 318      19D3B579 
 318      5A70E95E 
 319 0687 1F882461 		.ascii	"\037\210$a\035\350\331\237{d\005\356\247\353\000\367"
 319      1DE8D99F 
 319      7B6405EE 
 319      A7EB00F7 
 320 0697 726FD326 		.ascii	"ro\323&\024\030*\317=\033\370\376=\271\263Q:r\343\347"
 320      14182ACF 
 320      3D1BF8FE 
 320      3DB9B351 
 320      3A72E3E7 
 321 06ab 64940E82 		.ascii	"d\224\016\202\243\003\234{W!\203F\351V\015\235z\356"
 321      A3039C7B 
 321      57218346 
 321      E9560D9D 
 321      7AEE
 322 06bd 13281074 		.ascii	"\023(\020t.KP\361\177\316\216\254\247\335\311\2735\322"
 322      2E4B50F1 
 322      7FCE8EAC 
 322      A7DDC9BB 
 322      35D2
 323 06cf 0DFF9024 		.ascii	"\015\377\220$\255\012t\230sm\370\263e\217\373\274\360"
 323      AD0A7498 
 323      736DF8B3 
 323      658FFBBC 
 323      F0
 324 06e0 A48FC799 		.ascii	"\244\217\307\231.\200\235\351\252\032&O\012\3478\236"
ARM GAS  C:\Users\info\AppData\Local\Temp\ccz2UUAb.s 			page 25


 324      2E809DE9 
 324      AA1A264F 
 324      0AE7389E 
 325 06f0 9CB34686 		.ascii	"\234\263F\206s\257\251\361\274\260bw\234kY\2013UD\371"
 325      73AFA9F1 
 325      BCB06277 
 325      9C6B5981 
 325      335544F9 
 326 0704 A037AD31 		.ascii	"\2407\2551\021!\2456\020Va\217\237V\273F\031*\334\204"
 326      1121A536 
 326      1056618F 
 326      9F56BB46 
 326      192ADC84 
 327 0718 86848692 		.ascii	"\206\204\206\222}/\217\323\242\307\220\015\011\273|"
 327      7D2F8FD3 
 327      A2C7900D 
 327      09BB7C
 328 0727 0F76798C 		.ascii	"\017vy\214\235\307\320\346r\301(\207\203\3149!s\205"
 328      9DC7D0E6 
 328      72C12887 
 328      83CC3921 
 328      7385
 329 0739 C2D036C2 		.ascii	"\302\3206\302\3757\020x-\310E\220\032\220j\220r\220"
 329      FD371078 
 329      2DC84590 
 329      1A906A90 
 329      7290
 330 074b 73206741 		.ascii	"s gA\312@JAJ@\316\200\024\203\024\201\234\0069\005r"
 330      CA404A41 
 330      4A40CE80 
 330      14831481 
 330      9C063905 
 331 0760 12E404C8 		.ascii	"\022\344\004\310q\220\002\217\322\234\353\226L\264\243"
 331      7190028F 
 331      D29CEB96 
 331      4CB4A3
 332 076f 30C085E2 		.ascii	"0\300\205\342\354\251\221,\007\362<\217\010\017\374"
 332      ECA9912C 
 332      07F23C8F 
 332      080FFC
 333 077e FD797EDF 		.ascii	"\375y~\337\355\236\343\260\011\277\315R\272\036\317"
 333      ED9EE3B0 
 333      09BFCD52 
 333      BA1ECF
 334 078d 88D83A39 		.ascii	"\210\330:9\254t\341|!b\353\345\260\222}fJ\2046\310A"
 334      AC74E17C 
 334      2162EBE5 
 334      B0927D66 
 334      4A8436C8 
 335 07a2 259BC784 		.ascii	"%\233\307\204\010uzB\033\337Z6\357\211\330&9\254tK\350"
 335      08757A42 
 335      1BDF5A36 
 335      EF89D826 
 335      39AC744B 
 336 07b7 13B157E4 		.ascii	"\023\261W\344\260\322U\261[\304^\225\303J\227\371N\021"
 336      B0D255B1 
 336      5BC45E95 
ARM GAS  C:\Users\info\AppData\Local\Temp\ccz2UUAb.s 			page 26


 336      C34A97F9 
 336      4E11
 337 07c9 7B4D0E2B 		.ascii	"{M\016+\315n\273"
 337      CD6EBB
 338 07d0 88FDAB1C 		.ascii	"\210\375\253\034V\232\335[\331\222-\341[\001\355\336"
 338      569ADD5B 
 338      D9922DE1 
 338      5B01EDDE 
 339 07e0 121A97A6 		.ascii	"\022\032\227\246\2551{5['\341\254\216:\004\270{\235"
 339      AD317B35 
 339      5B27E1AC 
 339      8E3A04B8 
 339      7B9D
 340 07f2 6C7F8B76 		.ascii	"l\177\213vC\266d]\355\226\307K\314\327u\257`\360\363"
 340      43B6645D 
 340      ED96C74B 
 340      CCD775AF 
 340      60F0F3
 341 0805 30390797 		.ascii	"09\007\227\302\245G\033\311\254\255\344\326\210\230"
 341      C2A5471B 
 341      C9ACADE4 
 341      D68898
 342 0814 0B50E315 		.ascii	"\013P\343\025\3600[\005\227A)$\220l:m\222\370\265J\232"
 342      F0305B05 
 342      97412924 
 342      906C3A6D 
 342      92F8B54A 
 343 0829 3011020F 		.ascii	"0\021\002\017\300\337*\216|\205r\255\027U0\267\330\242"
 343      C0DF2A8E 
 343      7C8572AD 
 343      175530B7 
 343      D8A2
 344 083b 9B776335 		.ascii	"\233wc5Yt\011\317\373\342Q\276\202.\031,\226Zi,C\362"
 344      597409CF 
 344      FBE251BE 
 344      822E192C 
 344      965A692C 
 345 0851 B14842AF 		.ascii	"\261HB\257\356\326\362\031z\012~\270\024,\263\353\213"
 345      EED6F219 
 345      7A0A7EB8 
 345      142CB3EB 
 345      8B
 346 0862 E86179B4 		.ascii	"\350ay\264\304tev\020cr\011\340\217\226\302\177)\233"
 346      C4746576 
 346      10637209 
 346      E08F96C2 
 346      7F299B
 347 0875 D47A6952 		.ascii	"\324ziR\033 \251urI\255\367Hj\235\\R\333<\222ZO\223"
 347      1B20A975 
 347      7249ADF7 
 347      486A9D5C 
 347      52DB3C92 
 348 088c FA179A54 		.ascii	"\372\027\232T\226\310\363\373\336!\211$\324F\304D\326"
 348      96C8F3FB 
 348      DE218924 
 348      D446C444 
 348      D6
ARM GAS  C:\Users\info\AppData\Local\Temp\ccz2UUAb.s 			page 27


 349 089d 4912793E 		.ascii	"I\022y>\373'\214>l\027\350\211,\375p\361\314r,\233\236"
 349      FB278C3E 
 349      6C17E889 
 349      2CFD70F1 
 349      CC722C9B 
 350 08b2 590A3DCF 		.ascii	"Y\012=\317,\254\357\320\276\367H\037Y\346\217\211;e"
 350      2CACEFD0 
 350      BEF7481F 
 350      59E68F89 
 350      3B65
 351 08c4 A16BA7EC 		.ascii	"\241k\247\354\315\252\031\363\177?\237\037,\347\007"
 351      CDAA19F3 
 351      7F3F9F1F 
 351      2CE707
 352 08d3 270B7F5F 		.ascii	"'\013\177_\\\361\220\347\003\224\264r\212DjpK.\247\341"
 352      5CF190E7 
 352      0394B472 
 352      8A446A70 
 352      4B2EA7E1 
 353 08e7 BD0DA63E 		.ascii	"\275\015\246>\367>y\005\273|\241]\215k\350&\204\012"
 353      F73E7905 
 353      BB7CA15D 
 353      8D6BE826 
 353      840A
 354 08f9 9ECD8D2A 		.ascii	"\236\315\215*\301J~9\357\274{\003\206)\221\347?\246"
 354      C14A7E39 
 354      EFBC7B03 
 354      862991E7 
 354      3FA6
 355 090b 469A449F 		.ascii	"F\232D\237p+\032\271L\215|]0}\217\303\255\314H\322\251"
 355      702B1AB9 
 355      4C8D7C5D 
 355      307D8FC3 
 355      ADCC48D2 
 356 0920 C1362F3C 		.ascii	"\3016/<\300\224\354F\347\321\025\360\256\206\256\322"
 356      C094EC46 
 356      E7D115F0 
 356      AE86AED2 
 357 0930 A7A06531 		.ascii	"\247\240e1g\362\260\217t_\365,\335\277\272\367\325\207"
 357      67F2B08F 
 357      745FF52C 
 357      DDBFBAF7 
 357      D587
 358 0942 73455756 		.ascii	"sEWV\320\327<h\023^\363\312\362\253\216\373\273_\375"
 358      D0D73C68 
 358      135EF3CA 
 358      F2AB8EFB 
 358      BB5FFD
 359 0955 AE73ECE3 		.ascii	"\256s\354\343\327\243\212N\366\031\210\324\371\267\254"
 359      D7A38A4E 
 359      F61988D4 
 359      F9B7AC
 360 0964 71E6F6D9 		.ascii	"q\346\366\331z\3775\313\316\220f:\230\337\321\301\004"
 360      7AFF35CB 
 360      CE90663A 
 360      98DFD1C1 
 360      04
ARM GAS  C:\Users\info\AppData\Local\Temp\ccz2UUAb.s 			page 28


 361 0975 74E5C2FD 		.ascii	"t\345\302\375\036L\322\007\257\272\345\013\037\347\036"
 361      1E4CD207 
 361      AFBAE50B 
 361      1FE71E
 362 0984 4F7142EC 		.ascii	"OqB\354+)\016]q\305\216\256qJ\242\261\357v-4\364\254"
 362      2B290E5D 
 362      71C58EAE 
 362      714AA2B1 
 362      EF762D34 
 363 099a CCB12C5F 		.ascii	"\314\261,_<\262\\\264r\357\252s\267/\216pn\2767\031"
 363      3CB25CB4 
 363      72EFAA73 
 363      B72F8E70 
 363      6EBE3719 
 364 09ae DFD349DF 		.ascii	"\337\323I\337Y\227\247{\213\322ms\321-K\033:\253at\235"
 364      5997A77B 
 364      8BD26D73 
 364      D12D4B1B 
 364      3AAB6174 
 365 09c3 77A38FF0 		.ascii	"w\243\217\360M\3110L\200A\255n\2527\200j\253\213j;\245"
 365      4DC9304C 
 365      8041AD6E 
 365      AA37806A 
 365      AB8B6A3B 
 366 09d8 5A94EC9C 		.ascii	"Z\224\354\234\362\305\257\030\325\231\264\344G\214\030"
 366      F2C5AF18 
 366      D599B4E4 
 366      478C18
 367 09e7 590E19B1 		.ascii	"Y\016\031\261\236\351\226q1\221\235\214\330\223\203"
 367      9EE99671 
 367      31919D8C 
 367      D89383
 368 09f6 4D0D2A29 		.ascii	"M\015*)\263\317\337\221\020\353\246\304\272\\\304Rf"
 368      B3CFDF91 
 368      10EBA6C4 
 368      BA5CC452 
 368      66
 369 0a07 BBDA5502 		.ascii	"\273\332U\002\261\311\307\033\200\231\222@P\207X>\035"
 369      B1C9C71B 
 369      80999240 
 369      5087583E 
 369      1D
 370 0a18 2E52B729 		.ascii	".R\267)\251\222\224\2624/\274\337\227\222\2728{\353"
 370      A99294B2 
 370      342FBCDF 
 370      9792BA38 
 370      7BEB
 371 0a2a A08F9B00 		.ascii	"\240\217\233\000#5\326]\370\334{Y\377w\251\377\036\267"
 371      2335D65D 
 371      F8DC7B59 
 371      FF77A9FF 
 371      1EB7
 372 0a3c FF7DB5B9 		.ascii	"\377}\265\271\256\304\344\364j\235\031\210 \320\035"
 372      AEC4E4F4 
 372      6A9D1988 
 372      20D01D
 373 0a4b D1FD1D97 		.ascii	"\321\375\035\227\373^\352\376^\341\300~o|\206\271\357"
ARM GAS  C:\Users\info\AppData\Local\Temp\ccz2UUAb.s 			page 29


 373      FB5EEAFE 
 373      5EE1C07E 
 373      6F7C86B9 
 373      EF
 374 0a5c 2FAACC61 		.ascii	"/\252\314a\037V\017\273\335W\217wu\253\335\224\372Y"
 374      1F560FBB 
 374      DD578F77 
 374      75ABDD94 
 374      FA59
 375 0a6e 4EEE27DD 		.ascii	"N\356'\335I\\\236\323\000\345t\317\305\311y\241e\332"
 375      495C9ED3 
 375      00E574CF 
 375      C5C979A1 
 375      65DA
 376 0a80 47E07498 		.ascii	"G\340t\230q\002\004\352\0239\365\2718\015RN7\370\334"
 376      710204EA 
 376      1339F5B9 
 376      380D524E 
 376      37F8DC
 377 0a93 AF306E65 		.ascii	"\2570ne\2342\373\317\036\305?=\316\267\345\323\211\375"
 377      9C32FBCF 
 377      1EC53F3D 
 377      CEB7E5D3 
 377      89FD
 378 0aa5 9703BB60 		.ascii	"\227\003\273`b\323\263\350}f\300}\"V\320\226\177\207"
 378      62D3B3E8 
 378      7D66C07D 
 378      2256D096 
 378      7F87
 379 0ab7 EA1BE27E 		.ascii	"\352\033\342~J><\364\015vx\343qf\246\244\372\344%\304"
 379      4A3E3CF4 
 379      0D7678E3 
 379      7166A6A4 
 379      FAE425C4 
 380 0acb CEA5BEA0 		.ascii	"\316\245\276\240\246_\275p\015\263s\351u\372\211\246"
 380      A65FBD70 
 380      0DB373E9 
 380      75FA89A6 
 381 0adb 78F839FD 		.ascii	"x\3709\375\032\306\013\2232@Z}\2178\265\202\254Vty\006"
 381      1AC60B93 
 381      32405A7D 
 381      8F38B582 
 381      AC567479 
 382 0af0 F4A5ACD2 		.ascii	"\364\245\254\322m\001\031\302\231\355cDku\030Nm\017"
 382      6D0119C2 
 382      99ED6344 
 382      6B75184E 
 382      6D0F
 383 0b02 39827ECC 		.ascii	"9\202~\314\005\270\236!\340\214\234\321\026\265\024"
 383      05B89E21 
 383      E08C9CD1 
 383      16B514
 384 0b11 DDF943E8 		.ascii	"\335\371C\350\341\376+\331Z\026\256\263\246\026%\362"
 384      E1FE2BD9 
 384      5A16AEB3 
 384      A61625F2 
 385 0b21 4E251AE1 		.ascii	"N%\032\341\002\320\003!X\361\301\007B\260Oh\260\275"
ARM GAS  C:\Users\info\AppData\Local\Temp\ccz2UUAb.s 			page 30


 385      02D00321 
 385      58F1C107 
 385      42B04F68 
 385      B0BD
 386 0b33 17AA3FC2 		.ascii	"\027\252?\302)\354\223Z\323T\371i-\213\225\234\271\263"
 386      29EC935A 
 386      D354F969 
 386      2D8B959C 
 386      B9B3
 387 0b45 2ACF7773 		.ascii	"*\317ws\313\306\366\314\025\333u\026\333\370\255\211"
 387      CBC6F6CC 
 387      15DB7516 
 387      DBF8AD89 
 388 0b55 E7786970 		.ascii	"\347xippBAO\251\3271J\367\231\213n\325\335\341\002\264"
 388      7042414F 
 388      A9D7314A 
 388      F7998B6E 
 388      D5DDE102 
 389 0b6a 34B865D1 		.ascii	"4\270e\321\323\347f\2724Bp}^\274/\032\207\310F\205\310"
 389      D3E766BA 
 389      3442707D 
 389      5EBC2F1A 
 389      87C84685 
 390 0b7f C4A74685 		.ascii	"\304\247F\205\310\236\323\310v\036\317\373->\301\"\353"
 390      C89ED3C8 
 390      761ECFFB 
 390      2D3EC122 
 390      EB
 391 0b90 7F59F4B5 		.ascii	"\177Y\364\265P\014\316\031\227\201\211\267\014L\010"
 391      500CCE19 
 391      978189B7 
 391      0C4C08
 392 0b9f 0626A981 		.ascii	"\006&\251\201\326}\343+\245\353\355\200\307\3067\305"
 392      D67DE32B 
 392      A5EBED80 
 392      C7C637C5 
 393 0baf D65B7225 		.ascii	"\326[r%kw}\355\260R\012\276\353\001\236\026\300\323"
 393      6B777DED 
 393      B0520ABE 
 393      EB019E16 
 393      C0D3
 394 0bc1 149C797A 		.ascii	"\024\234yz!C%\005w{\200_\010\340\027\024\354,8tL+\005"
 394      21432505 
 394      777B805F 
 394      08E01714 
 394      EC2C3874 
 395 0bd8 935115C1 		.ascii	"\223Q\025\301/\005\360K\012\236\236}R\346\261G\214{"
 395      2F05F04B 
 395      0A9E9E7D 
 395      52E6B147 
 395      8C7B
 396 0bea 806704F0 		.ascii	"\200g\004\360\014\005\357J[|\274\0027\261\014\325\344"
 396      0C05EF4A 
 396      5B7CBC02 
 396      37B10CD5 
 396      E4
 397 0bfb 2C3895F8 		.ascii	",8\225\370:SR\262\027\207\324\270\205)/\306{\212\274"
ARM GAS  C:\Users\info\AppData\Local\Temp\ccz2UUAb.s 			page 31


 397      3A5352B2 
 397      1787D4B8 
 397      85292FC6 
 397      7B8ABC
 398 0c0e 7197001B 		.ascii	"q\227\000\033/\251\361\023\276\217\021=\2534-\011\341"
 398      2FA9F113 
 398      BE8F113D 
 398      AB342D09 
 398      E1
 399 0c1f 47B4D3FB 		.ascii	"G\264\323\373\373\242\312T5\242\357a\241\256\017b\037"
 399      FBA2CA54 
 399      35A2EF61 
 399      A1AE0F62 
 399      1F
 400 0c30 D7493E88 		.ascii	"\327I>\210\315B~\027d?\031\260\027\031'{\221\231\343"
 400      CD427E17 
 400      643F19B0 
 400      1719277B 
 400      9199E3
 401 0c43 D88C41AF 		.ascii	"\330\214A\257\005<\031\245\2358\024%bx3\205\227\220"
 401      053C19A5 
 401      9D381425 
 401      62783385 
 401      9790
 402 0c55 79F2068A 		.ascii	"y\362\006\212\245/\"\367n\210\337\205d\234H\217QS\""
 402      A52F22F7 
 402      6E88DF85 
 402      649C488F 
 402      515322
 403 0c68 F48D0C54 		.ascii	"\364\215\014Tz\260\357\337'\234d\311F\372J\000/{\012"
 403      7AB0EFDF 
 403      279C64C9 
 403      46FA4A00 
 403      2F7B0A
 404 0c7b E9615F4E 		.ascii	"\351a_N\026<O!\344;r\332\324\033\177\374\214&\211k,"
 404      163C4F21 
 404      E43B72DA 
 404      D41B7FFC 
 404      8C26896B 
 405 0c90 AA2BF243 		.ascii	"\252+\362C\241\201\354\231\334\033!\344\231]8\020%a"
 405      A181EC99 
 405      DC1B21E4 
 405      995D3810 
 405      2561
 406 0ca2 F7BAB640 		.ascii	"\367\272\266@O'\036/w\356\234$C\036\376VN\310\020v\027"
 406      4F271E2F 
 406      77EE9C24 
 406      431EFE56 
 406      4EC81076 
 407 0cb7 AC961602 		.ascii	"\254\226\026\002\361 \026B\012f\205\000W\262S\214\216"
 407      F1201642 
 407      0A668500 
 407      57B2538C 
 407      8E
 408 0cc8 4E7052F0 		.ascii	"NpR\360-\217z\334-\200wS\360\241\261\341\011\217zl\366"
 408      2D8F7ADC 
 408      2D807753 
ARM GAS  C:\Users\info\AppData\Local\Temp\ccz2UUAb.s 			page 32


 408      F0A1B1E1 
 408      098F7A6C 
 409 0cdd 00A70AE0 		.ascii	"\000\247\012\340T\012\276P\231\227\214?(`\201\244\301"
 409      540ABE50 
 409      99978C3F 
 409      286081A4 
 409      C1
 410 0cee CCFAFC1D 		.ascii	"\314\372\374\035z~b\253\366W\370\003\262Q\234\310?\312"
 410      7A7E62AB 
 410      F657F803 
 410      B2519CC8 
 410      3FCA
 411 0d00 310C59A8 		.ascii	"1\014Y\250\317\244\001\320\023\227Fq\351O\206\2725\014"
 411      CFA401D0 
 411      13974671 
 411      E94F86BA 
 411      350C
 412 0d12 E7BCAB5E 		.ascii	"\347\274\253^\212I\247\230\305\344\373\207\324\002&"
 412      8A49A798 
 412      C5E4FB87 
 412      D40226
 413 0d21 43B314B3 		.ascii	"C\263\024\263\207b^\027\274i\365\0260\023oa\366\342"
 413      87625E17 
 413      BC69F516 
 413      30136F61 
 413      F6E2
 414 0d33 0F14AB13 		.ascii	"\017\024\253\0236o\337\2543\352\354Q\226\360M\233\302"
 414      366FDFAC 
 414      33EAEC51 
 414      96F04D9B 
 414      C2
 415 0d44 75E11111 		.ascii	"u\341\021\021\3337F\250~\375\257\237\255\3754<\\\341"
 415      DB3746A8 
 415      7EFDAF9F 
 415      ADFD343C 
 415      5CE1
 416 0d56 ABD32598 		.ascii	"\253\323%\230-\216\315:G\"2\374c\244-\336\272%^\037"
 416      2D8ECD3A 
 416      472232FC 
 416      63A42DDE 
 416      BA255E1F 
 417 0d6a B736DA1C 		.ascii	"\2676\332\034k\262\257\015\335\276y\323\317\"\015;l"
 417      6BB2AF0D 
 417      DDBE79D3 
 417      CF220D3B 
 417      6C
 418 0d7b F126BB3D 		.ascii	"\361&\273=\322f\267\032\326\032\342Mz\2075>\362\303"
 418      D266B71A 
 418      D61AE24D 
 418      7A87353E 
 418      F2C3
 419 0d8d B008CF06 		.ascii	"\260\010\317\006s\234\315\032\357\210\334bI\210\324"
 419      739CCD1A 
 419      EF88DC62 
 419      4988D4
 420 0d9c C7C745FE 		.ascii	"\307\307E\376*\354\303\260pr\367\013\213\325b\372\205"
 420      2AECC3B0 
ARM GAS  C:\Users\info\AppData\Local\Temp\ccz2UUAb.s 			page 33


 420      7072F70B 
 420      8BD562FA 
 420      85
 421 0dad 491F658E 		.ascii	"I\037e\2164[\014\261\011FSd\234\336\020c\266\230\"u"
 421      345B0CB1 
 421      09465364 
 421      9CDE1063 
 421      B6982275 
 422 0dc1 4653B43E 		.ascii	"FS\264>!\326\241s\354\260\231\354a1\012\037\201\312"
 422      21D6A173 
 422      ECB099EC 
 422      61310A1F 
 422      81CA
 423 0dd3 D6FF2F26 		.ascii	"\326\377/&\366\035\366H\235\335a\004\267\340\336\337"
 423      F61DF648 
 423      9DDD6104 
 423      B7E0DEDF 
 424 0de3 688AB226 		.ascii	"h\212\262&X\014&h\322;L\357\272\325X\275\335\241\263"
 424      580C2668 
 424      D23B4CEF 
 424      BAD558BD 
 424      DDA1B3
 425 0df6 992DACFD 		.ascii	"\231-\254\375G\356v\027\177w\227f\213\315l\325\001G"
 425      47EE7617 
 425      7F779766 
 425      8BCD6CD5 
 425      0147
 426 0e08 68552738 		.ascii	"hU'8\2427\263f0\274\325\014x\275\321H\370k\314\021\006"
 426      A237B366 
 426      30BCD50C 
 426      78BDD148 
 426      F86BCC11 
 427 0e1d D211EF30 		.ascii	"\322\021\3570\031\351\275\320\036d\266\353\242\255\026"
 427      19E9BDD0 
 427      1E64B6EB 
 427      A2AD16
 428 0e2c 87CE6CD9 		.ascii	"\207\316l\331j\212\267\233tqV\243I\265]g\215\216\266"
 428      6A8AB79B 
 428      747156A3 
 428      49B55D67 
 428      8D8EB6
 429 0e3f 9B1C2A93 		.ascii	"\233\034*\223\305`\005\246[\324l\310\3027\351\034*\327"
 429      C56005A6 
 429      5BD46CC8 
 429      C237E91C 
 429      2AD7
 430 0e51 8D923CE7 		.ascii	"\215\222<\347\033\225`\327\031b\255\206?\011\220\215"
 430      1B9560D7 
 430      1962AD86 
 430      3F09908D 
 431 0e61 110284DC 		.ascii	"\021\002\204\334\254\242\334\364\026#\320\216\325\357"
 431      ACA2DCF4 
 431      1623D08E 
 431      D5EF
 432 0e6f D019A234 		.ascii	"\320\031\2424\2644\342\354[\340\336'j\207\303\004Wo"
 432      B434E2EC 
 432      5BE0DE27 
ARM GAS  C:\Users\info\AppData\Local\Temp\ccz2UUAb.s 			page 34


 432      6A87C304 
 432      576F
 433 0e81 83DE0817 		.ascii	"\203\336\010\027\265\321l\2671\224\217\305\264\335\001"
 433      B5D16CB7 
 433      31948FC5 
 433      B4DD01
 434 0e90 572D451B 		.ascii	"W-E\033b\364\361Dq\365\233-\321V\215\315\274\335\024"
 434      62F4F144 
 434      71F59B2D 
 434      D1568DCD 
 434      BCDD14
 435 0ea3 ABDB6636 		.ascii	"\253\333f6:bVE\307\232m\204\267\316\305{\245+K\256\006"
 435      3A625645 
 435      C79A6D84 
 435      B7CEC57B 
 435      A52B4BAE 
 436 0eb8 8D038654 		.ascii	"\215\003\206T\027c2o\211q\250\351=}2h[\274\031(\330"
 436      1763326F 
 436      8971A8E9 
 436      3D7D3268 
 436      5BBC1928 
 437 0ecd 1262ED42 		.ascii	"\022b\355B\213\316b\0170\352\035z\035<\224`\3239\314"
 437      8BCE620F 
 437      30EA1D7A 
 437      1D3C9460 
 437      D339CC
 438 0ee0 7126680A 		.ascii	"q&h\012\"\031sG\252\013\337\260\341O\277\371\263\312"
 438      22197347 
 438      AA0BDFB0 
 438      E14FBFF9 
 438      B3CA
 439 0ef2 6E33D374 		.ascii	"n3\323ti\355\320\306zb\376\034@\024O\203\253\354\306"
 439      69EDD0C6 
 439      7A62FE1C 
 439      40144F83 
 439      ABECC6
 440 0f05 25F6026C 		.ascii	"%\366\002lV\030]\310\277\311\241\333\2467; !AL\223>"
 440      56185DC8 
 440      BFC9A1DB 
 440      A6373B20 
 440      21414C93 
 441 0f1a 19675F03 		.ascii	"\031g_\003\265\007\341\233m:\210]\037Eh\023\264\005"
 441      B507E19B 
 441      6D3A885D 
 441      1F456813 
 441      B405
 442 0f2c 3A8801DA 		.ascii	":\210\001\332c\262H;\002<\320\261\246\255\246\330UR"
 442      63B2483B 
 442      023CD0B1 
 442      A6ADA6D8 
 442      5552
 443 0f3e 186D59C3 		.ascii	"\030mY\303\346\247$\235P\032\361\011\006\207\226e\225"
 443      E6A7249D 
 443      501AF109 
 443      06879665 
 443      95
 444 0f4f E529282C 		.ascii	"\345)(,,2a\363\226\010\235\301\036o\210$\217@\275\006"
ARM GAS  C:\Users\info\AppData\Local\Temp\ccz2UUAb.s 			page 35


 444      2C3261F3 
 444      96089DC1 
 444      1E6F8824 
 444      8F40BD06 
 445 0f63 BEFDA883 		.ascii	"\276\375\250\203\215)\263\020\350.TV\221d\250\275i\277"
 445      8D29B310 
 445      E82E5456 
 445      9164A8BD 
 445      69BF
 446 0f75 E3BDB7EC 		.ascii	"\343\275\267\354\211KD\230A\\4L\306\360_El\020\026\215"
 446      894B4498 
 446      415C344C 
 446      C6F05F45 
 446      6C10168D 
 447 0f89 55AC02A0 		.ascii	"U\254\002\240@\376`\262\030\377\011FFe\261\232-\261"
 447      40FE60B2 
 447      18FF0946 
 447      4665B19A 
 447      2DB1
 448 0f9b 3097577A 		.ascii	"0\227Wzt"
 448      74
 449 0fa0 7D1A675C 		.ascii	"}\032g\\\355\321\360\007\323\227\011P\276\246\037\011"
 449      EDD1F007 
 449      D3970950 
 449      BEA61F09 
 450 0fb0 76634CB1 		.ascii	"vcL\2616S\274\204\272\331\361\276|\027\033\2528S\234"
 450      3653BC84 
 450      BAD9F1BE 
 450      7C171BAA 
 450      38539C
 451 0fc3 357EC75A 		.ascii	"5~\307Z\026\233\307B\346\021\376\273K\326:b\027,|\371"
 451      169BC742 
 451      E611FEBB 
 451      4BD63A62 
 451      172C7CF9 
 452 0fd7 E325ED36 		.ascii	"\343%\3556\3536\230_\372\255\246\015?\330\033Nz\275"
 452      EB36985F 
 452      FAADA60D 
 452      3FD81B4E 
 452      7ABD
 453 0fe9 B643831D 		.ascii	"\266C\203\035\033,\016\025\255U\233#\236\005K5\226h"
 453      1B2C0E15 
 453      AD559B23 
 453      9E054B35 
 453      9668
 454 0ffb AF1D04A3 		.ascii	"\257\035\004\243\021"
 454      11
 455 1000 9B1DFF03 		.ascii	"\233\035\377\003\357#N+"
 455      EF234E2B 
 456              		.text
 457              		.section	.gnu.lto_.symtab.792a363a,"",%progbits
 458 0000 75387838 		.ascii	"u8x8_d_sbn1661_122x32\000"
 458      5F645F73 
 458      626E3136 
 458      36315F31 
 458      32327833 
 459 0016 00       		.ascii	"\000"
ARM GAS  C:\Users\info\AppData\Local\Temp\ccz2UUAb.s 			page 36


 460 0017 00       		.ascii	"\000"
 461 0018 00       		.ascii	"\000"
 462 0019 00000000 		.ascii	"\000\000\000\000\000\000\000\000"
 462      00000000 
 463 0021 41010000 		.ascii	"A\001\000\000"
 464 0025 75387838 		.ascii	"u8x8_d_sed1520_122x32\000"
 464      5F645F73 
 464      65643135 
 464      32305F31 
 464      32327833 
 465 003b 00       		.ascii	"\000"
 466 003c 00       		.ascii	"\000"
 467 003d 00       		.ascii	"\000"
 468 003e 00000000 		.ascii	"\000\000\000\000\000\000\000\000"
 468      00000000 
 469 0046 43010000 		.ascii	"C\001\000\000"
 470 004a 75387838 		.ascii	"u8x8_cad_SendData\000"
 470      5F636164 
 470      5F53656E 
 470      64446174 
 470      6100
 471 005c 00       		.ascii	"\000"
 472 005d 02       		.ascii	"\002"
 473 005e 00       		.ascii	"\000"
 474 005f 00000000 		.ascii	"\000\000\000\000\000\000\000\000"
 474      00000000 
 475 0067 4C010000 		.ascii	"L\001\000\000"
 476 006b 75387838 		.ascii	"u8x8_cad_SendCmd\000"
 476      5F636164 
 476      5F53656E 
 476      64436D64 
 476      00
 477 007c 00       		.ascii	"\000"
 478 007d 02       		.ascii	"\002"
 479 007e 00       		.ascii	"\000"
 480 007f 00000000 		.ascii	"\000\000\000\000\000\000\000\000"
 480      00000000 
 481 0087 52010000 		.ascii	"R\001\000\000"
 482 008b 75387838 		.ascii	"u8x8_cad_SendSequence\000"
 482      5F636164 
 482      5F53656E 
 482      64536571 
 482      75656E63 
 483 00a1 00       		.ascii	"\000"
 484 00a2 02       		.ascii	"\002"
 485 00a3 00       		.ascii	"\000"
 486 00a4 00000000 		.ascii	"\000\000\000\000\000\000\000\000"
 486      00000000 
 487 00ac 57010000 		.ascii	"W\001\000\000"
 488 00b0 75387838 		.ascii	"u8x8_d_helper_display_init\000"
 488      5F645F68 
 488      656C7065 
 488      725F6469 
 488      73706C61 
 489 00cb 00       		.ascii	"\000"
 490 00cc 02       		.ascii	"\002"
 491 00cd 00       		.ascii	"\000"
ARM GAS  C:\Users\info\AppData\Local\Temp\ccz2UUAb.s 			page 37


 492 00ce 00000000 		.ascii	"\000\000\000\000\000\000\000\000"
 492      00000000 
 493 00d6 5B010000 		.ascii	"[\001\000\000"
 494 00da 75387838 		.ascii	"u8x8_d_helper_display_setup_memory\000"
 494      5F645F68 
 494      656C7065 
 494      725F6469 
 494      73706C61 
 495 00fd 00       		.ascii	"\000"
 496 00fe 02       		.ascii	"\002"
 497 00ff 00       		.ascii	"\000"
 498 0100 00000000 		.ascii	"\000\000\000\000\000\000\000\000"
 498      00000000 
 499 0108 60010000 		.ascii	"`\001\000\000"
 500              		.text
 501              		.section	.gnu.lto_.opts,"",%progbits
 502 0000 272D666D 		.ascii	"'-fmath-errno' '-fsigned-zeros' '-ftrapping-math' '"
 502      6174682D 
 502      6572726E 
 502      6F272027 
 502      2D667369 
 503 0033 2D666E6F 		.ascii	"-fno-trapv' '-fno-strict-overflow' '-fno-openmp' '-"
 503      2D747261 
 503      70762720 
 503      272D666E 
 503      6F2D7374 
 504 0066 666E6F2D 		.ascii	"fno-openacc' '-mcpu=cortex-m3' '-mthumb' '-g' '-Og'"
 504      6F70656E 
 504      61636327 
 504      20272D6D 
 504      6370753D 
 505 0099 20272D66 		.ascii	" '-ffunction-sections' '-ffat-lto-objects' '-flto'\000"
 505      66756E63 
 505      74696F6E 
 505      2D736563 
 505      74696F6E 
 506              		.text
 507              		.cfi_sections	.debug_frame
 508              		.section	.text.u8x8_d_sbn1661_122x32,"ax",%progbits
 509              		.align	2
 510              		.global	u8x8_d_sbn1661_122x32
 511              		.thumb
 512              		.thumb_func
 513              		.type	u8x8_d_sbn1661_122x32, %function
 514              	u8x8_d_sbn1661_122x32:
 515              	.LFB0:
 516              		.file 1 "..\\u8g2_csrc\\u8x8_d_sbn1661.c"
   1:..\u8g2_csrc/u8x8_d_sbn1661.c **** /*
   2:..\u8g2_csrc/u8x8_d_sbn1661.c **** 
   3:..\u8g2_csrc/u8x8_d_sbn1661.c ****   u8x8_d_sbn1661.c 
   4:..\u8g2_csrc/u8x8_d_sbn1661.c ****   
   5:..\u8g2_csrc/u8x8_d_sbn1661.c ****   SED1520 / SBN1661 122x32 5V LCD
   6:..\u8g2_csrc/u8x8_d_sbn1661.c ****   
   7:..\u8g2_csrc/u8x8_d_sbn1661.c ****   Universal 8bit Graphics Library (https://github.com/olikraus/u8g2/)
   8:..\u8g2_csrc/u8x8_d_sbn1661.c **** 
   9:..\u8g2_csrc/u8x8_d_sbn1661.c ****   Copyright (c) 2016, olikraus@gmail.com
  10:..\u8g2_csrc/u8x8_d_sbn1661.c ****   All rights reserved.
ARM GAS  C:\Users\info\AppData\Local\Temp\ccz2UUAb.s 			page 38


  11:..\u8g2_csrc/u8x8_d_sbn1661.c **** 
  12:..\u8g2_csrc/u8x8_d_sbn1661.c ****   Redistribution and use in source and binary forms, with or without modification, 
  13:..\u8g2_csrc/u8x8_d_sbn1661.c ****   are permitted provided that the following conditions are met:
  14:..\u8g2_csrc/u8x8_d_sbn1661.c **** 
  15:..\u8g2_csrc/u8x8_d_sbn1661.c ****   * Redistributions of source code must retain the above copyright notice, this list 
  16:..\u8g2_csrc/u8x8_d_sbn1661.c ****     of conditions and the following disclaimer.
  17:..\u8g2_csrc/u8x8_d_sbn1661.c ****     
  18:..\u8g2_csrc/u8x8_d_sbn1661.c ****   * Redistributions in binary form must reproduce the above copyright notice, this 
  19:..\u8g2_csrc/u8x8_d_sbn1661.c ****     list of conditions and the following disclaimer in the documentation and/or other 
  20:..\u8g2_csrc/u8x8_d_sbn1661.c ****     materials provided with the distribution.
  21:..\u8g2_csrc/u8x8_d_sbn1661.c **** 
  22:..\u8g2_csrc/u8x8_d_sbn1661.c ****   THIS SOFTWARE IS PROVIDED BY THE COPYRIGHT HOLDERS AND 
  23:..\u8g2_csrc/u8x8_d_sbn1661.c ****   CONTRIBUTORS "AS IS" AND ANY EXPRESS OR IMPLIED WARRANTIES, 
  24:..\u8g2_csrc/u8x8_d_sbn1661.c ****   INCLUDING, BUT NOT LIMITED TO, THE IMPLIED WARRANTIES OF 
  25:..\u8g2_csrc/u8x8_d_sbn1661.c ****   MERCHANTABILITY AND FITNESS FOR A PARTICULAR PURPOSE ARE 
  26:..\u8g2_csrc/u8x8_d_sbn1661.c ****   DISCLAIMED. IN NO EVENT SHALL THE COPYRIGHT HOLDER OR 
  27:..\u8g2_csrc/u8x8_d_sbn1661.c ****   CONTRIBUTORS BE LIABLE FOR ANY DIRECT, INDIRECT, INCIDENTAL, 
  28:..\u8g2_csrc/u8x8_d_sbn1661.c ****   SPECIAL, EXEMPLARY, OR CONSEQUENTIAL DAMAGES (INCLUDING, BUT 
  29:..\u8g2_csrc/u8x8_d_sbn1661.c ****   NOT LIMITED TO, PROCUREMENT OF SUBSTITUTE GOODS OR SERVICES; 
  30:..\u8g2_csrc/u8x8_d_sbn1661.c ****   LOSS OF USE, DATA, OR PROFITS; OR BUSINESS INTERRUPTION) HOWEVER 
  31:..\u8g2_csrc/u8x8_d_sbn1661.c ****   CAUSED AND ON ANY THEORY OF LIABILITY, WHETHER IN CONTRACT, 
  32:..\u8g2_csrc/u8x8_d_sbn1661.c ****   STRICT LIABILITY, OR TORT (INCLUDING NEGLIGENCE OR OTHERWISE) 
  33:..\u8g2_csrc/u8x8_d_sbn1661.c ****   ARISING IN ANY WAY OUT OF THE USE OF THIS SOFTWARE, EVEN IF 
  34:..\u8g2_csrc/u8x8_d_sbn1661.c ****   ADVISED OF THE POSSIBILITY OF SUCH DAMAGE.  
  35:..\u8g2_csrc/u8x8_d_sbn1661.c **** 
  36:..\u8g2_csrc/u8x8_d_sbn1661.c ****   
  37:..\u8g2_csrc/u8x8_d_sbn1661.c **** */
  38:..\u8g2_csrc/u8x8_d_sbn1661.c **** #include "u8x8.h"
  39:..\u8g2_csrc/u8x8_d_sbn1661.c **** 
  40:..\u8g2_csrc/u8x8_d_sbn1661.c **** 
  41:..\u8g2_csrc/u8x8_d_sbn1661.c **** 
  42:..\u8g2_csrc/u8x8_d_sbn1661.c **** 
  43:..\u8g2_csrc/u8x8_d_sbn1661.c **** static const uint8_t u8x8_d_sbn1661_init_seq[] = {
  44:..\u8g2_csrc/u8x8_d_sbn1661.c ****   U8X8_C(0x0c0),		                /* display start at line 0  */  
  45:..\u8g2_csrc/u8x8_d_sbn1661.c ****   U8X8_C(0x0a0),		                /* a0: ADC forward, a1: ADC reverse */  
  46:..\u8g2_csrc/u8x8_d_sbn1661.c ****   U8X8_C(0x0a4),		                /* a4: normal driving, a5: power save */  
  47:..\u8g2_csrc/u8x8_d_sbn1661.c ****   U8X8_C(0x0a9),		                /* a8: 1/16, a9: 1/32 duty */  
  48:..\u8g2_csrc/u8x8_d_sbn1661.c **** 
  49:..\u8g2_csrc/u8x8_d_sbn1661.c ****   //U8X8_C(0x0af),				/* display on */
  50:..\u8g2_csrc/u8x8_d_sbn1661.c ****   
  51:..\u8g2_csrc/u8x8_d_sbn1661.c ****   U8X8_END()             			/* end of sequence */
  52:..\u8g2_csrc/u8x8_d_sbn1661.c **** };
  53:..\u8g2_csrc/u8x8_d_sbn1661.c **** 
  54:..\u8g2_csrc/u8x8_d_sbn1661.c **** static const uint8_t u8x8_d_sbn1661_powersave0_seq[] = {
  55:..\u8g2_csrc/u8x8_d_sbn1661.c ****   U8X8_C(0x0af),		                /* display on */
  56:..\u8g2_csrc/u8x8_d_sbn1661.c ****   U8X8_END()             			/* end of sequence */
  57:..\u8g2_csrc/u8x8_d_sbn1661.c **** };
  58:..\u8g2_csrc/u8x8_d_sbn1661.c **** 
  59:..\u8g2_csrc/u8x8_d_sbn1661.c **** static const uint8_t u8x8_d_sbn1661_powersave1_seq[] = {
  60:..\u8g2_csrc/u8x8_d_sbn1661.c ****   U8X8_C(0x0ae),		                /* display off */
  61:..\u8g2_csrc/u8x8_d_sbn1661.c ****   U8X8_END()             			/* end of sequence */
  62:..\u8g2_csrc/u8x8_d_sbn1661.c **** };
  63:..\u8g2_csrc/u8x8_d_sbn1661.c **** 
  64:..\u8g2_csrc/u8x8_d_sbn1661.c **** 
  65:..\u8g2_csrc/u8x8_d_sbn1661.c **** struct u8x8_sbn1661_vars
  66:..\u8g2_csrc/u8x8_d_sbn1661.c **** {
  67:..\u8g2_csrc/u8x8_d_sbn1661.c ****   uint8_t *ptr;
ARM GAS  C:\Users\info\AppData\Local\Temp\ccz2UUAb.s 			page 39


  68:..\u8g2_csrc/u8x8_d_sbn1661.c ****   uint8_t x;
  69:..\u8g2_csrc/u8x8_d_sbn1661.c ****   uint8_t c;
  70:..\u8g2_csrc/u8x8_d_sbn1661.c ****   uint8_t arg_int;
  71:..\u8g2_csrc/u8x8_d_sbn1661.c **** };
  72:..\u8g2_csrc/u8x8_d_sbn1661.c **** 
  73:..\u8g2_csrc/u8x8_d_sbn1661.c **** #ifdef NOT_USED
  74:..\u8g2_csrc/u8x8_d_sbn1661.c **** static void u8x8_sbn1661_out(u8x8_t *u8x8, struct u8x8_sbn1661_vars *v, void *arg_ptr)
  75:..\u8g2_csrc/u8x8_d_sbn1661.c **** {
  76:..\u8g2_csrc/u8x8_d_sbn1661.c ****   uint8_t cnt;
  77:..\u8g2_csrc/u8x8_d_sbn1661.c ****   u8x8_cad_SendCmd(u8x8, 0x000 | ((v->x << 3) & 63) );
  78:..\u8g2_csrc/u8x8_d_sbn1661.c ****   u8x8_cad_SendCmd(u8x8, 0x0b8 | (((u8x8_tile_t *)arg_ptr)->y_pos));
  79:..\u8g2_csrc/u8x8_d_sbn1661.c ****   
  80:..\u8g2_csrc/u8x8_d_sbn1661.c ****   while( v->arg_int > 0 )
  81:..\u8g2_csrc/u8x8_d_sbn1661.c ****   {
  82:..\u8g2_csrc/u8x8_d_sbn1661.c ****       /* calculate tiles to next boundary (end or chip limit) */
  83:..\u8g2_csrc/u8x8_d_sbn1661.c ****       cnt = v->x;
  84:..\u8g2_csrc/u8x8_d_sbn1661.c ****       cnt += 8;
  85:..\u8g2_csrc/u8x8_d_sbn1661.c ****       cnt &= 0x0f8;
  86:..\u8g2_csrc/u8x8_d_sbn1661.c ****       cnt -= v->x;
  87:..\u8g2_csrc/u8x8_d_sbn1661.c ****             
  88:..\u8g2_csrc/u8x8_d_sbn1661.c ****       if ( cnt > v->c )
  89:..\u8g2_csrc/u8x8_d_sbn1661.c **** 	cnt = v->c;
  90:..\u8g2_csrc/u8x8_d_sbn1661.c ****     
  91:..\u8g2_csrc/u8x8_d_sbn1661.c ****       /* of course we still could use cnt=1 here... */
  92:..\u8g2_csrc/u8x8_d_sbn1661.c ****       /* but setting cnt to 1 is not very efficient */
  93:..\u8g2_csrc/u8x8_d_sbn1661.c ****       //cnt = 1;
  94:..\u8g2_csrc/u8x8_d_sbn1661.c ****     
  95:..\u8g2_csrc/u8x8_d_sbn1661.c ****       v->x +=cnt;
  96:..\u8g2_csrc/u8x8_d_sbn1661.c ****       v->c-=cnt;
  97:..\u8g2_csrc/u8x8_d_sbn1661.c ****       cnt<<=3;
  98:..\u8g2_csrc/u8x8_d_sbn1661.c ****       u8x8_cad_SendData(u8x8, cnt, v->ptr);	/* note: SendData can not handle more than 255 bytes */
  99:..\u8g2_csrc/u8x8_d_sbn1661.c ****       v->ptr += cnt;
 100:..\u8g2_csrc/u8x8_d_sbn1661.c ****     
 101:..\u8g2_csrc/u8x8_d_sbn1661.c ****       if ( v->c == 0 )
 102:..\u8g2_csrc/u8x8_d_sbn1661.c ****       {
 103:..\u8g2_csrc/u8x8_d_sbn1661.c **** 	v->ptr = ((u8x8_tile_t *)arg_ptr)->tile_ptr;
 104:..\u8g2_csrc/u8x8_d_sbn1661.c **** 	v->c = ((u8x8_tile_t *)arg_ptr)->cnt;
 105:..\u8g2_csrc/u8x8_d_sbn1661.c **** 	v->arg_int--;
 106:..\u8g2_csrc/u8x8_d_sbn1661.c ****       }
 107:..\u8g2_csrc/u8x8_d_sbn1661.c ****       if ( ((v->x) & 7) == 0 )
 108:..\u8g2_csrc/u8x8_d_sbn1661.c **** 	break;       
 109:..\u8g2_csrc/u8x8_d_sbn1661.c ****   } 
 110:..\u8g2_csrc/u8x8_d_sbn1661.c **** }
 111:..\u8g2_csrc/u8x8_d_sbn1661.c **** #endif /* NOT_USED */
 112:..\u8g2_csrc/u8x8_d_sbn1661.c **** 
 113:..\u8g2_csrc/u8x8_d_sbn1661.c **** 
 114:..\u8g2_csrc/u8x8_d_sbn1661.c **** static const u8x8_display_info_t u8x8_sbn1661_122x32_display_info =
 115:..\u8g2_csrc/u8x8_d_sbn1661.c **** {
 116:..\u8g2_csrc/u8x8_d_sbn1661.c ****   /* chip_enable_level = */ 0,		/* sbn1661: Not used */
 117:..\u8g2_csrc/u8x8_d_sbn1661.c ****   /* chip_disable_level = */ 1,		/* sbn1661: Not used */
 118:..\u8g2_csrc/u8x8_d_sbn1661.c ****   
 119:..\u8g2_csrc/u8x8_d_sbn1661.c ****   /* post_chip_enable_wait_ns = */ 100,
 120:..\u8g2_csrc/u8x8_d_sbn1661.c ****   /* pre_chip_disable_wait_ns = */ 20,
 121:..\u8g2_csrc/u8x8_d_sbn1661.c ****   /* reset_pulse_width_ms = */ 1, 
 122:..\u8g2_csrc/u8x8_d_sbn1661.c ****   /* post_reset_wait_ms = */ 6, 		/*  */
 123:..\u8g2_csrc/u8x8_d_sbn1661.c ****   /* sda_setup_time_ns = */ 12,		
 124:..\u8g2_csrc/u8x8_d_sbn1661.c ****   /* sck_pulse_width_ns = */ 75,	/* sbn1661: Not used */
ARM GAS  C:\Users\info\AppData\Local\Temp\ccz2UUAb.s 			page 40


 125:..\u8g2_csrc/u8x8_d_sbn1661.c ****   /* sck_clock_hz = */ 4000000UL,	/* sbn1661: Not used */
 126:..\u8g2_csrc/u8x8_d_sbn1661.c ****   /* spi_mode = */ 0,				/* active high, rising edge */
 127:..\u8g2_csrc/u8x8_d_sbn1661.c ****   /* i2c_bus_clock_100kHz = */ 4,	/* sbn1661: Not used */
 128:..\u8g2_csrc/u8x8_d_sbn1661.c ****   /* data_setup_time_ns = */ 200,
 129:..\u8g2_csrc/u8x8_d_sbn1661.c ****   /* write_pulse_width_ns = */ 200,	/*  */
 130:..\u8g2_csrc/u8x8_d_sbn1661.c ****   /* tile_width = */ 16,		/* width of 16*8=128 pixel */
 131:..\u8g2_csrc/u8x8_d_sbn1661.c ****   /* tile_hight = */ 4,
 132:..\u8g2_csrc/u8x8_d_sbn1661.c ****   /* default_x_offset = */ 0,
 133:..\u8g2_csrc/u8x8_d_sbn1661.c ****   /* flipmode_x_offset = */ 0,
 134:..\u8g2_csrc/u8x8_d_sbn1661.c ****   /* pixel_width = */ 122,
 135:..\u8g2_csrc/u8x8_d_sbn1661.c ****   /* pixel_height = */ 32
 136:..\u8g2_csrc/u8x8_d_sbn1661.c **** };
 137:..\u8g2_csrc/u8x8_d_sbn1661.c **** 
 138:..\u8g2_csrc/u8x8_d_sbn1661.c **** uint8_t u8x8_d_sbn1661_122x32(u8x8_t *u8x8, uint8_t msg, uint8_t arg_int, void *arg_ptr)
 139:..\u8g2_csrc/u8x8_d_sbn1661.c **** {
 517              		.loc 1 139 0
 518              		.cfi_startproc
 519              		@ args = 0, pretend = 0, frame = 0
 520              		@ frame_needed = 0, uses_anonymous_args = 0
 521              	.LVL0:
 522 0000 F8B5     		push	{r3, r4, r5, r6, r7, lr}
 523              		.cfi_def_cfa_offset 24
 524              		.cfi_offset 3, -24
 525              		.cfi_offset 4, -20
 526              		.cfi_offset 5, -16
 527              		.cfi_offset 6, -12
 528              		.cfi_offset 7, -8
 529              		.cfi_offset 14, -4
 530 0002 0446     		mov	r4, r0
 531 0004 1D46     		mov	r5, r3
 140:..\u8g2_csrc/u8x8_d_sbn1661.c ****   uint8_t *ptr;
 141:..\u8g2_csrc/u8x8_d_sbn1661.c ****   //uint8_t x;
 142:..\u8g2_csrc/u8x8_d_sbn1661.c ****   //uint8_t c;
 143:..\u8g2_csrc/u8x8_d_sbn1661.c ****   
 144:..\u8g2_csrc/u8x8_d_sbn1661.c ****   switch(msg)
 532              		.loc 1 144 0
 533 0006 0939     		subs	r1, r1, #9
 534              	.LVL1:
 535 0008 0629     		cmp	r1, #6
 536 000a 00F2AE80 		bhi	.L9
 537 000e DFE801F0 		tbb	[pc, r1]
 538              	.LVL2:
 539              	.L4:
 540 0012 04       		.byte	(.L3-.L4)/2
 541 0013 09       		.byte	(.L5-.L4)/2
 542 0014 2E       		.byte	(.L6-.L4)/2
 543 0015 AC       		.byte	(.L9-.L4)/2
 544 0016 AC       		.byte	(.L9-.L4)/2
 545 0017 AC       		.byte	(.L9-.L4)/2
 546 0018 73       		.byte	(.L7-.L4)/2
 547 0019 00       		.p2align 1
 548              	.L3:
 145:..\u8g2_csrc/u8x8_d_sbn1661.c ****   {
 146:..\u8g2_csrc/u8x8_d_sbn1661.c ****     case U8X8_MSG_DISPLAY_SETUP_MEMORY:
 147:..\u8g2_csrc/u8x8_d_sbn1661.c ****       u8x8_d_helper_display_setup_memory(u8x8, &u8x8_sbn1661_122x32_display_info);
 549              		.loc 1 147 0
 550 001a 5549     		ldr	r1, .L11
ARM GAS  C:\Users\info\AppData\Local\Temp\ccz2UUAb.s 			page 41


 551 001c FFF7FEFF 		bl	u8x8_d_helper_display_setup_memory
 552              	.LVL3:
 148:..\u8g2_csrc/u8x8_d_sbn1661.c ****       break;
 149:..\u8g2_csrc/u8x8_d_sbn1661.c ****     case U8X8_MSG_DISPLAY_INIT:
 150:..\u8g2_csrc/u8x8_d_sbn1661.c ****       u8x8_d_helper_display_init(u8x8);
 151:..\u8g2_csrc/u8x8_d_sbn1661.c ****     
 152:..\u8g2_csrc/u8x8_d_sbn1661.c ****       u8x8->cad_cb(u8x8, U8X8_MSG_CAD_START_TRANSFER, 0, NULL);
 153:..\u8g2_csrc/u8x8_d_sbn1661.c ****       u8x8_cad_SendSequence(u8x8, u8x8_d_sbn1661_init_seq);
 154:..\u8g2_csrc/u8x8_d_sbn1661.c ****       u8x8->cad_cb(u8x8, U8X8_MSG_CAD_END_TRANSFER, 0, NULL);
 155:..\u8g2_csrc/u8x8_d_sbn1661.c ****     
 156:..\u8g2_csrc/u8x8_d_sbn1661.c ****       u8x8->cad_cb(u8x8, U8X8_MSG_CAD_START_TRANSFER, 1, NULL);
 157:..\u8g2_csrc/u8x8_d_sbn1661.c ****       u8x8_cad_SendSequence(u8x8, u8x8_d_sbn1661_init_seq);
 158:..\u8g2_csrc/u8x8_d_sbn1661.c ****       u8x8->cad_cb(u8x8, U8X8_MSG_CAD_END_TRANSFER, 1, NULL);
 159:..\u8g2_csrc/u8x8_d_sbn1661.c ****       break;
 160:..\u8g2_csrc/u8x8_d_sbn1661.c ****     case U8X8_MSG_DISPLAY_SET_POWER_SAVE:
 161:..\u8g2_csrc/u8x8_d_sbn1661.c ****       
 162:..\u8g2_csrc/u8x8_d_sbn1661.c ****       if ( arg_int == 0 )
 163:..\u8g2_csrc/u8x8_d_sbn1661.c ****       {
 164:..\u8g2_csrc/u8x8_d_sbn1661.c **** 	u8x8->cad_cb(u8x8, U8X8_MSG_CAD_START_TRANSFER, 0, NULL);
 165:..\u8g2_csrc/u8x8_d_sbn1661.c **** 	u8x8_cad_SendSequence(u8x8, u8x8_d_sbn1661_powersave0_seq);
 166:..\u8g2_csrc/u8x8_d_sbn1661.c **** 	u8x8->cad_cb(u8x8, U8X8_MSG_CAD_END_TRANSFER, 0, NULL);
 167:..\u8g2_csrc/u8x8_d_sbn1661.c **** 
 168:..\u8g2_csrc/u8x8_d_sbn1661.c **** 	u8x8->cad_cb(u8x8, U8X8_MSG_CAD_START_TRANSFER, 1, NULL);
 169:..\u8g2_csrc/u8x8_d_sbn1661.c **** 	u8x8_cad_SendSequence(u8x8, u8x8_d_sbn1661_powersave0_seq);
 170:..\u8g2_csrc/u8x8_d_sbn1661.c **** 	u8x8->cad_cb(u8x8, U8X8_MSG_CAD_END_TRANSFER, 1, NULL);	
 171:..\u8g2_csrc/u8x8_d_sbn1661.c ****       }
 172:..\u8g2_csrc/u8x8_d_sbn1661.c ****       else
 173:..\u8g2_csrc/u8x8_d_sbn1661.c ****       {
 174:..\u8g2_csrc/u8x8_d_sbn1661.c **** 	u8x8->cad_cb(u8x8, U8X8_MSG_CAD_START_TRANSFER, 0, NULL);
 175:..\u8g2_csrc/u8x8_d_sbn1661.c **** 	u8x8_cad_SendSequence(u8x8, u8x8_d_sbn1661_powersave1_seq);
 176:..\u8g2_csrc/u8x8_d_sbn1661.c **** 	u8x8->cad_cb(u8x8, U8X8_MSG_CAD_END_TRANSFER, 0, NULL);
 177:..\u8g2_csrc/u8x8_d_sbn1661.c **** 	
 178:..\u8g2_csrc/u8x8_d_sbn1661.c **** 	u8x8->cad_cb(u8x8, U8X8_MSG_CAD_START_TRANSFER, 1, NULL);
 179:..\u8g2_csrc/u8x8_d_sbn1661.c **** 	u8x8_cad_SendSequence(u8x8, u8x8_d_sbn1661_powersave1_seq);
 180:..\u8g2_csrc/u8x8_d_sbn1661.c **** 	u8x8->cad_cb(u8x8, U8X8_MSG_CAD_END_TRANSFER, 1, NULL);
 181:..\u8g2_csrc/u8x8_d_sbn1661.c **** 	
 182:..\u8g2_csrc/u8x8_d_sbn1661.c ****       }
 183:..\u8g2_csrc/u8x8_d_sbn1661.c ****       break;
 184:..\u8g2_csrc/u8x8_d_sbn1661.c ****     case U8X8_MSG_DISPLAY_DRAW_TILE:
 185:..\u8g2_csrc/u8x8_d_sbn1661.c **** 
 186:..\u8g2_csrc/u8x8_d_sbn1661.c ****       ptr = ((u8x8_tile_t *)arg_ptr)->tile_ptr;
 187:..\u8g2_csrc/u8x8_d_sbn1661.c ****       // x and c are ignored (u8g2 only)
 188:..\u8g2_csrc/u8x8_d_sbn1661.c ****       //x = ((u8x8_tile_t *)arg_ptr)->x_pos;
 189:..\u8g2_csrc/u8x8_d_sbn1661.c ****       //c = ((u8x8_tile_t *)arg_ptr)->cnt;
 190:..\u8g2_csrc/u8x8_d_sbn1661.c ****       
 191:..\u8g2_csrc/u8x8_d_sbn1661.c ****       u8x8->cad_cb(u8x8, U8X8_MSG_CAD_START_TRANSFER, 0, NULL);
 192:..\u8g2_csrc/u8x8_d_sbn1661.c ****       u8x8_cad_SendCmd(u8x8, 0x000 | 0);		// column 0
 193:..\u8g2_csrc/u8x8_d_sbn1661.c ****       u8x8_cad_SendCmd(u8x8, 0x0b8 | (((u8x8_tile_t *)arg_ptr)->y_pos));
 194:..\u8g2_csrc/u8x8_d_sbn1661.c ****       u8x8_cad_SendData(u8x8, 61, ptr);	/* note: SendData can not handle more than 255 bytes */    
 195:..\u8g2_csrc/u8x8_d_sbn1661.c ****       u8x8->cad_cb(u8x8, U8X8_MSG_CAD_END_TRANSFER, 0, NULL);
 196:..\u8g2_csrc/u8x8_d_sbn1661.c **** 
 197:..\u8g2_csrc/u8x8_d_sbn1661.c ****       ptr += 61;
 198:..\u8g2_csrc/u8x8_d_sbn1661.c ****       
 199:..\u8g2_csrc/u8x8_d_sbn1661.c ****       u8x8->cad_cb(u8x8, U8X8_MSG_CAD_START_TRANSFER, 1, NULL);
 200:..\u8g2_csrc/u8x8_d_sbn1661.c ****       u8x8_cad_SendCmd(u8x8, 0x000 | 0);		// column 0
 201:..\u8g2_csrc/u8x8_d_sbn1661.c ****       u8x8_cad_SendCmd(u8x8, 0x0b8 | (((u8x8_tile_t *)arg_ptr)->y_pos));
 202:..\u8g2_csrc/u8x8_d_sbn1661.c ****     
ARM GAS  C:\Users\info\AppData\Local\Temp\ccz2UUAb.s 			page 42


 203:..\u8g2_csrc/u8x8_d_sbn1661.c ****       u8x8_cad_SendData(u8x8, 61, ptr);	/* note: SendData can not handle more than 255 bytes */    
 204:..\u8g2_csrc/u8x8_d_sbn1661.c ****       u8x8->cad_cb(u8x8, U8X8_MSG_CAD_END_TRANSFER, 1, NULL);
 205:..\u8g2_csrc/u8x8_d_sbn1661.c ****     
 206:..\u8g2_csrc/u8x8_d_sbn1661.c ****       break;
 207:..\u8g2_csrc/u8x8_d_sbn1661.c ****     default:
 208:..\u8g2_csrc/u8x8_d_sbn1661.c ****       return 0;
 209:..\u8g2_csrc/u8x8_d_sbn1661.c ****   }
 210:..\u8g2_csrc/u8x8_d_sbn1661.c ****   return 1;
 553              		.loc 1 210 0
 554 0020 0120     		movs	r0, #1
 148:..\u8g2_csrc/u8x8_d_sbn1661.c ****       break;
 555              		.loc 1 148 0
 556 0022 F8BD     		pop	{r3, r4, r5, r6, r7, pc}
 557              	.LVL4:
 558              	.L5:
 150:..\u8g2_csrc/u8x8_d_sbn1661.c ****     
 559              		.loc 1 150 0
 560 0024 FFF7FEFF 		bl	u8x8_d_helper_display_init
 561              	.LVL5:
 152:..\u8g2_csrc/u8x8_d_sbn1661.c ****       u8x8_cad_SendSequence(u8x8, u8x8_d_sbn1661_init_seq);
 562              		.loc 1 152 0
 563 0028 E568     		ldr	r5, [r4, #12]
 564              	.LVL6:
 565 002a 0023     		movs	r3, #0
 566 002c 1A46     		mov	r2, r3
 567 002e 1821     		movs	r1, #24
 568 0030 2046     		mov	r0, r4
 569 0032 A847     		blx	r5
 570              	.LVL7:
 153:..\u8g2_csrc/u8x8_d_sbn1661.c ****       u8x8->cad_cb(u8x8, U8X8_MSG_CAD_END_TRANSFER, 0, NULL);
 571              		.loc 1 153 0
 572 0034 4F4D     		ldr	r5, .L11+4
 573 0036 2946     		mov	r1, r5
 574 0038 2046     		mov	r0, r4
 575 003a FFF7FEFF 		bl	u8x8_cad_SendSequence
 576              	.LVL8:
 154:..\u8g2_csrc/u8x8_d_sbn1661.c ****     
 577              		.loc 1 154 0
 578 003e E668     		ldr	r6, [r4, #12]
 579 0040 0023     		movs	r3, #0
 580 0042 1A46     		mov	r2, r3
 581 0044 1921     		movs	r1, #25
 582 0046 2046     		mov	r0, r4
 583 0048 B047     		blx	r6
 584              	.LVL9:
 156:..\u8g2_csrc/u8x8_d_sbn1661.c ****       u8x8_cad_SendSequence(u8x8, u8x8_d_sbn1661_init_seq);
 585              		.loc 1 156 0
 586 004a E668     		ldr	r6, [r4, #12]
 587 004c 0023     		movs	r3, #0
 588 004e 0122     		movs	r2, #1
 589 0050 1821     		movs	r1, #24
 590 0052 2046     		mov	r0, r4
 591 0054 B047     		blx	r6
 592              	.LVL10:
 157:..\u8g2_csrc/u8x8_d_sbn1661.c ****       u8x8->cad_cb(u8x8, U8X8_MSG_CAD_END_TRANSFER, 1, NULL);
 593              		.loc 1 157 0
 594 0056 2946     		mov	r1, r5
ARM GAS  C:\Users\info\AppData\Local\Temp\ccz2UUAb.s 			page 43


 595 0058 2046     		mov	r0, r4
 596 005a FFF7FEFF 		bl	u8x8_cad_SendSequence
 597              	.LVL11:
 158:..\u8g2_csrc/u8x8_d_sbn1661.c ****       break;
 598              		.loc 1 158 0
 599 005e E568     		ldr	r5, [r4, #12]
 600 0060 0023     		movs	r3, #0
 601 0062 0122     		movs	r2, #1
 602 0064 1921     		movs	r1, #25
 603 0066 2046     		mov	r0, r4
 604 0068 A847     		blx	r5
 605              	.LVL12:
 606              		.loc 1 210 0
 607 006a 0120     		movs	r0, #1
 159:..\u8g2_csrc/u8x8_d_sbn1661.c ****     case U8X8_MSG_DISPLAY_SET_POWER_SAVE:
 608              		.loc 1 159 0
 609 006c F8BD     		pop	{r3, r4, r5, r6, r7, pc}
 610              	.LVL13:
 611              	.L6:
 162:..\u8g2_csrc/u8x8_d_sbn1661.c ****       {
 612              		.loc 1 162 0
 613 006e 0ABB     		cbnz	r2, .L8
 164:..\u8g2_csrc/u8x8_d_sbn1661.c **** 	u8x8_cad_SendSequence(u8x8, u8x8_d_sbn1661_powersave0_seq);
 614              		.loc 1 164 0
 615 0070 C568     		ldr	r5, [r0, #12]
 616              	.LVL14:
 617 0072 0023     		movs	r3, #0
 618 0074 1A46     		mov	r2, r3
 619              	.LVL15:
 620 0076 1821     		movs	r1, #24
 621 0078 A847     		blx	r5
 622              	.LVL16:
 165:..\u8g2_csrc/u8x8_d_sbn1661.c **** 	u8x8->cad_cb(u8x8, U8X8_MSG_CAD_END_TRANSFER, 0, NULL);
 623              		.loc 1 165 0
 624 007a 3F4D     		ldr	r5, .L11+8
 625 007c 2946     		mov	r1, r5
 626 007e 2046     		mov	r0, r4
 627 0080 FFF7FEFF 		bl	u8x8_cad_SendSequence
 628              	.LVL17:
 166:..\u8g2_csrc/u8x8_d_sbn1661.c **** 
 629              		.loc 1 166 0
 630 0084 E668     		ldr	r6, [r4, #12]
 631 0086 0023     		movs	r3, #0
 632 0088 1A46     		mov	r2, r3
 633 008a 1921     		movs	r1, #25
 634 008c 2046     		mov	r0, r4
 635 008e B047     		blx	r6
 636              	.LVL18:
 168:..\u8g2_csrc/u8x8_d_sbn1661.c **** 	u8x8_cad_SendSequence(u8x8, u8x8_d_sbn1661_powersave0_seq);
 637              		.loc 1 168 0
 638 0090 E668     		ldr	r6, [r4, #12]
 639 0092 0023     		movs	r3, #0
 640 0094 0122     		movs	r2, #1
 641 0096 1821     		movs	r1, #24
 642 0098 2046     		mov	r0, r4
 643 009a B047     		blx	r6
 644              	.LVL19:
ARM GAS  C:\Users\info\AppData\Local\Temp\ccz2UUAb.s 			page 44


 169:..\u8g2_csrc/u8x8_d_sbn1661.c **** 	u8x8->cad_cb(u8x8, U8X8_MSG_CAD_END_TRANSFER, 1, NULL);	
 645              		.loc 1 169 0
 646 009c 2946     		mov	r1, r5
 647 009e 2046     		mov	r0, r4
 648 00a0 FFF7FEFF 		bl	u8x8_cad_SendSequence
 649              	.LVL20:
 170:..\u8g2_csrc/u8x8_d_sbn1661.c ****       }
 650              		.loc 1 170 0
 651 00a4 E568     		ldr	r5, [r4, #12]
 652 00a6 0023     		movs	r3, #0
 653 00a8 0122     		movs	r2, #1
 654 00aa 1921     		movs	r1, #25
 655 00ac 2046     		mov	r0, r4
 656 00ae A847     		blx	r5
 657              	.LVL21:
 658              		.loc 1 210 0
 659 00b0 0120     		movs	r0, #1
 660 00b2 F8BD     		pop	{r3, r4, r5, r6, r7, pc}
 661              	.LVL22:
 662              	.L8:
 174:..\u8g2_csrc/u8x8_d_sbn1661.c **** 	u8x8_cad_SendSequence(u8x8, u8x8_d_sbn1661_powersave1_seq);
 663              		.loc 1 174 0
 664 00b4 C568     		ldr	r5, [r0, #12]
 665              	.LVL23:
 666 00b6 0023     		movs	r3, #0
 667 00b8 1A46     		mov	r2, r3
 668              	.LVL24:
 669 00ba 1821     		movs	r1, #24
 670 00bc A847     		blx	r5
 671              	.LVL25:
 175:..\u8g2_csrc/u8x8_d_sbn1661.c **** 	u8x8->cad_cb(u8x8, U8X8_MSG_CAD_END_TRANSFER, 0, NULL);
 672              		.loc 1 175 0
 673 00be 2F4D     		ldr	r5, .L11+12
 674 00c0 2946     		mov	r1, r5
 675 00c2 2046     		mov	r0, r4
 676 00c4 FFF7FEFF 		bl	u8x8_cad_SendSequence
 677              	.LVL26:
 176:..\u8g2_csrc/u8x8_d_sbn1661.c **** 	
 678              		.loc 1 176 0
 679 00c8 E668     		ldr	r6, [r4, #12]
 680 00ca 0023     		movs	r3, #0
 681 00cc 1A46     		mov	r2, r3
 682 00ce 1921     		movs	r1, #25
 683 00d0 2046     		mov	r0, r4
 684 00d2 B047     		blx	r6
 685              	.LVL27:
 178:..\u8g2_csrc/u8x8_d_sbn1661.c **** 	u8x8_cad_SendSequence(u8x8, u8x8_d_sbn1661_powersave1_seq);
 686              		.loc 1 178 0
 687 00d4 E668     		ldr	r6, [r4, #12]
 688 00d6 0023     		movs	r3, #0
 689 00d8 0122     		movs	r2, #1
 690 00da 1821     		movs	r1, #24
 691 00dc 2046     		mov	r0, r4
 692 00de B047     		blx	r6
 693              	.LVL28:
 179:..\u8g2_csrc/u8x8_d_sbn1661.c **** 	u8x8->cad_cb(u8x8, U8X8_MSG_CAD_END_TRANSFER, 1, NULL);
 694              		.loc 1 179 0
ARM GAS  C:\Users\info\AppData\Local\Temp\ccz2UUAb.s 			page 45


 695 00e0 2946     		mov	r1, r5
 696 00e2 2046     		mov	r0, r4
 697 00e4 FFF7FEFF 		bl	u8x8_cad_SendSequence
 698              	.LVL29:
 180:..\u8g2_csrc/u8x8_d_sbn1661.c **** 	
 699              		.loc 1 180 0
 700 00e8 E568     		ldr	r5, [r4, #12]
 701 00ea 0023     		movs	r3, #0
 702 00ec 0122     		movs	r2, #1
 703 00ee 1921     		movs	r1, #25
 704 00f0 2046     		mov	r0, r4
 705 00f2 A847     		blx	r5
 706              	.LVL30:
 707              		.loc 1 210 0
 708 00f4 0120     		movs	r0, #1
 709 00f6 F8BD     		pop	{r3, r4, r5, r6, r7, pc}
 710              	.LVL31:
 711              	.L7:
 186:..\u8g2_csrc/u8x8_d_sbn1661.c ****       // x and c are ignored (u8g2 only)
 712              		.loc 1 186 0
 713 00f8 2E68     		ldr	r6, [r5]
 714              	.LVL32:
 191:..\u8g2_csrc/u8x8_d_sbn1661.c ****       u8x8_cad_SendCmd(u8x8, 0x000 | 0);		// column 0
 715              		.loc 1 191 0
 716 00fa C768     		ldr	r7, [r0, #12]
 717 00fc 0023     		movs	r3, #0
 718 00fe 1A46     		mov	r2, r3
 719              	.LVL33:
 720 0100 1821     		movs	r1, #24
 721 0102 B847     		blx	r7
 722              	.LVL34:
 192:..\u8g2_csrc/u8x8_d_sbn1661.c ****       u8x8_cad_SendCmd(u8x8, 0x0b8 | (((u8x8_tile_t *)arg_ptr)->y_pos));
 723              		.loc 1 192 0
 724 0104 0021     		movs	r1, #0
 725 0106 2046     		mov	r0, r4
 726 0108 FFF7FEFF 		bl	u8x8_cad_SendCmd
 727              	.LVL35:
 193:..\u8g2_csrc/u8x8_d_sbn1661.c ****       u8x8_cad_SendData(u8x8, 61, ptr);	/* note: SendData can not handle more than 255 bytes */    
 728              		.loc 1 193 0
 729 010c A979     		ldrb	r1, [r5, #6]	@ zero_extendqisi2
 730 010e 41F0B801 		orr	r1, r1, #184
 731 0112 2046     		mov	r0, r4
 732 0114 FFF7FEFF 		bl	u8x8_cad_SendCmd
 733              	.LVL36:
 194:..\u8g2_csrc/u8x8_d_sbn1661.c ****       u8x8->cad_cb(u8x8, U8X8_MSG_CAD_END_TRANSFER, 0, NULL);
 734              		.loc 1 194 0
 735 0118 3246     		mov	r2, r6
 736 011a 3D21     		movs	r1, #61
 737 011c 2046     		mov	r0, r4
 738 011e FFF7FEFF 		bl	u8x8_cad_SendData
 739              	.LVL37:
 195:..\u8g2_csrc/u8x8_d_sbn1661.c **** 
 740              		.loc 1 195 0
 741 0122 E768     		ldr	r7, [r4, #12]
 742 0124 0023     		movs	r3, #0
 743 0126 1A46     		mov	r2, r3
 744 0128 1921     		movs	r1, #25
ARM GAS  C:\Users\info\AppData\Local\Temp\ccz2UUAb.s 			page 46


 745 012a 2046     		mov	r0, r4
 746 012c B847     		blx	r7
 747              	.LVL38:
 197:..\u8g2_csrc/u8x8_d_sbn1661.c ****       
 748              		.loc 1 197 0
 749 012e 3D36     		adds	r6, r6, #61
 750              	.LVL39:
 199:..\u8g2_csrc/u8x8_d_sbn1661.c ****       u8x8_cad_SendCmd(u8x8, 0x000 | 0);		// column 0
 751              		.loc 1 199 0
 752 0130 E768     		ldr	r7, [r4, #12]
 753 0132 0023     		movs	r3, #0
 754 0134 0122     		movs	r2, #1
 755 0136 1821     		movs	r1, #24
 756 0138 2046     		mov	r0, r4
 757 013a B847     		blx	r7
 758              	.LVL40:
 200:..\u8g2_csrc/u8x8_d_sbn1661.c ****       u8x8_cad_SendCmd(u8x8, 0x0b8 | (((u8x8_tile_t *)arg_ptr)->y_pos));
 759              		.loc 1 200 0
 760 013c 0021     		movs	r1, #0
 761 013e 2046     		mov	r0, r4
 762 0140 FFF7FEFF 		bl	u8x8_cad_SendCmd
 763              	.LVL41:
 201:..\u8g2_csrc/u8x8_d_sbn1661.c ****     
 764              		.loc 1 201 0
 765 0144 A979     		ldrb	r1, [r5, #6]	@ zero_extendqisi2
 766 0146 41F0B801 		orr	r1, r1, #184
 767 014a 2046     		mov	r0, r4
 768 014c FFF7FEFF 		bl	u8x8_cad_SendCmd
 769              	.LVL42:
 203:..\u8g2_csrc/u8x8_d_sbn1661.c ****       u8x8->cad_cb(u8x8, U8X8_MSG_CAD_END_TRANSFER, 1, NULL);
 770              		.loc 1 203 0
 771 0150 3246     		mov	r2, r6
 772 0152 3D21     		movs	r1, #61
 773 0154 2046     		mov	r0, r4
 774 0156 FFF7FEFF 		bl	u8x8_cad_SendData
 775              	.LVL43:
 204:..\u8g2_csrc/u8x8_d_sbn1661.c ****     
 776              		.loc 1 204 0
 777 015a E568     		ldr	r5, [r4, #12]
 778              	.LVL44:
 779 015c 0023     		movs	r3, #0
 780 015e 0122     		movs	r2, #1
 781 0160 1921     		movs	r1, #25
 782 0162 2046     		mov	r0, r4
 783 0164 A847     		blx	r5
 784              	.LVL45:
 785              		.loc 1 210 0
 786 0166 0120     		movs	r0, #1
 206:..\u8g2_csrc/u8x8_d_sbn1661.c ****     default:
 787              		.loc 1 206 0
 788 0168 F8BD     		pop	{r3, r4, r5, r6, r7, pc}
 789              	.LVL46:
 790              	.L9:
 208:..\u8g2_csrc/u8x8_d_sbn1661.c ****   }
 791              		.loc 1 208 0
 792 016a 0020     		movs	r0, #0
 793              	.LVL47:
ARM GAS  C:\Users\info\AppData\Local\Temp\ccz2UUAb.s 			page 47


 211:..\u8g2_csrc/u8x8_d_sbn1661.c **** }
 794              		.loc 1 211 0
 795 016c F8BD     		pop	{r3, r4, r5, r6, r7, pc}
 796              	.LVL48:
 797              	.L12:
 798 016e 00BF     		.align	2
 799              	.L11:
 800 0170 00000000 		.word	.LANCHOR0
 801 0174 18000000 		.word	.LANCHOR0+24
 802 0178 24000000 		.word	.LANCHOR0+36
 803 017c 28000000 		.word	.LANCHOR0+40
 804              		.cfi_endproc
 805              	.LFE0:
 806              		.size	u8x8_d_sbn1661_122x32, .-u8x8_d_sbn1661_122x32
 807              		.section	.text.u8x8_d_sed1520_122x32,"ax",%progbits
 808              		.align	2
 809              		.global	u8x8_d_sed1520_122x32
 810              		.thumb
 811              		.thumb_func
 812              		.type	u8x8_d_sed1520_122x32, %function
 813              	u8x8_d_sed1520_122x32:
 814              	.LFB1:
 212:..\u8g2_csrc/u8x8_d_sbn1661.c **** 
 213:..\u8g2_csrc/u8x8_d_sbn1661.c **** uint8_t u8x8_d_sed1520_122x32(u8x8_t *u8x8, uint8_t msg, uint8_t arg_int, void *arg_ptr)
 214:..\u8g2_csrc/u8x8_d_sbn1661.c **** {
 815              		.loc 1 214 0
 816              		.cfi_startproc
 817              		@ args = 0, pretend = 0, frame = 0
 818              		@ frame_needed = 0, uses_anonymous_args = 0
 819              	.LVL49:
 820 0000 08B5     		push	{r3, lr}
 821              		.cfi_def_cfa_offset 8
 822              		.cfi_offset 3, -8
 823              		.cfi_offset 14, -4
 215:..\u8g2_csrc/u8x8_d_sbn1661.c ****   return u8x8_d_sbn1661_122x32(u8x8, msg, arg_int, arg_ptr);
 824              		.loc 1 215 0
 825 0002 FFF7FEFF 		bl	u8x8_d_sbn1661_122x32
 826              	.LVL50:
 216:..\u8g2_csrc/u8x8_d_sbn1661.c **** 
 217:..\u8g2_csrc/u8x8_d_sbn1661.c **** }
 827              		.loc 1 217 0
 828 0006 08BD     		pop	{r3, pc}
 829              		.cfi_endproc
 830              	.LFE1:
 831              		.size	u8x8_d_sed1520_122x32, .-u8x8_d_sed1520_122x32
 832              		.section	.rodata
 833              		.align	2
 834              		.set	.LANCHOR0,. + 0
 835              		.type	u8x8_sbn1661_122x32_display_info, %object
 836              		.size	u8x8_sbn1661_122x32_display_info, 24
 837              	u8x8_sbn1661_122x32_display_info:
 838 0000 00       		.byte	0
 839 0001 01       		.byte	1
 840 0002 64       		.byte	100
 841 0003 14       		.byte	20
 842 0004 01       		.byte	1
 843 0005 06       		.byte	6
ARM GAS  C:\Users\info\AppData\Local\Temp\ccz2UUAb.s 			page 48


 844 0006 0C       		.byte	12
 845 0007 4B       		.byte	75
 846 0008 00093D00 		.word	4000000
 847 000c 00       		.byte	0
 848 000d 04       		.byte	4
 849 000e C8       		.byte	-56
 850 000f C8       		.byte	-56
 851 0010 10       		.byte	16
 852 0011 04       		.byte	4
 853 0012 00       		.byte	0
 854 0013 00       		.byte	0
 855 0014 7A00     		.short	122
 856 0016 2000     		.short	32
 857              		.type	u8x8_d_sbn1661_init_seq, %object
 858              		.size	u8x8_d_sbn1661_init_seq, 9
 859              	u8x8_d_sbn1661_init_seq:
 860 0018 15       		.byte	21
 861 0019 C0       		.byte	-64
 862 001a 15       		.byte	21
 863 001b A0       		.byte	-96
 864 001c 15       		.byte	21
 865 001d A4       		.byte	-92
 866 001e 15       		.byte	21
 867 001f A9       		.byte	-87
 868 0020 FF       		.byte	-1
 869 0021 000000   		.space	3
 870              		.type	u8x8_d_sbn1661_powersave0_seq, %object
 871              		.size	u8x8_d_sbn1661_powersave0_seq, 3
 872              	u8x8_d_sbn1661_powersave0_seq:
 873 0024 15       		.byte	21
 874 0025 AF       		.byte	-81
 875 0026 FF       		.byte	-1
 876 0027 00       		.space	1
 877              		.type	u8x8_d_sbn1661_powersave1_seq, %object
 878              		.size	u8x8_d_sbn1661_powersave1_seq, 3
 879              	u8x8_d_sbn1661_powersave1_seq:
 880 0028 15       		.byte	21
 881 0029 AE       		.byte	-82
 882 002a FF       		.byte	-1
 883              		.text
 884              	.Letext0:
 885              		.file 2 "c:\\program files (x86)\\cypress\\psoc creator\\4.2\\psoc creator\\import\\gnu\\arm\\5.4.
 886              		.file 3 "c:\\program files (x86)\\cypress\\psoc creator\\4.2\\psoc creator\\import\\gnu\\arm\\5.4.
 887              		.file 4 "..\\u8g2_csrc\\u8x8.h"