ARM GAS  C:\Users\info\AppData\Local\Temp\cc0OVjuF.s 			page 1


   1              		.syntax unified
   2              		.cpu cortex-m3
   3              		.fpu softvfp
   4              		.eabi_attribute 20, 1
   5              		.eabi_attribute 21, 1
   6              		.eabi_attribute 23, 3
   7              		.eabi_attribute 24, 1
   8              		.eabi_attribute 25, 1
   9              		.eabi_attribute 26, 1
  10              		.eabi_attribute 30, 1
  11              		.eabi_attribute 34, 1
  12              		.eabi_attribute 18, 4
  13              		.thumb
  14              		.syntax unified
  15              		.file	"u8x8_d_ls013b7dh03.c"
  16              		.text
  17              	.Ltext0:
  18              		.section	.gnu.lto_.profile.792a4aea,"",%progbits
  19 0000 789C6361 		.ascii	"x\234ca`d`e`\000\222\177\030\263\000\003\336\001s"
  19      60646065 
  19      6000927F 
  19      18B30003 
  19      DE0173
  20              		.text
  21              		.section	.gnu.lto_.inline.792a4aea,"",%progbits
  22 0000 789C6361 		.ascii	"x\234ca`d\000\201\363\014\010\300\314\300p\201\241\225"
  22      60640081 
  22      F30C08C0 
  22      CCC07081 
  22      A195
  23 0012 91918129 		.ascii	"\221\221\201)\360\306'V\006\316\037\312L a&n\006\006"
  23      F0C62756 
  23      06CE1FCA 
  23      4C206126 
  23      6E0606
  24 0025 C6097ECC 		.ascii	"\306\011~\314<@\346\004?\006f\036\240\202\227\006\014"
  24      3C40E604 
  24      3F06661E 
  24      A0829706 
  24      0C
  25 0036 2CBC8C0C 		.ascii	",\274\214\014\314/\015\036q\202\244\300B\0105P-\030"
  25      CC2F0D1E 
  25      7182A4C0 
  25      42083550 
  25      2D18
  26 0048 3AF1C932 		.ascii	":\361\31121\010\010\001\215\341X \317\300\266@\036l"
  26      31080801 
  26      8DE15820 
  26      CFC0B640 
  26      1E6C
  27 005a 331B3F03 		.ascii	"3\033?\003\003\313\004?\010\204\251c!R\035\003\0006"
  27      03CB043F 
  27      0884A963 
  27      21521D03 
  27      0036
  28 006c 1C2155   		.ascii	"\034!U"
  29              		.text
ARM GAS  C:\Users\info\AppData\Local\Temp\cc0OVjuF.s 			page 2


  30              		.section	.gnu.lto_.jmpfuncs.792a4aea,"",%progbits
  31 0000 789C6361 		.ascii	"x\234ca`d\000\001\031\006\004`f@\003L \202\005\314\004"
  31      60640001 
  31      19060460 
  31      6640034C 
  31      208205CC 
  32 0015 00060000 		.ascii	"\000\006\000\000+"
  32      2B
  33              		.text
  34              		.section	.gnu.lto_.pureconst.792a4aea,"",%progbits
  35 0000 789C6361 		.ascii	"x\234ca`d`g```f\220d\222`\221\000\000\001\247\000_"
  35      60646067 
  35      60606066 
  35      90649260 
  35      91000001 
  36              		.text
  37              		.section	.gnu.lto_u8x8_d_ls013b7dh03_128x128.792a4aea,"",%progbits
  38 0000 789C7D57 		.ascii	"x\234}WklTU\020>s\317\335{\357n\237\320*E\013\024\260"
  38      6B6C5455 
  38      103E73CF 
  38      DD7BEF6E 
  38      9FD02A45 
  39 0017 5428B485 		.ascii	"T(\264\205\312#\006\210\3760\321\030\375\341o\014Q0"
  39      CA230688 
  39      FE30D118 
  39      FDE16F0C 
  39      5130
  40 0029 40546278 		.ascii	"@Tbx\030\214?z\333\355\026h\000K\002\024\260X\037T\344"
  40      188C3F7A 
  40      DBED1668 
  40      004B0214 
  40      B0581F54 
  41 003e 2150B0D2 		.ascii	"!P\260\322\026\012\313\253\205\226\026\020\244  X*/"
  41      160ACBAB 
  41      85961610 
  41      A4202058 
  41      2A2F
  42 0050 89710B02 		.ascii	"\211q\013\002\321\302:3\347.\356-]\232\354\334s\346"
  42      D1C23A33 
  42      E72EEE2D 
  42      5D9AECDC 
  42      73E6
  43 0062 CCF79D39 		.ascii	"\314\367\2359sf\346\336\352\002\004\375\225$\010\361"
  43      7366E6DE 
  43      EA0204FD 
  43      952408F1 
  44 0072 263ECBF1 		.ascii	"&>\313\361\007q\002\264\2626!\012-\315\343;\221$lK\262"
  44      077102B4 
  44      B236210A 
  44      2DCDE33B 
  44      91246C4B 
  45 0087 D4597A59 		.ascii	"\324YzYz\224\036|\312P\217\014<`\252\201\241\006\373"
  45      7A941E7C 
  45      CA508F0C 
  45      3C60AA81 
  45      A106FB
  46 009a 2D5333EA 		.ascii	"-S3\352\016\013a\373\254vK\330\361V\304\322\253\006"
ARM GAS  C:\Users\info\AppData\Local\Temp\cc0OVjuF.s 			page 3


  46      0E0B61FB 
  46      AC764BD8 
  46      F156C4D2 
  46      AB06
  47 00ac E003A0A7 		.ascii	"\340\003\240\247m\201(\320\244\3561L\313\353\203\002"
  47      6D8128D0 
  47      A4EE314C 
  47      CBEB8302 
  48 00bc CD1410D4 		.ascii	"\315\024\020\324\301bA.\376\255=\320\240\345\336\221"
  48      C162412E 
  48      FEAD3DD0 
  48      A0E5DE91 
  49 00cc 25BEE11B 		.ascii	"%\276\341\033l\273\310\276|\370\312\253\241\242@Z@\012"
  49      6CBBC8BE 
  49      7CF8CAAB 
  49      A1A2405A 
  49      400A
  50 00de 11D604E4 		.ascii	"\021\326\004\344\247C^:\271\277\001\206\243\345\311"
  50      A7435E3A 
  50      B9BF0186 
  50      A3E5C9
  51 00ed E2ED15F2 		.ascii	"\342\355\025\362\216\026\220\000:NC\255k\257$\322T\203"
  51      8E169000 
  51      3A4E43AD 
  51      6BAF24D2 
  51      5483
  52 00ff 0C9C7E79 		.ascii	"\014\234~y\372\233\013\206\314\004\201\343U\315\247"
  52      FA9B0B86 
  52      CC0481E3 
  52      55CDA7
  53 010e FF4CC8AA 		.ascii	"\377L\310\252\"N\273\356=\333\033\220\0226\201$\316"
  53      224EBBEE 
  53      3DDB1B90 
  53      12368124 
  53      CE
  54 011f 8D900EDF 		.ascii	"\215\220\016\337A\272@\225\200\315\220\205\326\307\266"
  54      41BA4095 
  54      80CD9085 
  54      D6C7B6
  55 012e D7B5EB72 		.ascii	"\327\265\353r\004#\357\3559\370 \202\374\373m[\242+"
  55      0423EFED 
  55      39F82082 
  55      FCFB6D5B 
  55      A22B
  56 0140 B0452195 		.ascii	"\260E!\2257\344\033|\317\270#\015\255\237\312\034\206"
  56      37E41B7C 
  56      CFB8230D 
  56      AD9FCA1C 
  56      86
  57 0151 355FB95A 		.ascii	"5_\271Zk\350h\264\025p\2354\253O^^\352\223cy\265\251"
  57      6BE868B4 
  57      15709D34 
  57      AB4F5E5E 
  57      EA936379 
  58 0167 E4F622E9 		.ascii	"\344\366\"\351\220\2667\306\331y\304\272=\212\025\266"
  58      90B637C6 
  58      D979C4BA 
ARM GAS  C:\Users\info\AppData\Local\Temp\cc0OVjuF.s 			page 4


  58      3D8A15B6 
  59 0177 81CEC4D5 		.ascii	"\201\316\304\325L|\356Z\353)\237\234\304\330M5\227v"
  59      4C7CEE5A 
  59      EB299F9C 
  59      C4D84D35 
  59      9776
  60 0189 980E7665 		.ascii	"\230\016veS\274]\006\001\251\303\216\236\207\321\005"
  60      53BC5D06 
  60      01A9C38E 
  60      9E87D105 
  61 0199 EC842C02 		.ascii	"\354\204,\002,;]\332!\345+\014\256\262\267\227z3\277"
  61      2C3B5DDA 
  61      21E52B0C 
  61      AEB2B797 
  61      7A33BF
  62 01ac 21707067 		.ascii	"!ppgI\342\032;X\234\021\220\036\370\301\015\027\312"
  62      49E21A3B 
  62      589C1190 
  62      1EF8C10D 
  62      17CA
  63 01be E5AA9683 		.ascii	"\345\252\226\203{\023\345k\214\\\337Q\271B:\310\352"
  63      7B13E56B 
  63      8C5CDF51 
  63      B9423AC8 
  63      EA
  64 01cf C6D4723B 		.ascii	"\306\324r;X\230A^\377\030\035\013\007\327\266\241j\205"
  64      5898415E 
  64      FF181D0B 
  64      07D7B6A1 
  64      6A85
  65 01e1 4FBECEB8 		.ascii	"O\276\316\270\312U\365g\235\035\355\206)\266\377%\002"
  65      CA55F567 
  65      9D1DED86 
  65      29B6FF25 
  65      02
  66 01f2 D5F602DA 		.ascii	"\325\366\002\332S\332\322m\3117\030\264\354pY\212\203"
  66      53DAD26D 
  66      C93718B4 
  66      EC70598A 
  66      83
  67 0203 D915C1D4 		.ascii	"\331\025\301\324\367\202\351\250~\2702\301(\266\361"
  67      F782E9A8 
  67      7EB832C1 
  67      28B6F1
  68 0212 2F037643 		.ascii	"/\003vC&\324\341o\027\376j \223\022\006\003\270\007"
  68      26D4E16F 
  68      17FE6A20 
  68      93120603 
  68      B807
  69 0224 0C4C7FBD 		.ascii	"\014L\177\275\347\352\266\267\202v8\354\267\203\225"
  69      E7EAB6B7 
  69      827638EC 
  69      B78395
  70 0233 C6FE3BE6 		.ascii	"\306\376;\346\313 h\001\351qI\322\225\032@wj\001eD\022"
  70      CB206801 
  70      E97149D2 
  70      951A4077 
ARM GAS  C:\Users\info\AppData\Local\Temp\cc0OVjuF.s 			page 5


  70      6A016544 
  71 0248 50289351 		.ascii	"P(\223Qm\364!\321W\020[\212 \276T\206\364C\265\231F"
  71      6DF421D1 
  71      57105B8A 
  71      20BE5486 
  71      F443B599 
  72 025d A23F8967 		.ascii	"\242?\211gH<\213\302\242\233\260\006\320t \215\006\221"
  72      483C8BC2 
  72      A29BB006 
  72      D074208D 
  72      0691
  73 026f C8203198 		.ascii	"\310 1\230tCh4\224\304s$2I7\214FY$\236'1\234t#h\224"
  73      74436834 
  73      94C47324 
  73      3249378C 
  73      4659249E 
  74 028a 4D622489 		.ascii	"Mb$\211Q\244\313\241Q.\211<\022\243I7\206F\371$^ 1\226"
  74      51A4CBA1 
  74      512E893C 
  74      12A34937 
  74      8646F924 
  75 02a2 74E36834 		.ascii	"t\343h4\236\304\004\362}\"\012\230\304NO\3463\013\361"
  75      9EC404F2 
  75      7D220A98 
  75      C44E4FE6 
  75      330BF1
  76 02b5 17C66967 		.ascii	"\027\306ig\266\010i\032>\344\357P\022\254i\004\212\233"
  76      B608691A 
  76      3EE4EF50 
  76      12AC6904 
  76      8A9B
  77 02c7 5F1A543A 		.ascii	"_\032T:\347\326_\367,\207\317\0121\314\301\213MX^^\254"
  77      E7D65FF7 
  77      2C87CF0A 
  77      31CCC18B 
  77      4D585E5E 
  78 02dc 644A6A01 		.ascii	"dJj\001\015\260\034\310\244uy\275A\205'\300\213\323"
  78      0DB01CC8 
  78      A47579BD 
  78      418527C0 
  78      8BD3
  79 02ee 03B7CE77 		.ascii	"\003\267\316wB\004Qk \000\366bR\331\222\372\020\354"
  79      4204516B 
  79      2000F662 
  79      52D992FA 
  79      10EC
  80 0300 5398D6AF 		.ascii	"S\230\326\257\266\2649\030\037N\213\026\267WY\021\314"
  80      B6B43918 
  80      1F4E8B16 
  80      B7575911 
  80      CC
  81 0311 5EC60419 		.ascii	"^\306\004\031\303\227\270_a\376\275\337\326`*L\034\225"
  81      C397B85F 
  81      61FEBDDF 
  81      D6602A4C 
  81      1C95
  82 0323 E6CAAB5F 		.ascii	"\346\312\253_\032\021L\027c\0160\206\234\203\203\012"
ARM GAS  C:\Users\info\AppData\Local\Temp\cc0OVjuF.s 			page 6


  82      1A114C17 
  82      630E3086 
  82      9C83830A 
  83 0333 B3E5DB50 		.ascii	"\263\345\333P0Ia\222p\372\305\017\033V$D0\367\031s\210"
  83      30496192 
  83      70FAC50F 
  83      1B562444 
  83      30F71973 
  84 0348 313A610E 		.ascii	"1:a\016#\006\237!M\212vKvBa2\305\201\034\277\016\201"
  84      23069F21 
  84      4D8A764B 
  84      76426132 
  84      C5811CBF 
  85 035e E0EE4649 		.ascii	"\340\356FISJ\274\272\272[\347\315\202\007\366\"\333"
  85      534ABCBA 
  85      BA5BE7CD 
  85      8207F622 
  85      DB
  86 036f 4E0E485F 		.ascii	"N\016H_XC\0304B\201\360K\213\002\0228p\234\035\215\343"
  86      58431834 
  86      4281F04B 
  86      8B021238 
  86      709C1D8D 
  87 0384 74F6FFB3 		.ascii	"t\366\377\263\357v\"Z\257f\353\270\305\322\303\331{"
  87      EF76225A 
  87      AF66EBB8 
  87      C5D2C3D9 
  87      7B
  88 0395 74EDE6F7 		.ascii	"t\355\346\367+a]a\031\253\343\341\010\024@\023U\037"
  88      2B615D61 
  88      19ABE3E1 
  88      08144013 
  88      551F
  89 03a7 AE856FEE 		.ascii	"\256\205o\356\330\352EH\032q\034\205J\276\020\001\315"
  89      D8EA4548 
  89      1A711C85 
  89      4ABE1001 
  89      CD
  90 03b8 50109009 		.ascii	"P\020\220\011\354\242\356vQC\027\213\203'\214\336=L"
  90      ECA2EE76 
  90      5143178B 
  90      83278CDE 
  90      3D4C
  91 03ca 0CE3ED0A 		.ascii	"\014\343\355\012hQ\036\006d\022[\237\211a\235\034\326"
  91      68511E06 
  91      64125B9F 
  91      89619D1C 
  91      D6
  92 03db A8F71C8B 		.ascii	"\250\367\034\213X\367\341\343\237\215a\3357\214\276"
  92      58F7E1E3 
  92      9F8D61DD 
  92      378CBE
  93 03ea 08687D74 		.ascii	"\010h}t\372\2057\354\006]\205<\003\332 = S\230\340\227"
  93      FA8537EC 
  93      065D853C 
  93      03DA203D 
  93      205398E0 
ARM GAS  C:\Users\info\AppData\Local\Temp\cc0OVjuF.s 			page 7


  94 03ff 27131C7F 		.ascii	"'\023\034\177<|\370\346\202\023\021\202\342\340\205"
  94      3C7CF8E6 
  94      82131182 
  94      E2E085
  95 040e D8FE6244 		.ascii	"\330\376bD\341\344\377\376R\200<\356\000\351\342*\024"
  95      E1E4FFFE 
  95      52803CEE 
  95      00E9E22A 
  95      14
  96 041f D5575F3A 		.ascii	"\325W_:\351U\271\235\034\275Q\252\352\365M\315\213\342"
  96      E955B99D 
  96      1CBD51AA 
  96      EAF54DCD 
  96      8BE2
  97 0431 F146B0A3 		.ascii	"\361F\260\243>\345\227I\360\223s\031U\235E[\315\334"
  97      3EE59749 
  97      F0937319 
  97      559D455B 
  97      CDDC
  98 0443 51E4CF29 		.ascii	"Q\344\317)\274\212\207\032'\377i\310EJ\377\332\222c"
  98      BC8A871A 
  98      27FF69C8 
  98      454AFFDA 
  98      9263
  99 0455 4EB5F451 		.ascii	"N\265\364Q\244\245\377\264/\263\224\367\026\374\214"
  99      A4A5FFB4 
  99      2FB394F7 
  99      16FC8C
 100 0464 1468B4CA 		.ascii	"\024h\264\312P&}\321\012Mj\026\036\253\366)\023\200"
 100      50267DD1 
 100      0A4D6A16 
 100      1EABF629 
 100      1380
 101 0476 3368D201 		.ascii	"3h\322\001\032w*\354+h\304\236.\357thS\242<+\244VW\016"
 101      1A772AEC 
 101      2B68C49E 
 101      2EEF7468 
 101      53A23C2B 
 102 048e 22B683ED 		.ascii	"\"\266\203\355\354 W\332Yt\260\003\212\354|\246\256"
 102      EC2057DA 
 102      5974B003 
 102      8AEC7CA6 
 102      AE
 103 049f 23EA14A6 		.ascii	"#\352\024\246\016uVK\305\235\332\223\373\363\330\334"
 103      0E75564B 
 103      C59DDA93 
 103      FBF3D8DC 
 104 04af 1E38C7DC 		.ascii	"\0368\307\334\\\221\2778\334\343\231\273\206\270S\371"
 104      5C91BF38 
 104      DCE399BB 
 104      86B853F9 
 105 04bf 8ED634C5 		.ascii	"\216\3264\305(\022'\251\316\273\223j\255\371\304\234"
 105      281227A9 
 105      CEBB936A 
 105      ADF9C49C 
 106 04cf B8F02827 		.ascii	"\270\360('nWU\224;Q\265\001.\252\244@\017\202\325\013"
 106      6E575594 
ARM GAS  C:\Users\info\AppData\Local\Temp\cc0OVjuF.s 			page 8


 106      3B51B501 
 106      2EAAA440 
 106      0F82D50B 
 107 04e3 93D8076A 		.ascii	"\223\330\007j\354'\370\335\025\322\014\201\237#\022"
 107      EC27F8DD 
 107      15D20C81 
 107      9F2312
 108 04f2 8FDAB5F0 		.ascii	"\217\332\265\360\314\2722'\216\375\234\310v\231j\236"
 108      CCBA3227 
 108      8EFD9CC8 
 108      76996A9E 
 109 0502 E6C7BA8E 		.ascii	"\346\307\272\216\272\233\376l\222F\252.G\365\014jq\357"
 109      BA9BFE6C 
 109      9246AA2E 
 109      47F50C6A 
 109      71EF
 110 0514 3BA5817B 		.ascii	";\245\201{\374\235a\202\011\277\362\215\"s\344\332\237"
 110      FC9D6182 
 110      09BFF28D 
 110      2273E4DA 
 110      9F
 111 0525 453B0275 		.ascii	"E;\002u;\240tTE\3371\276D\340\222J\203\256\222C\272"
 111      3BA07454 
 111      45DF31BE 
 111      44E0924A 
 111      83AE9243 
 112 053a 321AA098 		.ascii	"2\032\240\230\217\256\257\357\216W\314\036\270\334\223"
 112      8FAEAFEF 
 112      8E57CC1E 
 112      B8DC93
 113 0549 7920DA45 		.ascii	"y \332E3\017B\025\275)+\227lt\2305\370M1\337wL2x\377"
 113      330F4215 
 113      BD292B97 
 113      6C749835 
 113      F84D31DF 
 114 0562 41EECD06 		.ascii	"A\356\315\006\343f0\262\007\371\020\324G\223\017E\025"
 114      E36630B2 
 114      07F910D4 
 114      47930F45 
 114      15
 115 0573 92EFBFBC 		.ascii	"\222\357\277\274#\024\247\310u\350p\223?\307\374C\335"
 115      2314A7C8 
 115      75E87093 
 115      3FC7FC43 
 115      DD
 116 0584 E499449E 		.ascii	"\344\231D\236\335\203|\030\352\243\311\263P\025]\032"
 116      DD837C18 
 116      EAA3C9B3 
 116      50155D1A 
 117 0594 1696C615 		.ascii	"\026\226\306\0257\371\363\314\237E\252\277\036\221\017"
 117      37F9F3CC 
 117      9F45AABF 
 117      1E910F
 118 05a3 EF8D7C04 		.ascii	"\357\215|\004\352\243\311\263Q\205\344\273ow\267h\212"
 118      EAA3C9B3 
 118      5185E4BB 
 118      6F77B768 
ARM GAS  C:\Users\info\AppData\Local\Temp\cc0OVjuF.s 			page 9


 118      8A
 119 05b4 3C193ADD 		.ascii	"<\031:\335\344#\231?\333M>\252\267\260\344\240>\232"
 119      E423993F 
 119      DB4D3EAA 
 119      B7B0E4A0 
 119      3E9A
 120 05c6 3C1755D1 		.ascii	"<\027U\321=\315\302\236\366\273\233<\217\371s\335\344"
 120      3DCDC29E 
 120      F6BB9B3C 
 120      8FF973DD 
 120      E4
 121 05d7 A389FCB1 		.ascii	"\243\211\374\261\033\035\203\013\321\354\371\250B\366"
 121      1B1D830B 
 121      D1ECF9A8 
 121      42F6
 122 05e5 AFEFFA97 		.ascii	"\257\357\372\227:A\017\012\270\352\246\177\201w\310"
 122      3A410F0A 
 122      B8EAA67F 
 122      8177C8
 123 05f4 77D38F25 		.ascii	"w\323\217%\372\307Rq\034.DC\3073z\\t\326O@-V\236\347"
 123      FAC75271 
 123      1C2E4443 
 123      C7337A5C 
 123      74D64F40 
 124 060c 8965774D 		.ascii	"\211ewM\225\035Z\253\326[\022\3741F\235>\035\306b\023"
 124      951D5AAB 
 124      D65B12FC 
 124      31469D3E 
 124      1DC66213 
 125 0620 703D0248 		.ascii	"p=\002H\361K<F?\256\355\332'\327\366\015\205\2114x>"
 125      F14B3C46 
 125      3FAEEDDA 
 125      27D7F60D 
 125      85893478 
 126 0635 C8DD752F 		.ascii	"\310\335u/*7'\252^\345\257pN2\011yQ\373\250Qr\307\231"
 126      2A3727AA 
 126      5EE5AF70 
 126      4E320979 
 126      51FBA851 
 127 064c C4E55BD2 		.ascii	"\304\345[\322\270\356ce4\031+\332\325Nw\221\325dn\011"
 127      B8EE6365 
 127      34192BDA 
 127      D54E7791 
 127      D5646E09 
 128 0660 A6C0FF40 		.ascii	"\246\300\377@$6\214d\241\300\232P\023\266\001\361\033"
 128      24368C64 
 128      A1C09A50 
 128      13B601F1 
 128      1B
 129 0671 141FF70F 		.ascii	"\024\037\367\017T<\364\335p\264\271\374\273x\325oL\270"
 129      543CF4DD 
 129      70B4B9FC 
 129      BB78D56F 
 129      4CB8
 130 0683 A9BE89BB 		.ascii	"\251\276\211\273\260\222\321[\317u\211\254F\255\331"
 130      B092D15B 
 130      CF7589AC 
ARM GAS  C:\Users\info\AppData\Local\Temp\cc0OVjuF.s 			page 10


 130      46ADD9
 131 0692 05E853AA 		.ascii	"\005\350S\252\247\242\356\003\364\305\270\265{\036\356"
 131      A7A2EE03 
 131      F4C5B8B5 
 131      7B1EEE
 132 06a1 63D15B87 		.ascii	"c\321[\207N\377s\254F\350\034\377\017\367\361\371}\034"
 132      4EFF73AC 
 132      46E81CFF 
 132      0FF7F1F9 
 132      7D1C
 133 06b3 2360CEFB 		.ascii	"#`\316\373\355\226\373\375\346\305\235\200\336o\316"
 133      ED96FBFD 
 133      E6C59D80 
 133      DE6FCE
 134 06c2 174F48F3 		.ascii	"\027OH\363\321\007\234\243\021\342&\035\317\317K] i"
 134      D1079CA3 
 134      11E2261D 
 134      CFCF4B5D 
 134      2069
 135 06d4 1FADBB61 		.ascii	"\037\255\273a\001\305G\257\3307\223\236x6\224\026K/"
 135      01C547AF 
 135      D837939E 
 135      78369416 
 135      4B2F
 136 06e6 7D080212 		.ascii	"}\010\002\022`{\037\222\2233e\376\204\031c\246N\233"
 136      607B1F92 
 136      933365FE 
 136      841963A6 
 136      4E9B
 137 06f8 3B671A8E 		.ascii	";g\032\216\026L\230:}\352\007s\363F\347\277;~\372\314"
 137      164C983A 
 137      7DEA0773 
 137      F346E7BF 
 137      3B7EFACC 
 138 070c BCFC9C69 		.ascii	"\274\374\234iB'\255\374p\356\014c\376\354\371s\337\233"
 138      4227ADFC 
 138      70EE0C63 
 138      FEECF973 
 138      DF9B
 139 071e 6EBE3367 		.ascii	"n\2763g\306\324Y\263\347\361\363\243ys$\376`\026L\203"
 139      C6D459B3 
 139      E7F1F3A3 
 139      797324FE 
 139      60164C83 
 140 0732 4FFE03EA 		.ascii	"O\376\003\352\212K\210"
 140      8A4B88
 141              		.text
 142              		.section	.gnu.lto_u8x8_ls013b7dh03_128x128_display_info.792a4aea,"",%progbits
 143 0000 789C2DCE 		.ascii	"x\234-\316\273N\002A\030\305\36193{\023\344\"\265Oa"
 143      BB4E0241 
 143      18C5F139 
 143      337B13E4 
 143      22B54F61 
 144 0014 45E373F8 		.ascii	"E\343s\370:\033\303\022M\250ML41\261\000\024d\025$\221"
 144      3A1BC312 
 144      4DA84D4C 
 144      3431B100 
ARM GAS  C:\Users\info\AppData\Local\Temp\cc0OVjuF.s 			page 11


 144      14641524 
 145 0029 0A899768 		.ascii	"\012\211\227hh\264\267r\003\015\205\205Y1\006pN>\266"
 145      68B4B772 
 145      030D8585 
 145      59310670 
 145      4E3EB6
 146 003c F9ED3F67 		.ascii	"\371\355?g\2633\216\202\342\263g\2217\245\026\032\375"
 146      B3338E82 
 146      E2B36791 
 146      37A5161A 
 146      FD
 147 004d C9CB53E6 		.ascii	"\311\313S\346[GF!\204\355\316\354\3567\307\0068\277"
 147      5B474621 
 147      84EDCEEC 
 147      EE37C706 
 147      38BF
 148 005f 7F8D4FB3 		.ascii	"\177\215O\263\222E\233\257\347\351\310\225L8\277U\342"
 148      92459BAF 
 148      E7E9C895 
 148      4C38BF55 
 148      E2
 149 0070 1323EDD8 		.ascii	"\023#\355\330|\\\375\014\013\222\332\346t\3761\367\231"
 149      7C5CFD0C 
 149      0B92DAE6 
 149      74FE31F7 
 149      99
 150 0081 1AC3CA2E 		.ascii	"\032\303\312.\177\036%\315@\366\025\017\253\015\356"
 150      7F1E25CD 
 150      40F6150F 
 150      AB0DEE
 151 0090 5B9EF427 		.ascii	"[\236\364';\371k\017\362\322\236\315\336\303su\3759"
 151      3BF96B0F 
 151      F2D29ECD 
 151      DEC37375 
 151      FD39
 152 00a2 D7DBC961 		.ascii	"\327\333\311a\270\276\332\216\315\375\364\350\330/\367"
 152      B8BEDA8E 
 152      CDFDF4E8 
 152      D82FF7
 153 00b1 C383B330 		.ascii	"\303\203\2630v#c\226Z\341\032\333K\0154\210\306\015"
 153      76236396 
 153      5AE11ADB 
 153      4B0D3488 
 153      C60D
 154 00c3 3182239B 		.ascii	"1\202#\233\213\230x\350\020\037W$@\233l\240E2\270$Y"
 154      8B9878E8 
 154      101F5724 
 154      409B6CA0 
 154      4532B824 
 155 00d8 5C904D21 		.ascii	"\\\220M!\207&\311\013\0059\241(l\241NJD\241\213\262"
 155      8726C90B 
 155      0539A128 
 155      6CA14E4A 
 155      44A18BB2 
 156 00ec FA0701D7 		.ascii	"\372\007\001\327t="
 156      743D
 157              		.text
ARM GAS  C:\Users\info\AppData\Local\Temp\cc0OVjuF.s 			page 12


 158              		.section	.gnu.lto_u8x8_d_ls027b7dh01_400x240.792a4aea,"",%progbits
 159 0000 789C6552 		.ascii	"x\234eRMHTQ\024\276\337\273o\336\374\230\346\322\305"
 159      4D485451 
 159      14BEDFBB 
 159      6FDEFC98 
 159      E6D2C5
 160 0013 201284D8 		.ascii	" \022\204\330b\234\222\310M\255Z\324\266u1\224\212F"
 160      629C92C8 
 160      4DAD5AD4 
 160      B6753194 
 160      8A46
 161 0025 25E12804 		.ascii	"%\341(\004-\346\352\370\322\242H\027\206HaPai\371W\226"
 161      2DE6EAF8 
 161      D2A24817 
 161      86486150 
 161      6169F957 
 162 003a 63634D06 		.ascii	"ccM\006iSSH\003\"\026IZ\211Hh&R\240\3239w\024\244\036"
 162      69535348 
 162      03221649 
 162      5A894868 
 162      2652A0D3 
 163 0053 BC777FCE 		.ascii	"\274w\177\316\371\276\363\235\357<S@\360sH\012q\220"
 163      F9BEF39D 
 163      EF3C5340 
 163      F073480A 
 163      7190
 164 0065 D603F4C2 		.ascii	"\326\003\364\302\0220\232\336\011Q\3532\0143Y(\224K"
 164      12309ADE 
 164      0951EB32 
 164      0C335928 
 164      944B
 165 0077 4673F90B 		.ascii	"Fs\371\013G\372\332\334\3348\000\336(\027D\310\220\246"
 165      47FADADC 
 165      DC3800DE 
 165      281744C8 
 165      90A6
 166 0089 0321AC18 		.ascii	"\003!\254\030k\006\336\254\216]\366\024t(U\247\246\355"
 166      6B06DEAC 
 166      8E5DF614 
 166      742855A7 
 166      A6ED
 167 009b AEC34B75 		.ascii	"\256\303Kuv\216M\025R\206@\221\027~/W\351@\001e\216"
 167      768E4D15 
 167      52864091 
 167      177E2F57 
 167      E9400165 
 168 00b0 D7F75E97 		.ascii	"\327\367^\227\277\014[\002&\035\227\022m3Y|4\220G\307"
 168      BF0C5B02 
 168      261D9712 
 168      6D33597C 
 168      349047C7 
 169 00c4 9BC95B1F 		.ascii	"\233\311[\037-\271\023\202\366\327\342\311\037\231\371"
 169      2DB91382 
 169      F6D7E2C9 
 169      1F99F9
 170 00d3 77985345 		.ascii	"w\230SE\312\224\333\226\022\235\220\314y\017^\334\205"
 170      CA94DB96 
ARM GAS  C:\Users\info\AppData\Local\Temp\cc0OVjuF.s 			page 13


 170      129D90CC 
 170      790F5EDC 
 170      85
 171 00e4 57D09540 		.ascii	"W\320\225@\027\362)\373mod\302\224\2734r5\372rm\023"
 171      17F229FB 
 171      6D6F64C2 
 171      94BB3472 
 171      35FA726D 
 172 00f9 B9724C49 		.ascii	"\271rLI\222\202\373idZ\015k\303\003\215\033\033N\234"
 172      9282FB69 
 172      645A0D6B 
 172      C3038D1B 
 172      1B4E9C
 173 010c 973E0D8B 		.ascii	"\227>\015\213\317|\033\264LJ\352\006\305\371\246u|\372"
 173      CF7C1BB4 
 173      4C4AEA06 
 173      C5F9A675 
 173      7CFA
 174 011e 8A47EED5 		.ascii	"\212G\356\325\321\321\013\313\215r\203t\342U\206\362"
 174      D1D10BCB 
 174      8D728374 
 174      E25586F2 
 175 012e 336BEF16 		.ascii	"3k\357\026V\364\300\324\304}\232x\362{\342\203G\356"
 175      56F4C0D4 
 175      C47D9A78 
 175      F27BE283 
 175      47EE
 176 0140 D7D8CE81 		.ascii	"\327\330\316\201\317\375\316\015l\313\3506\325\004["
 176      CFFDCE0D 
 176      6CCBE836 
 176      D5045B
 177 014f 9AE8FFB7 		.ascii	"\232\350\377\267\031S\340!\362\031\360\245o\275%\323"
 177      1953E021 
 177      F219F0A5 
 177      6FBD25D3 
 178 015f AA57F4E4 		.ascii	"\252W\364\344\261\213\304\372\010\026\217\256\347HL"
 178      B18BC4FA 
 178      08168FAE 
 178      E7484C
 179 016e A5526115 		.ascii	"\245Ra\025\233\362\274X\367d\200{!/\251\031\232\015"
 179      9BF2BC58 
 179      F764807B 
 179      212FA919 
 179      9A0D
 180 0180 596181EB 		.ascii	"Ya\201\353;\301Ln\335\250X$<Om\3110x\225_\021\216}\212"
 180      3BC14C6E 
 180      DDA85824 
 180      3C4F6DC9 
 180      3078955F 
 181 0198 8319C352 		.ascii	"\203\031\303R\262\323\223\267\347\034\315\270ZK\005"
 181      B2D393B7 
 181      E71CCDB8 
 181      5A4B05
 182 01a7 63AB719A 		.ascii	"c\253q\232\206\203f\314P\201\0014\203S\022\315C\026"
 182      868366CC 
 182      50810134 
 182      835312CD 
ARM GAS  C:\Users\info\AppData\Local\Temp\cc0OVjuF.s 			page 14


 182      4316
 183 01b9 CF49C04D 		.ascii	"\317I\300M\307\221\205\251Yl\"\026=\004\300cjAI\226"
 183      C79185A9 
 183      596C2216 
 183      3D04C063 
 183      6A414996 
 184 01cd 88271412 		.ascii	"\210'\024\022\\O\212h\256\234Em6\327\342\340\034\354"
 184      5C4F8A68 
 184      AE9C456D 
 184      36D7E2E0 
 184      1CEC
 185 01df D8725CF2 		.ascii	"\330r\\\362\221\333\214D\026\246\234\2415\325\250T\266"
 185      91DB8C44 
 185      16A69CA1 
 185      35D5A854 
 185      B6
 186 01f0 2DAD9441 		.ascii	"-\255\224A0\014\"$\302\322\301E\355\221\367N.\352\324"
 186      300C2224 
 186      C2D2C145 
 186      ED91F74E 
 186      2EEAD4
 187 0203 2E86FF3C 		.ascii	".\206\377<_\316\242\354V\235\355\274(\015=\244\327m"
 187      5FCEA2EC 
 187      569DEDBC 
 187      280D3DA4 
 187      D76D
 188 0215 5DA7DA71 		.ascii	"]\247\332q\243\266I_\2730D?e\204\304p,5\337\337\355"
 188      A3B6495F 
 188      BB30443F 
 188      6584C470 
 188      2C35DFDF 
 189 022a 26480E73 		.ascii	"&H\016s<E\273nZ \212\220-\335Z\242)\222\205[$\012\222"
 189      3C45BB6E 
 189      5A208A90 
 189      2DDD5AA2 
 189      2992855B 
 190 0241 D810FB7D 		.ascii	"\330\020\373}i{\332\035\367\177\"=)rQ`8-\222\374\013"
 190      697BDA1D 
 190      F77F223D 
 190      29725160 
 190      382D92FC 
 191 0256 4BCA73DA 		.ascii	"K\312s\3322C\3239\264\303\363\250\313\2460\233\360\023"
 191      3243D339 
 191      B4C3F3A8 
 191      CBA6309B 
 191      F013
 192 0268 201A93C5 		.ascii	" \032\223\305\0144\274\355\363\244=\004\236\301+\027"
 192      0C34BCED 
 192      F3A43D04 
 192      9EC12B17 
 193 0278 262A6838 		.ascii	"&*h8`\010q\356\360\371\216\326\024\227\357\011\224\004"
 193      600871EE 
 193      F0F98ED6 
 193      1497EF09 
 193      9404
 194 028a AB4A6877 		.ascii	"\253Jhw\2568P\0328\035\364\357.:\261\257\264\302_\344"
 194      AE38501A 
ARM GAS  C:\Users\info\AppData\Local\Temp\cc0OVjuF.s 			page 15


 194      381DF4EF 
 194      2E3AB1AF 
 194      B4C25FE4 
 195 029e 2B1126DF 		.ascii	"+\021&\337\3123\301r\253\246\262&XV\352<^U\0368YY\255"
 195      CA33C172 
 195      ABA6B226 
 195      5856EA3C 
 195      5E551E38 
 196 02b5 D7B3D555 		.ascii	"\327\263\325U\177\001\272\205,\227"
 196      7F01BA85 
 196      2C97
 197              		.text
 198              		.section	.gnu.lto_u8x8_ls027b7dh01_400x240_display_info.792a4aea,"",%progbits
 199 0000 789C2DCE 		.ascii	"x\234-\316\261N\302P\024\306\361\373\335\333\026T(\350"
 199      B14EC250 
 199      14C6F1FB 
 199      DDDB1654 
 199      28E8
 200 0012 4C7C0827 		.ascii	"L|\010'\026\237\306\304\347h\"EI\030dw02(\002\322\""
 200      169FC6C4 
 200      E7682245 
 200      49186477 
 200      30322802 
 201 0028 9AD838A0 		.ascii	"\232\3308\240\321\230\270\371\000.\320\340\342\340`"
 201      D198B8F9 
 201      002ED0E0 
 201      E2E060
 202 0037 146304EF 		.ascii	"\024c\004\357\227\323.\377\376rN\356\275\216\202\342"
 202      97D32EFF 
 202      FE724EEE 
 202      BD8E82E2 
 203 0047 B76B237F 		.ascii	"\267k#\177J\375i\324[\223\266\377\251C\243\360\001\353"
 203      4AFD69D4 
 203      5B93B6FF 
 203      A943A3F0 
 203      01EB
 204 0059 DB787F58 		.ascii	"\333x\177X\020\037\032\353\301\373\315O\221\006\270"
 204      101F1AEB 
 204      C1FBCD4F 
 204      9106B8
 205 0068 9EEC75A3 		.ascii	"\236\354u\243\214\233\226W\263F\220q\313\362\271\375"
 205      8C9B9657 
 205      B3469071 
 205      CBF2B9FD 
 206 0078 75EF0A53 		.ascii	"u\357\012Sn\277\324\242##v,\037\227\337\343\222P[\276"
 206      6EBFD4A2 
 206      2323762C 
 206      1F97DFE3 
 206      92505BBE 
 207 008c CD5FE739 		.ascii	"\315_\3479Rc\\\333\346]a\332\311\313|\311\2674\223\273"
 207      52635CDB 
 207      E65D61DA 
 207      C9CB7CC9 
 207      B73493BB 
 208 00a0 9E279ED2 		.ascii	"\236'\236\322\351o?\361\305\236\345\350\341\251\236"
 208      E96F3FF1 
 208      C59EE5E8 
ARM GAS  C:\Users\info\AppData\Local\Temp\cc0OVjuF.s 			page 16


 208      E1A99E
 209 00af AD731AB7 		.ascii	"\255s\032\267Nv\252\327\301\301q\020\271\2411\013\255"
 209      4E76AAD7 
 209      C1C17110 
 209      B9A1310B 
 209      AD
 210 00c0 7089CA42 		.ascii	"p\211\312B\003\035F\243\313\030\211#3\027C\306C\314"
 210      031D46A3 
 210      CB188923 
 210      331743C6 
 210      43CC
 211 00d2 E4103179 		.ascii	"\344\0201y\014\230\025\\0\253\3503k\3501\005IQN\361"
 211      0C98155C 
 211      30ABE833 
 211      6BE83105 
 211      49514EF1 
 212 00e6 71CE94E4 		.ascii	"q\316\224\344\206\262d\035g\314\006NQQ\030\241\252\376"
 212      86B2641D 
 212      67CC064E 
 212      515118A1 
 212      AAFE
 213 00f8 018B2D79 		.ascii	"\001\213-y\031"
 213      19
 214              		.text
 215              		.section	.gnu.lto_u8x8_d_ls013b7dh05_144x168.792a4aea,"",%progbits
 216 0000 789C6552 		.ascii	"x\234eR[HTQ\024=\353\236;w^i~\3721\210\004!\3661Z\022"
 216      5B485451 
 216      143DEB9E 
 216      3B775E69 
 216      7EFA3188 
 217 001a F9535F7D 		.ascii	"\371S_}\324o\337\305P*\032\225\204\017\010\372\2303"
 217      D46FDFC5 
 217      502A1A95 
 217      840F08FA 
 217      9833
 218 002c 8E370D7A 		.ascii	"\2167\015z8\037\212HaPa\251\371*\3131\265\311 M\235"
 218      381F8A48 
 218      615061A9 
 218      F92ACB31 
 218      B5C9204D 
 219 0041 421A1031 		.ascii	"B\032\0201H\322JD\"31\012\233\366>\243\020u\341\336"
 219      48D24A44 
 219      2233310A 
 219      9BF63EA3 
 219      1075E1DE 
 220 0055 F3D87BAD 		.ascii	"\363\330{\255\275\366\332\327\024\020\374\034\221B\034"
 220      BDF6DAD7 
 220      1410FC1C 
 220      91421C
 221 0064 A6F510BD 		.ascii	"\246\365\020\275\260\004\214\206\327B\204\\\206a&\362"
 221      B0048C86 
 221      D742845C 
 221      866126F2 
 222 0074 8472C9A1 		.ascii	"\204r\311\241,\376\302\221\2726\2677\016\2007\312\005"
 222      2CFEC291 
 222      BA36B737 
 222      0E8037CA 
ARM GAS  C:\Users\info\AppData\Local\Temp\cc0OVjuF.s 			page 17


 222      05
 223 0085 1134A4E9 		.ascii	"\0214\244\351@\020\353\306\246\201\311\215\361+\236"
 223      4010EBC6 
 223      A681C98D 
 223      F12B9E
 224 0094 DC36A56A 		.ascii	"\3346\245j\324\274=rt\265\306\316\264\251B\322\020("
 224      D4BC3D72 
 224      74B5C6CE 
 224      B4A942D2 
 224      1028
 225 00a6 F021DFC7 		.ascii	"\360!\337\307U\332\220K\231\323\265=7\344w\303\226\200"
 225      55DA904B 
 225      99D3B53D 
 225      37E477C3 
 225      9680
 226 00b8 49C7D578 		.ascii	"I\307\325x\313B:\037\015d\323\361V\342\366;K\356\206"
 226      CB423A1F 
 226      0D64D3F1 
 226      56E2F63B 
 226      4BEE86
 227 00cb A07DD344 		.ascii	"\240}\323D\342KZ\316]\346T\321\022\345\266\245D;$s\336"
 227      E24B5ACE 
 227      5DE654D1 
 227      12E5B6A5 
 227      443B2473 
 228 00e0 870FF7E0 		.ascii	"\207\017\367\340\023t%\320\201\034\312\236\352\211\316"
 228      137425D0 
 228      811CCA9E 
 228      EA89CE
 229 00ef 98728F46 		.ascii	"\230r\217Fn\014\275\330\334F\256\237P\222\244\2403\205"
 229      6E0CBDD8 
 229      DC46AE9F 
 229      5092A4A0 
 229      3385
 230 0101 4CA9616D 		.ascii	"L\251amx\240q\343\303\361\213\322\257a\023\013\237\006"
 230      78A071E3 
 230      C3F18BD2 
 230      AF61130B 
 230      9F06
 231 0113 2C9392BA 		.ascii	",\223\222\272@q\276i\236\236\277\352\221\373ut\354\322"
 231      4071BE69 
 231      9E9EBFEA 
 231      91FB7574 
 231      ECD2
 232 0125 5ABDDC22 		.ascii	"Z\275\334\"\235y\351U\371\314\332\363\027+\272aj\342"
 232      9D79E955 
 232      F9CCDAF3 
 232      172BBA61 
 232      6AE2
 233 0137 5E4D3CFB 		.ascii	"^M<\3739\376\326#\017jl{\377\373>\347\026\266ql\207"
 233      39FED623 
 233      0F6A6C7B 
 233      FFFB3EE7 
 233      16B6716C 
 234 014c 6A802D4D 		.ascii	"j\200-M\364\375\333\214)\360\0209\014\370\320\373\273"
 234      F4FDDB8C 
 234      29F01039 
ARM GAS  C:\Users\info\AppData\Local\Temp\cc0OVjuF.s 			page 18


 234      0CF8D0FB 
 234      BB
 235 015d 31CDAA55 		.ascii	"1\315\252U\364d\263\213\304\372\010\026\217\256\373"
 235      F464B38B 
 235      C4FA0816 
 235      8FAEFB
 236 016c 584C2593 		.ascii	"XL%\223a\025[\363>oJ\367\202{!/\251\031\232\015Ya\201"
 236      61155BF3 
 236      3E6F4AF7 
 236      827B212F 
 236      A9199A0D 
 237 0183 EB3BC14C 		.ascii	"\353;\301Ln\335\250\370Jx\236\332\252a\360*?\"\034["
 237      6EDDA8F8 
 237      4A789EDA 
 237      AA61F02A 
 237      3F221C5B 
 238 0197 9F043386 		.ascii	"\237\0043\206\245d\247g\357,9\"\270\036\242\202\261"
 238      A564A767 
 238      EF2C3922 
 238      B81EA282 
 238      B1
 239 01a8 E4244DC3 		.ascii	"\344$M\303A3f\250@?\"\340\224xd\320\3429\011\270\351"
 239      413366A8 
 239      403F22E0 
 239      947864D0 
 239      E23909B8 
 240 01bd 38BA32B7 		.ascii	"8\2722\267\210m\304\017/\001\360\230ZP\222%\342\011"
 240      886DC40F 
 240      2F01F098 
 240      5A509225 
 240      E209
 241 01cf 8504D793 		.ascii	"\205\004\327\223b(K.\"\224\301\2658\270\004;\366kR\362"
 241      62284B2E 
 241      2294C1B5 
 241      38B8043B 
 241      F66B52F2 
 242 01e3 91DB8C46 		.ascii	"\221\333\214FW\346\234\301MU\257T\206-\255\244A0\014"
 242      57E69CC1 
 242      4D55AF54 
 242      862DADA4 
 242      41300C
 243 01f6 2028C2D2 		.ascii	" (\302\322\301E\355\3217N.\352\324.\206\177>[K\247\354"
 243      C145EDD1 
 243      374E2EEA 
 243      D42E867F 
 243      3E5B4BA7 
 244 020b 669DEDBC 		.ascii	"f\235\355\274,\015=\244W-\035gZq3\324\240\257]\030\244"
 244      2C0D3DA4 
 244      572D1D67 
 244      5A7133D4 
 244      A0AF5D18 
 245 0220 9F324A62 		.ascii	"\2372Jb8\226\\\356\353r\023$\2239\236\242U7-0\204\240"
 245      38965CEE 
 245      EB721324 
 245      93399EA2 
 245      55372D30 
 246 0236 2DDD5AA2 		.ascii	"-\335Z\242)\022y\177I\024$\261.\026\271\2663\345\216"
ARM GAS  C:\Users\info\AppData\Local\Temp\cc0OVjuF.s 			page 19


 246      2912797F 
 246      491424B1 
 246      2E16B9B6 
 246      33E58E
 247 0249 FB3F919E 		.ascii	"\373?\221\236$\271(0\234\022I\376\205%\3459m\351\325"
 247      24B92830 
 247      9C1249FE 
 247      8525E539 
 247      6DE9D5
 248 025c 740EEDF0 		.ascii	"t\016\355\3602j2(\314&|\003\210\306d1\375uS\275\236"
 248      326A3228 
 248      CC267C03 
 248      88C66431 
 248      FD7553BD 
 249 0271 9487C008 		.ascii	"\224\207\300\010|\262s\265\214\206\003\206\020\347."
 249      7CB273B5 
 249      8C860386 
 249      10E72E
 250 0280 BFFF7875 		.ascii	"\277\377xua\351\276@QeE\021\355.\024\006\212\003g+\363"
 250      61E9BE40 
 250      51654511 
 250      ED2E1406 
 250      8A03672B 
 251 0295 F7169C3A 		.ascii	"\367\026\234:P\\\226_\340/\022&\337\312s\225\245Vuy"
 251      505C965F 
 251      E02F1226 
 251      DFCA7395 
 251      A5567579 
 252 02a9 756549B1 		.ascii	"ueI\261\363dEi\340ty\225^\317WU\374\001ee,\011"
 252      F3644569 
 252      E0747995 
 252      5ECF5755 
 252      FC016565 
 253              		.text
 254              		.section	.gnu.lto_u8x8_ls013b7dh05_144x168_display_info.792a4aea,"",%progbits
 255 0000 789C2DD0 		.ascii	"x\234-\320=K\303P\024\306\361\373\334\233\246\361\245"
 255      3D4BC350 
 255      14C6F1FB 
 255      DC9BA6F1 
 255      A5
 256 0011 8D16DCFA 		.ascii	"\215\026\334\372)\234\272\370\265\23434\242\340\340"
 256      299CBAF8 
 256      B59C3334 
 256      A2E0E0
 257 0020 E6225270 		.ascii	"\346\"Rph\252\251M\253\025\014\016U*B7q\026\204\006"
 257      68AAA94D 
 257      AB150C0E 
 257      552A4237 
 257      71168406 
 258 0034 5DDC2A5A 		.ascii	"]\334*ZQS\357\303I\226\177~\234\033\316%\216\202\342"
 258      5153EFC3 
 258      49967F7E 
 258      9C1BCE25 
 258      8E82E2
 259 0047 B36D236F 		.ascii	"\263m#oJ\375i\314\242\301\261\367\241C\243\020\201\036"
 259      4AFD69CC 
 259      A2C1B1F7 
ARM GAS  C:\Users\info\AppData\Local\Temp\cc0OVjuF.s 			page 20


 259      A143A310 
 259      811E
 260 0059 47335F7C 		.ascii	"G3_|@\367\336\257\277+4\300\343\323v~\350\0127,\373"
 260      40F7DEAF 
 260      BF2B34C0 
 260      E3D3767E 
 260      E80A372C 
 261 006e 2FBF378E 		.ascii	"/\2777\216\260f99\371\274+\0113\236~l&GF\354X\336/\276"
 261      B0663939 
 261      F9BC2B09 
 261      339E7E6C 
 261      264746EC 
 262 0086 46BE505B 		.ascii	"F\276P[\276\315\237\347eRc\324\334\342\2560\353x2_p"
 262      BECD9FE7 
 262      655263D4 
 262      DCE2AE30 
 262      EB78325F 
 263 009b F77E7A1B 		.ascii	"\367~z\033\027\313\246t\366\323M\253b\327\362r\374\260"
 263      17CBA674 
 263      F6D34DAB 
 263      62D7F272 
 263      FCB0
 264 00ad 531CE774 		.ascii	"S\034\347t\370\272\027\0247\335\264\214\237Z\251i\\"
 264      F8BA1714 
 264      37DDB48C 
 264      9F5AA969 
 264      5C
 265 00be 05BBAD20 		.ascii	"\005\273\255 )\205\306\344Z\341\002\365\\\003\035\306"
 265      2985C6E4 
 265      5AE102F5 
 265      5C031DC6 
 266 00ce 7ECF1889 		.ascii	"~\317\030\211#\263\022\006\214\213>SF\302x\3501K8g\226"
 266      23B31206 
 266      8C8B3E53 
 266      46C278E8 
 266      314B3867 
 267 00e3 D1655610 		.ascii	"\321eV\0203\253\222\012\316\230*N\031_6\254I\326\355"
 267      33AB920A 
 267      CE982A4E 
 267      195F36AC 
 267      49D6ED
 268 00f6 8FB5A9A1 		.ascii	"\217\265\251\241\215\272\302\020\015\365\017\220\001"
 268      8DBAC210 
 268      0DF50F90 
 268      01
 269 0103 80D5     		.ascii	"\200\325"
 270              		.text
 271              		.section	.gnu.lto_.symbol_nodes.792a4aea,"",%progbits
 272 0000 789C55CD 		.ascii	"x\234U\315+\022\3020\024F\341\223\334\364\355\320\010"
 272      2B12C230 
 272      1446E193 
 272      DCF4EDD0 
 272      08
 273 0011 580106D3 		.ascii	"X\001\006\323\325\335\012\006\001\206\025 \230\030X"
 273      D5DD0A06 
 273      01861520 
 273      981858
ARM GAS  C:\Users\info\AppData\Local\Temp\cc0OVjuF.s 			page 21


 274 0020 011211C9 		.ascii	"\001\022\021\311t\0150t!\244-\202\250oN\376I\3420l\014"
 274      740D3074 
 274      21A42D82 
 274      A86F4EFE 
 274      49E2306C 
 275 0035 608DC2A9 		.ascii	"`\215\302\251\207\310\255[C\006\335\002\304\212\232"
 275      87C8AD5B 
 275      4306DD02 
 275      C48A9A
 276 0044 74B0661E 		.ascii	"t\260f\0362\265\351\340\3544\230Ze\032\342\013\335\012"
 276      32B5E9E0 
 276      EC34985A 
 276      651AE20B 
 276      DD0A
 277 0056 4CA52EE9 		.ascii	"L\245.\351F\263\244K\315\223.\264H:\327\362\277\205"
 277      46B3A44B 
 277      CD932EB4 
 277      483AD7F2 
 277      BF85
 278 0068 86E1B514 		.ascii	"\206\341\265\024j\374;R\021F\012\206\231\335\376)B\216"
 278      6AFC3B52 
 278      11460A86 
 278      99DDFE29 
 278      428E
 279 007a 9FAC180E 		.ascii	"\237\254\030\016\243\361\374\370\363\034Z\241\304O\026"
 279      A3F1FCF8 
 279      F31C5AA1 
 279      C44F16
 280 0089 849FFEF3 		.ascii	"\204\237\376\363h\307{a\324\306?\356[\261p\271\366F"
 280      68C77B61 
 280      D4C63FEE 
 280      5BB170B9 
 280      F646
 281 009b DC9C6E4E 		.ascii	"\334\234nN\276VoB\327"
 281      BE566F42 
 281      D7
 282              		.text
 283              		.section	.gnu.lto_.refs.792a4aea,"",%progbits
 284 0000 789C6361 		.ascii	"x\234ca`d\020``\000\222L\214\314\214LL\314\314\214,"
 284      60641060 
 284      6000924C 
 284      8CCC8C4C 
 284      4CCCCC8C 
 285 0015 4CACCC0C 		.ascii	"L\254\314\014\000\002\300\0007"
 285      0002C000 
 285      37
 286              		.text
 287              		.section	.gnu.lto_.decls.792a4aea,"",%progbits
 288 0000 789CC558 		.ascii	"x\234\305X{P\023Y\272\317\311IHH\002(0\263\326\026\265"
 288      7B501359 
 288      BACFC949 
 288      48480228 
 288      30B3D616 
 289 0015 6BCD30CA 		.ascii	"k\3150\312V\355\262\240\356,u\253n\355N\315\235\335"
 289      56EDB2A0 
 289      EE2C75AB 
 289      6EED4ECD 
ARM GAS  C:\Users\info\AppData\Local\Temp\cc0OVjuF.s 			page 22


 289      9DDD
 290 0027 AD9DAA5B 		.ascii	"\255\235\252[s\353\316L\355\255\242*\033\223 \271\003"
 290      73EBCE4C 
 290      EDADA22A 
 290      1B9320B9 
 290      03
 291 0038 49360933 		.ascii	"I6\0113\270w\267\252y\210\014*\202\243\014\017]\021"
 291      B877B7AA 
 291      79880C2A 
 291      82A30C0F 
 291      5D11
 292 004a 5F283E10 		.ascii	"_(>\020\030|\000\222\001Q\307'\" \210\010\342\013\037"
 292      187C0092 
 292      0151C727 
 292      22208808 
 292      E20B1F
 293 005d 68400515 		.ascii	"h@\005\025\205\373\235s\272\323\035hj\377\330W\303\227"
 293      85FB9D73 
 293      BAD31D68 
 293      6AFFD857 
 293      C397
 294 006f EEEF9CDF 		.ascii	"\356\357\234\337\371\276\337\367\235g\267J\201\024\344"
 294      F9BEDFF7 
 294      9D67B74A 
 294      8114E4
 295 007e 1A8C5228 		.ascii	"\032\214R(j\325\012\305\357\260B1\015\227\006\312>U"
 295      6AD50AC5 
 295      EFB04231 
 295      0D9706CA 
 295      3E55
 296 0090 885730C8 		.ascii	"\210W0\310{\000}\037\344\003\220\017A\376\013\344\177"
 296      7B007D1F 
 296      E403900F 
 296      41FE0BE4 
 296      7F
 297 00a1 4012417E 		.ascii	"@\022A~\017b\005\201\346\212\025p\267\201|\206\024\001"
 297      0F620581 
 297      E68A1570 
 297      B7817C86 
 297      1401
 298 00b3 1769BF00 		.ascii	"\027i\277\000\3565 \341 \221 ?\204\262O\340\3761\334"
 298      EE3520E1 
 298      2091203F 
 298      84B24FE0 
 298      FE31DC
 299 00c6 8182E223 		.ascii	"\201\202\342#\220\024\304|;\010\036\344{ \026\020'\210"
 299      9014C47C 
 299      3B081EE4 
 299      7B201610 
 299      2788
 300 00d8 11E40F20 		.ascii	"\021\344\017 \277\005q\201|\004\222\011\222\001\222"
 300      BF057181 
 300      7C049209 
 300      920192
 301 00e7 05F23B9E 		.ascii	"\005\362;\236\303\237\340\376\177 \177\006\321\360\276"
 301      C39FE0FE 
 301      7F207F06 
ARM GAS  C:\Users\info\AppData\Local\Temp\cc0OVjuF.s 			page 23


 301      D1F0BE
 302 00f6 AD3CCF44 		.ascii	"\255<\317D\236\373\207<\377 \250\317\206\373*\220\034"
 302      9EFB873C 
 302      FF20A8CF 
 302      86FB2A90 
 302      1C
 303 0107 90D520B9 		.ascii	"\220\325 \271\210\305!\275\210\256\202\373\"\005\343"
 303      88C521BD 
 303      88AE82FB 
 303      2205E3
 304 0116 BA58C1B8 		.ascii	"\272X\301\270E\300=\210\324\201(\211?\020-\310<\220"
 304      45C03D88 
 304      D4812889 
 304      3F102DC8 
 304      3C90
 305 0128 69A8C304 		.ascii	"i\250\303\004\003b\000\321\203\004\203\204\200\314'"
 305      036200D1 
 305      83048384 
 305      80CC27
 306 0137 F6417420 		.ascii	"\366At j\020\004\022:\303\247p\221\274\033\346\310\235"
 306      6A100412 
 306      3AC3A770 
 306      91BC1BE6 
 306      C89D
 307 0149 5CAE9680 		.ascii	"\\\256\226\200,\345ma\276=\211\377=>?_\302=\217\357"
 307      2CE56D61 
 307      BE3D89FF 
 307      3D3E3F5F 
 307      C23D8FEF 
 308 015d 27E965FB 		.ascii	"'\351e\373\027\306\370\301\337\030\343\0073b\\\003\367"
 308      17C6F8C1 
 308      DF18E307 
 308      33625C03 
 308      F7
 309 016e B532E3F0 		.ascii	"\2652\343\360\263\177a\214\257\225(k\350~\271\266\017"
 309      B37F618C 
 309      AF95286B 
 309      E87EB9B6 
 309      0F
 310 017f F5020CD1 		.ascii	"\365\002\014\321K\301\317A\322\020\361w\005o\007~\225"
 310      4BC1CF41 
 310      D210F177 
 310      056F077E 
 310      95
 311 0190 0A669E47 		.ascii	"\012f\236G\371\015#\372\007\377J\212G\222\212\000\034"
 311      F90D23FA 
 311      07FF4A8A 
 311      47928A00 
 311      1C
 312 01a1 9DCFF412 		.ascii	"\235\317\364\022\213\220\377\022\220(\320(\242\031\020"
 312      8B90FF12 
 312      9028D028 
 312      A21910
 313 01b0 54D09562 		.ascii	"T\320\225b\003\211=\236=\357\037I\335R\323X\010z\274"
 313      03893D9E 
 313      3DEF1F49 
 313      DD52D358 
ARM GAS  C:\Users\info\AppData\Local\Temp\cc0OVjuF.s 			page 24


 313      087ABC
 314 01c3 77E7150D 		.ascii	"w\347\025\015\006\233\360<\360\242\362W\261\3738\270"
 314      069BF03C 
 314      F0A2F257 
 314      B1FB38B8 
 315 01d3 0A384EF9 		.ascii	"\0128N\371\357bf\016\354\233\254\326\251 ^\364\211\001"
 315      EF62660E 
 315      EC9BACD6 
 315      A9205EF4 
 315      8901
 316 01e5 2D5791A2 		.ascii	"-W\221\242\203\253n\355\321>U\242(\035\232FD\177x\364"
 316      83AB6EED 
 316      D13E55A2 
 316      281D9A46 
 316      447F78F4 
 317 01f9 4508D349 		.ascii	"E\010\323Iu\235\367\311~\025^D\236\225\227j{\333\202"
 317      759DF7C9 
 317      7E155E44 
 317      9E95976A 
 317      7BDB82
 318 020c 518C6E17 		.ascii	"Q\214n\027\261<x\351\331{Y\034\207\320A\244C\373\021"
 318      B13C78E9 
 318      D97B591C 
 318      87D041A4 
 318      43FB11
 319 021f 467B502C 		.ascii	"F{P,!\025\245\203\337\\\216\313\344|\025\\\320\002\005"
 319      2115A583 
 319      DF5C8ECB 
 319      E47C155C 
 319      D00205
 320 0232 5A1A85E2 		.ascii	"Z\032\205\342\242\024\350\000\212!6\011\012\355CQ\250"
 320      A214E800 
 320      8A213609 
 320      0AED4351 
 320      A8
 321 0243 0A4511FB 		.ascii	"\012E\021\373{\266V\236\010\301\265\210:\030\331\370"
 321      7BB6569E 
 321      08C1B588 
 321      3A18D9F8 
 322 0253 2017FB1D 		.ascii	" \027\373\035L\254\211\252\342\270y\250\006\034T\213"
 322      4CAC89AA 
 322      E2B879A8 
 322      061C548B 
 323 0263 0EC09FBC 		.ascii	"\016\300\237\274\207C\362\036\372rv\237\325\323\230"
 323      8743F21E 
 323      FA72769F 
 323      D5D398
 324 0272 89A1BD88 		.ascii	"\211\241\275\210F\335\325s\275+\330_X\313\012/eWo\306"
 324      46DDD573 
 324      BD2BD85F 
 324      58CB0A2F 
 324      65576FC6 
 325 0286 107AB80E 		.ascii	"\020z\270\016\251@\035=_z3\024\324H\035Z\010j\331\223"
 325      A9401D3D 
 325      5F7A3314 
 325      D4481D5A 
 325      086AD993 
ARM GAS  C:\Users\info\AppData\Local\Temp\cc0OVjuF.s 			page 25


 326 029a FE7BC1AC 		.ascii	"\376{\301\2546\006\324G\331\267\007\365\254v\001\250"
 326      3606D447 
 326      D9B707F5 
 326      AC7601A8 
 327 02aa DC70F656 		.ascii	"\334p\366V%\256a\371\357\360\235\333\302\327\315\003"
 327      25AE61F9 
 327      EFF09DDB 
 327      C2D7CD03 
 328 02ba B579B8B0 		.ascii	"\265y\270\260Y\213\277eu\355\273G\256\204\342^\246\014"
 328      598BBF65 
 328      75EDBB47 
 328      AE84E25E 
 328      A60C
 329 02cc 9737D768 		.ascii	"\2277\327h\211K\242T\336\331\234o`\255\022$\356\303"
 329      894BA254 
 329      DED99C6F 
 329      60AD1224 
 329      EEC3
 330 02de 99FB4DDE 		.ascii	"\231\373M\336\015\257t\230\303\024\332p\270\361\244"
 330      0DAF7498 
 330      C314DA70 
 330      B8F1A4
 331 02ed 9A41E340 		.ascii	"\232A\343@\375\356\350P\034^\303\252\004\232\221\214"
 331      FDEEE850 
 331      1C5EC3AA 
 331      049A918C 
 332 02fd E6F8D9CE 		.ascii	"\346\370\331\316~\214KY\335\372\226\246V-\336\305\224"
 332      7E8C4B59 
 332      DDFA96A6 
 332      562DDEC5 
 332      94
 333 030e 93D7AE76 		.ascii	"\223\327\256v\251p\015S2\232ZkC\360)\246\264MOx\303"
 333      A9700D53 
 333      329A5A6B 
 333      43F029A6 
 333      B44D4F78 
 334 0323 986725A8 		.ascii	"\230g%\250\257kk[\021ngu;_N\372\010\341E0\\\246\261"
 334      AF6B6B5B 
 334      116E6775 
 334      3B5F4EFA 
 334      08E14530 
 335 033a 64BC2C62 		.ascii	"d\274,b\343\245\371\354w\273\014\270\227\202\225\035"
 335      E3A5F9EC 
 335      77BB0CB8 
 335      9782951D 
 336 034a 2DC5AFF5 		.ascii	"-\305\257\365H\027C;\213\313\342t1\012t\014z\3464\364"
 336      4817433B 
 336      8BCBE274 
 336      310A740C 
 336      7AE634F4 
 337 035e 0CBA00DD 		.ascii	"\014\272\000\335\265\210\357\256\263Px\006\012\371\221"
 337      B588EFAE 
 337      B3507806 
 337      0AF991
 338 036d 35F25B3A 		.ascii	"5\362[:\262\316C\327\234\023;~\221\216\015\342\343\205"
 338      B2CE43D7 
 338      9C133B7E 
ARM GAS  C:\Users\info\AppData\Local\Temp\cc0OVjuF.s 			page 26


 338      918E0DE2 
 338      E385
 339 037f 7D7774F8 		.ascii	"}wt\370\026s\261\343&\327\240\232\313\305\2459]L\254"
 339      1673B1E3 
 339      26D7A09A 
 339      CBC5A539 
 339      5D4CAC
 340 0392 59B48F8C 		.ascii	"Y\264\217\214\255vpqQtq\036\361>\204\336\015g\275{'"
 340      AD767071 
 340      5174711E 
 340      F13E84DE 
 340      0D67BD7B 
 341 03a7 6FCFA801 		.ascii	"o\317\250\001\217\260\024l\351\032*\010\326\361\003"
 341      8FB0146C 
 341      E91A2A08 
 341      D6F103
 342 03b6 B0E0AF0F 		.ascii	"\260\340\257\017\300\322\266\334\026\265!\217\340\013"
 342      C0D2B6DC 
 342      16B5218F 
 342      E00B
 343 03c4 B2B8F0DF 		.ascii	"\262\270\360\337\240NpZ\017\365\337@\275\002u!\003?"
 343      A04E705A 
 343      0FF5DF40 
 343      BD027521 
 343      033F
 344 03d6 3BB3EF6F 		.ascii	";\263\357o\037Ax\214y\351?\275\247\212$z1I\364\364t"
 344      1F41788C 
 344      79E93FBD 
 344      A78A247A 
 344      3149F4F4 
 345 03eb 9824D58B 		.ascii	"\230$\325\213Y\252;\326\217\355\320\340W,\017U\205\017"
 345      59AA3BD6 
 345      8FEDD0E0 
 345      572C0F55 
 345      850F
 346 03fd 3A247373 		.ascii	":$ss\247\341(\011\257\017<\365\212\341-\366\317\034"
 346      A7E12809 
 346      AF0F3CF5 
 346      8AE12DF6 
 346      CF1C
 347 040f 4A44E167 		.ascii	"JD\341g\201\256\002\365\305<\365\036(\274\302\317\316"
 347      81AE02F5 
 347      C53CF51E 
 347      28BCC2CF 
 347      CE
 348 0420 1D851541 		.ascii	"\035\205\025Ax\265\212\272\330{\340\342I\215\220\352"
 348      78B58ABA 
 348      D87BE0E2 
 348      498D90EA 
 349 0430 9906AECB 		.ascii	"\231\006\256\313\030\020R\275\214\246\272\037\270\\"
 349      181052BD 
 349      8CA6BA1F 
 349      B85C
 350 043e 13B9F409 		.ascii	"\023\271\364\011\251\026&K8\233,C\207&\036jq\001u\211"
 350      A916264B 
 350      389B2C43 
 350      87261E6A 
ARM GAS  C:\Users\info\AppData\Local\Temp\cc0OVjuF.s 			page 27


 350      71017589 
 351 0452 564FF79F 		.ascii	"VO\367\237\320\342\012\246d\357^W\026\202\0170\245\264"
 351      D0E20AA6 
 351      64EF5E57 
 351      16820F30 
 351      A5B4
 352 0464 E1E91935 		.ascii	"\341\351\0315k\245\0055\277d\254A\203\353Y\335eoyY0"
 352      6BA50535 
 352      BF64AC41 
 352      83EB59DD 
 352      656F7959 
 353 0479 6E62CACD 		.ascii	"nb\312\315\272\211\035!\3704Sn<n*\321\370\247=[\000"
 353      BA891D21 
 353      F834536E 
 353      3C6E2AD1 
 353      F8A73D5B 
 354 048e BFE9D83A 		.ascii	"\277\351\330:\240\301\355\014\360\362\342\3441\204\373"
 354      A0C1ED0C 
 354      F0F2E2E4 
 354      3184FB
 355 049d 99B2F672 		.ascii	"\231\262\366r\375R|\237=\357\353\352y\215\3608S\316"
 355      FD527C9F 
 355      3DEFEBEA 
 355      798DF038 
 355      53CE
 356 04af 4FF98E63 		.ascii	"O\371\216c\234\253\246\312\376\301\234\313j\\\302\224"
 356      9CABA6CA 
 356      FEC19CCB 
 356      6A5CC294 
 357 04bf 5DAFB6D5 		.ascii	"]\257\266\325\031\360N\246\234\234h\332\256\306\325"
 357      19F04EA6 
 357      9C9C68DA 
 357      AEC6D5
 358 04ce 4CC95BB3 		.ascii	"L\311[\263w[(nc\312\252\265U\215\030\3670\245}\240\346"
 358      775B286E 
 358      63CAAAB5 
 358      558D18F7 
 358      30A57DA0 
 359 04e3 59101E61 		.ascii	"Y\020\036a\312\300\365\302\377\305\343\354\371AgG\241"
 359      CAC0F5C2 
 359      FFC5E3EC 
 359      F9416747 
 359      A1
 360 04f4 1A670551 		.ascii	"\032g\005Q\345u\315\352\006\025.b\312\335\323/\236\352"
 360      E575CDEA 
 360      06152E62 
 360      CADDD32F 
 360      9EEA
 361 0506 7125535E 		.ascii	"q%S^\266d\036E\270\201)\365-/\316\251q;S\036eV\355@"
 361      B6641E45 
 361      B88129F5 
 361      2D2FCEA9 
 361      713B531E 
 362 051e F81E53DA 		.ascii	"\370\036S\3327\215\024)q\246\206*\257&\277\312P\343"
 362      378D1429 
 362      71A6862A 
 362      AF26BFCA 
ARM GAS  C:\Users\info\AppData\Local\Temp\cc0OVjuF.s 			page 28


 362      50E3
 363 0530 4D4C69BE 		.ascii	"MLi\2766\274O\217w3\245\2721{\204_\365\274d?\250\\\347"
 363      36BC4F8F 
 363      7733A5BA 
 363      317B845F 
 363      F5BC643F 
 364 0547 6BD5612F 		.ascii	"k\325a/\255|\303WU\334\031\204\242g\\1\321\321\021\321"
 364      AD7CC357 
 364      55DC1984 
 364      A2675C31 
 364      D1D111D1 
 365 055b 1564540C 		.ascii	"\025dT\0146L9\233\352\257q\\\216\201f\370\031\364\367"
 365      364C399B 
 365      EAAF715C 
 365      8E8166F8 
 365      19F4F7
 366 056e 06658430 		.ascii	"\006e\2040A~J\306\373\267d\324+(\334\333\330\241\347"
 366      417E4AC6 
 366      FBB764D4 
 366      2B28DCDB 
 366      D8A1E7
 367 0581 AA7F4FA1 		.ascii	"\252\177O\241#\201\320\001:7\226\212\320'\033B\2139"
 367      2381D001 
 367      3A37968A 
 367      D0271B42 
 367      8B39
 368 0593 6F26A653 		.ascii	"o&\246S\366>\017\366\317t\006\257\227\230.\271\030\362"
 368      F63E0FF6 
 368      CF7406AF 
 368      97982EB9 
 368      18F2
 369 05a5 35E7CDC0 		.ascii	"5\347\315\300\324\370\013\031\036\307$\340\316\213~"
 369      D4F80B19 
 369      1EC724E0 
 369      CE8B7E
 370 05b4 1E4F65A0 		.ascii	"\036Oe\240\307%\320\215\"\364\245\014T\302\270C\014"
 370      C725D08D 
 370      22F4A50C 
 370      54C2B843 
 370      0C
 371 05c5 EE815C70 		.ascii	"\356\201\\pG$V7\210V'e\254\306\213\310R\021\371\\\006"
 371      47245637 
 371      88562765 
 371      ACC68BC8 
 371      5211F95C 
 372 05da 2935BA59 		.ascii	")5\272Y\204N\310@\245\331\252\026\271\372\002\2417\321"
 372      844EC840 
 372      A5D9AA16 
 372      B9FA02A1 
 372      37D1
 373 05ec CC4E6B17 		.ascii	"\314Nk\027\261\017\345\342\222&v\243\210\035\225\263"
 373      B10FE5E2 
 373      922676A3 
 373      881D95B3 
 374 05fc DB2AC14E 		.ascii	"\333*\301N\211t\307\344\260R\276u\242\335\307rXi\217"
 374      8974C7E4 
 374      B052BE75 
ARM GAS  C:\Users\info\AppData\Local\Temp\cc0OVjuF.s 			page 29


 374      A2DDC772 
 374      58698F
 375 060f 3D938E9C 		.ascii	"=\223\216\234)\371\221\303\342\243\013\226w2\337\300"
 375      29F991C3 
 375      E2A30B96 
 375      7732DFC0 
 376 061f 715A8252 		.ascii	"qZ\202R\360\213\225\302ok\253tT\215\313$U\032\3201\221"
 376      F08B95C2 
 376      6F6BAB74 
 376      548DCB24 
 376      551AD031 
 377 0634 E423B944 		.ascii	"\344#\271D\321^-\344\217i\034\234A\320k`\325AX\275\342"
 377      D15E2DE4 
 377      8F691C9C 
 377      41D06B60 
 377      D54158BD 
 378 0649 F1E01FAD 		.ascii	"\361\340\037\255W\306\240\034e4\312\006\311\004Y\015"
 378      57C6A01C 
 378      6534CA06 
 378      C904590D 
 379 0659 920B5200 		.ascii	"\222\013R\0002\215\242Q\026\334\277\002Y\013\262\006"
 379      328DA251 
 379      16DCBF02 
 379      590BB206 
 380 0669 E44B9075 		.ascii	"\344K\220u \205 \034H\036\310*\220\014\220|e\264$\232"
 380      2085201C 
 380      481EC82A 
 380      900C907C 
 380      65B4249A 
 381 067d BEF5A125 		.ascii	"\276\365\241%\2347\033\323\265\371\011\357\322\277\244"
 381      9C371BD3 
 381      B5F909EF 
 381      D2BFA4
 382 068c DF1449C2 		.ascii	"\337\024I\302:\320\273\276\254$\014\017\321u@\371l]"
 382      3AD0BBBE 
 382      AC240C0F 
 382      D17540F9 
 382      6C5D
 383 069e CBBB2822 		.ascii	"\313\273(\"F\236{\021\360\375Grg\275Tr\341\307\244\227"
 383      469E7B11 
 383      F0FD4772 
 383      67BD5472 
 383      E1C7A497 
 384 06b2 3681A38D 		.ascii	"6\201\243\215J\377\256B:\215\322\255\033\332\365X\023"
 384      4AFFAE42 
 384      3A8DD2AD 
 384      1BDAF558 
 384      13
 385 06c3 C113F4CE 		.ascii	"\301\023\364\316IP\361wgG\326\323\356\354\325z\351\206"
 385      4950F177 
 385      6747D6D3 
 385      EEECD57A 
 385      E986
 386 06d5 FFB524AD 		.ascii	"\377\265$\255\012T\254\0246\374\211\375w\257\251\361"
 386      0A54AC14 
 386      36FC89FD 
 386      77AFA9F1 
ARM GAS  C:\Users\info\AppData\Local\Temp\cc0OVjuF.s 			page 30


 387 06e5 B826E04C 		.ascii	"\270&\340L\027\316\316tuM\243;\371s\034G\316Y\303\267"
 387      17CECE74 
 387      754DA33B 
 387      F9731C47 
 387      CE59C3B7 
 388 06f9 CB4EEA70 		.ascii	"\313N\352p\246\226\255\330\227\017\236\013\303ETy\273"
 388      A696ADD8 
 388      970F9E0B 
 388      C3455479 
 388      BB
 389 070a 2FAF3903 		.ascii	"/\2579\003!\225!\002V\341\200\313`X\240\212\341\037"
 389      21952102 
 389      56E180CB 
 389      6058A08A 
 389      E11F
 390 071c 62A26362 		.ascii	"b\242cb\310\276\267Ui@w!\033\022v\345\001\354\2662v"
 390      C8BEB755 
 390      69407721 
 390      1B1276E5 
 390      01ECB632 
 391 0731 015D5BA6 		.ascii	"\001][\246\214B\245J\310\234\0272W\301wm3<\037\207\300"
 391      8C42A54A 
 391      C89C1732 
 391      57C1776D 
 391      333C1F87 
 392 0746 8F821C01 		.ascii	"\217\202\034\0019\014R\017R\015r\020\344\000\310~\220"
 392      390C520F 
 392      520D7210 
 392      E400C87E 
 392      90
 393 0757 7D205520 		.ascii	"} U {A\366\200T\202\354\006\331\005\262\023d\007\310"
 393      7B41F680 
 393      5482EC06 
 393      D905B213 
 393      6407C8
 394 076a 76906D01 		.ascii	"v\220m\001Cs\262[2\3216C\007W\210\263\347\260d9\220"
 394      4373B25B 
 394      32D13643 
 394      075788B3 
 394      E7B06439 
 395 077f E759C237 		.ascii	"\347Y\3027\370\307\363|\336\355\237\343\260\011\317"
 395      F8C7F37C 
 395      DEED9FE3 
 395      B009CF
 396 078e 66295D8F 		.ascii	"f)]\217\307El\203\034V\272p>\025\261\215rX\311>3&B\233"
 396      C7456C83 
 396      1C56BA70 
 396      3E15B18D 
 396      7258C93E 
 397 07a6 E4A092CD 		.ascii	"\344\240\222\315\303'B\275\201\320\346Y\313\346u\021"
 397      C32742BD 
 397      81D0E659 
 397      CBE67511 
 398 07b6 DB228795 		.ascii	"\333\"\207\225n\011\327D\354\0119\254tU\354\026\261"
 398      6E09D744 
 398      EC0939AC 
 398      7455EC16 
ARM GAS  C:\Users\info\AppData\Local\Temp\cc0OVjuF.s 			page 31


 398      B1
 399 07c7 6D7258E9 		.ascii	"mrX\3512\337)bO"
 399      32DF2962 
 399      4F
 400 07d0 CA61A5D9 		.ascii	"\312a\245\331\355\020\261\247\344\260\322\354^*\222"
 400      ED10B1A7 
 400      E4B0D2EC 
 400      5E2A92
 401 07df 6C09DFF1 		.ascii	"l\011\337\361h\377\226\320<3m\315Eo\260u\022\316\352"
 401      68FF96D0 
 401      3C336DCD 
 401      456FB075 
 401      12CEEA
 402 07f2 E8320FF7 		.ascii	"\3502\017\367\257\223\035\263h7\025I\326\325ny\274\304"
 402      AF931DB3 
 402      68371549 
 402      D6D56E79 
 402      BCC4
 403 0804 7C437718 		.ascii	"|Cw\030\203\037\202\31198\023.=\332Hfm\255r\201\210"
 403      831F82C9 
 403      3938132E 
 403      3DDA4866 
 403      6DAD7281 
 404 0819 F906C678 		.ascii	"\371\006\306x\0154f\253\340\034(\205\004RD\247M\026"
 404      0D3466AB 
 404      E01C2885 
 404      045244A7 
 404      4D16
 405 082b B7504513 		.ascii	"\267PE\023&B\240\001\374\326)\311\347\033a\275\250\203"
 405      2642A001 
 405      FCD629C9 
 405      E71B61BD 
 405      A883
 406 083d B9C516DD 		.ascii	"\271\305\026\335\255\027\336 \213.\341yC<\312\327\320"
 406      AD17DE20 
 406      8B2EE179 
 406      433CCAD7 
 406      D0
 407 084e 2583C572 		.ascii	"%\203\305rT\032\313\220|,\222\320\353\273\015\\\201"
 407      541ACB90 
 407      7C2C92D0 
 407      EBBB0D5C 
 407      81
 408 085f 89826FCD 		.ascii	"\211\202o\315\004\313\354\372\"\372\266<Zb\272\266("
 408      04CBECFA 
 408      22FAB63C 
 408      5A62BAB6 
 408      28
 409 0870 92313906 		.ascii	"\22219\006\360;3\341?\225Mj\2434\251M\220\324\006\271"
 409      F03B33E1 
 409      3F954D6A 
 409      A334A94D 
 409      90D406B9 
 410 0884 A4360624 		.ascii	"\2446\006$\265A.\251\355\001Im\244I\375\013M*K\344\241"
 410      B5412EA9 
 410      ED01496D 
 410      A449FD0B 
ARM GAS  C:\Users\info\AppData\Local\Temp\cc0OVjuF.s 			page 32


 410      4D2A4BE4 
 411 0899 FC374922 		.ascii	"\3747I\"\011\265a1\221\015\222D\036*\372!\243\017\333"
 411      09B56131 
 411      910D9244 
 411      1E2AFA21 
 411      A30FDB
 412 08ac 05BA274B 		.ascii	"\005\272'K?^<\263l)\242g\226\212\3003\013\253\373:\377"
 412      3F5E3CB3 
 412      6C29A267 
 412      968AC033 
 412      0BABFB3A 
 413 08c1 07A48E2C 		.ascii	"\007\244\216,\363[\304\235\262B\330)\267N\235\351\325"
 413      F35BC49D 
 413      B242D829 
 413      B74E9DE9 
 413      D5
 414 08d2 BC55CE0D 		.ascii	"\274U\316\015Vs\203\223\025\177(\256\271\305q\341*:"
 414      56738393 
 414      157F28AE 
 414      B9C571E1 
 414      2A3A
 415 08e4 722A456A 		.ascii	"r*Ej\360Hn\273\341\275\015\246\276\362-h\330=\326\366"
 415      F0486EBB 
 415      E1BD0DA6 
 415      BEF22D68 
 415      D83DD6F6 
 416 08f8 AD017BD9 		.ascii	"\255\001{\331\216\344\275w0W\015V\312\2539o\317\031"
 416      8EE4BD77 
 416      30570D56 
 416      CAAB396F 
 416      CF19
 417 090a E8A60C8E 		.ascii	"\350\246\014\216\373%5\322\"\372\204G\321H+5R\236qo"
 417      FB2535D2 
 417      22FA8447 
 417      D1482B35 
 417      529E716F 
 418 091e 4283FB98 		.ascii	"B\203\373\230\221c\033\271V\314\033\361\235\225\032"
 418      91631BB9 
 418      56CC1BF1 
 418      9D951A
 419 092d 39211A39 		.ascii	"9!\0329!5\322F\2154\024\335\324\343qf#k\327`\273\032"
 419      2135D246 
 419      8D3414DD 
 419      D4E37166 
 419      236BD760 
 420 0943 AF09A64A 		.ascii	"\257\011\246JQ\263ws\030\274\357\241S\264\021\224\034"
 420      51B37773 
 420      18BCEFA1 
 420      53B41194 
 420      1C
 421 0954 99B8B489 		.ascii	"\231\270\264\211\275\001\222\221\315\336\000\207\363"
 421      BD019291 
 421      CDDE0087 
 421      F3
 422 0961 0FF6E205 		.ascii	"\017\366\342\005sN\2113\264\367\276\243\275\007\350"
 422      734E8933 
 422      B4F7BEA3 
ARM GAS  C:\Users\info\AppData\Local\Temp\cc0OVjuF.s 			page 33


 422      BD07E8
 423 0970 E9232F9E 		.ascii	"\351#/\236\032H\276\340\335\366\330\324Ge\333s\274\300"
 423      1A48BEE0 
 423      DDF6D8D4 
 423      4765DB73 
 423      BCC0
 424 0982 731EC5A1 		.ascii	"s\036\305\241\223\002OtZ\251\"\032\373Rw\226\322\334"
 424      93024F74 
 424      5AA9221A 
 424      FB527796 
 424      D2DC
 425 0994 5038B221 		.ascii	"P8\262!\030o\234\213\232\334\313\351\344\225#\303J?"
 425      186F9C8B 
 425      9ADCCBE9 
 425      E49523C3 
 425      4A3F
 426 09a6 DD0B4A5A 		.ascii	"\335\013JZ\270;\353\214cn\272\355\224\356E\201\356\376"
 426      B83BEB8C 
 426      636EBAED 
 426      94EE4581 
 426      EEFE
 427 09b8 BCA1037A 		.ascii	"\274\241\003zF\327{5\251\204k\311\206\224\002\006\235"
 427      46D77B35 
 427      A9846BC9 
 427      86940206 
 427      9D
 428 09c9 F3533D0F 		.ascii	"\363S=\017T\317\011T/Q\252_m{r]\211w\316Eu\272t\264"
 428      54CF0954 
 428      2F51AA5F 
 428      6D7B725D 
 428      8977CE45 
 429 09e1 58233DE1 		.ascii	"X#=\341\004R\350\364\237pnMV\236\010\243\374;\375\351"
 429      0452E8F4 
 429      9F706E4D 
 429      569E08A3 
 429      FC3BFDE9 
 430 09f5 DE5F5EB7 		.ascii	"\336_^\267=\324\037g\027\213\351\340\235\232\316`\177"
 430      3DD41F67 
 430      178BE9E0 
 430      9D9ACE60 
 430      7F
 431 0a06 A0DDAC70 		.ascii	"\240\335\254p\374\312\201\306\320\271#\355\241\221^"
 431      FCCA81C6 
 431      D0B923ED 
 431      A1915E
 432 0a15 1122AD9D 		.ascii	"\021\"\255\235\272\321\213\371H}B\244\200A\035\376H"
 432      BAD18BF9 
 432      487D42A4 
 432      80411DFE 
 432      48
 433 0a26 2F43A41D 		.ascii	"/C\244\035B\244\2754\322\374\214#m*|x\256H\273\213\273"
 433      42A4BD34 
 433      D2FC8C23 
 433      6D2A7C78 
 433      AE48BB8B 
 434 0a3b 06B4BCD1 		.ascii	"\006\264\274\3211\301(\351\351\253~\243}`\364\252`\364"
 434      31C128E9 
ARM GAS  C:\Users\info\AppData\Local\Temp\cc0OVjuF.s 			page 34


 434      E9AB7EA3 
 434      7D60F4AA 
 434      60F4
 435 0a4d 1A355A95 		.ascii	"\0325Z\225\263?O\215/0\243rCn\244\273\342q\2204\262"
 435      B33F4F8D 
 435      2F30A372 
 435      436EA4BB 
 435      E2719034 
 436 0a62 4FDF9404 		.ascii	"O\337\224\0046@\003\273.\004\226\223\177\264L\350\302"
 436      364003BB 
 436      2E049693 
 436      7FB44CE8 
 436      C2
 437 0a73 B2320C24 		.ascii	"\2622\014$T\004\202\372\305I\321/\370\037\244\376\257"
 437      540482FA 
 437      C549D12F 
 437      F81FA4FE 
 437      AF
 438 0a84 570CAC0F 		.ascii	"W\014\254\017\302\367\230\377\376\312\332R\366\321\267"
 438      C2F798FF 
 438      FECADA52 
 438      F6D1B7
 439 0a93 D8EFBFFE 		.ascii	"\330\357\277\376QW\267\316\317i\210\245\373FVO\306\334"
 439      5157B7CE 
 439      CF6988A5 
 439      FB46564F 
 439      C6DC
 440 0aa5 A46E5152 		.ascii	"\244nQR7\005R\336o\316=\321\360\244\212\373\014\336"
 440      370552DE 
 440      6FCE3DD1 
 440      F0A48AFB 
 440      0CDE
 441 0ab7 024410E8 		.ascii	"\002D\020\350\206\310\351\206\300\3516[.2\333\036\352"
 441      86C8E986 
 441      C0E9365B 
 441      2E32DB1E 
 441      EA
 442 0ac8 F15AF6ED 		.ascii	"\361Z\366\355j\335\227}g\325\357l\347\332\313\311\242"
 442      6ADD977D 
 442      67D5EF6C 
 442      E7DACBC9 
 442      A2
 443 0ad9 B372E71E 		.ascii	"\263r\347\036p\211\3509\371\0163\340?\255+h\311\307"
 443      7089E839 
 443      F90E33E0 
 443      3FAD2B68 
 443      C9C7
 444 0aeb D0277795 		.ascii	"\320'w\225\357\220\005\243\362p\012\256\341?6\256.\352"
 444      EF9005A3 
 444      F2700AAE 
 444      E13F36AE 
 444      2EEA
 445 0afd 086156BC 		.ascii	"\010aV\274/\177-X\030\236ea\230\267p\217Z\030=\320\266"
 445      2F7F2D58 
 445      189E6561 
 445      98B7708F 
 445      5A183DD0 
ARM GAS  C:\Users\info\AppData\Local\Temp\cc0OVjuF.s 			page 35


 446 0b12 2A08F730 		.ascii	"*\010\3670\023Cu\333\237\205\362&6|(\230\270?\313\304"
 446      134375DB 
 446      9F85F226 
 446      367C2898 
 446      B83FCBC4 
 447 0b26 7DDEC403 		.ascii	"}\336\304\003b\002\237\270|\260Y\207tQ\010\352Q.I\230"
 447      62029FB8 
 447      7CB05987 
 447      745108EA 
 447      512E4998 
 448 0b3a 2F53F229 		.ascii	"/S\362)Z\201\036*u\360;\002\347\321Gp\036-\345\010\346"
 448      5A811E2A 
 448      75F03B02 
 448      E7D14770 
 448      1E2DE508 
 449 0b4f 12A2C554 		.ascii	"\022\242\305T\361\375\202>\223\037\362=)\377\321<\351"
 449      F1FD823E 
 449      931FF23D 
 449      29FFD13C 
 449      E9
 450 0b60 6CBA15B0 		.ascii	"l\272\025\260\301<f\263\211\334\311\372\326x\364\266"
 450      C13C66B3 
 450      89DCC9FA 
 450      D678F4B6 
 451 0b70 4A0A1E08 		.ascii	"J\012\036\010\000\373x\260\217\202\017m;\271;D\012>"
 451      00FB78B0 
 451      8F820F6D 
 451      3BB93B44 
 451      0A3E
 452 0b82 13001EE5 		.ascii	"\023\000\036\345\301\243\024<r\377>\264\222\200\333"
 452      C1A3143C 
 452      72FF3EB4 
 452      9280DB
 453 0b91 03C0633C 		.ascii	"\003\300c<x\214\202W\345M\337\015\303S,\211\207K\247"
 453      788C8257 
 453      E54DDF0D 
 453      C3532C89 
 453      874BA7
 454 0ba4 BC2A9CAD 		.ascii	"\274*\234\255\247JN\321\364\220\016\3472\345\351\243"
 454      A74A4ED1 
 454      F4900EE7 
 454      32E5E9A3 
 455 0bb4 DECA205C 		.ascii	"\336\312 \\\310\224\303\217\252\016\207\360\237\226"
 455      C894C38F 
 455      AA0E87F0 
 455      9F96
 456 0bc2 88BE615F 		.ascii	"\210\276a_^\026\302\025\2642\350yem\256\016\321W\230"
 456      5E16C215 
 456      B432E879 
 456      656DAE0E 
 456      D15798
 457 0bd5 18E15BD2 		.ascii	"\030\341[\322/\033$\337\222\236@\017\274\224}\333f\357"
 457      2F1B24DF 
 457      929E400F 
 457      BC947DDB 
 457      66EF
 458 0be7 005EF60E 		.ascii	"\000^\366\0160\0019'g\0014\316\343I?N\301V\376\032\316"
ARM GAS  C:\Users\info\AppData\Local\Temp\cc0OVjuF.s 			page 36


 458      30013927 
 458      670134CE 
 458      E3493F4E 
 458      C156FE1A 
 459 0bfc EE93202F 		.ascii	"\356\223 /@^\005\234\341\257_\020\277\376\3108\221\236"
 459      405E059C 
 459      E1AF5F10 
 459      BFFEC838 
 459      919E
 460 0c0e 40C644E8 		.ascii	"@\306D\350s\031\250\364L\334\237\317\037\002\311\312"
 460      7319A8F4 
 460      4CDC9FCF 
 460      1F02C9CA 
 461 0c1e F78C07CF 		.ascii	"\367\214\007\317\271\201\367\262\217\016/\0037p\362"
 461      B981F7B2 
 461      8F0E2F03 
 461      3770F2
 462 0c2d 09366FEC 		.ascii	"\0116o\354U(\256\244IR6W6T\206\240\230\010\326\246\354"
 462      5528AEA4 
 462      49523657 
 462      365486A0 
 462      9808D6A6 
 463 0c42 42346993 		.ascii	"B4i\223\201#\320\2648\355^\322\215=\340\275\310\237"
 463      8123D0B4 
 463      38ED5ED2 
 463      8D3DE0BD 
 463      C89F
 464 0c54 130EC7FC 		.ascii	"\023\016\307\374\325\234\220.\354\336\366\206t \020"
 464      D59C902E 
 464      ECDEF686 
 464      742010
 465 0c63 0FE240C8 		.ascii	"\017\342@\310\304l \300\035\260_\217\334\366\031\244"
 465      C46C20C0 
 465      1DB05F8F 
 465      DCF619A4 
 466 0c73 E09E8051 		.ascii	"\340\236\200Q\223\305\203\263(\270\313\367\370T\330"
 466      93C583B3 
 466      28B8CBF7 
 466      F854D8
 467 0c82 DBDB18B7 		.ascii	"\333\333\030\267<\230N\237\276IO\023l\235\310\306o\223"
 467      3C984E9F 
 467      BE494F13 
 467      6C9DC8C6 
 467      6F93
 468 0c94 19F9FC54 		.ascii	"\031\371\374T\213\222a`i0\225\344\0010\020\267\212\342"
 468      8B926160 
 468      693095E4 
 468      013010B7 
 468      8AE2
 469 0ca6 9E76ADFB 		.ascii	"\236v\255\373\220\301\274\307\203fBr(\244\374\330\256"
 469      90C1BCC7 
 469      83664272 
 469      28A4FCD8 
 469      AE
 470 0cb7 D6E039DD 		.ascii	"\326\3409\335\255\246\230\274\202g\223z\336\316\363"
 470      ADA698BC 
 470      8267937A 
ARM GAS  C:\Users\info\AppData\Local\Temp\cc0OVjuF.s 			page 37


 470      DECEF3
 471 0cc6 59767229 		.ascii	"Yvr)f\313\306\341E<d\\\307CZ\005\310\227\024\262j\357"
 471      66CBC6E1 
 471      453C645C 
 471      C7435A05 
 471      C89714B2 
 472 0cdc 68161F99 		.ascii	"h\026\037\231\3277\013\223G1_\375\345V\257\216\307L"
 472      D7370B93 
 472      47315FFD 
 472      E556AF8E 
 472      C74C
 473 0cee E9794C9B 		.ascii	"\351yL\233\200YC1\3336\265\017b\201\316,\314Z\374\266"
 473      80594331 
 473      DB36B50F 
 473      6281CE2C 
 473      CC5AFCB6 
 474 0d02 E2FB6909 		.ascii	"\342\373i\011\351\011F\2131\305\035\027\277t\371\317"
 474      E909468B 
 474      31C51D17 
 474      BF74F9CF 
 475 0d12 2DC9714B 		.ascii	"-\311qK\215\361K\022\322A\264\277\376\317O\026\276\037"
 475      8DF14B12 
 475      D241B4BF 
 475      FECF4F16 
 475      BE1F
 476 0d24 1FAF0836 		.ascii	"\037\257\0106\032\323lvO\202\321\223\201\314\377\226"
 476      1AD36C76 
 476      4F82D193 
 476      81CCFF96 
 477 0d34 E8743956 		.ascii	"\350t9V\270L\251\013\223l)V\367\302\230\364\204w\177"
 477      B84CA90B 
 477      936C2956 
 477      F7C298F4 
 477      84777F
 478 0d47 94685EE9 		.ascii	"\224h^\351tY\335\356D\247\333a^hvYM\036\207+qY\354\222"
 478      7459DDEE 
 478      44A7DB61 
 478      5E687659 
 478      4D1E872B 
 479 0d5f C0025BAA 		.ascii	"\300\002[\252\323\341\362$\256\260\247%\232\\\251\211"
 479      D3E1F224 
 479      AEB0A725 
 479      9A5CA989 
 480 0d6f 3F8B5D16 		.ascii	"?\213]\026\033O\236~bw\330\255?\261\232\226\333\022"
 480      1B4F9E7E 
 480      6277D8AD 
 480      3FB19A96 
 480      DB12
 481 0d81 6D76734A 		.ascii	"mvsJ\232\305\232\230j2'\333\354\326D\243\305\232dJK"
 481      9AC59A98 
 481      6A3227DB 
 481      ECD644A3 
 481      C59A644A 
 482 0d96 F1183D2B 		.ascii	"\361\030=+\235Vwl\262B\303S\371\374\237\305\304\275"
 482      9D56776C 
 482      B242C353 
 482      F9FC9FC5 
ARM GAS  C:\Users\info\AppData\Local\Temp\cc0OVjuF.s 			page 38


 482      C4BD
 483 0da8 D29D6874 		.ascii	"\322\235ht{,\340\026\334\207Z\254\313\035iv\263\025"
 483      7B2CE016 
 483      DC875AAC 
 483      CB1D6976 
 483      B315
 484 0dba 8A4C1EEB 		.ascii	"\212L\036\353\367\374j\212\311\3551:mvV\376}\177\271"
 484      F7FC6A8A 
 484      C9ED313A 
 484      6D7656FE 
 484      7D7FB9
 485 0dcd C0DF5FA5 		.ascii	"\300\337_\245_\341\2649\214\300\021Jui\236\244\004V"
 485      5FE1B439 
 485      8CC0114A 
 485      75699EA4 
 485      0456
 486 0ddf 0C863FB7 		.ascii	"\014\206?\267\001\336d\261\020\376z\333\0223\251py\254"
 486      01DE64B1 
 486      10FE7ADB 
 486      1233A970 
 486      79AC
 487 0df1 16FACC97 		.ascii	"\026\372\314\227G\332\334\306$\207\335c\264\331?\267"
 487      47DADCC6 
 487      2487DD63 
 487      B4D93FB7 
 488 0e01 BADC5663 		.ascii	"\272\334Vc\252\303b\325\246\033\035IIn\253Gk\265\233"
 488      AAC362D5 
 488      A61B1D49 
 488      496EAB47 
 488      6BB59B
 489 0e14 1DC07485 		.ascii	"\035\300t\205\216uY\374\273F\217VxP\221v\301\313\323"
 489      8E7559FC 
 489      BB468F56 
 489      78509176 
 489      C1CBD3
 490 0e27 DC46738A 		.ascii	"\334Fs\212\303\374\031\017Y\272\204\207\220\207\371"
 490      C3FC190F 
 490      59BA8487 
 490      9087F9
 491 0e36 949BC96E 		.ascii	"\224\233\311n\001\332)\246\225F\363r=\035\037\251\356"
 491      01DA29A6 
 491      9546F372 
 491      3D1D1FA9 
 491      EE
 492 0e47 15F0AC59 		.ascii	"\025\360\254Y\276\322c\205{\220\331d\201\233\316bs;"
 492      BED26385 
 492      7B90D964 
 492      819BCE62 
 492      733B
 493 0e59 194A63B7 		.ascii	"\031Jc\267\246{\340n\240hs\262\311E\024\241\336fOr\350"
 493      A67BE06E 
 493      A06873B2 
 493      C94514A1 
 493      DE664F72 
 494 0e6e 9DB6746B 		.ascii	"\235\266tk\212\361\013\233\305\223<?)\305\346$\274\215"
 494      8AF10B9B 
 494      C5933C3F 
ARM GAS  C:\Users\info\AppData\Local\Temp\cc0OVjuF.s 			page 39


 494      29C5E624 
 494      BC8D
 495 0e80 02EF7942 		.ascii	"\002\357yB\226\204\002\275\007\272\324\230l\265\255"
 495      968402BD 
 495      07BAD498 
 495      6CB5AD
 496 0e8f 48F6E8E8 		.ascii	"H\366\350\3503m\031\371\205\313\006\024\234i)n\276\304"
 496      336D19F9 
 496      85CB0614 
 496      9C69296E 
 496      BEC4
 497 0ea1 6877875B 		.ascii	"hw\207[L\036\223\021\032\2459\215\036[\252\025\212\""
 497      4C1E9311 
 497      1AA5398D 
 497      1E5BAA15 
 497      8A22
 498 0eb3 49C6FC91 		.ascii	"I\306\374\221\032\343\343\342>\373\315\037\265n\247"
 498      1AE3E3E2 
 498      3EFBCD1F 
 498      B56EA7
 499 0ec2 8DA6CBE0 		.ascii	"\215\246\313\340\2062V\223\374\307p\242\004\032\234"
 499      86325693 
 499      FCC770A2 
 499      041A9C
 500 0ed1 EFB6CCB0 		.ascii	"\357\266\314\260\027\356t@\357B\376\255\036\343\027"
 500      17EE7440 
 500      EF42FEAD 
 500      1EE317
 501 0ee0 269B0712 		.ascii	"&\233\007\022\022\3114i\313T\367\002\030{\020\276\315"
 501      12C93469 
 501      CB54F702 
 501      187B10BE 
 501      CD
 502 0ef1 6984D84D 		.ascii	"i\204\330M\313\011m\202\266C\0051@k\254viEx\000:\305"
 502      CB096D82 
 502      B6430531 
 502      406BAC76 
 502      69457800 
 503 0f07 FAB93565 		.ascii	"\372\2715e\276\024FK\026\260I*I'\014\015W\232\331c`"
 503      BE14464B 
 503      16B0492A 
 503      49270C0D 
 503      579AD963 
 504 0f1c 5965798A 		.ascii	"Yey\212\214\215MLKX\261\304hv\273\314\211\244\011\214"
 504      8C8D4D4C 
 504      4B58B1C4 
 504      6876BBCC 
 504      89A4098C 
 505 0f30 D788D94D 		.ascii	"\327\210\331M=\254O\231\205\010\377@e#\222tu\020\255"
 505      3DAC4F99 
 505      8508FF40 
 505      65239274 
 505      7510AD
 506 0f43 F7BC35CB 		.ascii	"\367\2745\313^\340:\021k\226\256\036K~NK\343\215\313"
 506      5EE03A11 
 506      6B96AE1E 
 506      4B7E4E4B 
ARM GAS  C:\Users\info\AppData\Local\Temp\cc0OVjuF.s 			page 40


 506      E38DCB
 507 0f56 E2E2D297 		.ascii	"\342\342\322\227,\213\233\275\260\374\314\030\277lY"
 507      2C8B9BBD 
 507      B0FCCC18 
 507      BF6C59
 508 0f65 7AFCBB09 		.ascii	"z\374\273\011\221l\224\300 \372\300n\371\330e\262\273"
 508      916C94C0 
 508      20FAC06E 
 508      F9D865B2 
 508      BB
 509 0f76 93AC2EAD 		.ascii	"\223\254.\255\335a\263\247\300\224\237\347\257\375o"
 509      DD61B3A7 
 509      C0949FE7 
 509      AFFD6F
 510 0f85 ABDDF27E 		.ascii	"\253\335\362~\252e~@\301\177@g\277)\226\220\031\"\230"
 510      AA657E40 
 510      C17F4067 
 510      BF299690 
 510      192298
 511 0f98 105C265B 		.ascii	"\020\\&[S\234V\227"
 511      539C5697 
 512 0fa0 24689BE7 		.ascii	"$h\233\347-\371*\326\311\251\326T\207k\345;\024\"\263"
 512      2DF92AD6 
 512      C9A9D654 
 512      876BE53B 
 512      1422B3
 513 0fb3 0E0664CF 		.ascii	"\016\006d\317\217\232\031\257<jf\350\001(u\272\021\206"
 513      8F9A19AF 
 513      3C6A66E8 
 513      012875BA 
 513      1186
 514 0fc5 0536DB3D 		.ascii	"\0056\333=Z:\304\235\036\027\013\236j\254\177\324+\011"
 514      5A3AC49D 
 514      1E170B9E 
 514      6AAC7FD4 
 514      2B09
 515 0fd7 462F167B 		.ascii	"F/\026{\376\037\250\267S\020"
 515      FE1FA8B7 
 515      5310
 516              		.text
 517              		.section	.gnu.lto_.symtab.792a4aea,"",%progbits
 518 0000 75387838 		.ascii	"u8x8_d_ls013b7dh03_128x128\000"
 518      5F645F6C 
 518      73303133 
 518      62376468 
 518      30335F31 
 519 001b 00       		.ascii	"\000"
 520 001c 00       		.ascii	"\000"
 521 001d 00       		.ascii	"\000"
 522 001e 00000000 		.ascii	"\000\000\000\000\000\000\000\000"
 522      00000000 
 523 0026 41010000 		.ascii	"A\001\000\000"
 524 002a 75387838 		.ascii	"u8x8_d_ls027b7dh01_400x240\000"
 524      5F645F6C 
 524      73303237 
 524      62376468 
 524      30315F34 
ARM GAS  C:\Users\info\AppData\Local\Temp\cc0OVjuF.s 			page 41


 525 0045 00       		.ascii	"\000"
 526 0046 00       		.ascii	"\000"
 527 0047 00       		.ascii	"\000"
 528 0048 00000000 		.ascii	"\000\000\000\000\000\000\000\000"
 528      00000000 
 529 0050 43010000 		.ascii	"C\001\000\000"
 530 0054 75387838 		.ascii	"u8x8_d_ls013b7dh05_144x168\000"
 530      5F645F6C 
 530      73303133 
 530      62376468 
 530      30355F31 
 531 006f 00       		.ascii	"\000"
 532 0070 00       		.ascii	"\000"
 533 0071 00       		.ascii	"\000"
 534 0072 00000000 		.ascii	"\000\000\000\000\000\000\000\000"
 534      00000000 
 535 007a 45010000 		.ascii	"E\001\000\000"
 536 007e 75387838 		.ascii	"u8x8_cad_EndTransfer\000"
 536      5F636164 
 536      5F456E64 
 536      5472616E 
 536      73666572 
 537 0093 00       		.ascii	"\000"
 538 0094 02       		.ascii	"\002"
 539 0095 00       		.ascii	"\000"
 540 0096 00000000 		.ascii	"\000\000\000\000\000\000\000\000"
 540      00000000 
 541 009e 4B010000 		.ascii	"K\001\000\000"
 542 00a2 75387838 		.ascii	"u8x8_cad_SendCmd\000"
 542      5F636164 
 542      5F53656E 
 542      64436D64 
 542      00
 543 00b3 00       		.ascii	"\000"
 544 00b4 02       		.ascii	"\002"
 545 00b5 00       		.ascii	"\000"
 546 00b6 00000000 		.ascii	"\000\000\000\000\000\000\000\000"
 546      00000000 
 547 00be 51010000 		.ascii	"Q\001\000\000"
 548 00c2 75387838 		.ascii	"u8x8_cad_SendData\000"
 548      5F636164 
 548      5F53656E 
 548      64446174 
 548      6100
 549 00d4 00       		.ascii	"\000"
 550 00d5 02       		.ascii	"\002"
 551 00d6 00       		.ascii	"\000"
 552 00d7 00000000 		.ascii	"\000\000\000\000\000\000\000\000"
 552      00000000 
 553 00df 59010000 		.ascii	"Y\001\000\000"
 554 00e3 75387838 		.ascii	"u8x8_cad_StartTransfer\000"
 554      5F636164 
 554      5F537461 
 554      72745472 
 554      616E7366 
 555 00fa 00       		.ascii	"\000"
 556 00fb 02       		.ascii	"\002"
ARM GAS  C:\Users\info\AppData\Local\Temp\cc0OVjuF.s 			page 42


 557 00fc 00       		.ascii	"\000"
 558 00fd 00000000 		.ascii	"\000\000\000\000\000\000\000\000"
 558      00000000 
 559 0105 5C010000 		.ascii	"\\\001\000\000"
 560 0109 75387838 		.ascii	"u8x8_d_helper_display_init\000"
 560      5F645F68 
 560      656C7065 
 560      725F6469 
 560      73706C61 
 561 0124 00       		.ascii	"\000"
 562 0125 02       		.ascii	"\002"
 563 0126 00       		.ascii	"\000"
 564 0127 00000000 		.ascii	"\000\000\000\000\000\000\000\000"
 564      00000000 
 565 012f 60010000 		.ascii	"`\001\000\000"
 566 0133 75387838 		.ascii	"u8x8_d_helper_display_setup_memory\000"
 566      5F645F68 
 566      656C7065 
 566      725F6469 
 566      73706C61 
 567 0156 00       		.ascii	"\000"
 568 0157 02       		.ascii	"\002"
 569 0158 00       		.ascii	"\000"
 570 0159 00000000 		.ascii	"\000\000\000\000\000\000\000\000"
 570      00000000 
 571 0161 65010000 		.ascii	"e\001\000\000"
 572              		.text
 573              		.section	.gnu.lto_.opts,"",%progbits
 574 0000 272D666D 		.ascii	"'-fmath-errno' '-fsigned-zeros' '-ftrapping-math' '"
 574      6174682D 
 574      6572726E 
 574      6F272027 
 574      2D667369 
 575 0033 2D666E6F 		.ascii	"-fno-trapv' '-fno-strict-overflow' '-fno-openmp' '-"
 575      2D747261 
 575      70762720 
 575      272D666E 
 575      6F2D7374 
 576 0066 666E6F2D 		.ascii	"fno-openacc' '-mcpu=cortex-m3' '-mthumb' '-g' '-Og'"
 576      6F70656E 
 576      61636327 
 576      20272D6D 
 576      6370753D 
 577 0099 20272D66 		.ascii	" '-ffunction-sections' '-ffat-lto-objects' '-flto'\000"
 577      66756E63 
 577      74696F6E 
 577      2D736563 
 577      74696F6E 
 578              		.text
 579              		.cfi_sections	.debug_frame
 580              		.section	.text.u8x8_d_ls013b7dh03_128x128,"ax",%progbits
 581              		.align	2
 582              		.global	u8x8_d_ls013b7dh03_128x128
 583              		.thumb
 584              		.thumb_func
 585              		.type	u8x8_d_ls013b7dh03_128x128, %function
 586              	u8x8_d_ls013b7dh03_128x128:
ARM GAS  C:\Users\info\AppData\Local\Temp\cc0OVjuF.s 			page 43


 587              	.LFB0:
 588              		.file 1 "..\\u8g2_csrc\\u8x8_d_ls013b7dh03.c"
   1:..\u8g2_csrc/u8x8_d_ls013b7dh03.c **** /*
   2:..\u8g2_csrc/u8x8_d_ls013b7dh03.c **** 
   3:..\u8g2_csrc/u8x8_d_ls013b7dh03.c ****   u8x8_d_ls013b7dh03.c
   4:..\u8g2_csrc/u8x8_d_ls013b7dh03.c ****   
   5:..\u8g2_csrc/u8x8_d_ls013b7dh03.c ****   Universal 8bit Graphics Library (https://github.com/olikraus/u8g2/)
   6:..\u8g2_csrc/u8x8_d_ls013b7dh03.c **** 
   7:..\u8g2_csrc/u8x8_d_ls013b7dh03.c ****   Copyright (c) 2016, olikraus@gmail.com
   8:..\u8g2_csrc/u8x8_d_ls013b7dh03.c ****   All rights reserved.
   9:..\u8g2_csrc/u8x8_d_ls013b7dh03.c **** 
  10:..\u8g2_csrc/u8x8_d_ls013b7dh03.c ****   Redistribution and use in source and binary forms, with or without modification, 
  11:..\u8g2_csrc/u8x8_d_ls013b7dh03.c ****   are permitted provided that the following conditions are met:
  12:..\u8g2_csrc/u8x8_d_ls013b7dh03.c **** 
  13:..\u8g2_csrc/u8x8_d_ls013b7dh03.c ****   * Redistributions of source code must retain the above copyright notice, this list 
  14:..\u8g2_csrc/u8x8_d_ls013b7dh03.c ****     of conditions and the following disclaimer.
  15:..\u8g2_csrc/u8x8_d_ls013b7dh03.c ****     
  16:..\u8g2_csrc/u8x8_d_ls013b7dh03.c ****   * Redistributions in binary form must reproduce the above copyright notice, this 
  17:..\u8g2_csrc/u8x8_d_ls013b7dh03.c ****     list of conditions and the following disclaimer in the documentation and/or other 
  18:..\u8g2_csrc/u8x8_d_ls013b7dh03.c ****     materials provided with the distribution.
  19:..\u8g2_csrc/u8x8_d_ls013b7dh03.c **** 
  20:..\u8g2_csrc/u8x8_d_ls013b7dh03.c ****   THIS SOFTWARE IS PROVIDED BY THE COPYRIGHT HOLDERS AND 
  21:..\u8g2_csrc/u8x8_d_ls013b7dh03.c ****   CONTRIBUTORS "AS IS" AND ANY EXPRESS OR IMPLIED WARRANTIES, 
  22:..\u8g2_csrc/u8x8_d_ls013b7dh03.c ****   INCLUDING, BUT NOT LIMITED TO, THE IMPLIED WARRANTIES OF 
  23:..\u8g2_csrc/u8x8_d_ls013b7dh03.c ****   MERCHANTABILITY AND FITNESS FOR A PARTICULAR PURPOSE ARE 
  24:..\u8g2_csrc/u8x8_d_ls013b7dh03.c ****   DISCLAIMED. IN NO EVENT SHALL THE COPYRIGHT HOLDER OR 
  25:..\u8g2_csrc/u8x8_d_ls013b7dh03.c ****   CONTRIBUTORS BE LIABLE FOR ANY DIRECT, INDIRECT, INCIDENTAL, 
  26:..\u8g2_csrc/u8x8_d_ls013b7dh03.c ****   SPECIAL, EXEMPLARY, OR CONSEQUENTIAL DAMAGES (INCLUDING, BUT 
  27:..\u8g2_csrc/u8x8_d_ls013b7dh03.c ****   NOT LIMITED TO, PROCUREMENT OF SUBSTITUTE GOODS OR SERVICES; 
  28:..\u8g2_csrc/u8x8_d_ls013b7dh03.c ****   LOSS OF USE, DATA, OR PROFITS; OR BUSINESS INTERRUPTION) HOWEVER 
  29:..\u8g2_csrc/u8x8_d_ls013b7dh03.c ****   CAUSED AND ON ANY THEORY OF LIABILITY, WHETHER IN CONTRACT, 
  30:..\u8g2_csrc/u8x8_d_ls013b7dh03.c ****   STRICT LIABILITY, OR TORT (INCLUDING NEGLIGENCE OR OTHERWISE) 
  31:..\u8g2_csrc/u8x8_d_ls013b7dh03.c ****   ARISING IN ANY WAY OUT OF THE USE OF THIS SOFTWARE, EVEN IF 
  32:..\u8g2_csrc/u8x8_d_ls013b7dh03.c ****   ADVISED OF THE POSSIBILITY OF SUCH DAMAGE.  
  33:..\u8g2_csrc/u8x8_d_ls013b7dh03.c **** 
  34:..\u8g2_csrc/u8x8_d_ls013b7dh03.c **** 
  35:..\u8g2_csrc/u8x8_d_ls013b7dh03.c ****   The LS013B7DH02 is a simple display and controller
  36:..\u8g2_csrc/u8x8_d_ls013b7dh03.c ****   --> no support for contrast adjustment, flip and power down.
  37:..\u8g2_csrc/u8x8_d_ls013b7dh03.c **** */
  38:..\u8g2_csrc/u8x8_d_ls013b7dh03.c **** 
  39:..\u8g2_csrc/u8x8_d_ls013b7dh03.c **** #include "u8x8.h"
  40:..\u8g2_csrc/u8x8_d_ls013b7dh03.c **** 
  41:..\u8g2_csrc/u8x8_d_ls013b7dh03.c **** #define SWAP8(a) ((((a) & 0x80) >> 7) | (((a) & 0x40) >> 5) | (((a) & 0x20) >> 3) | (((a) & 0x10) >
  42:..\u8g2_csrc/u8x8_d_ls013b7dh03.c **** 
  43:..\u8g2_csrc/u8x8_d_ls013b7dh03.c **** #define LS013B7DH03_CMD_UPDATE     (0x01)
  44:..\u8g2_csrc/u8x8_d_ls013b7dh03.c **** #define LS013B7DH03_CMD_ALL_CLEAR  (0x04)
  45:..\u8g2_csrc/u8x8_d_ls013b7dh03.c **** #define LS013B7DH03_VAL_TRAILER    (0x00)
  46:..\u8g2_csrc/u8x8_d_ls013b7dh03.c **** 
  47:..\u8g2_csrc/u8x8_d_ls013b7dh03.c **** static const u8x8_display_info_t u8x8_ls013b7dh03_128x128_display_info =
  48:..\u8g2_csrc/u8x8_d_ls013b7dh03.c **** {
  49:..\u8g2_csrc/u8x8_d_ls013b7dh03.c ****   /* chip_enable_level = */ 1,
  50:..\u8g2_csrc/u8x8_d_ls013b7dh03.c ****   /* chip_disable_level = */ 0,
  51:..\u8g2_csrc/u8x8_d_ls013b7dh03.c ****   /* post_chip_enable_wait_ns = */ 50,
  52:..\u8g2_csrc/u8x8_d_ls013b7dh03.c ****   /* pre_chip_disable_wait_ns = */ 50,
  53:..\u8g2_csrc/u8x8_d_ls013b7dh03.c ****   /* reset_pulse_width_ms = */ 1,
  54:..\u8g2_csrc/u8x8_d_ls013b7dh03.c ****   /* post_reset_wait_ms = */ 6,
  55:..\u8g2_csrc/u8x8_d_ls013b7dh03.c ****   /* sda_setup_time_ns = */ 227,	/* 227 nsec according to the datasheet */		
ARM GAS  C:\Users\info\AppData\Local\Temp\cc0OVjuF.s 			page 44


  56:..\u8g2_csrc/u8x8_d_ls013b7dh03.c ****   /* sck_pulse_width_ns = */  255,	/* 450 nsec according to the datasheet */
  57:..\u8g2_csrc/u8x8_d_ls013b7dh03.c ****   /* sck_clock_hz = */ 1000000UL,	/* since Arduino 1.6.0, the SPI bus speed in Hz. Should be  10000
  58:..\u8g2_csrc/u8x8_d_ls013b7dh03.c ****   /* spi_mode = */ 2,		/* active low, rising edge */
  59:..\u8g2_csrc/u8x8_d_ls013b7dh03.c ****   /* i2c_bus_clock_100kHz = */ 4,
  60:..\u8g2_csrc/u8x8_d_ls013b7dh03.c ****   /* data_setup_time_ns = */ 100,
  61:..\u8g2_csrc/u8x8_d_ls013b7dh03.c ****   /* write_pulse_width_ns = */ 100,
  62:..\u8g2_csrc/u8x8_d_ls013b7dh03.c ****   /* tile_width = */ 16,
  63:..\u8g2_csrc/u8x8_d_ls013b7dh03.c ****   /* tile_hight = */ 16,
  64:..\u8g2_csrc/u8x8_d_ls013b7dh03.c ****   /* default_x_offset = */ 0,
  65:..\u8g2_csrc/u8x8_d_ls013b7dh03.c ****   /* flipmode_x_offset = */ 0,
  66:..\u8g2_csrc/u8x8_d_ls013b7dh03.c ****   /* pixel_width = */ 128,
  67:..\u8g2_csrc/u8x8_d_ls013b7dh03.c ****   /* pixel_height = */ 128
  68:..\u8g2_csrc/u8x8_d_ls013b7dh03.c **** };
  69:..\u8g2_csrc/u8x8_d_ls013b7dh03.c **** 
  70:..\u8g2_csrc/u8x8_d_ls013b7dh03.c **** uint8_t u8x8_d_ls013b7dh03_128x128(u8x8_t *u8x8, uint8_t msg, U8X8_UNUSED uint8_t arg_int, void *ar
  71:..\u8g2_csrc/u8x8_d_ls013b7dh03.c **** {
 589              		.loc 1 71 0
 590              		.cfi_startproc
 591              		@ args = 0, pretend = 0, frame = 0
 592              		@ frame_needed = 0, uses_anonymous_args = 0
 593              	.LVL0:
 594 0000 2DE9F047 		push	{r4, r5, r6, r7, r8, r9, r10, lr}
 595              		.cfi_def_cfa_offset 32
 596              		.cfi_offset 4, -32
 597              		.cfi_offset 5, -28
 598              		.cfi_offset 6, -24
 599              		.cfi_offset 7, -20
 600              		.cfi_offset 8, -16
 601              		.cfi_offset 9, -12
 602              		.cfi_offset 10, -8
 603              		.cfi_offset 14, -4
 604 0004 0546     		mov	r5, r0
  72:..\u8g2_csrc/u8x8_d_ls013b7dh03.c ****   uint8_t y, c, i;
  73:..\u8g2_csrc/u8x8_d_ls013b7dh03.c ****   uint8_t *ptr;
  74:..\u8g2_csrc/u8x8_d_ls013b7dh03.c ****   switch(msg)
 605              		.loc 1 74 0
 606 0006 0939     		subs	r1, r1, #9
 607              	.LVL1:
 608 0008 0629     		cmp	r1, #6
 609 000a 05D8     		bhi	.L2
 610 000c DFE801F0 		tbb	[pc, r1]
 611              	.LVL2:
 612              	.L4:
 613 0010 07       		.byte	(.L3-.L4)/2
 614 0011 0D       		.byte	(.L5-.L4)/2
 615 0012 73       		.byte	(.L10-.L4)/2
 616 0013 04       		.byte	(.L2-.L4)/2
 617 0014 04       		.byte	(.L2-.L4)/2
 618 0015 04       		.byte	(.L2-.L4)/2
 619 0016 20       		.byte	(.L7-.L4)/2
 620 0017 00       		.p2align 1
 621              	.L2:
  75:..\u8g2_csrc/u8x8_d_ls013b7dh03.c ****   {
  76:..\u8g2_csrc/u8x8_d_ls013b7dh03.c ****     case U8X8_MSG_DISPLAY_SETUP_MEMORY:
  77:..\u8g2_csrc/u8x8_d_ls013b7dh03.c ****       u8x8_d_helper_display_setup_memory(u8x8, &u8x8_ls013b7dh03_128x128_display_info);
  78:..\u8g2_csrc/u8x8_d_ls013b7dh03.c ****       break;
  79:..\u8g2_csrc/u8x8_d_ls013b7dh03.c ****     case U8X8_MSG_DISPLAY_INIT:
ARM GAS  C:\Users\info\AppData\Local\Temp\cc0OVjuF.s 			page 45


  80:..\u8g2_csrc/u8x8_d_ls013b7dh03.c ****       u8x8_d_helper_display_init(u8x8);
  81:..\u8g2_csrc/u8x8_d_ls013b7dh03.c **** 
  82:..\u8g2_csrc/u8x8_d_ls013b7dh03.c ****       /* clear screen */
  83:..\u8g2_csrc/u8x8_d_ls013b7dh03.c ****       u8x8_cad_StartTransfer(u8x8);
  84:..\u8g2_csrc/u8x8_d_ls013b7dh03.c ****       u8x8_cad_SendCmd(u8x8, SWAP8(LS013B7DH03_CMD_ALL_CLEAR) );
  85:..\u8g2_csrc/u8x8_d_ls013b7dh03.c ****       u8x8_cad_SendCmd(u8x8, LS013B7DH03_VAL_TRAILER);
  86:..\u8g2_csrc/u8x8_d_ls013b7dh03.c ****       u8x8_cad_EndTransfer(u8x8);
  87:..\u8g2_csrc/u8x8_d_ls013b7dh03.c **** 
  88:..\u8g2_csrc/u8x8_d_ls013b7dh03.c ****       break;
  89:..\u8g2_csrc/u8x8_d_ls013b7dh03.c ****     case U8X8_MSG_DISPLAY_SET_POWER_SAVE:
  90:..\u8g2_csrc/u8x8_d_ls013b7dh03.c ****       /* not available for the ls013b7dh03 */
  91:..\u8g2_csrc/u8x8_d_ls013b7dh03.c ****       break;
  92:..\u8g2_csrc/u8x8_d_ls013b7dh03.c ****     case U8X8_MSG_DISPLAY_DRAW_TILE:
  93:..\u8g2_csrc/u8x8_d_ls013b7dh03.c ****       /* each tile is 8 lines, with the data starting at the left edge */
  94:..\u8g2_csrc/u8x8_d_ls013b7dh03.c ****       y = ((((u8x8_tile_t *)arg_ptr)->y_pos) * 8) + 1;
  95:..\u8g2_csrc/u8x8_d_ls013b7dh03.c **** 
  96:..\u8g2_csrc/u8x8_d_ls013b7dh03.c ****       c = ((u8x8_tile_t *)arg_ptr)->cnt;
  97:..\u8g2_csrc/u8x8_d_ls013b7dh03.c ****       ptr = ((u8x8_tile_t *)arg_ptr)->tile_ptr;
  98:..\u8g2_csrc/u8x8_d_ls013b7dh03.c **** 
  99:..\u8g2_csrc/u8x8_d_ls013b7dh03.c ****       /* send data mode byte */
 100:..\u8g2_csrc/u8x8_d_ls013b7dh03.c ****       u8x8_cad_StartTransfer(u8x8);
 101:..\u8g2_csrc/u8x8_d_ls013b7dh03.c ****       u8x8_cad_SendCmd(u8x8, SWAP8(LS013B7DH03_CMD_UPDATE) );
 102:..\u8g2_csrc/u8x8_d_ls013b7dh03.c **** 
 103:..\u8g2_csrc/u8x8_d_ls013b7dh03.c ****       /* send 8 lines of 16 bytes (=128 pixels) */
 104:..\u8g2_csrc/u8x8_d_ls013b7dh03.c ****       for( i = 0; i < 8; i++ )
 105:..\u8g2_csrc/u8x8_d_ls013b7dh03.c ****       {
 106:..\u8g2_csrc/u8x8_d_ls013b7dh03.c ****         u8x8_cad_SendCmd(u8x8, SWAP8(y + i) );
 107:..\u8g2_csrc/u8x8_d_ls013b7dh03.c ****         u8x8_cad_SendData(u8x8, c, ptr);
 108:..\u8g2_csrc/u8x8_d_ls013b7dh03.c ****         u8x8_cad_SendCmd(u8x8, LS013B7DH03_VAL_TRAILER);
 109:..\u8g2_csrc/u8x8_d_ls013b7dh03.c **** 
 110:..\u8g2_csrc/u8x8_d_ls013b7dh03.c ****         ptr += c;
 111:..\u8g2_csrc/u8x8_d_ls013b7dh03.c ****       }
 112:..\u8g2_csrc/u8x8_d_ls013b7dh03.c **** 
 113:..\u8g2_csrc/u8x8_d_ls013b7dh03.c ****       /* finish with a trailing byte */
 114:..\u8g2_csrc/u8x8_d_ls013b7dh03.c ****       u8x8_cad_SendCmd(u8x8, LS013B7DH03_VAL_TRAILER);
 115:..\u8g2_csrc/u8x8_d_ls013b7dh03.c ****       u8x8_cad_EndTransfer(u8x8);
 116:..\u8g2_csrc/u8x8_d_ls013b7dh03.c **** 
 117:..\u8g2_csrc/u8x8_d_ls013b7dh03.c ****       break;
 118:..\u8g2_csrc/u8x8_d_ls013b7dh03.c ****     default:
 119:..\u8g2_csrc/u8x8_d_ls013b7dh03.c ****       return 0;
 622              		.loc 1 119 0
 623 0018 0020     		movs	r0, #0
 624              	.LVL3:
 625 001a BDE8F087 		pop	{r4, r5, r6, r7, r8, r9, r10, pc}
 626              	.LVL4:
 627              	.L3:
  77:..\u8g2_csrc/u8x8_d_ls013b7dh03.c ****       break;
 628              		.loc 1 77 0
 629 001e 3749     		ldr	r1, .L12
 630 0020 FFF7FEFF 		bl	u8x8_d_helper_display_setup_memory
 631              	.LVL5:
 120:..\u8g2_csrc/u8x8_d_ls013b7dh03.c ****   }
 121:..\u8g2_csrc/u8x8_d_ls013b7dh03.c ****   return 1;
 632              		.loc 1 121 0
 633 0024 0120     		movs	r0, #1
  78:..\u8g2_csrc/u8x8_d_ls013b7dh03.c ****     case U8X8_MSG_DISPLAY_INIT:
 634              		.loc 1 78 0
ARM GAS  C:\Users\info\AppData\Local\Temp\cc0OVjuF.s 			page 46


 635 0026 BDE8F087 		pop	{r4, r5, r6, r7, r8, r9, r10, pc}
 636              	.LVL6:
 637              	.L5:
  80:..\u8g2_csrc/u8x8_d_ls013b7dh03.c **** 
 638              		.loc 1 80 0
 639 002a FFF7FEFF 		bl	u8x8_d_helper_display_init
 640              	.LVL7:
  83:..\u8g2_csrc/u8x8_d_ls013b7dh03.c ****       u8x8_cad_SendCmd(u8x8, SWAP8(LS013B7DH03_CMD_ALL_CLEAR) );
 641              		.loc 1 83 0
 642 002e 2846     		mov	r0, r5
 643 0030 FFF7FEFF 		bl	u8x8_cad_StartTransfer
 644              	.LVL8:
  84:..\u8g2_csrc/u8x8_d_ls013b7dh03.c ****       u8x8_cad_SendCmd(u8x8, LS013B7DH03_VAL_TRAILER);
 645              		.loc 1 84 0
 646 0034 2021     		movs	r1, #32
 647 0036 2846     		mov	r0, r5
 648 0038 FFF7FEFF 		bl	u8x8_cad_SendCmd
 649              	.LVL9:
  85:..\u8g2_csrc/u8x8_d_ls013b7dh03.c ****       u8x8_cad_EndTransfer(u8x8);
 650              		.loc 1 85 0
 651 003c 0021     		movs	r1, #0
 652 003e 2846     		mov	r0, r5
 653 0040 FFF7FEFF 		bl	u8x8_cad_SendCmd
 654              	.LVL10:
  86:..\u8g2_csrc/u8x8_d_ls013b7dh03.c **** 
 655              		.loc 1 86 0
 656 0044 2846     		mov	r0, r5
 657 0046 FFF7FEFF 		bl	u8x8_cad_EndTransfer
 658              	.LVL11:
 659              		.loc 1 121 0
 660 004a 0120     		movs	r0, #1
  88:..\u8g2_csrc/u8x8_d_ls013b7dh03.c ****     case U8X8_MSG_DISPLAY_SET_POWER_SAVE:
 661              		.loc 1 88 0
 662 004c BDE8F087 		pop	{r4, r5, r6, r7, r8, r9, r10, pc}
 663              	.LVL12:
 664              	.L7:
  94:..\u8g2_csrc/u8x8_d_ls013b7dh03.c **** 
 665              		.loc 1 94 0
 666 0050 93F80680 		ldrb	r8, [r3, #6]	@ zero_extendqisi2
 667 0054 4FEAC808 		lsl	r8, r8, #3
 668 0058 08F10108 		add	r8, r8, #1
 669 005c 5FFA88F8 		uxtb	r8, r8
 670              	.LVL13:
  96:..\u8g2_csrc/u8x8_d_ls013b7dh03.c ****       ptr = ((u8x8_tile_t *)arg_ptr)->tile_ptr;
 671              		.loc 1 96 0
 672 0060 1F79     		ldrb	r7, [r3, #4]	@ zero_extendqisi2
 673              	.LVL14:
  97:..\u8g2_csrc/u8x8_d_ls013b7dh03.c **** 
 674              		.loc 1 97 0
 675 0062 1E68     		ldr	r6, [r3]
 676              	.LVL15:
 100:..\u8g2_csrc/u8x8_d_ls013b7dh03.c ****       u8x8_cad_SendCmd(u8x8, SWAP8(LS013B7DH03_CMD_UPDATE) );
 677              		.loc 1 100 0
 678 0064 FFF7FEFF 		bl	u8x8_cad_StartTransfer
 679              	.LVL16:
 101:..\u8g2_csrc/u8x8_d_ls013b7dh03.c **** 
 680              		.loc 1 101 0
ARM GAS  C:\Users\info\AppData\Local\Temp\cc0OVjuF.s 			page 47


 681 0068 8021     		movs	r1, #128
 682 006a 2846     		mov	r0, r5
 683 006c FFF7FEFF 		bl	u8x8_cad_SendCmd
 684              	.LVL17:
 104:..\u8g2_csrc/u8x8_d_ls013b7dh03.c ****       {
 685              		.loc 1 104 0
 686 0070 0024     		movs	r4, #0
 687 0072 34E0     		b	.L8
 688              	.LVL18:
 689              	.L9:
 106:..\u8g2_csrc/u8x8_d_ls013b7dh03.c ****         u8x8_cad_SendData(u8x8, c, ptr);
 690              		.loc 1 106 0 discriminator 3
 691 0074 08EB0403 		add	r3, r8, r4
 692 0078 5911     		asrs	r1, r3, #5
 693 007a 4FEAE309 		asr	r9, r3, #3
 694 007e 4FEA630C 		asr	ip, r3, #1
 695 0082 4FEA430E 		lsl	lr, r3, #1
 696 0086 D800     		lsls	r0, r3, #3
 697 0088 5A01     		lsls	r2, r3, #5
 698 008a C3F3C01A 		ubfx	r10, r3, #7, #1
 699 008e 01F00201 		and	r1, r1, #2
 700 0092 4AEA0101 		orr	r1, r10, r1
 701 0096 09F00409 		and	r9, r9, #4
 702 009a 41EA0901 		orr	r1, r1, r9
 703 009e 0CF0080C 		and	ip, ip, #8
 704 00a2 41EA0C01 		orr	r1, r1, ip
 705 00a6 0EF0100E 		and	lr, lr, #16
 706 00aa 41EA0E01 		orr	r1, r1, lr
 707 00ae 00F02000 		and	r0, r0, #32
 708 00b2 0143     		orrs	r1, r1, r0
 709 00b4 02F04002 		and	r2, r2, #64
 710 00b8 1143     		orrs	r1, r1, r2
 711 00ba 41EAC311 		orr	r1, r1, r3, lsl #7
 712 00be C9B2     		uxtb	r1, r1
 713 00c0 2846     		mov	r0, r5
 714 00c2 FFF7FEFF 		bl	u8x8_cad_SendCmd
 715              	.LVL19:
 107:..\u8g2_csrc/u8x8_d_ls013b7dh03.c ****         u8x8_cad_SendCmd(u8x8, LS013B7DH03_VAL_TRAILER);
 716              		.loc 1 107 0 discriminator 3
 717 00c6 3246     		mov	r2, r6
 718 00c8 3946     		mov	r1, r7
 719 00ca 2846     		mov	r0, r5
 720 00cc FFF7FEFF 		bl	u8x8_cad_SendData
 721              	.LVL20:
 108:..\u8g2_csrc/u8x8_d_ls013b7dh03.c **** 
 722              		.loc 1 108 0 discriminator 3
 723 00d0 0021     		movs	r1, #0
 724 00d2 2846     		mov	r0, r5
 725 00d4 FFF7FEFF 		bl	u8x8_cad_SendCmd
 726              	.LVL21:
 110:..\u8g2_csrc/u8x8_d_ls013b7dh03.c ****       }
 727              		.loc 1 110 0 discriminator 3
 728 00d8 3E44     		add	r6, r6, r7
 729              	.LVL22:
 104:..\u8g2_csrc/u8x8_d_ls013b7dh03.c ****       {
 730              		.loc 1 104 0 discriminator 3
 731 00da 0134     		adds	r4, r4, #1
ARM GAS  C:\Users\info\AppData\Local\Temp\cc0OVjuF.s 			page 48


 732              	.LVL23:
 733 00dc E4B2     		uxtb	r4, r4
 734              	.LVL24:
 735              	.L8:
 104:..\u8g2_csrc/u8x8_d_ls013b7dh03.c ****       {
 736              		.loc 1 104 0 is_stmt 0 discriminator 1
 737 00de 072C     		cmp	r4, #7
 738 00e0 C8D9     		bls	.L9
 114:..\u8g2_csrc/u8x8_d_ls013b7dh03.c ****       u8x8_cad_EndTransfer(u8x8);
 739              		.loc 1 114 0 is_stmt 1
 740 00e2 0021     		movs	r1, #0
 741 00e4 2846     		mov	r0, r5
 742 00e6 FFF7FEFF 		bl	u8x8_cad_SendCmd
 743              	.LVL25:
 115:..\u8g2_csrc/u8x8_d_ls013b7dh03.c **** 
 744              		.loc 1 115 0
 745 00ea 2846     		mov	r0, r5
 746 00ec FFF7FEFF 		bl	u8x8_cad_EndTransfer
 747              	.LVL26:
 748              		.loc 1 121 0
 749 00f0 0120     		movs	r0, #1
 117:..\u8g2_csrc/u8x8_d_ls013b7dh03.c ****     default:
 750              		.loc 1 117 0
 751 00f2 BDE8F087 		pop	{r4, r5, r6, r7, r8, r9, r10, pc}
 752              	.LVL27:
 753              	.L10:
 754              		.loc 1 121 0
 755 00f6 0120     		movs	r0, #1
 756              	.LVL28:
 122:..\u8g2_csrc/u8x8_d_ls013b7dh03.c **** }
 757              		.loc 1 122 0
 758 00f8 BDE8F087 		pop	{r4, r5, r6, r7, r8, r9, r10, pc}
 759              	.LVL29:
 760              	.L13:
 761              		.align	2
 762              	.L12:
 763 00fc 00000000 		.word	.LANCHOR0
 764              		.cfi_endproc
 765              	.LFE0:
 766              		.size	u8x8_d_ls013b7dh03_128x128, .-u8x8_d_ls013b7dh03_128x128
 767              		.section	.text.u8x8_d_ls027b7dh01_400x240,"ax",%progbits
 768              		.align	2
 769              		.global	u8x8_d_ls027b7dh01_400x240
 770              		.thumb
 771              		.thumb_func
 772              		.type	u8x8_d_ls027b7dh01_400x240, %function
 773              	u8x8_d_ls027b7dh01_400x240:
 774              	.LFB1:
 123:..\u8g2_csrc/u8x8_d_ls013b7dh03.c **** 
 124:..\u8g2_csrc/u8x8_d_ls013b7dh03.c **** 
 125:..\u8g2_csrc/u8x8_d_ls013b7dh03.c **** static const u8x8_display_info_t u8x8_ls027b7dh01_400x240_display_info =
 126:..\u8g2_csrc/u8x8_d_ls013b7dh03.c **** {
 127:..\u8g2_csrc/u8x8_d_ls013b7dh03.c ****   /* chip_enable_level = */ 1,
 128:..\u8g2_csrc/u8x8_d_ls013b7dh03.c ****   /* chip_disable_level = */ 0,
 129:..\u8g2_csrc/u8x8_d_ls013b7dh03.c ****   /* post_chip_enable_wait_ns = */ 50,
 130:..\u8g2_csrc/u8x8_d_ls013b7dh03.c ****   /* pre_chip_disable_wait_ns = */ 50,
 131:..\u8g2_csrc/u8x8_d_ls013b7dh03.c ****   /* reset_pulse_width_ms = */ 1,
ARM GAS  C:\Users\info\AppData\Local\Temp\cc0OVjuF.s 			page 49


 132:..\u8g2_csrc/u8x8_d_ls013b7dh03.c ****   /* post_reset_wait_ms = */ 6,
 133:..\u8g2_csrc/u8x8_d_ls013b7dh03.c ****   /* sda_setup_time_ns = */ 227,	/* 227 nsec according to the datasheet */		
 134:..\u8g2_csrc/u8x8_d_ls013b7dh03.c ****   /* sck_pulse_width_ns = */  255,	/* 450 nsec according to the datasheet */
 135:..\u8g2_csrc/u8x8_d_ls013b7dh03.c ****   /* sck_clock_hz = */ 1000000UL,	/* since Arduino 1.6.0, the SPI bus speed in Hz. Should be  10000
 136:..\u8g2_csrc/u8x8_d_ls013b7dh03.c ****   /* spi_mode = */ 2,		/* active low, rising edge */
 137:..\u8g2_csrc/u8x8_d_ls013b7dh03.c ****   /* i2c_bus_clock_100kHz = */ 4,
 138:..\u8g2_csrc/u8x8_d_ls013b7dh03.c ****   /* data_setup_time_ns = */ 100,
 139:..\u8g2_csrc/u8x8_d_ls013b7dh03.c ****   /* write_pulse_width_ns = */ 100,
 140:..\u8g2_csrc/u8x8_d_ls013b7dh03.c ****   /* tile_width = */ 50,
 141:..\u8g2_csrc/u8x8_d_ls013b7dh03.c ****   /* tile_hight = */ 30,
 142:..\u8g2_csrc/u8x8_d_ls013b7dh03.c ****   /* default_x_offset = */ 0,
 143:..\u8g2_csrc/u8x8_d_ls013b7dh03.c ****   /* flipmode_x_offset = */ 0,
 144:..\u8g2_csrc/u8x8_d_ls013b7dh03.c ****   /* pixel_width = */ 400,
 145:..\u8g2_csrc/u8x8_d_ls013b7dh03.c ****   /* pixel_height = */ 240
 146:..\u8g2_csrc/u8x8_d_ls013b7dh03.c **** };
 147:..\u8g2_csrc/u8x8_d_ls013b7dh03.c **** 
 148:..\u8g2_csrc/u8x8_d_ls013b7dh03.c **** uint8_t u8x8_d_ls027b7dh01_400x240(u8x8_t *u8x8, uint8_t msg, U8X8_UNUSED uint8_t arg_int, void *ar
 149:..\u8g2_csrc/u8x8_d_ls013b7dh03.c **** {
 775              		.loc 1 149 0
 776              		.cfi_startproc
 777              		@ args = 0, pretend = 0, frame = 0
 778              		@ frame_needed = 0, uses_anonymous_args = 0
 779              	.LVL30:
 780 0000 08B5     		push	{r3, lr}
 781              		.cfi_def_cfa_offset 8
 782              		.cfi_offset 3, -8
 783              		.cfi_offset 14, -4
 150:..\u8g2_csrc/u8x8_d_ls013b7dh03.c ****   switch(msg)
 784              		.loc 1 150 0
 785 0002 0929     		cmp	r1, #9
 786 0004 04D1     		bne	.L18
 151:..\u8g2_csrc/u8x8_d_ls013b7dh03.c ****   {
 152:..\u8g2_csrc/u8x8_d_ls013b7dh03.c ****     case U8X8_MSG_DISPLAY_SETUP_MEMORY:
 153:..\u8g2_csrc/u8x8_d_ls013b7dh03.c ****       u8x8_d_helper_display_setup_memory(u8x8, &u8x8_ls027b7dh01_400x240_display_info);
 787              		.loc 1 153 0
 788 0006 0449     		ldr	r1, .L20
 789              	.LVL31:
 790 0008 FFF7FEFF 		bl	u8x8_d_helper_display_setup_memory
 791              	.LVL32:
 154:..\u8g2_csrc/u8x8_d_ls013b7dh03.c ****       break;
 155:..\u8g2_csrc/u8x8_d_ls013b7dh03.c ****     default:
 156:..\u8g2_csrc/u8x8_d_ls013b7dh03.c ****       return u8x8_d_ls013b7dh03_128x128(u8x8, msg, arg_int, arg_ptr);
 157:..\u8g2_csrc/u8x8_d_ls013b7dh03.c ****   }    
 158:..\u8g2_csrc/u8x8_d_ls013b7dh03.c ****   return 1;
 792              		.loc 1 158 0
 793 000c 0120     		movs	r0, #1
 794 000e 08BD     		pop	{r3, pc}
 795              	.LVL33:
 796              	.L18:
 156:..\u8g2_csrc/u8x8_d_ls013b7dh03.c ****   }    
 797              		.loc 1 156 0
 798 0010 FFF7FEFF 		bl	u8x8_d_ls013b7dh03_128x128
 799              	.LVL34:
 159:..\u8g2_csrc/u8x8_d_ls013b7dh03.c **** }
 800              		.loc 1 159 0
 801 0014 08BD     		pop	{r3, pc}
 802              	.L21:
ARM GAS  C:\Users\info\AppData\Local\Temp\cc0OVjuF.s 			page 50


 803 0016 00BF     		.align	2
 804              	.L20:
 805 0018 18000000 		.word	.LANCHOR0+24
 806              		.cfi_endproc
 807              	.LFE1:
 808              		.size	u8x8_d_ls027b7dh01_400x240, .-u8x8_d_ls027b7dh01_400x240
 809              		.section	.text.u8x8_d_ls013b7dh05_144x168,"ax",%progbits
 810              		.align	2
 811              		.global	u8x8_d_ls013b7dh05_144x168
 812              		.thumb
 813              		.thumb_func
 814              		.type	u8x8_d_ls013b7dh05_144x168, %function
 815              	u8x8_d_ls013b7dh05_144x168:
 816              	.LFB2:
 160:..\u8g2_csrc/u8x8_d_ls013b7dh03.c **** 
 161:..\u8g2_csrc/u8x8_d_ls013b7dh03.c **** static const u8x8_display_info_t u8x8_ls013b7dh05_144x168_display_info =
 162:..\u8g2_csrc/u8x8_d_ls013b7dh03.c **** {
 163:..\u8g2_csrc/u8x8_d_ls013b7dh03.c ****   /* chip_enable_level = */ 1,
 164:..\u8g2_csrc/u8x8_d_ls013b7dh03.c ****   /* chip_disable_level = */ 0,
 165:..\u8g2_csrc/u8x8_d_ls013b7dh03.c ****   /* post_chip_enable_wait_ns = */ 50,
 166:..\u8g2_csrc/u8x8_d_ls013b7dh03.c ****   /* pre_chip_disable_wait_ns = */ 50,
 167:..\u8g2_csrc/u8x8_d_ls013b7dh03.c ****   /* reset_pulse_width_ms = */ 1,
 168:..\u8g2_csrc/u8x8_d_ls013b7dh03.c ****   /* post_reset_wait_ms = */ 6,
 169:..\u8g2_csrc/u8x8_d_ls013b7dh03.c ****   /* sda_setup_time_ns = */ 227,	/* 227 nsec according to the datasheet */		
 170:..\u8g2_csrc/u8x8_d_ls013b7dh03.c ****   /* sck_pulse_width_ns = */  255,	/* 450 nsec according to the datasheet */
 171:..\u8g2_csrc/u8x8_d_ls013b7dh03.c ****   /* sck_clock_hz = */ 1000000UL,	/* since Arduino 1.6.0, the SPI bus speed in Hz. Should be  10000
 172:..\u8g2_csrc/u8x8_d_ls013b7dh03.c ****   /* spi_mode = */ 2,		/* active low, rising edge */
 173:..\u8g2_csrc/u8x8_d_ls013b7dh03.c ****   /* i2c_bus_clock_100kHz = */ 4,
 174:..\u8g2_csrc/u8x8_d_ls013b7dh03.c ****   /* data_setup_time_ns = */ 100,
 175:..\u8g2_csrc/u8x8_d_ls013b7dh03.c ****   /* write_pulse_width_ns = */ 100,
 176:..\u8g2_csrc/u8x8_d_ls013b7dh03.c ****   /* tile_width = */ 18,
 177:..\u8g2_csrc/u8x8_d_ls013b7dh03.c ****   /* tile_hight = */ 21,
 178:..\u8g2_csrc/u8x8_d_ls013b7dh03.c ****   /* default_x_offset = */ 0,
 179:..\u8g2_csrc/u8x8_d_ls013b7dh03.c ****   /* flipmode_x_offset = */ 0,
 180:..\u8g2_csrc/u8x8_d_ls013b7dh03.c ****   /* pixel_width = */ 144,
 181:..\u8g2_csrc/u8x8_d_ls013b7dh03.c ****   /* pixel_height = */ 168
 182:..\u8g2_csrc/u8x8_d_ls013b7dh03.c **** };
 183:..\u8g2_csrc/u8x8_d_ls013b7dh03.c **** 
 184:..\u8g2_csrc/u8x8_d_ls013b7dh03.c **** uint8_t u8x8_d_ls013b7dh05_144x168(u8x8_t *u8x8, uint8_t msg, U8X8_UNUSED uint8_t arg_int, void *ar
 185:..\u8g2_csrc/u8x8_d_ls013b7dh03.c **** {
 817              		.loc 1 185 0
 818              		.cfi_startproc
 819              		@ args = 0, pretend = 0, frame = 0
 820              		@ frame_needed = 0, uses_anonymous_args = 0
 821              	.LVL35:
 822 0000 08B5     		push	{r3, lr}
 823              		.cfi_def_cfa_offset 8
 824              		.cfi_offset 3, -8
 825              		.cfi_offset 14, -4
 186:..\u8g2_csrc/u8x8_d_ls013b7dh03.c ****   switch(msg)
 826              		.loc 1 186 0
 827 0002 0929     		cmp	r1, #9
 828 0004 04D1     		bne	.L26
 187:..\u8g2_csrc/u8x8_d_ls013b7dh03.c ****   {
 188:..\u8g2_csrc/u8x8_d_ls013b7dh03.c ****     case U8X8_MSG_DISPLAY_SETUP_MEMORY:
 189:..\u8g2_csrc/u8x8_d_ls013b7dh03.c ****       u8x8_d_helper_display_setup_memory(u8x8, &u8x8_ls013b7dh05_144x168_display_info);
 829              		.loc 1 189 0
ARM GAS  C:\Users\info\AppData\Local\Temp\cc0OVjuF.s 			page 51


 830 0006 0449     		ldr	r1, .L28
 831              	.LVL36:
 832 0008 FFF7FEFF 		bl	u8x8_d_helper_display_setup_memory
 833              	.LVL37:
 190:..\u8g2_csrc/u8x8_d_ls013b7dh03.c ****       break;
 191:..\u8g2_csrc/u8x8_d_ls013b7dh03.c ****     default:
 192:..\u8g2_csrc/u8x8_d_ls013b7dh03.c ****       return u8x8_d_ls013b7dh03_128x128(u8x8, msg, arg_int, arg_ptr);
 193:..\u8g2_csrc/u8x8_d_ls013b7dh03.c ****   }    
 194:..\u8g2_csrc/u8x8_d_ls013b7dh03.c ****   return 1;
 834              		.loc 1 194 0
 835 000c 0120     		movs	r0, #1
 836 000e 08BD     		pop	{r3, pc}
 837              	.LVL38:
 838              	.L26:
 192:..\u8g2_csrc/u8x8_d_ls013b7dh03.c ****   }    
 839              		.loc 1 192 0
 840 0010 FFF7FEFF 		bl	u8x8_d_ls013b7dh03_128x128
 841              	.LVL39:
 195:..\u8g2_csrc/u8x8_d_ls013b7dh03.c **** }
 842              		.loc 1 195 0
 843 0014 08BD     		pop	{r3, pc}
 844              	.L29:
 845 0016 00BF     		.align	2
 846              	.L28:
 847 0018 30000000 		.word	.LANCHOR0+48
 848              		.cfi_endproc
 849              	.LFE2:
 850              		.size	u8x8_d_ls013b7dh05_144x168, .-u8x8_d_ls013b7dh05_144x168
 851              		.section	.rodata
 852              		.align	2
 853              		.set	.LANCHOR0,. + 0
 854              		.type	u8x8_ls013b7dh03_128x128_display_info, %object
 855              		.size	u8x8_ls013b7dh03_128x128_display_info, 24
 856              	u8x8_ls013b7dh03_128x128_display_info:
 857 0000 01       		.byte	1
 858 0001 00       		.byte	0
 859 0002 32       		.byte	50
 860 0003 32       		.byte	50
 861 0004 01       		.byte	1
 862 0005 06       		.byte	6
 863 0006 E3       		.byte	-29
 864 0007 FF       		.byte	-1
 865 0008 40420F00 		.word	1000000
 866 000c 02       		.byte	2
 867 000d 04       		.byte	4
 868 000e 64       		.byte	100
 869 000f 64       		.byte	100
 870 0010 10       		.byte	16
 871 0011 10       		.byte	16
 872 0012 00       		.byte	0
 873 0013 00       		.byte	0
 874 0014 8000     		.short	128
 875 0016 8000     		.short	128
 876              		.type	u8x8_ls027b7dh01_400x240_display_info, %object
 877              		.size	u8x8_ls027b7dh01_400x240_display_info, 24
 878              	u8x8_ls027b7dh01_400x240_display_info:
 879 0018 01       		.byte	1
ARM GAS  C:\Users\info\AppData\Local\Temp\cc0OVjuF.s 			page 52


 880 0019 00       		.byte	0
 881 001a 32       		.byte	50
 882 001b 32       		.byte	50
 883 001c 01       		.byte	1
 884 001d 06       		.byte	6
 885 001e E3       		.byte	-29
 886 001f FF       		.byte	-1
 887 0020 40420F00 		.word	1000000
 888 0024 02       		.byte	2
 889 0025 04       		.byte	4
 890 0026 64       		.byte	100
 891 0027 64       		.byte	100
 892 0028 32       		.byte	50
 893 0029 1E       		.byte	30
 894 002a 00       		.byte	0
 895 002b 00       		.byte	0
 896 002c 9001     		.short	400
 897 002e F000     		.short	240
 898              		.type	u8x8_ls013b7dh05_144x168_display_info, %object
 899              		.size	u8x8_ls013b7dh05_144x168_display_info, 24
 900              	u8x8_ls013b7dh05_144x168_display_info:
 901 0030 01       		.byte	1
 902 0031 00       		.byte	0
 903 0032 32       		.byte	50
 904 0033 32       		.byte	50
 905 0034 01       		.byte	1
 906 0035 06       		.byte	6
 907 0036 E3       		.byte	-29
 908 0037 FF       		.byte	-1
 909 0038 40420F00 		.word	1000000
 910 003c 02       		.byte	2
 911 003d 04       		.byte	4
 912 003e 64       		.byte	100
 913 003f 64       		.byte	100
 914 0040 12       		.byte	18
 915 0041 15       		.byte	21
 916 0042 00       		.byte	0
 917 0043 00       		.byte	0
 918 0044 9000     		.short	144
 919 0046 A800     		.short	168
 920              		.text
 921              	.Letext0:
 922              		.file 2 "c:\\program files (x86)\\cypress\\psoc creator\\4.2\\psoc creator\\import\\gnu\\arm\\5.4.
 923              		.file 3 "c:\\program files (x86)\\cypress\\psoc creator\\4.2\\psoc creator\\import\\gnu\\arm\\5.4.
 924              		.file 4 "..\\u8g2_csrc\\u8x8.h"