ARM GAS  C:\Users\info\AppData\Local\Temp\ccjWH08o.s 			page 1


   1              		.syntax unified
   2              		.cpu cortex-m3
   3              		.fpu softvfp
   4              		.eabi_attribute 20, 1
   5              		.eabi_attribute 21, 1
   6              		.eabi_attribute 23, 3
   7              		.eabi_attribute 24, 1
   8              		.eabi_attribute 25, 1
   9              		.eabi_attribute 26, 1
  10              		.eabi_attribute 30, 1
  11              		.eabi_attribute 34, 1
  12              		.eabi_attribute 18, 4
  13              		.thumb
  14              		.syntax unified
  15              		.file	"u8x8_d_stdio.c"
  16              		.text
  17              	.Ltext0:
  18              		.section	.gnu.lto_.profile.792a2c93,"",%progbits
  19 0000 789C6361 		.ascii	"x\234ca`d`a`\000\2229f\000\001x\000\255"
  19      60646061 
  19      60009239 
  19      66000178 
  19      00AD
  20              		.text
  21              		.section	.gnu.lto_.inline.792a2c93,"",%progbits
  22 0000 789C6361 		.ascii	"x\234ca`d\000\201\032\006\004`a`\340\275\002\024g\022"
  22      60640081 
  22      1A060460 
  22      6160E0BD 
  22      02146712 
  23 0014 59D0C8C5 		.ascii	"Y\320\310\305\300\266@\236\011$\312\304 \261D\006(("
  23      C0B6409E 
  23      0924CAC4 
  23      20B14406 
  23      2828
  24 0026 3761FD0C 		.ascii	"7a\375\014F\204(7#H%7\023\234df\020\006\2121\011\357"
  24      46842837 
  24      23482537 
  24      139C6466 
  24      10068A31 
  25 003c 3664E06C 		.ascii	"6d\340lV\007+b\341e``\236\340\007\202\214\\`\013\330"
  25      56072B62 
  25      E1656060 
  25      9EE00782 
  25      8C5C600B 
  26 0051 F8804A18 		.ascii	"\370\200J\030_\2603\260w\250C\315a``\234\340\307\000"
  26      5FB033B0 
  26      77A843CD 
  26      6160609C 
  26      E0C700
  27 0064 00D3990E 		.ascii	"\000\323\231\016y"
  27      79
  28              		.text
  29              		.section	.gnu.lto_.jmpfuncs.792a2c93,"",%progbits
  30 0000 789C6361 		.ascii	"x\234ca`d\000\001\021\006\004`\001b&0\213\031\306e\000"
  30      60640001 
  30      11060460 
ARM GAS  C:\Users\info\AppData\Local\Temp\ccjWH08o.s 			page 2


  30      01622630 
  30      8B19C665 
  31 0015 00041000 		.ascii	"\000\004\020\000'"
  31      27
  32              		.text
  33              		.section	.gnu.lto_.pureconst.792a2c93,"",%progbits
  34 0000 789C6361 		.ascii	"x\234ca`d\340b```a\220d\232\301\310,\311\"\005\000\006"
  34      6064E062 
  34      60606061 
  34      90649AC1 
  34      C82CC922 
  35 0017 020102   		.ascii	"\002\001\002"
  36              		.text
  37              		.section	.gnu.lto_bitmap_place_tile.792a2c93,"",%progbits
  38 0000 789C6553 		.ascii	"x\234eS\337KTA\024\2363\347\336\273\327uw]\354u!#\304"
  38      DF4B5441 
  38      149E33E7 
  38      DEBBD775 
  38      775DEC75 
  39 0017 7C917E3C 		.ascii	"|\221~<\344\177\021\364\\\370\240\022B\021\244\201="
  39      E47F11F4 
  39      5CF8A012 
  39      4211A481 
  39      3D
  40 0028 EDB8D76D 		.ascii	"\355\270\327m\265\247\002\3230C\250D\315J\255\314\326"
  40      B5A702D3 
  40      3043A844 
  40      CD4AADCC 
  40      D6
  41 0039 1FB55919 		.ascii	"\037\265Y\031\251)>XPP\271\201\204\371\240\242\031\341"
  41      A9293E58 
  41      5050B981 
  41      84F9A0A2 
  41      19E1
  42 004b 8FCE99B9 		.ascii	"\217\316\231\271\301B\027\366\354\314w\277\357\233s"
  42      C14217F6 
  42      ECCC77BF 
  42      EF9B73
  43 005a E69C6B09 		.ascii	"\346\234k\011\020\374,\243\020\245\364\177\202~\340"
  43      10FC2CA3 
  43      10A5F47F 
  43      827EE0
  44 0069 08905767 		.ascii	"\010\220Wg\205hp%Xf\201f\361\322\265$\246\337\010\241"
  44      85687025 
  44      58668166 
  44      F1D2B524 
  44      A6DF08A1 
  45 007d 82F64757 		.ascii	"\202\366GW\250\220\015\300\270rA\304%Z6\304\245% c\201"
  45      A8900DC0 
  45      B87241C4 
  45      255A36C4 
  45      A5252063 
  46 0092 AB035B6F 		.ascii	"\253\003[o\312\035\011\023\251\245\264,\355V\364|\353"
  46      CA1D0913 
  46      A9A5B42C 
  46      ED56F47C 
  46      EB
ARM GAS  C:\Users\info\AppData\Local\Temp\ccjWH08o.s 			page 3


  47 00a3 6A43D593 		.ascii	"jC\325\223\201$\035\271'\365\351\002\272\241\224X\355"
  47      81241DB9 
  47      27F5E902 
  47      BAA19458 
  47      ED
  48 00b4 23A94410 		.ascii	"#\251D\020\367\203\240uK\337\357\233nI\227R\011\245"
  48      F783A075 
  48      4BDFEF9B 
  48      6E499752 
  48      09A5
  49 00c6 AE9D5698 		.ascii	"\256\235V\230D\200\036@R\300\261\030\034\216\011\002"
  49      44801E40 
  49      52C0B118 
  49      1C8E0902 
  50 00d6 04F44209 		.ascii	"\004\364B\011q\307\256Lo\273x@\353\232?M\256:\276n\330"
  50      71C7AE4C 
  50      6FBB7840 
  50      EB9A3F4D 
  50      AE3ABE6E 
  51 00eb D7DDFB4F 		.ascii	"\327\335\373O\327\247u\363\215\003\035\270!\223Hu\322"
  51      D7A775F3 
  51      8D031DB8 
  51      21934875 
  51      D2
  52 00fc 76ED7DFB 		.ascii	"v\355}\373\367\010o\021\212h\233\332\374r\333\301\203"
  52      F7086F11 
  52      8A689BDA 
  52      FC72DBC1 
  52      83
  53 010d DAF5C3D6 		.ascii	"\332\365\303\326\317\335\260\357\372\265Z\345%\321\202"
  53      CFDDB0EF 
  53      FAB55AE5 
  53      25D182
  54 011c 87C6F501 		.ascii	"\207\306\365\001\304\340>\260/U\336\017%L\357\232~\365"
  54      C4E03EB0 
  54      2F55DE0F 
  54      254CEF9A 
  54      7EF5
  55 012e 3C8287B4 		.ascii	"<\202\207\264\364n\266\263\005\213\357\2604\363\342"
  55      F46EB6B3 
  55      058BEFB0 
  55      34F3E2
  56 013d 5C9BCA34 		.ascii	"\\\233\3124\024qN\003\2719\361C\324\354\340\356\365"
  56      14714E03 
  56      B939F143 
  56      D4ECE0EE 
  56      F5
  57 014e B0D3C8B7 		.ascii	"\260\323\310\267T\004\203Pl\356\007\036\201C]\002F\372"
  57      54048350 
  57      6CEE071E 
  57      81435D02 
  57      46FA
  58 0160 4F66D4DE 		.ascii	"Of\324\336\236\2472\343v/\356\243B\010\263\200\257\301"
  58      9EA732E3 
  58      762FEEA3 
  58      4208B380 
  58      AFC1
ARM GAS  C:\Users\info\AppData\Local\Temp\ccjWH08o.s 			page 4


  59 0172 A6046C07 		.ascii	"\246\004l\007\270\262\000/]\016y\034\202\034\3629\204"
  59      B8B2002F 
  59      5D0E791C 
  59      821CF239 
  59      84
  60 0183 388429C8 		.ascii	"8\204)\310\010p\252\005\234t\224\202S\250\235\204X\245"
  60      0870AA05 
  60      9C749482 
  60      53A89D84 
  60      58A5
  61 0195 03A9B16B 		.ascii	"\003\251\261kR\322\037f!\221\231\257\326\347\323[J\260"
  61      52D21F66 
  61      219199AF 
  61      D6E7D35B 
  61      4AB0
  62 01a7 35393117 		.ascii	"591\027\340\033\002:\3721p\342k\022\005M\004.Ab=5\373"
  62      E01B023A 
  62      FA3170E2 
  62      6B12054D 
  62      042E4162 
  63 01be 0B99EDA1 		.ascii	"\013\231\355\241\355\321m0\0240\373\200\207\016\355"
  63      EDD16D30 
  63      1430FB80 
  63      870EED
  64 01cd BD76C7EC 		.ascii	"\275v\307\354]\202\270\341\243\033S6\373\33140O\310"
  64      5D82B8E1 
  64      A31B5336 
  64      FBD93430 
  64      4FC8
  65 01df 8F28AD3E 		.ascii	"\217(\255>%O\273\270\271\252 \241>\215\016[\221\006"
  65      254FBBB8 
  65      B9AA20A1 
  65      3E8D0E5B 
  65      9106
  66 01f1 CDF7A8A3 		.ascii	"\315\367\250\2439\302\220&\346\033\322\266\237P\330"
  66      39C29026 
  66      E61BD2B6 
  66      9F50D8
  67 0200 2775F8A4 		.ascii	"'u\370\244\002\017#\2042\351O\320@\321\334\002-\335"
  67      020F2384 
  67      32E94FD0 
  67      40D1DC02 
  67      2DDD
  68 0212 BBADB753 		.ascii	"\273\255\267SM\241N\270E\303\012\244\201!.\031\236B"
  68      4DA14EB8 
  68      45C30AA4 
  68      81212E19 
  68      9E42
  69 0224 277B255A 		.ascii	"'{%Z\027c\254\314\225\005\264,\235^\371\034\210\357"
  69      1763ACCC 
  69      9505B42C 
  69      9D5EF91C 
  69      88EF
  70 0236 A826A5A2 		.ascii	"\250&\245\242\2045\243i\357\362\314\302\353 \2715(\215"
  70      8435A369 
  70      EFF2CCC2 
  70      EB20B935 
ARM GAS  C:\Users\info\AppData\Local\Temp\ccjWH08o.s 			page 5


  70      288D
  71 0248 BBF00CE2 		.ascii	"\273\360\014\3420\314\226\374r||\021\217\364s\357\325"
  71      30CC96FC 
  71      727C7C11 
  71      8FF473EF 
  71      D5
  72 0259 71BEE034 		.ascii	"q\276\3404\235B\305\350\317c\004\216P~\272\310\313\223"
  72      9D42C5E8 
  72      CF63048E 
  72      507EBAC8 
  72      CB93
  73 026b 4BB6C9B7 		.ascii	"K\266\311\267\220J\"\341Pjf0hz\0020JnY\220\377ZF$\335"
  73      904A22E1 
  73      506A6630 
  73      687A0230 
  73      4A6E5990 
  74 0284 224BD057 		.ascii	"\"K\320W\312\355\214\012\003\203X\204\3069/b\234\330"
  74      CAED8C0A 
  74      03835884 
  74      C6392F62 
  74      9CD8
  75 0296 E6DD545B 		.ascii	"\346\335T[O\310\330\004`L\267V\254\223#uY\336@2\302"
  75      4FC8D804 
  75      604CB756 
  75      AC932375 
  75      59DE4032 
  76 02ab 1F3639D9 		.ascii	"\03769\331<\027\3134\027\013:\013=\271\253\022\010\245"
  76      3C17CB34 
  76      170B3A0B 
  76      3DB9AB12 
  76      08A5
  77 02bd C9899595 		.ascii	"\311\211\225\225\235\272X~\346hEe\355\205JZ\325\227"
  77      9DBA587E 
  77      E6684565 
  77      ED854A5A 
  77      D597
  78 02cf 575455D4 		.ascii	"WTU\324\326U\325\234/\253\024P\017\227\254\272\232\263"
  78      D655D59C 
  78      2FAB1450 
  78      0F97ACBA 
  78      9AB3
  79 02e1 D550F317 		.ascii	"\325P\363\027\004\210?\251"
  79      04883FA9 
  80              		.text
  81              		.section	.gnu.lto_bitmap_show.792a2c93,"",%progbits
  82 0000 789C7D53 		.ascii	"x\234}S[KUA\024\236of\237};\027\017\210>\035\310\002"
  82      5B4B5541 
  82      149E6F66 
  82      9F7D3B17 
  82      0F883E1D 
  83 0016 0B0B8C7A 		.ascii	"\013\013\214z\352\255\267~@\317\201\017\012a/A\026\324"
  83      EAADB77E 
  83      40CF810F 
  83      0A612F41 
  83      16D4
  84 0028 D3D97A2E 		.ascii	"\323\331z.ZAE\224\324I\351\241B\313\362\322M\217f\354"
  84      5A414594 
ARM GAS  C:\Users\info\AppData\Local\Temp\ccjWH08o.s 			page 6


  84      D449E9A1 
  84      42CBF2D2 
  84      4D8F66EC 
  85 003c 22A28B65 		.ascii	"\"\242\213eA=I\027\015$DB\305\352\241\314\326\2329\207"
  85      413D4917 
  85      0D244442 
  85      C5EAA1CC 
  85      D69A3987 
  86 0050 82C281BD 		.ascii	"\202\302\201\275\366\3147\337Z\353\233\265f,\001\301"
  86      F6CC37DF 
  86      5AEB9BB5 
  86      662C01C1 
  87 0060 E38425C4 		.ascii	"\343\204%\304\006\372\367\320\207\230\200<\365R\210"
  87      06FAF7D0 
  87      8798803C 
  87      F55288
  88 006f 5657C233 		.ascii	"VW\3023\023%\255\216M\"\360#lc\026l\003G\312\023\033"
  88      1325AD8E 
  88      4D22F023 
  88      6C63166C 
  88      0347CA13 
  89 0084 519E3C70 		.ascii	"Q\236<p\243R}\233\020\304t\013 \246k\002<p=\351<z\312"
  89      A3527D9B 
  89      10C4740B 
  89      20A66B02 
  89      3C703DE9 
  90 009b B83F6111 		.ascii	"\270?a\021\356\030>|\200\377\201\013\221\226\312\212"
  90      EE183E7C 
  90      80FF810B 
  90      9196CA8A 
  91 00ab D851D773 		.ascii	"\330Q\327s|\244\225'\020ZHj\303\002\243z\035\226,\217"
  91      7CA49527 
  91      105A486A 
  91      C302A37A 
  91      1D962C8F 
  92 00bf AF7245E2 		.ascii	"\257rE\342a\373lQ\326\365\0044>\346.\250\2407DN\011"
  92      61FB6C51 
  92      D6F50434 
  92      3EE62EA8 
  92      A037444E 
  93 00d4 B12A3545 		.ascii	"\261*5E\240\007u\202h\257\263\203]jY\346\024`\321r\361"
  93      A0077582 
  93      68AFB383 
  93      5D6A59E6 
  93      1460D172 
  94 00e9 45E15382 		.ascii	"E\341S\202\227\0225\264\274w\354\371OW\255\0033\037"
  94      971235B4 
  94      BC77ECF9 
  94      4F57AD03 
  94      331F
  95 00fb 4F8FBE72 		.ascii	"O\217\276rk/q\300\360]\363\371 \314\326\344\224\302"
  95      6B2F71C0 
  95      F05DF3F9 
  95      20CCD6E4 
  95      94C2
  96 010d 35288A89 		.ascii	"5(\212\211\253H\241\027)\035\233\310\205\321\3666_\255"
  96      AB48A117 
ARM GAS  C:\Users\info\AppData\Local\Temp\ccjWH08o.s 			page 7


  96      291D9BC8 
  96      85D1F636 
  96      5FAD
  97 011f D78EF9EC 		.ascii	"\327\216\371\354\225\221\270q\014\006\354'\201\305n"
  97      9591B871 
  97      0C06EC27 
  97      81C56E
  98 012e D7FFEB36 		.ascii	"\327\377\35363\364\353l\334\3162\263\0067P\213>\324"
  98      33F4EB6C 
  98      DCCE32B3 
  98      0637508B 
  98      3ED4
  99 0140 1AC9E887 		.ascii	"\032\311\350\207M\015\221et`w\030\254\256f\202p*R\214"
  99      4D0D9165 
  99      74607718 
  99      ACAE6682 
  99      702A528C 
 100 0154 5543304E 		.ascii	"UC0N\361h\307\326sOP\026\237M\224M\214\214\025\347Y"
 100      F168C7D6 
 100      734F5016 
 100      9F4D944D 
 100      8C8C15E7 
 101 0169 824D059B 		.ascii	"\202M\005\233$\233J\315\256\322\236B,P*_,J)|5\203\266"
 101      249B4ACD 
 101      AED29E42 
 101      2C502A5F 
 101      2C4A297C 
 102 0180 F043B3CE 		.ascii	"\360C\263\316K{\330\314\"\027\245\022\324D5\213\314"
 102      4B7BD8CC 
 102      2217A512 
 102      D444358B 
 102      CC
 103 0191 60FE7DBB 		.ascii	"`\376}\273\303\273\031\345e\024W\2740\266\374,\302\265"
 103      C3BB19E5 
 103      651457BC 
 103      30B6FC2C 
 103      C2B5
 104 01a3 53703140 		.ascii	"Sp1@\207\"V!?\257\014\311'\036\221\206\277\364\015\307"
 104      87225621 
 104      3FAF0CC9 
 104      271E9186 
 104      BFF40DC7 
 105 01b7 0D895A36 		.ascii	"\015\211Z6hX\235\371yiX\321\214\002q\011l\273?]e\260"
 105      68589DF9 
 105      796958D1 
 105      8C027109 
 105      6CBB3F5D 
 106 01cd 18B975E6 		.ascii	"\030\271u\346\036N:\354\026\321%-\026\347\247\234\364"
 106      1E4E3AEC 
 106      16D1252D 
 106      16E7A79C 
 106      F4
 107 01de 4AD01104 		.ascii	"J\320\021\004I\302\216*S\276\271\211\267\217\374\213"
 107      49C28E2A 
 107      53BEB989 
 107      B78FFC8B 
 108 01ee E86E0D34 		.ascii	"\350n\0154n\343&\322\030\342\362\362\346\370\370\264"
ARM GAS  C:\Users\info\AppData\Local\Temp\ccjWH08o.s 			page 8


 108      6EE326D2 
 108      18E2F2F2 
 108      E6F8F8B4 
 109 01fe DAB635A7 		.ascii	"\332\2665\247\034\334\302E\312\022\325\367\3406\266"
 109      1CDCC245 
 109      CA12D5F7 
 109      E036B6
 110 020d 71B6A5F6 		.ascii	"q\266\245\366\011\333\244\213SF\026\3653\377&b\220\204"
 110      09DBA48B 
 110      534616F5 
 110      33FF2662 
 110      9084
 111 021f 39DFF2B1 		.ascii	"9\337\362\261\334we\244;\270c\224/\345\313n\025\332"
 111      DC7765A4 
 111      3BB86394 
 111      2FE5CB6E 
 111      15DA
 112 0231 33A13D4B 		.ascii	"3\241=KP\222PlI\211id\2472\373J\230)$\227\322\022c\033"
 112      5092506C 
 112      49896964 
 112      A732FB4A 
 112      98292497 
 113 0249 D56764C3 		.ascii	"\325gd\303\037\036\357\375{.wUR\313q\027i\336\353y}"
 113      1F1EEFFD 
 113      7B2E7755 
 113      52CB7117 
 113      69DEEB79 
 114 025e E6788549 		.ascii	"\346x\205I\277\031\303H\345\350%p\230H9\314i{\3150#"
 114      BF19C348 
 114      E5E82570 
 114      984839CC 
 114      697BCD30 
 115 0273 26CCE0C7 		.ascii	"&\314\340\307w\255\266\011S\217\342\2370v\271\261\235"
 115      77ADB609 
 115      538FE29F 
 115      3076B9B1 
 115      9D
 116 0284 F997C3A5 		.ascii	"\371\227\303\245\306VR7\370\0003\320\355\341\233B\240"
 116      C6565237 
 116      F80033D0 
 116      EDE19B42 
 116      A0
 117 0295 A64705BD 		.ascii	"\246G\005\275N\320\035I\012\003\203\2179\231\2516\236"
 117      4ED01D49 
 117      0A03838F 
 117      3999A936 
 117      9E
 118 02a6 E0CB9C39 		.ascii	"\340\313\2349\035\304L\246\235\0305\227|\011Tx\333!"
 118      1DC44CA6 
 118      9D183597 
 118      7C095478 
 118      DB21
 119 02b8 53698F38 		.ascii	"Si\2178\024\307\025\005h\365\347\037\3135\345\217\031"
 119      14C71505 
 119      68F5E71F 
 119      CB35E58F 
 119      19
ARM GAS  C:\Users\info\AppData\Local\Temp\ccjWH08o.s 			page 9


 120 02c9 F92B0BAF 		.ascii	"\371+\013\257VJA}\3343\362\265\350_\235%\321U\324\255"
 120      564A417D 
 120      DC33F2B5 
 120      E85F9D25 
 120      D155D4AD 
 121 02dd BF45F7B1 		.ascii	"\277E\367\261\272*-\332\023\227\241\214f\215J\2439a"
 121      BA2A2DDA 
 121      1397A18C 
 121      668D4AA3 
 121      3961
 122 02ef 1CB9C7FD 		.ascii	"\034\271\307\375K\313\375\245\352T`\274\254YR\323d\257"
 122      4BCBFDA5 
 122      EA5460BC 
 122      AC5952D3 
 122      64AF
 123 0301 A230EE39 		.ascii	"\2420\3569\026\355\260h\302m\302\275\256\223\014\371"
 123      16EDB068 
 123      C26DC2BD 
 123      AE930CF9 
 124 0311 F462E6E8 		.ascii	"\364b\346\350\305t\357\322\247\340\261@\272}zP\251\372"
 124      C574EFD2 
 124      A7E0B140 
 124      BA7D7A50 
 124      A9FA
 125 0323 FA3D8776 		.ascii	"\372=\207v\354\335\336\320\330r\240\221f\207w445\264"
 125      ECDDDED0 
 125      D872A091 
 125      66877734 
 125      3435B4
 126 0336 1C6C6ADE 		.ascii	"\034lj\336_\337(p\004\207\177\003\014\036|\375"
 126      5FDF2870 
 126      04877F03 
 126      0C1E7CFD 
 127              		.text
 128              		.section	.gnu.lto_u8x8_d_stdio.792a2c93,"",%progbits
 129 0000 789C8592 		.ascii	"x\234\205\222MHTQ\024\307\357y\367\315}\343\350\244"
 129      4D485451 
 129      14C7EF79 
 129      F7CD7DE3 
 129      E8A4
 130 0012 AB0819C8 		.ascii	"\253\010\031\310U\"\201J-\264M\353\326\265-$T\304EV"
 130      5522814A 
 130      2DB44DEB 
 130      D6B52D24 
 130      54C44556 
 131 0026 7E40D0C2 		.ascii	"~@\320\302;3>s\221\250\221\322\207\245`f\231\3379\351"
 131      3B333E73 
 131      91A891D2 
 131      87A56066 
 131      99DF39E9 
 132 003a 98DAA831 		.ascii	"\230\332\2501\212\251!\0322\026d\371\221\204\220\003"
 132      8AA9211A 
 132      321664F9 
 132      91849003 
 133 004a 8546E874 		.ascii	"\205F\350t\316}\316B\013|\360\356\307{\367\367?\347"
 133      CE7DCE42 
 133      0B7CF0EE 
ARM GAS  C:\Users\info\AppData\Local\Temp\ccjWH08o.s 			page 10


 133      C77BF7F7 
 133      3FE7
 134 005c FECFD119 		.ascii	"\376\317\321\0310z\316\350\214\235\305\371\002\276`"
 134      307ACEE8 
 134      8C9DC5F9 
 134      02BE60
 135 006b 30D0AA67 		.ascii	"0\320\252g\030s\3335n3\023\231\264\0135rk\324\364\371"
 135      1873DB35 
 135      6E331399 
 135      B40B3572 
 135      6BD4F4F9 
 136 007f A34C3AC4 		.ascii	"\243L:\304`\006\223q:\010\353\250-\272\020\000\264\220"
 136      60069371 
 136      3A08EBA8 
 136      2DBA1000 
 136      B490
 137 0091 7660A51A 		.ascii	"v`\245\032\327m\002J\341\227\266\243\301\273\255\211"
 137      D76D024A 
 137      E197B6A3 
 137      C1BBAD89 
 138 00a1 DB8E9416 		.ascii	"\333\216\224\026)=r\251y\355\\\330c\03639c\021\215\301"
 138      293D72A9 
 138      79ED5CD8 
 138      631E3339 
 138      63118DC1 
 139 00b5 6917A4BB 		.ascii	"i\027\244\273(t\013\244\340\311\211\241\351\233\374"
 139      28740BA4 
 139      E0C989A1 
 139      E99BFC
 140 00c4 38305C4E 		.ascii	"80\\N.\257\365\013\035\217<\003<K_f\313\272\352\371"
 140      2EAFF50B 
 140      1D8F3C03 
 140      3C4B5F66 
 140      CBBAEAF9 
 141 00d8 4FCDE400 		.ascii	"O\315\344\000:n\303\323\017\226\217\320V\203$\3346\316"
 141      3A6EC3D3 
 141      0F968FD0 
 141      568324DC 
 141      36CE
 142 00ea 377D12FC 		.ascii	"7}\022\374\204b\357\324\015\336w&7S@\351\313\2251&\347"
 142      8462EFD4 
 142      0DDE7726 
 142      375340E9 
 142      CB953126 
 143 00ff D0069C02 		.ascii	"\320\006\234\002\276\000\027\264\342\373\034t\374\312"
 143      BE0017B4 
 143      E2FB1C74 
 143      FCCA
 144 010d A01D9211 		.ascii	"\240\035\222\021\230\352\362/\350\374\244\202\267\006"
 144      98EAF22F 
 144      E8FCA482 
 144      B706
 145 011b C776A270 		.ascii	"\307v\242p\370\222\344\230*tX\260\225-\345\016\235\212"
 145      F892E498 
 145      2A7458B0 
 145      952DE50E 
 145      9D8A
ARM GAS  C:\Users\info\AppData\Local\Temp\ccjWH08o.s 			page 11


 146 012d BB37BB54 		.ascii	"\2737\273T\351\340i\212\253_\375\021\262\355q\017\203"
 146      E9E0698A 
 146      AB5FFD11 
 146      B2ED710F 
 146      83
 147 013e B1329DC0 		.ascii	"\2612\235\300\256\177\300n\005\206\276M\3179x\206\002"
 147      AE7FC06E 
 147      0586BE4D 
 147      CF397886 
 147      02
 148 014f 5B7D9F7B 		.ascii	"[}\237{\214=0\024\214\223\325`r\035z\366\345\213\254"
 148      8C3D3014 
 148      8C93D560 
 148      721D7AF6 
 148      E58BAC
 149 0162 CEE02524 		.ascii	"\316\340%$\023\360\265{\267\326)\312$>I\344\"\252\366"
 149      13F0B57B 
 149      B7D629CA 
 149      243E49E4 
 149      22AAF6
 150 0175 82A07A76 		.ascii	"\202\240zv\236\017\310H\304+\003>1\262-b5\240<u\240"
 150      9E0FC848 
 150      C42B033E 
 150      31B22D62 
 150      35A03C75 
 151 018a A0581DC4 		.ascii	"\240X\035\304\015\024\262\331i\210\301A0\266\2118U-"
 151      0D14B2D9 
 151      6988C141 
 151      30B68938 
 151      552D
 152 019c AC6934F3 		.ascii	"\254i4\363U(\013\364\005\201\004\275\234\212W\027z\262"
 152      55280BF4 
 152      058104BD 
 152      9C8A5717 
 152      7AB2
 153 01ae 6EAB812A 		.ascii	"n\253\201*7\306\013\204\203\350\267\2015\246\2220\360"
 153      37C60B84 
 153      83E8B781 
 153      35A69230 
 153      F0
 154 01bf 410DE091 		.ascii	"A\015\340\221?\3333C\006U\202A,\031X\273\326(\242\304"
 154      3FDB3343 
 154      06558241 
 154      2C1958BB 
 154      D628A2C4 
 155 01d3 B040005E 		.ascii	"\260@\000^\341\015$\247\014\241\317b\332\236\206\003"
 155      E10D24A7 
 155      0CA1CF62 
 155      DA9E8603 
 156 01e3 F116138F 		.ascii	"\361\026\023\217\333\307\275-w\235QfQ1\375\212Q\267"
 156      DBC7BD2D 
 156      779D5166 
 156      5131FD8A 
 156      51B7
 157 01f5 F323C328 		.ascii	"\363#\303(G\316\314D\276\002\356\004\312\217\004\277"
 157      47CECC44 
 157      BE02EE04 
ARM GAS  C:\Users\info\AppData\Local\Temp\ccjWH08o.s 			page 12


 157      CA8F04BF 
 158 0205 40D9A2B7 		.ascii	"@\331\242\267\2512\321\312\227\332\242s\303\377\333"
 158      A932D1CA 
 158      97DAA273 
 158      C3FFDB
 159 0214 49C23660 		.ascii	"I\3026`0\000.\325\345aMg\343\006_\007o`\256\\]\216|"
 159      30002ED5 
 159      E5614D67 
 159      E3065F07 
 159      6F60AE5C 
 160 022b F4FB373E 		.ascii	"\364\3737>\032\245;\262B\312\004\223\333#\032\006\201"
 160      1AA53BB2 
 160      42CA0493 
 160      DB231A06 
 160      81
 161 023c D7508ACE 		.ascii	"\327P\212\316\304(\310\266?\234\306\326\3003\320\275"
 161      C428C8B6 
 161      3F9CC6D6 
 161      C033D0BD 
 162 024c 70DD8A66 		.ascii	"p\335\212f\220;\346\350{uu\207\325;\343\223\025q\015"
 162      903BE6E8 
 162      7B757587 
 162      D53BE393 
 162      15710D
 163 025f F0C84DB5 		.ascii	"\360\310M\265\231\003\024\212\365r\001\203\224\006\376"
 163      9903148A 
 163      F5720183 
 163      9406FE
 164 026e 6E5EF174 		.ascii	"n^\361t\030i\355\364S\306\323\325\207\240\001v5\345"
 164      1869EDF4 
 164      53C6D3D5 
 164      87A00176 
 164      35E5
 165 0280 E530A429 		.ascii	"\3450\244)\371=\353\355\007\325>\210C\325\336(5\345"
 165      F93DEBED 
 165      07D53E88 
 165      43D5DE28 
 165      35E5
 166 0292 7260BF5A 		.ascii	"r`\277Z\314A\265\005\343\0205\001#JM\371?\212j\353\330"
 166      CC41B505 
 166      E3103501 
 166      234A4DF9 
 166      3F8A6AEB 
 167 02a7 61FFF52D 		.ascii	"a\377\365-.B\207`\014}CO0s\014gr\2472P\260*\354)rP\265"
 167      2E428760 
 167      0C7D434F 
 167      30730C67 
 167      72A73250 
 168 02c2 CC77F004 		.ascii	"\314w\360\004\266\312\235\244\2032\276[S\335\016\253"
 168      B6CA9DA4 
 168      8332BE5B 
 168      53DD0EAB 
 169 02d2 0500DE5A 		.ascii	"\005\000\336Z\225\332\304\364\021AAWj\352\305\222\314"
 169      95DAC4F4 
 169      11414157 
 169      6AEAC592 
 169      CC
ARM GAS  C:\Users\info\AppData\Local\Temp\ccjWH08o.s 			page 13


 170 02e3 BC5359D9 		.ascii	"\274SY\331E\205\331\270\272\221\231\225\223UT\234\223"
 170      4585D9B8 
 170      BA919995 
 170      9355549C 
 170      93
 171 02f4 7F35359B 		.ascii	"\17755\233\211\222\202\222\242\334\034\235>\363+Ey\306"
 171      89928292 
 171      A2DC1C9D 
 171      3EF32B45 
 171      79C6
 172 0306 E5C2BCAC 		.ascii	"\345\302\274\254\374\202b5_+.\374\0139,y\343"
 172      FC826235 
 172      5F2B2EFC 
 172      0B392C79 
 172      E3
 173              		.text
 174              		.section	.gnu.lto_u8x8_SetupStdio.792a2c93,"",%progbits
 175 0000 789C5590 		.ascii	"x\234U\220\315+\304a\020\307\347\373<k\177\253\274\335"
 175      CD2BC461 
 175      10C7E7FB 
 175      3C6B7FAB 
 175      BCDD
 176 0012 6DD972D8 		.ascii	"m\331r\330\366`\311\311\177\340\356\344@{\330-9)K\271"
 176      F660C9C9 
 176      7FE0EEE4 
 176      407BD82D 
 176      39294BB9 
 177 0026 681FBBFB 		.ascii	"h\037\273\373\304Q\211\020Q\222\367}9\356\355\307ek"
 177      C4518910 
 177      5192F77D 
 177      39EEEDC7 
 177      656B
 178 0038 0BA9BD91 		.ascii	"\013\251\275\221\204$I\210\224Z?3\353d\352if\236\347"
 178      84244988 
 178      945A3F33 
 178      EB64EA69 
 178      669EE7
 179 004b 3B339F79 		.ascii	";3\237y|\004\022\233f\327\311\276\235\0174A\315\237"
 179      7C04129B 
 179      66D7C9BE 
 179      9D0F3441 
 179      CD9F
 180 005d 11CD0414 		.ascii	"\021\315\004\024 \201\011\200R\012)|\252\232\302\311"
 180      20810980 
 180      520A297C 
 180      AA9AC2C9 
 181 006d EC434945 		.ascii	"\354CIEv\014\333\215}\3571\273.\254&\362T\275\023a\007"
 181      760CDB8D 
 181      7DEF31BB 
 181      2EAC26F2 
 181      54BD1361 
 182 0082 11565D64 		.ascii	"\021V]d\013k\372CY\015\3708};]\275k\221T!\304\351fu"
 182      0B6BFA43 
 182      590DF838 
 182      7D3B5DBD 
 182      6B915421 
 183 009a EBCAAF3B 		.ascii	"\353\312\257;@\034/U\252/\315\341mc\322\306\324\022"
ARM GAS  C:\Users\info\AppData\Local\Temp\ccjWH08o.s 			page 14


 183      401C2F55 
 183      AA2FCDE1 
 183      6D63D2C6 
 183      D412
 184 00ac A6D16A8D 		.ascii	"\246\321j\215}h\356\207=\004\261\213 \361\025\341\000"
 184      7D68EE87 
 184      3D04B18B 
 184      20F115E1 
 184      00
 185 00bd 6191DF16 		.ascii	"a\221\337\026\177\026\233\375Y\031\037\372\033\212C"
 185      7F169BFD 
 185      59191FFA 
 185      1B8A43
 186 00cc F8658DFC 		.ascii	"\370e\215\374\200k</c\334\005\347x\331i`x)\241W\326"
 186      806B3C2F 
 186      63DC05E7 
 186      78D96960 
 186      7829A157 
 187 00e1 C8166F4A 		.ascii	"\310\026oJ\211\327\217\310\272\213eH\225\364+\225\236"
 187      89D78FC8 
 187      BA8B6548 
 187      95F42B95 
 187      9E
 188 00f2 2F9D54CD 		.ascii	"/\235T\315\314\031\323f\265\317S\334\012GHQF3n\003="
 188      CC19D366 
 188      B5CF53DC 
 188      0A474851 
 188      46336E03 
 189 0107 20FD3D7B 		.ascii	" \375={\2756(z\241\265'\347\216,\242\353\360_\345\312"
 189      BD36287A 
 189      A1B527E7 
 189      8E2CA2EB 
 189      F05FE5CA 
 190 011b 5CD306D6 		.ascii	"\\\323\006\326g\204\247\325j?W!\307\310\362\270}\237"
 190      6784A7D5 
 190      6A3F5721 
 190      C7C8F2B8 
 190      7D9F
 191 012d CE39DD5D 		.ascii	"\3169\335]V;\310c\003?\365\037B\001\335\377\307\232"
 191      563BC863 
 191      033FF51F 
 191      4201DDFF 
 191      C79A
 192 013f 61AB031E 		.ascii	"a\253\003\036\323\021\212<\367\011iw\245\277\216'\366"
 192      D3118A3C 
 192      F7096977 
 192      A5BF8E27 
 192      F6
 193 0150 CA408CCD 		.ascii	"\312@\214\315\257\301hth\262o\2447\026O\216\3079\232"
 193      AFC16874 
 193      68B26FA4 
 193      37164F8E 
 193      C7399A
 194 0163 EA8B2562 		.ascii	"\352\213%b\311\211\304\350X4N>\311\177\001\216\024\220"
 194      C989C4E8 
 194      58344E3E 
 194      C97F018E 
ARM GAS  C:\Users\info\AppData\Local\Temp\ccjWH08o.s 			page 15


 194      1490
 195 0175 A4       		.ascii	"\244"
 196              		.text
 197              		.section	.gnu.lto_.symbol_nodes.792a2c93,"",%progbits
 198 0000 789C6361 		.ascii	"x\234ca`dX\300\000\004LL\365\014\014\023\31610\000\251"
 198      606458C0 
 198      00044C4C 
 198      F50C0C13 
 198      CE313000 
 199 0015 550D8A0C 		.ascii	"U\015\212\014\014\254\214\014\215B \011\346zF\024\011"
 199      0CAC8C0C 
 199      8D422009 
 199      E67A4614 
 199      09
 200 0026 26967A26 		.ascii	"&\226z&\270\300\002\220\000k=3\212\012F\266z\026\260"
 200      B8C00290 
 200      006B3D33 
 200      8A0A46B6 
 200      7A16B0
 201 0039 00034343 		.ascii	"\000\003CC\203\002\220\317^\317\212\314gfbex\322\366"
 201      830290CF 
 201      5ECF8ACC 
 201      67666265 
 201      78D2F6
 202 004c 64572188 		.ascii	"dW!\210\321\322\016e\034\351z\363\202\235\231\231\211"
 202      D1D20E65 
 202      1CE97AF3 
 202      829D9999 
 202      89
 203 005d A169211F 		.ascii	"\241i!\03733\003\303\242c\347X\231Y\330\030\226<\370"
 203      333303C3 
 203      A263E758 
 203      9959D818 
 203      963CF8
 204 0070 C7C80000 		.ascii	"\307\310\000\000\351\205&\015"
 204      E985260D 
 205              		.text
 206              		.section	.gnu.lto_.refs.792a2c93,"",%progbits
 207 0000 789C6361 		.ascii	"x\234ca`d\020``\000\222\214\214<\214L\014\214\254\214"
 207      60641060 
 207      6000928C 
 207      8C3C8C4C 
 207      0C8CAC8C 
 208 0014 2C4CCC4C 		.ascii	",L\314L\014\000\003\002\000:"
 208      0C000302 
 208      003A
 209              		.text
 210              		.section	.gnu.lto_.decls.792a2c93,"",%progbits
 211 0000 789CBD58 		.ascii	"x\234\275X{P\224\327\025\337\373\335\005\226e\001\005"
 211      7B5094D7 
 211      15DFFBDD 
 211      05966501 
 211      05
 212 0011 4C6987B6 		.ascii	"Li\207\266NB\224t\022\342#\3158m\377H\037\323f\232N"
 212      4E429474 
 212      12E223CD 
 212      386DFF48 
ARM GAS  C:\Users\info\AppData\Local\Temp\ccjWH08o.s 			page 16


 212      1FD3669A 
 213 0026 E234934C 		.ascii	"\3424\223L\332\241\335.\313*\333\300\356\226]|\344\257"
 213      DAA1DD2E 
 213      CB2ADBC0 
 213      EE965D7C 
 213      E4AF
 214 0038 4F413418 		.ascii	"OA4\030\025\214\242\200\012\202\017\020T\024D\021\220"
 214      158CA280 
 214      0A820F10 
 214      54144411 
 214      90
 215 0049 0D02BE41 		.ascii	"\015\002\276A\236>\000\301\027\342\003D\004_\210\364"
 215      9E3E00C1 
 215      17E20344 
 215      045F88F4 
 216 0059 DC7BBFDD 		.ascii	"\334{\277\335\357.~N\376i\372\315\234\335{\356\375\335"
 216      EF2E7E4E 
 216      FE69FACD 
 216      9CDD7BEE 
 216      FDDD
 217 006b 73CE3DF7 		.ascii	"s\316=\367\334s\037j\025R\221\357\331\217U\252B\265"
 217      DC731F6A 
 217      155291EF 
 217      D98F55AA 
 217      42B5
 218 007d 4A5502EC 		.ascii	"JU\002\354\004|^P\367\271J\376\274\201*\200\252\200"
 218      047C5E50 
 218      F7B94AFE 
 218      BC812A80 
 218      AA80
 219 008f 3E02CC27 		.ascii	">\002\314'@\363\201\376\012D$\374\015\251<>\202\365"
 219      40F381FE 
 219      0A4424FC 
 219      0DA93C3E 
 219      82F5
 220 00a1 95649402 		.ascii	"\225d\224\002\005\001\205\000\225\001\315\007\012\003"
 220      05018500 
 220      9501CD07 
 220      0A03
 221 00af FA3BF4F9 		.ascii	"\372;\364\371B\352\207\244>J\262\210N\255$\313%g\262"
 221      42EA87A4 
 221      3E4AB288 
 221      4EAD24CB 
 221      2567B2
 222 00c2 0CA2E31F 		.ascii	"\014\242\343\037\360\037%\365\025\244~\363_a\037\031"
 222      F01F25F5 
 222      15A47EF3 
 222      5F611F19 
 223 00d2 43C024DB 		.ascii	"C\300$\333\336\202\272\317$\271e\222\276\177B]%\374"
 223      DE82BACF 
 223      24B96592 
 223      BE7F425D 
 223      25FC
 224 00e4 5BE03F1E 		.ascii	"[\340?\036\310\012t\004x\014d\202r,\220\0311\236\310"
 224      C80A7404 
 224      780C6482 
 224      722C9019 
ARM GAS  C:\Users\info\AppData\Local\Temp\ccjWH08o.s 			page 17


 224      319EC8
 225 00f7 AC92C641 		.ascii	"\254\222\306Ax\033\360\377\001J\230\244\233\370\316"
 225      781BF0FF 
 225      014A98A4 
 225      9BF8CE
 226 0106 E51B5EB7 		.ascii	"\345\033^\267\035\350c\240_\000\375\032\3507\222\355"
 226      1DE863A0 
 226      5F00FD1A 
 226      E83792ED 
 227 0116 BF93E47F 		.ascii	"\277\223\344\177\"\371\373\243I\362\3107.\240\244kw"
 227      22F9FBA3 
 227      49F2C837 
 227      2EA0A46B 
 227      77
 228 0127 72359DE8 		.ascii	"r5\235\350\022B*D?\225\312\345\\\304JR\025b\214\340"
 228      12422A44 
 228      3F95CAE5 
 228      5CC44A52 
 228      15628CE0 
 229 013b F23B72CF 		.ascii	"\362;r\317\200T\240p\244\022(\036q\015\0368\032'\364"
 229      8054A070 
 229      A412281E 
 229      710D1E38 
 229      1A27F4
 230 014e 93AB90FB 		.ascii	"\223\253\220\373s!\221\247P\"Uf\201\027\344\016\234"
 230      732191A7 
 230      50225566 
 230      8117E40E 
 230      9C
 231 015f 3CC97A49 		.ascii	"<\311zI?\342\325R\321\3305\350G#7\216zc\220\011\345"
 231      3FE2D552 
 231      D1D835E8 
 231      4723378E 
 231      7A639009 
 232 0174 9EA7057F 		.ascii	"\236\247\005\177\214,\026\341K\023E\341m\3313\315\311"
 232      8C2C16E1 
 232      4B1345E1 
 232      6DD933CD 
 232      C9
 233 0185 255BF088 		.ascii	"%[\360\210\200\202\264H\015\354\203sY\327\003\200\015"
 233      8082B448 
 233      0DEC8373 
 233      59D70380 
 233      0D
 234 0196 D1A2E9C0 		.ascii	"\321\242\351\300\356_q\243P\003l\230\026M \302\337\253"
 234      EE5F71A3 
 234      50036C98 
 234      164D20C2 
 234      DFAB
 235 01a8 78EACF78 		.ascii	"x\352\317x\322\271\314\371p\257\032\377\224\224\205"
 235      D2B9CCF9 
 235      70AF1AFF 
 235      949485
 236 01b7 E6D24BF5 		.ascii	"\346\322K\365\276(B\273\213(\351\315\031\375m\222(\""
 236      BE2842BB 
 236      8B28E9CD 
 236      19FD6D92 
ARM GAS  C:\Users\info\AppData\Local\Temp\ccjWH08o.s 			page 18


 236      2822
 237 01c9 5482B468 		.ascii	"T\202\264h\037\302\250\020E\022\373\302H\254\256\022"
 237      1FC2A810 
 237      4512FBC2 
 237      48ACAE12 
 238 01d9 C5E5E250 		.ascii	"\305\345\342P\236\350\035\252Bs\303\320\2540\025\332"
 238      9EE81DAA 
 238      4273C3D0 
 238      AC3015DA 
 239 01e9 8F22884C 		.ascii	"\217\"\210L\202B{Q\030*FaD~aNA\235?\336\203\250\202"
 239      82427B51 
 239      182A4661 
 239      447E614E 
 239      419D3FDE 
 240 0200 810D7757 		.ascii	"\201\015wWa\267\202\366\325aE\2428\005\225\202\202\003"
 240      61B782F6 
 240      D56145A2 
 240      38059582 
 240      8203
 241 0212 B202D0A7 		.ascii	"\262\002\320\247\254\341\240\262\206\211\254\007\233"
 241      ACE1A0B2 
 241      8689AC07 
 241      9B
 242 021f 7D74A904 		.ascii	"}t\251\004\237\226$\006}H\345\025A\373\036hW\2412\244"
 242      9F962406 
 242      7D48E515 
 242      41FB1E68 
 242      57A132A4 
 243 0233 93FC7463 		.ascii	"\223\374tc\254\240.P-\260:\024\255&u{s\313\362\003h"
 243      ACA02E50 
 243      2DB03A14 
 243      AD26757B 
 243      73CBF203 
 244 0248 1DE97508 		.ascii	"\035\351u\010\321\312\375\307\2567\370\270+\313Y\345"
 244      D1CAFDC7 
 244      AE37F8B8 
 244      2BCB59E5 
 245 0258 E0E1D115 		.ascii	"\340\341\321\025\352\320\014\352\377$q\272\032}\376"
 245      EAD00CEA 
 245      FF2471BA 
 245      1A7DFE
 246 0267 1AA7E508 		.ascii	"\032\247\345\010\012\205\337\303\000\245\252\036\016"
 246      0A85DFC3 
 246      00A5AA1E 
 246      0E
 247 0274 8C76695F 		.ascii	"\214vi_\317\025{K\304\336\322\326\310\214$\361$\364"
 247      CF157B4B 
 247      C4DED2D6 
 247      C88C24F1 
 247      24F4
 248 0286 9B4E60A8 		.ascii	"\233N`\250@\036*\024\311\337n\324\011QP\201^\207\236"
 248      401E2A14 
 248      C9DF6ED4 
 248      09515081 
 248      5E879E
 249 0299 45794777 		.ascii	"EyGw\010\270\201M\371\370\251\354,\341\225:+\251\316"
 249      08B8814D 
ARM GAS  C:\Users\info\AppData\Local\Temp\ccjWH08o.s 			page 19


 249      F9F8A9EC 
 249      2CE1953A 
 249      2BA9CE
 250 02ac 6849E5EE 		.ascii	"hI\345\356Uc\215\222J\347E\223\3705\364Q\023\010:*\353"
 250      55638D92 
 250      4AE74593 
 250      F835F451 
 250      13083A2A 
 251 02c1 3BCAEBAB 		.ascii	";\312\353\253\242\372\2267\254\253G\270\205\351\333"
 251      A2FA9637 
 251      ACAB47B8 
 251      85E9DB
 252 02d0 573C56A2 		.ascii	"W<V\242\245\003\377\314\345\240\316\224\335g\374\334"
 252      A503FFCC 
 252      E5A0CE94 
 252      DD67FCDC 
 253 02e0 BE38C67C 		.ascii	"\2768\306|\321~\361J\273\257\273\262\206Uf?\354\276"
 253      D17EF14A 
 253      BBAFBBB2 
 253      8655663F 
 253      ECBE
 254 02f2 EDCBC230 		.ascii	"\355\313\3020\202\370+\371f\257\037\013\303P`\305\376"
 254      82F82BF9 
 254      66AF1F0B 
 254      C35060C5 
 254      FE
 255 0303 E41C01F7 		.ascii	"\344\034\001\3670=-Cg\267JmS\200\255\351O\257\321\340"
 255      303D2D43 
 255      67B74A6D 
 255      5380ADE9 
 255      4FAFD1E0 
 256 0317 41D6767E 		.ascii	"A\326v~\367\300\205\000\234\202)\323\237[sP\203\267"
 256      F7C08500 
 256      9C8229D3 
 256      9F5B7350 
 256      83B7
 257 0329 33A6A06F 		.ascii	"3\246\240o\313Z\035\3535\217\213\363 \026\347\033\235"
 257      CB5A1DEB 
 257      358F8BF3 
 257      2016E71B 
 257      9D
 258 033a EB9F6BF1 		.ascii	"\353\237k\361^\006\255<\\\325\340\305\240\263\200=U"
 258      5E06AD3C 
 258      5CD5E0C5 
 258      A0B3803D 
 258      55
 259 034b 716D163E 		.ascii	"qm\026>\302\232\\f\20603\037\235i\353\306\370\004k["
 259      C29A5C66 
 259      8630331F 
 259      9D69EBC6 
 259      F8046B5B 
 260 035f 575B7D5C 		.ascii	"W[}\\\203[\031\323\320u\271]\215{\030\263\254\372x\251"
 260      835B19D3 
 260      D075B95D 
 260      8D7B18B3 
 260      ACFA78A9 
 261 0373 3F1E614C 		.ascii	"?\036aL\375\304cg \323,\220Y*-=\216\3608k\333\371ll"
ARM GAS  C:\Users\info\AppData\Local\Temp\ccjWH08o.s 			page 20


 261      FDC46367 
 261      20D32C90 
 261      592A2D3D 
 261      8EF0386B 
 262 038b 882CC619 		.ascii	"\210,\306\031\260\334&0\267\336f\260\365Vs\346\324."
 262      B0DC2630 
 262      B7DE66B0 
 262      F55673E6 
 262      D42E
 263 039d 1D4E51D3 		.ascii	"\035NQ\323\365\320R\273y\334\017i#h\260\213I\2426B\205"
 263      F5D052BB 
 263      79DC0F69 
 263      2368B08B 
 263      49A23642 
 264 03b2 EA607E5B 		.ascii	"\352`~[`~\321E\010\367\031R\270\267Ce\033TJ+s\340\317"
 264      607ED145 
 264      08F71952 
 264      B8B74365 
 264      1B544A2B 
 265 03c9 74655E00 		.ascii	"te^\000\347w\310\263;C\313\"\341Xzg\237\026\2473\025"
 265      E777C8B3 
 265      3B43CB22 
 265      E1587A67 
 265      9F16A733 
 266 03de 3BAE8B95 		.ascii	";\256\213\225\352W\251\350|\245\212\366\3253\212\311"
 266      EA57A9E8 
 266      7CA58AF6 
 266      D5338AC9 
 267 03ee DABC0C2A 		.ascii	"\332\274\014*.\311*. I\207kv\203\330\354\366\245\026"
 267      2EC92A2E 
 267      2049876B 
 267      7683D8EC 
 267      F6A516
 268 0401 3ED0E12C 		.ascii	">\320\341,\252\022mm\277\226\346\253\225\026p\332\367"
 268      AA126D6D 
 268      BF96E6AB 
 268      951670DA 
 268      F7
 269 0412 2FE0ACFA 		.ascii	"/\340\254\372U\265^\374\002\276\342\261\200{\334\013"
 269      55B55EFC 
 269      02BEE2B1 
 269      807BDC0B 
 270 0422 38F94EFE 		.ascii	"8\371N\376\000\3029LK\367\311\302\"\342\350\231\304"
 270      00C2394C 
 270      4BF7C9C2 
 270      22E2E899 
 270      C4
 271 0433 D1131381 		.ascii	"\321\023\023\201\234\253g2W\267\254\033\336\341\203"
 271      9CAB6732 
 271      57B7AC1B 
 271      DEE183
 272 0442 0B991F8A 		.ascii	"\013\231\037\212\322\357\266p\271m\247\256\202\014\357"
 272      D2EFB670 
 272      B96DA7AE 
 272      820CEF
 273 0451 2668BA2E 		.ascii	"&h\272.\017o\246;\363PCTn+\320\0150}\246d\3725\250\274"
 273      0F6FA63B 
ARM GAS  C:\Users\info\AppData\Local\Temp\ccjWH08o.s 			page 21


 273      F3504354 
 273      6E2BD00D 
 273      307DA664 
 274 0469 2A65B71D 		.ascii	"*e\267\035\351y\336\270\214\251\330\263\257\251\301"
 274      E979DEB8 
 274      8CA9D8B3 
 274      AFA9C1
 275 0478 C7E5EAC9 		.ascii	"\307\345\352\311\002\372\025\004\270\\\375\036u\365"
 275      02FA1504 
 275      B85CFD1E 
 275      75F5
 276 0486 2DB0A54F 		.ascii	"-\260\245O\266\345\246\313\325\256\305\022\304\026\313"
 276      B6E5A6CB 
 276      D5AEC512 
 276      C416CB
 277 0495 B5038FEF 		.ascii	"\265\003\217\357ip5s\302\312\211\356:\015nbL\362\356"
 277      69703573 
 277      C2CA89EE 
 277      3A0D6E62 
 277      4CF2EE
 278 04a8 35D9FEB8 		.ascii	"5\331\376\270\2231Y\225#\247\275X/\015\260k3\207+}\360"
 278      93315995 
 278      23A7BD58 
 278      2F0DB06B 
 278      33872B7D 
 279 04bd 75D6D6EA 		.ascii	"u\326\326\352\314\315\366\305w\030s\275\354\361\016"
 279      CCCDF6C5 
 279      771873BD 
 279      ECF10E
 280 04cc 7F3CCA98 		.ascii	"\177<\312\230\253\367\2533\345\314\3072\300\241\226"
 280      ABF7AB33 
 280      E5CCC732 
 280      C0A196
 281 04db 9C1E1F3C 		.ascii	"\234\036\037<\316\000\317\232\306 \211\244zQ\346\233"
 281      CE00CF9A 
 281      C62089A4 
 281      7A51E69B 
 282 04eb D6F2B978 		.ascii	"\326\362\271x\023+\027\267_\034G8\2371\347^\014\035"
 282      132B17B7 
 282      5F1C4738 
 282      9F31E75E 
 282      0C1D
 283 04fd C3F81063 		.ascii	"\303\370\020c\366\366\246\264z\341\006\306\354z\276"
 283      F6F6A6B4 
 283      7AE106C6 
 283      EC7ABE
 284 050c BD4C875B 		.ascii	"\275L\207[\030\323\360\270:\337\013w3&u\365\236\355"
 284      18D3F0B8 
 284      3ADF0B77 
 284      332675F5 
 284      9EED
 285 051e 01789831 		.ascii	"\001x\2301+\276)\252\302x\2057\313\010=\007G\275q\026"
 285      2BBE29AA 
 285      C2788537 
 285      CB083D07 
 285      47BD7116 
 286 0532 637AAEA4 		.ascii	"cz\256\244\377\033\347\263\362\335\266\226t/\\\302\230"
ARM GAS  C:\Users\info\AppData\Local\Temp\ccjWH08o.s 			page 22


 286      FF1BE7B3 
 286      F2DDB696 
 286      742F5CC2 
 286      98
 287 0543 F1832B2B 		.ascii	"\361\203++\325\3708cn\235|:\342\207\333\031\363\254"
 287      D5F83863 
 287      6E9D7C3A 
 287      E287DB19 
 287      F3AC
 288 0555 767905C2 		.ascii	"vy\005\302\375\214)\257}z\326\013\2173fpy\321\016\204"
 288      FD8C29AF 
 288      7D7AD60B 
 288      8F336670 
 288      79D10E84 
 289 0569 337C989A 		.ascii	"3|\230\232\215\003\031\002\336\317\230\347c\337.\363"
 289      8D031902 
 289      DECF98E7 
 289      63DF2EF3 
 290 0579 C2B58CA9 		.ascii	"\302\265\214\251\351\352/\366\303m\214)\251J\036\220"
 290      E9EA2FF6 
 290      C36D8C29 
 290      A94A1E90 
 291 0589 B65727D9 		.ascii	"\266W'\331O\013\326\014\035\327\342\001\3328m\250hs"
 291      4F0BD60C 
 291      1DD7E201 
 291      DA386DA8 
 291      6873
 292 059b 9B370A9F 		.ascii	"\2337\012\237\364E\204\207\007\207\347\221\250\350\035"
 292      F4458487 
 292      0787E791 
 292      A8E81D
 293 05aa 9DB05597 		.ascii	"\235\260U\227w\211b\212\216zx\002\346{\213\020\354Z"
 293      7789628A 
 293      8E7A7802 
 293      E67B8B10 
 293      EC5A
 294 05bc 20EF9278 		.ascii	" \357\222x?C\242^E\341\316\252\026?\261\344_\024\372"
 294      3F43A25E 
 294      45E1CEAA 
 294      163FB1E4 
 294      5F14FA
 295 05cf D8137A9B 		.ascii	"\330\023z\233\256\215\2712\364\341\372\200\315\242s"
 295      AE8DB932 
 295      F4E1FA80 
 295      CDA273
 296 05de 39A64B76 		.ascii	"9\246KvD\002\273W:\203\027q\2423\233\3747\211\316e\230"
 296      4402BB57 
 296      3A831771 
 296      A2339BFC 
 296      3789CE65 
 297 05f3 0A4F125E 		.ascii	"\012O\022^\266\243\216\003\2675\271\355x\241`\362I\016"
 297      B6A38E03 
 297      B735B9ED 
 297      78A160F2 
 297      490E
 298 0605 BA418626 		.ascii	"\272A\206&+H\345,n\221\0077\2524\270ZN\352zY\352\012"
 298      2B48E52C 
ARM GAS  C:\Users\info\AppData\Local\Temp\ccjWH08o.s 			page 23


 298      6E910737 
 298      AA34B85A 
 298      4EEA7A59 
 299 061b 05A9B365 		.ascii	"\005\251\263ed\226\214\\\256\200\344\205n\221\241\313"
 299      64968C5C 
 299      AE80E485 
 299      6E91A1CB 
 300 062b 14A0BCB7 		.ascii	"\024\240\274\267Jd[\237y\332:\200&O\332y\031\373Hi\\"
 300      4A645B9F 
 300      79DA3A80 
 300      264FDA79 
 300      19FB4869 
 301 0640 BC6337C8 		.ascii	"\274c7\310\3301%\271\3478\354\013\331\334\347JX\336"
 301      D83125B9 
 301      E738EC0B 
 301      D9DCE74A 
 301      58DE
 302 0652 DE3259EE 		.ascii	"\3362Y\356S%,?c\243|\344\254\022\024#\207\215\217&,"
 302      53252C3F 
 302      63A37CE4 
 302      AC121423 
 302      878D8F26 
 303 0667 E7D85A9D 		.ascii	"\347\330Z\235(j\010J%%+\225[V\016\037U\242\202S\371"
 303      286A084A 
 303      25252B95 
 303      5B560E1F 
 303      55A28253 
 304 067c 011D958D 		.ascii	"\001\035\225\215|\242\344(:\253\351\322\211W\204S\006"
 304      7CA2E428 
 304      3AABE9D2 
 304      89578453 
 304      06
 305 068d 5A2984A1 		.ascii	"Z)\204\241.bU\212$\032\364\243L!\002\245\011\341h-\320"
 305      2E62558A 
 305      241AF4A3 
 305      4C2102A5 
 305      09E1682D 
 306 06a2 3740E940 		.ascii	"7@\351@\353\201\262\200\276\006Z\003\264\025(\003h#"
 306      EB81B280 
 306      BE065A03 
 306      B4152803 
 306      6823
 307 06b4 D0B7409B 		.ascii	"\320\267@\233\200\262\201R\2016\000\255\003Z\015\264"
 307      80B28152 
 307      813600AD 
 307      035A0DB4 
 308 06c4 5908E746 		.ascii	"Y\010\347F\323\271. St&c\232\233\307%\023\335)}@6\022"
 308      D3B92E20 
 308      53742663 
 308      9A9BC725 
 308      13DD297D 
 309 06db F2C0A575 		.ascii	"\362\300\245u\331\231\201x\235\206n\005\243kj\337G\301"
 309      D9998178 
 309      9D866E05 
 309      A36B6ADF 
 309      47C1
 310 06ed 11CAB6E7 		.ascii	"\021\312\266\347\202\275?\244\355l\2262\033\337&\263"
ARM GAS  C:\Users\info\AppData\Local\Temp\ccjWH08o.s 			page 24


 310      82BD3FA4 
 310      ED6C9632 
 310      1BDF26B3 
 311 06fd 94038AB6 		.ascii	"\224\003\212\266\011\356]\205L\0325\267\354\332\256"
 311      09EE5D85 
 311      4C1A35B7 
 311      ECDAAE
 312 070c FB3EC192 		.ascii	"\373>\301\222\201\316W\032\250\372\237[G\362iG\362J"
 312      81CE571A 
 312      A8FA9F5B 
 312      47F26947 
 312      F24A
 313 071e 3F7EC3DF 		.ascii	"?~\303\337\316\271U\205\362\004\327\206\377x\357\255"
 313      CEB95585 
 313      F204D786 
 313      FF78EFAD 
 314 072e 2E2F9CAF 		.ascii	"./\234\257\3618\323\005\2613]Y\365\203\235\3229N$\347"
 314      F138D305 
 314      B1335D59 
 314      F5839DD2 
 314      394E24E7 
 315 0742 ACFE9BD9 		.ascii	"\254\376\233\331\015Z\274\237akZ\367\237\015\304\307"
 315      0D5ABC9F 
 315      616B5AF7 
 315      9F0DC4C7 
 316 0752 29F34667 		.ascii	")\363Fgj\3152\204\324\272`\310\302\036\237N\027\252"
 316      6ACD3284 
 316      D4BA60C8 
 316      C21E9F4E 
 316      17AA
 317 0764 8E900A11 		.ascii	"\216\220\012\021\341\021\021d\337+\024t\350\001x\203"
 317      E1111164 
 317      DF2B1474 
 317      E8017883 
 318 0774 B36E8F87 		.ascii	"\263n\217\207u\205\314:\217\251\335\011\236\333!\200"
 318      7585CC3A 
 318      8FA9DD09 
 318      9EDB2180 
 319 0784 E74E83E7 		.ascii	"\347N\203\347\212\245\251=\005\345\2230\360\343@\265"
 319      8AA5A93D 
 319      05E59330 
 319      F0E340B5 
 320 0794 40DF0139 		.ascii	"@\337\0019\201\216\002U\000\035\001:\014T\016t\010\250"
 320      818E0255 
 320      001D013A 
 320      0C540E74 
 320      08A8
 321 07a6 0CA814E8 		.ascii	"\014\250\024\350 \320\001\240\022\240\375@\373\200\366"
 321      20D001A0 
 321      12A0FD40 
 321      FB80F6
 322 07b5 02157984 		.ascii	"\002\025y\204\346X\007\267\320v\301\004\027\313\253"
 322      E65807B7 
 322      D076C104 
 322      17CBAB
 323 07c4 E73B2E1D 		.ascii	"\347;.\035(\333\231/u\370\341\355"
 323      28DB992F 
ARM GAS  C:\Users\info\AppData\Local\Temp\ccjWH08o.s 			page 25


 323      75F8E1ED 
 324 07d0 7CD2E15E 		.ascii	"|\322\341^\343pH~\331J>\037?\222\261\365JX>q\216\310"
 324      E370487E 
 324      D94A3E1F 
 324      3F92B1F5 
 324      4A583E71 
 325 07e6 D806252C 		.ascii	"\330\006%,\267\317\014\313\320\023JPn\363\030\222\241"
 325      B7CF0CCB 
 325      D0134A50 
 325      6EF31892 
 325      A1
 326 07f7 A73DA1A7 		.ascii	"\247=\241\247^J\233Wd\354Y%,\277%t\311\330F%,\237\025"
 326      5E4A9B57 
 326      64EC5925 
 326      2CBF2574 
 326      C9D84625 
 327 080e 3B646C93 		.ascii	";dl\223\022\226O\363m2\366\274\022\226\367n\213\214"
 327      12964FF3 
 327      6D32F6BC 
 327      1296F76E 
 327      8B8C
 328 0820 6D56C2F2 		.ascii	"mV\302\362\336m\316\340\266\204V\011\355\336\022NMv"
 328      DE6DCEE0 
 328      B6845609 
 328      EDDE124E 
 328      4D76
 329 0832 5B4DC634 		.ascii	"[M\3064\226'\341\254\216\272%\270;Ov\275dvu\006\227"
 329      9627E1AC 
 329      8EBA25B8 
 329      3B4F76BD 
 329      64767506 
 330 0847 577B95F1 		.ascii	"W{\225\361\234\370\312\216@\006\257\204\305yg2\234?"
 330      9CF8CA8E 
 330      4006AF84 
 330      C5796732 
 330      9C3F
 331 0859 DA70ABB6 		.ascii	"\332p\253\266Z\010\22515\020\343U\320\231e\301W\240"
 331      5A089531 
 331      3510E355 
 331      D09965C1 
 331      57A0
 332 086b 541C84BB 		.ascii	"T\034\204\273s{>'@\007\370=&\220[\267+_8am\261\244\233"
 332      737B3E27 
 332      4007F83D 
 332      26905BB7 
 332      2B5F3861 
 333 0883 D3388D24 		.ascii	"\3238\215$]b\347]\371(_ES\006\033K\005?\226{\312c\341"
 333      5D62E75D 
 333      F9285F45 
 333      53061B4B 
 333      053F967B 
 334 089a 865EDEA1 		.ascii	"\206^\336\241\023\323\014\024<8\031\254\260\353\313"
 334      13D30C14 
 334      3C3819AC 
 334      B0EBCB
 335 08a9 E8FBCA68 		.ascii	"\350\373\312hNtiF\010\263\244\016\340C\223\341\357*"
 335      4E746946 
ARM GAS  C:\Users\info\AppData\Local\Temp\ccjWH08o.s 			page 26


 335      08B3A40E 
 335      E04393E1 
 335      EF2A
 336 08bb 3AB58177 		.ascii	":\265\201w\352\011pj\275\222S\033<\234Z\257\344\324"
 336      EA09706A 
 336      BD92531B 
 336      3C9C5AAF 
 336      E4D4
 337 08cd CB1E4E6D 		.ascii	"\313\036Nm\240N-\240Ne\216<\260\3665\342Hb\332\260\354"
 337      A04E2DA0 
 337      4E658E3C 
 337      B0F635E2 
 337      4862DAB0 
 338 08e2 C87ACE91 		.ascii	"\310z\316\221\0072~\316\314\207\355\002=T4\177\266|"
 338      07327ECE 
 338      CC87ED02 
 338      3D54347F 
 338      B67C
 339 08f4 66D99A41 		.ascii	"f\331\232A\317,\305\236g\026\326\266i\355\317H\033I"
 339      CF2CC59E 
 339      6716D6B6 
 339      69EDCF48 
 339      1B49
 340 0906 F3BBE59D 		.ascii	"\363\273\345\235\262\330\265S\346\215\\\375\032\273"
 340      B2D8B553 
 340      E68D5CFD 
 340      1ABB
 341 0914 DF72FE92 		.ascii	"\337r\376\222\236\237\"\246-\023\305\017h,\240j\331"
 341      9E9F22A6 
 341      2D13C50F 
 341      682CA06A 
 341      D9
 342 0925 BA6AFE75 		.ascii	"\272j\376u\345\214@^W\304\301\242\232@|\232mJG\0367"
 342      E58C405E 
 342      57C4C1A2 
 342      9A407C9A 
 342      6D4A471E 
 343 093a 6F64972B 		.ascii	"od\227+\0224\354r5\320\221w\337\373\225/<\215\324/\347"
 343      1234EC72 
 343      35D09177 
 343      DFFB952F 
 343      3C8DD42F 
 344 094f 04E98927 		.ascii	"\004\351\211'\251%iU\000X\222[\":\323Wb2|\350'\020\030"
 344      A9256955 
 344      0058925B 
 344      223AD357 
 344      62327CE8 
 345 0966 3A2B5B0E 		.ascii	":+[\016E\331\216&jGj~\323c\341\241\200E\254B\347i\315"
 345      45D98E26 
 345      6A476A7E 
 345      D363E1A1 
 345      8045AC42 
 346 097d 68D65028 		.ascii	"h\326P(\276\314\014\253=\274f'}:\202\333\350\310\304"
 346      BECC0CAB 
 346      3DBC6627 
 346      7D3A82DB 
 346      E8C8C4
ARM GAS  C:\Users\info\AppData\Local\Temp\ccjWH08o.s 			page 27


 347 0990 17A9F929 		.ascii	"\027\251\371)\3164D\265\243fYl\263\300\236%Q\013\025"
 347      CE3444B5 
 347      A366596C 
 347      B3C09E25 
 347      510B15
 348 09a3 50F16DEE 		.ascii	"P\361m\356M\037<\300$\224\367\235j\320\262\275Y$\227"
 348      4D1F3CC0 
 348      2494F79D 
 348      6AD0B2BD 
 348      592497
 349 09b6 A2F18EBB 		.ascii	"\242\361\216\273uH\332\234\311\365sO~\3576\351mh\202"
 349      7548DA9C 
 349      C9F5734F 
 349      7EEF36E9 
 349      6D6882
 350 09c9 DEB556EC 		.ascii	"\336\265V\354k\024\310\023\201(\205L\020\037\016\027"
 350      6B14C813 
 350      8128854C 
 350      101F0E17 
 351 09d9 04B8FAC2 		.ascii	"\004\270\372\302\024\242\016\201\336\262\263+_l\320"
 351      14A20E81 
 351      DEB2B32B 
 351      5F6CD0
 352 09e8 04A5493B 		.ascii	"\004\245I;\331\007\210.\311v\330\313\332\004\002\277"
 352      D907882E 
 352      C976D8CB 
 352      DA0402BF 
 353 09f8 2804B93A 		.ascii	"(\004\271:\321\027\253\214\266j\365\233\371bo.\231\257"
 353      D117AB8C 
 353      B66AF59B 
 353      F9626F2E 
 353      99AF
 354 0a0a 7732C9B3 		.ascii	"w2\311\263\207\206\200P+\033\014\327\265\225\214\011"
 354      87868050 
 354      2B1B0CD7 
 354      B5958C09 
 355 0a1a 5D12DE84 		.ascii	"]\022\336\204~\267\353\256\266\250\371S\011\351\"\033"
 355      7EB7EBAE 
 355      B6A8F953 
 355      09E9221B 
 356 0a2a 7599EDFB 		.ascii	"u\231\355\373\344\337\343\245l\276\353\236|qE\3336\217"
 356      E4DFE3A5 
 356      6CBEEB9E 
 356      7C7145DB 
 356      368F
 357 0a3c C7BAF9FC 		.ascii	"\307\272\371\374\230\272\350Tv\272\246r\327Z1K\313+"
 357      98BAE854 
 357      76BAA672 
 357      D75A314B 
 357      CB2B
 358 0a4e EBF25833 		.ascii	"\353\362X3\335\222\262n\252,\353\322\2263\032\036L\236"
 358      DD92B26E 
 358      AA2CEBD2 
 358      96331A1E 
 358      4C9E
 359 0a60 F564F015 		.ascii	"\365d\360\025\011|\205\202W\244N\334\012\304#l^\016"
 359      097C8582 
ARM GAS  C:\Users\info\AppData\Local\Temp\ccjWH08o.s 			page 28


 359      57A44EDC 
 359      0AC4236C 
 359      5E0E
 360 0a72 67BD70AA 		.ascii	"g\275p\252\3613\306\244dL\\\323\342\027\214\031\031"
 360      F133C6A4 
 360      644C5CD3 
 360      E2178C19 
 360      19
 361 0a83 BC54E08D 		.ascii	"\274T\340\215W\3722\330`\321a\177\351NK\370\365\305"
 361      57FA32D8 
 361      60D1617F 
 361      E94E4BF8 
 361      F5C5
 362 0a95 A949086F 		.ascii	"\251I\010o\246\215\336O\012JWi\021=;E\270.\261\037T"
 362      A68DDE4F 
 362      0A4A5769 
 362      113D3B45 
 362      B82EB11F 
 363 0aaa 7297D81E 		.ascii	"r\227\330\036pk\237\3421\237\035>\234\354\360q\035\274"
 363      706B9FE2 
 363      319F1D3E 
 363      9CECF071 
 363      1DBC
 364 0abc 4E9210BA 		.ascii	"N\222\020\272&\341\311T\334\201\034r\033\016\015\267"
 364      26E1C954 
 364      DC811C72 
 364      1B0E0DB7 
 365 0acc 806E02F5 		.ascii	"\200n\002\365{\034\036\2564\272\267\254^\005%|\352\033"
 365      7B1C1EAE 
 365      34BAB7AC 
 365      5E05257C 
 365      EA1B
 366 0ade 96A13714 		.ascii	"\226\2417\024\240\374f\334\275V\332}\3103\360U\011\374"
 366      A0FC66DC 
 366      BD56DA7D 
 366      C833F055 
 366      09FC
 367 0af0 CACC7189 		.ascii	"\312\314q\211\335v\372<3\007y\373I\035~\036\200\267"
 367      DD76FA3C 
 367      330779FB 
 367      491D7E1E 
 367      80B7
 368 0b02 51270935 		.ascii	"Q'\0115\005\225\005\376(\"\230\365\311n\014'}\006@\356"
 368      059505FE 
 368      282298F5 
 368      C96E0C27 
 368      7D0640EE 
 369 0b16 5D7901F5 		.ascii	"]y\001\365\321\214\342q s\373\344\036\370\341\373|B"
 369      D18CE271 
 369      2073FBE4 
 369      1EF8E1FB 
 369      7C42
 370 0b28 A6B063FB 		.ascii	"\246\260c\3734>\020\006<\216\246\203R \014\322@\030"
 370      343E1006 
 370      3C8EA683 
 370      52200CD2 
 370      4018
ARM GAS  C:\Users\info\AppData\Local\Temp\ccjWH08o.s 			page 29


 371 0b3a AC3D9B1F 		.ascii	"\254=\233\037\310\203\217xD\315}\011|\237\202\037\264"
 371      C8838F78 
 371      44CD7D09 
 371      7C9F821F 
 371      B4
 372 0b4b 0F956BDE 		.ascii	"\017\225k\336\330\316lK\025T\220\207h\016c+~Hx\203<"
 372      D8CE6C4B 
 372      15549087 
 372      680E632B 
 372      7E487883 
 373 0b60 0E253FC9 		.ascii	"\016%?\311\363f\030XX\2374\213\347\247x\302\036P\330"
 373      F3661858 
 373      589F348B 
 373      E7A778C2 
 373      1E50D8
 374 0b73 899EC643 		.ascii	"\211\236\306C\201\014\346\274\354\235*xb\206)&\251\252"
 374      810CE6BC 
 374      EC9D2A78 
 374      62862926 
 374      A9AA
 375 0b85 E2A6C75A 		.ascii	"\342\246\307Zk\364\010\377\207\222m\344\177j\264\331"
 375      6BF408FF 
 375      87926DE4 
 375      7F6AB4D9 
 376 0b95 116FB0E9 		.ascii	"\021o\260\351mq\006\243I\3570\307\2314\177\372\370\263"
 376      6D7106A3 
 376      49EF30C7 
 376      99347FFA 
 376      F8B3
 377 0ba7 E9BF9F3D 		.ascii	"\351\277\237=[\345\253\327'\232-\216yz\3072d\374U\224"
 377      5BE5ABD7 
 377      279A2D8E 
 377      797AC732 
 377      64FC5594 
 378 0bbb 2DC1BA30 		.ascii	"-\301\2720\301\020?}\001`\354\323#\226\314{\377\255"
 378      C1103F7D 
 378      0160ECD3 
 378      2396CC7B 
 378      FFAD
 379 0bcd 28E3525B 		.ascii	"(\343R[\202\311n\217\262\331\255\306\351\306\004\223"
 379      82C96E8F 
 379      B2D9ADC6 
 379      E9C60493 
 380 0bdd C1614D88 		.ascii	"\301aM\210z/r\216g\2059\336fMpD-\264$F\031\022\342\243"
 380      7A2F728E 
 380      678539DE 
 380      664D7044 
 380      2DB42446 
 381 0bf5 7E19F95E 		.ascii	"~\031\371^\344lRz\307b\265\230\3361\031\242\315Qf\213"
 381      E46C527A 
 381      C762B598 
 381      DE3119A2 
 381      CD51668B 
 382 0c09 312E31C6 		.ascii	"1.1\306\024\025o0\306\232-\246(}\214i\201!1\316\241"
 382      14156F30 
 382      C69A2DA6 
 382      287D8C69 
ARM GAS  C:\Users\info\AppData\Local\Temp\ccjWH08o.s 			page 30


 382      812131CE 
 383 0c1e 772CB599 		.ascii	"w,\265\231\354\221\261*\037\311\224E\377/K\354K\355"
 383      EC91B12A 
 383      1FC99445 
 383      FF2F4BEC 
 383      4BED
 384 0c30 517ABB23 		.ascii	"Qz\273#\006\324\202\372\260\310\310\250\304y\013\347"
 384      06D482FA 
 384      B0C8C8A8 
 384      C4790BE7 
 385 0c40 E88DF604 		.ascii	"\350\215\366\004#\224\226\314\323\307\320Vk\244Q\345"
 385      239496CC 
 385      D3C7D056 
 385      6BA451E5 
 386 0c50 27F9D01E 		.ascii	"'\371\320\036k]\254\343\333\002bL\321\326D\0138\326"
 386      6B5DACE3 
 386      DB02624C 
 386      D1D6440B 
 386      38D6
 387 0c62 EE30384C 		.ascii	"\35608L?r\263q\006\273Co3[X\375O\334\365\256Q\273\233"
 387      3F72B371 
 387      06BB436F 
 387      335B58FD 
 387      4FDCF5AE 
 388 0c79 FC16DACC 		.ascii	"\374\026\332\314V=\214\014j\265\211\216\005\363X5\010"
 388      563D8C0C 
 388      6AB5898E 
 388      05F35835 
 388      08
 389 0c8a 5E6406BC 		.ascii	"^d\006\274!&\206\214\332\317<\307H\032\022\034\246\030"
 389      2126868C 
 389      DACF3CC7 
 389      481A121C 
 389      A618
 390 0c9c 5A96EA43 		.ascii	"Z\226\352C\314v\375\002\253\305\2417[\026\231\022\354"
 390      CC76FD02 
 390      ABC5A137 
 390      5B169912 
 390      EC
 391 0cad 267DBC35 		.ascii	"&}\2745\306\244Y\242\267.X`794&\213\321\012\343[\250"
 391      C6A459A2 
 391      B72E5860 
 391      37393426 
 391      8BD10AE3 
 392 0cc3 65133DFB 		.ascii	"e\023=\373}\275C\343*\250I?\337\350D\273\336\030g5~"
 392      7DBD43E3 
 392      2AA8493F 
 392      DFE844BB 
 392      DE186735 
 393 0cd8 2941E6CE 		.ascii	")A\346\316\221 \2440\225\332f\260\304\200\331q\206\245"
 393      9120A430 
 393      95DA66B0 
 393      C480D971 
 393      86A5
 394 0cea 7A63B41F 		.ascii	"zc\264\037\035|\274}!\224}\242\227:L\360\357m4\304\300"
 394      1D7CBC7D 
 394      21947DA2 
ARM GAS  C:\Users\info\AppData\Local\Temp\ccjWH08o.s 			page 31


 394      973A4CF0 
 394      EF6D34C4 
 395 0cff 9F36C66C 		.ascii	"\2376\306l\2671\224\217\305\264\304\001\377\314U\306"
 395      B731948F 
 395      C5B4C401 
 395      FFCC55C6 
 396 0d0f 58430261 		.ascii	"XC\002a\\\355f\313\002\253\237\315\274\304\024\247_"
 396      5CED66CB 
 396      02AB9FCD 
 396      BCC414A7 
 396      5F
 397 0d20 6C8E71C4 		.ascii	"l\216q\304N]\020g\266\021\273\365.\273\247\270\274\344"
 397      4E5D1067 
 397      B611BBF5 
 397      2EBBA7B8 
 397      BCE4
 398 0d32 AAF02361 		.ascii	"\252\360#a\253\2175\231\027\306:\264\264L{\206,N0\203"
 398      AB8F3599 
 398      17C63AB4 
 398      B44C7B86 
 398      2C4E3083 
 399 0d46 09B6C438 		.ascii	"\011\266\3048\273T\243\267\330\203b\014\016\203\036"
 399      BB54A3B7 
 399      D883620C 
 399      0E831E
 400 0d55 3A25DA20 		.ascii	":%\332 \332\343MP\025B<\346\036\251~\366\254Y_~\370"
 400      DAE34D50 
 400      15423CE6 
 400      1EA97EF6 
 400      AC595F7E 
 401 0d6a 95C66E33 		.ascii	"\225\306n3Sw\351\354P\307Zb\277\012\"\214\247\300\251"
 401      5377E9EC 
 401      50C75A62 
 401      BF0A228C 
 401      A7C0A9
 402 0d7d F69849F2 		.ascii	"\366\230I\362\202lV\230]\360\277\311\241_l0;\300!!\214"
 402      826C5698 
 402      5DF0BFC9 
 402      A15F6C30 
 402      3BC02121 
 403 0d92 E37BC6DB 		.ascii	"\343{\306\333C!ba\370f\233\036\306n\210&f\023\264\005"
 403      43216261 
 403      F8669B1E 
 403      C66E8826 
 403      6613B405 
 404 0da6 1A8800DA 		.ascii	"\032\210\000\332b\262\360\015A\036\3508\323\"S\334T"
 404      62B2F00D 
 404      411EE838 
 404      D32253DC 
 404      54
 405 0db7 1E466B42 		.ascii	"\036FkBY\004r\356\204\320HH4:t\314\253\314O!/\0054D"
 405      590472EE 
 405      84D04848 
 405      343A74CC 
 405      ABCC4F21 
 406 0dcf 79F0CB5D 		.ascii	"y\360\313]\035lN\231\204`w\240\262\210$S\355M\333\035"
 406      1D6C4E99 
ARM GAS  C:\Users\info\AppData\Local\Temp\ccjWH08o.s 			page 32


 406      846077A0 
 406      B2882453 
 406      ED4DDB1D 
 407 0de3 81F4EF53 		.ascii	"\201\364\357S\342\207OI\350\007\311\374\037\330t\331"
 407      E2874F49 
 407      E807C9FC 
 407      1FD874D9 
 408 0df3 BDD932F1 		.ascii	"\275\3312\361Z\242\207\361a\243\305\241\241ses$La2\010"
 408      5AA287F1 
 408      61A3C5A1 
 408      A1736573 
 408      244C6132 
 409 0e08 C714792D 		.ascii	"\307\024y-%\030?\271\332\361_#\223\023\310"
 409      25183FB9 
 409      DAF15F23 
 409      9313C8
 410              		.text
 411              		.section	.gnu.lto_.symtab.792a2c93,"",%progbits
 412 0000 6269746D 		.ascii	"bitmap_place_tile\000"
 412      61705F70 
 412      6C616365 
 412      5F74696C 
 412      6500
 413 0012 00       		.ascii	"\000"
 414 0013 00       		.ascii	"\000"
 415 0014 00       		.ascii	"\000"
 416 0015 00000000 		.ascii	"\000\000\000\000\000\000\000\000"
 416      00000000 
 417 001d B9000000 		.ascii	"\271\000\000\000"
 418 0021 6269746D 		.ascii	"bitmap\000"
 418      617000
 419 0028 00       		.ascii	"\000"
 420 0029 04       		.ascii	"\004"
 421 002a 00       		.ascii	"\000"
 422 002b 80000000 		.ascii	"\200\000\000\000\000\000\000\000"
 422      00000000 
 423 0033 59010000 		.ascii	"Y\001\000\000"
 424 0037 6269746D 		.ascii	"bitmap_show\000"
 424      61705F73 
 424      686F7700 
 425 0043 00       		.ascii	"\000"
 426 0044 00       		.ascii	"\000"
 427 0045 00       		.ascii	"\000"
 428 0046 00000000 		.ascii	"\000\000\000\000\000\000\000\000"
 428      00000000 
 429 004e BC000000 		.ascii	"\274\000\000\000"
 430 0052 75387838 		.ascii	"u8x8_d_stdio\000"
 430      5F645F73 
 430      7464696F 
 430      00
 431 005f 00       		.ascii	"\000"
 432 0060 00       		.ascii	"\000"
 433 0061 00       		.ascii	"\000"
 434 0062 00000000 		.ascii	"\000\000\000\000\000\000\000\000"
 434      00000000 
 435 006a 4B010000 		.ascii	"K\001\000\000"
 436 006e 75387838 		.ascii	"u8x8_SetupStdio\000"
ARM GAS  C:\Users\info\AppData\Local\Temp\ccjWH08o.s 			page 33


 436      5F536574 
 436      75705374 
 436      64696F00 
 437 007e 00       		.ascii	"\000"
 438 007f 00       		.ascii	"\000"
 439 0080 00       		.ascii	"\000"
 440 0081 00000000 		.ascii	"\000\000\000\000\000\000\000\000"
 440      00000000 
 441 0089 4F010000 		.ascii	"O\001\000\000"
 442 008d 75387838 		.ascii	"u8x8_SetupDefaults\000"
 442      5F536574 
 442      75704465 
 442      6661756C 
 442      747300
 443 00a0 00       		.ascii	"\000"
 444 00a1 02       		.ascii	"\002"
 445 00a2 00       		.ascii	"\000"
 446 00a3 00000000 		.ascii	"\000\000\000\000\000\000\000\000"
 446      00000000 
 447 00ab 52010000 		.ascii	"R\001\000\000"
 448              		.text
 449              		.section	.gnu.lto_.opts,"",%progbits
 450 0000 272D666D 		.ascii	"'-fmath-errno' '-fsigned-zeros' '-ftrapping-math' '"
 450      6174682D 
 450      6572726E 
 450      6F272027 
 450      2D667369 
 451 0033 2D666E6F 		.ascii	"-fno-trapv' '-fno-strict-overflow' '-fno-openmp' '-"
 451      2D747261 
 451      70762720 
 451      272D666E 
 451      6F2D7374 
 452 0066 666E6F2D 		.ascii	"fno-openacc' '-mcpu=cortex-m3' '-mthumb' '-g' '-Og'"
 452      6F70656E 
 452      61636327 
 452      20272D6D 
 452      6370753D 
 453 0099 20272D66 		.ascii	" '-ffunction-sections' '-ffat-lto-objects' '-flto'\000"
 453      66756E63 
 453      74696F6E 
 453      2D736563 
 453      74696F6E 
 454              		.text
 455              		.cfi_sections	.debug_frame
 456              		.section	.text.bitmap_place_tile,"ax",%progbits
 457              		.align	2
 458              		.global	bitmap_place_tile
 459              		.thumb
 460              		.thumb_func
 461              		.type	bitmap_place_tile, %function
 462              	bitmap_place_tile:
 463              	.LFB1:
 464              		.file 1 "..\\u8g2_csrc\\u8x8_d_stdio.c"
   1:..\u8g2_csrc/u8x8_d_stdio.c **** /*
   2:..\u8g2_csrc/u8x8_d_stdio.c **** 
   3:..\u8g2_csrc/u8x8_d_stdio.c ****   u8x8_d_stdio.c
   4:..\u8g2_csrc/u8x8_d_stdio.c **** 
ARM GAS  C:\Users\info\AppData\Local\Temp\ccjWH08o.s 			page 34


   5:..\u8g2_csrc/u8x8_d_stdio.c ****   Universal 8bit Graphics Library (https://github.com/olikraus/u8g2/)
   6:..\u8g2_csrc/u8x8_d_stdio.c **** 
   7:..\u8g2_csrc/u8x8_d_stdio.c ****   Copyright (c) 2016, olikraus@gmail.com
   8:..\u8g2_csrc/u8x8_d_stdio.c ****   All rights reserved.
   9:..\u8g2_csrc/u8x8_d_stdio.c **** 
  10:..\u8g2_csrc/u8x8_d_stdio.c ****   Redistribution and use in source and binary forms, with or without modification, 
  11:..\u8g2_csrc/u8x8_d_stdio.c ****   are permitted provided that the following conditions are met:
  12:..\u8g2_csrc/u8x8_d_stdio.c **** 
  13:..\u8g2_csrc/u8x8_d_stdio.c ****   * Redistributions of source code must retain the above copyright notice, this list 
  14:..\u8g2_csrc/u8x8_d_stdio.c ****     of conditions and the following disclaimer.
  15:..\u8g2_csrc/u8x8_d_stdio.c ****     
  16:..\u8g2_csrc/u8x8_d_stdio.c ****   * Redistributions in binary form must reproduce the above copyright notice, this 
  17:..\u8g2_csrc/u8x8_d_stdio.c ****     list of conditions and the following disclaimer in the documentation and/or other 
  18:..\u8g2_csrc/u8x8_d_stdio.c ****     materials provided with the distribution.
  19:..\u8g2_csrc/u8x8_d_stdio.c **** 
  20:..\u8g2_csrc/u8x8_d_stdio.c ****   THIS SOFTWARE IS PROVIDED BY THE COPYRIGHT HOLDERS AND 
  21:..\u8g2_csrc/u8x8_d_stdio.c ****   CONTRIBUTORS "AS IS" AND ANY EXPRESS OR IMPLIED WARRANTIES, 
  22:..\u8g2_csrc/u8x8_d_stdio.c ****   INCLUDING, BUT NOT LIMITED TO, THE IMPLIED WARRANTIES OF 
  23:..\u8g2_csrc/u8x8_d_stdio.c ****   MERCHANTABILITY AND FITNESS FOR A PARTICULAR PURPOSE ARE 
  24:..\u8g2_csrc/u8x8_d_stdio.c ****   DISCLAIMED. IN NO EVENT SHALL THE COPYRIGHT HOLDER OR 
  25:..\u8g2_csrc/u8x8_d_stdio.c ****   CONTRIBUTORS BE LIABLE FOR ANY DIRECT, INDIRECT, INCIDENTAL, 
  26:..\u8g2_csrc/u8x8_d_stdio.c ****   SPECIAL, EXEMPLARY, OR CONSEQUENTIAL DAMAGES (INCLUDING, BUT 
  27:..\u8g2_csrc/u8x8_d_stdio.c ****   NOT LIMITED TO, PROCUREMENT OF SUBSTITUTE GOODS OR SERVICES; 
  28:..\u8g2_csrc/u8x8_d_stdio.c ****   LOSS OF USE, DATA, OR PROFITS; OR BUSINESS INTERRUPTION) HOWEVER 
  29:..\u8g2_csrc/u8x8_d_stdio.c ****   CAUSED AND ON ANY THEORY OF LIABILITY, WHETHER IN CONTRACT, 
  30:..\u8g2_csrc/u8x8_d_stdio.c ****   STRICT LIABILITY, OR TORT (INCLUDING NEGLIGENCE OR OTHERWISE) 
  31:..\u8g2_csrc/u8x8_d_stdio.c ****   ARISING IN ANY WAY OUT OF THE USE OF THIS SOFTWARE, EVEN IF 
  32:..\u8g2_csrc/u8x8_d_stdio.c ****   ADVISED OF THE POSSIBILITY OF SUCH DAMAGE.  
  33:..\u8g2_csrc/u8x8_d_stdio.c **** 
  34:..\u8g2_csrc/u8x8_d_stdio.c **** */
  35:..\u8g2_csrc/u8x8_d_stdio.c **** 
  36:..\u8g2_csrc/u8x8_d_stdio.c **** #include "u8x8.h"
  37:..\u8g2_csrc/u8x8_d_stdio.c **** 
  38:..\u8g2_csrc/u8x8_d_stdio.c **** #include <stdio.h>
  39:..\u8g2_csrc/u8x8_d_stdio.c **** 
  40:..\u8g2_csrc/u8x8_d_stdio.c **** #define W 8
  41:..\u8g2_csrc/u8x8_d_stdio.c **** #define H 2
  42:..\u8g2_csrc/u8x8_d_stdio.c **** 
  43:..\u8g2_csrc/u8x8_d_stdio.c **** uint8_t bitmap[W*H*8];
  44:..\u8g2_csrc/u8x8_d_stdio.c **** 
  45:..\u8g2_csrc/u8x8_d_stdio.c **** void bitmap_place_tile(uint8_t x, uint8_t y, uint8_t *tile)
  46:..\u8g2_csrc/u8x8_d_stdio.c **** {
 465              		.loc 1 46 0
 466              		.cfi_startproc
 467              		@ args = 0, pretend = 0, frame = 0
 468              		@ frame_needed = 0, uses_anonymous_args = 0
 469              		@ link register save eliminated.
 470              	.LVL0:
 471 0000 70B4     		push	{r4, r5, r6}
 472              		.cfi_def_cfa_offset 12
 473              		.cfi_offset 4, -12
 474              		.cfi_offset 5, -8
 475              		.cfi_offset 6, -4
 476              	.LVL1:
  47:..\u8g2_csrc/u8x8_d_stdio.c ****   uint8_t i;
  48:..\u8g2_csrc/u8x8_d_stdio.c ****   for(i = 0; i < 8; i++ )
 477              		.loc 1 48 0
ARM GAS  C:\Users\info\AppData\Local\Temp\ccjWH08o.s 			page 35


 478 0002 0023     		movs	r3, #0
 479 0004 08E0     		b	.L2
 480              	.LVL2:
 481              	.L3:
  49:..\u8g2_csrc/u8x8_d_stdio.c ****     bitmap[x*8+y*W*8+i] = tile[i];
 482              		.loc 1 49 0 discriminator 3
 483 0006 00EBC104 		add	r4, r0, r1, lsl #3
 484 000a 03EBC404 		add	r4, r3, r4, lsl #3
 485 000e D65C     		ldrb	r6, [r2, r3]	@ zero_extendqisi2
 486 0010 034D     		ldr	r5, .L5
 487 0012 2E55     		strb	r6, [r5, r4]
  48:..\u8g2_csrc/u8x8_d_stdio.c ****     bitmap[x*8+y*W*8+i] = tile[i];
 488              		.loc 1 48 0 discriminator 3
 489 0014 0133     		adds	r3, r3, #1
 490              	.LVL3:
 491 0016 DBB2     		uxtb	r3, r3
 492              	.LVL4:
 493              	.L2:
  48:..\u8g2_csrc/u8x8_d_stdio.c ****     bitmap[x*8+y*W*8+i] = tile[i];
 494              		.loc 1 48 0 is_stmt 0 discriminator 1
 495 0018 072B     		cmp	r3, #7
 496 001a F4D9     		bls	.L3
  50:..\u8g2_csrc/u8x8_d_stdio.c **** }
 497              		.loc 1 50 0 is_stmt 1
 498 001c 70BC     		pop	{r4, r5, r6}
 499              		.cfi_restore 6
 500              		.cfi_restore 5
 501              		.cfi_restore 4
 502              		.cfi_def_cfa_offset 0
 503 001e 7047     		bx	lr
 504              	.L6:
 505              		.align	2
 506              	.L5:
 507 0020 00000000 		.word	bitmap
 508              		.cfi_endproc
 509              	.LFE1:
 510              		.size	bitmap_place_tile, .-bitmap_place_tile
 511              		.section	.text.bitmap_show,"ax",%progbits
 512              		.align	2
 513              		.global	bitmap_show
 514              		.thumb
 515              		.thumb_func
 516              		.type	bitmap_show, %function
 517              	bitmap_show:
 518              	.LFB2:
  51:..\u8g2_csrc/u8x8_d_stdio.c **** 
  52:..\u8g2_csrc/u8x8_d_stdio.c **** void bitmap_show(void)
  53:..\u8g2_csrc/u8x8_d_stdio.c **** {
 519              		.loc 1 53 0
 520              		.cfi_startproc
 521              		@ args = 0, pretend = 0, frame = 0
 522              		@ frame_needed = 0, uses_anonymous_args = 0
 523 0000 38B5     		push	{r3, r4, r5, lr}
 524              		.cfi_def_cfa_offset 16
 525              		.cfi_offset 3, -16
 526              		.cfi_offset 4, -12
 527              		.cfi_offset 5, -8
ARM GAS  C:\Users\info\AppData\Local\Temp\ccjWH08o.s 			page 36


 528              		.cfi_offset 14, -4
 529              	.LVL5:
  54:..\u8g2_csrc/u8x8_d_stdio.c ****   int x, y;
  55:..\u8g2_csrc/u8x8_d_stdio.c ****   for( y = 0; y < H*8; y++ )
 530              		.loc 1 55 0
 531 0002 0025     		movs	r5, #0
 532 0004 1EE0     		b	.L8
 533              	.LVL6:
 534              	.L12:
  56:..\u8g2_csrc/u8x8_d_stdio.c ****   {
  57:..\u8g2_csrc/u8x8_d_stdio.c ****     for( x = 0; x < W*8; x++ )
  58:..\u8g2_csrc/u8x8_d_stdio.c ****     {
  59:..\u8g2_csrc/u8x8_d_stdio.c ****       if ( (bitmap[x+(y/8)*W*8] & (1<<((y&7)))) != 0 )
 535              		.loc 1 59 0
 536 0006 2B46     		mov	r3, r5
 537 0008 002D     		cmp	r5, #0
 538 000a 00DA     		bge	.L9
 539              	.LVL7:
 540 000c EB1D     		adds	r3, r5, #7
 541              	.LVL8:
 542              	.L9:
 543 000e DB10     		asrs	r3, r3, #3
 544 0010 04EB8313 		add	r3, r4, r3, lsl #6
 545 0014 0D4A     		ldr	r2, .L16
 546 0016 D35C     		ldrb	r3, [r2, r3]	@ zero_extendqisi2
 547 0018 05F00702 		and	r2, r5, #7
 548 001c 1341     		asrs	r3, r3, r2
 549 001e 13F0010F 		tst	r3, #1
 550 0022 03D0     		beq	.L10
  60:..\u8g2_csrc/u8x8_d_stdio.c ****       {
  61:..\u8g2_csrc/u8x8_d_stdio.c **** 	printf("*");
 551              		.loc 1 61 0
 552 0024 2A20     		movs	r0, #42
 553 0026 FFF7FEFF 		bl	putchar
 554              	.LVL9:
 555 002a 02E0     		b	.L11
 556              	.L10:
  62:..\u8g2_csrc/u8x8_d_stdio.c ****       }
  63:..\u8g2_csrc/u8x8_d_stdio.c ****       else
  64:..\u8g2_csrc/u8x8_d_stdio.c ****       {
  65:..\u8g2_csrc/u8x8_d_stdio.c **** 	printf(".");
 557              		.loc 1 65 0
 558 002c 2E20     		movs	r0, #46
 559 002e FFF7FEFF 		bl	putchar
 560              	.LVL10:
 561              	.L11:
  57:..\u8g2_csrc/u8x8_d_stdio.c ****     {
 562              		.loc 1 57 0 discriminator 2
 563 0032 0134     		adds	r4, r4, #1
 564              	.LVL11:
 565 0034 00E0     		b	.L13
 566              	.LVL12:
 567              	.L14:
 568 0036 0024     		movs	r4, #0
 569              	.L13:
 570              	.LVL13:
  57:..\u8g2_csrc/u8x8_d_stdio.c ****     {
ARM GAS  C:\Users\info\AppData\Local\Temp\ccjWH08o.s 			page 37


 571              		.loc 1 57 0 is_stmt 0 discriminator 1
 572 0038 3F2C     		cmp	r4, #63
 573 003a E4DD     		ble	.L12
  66:..\u8g2_csrc/u8x8_d_stdio.c ****       }
  67:..\u8g2_csrc/u8x8_d_stdio.c ****     }
  68:..\u8g2_csrc/u8x8_d_stdio.c ****     printf("\n");
 574              		.loc 1 68 0 is_stmt 1 discriminator 2
 575 003c 0A20     		movs	r0, #10
 576 003e FFF7FEFF 		bl	putchar
 577              	.LVL14:
  55:..\u8g2_csrc/u8x8_d_stdio.c ****   {
 578              		.loc 1 55 0 discriminator 2
 579 0042 0135     		adds	r5, r5, #1
 580              	.LVL15:
 581              	.L8:
  55:..\u8g2_csrc/u8x8_d_stdio.c ****   {
 582              		.loc 1 55 0 is_stmt 0 discriminator 1
 583 0044 0F2D     		cmp	r5, #15
 584 0046 F6DD     		ble	.L14
  69:..\u8g2_csrc/u8x8_d_stdio.c ****   }
  70:..\u8g2_csrc/u8x8_d_stdio.c **** }
 585              		.loc 1 70 0 is_stmt 1
 586 0048 38BD     		pop	{r3, r4, r5, pc}
 587              	.LVL16:
 588              	.L17:
 589 004a 00BF     		.align	2
 590              	.L16:
 591 004c 00000000 		.word	bitmap
 592              		.cfi_endproc
 593              	.LFE2:
 594              		.size	bitmap_show, .-bitmap_show
 595              		.section	.text.u8x8_d_stdio,"ax",%progbits
 596              		.align	2
 597              		.global	u8x8_d_stdio
 598              		.thumb
 599              		.thumb_func
 600              		.type	u8x8_d_stdio, %function
 601              	u8x8_d_stdio:
 602              	.LFB3:
  71:..\u8g2_csrc/u8x8_d_stdio.c **** 
  72:..\u8g2_csrc/u8x8_d_stdio.c **** 
  73:..\u8g2_csrc/u8x8_d_stdio.c **** uint8_t u8x8_d_stdio(U8X8_UNUSED u8x8_t *u8x8, uint8_t msg, uint8_t arg_int, void *arg_ptr)
  74:..\u8g2_csrc/u8x8_d_stdio.c **** {
 603              		.loc 1 74 0
 604              		.cfi_startproc
 605              		@ args = 0, pretend = 0, frame = 0
 606              		@ frame_needed = 0, uses_anonymous_args = 0
 607              	.LVL17:
 608 0000 08B5     		push	{r3, lr}
 609              		.cfi_def_cfa_offset 8
 610              		.cfi_offset 3, -8
 611              		.cfi_offset 14, -4
  75:..\u8g2_csrc/u8x8_d_stdio.c ****   switch(msg)
 612              		.loc 1 75 0
 613 0002 0B29     		cmp	r1, #11
 614 0004 02D0     		beq	.L20
 615 0006 0F29     		cmp	r1, #15
ARM GAS  C:\Users\info\AppData\Local\Temp\ccjWH08o.s 			page 38


 616 0008 04D0     		beq	.L21
 617 000a 08E0     		b	.L19
 618              	.L20:
  76:..\u8g2_csrc/u8x8_d_stdio.c ****   {
  77:..\u8g2_csrc/u8x8_d_stdio.c ****     case U8X8_MSG_DISPLAY_INIT:
  78:..\u8g2_csrc/u8x8_d_stdio.c ****       break;
  79:..\u8g2_csrc/u8x8_d_stdio.c ****     case U8X8_MSG_DISPLAY_SET_POWER_SAVE:
  80:..\u8g2_csrc/u8x8_d_stdio.c ****       if ( arg_int == 0 )
 619              		.loc 1 80 0
 620 000c 3AB9     		cbnz	r2, .L19
  81:..\u8g2_csrc/u8x8_d_stdio.c **** 	bitmap_show();
 621              		.loc 1 81 0
 622 000e FFF7FEFF 		bl	bitmap_show
 623              	.LVL18:
 624 0012 04E0     		b	.L19
 625              	.LVL19:
 626              	.L21:
  82:..\u8g2_csrc/u8x8_d_stdio.c ****       break;
  83:..\u8g2_csrc/u8x8_d_stdio.c ****     case U8X8_MSG_DISPLAY_SET_CONTRAST:
  84:..\u8g2_csrc/u8x8_d_stdio.c ****       break;
  85:..\u8g2_csrc/u8x8_d_stdio.c ****     case U8X8_MSG_DISPLAY_DRAW_TILE:      
  86:..\u8g2_csrc/u8x8_d_stdio.c ****       bitmap_place_tile(((u8x8_tile_t *)arg_ptr)->x_pos, ((u8x8_tile_t *)arg_ptr)->y_pos, ((u8x8_ti
 627              		.loc 1 86 0
 628 0014 1A68     		ldr	r2, [r3]
 629              	.LVL20:
 630 0016 9979     		ldrb	r1, [r3, #6]	@ zero_extendqisi2
 631              	.LVL21:
 632 0018 5879     		ldrb	r0, [r3, #5]	@ zero_extendqisi2
 633              	.LVL22:
 634 001a FFF7FEFF 		bl	bitmap_place_tile
 635              	.LVL23:
 636              	.L19:
  87:..\u8g2_csrc/u8x8_d_stdio.c ****       break;
  88:..\u8g2_csrc/u8x8_d_stdio.c ****     default:
  89:..\u8g2_csrc/u8x8_d_stdio.c ****       break;
  90:..\u8g2_csrc/u8x8_d_stdio.c ****   }
  91:..\u8g2_csrc/u8x8_d_stdio.c ****   return 1;
  92:..\u8g2_csrc/u8x8_d_stdio.c **** }
 637              		.loc 1 92 0
 638 001e 0120     		movs	r0, #1
 639 0020 08BD     		pop	{r3, pc}
 640              		.cfi_endproc
 641              	.LFE3:
 642              		.size	u8x8_d_stdio, .-u8x8_d_stdio
 643 0022 00BF     		.section	.text.u8x8_SetupStdio,"ax",%progbits
 644              		.align	2
 645              		.global	u8x8_SetupStdio
 646              		.thumb
 647              		.thumb_func
 648              		.type	u8x8_SetupStdio, %function
 649              	u8x8_SetupStdio:
 650              	.LFB4:
  93:..\u8g2_csrc/u8x8_d_stdio.c **** 
  94:..\u8g2_csrc/u8x8_d_stdio.c **** 
  95:..\u8g2_csrc/u8x8_d_stdio.c **** 
  96:..\u8g2_csrc/u8x8_d_stdio.c **** void u8x8_SetupStdio(u8x8_t *u8x8)
  97:..\u8g2_csrc/u8x8_d_stdio.c **** {
ARM GAS  C:\Users\info\AppData\Local\Temp\ccjWH08o.s 			page 39


 651              		.loc 1 97 0
 652              		.cfi_startproc
 653              		@ args = 0, pretend = 0, frame = 0
 654              		@ frame_needed = 0, uses_anonymous_args = 0
 655              	.LVL24:
 656 0000 10B5     		push	{r4, lr}
 657              		.cfi_def_cfa_offset 8
 658              		.cfi_offset 4, -8
 659              		.cfi_offset 14, -4
 660 0002 0446     		mov	r4, r0
  98:..\u8g2_csrc/u8x8_d_stdio.c ****   u8x8_SetupDefaults(u8x8);
 661              		.loc 1 98 0
 662 0004 FFF7FEFF 		bl	u8x8_SetupDefaults
 663              	.LVL25:
  99:..\u8g2_csrc/u8x8_d_stdio.c ****   u8x8->display_cb = u8x8_d_stdio;
 664              		.loc 1 99 0
 665 0008 014B     		ldr	r3, .L25
 666 000a A360     		str	r3, [r4, #8]
 667 000c 10BD     		pop	{r4, pc}
 668              	.LVL26:
 669              	.L26:
 670 000e 00BF     		.align	2
 671              	.L25:
 672 0010 00000000 		.word	u8x8_d_stdio
 673              		.cfi_endproc
 674              	.LFE4:
 675              		.size	u8x8_SetupStdio, .-u8x8_SetupStdio
 676              		.comm	bitmap,128,4
 677              		.text
 678              	.Letext0:
 679              		.file 2 "c:\\program files (x86)\\cypress\\psoc creator\\4.2\\psoc creator\\import\\gnu\\arm\\5.4.
 680              		.file 3 "c:\\program files (x86)\\cypress\\psoc creator\\4.2\\psoc creator\\import\\gnu\\arm\\5.4.
 681              		.file 4 "..\\u8g2_csrc\\u8x8.h"
 682              		.file 5 "<built-in>"