ARM GAS  C:\Users\info\AppData\Local\Temp\ccKyKd3g.s 			page 1


   1              		.syntax unified
   2              		.cpu cortex-m3
   3              		.fpu softvfp
   4              		.eabi_attribute 20, 1
   5              		.eabi_attribute 21, 1
   6              		.eabi_attribute 23, 3
   7              		.eabi_attribute 24, 1
   8              		.eabi_attribute 25, 1
   9              		.eabi_attribute 26, 1
  10              		.eabi_attribute 30, 1
  11              		.eabi_attribute 34, 1
  12              		.eabi_attribute 18, 4
  13              		.thumb
  14              		.syntax unified
  15              		.file	"u8x8_input_value.c"
  16              		.text
  17              	.Ltext0:
  18              		.section	.gnu.lto_.profile.792a6780,"",%progbits
  19 0000 789C6361 		.ascii	"x\234ca`d`e`\000\222/\0303\001\003\241\001^"
  19      60646065 
  19      6000922F 
  19      18330103 
  19      A1015E
  20              		.text
  21              		.section	.gnu.lto_.inline.792a6780,"",%progbits
  22 0000 789C558E 		.ascii	"x\234U\216\261\015\2000\014\004\337\301@\001$\231\200"
  22      B10D8030 
  22      0C04DFC1 
  22      40012499 
  22      80
  23 0011 91DC330F 		.ascii	"\221\3343\017\013\270e\004\306A\242d\003\032:Zb\220"
  23      0BB86504 
  23      C641A264 
  23      031A3A5A 
  23      6290
  24 0023 20FC37FE 		.ascii	" \3747\376{Y6\203`\232\361)\221\035\033\023\234\214"
  24      7B593683 
  24      609AF129 
  24      911D1B13 
  24      9C8C
  25 0035 4B843F07 		.ascii	"K\204?\007g\270\364\004\236z\263\012w\251V\231\372\233"
  25      67B8F404 
  25      9E7AB30A 
  25      77A95699 
  25      FA9B
  26 0047 AEC1FCD2 		.ascii	"\256\301\374\3225\024-\201\216\252\364\000\253<\346"
  26      35142D81 
  26      8EAAF400 
  26      AB3CE6
  27 0056 0E56AAFC 		.ascii	"\016V\252\374h\025\262P\307tF\005OrM\372%\333{\207\242"
  27      6815B250 
  27      C7744605 
  27      4F724DFA 
  27      25DB7B87 
  28 006b BD0B5C06 		.ascii	"\275\013\\\006'&Y"
  28      272659
  29              		.text
ARM GAS  C:\Users\info\AppData\Local\Temp\ccKyKd3g.s 			page 2


  30              		.section	.gnu.lto_.jmpfuncs.792a6780,"",%progbits
  31 0000 789C6361 		.ascii	"x\234ca`d\000\001a\006\004`d\300\000\000\003H\000\032"
  31      60640001 
  31      61060460 
  31      64C00000 
  31      0348001A 
  32              		.text
  33              		.section	.gnu.lto_.pureconst.792a6780,"",%progbits
  34 0000 789C6361 		.ascii	"x\234ca`d`f`\000\222R\000\000r\000$"
  34      60646066 
  34      60009252 
  34      00007200 
  34      24
  35              		.text
  36              		.section	.gnu.lto_u8x8_UserInterfaceInputValue.792a6780,"",%progbits
  37 0000 789C9557 		.ascii	"x\234\225WmPT\347\025~\317}w\357~\262\273\260\254\037"
  37      6D5054E7 
  37      157ECF7D 
  37      77EF7EB2 
  37      BBB0AC1F 
  38 0014 4814354A 		.ascii	"H\0245Jq\004\0233*\265\216\375\230\351\237\376\352\344"
  38      71041333 
  38      2AB58EFD 
  38      98E99FFE 
  38      EAE4
  39 0026 775B9B51 		.ascii	"w[\233Q*\314Pu\024S\373\313\305e\301\261jic\214\232"
  39      2ACC5075 
  39      1453FBCB 
  39      C565C1B1 
  39      6A69638C 
  40 003b 4649320E 		.ascii	"FI2\016\246!\301\255&Q>\314\226 \030X\005\0045~$FL\324"
  40      A621C1AD 
  40      26513ECC 
  40      96201858 
  40      0504357E 
  41 0053 A6D1006A 		.ascii	"\246\321\000j\211\031\311\366\234\363\336\313\262,N"
  41      8919C9F6 
  41      9CF3DECB 
  41      B22C4E
  42 0062 E9CEECE5 		.ascii	"\351\316\354\345\336\363>\3179\347}\3169\357],\002\004"
  42      DEF33ECF 
  42      39E77DCE 
  42      39EF5D2C 
  42      0204
  43 0074 7DBC3E21 		.ascii	"}\274>!\326\341\337L|\204)\002\264\352sB\224\3335Mn"
  43      D6E1DF4C 
  43      7C842902 
  43      B4EA7342 
  43      94DB354D 
  44 0089 CF1541A7 		.ascii	"\317\025A\247\205\256n\011\026e\266hV6\353l\266\202"
  44      85AE6E09 
  44      1665B668 
  44      5636EB6C 
  44      B682
  45 009b AECC3A04 		.ascii	"\256\314:\004\324\215M\335\3744\240\331[$\342\034\347"
  45      D48D4DDD 
  45      FC34A0D9 
ARM GAS  C:\Users\info\AppData\Local\Temp\ccKyKd3g.s 			page 3


  45      5B24E21C 
  45      E7
  46 00ac 3A0402ED 		.ascii	":\004\002\355\220\251\326\035Z&\333\235\312\356\324"
  46      90A9D61D 
  46      5A26DB9D 
  46      CAEED4
  47 00bb DC03017C 		.ascii	"\334\003\001|t\325\024\342\223\313x\362\362\223[\363"
  47      74D514E2 
  47      93CB78F2 
  47      F2935BF3 
  48 00cb 70A8340E 		.ascii	"p\2504\016\225\006\036\345\301\0036u\343\325\322\031"
  48      95061EE5 
  48      C1033675 
  48      E3D5D219 
  49 00db ED63B4CF 		.ascii	"\355c\264\317x\262\361S\272\346gn\006s3\300\257(~\223"
  49      78B2F153 
  49      BAE6676E 
  49      067333C0 
  49      AF287E93 
  50 00ef 9B094037 		.ascii	"\233\011@7A;\210\255\232\264Xu[\300\356p\272\334i\036"
  50      413B88AD 
  50      9AB45875 
  50      5BC0EE70 
  50      BADC691E 
  51 0103 AF2F3DC3 		.ascii	"\257/=\303\237\011[\265\200P\237\207\332\210\006\235"
  51      9F095BB5 
  51      80509F87 
  51      DA88069D 
  52 0113 C367763A 		.ascii	"\303gv:\363j\203\301m\301\317\303\227\334\257\034\211"
  52      F36A83C1 
  52      6DC1CFC3 
  52      97DCAF1C 
  52      89
  53 0124 42580A11 		.ascii	"BX\012\021\327\004<\227\015\317d#\016j!\017\221=\025"
  53      D7043C97 
  53      0DCF6423 
  53      0E6A210F 
  53      913D15
  54 0137 47FF261F 		.ascii	"G\377&\037ha\011`\301\307\301\263\007nz\350Q\203\034"
  54      68610960 
  54      C1C7C1B3 
  54      076E7AE8 
  54      51831C
  55 014a 7CACE97B 		.ascii	"|\254\351{\363\232.\347\202\300\373\275\035}\367\322"
  55      F39A2EE7 
  55      82C0FBBD 
  55      1D7DF7D2 
  56 015a 720F93CF 		.ascii	"r\017\223\317`sQ\320\021\226\022\376\016\222|\276\005"
  56      607351D0 
  56      119612FE 
  56      0E927CBE 
  56      05
  57 016b D97004B2 		.ascii	"\331p\004\262\005\232\004\274\015\271\210\016\3569v"
  57      059A04BC 
  57      0DB9880E 
  57      EE3976
  58 017a 5ECA1F30 		.ascii	"^\312\0370s\260\273\272\332a0\377\322\346\016Vc2\026"
ARM GAS  C:\Users\info\AppData\Local\Temp\ccKyKd3g.s 			page 4


  58      73B0BBBA 
  58      DA6130FF 
  58      D2E60E56 
  58      633216
  59 018d A81BCFB5 		.ascii	"\250\033\317\265\010x\207\271\037\267\364\356\362\310"
  59      087887B9 
  59      1FB7F4EE 
  59      F2C8
  60 019b 02E60E77 		.ascii	"\002\346\016w\334\353\001\203{i\224\373\356\004\334"
  60      DCEB0183 
  60      7B6994FB 
  60      EE04DC
  61 01aa 7AE6DE6E 		.ascii	"z\346\336n\252\352\003\271\230\271\221\372\3355\232"
  61      AAEA03B9 
  61      98B991FA 
  61      DD359A
  62 01b9 C17DA95D 		.ascii	"\301}\251]q\255pt<\327* \302\334\232H\335\217e!S\377"
  62      71AD7074 
  62      3CD72A20 
  62      C2DC9A48 
  62      DD8F6521 
  63 01cf 147B546B 		.ascii	"\024{Tk7\250=\355\256\3403(\037\374C1\225\202\244'\034"
  63      37A83DED 
  63      AEE03328 
  63      1FFC4331 
  63      9582A427 
  64 01e4 63DEF6C7 		.ascii	"c\336\366\307\235\237:\344\217\230x\244w\377\253N\203"
  64      9D9F3AE4 
  64      8F9878A4 
  64      77FFAB4E 
  64      83
  65 01f5 F8C8241E 		.ascii	"\370\310$\036O!\276\307\304\233\375;{]r%\023_>\177\354"
  65      4F21BEC7 
  65      C49BFD3B 
  65      7B5D7225 
  65      135F3E7F 
  66 020a 5B53DE48 		.ascii	"[S\336H\207A|?\205\370\001\023#\035\321V\213\3749\023"
  66      87417C3F 
  66      85F80113 
  66      231DD156 
  66      8BFC3913 
  67 021e F71FEC8D 		.ascii	"\367\037\354\215\231\251>\3520\025:1\201B'!\227\010"
  67      99A93EEA 
  67      30153A31 
  67      81422721 
  67      9708
  68 0230 FBCA470E 		.ascii	"\373\312G\016y\344/\230\334\325\263\363\015\307\274"
  68      79E42F98 
  68      DCD5B3F3 
  68      0DC7BC
  69 023f 37891CBD 		.ascii	"7\211\034\275\374\373W\202\321\362\034\212\33306.}\020"
  69      FCFB5782 
  69      D1F21C8A 
  69      DB30362E 
  69      7D10
  70 0251 7AE17847 		.ascii	"z\341xG\033\310_2\355\344\241O\016\350\006\355\342\257"
  70      1BC85F32 
ARM GAS  C:\Users\info\AppData\Local\Temp\ccKyKd3g.s 			page 5


  70      EDE4A14F 
  70      0EE806ED 
  70      E2AF
  71 0263 83A19F10 		.ascii	"\203\241\237\020\251i\002\322\275\346\326=^\371<\223"
  71      A96902D2 
  71      BDE6D63D 
  71      5EF93C93 
  72 0273 EA1A8677 		.ascii	"\352\032\206wy\014R\237I:5\001\351@C\3256\247\374\015"
  72      790C529F 
  72      493A3501 
  72      E94043D5 
  72      36A7FC0D 
  73 0287 9342272E 		.ascii	"\223B'.5z\015\322y\223\024\235\200T\267\357\033\354"
  73      357A0DD2 
  73      7993149D 
  73      8054B7EF 
  73      1BEC
  74 0299 8ADF32E9 		.ascii	"\212\3372\351\352\375\376kf\244n\223\3242\001\251iG"
  74      EAFDFE6B 
  74      66A46E93 
  74      D43201A9 
  74      6947
  75 02ab E763BBFC 		.ascii	"\347c\273\374\035\223v\237\256\366\033\234S&\247u\002"
  75      1D93769F 
  75      AEF61B9C 
  75      5326A775 
  75      02
  76 02bc CE99DAA1 		.ascii	"\316\231\332\241\035 \213\231\363\341\243\355O\033\234"
  76      1D208B99 
  76      F3E1A3ED 
  76      4F1B9C
  77 02cb 2693D336 		.ascii	"&\223\3236\001\247?\362\375\313izE\020?9\320\016\363"
  77      01A73FF2 
  77      FDCB697A 
  77      45103F39 
  77      D00EF3
  78 02de E0347E3F 		.ascii	"\3404~?\302\357?\361\373!~\233\361\333\010\363hB\261"
  78      C2EF3FF1 
  78      FB217E9B 
  78      F1DB08F3 
  78      6842B1
  79 02f1 C86740C7 		.ascii	"\310g@\307\323MOA\032\250\372\347\243\301x<\024\214"
  79      D34D4F41 
  79      1AA8FAE7 
  79      A3C1783C 
  79      148C
  80 0303 365AEF7A 		.ascii	"6Z\357z\177\006\2020\030\021\021\222[\322\302W+_uA,"
  80      7F068230 
  80      18111192 
  80      5BD2C257 
  80      2B5F7541 
  81 0318 27508BBB 		.ascii	"'P\213\273\330\342\006\0323\017\266\204\356\025\024"
  81      D8E2061A 
  81      330FB684 
  81      EE1514
  82 0327 C20734B3 		.ascii	"\302\0074\263\351h\260e\220\325\317\260\000\273\235"
  82      E968B065 
ARM GAS  C:\Users\info\AppData\Local\Temp\ccKyKd3g.s 			page 6


  82      90D5CFB0 
  82      00BB9D
  83 0336 C2D7A940 		.ascii	"\302\327\251@\3235]P\"Y@=8\203\357\263\201zj&\221f\261"
  83      D3355D50 
  83      2259403D 
  83      3883EFB3 
  83      817A6A26 
  84 034d 21879CCC 		.ascii	"!\207\234\314\246\3479\234\317\\\276\316'k.Y\363\350"
  84      A6E7399C 
  84      CF5CBECE 
  84      276B2E59 
  84      F3E8
  85 035f B2807D2E 		.ascii	"\262\200}.\244\333|^/\240\333\305\324\243K\004\355o"
  85      A4DB7C5E 
  85      2FA0DBC5 
  85      D4A34B04 
  85      ED6F
  86 0371 295002CB 		.ascii	")P\002\313\200\246\244\220\223YN\213+\370v%\367\262"
  86      80A6A490 
  86      93594E8B 
  86      2BF87625 
  86      F7B2
  87 0383 1840A106 		.ascii	"\030@\241\006t1\250i\370G\336\202m\337\355\270\370\276"
  87      7431A869 
  87      F847DE82 
  87      6DDFEDB8 
  87      F8BE
  88 0395 24E542D2 		.ascii	"$\345B\322E\247U\270\245\313F\007\231U\035#\355\035"
  88      45A755B8 
  88      A5CB4607 
  88      99551D23 
  88      ED1D
  89 03a7 DBDD87E0 		.ascii	"\333\335\207\340\265r*\301&\032\245\220t\302\3078\031"
  89      B5722AC1 
  89      261AA590 
  89      74C2C738 
  89      19
  90 03b8 023AE010 		.ascii	"\002:\340\020\210~\330\026\\\306\302c9\320\005\031\242"
  90      887ED816 
  90      5CC6C263 
  90      39D00519 
  90      A2
  91 03c9 D74BD882 		.ascii	"\327K\330\202\032\241\213\367\252b\021'y\024\000\320"
  91      1AA18BF7 
  91      AA621127 
  91      791400D0 
  92 03d9 89CC3B50 		.ascii	"\211\314;P\021\035\334\254Bzh(N~}\325\266u$\270=\030"
  92      111DDCAC 
  92      427A6828 
  92      4E7E7DD5 
  92      B67524B8 
  93 03ef F485A53D 		.ascii	"\364\205\245=\256\321\033*\006[1\224;,\035\342\026\204"
  93      AED11B2A 
  93      065B3194 
  93      3B2C1DE2 
  93      1684
  94 0401 F656F681 		.ascii	"\366V\366\201\"x\221\303^\372A3\203\240\225\303\016"
ARM GAS  C:\Users\info\AppData\Local\Temp\ccKyKd3g.s 			page 7


  94      227891C3 
  94      5EFA4133 
  94      83A095C3 
  94      0E
  95 0412 07D8729A 		.ascii	"\007\330r\232\303\216n\004\337\177p\026\011\270\327"
  95      C38E6E04 
  95      DF7F7016 
  95      09B8D7
  96 0421 86C8A93C 		.ascii	"\206\310\251<\345&},B&m\025\217\001gH\372\340\034m\022"
  96      E5267D2C 
  96      42266D15 
  96      8F016748 
  96      FAE01C6D 
  97 0436 ED87BFD8 		.ascii	"\355\207\277\330\366\256mQ>\226\002\272p\307\337S\247"
  97      F6AE6D51 
  97      3E9602BA 
  97      70C7DF53 
  97      A7
  98 0447 09E88645 		.ascii	"\011\350\206E\354\321H+c\254?\333x\177.\014\010=\206"
  98      ECD1482B 
  98      63AC3FDB 
  98      787F2E0C 
  98      083D86
  99 045a BF83FB4E 		.ascii	"\277\203\373N\334\367,z\207\366\352\206\363\354\221"
  99      DCF72C7A 
  99      87F6EA86 
  99      F3EC91
 100 0469 DED0D08B 		.ascii	"\336\320\320\213\036o@\305\271P\326\350N3x\016\0065"
 100      1E6F40C5 
 100      B950D6E8 
 100      4E33780E 
 100      0635
 101 047b 294E4849 		.ascii	")NHI;\034y\312\334!-\2420\373*\277\263)x\000-J\010-"
 101      3B1C79CA 
 101      DC212DA2 
 101      30FB2ABF 
 101      B3297800 
 102 0493 810910E6 		.ascii	"\201\011\020\346he\3134\205\231\202\026\314\340t|8\352"
 102      6865CB34 
 102      85998216 
 102      CCE0747C 
 102      38EA
 103 04a5 A54475C4 		.ascii	"\245Du\304\366\215\321\2229S8\244\205\332\003C\372\204"
 103      F68DD192 
 103      395338A4 
 103      85DA0343 
 103      FA84
 104 04b7 B272A5A3 		.ascii	"\262r\245\243\373\333\024\220\206\352,\2272\034}\265"
 104      FBDB1490 
 104      86EA2C97 
 104      321C7DB5 
 105 04c7 CDADBC4F 		.ascii	"\315\255\274OO\251eZ\034\333L\300\005\256\245/$\247"
 105      4FA9655A 
 105      1CDB4CC0 
 105      05AEA52F 
 105      24A7
 106 04d9 86A56734 		.ascii	"\206\245g4\330G\344v\272\252\356\220\221\340\014\264"
ARM GAS  C:\Users\info\AppData\Local\Temp\ccKyKd3g.s 			page 8


 106      D847E476 
 106      BAAAEE90 
 106      91E00CB4 
 107 04e9 84645632 		.ascii	"\204dV2f\006\2079T\351Q\230\231O\012s\321\014\223Ma"
 107      66068739 
 107      54E95198 
 107      994F0A73 
 107      D10C934D 
 108 04fe D86FCC28 		.ascii	"\330o\314(\317,v=3\331\357,\325\022\261r\253\002\345"
 108      CF2C763D 
 108      33D9EF2C 
 108      D512B172 
 108      AB02E5
 109 0511 4CAE092E 		.ascii	"L\256\011.%\232\340\223\344&\230\235R\365\234\211\253"
 109      259AE093 
 109      E426989D 
 109      52F59C89 
 109      AB
 110 0522 7E995DF0 		.ascii	"~\231]\360\221ue\\\3251\323\331\344{\010\207\005\025"
 110      9175655C 
 110      D531D3D9 
 110      E47B0887 
 110      0515
 111 0534 D69AEA01 		.ascii	"\326\232\352\001K\"wF\262\261(V\263\017\216\353f\031"
 111      4B227746 
 111      B2B12856 
 111      B30F8EEB 
 111      6619
 112 0546 08CE7D70 		.ascii	"\010\316}pe\272r0\007-\2647s\253\214\231\243\372\240"
 112      65BA7230 
 112      072DB437 
 112      73AB8C99 
 112      A3FAA0
 113 0559 DFC0CC45 		.ascii	"\337\300\314EKR\341\0314\227\013\257'\012\317V\215\347"
 113      4B52E119 
 113      34970BAF 
 113      270ACF56 
 113      8DE7
 114 056b B5A78DF7 		.ascii	"\265\247\215\367(R\264\367\3065z\275^U\332\207\245\217"
 114      2852B4F7 
 114      C6357ABD 
 114      5E55DA87 
 114      A58F
 115 057d 0479D0AD 		.ascii	"\004y\320\255\306u2\202\012\270\306jHR\343SX\224\230"
 115      C6753282 
 115      0AB8C66A 
 115      4852E353 
 115      589498
 116 0590 D50B830E 		.ascii	"\325\013\203\016\225\356\374\311\025\346\263Da\256\033"
 116      95EEFCC9 
 116      15E6B344 
 116      61AE1B
 117 059f 8579DD68 		.ascii	"\205y\335h\315\334\361G\031\236\\\\\240\371)\005\252"
 117      CDDCF147 
 117      199E5C5C 
 117      A0F92905 
 117      AA
ARM GAS  C:\Users\info\AppData\Local\Temp\ccKyKd3g.s 			page 9


 118 05b0 C6D567A9 		.ascii	"\306\325g\251H\237'\212t\003\335\335\001\243G\363R4"
 118      489F278A 
 118      7403DDDD 
 118      01A347F3 
 118      5234
 119 05c2 488FE3B8 		.ascii	"H\217\343\270\010\350W\032\320\006p^0(\237_\031\252"
 119      08E8571A 
 119      D006705E 
 119      30289F5F 
 119      19AA
 120 05d4 13172AF2 		.ascii	"\023\027*\362\002^\311K\236\270\005\350\274*z\251\322"
 120      025EC94B 
 120      9EB805E8 
 120      BC2A7AA9 
 120      D2
 121 05e5 4876614A 		.ascii	"HvaJ\000\177\034K/\340\246\331\340\032;\302i\312Lr\236"
 121      007F1C4B 
 121      2FE0A6D9 
 121      E01A3BC2 
 121      69CA4C72 
 122 05fa CF2B0B93 		.ascii	"\317+\013\223\253\232\257 \267\016\350\012T\200\363"
 122      AB9AAF20 
 122      B70EE80A 
 122      5480F3
 123 0609 45D63B60 		.ascii	"E\326;`\233\270\242F\260/\314`\005\034,[\005\303\322"
 123      9BB8A246 
 123      B02FCC60 
 123      051C2C5B 
 123      05C3D2
 124 061c 5EFC3F4A 		.ascii	"^\374?J\373e\242\264\267\260\264\235\306\2211`\344\262"
 124      FB65A2B4 
 124      B7B0B49D 
 124      C6913160 
 124      E4B2
 125 062e 38257820 		.ascii	"8%x \216\015(\3406\007\307\372d\205\361<\372_\251\336"
 125      8E0D28E0 
 125      3607C7FA 
 125      6485F13C 
 125      FA5FA9DE 
 126 0642 3153CDE7 		.ascii	"1S\315\347T\027S\2528@\032U\302\022\213dbk[c\307h\200"
 126      541753AA 
 126      38401A55 
 126      C2128B64 
 126      626B5B63 
 127 0659 6CA2A65D 		.ascii	"l\242\246]H\\\363\207\244\325\217\225\300\264C\322\342"
 127      485CF387 
 127      A4D58F95 
 127      C0B443D2 
 127      E2
 128 066a 015C0B08 		.ascii	"\001\\\013\010\374W\001T\347\363\273Lr\347\017\267\245"
 128      FC570154 
 128      E7F3BB4C 
 128      72E70FB7 
 128      A5
 129 067b A96497A4 		.ascii	"\251d\227\244\204\237\032G\207\002\376e\366\376\264"
 129      849F1A47 
 129      8702FE65 
ARM GAS  C:\Users\info\AppData\Local\Temp\ccKyKd3g.s 			page 10


 129      F6FEB4
 130 068a 51E51B89 		.ascii	"Q\345\033\211\277\204\006\373J\350\376\256i\011\007"
 130      BF8406FB 
 130      4AE8FEAE 
 130      690907
 131 0699 BDB75EAF 		.ascii	"\275\267^\257p\253\243\267[\300W\220\255f]\206\244\337"
 131      70ABA3B7 
 131      5BC05790 
 131      AD665D86 
 131      A4DF
 132 06ab 8699B8F4 		.ascii	"\206\231\270\364\272\273\364r\266\213\026I/\347\275"
 132      BABBF472 
 132      B68B1649 
 132      2FE7BD
 133 06ba 91EB37E4 		.ascii	"\221\3537\3448\271\271\177\275Io\342\177\243\314\224"
 133      38B9B97F 
 133      BD496FE2 
 133      7FA3CC94 
 134 06ca 2F1D0D71 		.ascii	"/\035\015qu\034\363o\236N\366?\2509\004\376\033&9\233"
 134      751CF36F 
 134      9E4EF63F 
 134      A83904FE 
 134      1B26399B 
 135 06de B7773F95 		.ascii	"\267w?\225\310\346rC\260\031T6\275\002\276V\331 \336"
 135      C8E67243 
 135      B0195436 
 135      BD02BE56 
 135      D920DE
 136 06f1 C93231BE 		.ascii	"\31121\276\331\223\200\267\336\250\2573\340=\002\356"
 136      D99380B7 
 136      DEA8AF33 
 136      E03D02EE 
 137 0701 8EC25DA2 		.ascii	"\216\302]\242\3669\205~C&\320g\352\377\372\231\261\325"
 137      F639857E 
 137      4326D067 
 137      EAFFFA99 
 137      B1D5
 138 0713 3E01F746 		.ascii	">\001\367F\321nqd\016\241/\207n\3576\016=\334\3762c"
 138      D16E7164 
 138      0EA12F87 
 138      6EEF360E 
 138      3DDCFE32 
 139 0728 354DEC49 		.ascii	"5M\354I\227\252c_[\256VW  \351\225\317\325Y\301p\017"
 139      97AA635F 
 139      5BAE5657 
 139      2020E995 
 139      CFD559C1 
 140 073e 391B5333 		.ascii	"9\033S3\013\367Wc\273\221\307\312'5\3307\\3\313$\033"
 140      0BF75763 
 140      BB91C7CA 
 140      2735D837 
 140      5C33CB24 
 141 0753 6C20B9C1 		.ascii	"l \271\301V\032\015\206\364\245\356\272\306-\230LZ\254"
 141      561A0D86 
 141      F4A5EEBA 
 141      C62D984C 
 141      5AAC
ARM GAS  C:\Users\info\AppData\Local\Temp\ccKyKd3g.s 			page 11


 142 0765 B10CD3F1 		.ascii	"\261\014\323\361\212o\237VJ\214\214\321\355\255\232"
 142      8A6F9F56 
 142      4A8C8CD1 
 142      EDAD9A
 143 0774 8E5336A5 		.ascii	"\216S6\245\304y\001\203\243J\370D,+U\267\033\207_\332"
 143      C4790183 
 143      A34AF844 
 143      2C2B55B7 
 143      1B875FDA 
 144 0788 E350E80B 		.ascii	"\343P\350\013\002\206F\321\351\342\313tBw\205j\377\234"
 144      028646D1 
 144      E9E2CB74 
 144      4277856A 
 144      FF9C
 145 079a D06DA9B1 		.ascii	"\320m\251\261\232!\206\354\206n\007\015\335\012\021"
 145      9A2186EC 
 145      866E070D 
 145      DD0A11
 146 07a9 402D176A 		.ascii	"@-\027j\355\222\352\207P\034\340\376x\035\013\231\356"
 146      ED92EA87 
 146      501CE0FE 
 146      781D0B99 
 146      EE
 147 07ba 27E76374 		.ascii	"'\347ct\264\262\216WM\035\227?I\307\007\254\214u\222"
 147      B4B28E57 
 147      4D1D973F 
 147      49C707AC 
 147      8C7592
 148 07cd 3A3E4C   		.ascii	":>L"
 149 07d0 D671B9A1 		.ascii	"\326q\271\241#\322\227\245\3275\243\216\205\031\261"
 149      23D297A5 
 149      D735A38E 
 149      8519B1
 150 07df 66D23133 		.ascii	"f\32213\361\022j\246tt>z\006\036?;\371\243\347?\211"
 150      F1126AA6 
 150      74743E7A 
 150      061E3F3B 
 150      F9A3E73F 
 151 07f4 A367D878 		.ascii	"\243g\330x\253|\205\343\361\260\312\030g\235\007O\247"
 151      AB7C85E3 
 151      F1B0CA18 
 151      679D074F 
 151      A7
 152 0805 C6B23FFE 		.ascii	"\306\262?\376`\015\001\034\255?\304\337\307\200\261"
 152      600D011C 
 152      AD3FC4DF 
 152      C780B1
 153 0814 F1D4CF29 		.ascii	"\361\324\317)(\370\325\346\302\265\213W\255\336\264"
 153      28F8D5E6 
 153      C2B58B57 
 153      ADDEB4
 154 0823 7135DE6D 		.ascii	"q5\336m)\\U\262n\303\346\262U/\276P\272\271\250`\265"
 154      295C55B2 
 154      6EC3E6B2 
 154      552FBE50 
 154      BAB9A860 
 155 0838 B090CD5A 		.ascii	"\260\220\315ZVRVZ$7l,\262\262]+]\257\025\227\350kJ\326"
ARM GAS  C:\Users\info\AppData\Local\Temp\ccKyKd3g.s 			page 12


 155      5652565A 
 155      24376C2C 
 155      B2B25D2B 
 155      5DAF1597 
 156 0850 96946DB2 		.ascii	"\226\224m\262lX\277\251\314Z\364b\321\2722\330\350*"
 156      6C58BFA9 
 156      CC5AF462 
 156      D1BA32D8 
 156      E82A
 157 0862 5DBFFA85 		.ascii	"]\277\372\205R\305\206-\326?\224\254)+\206?\352\305"
 157      52C5862D 
 157      D63F94AC 
 157      292B863F 
 157      EAC5
 158 0874 45256B8B 		.ascii	"E%k\213\313\376\013eB*\020"
 158      CBFE0B65 
 158      422A10
 159              		.text
 160              		.section	.gnu.lto_.symbol_nodes.792a6780,"",%progbits
 161 0000 789C55C9 		.ascii	"x\234U\311=\012\002A\014\206\341/\363[x\010\365\014"
 161      3D0A0241 
 161      0C86E12F 
 161      F35B7808 
 161      F50C
 162 0012 1E3053A4 		.ascii	"\0360S\244r\033AP\260\336\312slm-X\210:\262,XXZ\211"
 162      721B4150 
 162      B0DECA73 
 162      6C6D2D58 
 162      883AB22C 
 163 002a 9B11C149 		.ascii	"\233\021\301I\363\344M\034\010/\214c\300\300\352\000"
 163      F3E44D1C 
 163      082F8C63 
 163      C0C0EA00 
 164 003a 659FE600 		.ascii	"e\237\346\000y\246r\000R\232\215\035\330T\035\331V\355"
 164      79A67200 
 164      529A8D1D 
 164      D8541DD9 
 164      56ED
 165 004c D8556DD9 		.ascii	"\330Um\331Wm8TM\034\377\333\"B.o\262\010\310\313\307"
 165      576D3854 
 165      4D1CFFDB 
 165      22422E6F 
 165      B208C8CB 
 166 0061 B4D8A81E 		.ascii	"\264\330\250\036\262V\035d\243\022\362\317\255j\320"
 166      B2561D64 
 166      A312F2CF 
 166      AD6AD0
 167 0070 EEBEDD15 		.ascii	"\356\276\335\025-\272\323}\360\372\310\327\347y\241"
 167      2DBAD37D 
 167      F0FAC8D7 
 167      E779A1
 168 007f 1FB995C5 		.ascii	"\037\271\225\305@\372c3\321K\253\013>0\276?\365"
 168      40FA6333 
 168      D14BAB0B 
 168      3E30BE3F 
 168      F5
 169              		.text
ARM GAS  C:\Users\info\AppData\Local\Temp\ccKyKd3g.s 			page 13


 170              		.section	.gnu.lto_.refs.792a6780,"",%progbits
 171 0000 789C6361 		.ascii	"x\234ca`\004B \000\000\0009\000\007"
 171      60044220 
 171      00000039 
 171      0007
 172              		.text
 173              		.section	.gnu.lto_.decls.792a6780,"",%progbits
 174 0000 789CBD58 		.ascii	"x\234\275XkP\024\331\025\236\333w\200a\030pE\334\230"
 174      6B5014D9 
 174      159EDB77 
 174      80611870 
 174      45DC98
 175 0013 2D2AB136 		.ascii	"-*\2616\226\222\252,\353c\263E\355\237$\265\233]7\225"
 175      9692AA2C 
 175      EB63B345 
 175      ED9F24B5 
 175      9B5D3795 
 176 0027 CD8F246E 		.ascii	"\315\217$n%U$\223ahdva\230\232i|\354&\233FX|\255\010"
 176      25552493 
 176      61686476 
 176      61989A69 
 176      7CEC269B 
 177 0040 AE20A02E 		.ascii	"\256 \240.\340\013\021\024\020D\021\021\004\305\007"
 177      E00B1114 
 177      10441111 
 177      04C507
 178 004f 28080222 		.ascii	"(\010\002\" \010>\360\201\002\242\010\010\344\364\275"
 178      20083EF0 
 178      8102A208 
 178      08E4F4BD 
 179 005f DDD33DD8 		.ascii	"\335\323=\330$\371\221M\353\241\373\234\373\335{\276"
 179      24F9914D 
 179      EBA1FB9C 
 179      FBDD7BBE 
 180 006f 73EEB9B7 		.ascii	"s\356\271\267\357\264V\2034\302\225\367\206FsR\253\321"
 180      EFB45683 
 180      34C295F7 
 180      86467352 
 180      ABD1
 181 0081 BC80E729 		.ascii	"\274\200\347)\270\030\270\177\252\221/\035\310\357\001"
 181      B818B87F 
 181      AA912F1D 
 181      C8EF01
 182 0090 FA6790BF 		.ascii	"\372g\220\277\202\204\200|\006b\005q\200\254F\232W."
 182      8284807C 
 182      06620571 
 182      80AC469A 
 182      572E
 183 00a2 01FF43B8 		.ascii	"\001\377C\270\227\201\370\202\370\201\004\202\355(\334"
 183      9781F882 
 183      F8810482 
 183      ED28DC
 184 00b1 2B40FC41 		.ascii	"+@\374A\026\201\276\006d\025\310\333 \013A\272\301\276"
 184      1681BE06 
 184      6415C8DB 
 184      200B41BA 
 184      C1BE
ARM GAS  C:\Users\info\AppData\Local\Temp\ccKyKd3g.s 			page 14


 185 00c3 16EE7690 		.ascii	"\026\356v\220/@\"A\276\004\261\200\374\035\344O \377"
 185      2F402241 
 185      BE04B180 
 185      FC1DE44F 
 185      20FF
 186 00d5 00F90BC8 		.ascii	"\000\371\013\310W &\020\240\256\371\004\356\263@\346"
 186      57202610 
 186      A0AEF904 
 186      EEB340E6 
 187 00e5 83BC8764 		.ascii	"\203\274\207d\316\253E\216V\221\2632\206\351\327\004"
 187      CEAB458E 
 187      5691B332 
 187      86E9D704 
 188 00f5 83627B1E 		.ascii	"\203b{\036d\352\332Q\033B\032D.\215\230#\215`\021\357"
 188      64EADA51 
 188      1B421A44 
 188      2E8D9823 
 188      8D6011EF 
 189 0109 C203A20A 		.ascii	"\302\003\242\012C\376j$\224sPD\376\301\177\206\340\221"
 189      43FE6A24 
 189      94735044 
 189      FEC17F86 
 189      E091
 190 011b A2C10547 		.ascii	"\242\301\005G\362M.\331\204\234\227\204D\256\203\012"
 190      F24D2ED9 
 190      849C9784 
 190      44AE830A 
 191 012b A3CA2AE8 		.ascii	"\243\312*\350\214\334A1\236\310^\364\217\224n\311\320"
 191      8CDC4131 
 191      9EC85EF4 
 191      8F946EC9 
 191      D0
 192 013c 580A7AAC 		.ascii	"X\012z\254\363B\212\026\303\230\360\3345z\360\303\300"
 192      F3428A16 
 192      C398F0DC 
 192      357AF0C3 
 192      C0
 193 014d 3C1EAE44 		.ascii	"<\036\256D\236g~!g\346j\\\301.<\314 _=\322\202:x9\275"
 193      9E677E21 
 193      67E66A5C 
 193      C12E3CCC 
 193      205F3DD2 
 194 0166 D707543F 		.ascii	"\327\007T?=\232\017j\363\213\3621\003\016\020\206\320"
 194      3D9A0F6A 
 194      F38BF231 
 194      030E1086 
 194      D0
 195 0177 16ADEBCA 		.ascii	"\026\255\353\312\362A\001\376\010\301\177\375\001i,"
 195      F24101FE 
 195      08C17FFD 
 195      01692C
 196 0186 0D2A407A 		.ascii	"\015*@z\224\207\260D\"\235\337\300\363\003\377\024\314"
 196      9487B044 
 196      229DDFC0 
 196      F303FF14 
 196      CC
 197 0197 F0AC2377 		.ascii	"\360\254#w\260\254\343\007\366\360\356\3634h\231?Z\354"
ARM GAS  C:\Users\info\AppData\Local\Temp\ccKyKd3g.s 			page 15


 197      B0ACE307 
 197      F6F0EEF3 
 197      3468993F 
 197      5AEC
 198 01a9 AF418751 		.ascii	"\257A\207Q\000i\322\240|\030\360\010\362\027\330\334"
 198      0069D2A0 
 198      7C18F008 
 198      F217D8DC 
 199 01b9 385F17E7 		.ascii	"8_\027\347\256\027\321\211\377\011}\372\301\276T\255"
 199      AE17D189 
 199      FF097DFA 
 199      C1BE54AD 
 200 01c9 6193804E 		.ascii	"a\223\200N\214\345}\227\243B`\222\013\355\207\240]\203"
 200      8CE57D97 
 200      A3426092 
 200      0BED87A0 
 200      5D83
 201 01db 8E228318 		.ascii	"\216\"\203\030d\334\203\244x\017-Cm(D+\330\362\277\276"
 201      64DC83A4 
 201      780F2D43 
 201      6D28442B 
 201      D8F2BFBE 
 202 01ef 9DA38348 		.ascii	"\235\243\203H\375\365h\012\011\372\243\322Qo\252\013"
 202      FDF5680A 
 202      09FAA3D2 
 202      516FAA0B 
 203 01ff CDC5954F 		.ascii	"\315\305\225O\017k\361[\3023s\265\250\355\234'\012\240"
 203      0F6BF15B 
 203      C23373B5 
 203      A8ED9C27 
 203      0AA0
 204 0211 3177773D 		.ascii	"1ww=\373U,\317#t\002\234\225 \214rP\240\220z\177 \247"
 204      FB552CCF 
 204      2374029C 
 204      95208C72 
 204      50A0907A 
 205 0228 16E77160 		.ascii	"\026\347q`\016c\012(t\014\270\025S\3569\031\007\317"
 205      0E630A28 
 205      740CB815 
 205      53EE3919 
 205      07CF
 206 023a 7AE39388 		.ascii	"z\343\223\2108\350\337\376p\003v:HN\360\317\345\371"
 206      38E8DFFE 
 206      7003763A 
 206      484EF0CF 
 206      E5F9
 207 024c D7501938 		.ascii	"\327P\0318(\225\035\234@3x8\251\356\241\273\344j\233"
 207      28951D9C 
 207      40337838 
 207      A9EEA1BB 
 207      E46A9B
 208 025f 96042D0C 		.ascii	"\226\004-\014T\204H\324\247\363\357$0N\343)j\314L\212"
 208      548448D4 
 208      A7F3EF24 
 208      304EE329 
 208      6ACC4C8A 
 209 0273 4F34388D 		.ascii	"O48\215\345\3248\225>\230\352\241Ln\231Kr+\234\311m"
ARM GAS  C:\Users\info\AppData\Local\Temp\ccKyKd3g.s 			page 16


 209      E5D43895 
 209      3E98EAA1 
 209      4C6E994B 
 209      722B9CC9 
 210 0288 AB7B99E7 		.ascii	"\253{\231\347Nz\203\015\235\246\27532S^\310\031\257"
 210      4E7A830D 
 210      9DA6BD33 
 210      32535EC8 
 210      19AF
 211 029a A4C6C3BD 		.ascii	"\244\306\303\275\267\353d\343\031j\334\371\264\363\276"
 211      B7EB64E3 
 211      196ADCF9 
 211      B4F3BE
 212 02a9 272DC000 		.ascii	"'-\300\000P\037\307\335\351\366\242\0058\017T\276/."
 212      501FC7DD 
 212      E9F6A205 
 212      380F54BE 
 212      2F2E
 213 02bb 83C1A5B4 		.ascii	"\203\301\245\264\210\033\007\352v\213m\257\201Z\321"
 213      881B07EA 
 213      768B6DAF 
 213      815AD1
 214 02ca 9754A1C3 		.ascii	"\227T\241\303\027h[Cv\177\253\017\356\246J_f\305Q\035"
 214      17685B43 
 214      767FAB0F 
 214      EEA64A5F 
 214      66C5511D 
 215 02de 1EA7CAC1 		.ascii	"\036\247\312\301\273\273\022\014\264W\220\242\302}i"
 215      BBBB120C 
 215      B45790A2 
 215      C27D69
 216 02ed 8527576E 		.ascii	"\205'Wn{\251\307\3531\201\226\035?U\343F\241\213A\275"
 216      7BA9C7EB 
 216      3181961D 
 216      3F55E346 
 216      A18B41BD 
 217 0301 58DAB318 		.ascii	"X\332\263\030o\243M\022M?J\363y\355\265N\214\263h\333"
 217      6FA34D12 
 217      4D3F4AF3 
 217      79EDB54E 
 217      8CB368DB 
 218 0315 D6AAF26A 		.ascii	"\326\252\362j\035>L\225\232\216\033\315Z\\J\225\230"
 218      1D3E4C95 
 218      9A8E1BCD 
 218      5A5C4A95 
 218      98
 219 0326 F2EA226F 		.ascii	"\362\352\"o|\205*\347\246F*gQ\317\014\250\023EE\325"
 219      7C852AE7 
 219      A6462A67 
 219      51CF0CA8 
 219      134545D5 
 220 033a 08B7D2B6 		.ascii	"\010\267\322\266\375c\343\003\3022\\\010\3258\205\025"
 220      FD63E303 
 220      C2325C08 
 220      D5388515 
 221 034a E5B89096 		.ascii	"\345\270\220\226cE\355\305\003\006\334M\300LcU\352\204"
 221      6345EDC5 
ARM GAS  C:\Users\info\AppData\Local\Temp\ccKyKd3g.s 			page 17


 221      0306DC4D 
 221      C04C6355 
 221      EA84
 222 035c 17D20790 		.ascii	"\027\322\007\220Z\340cy}\200\006\325\300\314\\\203\231"
 222      5AE06379 
 222      7D8006D5 
 222      C0CC5C83 
 222      99
 223 036d 4137A01A 		.ascii	"A7\240\032\026\212\325\320\012\306\0260\212\205\333"
 223      168AD5D0 
 223      0AC61630 
 223      8A85DB
 224 037c FF1B52B8 		.ascii	"\377\033R\270m0\221\327\345\272Z\250\247\363x:\251\375"
 224      6D3091D7 
 224      E5BA5AA8 
 224      A7F3783A 
 224      A9FD
 225 038e AE1E3FA4 		.ascii	"\256\036?\244.\366\365\362e\332\231\\t\316\350\"9aa"
 225      2EF6F5F2 
 225      65DA995C 
 225      74CEE822 
 225      396161
 226 03a1 9E50BA1D 		.ascii	"\236P\272\035\340\242]v\321\206D\037\322\354\372\322"
 226      E0A25D76 
 226      D186441F 
 226      D2ECFAD2 
 227 03b1 D9BDBB29 		.ascii	"\331\275\273)g\320\200\207i\012v7\367$z\252\255\375"
 227      67D08087 
 227      690A7637 
 227      F7247AAA 
 227      ADFD
 228 03c3 19EA3BFD 		.ascii	"\031\352;\375\334\206*7e\201v\273\024\350-\305\352\337"
 228      DC862A37 
 228      658176BB 
 228      14E82DC5 
 228      EADF
 229 03d5 DB8FF028 		.ascii	"\333\217\360(\365\322y!'WH\364\"!\321SS\263\024\251"
 229      F5D27921 
 229      275748F4 
 229      2221D153 
 229      53B314A9 
 230 03e9 5E4453DD 		.ascii	"^DS\335\270uh\237\007\216\325\222<\344&=lT,\375\375"
 230      B875689F 
 230      078ED592 
 230      3CE4263D 
 230      6C542CFD 
 231 03fe 865221BC 		.ascii	"\206R!\274{\340\351\216\034\336\"\347\302$D4N\026\350"
 231      7BE0E98E 
 231      1CDE22E7 
 231      C2244434 
 231      4E16E8
 232 0411 2E505F24 		.ascii	".P_$R\277\015\306^q\361\357K\332\343\216\023\250\213"
 232      52BF0DC6 
 232      5E71F1EF 
 232      4BDAE38E 
 232      13A88B
 233 0424 4347EA6B 		.ascii	"CG\352k<\244TO\037\340\201\312\000R\252\337!\251\276"
ARM GAS  C:\Users\info\AppData\Local\Temp\ccKyKd3g.s 			page 18


 233      3CA4544F 
 233      1FE081CA 
 233      0052AADF 
 233      21A9BE
 234 0437 0F5CFA64 		.ascii	"\017\\\372d.\367\244TK\213\305\227.\226\236\302\221"
 234      2EF7A454 
 234      4B8BC597 
 234      2E969EC2 
 234      91
 235 0448 473ABC83 		.ascii	"G:\274\203\270DG\362\306\013\364d!\256\220\266\303\366"
 235      B84447F2 
 235      C60BF464 
 235      21AE90B6 
 235      C3F6
 236 045a F8EC5A2F 		.ascii	"\370\354Z/\347\036\320O\327f\363\365\233\315\236N\343"
 236      E71ED04F 
 236      D766F3F5 
 236      9BCD9E4E 
 236      E3
 237 046b 636A5C3F 		.ascii	"cj\\?\325yV\207s\350Hq\331[vz\343cTI/\033\276\344F]"
 237      D5795687 
 237      73E84871 
 237      D95B767A 
 237      E3635449 
 238 0485 EA404D48 		.ascii	"\352@MH\033*\363\300\345\264\255\2512s\247'>K\225\336"
 238      1B2AF3C0 
 238      E5B4ADA9 
 238      3273A727 
 238      3E4B95DE 
 239 0499 E2917DDE 		.ascii	"\342\221}\336\270\236*\267\236\224\247y8\235P6\307\032"
 239      B89E2AB7 
 239      9E94A779 
 239      389D5036 
 239      C71A
 240 04ab 33BA3C70 		.ascii	"3\272<p+\005\214\325\217\237D\3706U\276i*Y\206\007\351"
 240      2B058CD5 
 240      8F9F44F8 
 240      3655BE69 
 240      2A598607 
 241 04c0 735EF3F5 		.ascii	"s^\363\365\011\204'\250ryr\3404\306[\335\210r\270;\276"
 241      098427A8 
 241      727972E0 
 241      34C65BDD 
 241      8872B83B 
 242 04d5 C90D6752 		.ascii	"\311\015gR\345\300\313\254b\003\316\243J\315H\371^7"
 242      E5C0CBAC 
 242      6203CEA3 
 242      4ACD48F9 
 242      5E37
 243 04e7 7C9C2A9B 		.ascii	"|\234*\2336\037\312\362\301uT\371\372\233\334S\030w"
 243      361FCAF2 
 243      C17554F9 
 243      FA9BDC53 
 243      1877
 244 04f9 51A5A1EB 		.ascii	"Q\245\241\353\3503w<L\225\256\233I\237\341\011\372\374"
 244      E833773C 
 244      4C95AE9B 
ARM GAS  C:\Users\info\AppData\Local\Temp\ccKyKd3g.s 			page 19


 244      499FE109 
 244      FAFC
 245 050b F05A6392 		.ascii	"\360Zc\222\033\336\344N\224\211\243\353\313\264x7U\356"
 245      1BDEE44E 
 245      9489A3EB 
 245      CBB47837 
 245      55EE
 246 051d 5D181DF6 		.ascii	"]\030\035\366\302\371T\031\253Z\007[w\025UJ\252F\353"
 246      C2F95419 
 246      AB5A075B 
 246      7715554A 
 246      AA46EB
 247 0530 DC702B55 		.ascii	"\334p+U\036\257\313\335\207\360\000U\032\222\373S\030"
 247      1EAFCBDD 
 247      87F00055 
 247      1A92FB53 
 247      18
 248 0541 BCD18328 		.ascii	"\274\321\203(/\307\277\215q\303\273\250R\321\321\227"
 248      2FC7BF8D 
 248      71C3BBA8 
 248      52D1D197 
 249 0551 E7858F50 		.ascii	"\347\205\217P\245\340T\\\277\370V\256\024\336U\007\267"
 249      A5E0545C 
 249      BFF856AE 
 249      14DE5507 
 249      B7
 250 0562 0C54EBF1 		.ascii	"\014T\353\361y\3228w 7\365\232;Z0\355\012X\260`\316"
 250      79D23877 
 250      2037F59A 
 250      3B5A30ED 
 250      0A58B060 
 251 0577 823D4249 		.ascii	"\202=BIu\267M\332\312K:x>\336@2\034\307`\224\305\314"
 251      75B74DDA 
 251      CA4B3A78 
 251      3EDE4032 
 251      1CC76094 
 252 058d 9156D7DB 		.ascii	"\221V\327\333\302b\271,,\031\015\201W\236j\364\342\013"
 252      C262B92C 
 252      2C190D81 
 252      579E6AF4 
 252      E20B
 253 059f FE46A02F 		.ascii	"\376F\240/\221\013\364!YX\313d\350\323m>\251|\345:L"
 253      910BF421 
 253      5958CB64 
 253      E8D36D3E 
 253      A97CE53A 
 254 05b4 D6FBA808 		.ascii	"\326\373\250\010vn\023\024\236\253\030:\255\336{\007"
 254      766E1314 
 254      9EAB183A 
 254      ADDE7B07 
 255 05c4 5F1983C9 		.ascii	"_\031\203\311\340\033Tx\324(\300\327\352\235<bU\240"
 255      E01B5478 
 255      D428C0D7 
 255      EA9D3C62 
 255      55A0
 256 05d6 9714D0ED 		.ascii	"\227\024\320\3552t\243\012T\301\270Q\016nL-\270\263"
 256      3274A30A 
ARM GAS  C:\Users\info\AppData\Local\Temp\ccKyKd3g.s 			page 20


 256      54C1B851 
 256      0E6E4C2D 
 256      B8B3
 257 05e8 8A51B7C9 		.ascii	"\212Q\267\311\243nR\031u\211\214L\227\221\353U\220\312"
 257      A36E5219 
 257      75898C4C 
 257      9791EB55 
 257      90CA
 258 05fa 4177C9D0 		.ascii	"Aw\311\320x\025\2502[\0052\327)W\256Ch\372\2445\310"
 258      7815A832 
 258      5B0532D7 
 258      2957AE43 
 258      68FAA435 
 259 060f D871B5B8 		.ascii	"\330q\265\270\224\211\335.cyFe\334z\005vR\246\033\243"
 259      9489DD2E 
 259      63794665 
 259      DC7A0576 
 259      52A61BA3 
 260 0623 8655F22D 		.ascii	"\206U\362-\226\307\235T\343\253\234\261g\312\312\331"
 260      96C79D54 
 260      E3AB9CB1 
 260      67CACAD9 
 261 0633 C2A8560E 		.ascii	"\302\250V\016\215\217\354v\225\343\011\006\036\316\222"
 261      8D8FEC76 
 261      95E30906 
 261      1ECE92
 262 0642 80D2883B 		.ascii	"\200\322\210;\235\3069V\206\262\252\276VI\2522\240\223"
 262      9DC63956 
 262      86B2AABE 
 262      5649AA32 
 262      A093
 263 0654 32C909B5 		.ascii	"2\311\011\265D\221YM\022\017\267<\354x\350\033\306\037"
 263      4491594D 
 263      120FB73C 
 263      EC78E81B 
 263      C61F
 264 0666 DD14586D 		.ascii	"\335\024Xm\026\207\006\377\350;&\000%3\013\320\267 "
 264      168706FF 
 264      E83B2600 
 264      25330BD0 
 264      B720
 265 0678 49202920 		.ascii	"I ) ;@2@\022@\266\201\354\001\331\011\222\016\222\012"
 265      3B403240 
 265      1240B681 
 265      EC01D909 
 265      920E920A 
 266 068c B20B2413 		.ascii	"\262\013$\023d+H\032\310v\220D\220\335\314\002E4\355"
 266      642B481A 
 266      C8769044 
 266      90DDCC02 
 266      4534ED
 267 069f 5B7DD2F8 		.ascii	"[}\322\370\3128L6\366u\242K\347\373`H&)\034\275\266"
 267      CA384C36 
 267      F675A24B 
 267      E7FB6048 
 267      26291CBD 
 268 06b4 EE4C9B85 		.ascii	"\356L\233\205\357\223}\200y\266\245\352]4'@\235\373"
ARM GAS  C:\Users\info\AppData\Local\Temp\ccKyKd3g.s 			page 21


 268      EF937D80 
 268      79B6A5EA 
 268      5D342740 
 268      9DFB
 269 06c6 7EE0FB7D 		.ascii	"~\340\373}r\247\263\224v\345g\302,\355\003G{\031\347"
 269      72A7B394 
 269      76E567C2 
 269      2CED0347 
 269      7B19E7
 270 06d9 2B499834 		.ascii	"+I\2304B\267\270\347\300\023\2179\"\301\312\031\011"
 270      42B7B8E7 
 270      C0138F39 
 270      22C1CA19 
 270      09
 271 06ea 6AFEE7EC 		.ascii	"j\376\347\354\204\375\264%n\275\227\362\264p@\221V\015"
 271      84FDB425 
 271      6EBD97F2 
 271      B4704091 
 271      560D
 272 06fc CA66A4D3 		.ascii	"\312f\244\323\302\310\341{\035nx\302\303\345@\350K\017"
 272      C2C8E17B 
 272      1D6E78C2 
 272      C3E540E8 
 272      4B0F
 273 070e 84C5E583 		.ascii	"\204\305\345\203\373\305C /\034\322\372\356\354\254"
 273      FBC54320 
 273      2F1CD2FA 
 273      EEECAC
 274 071d D1E38D3A 		.ascii	"\321\343\215:\272c7\345\327\315\302\273\211\362\223"
 274      BA6337E5 
 274      D7CDC2BB 
 274      89F293
 275 072c F64D1531 		.ascii	"\366M\0251\010i\015s`\027v\271\014\206y\332\000\361"
 275      08690D73 
 275      601776B9 
 275      0C8679DA 
 275      00F1
 276 073e 21604140 		.ascii	"!`A@\200\360\336;\302\030\320s\310\206\202]\276\013"
 276      80F0DE3B 
 276      C218D073 
 276      C886825D 
 276      BE0B
 277 0750 BB23949D 		.ascii	"\273#\224\235\313\324\036\202\314\3450\220\271z\310"
 277      CBD41E82 
 277      CCE53090 
 277      B97AC8
 278 075f 5CA138B5 		.ascii	"\\\2418\265W\340\3712\004~\001\344<H\015\3109\220\012"
 278      57E0F932 
 278      047E01E4 
 278      3C480DC8 
 278      39900A
 279 0772 90D320E5 		.ascii	"\220\323 \345 \247@\312@N\202\224\202\234\0009\016R"
 279      20A740CA 
 279      404E8294 
 279      829C0039 
 279      0E52
 280 0784 02720CA4 		.ascii	"\002r\014\244\030\244\010\344(H\201Ki\216\267(\026Z"
ARM GAS  C:\Users\info\AppData\Local\Temp\ccKyKd3g.s 			page 22


 280      18A408E4 
 280      2848814B 
 280      698EB728 
 280      165A
 281 0796 2E4C70A1 		.ascii	".Lp\241\274z\252\025\333\201:\317\203b\207\357\237\347"
 281      BC7AAA15 
 281      DB813ACF 
 281      836287EF 
 281      9FE7
 282 07a8 8B16E71A 		.ascii	"\213\026\347\032?\207TX*\367\343\3472\366\274\032V\271"
 282      3F875458 
 282      2AF7E3E7 
 282      32F6BC1A 
 282      56B9
 283 07ba 710ECBD8 		.ascii	"q\016\313\330\013jX\305{fH\206^T\203*^\036\0032\264"
 283      0B6A58C5 
 283      7B664886 
 283      5E54832A 
 283      5E1E0332 
 284 07cf CE       		.ascii	"\316"
 285 07d0 155AFBCA 		.ascii	"\025Z\373\312\266yS\306^Q\303*_\011\0352\266A\015\253"
 285      B67953C6 
 285      5E51C32A 
 285      5F091D32 
 285      B6410DAB 
 286 07e4 DC155B64 		.ascii	"\334\025[d\354U5\254r\233\277&c\033\325\260\312\354"
 286      EC5535AC 
 286      729BBF26 
 286      631BD5B0 
 286      CAEC
 287 07f6 36CAD826 		.ascii	"6\312\330&5\2542\273WS\024\257\204f\021\355|%\324NO"
 287      35AC32BB 
 287      575314AF 
 287      846611ED 
 287      7C25D44E 
 288 080b 5B45CA5C 		.ascii	"[E\312\\\272O\302A\037u\211p\347>y\363\025\332\345)"
 288      BA4FC241 
 288      1F758970 
 288      E73E79F3 
 288      15DAE529 
 289 081f 8A7DB547 		.ascii	"\212}\265G\035\257\030\276\254e\026\205W\302\342|4\035"
 289      1DAF18BE 
 289      AC651685 
 289      57C2E27C 
 289      341D
 290 0831 AE3CDA28 		.ascii	"\256<\332(Vm\0253O\306\234\205\032?\003\235\351.8\003"
 290      566D1533 
 290      4FC69C85 
 290      1A3F039D 
 290      E92E3803 
 291 0845 4AA380A4 		.ascii	"J\243\200\244\220e\023\313\317\327N\373\255\015\035"
 291      906513CB 
 291      CFD74EFB 
 291      AD0D1D
 292 0854 E06F3523 		.ascii	"\340o5#|\020\223\366\213'\260\266\350\246\233qe\256"
 292      7C1093F6 
 292      8B27B0B6 
ARM GAS  C:\Users\info\AppData\Local\Temp\ccKyKd3g.s 			page 23


 292      E8A69B71 
 292      65AE
 293 0866 B0E90A3C 		.ascii	"\260\351\012<\007\344\337\001g\310\226Ac)U\3062\250"
 293      07E4DF01 
 293      67C89641 
 293      632955C6 
 293      32A8
 294 0878 1E8B22F4 		.ascii	"\036\213\"\364\222\026\003\237h\"\340\247\323\301*o"
 294      9216039F 
 294      6822E0A7 
 294      D3C12A6F 
 295 0888 7D193DAC 		.ascii	"}\031=\254\216V\014]\224\342G\231\\\004\370\263\351"
 295      8E560C5D 
 295      94E24799 
 295      5C04F8B3 
 295      E9
 296 0899 F0B75593 		.ascii	"\360\267U\223Z\253Lj\035$\365\222ZRk]\222zI-\251\035"
 296      5AAB4C6A 
 296      1D24F592 
 296      5A526B5D 
 296      927A492D 
 297 08af 2E49AD25 		.ascii	".I\255%I=L\222J\023Y\230\360\272\220H\201\332\210\234"
 297      493D4C92 
 297      4A135998 
 297      F0BA9048 
 297      81DA889C 
 298 08c3 C84B8A44 		.ascii	"\310K\212D\026\246\374\230\322\207\327\005z\241J\177"
 298      16A6FC98 
 298      D287D705 
 298      7AA14A7F 
 299 08d3 897C66D9 		.ascii	"\211|f\331\235B\316,\205\256g\026\332\266#\341GB\233"
 299      9D42CE2C 
 299      85AE6716 
 299      DAB623E1 
 299      47429B
 300 08e6 B0CDE7C9 		.ascii	"\260\315\347\311o\312B\351MYY\035\323\351\255\225\346"
 300      6FCA42E9 
 300      4D59591D 
 300      D3E9AD95 
 300      E6
 301 08f7 BA8AFEF0 		.ascii	"\272\212\376\360\312?\331\021\353>o\306*\271J\002j "
 301      CA3FD911 
 301      EB3E6FC6 
 301      2AB94A02 
 301      6A20
 302 0909 01017A5D 		.ascii	"\001\001z]v\325\003\303\233\231|f\001\337\235\266\327"
 302      76D503C3 
 302      9B997C66 
 302      01DF9DB6 
 302      D7
 303 091a 94BC379E 		.ascii	"\224\2747\236O\214\341\371_\022 :(\007x\220|\272C\331"
 303      4F8CE1F9 
 303      5F12203A 
 303      28077890 
 303      7CBA43D9 
 304 092e F0835D83 		.ascii	"\360\203]\203\032\2317\241\357\203\264\206X\003>G\337"
 304      1A9937A1 
ARM GAS  C:\Users\info\AppData\Local\Temp\ccKyKd3g.s 			page 24


 304      EF83B486 
 304      58033E47 
 304      DF
 305 093f 6B6A1FCF 		.ascii	"kj\037\317\\\277-]cT\276-5S\343h\354\320f\2033\222\026"
 305      5CBF2D5D 
 305      6354BE2D 
 305      3553E368 
 305      ECD06683 
 306 0956 6A9C3C5F 		.ascii	"j\234<_\266\335g\346H\256\223HZ\245HR\253\267\037g "
 306      B6DD67E6 
 306      48AE9348 
 306      5AA54852 
 306      ABB71F67 
 307 096b 926EF8D5 		.ascii	"\222n\370\325{}\322\326\2777\2762\021\021\024j\222s"
 307      7B7DD2D6 
 307      BF37BE32 
 307      1111146A 
 307      9273
 308 097d 078FF41B 		.ascii	"\007\217\364\033h\033\011a\363\255\3243>\270I7\343O"
 308      681B0961 
 308      F3ADD433 
 308      3EB84937 
 308      E34F
 309 098f CC96B18D 		.ascii	"\314\226\261\215\333\344\020\332)\261c\243w\332]\210"
 309      DBE410DA 
 309      29B163A3 
 309      77DA5D88 
 310 099f 0921CBC4 		.ascii	"\011!\313\304:\011\261\016\211XA|G*\246\304*\007\307"
 310      3A09B10E 
 310      8958417C 
 310      472AA6C4 
 310      2A07C7
 311 09b2 C3936233 		.ascii	"\303\223b3\227\013\020tCfuCbu\223\260\332\260\265\024"
 311      970B1074 
 311      43667543 
 311      627593B0 
 311      DAB0B514 
 312 09c6 0E463729 		.ascii	"\016F7)\253\023#W\223=\234\251\241\254\372\022\362\333"
 312      AB132357 
 312      933D9CA9 
 312      A1ACFA12 
 312      F2DB
 313 09d8 F0CC99B9 		.ascii	"\360\314\231\271E\010tK\004\0365\354\337+\021\230x\262"
 313      4508744B 
 313      041E35EC 
 313      DF2B1198 
 313      78B2
 314 09ea 9C100008 		.ascii	"\234\020\000\010\352\222\011tI\004z\010\201\201\333"
 314      EA920974 
 314      49047A08 
 314      8181DB
 315 09f9 B5755E78 		.ascii	"\265u^x\340\277\235\331\333j3{\207Q\371jx\227\032\037"
 315      E0BF9DD9 
 315      DB6A337B 
 315      8751F96A 
 315      78971A1F 
 316 0a0d 67DC8A93 		.ascii	"g\334\212\223\247\373\0365\236\231\372\256\3050sP\367"
ARM GAS  C:\Users\info\AppData\Local\Temp\ccKyKd3g.s 			page 25


 316      A7FB1E35 
 316      9E99FAAE 
 316      C5307350 
 316      F7
 317 0a1e 49507D52 		.ascii	"IP}RPw3\262Oh\305\240\322\277J\343\253\264\002\002\365"
 317      507733B2 
 317      4F68C5A0 
 317      D2BF4AE3 
 317      ABB40202 
 318 0a33 CA31F54A 		.ascii	"\3121\365J1= 1\035J\352\206\303H\254\347\214I\355o\331"
 318      313D2031 
 318      1D4AEA86 
 318      C348ACE7 
 318      8C49ED6F 
 319 0a48 F3C465E1 		.ascii	"\363\304e\341|\372\272\302}?q\377Hr\237\364\364\273"
 319      7CFABAC2 
 319      7D3F71FF 
 319      48729FF4 
 319      F4BB
 320 0a5a 7CC97D45 		.ascii	"|\311}E\357b\342\037 \350\241\354\377\241\344\3771\361"
 320      EF62E21F 
 320      20E8A1EC 
 320      FFA1E4FF 
 320      31F1
 321 0a6c 7F7C7FEB 		.ascii	"\177|\177\353=/\234\3549cN\207\236>\317rsr\032\240I"
 321      3D2F9CEC 
 321      39634E87 
 321      9E3ECF72 
 321      73721AA0 
 322 0a81 29DE7974 		.ascii	")\336ytL7sR\206\010\253A\211\325\351\352\236ti\246["
 322      4C377352 
 322      8608AB41 
 322      89D5E9EA 
 322      9E7469A6 
 323 0a96 C7E94C03 		.ascii	"\307\351L\003\004=\221Y=\221X=%\254\232b&s\334\361\376"
 323      043D9159 
 323      3D91583D 
 323      25AC9A62 
 323      2673DCF1 
 324 0aab 9959250F 		.ascii	"\231Y%\017_y\374oJ\3559!\360L\"0\264\251f\302 \022\230"
 324      5F79FC6F 
 324      4AED3921 
 324      F04C2230 
 324      B4A966C2 
 325 0ac2 FC926405 		.ascii	"\374\222d\005\020hX\366?,\371\037!\376SbR\303\224\347"
 325      106858F6 
 325      3F2CF91F 
 325      21FE5362 
 325      52C394E7 
 326 0ad6 EDE72E1B 		.ascii	"\355\347.\033\364\013z\242\025\356\002\275\313w\363"
 326      F40B7AA2 
 326      15EE02BD 
 326      CB77F3
 327 0ae5 BC95E021 		.ascii	"\274\225\340!\027\360\250\010\036%\340\330S\245w\\\276"
 327      17F0A808 
 327      1E25E0D8 
 327      53A5775C 
ARM GAS  C:\Users\info\AppData\Local\Temp\ccKyKd3g.s 			page 26


 327      BE
 328 0af6 FAF7BB80 		.ascii	"\372\367\273\200\307D\360\030\001\357(\311\\\255\304"
 328      C744F018 
 328      01EF28C9 
 328      5CADC4
 329 0b05 DE77C18E 		.ascii	"\336w\301\216\213\330q\202\275R\2355\345\362\023\341"
 329      8BD87182 
 329      BD529D35 
 329      E5F213E1 
 330 0b15 BA0BF8A5 		.ascii	"\272\013\370\245\010~I\300c\251\365\327=\225\340N\027"
 330      087E49C0 
 330      63A9F5D7 
 330      3D95E04E 
 330      17
 331 0b26 F084089E 		.ascii	"\360\204\010\236 \340\302\254\232l\227\370n\271\200"
 331      20E0C2AC 
 331      9A6C97F8 
 331      6EB980
 332 0b35 2745B070 		.ascii	"'E\260p\367\217\016Z\023d\\\341`\355\037[9\326\036f"
 332      F78F0E5A 
 332      13645CE1 
 332      60ED1F5B 
 332      39D61E66 
 333 0b49 32B31F5B 		.ascii	"2\263\037[m\321\334\247\246\210hV\367\321\357V\314\177"
 333      6DD1DCA7 
 333      A6886856 
 333      F7D1EF56 
 333      CC7F
 334 0b5b 7FC9128D 		.ascii	"\177\311\022\215\326\034n\262{\032\215\321\026+\027"
 334      D61C6EB2 
 334      7B1A8DD1 
 334      162B17
 335 0b6a 64E46290 		.ascii	"d\344b\220\371\275`\233=j\245\335\0249?\314\022\301"
 335      F9BD609B 
 335      3D6AA5DD 
 335      14393FCC 
 335      12C1
 336 0b7c 3AE607AC 		.ascii	":\346\007\254\011z\367\247\301\346\2656;\353p\004\333"
 336      097AF7A7 
 336      C1E6B536 
 336      3BEB7004 
 336      DB
 337 0b8d 1C51E6F9 		.ascii	"\034Q\346\371f;k\342\242\354\301\357\004.u5X\"mQv.x"
 337      663B6BE2 
 337      A2ECC1EF 
 337      042E7535 
 337      58226D51 
 338 0ba4 A5353AD8 		.ascii	"\2455:\330d\217\014\376y\340;\201K\204\247\267\254Q"
 338      648F0CFE 
 338      79E03B81 
 338      4B84A7B7 
 338      AC51
 339 0bb6 56F62DD6 		.ascii	"V\366-\326\024b\011\266X\315\021\321\241lp\244\311\034"
 339      146209B6 
 339      58CD11D1 
 339      A16C70A4 
 339      C91C
ARM GAS  C:\Users\info\AppData\Local\Temp\ccKyKd3g.s 			page 27


 340 0bc8 6EB1B2C1 		.ascii	"n\261\262\301\306P6\314\024\035\301\031\271\2656\326"
 340      C65036CC 
 340      141DC119 
 340      B9B536D6 
 341 0bd8 1118AEF1 		.ascii	"\021\030\256\361\020\251\254\372\1771q\254u\004\033"
 341      10A9ACFA 
 341      7F3171AC 
 341      75041B
 342 0be7 1D5C28B8 		.ascii	"\035\\(\270\005\367>\241lHT\264\325\314\202\311\304"
 342      05F73EA1 
 342      6C4854B4 
 342      D5CC82C9 
 342      C4
 343 0bf8 B13F70AA 		.ascii	"\261?p\252\021&\007g\264Y\254\324\376\206\323.\361w"
 343      11260767 
 343      B459ACD4 
 343      FE86D32E 
 343      F177
 344 0c0a 3679ADB4 		.ascii	"6y\255\264Y\242\214\300\021\254\372h.,\210\232a\340"
 344      59A28CC0 
 344      11ACFA68 
 344      2E2C889A 
 344      61E0
 345 0c1c 5516C09B 		.ascii	"U\026\300\233BC\005\376^\226\245f\241\301\316\261\241"
 345      424305FE 
 345      5E96A566 
 345      A1C1CEB1 
 345      A1
 346 0c2d E459B4FB 		.ascii	"\344Y\264\373Y\034\306\260(+g\264XW\261v\007k\214\214"
 346      591CC6B0 
 346      282B67B4 
 346      5857B176 
 346      076B8C8C 
 347 0c41 0A65756B 		.ascii	"\012euk\214Qaa\016\226\323\261Vs\0240]\251\247S\266"
 347      8C516161 
 347      0E96D3B1 
 347      56731430 
 347      5DA9A753 
 348 0c56 E45D23A7 		.ascii	"\344]#\247\223\036\264B?\317\220h\207\321\034\021e\376"
 348      931EB442 
 348      3FCF9068 
 348      87D11C11 
 348      65FE
 349 0c68 5C842C5B 		.ascii	"\\\204,[*B\204\207\331\204\233\311\032\012\264#Lk\215"
 349      2A428487 
 349      D9849BC9 
 349      1A0AB423 
 349      4C6B8D
 350 0c7b E6102F52 		.ascii	"\346\020/R&\221\216\225\360\354\021\262\226c\341\356"
 350      26918E95 
 350      F0EC11B2 
 350      9663E1EE 
 351 0c8b 6E3685C2 		.ascii	"n6\205\302M\037jq\330(\312\303\312\256\341\340n h\241"
 351      4D1F6A71 
 351      D828CAC3 
 351      CAAEE1E0 
 351      6E2068A1 
ARM GAS  C:\Users\info\AppData\Local\Temp\ccKyKd3g.s 			page 28


 352 0c9f 6604456A 		.ascii	"f\004Ej\267X\303\242\274l\2265l\204q\265%\224\013\237"
 352      B758C3A2 
 352      BC6C9635 
 352      6C8471B5 
 352      25940B9F 
 353 0cb3 1D1661B1 		.ascii	"\035\026a\261\011\274\215\022\357\327\244,I\006/\016"
 353      09BC8D12 
 353      EFD7A42C 
 353      49062F0E 
 354 0cc3 A6D418CE 		.ascii	"\246\324\030\316ZV\206sz\362Lz\372\255\266[\200\202"
 354      5A568673 
 354      7AF24C7A 
 354      FAADB65B 
 354      8082
 355 0cd5 2D3AC221 		.ascii	"-:\302!Z\214V\207o\250\2113\031\241S\264\315\310Y\""
 355      5A8C5687 
 355      6FA88933 
 355      19A153B4 
 355      CDC85922 
 356 0ce9 5930F909 		.ascii	"Y0\371\011\031sFj\\\262x\361\347\313\277\3209l\026\222"
 356      1973466A 
 356      5CB278F1 
 356      E7CBBFD0 
 356      396C1692 
 357 0cfd 2E83036C 		.ascii	".\203\003l\264%\374\013_Aq\035p\266#t\332x\276\266("
 357      B425FC0B 
 357      5F41711D 
 357      70B62374 
 357      DA78BEB6 
 358 0d12 985DC83F 		.ascii	"\230]\310?\313\031W\233,\034$\304\217j\312\236\221\216"
 358      CB19579B 
 358      2C1C24C4 
 358      8F6ACA9E 
 358      918E
 359 0d24 79507B10 		.ascii	"yP{\020\276\305f\204\330M!\002m\001m\205\006a\000\322"
 359      BEC56684 
 359      D84D2102 
 359      6D016D85 
 359      066100D2 
 360 0d38 C25A950D 		.ascii	"\302Z\225\015\276.\350\010v\025\0331[\011#\226y$\255"
 360      BE2EE808 
 360      76151B31 
 360      5B092396 
 360      7924AD
 361 0d4b CA744269 		.ascii	"\312tBi\330\243\315\234\201f\225\346\311/008:h\345R"
 361      D8A3CD9C 
 361      816695E6 
 361      C92F3030 
 361      383A68E5 
 362 0d60 A3D96137 		.ascii	"\243\331a7\007\013]\240^\347\274\332\225\243sJG\230"
 362      070B5DA0 
 362      5EE7BCDA 
 362      95A3734A 
 362      4798
 363 0d72 E32C545A 		.ascii	"\343,TZ\221\302T\273\223vn\376+\343A\177\330!\214\253"
 363      91C254BB 
 363      93766EFE 
ARM GAS  C:\Users\info\AppData\Local\Temp\ccKyKd3g.s 			page 29


 363      2BE3417F 
 363      D8218CAB 
 364 0d86 842D22D0 		.ascii	"\204-\"\320\254\361&\266\017\354\246\325+\376\370a\220"
 364      ACF126B6 
 364      0FECA6D5 
 364      2BFEF861 
 364      90
 365 0d97 9E68D141 		.ascii	"\236h\321A\\\224i6y\374\210\345>a\255\321\277^\305Z"
 365      5C946936 
 365      79FC88E5 
 365      3E61ADD1 
 365      BF5EC55A 
 366 0dab 395F17E8 		.ascii	"9_\027\350oae;(\350\375\010\326d\377\200\322\233%u#"
 366      6F61653B 
 366      28E8FD08 
 366      D664FF80 
 366      D29B2575 
 367 0dc0 18D63A57 		.ascii	"\030\326:W\322\377\300\331\241\246\205^\357[\271\177"
 367      D2FFC0D9 
 367      A1A6855E 
 367      EF5BB97F 
 368 0dd0 01A81F34 		.ascii	"\001\250\0374\323"
 368      D3
 369              		.text
 370              		.section	.gnu.lto_.symtab.792a6780,"",%progbits
 371 0000 75387838 		.ascii	"u8x8_UserInterfaceInputValue\000"
 371      5F557365 
 371      72496E74 
 371      65726661 
 371      6365496E 
 372 001d 00       		.ascii	"\000"
 373 001e 00       		.ascii	"\000"
 374 001f 00       		.ascii	"\000"
 375 0020 00000000 		.ascii	"\000\000\000\000\000\000\000\000"
 375      00000000 
 376 0028 52010000 		.ascii	"R\001\000\000"
 377 002c 75387838 		.ascii	"u8x8_DrawUTF8\000"
 377      5F447261 
 377      77555446 
 377      3800
 378 003a 00       		.ascii	"\000"
 379 003b 02       		.ascii	"\002"
 380 003c 00       		.ascii	"\000"
 381 003d 00000000 		.ascii	"\000\000\000\000\000\000\000\000"
 381      00000000 
 382 0045 59010000 		.ascii	"Y\001\000\000"
 383 0049 75387838 		.ascii	"u8x8_u8toa\000"
 383      5F753874 
 383      6F6100
 384 0054 00       		.ascii	"\000"
 385 0055 02       		.ascii	"\002"
 386 0056 00       		.ascii	"\000"
 387 0057 00000000 		.ascii	"\000\000\000\000\000\000\000\000"
 387      00000000 
 388 005f 5E010000 		.ascii	"^\001\000\000"
 389 0063 75387838 		.ascii	"u8x8_GetMenuEvent\000"
 389      5F476574 
ARM GAS  C:\Users\info\AppData\Local\Temp\ccKyKd3g.s 			page 30


 389      4D656E75 
 389      4576656E 
 389      7400
 390 0075 00       		.ascii	"\000"
 391 0076 02       		.ascii	"\002"
 392 0077 00       		.ascii	"\000"
 393 0078 00000000 		.ascii	"\000\000\000\000\000\000\000\000"
 393      00000000 
 394 0080 62010000 		.ascii	"b\001\000\000"
 395 0084 75387838 		.ascii	"u8x8_DrawUTF8Lines\000"
 395      5F447261 
 395      77555446 
 395      384C696E 
 395      657300
 396 0097 00       		.ascii	"\000"
 397 0098 02       		.ascii	"\002"
 398 0099 00       		.ascii	"\000"
 399 009a 00000000 		.ascii	"\000\000\000\000\000\000\000\000"
 399      00000000 
 400 00a2 6A010000 		.ascii	"j\001\000\000"
 401 00a6 75387838 		.ascii	"u8x8_ClearDisplay\000"
 401      5F436C65 
 401      61724469 
 401      73706C61 
 401      7900
 402 00b8 00       		.ascii	"\000"
 403 00b9 02       		.ascii	"\002"
 404 00ba 00       		.ascii	"\000"
 405 00bb 00000000 		.ascii	"\000\000\000\000\000\000\000\000"
 405      00000000 
 406 00c3 6E010000 		.ascii	"n\001\000\000"
 407 00c7 75387838 		.ascii	"u8x8_GetUTF8Len\000"
 407      5F476574 
 407      55544638 
 407      4C656E00 
 408 00d7 00       		.ascii	"\000"
 409 00d8 02       		.ascii	"\002"
 410 00d9 00       		.ascii	"\000"
 411 00da 00000000 		.ascii	"\000\000\000\000\000\000\000\000"
 411      00000000 
 412 00e2 73010000 		.ascii	"s\001\000\000"
 413 00e6 75387838 		.ascii	"u8x8_GetStringLineCnt\000"
 413      5F476574 
 413      53747269 
 413      6E674C69 
 413      6E65436E 
 414 00fc 00       		.ascii	"\000"
 415 00fd 02       		.ascii	"\002"
 416 00fe 00       		.ascii	"\000"
 417 00ff 00000000 		.ascii	"\000\000\000\000\000\000\000\000"
 417      00000000 
 418 0107 77010000 		.ascii	"w\001\000\000"
 419              		.text
 420              		.section	.gnu.lto_.opts,"",%progbits
 421 0000 272D666D 		.ascii	"'-fmath-errno' '-fsigned-zeros' '-ftrapping-math' '"
 421      6174682D 
 421      6572726E 
ARM GAS  C:\Users\info\AppData\Local\Temp\ccKyKd3g.s 			page 31


 421      6F272027 
 421      2D667369 
 422 0033 2D666E6F 		.ascii	"-fno-trapv' '-fno-strict-overflow' '-fno-openmp' '-"
 422      2D747261 
 422      70762720 
 422      272D666E 
 422      6F2D7374 
 423 0066 666E6F2D 		.ascii	"fno-openacc' '-mcpu=cortex-m3' '-mthumb' '-g' '-Og'"
 423      6F70656E 
 423      61636327 
 423      20272D6D 
 423      6370753D 
 424 0099 20272D66 		.ascii	" '-ffunction-sections' '-ffat-lto-objects' '-flto'\000"
 424      66756E63 
 424      74696F6E 
 424      2D736563 
 424      74696F6E 
 425              		.text
 426              		.cfi_sections	.debug_frame
 427              		.section	.text.u8x8_UserInterfaceInputValue,"ax",%progbits
 428              		.align	2
 429              		.global	u8x8_UserInterfaceInputValue
 430              		.thumb
 431              		.thumb_func
 432              		.type	u8x8_UserInterfaceInputValue, %function
 433              	u8x8_UserInterfaceInputValue:
 434              	.LFB0:
 435              		.file 1 "..\\u8g2_csrc\\u8x8_input_value.c"
   1:..\u8g2_csrc/u8x8_input_value.c **** /*
   2:..\u8g2_csrc/u8x8_input_value.c **** 
   3:..\u8g2_csrc/u8x8_input_value.c ****   u8x8_input_value.c
   4:..\u8g2_csrc/u8x8_input_value.c ****   
   5:..\u8g2_csrc/u8x8_input_value.c ****   Universal 8bit Graphics Library (https://github.com/olikraus/u8g2/)
   6:..\u8g2_csrc/u8x8_input_value.c **** 
   7:..\u8g2_csrc/u8x8_input_value.c ****   Copyright (c) 2016, olikraus@gmail.com
   8:..\u8g2_csrc/u8x8_input_value.c ****   All rights reserved.
   9:..\u8g2_csrc/u8x8_input_value.c **** 
  10:..\u8g2_csrc/u8x8_input_value.c ****   Redistribution and use in source and binary forms, with or without modification, 
  11:..\u8g2_csrc/u8x8_input_value.c ****   are permitted provided that the following conditions are met:
  12:..\u8g2_csrc/u8x8_input_value.c **** 
  13:..\u8g2_csrc/u8x8_input_value.c ****   * Redistributions of source code must retain the above copyright notice, this list 
  14:..\u8g2_csrc/u8x8_input_value.c ****     of conditions and the following disclaimer.
  15:..\u8g2_csrc/u8x8_input_value.c ****     
  16:..\u8g2_csrc/u8x8_input_value.c ****   * Redistributions in binary form must reproduce the above copyright notice, this 
  17:..\u8g2_csrc/u8x8_input_value.c ****     list of conditions and the following disclaimer in the documentation and/or other 
  18:..\u8g2_csrc/u8x8_input_value.c ****     materials provided with the distribution.
  19:..\u8g2_csrc/u8x8_input_value.c **** 
  20:..\u8g2_csrc/u8x8_input_value.c ****   THIS SOFTWARE IS PROVIDED BY THE COPYRIGHT HOLDERS AND 
  21:..\u8g2_csrc/u8x8_input_value.c ****   CONTRIBUTORS "AS IS" AND ANY EXPRESS OR IMPLIED WARRANTIES, 
  22:..\u8g2_csrc/u8x8_input_value.c ****   INCLUDING, BUT NOT LIMITED TO, THE IMPLIED WARRANTIES OF 
  23:..\u8g2_csrc/u8x8_input_value.c ****   MERCHANTABILITY AND FITNESS FOR A PARTICULAR PURPOSE ARE 
  24:..\u8g2_csrc/u8x8_input_value.c ****   DISCLAIMED. IN NO EVENT SHALL THE COPYRIGHT HOLDER OR 
  25:..\u8g2_csrc/u8x8_input_value.c ****   CONTRIBUTORS BE LIABLE FOR ANY DIRECT, INDIRECT, INCIDENTAL, 
  26:..\u8g2_csrc/u8x8_input_value.c ****   SPECIAL, EXEMPLARY, OR CONSEQUENTIAL DAMAGES (INCLUDING, BUT 
  27:..\u8g2_csrc/u8x8_input_value.c ****   NOT LIMITED TO, PROCUREMENT OF SUBSTITUTE GOODS OR SERVICES; 
  28:..\u8g2_csrc/u8x8_input_value.c ****   LOSS OF USE, DATA, OR PROFITS; OR BUSINESS INTERRUPTION) HOWEVER 
  29:..\u8g2_csrc/u8x8_input_value.c ****   CAUSED AND ON ANY THEORY OF LIABILITY, WHETHER IN CONTRACT, 
ARM GAS  C:\Users\info\AppData\Local\Temp\ccKyKd3g.s 			page 32


  30:..\u8g2_csrc/u8x8_input_value.c ****   STRICT LIABILITY, OR TORT (INCLUDING NEGLIGENCE OR OTHERWISE) 
  31:..\u8g2_csrc/u8x8_input_value.c ****   ARISING IN ANY WAY OUT OF THE USE OF THIS SOFTWARE, EVEN IF 
  32:..\u8g2_csrc/u8x8_input_value.c ****   ADVISED OF THE POSSIBILITY OF SUCH DAMAGE.  
  33:..\u8g2_csrc/u8x8_input_value.c ****   
  34:..\u8g2_csrc/u8x8_input_value.c **** */
  35:..\u8g2_csrc/u8x8_input_value.c **** 
  36:..\u8g2_csrc/u8x8_input_value.c **** #include "u8x8.h"
  37:..\u8g2_csrc/u8x8_input_value.c **** 
  38:..\u8g2_csrc/u8x8_input_value.c **** /*
  39:..\u8g2_csrc/u8x8_input_value.c ****   return:
  40:..\u8g2_csrc/u8x8_input_value.c ****     0: value is not changed (HOME/Break Button pressed)
  41:..\u8g2_csrc/u8x8_input_value.c ****     1: value has been updated
  42:..\u8g2_csrc/u8x8_input_value.c **** */
  43:..\u8g2_csrc/u8x8_input_value.c **** 
  44:..\u8g2_csrc/u8x8_input_value.c **** uint8_t u8x8_UserInterfaceInputValue(u8x8_t *u8x8, const char *title, const char *pre, uint8_t *val
  45:..\u8g2_csrc/u8x8_input_value.c **** {
 436              		.loc 1 45 0
 437              		.cfi_startproc
 438              		@ args = 16, pretend = 0, frame = 8
 439              		@ frame_needed = 0, uses_anonymous_args = 0
 440              	.LVL0:
 441 0000 2DE9F04F 		push	{r4, r5, r6, r7, r8, r9, r10, fp, lr}
 442              		.cfi_def_cfa_offset 36
 443              		.cfi_offset 4, -36
 444              		.cfi_offset 5, -32
 445              		.cfi_offset 6, -28
 446              		.cfi_offset 7, -24
 447              		.cfi_offset 8, -20
 448              		.cfi_offset 9, -16
 449              		.cfi_offset 10, -12
 450              		.cfi_offset 11, -8
 451              		.cfi_offset 14, -4
 452 0004 85B0     		sub	sp, sp, #20
 453              		.cfi_def_cfa_offset 56
 454 0006 0546     		mov	r5, r0
 455 0008 0391     		str	r1, [sp, #12]
 456 000a 0292     		str	r2, [sp, #8]
 457 000c 9B46     		mov	fp, r3
 458 000e 9DF83890 		ldrb	r9, [sp, #56]	@ zero_extendqisi2
 459 0012 9DF83C80 		ldrb	r8, [sp, #60]	@ zero_extendqisi2
 460 0016 9DF84060 		ldrb	r6, [sp, #64]	@ zero_extendqisi2
  46:..\u8g2_csrc/u8x8_input_value.c ****   uint8_t height;
  47:..\u8g2_csrc/u8x8_input_value.c ****   uint8_t y;
  48:..\u8g2_csrc/u8x8_input_value.c ****   uint8_t width;
  49:..\u8g2_csrc/u8x8_input_value.c ****   uint8_t x;
  50:..\u8g2_csrc/u8x8_input_value.c ****   uint8_t local_value = *value;
 461              		.loc 1 50 0
 462 001a 1C78     		ldrb	r4, [r3]	@ zero_extendqisi2
 463              	.LVL1:
  51:..\u8g2_csrc/u8x8_input_value.c ****   uint8_t r;
  52:..\u8g2_csrc/u8x8_input_value.c ****   uint8_t event;
  53:..\u8g2_csrc/u8x8_input_value.c **** 
  54:..\u8g2_csrc/u8x8_input_value.c ****   /* calculate overall height of the input value box */
  55:..\u8g2_csrc/u8x8_input_value.c ****   height = 1;	/* button line */
  56:..\u8g2_csrc/u8x8_input_value.c ****   height += u8x8_GetStringLineCnt(title);
 464              		.loc 1 56 0
 465 001c 0846     		mov	r0, r1
ARM GAS  C:\Users\info\AppData\Local\Temp\ccKyKd3g.s 			page 33


 466              	.LVL2:
 467 001e FFF7FEFF 		bl	u8x8_GetStringLineCnt
 468              	.LVL3:
 469 0022 0130     		adds	r0, r0, #1
 470 0024 C0B2     		uxtb	r0, r0
 471              	.LVL4:
  57:..\u8g2_csrc/u8x8_input_value.c ****   
  58:..\u8g2_csrc/u8x8_input_value.c ****   /* calculate offset from top */
  59:..\u8g2_csrc/u8x8_input_value.c ****   y = 0;
  60:..\u8g2_csrc/u8x8_input_value.c ****   if ( height < u8x8_GetRows(u8x8)  )
 472              		.loc 1 60 0
 473 0026 2B68     		ldr	r3, [r5]
 474 0028 5B7C     		ldrb	r3, [r3, #17]	@ zero_extendqisi2
 475 002a 9842     		cmp	r0, r3
 476 002c 03D2     		bcs	.L13
 477              	.LVL5:
  61:..\u8g2_csrc/u8x8_input_value.c ****   {
  62:..\u8g2_csrc/u8x8_input_value.c ****     y = u8x8_GetRows(u8x8);
  63:..\u8g2_csrc/u8x8_input_value.c ****     y -= height;
 478              		.loc 1 63 0
 479 002e 181A     		subs	r0, r3, r0
 480              	.LVL6:
  64:..\u8g2_csrc/u8x8_input_value.c ****     y /= 2;
 481              		.loc 1 64 0
 482 0030 C0F3460A 		ubfx	r10, r0, #1, #7
 483              	.LVL7:
 484 0034 01E0     		b	.L2
 485              	.LVL8:
 486              	.L13:
  59:..\u8g2_csrc/u8x8_input_value.c ****   if ( height < u8x8_GetRows(u8x8)  )
 487              		.loc 1 59 0
 488 0036 4FF0000A 		mov	r10, #0
 489              	.LVL9:
 490              	.L2:
  65:..\u8g2_csrc/u8x8_input_value.c ****   }
  66:..\u8g2_csrc/u8x8_input_value.c ****   
  67:..\u8g2_csrc/u8x8_input_value.c ****   /* calculate offset from left for the label */
  68:..\u8g2_csrc/u8x8_input_value.c ****   x = 0;
  69:..\u8g2_csrc/u8x8_input_value.c ****   width = u8x8_GetUTF8Len(u8x8, pre);
 491              		.loc 1 69 0
 492 003a 0299     		ldr	r1, [sp, #8]
 493 003c 2846     		mov	r0, r5
 494 003e FFF7FEFF 		bl	u8x8_GetUTF8Len
 495              	.LVL10:
  70:..\u8g2_csrc/u8x8_input_value.c ****   width += digits;
 496              		.loc 1 70 0
 497 0042 3044     		add	r0, r0, r6
 498              	.LVL11:
 499 0044 C7B2     		uxtb	r7, r0
 500              	.LVL12:
  71:..\u8g2_csrc/u8x8_input_value.c ****   width += u8x8_GetUTF8Len(u8x8, post);
 501              		.loc 1 71 0
 502 0046 1199     		ldr	r1, [sp, #68]
 503 0048 2846     		mov	r0, r5
 504 004a FFF7FEFF 		bl	u8x8_GetUTF8Len
 505              	.LVL13:
 506 004e 3844     		add	r0, r0, r7
ARM GAS  C:\Users\info\AppData\Local\Temp\ccKyKd3g.s 			page 34


 507 0050 C0B2     		uxtb	r0, r0
 508              	.LVL14:
  72:..\u8g2_csrc/u8x8_input_value.c ****   if ( width < u8x8_GetCols(u8x8) )
 509              		.loc 1 72 0
 510 0052 2B68     		ldr	r3, [r5]
 511 0054 1F7C     		ldrb	r7, [r3, #16]	@ zero_extendqisi2
 512 0056 B842     		cmp	r0, r7
 513 0058 03D2     		bcs	.L14
 514              	.LVL15:
  73:..\u8g2_csrc/u8x8_input_value.c ****   {
  74:..\u8g2_csrc/u8x8_input_value.c ****     x = u8x8_GetCols(u8x8);
  75:..\u8g2_csrc/u8x8_input_value.c ****     x -= width;
 515              		.loc 1 75 0
 516 005a 3F1A     		subs	r7, r7, r0
 517              	.LVL16:
  76:..\u8g2_csrc/u8x8_input_value.c ****     x /= 2;
 518              		.loc 1 76 0
 519 005c C7F34607 		ubfx	r7, r7, #1, #7
 520              	.LVL17:
 521 0060 00E0     		b	.L3
 522              	.LVL18:
 523              	.L14:
  68:..\u8g2_csrc/u8x8_input_value.c ****   width = u8x8_GetUTF8Len(u8x8, pre);
 524              		.loc 1 68 0
 525 0062 0027     		movs	r7, #0
 526              	.LVL19:
 527              	.L3:
  77:..\u8g2_csrc/u8x8_input_value.c ****   }
  78:..\u8g2_csrc/u8x8_input_value.c ****   
  79:..\u8g2_csrc/u8x8_input_value.c ****   /* render */
  80:..\u8g2_csrc/u8x8_input_value.c ****   u8x8_ClearDisplay(u8x8);   /* required, because not everything is filled */
 528              		.loc 1 80 0
 529 0064 2846     		mov	r0, r5
 530              	.LVL20:
 531 0066 FFF7FEFF 		bl	u8x8_ClearDisplay
 532              	.LVL21:
  81:..\u8g2_csrc/u8x8_input_value.c ****   u8x8_SetInverseFont(u8x8, 0);  
 533              		.loc 1 81 0
 534 006a 0021     		movs	r1, #0
 535 006c 85F82310 		strb	r1, [r5, #35]
  82:..\u8g2_csrc/u8x8_input_value.c ****   y += u8x8_DrawUTF8Lines(u8x8, 0, y, u8x8_GetCols(u8x8), title);
 536              		.loc 1 82 0
 537 0070 2B68     		ldr	r3, [r5]
 538 0072 1B7C     		ldrb	r3, [r3, #16]	@ zero_extendqisi2
 539 0074 039A     		ldr	r2, [sp, #12]
 540 0076 0092     		str	r2, [sp]
 541 0078 5246     		mov	r2, r10
 542 007a 2846     		mov	r0, r5
 543 007c FFF7FEFF 		bl	u8x8_DrawUTF8Lines
 544              	.LVL22:
 545 0080 5044     		add	r0, r0, r10
 546 0082 5FFA80FA 		uxtb	r10, r0
 547              	.LVL23:
  83:..\u8g2_csrc/u8x8_input_value.c ****   x += u8x8_DrawUTF8(u8x8, x, y, pre);
 548              		.loc 1 83 0
 549 0086 029B     		ldr	r3, [sp, #8]
 550 0088 5246     		mov	r2, r10
ARM GAS  C:\Users\info\AppData\Local\Temp\ccKyKd3g.s 			page 35


 551 008a 3946     		mov	r1, r7
 552 008c 2846     		mov	r0, r5
 553 008e FFF7FEFF 		bl	u8x8_DrawUTF8
 554              	.LVL24:
 555 0092 3844     		add	r0, r0, r7
 556 0094 C7B2     		uxtb	r7, r0
 557              	.LVL25:
  84:..\u8g2_csrc/u8x8_input_value.c ****   u8x8_DrawUTF8(u8x8, x+digits, y, post);
 558              		.loc 1 84 0
 559 0096 F119     		adds	r1, r6, r7
 560 0098 119B     		ldr	r3, [sp, #68]
 561 009a 5246     		mov	r2, r10
 562 009c C9B2     		uxtb	r1, r1
 563 009e 2846     		mov	r0, r5
 564 00a0 FFF7FEFF 		bl	u8x8_DrawUTF8
 565              	.LVL26:
  85:..\u8g2_csrc/u8x8_input_value.c ****   u8x8_SetInverseFont(u8x8, 1);
 566              		.loc 1 85 0
 567 00a4 0123     		movs	r3, #1
 568 00a6 85F82330 		strb	r3, [r5, #35]
  86:..\u8g2_csrc/u8x8_input_value.c ****   
  87:..\u8g2_csrc/u8x8_input_value.c ****   /* event loop */
  88:..\u8g2_csrc/u8x8_input_value.c ****   u8x8_DrawUTF8(u8x8, x, y, u8x8_u8toa(local_value, digits));
 569              		.loc 1 88 0
 570 00aa 3146     		mov	r1, r6
 571 00ac 2046     		mov	r0, r4
 572 00ae FFF7FEFF 		bl	u8x8_u8toa
 573              	.LVL27:
 574 00b2 0346     		mov	r3, r0
 575 00b4 5246     		mov	r2, r10
 576 00b6 3946     		mov	r1, r7
 577 00b8 2846     		mov	r0, r5
 578 00ba FFF7FEFF 		bl	u8x8_DrawUTF8
 579              	.LVL28:
 580              	.L4:
  89:..\u8g2_csrc/u8x8_input_value.c ****   for(;;)
  90:..\u8g2_csrc/u8x8_input_value.c ****   {
  91:..\u8g2_csrc/u8x8_input_value.c ****     event = u8x8_GetMenuEvent(u8x8);
 581              		.loc 1 91 0
 582 00be 2846     		mov	r0, r5
 583 00c0 FFF7FEFF 		bl	u8x8_GetMenuEvent
 584              	.LVL29:
  92:..\u8g2_csrc/u8x8_input_value.c ****     if ( event == U8X8_MSG_GPIO_MENU_SELECT )
 585              		.loc 1 92 0
 586 00c4 5028     		cmp	r0, #80
 587 00c6 03D1     		bne	.L5
  93:..\u8g2_csrc/u8x8_input_value.c ****     {
  94:..\u8g2_csrc/u8x8_input_value.c ****       *value = local_value;
 588              		.loc 1 94 0
 589 00c8 8BF80040 		strb	r4, [fp]
 590              	.LVL30:
  95:..\u8g2_csrc/u8x8_input_value.c ****       r = 1;
 591              		.loc 1 95 0
 592 00cc 0120     		movs	r0, #1
 593              	.LVL31:
  96:..\u8g2_csrc/u8x8_input_value.c ****       break;
 594              		.loc 1 96 0
ARM GAS  C:\Users\info\AppData\Local\Temp\ccKyKd3g.s 			page 36


 595 00ce 2CE0     		b	.L6
 596              	.LVL32:
 597              	.L5:
  97:..\u8g2_csrc/u8x8_input_value.c ****     }
  98:..\u8g2_csrc/u8x8_input_value.c ****     else if ( event == U8X8_MSG_GPIO_MENU_HOME )
 598              		.loc 1 98 0
 599 00d0 5328     		cmp	r0, #83
 600 00d2 29D0     		beq	.L15
  99:..\u8g2_csrc/u8x8_input_value.c ****     {
 100:..\u8g2_csrc/u8x8_input_value.c ****       r = 0;
 101:..\u8g2_csrc/u8x8_input_value.c ****       break;
 102:..\u8g2_csrc/u8x8_input_value.c ****     }
 103:..\u8g2_csrc/u8x8_input_value.c ****     else if ( event == U8X8_MSG_GPIO_MENU_NEXT || event == U8X8_MSG_GPIO_MENU_UP )
 601              		.loc 1 103 0
 602 00d4 5128     		cmp	r0, #81
 603 00d6 01D0     		beq	.L7
 604              		.loc 1 103 0 is_stmt 0 discriminator 1
 605 00d8 5428     		cmp	r0, #84
 606 00da 10D1     		bne	.L8
 607              	.L7:
 104:..\u8g2_csrc/u8x8_input_value.c ****     {
 105:..\u8g2_csrc/u8x8_input_value.c ****       if ( local_value >= hi )
 608              		.loc 1 105 0 is_stmt 1
 609 00dc 4445     		cmp	r4, r8
 610 00de 02D2     		bcs	.L16
 106:..\u8g2_csrc/u8x8_input_value.c **** 	local_value = lo;
 107:..\u8g2_csrc/u8x8_input_value.c ****       else
 108:..\u8g2_csrc/u8x8_input_value.c **** 	local_value++;
 611              		.loc 1 108 0
 612 00e0 0134     		adds	r4, r4, #1
 613              	.LVL33:
 614 00e2 E4B2     		uxtb	r4, r4
 615              	.LVL34:
 616 00e4 00E0     		b	.L9
 617              	.L16:
 106:..\u8g2_csrc/u8x8_input_value.c **** 	local_value = lo;
 618              		.loc 1 106 0
 619 00e6 4C46     		mov	r4, r9
 620              	.LVL35:
 621              	.L9:
 109:..\u8g2_csrc/u8x8_input_value.c ****       u8x8_DrawUTF8(u8x8, x, y, u8x8_u8toa(local_value, digits));
 622              		.loc 1 109 0
 623 00e8 3146     		mov	r1, r6
 624 00ea 2046     		mov	r0, r4
 625              	.LVL36:
 626 00ec FFF7FEFF 		bl	u8x8_u8toa
 627              	.LVL37:
 628 00f0 0346     		mov	r3, r0
 629 00f2 5246     		mov	r2, r10
 630 00f4 3946     		mov	r1, r7
 631 00f6 2846     		mov	r0, r5
 632 00f8 FFF7FEFF 		bl	u8x8_DrawUTF8
 633              	.LVL38:
 634 00fc DFE7     		b	.L4
 635              	.LVL39:
 636              	.L8:
 110:..\u8g2_csrc/u8x8_input_value.c ****     }
ARM GAS  C:\Users\info\AppData\Local\Temp\ccKyKd3g.s 			page 37


 111:..\u8g2_csrc/u8x8_input_value.c ****     else if ( event == U8X8_MSG_GPIO_MENU_PREV || event == U8X8_MSG_GPIO_MENU_DOWN )
 637              		.loc 1 111 0
 638 00fe 5228     		cmp	r0, #82
 639 0100 01D0     		beq	.L11
 640              		.loc 1 111 0 is_stmt 0 discriminator 1
 641 0102 5528     		cmp	r0, #85
 642 0104 DBD1     		bne	.L4
 643              	.L11:
 112:..\u8g2_csrc/u8x8_input_value.c ****     {
 113:..\u8g2_csrc/u8x8_input_value.c ****       if ( local_value <= lo )
 644              		.loc 1 113 0 is_stmt 1
 645 0106 4C45     		cmp	r4, r9
 646 0108 02D9     		bls	.L17
 114:..\u8g2_csrc/u8x8_input_value.c **** 	local_value = hi;
 115:..\u8g2_csrc/u8x8_input_value.c ****       else
 116:..\u8g2_csrc/u8x8_input_value.c **** 	local_value--;
 647              		.loc 1 116 0
 648 010a 013C     		subs	r4, r4, #1
 649              	.LVL40:
 650 010c E4B2     		uxtb	r4, r4
 651              	.LVL41:
 652 010e 00E0     		b	.L12
 653              	.L17:
 114:..\u8g2_csrc/u8x8_input_value.c **** 	local_value = hi;
 654              		.loc 1 114 0
 655 0110 4446     		mov	r4, r8
 656              	.LVL42:
 657              	.L12:
 117:..\u8g2_csrc/u8x8_input_value.c ****       u8x8_DrawUTF8(u8x8, x, y, u8x8_u8toa(local_value, digits));
 658              		.loc 1 117 0
 659 0112 3146     		mov	r1, r6
 660 0114 2046     		mov	r0, r4
 661              	.LVL43:
 662 0116 FFF7FEFF 		bl	u8x8_u8toa
 663              	.LVL44:
 664 011a 0346     		mov	r3, r0
 665 011c 5246     		mov	r2, r10
 666 011e 3946     		mov	r1, r7
 667 0120 2846     		mov	r0, r5
 668 0122 FFF7FEFF 		bl	u8x8_DrawUTF8
 669              	.LVL45:
 670 0126 CAE7     		b	.L4
 671              	.LVL46:
 672              	.L15:
 100:..\u8g2_csrc/u8x8_input_value.c ****       break;
 673              		.loc 1 100 0
 674 0128 0020     		movs	r0, #0
 675              	.LVL47:
 676              	.L6:
 118:..\u8g2_csrc/u8x8_input_value.c ****     }        
 119:..\u8g2_csrc/u8x8_input_value.c ****   }
 120:..\u8g2_csrc/u8x8_input_value.c ****   
 121:..\u8g2_csrc/u8x8_input_value.c ****   u8x8_SetInverseFont(u8x8, 0);
 677              		.loc 1 121 0
 678 012a 0023     		movs	r3, #0
 679 012c 85F82330 		strb	r3, [r5, #35]
 122:..\u8g2_csrc/u8x8_input_value.c ****   return r;  
ARM GAS  C:\Users\info\AppData\Local\Temp\ccKyKd3g.s 			page 38


 123:..\u8g2_csrc/u8x8_input_value.c **** }
 680              		.loc 1 123 0
 681 0130 05B0     		add	sp, sp, #20
 682              		.cfi_def_cfa_offset 36
 683              		@ sp needed
 684 0132 BDE8F08F 		pop	{r4, r5, r6, r7, r8, r9, r10, fp, pc}
 685              		.cfi_endproc
 686              	.LFE0:
 687              		.size	u8x8_UserInterfaceInputValue, .-u8x8_UserInterfaceInputValue
 688 0136 00BF     		.text
 689              	.Letext0:
 690              		.file 2 "c:\\program files (x86)\\cypress\\psoc creator\\4.2\\psoc creator\\import\\gnu\\arm\\5.4.
 691              		.file 3 "c:\\program files (x86)\\cypress\\psoc creator\\4.2\\psoc creator\\import\\gnu\\arm\\5.4.
 692              		.file 4 "..\\u8g2_csrc\\u8x8.h"