ARM GAS  C:\Users\info\AppData\Local\Temp\ccKCcKAd.s 			page 1


   1              		.syntax unified
   2              		.cpu cortex-m3
   3              		.fpu softvfp
   4              		.eabi_attribute 20, 1
   5              		.eabi_attribute 21, 1
   6              		.eabi_attribute 23, 3
   7              		.eabi_attribute 24, 1
   8              		.eabi_attribute 25, 1
   9              		.eabi_attribute 26, 1
  10              		.eabi_attribute 30, 1
  11              		.eabi_attribute 34, 1
  12              		.eabi_attribute 18, 4
  13              		.thumb
  14              		.syntax unified
  15              		.file	"u8x8_d_pcf8814_hx1230.c"
  16              		.text
  17              	.Ltext0:
  18              		.section	.gnu.lto_.profile.792a4b67,"",%progbits
  19 0000 789C6361 		.ascii	"x\234ca`d`e`\000\222\037\030c\001\003\255\001Z"
  19      60646065 
  19      6000921F 
  19      18630103 
  19      AD015A
  20              		.text
  21              		.section	.gnu.lto_.inline.792a4b67,"",%progbits
  22 0000 789C6361 		.ascii	"x\234ca`d\000\201]\014\010\300\304\300p\231\3410P\202"
  22      60640081 
  22      5D0C08C0 
  22      C4C07099 
  22      E1305082 
  23 0014 C975D377 		.ascii	"\311u\323wF\006\376kNL`an\006\006\306\011~,\274\214"
  23      4606FE6B 
  23      4E4C6061 
  23      6E0606C6 
  23      097E2CBC 
  24 0029 0CCCD3B5 		.ascii	"\014\314\323\265&\370M\360c\346\001\212bg@\025C)ta("
  24      26F84DF0 
  24      63E6018A 
  24      62674015 
  24      43297461 
  25 003e 9F81100D 		.ascii	"\237\201\020\015U\316\306\300'\004t\015\313\002y\006"
  25      55CEC6C0 
  25      2704740D 
  25      CB027906 
  26 004e B605F260 		.ascii	"\266\005\362`\307\260\36130\260\200LD\262\225\201\001"
  26      C7B0F133 
  26      30B0804C 
  26      44B29581 
  26      01
  27 005f 0035491E 		.ascii	"\0005I\036\263"
  27      B3
  28              		.text
  29              		.section	.gnu.lto_.jmpfuncs.792a4b67,"",%progbits
  30 0000 789C6361 		.ascii	"x\234ca`d\000\001I\006\004`b\300\000l`\022\000\004\377"
  30      60640001 
  30      49060460 
  30      62C0006C 
ARM GAS  C:\Users\info\AppData\Local\Temp\ccKCcKAd.s 			page 2


  30      60120004 
  31 0015 0027     		.ascii	"\000'"
  32              		.text
  33              		.section	.gnu.lto_.pureconst.792a4b67,"",%progbits
  34 0000 789C6361 		.ascii	"x\234ca`d`e```b\220b\223\000\000\000\365\000E"
  34      60646065 
  34      60606062 
  34      90629300 
  34      0000F500 
  35              		.text
  36              		.section	.gnu.lto_u8x8_d_hx1230_96x68_generic.792a4b67,"",%progbits
  37 0000 789C9D57 		.ascii	"x\234\235Wkl\024U\024\276g\356\356\314\356\354\253\202"
  37      6B6C1455 
  37      14BE67EE 
  37      EECCEEEC 
  37      AB82
  38 0012 82CA028D 		.ascii	"\202\312\002\215\244\364\221\312\323\037\230\370CM\214"
  38      A4F491CA 
  38      D31F98F8 
  38      434D8C
  39 0021 FEF6B749 		.ascii	"\376\366\267I\243U\321\030\015AM\370c:\335\355\266@"
  39      A355D118 
  39      0D414DF8 
  39      633ADDED 
  39      B640
  40 0033 908781B6 		.ascii	"\220\207\201\266 \017\215V\220\"\264\010H\253\310\362"
  40      200F8D56 
  40      9022B408 
  40      48ABC8F2 
  41 0043 6AA1B645 		.ascii	"j\241\266E\240\262\026|@yX\021\201- \017)\3539\347\356"
  41      A0B2167C 
  41      40795811 
  41      812D200F 
  41      29EB39E7 
  42 0058 7477DB6D 		.ascii	"tw\333m!n\262w\356\334\271\337w\277\363\3353gf\034\002"
  42      216EB277 
  42      EEDCB9DF 
  42      77BFF3DD 
  42      3367661C 
  43 006d 04FDF6F8 		.ascii	"\004\375\366\370\205x\001\217\307\361\0179\002\264\245"
  43      8578018F 
  43      C7F10F39 
  43      02B4A5
  44 007c 9D4294BB 		.ascii	"\235B\224\2734\335\037\366\011\313%\271upkpkr\353QW"
  44      34DD1FF6 
  44      09CB25B9 
  44      75706B70 
  44      6B72EB51 
  45 0091 C1AFA63B 		.ascii	"\301\257\246;4\347\374|a\231:\265^\247=\254\333\035"
  45      34E7FC7C 
  45      61993AB5 
  45      5EA73DAC 
  45      DB1D
  46 00a3 4373F175 		.ascii	"Cs\361u7_w\331\303n\273c\332\035\017xU\307\253\005\026"
  46      375F77D9 
  46      C36EBB63 
  46      DA1D0F78 
ARM GAS  C:\Users\info\AppData\Local\Temp\ccKCcKAd.s 			page 3


  46      55C7AB05 
  47 00b8 B50A84F8 		.ascii	"\265\012\204\370*\014\204\004\324\3703>{\242\037\200"
  47      2A0C8404 
  47      D4F8333E 
  47      7BA21F80 
  48 00c8 3A960B44 		.ascii	":\226\013D\231&\035N\335p\271M\2177\340\363C\231\346"
  48      99261D4E 
  48      DD70B94D 
  48      8F37E0F3 
  48      4399E6
  49 00db 15107540 		.ascii	"\025\020u@BEx]\353\327\340\207\033\007\027\231\205\353"
  49      4245785D 
  49      EBD7E087 
  49      1B071799 
  49      85EB
  50 00ed 2D2B649D 		.ascii	"-+d\235:\320\367t_(\362pD\012\221\320\004\314\014\302"
  50      3AD0F774 
  50      5F28F270 
  50      440A91D0 
  50      04CC0CC2 
  51 0101 B42045BF 		.ascii	"\264 E\277\036\012q\346\221\212\206\325\362\232\026"
  51      1E0A71E6 
  51      918A86D5 
  51      F29A16
  52 0110 91000E3C 		.ascii	"\221\000\016<\215w\254:\343\247S\015r\361\364\223\256"
  52      8D77AC3A 
  52      E3A7530D 
  52      72F1F493 
  52      AE
  53 0121 CF7ED165 		.ascii	"\317~\321e\001\010\354W\267u]\362\345\327\021\247\325"
  53      0108EC57 
  53      B7755DF2 
  53      E5D711A7 
  53      D5
  54 0132 FD9AE58E 		.ascii	"\375\232\345\216H\011\033A\022\347\227\020\204\015\020"
  54      48091B41 
  54      12E79710 
  54      840D10
  55 0141 143824A0 		.ascii	"\0248$\240\036\362qv{CS\314!\037g\344\215\357\366\365"
  55      1EF27176 
  55      7B4353CC 
  55      211F67E4 
  55      8DEFF6F5 
  56 0155 DBC8152D 		.ascii	"\333\310\025-\036k\032j\201M\012\252\344\2208\370\212"
  56      1E6B1A6A 
  56      814D0AAA 
  56      E49038F8 
  56      8A
  57 0166 81B5474E 		.ascii	"\201\265GN}h\312\351\014\\}\356r\2673\011\334m\0037"
  57      7D68CAE9 
  57      0C5C7DEE 
  57      72B73309 
  57      DC6D0337 
  58 017a 0F016E61 		.ascii	"\017\001na`\367\037\035\307L\371$\0037n\377}\253\221"
  58      60F71F1D 
  58      C74CF924 
  58      03376EFF 
ARM GAS  C:\Users\info\AppData\Local\Temp\ccKCcKAd.s 			page 4


  58      7DAB91
  59 018d 04F6B778 		.ascii	"\004\366\267x\255\245\020\221\016h\030\254\326!\240"
  59      ADA51091 
  59      0E6818AC 
  59      D621A0
  60 019c 11F209B0 		.ascii	"\021\362\011\260\270ka\217\224\3170\270\316jX\350\316"
  60      B86B618F 
  60      94CF30B8 
  60      CE6A58E8 
  60      CE
  61 01ad FB8CC0D1 		.ascii	"\373\214\300\321\217\253\374+\255hEnD:ak&\234~8\273"
  61      8FABFC2B 
  61      AD68456E 
  61      443A616B 
  61      269C7E38 
  62 01c2 737DDD72 		.ascii	"s}\335rS>\307\310u\325\315?\333\310\225U\201\032+Z\236"
  62      533EC7C8 
  62      75D5CD3F 
  62      DBC89555 
  62      811A2B5A 
  63 01d7 4B92B7A5 		.ascii	"K\222\267\245KN\342V5W\205L\371<\343\302;c\337\006\024"
  63      4B4EE256 
  63      3557854C 
  63      F93CE3C2 
  63      3B63DF06 
  64 01ec CEFAE625 		.ascii	"\316\372\346%+\3744\201vd\001\3654\336]\341\323+,\374"
  64      2BFC3481 
  64      766401F5 
  64      34DE5DE1 
  64      D32B2CFC 
  65 0200 E5C23790 		.ascii	"\345\3027\220\007\333\361\3775\344\321\316\242\021;"
  65      07DBF1FF 
  65      35E4D1CE 
  65      A2113B
  66 020f 41C72490 		.ascii	"A\307$\220\351W\266\274\030\265\022\211\260\025\255"
  66      E957B6BC 
  66      18B51289 
  66      B015AD
  67 021e 31F62CF7 		.ascii	"1\366,\367L\001vK#\337\234@\216\033@\033f\002\015\373"
  67      4C01764B 
  67      23DF9C40 
  67      8E1B401B 
  67      66020DFB 
  68 0232 71580F60 		.ascii	"qX\017`c\214\242\336h\352\215\241f,5\343\200\314\012"
  68      638CA2DE 
  68      68EA8DA1 
  68      662C35E3 
  68      80CC0A
  69 0245 0A621FCF 		.ascii	"\012b\037\317\355\004\032\236\310\335\\\352>F\315$j"
  69      ED041A9E 
  69      C8DD5CEA 
  69      3E46CD24 
  69      6A
  70 0256 F2A8994C 		.ascii	"\362\250\231LM\201 %\205\202\264\024\321@1+\020\342"
  70      4D812025 
  70      8582B414 
  70      D140312B 
ARM GAS  C:\Users\info\AppData\Local\Temp\ccKCcKAd.s 			page 5


  70      10E2
  71 0268 0A2AAE29 		.ascii	"\012*\256)\022qM\303\203<\007U\3215\255@\021\204\245"
  71      12714DC3 
  71      833C0755 
  71      D135AD40 
  71      1184A5
  72 027b 93B2ADFB 		.ascii	"\223\262\255\373\363^\3472XR\216\301F\373\3330#]\230"
  72      F35EE732 
  72      58528EC1 
  72      46FBDB30 
  72      235D98
  73 028e FE927C80 		.ascii	"\376\222|\200&X\0068\245\343\323M\235:\345\252\000\023"
  73      26580638 
  73      A5E3D34D 
  73      9D3AE5AA 
  73      0013
  74 02a0 4F430B62 		.ascii	"OC\013bu.\033\321l \000\232q\233,I\367\005|\2530\377"
  74      752E1BD1 
  74      6C20009A 
  74      719B2C49 
  74      F7057CAB 
  75 02b6 DEECDC65 		.ascii	"\336\354\334e(\214\2072s\305\371Ot\033s\2241\3371\206"
  75      288C8732 
  75      73C5F94F 
  75      741B7394 
  75      31DF3186 
  76 02ca EDDCA530 		.ascii	"\355\334\2450W\232\3526h\012\343\303\323s;V\316\227"
  76      579AEA36 
  76      680AE3C3 
  76      D3733B56 
  76      CE97
  77 02dc 36E637C6 		.ascii	"6\3467\306|\317\030\022\007\273\025\346\357\343\365"
  77      7CCF1812 
  77      07BB15E6 
  77      EFE3F5
  78 02eb 9BA4C2F8 		.ascii	"\233\244\302\370\361\364z\347\211\015^\033Sk\022&\312"
  78      F1F47AE7 
  78      890D5E1B 
  78      536B1226 
  78      CA
  79 02fc 180761F6 		.ascii	"\030\007a\366(\314\246/\342\321\200\302\004\360t\355"
  79      28CCA62F 
  79      E2D180C2 
  79      04F074ED 
  80 030c B6F5CB7D 		.ascii	"\266\365\313}6f\033c\3662\306I\230}\210\301c\\\223\242"
  80      36661B63 
  80      F632C649 
  80      987D88C1 
  80      635C93A2 
  81 0320 C29067A1 		.ascii	"\302\220g\241<\207\274\243`{\241\"\272\253U\322)\245"
  81      3C87BCA3 
  81      607BA122 
  81      BAAB55D2 
  81      29A5
  82 0332 4C53D3C5 		.ascii	"LS\323\305\223FY\2775\337\262r\"\322\235\320\020\006"
  82      934659BF 
  82      35DFB272 
ARM GAS  C:\Users\info\AppData\Local\Temp\ccKCcKAd.s 			page 6


  82      22D29DD0 
  82      1006
  83 0344 FBA14C84 		.ascii	"\373\241L\204%j7qz$\372\275\221}\266'\201\273#\340\200"
  83      256A3771 
  83      7A24FABD 
  83      917DB627 
  83      81BB23E0 
  84 0359 9A4DBB12 		.ascii	"\232M\273\022\331{\230\355\363\252\274\275\275\373\252"
  84      D97B98ED 
  84      F3AABCBD 
  84      BDFBAA
  85 0368 1F67D7F2 		.ascii	"\037g\327\362l\357\002\251s\226\036ZU\377\326:XS\276"
  85      6CEF02A9 
  85      73961E5A 
  85      55FFD63A 
  85      5853BE
  86 037b 94877DD0 		.ascii	"\224\207}\320\012e\320Bw\014^K\\\330\272\331\255 V\015"
  86      0A65D042 
  86      770C5E4B 
  86      5CD8BAD9 
  86      AD20560D 
  87 038f 10D14158 		.ascii	"\020\321AX\307\373.\340\020\224E\244\237\243rdF\245"
  87      C7FB2EE0 
  87      109445A4 
  87      9FA37264 
  87      46A5
  88 03a1 89D35071 		.ascii	"\211\323Pq\"\\\277\344Q\225!\264\337[.6\335\362\221"
  88      225CBFE4 
  88      519521B4 
  88      DF5B2E36 
  88      DDF291
  89 03b4 160393BA 		.ascii	"\026\003\223\272-yC\3065\247\330+%\005\025\253\202\021"
  89      2D7943C6 
  89      35A7D82B 
  89      250515AB 
  89      8211
  90 03c6 A3FA6168 		.ascii	"\243\372ahT\201,Q\005\026H#KT9\320\201Q\265g\211\352"
  90      54812C51 
  90      05164823 
  90      4B5439D0 
  90      8151B567 
  91 03dc 03E2E91C 		.ascii	"\003\342\351\034\010\352p*(\335\226v\362\036\322~\034"
  91      08EA702A 
  91      28DD9676 
  91      F21ED27E 
  91      1C
  92 03ed 9036448B 		.ascii	"\2206D\213+\253\226##i9:\240\345XJ\213\221i\260T\006"
  92      2BAB9623 
  92      2369393A 
  92      A0E5584A 
  92      8B9169B0 
  93 0403 9F193038 		.ascii	"\237\03108\315Q\227-\373\372=dw\015/\333\235U\366O#"
  93      CD51972D 
  93      FBFA3D64 
  93      770D2FDB 
  93      9D55F64F 
  94 0418 C93E3E20 		.ascii	"\311>> ;\246d\237\207Ps\274?\356T\012G\245o\234T\317"
ARM GAS  C:\Users\info\AppData\Local\Temp\ccKCcKAd.s 			page 7


  94      3BA6649F 
  94      875073BC 
  94      3FEE540A 
  94      47A56F9C 
  95 042e 99D6B6F9 		.ascii	"\231\326\266\371^\344\307\264z\000u\300\317I\352\272"
  95      5EE4C7B4 
  95      7A0075C0 
  95      CF49EABA 
  96 043e B3A1CDC6 		.ascii	"\263\241\315\306\324\307\261\244A7\222\336\325\270\212"
  96      D4C7B1A4 
  96      413792DE 
  96      D5B88A
  97 044d 9C80A94C 		.ascii	"\234\200\251Lyz\262\"\034\235N\250\017&\034\205+\302"
  97      797AB222 
  97      1C9D4EA8 
  97      0F261C85 
  97      2BC2
  98 045f C924E1DA 		.ascii	"\311$\341\332\332\235W\375S\277\242 F\303/L\311E\346"
  98      DA9D57FD 
  98      53BFA220 
  98      46C32F4C 
  98      C945E6
  99 0472 5745597D 		.ascii	"WEY}\372A\242L#(\247\212\355\033N\226\200\337\230\203"
  99      FA41A24C 
  99      2328A78A 
  99      ED1B4E96 
  99      80DF9883 
 100 0486 8BCEEF30 		.ascii	"\213\316\3570\025\265\260\361n\333\370\304=\214?5\274"
 100      15B5B0F1 
 100      6EDBF8C4 
 100      3D8C3F35 
 100      BC
 101 0497 F16656E3 		.ascii	"\361fV\343O\217d|\317\200\361gR\3067\356\357K\032\357"
 101      4F8F647C 
 101      CF80F167 
 101      52C637EE 
 101      EF4B1AEF 
 102 04ab BF3FA7CF 		.ascii	"\277?\247\317\246\234>7\310\351\300\020k\375\331\255"
 102      A69C3E37 
 102      C8E9C010 
 102      6BFDD9AD 
 103 04bb 3DCF1C5C 		.ascii	"=\317\034\\W\377\370\277\326\366\246\254\375\223\254"
 103      57FFF8BF 
 103      D6F6A6AC 
 103      FD93AC
 104 04ca 0DB0B566 		.ascii	"\015\260\265ff\372;\270j~\3346L\325|0A\"\340\202]5\037"
 104      66FA3BB8 
 104      6A7EDC36 
 104      4CD57C30 
 104      4122E082 
 105 04e1 4229E1BE 		.ascii	"B)\341\276\312\276\002\025\317\030\272_\212\2034xSW"
 105      CABE0215 
 105      CF18BA5F 
 105      8A833478 
 105      5357
 106 04f3 43637114 		.ascii	"Ccq\024iv\234?\324b\252\032e\001\374\205\352z\301\231"
 106      69769C3F 
ARM GAS  C:\Users\info\AppData\Local\Temp\ccKCcKAd.s 			page 8


 106      D462AA1A 
 106      6501FC85 
 106      EA7AC199 
 107 0507 7D8D3109 		.ascii	"}\2151\011,z\002.\2525\220!\"\307\262\252\265\346\260"
 107      2C7A022E 
 107      AA359021 
 107      22C7B2AA 
 107      B5E6B0
 108 051a A2F04900 		.ascii	"\242\360I\000\177\247DQ`\236\314\300\234L\261cx\012"
 108      7FA74451 
 108      609ECCC0 
 108      9C4CB163 
 108      780A
 109 052c 8AEB527A 		.ascii	"\212\353Rz\\\270\325\235\037I\025E0\375\226x8\343\226"
 109      5CB8D59D 
 109      1F491545 
 109      30FD9678 
 109      38E396
 110 053f 60DB6B00 		.ascii	"`\333k\000\237\350\217\204\3458\270<\324\370+l<?\340"
 110      9FE88F84 
 110      E538B83C 
 110      D4F82B6C 
 110      3C3FE0
 111 0552 E2B8793D 		.ascii	"\342\270y=\020\262f\362\033\012\276. 5\271\265\252\362"
 111      10B266F2 
 111      1B0ABE2E 
 111      2035B9B5 
 111      AAF2
 112 0564 42A15A69 		.ascii	"B\241Zi\274Zl\341\355\330b\227z\004\272\240\0179{@K"
 112      BC5A6CE1 
 112      EDD86297 
 112      7A04BAA0 
 112      0F397B40 
 113 0579 61C62B79 		.ascii	"a\306+y\207C\311L\234p?\231(\340j*\003\256q\026\205"
 113      8743C94C 
 113      9C703F99 
 113      28E06A2A 
 113      03AE7116 
 114 058e AB2BDB93 		.ascii	"\253+\333\223\257\032\023y\351\011\231\353L\2449w*["
 114      AF1A1379 
 114      E90999EB 
 114      4CA43977 
 114      2A5B
 115 05a0 36FAD5A4 		.ascii	"6\372\325\244\\\034\342g\357\2756\357\272\275y\271\264"
 115      5C1CE267 
 115      EFBD36EF 
 115      BABD79B9 
 115      B4
 116 05b1 799C236D 		.ascii	"y\234#mE\212\3431\344H\177\335~\024\034\360\017d\344"
 116      458AE331 
 116      E4487FDD 
 116      7E141CF0 
 116      0F64E4
 117 05c4 CC249C85 		.ascii	"\314$\234\205S\216^i_\343Q9\223\0037\356c\325\233\366"
 117      538E5E69 
 117      5FE35139 
 117      930337EE 
ARM GAS  C:\Users\info\AppData\Local\Temp\ccKCcKAd.s 			page 9


 117      63D59BF6 
 118 05d8 AA93D4AA 		.ascii	"\252\223\324\252h\321O=\001\305\231\227i\321p{u\213"
 118      68D14F3D 
 118      01C59997 
 118      69D1707B 
 118      758B
 119 05ea 2DE2178B 		.ascii	"-\342\027\213\333\312\242\233\225O)\206\311\212\244"
 119      DBCAA29B 
 119      954F2986 
 119      C98AA4
 120 05f9 EBD39A53 		.ascii	"\353\323\232SIU\015\000\377\336\207\254;\266\254\311"
 120      49550D00 
 120      FFDE87AC 
 120      3BB6ACC9 
 121 0609 248B72D3 		.ascii	"$\213r\323+\360\033Fb\"\344\360;`\030\2536\253\215="
 121      2BF01B46 
 121      6222E4F0 
 121      3B6018AB 
 121      36AB8D3D 
 122 061d AB962A18 		.ascii	"\253\226*\030\234_\037\214\220^\375,Y'\311w\223\351"
 122      9C5F1F8C 
 122      905EFD2C 
 122      5927C977 
 122      93E9
 123 062f E5E62DDC 		.ascii	"\345\346-\334N[X\240\236\026\261W\024s\341`\346e\303"
 123      4E5B58A0 
 123      9E16B157 
 123      1473E160 
 123      E665C3
 124 0642 67AE13BF 		.ascii	"g\256\023\277\244\210\332 jKS\324>\246\376\232\250\013"
 124      A488DA20 
 124      6A4B53D4 
 124      3EA6FE9A 
 124      A80B
 125 0654 55E6B6D4 		.ascii	"U\346\266\324;\024w\021\256\306\271\332\013zvC\306%"
 125      3B147711 
 125      AEC6B9DA 
 125      0B7A7643 
 125      C625
 126 0666 4827946B 		.ascii	"H'\224kIC\020Q\030Qw@ueg\375\014\305S\214~ \364Xx\377"
 126      49431051 
 126      18517740 
 126      756567FD 
 126      0CC5538C 
 127 0680 E1E49B63 		.ascii	"\341\344\233c\002 \244\245\356\001\266\254\230\036\324"
 127      0220A4A5 
 127      EE01B6AC 
 127      981ED4
 128 068f 27C37FAD 		.ascii	"'\303\177\2550\222(\373A\335\007\200e\310\203Mq`u\354"
 128      309228FB 
 128      41DD0780 
 128      65C8834D 
 128      716075EC 
 129 06a3 557CBF0E 		.ascii	"U|\277\016\010\374\244\204\270\346\243\222@e\340\326"
 129      08FCA484 
 129      B8E6A392 
 129      4065E0D6 
ARM GAS  C:\Users\info\AppData\Local\Temp\ccKCcKAd.s 			page 10


 130 06b3 08F58D4A 		.ascii	"\010\365\215JIX\313(%~Q[\304\245\204\337\273/\320\266"
 130      4958CB28 
 130      257E515B 
 130      C4A584DF 
 130      BB2FD0B6 
 131 06c7 85F9C5B8 		.ascii	"\205\371\305\270\017\264\364\302\200\237\326P\241\005"
 131      0FB4F4C2 
 131      809FD650 
 131      A105
 132 06d5 B53BB179 		.ascii	"\265;\261y8\274\275\252\275\321T\303\000\021-\250\257"
 132      38BCBDAA 
 132      BDD154C3 
 132      00112DA8 
 132      AF
 133 06e6 EE7E838E 		.ascii	"\356~\203\216x\216\255\213['\267>nMn\335\364A\000\270"
 133      788EAD8B 
 133      5B27B73E 
 133      6E4D6EDD 
 133      F44100B8 
 134 06fa 20F2E74D 		.ascii	" \362\347M\231\362\322\373\263f\317()}wn)\366\346\315"
 134      99F2D2FB 
 134      B366CF28 
 134      297D776E 
 134      29F6E6CD 
 135 070e 2A79B564 		.ascii	"*y\265dN\351\353\263fM\177\242\344\215y\323g\314\234"
 135      4EE9EBB3 
 135      664D7FA2 
 135      E48D79D3 
 135      67CC9C
 136 0721 36A55438 		.ascii	"6\245T8\350\202|\373\335\331\306\313sg\227\274\371\316"
 136      E8827CFB 
 136      DDD9C6CB 
 136      736797BC 
 136      F9CE
 137 0733 7B7C9CF3 		.ascii	"{|\234\363\336\\\211\177(\205y\377\001\327\023\344\347"
 137      DE5C897F 
 137      288579FF 
 137      01D713E4 
 137      E7
 138              		.text
 139              		.section	.gnu.lto_u8x8_d_hx1230_96x68_init_seq.792a4b67,"",%progbits
 140 0000 789C2D90 		.ascii	"x\234-\220\333J\002a\024Fg\317\250\225\232V\020\024"
 140      DB4A0261 
 140      144667CF 
 140      A8959A56 
 140      1014
 141 0012 CC45AF50 		.ascii	"\314E\257P\335\364*\275\215\201B\324\215\027\201 \205"
 141      DDF42ABD 
 141      8D8142D4 
 141      8D178120 
 141      85
 142 0023 429A9969 		.ascii	"B\232\231ic\007\315\311J\013\013\303\240s\010Q\202\026"
 142      6307CDC9 
 142      4A0B0BC3 
 142      A0730851 
 142      8216
 143 0035 11241D84 		.ascii	"\021$\035\204.J\353\373\333\377\300bf\261\366\3549X"
ARM GAS  C:\Users\info\AppData\Local\Temp\ccKCcKAd.s 			page 11


 143      2E4AEBFB 
 143      DBFFC062 
 143      66B1F6EC 
 143      3958
 144 0047 1452C431 		.ascii	"\024R\3041\251*\362JQ\332*\255\371\032\361\356\226\352"
 144      A92AF24A 
 144      51DA2AAD 
 144      F91AF1EE 
 144      96EA
 145 0059 D314FA25 		.ascii	"\323\024\372%x\272\366\223\267\010'\032\200\266\002"
 145      78BAF693 
 145      B708271A 
 145      80B602
 146 0068 95AA9BF3 		.ascii	"\225\252\233\3630t\372\370\376\232\270\366C\263\315"
 146      3074FAF8 
 146      FE9AB8F6 
 146      43B3CD
 147 0077 44B6976B 		.ascii	"D\266\227kA,\273x\253,88\367A\353\261N\300\306y\020"
 147      412CBB78 
 147      AB2C3838 
 147      F741EBB1 
 147      4EC0C679 
 148 008c 9AFA68A5 		.ascii	"\232\372h\245l\\\335P#\357}u\311\233\305\223\333wS\035"
 148      6C5CDD50 
 148      23EF7D75 
 148      C99BC593 
 148      DB77531D 
 149 00a0 95B30BBA 		.ascii	"\225\263\013\272\370\222;\264\262\366\212\372\340\367"
 149      F8923BB4 
 149      B2F68AFA 
 149      E0F7
 150 00ae 77F17458 		.ascii	"w\361tXL\177?\317U\345\2338\241\267UoN\252\003:\273"
 150      4C7F3FCF 
 150      55E59B38 
 150      A1B7556F 
 150      4EAA033A 
 151 00c3 FE19B5F2 		.ascii	"\376\031\265\362t\344\177\367\333Y\333\311\331\016M"
 151      74E47FF7 
 151      DB59DBC9 
 151      D90E4D
 152 00d2 64A2A69C 		.ascii	"d\242\246\234\356\201\306B\227WN\236^\022\323\255\031"
 152      EE81C642 
 152      97574E9E 
 152      5E12D3AD 
 152      19
 153 00e3 DF97C6B9 		.ascii	"\337\227\306\271\013\232y*\037\3319{Dn|'M\027g\033\264"
 153      0B9A792A 
 153      1FD9397B 
 153      446E7C27 
 153      4D17671B 
 154 00f8 1C317FE4 		.ascii	"\0341\177\344n+\364\3754X\227\2375\002=\367\032\363"
 154      6E2BF4FD 
 154      3458979F 
 154      35023DF7 
 154      1AF3
 155 010a 7297057A 		.ascii	"r\227\005z\360a\304\344\260\006=I\337\024\345\337O\211"
 155      F061C4E4 
ARM GAS  C:\Users\info\AppData\Local\Temp\ccKCcKAd.s 			page 12


 155      B0063D49 
 155      DF14E5DF 
 155      4F89
 156 011c D5A5DFAF 		.ascii	"\325\245\337\257\202\233\263\012mz\037k\016\316C\320"
 156      829BB30A 
 156      6D7A1F6B 
 156      0ECE43D0 
 157 012c 502919A4 		.ascii	"P)\031\244\211\214g:\3541\254>M\245Q\235\016H\2471\235"
 157      898C673A 
 157      EC31AC3E 
 157      4DA5519D 
 157      0E48A731 
 158 0141 92381541 		.ascii	"\2228\025A\001\354\023\373\036\330\005y\351;\300\004"
 158      01EC13FB 
 158      1ED80579 
 158      E93BC004 
 159 0151 39E9E33A 		.ascii	"9\351\343:m\343\224\225\232\001[`S\372\006X\007i\351"
 159      6DE39495 
 159      9A015B60 
 159      53FA0658 
 159      0769E9
 160 0164 06580329 		.ascii	"\006X\003)\351\253 \001V@\034,\203\030\351\012\035\322"
 160      E9AB2001 
 160      56401C2C 
 160      8318E90A 
 160      1DD2
 161 0176 84F20746 		.ascii	"\204\362\007F\341\313\027"
 161      E1CB17
 162              		.text
 163              		.section	.gnu.lto_u8x8_d_hx1230_96x68_powersave0_seq.792a4b67,"",%progbits
 164 0000 789C2D8B 		.ascii	"x\234-\213\275\016\301p\024G\377\267-\021_\235$$}\007"
 164      BD0EC170 
 164      1447FFB7 
 164      2D115F9D 
 164      24247D07 
 165 0014 61EA6379 		.ascii	"a\352cy\004\203&\026\213\201\305`\220TQ-\203\241\203"
 165      04832616 
 165      8B81C560 
 165      9054512D 
 165      83A183
 166 0027 8844A261 		.ascii	"\210D\242a1b\221`\023\20341\370\3745\26779\271\367\344"
 166      31629160 
 166      13833431 
 166      F8FC35B7 
 166      3739B9F7 
 167 003c E42A8244 		.ascii	"\344*\202D8\001\340K\210\217D\216q\261\022\201d\310"
 167      3801E04B 
 167      888F448E 
 167      71B11281 
 167      64C8
 168 004e 827E04BF 		.ascii	"\202~\004\277\274l/\033:Q\034\032\264\267{\225s\001"
 168      BC6C2F1B 
 168      3A511C1A 
 168      B4B77B95 
 168      7301
 169 0060 EAF7BC77 		.ascii	"\352\367\274w\232k\014\332|mZI\256N\370\274\253\271"
 169      9A6B0CDA 
ARM GAS  C:\Users\info\AppData\Local\Temp\ccKCcKAd.s 			page 13


 169      7C6D5A49 
 169      AE4EF8BC 
 169      ABB9
 170 0072 1D99B302 		.ascii	"\035\231\263\002=\233\337v\234s\016\272|\270f\364,C"
 170      3D9BDF76 
 170      9C730EBA 
 170      7CB866F4 
 170      2C43
 171 0084 D7C7C63C 		.ascii	"\327\307\306<\252E\350\352\367\\\250\\%\350\275v=\245"
 171      AA45E8EA 
 171      F75CA85C 
 171      25E8BD76 
 171      3DA5
 172 0096 B8E6A1AD 		.ascii	"\270\346\241\255\333\301\317\350\263j\275[\255\030\262"
 172      DBC1CFE8 
 172      B36ABD5B 
 172      AD18B2
 173 00a5 44258D26 		.ascii	"D%\215&\244QY#\033\313\005\016\030\023\373\010\014\301"
 173      A4515923 
 173      1BCB050E 
 173      1813FB08 
 173      0CC1
 174 00b7 0058A00F 		.ascii	"\000X\240\017L\322\004MI\027\177x^T\025"
 174      4CD2044D 
 174      49177F78 
 174      5E5415
 175              		.text
 176              		.section	.gnu.lto_u8x8_d_hx1230_96x68_powersave1_seq.792a4b67,"",%progbits
 177 0000 789C2D8D 		.ascii	"x\234-\215\271\012\302@\024E\347%Q\004\203\251\004\205"
 177      B90AC240 
 177      1445E725 
 177      510483A9 
 177      0485
 178 0012 FC8456F9 		.ascii	"\374\204V\371,?!E\002\342\017\330XX\250q\313fa\221J"
 178      2C3F2145 
 178      02E20FD8 
 178      5858A871 
 178      CB666191 
 179 0027 050B97C6 		.ascii	"\005\013\227\306F\260\023\324\326B\\\012\327;<\007\016"
 179      46B013D4 
 179      D6425C0A 
 179      D73B3C07 
 179      0E
 180 0038 3387C365 		.ascii	"3\207\303e4AB\236\033\340\227\020o\205B\367\330\313"
 180      3441429E 
 180      1BE09710 
 180      6F8542F7 
 180      D8CB
 181 004a 5C155715 		.ascii	"\\\025W\025\364%\370\361\351'9\351Di\350\265\276\336"
 181      F425F8F1 
 181      E92739E9 
 181      4469E8B5 
 181      BEDE
 182 005c 199C8BD0 		.ascii	"\031\234\213\320E+y\351\\S\320\373*i\352\\\333r\274"
 182      452B79E9 
 182      5C53D0FB 
 182      2A69EA5C 
ARM GAS  C:\Users\info\AppData\Local\Temp\ccKCcKAd.s 			page 14


 182      DB72BC
 183 006f 71A286CA 		.ascii	"q\242\206\312Y\203\036\274O=\3159\017\235]\"\357?V\241"
 183      59831EBC 
 183      4F3DCD39 
 183      0F9D5D22 
 183      EF3F56A1 
 184 0083 CB783BFD 		.ascii	"\313x;\375\377\034\310\361\374\373\230\030\234\025\350"
 184      FF1CC8F1 
 184      FCFB9818 
 184      9C15E8
 185 0092 D939EDB3 		.ascii	"\3319\355\263\234\013\320N\315=\2235\266\253M\273\342"
 185      9C0BD04E 
 185      CD3D9335 
 185      B6AB4DBB 
 185      E2
 186 00a3 AA0A954C 		.ascii	"\252\012\225L\212\311\244\262I>\256\010\204  \366!\030"
 186      8AC9A4B2 
 186      493EAE08 
 186      842020F6 
 186      2118
 187 00b5 803EE881 		.ascii	"\200>\350\201.\360\310\0244\"K\374\000\350\343TS"
 187      2EF0C814 
 187      34224BFC 
 187      00E8E354 
 187      53
 188              		.text
 189              		.section	.gnu.lto_u8x8_d_hx1230_96x68_flip0_seq.792a4b67,"",%progbits
 190 0000 789C2D8B 		.ascii	"x\234-\213\275\016\301P\030\206\317\327R\202\324$!\351"
 190      BD0EC150 
 190      1886CFD7 
 190      5282D424 
 190      21E9
 191 0012 4D30F5B2 		.ascii	"M0\365\262\\\202\241ML\322\315b\350 \251\242Z\006\203"
 191      5C82A14D 
 191      4CD2CD62 
 191      E820A9A2 
 191      5A0683
 192 0025 181A8941 		.ascii	"\030\032\211Ab1\232H\324$\004!\006\277o\3639\311\223"
 192      62319A48 
 192      D4240421 
 192      06BF6FF3 
 192      39C993
 193 0038 F33D79F2 		.ascii	"\363=y\362&\004\211\370\335\001_B\274%\362\315\310M"
 193      260489F8 
 193      DD015F42 
 193      BC25F2CD 
 193      C84D
 194 004a DF245316 		.ascii	"\337$S\026\364%x\364\364&j\354D\012\364\326\\\256\363"
 194      F42578F4 
 194      F4266AEC 
 194      440AF4D6 
 194      5CAEF3
 195 005d 9C4BD045 		.ascii	"\234K\320E{\362\312qMB\203\251qT\271\206\361xe\004-"
 195      7BF2CA71 
 195      4D4283A9 
 195      7154B986 
 195      F1786504 
ARM GAS  C:\Users\info\AppData\Local\Temp\ccKCcKAd.s 			page 15


 196 0072 997302BA 		.ascii	"\231s\002\272s>M\205s\001:\273\006\316\177,C\337\033"
 196      733E4D85 
 196      73013ABB 
 196      06CE7F2C 
 196      43DF1B
 197 0085 CB4A71B5 		.ascii	"\313Jq\265\343\361\374\373\010\363\234%\350\311\330"
 197      E3F1FCFB 
 197      08F39C25 
 197      E8C9D8
 198 0094 6FB39C8B 		.ascii	"o\263\234\213\320K\343|\310\350\343Z\335\256UMY\242"
 198      D04BE37C 
 198      C8E8E35A 
 198      DDAE554D 
 198      59A2
 199 00a6 B24643D2 		.ascii	"\262FC\322\250\242\221\207/\000>\030\020{\037\364@\027"
 199      A8A29187 
 199      2F003E18 
 199      107B1FF4 
 199      4017
 200 00b8 B8A0031C 		.ascii	"\270\240\003\034\322\004\215H\027?\367-T\315"
 200      D2048D48 
 200      173FF72D 
 200      54CD
 201              		.text
 202              		.section	.gnu.lto_u8x8_d_hx1230_96x68_flip1_seq.792a4b67,"",%progbits
 203 0000 789C2D8C 		.ascii	"x\234-\214;\012\302@\024E\347M\242\010\212\251\004\205"
 203      3B0AC240 
 203      1445E74D 
 203      A2088AA9 
 203      0485
 204 0012 6C422B97 		.ascii	"lB+\227\345\022R$\340\016ba\241 \304\2501\321\302\""
 204      E5125224 
 204      E00E6261 
 204      A120C4A8 
 204      31D1C222 
 205 0026 58882028 		.ascii	"X\210 (\244P\261\021\033\301Oi!\212\205\337\033\236"
 205      A450B111 
 205      1BC14F69 
 205      218A85DF 
 205      1B9E
 206 0038 038799C3 		.ascii	"\003\207\231\303\341\216*H\304\347\016\370%\304[\222"
 206      E18E2A48 
 206      C4E70EF8 
 206      25C45B92 
 207 0048 6F1DDDD4 		.ascii	"o\035\335\324MZ\212\240/\301\217O/\314\306N\224\204"
 207      4D5A8AA0 
 207      2FC18F4F 
 207      2FCCC64E 
 207      9484
 208 005a DEEC68AB 		.ascii	"\336\354h\253q.@\027\255\360\225\341\232\200\326\314"
 208      712E4017 
 208      ADF095E1 
 208      9A80D6CC 
 209 006a F559729D 		.ascii	"\365Yr\235\307\343\225\031\324\025\316*\364\340|\354"
 209      C7E39519 
 209      D415CE2A 
 209      F4E07CEC 
ARM GAS  C:\Users\info\AppData\Local\Temp\ccKCcKAd.s 			page 16


 210 007a 24E71C74 		.ascii	"$\347\034tz\015\234\377X\201.wk\377\377u3\036\317\276"
 210      7A0D9CFF 
 210      58812E77 
 210      6BFFFF75 
 210      331ECFBE 
 211 008e 8F89C659 		.ascii	"\217\211\306YB/\346i\237\346\234\207\236\242\361F+\217"
 211      422FE669 
 211      9FE69C87 
 211      9EA2F146 
 211      2B8F
 212 00a0 8C6AC3A8 		.ascii	"\214j\303\250X\212\244\242N\003\322\251\244\223\207"
 212      588AA4A2 
 212      4E03D2A9 
 212      A49387
 213 00af 2B003EE8 		.ascii	"+\000>\350\023{\017tA\007\270\240\015\034\322\005\015"
 213      137B0F74 
 213      4107B8A0 
 213      0D1CD205 
 213      0D
 214 00c0 A92C7E01 		.ascii	"\251,~\001\357T\345"
 214      EF54E5
 215              		.text
 216              		.section	.gnu.lto_u8x8_d_hx1230_96x68.792a4b67,"",%progbits
 217 0000 789C6552 		.ascii	"x\234eRMHTQ\024\276\337;o\346\315\274\321\321\245\213"
 217      4D485451 
 217      14BEDF3B 
 217      6FE6CDBC 
 217      D1D1A58B 
 218 0014 59B80973 		.ascii	"Y\270\011s\221\370\323b\332H\333\266\255\213!\246\262"
 218      91F8D362 
 218      DA48DBB6 
 218      AD8B21A6 
 218      B2
 219 0025 8842D4C0 		.ascii	"\210B\324\300\335\\\035\037\026T\350\242\0243\014B,"
 219      DD5C1D1F 
 219      1654E8A2 
 219      14330C42 
 219      2C
 220 0036 2DFF4A6B 		.ascii	"-\377JkDp*\320,5$A,!+\242\220\250\246\037\204\304\246"
 220      44702AD0 
 220      2C352441 
 220      2C212BA2 
 220      90A8A61F 
 221 004d 73EEE826 		.ascii	"s\356\350&\037<\356\271\347\236\357;\337\371\356\265"
 221      1F3CEEB9 
 221      E79EEF3B 
 221      DFF9EEB5 
 222 005d 15947C8B 		.ascii	"\025\224|\213\226R\007y\255\346\037~\005\253mA\251\246"
 222      96520779 
 222      ADE61F7E 
 222      05AB6D41 
 222      A9A6
 223 006f 8065D14C 		.ascii	"\200e\321L\201\322\256=[\255t\036\301\227K\333;\201"
 223      81D2AE3D 
 223      5BAD741E 
 223      C1974BDB 
 223      3B81
ARM GAS  C:\Users\info\AppData\Local\Temp\ccKCcKAd.s 			page 17


 224 0081 0F904007 		.ascii	"\017\220@\007\240\022\026\331>$\360\333\332\262\360"
 224      A01216D9 
 224      3E24F0DB 
 224      DAB2F0
 225 0090 62E3D925 		.ascii	"b\343\331%\267\264O\353f\275\346M\035\3124{E\036)\225"
 225      B7B44FEB 
 225      66BDE64D 
 225      1DCA347B 
 225      451E2995 
 226 00a4 B514AA22 		.ascii	"\265\024\252\"(\217H\227>\224r\345b\313p7\375\262<\002"
 226      288F4897 
 226      3E9472E5 
 226      62CB7037 
 226      FDB23C02 
 227 00b8 6CDE66E6 		.ascii	"l\336f\346\273>\204ek\241\230\2677\227n\255\372i/\024"
 227      BB3E8465 
 227      6BA198B7 
 227      37976EAD 
 227      FA692F14 
 228 00cc C7D79E2F 		.ascii	"\307\327\236/}\315/\351\025N}\375\204\016zD\350\007"
 228      7DCD2FE9 
 228      154E7DFD 
 228      840E7A44 
 228      E807
 229 00de 09E71D44 		.ascii	"\011\347\035Dp\033\021\305)\205\001\224p\365\334pj\331"
 229      701B11C5 
 229      29850194 
 229      70F5DC70 
 229      6AD9
 230 00f0 A67D06B9 		.ascii	"\246}\006\2711\371tk\007\271|T\023K\301\335\0342\247"
 230      31F9746B 
 230      07B97C54 
 230      134BC1DD 
 230      1C32A7
 231 0103 46B4E19E 		.ascii	"F\264\341\236\301u.\256]v\251\302\340\272?~[\361m\343"
 231      C1752EAE 
 231      5D76A9C2 
 231      E0BA3F7E 
 231      5BF16DE3 
 232 0117 DAA743BA 		.ascii	"\332\247C\272\\\200\203\273\200C\006\270\362i\376\225"
 232      5C8083BB 
 232      804306B8 
 232      F269FE95 
 233 0127 4B070CB0 		.ascii	"K\007\014\260\177\354\355\250\263\015\234\232\316\323"
 233      7FECEDA8 
 233      B30D9C9A 
 233      CED3
 234 0135 6DF0C8C6 		.ascii	"m\360\310\306\360\377bm\205\021\224\010\340\375\310"
 234      F0FF626D 
 234      85119408 
 234      E0FDC8
 235 0144 DFABF9FE 		.ascii	"\337\253\371\376\026\315_\261\270\304\254\243\360\313"
 235      16CD5FB1 
 235      B8C4ACA3 
 235      F0CB
 236 0152 D50C1D4E 		.ascii	"\325\014\035N\353l6\251\323\233\241\307\235\341\020"
 236      EB6C36A9 
ARM GAS  C:\Users\info\AppData\Local\Temp\ccKCcKAd.s 			page 18


 236      D39BA1C7 
 236      9DE110
 237 0161 A4257BC5 		.ascii	"\244%{\305b\331{\036\325\201\364\017@\230\\\243G}g\274"
 237      62D97B1E 
 237      D581F40F 
 237      40985CA3 
 237      477D67BC 
 238 0175 DC4AC6B2 		.ascii	"\334J\306\262d\245why\235\334\354(\022\312$\021\267"
 238      64A57768 
 238      799DDCEC 
 238      2812CA24 
 238      11B7
 239 0187 1B18EF9D 		.ascii	"\033\030\357\235\200\270\354C\020\367\0211O c\221\232"
 239      80B8EC43 
 239      10F71131 
 239      4F206391 
 239      9A
 240 0198 29A0CFF0 		.ascii	")\240\317\360\322\355\013$\305\242,\225\372\362\306"
 240      D2ED0B24 
 240      C5A22C95 
 240      FAF2C6
 241 01a7 496CE90B 		.ascii	"Il\351\013Z\027z\344\317Z,\012\017\220PI\362\311\245"
 241      5A177AE4 
 241      CF5A2C0A 
 241      0F905049 
 241      F2C9A5
 242 01ba 784F5E3A 		.ascii	"xO^:\302\344\230\301\223\177\246~\206\271\272\323T;"
 242      C2E498C1 
 242      937FA67E 
 242      86B9BAD3 
 242      543B
 243 01cc 17450EA7 		.ascii	"\027E\016\247g\273\006\316\364\340FS\233I\0070\316\357"
 243      67BB06CE 
 243      F4E04653 
 243      9B490730 
 243      CEEF
 244 01de 644CDAF2 		.ascii	"dL\332\362Yv}t0\310\220\"\341x\210\036\230\316x\204"
 244      59767D74 
 244      30C89022 
 244      E178881E 
 244      98CE7884 
 245 01f2 84474123 		.ascii	"\204GA#\313V\263\325,\2535\335q%\234\233\301\335%\314"
 245      CB56B3D5 
 245      2CAB35DD 
 245      71259C9B 
 245      C1DD25CC 
 246 0206 CDF2B00A 		.ascii	"\315\362\260\012\251\2340\2362IN\222\002\036\205\014"
 246      A99C309E 
 246      32494E92 
 246      021E850C 
 247 0216 85CF18B1 		.ascii	"\205\317\030\261\216\346B>\026[\177\000\3141\326:7\342"
 247      8EE6423E 
 247      165B7F00 
 247      CC31D63A 
 247      37E2
 248 0228 8A7A0560 		.ascii	"\212z\005`\002\021\352\31642\273=\231\251e\027! f\335"
 248      0211EACE 
ARM GAS  C:\Users\info\AppData\Local\Temp\ccKCcKAd.s 			page 19


 248      3432BB3D 
 248      99A96517 
 248      212066DD 
 249 023c 535676E4 		.ascii	"SVv\344|\264\2462\026\257\257\213s\324\030\215\035\217"
 249      7CB4A632 
 249      16AFAF8B 
 249      73D4188D 
 249      1D8F
 250 024e D5C64F46 		.ascii	"\325\306OF\243\025\373c\247\032+*\253\312\313\342\312"
 250      A315FB63 
 250      A71A2B2A 
 250      ABCACBE2 
 250      CA
 251 025f 96033A5B 		.ascii	"\226\003:[_\343\034\253\253\211\235>\327`\326\332\206"
 251      5FE31CAB 
 251      AB899D3E 
 251      D760D6DA 
 251      86
 252 0270 BA7F828D 		.ascii	"\272\177\202\215\006@"
 252      0640
 253              		.text
 254              		.section	.gnu.lto_u8x8_hx1230_96x68_display_info.792a4b67,"",%progbits
 255 0000 789C2DCD 		.ascii	"x\234-\315OK\002A\030\307\361\371\315\354\352n\371\377"
 255      4F4B0241 
 255      18C7F1F9 
 255      CDECEA6E 
 255      F9FF
 256 0012 EC0BE825 		.ascii	"\354\013\350%\370\026zWKdt5\244\213+\010\"\225VnK\010"
 256      F8167A57 
 256      4B647435 
 256      A48B2B08 
 256      2295566E 
 257 0028 D54D84A8 		.ascii	"\325M\204\250\233t\362\240y\360\220P'M\221H\232_\217"
 257      9B74F2A0 
 257      79F09050 
 257      274D9148 
 257      9A5F8F
 258 003b 73F9CE87 		.ascii	"s\371\316\207y\036\306QP<\2076rS\352W#|\357O\374\245"
 258      791EC651 
 258      503C8736 
 258      7253EA57 
 258      237CEF4F 
 259 0051 2E1B8501 		.ascii	".\033\205\001}\3644\252d\305S\272\373\371\260I\323\000"
 259      7DF434AA 
 259      64C553BA 
 259      FBF9B049 
 259      D300
 260 0063 D9E9B51E 		.ascii	"\331\351\265\036!\364-\177>\252\243\035S\226\233u\270"
 260      21F42D7F 
 260      3EAAA31D 
 260      53969B75 
 260      B8
 261 0074 7685E7B0 		.ascii	"v\205\347\260\256-\306s_|`9<\216B#t,\307q\\\377\237"
 261      AE2DC673 
 261      5F7C6039 
 261      3C8E4223 
 261      742CC771 
ARM GAS  C:\Users\info\AppData\Local\Temp\ccKCcKAd.s 			page 20


 262 008b D608CE96 		.ascii	"\326\010\316\226\234\177m\256\372\273\375\031\177\273"
 262      9C7F6DAE 
 262      FABBFD19 
 262      7FBB
 263 0099 1F3C9F78 		.ascii	"\037<\237xb>\277}\275|{\245^p\332\010\"\267l\314V+\\"
 263      623EBF7D 
 263      BD7C7BA5 
 263      5E70DA08 
 263      22B76CCC 
 264 00b0 A1B8D5C0 		.ascii	"\241\270\325\300\035\243\0211F\342H\\IB\222\224x\350"
 264      1DA31131 
 264      46E2485C 
 264      49429294 
 264      78E8
 265 00c2 32BEACEF 		.ascii	"2\276\254\357\341\226\331\307\015\223\3025\223F\207"
 265      E196D9C7 
 265      0D93C235 
 265      934687
 266 00d1 C9A0CD64 		.ascii	"\311\240\315de2'\311\343\222)\340\002E\205\030%\365"
 266      653227C9 
 266      E39229E0 
 266      02458518 
 266      25F5
 267 00e3 07B9716F 		.ascii	"\007\271qo]"
 267      5D
 268              		.text
 269              		.section	.gnu.lto_.symbol_nodes.792a4b67,"",%progbits
 270 0000 789C55CC 		.ascii	"x\234U\314=\012\302@\020\206\341ov\2621\346\307\302"
 270      3D0AC240 
 270      1086E16F 
 270      76B231E6 
 270      C7C2
 271 0012 C2CA42EF 		.ascii	"\302\312B\357\341\011\274\324l\221N\020Q\260\320F!\215"
 271      E109BCD4 
 271      6C914E10 
 271      51B0D046 
 271      218D
 272 0024 82BD8265 		.ascii	"\202\275\202e\320\316\316\013H\320[\210\311\256\202"
 272      D0CECE0B 
 272      48D05B88 
 272      C9AE82
 273 0033 5B3DBC3B 		.ascii	"[=\274;3\033\2000&\000J\0130\273\0015;\2635\014h\300"
 273      331B8030 
 273      26004A0B 
 273      30BB0135 
 273      3BB3350C 
 274 0049 7401D644 		.ascii	"t\001\326DN\245\234\314\316 \260\252\226\320\357to\206"
 274      4EA59CCC 
 274      CE20B0AA 
 274      96D0EF74 
 274      6F86
 275 005b F561A8ED 		.ascii	"\365a\250\355\2002QvP\177d\006\000u\204\275N%\360:\021"
 275      80325176 
 275      507F6406 
 275      007584BD 
 275      4E25F03A 
 276 0070 ED752CA1 		.ascii	"\355u,\241\327miy\035I\364\337\214\014\325\261\307H"
ARM GAS  C:\Users\info\AppData\Local\Temp\ccKCcKAd.s 			page 21


 276      D76D6979 
 276      1D49F4DF 
 276      8C0CD5B1 
 276      C748
 277 0082 919F2CD5 		.ascii	"\221\237,\325!\263u\271\223\315\237\327\306\004\371"
 277      21B375B9 
 277      93CD9FD7 
 277      C604F9
 278 0091 E4A51831 		.ascii	"\344\245\0301*k\204|\332\230\240\234~\337\347\316r\341"
 278      2A6B847C 
 278      DA98A09C 
 278      7EDFE7CE 
 278      72E1
 279 00a3 2C968D6D 		.ascii	",\226\215m\024\253\367\250\331/\326u\207\035\224\347"
 279      14ABF7A8 
 279      D92FD675 
 279      871D94E7 
 280 00b3 3E87C063 		.ascii	">\207\300c\363$|\000D\360Fm"
 280      F3247C00 
 280      44F0466D 
 281              		.text
 282              		.section	.gnu.lto_.refs.792a4b67,"",%progbits
 283 0000 789C6361 		.ascii	"x\234ca`d\020g```e`bdabbgb\346`b\341fb\345gd\003r\030"
 283      60641067 
 283      60606065 
 283      60626461 
 283      62626762 
 284 0020 00072200 		.ascii	"\000\007\"\000z"
 284      7A
 285              		.text
 286              		.section	.gnu.lto_.decls.792a4b67,"",%progbits
 287 0000 789CBD58 		.ascii	"x\234\275XkPTI\226\256\274Y@QU\200\002\366\030\263\314"
 287      6B505449 
 287      96AEBC59 
 287      40515580 
 287      02F618B3 
 288 0015 B4D14D2B 		.ascii	"\264\321M+\2731\343\210\366\032\354\376\230\350\211"
 288      BB31E388 
 288      F61AECFE 
 288      98E889
 289 0024 DE9DEDDD 		.ascii	"\336\235\355\335\330\330\230\211\236\356\215\230 \266"
 289      D8D89889 
 289      9EEE8D98 
 289      20B6
 290 0032 B62C0AAD 		.ascii	"\266,\012\255\035\250\252\256*|\314\304\304^\036\242"
 290      1DA8AAAE 
 290      2A7CCCC4 
 290      C45E1EA2 
 291 0042 8D8AE003 		.ascii	"\215\212\340\003y\350\242\240\202\"\212@\373\002\244"
 291      79E8A2A0 
 291      82228A40 
 291      FB02A4
 292 0051 1A95F62D 		.ascii	"\032\225\366- \240\210\002\342\263U\020\001ED`Of\336"
 292      20A08802 
 292      E2B35510 
 292      01454460 
 292      4F66DE
ARM GAS  C:\Users\info\AppData\Local\Temp\ccKCcKAd.s 			page 22


 293 0064 57C1A53B 		.ascii	"W\301\245;:bgK\017\367\236\314/O~\347\344\311\307M\255"
 293      3A62674B 
 293      0FF79ECC 
 293      2F4F7EE7 
 293      E4C9C74D 
 294 0079 0669C8EF 		.ascii	"\006i\310\357o\336\325hF\3744\232p\254\321L\302/\020"
 294      6FDED568 
 294      46FC349A 
 294      70ACD14C 
 294      C22F10
 295 008c CA3ED7C8 		.ascii	"\312>\327\310?\242\377\012\240\037\203\3743\310oA\376"
 295      3FA2FF0A 
 295      A01F83FC 
 295      33C86F41 
 295      FE
 296 009d 1DE4F720 		.ascii	"\035\344\367 &\020\013\310\012\020\177\3009\341\271"
 296      26100BC8 
 296      0A107FC0 
 296      39E1B9
 297 00ac 0A640DC8 		.ascii	"\012d\015\310\237@\376\014\362\337H\343\363#\266~\002"
 297      9F40FE0C 
 297      F2DF48E3 
 297      F323B67E 
 297      02
 298 00bd CF4A9050 		.ascii	"\317J\220P\220p\220w\241\3543x\376+<\347\202D\010\034"
 298      90709077 
 298      A1EC3378 
 298      FE2B3CE7 
 298      8244081C 
 299 00d1 78785F06 		.ascii	"xx_\006\222\014\222\002\342\000\371\017\220T\220\225"
 299      920C9202 
 299      E200F90F 
 299      90549095 
 300 00e1 20F3407E 		.ascii	" \363@~\004\322\012\3304x~\002\262\026\344s\220\355"
 300      04D20AD8 
 300      34787E02 
 300      B216E473 
 300      90ED
 301 00f3 20DB407E 		.ascii	" \333@~\003u9\344\011\242\203\367_\302S\017\3623\020"
 301      037539E4 
 301      09A283F7 
 301      5FC2530F 
 301      F23310
 302 0106 3F908D20 		.ascii	"?\220\215 \233A2A\262@\002\004\216\026\301\277\337\013"
 302      9B413241 
 302      B2400204 
 302      8E16C1BF 
 302      DF0B
 303 0118 FE8ABE1B 		.ascii	"\376\212\276\033\240~\007<sA\362@\362A\012@v\"u\377"
 303      A07E073C 
 303      7341F240 
 303      F2410A40 
 303      762275FF 
 304 012c 953F520F 		.ascii	"\225?R\017a\246\376\021\277\035S\352\225\277US\260+"
 304      61A6FE11 
 304      BF1D53EA 
 304      95BF5553 
ARM GAS  C:\Users\info\AppData\Local\Temp\ccKCcKAd.s 			page 23


 304      B02B
 305 013e BF03BBE6 		.ascii	"\277\003\273\346\007`\377\364\003\260\177\376\001X\222"
 305      0760FFF4 
 305      03B07FFE 
 305      015892
 306 014d 1F468DFA 		.ascii	"\037F\215\372\270\222\366\273\204\261%\343\265\034d"
 306      B892F6BB 
 306      84B125E3 
 306      B51C64
 307 015c 31C812C1 		.ascii	"1\310\022\301\036\026\332\223<\"\261'\305S\363\206\350"
 307      1E16DA93 
 307      3C22B127 
 307      C553F386 
 307      E8
 308 016d 5A78CE17 		.ascii	"Zx\316\027\354-\3200[a\360\364'u \034\031?2\316 \263"
 308      EC2DD030 
 308      5B61F0F4 
 308      2775201C 
 308      193F32CE 
 309 0183 4026896D 		.ascii	"@&\211m\202!\334\310\330\201\004\202\004\201\314&\366"
 309      8221DCC8 
 309      D8810482 
 309      0481CC26 
 309      F6
 310 0194 855C2079 		.ascii	"\205\\ y\200@\202g\360o\234C\251\275Ov\353:Q\007\300"
 310      80408267 
 310      F06F9C43 
 310      A9BD4F76 
 310      EB3A5107 
 311 01a9 10FD6984 		.ascii	"\020\375i\204\371C\032\"\341\251\021\354\300_N\303\314"
 311      F9431A22 
 311      E1A911EC 
 311      C05F4EC3 
 311      CC
 312 01ba 0B28C930 		.ascii	"\013(\3110\242\377\340?G\361HQ\341\203\243s\221\376"
 312      A2FFE03F 
 312      47F14851 
 312      E183A373 
 312      91FE
 313 01cc E42224FD 		.ascii	"\344\"$\375D$\3625\212h\004D\025tNn\240\260'\260\027"
 313      4424F235 
 313      8A680444 
 313      15744E6E 
 313      A0B027B0 
 314 01e1 FA47CA6E 		.ascii	"\372G\312n\251i,:\335\321\260\353@\010\006\233\360\336"
 314      A9692C3A 
 314      DDD1B0EB 
 314      4008069B 
 314      F0DE
 315 01f3 3D5AFAEB 		.ascii	"=Z\372\353\205\207x\370e\361<\367K92\207\017\215U\350"
 315      858778F8 
 315      65F13CF7 
 315      4B393287 
 315      0F8D55E8 
 316 0207 B5E02FFA 		.ascii	"\265\340/\372\314\210\226iI\321\221\265\367\017\350"
 316      CC889669 
 316      49D191B5 
ARM GAS  C:\Users\info\AppData\Local\Temp\ccKCcKAd.s 			page 24


 316      F70FE8
 317 0216 863914A1 		.ascii	"\2069\024\241G\223\210\350\317N\216\0061\235TW{\207"
 317      479388E8 
 317      CF4E8E06 
 317      319D5457 
 317      7B87
 318 0228 CAB57801 		.ascii	"\312\265x\001y\347\232\253:\316\005\242(\375~b\271\347"
 318      79E79AAB 
 318      3ACE05A2 
 318      28FD7E62 
 318      B9E7
 319 023a FACB5FA5 		.ascii	"\372\313_\245\362<BG\220\036\225#\214\016\240\205\204"
 319      F23C4247 
 319      901E9523 
 319      8C0EA085 
 319      84
 320 024b 54841EFE 		.ascii	"T\204\036\376\256\347\371\024~\240\210\367\237\253A"
 320      AEE7F914 
 320      7EA088F7 
 320      9FAB41
 321 025a 4B22D0A2 		.ascii	"K\"\320\242\010\015:\214\242\210M\202B\207P\004*C\021"
 321      080D3A8C 
 321      A2884D82 
 321      42875004 
 321      2A4311
 322 026d C4FE81C2 		.ascii	"\304\376\201\302\322\263A\270\032\321\016\372\266=]"
 322      D2B341B8 
 322      1AD10EFA 
 322      B63D5D
 323 027c 8FA50E46 		.ascii	"\217\245\016F7D\224\361\374,T\011\035T\310\035@\177"
 323      374494F1 
 323      FC2C5409 
 323      1D54C81D 
 323      407F
 324 028e EA3D1C55 		.ascii	"\352=\034U\357\2413\275\344\222\201\372L\014\035D\324"
 324      EFA133BD 
 324      E49281FA 
 324      4C0C1D44 
 324      D4
 325 029f EBB69B5D 		.ascii	"\353\266\233]m\201Ra\025+lN\253\330\211\301\365P=\322"
 325      6D815261 
 325      152B6C4E 
 325      ABD889C1 
 325      F5503DD2 
 326 02b3 82FAE24A 		.ascii	"\202\372\342J\376\275`P\303\365h\036\250\005Cw\276\015"
 326      FEBD6050 
 326      C3F5681E 
 326      A8054377 
 326      BE0D
 327 02c5 64B551A0 		.ascii	"d\265Q\240\366\247=\3501\260\332\271\240\362\217\323"
 327      F6A73DE8 
 327      31B0DAB9 
 327      A0F28FD3 
 328 02d5 0A395CC5 		.ascii	"\0129\\\305\342\3372py\227P7\013\324\372\307\331\365"
 328      E2DF3270 
 328      79975037 
 328      0BD4FAC7 
ARM GAS  C:\Users\info\AppData\Local\Temp\ccKCcKAd.s 			page 25


 328      D9F5
 329 02e7 3ADCC0EA 		.ascii	":\334\300\352\232J\372n\004\343[Ly\274\273\276R\207"
 329      9A4AFA6E 
 329      04E35B4C 
 329      79BCBBBE 
 329      5287
 330 02f9 5F32A5F4 		.ascii	"_2\245\364\341\316L#k\025\243\350>\224u\277\335\273"
 330      E1CE4C23 
 330      6B15A3E8 
 330      3E9475BF 
 330      DDBB
 331 030b E5AD1E27 		.ascii	"\345\255\036'c\012\2559^\333\350\307\240\213@\275p\262"
 331      630AAD39 
 331      5EDBE8C7 
 331      A08B40BD 
 331      70B2
 332 031d 7711DEC8 		.ascii	"w\021\336\310\252D\232\341\214\346\253K\255w0.`u\233"
 332      AA449AE1 
 332      8CE6AB4B 
 332      AD77302E 
 332      60759B
 333 0330 1BEACEE8 		.ascii	"\033\352\316\350p\011S\032o\337j\323\342*\246$\327\235"
 333      7009531A 
 333      6FDF6AD3 
 333      E22AA624 
 333      D79D
 334 0342 A90AC2E7 		.ascii	"\251\012\302\347\231rnr\304\033\302z\346@\035\257\252"
 334      99726E72 
 334      C41BC27A 
 334      E6401DAF 
 334      AA
 335 0353 3A837033 		.ascii	":\203p3\253\333\367fl\200\304h>\244\313$V\344\313|\226"
 335      ABDBF766 
 335      6C80C468 
 335      3EA4CB24 
 335      56E4CB7C 
 336 0368 2FF5972E 		.ascii	"/\365\227.\3547\342[\024\314\2654\344\216\033\220>\212"
 336      EC37E25B 
 336      14CCB534 
 336      E48E1B90 
 336      3E8A
 337 037a 0E169FCA 		.ascii	"\016\026\237\312\353\2434\350\024\214\314y\030\031t"
 337      EBA334E8 
 337      148CCC79 
 337      181974
 338 0389 15866BBE 		.ascii	"\025\206k\2760\\\227\240\360\"\024\012\231\325\367/"
 338      305C97A0 
 338      F022140A 
 338      99D5F72F 
 339 0399 34B3AEC0 		.ascii	"4\263\256\300\320\\\226\007~\276\236%\361\351\354\316"
 339      D05C9607 
 339      7EBE9E25 
 339      F1E9ECCE 
 340 03a9 877AFC80 		.ascii	"\207z\374\200u\261\367\036_\243\235\251\213\346\031"
 340      75B1F71E 
 340      5FA39DA9 
 340      8BE619
ARM GAS  C:\Users\info\AppData\Local\Temp\ccKCcKAd.s 			page 26


 341 03b8 BB18DD30 		.ascii	"\273\030\3350\377\020\311\255&\350\342\232\334\305\025"
 341      FF10C9AD 
 341      26E8E29A 
 341      DCC515
 342 03c7 24F4218E 		.ascii	"$\364!\216n(\033\335\207\031\007^\030q?\013\301\256"
 342      6E281BDD 
 342      8719075E 
 342      18713F0B 
 342      C1AE
 343 03d9 B6DEAC40 		.ascii	"\266\336\254@\275\220\200Y\337\237\200\371\347\3267"
 343      BD908059 
 343      DF9F80F9 
 343      E7D637
 344 03e8 F8193308 		.ascii	"\370\0313\010>+\225\017\375\004\265B\247\307\240\376"
 344      3E2B950F 
 344      FD04B542 
 344      A7C7A0FE 
 345 03f8 2BA8D7A0 		.ascii	"+\250\327\2406d\024fg\332\223\342>\204\207X/w\316\037"
 345      36641466 
 345      67DA93E2 
 345      3E848758 
 345      2F77CE1F 
 346 040c 2823815E 		.ascii	"(#\201^@\002=9\031\242\010\365\002\026\352\226\315\203"
 346      40023D39 
 346      19A208F5 
 346      0216EA96 
 346      CD83
 347 041e 7B03F038 		.ascii	"{\003\3608\213CY\366\323\026\305\334\334g<I\334\353"
 347      8B4359F6 
 347      D316C5DC 
 347      DC673C49 
 347      DCEB
 348 0430 849E3A64 		.ascii	"\204\236:d\367\026H3\207\022\321H,\320-\240\276@\240"
 348      F7164833 
 348      8712D148 
 348      2CD02DA0 
 348      BE40A0
 349 0443 7E130A6F 		.ascii	"~\023\012o\010\263sov\221?^\257\245]\034<|\2551@\014"
 349      08B3736F 
 349      76913F5E 
 349      AFA55D1C 
 349      3C7CAD31 
 350 0459 F554035D 		.ascii	"\365T\003]*\006\304P\177HC}\007\270\334\226\271t\212"
 350      2A06C450 
 350      7F48437D 
 350      07B8DC96 
 350      B9748A
 351 046c A116274B 		.ascii	"\241\026'K(\233,\275GG\236\351p6\355\022\255\233\274"
 351      289B2CBD 
 351      47479EE9 
 351      7036ED12 
 351      AD9BBC
 352 047f 7356878B 		.ascii	"sV\207\213\231\222V\262\251 \010\037aJ~\315\360E?\326"
 352      999256B2 
 352      A920081F 
 352      614A7ECD 
 352      F0453FD6 
ARM GAS  C:\Users\info\AppData\Local\Temp\ccKCcKAd.s 			page 27


 353 0493 4A076A66 		.ascii	"J\007jf\336`M\000>\316\352\256{w\027\004\342\323L\271"
 353      DE604D00 
 353      3ECEEAAE 
 353      7B771704 
 353      E2D34CB9 
 354 04a7 573DB237 		.ascii	"W=\2627\010_`\312\335\347uy\001\322\264g\013\340W-\205"
 354      085F60CA 
 354      DDE77579 
 354      01D2B467 
 354      0BE0572D 
 355 04bc DD01B899 		.ascii	"\335\001\270\231\001\336\\\033;\205p\027S6^?\266\004"
 355      01DE5C1B 
 355      3B857017 
 355      53365E3F 
 355      B604
 356 04ce 3F65EF87 		.ascii	"?e\357\207\332n\216#<\302\224+\023\003\2471\376\322"
 356      DA6E8E23 
 356      3CC2942B 
 356      1303A731 
 356      FED2
 357 04e0 8F2AE53D 		.ascii	"\217*\345=\351\327\375p>S\366\277\335Sm\304\373\231"
 357      E9D7FD70 
 357      3E53F6BF 
 357      DD536DC4 
 357      FB99
 358 04f2 D2385257 		.ascii	"\3228RW\354\207\2172%c\303\301=\301\270\221)k7\226\325"
 358      EC878F32 
 358      2563C3C1 
 358      3DC1B891 
 358      296B3796 
 359 0507 62DCC194 		.ascii	"b\334\301\224\246\356\312\227\376\270\237)\335]\331"
 359      A6EECA97 
 359      FEB89F29 
 359      DD5DD9
 360 0516 FF8547D8 		.ascii	"\377\205G\330\373\323\326\226l?\234\346O\225\361\312"
 360      FBD3D696 
 360      6C3F9CE6 
 360      4F95F1CA 
 361 0526 75355ABC 		.ascii	"u5Z\274\203)\217\316\217\016\033\360\001\246\274iH9"
 361      83298FCE 
 361      8F0E1BF0 
 361      01A6BC69 
 361      4839
 362 0538 89702D53 		.ascii	"\211p-S\2165\214^\366\303\315L\351O)\333\213\360\023"
 362      8E358C5E 
 362      F6C3CD4C 
 362      E94F29DB 
 362      8BF013
 363 054b A6346DEF 		.ascii	"\2464m\357\313\341pj\000U\336\216mM\366\3039L\251\277"
 363      CBE1706A 
 363      0055DE8E 
 363      6D4DF6C3 
 363      394CA9BF 
 364 055f FDF89001 		.ascii	"\375\370\220\001\2272\245\2426\255OX\365\274d?(\335"
 364      9732A5A2 
 364      36AD4F58 
 364      F5BC643F 
ARM GAS  C:\Users\info\AppData\Local\Temp\ccKCcKAd.s 			page 28


 364      28DD
 365 0571 3470468F 		.ascii	"4pF\217\277\246\225s\006\312r[\375Q\344\224_TddXd\021"
 365      BFA69573 
 365      06CA725B 
 365      FD51E494 
 365      5F546464 
 366 0588 C98A9EBA 		.ascii	"\311\212\236\272\011g\335\261\333<\237n\244\021~\011"
 366      0967DDB1 
 366      DB3C9F6E 
 366      A4117E09 
 367 0598 E3BD850B 		.ascii	"\343\275\205\013\023'\310/H\276\177M\262^C\341\336\332"
 367      1327C82F 
 367      48BE7F4D 
 367      B25E43E1 
 367      DEDA
 368 05aa 16035FF1 		.ascii	"\026\003_\361\237\024\332\347\013\355\246sc\211\014"
 368      9F14DAE7 
 368      0BEDA673 
 368      63890C
 369 05b9 1DDA129C 		.ascii	"\035\332\022\234\313{S0\235\262O\004\2604\323\031\374"
 369      CB7B5330 
 369      9DB24F04 
 369      B034D319 
 369      FC
 370 05ca 98C274DE 		.ascii	"\230\302t\336\265\240\035\274\027\326Kb|T\205\307)\005"
 370      B5A01DBC 
 370      17D64B62 
 370      7C5485C7 
 370      2905
 371 05dc B8F59AC4 		.ascii	"\270\365\232\304cX\005zZ\001\335&C\337\250@\025\214"
 371      6358057A 
 371      5A01DD26 
 371      43DFA840 
 371      158C
 372 05ee 5B64E79E 		.ascii	"[d\347\236\2529wBau\213luL\305j\264\214\314\227\221"
 372      AA397742 
 372      61758B6C 
 372      754CC56A 
 372      B48CCC97 
 373 0603 AF55904A 		.ascii	"\257U\220J\243;e\350\210\012T\031\255\012\231\353\200"
 373      A33B65E8 
 373      880A5419 
 373      AD0A99EB 
 373      80
 374 0614 2FF41E9A 		.ascii	"/\364\036\232:hM2\366\231\232_\312\300n\223\261/\324"
 374      3A684D32 
 374      F6999A5F 
 374      CAC06E93 
 374      B12FD4
 375 0627 EC9E5160 		.ascii	"\354\236Q`'d\272\203jX%\337j\331\356s5\254r\304^*3g"
 375      2764BA83 
 375      6A5825DF 
 375      6AD9EE73 
 375      35AC72C4 
 376 063f 423D7398 		.ascii	"B=s\230\177t\301\362\216e\032y^GP\032a\261\322H\266"
 376      7F74C1F2 
 376      8E651A79 
ARM GAS  C:\Users\info\AppData\Local\Temp\ccKCcKAd.s 			page 29


 376      5E47501A 
 376      61B1D248 
 377 0654 0A9559F5 		.ascii	"\012\225Y\365J%\250J\207N\311$\373\325\002EG5[8\246"
 377      4A25A84A 
 377      874EC924 
 377      FBD50245 
 377      47355B38 
 378 0669 F1700641 		.ascii	"\361p\006A\343\300\252\205\260z+\340\241\177\264\231"
 378      E3C0AA85 
 378      B07A2BE0 
 378      A17FB499 
 379 0679 8B42E95C 		.ascii	"\213B\351\\$J\003I\001Y\007\262\036$\013d\022E\242T"
 379      244A0349 
 379      015907B2 
 379      1E240B64 
 379      1245A254 
 380 068d 786E05D9 		.ascii	"xn\005\331\010\262\001\344K\220M \331 <H\006\310Z\220"
 380      08B201E4 
 380      4B904D20 
 380      D9203C48 
 380      06C85A90 
 381 06a1 64904C2E 		.ascii	"d\220L.R\341M\347\346\340<\336\233\206\351\332<$t)-"
 381      52E14DE7 
 381      E6E03CDE 
 381      9B86E9DA 
 381      3C247429 
 382 06b6 E9F76492 		.ascii	"\351\367d\222\344|\271\271 /\004\337\243\353\000\367"
 382      E47CB9B9 
 382      202F04DF 
 382      A3EB00F7 
 383 06c6 7253C352 		.ascii	"rS\303R\024\026\245\316=\007\370\376%\271\263Q\312\273"
 383      1416A5CE 
 383      3D07F8FE 
 383      25B9B351 
 383      CABB
 384 06d8 FA33324A 		.ascii	"\37232J\333\241\243m\234\264\253\220A\243t\253{\367"
 384      DBA1A36D 
 384      9CB4AB90 
 384      41A374AB 
 384      7BF7
 385 06ea 3F0F0813 		.ascii	"?\017\010\023\010zg$\250\371?gG\326\323\366\264u\006"
 385      087A6724 
 385      A8F93F67 
 385      47D6D3F6 
 385      B47506
 386 06fd E586BF43 		.ascii	"\345\206\277C\021V\015\312\345\304\015\177\244\374\321"
 386      11560DCA 
 386      E5C40D7F 
 386      A4FCD1
 387 070c 6D3F3C12 		.ascii	"m?<\022\340s\246\013eg\272\352\272\027\373\204s\034"
 387      E073A60B 
 387      6567BAEA 
 387      BA17FB84 
 387      731C
 388 071e 4FCE598F 		.ascii	"O\316Y\217\037\0244\352q\252\216\255\330\327\217\\\016"
 388      1F1434EA 
 388      71AA8EAD 
ARM GAS  C:\Users\info\AppData\Local\Temp\ccKCcKAd.s 			page 30


 388      D8D78F5C 
 388      0E
 389 072f C13BA8F2 		.ascii	"\301;\250\362~gF}2BZc\030\254\302>?\243q\2566Jx\211"
 389      7E67467D 
 389      32425A63 
 389      18ACC23E 
 389      3FA371AE 
 390 0747 8A8C8A22 		.ascii	"\212\214\212\"\373^!gD\217 \032\012v\273}\330\0252v"
 390      FB5E2167 
 390      448F201A 
 390      0A76BB7D 
 390      D8153276 
 391 075b 3E435BC0 		.ascii	">C[\300E\240|\016\"\347\205\310\025\011C[\017\357\247"
 391      45A07C0E 
 391      22E785C8 
 391      1509435B 
 391      0FEFA7
 392 076e C1F19320 		.ascii	"\301\361\223 '@\216\203\034\003\251\0009\002r\030\244"
 392      27408E83 
 392      1C03A900 
 392      39027218 
 392      A4
 393 077f 1CE41048 		.ascii	"\034\344\020H\031\310A\220\003 \245 % \373A\366\201"
 393      19C84190 
 393      0320A520 
 393      2520FB41 
 393      F681
 394 0791 EC052906 		.ascii	"\354\005)\006\331\343\223\232c\355\212\211\266\023\006"
 394      D9E3939A 
 394      63ED8A89 
 394      B61306
 395 07a0 B8489E3D 		.ascii	"\270H\236=\307\025\313\201:\317<\241\301_\236\347\353"
 395      C715CB81 
 395      3ACF3CA1 
 395      C15F9EE7 
 395      EB
 396 07b1 76698EC3 		.ascii	"vi\216\303&<\235\245r=~%ck\324\260\312\205sX\306\326"
 396      263C9DA5 
 396      723D7E25 
 396      636BD4B0 
 396      CA857358 
 397 07c7 AA6115FB 		.ascii	"\252a\025\373\314\240\014\255S"
 397      CCA00CAD 
 397      53
 398 07d0 832A368F 		.ascii	"\203*6\217\001\031\352\365\205\326O[6\273dl\203\032"
 398      0119EAF5 
 398      85D64F5B 
 398      36BB646C 
 398      831A
 399 07e2 56B925DC 		.ascii	"V\271%\334\226\261g\325\260\312U\261]\306\236S\303*"
 399      96B167D5 
 399      B0CA55B1 
 399      5DC69E53 
 399      C32A
 400 07f4 97F95619 		.ascii	"\227\371V\031\333\250\206UF\267E\306~\243\206UF\267"
 400      DBA88655 
 400      46B745C6 
ARM GAS  C:\Users\info\AppData\Local\Temp\ccKCcKAd.s 			page 31


 400      7EA38655 
 400      46B7
 401 0806 3947B125 		.ascii	"9G\261%\\\020\320\322\226P?5l\3659s\330:\011gut]\200"
 401      5C10D0D2 
 401      96503F35 
 401      6CF53973 
 401      D83A0967 
 402 081e 4BEB64CB 		.ascii	"K\353d\3134\332u9\212u\265]\035\2570_\323\036\302\340"
 402      34DA7539 
 402      8A75B55D 
 402      1DAF305F 
 402      D31EC2E0 
 403 0832 476172F6 		.ascii	"Gar\366L\205+\2176\212Y[\305\315\2251_A\216WBc\266\012"
 403      4C852B8F 
 403      368A595B 
 403      C5CD9531 
 403      5F418E57 
 404 084a CE80D228 		.ascii	"\316\200\322( 9t\332\244\362\363\2644`2\004\032\300"
 404      203974DA 
 404      A4F2F3B4 
 404      34603204 
 404      1AC0
 405 085c DF6A8E5C 		.ascii	"\337j\216\\\337\210\353E5\314-\266\350\026^\235C\026"
 405      DF88EB45 
 405      35CC2DB6 
 405      E8165E9D 
 405      4316
 406 086e 5DC2F3AE 		.ascii	"]\302\363\256|\224\257\244K\006\363\345\244\322\227"
 406      7C94AFA4 
 406      4B06F3E5 
 406      A4D297
 407 087d 5E755F14 		.ascii	"^u_\024\256\037k7\362Yf\012\276?\025\254\262\353\313"
 407      AE1F6B37 
 407      F259660A 
 407      BE3F15AC 
 407      B2EBCB
 408 0890 E807EA68 		.ascii	"\350\007\352h\205\351\252\234p\306\344\024\300\037N"
 408      85E9AA9C 
 408      70C6E414 
 408      C01F4E
 409 089f 85FF4235 		.ascii	"\205\377B5\250\265\312\240\326APk\324\202Z\353\023\324"
 409      A8B5CAA0 
 409      D641506B 
 409      D4825AEB 
 409      13D4
 410 08b1 1AB5A036 		.ascii	"\032\265\2406\371\004\265\226\006\365\177hPY \217f\276"
 410      F904B596 
 410      06F57F68 
 410      5059208F 
 410      66BE
 411 08c3 430249A8 		.ascii	"C\002I\250=\226\003Y\243\010\344\321\234w\031}\330."
 411      3D960359 
 411      A308E4D1 
 411      9C77197D 
 411      D82E
 412 08d5 D0B7AAF4 		.ascii	"\320\267\252\364\243\3453\313\256\034zf)\362=\263\260"
 412      A3E533CB 
ARM GAS  C:\Users\info\AppData\Local\Temp\ccKCcKAd.s 			page 32


 412      AE1C7A66 
 412      29F23DB3 
 412      B0
 413 08e6 BA1D993F 		.ascii	"\272\035\231?%ud\231\337%\357\224E\342N96\330}4\344"
 413      25756499 
 413      DF25EF94 
 413      45E24E39 
 413      36D87D34 
 414 08fb BDDD7006 		.ascii	"\275\335p\006\344{\306\213~\273\263\351>\317\207ji\346"
 414      E47BC68B 
 414      7EBBB3E9 
 414      3ECF876A 
 414      69E6
 415 090d 94CAD4E0 		.ascii	"\224\312\324\340\225<J\340\273\015\246>\367\036\271"
 415      953C4AE0 
 415      BB0DA63E 
 415      F71EB9
 416 091c 43A9BCD5 		.ascii	"C\251\274\325\024\210\317\262\035)\377\324\215\006\016"
 416      1488CFB2 
 416      1D29FFD4 
 416      8D060E
 417 092b ACECAEE0 		.ascii	"\254\354\256\340\275\243\227\214\204:\364\315Q3\015"
 417      BDA3978C 
 417      843AF4CD 
 417      51330D
 418 093a 72AFF02A 		.ascii	"r\257\360*\2339C\315\324\344\3343\340\233\314J\352\376"
 418      9B3943CD 
 418      D4E4DC33 
 418      E09BCC4A 
 418      EAFE
 419 094c 9E263FDC 		.ascii	"\236&?\334\307\224\234z\357\316\020\370XC\347h#(91\322"
 419      C7949C7A 
 419      EFCE10F8 
 419      5843E768 
 419      23283931 
 420 0961 BC9D7DBE 		.ascii	"\274\235}\276\221\264d\237o\2173\217t\340\2713\346\363"
 420      91B4649F 
 420      6F8F338F 
 420      74E0B933 
 420      E6F3
 421 0973 791AFA6F 		.ascii	"y\032\372oh\350\001=ybt\330\0104{\340\303\264v\3427"
 421      68E8013D 
 421      796274D8 
 421      08347BE0 
 421      C3B476E2 
 422 0988 05C5E9DE 		.ascii	"\005\305\351\336\254d~\026\305\241\263\"O\324\310i\211"
 422      AC647E16 
 422      C5A1B322 
 422      4FD4C869 
 422      89
 423 0999 C6AED92E 		.ascii	"\306\256\331.P\232[\367\014uq\370\325L\324&\363_\344"
 423      509A5BF7 
 423      0C7571F8 
 423      D54CD426 
 423      F35FE4
 424 09ac 0628F77C 		.ascii	"\006(\367|_\032\227\245=\377\376X\351\331\020\352\303"
 424      5F1A97A5 
ARM GAS  C:\Users\info\AppData\Local\Temp\ccKCcKAd.s 			page 33


 424      3DFFFE58 
 424      E9D910EA 
 424      C3
 425 09bd 65C987F2 		.ascii	"e\311\207\362\335\325\305\301\322g\351\025\216]\314"
 425      DDD5C5C1 
 425      D267E915 
 425      8E5DCC
 426 09cc 3DAC6C0D 		.ascii	"=\254l\015\224\234\275\312\012_\3358\\\033<\263\267"
 426      949CBDCA 
 426      0A5FDD38 
 426      5C1B3CB3 
 426      B7
 427 09dd 4DD4DB6B 		.ascii	"M\324\333k\242\267U\023w;0\363\326;\020\237\3077\244"
 427      A2B75513 
 427      773B30F3 
 427      D63B109F 
 427      C737A4
 428 09f0 F11F110C 		.ascii	"\361\037\021\014\272(yz\011<\275(z\332L=\335\222\335"
 428      BA28797A 
 428      093CBD28 
 428      7ADA4C3D 
 428      DD92DD
 429 0a03 B72510AF 		.ascii	"\267%\020\257\017\234\301S\265o\350\261\033'\036s\022"
 429      0F9CC153 
 429      B56FE8B1 
 429      1B271E73 
 429      12
 430 0a14 D756C6B5 		.ascii	"\327V\306\265$\365\242cf\252\355\224j\233H\265<\243"
 430      24F5A263 
 430      66AAED94 
 430      6A9B48B5 
 430      3CA3
 431 0a26 F7B041A0 		.ascii	"\367\260A\240zK\244\012\030\324\"Q\275\016T[D\2527("
 431      7A4BA40A 
 431      18D42251 
 431      BD0E545B 
 431      44AA3728 
 432 0a3a D5CCE413 		.ascii	"\325\314\344\023\347\2648o&\252\355\271m\335:\301\350"
 432      E7B4386F 
 432      26AAEDB9 
 432      6DDD3AC1 
 432      E8
 433 0a4b A068948C 		.ascii	"\240h\224\214\364M\311h\007\030\275)\032\275E\215\226"
 433      F44DC968 
 433      0718BD29 
 433      1ABD458D 
 433      96
 434 0a5c A6790703 		.ascii	"\246y\007\003q\0053\372*#\355!\363\226\254\375\314\333"
 434      710533FA 
 434      2A23ED21 
 434      F396ACFD 
 434      CCDB
 435 0a6e 8EA1CBFD 		.ascii	"\216\241\313\375\362\310\334f\336~\273\275\241N\247"
 435      F2C8DC66 
 435      DE7EBBBD 
 435      A14EA7
 436 0a7d 74F7F377 		.ascii	"t\367\363w\024\336vQo\357\210\336\246\217\264\265\210"
ARM GAS  C:\Users\info\AppData\Local\Temp\ccKCcKAd.s 			page 34


 436      14DE7651 
 436      6FEF88DE 
 436      A68FB4B5 
 436      88
 437 0a8e C45E3C5A 		.ascii	"\304^<Z\004\314\264\004\202:\345\231\322)\222\352\246"
 437      04CCB404 
 437      823AE599 
 437      D22992EA 
 437      A6
 438 0a9f A4CAD2CB 		.ascii	"\244\312\322\3133\374p##\2456\017\372\332\213\236\373"
 438      33FC7023 
 438      23A5360F 
 438      FADA8B9E 
 438      FB
 439 0ab0 CFD87F2F 		.ascii	"\317\330\177/\355\377\256\324\177\346\311\0021\332\371"
 439      EDFFAED4 
 439      7FE6C902 
 439      31DAF9
 440 0abf 9D466F16 		.ascii	"\235Fo\026\"\010\324#w\337#v\177\217v\337U\324\275\331"
 440      2208D423 
 440      77DF2376 
 440      7F8F76DF 
 440      55D4BDD9 
 441 0ad3 1FDF65DD 		.ascii	"\037\337e\335\337)\255\312g\267\310\271R\367\307\372"
 441      DF29ADCA 
 441      67B7C8B9 
 441      52F7C7FA 
 442 0ae3 DBDAF512 		.ascii	"\333\332\365\022\245\007,&wSo&\317\314\351\021\345\364"
 442      A5072C26 
 442      77536F26 
 442      CFCCE911 
 442      E5F4
 443 0af5 50E4E4FD 		.ascii	"P\344\344\375\352\362P\200\300)\227q\002\004\272/s\272"
 443      EAF25080 
 443      C0299771 
 443      0204BA2F 
 443      73BA
 444 0b07 2F727A4C 		.ascii	"/rzL9\361\251{\323\374p\032\273\014\033>\231\376F\270"
 444      39F1A97B 
 444      D3FC701A 
 444      BB0C1B3E 
 444      99FE46B8 
 445 0b1b 2D0D2337 		.ascii	"-\015#7\242)\233J\204\273\324\\r\213q\264\347m\255\226"
 445      A2299B4A 
 445      84BBD45C 
 445      728B71B4 
 445      E76DAD96 
 446 0b2f 5587827A 		.ascii	"U\207\202z\363\351\320V=\271\302\343\205\331\032\252"
 446      F3E9D056 
 446      3DB9C2E3 
 446      85D91AAA 
 447 0b3f 4CCD3E4E 		.ascii	"L\315>N\257!K,z\306\321[\260\272+\027\236\004\204f\011"
 447      AF214B2C 
 447      7AC6D15B 
 447      B0BA2B17 
 447      9E048466 
 448 0b54 27CD8F10 		.ascii	"'\315\217\020\373\244\207\263\346\023\216\300\373\271"
ARM GAS  C:\Users\info\AppData\Local\Temp\ccKCcKAd.s 			page 35


 448      FBA487B3 
 448      E6138EC0 
 448      FBB9
 449 0b62 50B111BD 		.ascii	"P\261\021\2755\372zC\262A\211n\375.t\372y~\207\361\203"
 449      35FA7A43 
 449      B241896E 
 449      FD2E74FA 
 449      797E87F1 
 450 0b77 62BE6937 		.ascii	"b\276i7Y}\277x\260\017Z!\364\234\013E\3372\307\025M"
 450      597DBF78 
 450      B00F5A21 
 450      F49C0B45 
 450      DF32C715 
 451 0b8c 49C9EF20 		.ascii	"I\311\357 \277\007\270\017\310\344~\322\327\027\214"
 451      BF07B80F 
 451      C8E47ED2 
 451      D7178C
 452 0b9b F708EE67 		.ascii	"\367\010\356g\254\035\021\256\256\003\350\"S~J\210\206"
 452      AC1D11AE 
 452      AE03E822 
 452      537E4A88 
 452      86
 453 0bac 3FB9C66B 		.ascii	"?\271\306k\031-\012\230\321\335a\321\335!\346n\331\361"
 453      192D0A98 
 453      D1DD61D1 
 453      DD21E66E 
 453      D9F1
 454 0bbe EE01C354 		.ascii	"\356\001\303Tw\341d\210\006)\213\227\324\201a\321\201"
 454      77E16488 
 454      06298B97 
 454      D48161D1 
 454      81
 455 0bcf 89E2AA67 		.ascii	"\211\342\252g\376S\335\235\021\275\355\340\370\247\314"
 455      FE53DD9D 
 455      11BDEDE0 
 455      F8A7CC
 456 0bde 5BEF965F 		.ascii	"[\357\226_\023O_\201\247/\004O\345V/\004OG\250\2479"
 456      134F5F81 
 456      A72F044F 
 456      E5562F04 
 456      4F47A8A7 
 457 0bf3 7CF1267F 		.ascii	"|\361&\177|\226y\272\177\333\306C\201\202\211J\311\304"
 457      7C9679BA 
 457      7FDBC643 
 457      8182894A 
 457      C9C4
 458 0c05 EB69265E 		.ascii	"\353i&^\013&F\251\211\315\273\277y\252\305\217\230\211"
 458      0B2646A9 
 458      89CDBBBF 
 458      79AAC58F 
 458      9889
 459 0c17 F38D5B8F 		.ascii	"\363\215[\217k\005\023-\222\2117\323L\274\021L\214Q"
 459      6B05132D 
 459      928937D3 
 459      4CBC114C 
 459      8C51
 460 0c29 13A977B6 		.ascii	"\023\251w\266\347\206\340\265\006v5\367\345\361\373"
ARM GAS  C:\Users\info\AppData\Local\Temp\ccKCcKAd.s 			page 36


 460      E786E0B5 
 460      067635F7 
 460      E5F1FB
 461 0c38 21828941 		.ascii	"!\202\211A\311\304\333i&\336\012&\306\251\211\316\333"
 461      C9C4DB69 
 461      26DE0A26 
 461      C6A989CE 
 461      DB
 462 0c49 B7B2B5B8 		.ascii	"\267\262\265\270\230\231h\034;\227\033$\230\310\333"
 462      9899681C 
 462      3B971B24 
 462      98C8DB
 463 0c58 F04132EF 		.ascii	"\360A2\357\325\322\017\305\011\301\210\370\271\252\241"
 463      D5D20FC5 
 463      09C188F8 
 463      B9AAA1
 464 0c67 25C4C824 		.ascii	"%\304\310$\343Q{\362\201V\271\323\364\372\034GxLw\032"
 464      E3517BF2 
 464      8156B9D3 
 464      F4FA1C47 
 464      784C771A 
 465 0c7b F2047076 		.ascii	"\362\004pv\311D\226N\011\356\362\001'\013\340d\012\276"
 465      C944964E 
 465      09EEF201 
 465      270BE064 
 465      0ABE
 466 0c8d D1DC5C18 		.ascii	"\321\334\\\030\242\004\2234\224\301)\0028\205\202\007"
 466      A2049334 
 466      94C12902 
 466      38858207 
 467 0c9d 5FDCDC64 		.ascii	"_\334\334dT\202_\371\200S\005p*\005\037\335\323X\022"
 467      54825FF9 
 467      80530570 
 467      2A051FDD 
 467      D35812
 468 0cb0 A4049FF7 		.ascii	"\244\004\237\367\241\221&\200\323(\270\357\311\223\001"
 468      A1912680 
 468      D328B8EF 
 468      C99301
 469 0cbf 4E096EF7 		.ascii	"N\011n\367\001\257\025\300k)xm\306\344\243\020\334\300"
 469      01AF15C0 
 469      6B29786D 
 469      C6E4A310 
 469      DCC0
 470 0cd1 427A3C7F 		.ascii	"Bz<\177\302\253\305\347\231\222\2363\331\253\307\227"
 470      C2ABC5E7 
 470      99929E33 
 470      D9ABC797 
 471 0ce1 9932DCDF 		.ascii	"\2312\334\337Q\352\217\333\004X\177\331\361 \341\212"
 471      51EA8FDB 
 471      04587FD9 
 471      F120E18A 
 472 0cf1 93E85B0E 		.ascii	"\223\350[\016e\244\"\374\220V\372\277.\255Z\257G\364"
 472      65A422FC 
 472      9056FABF 
 472      2EAD5AAF 
 472      47F4
ARM GAS  C:\Users\info\AppData\Local\Temp\ccKCcKAd.s 			page 37


 473 0d03 533A4ABC 		.ascii	"S:J\274\323\374\250Fq\247\231\2161\332\204\325n}\330"
 473      D3FCA846 
 473      71A7998E 
 473      31DA84D5 
 473      6E7DD8
 474 0d16 B7A8977D 		.ascii	"\267\250\227}\213f\340\010z&E_\012x2\246\3318\012e\341"
 474      8B66E008 
 474      7A26455F 
 474      0A7832A6 
 474      D9380A65 
 475 0d2b 489409B2 		.ascii	"H\224\011\262\021d3V~Kv]\225\276`\326\251t\242<\011"
 475      11643356 
 475      7E4B765D 
 475      95BE60D6 
 475      A974A23C 
 476 0d40 0FCAD00D 		.ascii	"\017\312\320\015*P\345\267\331\235L\341c\204\2347\326"
 476      2A50E5B7 
 476      D99D4CE1 
 476      63849C37 
 476      D6
 477 0d51 0BE0190F 		.ascii	"\013\340\031\017\222\035\354\362\0130\312\203$YC2\006"
 477      921DECF2 
 477      0B30CA83 
 477      24594332 
 477      06
 478 0d62 DF06E367 		.ascii	"\337\006\343g4H\\}iMi\020\212\012cm\012\256F\2226\333"
 478      34485C7D 
 478      694D6910 
 478      8A0A636D 
 478      0AAE4692 
 479 0d78 C0EE162C 		.ascii	"\300\356\026,\255\326\304\304\224\357s)&[!\016\337\027"
 479      ADD6C4C4 
 479      94EF7329 
 479      265B210E 
 479      DF17
 480 0d8a 133284ED 		.ascii	"\0232\204\355{\346(\023a\033V\336Tl\027\022a;M\204\035"
 480      7BE62813 
 480      611B56DE 
 480      546C1712 
 480      613B4D84 
 481 0d9f 7D0F067C 		.ascii	"}\017\006|\362\261\311'kr\004p\016\005\027\326<\257"
 481      F2B1C927 
 481      6B720470 
 481      0E0517D6 
 481      3CAF
 482 0db1 0C7C7F0F 		.ascii	"\014|\177\017\343\226\001S\353\363w\350\251\226m/;\360"
 482      E3960153 
 482      EBF377E8 
 482      A9966D2F 
 482      3BF0
 483 0dc3 FB244B2A 		.ascii	"\373$K*+v\"\206\201\225\331\266+\003\200\276\270\\\212"
 483      2B762286 
 483      8195D9B6 
 483      2B0380BE 
 483      B85C8A
 484 0dd6 2B2C1F3B 		.ascii	"+,\037;ed8oK\300TL\036\305\354\253\351(\366\0270]\323"
 484      6564386F 
ARM GAS  C:\Users\info\AppData\Local\Temp\ccKCcKAd.s 			page 38


 484      4BC0544C 
 484      1EC5ECAB 
 484      E928F617 
 485 0ded 30F914B3 		.ascii	"0\371\024\263\241\266\257A\264\223\253\237\212)\240"
 485      A1B6AF41 
 485      B493AB9F 
 485      8A29A0
 486 0dfc 989194E6 		.ascii	"\230\221\224\346N\321N\3654\314N\212\271\222\331?K\031"
 486      4ED14EF5 
 486      34CC4E8A 
 486      B992D93F 
 486      4B19
 487 0e0e 87473E71 		.ascii	"\207G>q\330%\304\201<\377*)fu\214)\316\264bu\364\342"
 487      D825C481 
 487      3CFF2A29 
 487      66758C29 
 487      CEB46275 
 488 0e24 258B4C7F 		.ascii	"%\213L\177\267t\365\322\030\323r\253\335\352\262Yt\377"
 488      B774F5D2 
 488      18D372AB 
 488      DDEAB259 
 488      74FF
 489 0e36 F46F9FCD 		.ascii	"\364o\237\315\3738:Z\023h2%\331\354\236\030\223'\031"
 489      FB383A5A 
 489      13683225 
 489      D9EC9E18 
 489      932719
 490 0e49 59FE3ED6 		.ascii	"Y\376>\326\351r,w\231\023\347\305\333\022\254\356yQ"
 490      E9722C77 
 490      9913E7C5 
 490      DB12ACEE 
 490      7951
 491 0e5b AB6396FE 		.ascii	"\253c\226\376u\254e\215\323eu\273c\235n\207e\236\305"
 491      75AC658D 
 491      D36575BB 
 491      639D6E87 
 491      659EC5
 492 0e6e 65357B1C 		.ascii	"e5{\034\256\330\017\027.\366-\260%:\035.O\354r{R\254"
 492      AED80F17 
 492      2EF62DB0 
 492      253A1D2E 
 492      4FEC727B 
 493 0e84 D99518FB 		.ascii	"\331\225\030\373\267\013?\\\030M\336~nw\330\255?\267"
 493      B70B3F5C 
 493      184DDE7E 
 493      6E77D8AD 
 493      3FB7
 494 0e96 9A97D962 		.ascii	"\232\227\331bmvKBR\23456\321lYa\263[cMq\326xsR\202\307"
 494      6D764B42 
 494      529C3536 
 494      D16C5961 
 494      B35B634D 
 495 0eb1 E459E3B4 		.ascii	"\344Y\343\264\272\027\256\320\004\010TV\376\1771q\257"
 495      BA17AED0 
 495      04085456 
 495      FE7F3171 
 495      AF
ARM GAS  C:\Users\info\AppData\Local\Temp\ccKCcKAd.s 			page 39


 496 0ec2 71C79ADC 		.ascii	"q\307\232\334\2368\350\026\272\017\216\263.s$\331-V"
 496      9E38E816 
 496      BA0F8EB3 
 496      2E7324D9 
 496      2D56
 497 0ed4 28327BAC 		.ascii	"(2{\254?\222\324\004\263\333cr\332\354\254\374\307R"
 497      3F92D404 
 497      B3DB6372 
 497      DAECACFC 
 497      C752
 498 0ee6 B9C85FAA 		.ascii	"\271\310_\2522,w\332\034&\340\010\245\372$O|\014+\006"
 498      322C77DA 
 498      1C26E008 
 498      A5FA244F 
 498      7C0C2B06 
 499 0efa C32B6D80 		.ascii	"\303+m\2007\307\305\021\376\006\333b\013\251py\254q"
 499      37C7C511 
 499      FE06DB62 
 499      0BA97079 
 499      AC71
 500 0f0c F45D280F 		.ascii	"\364](\017\267\271M\361\016\273\307d\263\257\264\272"
 500      B7B94DF1 
 500      0EBBC764 
 500      B3AFB4BA 
 501 0f1c DC5653A2 		.ascii	"\334VS\242#\316\252[mr\304\307\273\255\036\235\325n"
 501      23CEAA5B 
 501      6D72C4C7 
 501      BBAD1E9D 
 501      D56E
 502 0f2e 7100D3E5 		.ascii	"q\000\323\345z6d\321KM\036\235\370\242%\355\002\227"
 502      7A3664D1 
 502      4B4D1E9D 
 502      F8A225ED 
 502      0297
 503 0f40 25B94D96 		.ascii	"%\271M\226\004\207\345\017\002d\311b\001B^fSnf{\034"
 503      0487E50F 
 503      0264C962 
 503      01425E66 
 503      536E667B 
 504 0f55 D04E30AF 		.ascii	"\320N0\2571Y\226\031h\202$\272\227\303{\300\2625\036"
 504      31599619 
 504      688224BA 
 504      97C37BC0 
 504      B2351E
 505 0f68 2B3CFD2D 		.ascii	"+<\375-\3468x\350\343ln'C\005\330\255\253=\3604R\264"
 505      E63878E8 
 505      E36C6E27 
 505      4305D8AD 
 505      AB3DF034 
 506 0f7e 6585D945 		.ascii	"e\205\331E\024\261\336f\217w\030\234\266\325\326\004"
 506      14B1DE66 
 506      8F77189C 
 506      B6D5D604 
 507 0f8e D32A5B9C 		.ascii	"\323*[\234g\305\354\370\004\233\223\3606\211\274g\211"
 507      67C5ECF8 
 507      049B93F0 
 507      3689BC67 
ARM GAS  C:\Users\info\AppData\Local\Temp\ccKCcKAd.s 			page 40


 507      89
 508 0f9f 51       		.ascii	"Q"
 509 0fa0 120B0C1E 		.ascii	"\022\013\014\036\030R\323\012\253m\371\012\217\236\276"
 509      1852D30A 
 509      AB6DF90A 
 509      8F9EBE
 510 0faf D396E1AB 		.ascii	"\323\226\341\253\\6\240\340LJp\013%&\273;4\316\3541"
 510      5C36A0E0 
 510      4C4A700B 
 510      2526BB3B 
 510      34CEEC31 
 511 0fc3 9BA05192 		.ascii	"\233\240Q\222\323\344\261%Z\241(\234DL\362\324\024\275"
 511      D3E4B125 
 511      5AA1289C 
 511      444CF2D4 
 511      14BD
 512 0fd5 68D11F3E 		.ascii	"h\321\037>\371\243\316\355\264\321p\031\335P\306jV\374"
 512      F9A3CEED 
 512      B4D17019 
 512      DD50C66A 
 512      56FC
 513 0fe7 319428BE 		.ascii	"1\224(\276\006g\273\343\246\330\013u:`t!\376V\217i\225"
 513      0667BBE3 
 513      A6D80B75 
 513      3A607421 
 513      FE568F69 
 514 0ffc D9E68180 		.ascii	"\331\346\201\200"
 515 1000 84334DD9 		.ascii	"\2043M\3312\321=\027r\017\334\2679M\340\273y\031\241"
 515      32D13D17 
 515      720FDCB7 
 515      394DE0BB 
 515      7919A1
 516 1013 4DD076A8 		.ascii	"M\320v\250 \006h\215\325\256\254\010\365A'XWZ\023f+"
 516      2006688D 
 516      D5AEAC08 
 516      F5412758 
 516      575A1366 
 517 1028 61B4642E 		.ascii	"a\264d.\233\245\212pBj\270\222,\036#\213*\213S\370\302"
 517      9BA58A70 
 517      426AB892 
 517      2C1E238B 
 517      2A8B53F8 
 518 103d 85B14931 		.ascii	"\205\261I1\313\027\233,n\227%\2264\201|\015\233\336"
 518      CB179B2C 
 518      6E972596 
 518      34817C0D 
 518      9BDE
 519 104f D4C3C694 		.ascii	"\324\303\306\224Y\010\223\022\225e$\031j\177Z\357\371"
 519      59089312 
 519      95652419 
 519      6A7F5AEF 
 519      F9
 520 1060 609A3D58 		.ascii	"`\232=X(\234\226\370\230\230\350\017\205\005c\241E\354"
 520      289C96F8 
 520      9898E80F 
 520      850563A1 
 520      45EC
ARM GAS  C:\Users\info\AppData\Local\Temp\ccKCcKAd.s 			page 41


 521 1072 C0670509 		.ascii	"\300g\005\011gi\000Y\362\217\366\270\337\271\314vw\274"
 521      67690059 
 521      F28FF6B8 
 521      DFB9CC76 
 521      77BC
 522 1084 D5A5B33B 		.ascii	"\325\245\263;l\366\004\230\323\263\245\332O\255\366"
 522      6CF60498 
 522      D3B3A5DA 
 522      4FADF6
 523 1093 B87F80C1 		.ascii	"\270\177\200\301\233\345S\362qb\334;r\001\231\002\242"
 523      9BE553F2 
 523      7162DC3B 
 523      72019902 
 523      A2
 524 10a4 89393EB8 		.ascii	"\2119>\270O\255_$A\276[\177,2\260&8\255.\205\2576\317"
 524      4FAD5F24 
 524      41BE5B7F 
 524      2C32B026 
 524      38AD2E85 
 525 10bb 7BEA556C 		.ascii	"{\352Ull\023\255\211\016\327\232\010\265\025\220\264"
 525      6C13AD89 
 525      0ED79A08 
 525      B51590B4 
 526 10cb 05D417EF 		.ascii	"\005\324\027\357\251U:\035\253`\346\231WZ\027}?$\232"
 526      A9553A1D 
 526      AB60E699 
 526      575A177D 
 526      3F249A
 527 10de 407EA206 		.ascii	"@~\242\006!s`\321w\326\322\266?\245\265>u\312\301\364"
 527      217360D1 
 527      77D6D2B6 
 527      3FA5B53E 
 527      75CAC1F4 
 528 10f2 5B0D7DB9 		.ascii	"[\015}\271\261\305\356\321\321Y\342\364\270X0\251\306"
 528      B1C5EED1 
 528      D159E2F4 
 528      B85830A9 
 528      C6
 529 1103 86D86F0D 		.ascii	"\206\330o\015\301\030\344b\317\377\002\267\024\024H"
 529      C118E462 
 529      CFFF02B7 
 529      141448
 530              		.text
 531              		.section	.gnu.lto_.symtab.792a4b67,"",%progbits
 532 0000 75387838 		.ascii	"u8x8_d_hx1230_96x68\000"
 532      5F645F68 
 532      78313233 
 532      305F3936 
 532      78363800 
 533 0014 00       		.ascii	"\000"
 534 0015 00       		.ascii	"\000"
 535 0016 00       		.ascii	"\000"
 536 0017 00000000 		.ascii	"\000\000\000\000\000\000\000\000"
 536      00000000 
 537 001f 43010000 		.ascii	"C\001\000\000"
 538 0023 75387838 		.ascii	"u8x8_cad_EndTransfer\000"
 538      5F636164 
ARM GAS  C:\Users\info\AppData\Local\Temp\ccKCcKAd.s 			page 42


 538      5F456E64 
 538      5472616E 
 538      73666572 
 539 0038 00       		.ascii	"\000"
 540 0039 02       		.ascii	"\002"
 541 003a 00       		.ascii	"\000"
 542 003b 00000000 		.ascii	"\000\000\000\000\000\000\000\000"
 542      00000000 
 543 0043 49010000 		.ascii	"I\001\000\000"
 544 0047 75387838 		.ascii	"u8x8_cad_SendData\000"
 544      5F636164 
 544      5F53656E 
 544      64446174 
 544      6100
 545 0059 00       		.ascii	"\000"
 546 005a 02       		.ascii	"\002"
 547 005b 00       		.ascii	"\000"
 548 005c 00000000 		.ascii	"\000\000\000\000\000\000\000\000"
 548      00000000 
 549 0064 51010000 		.ascii	"Q\001\000\000"
 550 0068 75387838 		.ascii	"u8x8_cad_SendCmd\000"
 550      5F636164 
 550      5F53656E 
 550      64436D64 
 550      00
 551 0079 00       		.ascii	"\000"
 552 007a 02       		.ascii	"\002"
 553 007b 00       		.ascii	"\000"
 554 007c 00000000 		.ascii	"\000\000\000\000\000\000\000\000"
 554      00000000 
 555 0084 57010000 		.ascii	"W\001\000\000"
 556 0088 75387838 		.ascii	"u8x8_cad_StartTransfer\000"
 556      5F636164 
 556      5F537461 
 556      72745472 
 556      616E7366 
 557 009f 00       		.ascii	"\000"
 558 00a0 02       		.ascii	"\002"
 559 00a1 00       		.ascii	"\000"
 560 00a2 00000000 		.ascii	"\000\000\000\000\000\000\000\000"
 560      00000000 
 561 00aa 5A010000 		.ascii	"Z\001\000\000"
 562 00ae 75387838 		.ascii	"u8x8_cad_SendSequence\000"
 562      5F636164 
 562      5F53656E 
 562      64536571 
 562      75656E63 
 563 00c4 00       		.ascii	"\000"
 564 00c5 02       		.ascii	"\002"
 565 00c6 00       		.ascii	"\000"
 566 00c7 00000000 		.ascii	"\000\000\000\000\000\000\000\000"
 566      00000000 
 567 00cf 5F010000 		.ascii	"_\001\000\000"
 568 00d3 75387838 		.ascii	"u8x8_d_helper_display_init\000"
 568      5F645F68 
 568      656C7065 
 568      725F6469 
ARM GAS  C:\Users\info\AppData\Local\Temp\ccKCcKAd.s 			page 43


 568      73706C61 
 569 00ee 00       		.ascii	"\000"
 570 00ef 02       		.ascii	"\002"
 571 00f0 00       		.ascii	"\000"
 572 00f1 00000000 		.ascii	"\000\000\000\000\000\000\000\000"
 572      00000000 
 573 00f9 63010000 		.ascii	"c\001\000\000"
 574 00fd 75387838 		.ascii	"u8x8_d_helper_display_setup_memory\000"
 574      5F645F68 
 574      656C7065 
 574      725F6469 
 574      73706C61 
 575 0120 00       		.ascii	"\000"
 576 0121 02       		.ascii	"\002"
 577 0122 00       		.ascii	"\000"
 578 0123 00000000 		.ascii	"\000\000\000\000\000\000\000\000"
 578      00000000 
 579 012b 68010000 		.ascii	"h\001\000\000"
 580              		.text
 581              		.section	.gnu.lto_.opts,"",%progbits
 582 0000 272D666D 		.ascii	"'-fmath-errno' '-fsigned-zeros' '-ftrapping-math' '"
 582      6174682D 
 582      6572726E 
 582      6F272027 
 582      2D667369 
 583 0033 2D666E6F 		.ascii	"-fno-trapv' '-fno-strict-overflow' '-fno-openmp' '-"
 583      2D747261 
 583      70762720 
 583      272D666E 
 583      6F2D7374 
 584 0066 666E6F2D 		.ascii	"fno-openacc' '-mcpu=cortex-m3' '-mthumb' '-g' '-Og'"
 584      6F70656E 
 584      61636327 
 584      20272D6D 
 584      6370753D 
 585 0099 20272D66 		.ascii	" '-ffunction-sections' '-ffat-lto-objects' '-flto'\000"
 585      66756E63 
 585      74696F6E 
 585      2D736563 
 585      74696F6E 
 586              		.text
 587              		.cfi_sections	.debug_frame
 588              		.section	.text.u8x8_d_hx1230_96x68_generic,"ax",%progbits
 589              		.align	2
 590              		.thumb
 591              		.thumb_func
 592              		.type	u8x8_d_hx1230_96x68_generic, %function
 593              	u8x8_d_hx1230_96x68_generic:
 594              	.LFB0:
 595              		.file 1 "..\\u8g2_csrc\\u8x8_d_pcf8814_hx1230.c"
   1:..\u8g2_csrc/u8x8_d_pcf8814_hx1230.c **** /*
   2:..\u8g2_csrc/u8x8_d_pcf8814_hx1230.c **** 
   3:..\u8g2_csrc/u8x8_d_pcf8814_hx1230.c ****   u8x8_d_pcf8814_hc1230.c
   4:..\u8g2_csrc/u8x8_d_pcf8814_hx1230.c ****   
   5:..\u8g2_csrc/u8x8_d_pcf8814_hx1230.c ****   pcf8814: 65x96
   6:..\u8g2_csrc/u8x8_d_pcf8814_hx1230.c ****   hx1230: 68x96
   7:..\u8g2_csrc/u8x8_d_pcf8814_hx1230.c ****   
ARM GAS  C:\Users\info\AppData\Local\Temp\ccKCcKAd.s 			page 44


   8:..\u8g2_csrc/u8x8_d_pcf8814_hx1230.c ****   pcf8814 and hc1230 are almost identical.
   9:..\u8g2_csrc/u8x8_d_pcf8814_hx1230.c **** 
  10:..\u8g2_csrc/u8x8_d_pcf8814_hx1230.c ****   Universal 8bit Graphics Library (https://github.com/olikraus/u8g2/)
  11:..\u8g2_csrc/u8x8_d_pcf8814_hx1230.c **** 
  12:..\u8g2_csrc/u8x8_d_pcf8814_hx1230.c ****   Copyright (c) 2017, olikraus@gmail.com
  13:..\u8g2_csrc/u8x8_d_pcf8814_hx1230.c ****   All rights reserved.
  14:..\u8g2_csrc/u8x8_d_pcf8814_hx1230.c **** 
  15:..\u8g2_csrc/u8x8_d_pcf8814_hx1230.c ****   Redistribution and use in source and binary forms, with or without modification, 
  16:..\u8g2_csrc/u8x8_d_pcf8814_hx1230.c ****   are permitted provided that the following conditions are met:
  17:..\u8g2_csrc/u8x8_d_pcf8814_hx1230.c **** 
  18:..\u8g2_csrc/u8x8_d_pcf8814_hx1230.c ****   * Redistributions of source code must retain the above copyright notice, this list 
  19:..\u8g2_csrc/u8x8_d_pcf8814_hx1230.c ****     of conditions and the following disclaimer.
  20:..\u8g2_csrc/u8x8_d_pcf8814_hx1230.c ****     
  21:..\u8g2_csrc/u8x8_d_pcf8814_hx1230.c ****   * Redistributions in binary form must reproduce the above copyright notice, this 
  22:..\u8g2_csrc/u8x8_d_pcf8814_hx1230.c ****     list of conditions and the following disclaimer in the documentation and/or other 
  23:..\u8g2_csrc/u8x8_d_pcf8814_hx1230.c ****     materials provided with the distribution.
  24:..\u8g2_csrc/u8x8_d_pcf8814_hx1230.c **** 
  25:..\u8g2_csrc/u8x8_d_pcf8814_hx1230.c ****   THIS SOFTWARE IS PROVIDED BY THE COPYRIGHT HOLDERS AND 
  26:..\u8g2_csrc/u8x8_d_pcf8814_hx1230.c ****   CONTRIBUTORS "AS IS" AND ANY EXPRESS OR IMPLIED WARRANTIES, 
  27:..\u8g2_csrc/u8x8_d_pcf8814_hx1230.c ****   INCLUDING, BUT NOT LIMITED TO, THE IMPLIED WARRANTIES OF 
  28:..\u8g2_csrc/u8x8_d_pcf8814_hx1230.c ****   MERCHANTABILITY AND FITNESS FOR A PARTICULAR PURPOSE ARE 
  29:..\u8g2_csrc/u8x8_d_pcf8814_hx1230.c ****   DISCLAIMED. IN NO EVENT SHALL THE COPYRIGHT HOLDER OR 
  30:..\u8g2_csrc/u8x8_d_pcf8814_hx1230.c ****   CONTRIBUTORS BE LIABLE FOR ANY DIRECT, INDIRECT, INCIDENTAL, 
  31:..\u8g2_csrc/u8x8_d_pcf8814_hx1230.c ****   SPECIAL, EXEMPLARY, OR CONSEQUENTIAL DAMAGES (INCLUDING, BUT 
  32:..\u8g2_csrc/u8x8_d_pcf8814_hx1230.c ****   NOT LIMITED TO, PROCUREMENT OF SUBSTITUTE GOODS OR SERVICES; 
  33:..\u8g2_csrc/u8x8_d_pcf8814_hx1230.c ****   LOSS OF USE, DATA, OR PROFITS; OR BUSINESS INTERRUPTION) HOWEVER 
  34:..\u8g2_csrc/u8x8_d_pcf8814_hx1230.c ****   CAUSED AND ON ANY THEORY OF LIABILITY, WHETHER IN CONTRACT, 
  35:..\u8g2_csrc/u8x8_d_pcf8814_hx1230.c ****   STRICT LIABILITY, OR TORT (INCLUDING NEGLIGENCE OR OTHERWISE) 
  36:..\u8g2_csrc/u8x8_d_pcf8814_hx1230.c ****   ARISING IN ANY WAY OUT OF THE USE OF THIS SOFTWARE, EVEN IF 
  37:..\u8g2_csrc/u8x8_d_pcf8814_hx1230.c ****   ADVISED OF THE POSSIBILITY OF SUCH DAMAGE.  
  38:..\u8g2_csrc/u8x8_d_pcf8814_hx1230.c ****   
  39:..\u8g2_csrc/u8x8_d_pcf8814_hx1230.c **** */
  40:..\u8g2_csrc/u8x8_d_pcf8814_hx1230.c **** 
  41:..\u8g2_csrc/u8x8_d_pcf8814_hx1230.c **** 
  42:..\u8g2_csrc/u8x8_d_pcf8814_hx1230.c **** #include "u8x8.h"
  43:..\u8g2_csrc/u8x8_d_pcf8814_hx1230.c **** 
  44:..\u8g2_csrc/u8x8_d_pcf8814_hx1230.c **** 
  45:..\u8g2_csrc/u8x8_d_pcf8814_hx1230.c **** 
  46:..\u8g2_csrc/u8x8_d_pcf8814_hx1230.c **** static const uint8_t u8x8_d_hx1230_96x68_init_seq[] = {
  47:..\u8g2_csrc/u8x8_d_pcf8814_hx1230.c ****     
  48:..\u8g2_csrc/u8x8_d_pcf8814_hx1230.c ****   U8X8_START_TRANSFER(),             	/* enable chip, delay is part of the transfer start */
  49:..\u8g2_csrc/u8x8_d_pcf8814_hx1230.c ****   
  50:..\u8g2_csrc/u8x8_d_pcf8814_hx1230.c ****   U8X8_C(0x0ae),		                /* display off */
  51:..\u8g2_csrc/u8x8_d_pcf8814_hx1230.c ****   U8X8_C(0x020),		                /* power off */
  52:..\u8g2_csrc/u8x8_d_pcf8814_hx1230.c ****   U8X8_C(0x080),				/* contrast setting, 0..31, set to 0 */
  53:..\u8g2_csrc/u8x8_d_pcf8814_hx1230.c ****   U8X8_C(0x0a6),		                /* not inverted display */
  54:..\u8g2_csrc/u8x8_d_pcf8814_hx1230.c ****   U8X8_C(0x0a4),		                /* normal display mode */
  55:..\u8g2_csrc/u8x8_d_pcf8814_hx1230.c **** 
  56:..\u8g2_csrc/u8x8_d_pcf8814_hx1230.c ****   U8X8_C(0x0a0),		                /* */
  57:..\u8g2_csrc/u8x8_d_pcf8814_hx1230.c ****   U8X8_C(0x0c0),		                /* */
  58:..\u8g2_csrc/u8x8_d_pcf8814_hx1230.c ****   
  59:..\u8g2_csrc/u8x8_d_pcf8814_hx1230.c ****   U8X8_C(0x040),		                /* start at scanline 0 */
  60:..\u8g2_csrc/u8x8_d_pcf8814_hx1230.c ****     
  61:..\u8g2_csrc/u8x8_d_pcf8814_hx1230.c ****   U8X8_END_TRANSFER(),             	/* disable chip */
  62:..\u8g2_csrc/u8x8_d_pcf8814_hx1230.c ****   U8X8_END()             			/* end of sequence */
  63:..\u8g2_csrc/u8x8_d_pcf8814_hx1230.c **** };
  64:..\u8g2_csrc/u8x8_d_pcf8814_hx1230.c **** 
ARM GAS  C:\Users\info\AppData\Local\Temp\ccKCcKAd.s 			page 45


  65:..\u8g2_csrc/u8x8_d_pcf8814_hx1230.c **** static const uint8_t u8x8_d_hx1230_96x68_powersave0_seq[] = {
  66:..\u8g2_csrc/u8x8_d_pcf8814_hx1230.c ****   U8X8_START_TRANSFER(),             	/* enable chip, delay is part of the transfer start */
  67:..\u8g2_csrc/u8x8_d_pcf8814_hx1230.c ****   U8X8_C(0x02f),		                /* power on */
  68:..\u8g2_csrc/u8x8_d_pcf8814_hx1230.c ****   U8X8_C(0x0af),		                /* display on */
  69:..\u8g2_csrc/u8x8_d_pcf8814_hx1230.c ****   U8X8_END_TRANSFER(),             	/* disable chip */
  70:..\u8g2_csrc/u8x8_d_pcf8814_hx1230.c ****   U8X8_END()             			/* end of sequence */
  71:..\u8g2_csrc/u8x8_d_pcf8814_hx1230.c **** };
  72:..\u8g2_csrc/u8x8_d_pcf8814_hx1230.c **** 
  73:..\u8g2_csrc/u8x8_d_pcf8814_hx1230.c **** static const uint8_t u8x8_d_hx1230_96x68_powersave1_seq[] = {
  74:..\u8g2_csrc/u8x8_d_pcf8814_hx1230.c ****   U8X8_START_TRANSFER(),             	/* enable chip, delay is part of the transfer start */
  75:..\u8g2_csrc/u8x8_d_pcf8814_hx1230.c ****   U8X8_C(0x0ae),           		/* display off */
  76:..\u8g2_csrc/u8x8_d_pcf8814_hx1230.c ****   U8X8_C(0x0a5),	     		/* All pixels on = powersave */
  77:..\u8g2_csrc/u8x8_d_pcf8814_hx1230.c ****   U8X8_END_TRANSFER(),             	/* disable chip */
  78:..\u8g2_csrc/u8x8_d_pcf8814_hx1230.c ****   U8X8_END()             			/* end of sequence */
  79:..\u8g2_csrc/u8x8_d_pcf8814_hx1230.c **** };
  80:..\u8g2_csrc/u8x8_d_pcf8814_hx1230.c **** 
  81:..\u8g2_csrc/u8x8_d_pcf8814_hx1230.c **** static const uint8_t u8x8_d_hx1230_96x68_flip0_seq[] = {
  82:..\u8g2_csrc/u8x8_d_pcf8814_hx1230.c ****   U8X8_START_TRANSFER(),             	/* enable chip, delay is part of the transfer start */
  83:..\u8g2_csrc/u8x8_d_pcf8814_hx1230.c ****   U8X8_C(0x0a0),		                /* */
  84:..\u8g2_csrc/u8x8_d_pcf8814_hx1230.c ****   U8X8_C(0x0c0),		                /* */
  85:..\u8g2_csrc/u8x8_d_pcf8814_hx1230.c ****   U8X8_END_TRANSFER(),             	/* disable chip */
  86:..\u8g2_csrc/u8x8_d_pcf8814_hx1230.c ****   U8X8_END()             			/* end of sequence */
  87:..\u8g2_csrc/u8x8_d_pcf8814_hx1230.c **** };
  88:..\u8g2_csrc/u8x8_d_pcf8814_hx1230.c **** 
  89:..\u8g2_csrc/u8x8_d_pcf8814_hx1230.c **** static const uint8_t u8x8_d_hx1230_96x68_flip1_seq[] = {
  90:..\u8g2_csrc/u8x8_d_pcf8814_hx1230.c ****   U8X8_START_TRANSFER(),             	/* enable chip, delay is part of the transfer start */
  91:..\u8g2_csrc/u8x8_d_pcf8814_hx1230.c ****   U8X8_C(0x0a1),		                /* */
  92:..\u8g2_csrc/u8x8_d_pcf8814_hx1230.c ****   U8X8_C(0x0c8),		                /* */
  93:..\u8g2_csrc/u8x8_d_pcf8814_hx1230.c ****   U8X8_END_TRANSFER(),             	/* disable chip */
  94:..\u8g2_csrc/u8x8_d_pcf8814_hx1230.c ****   U8X8_END()             			/* end of sequence */
  95:..\u8g2_csrc/u8x8_d_pcf8814_hx1230.c **** };
  96:..\u8g2_csrc/u8x8_d_pcf8814_hx1230.c **** 
  97:..\u8g2_csrc/u8x8_d_pcf8814_hx1230.c **** 
  98:..\u8g2_csrc/u8x8_d_pcf8814_hx1230.c **** static uint8_t u8x8_d_hx1230_96x68_generic(u8x8_t *u8x8, uint8_t msg, uint8_t arg_int, void *arg_pt
  99:..\u8g2_csrc/u8x8_d_pcf8814_hx1230.c **** {
 596              		.loc 1 99 0
 597              		.cfi_startproc
 598              		@ args = 0, pretend = 0, frame = 0
 599              		@ frame_needed = 0, uses_anonymous_args = 0
 600              	.LVL0:
 601 0000 F8B5     		push	{r3, r4, r5, r6, r7, lr}
 602              		.cfi_def_cfa_offset 24
 603              		.cfi_offset 3, -24
 604              		.cfi_offset 4, -20
 605              		.cfi_offset 5, -16
 606              		.cfi_offset 6, -12
 607              		.cfi_offset 7, -8
 608              		.cfi_offset 14, -4
 609 0002 0546     		mov	r5, r0
 610 0004 1446     		mov	r4, r2
 611 0006 1E46     		mov	r6, r3
 100:..\u8g2_csrc/u8x8_d_pcf8814_hx1230.c ****   uint8_t x, c;
 101:..\u8g2_csrc/u8x8_d_pcf8814_hx1230.c ****   uint8_t *ptr;
 102:..\u8g2_csrc/u8x8_d_pcf8814_hx1230.c ****   switch(msg)
 612              		.loc 1 102 0
 613 0008 0A39     		subs	r1, r1, #10
 614              	.LVL1:
ARM GAS  C:\Users\info\AppData\Local\Temp\ccKCcKAd.s 			page 46


 615 000a 0529     		cmp	r1, #5
 616 000c 62D8     		bhi	.L12
 617 000e DFE801F0 		tbb	[pc, r1]
 618              	.LVL2:
 619              	.L4:
 620 0012 03       		.byte	(.L3-.L4)/2
 621 0013 0B       		.byte	(.L5-.L4)/2
 622 0014 61       		.byte	(.L12-.L4)/2
 623 0015 16       		.byte	(.L6-.L4)/2
 624 0016 29       		.byte	(.L7-.L4)/2
 625 0017 36       		.byte	(.L8-.L4)/2
 626              		.p2align 1
 627              	.L3:
 103:..\u8g2_csrc/u8x8_d_pcf8814_hx1230.c ****   {
 104:..\u8g2_csrc/u8x8_d_pcf8814_hx1230.c ****     /* handled by the calling function
 105:..\u8g2_csrc/u8x8_d_pcf8814_hx1230.c ****     case U8X8_MSG_DISPLAY_SETUP_MEMORY:
 106:..\u8g2_csrc/u8x8_d_pcf8814_hx1230.c ****       u8x8_d_helper_display_setup_memory(u8x8, &u8x8_hx1230_96x68_display_info);
 107:..\u8g2_csrc/u8x8_d_pcf8814_hx1230.c ****       break;
 108:..\u8g2_csrc/u8x8_d_pcf8814_hx1230.c ****     */
 109:..\u8g2_csrc/u8x8_d_pcf8814_hx1230.c ****     case U8X8_MSG_DISPLAY_INIT:
 110:..\u8g2_csrc/u8x8_d_pcf8814_hx1230.c ****       u8x8_d_helper_display_init(u8x8);
 628              		.loc 1 110 0
 629 0018 FFF7FEFF 		bl	u8x8_d_helper_display_init
 630              	.LVL3:
 111:..\u8g2_csrc/u8x8_d_pcf8814_hx1230.c ****       u8x8_cad_SendSequence(u8x8, u8x8_d_hx1230_96x68_init_seq);    
 631              		.loc 1 111 0
 632 001c 2E49     		ldr	r1, .L14
 633 001e 2846     		mov	r0, r5
 634 0020 FFF7FEFF 		bl	u8x8_cad_SendSequence
 635              	.LVL4:
 112:..\u8g2_csrc/u8x8_d_pcf8814_hx1230.c ****       break;
 113:..\u8g2_csrc/u8x8_d_pcf8814_hx1230.c ****     case U8X8_MSG_DISPLAY_SET_POWER_SAVE:
 114:..\u8g2_csrc/u8x8_d_pcf8814_hx1230.c ****       if ( arg_int == 0 )
 115:..\u8g2_csrc/u8x8_d_pcf8814_hx1230.c **** 	u8x8_cad_SendSequence(u8x8, u8x8_d_hx1230_96x68_powersave0_seq);
 116:..\u8g2_csrc/u8x8_d_pcf8814_hx1230.c ****       else
 117:..\u8g2_csrc/u8x8_d_pcf8814_hx1230.c **** 	u8x8_cad_SendSequence(u8x8, u8x8_d_hx1230_96x68_powersave1_seq);
 118:..\u8g2_csrc/u8x8_d_pcf8814_hx1230.c ****       break;
 119:..\u8g2_csrc/u8x8_d_pcf8814_hx1230.c ****     case U8X8_MSG_DISPLAY_SET_FLIP_MODE:
 120:..\u8g2_csrc/u8x8_d_pcf8814_hx1230.c ****       if ( arg_int == 0 )
 121:..\u8g2_csrc/u8x8_d_pcf8814_hx1230.c ****       {
 122:..\u8g2_csrc/u8x8_d_pcf8814_hx1230.c **** 	u8x8_cad_SendSequence(u8x8, u8x8_d_hx1230_96x68_flip0_seq);
 123:..\u8g2_csrc/u8x8_d_pcf8814_hx1230.c **** 	u8x8->x_offset = u8x8->display_info->default_x_offset;
 124:..\u8g2_csrc/u8x8_d_pcf8814_hx1230.c ****       }
 125:..\u8g2_csrc/u8x8_d_pcf8814_hx1230.c ****       else
 126:..\u8g2_csrc/u8x8_d_pcf8814_hx1230.c ****       {
 127:..\u8g2_csrc/u8x8_d_pcf8814_hx1230.c **** 	u8x8_cad_SendSequence(u8x8, u8x8_d_hx1230_96x68_flip1_seq);
 128:..\u8g2_csrc/u8x8_d_pcf8814_hx1230.c **** 	u8x8->x_offset = u8x8->display_info->flipmode_x_offset;
 129:..\u8g2_csrc/u8x8_d_pcf8814_hx1230.c ****       }
 130:..\u8g2_csrc/u8x8_d_pcf8814_hx1230.c ****       break;
 131:..\u8g2_csrc/u8x8_d_pcf8814_hx1230.c **** #ifdef U8X8_WITH_SET_CONTRAST
 132:..\u8g2_csrc/u8x8_d_pcf8814_hx1230.c ****     case U8X8_MSG_DISPLAY_SET_CONTRAST:
 133:..\u8g2_csrc/u8x8_d_pcf8814_hx1230.c ****       u8x8_cad_StartTransfer(u8x8);
 134:..\u8g2_csrc/u8x8_d_pcf8814_hx1230.c ****       u8x8_cad_SendCmd(u8x8, (arg_int>>3)|0x80 );	/* 0..31 for contrast */
 135:..\u8g2_csrc/u8x8_d_pcf8814_hx1230.c ****       u8x8_cad_EndTransfer(u8x8);
 136:..\u8g2_csrc/u8x8_d_pcf8814_hx1230.c ****       break;
 137:..\u8g2_csrc/u8x8_d_pcf8814_hx1230.c **** #endif
 138:..\u8g2_csrc/u8x8_d_pcf8814_hx1230.c ****     case U8X8_MSG_DISPLAY_DRAW_TILE:
ARM GAS  C:\Users\info\AppData\Local\Temp\ccKCcKAd.s 			page 47


 139:..\u8g2_csrc/u8x8_d_pcf8814_hx1230.c ****       u8x8_cad_StartTransfer(u8x8);
 140:..\u8g2_csrc/u8x8_d_pcf8814_hx1230.c ****       x = ((u8x8_tile_t *)arg_ptr)->x_pos;    
 141:..\u8g2_csrc/u8x8_d_pcf8814_hx1230.c ****       x *= 8;
 142:..\u8g2_csrc/u8x8_d_pcf8814_hx1230.c ****       x += u8x8->x_offset;
 143:..\u8g2_csrc/u8x8_d_pcf8814_hx1230.c ****     
 144:..\u8g2_csrc/u8x8_d_pcf8814_hx1230.c ****       u8x8_cad_SendCmd(u8x8, x&15);
 145:..\u8g2_csrc/u8x8_d_pcf8814_hx1230.c ****       u8x8_cad_SendCmd(u8x8, 0x010 | (x>>4));
 146:..\u8g2_csrc/u8x8_d_pcf8814_hx1230.c ****       u8x8_cad_SendCmd(u8x8, 0x0b0 | ((u8x8_tile_t *)arg_ptr)->y_pos);
 147:..\u8g2_csrc/u8x8_d_pcf8814_hx1230.c ****       
 148:..\u8g2_csrc/u8x8_d_pcf8814_hx1230.c ****       do
 149:..\u8g2_csrc/u8x8_d_pcf8814_hx1230.c ****       {
 150:..\u8g2_csrc/u8x8_d_pcf8814_hx1230.c **** 	c = ((u8x8_tile_t *)arg_ptr)->cnt;
 151:..\u8g2_csrc/u8x8_d_pcf8814_hx1230.c **** 	ptr = ((u8x8_tile_t *)arg_ptr)->tile_ptr;
 152:..\u8g2_csrc/u8x8_d_pcf8814_hx1230.c **** 	u8x8_cad_SendData(u8x8, c*8, ptr); 	/* note: SendData can not handle more than 255 bytes */
 153:..\u8g2_csrc/u8x8_d_pcf8814_hx1230.c **** 	arg_int--;
 154:..\u8g2_csrc/u8x8_d_pcf8814_hx1230.c ****       } while( arg_int > 0 );
 155:..\u8g2_csrc/u8x8_d_pcf8814_hx1230.c ****       
 156:..\u8g2_csrc/u8x8_d_pcf8814_hx1230.c ****       u8x8_cad_EndTransfer(u8x8);
 157:..\u8g2_csrc/u8x8_d_pcf8814_hx1230.c ****       break;
 158:..\u8g2_csrc/u8x8_d_pcf8814_hx1230.c ****     default:
 159:..\u8g2_csrc/u8x8_d_pcf8814_hx1230.c ****       return 0;
 160:..\u8g2_csrc/u8x8_d_pcf8814_hx1230.c ****   }
 161:..\u8g2_csrc/u8x8_d_pcf8814_hx1230.c ****   return 1;
 636              		.loc 1 161 0
 637 0024 0120     		movs	r0, #1
 112:..\u8g2_csrc/u8x8_d_pcf8814_hx1230.c ****       break;
 638              		.loc 1 112 0
 639 0026 F8BD     		pop	{r3, r4, r5, r6, r7, pc}
 640              	.LVL5:
 641              	.L5:
 114:..\u8g2_csrc/u8x8_d_pcf8814_hx1230.c **** 	u8x8_cad_SendSequence(u8x8, u8x8_d_hx1230_96x68_powersave0_seq);
 642              		.loc 1 114 0
 643 0028 22B9     		cbnz	r2, .L9
 115:..\u8g2_csrc/u8x8_d_pcf8814_hx1230.c ****       else
 644              		.loc 1 115 0
 645 002a 2C49     		ldr	r1, .L14+4
 646 002c FFF7FEFF 		bl	u8x8_cad_SendSequence
 647              	.LVL6:
 648              		.loc 1 161 0
 649 0030 0120     		movs	r0, #1
 650 0032 F8BD     		pop	{r3, r4, r5, r6, r7, pc}
 651              	.LVL7:
 652              	.L9:
 117:..\u8g2_csrc/u8x8_d_pcf8814_hx1230.c ****       break;
 653              		.loc 1 117 0
 654 0034 2A49     		ldr	r1, .L14+8
 655 0036 FFF7FEFF 		bl	u8x8_cad_SendSequence
 656              	.LVL8:
 657              		.loc 1 161 0
 658 003a 0120     		movs	r0, #1
 659 003c F8BD     		pop	{r3, r4, r5, r6, r7, pc}
 660              	.LVL9:
 661              	.L6:
 120:..\u8g2_csrc/u8x8_d_pcf8814_hx1230.c ****       {
 662              		.loc 1 120 0
 663 003e 42B9     		cbnz	r2, .L10
 122:..\u8g2_csrc/u8x8_d_pcf8814_hx1230.c **** 	u8x8->x_offset = u8x8->display_info->default_x_offset;
ARM GAS  C:\Users\info\AppData\Local\Temp\ccKCcKAd.s 			page 48


 664              		.loc 1 122 0
 665 0040 2849     		ldr	r1, .L14+12
 666 0042 FFF7FEFF 		bl	u8x8_cad_SendSequence
 667              	.LVL10:
 123:..\u8g2_csrc/u8x8_d_pcf8814_hx1230.c ****       }
 668              		.loc 1 123 0
 669 0046 2B68     		ldr	r3, [r5]
 670 0048 9B7C     		ldrb	r3, [r3, #18]	@ zero_extendqisi2
 671 004a 85F82230 		strb	r3, [r5, #34]
 672              		.loc 1 161 0
 673 004e 0120     		movs	r0, #1
 674 0050 F8BD     		pop	{r3, r4, r5, r6, r7, pc}
 675              	.LVL11:
 676              	.L10:
 127:..\u8g2_csrc/u8x8_d_pcf8814_hx1230.c **** 	u8x8->x_offset = u8x8->display_info->flipmode_x_offset;
 677              		.loc 1 127 0
 678 0052 2549     		ldr	r1, .L14+16
 679 0054 FFF7FEFF 		bl	u8x8_cad_SendSequence
 680              	.LVL12:
 128:..\u8g2_csrc/u8x8_d_pcf8814_hx1230.c ****       }
 681              		.loc 1 128 0
 682 0058 2B68     		ldr	r3, [r5]
 683 005a DB7C     		ldrb	r3, [r3, #19]	@ zero_extendqisi2
 684 005c 85F82230 		strb	r3, [r5, #34]
 685              		.loc 1 161 0
 686 0060 0120     		movs	r0, #1
 687 0062 F8BD     		pop	{r3, r4, r5, r6, r7, pc}
 688              	.LVL13:
 689              	.L7:
 133:..\u8g2_csrc/u8x8_d_pcf8814_hx1230.c ****       u8x8_cad_SendCmd(u8x8, (arg_int>>3)|0x80 );	/* 0..31 for contrast */
 690              		.loc 1 133 0
 691 0064 FFF7FEFF 		bl	u8x8_cad_StartTransfer
 692              	.LVL14:
 134:..\u8g2_csrc/u8x8_d_pcf8814_hx1230.c ****       u8x8_cad_EndTransfer(u8x8);
 693              		.loc 1 134 0
 694 0068 E108     		lsrs	r1, r4, #3
 695 006a 41F08001 		orr	r1, r1, #128
 696 006e 2846     		mov	r0, r5
 697 0070 FFF7FEFF 		bl	u8x8_cad_SendCmd
 698              	.LVL15:
 135:..\u8g2_csrc/u8x8_d_pcf8814_hx1230.c ****       break;
 699              		.loc 1 135 0
 700 0074 2846     		mov	r0, r5
 701 0076 FFF7FEFF 		bl	u8x8_cad_EndTransfer
 702              	.LVL16:
 703              		.loc 1 161 0
 704 007a 0120     		movs	r0, #1
 136:..\u8g2_csrc/u8x8_d_pcf8814_hx1230.c **** #endif
 705              		.loc 1 136 0
 706 007c F8BD     		pop	{r3, r4, r5, r6, r7, pc}
 707              	.LVL17:
 708              	.L8:
 139:..\u8g2_csrc/u8x8_d_pcf8814_hx1230.c ****       x = ((u8x8_tile_t *)arg_ptr)->x_pos;    
 709              		.loc 1 139 0
 710 007e FFF7FEFF 		bl	u8x8_cad_StartTransfer
 711              	.LVL18:
 140:..\u8g2_csrc/u8x8_d_pcf8814_hx1230.c ****       x *= 8;
ARM GAS  C:\Users\info\AppData\Local\Temp\ccKCcKAd.s 			page 49


 712              		.loc 1 140 0
 713 0082 7779     		ldrb	r7, [r6, #5]	@ zero_extendqisi2
 714              	.LVL19:
 141:..\u8g2_csrc/u8x8_d_pcf8814_hx1230.c ****       x += u8x8->x_offset;
 715              		.loc 1 141 0
 716 0084 FF00     		lsls	r7, r7, #3
 717              	.LVL20:
 718 0086 FFB2     		uxtb	r7, r7
 719              	.LVL21:
 142:..\u8g2_csrc/u8x8_d_pcf8814_hx1230.c ****     
 720              		.loc 1 142 0
 721 0088 95F82230 		ldrb	r3, [r5, #34]	@ zero_extendqisi2
 722 008c 1F44     		add	r7, r7, r3
 723              	.LVL22:
 724 008e FFB2     		uxtb	r7, r7
 725              	.LVL23:
 144:..\u8g2_csrc/u8x8_d_pcf8814_hx1230.c ****       u8x8_cad_SendCmd(u8x8, 0x010 | (x>>4));
 726              		.loc 1 144 0
 727 0090 07F00F01 		and	r1, r7, #15
 728 0094 2846     		mov	r0, r5
 729 0096 FFF7FEFF 		bl	u8x8_cad_SendCmd
 730              	.LVL24:
 145:..\u8g2_csrc/u8x8_d_pcf8814_hx1230.c ****       u8x8_cad_SendCmd(u8x8, 0x0b0 | ((u8x8_tile_t *)arg_ptr)->y_pos);
 731              		.loc 1 145 0
 732 009a 3909     		lsrs	r1, r7, #4
 733 009c 41F01001 		orr	r1, r1, #16
 734 00a0 2846     		mov	r0, r5
 735 00a2 FFF7FEFF 		bl	u8x8_cad_SendCmd
 736              	.LVL25:
 146:..\u8g2_csrc/u8x8_d_pcf8814_hx1230.c ****       
 737              		.loc 1 146 0
 738 00a6 B179     		ldrb	r1, [r6, #6]	@ zero_extendqisi2
 739 00a8 41F0B001 		orr	r1, r1, #176
 740 00ac 2846     		mov	r0, r5
 741 00ae FFF7FEFF 		bl	u8x8_cad_SendCmd
 742              	.LVL26:
 743              	.L11:
 150:..\u8g2_csrc/u8x8_d_pcf8814_hx1230.c **** 	ptr = ((u8x8_tile_t *)arg_ptr)->tile_ptr;
 744              		.loc 1 150 0 discriminator 1
 745 00b2 3179     		ldrb	r1, [r6, #4]	@ zero_extendqisi2
 746              	.LVL27:
 152:..\u8g2_csrc/u8x8_d_pcf8814_hx1230.c **** 	arg_int--;
 747              		.loc 1 152 0 discriminator 1
 748 00b4 C900     		lsls	r1, r1, #3
 749              	.LVL28:
 750 00b6 3268     		ldr	r2, [r6]
 751 00b8 01F0F801 		and	r1, r1, #248
 752 00bc 2846     		mov	r0, r5
 753 00be FFF7FEFF 		bl	u8x8_cad_SendData
 754              	.LVL29:
 153:..\u8g2_csrc/u8x8_d_pcf8814_hx1230.c ****       } while( arg_int > 0 );
 755              		.loc 1 153 0 discriminator 1
 756 00c2 621E     		subs	r2, r4, #1
 757              	.LVL30:
 154:..\u8g2_csrc/u8x8_d_pcf8814_hx1230.c ****       
 758              		.loc 1 154 0 discriminator 1
 759 00c4 12F0FF04 		ands	r4, r2, #255
ARM GAS  C:\Users\info\AppData\Local\Temp\ccKCcKAd.s 			page 50


 760 00c8 F3D1     		bne	.L11
 156:..\u8g2_csrc/u8x8_d_pcf8814_hx1230.c ****       break;
 761              		.loc 1 156 0
 762 00ca 2846     		mov	r0, r5
 763 00cc FFF7FEFF 		bl	u8x8_cad_EndTransfer
 764              	.LVL31:
 765              		.loc 1 161 0
 766 00d0 0120     		movs	r0, #1
 157:..\u8g2_csrc/u8x8_d_pcf8814_hx1230.c ****     default:
 767              		.loc 1 157 0
 768 00d2 F8BD     		pop	{r3, r4, r5, r6, r7, pc}
 769              	.LVL32:
 770              	.L12:
 159:..\u8g2_csrc/u8x8_d_pcf8814_hx1230.c ****   }
 771              		.loc 1 159 0
 772 00d4 0020     		movs	r0, #0
 773              	.LVL33:
 162:..\u8g2_csrc/u8x8_d_pcf8814_hx1230.c **** }
 774              		.loc 1 162 0
 775 00d6 F8BD     		pop	{r3, r4, r5, r6, r7, pc}
 776              	.LVL34:
 777              	.L15:
 778              		.align	2
 779              	.L14:
 780 00d8 00000000 		.word	.LANCHOR0
 781 00dc 14000000 		.word	.LANCHOR0+20
 782 00e0 1C000000 		.word	.LANCHOR0+28
 783 00e4 24000000 		.word	.LANCHOR0+36
 784 00e8 2C000000 		.word	.LANCHOR0+44
 785              		.cfi_endproc
 786              	.LFE0:
 787              		.size	u8x8_d_hx1230_96x68_generic, .-u8x8_d_hx1230_96x68_generic
 788              		.section	.text.u8x8_d_hx1230_96x68,"ax",%progbits
 789              		.align	2
 790              		.global	u8x8_d_hx1230_96x68
 791              		.thumb
 792              		.thumb_func
 793              		.type	u8x8_d_hx1230_96x68, %function
 794              	u8x8_d_hx1230_96x68:
 795              	.LFB1:
 163:..\u8g2_csrc/u8x8_d_pcf8814_hx1230.c **** 
 164:..\u8g2_csrc/u8x8_d_pcf8814_hx1230.c **** static const u8x8_display_info_t u8x8_hx1230_96x68_display_info =
 165:..\u8g2_csrc/u8x8_d_pcf8814_hx1230.c **** {
 166:..\u8g2_csrc/u8x8_d_pcf8814_hx1230.c ****   /* chip_enable_level = */ 0,
 167:..\u8g2_csrc/u8x8_d_pcf8814_hx1230.c ****   /* chip_disable_level = */ 1,
 168:..\u8g2_csrc/u8x8_d_pcf8814_hx1230.c ****   
 169:..\u8g2_csrc/u8x8_d_pcf8814_hx1230.c ****   /* post_chip_enable_wait_ns = */ 100,
 170:..\u8g2_csrc/u8x8_d_pcf8814_hx1230.c ****   /* pre_chip_disable_wait_ns = */ 100,
 171:..\u8g2_csrc/u8x8_d_pcf8814_hx1230.c ****   /* reset_pulse_width_ms = */ 100, 
 172:..\u8g2_csrc/u8x8_d_pcf8814_hx1230.c ****   /* post_reset_wait_ms = */ 100, 
 173:..\u8g2_csrc/u8x8_d_pcf8814_hx1230.c ****   /* sda_setup_time_ns = */ 100,	
 174:..\u8g2_csrc/u8x8_d_pcf8814_hx1230.c ****   /* sck_pulse_width_ns = */ 100,	
 175:..\u8g2_csrc/u8x8_d_pcf8814_hx1230.c ****   /* sck_clock_hz = */ 4000000UL,	/* since Arduino 1.6.0, the SPI bus speed in Hz. Should be  10000
 176:..\u8g2_csrc/u8x8_d_pcf8814_hx1230.c ****   /* spi_mode = */ 0,		/* active high, rising edge */
 177:..\u8g2_csrc/u8x8_d_pcf8814_hx1230.c ****   /* i2c_bus_clock_100kHz = */ 4,
 178:..\u8g2_csrc/u8x8_d_pcf8814_hx1230.c ****   /* data_setup_time_ns = */ 40,
 179:..\u8g2_csrc/u8x8_d_pcf8814_hx1230.c ****   /* write_pulse_width_ns = */ 150,	
ARM GAS  C:\Users\info\AppData\Local\Temp\ccKCcKAd.s 			page 51


 180:..\u8g2_csrc/u8x8_d_pcf8814_hx1230.c ****   /* tile_width = */ 12,
 181:..\u8g2_csrc/u8x8_d_pcf8814_hx1230.c ****   /* tile_hight = */ 9,
 182:..\u8g2_csrc/u8x8_d_pcf8814_hx1230.c ****   /* default_x_offset = */ 0,
 183:..\u8g2_csrc/u8x8_d_pcf8814_hx1230.c ****   /* flipmode_x_offset = */ 0,
 184:..\u8g2_csrc/u8x8_d_pcf8814_hx1230.c ****   /* pixel_width = */ 96,
 185:..\u8g2_csrc/u8x8_d_pcf8814_hx1230.c ****   /* pixel_height = */ 68
 186:..\u8g2_csrc/u8x8_d_pcf8814_hx1230.c **** };
 187:..\u8g2_csrc/u8x8_d_pcf8814_hx1230.c **** 
 188:..\u8g2_csrc/u8x8_d_pcf8814_hx1230.c **** uint8_t u8x8_d_hx1230_96x68(u8x8_t *u8x8, uint8_t msg, uint8_t arg_int, void *arg_ptr)
 189:..\u8g2_csrc/u8x8_d_pcf8814_hx1230.c **** {
 796              		.loc 1 189 0
 797              		.cfi_startproc
 798              		@ args = 0, pretend = 0, frame = 0
 799              		@ frame_needed = 0, uses_anonymous_args = 0
 800              	.LVL35:
 801 0000 08B5     		push	{r3, lr}
 802              		.cfi_def_cfa_offset 8
 803              		.cfi_offset 3, -8
 804              		.cfi_offset 14, -4
 190:..\u8g2_csrc/u8x8_d_pcf8814_hx1230.c ****     if ( msg == U8X8_MSG_DISPLAY_SETUP_MEMORY )
 805              		.loc 1 190 0
 806 0002 0929     		cmp	r1, #9
 807 0004 04D1     		bne	.L17
 191:..\u8g2_csrc/u8x8_d_pcf8814_hx1230.c ****     {
 192:..\u8g2_csrc/u8x8_d_pcf8814_hx1230.c ****       u8x8_d_helper_display_setup_memory(u8x8, &u8x8_hx1230_96x68_display_info);
 808              		.loc 1 192 0
 809 0006 0449     		ldr	r1, .L20
 810              	.LVL36:
 811 0008 FFF7FEFF 		bl	u8x8_d_helper_display_setup_memory
 812              	.LVL37:
 193:..\u8g2_csrc/u8x8_d_pcf8814_hx1230.c ****       return 1;
 813              		.loc 1 193 0
 814 000c 0120     		movs	r0, #1
 815 000e 08BD     		pop	{r3, pc}
 816              	.LVL38:
 817              	.L17:
 194:..\u8g2_csrc/u8x8_d_pcf8814_hx1230.c ****     }
 195:..\u8g2_csrc/u8x8_d_pcf8814_hx1230.c ****     return u8x8_d_hx1230_96x68_generic(u8x8, msg, arg_int, arg_ptr);
 818              		.loc 1 195 0
 819 0010 FFF7FEFF 		bl	u8x8_d_hx1230_96x68_generic
 820              	.LVL39:
 196:..\u8g2_csrc/u8x8_d_pcf8814_hx1230.c **** }
 821              		.loc 1 196 0
 822 0014 08BD     		pop	{r3, pc}
 823              	.L21:
 824 0016 00BF     		.align	2
 825              	.L20:
 826 0018 34000000 		.word	.LANCHOR0+52
 827              		.cfi_endproc
 828              	.LFE1:
 829              		.size	u8x8_d_hx1230_96x68, .-u8x8_d_hx1230_96x68
 830              		.section	.rodata
 831              		.align	2
 832              		.set	.LANCHOR0,. + 0
 833              		.type	u8x8_d_hx1230_96x68_init_seq, %object
 834              		.size	u8x8_d_hx1230_96x68_init_seq, 19
 835              	u8x8_d_hx1230_96x68_init_seq:
ARM GAS  C:\Users\info\AppData\Local\Temp\ccKCcKAd.s 			page 52


 836 0000 18       		.byte	24
 837 0001 15       		.byte	21
 838 0002 AE       		.byte	-82
 839 0003 15       		.byte	21
 840 0004 20       		.byte	32
 841 0005 15       		.byte	21
 842 0006 80       		.byte	-128
 843 0007 15       		.byte	21
 844 0008 A6       		.byte	-90
 845 0009 15       		.byte	21
 846 000a A4       		.byte	-92
 847 000b 15       		.byte	21
 848 000c A0       		.byte	-96
 849 000d 15       		.byte	21
 850 000e C0       		.byte	-64
 851 000f 15       		.byte	21
 852 0010 40       		.byte	64
 853 0011 19       		.byte	25
 854 0012 FF       		.byte	-1
 855 0013 00       		.space	1
 856              		.type	u8x8_d_hx1230_96x68_powersave0_seq, %object
 857              		.size	u8x8_d_hx1230_96x68_powersave0_seq, 7
 858              	u8x8_d_hx1230_96x68_powersave0_seq:
 859 0014 18       		.byte	24
 860 0015 15       		.byte	21
 861 0016 2F       		.byte	47
 862 0017 15       		.byte	21
 863 0018 AF       		.byte	-81
 864 0019 19       		.byte	25
 865 001a FF       		.byte	-1
 866 001b 00       		.space	1
 867              		.type	u8x8_d_hx1230_96x68_powersave1_seq, %object
 868              		.size	u8x8_d_hx1230_96x68_powersave1_seq, 7
 869              	u8x8_d_hx1230_96x68_powersave1_seq:
 870 001c 18       		.byte	24
 871 001d 15       		.byte	21
 872 001e AE       		.byte	-82
 873 001f 15       		.byte	21
 874 0020 A5       		.byte	-91
 875 0021 19       		.byte	25
 876 0022 FF       		.byte	-1
 877 0023 00       		.space	1
 878              		.type	u8x8_d_hx1230_96x68_flip0_seq, %object
 879              		.size	u8x8_d_hx1230_96x68_flip0_seq, 7
 880              	u8x8_d_hx1230_96x68_flip0_seq:
 881 0024 18       		.byte	24
 882 0025 15       		.byte	21
 883 0026 A0       		.byte	-96
 884 0027 15       		.byte	21
 885 0028 C0       		.byte	-64
 886 0029 19       		.byte	25
 887 002a FF       		.byte	-1
 888 002b 00       		.space	1
 889              		.type	u8x8_d_hx1230_96x68_flip1_seq, %object
 890              		.size	u8x8_d_hx1230_96x68_flip1_seq, 7
 891              	u8x8_d_hx1230_96x68_flip1_seq:
 892 002c 18       		.byte	24
ARM GAS  C:\Users\info\AppData\Local\Temp\ccKCcKAd.s 			page 53


 893 002d 15       		.byte	21
 894 002e A1       		.byte	-95
 895 002f 15       		.byte	21
 896 0030 C8       		.byte	-56
 897 0031 19       		.byte	25
 898 0032 FF       		.byte	-1
 899 0033 00       		.space	1
 900              		.type	u8x8_hx1230_96x68_display_info, %object
 901              		.size	u8x8_hx1230_96x68_display_info, 24
 902              	u8x8_hx1230_96x68_display_info:
 903 0034 00       		.byte	0
 904 0035 01       		.byte	1
 905 0036 64       		.byte	100
 906 0037 64       		.byte	100
 907 0038 64       		.byte	100
 908 0039 64       		.byte	100
 909 003a 64       		.byte	100
 910 003b 64       		.byte	100
 911 003c 00093D00 		.word	4000000
 912 0040 00       		.byte	0
 913 0041 04       		.byte	4
 914 0042 28       		.byte	40
 915 0043 96       		.byte	-106
 916 0044 0C       		.byte	12
 917 0045 09       		.byte	9
 918 0046 00       		.byte	0
 919 0047 00       		.byte	0
 920 0048 6000     		.short	96
 921 004a 4400     		.short	68
 922              		.text
 923              	.Letext0:
 924              		.file 2 "c:\\program files (x86)\\cypress\\psoc creator\\4.2\\psoc creator\\import\\gnu\\arm\\5.4.
 925              		.file 3 "c:\\program files (x86)\\cypress\\psoc creator\\4.2\\psoc creator\\import\\gnu\\arm\\5.4.
 926              		.file 4 "..\\u8g2_csrc\\u8x8.h"