ARM GAS  C:\Users\info\AppData\Local\Temp\ccZ3Z6tS.s 			page 1


   1              		.syntax unified
   2              		.cpu cortex-m3
   3              		.fpu softvfp
   4              		.eabi_attribute 20, 1
   5              		.eabi_attribute 21, 1
   6              		.eabi_attribute 23, 3
   7              		.eabi_attribute 24, 1
   8              		.eabi_attribute 25, 1
   9              		.eabi_attribute 26, 1
  10              		.eabi_attribute 30, 1
  11              		.eabi_attribute 34, 1
  12              		.eabi_attribute 18, 4
  13              		.thumb
  14              		.syntax unified
  15              		.file	"VERT_PM.c"
  16              		.text
  17              	.Ltext0:
  18              		.section	.gnu.lto_.profile.792a7d87,"",%progbits
  19 0000 789C6361 		.ascii	"x\234ca`d`e`\000\222\015\214J\000\002\"\000\257"
  19      60646065 
  19      6000920D 
  19      8C4A0002 
  19      2200AF
  20              		.text
  21              		.section	.gnu.lto_.inline.792a7d87,"",%progbits
  22 0000 789C6361 		.ascii	"x\234ca`d\000\2016\006\004`a`\340Qcd`b\373\240\307\300"
  22      60640081 
  22      36060460 
  22      6160E051 
  22      63646062 
  23 0018 B6409E09 		.ascii	"\266@\236\011$\306\304\215J`W\3018\301\017\225bf\340"
  23      24C6C48D 
  23      4A6057C1 
  23      38C10F95 
  23      6266E0
  24 002b 9202AAE3 		.ascii	"\222\002\252\343\332g\007W\307\310\005#X\0308\204\321"
  24      DA670757 
  24      C7C80523 
  24      58183884 
  24      D1
  25 003c 0C414832 		.ascii	"\014AH2\000\000u\226\013\355"
  25      00007596 
  25      0BED
  26              		.text
  27              		.section	.gnu.lto_.jmpfuncs.792a7d87,"",%progbits
  28 0000 789C6361 		.ascii	"x\234ca`d\000\001\011\006\004`\201PL`\222\031!\002\000"
  28      60640001 
  28      09060460 
  28      81504C60 
  28      92192102 
  29 0015 0521002B 		.ascii	"\005!\000+"
  30              		.text
  31              		.section	.gnu.lto_.pureconst.792a7d87,"",%progbits
  32 0000 789C6361 		.ascii	"x\234ca`d\340d```a\220`\222`\226b\221\000\000\002\243"
  32      6064E064 
  32      60606061 
  32      90609260 
ARM GAS  C:\Users\info\AppData\Local\Temp\ccZ3Z6tS.s 			page 2


  32      96629100 
  33 0017 007E     		.ascii	"\000~"
  34              		.text
  35              		.section	.gnu.lto_VERT_SaveConfig.792a7d87,"",%progbits
  36 0000 789C9592 		.ascii	"x\234\225\222\273/DA\024\306\3177c\357\356z$z\"D\024"
  36      BB2F4441 
  36      14C6CF37 
  36      63EFEE7A 
  36      247A2244 
  37 0015 1A5BF90B 		.ascii	"\032[\371\013\004\225d\263D\"\221\210\260-!\324;\254"
  37      049564B3 
  37      44229188 
  37      B02D21D4 
  37      3BAC
  38 0027 EBD10885 		.ascii	"\353\321\010\205U\311F\345\271\336\302Vn\204N(D\245"
  38      55C946E5 
  38      B9DEC256 
  38      6E844E28 
  38      44A5
  39 0039 4121220A 		.ascii	"A!\"\012\022\012\005\3279\263\012\011\022&\231Gf\276"
  39      120A05D7 
  39      39B30A09 
  39      12269947 
  39      66BE
  40 004b 73BEDF99 		.ascii	"s\276\337\231\231<\002I\213)\242J\236K\270C\023\324"
  40      993C0249 
  40      8B29A24A 
  40      9E4BB843 
  40      13D4
  41 005d D429D150 		.ascii	"\324)\321PH\001\2620!PB!\201\027\365\246p8v\233U\325"
  41      4801B230 
  41      21504221 
  41      8117F5A6 
  41      7038769B 
  42 0073 0B86DBD5 		.ascii	"\013\206\333\325qJ\233E\017\256&\362\225\315DX@5\261"
  42      714A9B45 
  42      0FAE26F2 
  42      95CD4458 
  42      4035B1
  43 0086 EC66F37D 		.ascii	"\354f\363}\246\310\031\021Yy\356\020\213p\304n=\346"
  43      A6C81911 
  43      5979EE10 
  43      8B70C46E 
  43      3DE6
  44 0098 19DF4F1A 		.ascii	"\031\337O\032o/\220),\320\344j82\204y`\335#wq}RJf}\207"
  44      6F2F9029 
  44      2CD0E46A 
  44      38328479 
  44      60DD2377 
  45 00b3 A477B0AB 		.ascii	"\244w\260\253$:\2515g\316f\037.\203\21173nL\261\253"
  45      243AA935 
  45      67CE661F 
  45      2E838937 
  45      336E4CB1 
  46 00c8 B5AF3829 		.ascii	"\265\2578)\226\220\340\360<\272\305p\352\272J\304\254"
  46      9690E0F0 
  46      3CBAC570 
ARM GAS  C:\Users\info\AppData\Local\Temp\ccZ3Z6tS.s 			page 3


  46      EABA4AC4 
  46      AC
  47 00d9 4CB98767 		.ascii	"L\271\207g\301g\345\352\000\350[``\202\251e\373\376"
  47      C167E5EA 
  47      00E85B60 
  47      6082A965 
  47      FBFE
  48 00eb E4E2283F 		.ascii	"\344\342(?\215\271!c\367\035\254p\251\313(\265\207\223"
  48      8DB92163 
  48      F71DAC70 
  48      A9CB28B5 
  48      8793
  49 00fd FB1B13A1 		.ascii	"\373\033\023\241HF\3120}\256\016b\025i\274\333Z\221"
  49      4846CA30 
  49      7DAE0E62 
  49      1569BCDB 
  49      5A91
  50 010f 41848948 		.ascii	"A\204\211H\000\317_\221\003t~\002d9\326\276\000\316"
  50      00CF5F91 
  50      03747E02 
  50      6439D6BE 
  50      00CE
  51 0121 977D02FE 		.ascii	"\227}\002\376\225h\375\027\2426!\332\260Dr\263\330\024"
  51      9568FD17 
  51      A23621DA 
  51      B04472B3 
  51      D814
  52 0133 22C7124D 		.ascii	"\"\307\022M\217FrD\341o>!_\261\021\266,Q8GT\363O\242"
  52      8F467244 
  52      E16F3E21 
  52      5FB111B6 
  52      2C513847 
  53 014b EDDFEF28 		.ascii	"\355\337\357(\037;\226\310\276\371\256\020\205\351\036"
  53      1F3B96C8 
  53      BEF9AE10 
  53      85E91E
  54 015a C3DE6C83 		.ascii	"\303\336l\203x\330O\362\310\270\374\266\254\250h\214"
  54      78D84FF2 
  54      C8B8FCB6 
  54      ACA8688C 
  55 016a F7C4FB3B 		.ascii	"\367\304\373;\007\342\335\035\315\275\203\375]\361\366"
  55      07E2DD1D 
  55      CDBD83FD 
  55      5DF1F6
  56 0179 68736F5D 		.ascii	"hso]m{k}\254\245#\332T\323E\037S\352\327\306"
  56      6D7B6B7D 
  56      ACA523DA 
  56      54D3451F 
  56      53EAD7C6 
  57              		.text
  58              		.section	.gnu.lto_VERT_RestoreConfig.792a7d87,"",%progbits
  59 0000 789C9591 		.ascii	"x\234\225\221M(DQ\024\307\317\377\336\347\315\243\224"
  59      4D284451 
  59      14C7CFFF 
  59      DEE7CDA3 
  59      94
  60 0011 3D0BB29A 		.ascii	"=\013\262\232\205\217\215\275\222\254\3244#+5\211\331"
ARM GAS  C:\Users\info\AppData\Local\Temp\ccZ3Z6tS.s 			page 4


  60      858F8DBD 
  60      92ACD434 
  60      232B3589 
  60      D9
  61 0022 5262FDAE 		.ascii	"Rb\375\256\031/f#\026\3544\313\031\3373>\312X\215I\331"
  61      192F6623 
  61      16EC34CB 
  61      19DF333E 
  61      CA588D49 
  62 0037 882CAC14 		.ascii	"\210,\254\024\262\220&1\302\322<\347^\261!r\352\334"
  62      B2902631 
  62      C2D23CE7 
  62      5EB12172 
  62      EADC
  63 0049 733BF7F4 		.ascii	"s;\367\364?\277s\217E m\235\202\250\231c=;$A\314\235"
  63      3FBF738F 
  63      45206D9D 
  63      82A89963 
  63      3D3B2441 
  64 005f 104D3A02 		.ascii	"\020M:\002\320\027\345\200\\\001\027\257\342M\2408}"
  64      D017E580 
  64      5C0117AF 
  64      E24DA038 
  64      7D
  65 0070 9B17C1B4 		.ascii	"\233\027\301\264b\273\366\036\332U\246\000O\022\371"
  65      62BBF61E 
  65      DA55A600 
  65      4F12F9
  66 007f C22811D2 		.ascii	"\302(\021\322\010\022\227\335\344*\013\265\366\224."
  66      081297DD 
  66      E42A0BB5 
  66      F6942E
  67 008e 6BFC7844 		.ascii	"k\374xD\006\266n\267\031.(\337O\250\302\263}p~$\034"
  67      06B66EB7 
  67      192E28DF 
  67      4FA8C2B3 
  67      7D707E24 
  68 00a3 419E84A5 		.ascii	"A\236\204\245\017\233\017\256,\263\353\276OB\350(o\021"
  68      0F9B0FAE 
  68      2CB3EBBE 
  68      4F42E828 
  68      6F11
  69 00b5 DFCF5DCE 		.ascii	"\337\317]\316Wi\201\204\324\014\213^\3614\360\"<)\241"
  69      57698184 
  69      D40C8B5E 
  69      F134F022 
  69      3C29A1
  70 00c8 7BE5F3F7 		.ascii	"{\345\363\367\027\001\367M\315(U\307\271$\343\350t\351"
  70      1701F74D 
  70      CD2855C7 
  70      B924E3E8 
  70      74E9
  71 00da F8FCB026 		.ascii	"\370\374\260&\205\245Ie\362\026Vx\206e4\230\307\331"
  71      85A54965 
  71      F2165678 
  71      86653498 
  71      C7D9
ARM GAS  C:\Users\info\AppData\Local\Temp\ccZ3Z6tS.s 			page 5


  72 00ec BD6CD269 		.ascii	"\275l\322ik\361d\025V\221B\305\340c\015mt\007Kw\372"
  72      6BF16415 
  72      569142C5 
  72      E0630D6D 
  72      74074B77 
  73 0101 2E6CFB82 		.ascii	".l\373\202\371\261\016\227\030\303\223\001\322dOWg\362"
  73      F9B10E97 
  73      18C39301 
  73      D2644F57 
  73      67F2
  74 0113 83CCFA07 		.ascii	"\203\314\372\007\312\306\317(\233\006E\377\022\262\177"
  74      CAC6CF28 
  74      9B0645FF 
  74      12B27F
  75 0122 A0303072 		.ascii	"\24000r\006\305\372By\374\374$\373\037([?\2418\3306"
  75      06C5FA42 
  75      79FCFC24 
  75      FB1F285B 
  75      3FA138D8 
  76 0137 2866713B 		.ascii	"(fq;\277\241T\373\202\225\261kPlO\326P\011\361\002/"
  76      BFA154FB 
  76      8295B16B 
  76      506C4FD6 
  76      5009F102 
  77 014c D6946B2B 		.ascii	"\326\224k+\363@\274G\226j\352\211\215\304\306\006\307"
  77      F340BC47 
  77      966AEA89 
  77      8DC4C606 
  77      C7
  78 015d 63C3D1C8 		.ascii	"c\303\321\310\350\304\330Pl \024\031\355\352\030\350"
  78      E8C4D850 
  78      6C201419 
  78      EDEA18E8 
  79 016d EF0EF745 		.ascii	"\357\016\367EC\275\255C\364\016\330\336\315\026"
  79      43BDAD43 
  79      F40ED8DE 
  79      CD16
  80              		.text
  81              		.section	.gnu.lto_VERT_Sleep.792a7d87,"",%progbits
  82 0000 789C8D91 		.ascii	"x\234\215\221\317k\023A\024\307\337wf6\273Y\265\370"
  82      CF6B1341 
  82      14C7DF77 
  82      6636BB59 
  82      B5F8
  83 0012 07F4A078 		.ascii	"\007\364\240x\352\305\342\301\253=\210\010\202PZ\361"
  83      EAC5E2C1 
  83      AB3D8808 
  83      82505AF1 
  84 0022 54285273 		.ascii	"T(Rsm\261\3509\223\037K\254\007\021\241\322\213\364"
  84      6DB1E839 
  84      931F4BAC 
  84      0711A1D2 
  84      8BF4
  85 0034 D6B4D5DA 		.ascii	"\326\264\325\332\304Zkn\333\340A\244\264\027{Q\020\365"
  85      C45A6B6E 
  85      DBE041A4 
  85      B4177B51 
ARM GAS  C:\Users\info\AppData\Local\Temp\ccZ3Z6tS.s 			page 6


  85      10F5
  86 0046 10A4F490 		.ascii	"\020\244\364\220H\225(\244\361\275I\254\005Q|0;\263"
  86      489528A4 
  86      F1BD49AC 
  86      05517C30 
  86      3BB3
  87 0058 6FBEF33E 		.ascii	"o\276\363>\337yc\010$\221VD\247x>\307\003\011\202\272"
  87      DF796308 
  87      24915644 
  87      A7783EC7 
  87      030982BA 
  88 006c B7499409 		.ascii	"\267I\224\011\224\322\315\036\262\241\231\031 {T\303"
  88      94D2CD1E 
  88      B2A19919 
  88      207B54C3 
  89 007c EBA4CDAF 		.ascii	"\353\244\315\257\205\007\310\302\006\340\012\332xH\343"
  89      8507C8C2 
  89      06E00ADA 
  89      7848E3
  90 008b AB6A2954 		.ascii	"\253j)T\013\265\212\352+Z\216\017\321\334\031;\037#"
  90      0BB58AEA 
  90      2B5A8E0F 
  90      D1DC193B 
  90      1F23
  91 009d D2446DE5 		.ascii	"\322Dm\345`\204\"\372\210e\237\312\373\323\307\022y"
  91      608422FA 
  91      88659FCA 
  91      FBD3C712 
  91      79
  92 00ae 919DE86C 		.ascii	"\221\235\350lb\036\011q\264<\024\333v;g\343\225p\275"
  92      621E0971 
  92      B43C14DB 
  92      763B67E3 
  92      9570BD
  93 00c1 19263545 		.ascii	"\031&5E\032\206?\254\251\363\020hC)\231u\015\325\037"
  93      1A863FAC 
  93      A9F31068 
  93      43299975 
  93      0DD51F
  94 00d4 77DE2FDC 		.ascii	"w\336/\334\207\234\315i\315u\037D\325-\177OEZC0o\326"
  94      879CCD69 
  94      CD751F44 
  94      D52D7F4F 
  94      455A4330 
  95 00ea AB6BC9CE 		.ascii	"\253k\311\316o\353U\306\032N\331|\361m0\213\207\231"
  95      6FEB55C6 
  95      1A4ED97C 
  95      F16D308B 
  95      8799
  96 00fc 3C1B3358 		.ascii	"<\0333XD/\026\320\313\374G\230\005\325\220\375R\330"
  96      442F16D0 
  96      CBFC4798 
  96      05D590FD 
  96      52D8
  97 010e D59D8286 		.ascii	"\325\235\202\206k\322G\3447s\343\335\304a\202\002\341"
  97      6BD247E4 
  97      3773E3DD 
ARM GAS  C:\Users\info\AppData\Local\Temp\ccZ3Z6tS.s 			page 7


  97      C4618202 
  97      E1
  98 011f B19C2471 		.ascii	"\261\234$q\244\251\331\303\206\262{\245\255\354\021"
  98      A4A9D9C3 
  98      86B27BA5 
  98      ADEC11
  99 012e 511F967A 		.ascii	"Q\037\226z\316L\245\262\373\316O\267\354mk\217sn\212"
  99      CE4CA5B2 
  99      FBCE4FB7 
  99      EC6D6B8F 
  99      736E8A
 100 0141 DB22E99D 		.ascii	"\333\"\351\235\215\355\227\241\030\262.\237\300\023"
 100      8DED97A1 
 100      18B22E9F 
 100      C013
 101 014f EEE59214 		.ascii	"\356\345\222\024\346\315\273/JSA\377\222\364\311\336"
 101      E6CDBB2F 
 101      4A5341FF 
 101      92F4C9DE 
 102 015f 88B48F65 		.ascii	"\210\264\217ev\271\357\232\211\022\372Y\261Z\330(\207"
 102      76B9EF9A 
 102      8912FA59 
 102      B15AD828 
 102      87
 103 0170 02F10194 		.ascii	"\002\361\001\224\235\237\206243\340\334\324\267\017"
 103      9D9F8632 
 103      3433E0DC 
 103      D4B70F
 104 017f DCFC2FFE 		.ascii	"\334\374/\376\351\277\360+\277\361\317\034\376\340\216"
 104      E9BFF02B 
 104      BFF1CF1C 
 104      FEE08E
 105 018e 3EB763B5 		.ascii	">\267c\265\213\367\334\363|F.n\274V\202\377\363\372"
 105      8BF7DCF3 
 105      7C462E6E 
 105      BC5682FF 
 105      F3FA
 106 01a0 419BFB47 		.ascii	"A\233\373Gx\2164\277m\222D\373-\374\253\224\211X\353"
 106      788E34BF 
 106      6D9244FB 
 106      2DFCAB94 
 106      8958EB
 107 01b3 4A77908D 		.ascii	"Jw\220\215\277_rR\211:\327a\032+N^L\215\247&\257\335"
 107      BF5F7252 
 107      893AD761 
 107      1A2B4E5E 
 107      4C8DA726 
 108 01c9 4C5D1F1D 		.ascii	"L]\037\035\236\27059\226\032\031\034\2368\177v\344\352"
 108      9EB83539 
 108      961A191C 
 108      9E387F76 
 108      E4EA
 109 01db 85A12BA3 		.ascii	"\205\241+\243\203\227O\217\321O\305\255\356A"
 109      83974F8F 
 109      D14FC5AD 
 109      EE41
 110              		.text
ARM GAS  C:\Users\info\AppData\Local\Temp\ccZ3Z6tS.s 			page 8


 111              		.section	.gnu.lto_VERT_Wakeup.792a7d87,"",%progbits
 112 0000 789C754F 		.ascii	"x\234uO\277/\203Q\024\275\347\275\327j\224\304\037 "
 112      BF2F8351 
 112      14BDE7BD 
 112      D76A94C4 
 112      1F20
 113 0012 0D3175A0 		.ascii	"\0151u\240\221\360\027\210\030D\322\224\230\2324R\337"
 113      91F01788 
 113      1844D294 
 113      989A3452 
 113      DF
 114 0023 4A22CC7D 		.ascii	"J\"\314}U_\260\210\205M:\266~\026\223\257\323\247a\252"
 114      555FB088 
 114      854D3AB6 
 114      7E1693AF 
 114      D3A761AA 
 115 0037 3061E882 		.ascii	"0a\350\202AD\014mB\004\241\356\373*1\210\233\274\334"
 115      41440C6D 
 115      4204A1EE 
 115      FB2A3188 
 115      9BBCDC
 116 004a 9773CFB9 		.ascii	"\227s\317\271\347\036E Sin]\334\373\370\301G\020\253"
 116      E71E4520 
 116      53696E5D 
 116      DCFBF8C1 
 116      4710AB
 117 005d E70C0684 		.ascii	"\347\014\006\204\220\305\020\351fu\025!\335\"\241\032"
 117      90C510E9 
 117      66751521 
 117      DD22A11A 
 118 006d B002CC47 		.ascii	"\260\002\314G\007@)!\025Rx\021\237\002\245\305{G\204"
 118      07402921 
 118      15527811 
 118      9F02A5C5 
 118      7B4784
 119 0080 739AEBE6 		.ascii	"s\232\353\346\264\330\253\363.lIT\027\236\005!\2070"
 119      B4D8ABF3 
 119      2E6C4954 
 119      179E0521 
 119      8730
 120 0092 31EDEEE0 		.ascii	"1\355\356\340k\255\325\277`h\035\215!\362\360\233;\012"
 120      6BADD5BF 
 120      60681D8D 
 120      21F2F09B 
 120      3B0A
 121 00a4 3157D7EB 		.ascii	"1W\327\353\031\355^\007\217\337\203~E\266d\270\312\024"
 121      19ED5E07 
 121      8FDF837E 
 121      45B664B8 
 121      CA14
 122 00b6 635713C2 		.ascii	"cW\023\302t\371\200\214[)\013#2\353\034\347\251\322"
 122      74F9808C 
 122      5B290B23 
 122      32EB1CE7 
 122      A9D2
 123 00c8 94FAD44B 		.ascii	"\224\372\324KZ\267\331R\324\005K\260\211\024\213%\335"
 123      5AB7D952 
ARM GAS  C:\Users\info\AppData\Local\Temp\ccZ3Z6tS.s 			page 9


 123      D4054BB0 
 123      89148B25 
 123      DD
 124 00d9 63BE587B 		.ascii	"c\276X{=\364\031rF*\246\257\333\245\213\246ga\363\331"
 124      3DF41972 
 124      462AA6AF 
 124      DBA58BA6 
 124      6761F3D9 
 125 00ed 7FD56A99 		.ascii	"\177\325j\231\3575\360\343\331\345Is\026\033i\355\341"
 125      EF35F0E3 
 125      D9E54973 
 125      161B69ED 
 125      E1
 126 00fe 3E6C73C8 		.ascii	">ls\310-\264{\303\225\243\375\345@\244\333\226~\354"
 126      2DB47BC3 
 126      95A3FDE5 
 126      40A4DB96 
 126      7EEC
 127 0110 208B2F2F 		.ascii	" \213//\037v\021\241[,T2\241_\263\302\223\363\326j\314"
 127      1F7611A1 
 127      5B2C5432 
 127      A15FB3C2 
 127      93F3D66A 
 128 0125 00C29E91 		.ascii	"\000\302\236\221\223\311!\251\030\362b\274\224[\376"
 128      93C921A9 
 128      18F262BC 
 128      945BFE
 129 0134 8DC15B51 		.ascii	"\215\301[Q\370\211aD\312\013\377\210y\367c\330\023\231"
 129      F8896144 
 129      CA0BFF88 
 129      79F763D8 
 129      1399
 130 0146 AA725A86 		.ascii	"\252rZ\206\231\3339dMY3\023\263\326dbtzn&i\305\243\243"
 130      99DB3964 
 130      4D593313 
 130      B3D66462 
 130      747A6E26 
 131 015e D303FDF1 		.ascii	"\323\003\375\361\361\301\330X\":\322\223\244o`V\225"
 131      F1C1D858 
 131      223AD293 
 131      A46F6056 
 131      95
 132 016f DA       		.ascii	"\332"
 133              		.text
 134              		.section	.gnu.lto_.symbol_nodes.792a7d87,"",%progbits
 135 0000 789C55CC 		.ascii	"x\234U\314\261\015\3020\020F\341\347\263\035\307N*z"
 135      B10DC230 
 135      1046E1E7 
 135      B31DC74E 
 135      2A7A
 136 0012 24D881FD 		.ascii	"$\330\201\375.E\006`\006\224\212\236\015R3\003 \346"
 136      2E450660 
 136      06948A9E 
 136      0D523303 
 136      20E6
 137 0024 40D81105 		.ascii	"@\330\021\005W=}\377Y\0168\366\016\020\247p\276C\315"
 137      573D7DFF 
ARM GAS  C:\Users\info\AppData\Local\Temp\ccZ3Z6tS.s 			page 10


 137      590E38F6 
 137      0E10A770 
 137      BE43CD
 138 0037 753A4284 		.ascii	"u:B\204i\007^D\2359\210W\261CPo\006\2274lC\375b:Tw\032"
 138      69075E44 
 138      9D398857 
 138      B143506F 
 138      0697346C 
 139 0052 8DA376C6 		.ascii	"\215\243v\306E\223q\326\336\270\327l<h1\036u\370\267"
 139      459371D6 
 139      DEB8D76C 
 139      3C68311E 
 139      75F8B7
 140 0065 27B13C3E 		.ascii	"'\261<>\316\323\361\336\032Y\236\265RX\233%3o\356Y["
 140      CED3F1DE 
 140      1A599EB5 
 140      52589B25 
 140      336FEE59 
 141 007a FDF02BBC 		.ascii	"\375\360+\274Z\203pi\357\302\310|;\361\005\241\355A"
 141      5A837069 
 141      EFC2C87C 
 141      3BF105A1 
 141      ED41
 142 008c 23       		.ascii	"#"
 143              		.text
 144              		.section	.gnu.lto_.refs.792a7d87,"",%progbits
 145 0000 789C1DC8 		.ascii	"x\234\035\310\301\015\0000\010\304\260\344\200N\322"
 145      C10D0030 
 145      08C4B0E4 
 145      804ED2
 146 000f FD672CEA 		.ascii	"\375g,\352\317r#\027(4\332z*k\334\231\324\257\2611<"
 146      CF722317 
 146      2834DA7A 
 146      2A6BDC99 
 146      D4AFB131 
 147 0024 0B3A006A 		.ascii	"\013:\000j"
 148              		.text
 149              		.section	.gnu.lto_.decls.792a7d87,"",%progbits
 150 0000 789C8D55 		.ascii	"x\234\215UiLTW\024~g\3560\3000\003V\255\261\011i\254"
 150      694C5457 
 150      147E67EE 
 150      30C03003 
 150      56ADB109 
 151 0016 4142FAC3 		.ascii	"AB\372\303j\2336\376i\332\304X\375cK\245\352\017M\015"
 151      6A9B36FE 
 151      69DAC458 
 151      FD634BA5 
 151      EA0F4D0D 
 152 002a CB688906 		.ascii	"\313h\211\006\31084\361\337\023P\224\272\341R\004E\021"
 152      C83834F1 
 152      DF135094 
 152      BAE15204 
 152      4511
 153 003c 5215D986 		.ascii	"R\025\331\206M\012\270\014 \014\014\312\256b]\240\340"
 153      4D0AB80C 
 153      200C0CCA 
 153      AE625DA0 
ARM GAS  C:\Users\info\AppData\Local\Temp\ccZ3Z6tS.s 			page 11


 153      E0
 154 004d C6EAA820 		.ascii	"\306\352\250 \245\212\364\334exo\014\264}p\346\335s"
 154      A58AF4DC 
 154      65786F0C 
 154      B47D70E6 
 154      DD73
 155 005f DF77BEEF 		.ascii	"\337w\276\357\234s\357}O+\201D\257b\275$\245\340\360"
 155      9C73EF7D 
 155      4F2B8144 
 155      AF62BD24 
 155      A5E0F0
 156 0072 1EDA245E 		.ascii	"\036\332$^\0368\267NR.\003Z\036Z\001Z!\305\243U\242"
 156      1E38B74E 
 156      522E035A 
 156      1E5A015A 
 156      21C5A355 
 157 0087 D5A2D9D1 		.ascii	"\325\242\331\321\032\321\232\321Z\321\332\321n\242Q"
 157      1AD19AD1 
 157      5AD1DAD1 
 157      6EA251
 158 0096 E62792FB 		.ascii	"\346'\222\373E9|\004w \232?\332S\264kh}h\217\321\252"
 158      45397C04 
 158      77209A3F 
 158      DA53B46B 
 158      687D688F 
 159 00ac D1FAD12A 		.ascii	"\321\372\321*\320\312\321\010\332\003\264n\264\0364"
 159      D0CAD108 
 159      DA03B46E 
 159      B41E34
 160 00bb ADE0B10B 		.ascii	"\255\340\261\013\375\312\031\264\012\246\321Rk\014\240"
 160      FDCA19B4 
 160      0AA6D152 
 160      6B0CA0
 161 00ca 35098D41 		.ascii	"5\011\215A4\307\014Z\005\242\256fQ\347tZ\264'z\241E"
 161      34C70C5A 
 161      05A2AE66 
 161      51E7745A 
 161      B4277AA1 
 162 00df 7586D046 		.ascii	"u\206\320F\320^\2504\251\316(Z\256\340\350\025z\205"
 162      D05EA834 
 162      A9CE285A 
 162      AEE0E815 
 162      7A85
 163 00f1 A2677933 		.ascii	"\242gy3p\323^{\252\270]\034j^5_\261\310y\2465\230\320"
 163      70D35E7B 
 163      AAB85D1C 
 163      6A5E355F 
 163      B1C879A6 
 164 0108 407C4F7F 		.ascii	"@|O\177\206\327]\270\003 \001\273$\261\017$:#\356t\000"
 164      86D75DB8 
 164      032001BB 
 164      24B10F24 
 164      3A23EE74 
 165 011d DCD14882 		.ascii	"\334\321H\202\213\243\300E\005\354\017\3775\014\017"
 165      8BA3C045 
 165      05EC0FFF 
 165      350C0F
ARM GAS  C:\Users\info\AppData\Local\Temp\ccZ3Z6tS.s 			page 12


 166 012c AA076E38 		.ascii	"\252\007n8\266\247\330\245L\301\324\345B\202;)eU\\\364"
 166      B6A7D8A5 
 166      4CC1D4E5 
 166      42823B29 
 166      65555CF4 
 167 0140 354A808A 		.ascii	"5J\200\212Od/\364A-\313\250\211\253\350\3443C\361\336"
 167      4F642FF4 
 167      412DCBA8 
 167      89ABE8E4 
 167      3343F1DE 
 168 0154 043971DC 		.ascii	"\0049q\3345~\376\233\305\2712^\207dY\363\261\322\231"
 168      357EFE9B 
 168      C5B9325E 
 168      876459F3 
 168      B1D299
 169 0167 D604EB49 		.ascii	"\326\004\353I2\242\201\331z\320\242\373\374FZ\257/\272"
 169      32A281D9 
 169      7AD0A2FB 
 169      FC465AAF 
 169      2FBA
 170 0179 73F5B000 		.ascii	"s\365\260\000\335\211\206\023i\232\371\277\262\270x"
 170      DD898613 
 170      699AF9BF 
 170      B2B878
 171 0188 798116D6 		.ascii	"y\201\026\326\315\203\034\360\207\013\200\013\003\271"
 171      CD831CF0 
 171      870B800B 
 171      03B9
 172 0196 301F7FC3 		.ascii	"0\037\177\303\264\234)\357eG\266\317\302\014\271\333"
 172      B49C29EF 
 172      6547B6CF 
 172      C20CB9DB 
 173 01a6 2A778F3D 		.ascii	"*w\217=\3754U\266%`\230\206\242\340<\020\310\206\305"
 173      FD3455B6 
 173      25609886 
 173      A2E03C10 
 173      C886C5
 174 01b9 34451CD2 		.ascii	"4E\034\322\3339\270\213\311\347\301B\214\314z\221Z\355"
 174      DB39B88B 
 174      C9E7C142 
 174      8CCC7A91 
 174      5AED
 175 01cb 45BE6489 		.ascii	"E\276d\211\016O\236x\255\341,6g\235A>\264S\226\277f"
 175      0E4F9E78 
 175      ADE12C36 
 175      679D413E 
 175      B45396BF 
 176 01e0 1CF90A47 		.ascii	"\034\371\012G\276\232\243\200q\234=\034\327\253!\301"
 176      BE9AA380 
 176      719C3D1C 
 176      D7AB21C1 
 177 01f0 BCD88473 		.ascii	"\274\330\204s\247t\310\221\201\034V\207\232\303\252"
 177      A774C891 
 177      811C5687 
 177      9AC3AA
 178 01ff 7058D51C 		.ascii	"pX\325\034\205\214\343\300\251\252\023\336d\003\343"
 178      858CE3C0 
ARM GAS  C:\Users\info\AppData\Local\Temp\ccZ3Z6tS.s 			page 13


 178      A9AA13DE 
 178      6403E3
 179 020e B056E796 		.ascii	"\260V\347\226h\005GG\243\232\243H\341(Rs\0243\216\336"
 179      68054747 
 179      A39AA348 
 179      E1285273 
 179      14338EDE 
 180 0222 F2BE781D 		.ascii	"\362\276x\035\331\3028\012v=\314\366\302f\372\353a\022"
 180      D9C2380A 
 180      763DCCF6 
 180      C266FAEB 
 180      6112
 181 0234 A83F583E 		.ascii	"\250?X>n\344>}\234\232\334\373\326\207\310@\035M{oN"
 181      6EE43E7D 
 181      9C9ADCFB 
 181      D687C840 
 181      1D4D7B6F 
 182 0249 9F1682F4 		.ascii	"\237\026\202\364gi\257\273\323\2236\247$\322\346\225"
 182      6769AFBB 
 182      D39336A7 
 182      24D2E695 
 183 0259 831ECA14 		.ascii	"\203\036\312\024A\177z\346\366\310r\234\354\314\224"
 183      417F7AE6 
 183      F6C8729C 
 183      ECCC94
 184 0268 75F325F8 		.ascii	"u\363%\370\314\037\226\370K\360;\004QV\212\202\213\270"
 184      CC1F96F8 
 184      4BF03B04 
 184      51568A82 
 184      8BB8
 185 027a 3EA5B83E 		.ascii	">\245\270>\250\320\362Km\274\237z\371(\235\262~\025"
 185      A8D0F24B 
 185      6DBC9F7A 
 185      F9289DB2 
 185      7E15
 186 028c 6EEB979F 		.ascii	"n\353\227\237\270\277\324\227v\036\365\013\033\177,"
 186      B8BFD497 
 186      761EF50B 
 186      1B7F2C
 187 029b CADA6D3B 		.ascii	"\312\332m;\004\014\004%J\006%\300\367\027T\262rk\254"
 187      040C0425 
 187      4A0625C0 
 187      F71754B2 
 187      726BAC
 188 02ae 275B7D89 		.ascii	"'[}\211\235\325\000\277\375\375\332I\367R \326;IT\005"
 188      9DD500BF 
 188      FDFDDA49 
 188      F75220D6 
 188      3B495405 
 189 02c2 07F282CF 		.ascii	"\007\362\202\317\237\251+\326\223N\016\256\235\034\263"
 189      9FA92BD6 
 189      934E0EAE 
 189      9D1CB3
 190 02d1 F9F18DA7 		.ascii	"\371\361\215\247A\267\315y=\335\207o\274Y\330\216\341"
 190      41B7CD79 
 190      3DDD876F 
 190      BC59D88E 
ARM GAS  C:\Users\info\AppData\Local\Temp\ccZ3Z6tS.s 			page 14


 190      E1
 191 02e2 127BA711 		.ascii	"\022{\247\021\364A\254V9^\326\007IP\205\211\3330q\250"
 191      F441AC56 
 191      395ED607 
 191      49508589 
 191      DB3071A8 
 192 02f6 C16A0345 		.ascii	"\301j\003E\265Wp\3622N\212\2769D\337\252\261\320\253"
 192      B55770F2 
 192      324E8ABE 
 192      3944DFAA 
 192      B1D0AB
 193 0309 4AD6817A 		.ascii	"J\326\201z^cS\342\301BP7\244\332\255!\327\334\032R["
 193      5E6353E2 
 193      C1425037 
 193      A4DAAD21 
 193      D7DC1A52 
 194 031e 3266F599 		.ascii	"2f\365\231jHl\217h\010\202\340\222B}\311\325\220Z\326"
 194      6A486C8F 
 194      680882E0 
 194      92427DC9 
 194      D5905AD6 
 195 0332 907D63A3 		.ascii	"\220}c\243\367}I\027\257q\350fv\225'g\260%\0370\244"
 195      F77D4917 
 195      AF71E866 
 195      76952767 
 195      B0251F30 
 196 0347 CAD55A16 		.ascii	"\312\325Z\026^\247\204\327\271\302\355,\374mO\271\023"
 196      5EA784D7 
 196      B9C2ED2C 
 196      FC6D4FB9 
 196      13
 197 0358 C8331EFE 		.ascii	"\3103\036\376(\345\364\200N\213\357\"\266n\230\026\316"
 197      28E5F480 
 197      4E8BEF22 
 197      B66E9816 
 197      CE
 198 0369 E556DC1B 		.ascii	"\345V\334\033\324\315x\"\035\254\200\006\020\025\274"
 198      D4CD7822 
 198      1DAC8006 
 198      1015BC
 199 0378 6A3935EE 		.ascii	"j95\356-\364'\034F\246\217\020\250W\364\353]\372\215"
 199      2DF4271C 
 199      46A68F10 
 199      A857F4EB 
 199      5DFA8D
 200 038b 4C3F65AF 		.ascii	"L?e\257\375\246\007\331\313_\032\307\263\016\0061\371"
 200      FDA607D9 
 200      CB5F1AC7 
 200      B30E0631 
 200      F9
 201 039c EA29F9F4 		.ascii	"\352)\371\364\007V\303\214\352ML\375\206K\375IRg\201"
 201      0756C38C 
 201      EA4D4CFD 
 201      864BFD49 
 201      526781
 202 03af ABFAD146 		.ascii	"\253\372\321F_\246\216\020\270\256\250_w\25173\365\302"
 202      5FA68E10 
ARM GAS  C:\Users\info\AppData\Local\Temp\ccZ3Z6tS.s 			page 15


 202      B8AEA85F 
 202      77A93733 
 202      F5C2
 203 03c1 89DE6123 		.ascii	"\211\336a#9\301\325\037_\211K7\272\222o4L\205\267(\341"
 203      39C1D51F 
 203      5F894B37 
 203      BA926F34 
 203      4C85B728 
 204 03d6 2DAEF056 		.ascii	"-\256\360V\026^t\272>\235\220\\\036>^\332\326\342%\302"
 204      165E74BA 
 204      3E9D905C 
 204      1E3E5EDA 
 204      D6E225C2 
 205 03ea 6F390CB8 		.ascii	"o9\014\270t\354\364\266)\321m\256\350v\026\235\2359"
 205      74ECF4B6 
 205      29D16DAE 
 205      E876169D 
 205      9D39
 206 03fc F8C68F5C 		.ascii	"\370\306\217\\\344\321\231\257\3633\211\210\036;@\230"
 206      E4D199AF 
 206      F3338988 
 206      1E3B4098 
 207 040c 380DEF50 		.ascii	"8\015\357P\302;\\\3417\371Ix\325\337\010\244\232\207"
 207      C23B5CE1 
 207      37F94978 
 207      D5DF08A4 
 207      9A87
 208 041e A7558E38 		.ascii	"\247U\2168<\370\346\366B\267l8\247\314\3107\267\215"
 208      3CF8E6F6 
 208      42B76C38 
 208      A7CCC837 
 208      B78D
 209 0430 3EAE2CBB 		.ascii	">\256,\273T\347\301\375%\364\035<Yy\024H\223\310{\242"
 209      54E7C1FD 
 209      25F41D3C 
 209      59791448 
 209      93C87BA2 
 210 0444 AB45433A 		.ascii	"\253EC:\271\263\353\212\375/\003\351\342\316\336\206"
 210      B9B3EB8A 
 210      FD2F03E9 
 210      E2CEDE86 
 211 0454 8B765F32 		.ascii	"\213v_2\314\034]\351\221\276:\015\004\314\011\010\012"
 211      CC1C5DE9 
 211      91BE3A0D 
 211      04CC0908 
 211      0A
 212 0465 08C8A487 		.ascii	"\010\310\244\207\304v;q\336q\331\026G\330j\375\201y"
 212      C4763B71 
 212      DE71D916 
 212      47D86AFD 
 212      8179
 213 0477 76C11CE5 		.ascii	"v\301\034\345\314|B\027(\207.\223\224\314\226\317&\313"
 213      CC7C4217 
 213      28872E93 
 213      94CC96CF 
 213      26CB
 214 0489 F899834E 		.ascii	"\370\231\203N\004\334f\253G\341X\032\374\211\247\253"
ARM GAS  C:\Users\info\AppData\Local\Temp\ccZ3Z6tS.s 			page 16


 214      04DC66AB 
 214      47E1581A 
 214      FC89A7AB 
 215 0499 1702A01B 		.ascii	"\027\002\240\033\355\001Z\017\004\260:\271J{\342\\E"
 215      ED015A0F 
 215      04B03AB9 
 215      4A7BE25C 
 215      45
 216 04aa E5EEB42A 		.ascii	"\345\356\264*UL\205\035H[\231\335 \313^\024$\211\276"
 216      554C851D 
 216      485B99DD 
 216      20CB5E14 
 216      2489BE
 217 04bd 2954E98E 		.ascii	")T\351\216\367Sd\333N\302v\367}A%^h\214\350\016#\342"
 217      F75364DB 
 217      4EC276F7 
 217      7D41255E 
 217      688CE80E 
 218 04d3 E0CB76A3 		.ascii	"\340\313v\243\002\2767\015x\251?\337u\373[\342\217\373"
 218      02BE370D 
 218      78A93FDF 
 218      75FB5BE2 
 218      8FFB
 219 04e5 1004D2B7 		.ascii	"\020\004\322\267\352\356\354\206\015\0204G\344\222\004"
 219      EAEEEC86 
 219      0D103447 
 219      E49204
 220 04f4 3497C718 		.ascii	"4\227\307\030\370PYF\232\332\014=\201G\330\212\377j"
 220      F8505946 
 220      9ADA0C3D 
 220      8147D88A 
 220      FF6A
 221 0506 0B4A16D7 		.ascii	"\013J\026\327\274i \213\262d\031\367\313\230\365\373"
 221      BC69208B 
 221      B26419F7 
 221      CB98F5FB 
 222 0516 23B2BC8A 		.ascii	"#\262\274\212\251\334\342*\252\036\337\242{\006\236"
 222      A9DCE22A 
 222      AA1EDFA2 
 222      7B069E
 223 0525 C0228C3A 		.ascii	"\300\"\214:\334wt\233!\211\026\207Gi\366*\366bP\316"
 223      DC77749B 
 223      21891687 
 223      4769F62A 
 223      F66250CE 
 224 0539 D25330B0 		.ascii	"\322S0\260\315\205w\272\201\3665\357\327\253\301\224"
 224      CD8577BA 
 224      81F635EF 
 224      D7ABC194 
 225 0549 5E01F709 		.ascii	"^\001\367\011p\037\003_\270^\327D\324\340\0127\346~"
 225      701F035F 
 225      B85ED744 
 225      D4E00A37 
 225      E67E
 226 055b 01EE67E0 		.ascii	"\001\356g\340\234\370\214z\243\032\334\344\006\036\020"
 226      9CF88C7A 
 226      A31ADCE4 
ARM GAS  C:\Users\info\AppData\Local\Temp\ccZ3Z6tS.s 			page 17


 226      061E10
 227 056a E0010676 		.ascii	"\340\001\006vV\325\327\370\251\301\0167\360\240\000"
 227      56D5D7F8 
 227      A9C10E37 
 227      F0A000
 228 0579 0F5230B9 		.ascii	"\017R0\271\326^pU\017z\177\300\347\260\207\366\327\031"
 228      D65E7055 
 228      0F7A7FC0 
 228      E7B087F6 
 228      D719
 229 058b A7FA6649 		.ascii	"\247\372fI0\004\370V\206a|\374\014\303\323d\212i\005"
 229      3004F856 
 229      86617CFC 
 229      0CC3D364 
 229      8A6905
 230 059e 36CD1CE7 		.ascii	"6\315\034\347WlL\177P{$\341\345-\235~\017\375\030\374"
 230      576C4C7F 
 230      507B24E1 
 230      E52D9D7E 
 230      0FFD18FC 
 231 05b2 AF6FDF8D 		.ascii	"\257o\337\215\2763\223\236\344\010\337\007\305\307R"
 231      BE33939E 
 231      E408DF07 
 231      C5C752
 232 05c1 8F79F2CF 		.ascii	"\217y\362\317\311\273\341/\247\011w}\204\277K;\274S"
 232      C9BBE12F 
 232      A709777D 
 232      84BF4B3B 
 232      BC53
 233 05d3 5E002F70 		.ascii	"^\000/p\313=Wv\214\023\304\327${\270\306\006\352v\274"
 233      CB3D5776 
 233      8C13C4D7 
 233      247BB8C6 
 233      06EA76BC 
 234 05e7 70FB9A8C 		.ascii	"p\373\232\214\210v\214\260\336\245\3359\331\350\245"
 234      88768CB0 
 234      DEA5DD39 
 234      D9E8A5
 235 05f6 06E7BAF5 		.ascii	"\006\347\272\365n\024\014.~\034J~\353V\254\371aSH\350"
 235      6E140C2E 
 235      7E1C4A7E 
 235      EB56ACF9 
 235      615348E8 
 236 060a CFA6E5D1 		.ascii	"\317\246\345\321Q\233#\267x\255\374v\355\202\345K\227"
 236      519B23B7 
 236      78ADFC76 
 236      ED82E54B 
 236      97
 237 061b 4A1FAD34 		.ascii	"J\037\2554E\231\314\241\026S\304\246\220\350Xs\270i"
 237      4599CCA1 
 237      1653C4A6 
 237      90E85873 
 237      B869
 238 062d 637048F4 		.ascii	"cpH\364\362\31772|\360\352\305\341\322l6\\c\332n\211"
 238      F2CF3732 
 238      7CF0EAC5 
 238      E1D26C36 
ARM GAS  C:\Users\info\AppData\Local\Temp\ccZ3Z6tS.s 			page 18


 238      5C63DA6E 
 239 0642 368B683D 		.ascii	"6\213h=g\333f2\305\370\260\341\372\320\255\246\330\230"
 239      67DB6632 
 239      C5F8B0E1 
 239      FAD0ADA6 
 239      D898
 240 0654 F902191A 		.ascii	"\371\002\031\032\2010\2139z\333\032\323\226\310\355"
 240      81308B39 
 240      7ADB1AD3 
 240      96C8ED
 241 0663 1693D923 		.ascii	"\026\223\331#62\312\262l&\251\360\035\226\0351\246\355"
 241      3632CAB2 
 241      6C26A9F0 
 241      1D961D31 
 241      A6ED
 242 0675 8B7F923E 		.ascii	"\213\177\222>\374\227d\360\361,\025\177l\024\362\352"
 242      FC9764F0 
 242      F12C157F 
 242      6C14F2EA 
 243 0685 28EFD22F 		.ascii	"(\357\322/\374\246\346\203M\346\310\350\210\017xN\346"
 243      FCA6E683 
 243      4DE6C8E8 
 243      880F784E 
 243      E6
 244 0696 488BE99D 		.ascii	"H\213\351\235D\336S?a\024\263\224\031\036\354\315k\263"
 244      44DE533F 
 244      6114B394 
 244      191EECCD 
 244      6BB3
 245 06a8 448BD256 		.ascii	"D\213\322VD\205\206m3\361qXh\370\326\330\030\357\340"
 245      4485866D 
 245      33F17158 
 245      68F8D6D8 
 245      18EFE0
 246 06bb F5AB3956 		.ascii	"\365\2539V\207\243\265\021a\276x\343\260\020\013&?\033"
 246      87A3B511 
 246      61BE78E3 
 246      B0100B26 
 246      3F1B
 247 06cd DD697579 		.ascii	"\335iuyx\210\305\034\033n\321\232M[\226\375\003\213"
 247      7888C51C 
 247      1B6ED19A 
 247      4D5B96FD 
 247      038B
 248 06df 32DE0C   		.ascii	"2\336\014"
 249              		.text
 250              		.section	.gnu.lto_.symtab.792a7d87,"",%progbits
 251 0000 56455254 		.ascii	"VERT_SaveConfig\000"
 251      5F536176 
 251      65436F6E 
 251      66696700 
 252 0010 00       		.ascii	"\000"
 253 0011 00       		.ascii	"\000"
 254 0012 00       		.ascii	"\000"
 255 0013 00000000 		.ascii	"\000\000\000\000\000\000\000\000"
 255      00000000 
 256 001b AD000000 		.ascii	"\255\000\000\000"
ARM GAS  C:\Users\info\AppData\Local\Temp\ccZ3Z6tS.s 			page 19


 257 001f 56455254 		.ascii	"VERT_RestoreConfig\000"
 257      5F526573 
 257      746F7265 
 257      436F6E66 
 257      696700
 258 0032 00       		.ascii	"\000"
 259 0033 00       		.ascii	"\000"
 260 0034 00       		.ascii	"\000"
 261 0035 00000000 		.ascii	"\000\000\000\000\000\000\000\000"
 261      00000000 
 262 003d AF000000 		.ascii	"\257\000\000\000"
 263 0041 56455254 		.ascii	"VERT_Sleep\000"
 263      5F536C65 
 263      657000
 264 004c 00       		.ascii	"\000"
 265 004d 00       		.ascii	"\000"
 266 004e 00       		.ascii	"\000"
 267 004f 00000000 		.ascii	"\000\000\000\000\000\000\000\000"
 267      00000000 
 268 0057 B1000000 		.ascii	"\261\000\000\000"
 269 005b 56455254 		.ascii	"VERT_Wakeup\000"
 269      5F57616B 
 269      65757000 
 270 0067 00       		.ascii	"\000"
 271 0068 00       		.ascii	"\000"
 272 0069 00       		.ascii	"\000"
 273 006a 00000000 		.ascii	"\000\000\000\000\000\000\000\000"
 273      00000000 
 274 0072 B3000000 		.ascii	"\263\000\000\000"
 275 0076 56455254 		.ascii	"VERT_ReadControlRegister\000"
 275      5F526561 
 275      64436F6E 
 275      74726F6C 
 275      52656769 
 276 008f 00       		.ascii	"\000"
 277 0090 02       		.ascii	"\002"
 278 0091 00       		.ascii	"\000"
 279 0092 00000000 		.ascii	"\000\000\000\000\000\000\000\000"
 279      00000000 
 280 009a BB000000 		.ascii	"\273\000\000\000"
 281 009e 56455254 		.ascii	"VERT_ReadCounter\000"
 281      5F526561 
 281      64436F75 
 281      6E746572 
 281      00
 282 00af 00       		.ascii	"\000"
 283 00b0 02       		.ascii	"\002"
 284 00b1 00       		.ascii	"\000"
 285 00b2 00000000 		.ascii	"\000\000\000\000\000\000\000\000"
 285      00000000 
 286 00ba C5000000 		.ascii	"\305\000\000\000"
 287 00be 56455254 		.ascii	"VERT_ReadPeriod\000"
 287      5F526561 
 287      64506572 
 287      696F6400 
 288 00ce 00       		.ascii	"\000"
 289 00cf 02       		.ascii	"\002"
ARM GAS  C:\Users\info\AppData\Local\Temp\ccZ3Z6tS.s 			page 20


 290 00d0 00       		.ascii	"\000"
 291 00d1 00000000 		.ascii	"\000\000\000\000\000\000\000\000"
 291      00000000 
 292 00d9 C7000000 		.ascii	"\307\000\000\000"
 293 00dd 56455254 		.ascii	"VERT_WriteControlRegister\000"
 293      5F577269 
 293      7465436F 
 293      6E74726F 
 293      6C526567 
 294 00f7 00       		.ascii	"\000"
 295 00f8 02       		.ascii	"\002"
 296 00f9 00       		.ascii	"\000"
 297 00fa 00000000 		.ascii	"\000\000\000\000\000\000\000\000"
 297      00000000 
 298 0102 CB000000 		.ascii	"\313\000\000\000"
 299 0106 56455254 		.ascii	"VERT_WriteCounter\000"
 299      5F577269 
 299      7465436F 
 299      756E7465 
 299      7200
 300 0118 00       		.ascii	"\000"
 301 0119 02       		.ascii	"\002"
 302 011a 00       		.ascii	"\000"
 303 011b 00000000 		.ascii	"\000\000\000\000\000\000\000\000"
 303      00000000 
 304 0123 CF000000 		.ascii	"\317\000\000\000"
 305 0127 56455254 		.ascii	"VERT_WritePeriod\000"
 305      5F577269 
 305      74655065 
 305      72696F64 
 305      00
 306 0138 00       		.ascii	"\000"
 307 0139 02       		.ascii	"\002"
 308 013a 00       		.ascii	"\000"
 309 013b 00000000 		.ascii	"\000\000\000\000\000\000\000\000"
 309      00000000 
 310 0143 D1000000 		.ascii	"\321\000\000\000"
 311 0147 56455254 		.ascii	"VERT_Stop\000"
 311      5F53746F 
 311      7000
 312 0151 00       		.ascii	"\000"
 313 0152 02       		.ascii	"\002"
 314 0153 00       		.ascii	"\000"
 315 0154 00000000 		.ascii	"\000\000\000\000\000\000\000\000"
 315      00000000 
 316 015c D3000000 		.ascii	"\323\000\000\000"
 317 0160 56455254 		.ascii	"VERT_Enable\000"
 317      5F456E61 
 317      626C6500 
 318 016c 00       		.ascii	"\000"
 319 016d 02       		.ascii	"\002"
 320 016e 00       		.ascii	"\000"
 321 016f 00000000 		.ascii	"\000\000\000\000\000\000\000\000"
 321      00000000 
 322 0177 D5000000 		.ascii	"\325\000\000\000"
 323              		.text
 324              		.section	.gnu.lto_.opts,"",%progbits
ARM GAS  C:\Users\info\AppData\Local\Temp\ccZ3Z6tS.s 			page 21


 325 0000 272D666D 		.ascii	"'-fmath-errno' '-fsigned-zeros' '-ftrapping-math' '"
 325      6174682D 
 325      6572726E 
 325      6F272027 
 325      2D667369 
 326 0033 2D666E6F 		.ascii	"-fno-trapv' '-fno-strict-overflow' '-fno-openmp' '-"
 326      2D747261 
 326      70762720 
 326      272D666E 
 326      6F2D7374 
 327 0066 666E6F2D 		.ascii	"fno-openacc' '-mcpu=cortex-m3' '-mthumb' '-g' '-Og'"
 327      6F70656E 
 327      61636327 
 327      20272D6D 
 327      6370753D 
 328 0099 20272D66 		.ascii	" '-ffunction-sections' '-ffat-lto-objects' '-flto'\000"
 328      66756E63 
 328      74696F6E 
 328      2D736563 
 328      74696F6E 
 329              		.text
 330              		.cfi_sections	.debug_frame
 331              		.section	.text.VERT_SaveConfig,"ax",%progbits
 332              		.align	2
 333              		.global	VERT_SaveConfig
 334              		.thumb
 335              		.thumb_func
 336              		.type	VERT_SaveConfig, %function
 337              	VERT_SaveConfig:
 338              	.LFB0:
 339              		.file 1 "Generated_Source\\PSoC5\\VERT_PM.c"
   1:Generated_Source\PSoC5/VERT_PM.c **** /*******************************************************************************
   2:Generated_Source\PSoC5/VERT_PM.c **** * File Name: VERT_PM.c
   3:Generated_Source\PSoC5/VERT_PM.c **** * Version 3.30
   4:Generated_Source\PSoC5/VERT_PM.c **** *
   5:Generated_Source\PSoC5/VERT_PM.c **** * Description:
   6:Generated_Source\PSoC5/VERT_PM.c **** *  This file provides the power management source code to API for the
   7:Generated_Source\PSoC5/VERT_PM.c **** *  PWM.
   8:Generated_Source\PSoC5/VERT_PM.c **** *
   9:Generated_Source\PSoC5/VERT_PM.c **** * Note:
  10:Generated_Source\PSoC5/VERT_PM.c **** *
  11:Generated_Source\PSoC5/VERT_PM.c **** ********************************************************************************
  12:Generated_Source\PSoC5/VERT_PM.c **** * Copyright 2008-2014, Cypress Semiconductor Corporation.  All rights reserved.
  13:Generated_Source\PSoC5/VERT_PM.c **** * You may use this file only in accordance with the license, terms, conditions,
  14:Generated_Source\PSoC5/VERT_PM.c **** * disclaimers, and limitations in the end user license agreement accompanying
  15:Generated_Source\PSoC5/VERT_PM.c **** * the software package with which this file was provided.
  16:Generated_Source\PSoC5/VERT_PM.c **** *******************************************************************************/
  17:Generated_Source\PSoC5/VERT_PM.c **** 
  18:Generated_Source\PSoC5/VERT_PM.c **** #include "VERT.h"
  19:Generated_Source\PSoC5/VERT_PM.c **** 
  20:Generated_Source\PSoC5/VERT_PM.c **** static VERT_backupStruct VERT_backup;
  21:Generated_Source\PSoC5/VERT_PM.c **** 
  22:Generated_Source\PSoC5/VERT_PM.c **** 
  23:Generated_Source\PSoC5/VERT_PM.c **** /*******************************************************************************
  24:Generated_Source\PSoC5/VERT_PM.c **** * Function Name: VERT_SaveConfig
  25:Generated_Source\PSoC5/VERT_PM.c **** ********************************************************************************
  26:Generated_Source\PSoC5/VERT_PM.c **** *
ARM GAS  C:\Users\info\AppData\Local\Temp\ccZ3Z6tS.s 			page 22


  27:Generated_Source\PSoC5/VERT_PM.c **** * Summary:
  28:Generated_Source\PSoC5/VERT_PM.c **** *  Saves the current user configuration of the component.
  29:Generated_Source\PSoC5/VERT_PM.c **** *
  30:Generated_Source\PSoC5/VERT_PM.c **** * Parameters:
  31:Generated_Source\PSoC5/VERT_PM.c **** *  None
  32:Generated_Source\PSoC5/VERT_PM.c **** *
  33:Generated_Source\PSoC5/VERT_PM.c **** * Return:
  34:Generated_Source\PSoC5/VERT_PM.c **** *  None
  35:Generated_Source\PSoC5/VERT_PM.c **** *
  36:Generated_Source\PSoC5/VERT_PM.c **** * Global variables:
  37:Generated_Source\PSoC5/VERT_PM.c **** *  VERT_backup:  Variables of this global structure are modified to
  38:Generated_Source\PSoC5/VERT_PM.c **** *  store the values of non retention configuration registers when Sleep() API is
  39:Generated_Source\PSoC5/VERT_PM.c **** *  called.
  40:Generated_Source\PSoC5/VERT_PM.c **** *
  41:Generated_Source\PSoC5/VERT_PM.c **** *******************************************************************************/
  42:Generated_Source\PSoC5/VERT_PM.c **** void VERT_SaveConfig(void) 
  43:Generated_Source\PSoC5/VERT_PM.c **** {
 340              		.loc 1 43 0
 341              		.cfi_startproc
 342              		@ args = 0, pretend = 0, frame = 0
 343              		@ frame_needed = 0, uses_anonymous_args = 0
 344 0000 10B5     		push	{r4, lr}
 345              		.cfi_def_cfa_offset 8
 346              		.cfi_offset 4, -8
 347              		.cfi_offset 14, -4
  44:Generated_Source\PSoC5/VERT_PM.c **** 
  45:Generated_Source\PSoC5/VERT_PM.c ****     #if(!VERT_UsingFixedFunction)
  46:Generated_Source\PSoC5/VERT_PM.c ****         #if(!VERT_PWMModeIsCenterAligned)
  47:Generated_Source\PSoC5/VERT_PM.c ****             VERT_backup.PWMPeriod = VERT_ReadPeriod();
 348              		.loc 1 47 0
 349 0002 FFF7FEFF 		bl	VERT_ReadPeriod
 350              	.LVL0:
 351 0006 044C     		ldr	r4, .L3
 352 0008 A080     		strh	r0, [r4, #4]	@ movhi
  48:Generated_Source\PSoC5/VERT_PM.c ****         #endif /* (!VERT_PWMModeIsCenterAligned) */
  49:Generated_Source\PSoC5/VERT_PM.c ****         VERT_backup.PWMUdb = VERT_ReadCounter();
 353              		.loc 1 49 0
 354 000a FFF7FEFF 		bl	VERT_ReadCounter
 355              	.LVL1:
 356 000e 6080     		strh	r0, [r4, #2]	@ movhi
  50:Generated_Source\PSoC5/VERT_PM.c ****         #if (VERT_UseStatus)
  51:Generated_Source\PSoC5/VERT_PM.c ****             VERT_backup.InterruptMaskValue = VERT_STATUS_MASK;
  52:Generated_Source\PSoC5/VERT_PM.c ****         #endif /* (VERT_UseStatus) */
  53:Generated_Source\PSoC5/VERT_PM.c **** 
  54:Generated_Source\PSoC5/VERT_PM.c ****         #if(VERT_DeadBandMode == VERT__B_PWM__DBM_256_CLOCKS || \
  55:Generated_Source\PSoC5/VERT_PM.c ****             VERT_DeadBandMode == VERT__B_PWM__DBM_2_4_CLOCKS)
  56:Generated_Source\PSoC5/VERT_PM.c ****             VERT_backup.PWMdeadBandValue = VERT_ReadDeadTime();
  57:Generated_Source\PSoC5/VERT_PM.c ****         #endif /*  deadband count is either 2-4 clocks or 256 clocks */
  58:Generated_Source\PSoC5/VERT_PM.c **** 
  59:Generated_Source\PSoC5/VERT_PM.c ****         #if(VERT_KillModeMinTime)
  60:Generated_Source\PSoC5/VERT_PM.c ****              VERT_backup.PWMKillCounterPeriod = VERT_ReadKillTime();
  61:Generated_Source\PSoC5/VERT_PM.c ****         #endif /* (VERT_KillModeMinTime) */
  62:Generated_Source\PSoC5/VERT_PM.c **** 
  63:Generated_Source\PSoC5/VERT_PM.c ****         #if(VERT_UseControl)
  64:Generated_Source\PSoC5/VERT_PM.c ****             VERT_backup.PWMControlRegister = VERT_ReadControlRegister();
 357              		.loc 1 64 0
 358 0010 FFF7FEFF 		bl	VERT_ReadControlRegister
ARM GAS  C:\Users\info\AppData\Local\Temp\ccZ3Z6tS.s 			page 23


 359              	.LVL2:
 360 0014 A071     		strb	r0, [r4, #6]
 361 0016 10BD     		pop	{r4, pc}
 362              	.L4:
 363              		.align	2
 364              	.L3:
 365 0018 00000000 		.word	.LANCHOR0
 366              		.cfi_endproc
 367              	.LFE0:
 368              		.size	VERT_SaveConfig, .-VERT_SaveConfig
 369              		.section	.text.VERT_RestoreConfig,"ax",%progbits
 370              		.align	2
 371              		.global	VERT_RestoreConfig
 372              		.thumb
 373              		.thumb_func
 374              		.type	VERT_RestoreConfig, %function
 375              	VERT_RestoreConfig:
 376              	.LFB1:
  65:Generated_Source\PSoC5/VERT_PM.c ****         #endif /* (VERT_UseControl) */
  66:Generated_Source\PSoC5/VERT_PM.c ****     #endif  /* (!VERT_UsingFixedFunction) */
  67:Generated_Source\PSoC5/VERT_PM.c **** }
  68:Generated_Source\PSoC5/VERT_PM.c **** 
  69:Generated_Source\PSoC5/VERT_PM.c **** 
  70:Generated_Source\PSoC5/VERT_PM.c **** /*******************************************************************************
  71:Generated_Source\PSoC5/VERT_PM.c **** * Function Name: VERT_RestoreConfig
  72:Generated_Source\PSoC5/VERT_PM.c **** ********************************************************************************
  73:Generated_Source\PSoC5/VERT_PM.c **** *
  74:Generated_Source\PSoC5/VERT_PM.c **** * Summary:
  75:Generated_Source\PSoC5/VERT_PM.c **** *  Restores the current user configuration of the component.
  76:Generated_Source\PSoC5/VERT_PM.c **** *
  77:Generated_Source\PSoC5/VERT_PM.c **** * Parameters:
  78:Generated_Source\PSoC5/VERT_PM.c **** *  None
  79:Generated_Source\PSoC5/VERT_PM.c **** *
  80:Generated_Source\PSoC5/VERT_PM.c **** * Return:
  81:Generated_Source\PSoC5/VERT_PM.c **** *  None
  82:Generated_Source\PSoC5/VERT_PM.c **** *
  83:Generated_Source\PSoC5/VERT_PM.c **** * Global variables:
  84:Generated_Source\PSoC5/VERT_PM.c **** *  VERT_backup:  Variables of this global structure are used to
  85:Generated_Source\PSoC5/VERT_PM.c **** *  restore the values of non retention registers on wakeup from sleep mode.
  86:Generated_Source\PSoC5/VERT_PM.c **** *
  87:Generated_Source\PSoC5/VERT_PM.c **** *******************************************************************************/
  88:Generated_Source\PSoC5/VERT_PM.c **** void VERT_RestoreConfig(void) 
  89:Generated_Source\PSoC5/VERT_PM.c **** {
 377              		.loc 1 89 0
 378              		.cfi_startproc
 379              		@ args = 0, pretend = 0, frame = 0
 380              		@ frame_needed = 0, uses_anonymous_args = 0
 381 0000 10B5     		push	{r4, lr}
 382              		.cfi_def_cfa_offset 8
 383              		.cfi_offset 4, -8
 384              		.cfi_offset 14, -4
  90:Generated_Source\PSoC5/VERT_PM.c ****         #if(!VERT_UsingFixedFunction)
  91:Generated_Source\PSoC5/VERT_PM.c ****             #if(!VERT_PWMModeIsCenterAligned)
  92:Generated_Source\PSoC5/VERT_PM.c ****                 VERT_WritePeriod(VERT_backup.PWMPeriod);
 385              		.loc 1 92 0
 386 0002 054C     		ldr	r4, .L7
 387 0004 A088     		ldrh	r0, [r4, #4]
ARM GAS  C:\Users\info\AppData\Local\Temp\ccZ3Z6tS.s 			page 24


 388 0006 FFF7FEFF 		bl	VERT_WritePeriod
 389              	.LVL3:
  93:Generated_Source\PSoC5/VERT_PM.c ****             #endif /* (!VERT_PWMModeIsCenterAligned) */
  94:Generated_Source\PSoC5/VERT_PM.c **** 
  95:Generated_Source\PSoC5/VERT_PM.c ****             VERT_WriteCounter(VERT_backup.PWMUdb);
 390              		.loc 1 95 0
 391 000a 6088     		ldrh	r0, [r4, #2]
 392 000c FFF7FEFF 		bl	VERT_WriteCounter
 393              	.LVL4:
  96:Generated_Source\PSoC5/VERT_PM.c **** 
  97:Generated_Source\PSoC5/VERT_PM.c ****             #if (VERT_UseStatus)
  98:Generated_Source\PSoC5/VERT_PM.c ****                 VERT_STATUS_MASK = VERT_backup.InterruptMaskValue;
  99:Generated_Source\PSoC5/VERT_PM.c ****             #endif /* (VERT_UseStatus) */
 100:Generated_Source\PSoC5/VERT_PM.c **** 
 101:Generated_Source\PSoC5/VERT_PM.c ****             #if(VERT_DeadBandMode == VERT__B_PWM__DBM_256_CLOCKS || \
 102:Generated_Source\PSoC5/VERT_PM.c ****                 VERT_DeadBandMode == VERT__B_PWM__DBM_2_4_CLOCKS)
 103:Generated_Source\PSoC5/VERT_PM.c ****                 VERT_WriteDeadTime(VERT_backup.PWMdeadBandValue);
 104:Generated_Source\PSoC5/VERT_PM.c ****             #endif /* deadband count is either 2-4 clocks or 256 clocks */
 105:Generated_Source\PSoC5/VERT_PM.c **** 
 106:Generated_Source\PSoC5/VERT_PM.c ****             #if(VERT_KillModeMinTime)
 107:Generated_Source\PSoC5/VERT_PM.c ****                 VERT_WriteKillTime(VERT_backup.PWMKillCounterPeriod);
 108:Generated_Source\PSoC5/VERT_PM.c ****             #endif /* (VERT_KillModeMinTime) */
 109:Generated_Source\PSoC5/VERT_PM.c **** 
 110:Generated_Source\PSoC5/VERT_PM.c ****             #if(VERT_UseControl)
 111:Generated_Source\PSoC5/VERT_PM.c ****                 VERT_WriteControlRegister(VERT_backup.PWMControlRegister);
 394              		.loc 1 111 0
 395 0010 A079     		ldrb	r0, [r4, #6]	@ zero_extendqisi2
 396 0012 FFF7FEFF 		bl	VERT_WriteControlRegister
 397              	.LVL5:
 398 0016 10BD     		pop	{r4, pc}
 399              	.L8:
 400              		.align	2
 401              	.L7:
 402 0018 00000000 		.word	.LANCHOR0
 403              		.cfi_endproc
 404              	.LFE1:
 405              		.size	VERT_RestoreConfig, .-VERT_RestoreConfig
 406              		.section	.text.VERT_Sleep,"ax",%progbits
 407              		.align	2
 408              		.global	VERT_Sleep
 409              		.thumb
 410              		.thumb_func
 411              		.type	VERT_Sleep, %function
 412              	VERT_Sleep:
 413              	.LFB2:
 112:Generated_Source\PSoC5/VERT_PM.c ****             #endif /* (VERT_UseControl) */
 113:Generated_Source\PSoC5/VERT_PM.c ****         #endif  /* (!VERT_UsingFixedFunction) */
 114:Generated_Source\PSoC5/VERT_PM.c ****     }
 115:Generated_Source\PSoC5/VERT_PM.c **** 
 116:Generated_Source\PSoC5/VERT_PM.c **** 
 117:Generated_Source\PSoC5/VERT_PM.c **** /*******************************************************************************
 118:Generated_Source\PSoC5/VERT_PM.c **** * Function Name: VERT_Sleep
 119:Generated_Source\PSoC5/VERT_PM.c **** ********************************************************************************
 120:Generated_Source\PSoC5/VERT_PM.c **** *
 121:Generated_Source\PSoC5/VERT_PM.c **** * Summary:
 122:Generated_Source\PSoC5/VERT_PM.c **** *  Disables block's operation and saves the user configuration. Should be called
 123:Generated_Source\PSoC5/VERT_PM.c **** *  just prior to entering sleep.
ARM GAS  C:\Users\info\AppData\Local\Temp\ccZ3Z6tS.s 			page 25


 124:Generated_Source\PSoC5/VERT_PM.c **** *
 125:Generated_Source\PSoC5/VERT_PM.c **** * Parameters:
 126:Generated_Source\PSoC5/VERT_PM.c **** *  None
 127:Generated_Source\PSoC5/VERT_PM.c **** *
 128:Generated_Source\PSoC5/VERT_PM.c **** * Return:
 129:Generated_Source\PSoC5/VERT_PM.c **** *  None
 130:Generated_Source\PSoC5/VERT_PM.c **** *
 131:Generated_Source\PSoC5/VERT_PM.c **** * Global variables:
 132:Generated_Source\PSoC5/VERT_PM.c **** *  VERT_backup.PWMEnableState:  Is modified depending on the enable
 133:Generated_Source\PSoC5/VERT_PM.c **** *  state of the block before entering sleep mode.
 134:Generated_Source\PSoC5/VERT_PM.c **** *
 135:Generated_Source\PSoC5/VERT_PM.c **** *******************************************************************************/
 136:Generated_Source\PSoC5/VERT_PM.c **** void VERT_Sleep(void) 
 137:Generated_Source\PSoC5/VERT_PM.c **** {
 414              		.loc 1 137 0
 415              		.cfi_startproc
 416              		@ args = 0, pretend = 0, frame = 0
 417              		@ frame_needed = 0, uses_anonymous_args = 0
 418 0000 08B5     		push	{r3, lr}
 419              		.cfi_def_cfa_offset 8
 420              		.cfi_offset 3, -8
 421              		.cfi_offset 14, -4
 138:Generated_Source\PSoC5/VERT_PM.c ****     #if(VERT_UseControl)
 139:Generated_Source\PSoC5/VERT_PM.c ****         if(VERT_CTRL_ENABLE == (VERT_CONTROL & VERT_CTRL_ENABLE))
 422              		.loc 1 139 0
 423 0002 084B     		ldr	r3, .L13
 424 0004 1B78     		ldrb	r3, [r3]	@ zero_extendqisi2
 425 0006 13F0800F 		tst	r3, #128
 426 000a 03D0     		beq	.L10
 140:Generated_Source\PSoC5/VERT_PM.c ****         {
 141:Generated_Source\PSoC5/VERT_PM.c ****             /*Component is enabled */
 142:Generated_Source\PSoC5/VERT_PM.c ****             VERT_backup.PWMEnableState = 1u;
 427              		.loc 1 142 0
 428 000c 0122     		movs	r2, #1
 429 000e 064B     		ldr	r3, .L13+4
 430 0010 1A70     		strb	r2, [r3]
 431 0012 02E0     		b	.L11
 432              	.L10:
 143:Generated_Source\PSoC5/VERT_PM.c ****         }
 144:Generated_Source\PSoC5/VERT_PM.c ****         else
 145:Generated_Source\PSoC5/VERT_PM.c ****         {
 146:Generated_Source\PSoC5/VERT_PM.c ****             /* Component is disabled */
 147:Generated_Source\PSoC5/VERT_PM.c ****             VERT_backup.PWMEnableState = 0u;
 433              		.loc 1 147 0
 434 0014 0022     		movs	r2, #0
 435 0016 044B     		ldr	r3, .L13+4
 436 0018 1A70     		strb	r2, [r3]
 437              	.L11:
 148:Generated_Source\PSoC5/VERT_PM.c ****         }
 149:Generated_Source\PSoC5/VERT_PM.c ****     #endif /* (VERT_UseControl) */
 150:Generated_Source\PSoC5/VERT_PM.c **** 
 151:Generated_Source\PSoC5/VERT_PM.c ****     /* Stop component */
 152:Generated_Source\PSoC5/VERT_PM.c ****     VERT_Stop();
 438              		.loc 1 152 0
 439 001a FFF7FEFF 		bl	VERT_Stop
 440              	.LVL6:
 153:Generated_Source\PSoC5/VERT_PM.c **** 
ARM GAS  C:\Users\info\AppData\Local\Temp\ccZ3Z6tS.s 			page 26


 154:Generated_Source\PSoC5/VERT_PM.c ****     /* Save registers configuration */
 155:Generated_Source\PSoC5/VERT_PM.c ****     VERT_SaveConfig();
 441              		.loc 1 155 0
 442 001e FFF7FEFF 		bl	VERT_SaveConfig
 443              	.LVL7:
 444 0022 08BD     		pop	{r3, pc}
 445              	.L14:
 446              		.align	2
 447              	.L13:
 448 0024 7D640040 		.word	1073767549
 449 0028 00000000 		.word	.LANCHOR0
 450              		.cfi_endproc
 451              	.LFE2:
 452              		.size	VERT_Sleep, .-VERT_Sleep
 453              		.section	.text.VERT_Wakeup,"ax",%progbits
 454              		.align	2
 455              		.global	VERT_Wakeup
 456              		.thumb
 457              		.thumb_func
 458              		.type	VERT_Wakeup, %function
 459              	VERT_Wakeup:
 460              	.LFB3:
 156:Generated_Source\PSoC5/VERT_PM.c **** }
 157:Generated_Source\PSoC5/VERT_PM.c **** 
 158:Generated_Source\PSoC5/VERT_PM.c **** 
 159:Generated_Source\PSoC5/VERT_PM.c **** /*******************************************************************************
 160:Generated_Source\PSoC5/VERT_PM.c **** * Function Name: VERT_Wakeup
 161:Generated_Source\PSoC5/VERT_PM.c **** ********************************************************************************
 162:Generated_Source\PSoC5/VERT_PM.c **** *
 163:Generated_Source\PSoC5/VERT_PM.c **** * Summary:
 164:Generated_Source\PSoC5/VERT_PM.c **** *  Restores and enables the user configuration. Should be called just after
 165:Generated_Source\PSoC5/VERT_PM.c **** *  awaking from sleep.
 166:Generated_Source\PSoC5/VERT_PM.c **** *
 167:Generated_Source\PSoC5/VERT_PM.c **** * Parameters:
 168:Generated_Source\PSoC5/VERT_PM.c **** *  None
 169:Generated_Source\PSoC5/VERT_PM.c **** *
 170:Generated_Source\PSoC5/VERT_PM.c **** * Return:
 171:Generated_Source\PSoC5/VERT_PM.c **** *  None
 172:Generated_Source\PSoC5/VERT_PM.c **** *
 173:Generated_Source\PSoC5/VERT_PM.c **** * Global variables:
 174:Generated_Source\PSoC5/VERT_PM.c **** *  VERT_backup.pwmEnable:  Is used to restore the enable state of
 175:Generated_Source\PSoC5/VERT_PM.c **** *  block on wakeup from sleep mode.
 176:Generated_Source\PSoC5/VERT_PM.c **** *
 177:Generated_Source\PSoC5/VERT_PM.c **** *******************************************************************************/
 178:Generated_Source\PSoC5/VERT_PM.c **** void VERT_Wakeup(void) 
 179:Generated_Source\PSoC5/VERT_PM.c **** {
 461              		.loc 1 179 0
 462              		.cfi_startproc
 463              		@ args = 0, pretend = 0, frame = 0
 464              		@ frame_needed = 0, uses_anonymous_args = 0
 465 0000 08B5     		push	{r3, lr}
 466              		.cfi_def_cfa_offset 8
 467              		.cfi_offset 3, -8
 468              		.cfi_offset 14, -4
 180:Generated_Source\PSoC5/VERT_PM.c ****      /* Restore registers values */
 181:Generated_Source\PSoC5/VERT_PM.c ****     VERT_RestoreConfig();
 469              		.loc 1 181 0
ARM GAS  C:\Users\info\AppData\Local\Temp\ccZ3Z6tS.s 			page 27


 470 0002 FFF7FEFF 		bl	VERT_RestoreConfig
 471              	.LVL8:
 182:Generated_Source\PSoC5/VERT_PM.c **** 
 183:Generated_Source\PSoC5/VERT_PM.c ****     if(VERT_backup.PWMEnableState != 0u)
 472              		.loc 1 183 0
 473 0006 034B     		ldr	r3, .L18
 474 0008 1B78     		ldrb	r3, [r3]	@ zero_extendqisi2
 475 000a 0BB1     		cbz	r3, .L15
 184:Generated_Source\PSoC5/VERT_PM.c ****     {
 185:Generated_Source\PSoC5/VERT_PM.c ****         /* Enable component's operation */
 186:Generated_Source\PSoC5/VERT_PM.c ****         VERT_Enable();
 476              		.loc 1 186 0
 477 000c FFF7FEFF 		bl	VERT_Enable
 478              	.LVL9:
 479              	.L15:
 480 0010 08BD     		pop	{r3, pc}
 481              	.L19:
 482 0012 00BF     		.align	2
 483              	.L18:
 484 0014 00000000 		.word	.LANCHOR0
 485              		.cfi_endproc
 486              	.LFE3:
 487              		.size	VERT_Wakeup, .-VERT_Wakeup
 488              		.bss
 489              		.align	2
 490              		.set	.LANCHOR0,. + 0
 491              		.type	VERT_backup, %object
 492              		.size	VERT_backup, 8
 493              	VERT_backup:
 494 0000 00000000 		.space	8
 494      00000000 
 495              		.text
 496              	.Letext0:
 497              		.file 2 "Generated_Source\\PSoC5\\cytypes.h"
 498              		.file 3 "Generated_Source\\PSoC5\\VERT.h"