ARM GAS  C:\Users\info\AppData\Local\Temp\ccFTwBWD.s 			page 1


   1              		.syntax unified
   2              		.cpu cortex-m3
   3              		.fpu softvfp
   4              		.eabi_attribute 20, 1
   5              		.eabi_attribute 21, 1
   6              		.eabi_attribute 23, 3
   7              		.eabi_attribute 24, 1
   8              		.eabi_attribute 25, 1
   9              		.eabi_attribute 26, 1
  10              		.eabi_attribute 30, 1
  11              		.eabi_attribute 34, 1
  12              		.eabi_attribute 18, 4
  13              		.thumb
  14              		.syntax unified
  15              		.file	"VGA.c"
  16              		.text
  17              	.Ltext0:
  18              		.section	.gnu.lto_.profile.792a7ce1,"",%progbits
  19 0000 789C6361 		.ascii	"x\234ca`d`a`\000\222\222\242\000\000\261\0009"
  19      60646061 
  19      60009292 
  19      A20000B1 
  19      0039
  20              		.text
  21              		.section	.gnu.lto_.inline.792a7ce1,"",%progbits
  22 0000 789C6361 		.ascii	"x\234ca`d\000\001?\006\004`a`\340\344`d`\342y\020\313"
  22      60640001 
  22      3F060460 
  22      6160E0E4 
  22      606460E2 
  23 0017 C0B6409E 		.ascii	"\300\266@\236\011$\306\310\300\301\016\024\342\232\340"
  23      0924C6C8 
  23      C0C10E14 
  23      E29AE0
  24 0026 07176262 		.ascii	"\007\027bb`c\005\012\261}\320\203\0131c\0121\000\000"
  24      6063050A 
  24      B17DD083 
  24      0B31630A 
  24      310000
  25 0039 537C0835 		.ascii	"S|\0105"
  26              		.text
  27              		.section	.gnu.lto_.jmpfuncs.792a7ce1,"",%progbits
  28 0000 789C6361 		.ascii	"x\234ca`d\000\001>\006\004`\001b\240(\023\003\0033\220"
  28      60640001 
  28      3E060460 
  28      0162A028 
  28      13030333 
  29 0015 05000292 		.ascii	"\005\000\002\222\000\036"
  29      001E
  30              		.text
  31              		.section	.gnu.lto_.pureconst.792a7ce1,"",%progbits
  32 0000 789C6361 		.ascii	"x\234ca`d\340d```a\220b\224b\222b\226\002\000\002\261"
  32      6064E064 
  32      60606061 
  32      90629462 
  32      92629602 
  33 0017 0081     		.ascii	"\000\201"
ARM GAS  C:\Users\info\AppData\Local\Temp\ccFTwBWD.s 			page 2


  34              		.text
  35              		.section	.gnu.lto_VGA_Write.792a7ce1,"",%progbits
  36 0000 789C5551 		.ascii	"x\234UQ\317KTQ\024>\337\275\357\275\321\246\354\017"
  36      CF4B5451 
  36      143EDFBD 
  36      EFBDD1A6 
  36      EC0F
  37 0012 6882D998 		.ascii	"h\202\331\230\330\"\204\350\017\250\026n#\241\325@\014"
  37      D82284E8 
  37      0FA8166E 
  37      23A1D540 
  37      0C
  38 0023 E35B0899 		.ascii	"\343[\010\231\240c[\357\233qFh\345\246\261\215\032\206"
  38      A0635BEF 
  38      9B714668 
  38      E5A6B18D 
  38      1A86
  39 0035 68BF3475 		.ascii	"h\2774u%\010>\037\014-\202\332H\013\251\220!\236\340"
  39      25083E1F 
  39      0C2D82DA 
  39      480BA990 
  39      219EE0
  40 0048 6A840625 		.ascii	"j\204\006%\253\351\234\373\\\344\201\373\343\235\367"
  40      ABE99CFB 
  40      5CE481FB 
  40      E39DF7
  41 0057 7DDFF9CE 		.ascii	"}\337\371\316\271\016\201$\256+\242>>\257\360\202&\250"
  41      B90E8124 
  41      AE2BA23E 
  41      3EAFF082 
  41      26A8
  42 0069 E94F4441 		.ascii	"\351ODA\207\002\344b:@\023\012\023h\251?\012\321T\274"
  42      8702E462 
  42      3A40130A 
  42      1368A93F 
  42      0AD154BC 
  43 007d A97A970C 		.ascii	"\251z\227\014\307\376\342\2346\313!*\232\250\255\254"
  43      C7FEE29C 
  43      36CB212A 
  43      9AA8ADAC 
  44 008d 126109BD 		.ascii	"\022a\011\275\214:\330\232\332\205\316\202\370^\215"
  44      8C3AD89A 
  44      DA85CE82 
  44      F85E8D
  45 009c 5ACD74CF 		.ascii	"Z\315t\317\2421%c\276\345\214\256h`\031\232\031\270"
  45      A2312563 
  45      BEE58CAE 
  45      6860199A 
  45      19B8
  46 00ae 99415F86 		.ascii	"\231A_\2068Ax\205\036\001\237\354\355\256t\351k\226"
  46      38417885 
  46      1E019FEC 
  46      EDAE74E9 
  46      6B96
  47 00c0 386DE285 		.ascii	"8m\342\205\213\335/\205\030\036\017\317\2300\310\012"
  47      8BDD2F85 
  47      181E0FCF 
ARM GAS  C:\Users\info\AppData\Local\Temp\ccFTwBWD.s 			page 3


  47      9830C80A 
  48 00d0 F7F5FF5C 		.ascii	"\367\365\377\\\011\2066\326\376>\273\344M\212\253,\336"
  48      098636D6 
  48      FE3EBBE4 
  48      4D8AAB2C 
  48      DE
  49 00e1 A03BF183 		.ascii	"\240;\361\203\267\360\270CHf\365~h\332\355\262\011["
  49      B7F0B843 
  49      4866F57E 
  49      68DAEDB2 
  49      095B
  50 00f3 6E4B772A 		.ascii	"nKw*.\252\270S\376\341@j\273\222\360dK\311F\324\344"
  50      2EAAB853 
  50      FEE1406A 
  50      BB92F064 
  50      4BC946D4 
  51 0108 25DD1F29 		.ascii	"%\335\037)%\247\216\021\375z\372}&%\232e-\223\250U\242"
  51      25A78E11 
  51      FD7AFA7D 
  51      26259A65 
  51      2D93A855 
  52 011d CFA99FAA 		.ascii	"\317\251\237\252\242\265u[\337n<W\311\347\213\205\300"
  52      A2B5755B 
  52      DF6E3C57 
  52      C9E78B85 
  52      C0
  53 012e 389CFAB8 		.ascii	"8\234\372\2707W\352\232\307l0\3113r\260\202\014\336"
  53      3757EA9A 
  53      C76C30C9 
  53      3372B082 
  53      0CDE
  54 0140 813D6315 		.ascii	"\201=c\025\363\240\030\345\337\325\257H\004u\242\371"
  54      F3A018E5 
  54      DFD5AF48 
  54      0475A2F9 
  55 0150 65B65E4B 		.ascii	"e\266^K\213\010p\012\274gp\003\312\266\301N\031%\244"
  55      8B08700A 
  55      BC677003 
  55      CAB6C14E 
  55      1925A4
  56 0163 6635FE70 		.ascii	"f5\376pf\303-k\251So\037\207\227\205\3452x\215IV\372"
  56      66C32D6B 
  56      A9536F1F 
  56      879785E5 
  56      32788D49 
  57 0179 C799B4E0 		.ascii	"\307\231\264\340\030\264\263\277~d\245\0358XO@'^\002"
  57      18B4B3BF 
  57      7E64A51D 
  57      38584F40 
  57      275E02
  58 018c 4959031E 		.ascii	"IY\003\036\247\242\232e\2353\037\030\223>\357\177\203"
  58      A7A29A65 
  58      9D331F18 
  58      933EEF7F 
  58      83
  59 019d FD338B0E 		.ascii	"\3753\213\016Q\012O]!\330\207h*\310\254xrW\373\375\307"
  59      510A4F5D 
ARM GAS  C:\Users\info\AppData\Local\Temp\ccFTwBWD.s 			page 4


  59      21D88768 
  59      2AC8AC78 
  59      7257FBFD 
  60 01b2 FE68BEE8 		.ascii	"\376h\276\350\017>\034\030\031\037-\370\271{\003#wo"
  60      0F3E1C18 
  60      191F2DF8 
  60      B97B0323 
  60      776F
  61 01c4 E51EF4DF 		.ascii	"\345\036\364\337\276Q \367I\376\321\270\177a\254\230"
  61      BE5120F7 
  61      49FED1B8 
  61      7F61AC98 
  62 01d4 2F0E15EE 		.ascii	"/\016\025\356\014\025\307\376\001\3546\301\305"
  62      0C15C7FE 
  62      01EC36C1 
  62      C5
  63              		.text
  64              		.section	.gnu.lto_VGA_SetDriveMode.792a7ce1,"",%progbits
  65 0000 789C7D51 		.ascii	"x\234}QM+DQ\030~\237s\356\334;\223\370\003FY(\331H\311"
  65      4D2B4451 
  65      187E9F73 
  65      EEDC3B93 
  65      F8034659 
  66 0018 0F90622B 		.ascii	"\017\220b+\312jJ2w\311D,\345\314\214I\261\021\261\221"
  66      CA6A4A32 
  66      77C9442C 
  66      E5CC8C49 
  66      B111B191 
  67 002c D8C8B721 		.ascii	"\330\310\267!\245\354\306-\262bga!Y\214\022\032_\221"
  67      A5ECC62D 
  67      B2626761 
  67      21598C12 
  67      1A5F91
  68 003f AFF1BEF7 		.ascii	"\257\361\276\367Z\314\312\351\236\367\343\351y\236\336"
  68      5ACCCAE9 
  68      9EF7E3E9 
  68      799EDE
  69 004e F75C8B40 		.ascii	"\367\\\213@rn8\325p\256\344\013MPS\247D\311\260\002"
  69      726E38D5 
  69      70AEE40B 
  69      4D5053A7 
  69      44C9B002 
  70 0062 A43061D0 		.ascii	"\2440a\320\250\302(^\325\267\2027\236?Pu+\206\317\325"
  70      A8C2285E 
  70      D5B78237 
  70      9E3F5075 
  70      2B86CFD5 
  71 0076 D1438359 		.ascii	"\321C\203Y\315!\243\211\212\312w\"\254\240\216Y\317"
  71      CD21A389 
  71      8ACA7722 
  71      ACA08E59 
  71      CF
  72 0087 7BCB3365 		.ascii	"{\3133e\272\032\304\365\343i\341\262\242v\331\230\224"
  72      BA1AC4F5 
  72      E369E1B2 
  72      A276D998 
  72      94
ARM GAS  C:\Users\info\AppData\Local\Temp\ccFTwBWD.s 			page 5


  73 0098 319F31A3 		.ascii	"1\2371\2433\032X\205f\005\032\243h\210\022\003\2045"
  73      331A5885 
  73      66051AA3 
  73      68881203 
  73      8435
  74 00aa D40AF97A 		.ascii	"\324\012\371z\367g\266\334\036\023\373\352\300\024\353"
  74      F767B6DC 
  74      1E13FBEA 
  74      C014EB
  75 00b9 B065CC6C 		.ascii	"\260e\314lG\316\024\213i\223{\263\017?\3542\3052\245"
  75      47CE148B 
  75      69937BB3 
  75      0F3FEC32 
  75      C532A5
  76 00cc 39684B42 		.ascii	"9hKB\010\342`K\351H\010K\210\010\207\250\300W\026yT"
  76      08E2604B 
  76      E948084B 
  76      880887A8 
  76      C0571679 
  77 00e1 4AB2CEC3 		.ascii	"J\262\316\303\373\230\310\317[\342\234\326\262\324\\"
  77      FB98C8CF 
  77      5BE29CD6 
  77      B2D45C
  78 00f0 C63B735E 		.ascii	"\306;s^TF[\376\304w\336\324H\320M/%\215\305\310I\362"
  78      54465BFE 
  78      C477DED4 
  78      48D04D2F 
  78      258DC5C8 
  79 0106 605F2F62 		.ascii	"`_/b!9\306\333\206\260\211(6\020\345\341\266\260\010"
  79      2139C6DB 
  79      86B08928 
  79      3610E5E1 
  79      B6B008
  80 0119 CA23F5E4 		.ascii	"\312#\365\344\004n\232\015\271O\177\331Ao1\304\372\213"
  80      046E9A0D 
  80      B94F7FD9 
  80      416F31C4 
  80      FA8B
  81 012b E3C9EF88 		.ascii	"\343\311\357\210Xj\014`\233\225%\022\376B\245\022\207"
  81      586A0C60 
  81      9B952512 
  81      FE42A512 
  81      87
  82 013c 2196DC9F 		.ascii	"!\226\334\237ol\352@R\201\254/I\277\377Q\302\276\261"
  82      6F6CEA40 
  82      5281AC2F 
  82      49BFFF51 
  82      C2BEB1
  83 014f 53EA1261 		.ascii	"S\352\022a\224{o\016\322\3777\362\016\217\314|\272E"
  83      947B6F0E 
  83      D2FF37F2 
  83      0E8FCC7C 
  83      BA45
  84 0161 2AF7D92A 		.ascii	"*\367\331*l\377\317\025\024\344u\370\255\252\332\334"
  84      6CFFCF15 
  84      14E475F8 
  84      ADAADADC 
ARM GAS  C:\Users\info\AppData\Local\Temp\ccFTwBWD.s 			page 6


  85 0171 7E77B067 		.ascii	"~w\260g\310\215ww&\206\007{\335X{g\242\245)\326\325"
  85      C88D7777 
  85      2686077B 
  85      DD587B67 
  85      A2A529D6 
  86 0186 D65CDF4B 		.ascii	"\326\\\337KV_\"\356\376\002\337\032\243\333"
  86      565F22EE 
  86      FE02DF1A 
  86      A3DB
  87              		.text
  88              		.section	.gnu.lto_VGA_Read.792a7ce1,"",%progbits
  89 0000 789C3D4F 		.ascii	"x\234=O;K\003A\020\236o\367r\027\004\361\007\030\321"
  89      3B4B0341 
  89      109E6FF7 
  89      721704F1 
  89      0718D1
  90 0013 368D0822 		.ascii	"6\215\010\"\210\235\010\246\025\003\251\002\"\361Z\003"
  90      889D08A6 
  90      1503A902 
  90      22F15A03 
  91 0023 41EB6C72 		.ascii	"A\353lr\271\004\304\302F\205\340\003\025I|\241\376\203"
  91      B904C4C2 
  91      4685E003 
  91      15497CA1 
  91      FE83
  92 0035 33280882 		.ascii	"3(\010\202\217B\020\004\021\221\024V\032\224@P\317Y"
  92      8F421004 
  92      11911456 
  92      1A944050 
  92      CF59
  93 0047 4F1CD899 		.ascii	"O\034\330\231\335\331\3571c\020HG\202K7\327N>\220\004"
  93      DDD9EF31 
  93      63104847 
  93      824B37D7 
  93      4E3E9004 
  94 005b B1704994 		.ascii	"\261pI\224\013\013@_T\030\224\025\310\342C|\011\\4\317"
  94      0B0B405F 
  94      54189415 
  94      C8E2437C 
  94      095C34CF 
  95 006f E7DBA215 		.ascii	"\347\333\242\025\245\362\352q\2735\270\\\365\340J\""
  95      A5F2EA71 
  95      BB35B85C 
  95      F5E04A22 
  96 007f 5F10FA23 		.ascii	"_\020\372#\350\213h\211\012\242\304\320\247\343\357"
  96      E88B6889 
  96      0AA2C4D0 
  96      A7E3EF
  97 008e C576B3A0 		.ascii	"\305v\263\2408z4\200\177\2520\265\345\341\270\247|\337"
  97      387A3480 
  97      7FAA30B5 
  97      E5E1B8A7 
  97      7CDF
  98 00a0 51DEAD75 		.ascii	"Q\336\255urgY W\262/'\203\223\010\351d\222\226\245W"
  98      72675920 
  98      57B22F27 
  98      839308E9 
ARM GAS  C:\Users\info\AppData\Local\Temp\ccFTwBWD.s 			page 7


  98      649296A5 
  99 00b5 A6E921DE 		.ascii	"\246\351!\336\204\320U\326Qk\315=\254\015i%GJvYrkW\326"
  99      84D055D6 
  99      516BCD3D 
  99      AC0D6925 
  99      474A7659 
 100 00cd BB70A584 		.ascii	"\273p\245\2046-m\225\257\021<76s\312\340V\271\250\356"
 100      362D6D95 
 100      AF113C37 
 100      3673CAE0 
 100      56B9A8EE 
 101 00e1 CD75ACE6 		.ascii	"\315u\254\346\012<\252\201]D\260\003\036\024{X\007\325"
 101      0A3CAA81 
 101      5D44B003 
 101      1E147B58 
 101      07D5
 102 00f3 E17C8E92 		.ascii	"\341|\216\222#\021\310\335\024\216V\244\346\003\006"
 102      2311C8DD 
 102      148E56A4 
 102      E60306
 103 0102 F6195647 		.ascii	"\366\031VG\276Qz\026\201\241\3018\315h\024O\215\240"
 103      BE517A16 
 103      81A1C138 
 103      CD68144F 
 103      8DA0
 104 0114 13E226D3 		.ascii	"\023\342&\323\316\374\246\327\241i\002\002\007\3774"
 104      CEFCA6D7 
 104      A1690202 
 104      07FF34
 105 0123 04208DA3 		.ascii	"\004 \215\243\027\374\211\230\364\273\030\364B\274^"
 105      17FC8998 
 105      F4BB18F4 
 105      42BC5E
 106 0132 57CC9EB6 		.ascii	"W\314\236\2663\2233\366\324D<=\233I\331\311\261xzd "
 106      339333F6 
 106      D4443C3D 
 106      9B49D9C9 
 106      B1787A64 
 107 0147 99880DF7 		.ascii	"\231\210\015\367\246\350\007\350\000y\026"
 107      A6E807E8 
 107      007916
 108              		.text
 109              		.section	.gnu.lto_VGA_ReadDataReg.792a7ce1,"",%progbits
 110 0000 789C3D4F 		.ascii	"x\234=O;K\003A\020\236o\367\362 \240\376\000#\332\246"
 110      3B4B0341 
 110      109E6FF7 
 110      F220A0FE 
 110      0023DAA6 
 111 0014 11412CB4 		.ascii	"\021A,\264\023\301\264b U@$^k h\235K.\247 \0266>\012"
 111      13C1B462 
 111      20554024 
 111      5E6B2068 
 111      9D4B2EA7 
 112 002d 35224812 		.ascii	"5\"H\022\037\250?@<\203\202 \370h\255$H\012+\015J@4"
 112      1FA83F40 
 112      3C838220 
 112      F868AD24 
ARM GAS  C:\Users\info\AppData\Local\Temp\ccFTwBWD.s 			page 8


 112      480A2B0D 
 113 0044 E78C270E 		.ascii	"\347\214'\016\354\314\356\354\367\2301\010$\221\344"
 113      ECCCEEEC 
 113      F7983108 
 113      2491E4
 114 0053 D2CBB59B 		.ascii	"\322\313\265\233\0174A\255\334\022\345\303\012\220\213"
 114      0F3441AD 
 114      DC12E5C3 
 114      0A908B
 115 0062 1506E514 		.ascii	"\025\006\345\024r\370P\337\0127\255\353\345H\254lY\005"
 115      72F850DF 
 115      0A37ADEB 
 115      E548AC6C 
 115      5905
 116 0074 EB69AF3C 		.ascii	"\353i\257<\274^q\341h\"O\021\006\243\030\210\212D\031"
 116      BC5E71E1 
 116      68224F11 
 116      06A31888 
 116      8A4419
 117 0087 316268FD 		.ascii	"1bh\375\264\275\332\021,Z\034}\002\340\237\012\202b"
 117      B4BDDA11 
 117      2C5A1C7D 
 117      02E09F0A 
 117      8262
 118 0099 793CE95A 		.ascii	"y<\351Z\236g[\356Y\344\342>\022\0029\232}9\031\234T"
 118      9E675BEE 
 118      59E4E23E 
 118      1202399A 
 118      7D39199C 
 119 00ae 40529044 		.ascii	"@R\220D\226^\231&C\274)%U7P\373\\jWGD\311\326\232]\326"
 119      965E9926 
 119      43BC2925 
 119      553750FB 
 119      5C6A5747 
 120 00c8 9CDA5DE8 		.ascii	"\234\332]\350]9ZCL\257\316\353\033\312\177\356\354\346"
 120      5D395A43 
 120      4CAFCEEB 
 120      1BCA7FEE 
 120      ECE6
 121 00da 2D43467E 		.ascii	"-CF~\334.t\226\260\225/\362\250\006\366\021E\025<(\016"
 121      DC2E7496 
 121      B0952FF2 
 121      A806F611 
 121      45153C28 
 122 00ef 50023560 		.ascii	"P\0025`\177\215\223\255\341\313=\024O6\265\360\001\003"
 122      7F8D93AD 
 122      E1CB3D14 
 122      4F36B5F0 
 122      0103
 123 0101 870C6BA0 		.ascii	"\207\014k\240\320\\|V\276\241\3018a4\027.\015\277\023"
 123      D05C7C56 
 123      BEA1C138 
 123      6134172E 
 123      0DBF13
 124 0114 E0A6D87A 		.ascii	"\340\246\330z-\267Kh\012\012G\3774\370 \301\321\013"
 124      2DB74B68 
 124      0A0A47FF 
ARM GAS  C:\Users\info\AppData\Local\Temp\ccFTwBWD.s 			page 9


 124      34F820C1 
 124      D10B
 125 0126 FE4482F4 		.ascii	"\376D\202\364\273\030d!^\257'n\316\232\331\3519sf*\221"
 125      BB186421 
 125      5EAF276E 
 125      CE9AD9E9 
 125      3973662A 
 126 013b 99CFA6CD 		.ascii	"\231\317\246\315\324D\"36\224J\306G\373\323\364\003"
 126      D4442233 
 126      36944AC6 
 126      47FBD3F4 
 126      03
 127 014c 138E7991 		.ascii	"\023\216y\221"
 128              		.text
 129              		.section	.gnu.lto_.symbol_nodes.792a7ce1,"",%progbits
 130 0000 789C6361 		.ascii	"x\234ca`dpc\000\002&\206z\006\206\011\347\030@\324\252"
 130      60647063 
 130      00022686 
 130      7A068609 
 130      E71840D4 
 131 0015 0645A000 		.ascii	"\006E\240\000c=#\252\000S=\023\252\000s=3\212\000\003"
 131      633D23AA 
 131      00533D13 
 131      AA00733D 
 131      338A0003 
 132 0029 001ED60E 		.ascii	"\000\036\326\016\374"
 132      FC
 133              		.text
 134              		.section	.gnu.lto_.refs.792a7ce1,"",%progbits
 135 0000 789C6361 		.ascii	"x\234ca`\004B \000\000\0009\000\007"
 135      60044220 
 135      00000039 
 135      0007
 136              		.text
 137              		.section	.gnu.lto_.decls.792a7ce1,"",%progbits
 138 0000 789C8D92 		.ascii	"x\234\215\222]H\024Q\024\307\357\231\031\327m\262\024"
 138      5D481451 
 138      14C7EF99 
 138      19D76DB2 
 138      14
 139 0011 A9F06102 		.ascii	"\251\360a\002\363\311\247%\221\300\207\350\003%{)C\313"
 139      F3C9A725 
 139      91C087E8 
 139      03257B29 
 139      43CB
 140 0023 1E1264D5 		.ascii	"\036\022d\325A\205\320\330\326\300\267\253\253\240E"
 140      4185D0D8 
 140      D6C0B7AB 
 140      ABA045
 141 0032 A0818526 		.ascii	"\240\201\205&\270}Pn\232\256\037\253\273k\346\366M\201"
 141      B87D506E 
 141      9AAE1FAB 
 141      BB6BE6F6 
 141      4D81
 142 0044 91488118 		.ascii	"\221H\201\030$m\022\226\204\241QRf\347\336\235u\306"
 142      246D1296 
 142      84A15152 
ARM GAS  C:\Users\info\AppData\Local\Temp\ccFTwBWD.s 			page 10


 142      66E7DE9D 
 142      75C6
 143 0056 9AC00377 		.ascii	"\232\300\003w\3569\367\236\377\357\236{\346J\004\010"
 143      EE39F79E 
 143      FFEF9E7B 
 143      E64A0408 
 144 0066 B3BD1221 		.ascii	"\263\275\022!\2158+\030\256\242\305\240\237Ot\303m2"
 144      8D382B18 
 144      AEA2C5A0 
 144      9F4F74C3 
 144      6D32
 145 0078 80C387C3 		.ascii	"\200\303\207\303\217#H\3765\266o\321t=\214\205c\014"
 145      8F2348FE 
 145      35B66FD1 
 145      743D8C85 
 145      630C
 146 008a C7288E1C 		.ascii	"\307(\216\034-\007\264\274\277\315g\242\015\031\364"
 146      2D07B4BC 
 146      BFCD67A2 
 146      0D19F4
 147 0099 51ADCF44 		.ascii	"Q\255\317D\313\352\2111\350rLt~\023]p\003:\263{\256"
 147      CBEA8931 
 147      E8724C74 
 147      7E135D70 
 147      033AB37B 
 148 00ae 08E07AFF 		.ascii	"\010\340z\377\311m\235\206)\000\002\334\210\326G\302"
 148      C96D9D86 
 148      290002DC 
 148      88D647C2 
 149 00be 56B49939 		.ascii	"V\264\2319\020\011\204(\017\326\310\232\303\323\201"
 149      10098428 
 149      0FD6C89A 
 149      C3D381
 150 00cd 083C1F0C 		.ascii	"\010<\037\014\033\353\362\370?\341\246/\301\232E3a="
 150      1BEBF2F8 
 150      3FE1A62F 
 150      C19A4533 
 150      613D
 151 00df 9451F510 		.ascii	"\224Q\365\020cA\027\030xZ\365\332\371`<\226\243\305"
 151      63411718 
 151      785AF5DA 
 151      F9603C96 
 151      A3C5
 152 00f1 E8A5BF5D 		.ascii	"\350\245\277]\355\033\005\021\231\350\277[\356<d\353"
 152      ED1B0511 
 152      99E8BF5B 
 152      EE3C64EB 
 153 0101 A6684D94 		.ascii	"\246hM\224\012\212\336\231\336\372\017\036\353\222\000"
 153      0A8ADE99 
 153      DEFA0F1E 
 153      EB9200
 154 0110 8A0CABC0 		.ascii	"\212\014\253\300\342\371\300\362\226H\314\266[\233\303"
 154      E2F9C0F2 
 154      9648CCB6 
 154      5B9BC3
 155 011f BF378BDB 		.ascii	"\2777\213\333\231/L\206\273\346$H\225o1\314\314w\357"
 155      992F4C86 
ARM GAS  C:\Users\info\AppData\Local\Temp\ccFTwBWD.s 			page 11


 155      BBE62448 
 155      956F31CC 
 155      CC77EF
 156 0132 BE00A509 		.ascii	"\276\000\245\011\320\0032t\203\010\036\260\261\012\024"
 156      D0033274 
 156      83081EB0 
 156      B10A14
 157 0141 19BF0D94 		.ascii	"\031\277\015\224\326\322\205\353\324\222D ]\201\335"
 157      D6D285EB 
 157      D4924420 
 157      5D81DD
 158 0150 0A81BB90 		.ascii	"\012\201\273\220\312\230,\013\272@\201;\2400\376\354"
 158      CA982C0B 
 158      BA40813B 
 158      A030FEEC 
 159 0160 958ECF16 		.ascii	"\225\216\317\026\011\333\3159E\022[\233\250\363\266"
 159      09DBCD39 
 159      45125B9B 
 159      A8F3B6
 160 016f 8B5842A2 		.ascii	"\213XB\242\014\022\206_\307\333\302[1\334&C2\206\335"
 160      0C12865F 
 160      C7DBC25B 
 160      31DC2643 
 160      3286DD
 161 0182 C1B7F396 		.ascii	"\301\267\363\226\244\313\374*.\232,A\376\016\350C\240"
 161      A4CBFC2A 
 161      2E9A2C41 
 161      FE0EE843 
 161      A0
 162 0193 178104FA 		.ascii	"\027\201\004\372!\011\277\275 En7\373\322=%\246\270"
 162      2109BFBD 
 162      20456E37 
 162      FBD23D25 
 162      A6B8
 163 01a5 A9DB4B67 		.ascii	"\251\333Kg~\316\246\267\322P\035\352\004\226\006\235"
 163      7ECEA6B7 
 163      D2501DEA 
 163      0496069D 
 164 01b5 7AD1E8B2 		.ascii	"z\321\350\262\3516LcC\007 \005\225\375\317\375nQ<\305"
 164      E9364C63 
 164      43072005 
 164      95FDCFFD 
 164      6E513CC5 
 165 01c9 9B30E419 		.ascii	"\2330\344\031\011\307F(\241\245\247q\264\251\206\322"
 165      09C74628 
 165      A1A5A771 
 165      B4A986D2 
 166 01d9 039C31A8 		.ascii	"\003\2341\2503\006\215\014\037gt\014\337\030\224\305"
 166      33068D0C 
 166      1F67740C 
 166      DF1894C5 
 167 01e9 D39CF1EA 		.ascii	"\323\234\361\352\302\023W\274\261lv_\275\356a^w\221"
 167      C21357BC 
 167      B16C765F 
 167      BDEE615E 
 167      7791
 168 01fb 56F6CCA5 		.ascii	"V\366\314\245\327\027\265\262C\223\317\304\265\2621"
ARM GAS  C:\Users\info\AppData\Local\Temp\ccFTwBWD.s 			page 12


 168      D717B5B2 
 168      4393CFC4 
 168      B5B231
 169 020a 0B86F423 		.ascii	"\013\206\364#\207\214G\372\371\221\2137\333kD\261\212"
 169      878C47FA 
 169      F9918B37 
 169      DB6B44B1 
 169      8A
 170 021b 1F39F5EB 		.ascii	"\0379\365\353cP\326(\301\027\321\262\031#\2403\002F"
 170      6350D628 
 170      C117D1B2 
 170      1923A033 
 170      0246
 171 022d 46903396 		.ascii	"F\2203\226\352\026\337Xd\374\207\256\215\375\303\361"
 171      EA16DF58 
 171      64FC87AE 
 171      8DFDC3F1 
 172 023d B96BABB1 		.ascii	"\271k\253\261b=\360G2\320\322\332\022\013r\252\211\374"
 172      623DF047 
 172      32D0D2DA 
 172      120B72AA 
 172      89FC
 173 024f BE895C7B 		.ascii	"\276\211\\{K?\21677\262\013\216bS\356\351\305\215\200"
 173      4B3F8E37 
 173      37B20B8E 
 173      6253EEE9 
 173      C58D80
 174 0262 1C6988E7 		.ascii	"\034i\210\347\313\243\020\304\235g\317\012\273\227x"
 174      CBA310C4 
 174      9D67CF0A 
 174      BB9778
 175 0271 9827EADD 		.ascii	"\230'\352\335\033\2038\376\374q^\021\304\307\223\275"
 175      1B8338FE 
 175      FC715E11 
 175      C4C793BD 
 176 0281 6332C80A 		.ascii	"c2\310\012\340>4\260\003\026j\015u\020\0101,<\300\355"
 176      E03E34B0 
 176      03166A0D 
 176      75100831 
 176      2C3CC0ED 
 177 0295 87286FA3 		.ascii	"\207(o\243,g\002\3702\017\026\366s\237\1776\345g\037"
 177      2C6702F8 
 177      320F16F6 
 177      739F7F36 
 177      E5671F
 178 02a8 2C3CE928 		.ascii	",<\351(w\252\326\354\243'\2223\323\322HLUy\2053cW\266"
 178      77AAD6EC 
 178      A3279233 
 178      D3D2484C 
 178      55798533 
 179 02bf 5AA13AEC 		.ascii	"Z\241:\354N\265\2440\257\262\312Q\254\026\034\313\253"
 179      4EB5A430 
 179      AFB2CA51 
 179      AC161CCB 
 179      AB
 180 02d0 CCDC5350 		.ascii	"\314\334SP\\\355\254>\243\236\265\225\221\235\377\311"
 180      5CEDAC3E 
ARM GAS  C:\Users\info\AppData\Local\Temp\ccFTwBWD.s 			page 13


 180      A39EB595 
 180      919DFFC9 
 181 02e0 40A2AD98 		.ascii	"@\242\255\230$0p\236\352\314r\224\237S\217T\226\250"
 181      2430709E 
 181      EACC7294 
 181      9F538F54 
 181      96A8
 182 02f2 56B690AB 		.ascii	"V\266\220\253\332K\342\243N\226\335i\317UK%\207Z\232"
 182      DA4BE2A3 
 182      4E96DD69 
 182      CF554B25 
 182      875A9A
 183 0305 F107DA33 		.ascii	"\361\007\3323[\260"
 183      5BB0
 184              		.text
 185              		.section	.gnu.lto_.symtab.792a7ce1,"",%progbits
 186 0000 5647415F 		.ascii	"VGA_Write\000"
 186      57726974 
 186      6500
 187 000a 00       		.ascii	"\000"
 188 000b 00       		.ascii	"\000"
 189 000c 00       		.ascii	"\000"
 190 000d 00000000 		.ascii	"\000\000\000\000\000\000\000\000"
 190      00000000 
 191 0015 B3000000 		.ascii	"\263\000\000\000"
 192 0019 5647415F 		.ascii	"VGA_SetDriveMode\000"
 192      53657444 
 192      72697665 
 192      4D6F6465 
 192      00
 193 002a 00       		.ascii	"\000"
 194 002b 00       		.ascii	"\000"
 195 002c 00       		.ascii	"\000"
 196 002d 00000000 		.ascii	"\000\000\000\000\000\000\000\000"
 196      00000000 
 197 0035 B5000000 		.ascii	"\265\000\000\000"
 198 0039 5647415F 		.ascii	"VGA_Read\000"
 198      52656164 
 198      00
 199 0042 00       		.ascii	"\000"
 200 0043 00       		.ascii	"\000"
 201 0044 00       		.ascii	"\000"
 202 0045 00000000 		.ascii	"\000\000\000\000\000\000\000\000"
 202      00000000 
 203 004d B8000000 		.ascii	"\270\000\000\000"
 204 0051 5647415F 		.ascii	"VGA_ReadDataReg\000"
 204      52656164 
 204      44617461 
 204      52656700 
 205 0061 00       		.ascii	"\000"
 206 0062 00       		.ascii	"\000"
 207 0063 00       		.ascii	"\000"
 208 0064 00000000 		.ascii	"\000\000\000\000\000\000\000\000"
 208      00000000 
 209 006c BA000000 		.ascii	"\272\000\000\000"
 210              		.text
 211              		.section	.gnu.lto_.opts,"",%progbits
ARM GAS  C:\Users\info\AppData\Local\Temp\ccFTwBWD.s 			page 14


 212 0000 272D666D 		.ascii	"'-fmath-errno' '-fsigned-zeros' '-ftrapping-math' '"
 212      6174682D 
 212      6572726E 
 212      6F272027 
 212      2D667369 
 213 0033 2D666E6F 		.ascii	"-fno-trapv' '-fno-strict-overflow' '-fno-openmp' '-"
 213      2D747261 
 213      70762720 
 213      272D666E 
 213      6F2D7374 
 214 0066 666E6F2D 		.ascii	"fno-openacc' '-mcpu=cortex-m3' '-mthumb' '-g' '-Og'"
 214      6F70656E 
 214      61636327 
 214      20272D6D 
 214      6370753D 
 215 0099 20272D66 		.ascii	" '-ffunction-sections' '-ffat-lto-objects' '-flto'\000"
 215      66756E63 
 215      74696F6E 
 215      2D736563 
 215      74696F6E 
 216              		.text
 217              		.cfi_sections	.debug_frame
 218              		.section	.text.VGA_Write,"ax",%progbits
 219              		.align	2
 220              		.global	VGA_Write
 221              		.thumb
 222              		.thumb_func
 223              		.type	VGA_Write, %function
 224              	VGA_Write:
 225              	.LFB0:
 226              		.file 1 "Generated_Source\\PSoC5\\VGA.c"
   1:Generated_Source\PSoC5/VGA.c **** /*******************************************************************************
   2:Generated_Source\PSoC5/VGA.c **** * File Name: VGA.c  
   3:Generated_Source\PSoC5/VGA.c **** * Version 2.20
   4:Generated_Source\PSoC5/VGA.c **** *
   5:Generated_Source\PSoC5/VGA.c **** * Description:
   6:Generated_Source\PSoC5/VGA.c **** *  This file contains API to enable firmware control of a Pins component.
   7:Generated_Source\PSoC5/VGA.c **** *
   8:Generated_Source\PSoC5/VGA.c **** * Note:
   9:Generated_Source\PSoC5/VGA.c **** *
  10:Generated_Source\PSoC5/VGA.c **** ********************************************************************************
  11:Generated_Source\PSoC5/VGA.c **** * Copyright 2008-2015, Cypress Semiconductor Corporation.  All rights reserved.
  12:Generated_Source\PSoC5/VGA.c **** * You may use this file only in accordance with the license, terms, conditions, 
  13:Generated_Source\PSoC5/VGA.c **** * disclaimers, and limitations in the end user license agreement accompanying 
  14:Generated_Source\PSoC5/VGA.c **** * the software package with which this file was provided.
  15:Generated_Source\PSoC5/VGA.c **** *******************************************************************************/
  16:Generated_Source\PSoC5/VGA.c **** 
  17:Generated_Source\PSoC5/VGA.c **** #include "cytypes.h"
  18:Generated_Source\PSoC5/VGA.c **** #include "VGA.h"
  19:Generated_Source\PSoC5/VGA.c **** 
  20:Generated_Source\PSoC5/VGA.c **** /* APIs are not generated for P15[7:6] on PSoC 5 */
  21:Generated_Source\PSoC5/VGA.c **** #if !(CY_PSOC5A &&\
  22:Generated_Source\PSoC5/VGA.c **** 	 VGA__PORT == 15 && ((VGA__MASK & 0xC0) != 0))
  23:Generated_Source\PSoC5/VGA.c **** 
  24:Generated_Source\PSoC5/VGA.c **** 
  25:Generated_Source\PSoC5/VGA.c **** /*******************************************************************************
  26:Generated_Source\PSoC5/VGA.c **** * Function Name: VGA_Write
ARM GAS  C:\Users\info\AppData\Local\Temp\ccFTwBWD.s 			page 15


  27:Generated_Source\PSoC5/VGA.c **** ****************************************************************************//**
  28:Generated_Source\PSoC5/VGA.c **** *
  29:Generated_Source\PSoC5/VGA.c **** * \brief Writes the value to the physical port (data output register), masking
  30:Generated_Source\PSoC5/VGA.c **** *  and shifting the bits appropriately. 
  31:Generated_Source\PSoC5/VGA.c **** *
  32:Generated_Source\PSoC5/VGA.c **** * The data output register controls the signal applied to the physical pin in 
  33:Generated_Source\PSoC5/VGA.c **** * conjunction with the drive mode parameter. This function avoids changing 
  34:Generated_Source\PSoC5/VGA.c **** * other bits in the port by using the appropriate method (read-modify-write or
  35:Generated_Source\PSoC5/VGA.c **** * bit banding).
  36:Generated_Source\PSoC5/VGA.c **** *
  37:Generated_Source\PSoC5/VGA.c **** * <b>Note</b> This function should not be used on a hardware digital output pin 
  38:Generated_Source\PSoC5/VGA.c **** * as it is driven by the hardware signal attached to it.
  39:Generated_Source\PSoC5/VGA.c **** *
  40:Generated_Source\PSoC5/VGA.c **** * \param value
  41:Generated_Source\PSoC5/VGA.c **** *  Value to write to the component instance.
  42:Generated_Source\PSoC5/VGA.c **** *
  43:Generated_Source\PSoC5/VGA.c **** * \return 
  44:Generated_Source\PSoC5/VGA.c **** *  None 
  45:Generated_Source\PSoC5/VGA.c **** *
  46:Generated_Source\PSoC5/VGA.c **** * \sideeffect
  47:Generated_Source\PSoC5/VGA.c **** *  If you use read-modify-write operations that are not atomic; the Interrupt 
  48:Generated_Source\PSoC5/VGA.c **** *  Service Routines (ISR) can cause corruption of this function. An ISR that 
  49:Generated_Source\PSoC5/VGA.c **** *  interrupts this function and performs writes to the Pins component data 
  50:Generated_Source\PSoC5/VGA.c **** *  register can cause corrupted port data. To avoid this issue, you should 
  51:Generated_Source\PSoC5/VGA.c **** *  either use the Per-Pin APIs (primary method) or disable interrupts around 
  52:Generated_Source\PSoC5/VGA.c **** *  this function.
  53:Generated_Source\PSoC5/VGA.c **** *
  54:Generated_Source\PSoC5/VGA.c **** * \funcusage
  55:Generated_Source\PSoC5/VGA.c **** *  \snippet VGA_SUT.c usage_VGA_Write
  56:Generated_Source\PSoC5/VGA.c **** *******************************************************************************/
  57:Generated_Source\PSoC5/VGA.c **** void VGA_Write(uint8 value)
  58:Generated_Source\PSoC5/VGA.c **** {
 227              		.loc 1 58 0
 228              		.cfi_startproc
 229              		@ args = 0, pretend = 0, frame = 0
 230              		@ frame_needed = 0, uses_anonymous_args = 0
 231              		@ link register save eliminated.
 232              	.LVL0:
  59:Generated_Source\PSoC5/VGA.c ****     uint8 staticBits = (VGA_DR & (uint8)(~VGA_MASK));
 233              		.loc 1 59 0
 234 0000 044A     		ldr	r2, .L2
 235 0002 1378     		ldrb	r3, [r2]	@ zero_extendqisi2
 236 0004 03F0FB03 		and	r3, r3, #251
 237              	.LVL1:
  60:Generated_Source\PSoC5/VGA.c ****     VGA_DR = staticBits | ((uint8)(value << VGA_SHIFT) & VGA_MASK);
 238              		.loc 1 60 0
 239 0008 8000     		lsls	r0, r0, #2
 240              	.LVL2:
 241 000a 00F00400 		and	r0, r0, #4
 242 000e 1843     		orrs	r0, r0, r3
 243 0010 1070     		strb	r0, [r2]
 244 0012 7047     		bx	lr
 245              	.L3:
 246              		.align	2
 247              	.L2:
 248 0014 20510040 		.word	1073762592
 249              		.cfi_endproc
ARM GAS  C:\Users\info\AppData\Local\Temp\ccFTwBWD.s 			page 16


 250              	.LFE0:
 251              		.size	VGA_Write, .-VGA_Write
 252              		.section	.text.VGA_SetDriveMode,"ax",%progbits
 253              		.align	2
 254              		.global	VGA_SetDriveMode
 255              		.thumb
 256              		.thumb_func
 257              		.type	VGA_SetDriveMode, %function
 258              	VGA_SetDriveMode:
 259              	.LFB1:
  61:Generated_Source\PSoC5/VGA.c **** }
  62:Generated_Source\PSoC5/VGA.c **** 
  63:Generated_Source\PSoC5/VGA.c **** 
  64:Generated_Source\PSoC5/VGA.c **** /*******************************************************************************
  65:Generated_Source\PSoC5/VGA.c **** * Function Name: VGA_SetDriveMode
  66:Generated_Source\PSoC5/VGA.c **** ****************************************************************************//**
  67:Generated_Source\PSoC5/VGA.c **** *
  68:Generated_Source\PSoC5/VGA.c **** * \brief Sets the drive mode for each of the Pins component's pins.
  69:Generated_Source\PSoC5/VGA.c **** * 
  70:Generated_Source\PSoC5/VGA.c **** * <b>Note</b> This affects all pins in the Pins component instance. Use the
  71:Generated_Source\PSoC5/VGA.c **** * Per-Pin APIs if you wish to control individual pin's drive modes.
  72:Generated_Source\PSoC5/VGA.c **** *
  73:Generated_Source\PSoC5/VGA.c **** * \param mode
  74:Generated_Source\PSoC5/VGA.c **** *  Mode for the selected signals. Valid options are documented in 
  75:Generated_Source\PSoC5/VGA.c **** *  \ref driveMode.
  76:Generated_Source\PSoC5/VGA.c **** *
  77:Generated_Source\PSoC5/VGA.c **** * \return
  78:Generated_Source\PSoC5/VGA.c **** *  None
  79:Generated_Source\PSoC5/VGA.c **** *
  80:Generated_Source\PSoC5/VGA.c **** * \sideeffect
  81:Generated_Source\PSoC5/VGA.c **** *  If you use read-modify-write operations that are not atomic, the ISR can
  82:Generated_Source\PSoC5/VGA.c **** *  cause corruption of this function. An ISR that interrupts this function 
  83:Generated_Source\PSoC5/VGA.c **** *  and performs writes to the Pins component Drive Mode registers can cause 
  84:Generated_Source\PSoC5/VGA.c **** *  corrupted port data. To avoid this issue, you should either use the Per-Pin
  85:Generated_Source\PSoC5/VGA.c **** *  APIs (primary method) or disable interrupts around this function.
  86:Generated_Source\PSoC5/VGA.c **** *
  87:Generated_Source\PSoC5/VGA.c **** * \funcusage
  88:Generated_Source\PSoC5/VGA.c **** *  \snippet VGA_SUT.c usage_VGA_SetDriveMode
  89:Generated_Source\PSoC5/VGA.c **** *******************************************************************************/
  90:Generated_Source\PSoC5/VGA.c **** void VGA_SetDriveMode(uint8 mode)
  91:Generated_Source\PSoC5/VGA.c **** {
 260              		.loc 1 91 0
 261              		.cfi_startproc
 262              		@ args = 0, pretend = 0, frame = 0
 263              		@ frame_needed = 0, uses_anonymous_args = 0
 264              		@ link register save eliminated.
 265              	.LVL3:
  92:Generated_Source\PSoC5/VGA.c **** 	CyPins_SetPinDriveMode(VGA_0, mode);
 266              		.loc 1 92 0
 267 0000 044A     		ldr	r2, .L5
 268 0002 1378     		ldrb	r3, [r2]	@ zero_extendqisi2
 269 0004 03F0F103 		and	r3, r3, #241
 270 0008 00F00E00 		and	r0, r0, #14
 271              	.LVL4:
 272 000c 1843     		orrs	r0, r0, r3
 273 000e 1070     		strb	r0, [r2]
 274 0010 7047     		bx	lr
ARM GAS  C:\Users\info\AppData\Local\Temp\ccFTwBWD.s 			page 17


 275              	.L6:
 276 0012 00BF     		.align	2
 277              	.L5:
 278 0014 12500040 		.word	1073762322
 279              		.cfi_endproc
 280              	.LFE1:
 281              		.size	VGA_SetDriveMode, .-VGA_SetDriveMode
 282              		.section	.text.VGA_Read,"ax",%progbits
 283              		.align	2
 284              		.global	VGA_Read
 285              		.thumb
 286              		.thumb_func
 287              		.type	VGA_Read, %function
 288              	VGA_Read:
 289              	.LFB2:
  93:Generated_Source\PSoC5/VGA.c **** }
  94:Generated_Source\PSoC5/VGA.c **** 
  95:Generated_Source\PSoC5/VGA.c **** 
  96:Generated_Source\PSoC5/VGA.c **** /*******************************************************************************
  97:Generated_Source\PSoC5/VGA.c **** * Function Name: VGA_Read
  98:Generated_Source\PSoC5/VGA.c **** ****************************************************************************//**
  99:Generated_Source\PSoC5/VGA.c **** *
 100:Generated_Source\PSoC5/VGA.c **** * \brief Reads the associated physical port (pin status register) and masks 
 101:Generated_Source\PSoC5/VGA.c **** *  the required bits according to the width and bit position of the component
 102:Generated_Source\PSoC5/VGA.c **** *  instance. 
 103:Generated_Source\PSoC5/VGA.c **** *
 104:Generated_Source\PSoC5/VGA.c **** * The pin's status register returns the current logic level present on the 
 105:Generated_Source\PSoC5/VGA.c **** * physical pin.
 106:Generated_Source\PSoC5/VGA.c **** *
 107:Generated_Source\PSoC5/VGA.c **** * \return 
 108:Generated_Source\PSoC5/VGA.c **** *  The current value for the pins in the component as a right justified number.
 109:Generated_Source\PSoC5/VGA.c **** *
 110:Generated_Source\PSoC5/VGA.c **** * \funcusage
 111:Generated_Source\PSoC5/VGA.c **** *  \snippet VGA_SUT.c usage_VGA_Read  
 112:Generated_Source\PSoC5/VGA.c **** *******************************************************************************/
 113:Generated_Source\PSoC5/VGA.c **** uint8 VGA_Read(void)
 114:Generated_Source\PSoC5/VGA.c **** {
 290              		.loc 1 114 0
 291              		.cfi_startproc
 292              		@ args = 0, pretend = 0, frame = 0
 293              		@ frame_needed = 0, uses_anonymous_args = 0
 294              		@ link register save eliminated.
 115:Generated_Source\PSoC5/VGA.c ****     return (VGA_PS & VGA_MASK) >> VGA_SHIFT;
 295              		.loc 1 115 0
 296 0000 024B     		ldr	r3, .L8
 297 0002 1878     		ldrb	r0, [r3]	@ zero_extendqisi2
 116:Generated_Source\PSoC5/VGA.c **** }
 298              		.loc 1 116 0
 299 0004 C0F38000 		ubfx	r0, r0, #2, #1
 300 0008 7047     		bx	lr
 301              	.L9:
 302 000a 00BF     		.align	2
 303              	.L8:
 304 000c 21510040 		.word	1073762593
 305              		.cfi_endproc
 306              	.LFE2:
 307              		.size	VGA_Read, .-VGA_Read
ARM GAS  C:\Users\info\AppData\Local\Temp\ccFTwBWD.s 			page 18


 308              		.section	.text.VGA_ReadDataReg,"ax",%progbits
 309              		.align	2
 310              		.global	VGA_ReadDataReg
 311              		.thumb
 312              		.thumb_func
 313              		.type	VGA_ReadDataReg, %function
 314              	VGA_ReadDataReg:
 315              	.LFB3:
 117:Generated_Source\PSoC5/VGA.c **** 
 118:Generated_Source\PSoC5/VGA.c **** 
 119:Generated_Source\PSoC5/VGA.c **** /*******************************************************************************
 120:Generated_Source\PSoC5/VGA.c **** * Function Name: VGA_ReadDataReg
 121:Generated_Source\PSoC5/VGA.c **** ****************************************************************************//**
 122:Generated_Source\PSoC5/VGA.c **** *
 123:Generated_Source\PSoC5/VGA.c **** * \brief Reads the associated physical port's data output register and masks 
 124:Generated_Source\PSoC5/VGA.c **** *  the correct bits according to the width and bit position of the component 
 125:Generated_Source\PSoC5/VGA.c **** *  instance. 
 126:Generated_Source\PSoC5/VGA.c **** *
 127:Generated_Source\PSoC5/VGA.c **** * The data output register controls the signal applied to the physical pin in 
 128:Generated_Source\PSoC5/VGA.c **** * conjunction with the drive mode parameter. This is not the same as the 
 129:Generated_Source\PSoC5/VGA.c **** * preferred VGA_Read() API because the 
 130:Generated_Source\PSoC5/VGA.c **** * VGA_ReadDataReg() reads the data register instead of the status 
 131:Generated_Source\PSoC5/VGA.c **** * register. For output pins this is a useful function to determine the value 
 132:Generated_Source\PSoC5/VGA.c **** * just written to the pin.
 133:Generated_Source\PSoC5/VGA.c **** *
 134:Generated_Source\PSoC5/VGA.c **** * \return 
 135:Generated_Source\PSoC5/VGA.c **** *  The current value of the data register masked and shifted into a right 
 136:Generated_Source\PSoC5/VGA.c **** *  justified number for the component instance.
 137:Generated_Source\PSoC5/VGA.c **** *
 138:Generated_Source\PSoC5/VGA.c **** * \funcusage
 139:Generated_Source\PSoC5/VGA.c **** *  \snippet VGA_SUT.c usage_VGA_ReadDataReg 
 140:Generated_Source\PSoC5/VGA.c **** *******************************************************************************/
 141:Generated_Source\PSoC5/VGA.c **** uint8 VGA_ReadDataReg(void)
 142:Generated_Source\PSoC5/VGA.c **** {
 316              		.loc 1 142 0
 317              		.cfi_startproc
 318              		@ args = 0, pretend = 0, frame = 0
 319              		@ frame_needed = 0, uses_anonymous_args = 0
 320              		@ link register save eliminated.
 143:Generated_Source\PSoC5/VGA.c ****     return (VGA_DR & VGA_MASK) >> VGA_SHIFT;
 321              		.loc 1 143 0
 322 0000 024B     		ldr	r3, .L11
 323 0002 1878     		ldrb	r0, [r3]	@ zero_extendqisi2
 144:Generated_Source\PSoC5/VGA.c **** }
 324              		.loc 1 144 0
 325 0004 C0F38000 		ubfx	r0, r0, #2, #1
 326 0008 7047     		bx	lr
 327              	.L12:
 328 000a 00BF     		.align	2
 329              	.L11:
 330 000c 20510040 		.word	1073762592
 331              		.cfi_endproc
 332              	.LFE3:
 333              		.size	VGA_ReadDataReg, .-VGA_ReadDataReg
 334              		.text
 335              	.Letext0:
 336              		.file 2 "Generated_Source\\PSoC5\\cytypes.h"
ARM GAS  C:\Users\info\AppData\Local\Temp\ccFTwBWD.s 			page 19

