ARM GAS  C:\Users\info\AppData\Local\Temp\cckCo0kV.s 			page 1


   1              		.syntax unified
   2              		.cpu cortex-m3
   3              		.fpu softvfp
   4              		.eabi_attribute 20, 1
   5              		.eabi_attribute 21, 1
   6              		.eabi_attribute 23, 3
   7              		.eabi_attribute 24, 1
   8              		.eabi_attribute 25, 1
   9              		.eabi_attribute 26, 1
  10              		.eabi_attribute 30, 1
  11              		.eabi_attribute 34, 1
  12              		.eabi_attribute 18, 4
  13              		.thumb
  14              		.syntax unified
  15              		.file	"VGA_CLK.c"
  16              		.text
  17              	.Ltext0:
  18              		.section	.gnu.lto_.profile.792a78db,"",%progbits
  19 0000 789C6361 		.ascii	"x\234ca`d`c`\000\222\327\031W0\002\000\005D\001\216"
  19      60646063 
  19      600092D7 
  19      19573002 
  19      00054401 
  20              		.text
  21              		.section	.gnu.lto_.inline.792a78db,"",%progbits
  22 0000 789C6361 		.ascii	"x\234ca`d\000\201\327\014\010\300\315\300\300\311\301"
  22      60640081 
  22      D70C08C0 
  22      CDC0C0C9 
  22      C1
  23 0011 C8C0C4F3 		.ascii	"\310\300\304\363 \226\201m\201<\023H\214\021S\210\211"
  23      2096816D 
  23      813C1348 
  23      8C115388 
  23      89
  24 0022 41461B28 		.ascii	"AF\033(d4\247\203\025.\306\314\300\315\016\024\023\230"
  24      6434A783 
  24      152EC6CC 
  24      C0CD0E14 
  24      1398
  25 0034 E0071762 		.ascii	"\340\007\027ba`a\006\0121]\340\207\013\2612\260\263"
  25      61606106 
  25      0A315DE0 
  25      870BB132 
  25      B0B3
  26 0046 0185380E 		.ascii	"\001\2058\016\330\301\205\330\0308@\032\271\2204\262"
  26      D8C185D8 
  26      1838401A 
  26      B99034B2 
  27 0056 33B0B200 		.ascii	"3\260\262\000\205X\026\310\303\20580\2058\031\0163\330"
  27      855816C8 
  27      C3853830 
  27      8538190E 
  27      33D8
  28 0068 02C52A5E 		.ascii	"\002\305*^\354bA8\215\033Fp1\250*\003em\372\3263b\221"
  28      EC624138 
  28      8D1B4670 
ARM GAS  C:\Users\info\AppData\Local\Temp\cckCo0kV.s 			page 2


  28      31A82A03 
  28      656DFAD6 
  29 007f 65000044 		.ascii	"e\000\000Da\030\325"
  29      6118D5
  30              		.text
  31              		.section	.gnu.lto_.jmpfuncs.792a78db,"",%progbits
  32 0000 789C45CA 		.ascii	"x\234E\312\307\015\300 \000\300\300#t\030\204\3757\244"
  32      C70DC020 
  32      00C0C023 
  32      741884FD 
  32      37A4
  33 0012 7C62C91F 		.ascii	"|b\311\037\313IpY~\346\361\324\217H\"S\2504\372\035"
  33      CB497059 
  33      7EE6F1D4 
  33      8F482253 
  33      A834FA1D 
  34 0026 C6DB360E 		.ascii	"\306\3336\016e\000o"
  34      65006F
  35              		.text
  36              		.section	.gnu.lto_.pureconst.792a78db,"",%progbits
  37 0000 789C05C1 		.ascii	"x\234\005\301\207\015\000 \014\300\260\024\012e\034"
  37      870D0020 
  37      0CC0B014 
  37      0A651C
  38 000f 8094FF0F 		.ascii	"\200\224\377\017\305N\202\007\\\014\233\335t8-\227\333"
  38      C54E8207 
  38      5C0C9BDD 
  38      74382D97 
  38      DB
  39 0020 E3071224 		.ascii	"\343\007\022$\001}"
  39      017D
  40              		.text
  41              		.section	.gnu.lto_VGA_CLK_Start.792a78db,"",%progbits
  42 0000 789C6361 		.ascii	"x\234ca`d\000\201\035@J\031HK\0031#3\003#\323\204s\014"
  42      60640081 
  42      1D404A19 
  42      484B0331 
  42      23330323 
  43 0018 0C8D1C4C 		.ascii	"\014\215\034L\214\214 F\003\007#C=\023c=\343W\246\277"
  43      8C8C2046 
  43      03072343 
  43      3D13633D 
  43      E357A6BF 
  44 002c 4C8C87DA 		.ascii	"L\214\207\332\237\355d\322\\\336\000\004\017\226Ngn"
  44      9FED64D2 
  44      5CDE0004 
  44      0F964E67 
  44      6E
  45 003d 587180B1 		.ascii	"Xq\200\261\225\231\201\341?\023\330$\006\306\345\214"
  45      959981E1 
  45      3F13D824 
  45      06C6E58C 
  46 004d 9A0C4065 		.ascii	"\232\014@e\2176\376\233\312\313\326\002R\246\000\221"
  46      8F36FE9B 
  46      CACBD602 
  46      52A60091 
  47 005d 645CC1C8 		.ascii	"d\\\301\310\006\262n}\320\201\206\377\377\233\033\016"
ARM GAS  C:\Users\info\AppData\Local\Temp\cckCo0kV.s 			page 3


  47      06B26E7D 
  47      D08186FF 
  47      FF9B1B0E 
  48 006d EC655DC9 		.ascii	"\354e]\311\314\301\304\320\312\014\264\022H\260\202"
  48      CCC1C4D0 
  48      CA0CB412 
  48      48B082
  49 007c 083610C1 		.ascii	"\0106\020\301\300\360\001\250\001d\365G&&\020\315\374"
  49      C0F001A8 
  49      0164F547 
  49      262610CD 
  49      FC
  50 008d 8CF1D0AF 		.ascii	"\214\361\320\257\256c\333XAf43\203\2341\255\365\320"
  50      AE63DB58 
  50      41663433 
  50      839C31AD 
  50      F5D0
  51 009f 79F62F4C 		.ascii	"y\366/L\255\314L\214 \353\216\316:\265\223\007\302]"
  51      ADCC4C8C 
  51      20EB8ECE 
  51      3AB59307 
  51      C25D
  52 00b1 D4DED8C0 		.ascii	"\324\336\330\300\002\024Z|\363\355\003\276\371\214s"
  52      02145A7C 
  52      F3ED03BE 
  52      F98C73
  53 00c0 1B5B800E 		.ascii	"\033[\200\016df\\\305(\303\270\222Q\006\350\216\325"
  53      64665CC5 
  53      28C3B892 
  53      5106E88E 
  53      D5
  54 00d1 8CF31919 		.ascii	"\214\363\031\031\23616\377`\203\030\307\0141q\313\221"
  54      9E3136FF 
  54      608318C7 
  54      0C3171CB 
  54      91
  55 00e2 E36D1C20 		.ascii	"\343m\034 #\030\201`\015P%\320\322i\214 %\370\014[\013"
  55      23188160 
  55      0D5025D0 
  55      D2698C20 
  55      25F80C5B 
  56 00f7 340C6804 		.ascii	"4\014h\004\003\330\205\347\226A]\310\012\3242\375\335"
  56      03D885E7 
  56      96415DC8 
  56      0AD432FD 
  56      DD
  57 0108 FC5E5E88 		.ascii	"\374^^\210\2236A\235\364\345\376\261\273\\\010S\326"
  57      9336419D 
  57      F4E5FEB1 
  57      BB5C0853 
  57      D6
  58 0119 C14D598F 		.ascii	"\301MY\217\346$\220\021\030n\300\251{\003\330\015l\014"
  58      E6249011 
  58      186EC0A9 
  58      7B03D80D 
  58      6C0C
  59 012b AF189B0E 		.ascii	"\257\030\233\016\\\005\273\000\034\025\037\200A\003"
ARM GAS  C:\Users\info\AppData\Local\Temp\cckCo0kV.s 			page 4


  59      5C05BB00 
  59      1C151F80 
  59      4103
  60 0139 0C3C6050 		.ascii	"\014<`P*\272\247\346\245\026%\226\244\246\304\007\347"
  60      2ABAA7E6 
  60      A5162596 
  60      A4A6C407 
  60      E7
  61 014a 971625A7 		.ascii	"\227\026%\247\306\004\004\347;\233\306\204\271;\306"
  61      C60404E7 
  61      3B9BC684 
  61      B93BC6
  62 0159 3BFB78EB 		.ascii	";\373x\353%3\000\000\243\265\232\356"
  62      25330000 
  62      A3B59AEE 
  63              		.text
  64              		.section	.gnu.lto_VGA_CLK_Stop.792a78db,"",%progbits
  65 0000 789C6361 		.ascii	"x\234ca`d\000\201]@J\031HK\0031#3\003#\323\204s\014"
  65      60640081 
  65      5D404A19 
  65      484B0331 
  65      23330323 
  66 0018 0C8D1C4C 		.ascii	"\014\215\034L\214\214 F\003\007#C=\023c=\343W\246\277"
  66      8C8C2046 
  66      03072343 
  66      3D13633D 
  66      E357A6BF 
  67 002c 4C8C87DA 		.ascii	"L\214\207\332\237\355d\322\\\336\000\004\017\236>6h"
  67      9FED64D2 
  67      5CDE0004 
  67      0F9E3E36 
  67      68
  68 003d 587180B1 		.ascii	"Xq\200\261\225\231\201\341?\023\330$\006\306\345\214"
  68      959981E1 
  68      3F13D824 
  68      06C6E58C 
  69 004d 9A0C4065 		.ascii	"\232\014@e\2176\376\233\312\313\326\002R\246\000\221"
  69      8F36FE9B 
  69      CACBD602 
  69      52A60091 
  70 005d 645CC1C8 		.ascii	"d\\\301\310\006\262n}\320\201\206\377\377\233\033\016"
  70      06B26E7D 
  70      D08186FF 
  70      FF9B1B0E 
  71 006d 6C643BB8 		.ascii	"ld;\270\203\215\203\211\241\225\031h'\220`\005\021l"
  71      838D8389 
  71      A1951968 
  71      27906005 
  71      116C
  72 007f 208281E1 		.ascii	" \202\201\341\003P\007\310\356\217LL \232\371\031\343"
  72      035007C8 
  72      EE8F4C4C 
  72      209AF919 
  72      E3
  73 0090 A15F5DD7 		.ascii	"\241_]\327f\206\201\014if\006\271cZ\353\241\363\354"
  73      6686810C 
  73      696606B9 
ARM GAS  C:\Users\info\AppData\Local\Temp\cckCo0kV.s 			page 5


  73      635AEBA1 
  73      F3EC
  74 00a2 5F985A99 		.ascii	"_\230Z\231\231\030A\366\035\235uj'\017\204\273\250\275"
  74      991841F6 
  74      1D9D756A 
  74      270F84BB 
  74      A8BD
  75 00b4 B1810528 		.ascii	"\261\201\005(\264\370\346\333\007|\363\031\3476\266"
  75      B4F8E6DB 
  75      077CF319 
  75      E736B6
  76 00c3 005DC8CC 		.ascii	"\000]\310\314\270\212Q\206q%\243\014\320!\253\031\347"
  76      B88A5186 
  76      7125A30C 
  76      D021AB19 
  76      E7
  77 00d4 33323C63 		.ascii	"32<cl\376\303\0061\216\031b\342\355\356kSxAF03\376c"
  77      6CFEC306 
  77      318E1962 
  77      E2EDEE6B 
  77      53784146 
  78 00ec 645C0354 		.ascii	"d\\\003T\012\264u\032#H\015>\323\326\002M\003\232\301"
  78      0AB4751A 
  78      23480D3E 
  78      D3D6024D 
  78      039AC1
  79 00ff 0076E2BD 		.ascii	"\000v\342\275\231!\0203Y\201Z\246\277\233\337\313\013"
  79      99211033 
  79      59815AA6 
  79      BF9BDFCB 
  79      0B
  80 0110 71D326A8 		.ascii	"q\323&\250\233\276\334?v\227\013a\312:\270)\353\321"
  80      9BBEDC3F 
  80      76970B61 
  80      CA3AB829 
  80      EBD1
  81 0122 DC043202 		.ascii	"\334\0042\002\303\0158uo\000\273\201\215\341\025c\323"
  81      C30D3875 
  81      6F00BB81 
  81      8DE11563 
  81      D3
  82 0133 819D6E20 		.ascii	"\201\235n \325\340\310\370\000\014\033`\350\001\303"
  82      D5E0C8F8 
  82      000C1B60 
  82      E801C3
  83 0142 52D13D35 		.ascii	"R\321=5/\265(\261$5%>8\277\264(95& 8\337\3314&\314\335"
  83      2FB528B1 
  83      2435253E 
  83      38BFB428 
  83      39352620 
  84 015d 31DED9C7 		.ascii	"1\336\331\307[/\231\001\000D\371\236D"
  84      5B2F9901 
  84      0044F99E 
  84      44
  85              		.text
  86              		.section	.gnu.lto_VGA_CLK_StopBlock.792a78db,"",%progbits
  87 0000 789C8D94 		.ascii	"x\234\215\224\337OTG\024\307\347\314\334\037\273\313"
ARM GAS  C:\Users\info\AppData\Local\Temp\cckCo0kV.s 			page 6


  87      DF4F5447 
  87      14C7E7CC 
  87      DC1FBBCB 
  88 0010 AE0B9107 		.ascii	"\256\013\221\007\037L\243\211>\370\242&\255\177\200"
  88      1F4CA389 
  88      3EF8A226 
  88      AD7F80
  89 001f A1A949F5 		.ascii	"\241\251I\365\301h\322\324D%*\373`4b\210\355\243\316"
  89      C168D2D4 
  89      44252AFB 
  89      60346288 
  89      EDA3CE
  90 0032 FE1283D6 		.ascii	"\376\022\203\326\212\261\320\264\332M\272\017\256?\021"
  90      8AB1D0B4 
  90      DA4DBA0F 
  90      AE3F11
  91 0041 7FA05494 		.ascii	"\177\240T\224+\210(\"*A\215%\255\026\225\030S\233\335"
  91      2B882822 
  91      2A418D25 
  91      AD169518 
  91      539BDD
  92 0054 8AAD4261 		.ascii	"\212\255Ba{\346\236\341\362\243bz\223{\356\235\2313"
  92      7BE69EE1 
  92      F2A3627A 
  92      937BEE9D 
  92      9933
  93 0066 9FF9CE39 		.ascii	"\237\371\3169g\306`\300\324Sb16\037\277\245\370\202"
  93      67C660C0 
  93      D4536231 
  93      361FBFA5 
  93      F882
  94 0078 8F01DFD7 		.ascii	"\217\001\337\327\305X\324\307\271\350Y\300d\300j\372"
  94      C558D4C7 
  94      B9E859C0 
  94      64C06AFA 
  95 0088 80C9A000 		.ascii	"\200\311\240\000\203\272\015n\357ig\330o&l\354\267\251"
  95      83BA0D6E 
  95      EF6967D8 
  95      6F266CEC 
  95      B7A9
  96 009a 7FB10916 		.ascii	"\177\261\011\026\215[\000\352G\372\200\355\340\302\260"
  96      8D5B00EA 
  96      47FA80ED 
  96      E0C2B0
  97 00a9 4D0B7670 		.ascii	"M\013vp\203\321\363\232\017sh\251\354o\344\363\016K"
  97      83D1F39A 
  97      0F7368A9 
  97      EC6FE4F3 
  97      0E4B
  98 00bb 7C1E275F 		.ascii	"|\036'_-\224\031\007\222\202\261<'\0378\014\363\030"
  98      2D941907 
  98      9282B13C 
  98      271F380C 
  98      F318
  99 00cd BAF5D58F 		.ascii	"\272\365\325\217|\023\262\022\312m\026\015B\006,\224"
  99      7C13B212 
  99      CA6D160D 
ARM GAS  C:\Users\info\AppData\Local\Temp\cckCo0kV.s 			page 7


  99      42062C94 
 100 00dd 0C38D896 		.ascii	"\0148\330\226\377\333\011\017\360\244\000P\310\356l"
 100      FFDB090F 
 100      F0A40050 
 100      C8EE6C
 101 00ec E7A102D5 		.ascii	"\347\241\002\325\344P\210\315\275\317\216>\010\2129"
 101      E45088CD 
 101      BDCF8E3E 
 101      088A39
 102 00fb A030BDF1 		.ascii	"\2400\275\361c\017Bs\323R\306\244s\246\262\370[\351"
 102      630F4273 
 102      D352C6A4 
 102      73A6B2F8 
 102      5BE9
 103 010d C4662585 		.ascii	"\304f%\205\200c \020\012Ga&\034\201\231\264\362q\230"
 103      80632010 
 103      0A476126 
 103      1C8199B4 
 103      F27198
 104 0120 5BB7C291 		.ascii	"[\267\302\221\371|\\:\337\333W\032\00238K\012\303P\306"
 104      F97C5C3A 
 104      DFDB571A 
 104      0233384B 
 104      0AC350C6 
 105 0134 54C6AF4C 		.ascii	"T\306\257L@\231\240\353\035V\277\205\312\024)3]\231"
 105      4099A0EB 
 105      1D56BF85 
 105      CA142933 
 105      5D99
 106 0146 626518CB 		.ascii	"be\030\313\242\342\326\002\226\343\034?\242\037Z\006"
 106      A2E2D602 
 106      96E31C3F 
 106      A21F5A06 
 107 0156 ABFE3AF8 		.ascii	"\253\376:\370\221\332B\\\030\250\253&\331r\333V\222"
 107      91DA425C 
 107      18A8AB26 
 107      D972DB56 
 107      92
 108 0167 4D5766DB 		.ascii	"MWf\333w\035\215Aj\376X\031\225\312#\375\360\345\343"
 108      771D8D41 
 108      6AFE5819 
 108      95CA23FD 
 108      F0E5E3
 109 017a 69293814 		.ascii	"i)8\024M`|,8\211JO(\245P\007)`\375\020\377\347\023\026"
 109      4D607C2C 
 109      38894A4F 
 109      28A55007 
 109      2960FD10 
 110 0192 179C7067 		.ascii	"\027\234pg\257\266\357\364\251\371\006\000\234B\267"
 110      AFB6EFF4 
 110      A9F90600 
 110      9C42B7
 111 01a1 DF20D11B 		.ascii	"\337 \321\033_O\353\251\020\325\375\336\3706D\016\014"
 111      5F4FEBA9 
 111      10D5FDDE 
 111      F836440E 
 111      0C
ARM GAS  C:\Users\info\AppData\Local\Temp\cckCo0kV.s 			page 8


 112 01b2 EAF58E73 		.ascii	"\352\365\216s\\\260\204\255\324\015d_\3365'E]\355\320"
 112      5CB084AD 
 112      D40D645F 
 112      DE352745 
 112      5DEDD0
 113 01c5 0D3AAE79 		.ascii	"\015:\256y\032,\034\035\352\352\276\347#\225QI*\223"
 113      1A2C1C1D 
 113      EAEABEE7 
 113      23955149 
 113      2A93
 114 01d7 C7D30743 		.ascii	"\307\323\007C\256\312\250\224\0372\245\364\214\247\364"
 114      AECAA894 
 114      1F32A5F4 
 114      8CA7F4
 115 01e6 2C2A1DBF 		.ascii	",*\035\277WL\037\234\303\021\265\340\251\327Q[co=\375"
 115      574C1F9C 
 115      C311B5E0 
 115      A9D7515B 
 115      636F3DFD 
 116 01fa 33A763B1 		.ascii	"3\247c\261Oc\337\016\275\3314\221\332\340Q\317\023\365"
 116      4F63DF0E 
 116      BDD93491 
 116      DAE051CF 
 116      13F5
 117 020c 5C65677D 		.ascii	"\\eg}\200\250\000\02745;F\275\364\274\271\312O\324\003"
 117      80A80017 
 117      34353B46 
 117      BDF4BCB9 
 117      CA4FD403 
 118 0220 9ADAD353 		.ascii	"\232\332\323S\233\366O\3046z\330\237\020;\252n\260j"
 118      9BF64FC4 
 118      367AD89F 
 118      103BAA6E 
 118      B06A
 119 0232 E487AD8A 		.ascii	"\344\207\255\212\023\027~\234\367t\177\333\363\020\241"
 119      13177E9C 
 119      F7747FDB 
 119      F310A1
 120 0241 766954D3 		.ascii	"viT\323\315\264\023\036\313\316E\017\3234\232\035\213"
 120      CDB4131E 
 120      CBCE450F 
 120      D3349A1D 
 120      8B
 121 0252 E6070831 		.ascii	"\346\007\0101t\275\2779Lj\363\014.\32125\240\265NI\273"
 121      74BDBF39 
 121      4C6AF30C 
 121      2ED13235 
 121      A0B54E49 
 122 0267 8C346490 		.ascii	"\2144d\220\246\256\324\347\304\014\216\017\252Mu\376"
 122      A6AED4E7 
 122      C40C8E0F 
 122      AA4D75FE 
 123 0277 30B5A780 		.ascii	"0\265\247\200\2322J\022k\237e\372\214\321\335\256\301"
 123      9A324A12 
 123      6B9F65FA 
 123      8CD1DDAE 
 123      C1
ARM GAS  C:\Users\info\AppData\Local\Temp\cckCo0kV.s 			page 9


 124 0288 DDFAC041 		.ascii	"\335\372\300Ap\263\013\276\242d\366AL\256RH\225j\304"
 124      70B30BBE 
 124      A264F641 
 124      4CAE5248 
 124      956AC4
 125 029b BA9AEA87 		.ascii	"\272\232\352\207\253\205\226\345\255\341w\327\270\320"
 125      AB8596E5 
 125      ADE177D7 
 125      B8D0
 126 02a9 E07CEDA3 		.ascii	"\340|\355\243fL\207\241\371\311\317\325bTx\000Z\221"
 126      664C87A1 
 126      F9C9CFD5 
 126      62547800 
 126      5A91
 127 02bb DFE2F2AF 		.ascii	"\337\342\362\257\272\302\203\224\224\341\273\246&\276"
 127      BAC28394 
 127      94E1BBA6 
 127      26BE
 128 02c9 B75CDA28 		.ascii	"\267\\\332(\2617:j3A\012\225\015\327\334R\315\341\025"
 128      B1373A6A 
 128      33410A95 
 128      0DD7DC52 
 128      CDE115
 129 02dc 82D78A3E 		.ascii	"\202\327\212>G\251\025\024\206\360\004 L\204\265\217"
 129      47A91514 
 129      86F00420 
 129      4C84B58F 
 130 02ec 3F25263A 		.ascii	"?%&:\217\035\213\3554\335\364\316A\226\333\014o5\310"
 130      8F1D8BED 
 130      34DDF4CE 
 130      4196DB0C 
 130      6F35C8
 131 02ff 71539F87 		.ascii	"qS\237\207\301\252\373\231\265\344V\370\276\263x}R\266"
 131      C1AAFB99 
 131      B5E456F8 
 131      BEB3787D 
 131      52B6
 132 0311 8BC8BF77 		.ascii	"\213\310\277w\367\375\003!\332\302\010\300\215I\331"
 132      F7FD0321 
 132      DAC208C0 
 132      8D49D9
 133 0320 9E92D6E1 		.ascii	"\236\222\326\341\006\255\210\262\375k\246\202\230\323"
 133      06AD88B2 
 133      FD6BA682 
 133      98D3
 134 032e 552EFF48 		.ascii	"U.\377H}\245+\360\264\276\037\006\036]\373%0F\271\351"
 134      7DA52BF0 
 134      B4BE1F06 
 134      1E5DFB25 
 134      3046B9E9 
 135 0342 513A2769 		.ascii	"Q:'i*F\304\1774L9\373\226\253\241\230\022\327\336\375"
 135      2A46C47F 
 135      344C39FB 
 135      96ABA198 
 135      12D7DEFD 
 136 0356 BF12D735 		.ascii	"\277\022\3275\356\350\324Twr=\307\253I\377;j\322\255"
 136      EEE8D454 
ARM GAS  C:\Users\info\AppData\Local\Temp\cckCo0kV.s 			page 10


 136      77723DC7 
 136      AB49FF3B 
 136      6AD2AD
 137 0369 97DB5EBD 		.ascii	"\227\333^\275\334\321\365\242rm\251+\363\005\304\234"
 137      DCD1F5A2 
 137      726DA92B 
 137      F305C49C 
 138 0379 F39FD2F5 		.ascii	"\363\237\322\365\343\246\010\260\027/\325\331K\"[\""
 138      E3A608B0 
 138      172FD5D9 
 138      4B225B22 
 139 0389 15EBB645 		.ascii	"\025\353\266E\312JW\226\177Q\261!\262z\371\312\362\222"
 139      CA4A5796 
 139      7F51B121 
 139      B27AF9CA 
 139      F292
 140 039b 45AB3F5B 		.ascii	"E\253?[\262\270\264d\331\322\371\033X\240|s\331\307"
 140      B2B8B464 
 140      D9D2F91B 
 140      58A07C73 
 140      D9C7
 141 03ad 1BBFDC58 		.ascii	"\033\277\334X\026\251\370\0276),-"
 141      16A9F817 
 141      36292C2D 
 142              		.text
 143              		.section	.gnu.lto_VGA_CLK_StandbyPower.792a78db,"",%progbits
 144 0000 789C8D51 		.ascii	"x\234\215Q\317K\324A\024\177\237\231\371\356~\331\332"
 144      CF4BD441 
 144      147F9F99 
 144      F9EE7ED9 
 144      DA
 145 0011 FF609182 		.ascii	"\377`\221\202@\026\"\223\354*\204\007\017v\210\204N"
 145      40162293 
 145      EC2A8407 
 145      0F768884 
 145      4E
 146 0022 8A84ED35 		.ascii	"\212\204\3555a\323\263\263\356\256\202\021\004\265v"
 146      61D3B3B3 
 146      EEAE8211 
 146      04B576
 147 0031 DAF6245A 		.ascii	"\332\366$Z\376\330\264:\010\036\276-Q7\273H\007E\372"
 147      FED8B43A 
 147      081EBE2D 
 147      5137BB48 
 147      0745FA
 148 0044 71D88388 		.ascii	"q\330\203\210\256d\220\242n\357\315\330U\032\2307o\336"
 148      AE6490A2 
 148      6EEFCDD8 
 148      551A9837 
 148      6FDE
 149 0056 7CDEE77D 		.ascii	"|\336\347}\336\033C Y\035\212(\315g'o\304\010\352\351"
 149      DE1B4320 
 149      591D8A28 
 149      CD67276F 
 149      C408EAE9 
 150 006a 1A512E54 		.ascii	"\032Q.TJ\257\266\220M\230\3656\262\0275\002\0376\377"
 150      4AAFB690 
ARM GAS  C:\Users\info\AppData\Local\Temp\cckCo0kV.s 			page 11


 150      4D98F536 
 150      B2173502 
 150      1F36FF
 151 007d 9C0010C7 		.ascii	"\234\000\020\307\206\240Q\245M\200Q\374V'\012\265\211"
 151      86A051A5 
 151      4D8051FC 
 151      56270AB5 
 151      89
 152 008e FA8A4ACF 		.ascii	"\372\212J\317X^\337\247\253\355v6BQ\0235\225+F\230A"
 152      585EDFA7 
 152      ABED7636 
 152      42511335 
 152      952B4698 
 153 00a3 9A515BE5 		.ascii	"\232Q[\345\275_F_\001\261_\216\3367t\353\264\265c\326"
 153      BD5F465F 
 153      01B15F8E 
 153      DE3774EB 
 153      B4B563D6 
 154 00b7 3EEBB7BA 		.ascii	">\353\267\272\250\201Yh\316\300\215\024\256\247\210"
 154      A8815968 
 154      CEC08D14 
 154      AEA788
 155 00c6 03845768 		.ascii	"\003\204Wh\025\360\317\245\323R2V\020\372K\236\024\257"
 155      15F0CFA5 
 155      D3523256 
 155      10FA4B9E 
 155      14AF
 156 00d8 11934EAA 		.ascii	"\021\223N\252w#\333l\346mt\222\370\360\362BBAR\014'"
 156      7723DB6C 
 156      E66D7492 
 156      F8F0F242 
 156      4241520C 
 157 00ed AB404C5C 		.ascii	"\253@L\\L(\206\250\301[\304\357+%\247\376\201\302F\276"
 157      4C2886A8 
 157      C15BC4EF 
 157      2B25A7FE 
 157      81C246BE 
 158 0101 598A0B55 		.ascii	"Y\212\013U^K\027\325\235\225\303\344\201b4\227\236C"
 158      5E4B17D5 
 158      9D95C3E4 
 158      81623497 
 158      9E43
 159 0113 CA69DF57 		.ascii	"\312i\337W\232V[t\035\265\243\311\265\371\254G\033F"
 159      9A565B74 
 159      1DB5A3C9 
 159      B5F9AC47 
 159      1B46
 160 0125 4F156B5F 		.ascii	"O\025k_\342\202\326\256\241\027\273\225'I\177]\236\310"
 160      E282D6AE 
 160      A117BB95 
 160      27497F5D 
 160      9EC8
 161 0137 59411C7C 		.ascii	"YA\034|\373\264\225\250\240\234+\3604\014\026\220\302"
 161      FBB495A8 
 161      A09C2BF0 
 161      340C1690 
 161      C2
ARM GAS  C:\Users\info\AppData\Local\Temp\cckCo0kV.s 			page 12


 162 0148 BCB06211 		.ascii	"\274\260b\021\025P\035\371\343\230\247\013<\343\346"
 162      15501DF9 
 162      E398A70B 
 162      3CE3E6
 163 0157 E3AFCF1D 		.ascii	"\343\257\317\035\205\301)Pe(W\235\202`\316c{\303l\314"
 163      85C12950 
 163      6528579D 
 163      8260CE63 
 163      7BC36CCC 
 164 016b E1B41A5A 		.ascii	"\341\264\032Zo\363Z\267\257z\356\370y\251KgB\376\234"
 164      6FF35AB7 
 164      AF7AEEF8 
 164      79A94B67 
 164      42FE9C
 165 017e 09093DFE 		.ascii	"\011\011=\376\335\307\317\343\241\037\004\260\374\277"
 165      DDC7CFE3 
 165      A11F04B0 
 165      FCBF
 166 018c 3ADE3A1D 		.ascii	":\336:\035\241\323\021\270\021oc,\252\364H\236\033e"
 166      A1D311B8 
 166      116F632C 
 166      AAF4489E 
 166      1B65
 167 019e 83E7CA61 		.ascii	"\203\347\312a\376\207\313\335\231\207\231\354\375\341"
 167      FE87CBDD 
 167      998799EC 
 167      FDE1
 168 01ac CC8381DE 		.ascii	"\314\203\201\336\241\221\354`\246\357N\357P\327\315"
 168      A191EC60 
 168      A6EF4EEF 
 168      50D7CD
 169 01bb BE7BDDB7 		.ascii	"\276{\335\267\006\272n\367\\\033\244\340\3210?\377\005"
 169      06BA6EF7 
 169      5C1BA4E0 
 169      D1303FFF 
 169      05
 170 01cc F690C934 		.ascii	"\366\220\3114"
 171              		.text
 172              		.section	.gnu.lto_VGA_CLK_GetDividerRegister.792a78db,"",%progbits
 173 0000 789C6361 		.ascii	"x\234ca`d\000\201\237@\254\014\304\322@\314\310\314"
 173      60640081 
 173      9F40AC0C 
 173      C4D240CC 
 173      C8CC
 174 0012 C0C834E1 		.ascii	"\300\3104\341\034\003C#\007\023##\210\321\300\301\310"
 174      1C034323 
 174      07132323 
 174      88D1C0C1 
 174      C8
 175 0023 50CFC458 		.ascii	"P\317\304X\317\370\225\351/\023\343\321\377\337\017"
 175      CFF895E9 
 175      2F13E3D1 
 175      FFDF0F
 176 0032 F07F616A 		.ascii	"\360\177aj\005)\003r/}83\227\033\304ed\024\000rW-Y\377"
 176      05290372 
 176      2F7D3833 
 176      971BC465 
ARM GAS  C:\Users\info\AppData\Local\Temp\cckCo0kV.s 			page 13


 176      64140072 
 177 004a 89437379 		.ascii	"\211CsyCCS\303\203\245\333\234\032\233[5Z\231\231\030"
 177      434353C3 
 177      83A5DB9C 
 177      1A9B5B35 
 177      5A999918 
 178 005e FE333130 		.ascii	"\376310\256`\224a\\\316(\003\262b%\243&\003P\361\243"
 178      AE609461 
 178      5CCE2803 
 178      B26225A3 
 178      260350F1 
 179 0073 8DFFA6F2 		.ascii	"\215\377\246\362\262\2654\000\201\002H\011Pf\025#\033"
 179      B2B53400 
 179      81024809 
 179      50661523 
 179      1B
 180 0084 C849EB83 		.ascii	"\310I\353\203\0164\374\377\337\334p`\253\360\301\035"
 180      0E34FCFF 
 180      DFDC7060 
 180      ABF0C11D 
 181 0094 C2400340 		.ascii	"\302@\003@\2060|\000b\220\203>21\201h\346g\214\207~"
 181      86307C00 
 181      6290833E 
 181      32318168 
 181      E6678C87 
 182 00a9 75DD3B6B 		.ascii	"u\335;k\001\322\325\314\014r\315\264\326C\347\331A\256"
 182      01D2D5CC 
 182      0C72CDB4 
 182      D643E7D9 
 182      41AE
 183 00bb 61660459 		.ascii	"af\004Yp\373\346\374\036n\010\267\241\261\261\201\005"
 183      70FBE6FC 
 183      1E6E08B7 
 183      A1B1B181 
 183      05
 184 00cc 2834FDE9 		.ascii	"(4\375\351\212G,\363\031\3476\2660\2662\2630\256\001"
 184      8A472CF3 
 184      19E736B6 
 184      30B632B3 
 184      30AE01
 185 00df 3A6A35C8 		.ascii	":j5\310Q\214k\031\34732\274bd\202\032\006\012\226\017"
 185      518C6B19 
 185      E73332BC 
 185      6264821A 
 185      060A960F 
 186 00f3 4C8C207B 		.ascii	"L\214 {\200lE\367\324\274\324\242\304\222\324\224\370"
 186      806C45F7 
 186      D4BCD4A2 
 186      C492D494 
 186      F8
 187 0104 E0FCD2A2 		.ascii	"\340\374\322\242\344\324\230\200\340|g\323\2300w\307"
 187      E4D49880 
 187      E07C67D3 
 187      983077C7 
 188 0114 78671F6F 		.ascii	"xg\037o\275d\006\000-\253dm"
 188      BD640600 
 188      2DAB646D 
ARM GAS  C:\Users\info\AppData\Local\Temp\cckCo0kV.s 			page 14


 189              		.text
 190              		.section	.gnu.lto_VGA_CLK_SetModeRegister.792a78db,"",%progbits
 191 0000 789C7D51 		.ascii	"x\234}Q\317K\033A\024~\337\314f\023\024\361\346\245"
 191      CF4B1B41 
 191      147EDFCC 
 191      661314F1 
 191      E6A5
 192 0012 39581024 		.ascii	"9X\020$\027--\376\001\255\007\017U\020\0039H$H\262\207"
 192      172D2DFE 
 192      01AD070F 
 192      55100339 
 192      482448B2 
 193 0027 52346053 		.ascii	"R4`S\350\315\331\215\213\320\223\027\003\"\322^$\251"
 193      E8CDD98D 
 193      8BD09317 
 193      0322D25E 
 193      24A9
 194 0039 3F11BC88 		.ascii	"?\021\274\210\245\256{\023\212B/\"T(\012\021zJKm\213"
 194      A5AE7B13 
 194      8A422F22 
 194      54280A11 
 194      7A4A4B6D 
 195 004e C4A6EF25 		.ascii	"\304\246\357%=x\352\300\314{\337\267\337\373\346\275"
 195      3D78EAC0 
 195      CC7BDFB7 
 195      DFFBE6BD 
 196 005e 1D8B40B2 		.ascii	"\035\213@\262\002\016\375\034\357\361\206&\250\205c"
 196      020EFD1C 
 196      EFF18626 
 196      A88563
 197 006d 2237A600 		.ascii	"\"7\246\000IL\0144\2530\213ku\253\020\316W\367T\242"
 197      494C0C34 
 197      AB308B6B 
 197      75AB10CE 
 197      57F754A2 
 198 0081 6C787DF1 		.ascii	"lx}\361\257\036\232J\000_\0235T\323\211PF\202U\336\362"
 198      AF1E9A4A 
 198      005F1335 
 198      54D38950 
 198      468255DE 
 199 0096 AF4B4BF7 		.ascii	"\257KK\367\2008\257\177<\377\334\326\273j\214g\314\322"
 199      8038AF7F 
 199      3CFFDCD6 
 199      BB6A8C67 
 199      CCD2
 200 00a8 84D1BE06 		.ascii	"\204\321\276\006*\320\\\201Gq<\210\023\023\204w\350"
 200      2AD05C81 
 200      47713C88 
 200      13138477 
 200      E8
 201 00b9 15F1C5CE 		.ascii	"\025\361\305\316\237\305\016{N\354\273[\246X\203-mn"
 201      9FC50E7B 
 201      4EECBB5B 
 201      A658832D 
 201      6D6E
 202 00cb 8F05A6D1 		.ascii	"\217\005\246\321(\232`\277\353\360CW\233\3422\245\371"
 202      289A60BF 
ARM GAS  C:\Users\info\AppData\Local\Temp\cckCo0kV.s 			page 15


 202      EBF04357 
 202      9BE232A5 
 202      F9
 203 00dc D016A438 		.ascii	"\320\026\2448\"\251-GT\216\230|&\252\361\226\031\276"
 203      22A92D47 
 203      548E987C 
 203      26AAF196 
 203      19BE
 204 00ee 29255157 		.ascii	")%QW\021\336\274\376y6.\246E-\363\224\374\360$\372C"
 204      11DEBCFE 
 204      79362EA6 
 204      452DF394 
 204      FCF024FA 
 205 0103 F96C23F7 		.ascii	"\371l#\367\277\177{v\032iA\317u\215\305\324u\335;\302"
 205      BF7F7B76 
 205      1A6941CF 
 205      758DC5D4 
 205      75DD3BC2 
 206 0117 1BACB873 		.ascii	"\033\254\270s<i\004\033\210c\035qnl\223Y\252\302\373"
 206      3C69041B 
 206      88631D71 
 206      6E6C9359 
 206      AAC2FB
 207 012a 1E6DD969 		.ascii	"\036m\331iv\274\213#Em1.\326\355\026\026\212\375\374"
 207      76BC8B23 
 207      456D312E 
 207      D6ED1616 
 207      8AFDFC
 208 013d 4F8BBB9D 		.ascii	"O\213\273\235r\205\306+l\261\023K~\377\223D\233.\366"
 208      7285C62B 
 208      6CB1134B 
 208      7EFF9344 
 208      9B2EF6
 209 0150 5D9718B3 		.ascii	"]\227\030\263\214\303\022\004\377\257\237mfYO_\341\005"
 209      8CC31204 
 209      FFAF9F6D 
 209      66594F5F 
 209      E105
 210 0162 07295137 		.ascii	"\007)Q7\237\244\246 \263\363\237\270?\344L;3\223\005"
 210      9FA4A620 
 210      B3F39FB8 
 210      3FE44C3B 
 210      339305
 211 0175 279749E6 		.ascii	"'\227I\346_\316d\235\364h2?8\220N\015=\316\014\016?"
 211      5FCE649D 
 211      F468323F 
 211      38904E0D 
 211      3DCE0C0E 
 212 018a EDCB52FB 		.ascii	"\355\313R\373T>\347<yV\030\231|\361\374/\031\311\234"
 212      543EE73C 
 212      79561899 
 212      7CF1FC2F 
 212      19C99C
 213 019d 93       		.ascii	"\223"
 214              		.text
 215              		.section	.gnu.lto_VGA_CLK_ClearModeRegister.792a78db,"",%progbits
 216 0000 789C7D50 		.ascii	"x\234}P\317+\204Q\024\275\347\275o\306D\326\026fA)\331"
ARM GAS  C:\Users\info\AppData\Local\Temp\cckCo0kV.s 			page 16


 216      CF2B8451 
 216      14BDE7BD 
 216      6FC644D6 
 216      16664129 
 217 0015 20F20760 		.ascii	" \362\007`a\201\022E\211$\363-$\246\030ko\276\361QV"
 217      61811245 
 217      8924F32D 
 217      24A6186B 
 217      6FBEF151 
 218 002a 362C486C 		.ascii	"6,Hl\3447Y*\2131\331(\215\024I!\221Y\310b\024\2154\214"
 218      E437592A 
 218      8B31D928 
 218      8D144921 
 218      9159C862 
 219 0042 7BE7DB7B 		.ascii	"{\347\333{\365\336\275\357t\316y\347>\213@\262\226\270"
 219      F5DEBDEF 
 219      74CE79E7 
 219      3E8B40B2 
 219      96B8
 220 0054 D4702DE5 		.ascii	"\324p-\345\015MP\363I\242h@\001\322\230\000hJa\012\237"
 220      0D4D50F3 
 220      49A26840 
 220      01D29800 
 220      684A610A 
 221 0069 EA472131 		.ascii	"\352G!1\233:RU\033\206\327\343K\246\316l\306\341j\242"
 221      9B3A5255 
 221      1B86D7E3 
 221      4BA6CE6C 
 221      C6E16AA2 
 222 007d 9CCA3B11 		.ascii	"\234\312;\0216P\305,g9\363l\351\012\020\367\331\363"
 222      3650C52C 
 222      6739F36C 
 222      E90A10F7 
 222      D9F3
 223 008f FBBBC2CA 		.ascii	"\373\273\302\312uc\034cV\372\215v5\260\011\315\012\324"
 223      75631C63 
 223      56FA8D76 
 223      35B009CD 
 223      0AD4
 224 00a1 07511B24 		.ascii	"\007Q\033$\006\010[\250\024\362\323\341\357B\261\177"
 224      06085BA8 
 224      14F2D3E1 
 224      EF42B17F 
 225 00b1 5AECCB3C 		.ascii	"Z\354\313<Sl\303/1\017:\343&\227\213\231\370e\311\311"
 225      536CC32F 
 225      310F3AE3 
 225      26978B99 
 225      F865C9C9 
 226 00c5 554940B1 		.ascii	"UI@\261L\261\023\353,i}r\370\345 J\363\226\344\357J"
 226      4CB113EB 
 226      2C697D72 
 226      F8E5204A 
 226      F396E4EF 
 227 00da 49D52924 		.ascii	"I\325)$\276\347\222\017\275b\025\3232\305\242\233\270"
 227      BEE7920F 
 227      BD6215D3 
 227      32C5A29B 
ARM GAS  C:\Users\info\AppData\Local\Temp\cckCo0kV.s 			page 17


 227      B8
 228 00eb 28F850AE 		.ascii	"(\370P\256\326\371\210\307k\2677>\357\352D\243\306b"
 228      D6F988C7 
 228      6BB7373E 
 228      EFEA44A3 
 228      C662
 229 00fd E833EB9C 		.ascii	"\3503\353\234a\025+\321i\236\317\302.\202\330A\220\343"
 229      61152BD1 
 229      699ECFC2 
 229      2E82D841 
 229      90E3
 230 010f EC314A29 		.ascii	"\3541J)8\2773\247\3323\264bZ3\022\373\232yS\036\342"
 230      38BF33A7 
 230      DA33B462 
 230      5A3312FB 
 230      9A79531E 
 231 0124 63903D3E 		.ascii	"c\220=>\346\334\214\026[\205\002\354\263\232IY\277G"
 231      E6DC8C16 
 231      5B8502EC 
 231      B39A4959 
 231      BF47
 232 0136 91204C64 		.ascii	"\221 Ld(\261\010\201\376{\363\200Q\226\320+\234\370"
 232      28B10881 
 232      FE7BF380 
 232      5196D02B 
 232      9CF8
 233 0148 758FB0F3 		.ascii	"u\217\260\363\237\235V\220\371x\332\362\026{\314\036"
 233      9F9D5690 
 233      F978DAF2 
 233      167BCC1E 
 234 0158 1F8CD8A1 		.ascii	"\037\214\330\241\201\256\360\344\370\220\335\327\321"
 234      81AEF0E4 
 234      F890DDD7 
 234      D1
 235 0165 156E6EE8 		.ascii	"\025nn\350\353ni\034hnk\255\036\242\242\321p\310n\032"
 235      EB6E691C 
 235      686E6BAD 
 235      1EA2A2D1 
 235      70C86E1A 
 236 0179 8EB40F4E 		.ascii	"\216\264\017N\214\374\001\377\304\226\025"
 236      8CFC01FF 
 236      C49615
 237              		.text
 238              		.section	.gnu.lto_VGA_CLK_GetModeRegister.792a78db,"",%progbits
 239 0000 789C6361 		.ascii	"x\234ca`d\000\001& \245\014\244\245\201\230\221\231"
 239      60640001 
 239      2620A50C 
 239      A4A58198 
 239      9199
 240 0012 819169C2 		.ascii	"\201\221i\3029\006\206F\016&FF\020\243\201\203\221\241"
 240      39068646 
 240      0E264646 
 240      10A38183 
 240      91A1
 241 0024 9E89B19E 		.ascii	"\236\211\261\236\361+\323_&\306\323\337O\364pi.ohhj"
 241      F12BD35F 
 241      26C6D3DF 
ARM GAS  C:\Users\info\AppData\Local\Temp\cckCo0kV.s 			page 18


 241      4FF47069 
 241      2E6F6868 
 242 0039 78D0BAD8 		.ascii	"x\320\272\330z\372\212\003\214\255\314\014\014\377\231"
 242      7AFA8A03 
 242      8CADCC0C 
 242      0CFF99
 243 0048 18188D65 		.ascii	"\030\030\215e\030\015d@F,g\324d\000*}\264\361\337T^"
 243      180D6440 
 243      462C67D4 
 243      64002A7D 
 243      B4F1DF54 
 244 005d B6960620 		.ascii	"\266\226\006 P\000)\000\312\254`d\003Y\271>\350@\303"
 244      50002900 
 244      CAAC6064 
 244      0359B93E 
 244      E840C3
 245 0070 FFFFCD0D 		.ascii	"\377\377\315\015\007fK\035\234'\305\302\304\320\312"
 245      07664B1D 
 245      9C27C5C2 
 245      C4D0CA
 246 007f 0CB41764 		.ascii	"\014\264\027d\016\303\007\240:\220\255\037\231\230@"
 246      0EC307A0 
 246      3A90AD1F 
 246      999840
 247 008e 34F333C6 		.ascii	"4\3633\306C\277\272\276\275\260\000imf\006\271`Z\353"
 247      43BFBABE 
 247      BDB00069 
 247      6D6606B9 
 247      605AEB
 248 00a1 A1F3EC5F 		.ascii	"\241\363\354_\230Z\231\201\316\006r\367,\270y\235\025"
 248      985A9981 
 248      CE0672F7 
 248      2CB8799D 
 248      15
 249 00b2 C26D6A6C 		.ascii	"\302mjll`\001\012}\375\323t\222q>\343\334\306\026\240"
 249      6C60010A 
 249      7DFDD374 
 249      92713EE3 
 249      DCC616A0 
 250 00c6 DB981957 		.ascii	"\333\230\031W1\3120\256d\004\272\214q5P\224\341\031"
 250      31CA30AE 
 250      6404BA8C 
 250      71355094 
 250      E119
 251 00d8 63F31F36 		.ascii	"c\363\0376\210q\314\020\023'\254\270|\214\003d\004\003"
 251      8871CC10 
 251      1327ACB8 
 251      7C8C0364 
 251      0403
 252 00ea E30F46C6 		.ascii	"\343\017F\3065@\245\257\030\231\240*\030\300nb\004\271"
 252      3540A5AF 
 252      1899A02A 
 252      18C06E62 
 252      04B9
 253 00fc 05E83245 		.ascii	"\005\3502E\367\324\274\324\242\304\222\324\224\370\340"
 253      F7D4BCD4 
 253      A2C492D4 
ARM GAS  C:\Users\info\AppData\Local\Temp\cckCo0kV.s 			page 19


 253      94F8E0
 254 010b FCD2A2E4 		.ascii	"\374\322\242\344\324\230\200\340|g\323\2300w\307xg\037"
 254      D49880E0 
 254      7C67D398 
 254      3077C778 
 254      671F
 255 011d 6FBD6406 		.ascii	"o\275d\006\000\321\332c "
 255      00D1DA63 
 255      20
 256              		.text
 257              		.section	.gnu.lto_VGA_CLK_GetSourceRegister.792a78db,"",%progbits
 258 0000 789C6361 		.ascii	"x\234ca`d\000\001F \245\014\244\245Alf\006F\246\011"
 258      60640001 
 258      4620A50C 
 258      A4A5416C 
 258      660646A6 
 259 0015 E718181A 		.ascii	"\347\030\030\0329\230\030\031A\214\006\016F\206z&\306"
 259      39981819 
 259      418C060E 
 259      46867A26 
 259      C6
 260 0026 7AC6AF4C 		.ascii	"z\306\257L\177\231\030O\177?\321\303\245\271\274\241"
 260      7F99184F 
 260      7F3FD1C3 
 260      A5B9BCA1 
 261 0036 A1A9E141 		.ascii	"\241\251\341A\353+\353\351+\0160\266230\374gb`4\226"
 261      EB2BEBE9 
 261      2B0E30B6 
 261      323330FC 
 261      67626034 
 262 004b 61349001 		.ascii	"a4\220\001\031\261\234Q\223\001\250\364\321\306\177"
 262      19B19C51 
 262      9301A8F4 
 262      D1C67F
 263 005a 5379D95A 		.ascii	"Sy\331Z\032\200@\001\244\000(\263\202\221\015d\345\372"
 263      1A804001 
 263      A40028B3 
 263      82910D64 
 263      E5FA
 264 006c A0030DFF 		.ascii	"\240\003\015\377\37777\034\270,w\360\232\034\013\023"
 264      FF37371C 
 264      B82C77F0 
 264      9A1C0B13 
 265 007c 432B33D0 		.ascii	"C+3\320^\2209\014\037\200\352@\266~db\002\321\314\317"
 265      5E90390C 
 265      1F80EA40 
 265      B67E6462 
 265      02D1CCCF 
 266 0090 180FFDEA 		.ascii	"\030\017\375\352\272\366\313\002\244\265\231\031\344"
 266      BAF6CB02 
 266      A4B59919 
 266      E4
 267 009d 8269AD87 		.ascii	"\202i\255\207\316\263\177ajefb\004\331\262g\301\315"
 267      CEB37F61 
 267      6A656662 
 267      04D9B267 
 267      C1CD
ARM GAS  C:\Users\info\AppData\Local\Temp\cckCo0kV.s 			page 20


 268 00af EBAC106E 		.ascii	"\353\254\020nScc\003\013P\350\353\237\246\223\214\363"
 268      53636303 
 268      0B50E8EB 
 268      9FA6938C 
 268      F3
 269 00c0 19E736B6 		.ascii	"\031\3476\266\000\335\306\314\270\212Q\206q%#\320e\214"
 269      00DDC6CC 
 269      B88A5186 
 269      712523D0 
 269      658C
 270 00d2 AB81A20C 		.ascii	"\253\201\242\014\317\030\233\377\260A\214c\206\230x"
 270      CF189BFF 
 270      B0418C63 
 270      869878
 271 00e1 F2D4F415 		.ascii	"\362\324\364\025< #\030\030\331\031\327\000U\276bd\202"
 271      3C202318 
 271      18D919D7 
 271      0055BE62 
 271      6482
 272 00f3 2A60003B 		.ascii	"*`\000;\211\021\344\024\240\303\024\335S\363R\213\022"
 272      8911E414 
 272      A0C314DD 
 272      53F3528B 
 272      12
 273 0104 4B5253E2 		.ascii	"KRS\342\203\363K\213\222Sc\002\202\363\235Mc\302\334"
 273      83F34B8B 
 273      92536302 
 273      82F39D4D 
 273      63C2DC
 274 0117 1DE39D7D 		.ascii	"\035\343\235}\274\365\222\031\000\347\220b\343"
 274      BCF59219 
 274      00E79062 
 274      E3
 275              		.text
 276              		.section	.gnu.lto_VGA_CLK_SetDividerRegister.792a78db,"",%progbits
 277 0000 789C8D56 		.ascii	"x\234\215VkLTG\024\236sg\037ww\357\356\302./\343&\""
 277      6B4C5447 
 277      149E7367 
 277      1F7777EF 
 277      EEC22E2F 
 278 0017 29A246FB 		.ascii	")\242F\373Hc\232\266i\023kS\223\266?Zi\374S[Ca\177\030"
 278      48639AB6 
 278      69136B53 
 278      93B63F5A 
 278      69FC535B 
 279 002f 8D265BED 		.ascii	"\215&[\355\217\376\341.\313*Ek}P\260\004\212\021\255"
 279      8FFEE12E 
 279      CB2A456B 
 279      7D50B004 
 279      8A11AD
 280 0042 28B6B0F8 		.ascii	"(\266\260\370\002\037\260R\021AD\253\002\"-*\"Zc)KQ"
 280      021FB052 
 280      114144AB 
 280      02222D2A 
 280      225A6329 
 281 0058 141F745E 		.ascii	"\024\037t^\373\000\013\365&\234\275g\346|\337\234\371"
 281      FB000BF5 
ARM GAS  C:\Users\info\AppData\Local\Temp\cckCo0kV.s 			page 21


 281      269CBD67 
 281      E67CDF9C 
 281      F9
 282 0069 CE99E16A 		.ascii	"\316\231\341j\020 \3724\232\020\372\230\374\276N\\H"
 282      1020FA34 
 282      9A10FA98 
 282      FCBE4E5C 
 282      48
 283 007a 40206D6A 		.ascii	"@ mjE\310-K\022nz\033\251\306\330F+R\025,irR\210g\240"
 283      45C82D4B 
 283      126E7A1B 
 283      A9C6D846 
 283      2B52152C 
 284 0094 56D1483A 		.ascii	"V\321H:\346i\231\247\025\036\237\323Iz\346\311\314\323"
 284      E66999A7 
 284      151E9FD3 
 284      497AE6C9 
 284      CCD3
 285 00a6 432CA793 		.ascii	"C,\247\223\203/\006\311\310\346\255l\336()\31431\317"
 285      832F06C9 
 285      C8E6AD6C 
 285      DE2829CC 
 285      3331CF
 286 00b9 243C3EA7 		.ascii	"$<>\247\200\231C\314R\374\206FD\306-\331z2\036\317\307"
 286      809943CC 
 286      52FC8646 
 286      44C62DD9 
 286      7A321ECF 
 287 00ce E75BC0CA 		.ascii	"\347[\300\312\347\255R\024\203\3050X\224dc^4\363\242"
 287      E7AD5214 
 287      83C53058 
 287      9464635E 
 287      34F3A2
 288 00e1 C1C6836C 		.ascii	"\301\306\203l`\347/v)\216\263\3052\2668>>?&\230`,\000"
 288      60E72F76 
 288      298EB3C5 
 288      32B6383E 
 288      3E3F2698 
 289 00f8 7D516540 		.ascii	"}Qe@\231\022\326huz\331`4)\346x\2135*\332f\217\213\211"
 289      9912D668 
 289      757AD960 
 289      3429E678 
 289      8B352ADA 
 290 0110 854C6C46 		.ascii	"\205LlF\374\261\213\337{\322\023\011\352\327\365\325"
 290      FCB18BDF 
 290      7BD21309 
 290      EAD7F5D5 
 291 0120 48B376AB 		.ascii	"H\263v\253\344\271\266\253\347\025\265\314\017^\214"
 291      E4B9B6AB 
 291      E715B5CC 
 291      0F5E8C
 292 012f D0A8C463 		.ascii	"\320\250\304c`7\314\"Q\015\243\303~\353\220\344\305"
 292      6037CC22 
 292      510DA3C3 
 292      7EEB90E4 
 292      C5
 293 0140 00147461 		.ascii	"\000\024ta\240\245\330D]\011\242\210\273v\260\243W\301"
ARM GAS  C:\Users\info\AppData\Local\Temp\cckCo0kV.s 			page 22


 293      A0A5D844 
 293      5D09A288 
 293      BB76B0A3 
 293      57C1
 294 0152 2F0022EF 		.ascii	"/\000\"\357\345\225u\271\326\224]\252\232\245\252\276"
 294      E59575B9 
 294      D6945DAA 
 294      9AA5AABE 
 295 0162 3455EBC5 		.ascii	"4U\353\305\030\366\002&|\260\007\034P\006\016D\206\020"
 295      18F60226 
 295      7CB0071C 
 295      50060E44 
 295      8610
 296 0174 94430A89 		.ascii	"\224C\012\211\336{?\367\261\021\277\304\220\337\366"
 296      DE7B3FF7 
 296      B111BFC4 
 296      90DFF6
 297 0183 5DCF3709 		.ascii	"]\3177\011\344\275\317T\354\305\032\330\307\221\257"
 297      E4BDCF54 
 297      ECC51AD8 
 297      C791AF
 298 0192 3AE0658A 		.ascii	":\340e\212\323 \370\031Rh\360\306\233{;\024\374\032"
 298      D320F819 
 298      5268F0C6 
 298      9B7B3B14 
 298      FC1A
 299 01a4 037679CA 		.ascii	"\003vy\312;\314\311\245\024\350/\331h\331\246\372\263"
 299      3BCCC9A5 
 299      14E82FD9 
 299      68D9A6FA 
 299      B3
 300 01b5 12E9B2BF 		.ascii	"\022\351\262\277\214]\226>$\332W]\265\323\200\337a\310"
 300      8C5D963E 
 300      24DA575D 
 300      B5D380DF 
 300      61C8
 301 01c7 8E22DF9F 		.ascii	"\216\"\337\237\212@\026\267\232\013T\277;\221.[\031"
 301      8A4016B7 
 301      9A0B54BF 
 301      3B912E5B 
 301      19
 302 01d8 B9ACC05D 		.ascii	"\271\254\300]nvo\321\340\367\031\256\363\374\346\277"
 302      6E766FD1 
 302      E0F719AE 
 302      F3FCE6BF 
 303 01e8 AD02B7AD 		.ascii	"\255\002\267\255\325\244V\2522\205U\375\007\254\307"
 303      D5A456AA 
 303      328555FD 
 303      07ACC7
 304 01f7 F7F47BB3 		.ascii	"\367\364{\263.\233\352\233\010\373!\031|\344\257\002"
 304      2E9BEA9B 
 304      08FB2119 
 304      7CE4AF02 
 305 0207 92B9C270 		.ascii	"\222\271\302p\000t\244\205q\344L\305\"\277::\352Q\375"
 305      0074A485 
 305      71E44CC5 
 305      22BF3A3A 
ARM GAS  C:\Users\info\AppData\Local\Temp\cckCo0kV.s 			page 23


 305      EA51FD
 306 021a 059613DD 		.ascii	"\005\226\023\3356\242\215\027ku\210\316\312\210\316"
 306      36A28D17 
 306      6B7588CE 
 306      CA88CE
 307 0229 1B808A67 		.ascii	"\033\200\212g$\303:\0235\012\242h3}\265Pc\243\306NM"
 307      24C33A13 
 307      350AA268 
 307      337DB550 
 307      63A3C64E 
 308 023e 023553A8 		.ascii	"\0025S\250\231J\015UP7\215\232Dj\246S\223DM253\250\231"
 308      994A0D55 
 308      50378D9A 
 308      446AA653 
 308      93444D32 
 309 0256 0954E0D9 		.ascii	"\011T\340\331\364u\0165s\251Ah\200\344\272\301\201\002"
 309      F4750E35 
 309      73A94168 
 309      80E4BAC1 
 309      8102
 310 0268 92447EF0 		.ascii	"\222D~\360m\360P\265h\356\036\254#{\254\251\271\333"
 310      6DF050B5 
 310      68EE1EAC 
 310      237BACA9 
 310      B9DB
 311 027a A5CF7CA2 		.ascii	"\245\317|\242\346\250j\224\027\353G%z*\017B&\001\313"
 311      E6A86A94 
 311      17EB4725 
 311      7A2A0F42 
 311      2601CB
 312 028d A80724B6 		.ascii	"\250\007$\266K\222?\211F\024L\212\304\301\3623`\303"
 312      4B923F89 
 312      46144C8A 
 312      C4C1F233 
 312      60C3
 313 029f 285903C1 		.ascii	"(Y\003\301!\0066\206\300\025\024,\243\353\220\335\345"
 313      21063686 
 313      C015142C 
 313      A3EB90DD 
 313      E5
 314 02b0 B9559420 		.ascii	"\271U\224 \320\036l`2\007$\214\374q\270\017\352Gr\273"
 314      D01E6C60 
 314      3207248C 
 314      FC71B80F 
 314      EA4772BB 
 315 02c4 6B16F359 		.ascii	"k\026\363Y\023\341\316\367\326\237\323\323>5\261\262"
 315      13E1CEF7 
 315      D69FD3D3 
 315      3E35B1B2 
 316 02d4 351436D7 		.ascii	"5\0246\327(\334\335\261\316\255j\310Pi\347_\327,%P\354"
 316      28DCDDB1 
 316      CEAD6AC8 
 316      5069E75F 
 316      D72C2550 
 317 02e9 CE266DAF 		.ascii	"\316&m\257\205j\322+\207i\257@\015\224\000\352\003\317"
 317      856AD22B 
 317      8769AF40 
ARM GAS  C:\Users\info\AppData\Local\Temp\cckCo0kV.s 			page 24


 317      0D9400EA 
 317      03CF
 318 02fb E3B52D12 		.ascii	"\343\265-\022'T8\347\301u->#%\321\000\300\021\022\033"
 318      275438E7 
 318      C1752D3E 
 318      2325D100 
 318      C011121B 
 319 030f CC713FCD 		.ascii	"\314q?\315Q\2419^\361\014\0279\302\362T\334\255yh\246"
 319      51A1395E 
 319      F10C1739 
 319      C2F254DC 
 319      AD7968A6 
 320 0323 08526A38 		.ascii	"\010Rj8*:1 i\320v\023f\321wpX\216P\260B\202\217\205"
 320      2A3A3120 
 320      69D07613 
 320      66D17770 
 320      588E50B0 
 321 033b 82B5E8BC 		.ascii	"\202\265\350\274\226\007\377$\2047D\314\352P\265\314"
 321      9607FF24 
 321      843744CC 
 321      EA50B5CC 
 322 034b 674B8B67 		.ascii	"gK\213g\012\256\210i=*\322Pu\012\003\355[\265t:R\032"
 322      0AAE8869 
 322      3D2AD250 
 322      750A03ED 
 322      5BB5743A 
 323 0361 333F439D 		.ascii	"3?C\235%\033L\334U\335\\\232\202\233e=\232\2404\026"
 323      251B4CDC 
 323      55DD5C9A 
 323      829B653D 
 323      9AA03416 
 324 0375 A825D21C 		.ascii	"\250%\322\034g\322\324\021i\250\364L\357\373G\266\000"
 324      67D2D411 
 324      69A8F44C 
 324      EFFB47B6 
 324      00
 325 0386 5FD14630 		.ascii	"_\321F0\307\266wvh\271\302Y\202\346\336\343\254&\010"
 325      C7B67776 
 325      68B9C259 
 325      82E6DEE3 
 325      AC2608
 326 0399 2BEC0F29 		.ascii	"+\354\017)|\"\250\260\216\343\355\234b\375\303\2526"
 326      7C22A8B0 
 326      8EE3ED9C 
 326      62FDC3AA 
 326      36
 327 03aa 2680962C 		.ascii	"&\200\226,\004\365$\224\254\223\017\"\355\011\331~e"
 327      04F52494 
 327      AC930F22 
 327      ED09D97E 
 327      65
 328 03bb 49D9D97E 		.ascii	"I\331\331~e\261\337\221\334\23679\267y2\350I\221\310"
 328      65B1DF91 
 328      DC9E3739 
 328      B77932E8 
 328      4991C8
 329 03ce 03918885 		.ascii	"\003\221\210\205\307\037\356/?,\312\346G\320\360\274"
ARM GAS  C:\Users\info\AppData\Local\Temp\cckCo0kV.s 			page 25


 329      C71FEE2F 
 329      3F2CCAE6 
 329      47D0F0BC 
 330 03de 899C6289 		.ascii	"\211\234b\211X\020\323\273;\244\367\204j6\0125i\342"
 330      5810D3BB 
 330      3BA4F784 
 330      6A360A35 
 330      69E2
 331 03f0 069463C1 		.ascii	"\006\224c\301\254\311+~\024uT\":\306\210\262\365t_C"
 331      ACC92B7E 
 331      14755422 
 331      3AC688B2 
 331      F5745F43 
 332 0404 037D17F5 		.ascii	"\003}\027\365\202\367Q\353\2056\231+\356V\271\342\336"
 332      82F751EB 
 332      8536992B 
 332      EE56B9E2 
 332      DE
 333 0415 7DA54566 		.ascii	"}\245Ef\266\224[US\351\365\001\247C\351\321\244#\313"
 333      B6945B55 
 333      53E9F501 
 333      A743E9D1 
 333      A423CB
 334 0428 AF256DD6 		.ascii	"\257%m\326\314\3676T\331\3571\010\332\263\275\203\001"
 334      CCF73654 
 334      D9EF3108 
 334      DAB3BD83 
 334      01
 335 0439 71723609 		.ascii	"qr6\011\332\207\217\036,\037\313z&\304\332\302YCgCK"
 335      DA878F1E 
 335      2C1FCB7A 
 335      26C4DAC2 
 335      59436743 
 336 044e CEC659C1 		.ascii	"\316\306Y\301:\020f=~\273.\327\300Y\363\004\353\245"
 336      3A10663D 
 336      7EBB2ED7 
 336      C059F304 
 336      EBA5
 337 0460 4B05A586 		.ascii	"K\005\245\206\261\264\255!\332s\2046\230\335H\356\251"
 337      B1B4AD21 
 337      DA738436 
 337      98DD48EE 
 337      A9
 338 0471 DA4DA2D5 		.ascii	"\332M\242\325\022\010\260wK\303m3\347\312\021\\\307"
 338      1208B077 
 338      4BC36D33 
 338      E7CA115C 
 338      C7
 339 0482 CE94FAAD 		.ascii	"\316\224\372\255\341\232\234\017\361\3746\256\325\246"
 339      E19A9C0F 
 339      F1FC36AE 
 339      D5A6
 340 0490 708A47A7 		.ascii	"p\212G\247\373\352\254<\335Q\004\027\306UxB\266\213"
 340      FBEAAC3C 
 340      DD510417 
 340      C6557842 
 340      B68B
ARM GAS  C:\Users\info\AppData\Local\Temp\cckCo0kV.s 			page 26


 341 04a2 AC625378 		.ascii	"\254bSxR\335\265\237s\316\251\2235\305\245`\002\357"
 341      52DDB59F 
 341      73CEA993 
 341      35C5A560 
 341      02EF
 342 04b4 210F36F2 		.ascii	"!\0176\362\340\302\243C\315Z\336_2\264\2210v\200\253"
 342      E0C2A343 
 342      CD5ADE5F 
 342      32B49130 
 342      7680AB
 343 04c7 C4168D11 		.ascii	"\304\026\215\021u7\241z\314\217\367 ~\366\360+\250T"
 343      7537A17A 
 343      CC8FF720 
 343      7EF6F02B 
 343      A854
 344 04d9 4BBB22DF 		.ascii	"K\273\"\3377|1\330m\325\207\374\337\311\3748g\011q\352"
 344      377C31D8 
 344      6DD587FC 
 344      DFC9FC38 
 344      670971EA 
 345 04ed 6E5CD98C 		.ascii	"n\\\331\214\303\015\330\036j\300\016\266\035\231\327"
 345      C30DD81E 
 345      6AC00EB6 
 345      1D99D7
 346 04fc 6A786BB0 		.ascii	"jxk\260Vc\272\350\323q]t\231\327\273\251\271\240L\341"
 346      5663BAE8 
 346      D3715D74 
 346      99D7BBA9 
 346      B9A04CE1 
 347 0510 02EAA193 		.ascii	"\002\352\241\223e\024\220\314\250\345\015~\372\332\353"
 347      651490CC 
 347      A8E50D7E 
 347      FADAEB
 348 051f BEE6E94E 		.ascii	"\276\346\351N\033\303\007c\271\256Dj\343\340\301\007"
 348      1BC30763 
 348      B9AE446A 
 348      E3E0C107 
 349 052f 4E36AE95 		.ascii	"N6\256\225\2716\000]\\\233.O\277\320\306\021\322f@\212"
 349      B936005D 
 349      5C9B2E4F 
 349      BFD0C611 
 349      D266408A 
 350 0543 477BE641 		.ascii	"G{\346A@\262\010\021Fr\373\353\362E\330\364\311\356"
 350      40B20811 
 350      4672FBEB 
 350      F245D8F4 
 350      C9EE
 351 0555 F7DFC7B5 		.ascii	"\367\337\307\265D\022\217\357Z\337\236'n\237\247\000"
 351      44128FEF 
 351      5ADF9E27 
 351      6E9FA700 
 352 0565 7F8C6B89 		.ascii	"\177\214k\211\011\331\272\231\206I\\\303\223y\317\245"
 352      09D9BA99 
 352      86495CC3 
 352      9379CFA5 
 353 0575 E1D56073 		.ascii	"\341\325`sS\321\254\364\344\263\374\237\236\376\204"
 353      53D1ACF4 
ARM GAS  C:\Users\info\AppData\Local\Temp\cckCo0kV.s 			page 27


 353      E4B3FC9F 
 353      9EFE84
 354 0584 67943CD9 		.ascii	"g\224<\331\202\327\"EK$\301a\225v\210\355'FtP\224\270"
 354      82D72245 
 354      4B24C161 
 354      957688ED 
 354      27467450 
 355 059a 390A7D67 		.ascii	"9\012}g\363\202=2aC\\\0277\022c\373g\347[\234nf\204"
 355      F3823D32 
 355      61435C17 
 355      371263FB 
 355      67E75B9C 
 356 05b1 E8D1B421 		.ascii	"\350\321\264!\003\222M\260\206\364\231\364\346\351a"
 356      03924DB0 
 356      86F499F4 
 356      E6E961
 357 05c0 B4E4D360 		.ascii	"\264\344\323`\020h\357|S\364C\271\270\2010\334\000G"
 357      1068EF7C 
 357      53F443B9 
 357      B88130DC 
 357      0047
 358 05d2 D4653DBD 		.ascii	"\324e=\2752\242i\272vD\276fE9\233\\|\375\331\223\365"
 358      32A269BA 
 358      7644BE66 
 358      45399B5C 
 358      7CFDD993 
 359 05e7 506FA41C 		.ascii	"Po\244\0343HpX\216Z!\307\214\210\374\343\020\371\232"
 359      33487058 
 359      8E5A21C7 
 359      8C88FCE3 
 359      10F99A
 360 05fa 265D1313 		.ascii	"&]\023\023\222\245-\357\177/\352\233\221\377\366\272"
 360      92A52DEF 
 360      7F2FEA9B 
 360      91FFF6BA 
 361 060a 9BC567C6 		.ascii	"\233\305g\306\234\311\252\3247\356?\313\\\366\0251\347"
 361      9CC9AAD4 
 361      37EE3FCB 
 361      5CF61531 
 361      E7
 362 061b F97AEA16 		.ascii	"\371z\352\026[o.\253_,\375\356\272\003Y\376\253\213"
 362      5B6F2EAB 
 362      5F2CFDEE 
 362      BA0359FE 
 362      AB8B
 363 062d 284C6C03 		.ascii	"(Ll\003\310(\371Z\232\276\320\271\322\351J[\355\314"
 363      C828F95A 
 363      9ABED0B9 
 363      D2E94A5B 
 363      EDCC
 364 063f 589ABA6A 		.ascii	"X\232\272j\215+\335\271\344\243\324U\013\346-Y\274p"
 364      8D2BDDB9 
 364      E4A3D455 
 364      0BE62D59 
 364      BC70
 365 0651 FED2051F 		.ascii	"\376\322\005\037~\360b:2\246\257X\376\356\262\257\226"
 365      7EF0623A 
ARM GAS  C:\Users\info\AppData\Local\Temp\cckCo0kV.s 			page 28


 365      32A6AF58 
 365      FEEEB2AF 
 365      96
 366 0662 65385D7A 		.ascii	"e8]z\227\363\313\325i\256\325\306U+2\202C\351k\\\256"
 366      97F3CBD5 
 366      69AED5C6 
 366      552B3282 
 366      43E96B5C 
 367 0677 5457BADE 		.ascii	"TW\272\336\2712\355\213\025\316\214\177\001\023\312"
 367      B932ED8B 
 367      15CE8C7F 
 367      0113CA
 368 0686 045E     		.ascii	"\004^"
 369              		.text
 370              		.section	.gnu.lto_VGA_CLK_SetSourceRegister.792a78db,"",%progbits
 371 0000 789C8D54 		.ascii	"x\234\215T_h[e\024?\347\373\222{or\2236\256\353\352"
 371      5F685B65 
 371      143FE7FB 
 371      927B6F72 
 371      9336AEEB 
 372 0015 BAFE6596 		.ascii	"\272\376e\226\260\227)\224\275\015D&\354A\037\304\202"
 372      B0972994 
 372      BD0D4426 
 372      EC411FC4 
 372      82
 373 0026 2F4E8664 		.ascii	"/N\206d}\020\207\205\340D\360!_\222\306U}\031\214Me"
 373      7D108785 
 373      E044F021 
 373      5F92C655 
 373      7D198C4D 
 374 003b 86158674 		.ascii	"\206\025\206tZ\267nu6F\353\274\355t \210sC\021-\210"
 374      5AB76E75 
 374      3646EBBC 
 374      ED742088 
 374      7343112D 
 375 0050 56AD225B 		.ascii	"V\255\"[\327MW\235l\211\347|\337Mz\255\032z!\347\336"
 375      D74D579D 
 375      6C89E77C 
 375      DF4D7AAD 
 375      1A7A21E7 
 376 0065 EF9CDFEF 		.ascii	"\357\234\337\357\344\234\3379\367\206\000\201\2571\013"
 376      E49CDF39 
 376      F7860081 
 376      AF310B
 377 0074 603BDD0F 		.ascii	"`;\335\017\322\017c\200\342\300g\000YG\0109\222\004"
 377      D20F6380 
 377      E2C06700 
 377      59470839 
 377      9204
 378 0086 15B5D8C6 		.ascii	"\025\265\330\306\244\010\005N!\021\236\356\342\323\027"
 378      A408054E 
 378      21119EEE 
 378      E2D317
 379 0095 77D3298C 		.ascii	"w\323)\214\256\241X\302\326\240\250\006\331\302\011"
 379      AEA158C2 
 379      D6A0A806 
 379      D9C209
ARM GAS  C:\Users\info\AppData\Local\Temp\cckCo0kV.s 			page 29


 380 00a4 9C1C11D1 		.ascii	"\234\034\021\321\224\250\246Dj\224h\355\301E\344\007"
 380      94A8A644 
 380      6A9468ED 
 380      C145E407 
 381 00b4 E5206484 		.ascii	"\345 d\204\014\205-\333\211D]\314\340\015q[\340\354"
 381      0C852DDB 
 381      89445DCC 
 381      E00D715B 
 381      E0EC
 382 00c6 FE85B2D8 		.ascii	"\376\205\262\3302\246\350\372\356\247\311~u\334\303"
 382      32A6E8FA 
 382      EEA7C97E 
 382      75DCC3
 383 00d5 8204A80A 		.ascii	"\202\004\250\012\335\001\340\030n!\324\305\321\347\217"
 383      DD01E018 
 383      6E21D4C5 
 383      D1E78F
 384 00e4 B9F22E04 		.ascii	"\271\362.\004z>\365\332\301a\221|]\251\234R\305\307"
 384      7A3EF5DA 
 384      C161917C 
 384      5DA99C52 
 384      C5C7
 385 00f6 942C48C4 		.ascii	"\224,H\304\343(\211\201\375\035xO\007\220\003\360\015"
 385      E3288981 
 385      FD1D784F 
 385      079003F0 
 385      0D
 386 0107 4C3278E6 		.ascii	"L2x\346\\%)\267j\336\201oO\036\215\365\035c\236W\234"
 386      5C2529B7 
 386      6ADE816F 
 386      4F1E8DF5 
 386      1D639E57 
 387 011c 8BBFACBC 		.ascii	"\213\277\254\274l\017s\337\014r\371\"\354\307\325?\274"
 387      6C0F73DF 
 387      0C72F922 
 387      ECC7D53F 
 387      BC
 388 012d E6DF4541 		.ascii	"\346\337EA\012\344\"/-}Zt\371(1A\307B\361\354\013q\271"
 388      0AE4222F 
 388      2D7D5A74 
 388      F9283141 
 388      C742F1EC 
 389 0144 4D675DFE 		.ascii	"Mg]\376\355\307\023\315~\326#G\232^Q^\216\262\206\360"
 389      EDC713CD 
 389      7ED62347 
 389      9A5E515E 
 389      8EB286F0 
 390 0158 A4C97A02 		.ascii	"\244\311z\002;\360-\254\347\235?]9\024\267\206\271\333"
 390      3BF02DAC 
 390      E79D3F5D 
 390      3914B786 
 390      B9DB
 391 016a 1E9CC03E 		.ascii	"\036\234\300>\034\307>\323+\236B\213\246&j\336\211\207"
 391      1CC73ED3 
 391      2B9E428B 
 391      A6266ADE 
 391      8987
ARM GAS  C:\Users\info\AppData\Local\Temp\cckCo0kV.s 			page 30


 392 017c 3D55ADE6 		.ascii	"=U\255\346\225\367\352\246\231\312\246\315!\340\200"
 392      95F7EAA6 
 392      99CAA6CD 
 392      21E080
 393 018b 051CB291 		.ascii	"\005\034\262\221\273s\250\317p\204\215\313&F\306\212"
 393      BB73A8CF 
 393      70848DCB 
 393      2646C68A 
 394 019b B36962D3 		.ascii	"\263ib\323\314&\301\201ulZ\370\270\236M+\233\015l\332"
 394      CC26C181 
 394      756C5AF8 
 394      B89E4D2B 
 394      9B0D6CDA 
 395 01af 38B0914D 		.ascii	"8\260\221M;\033\326-\334\311\201.6\335lz\330\364r\000"
 395      3B1BD62D 
 395      DCC9812E 
 395      36DD6C7A 
 395      D8F47200 
 396 01c3 6089AAE4 		.ascii	"`\211\252\3449^\023\202\357\362\027\314s\303\\w^\206"
 396      395E1382 
 396      EFF217CC 
 396      73C35C77 
 396      5E86
 397 01d5 A8B772F9 		.ascii	"\250\267r\371\362\234\235\271\255F\224J\024\244]\025"
 397      F29C9DB9 
 397      AD46944A 
 397      14A45D15 
 398 01e5 D40E9EC6 		.ascii	"\324\016\236\306\014\321\035\230G\241;\244&\010\015"
 398      0CD11D98 
 398      47A13BA4 
 398      26080D
 399 01f4 4CA61918 		.ascii	"L\246\031\030\262\365/r\244J\177\0028\251\311\321:y"
 399      B2F52F72 
 399      A44A7F02 
 399      38A9C9D1 
 399      3A79
 400 0206 9CC9167C 		.ascii	"\234\311\026|\217\303s\371\037\246\356\\aO\\.\337\214"
 400      8FC373F9 
 400      1FA6EE5C 
 400      614F5C2E 
 400      DF8C
 401 0218 F37CC234 		.ascii	"\363|\3024\371\267}\271\257\011\011#II\350o\362\363"
 401      F9B77DB9 
 401      AF090923 
 401      4949E86F 
 401      F2F3
 402 022a D280ED40 		.ascii	"\322\200\355@4\004\037\265\230\350\317S\317\255\264"
 402      34041FB5 
 402      98E8CF53 
 402      CFADB4
 403 0239 51CFE552 		.ascii	"Q\317\345R\2563ut\030.\330r\001g\377zq\361J\332\240"
 403      AE337574 
 403      182ED872 
 403      0167FF7A 
 403      71F14ADA 
 404 024e 1D421F2E 		.ascii	"\035B\037.\314^\260\031\035\323\3330=\372\365Was\314"
 404      CC5EB019 
ARM GAS  C:\Users\info\AppData\Local\Temp\cckCo0kV.s 			page 31


 404      1DD3DB30 
 404      3DFAF557 
 404      6173CC
 405 0261 65B38AF3 		.ascii	"e\263\212\363\335\270\225\373\004\217b1;L\213\035\307"
 405      DDB895FB 
 405      048F6231 
 405      3B4C8B1D 
 405      C7
 406 0272 295A8877 		.ascii	")Z\210w8+\226\310\013\013\230\377\3232\351\"&ciq\274"
 406      382B96C8 
 406      0B0B98FF 
 406      D332E922 
 406      26636971 
 407 0287 E4F7E201 		.ascii	"\344\367\342\001\276KP\372\327\303\310\230F\331\312"
 407      BE4B50FA 
 407      D7C3C898 
 407      46D9CA
 408 0296 E4A51CA0 		.ascii	"\344\245\034\240K\254\\\331nr\272\215(\357\231\002r"
 408      4BAC5CD9 
 408      6E72BA8D 
 408      28EF9902 
 408      72
 409 02a7 D7F72FD7 		.ascii	"\327\367/\327Z\212\021\205k\272\345\327\024'\027/\374"
 409      5A8A1185 
 409      6BBAE5D7 
 409      1427172F 
 409      FC
 410 02b8 A54367F4 		.ascii	"\245Cg\364\353`\341\263\370\276.)w\3356\220&R5\330F"
 410      EB60E1B3 
 410      F8BE2E29 
 410      77DD3690 
 410      265235D8 
 411 02cd B3663505 		.ascii	"\263f5\005!\011\362\376O\027Y\245\372\341\237eM\353"
 411      2109F2FE 
 411      4F1759A5 
 411      FAE19F65 
 411      4DEB
 412 02df 4E125A75 		.ascii	"N\022Zu\013f\316\203\031\322X\251\323\037x`\2066\214"
 412      0B66CE83 
 412      19D258A9 
 412      D31F7860 
 412      86368C
 413 02f2 6E967A1F 		.ascii	"n\226z\037\226\377c\302\016|~\207!\217\2272\376\204"
 413      96FF63C2 
 413      0E7C7E87 
 413      218F9732 
 413      FE84
 414 0304 03238DC0 		.ascii	"\003#\215\300\222eFZY\364\365Z\327H\257\017V\364Z\364"
 414      9265465A 
 414      59F4F55A 
 414      D748AF0F 
 414      56F45AF4 
 415 0318 F56A214A 		.ascii	"\365j!JP\257\365\344Z-P\353*\2016hXk\020\322F\336\265"
 415      50AFF5E4 
 415      5A2D50EB 
 415      2A813668 
 415      586B10D2 
ARM GAS  C:\Users\info\AppData\Local\Temp\cckCo0kV.s 			page 32


 416 032f 0B74560B 		.ascii	"\013tV\013\324fF}\376\252_\312\306F\245\177\350\357"
 416      D466467D 
 416      FEAA5FCA 
 416      C646A57F 
 416      E8EF
 417 0341 5AADCE76 		.ascii	"Z\255\316v\203\177\351\346\344\227z\327\342\204@o\255"
 417      837FE9E6 
 417      E4977AD7 
 417      E284406F 
 417      AD
 418 0352 BB36A30B 		.ascii	"\2736\243\013h\327\"F\341\342\275\376{q\325\027\261"
 418      68D72246 
 418      E1E2BDFE 
 418      7B71D517 
 418      B1
 419 0363 A31177B6 		.ascii	"\243\021w\266.\342B\255\362N\242\004\213\353\"\327j"
 419      2EE242AD 
 419      F24EA204 
 419      8BEB22D7 
 419      6A
 420 0374 11BB5789 		.ascii	"\021\273W\211\330\243a\335AH/y\327.\3429\335C\257\356"
 420      D8A361DD 
 420      41482F79 
 420      D72EE239 
 420      DD43AFEE 
 421 0388 C1D51FB4 		.ascii	"\301\325\037\264_1\347U\037e\256\336\217%\372~\221\233"
 421      5F31E755 
 421      1F65AEDE 
 421      8F25FA7E 
 421      919B
 422 039a BE43BD3B 		.ascii	"\276C\275;\007\237\032L?\376\364\340\236\335\003C\373"
 422      079F1A4C 
 422      3FFEF4E0 
 422      9EDD0343 
 422      FB
 423 03ab D2A9C15D 		.ascii	"\322\251\301]\017\015\014\355\330\266\353\221\235\367"
 423      0F0D0CED 
 423      D8B6EB91 
 423      9DF7
 424 03b9 EDDEF1E0 		.ascii	"\355\336\361\340\003[S\020I\355}\322\204\254\241\275"
 424      035B5310 
 424      49ED7DD2 
 424      84ACA1BD 
 425 03c9 7B06D229 		.ascii	"{\006\322);\265/\235\276\377\211g\376\006\331^/\313"
 425      3BB52F9D 
 425      BEFF8967 
 425      FE06D95E 
 425      2FCB
 426              		.text
 427              		.section	.gnu.lto_.symbol_nodes.792a78db,"",%progbits
 428 0000 789C55C8 		.ascii	"x\234U\310\311\015\2000\020CQ'3!K\027TjJ\240\006\216"
 428      C90D8030 
 428      10435127 
 428      33214B17 
 428      546A4AA0 
 429 0016 14430748 		.ascii	"\024C\007H\210B\020\011\234\354\313\227\237#\340D_\004"
 429      88421009 
ARM GAS  C:\Users\info\AppData\Local\Temp\cckCo0kV.s 			page 33


 429      9CECCB97 
 429      9F23E044 
 429      5F04
 430 0028 81F5C0C8 		.ascii	"\201\365\300\310\276\314\035\002\203BdT0\232B\242+L"
 430      BECC1D02 
 430      83426454 
 430      309A42A2 
 430      2B4C
 431 003a 4C0A9993 		.ascii	"L\012\231\223BaVh,\012\316\252P\331\004\254\026l\327"
 431      42615668 
 431      2C0ACEAA 
 431      50D904AC 
 431      166CD7
 432 004d 13AC3AEE 		.ascii	"\023\254:\356\321\346\377o\345\373x\001\227\2634b"
 432      D1E6FF6F 
 432      E5FB7801 
 432      97B33462 
 433              		.text
 434              		.section	.gnu.lto_.refs.792a78db,"",%progbits
 435 0000 789C6361 		.ascii	"x\234ca`\004B \000\000\0009\000\007"
 435      60044220 
 435      00000039 
 435      0007
 436              		.text
 437              		.section	.gnu.lto_.decls.792a78db,"",%progbits
 438 0000 789C8D55 		.ascii	"x\234\215UklTE\024\276\347\316vY\267-UDyd\177T~l\372"
 438      6B6C5445 
 438      14BEE7CE 
 438      7659B72D 
 438      55447964 
 439 0019 AB5A8D84 		.ascii	"\253Z\215\204\304\037>j,\211/\"\221\037\206\204@{\301"
 439      C41F3E6A 
 439      2C892F22 
 439      911F8684 
 439      407BC1
 440 002c 2A61C9B2 		.ascii	"*a\311\262h\370wa\213\005\004\301E\372R\0200B\013\205"
 440      68F87761 
 440      8B0504C1 
 440      45FA5210 
 440      30420B85 
 441 0040 ED03282D 		.ascii	"\355\003(-P\026\273\335\026\372\240/h\241\364E\213I"
 441      5016BBDD 
 441      16FAA02F 
 441      68A1F445 
 441      8B49
 442 0052 2D852A28 		.ascii	"-\205*( \342zf\356\334\336\331\345V:\311\331{g\346|"
 442      20E27A66 
 442      EEDCDED9 
 442      E5563AC9 
 442      D97B67E6 
 443 0067 DF39E79B 		.ascii	"\3379\347\2333w-\022Ht\374a\223\244\305\370\232H$)\214"
 443      33772D12 
 443      4874FC61 
 443      93A4C5F8 
 443      9A482429 
 444 007c 230ED716 		.ascii	"#\016\327\026I\306\210E;\202\346G+E\253B\013\242\205"
 444      49C68845 
ARM GAS  C:\Users\info\AppData\Local\Temp\cckCo0kV.s 			page 34


 444      3B82E647 
 444      2B45AB42 
 444      0BA285
 445 008f D0EAD11A 		.ascii	"\320\352\321\032\320\232\320\332\320:\244\307\007\305"
 445      D09AD0DA 
 445      D03AA4C7 
 445      07C5
 446 009d 5A38A703 		.ascii	"Z8\247\003\355\012Z'\337\003\276\037=\374O\300\370M"
 446      ED0A5A27 
 446      DF03BE1F 
 446      3DFC4FC0 
 446      F84D
 447 00af 30A53C57 		.ascii	"0\245<W\212\231\2066\035\355\\\024\276\017\255\027\255"
 447      8A998636 
 447      1DED5C14 
 447      BE0FAD17 
 447      AD
 448 00c0 1FAD47E0 		.ascii	"\037\255G\340+5\341\243u\306p\276\212\011\362\2502\301"
 448      2B35E1A3 
 448      75C670BE 
 448      8A09F2A8 
 448      32C1
 449 00d2 05394ECC 		.ascii	"\0059N\314A\217\253\343\202&8\252\2475*\336\200I\314"
 449      418FABE3 
 449      822638AA 
 449      A7352ADE 
 449      8049CC
 450 00e5 9009B67E 		.ascii	"\220\011\266~\022\271\326\233\340\350\331Y\376\007\323"
 450      12B9D69B 
 450      E0E8D959 
 450      FE07D3
 451 00f4 6082697A 		.ascii	"`\202iz\002\246\311\004C{#Az\374l*8\226\362\014\241"
 451      02A6C904 
 451      437B2341 
 451      7AFC6C2A 
 451      3896F20C 
 452 0109 5D40BB81 		.ascii	"]@\273\201V\303y\235R\344Y\021\316Ec\230iH\373o\252"
 452      56C3799D 
 452      52E45911 
 452      CE456398 
 452      6948FB6F 
 453 011e A043741F 		.ascii	"\240Ct\037\014\010\374z<gT\015\204\363\004'\250\345"
 453      0C08FC7A 
 453      3C67540D 
 453      84F30427 
 453      A8E5
 454 0130 910CDEEB 		.ascii	"\221\014\336\353\277\355\265u\303\025\000\011\330\220"
 454      BFEDB575 
 454      C3150009 
 454      D890
 455 013e F85D92E8 		.ascii	"\370]\222\350\012\177\322\027\320&\262\256\015\214\253"
 455      0A7FD217 
 455      D026B2AE 
 455      0D8CAB
 456 014d C45F983B 		.ascii	"\304_\230;H2\363\007a#\302\217\335K6\214%\030\037\272"
 456      4832F307 
 456      6123C28F 
ARM GAS  C:\Users\info\AppData\Local\Temp\cckCo0kV.s 			page 35


 456      DD4B368C 
 456      25181FBA 
 457 0161 27449252 		.ascii	"'D\222RVc\212s\331\000\010|<{\036\037\304\260\214\232"
 457      56638A73 
 457      D900087C 
 457      3C7B1E1F 
 457      C4B08C9A 
 458 0175 E845F7DC 		.ascii	"\350E\367\334>}\217\020\344\304\367\276\007\205\357"
 458      3E7D8F10 
 458      E4C4F7BE 
 458      0785EF
 459 0184 2417AB38 		.ascii	"$\027\2538v\250\252\234d(\323\232U\362\003\271+\303"
 459      76A8AA9C 
 459      6428D39A 
 459      55F203B9 
 459      2BC3
 460 0196 343B5870 		.ascii	"4;Xp\372{S\301\340T\234N\267C\"N\037\235\377\276@\236"
 460      FA7B53C1 
 460      E0549C4E 
 460      B743224E 
 460      1F9DFFBE 
 461 01ac 99C3705E 		.ascii	"\231\303p^5\321\002\213\236\207\303\340\200C\200\207"
 461      35D1028B 
 461      9E87C3E0 
 461      80438087 
 462 01bc 03C53013 		.ascii	"\003\3050\023\177\227Y4\246\237\006\375\007\023\346"
 462      7F975934 
 462      A69F06FD 
 462      0713E6
 463 01cb EC55F796 		.ascii	"\354U\367\226\250\375w\356\276\234\257\006\262\020&"
 463      A8FD77EE 
 463      BE9CAF06 
 463      B21026
 464 01da 532F2804 		.ascii	"S/(\004\002E\220LS\304W\3728\010\335\230\374\021\230"
 464      0245904C 
 464      53C457FA 
 464      3808DD98 
 464      FC1198
 465 01ed 43A36CFD 		.ascii	"C\243l\375\352\200\215\274\306\022\255>\322:\372\224"
 465      EA808DBC 
 465      C612AD3E 
 465      D23AFA94 
 466 01fd C612D813 		.ascii	"\306\022\330\023\212Sw\254W\3257\030\307Q\203\343\250"
 466      8A5377AC 
 466      57D53718 
 466      C75183E3 
 466      A8
 467 020e C8E1671C 		.ascii	"\310\341g\034\333\017\265\217\312d>\343\250<\373W\253"
 467      DB0FB58F 
 467      CA643EE3 
 467      A83CFB57 
 467      AB
 468 021f 8D73E4D5 		.ascii	"\215s\344\325\211\034%\006G\211\310Q\3128.\364\225\235"
 468      891C2506 
 468      4789C851 
 468      CA382EF4 
 468      959D
ARM GAS  C:\Users\info\AppData\Local\Temp\cckCo0kV.s 			page 36


 469 0231 89219F30 		.ascii	"\211!\2370\016\377\306\241\"\033\012\341\260C\030\350"
 469      0EFFC6A1 
 469      221B0AE1 
 469      B04318E8 
 470 0241 FC66E583 		.ascii	"\374f\345\203xmN\267\363\277\035\3747\226\270\350\273"
 470      786D4EB7 
 470      F3BF1DFC 
 470      3796B8E8 
 470      BB
 471 0252 DC3E7878 		.ascii	"\334>xx\330\002I\366\003T\246\376\356\354\345\271\331"
 471      D80249F6 
 471      0354A6FE 
 471      EEECE5B9 
 471      D9
 472 0263 B4EE0AB0 		.ascii	"\264\356\012\260\303q#\236\303\216\277\233Tu\203:\266"
 472      C371239E 
 472      C38EBF9B 
 472      5475833A 
 472      B6
 473 0274 5FB5CE94 		.ascii	"_\265\316\224\340\025\007\274\344\220\340\004$QR\352"
 473      E01507BC 
 473      E490E004 
 473      245152EA 
 474 0284 05C750DA 		.ascii	"\005\307P\332r\224\026\003\334\310\375q\304j\301>d<"
 474      72941603 
 474      DCC8FD71 
 474      C46AC13E 
 474      643C
 475 0296 A831AE15 		.ascii	"\2501\256\025W]\273i\235\3604*\331i\234\004~\034\255"
 475      575DBB69 
 475      9DF0342A 
 475      D9699C04 
 475      7E1CAD
 476 02a9 9BB7DD89 		.ascii	"\233\267\335\211\037?\216\347r\274j=\342\022\251\033"
 476      1F3F8EE7 
 476      72BC6A3D 
 476      E212A91B 
 477 02b9 94196995 		.ascii	"\224\031i\225\2112T1\031N\225l\354\000\222\013\254\320"
 477      89325431 
 477      194E956C 
 477      EC00920B 
 477      ACD0
 478 02cb 9FFF7E38 		.ascii	"\237\377~8F\373\303\211:\204\211 \204S\023\242p_\250"
 478      46FBC389 
 478      3A848920 
 478      845313A2 
 478      705FA8
 479 02de DC4ECA34 		.ascii	"\334N\3124\347\332\360\275@\202\326L2N\333\306\032w"
 479      E7DAF0BD 
 479      4082D64C 
 479      324EDBC6 
 479      1A77
 480 02f0 C76ACDF4 		.ascii	"\307j\315\3644\352t\353X]W<\330\223\230\010\252W\265"
 480      34EA74EB 
 480      585D573C 
 480      D8939808 
 480      AA57B5
ARM GAS  C:\Users\info\AppData\Local\Temp\cckCo0kV.s 			page 37


 481 0303 274910C0 		.ascii	"'I\020\300\364\317b\372\360\013\312\340\3442\234\301"
 481      F4CF62FA 
 481      F00BCAE0 
 481      E4329CC1 
 482 0313 C5D3B8C8 		.ascii	"\305\323\270\310\005\255\343\202\236C!\252\215\314\235"
 482      05ADE382 
 482      9E4321AA 
 482      8DCC9D
 483 0322 76ADD0E6 		.ascii	"v\255\320\346\354\355\245 \252B\375\014Yj\"\232\264"
 483      ECEDA520 
 483      AA42FD0C 
 483      596A229A 
 483      B4
 484 0333 2138D028 		.ascii	"!8\320(\243*\375T\225!g^\231\252nF\240\205\272\301)"
 484      A32AFD54 
 484      9521675E 
 484      99AA6E46 
 484      A085BAC1 
 485 0348 83FC9428 		.ascii	"\203\374\224(K\220\311R\276\277\266C&\225Z\245\367w"
 485      4B90C952 
 485      BEBFB643 
 485      26955AA5 
 485      F777
 486 035a 666F9379 		.ascii	"fo\223y\213U\346\220\361f\247\352\326\0324\265\"MH\243"
 486      8B55E690 
 486      F166A7EA 
 486      D61A34B5 
 486      224D48A3 
 487 036e F11E3F69 		.ascii	"\361\036?i!\255\032\315E\337\326\343\261\234\246\272"
 487      21AD1ACD 
 487      45DFD6E3 
 487      B19CA6BA 
 488 037e 53EF544A 		.ascii	"S\357TJRg\220\324\211$\365\214\244\370\\o(\201\214h"
 488      526790D4 
 488      8924F58C 
 488      A4F85C6F 
 488      28818C68 
 489 0392 242D5FD7 		.ascii	"$-_\327z\023D\001*\"\004\270\020!\200o\344\372\011\302"
 489      7A134401 
 489      2A2204B8 
 489      1021806F 
 489      E4FA09C2 
 490 03a6 23E65F35 		.ascii	"#\346_5\022G/8o\304</\306l`1/\335\316\273o%^\355{r\324"
 490      12472F38 
 490      6FC43C2F 
 490      C66C6031 
 490      2FDDCEBB 
 491 03c1 575B93A0 		.ascii	"W[\223\240\351\030h\351\325\023\247$\215\006I\243H\322"
 491      E91868E9 
 491      D513A724 
 491      8D0649A3 
 491      48D2
 492 03d3 C44846D5 		.ascii	"\304HF\325\015\233\201\354\326H\314z\274\261%\\\030"
 492      0D9B81EC 
 492      D648CC7A 
 492      BCB1255C 
 492      18
ARM GAS  C:\Users\info\AppData\Local\Temp\cckCo0kV.s 			page 38


 493 03e4 C7D6E831 		.ascii	"\307\326\3501^\004\266\370\347\266\207>2a\343\267\262"
 493      5E04B6F8 
 493      E7B6873E 
 493      3261E3B7 
 493      B2
 494 03f5 025BF4C6 		.ascii	"\002[\364\306\257\357\332Y\245k\272\363\033\243Bt\203"
 494      AFEFDA59 
 494      A56BBAF3 
 494      1BA34274 
 494      83
 495 0406 6623B966 		.ascii	"f#\271f1\2716\226\334\356\252\2561\0339\251%\227\325"
 495      31B93696 
 495      DCEEAAAE 
 495      311B39A9 
 495      2597D5
 496 0419 395CAED3 		.ascii	"9\\\256\323\344t\213G\323n\220\264\213$\035\214\344"
 496      E4748B47 
 496      D36E90B4 
 496      8B241D8C 
 496      E4
 497 042a 6ED69DCB 		.ascii	"n\326\235\313V\373&\332\340\223\272\350M\303\373\302"
 497      56FB26DA 
 497      E093BAE8 
 497      4DC3FBC2 
 498 043a 53481B0B 		.ascii	"SH\033\013*\227\357\312\3375E\273\"\321\360.\023\270"
 498      2A97EFCA 
 498      DF3545BB 
 498      22D1F02E 
 498      13B8
 499 044c FEC5F9B0 		.ascii	"\376\305\371\260\300\267\036\257v'*v\331H\356\022\360"
 499      C0B71EAF 
 499      76272A76 
 499      D948EE12 
 499      F0
 500 045d 1B5274AB 		.ascii	"\033Rt\253&\000q[\350\265C\371\246\315g\216\206~W \216"
 500      2600715B 
 500      E8B543F9 
 500      A6CD678E 
 500      867E5720 
 501 0472 FD79E013 		.ascii	"\375y\340\023\235\177\255\311\033\225\265\374'sG\021"
 501      9D7FADC9 
 501      1B95B5FC 
 501      27734711 
 502 0482 F14FA0F9 		.ascii	"\361O\240\371Y\322\251\025\220;\270eO\214\376-\014T"
 502      59D2A915 
 502      903BB865 
 502      4F8CFE2D 
 502      0C54
 503 0494 7FA6AA36 		.ascii	"\177\246\2526\350\301h\335FZW\201\177\011\037\017p\315"
 503      E8C168DD 
 503      465A5781 
 503      7F091F0F 
 503      70CD
 504 04a6 3CC0FA8B 		.ascii	"<\300\372\213Yg\246\350)\355\230\014\342v\366\310\001"
 504      5967A6E8 
 504      29ED980C 
 504      E276F6C8 
ARM GAS  C:\Users\info\AppData\Local\Temp\cckCo0kV.s 			page 39


 504      01
 505 04b7 9B58716F 		.ascii	"\233XqoD\305}\274\342>V\361\315\276\260O\026\235{\""
 505      44C57DBC 
 505      E23E56F1 
 505      CDBEB04F 
 505      169D7B22 
 506 04cb 9CFBB973 		.ascii	"\234\373\271s?u&\301v\377Y;\330\035\200\373\260\211"
 506      3F7526C1 
 506      76FF593B 
 506      D81D80FB 
 506      B089
 507 04dd 5639B641 		.ascii	"V9\266A8&\011\006hyp\035\267\007\021^\240R\037\274\355"
 507      38260906 
 507      6879701D 
 507      B707115E 
 507      A0521FBC 
 508 04f2 74994DC6 		.ascii	"t\231M\306^g\357\364\007c\037j\0145\02316\275BF\354"
 508      5E67EFF4 
 508      07631F6A 
 508      0C351331 
 508      36BD4246 
 509 0507 211E7B88 		.ascii	"!\036{\210%\352\033\376n\245\350[\023\341{\203\373\322"
 509      25EA1BFE 
 509      6EA5E85B 
 509      13E17B83 
 509      FBD2
 510 0519 67FCA2B4 		.ascii	"g\374\242\2647\227\244\276\367\356\222\205\236\245n"
 510      3797A4BE 
 510      F7EE9285 
 510      9EA56E
 511 0528 8F2DED83 		.ascii	"\217-\355\203\217\023SSR\244\027\322\224U\212{\251G"
 511      8F135353 
 511      52A417D2 
 511      94558A7B 
 511      A947
 512 053a C958B2D0 		.ascii	"\311X\262\320\265\326\235\256,^\260\320\225\372\352"
 512      B5D69DAE 
 512      2C5EB0D0 
 512      95FAEA
 513 0549 62EE9D9C 		.ascii	"b\356\235\234.\305\031@\327\352g\304\311[+]\351\237"
 513      2EC51940 
 513      D7EA67C4 
 513      C95B2B5D 
 513      E99F
 514 055b 4F177857 		.ascii	"O\027xWe,[\267\300\365\245\342\216Y\233\271\3123o\002"
 514      652C5BB7 
 514      C0F5A5E2 
 514      8E599BB9 
 514      CA336F02 
 515 056f EE17D3D7 		.ascii	"\356\027\323\327y\326\255V\326$\177*\315\326\301i\212"
 515      79D6AD56 
 515      D6247F2A 
 515      CDD6C169 
 515      8A
 516 0580 E7EDCC2F 		.ascii	"\347\355\314/23\024\367G\312\212\3145\036\305m\245\024"
 516      323314F7 
 516      47CA8ACC 
ARM GAS  C:\Users\info\AppData\Local\Temp\cckCo0kV.s 			page 40


 516      351EC56D 
 516      A514
 517 0592 2973678C 		.ascii	")sg\214\323+\236\367]\031\212\276=K_O]\251,u\213;3\004"
 517      D32B9EF7 
 517      5D198ABE 
 517      3D4B5F4F 
 517      5DA92C75 
 518 05aa 4E5304AE 		.ascii	"NS\004\256k\351\350;\263\205\030QY\314\022\266\"A\026"
 518      6BE9E83B 
 518      B3851851 
 518      59CC12B6 
 518      224116
 519 05bd B7B2625E 		.ascii	"\267\262b^\014\376\244\314\375\017\021\"Od"
 519      0CFEA4CC 
 519      FD0F1122 
 519      4F64
 520              		.text
 521              		.section	.gnu.lto_.symtab.792a78db,"",%progbits
 522 0000 5647415F 		.ascii	"VGA_CLK_Start\000"
 522      434C4B5F 
 522      53746172 
 522      7400
 523 000e 00       		.ascii	"\000"
 524 000f 00       		.ascii	"\000"
 525 0010 00       		.ascii	"\000"
 526 0011 00000000 		.ascii	"\000\000\000\000\000\000\000\000"
 526      00000000 
 527 0019 AD000000 		.ascii	"\255\000\000\000"
 528 001d 5647415F 		.ascii	"VGA_CLK_Stop\000"
 528      434C4B5F 
 528      53746F70 
 528      00
 529 002a 00       		.ascii	"\000"
 530 002b 00       		.ascii	"\000"
 531 002c 00       		.ascii	"\000"
 532 002d 00000000 		.ascii	"\000\000\000\000\000\000\000\000"
 532      00000000 
 533 0035 AF000000 		.ascii	"\257\000\000\000"
 534 0039 5647415F 		.ascii	"VGA_CLK_StopBlock\000"
 534      434C4B5F 
 534      53746F70 
 534      426C6F63 
 534      6B00
 535 004b 00       		.ascii	"\000"
 536 004c 00       		.ascii	"\000"
 537 004d 00       		.ascii	"\000"
 538 004e 00000000 		.ascii	"\000\000\000\000\000\000\000\000"
 538      00000000 
 539 0056 B1000000 		.ascii	"\261\000\000\000"
 540 005a 5647415F 		.ascii	"VGA_CLK_StandbyPower\000"
 540      434C4B5F 
 540      5374616E 
 540      64627950 
 540      6F776572 
 541 006f 00       		.ascii	"\000"
 542 0070 00       		.ascii	"\000"
 543 0071 00       		.ascii	"\000"
ARM GAS  C:\Users\info\AppData\Local\Temp\cckCo0kV.s 			page 41


 544 0072 00000000 		.ascii	"\000\000\000\000\000\000\000\000"
 544      00000000 
 545 007a BA000000 		.ascii	"\272\000\000\000"
 546 007e 5647415F 		.ascii	"VGA_CLK_GetDividerRegister\000"
 546      434C4B5F 
 546      47657444 
 546      69766964 
 546      65725265 
 547 0099 00       		.ascii	"\000"
 548 009a 00       		.ascii	"\000"
 549 009b 00       		.ascii	"\000"
 550 009c 00000000 		.ascii	"\000\000\000\000\000\000\000\000"
 550      00000000 
 551 00a4 C4000000 		.ascii	"\304\000\000\000"
 552 00a8 5647415F 		.ascii	"VGA_CLK_SetModeRegister\000"
 552      434C4B5F 
 552      5365744D 
 552      6F646552 
 552      65676973 
 553 00c0 00       		.ascii	"\000"
 554 00c1 00       		.ascii	"\000"
 555 00c2 00       		.ascii	"\000"
 556 00c3 00000000 		.ascii	"\000\000\000\000\000\000\000\000"
 556      00000000 
 557 00cb C6000000 		.ascii	"\306\000\000\000"
 558 00cf 5647415F 		.ascii	"VGA_CLK_ClearModeRegister\000"
 558      434C4B5F 
 558      436C6561 
 558      724D6F64 
 558      65526567 
 559 00e9 00       		.ascii	"\000"
 560 00ea 00       		.ascii	"\000"
 561 00eb 00       		.ascii	"\000"
 562 00ec 00000000 		.ascii	"\000\000\000\000\000\000\000\000"
 562      00000000 
 563 00f4 C8000000 		.ascii	"\310\000\000\000"
 564 00f8 5647415F 		.ascii	"VGA_CLK_GetModeRegister\000"
 564      434C4B5F 
 564      4765744D 
 564      6F646552 
 564      65676973 
 565 0110 00       		.ascii	"\000"
 566 0111 00       		.ascii	"\000"
 567 0112 00       		.ascii	"\000"
 568 0113 00000000 		.ascii	"\000\000\000\000\000\000\000\000"
 568      00000000 
 569 011b CB000000 		.ascii	"\313\000\000\000"
 570 011f 5647415F 		.ascii	"VGA_CLK_GetSourceRegister\000"
 570      434C4B5F 
 570      47657453 
 570      6F757263 
 570      65526567 
 571 0139 00       		.ascii	"\000"
 572 013a 00       		.ascii	"\000"
 573 013b 00       		.ascii	"\000"
 574 013c 00000000 		.ascii	"\000\000\000\000\000\000\000\000"
 574      00000000 
ARM GAS  C:\Users\info\AppData\Local\Temp\cckCo0kV.s 			page 42


 575 0144 CD000000 		.ascii	"\315\000\000\000"
 576 0148 5647415F 		.ascii	"VGA_CLK_SetDividerRegister\000"
 576      434C4B5F 
 576      53657444 
 576      69766964 
 576      65725265 
 577 0163 00       		.ascii	"\000"
 578 0164 00       		.ascii	"\000"
 579 0165 00       		.ascii	"\000"
 580 0166 00000000 		.ascii	"\000\000\000\000\000\000\000\000"
 580      00000000 
 581 016e D2000000 		.ascii	"\322\000\000\000"
 582 0172 5647415F 		.ascii	"VGA_CLK_SetSourceRegister\000"
 582      434C4B5F 
 582      53657453 
 582      6F757263 
 582      65526567 
 583 018c 00       		.ascii	"\000"
 584 018d 00       		.ascii	"\000"
 585 018e 00       		.ascii	"\000"
 586 018f 00000000 		.ascii	"\000\000\000\000\000\000\000\000"
 586      00000000 
 587 0197 D4000000 		.ascii	"\324\000\000\000"
 588              		.text
 589              		.section	.gnu.lto_.opts,"",%progbits
 590 0000 272D666D 		.ascii	"'-fmath-errno' '-fsigned-zeros' '-ftrapping-math' '"
 590      6174682D 
 590      6572726E 
 590      6F272027 
 590      2D667369 
 591 0033 2D666E6F 		.ascii	"-fno-trapv' '-fno-strict-overflow' '-fno-openmp' '-"
 591      2D747261 
 591      70762720 
 591      272D666E 
 591      6F2D7374 
 592 0066 666E6F2D 		.ascii	"fno-openacc' '-mcpu=cortex-m3' '-mthumb' '-g' '-Og'"
 592      6F70656E 
 592      61636327 
 592      20272D6D 
 592      6370753D 
 593 0099 20272D66 		.ascii	" '-ffunction-sections' '-ffat-lto-objects' '-flto'\000"
 593      66756E63 
 593      74696F6E 
 593      2D736563 
 593      74696F6E 
 594              		.text
 595              		.cfi_sections	.debug_frame
 596              		.section	.text.VGA_CLK_Start,"ax",%progbits
 597              		.align	2
 598              		.global	VGA_CLK_Start
 599              		.thumb
 600              		.thumb_func
 601              		.type	VGA_CLK_Start, %function
 602              	VGA_CLK_Start:
 603              	.LFB0:
 604              		.file 1 "Generated_Source\\PSoC5\\VGA_CLK.c"
   1:Generated_Source\PSoC5/VGA_CLK.c **** /*******************************************************************************
ARM GAS  C:\Users\info\AppData\Local\Temp\cckCo0kV.s 			page 43


   2:Generated_Source\PSoC5/VGA_CLK.c **** * File Name: VGA_CLK.c
   3:Generated_Source\PSoC5/VGA_CLK.c **** * Version 2.20
   4:Generated_Source\PSoC5/VGA_CLK.c **** *
   5:Generated_Source\PSoC5/VGA_CLK.c **** *  Description:
   6:Generated_Source\PSoC5/VGA_CLK.c **** *   This file provides the source code to the API for the clock component.
   7:Generated_Source\PSoC5/VGA_CLK.c **** *
   8:Generated_Source\PSoC5/VGA_CLK.c **** *  Note:
   9:Generated_Source\PSoC5/VGA_CLK.c **** *
  10:Generated_Source\PSoC5/VGA_CLK.c **** ********************************************************************************
  11:Generated_Source\PSoC5/VGA_CLK.c **** * Copyright 2008-2012, Cypress Semiconductor Corporation.  All rights reserved.
  12:Generated_Source\PSoC5/VGA_CLK.c **** * You may use this file only in accordance with the license, terms, conditions, 
  13:Generated_Source\PSoC5/VGA_CLK.c **** * disclaimers, and limitations in the end user license agreement accompanying 
  14:Generated_Source\PSoC5/VGA_CLK.c **** * the software package with which this file was provided.
  15:Generated_Source\PSoC5/VGA_CLK.c **** *******************************************************************************/
  16:Generated_Source\PSoC5/VGA_CLK.c **** 
  17:Generated_Source\PSoC5/VGA_CLK.c **** #include <cydevice_trm.h>
  18:Generated_Source\PSoC5/VGA_CLK.c **** #include "VGA_CLK.h"
  19:Generated_Source\PSoC5/VGA_CLK.c **** 
  20:Generated_Source\PSoC5/VGA_CLK.c **** /* Clock Distribution registers. */
  21:Generated_Source\PSoC5/VGA_CLK.c **** #define CLK_DIST_LD              (* (reg8 *) CYREG_CLKDIST_LD)
  22:Generated_Source\PSoC5/VGA_CLK.c **** #define CLK_DIST_BCFG2           (* (reg8 *) CYREG_CLKDIST_BCFG2)
  23:Generated_Source\PSoC5/VGA_CLK.c **** #define BCFG2_MASK               (0x80u)
  24:Generated_Source\PSoC5/VGA_CLK.c **** #define CLK_DIST_DMASK           (* (reg8 *) CYREG_CLKDIST_DMASK)
  25:Generated_Source\PSoC5/VGA_CLK.c **** #define CLK_DIST_AMASK           (* (reg8 *) CYREG_CLKDIST_AMASK)
  26:Generated_Source\PSoC5/VGA_CLK.c **** 
  27:Generated_Source\PSoC5/VGA_CLK.c **** #define HAS_CLKDIST_LD_DISABLE   (CY_PSOC3 || CY_PSOC5LP)
  28:Generated_Source\PSoC5/VGA_CLK.c **** 
  29:Generated_Source\PSoC5/VGA_CLK.c **** 
  30:Generated_Source\PSoC5/VGA_CLK.c **** /*******************************************************************************
  31:Generated_Source\PSoC5/VGA_CLK.c **** * Function Name: VGA_CLK_Start
  32:Generated_Source\PSoC5/VGA_CLK.c **** ********************************************************************************
  33:Generated_Source\PSoC5/VGA_CLK.c **** *
  34:Generated_Source\PSoC5/VGA_CLK.c **** * Summary:
  35:Generated_Source\PSoC5/VGA_CLK.c **** *  Starts the clock. Note that on startup, clocks may be already running if the
  36:Generated_Source\PSoC5/VGA_CLK.c **** *  "Start on Reset" option is enabled in the DWR.
  37:Generated_Source\PSoC5/VGA_CLK.c **** *
  38:Generated_Source\PSoC5/VGA_CLK.c **** * Parameters:
  39:Generated_Source\PSoC5/VGA_CLK.c **** *  None
  40:Generated_Source\PSoC5/VGA_CLK.c **** *
  41:Generated_Source\PSoC5/VGA_CLK.c **** * Returns:
  42:Generated_Source\PSoC5/VGA_CLK.c **** *  None
  43:Generated_Source\PSoC5/VGA_CLK.c **** *
  44:Generated_Source\PSoC5/VGA_CLK.c **** *******************************************************************************/
  45:Generated_Source\PSoC5/VGA_CLK.c **** void VGA_CLK_Start(void) 
  46:Generated_Source\PSoC5/VGA_CLK.c **** {
 605              		.loc 1 46 0
 606              		.cfi_startproc
 607              		@ args = 0, pretend = 0, frame = 0
 608              		@ frame_needed = 0, uses_anonymous_args = 0
 609              		@ link register save eliminated.
  47:Generated_Source\PSoC5/VGA_CLK.c ****     /* Set the bit to enable the clock. */
  48:Generated_Source\PSoC5/VGA_CLK.c ****     VGA_CLK_CLKEN |= VGA_CLK_CLKEN_MASK;
 610              		.loc 1 48 0
 611 0000 054A     		ldr	r2, .L2
 612 0002 1378     		ldrb	r3, [r2]	@ zero_extendqisi2
 613 0004 43F00103 		orr	r3, r3, #1
 614 0008 1370     		strb	r3, [r2]
ARM GAS  C:\Users\info\AppData\Local\Temp\cckCo0kV.s 			page 44


  49:Generated_Source\PSoC5/VGA_CLK.c **** 	VGA_CLK_CLKSTBY |= VGA_CLK_CLKSTBY_MASK;
 615              		.loc 1 49 0
 616 000a 1032     		adds	r2, r2, #16
 617 000c 1378     		ldrb	r3, [r2]	@ zero_extendqisi2
 618 000e 43F00103 		orr	r3, r3, #1
 619 0012 1370     		strb	r3, [r2]
 620 0014 7047     		bx	lr
 621              	.L3:
 622 0016 00BF     		.align	2
 623              	.L2:
 624 0018 A2430040 		.word	1073759138
 625              		.cfi_endproc
 626              	.LFE0:
 627              		.size	VGA_CLK_Start, .-VGA_CLK_Start
 628              		.section	.text.VGA_CLK_Stop,"ax",%progbits
 629              		.align	2
 630              		.global	VGA_CLK_Stop
 631              		.thumb
 632              		.thumb_func
 633              		.type	VGA_CLK_Stop, %function
 634              	VGA_CLK_Stop:
 635              	.LFB1:
  50:Generated_Source\PSoC5/VGA_CLK.c **** }
  51:Generated_Source\PSoC5/VGA_CLK.c **** 
  52:Generated_Source\PSoC5/VGA_CLK.c **** 
  53:Generated_Source\PSoC5/VGA_CLK.c **** /*******************************************************************************
  54:Generated_Source\PSoC5/VGA_CLK.c **** * Function Name: VGA_CLK_Stop
  55:Generated_Source\PSoC5/VGA_CLK.c **** ********************************************************************************
  56:Generated_Source\PSoC5/VGA_CLK.c **** *
  57:Generated_Source\PSoC5/VGA_CLK.c **** * Summary:
  58:Generated_Source\PSoC5/VGA_CLK.c **** *  Stops the clock and returns immediately. This API does not require the
  59:Generated_Source\PSoC5/VGA_CLK.c **** *  source clock to be running but may return before the hardware is actually
  60:Generated_Source\PSoC5/VGA_CLK.c **** *  disabled. If the settings of the clock are changed after calling this
  61:Generated_Source\PSoC5/VGA_CLK.c **** *  function, the clock may glitch when it is started. To avoid the clock
  62:Generated_Source\PSoC5/VGA_CLK.c **** *  glitch, use the StopBlock function.
  63:Generated_Source\PSoC5/VGA_CLK.c **** *
  64:Generated_Source\PSoC5/VGA_CLK.c **** * Parameters:
  65:Generated_Source\PSoC5/VGA_CLK.c **** *  None
  66:Generated_Source\PSoC5/VGA_CLK.c **** *
  67:Generated_Source\PSoC5/VGA_CLK.c **** * Returns:
  68:Generated_Source\PSoC5/VGA_CLK.c **** *  None
  69:Generated_Source\PSoC5/VGA_CLK.c **** *
  70:Generated_Source\PSoC5/VGA_CLK.c **** *******************************************************************************/
  71:Generated_Source\PSoC5/VGA_CLK.c **** void VGA_CLK_Stop(void) 
  72:Generated_Source\PSoC5/VGA_CLK.c **** {
 636              		.loc 1 72 0
 637              		.cfi_startproc
 638              		@ args = 0, pretend = 0, frame = 0
 639              		@ frame_needed = 0, uses_anonymous_args = 0
 640              		@ link register save eliminated.
  73:Generated_Source\PSoC5/VGA_CLK.c ****     /* Clear the bit to disable the clock. */
  74:Generated_Source\PSoC5/VGA_CLK.c ****     VGA_CLK_CLKEN &= (uint8)(~VGA_CLK_CLKEN_MASK);
 641              		.loc 1 74 0
 642 0000 054A     		ldr	r2, .L5
 643 0002 1378     		ldrb	r3, [r2]	@ zero_extendqisi2
 644 0004 03F0FE03 		and	r3, r3, #254
 645 0008 1370     		strb	r3, [r2]
ARM GAS  C:\Users\info\AppData\Local\Temp\cckCo0kV.s 			page 45


  75:Generated_Source\PSoC5/VGA_CLK.c **** 	VGA_CLK_CLKSTBY &= (uint8)(~VGA_CLK_CLKSTBY_MASK);
 646              		.loc 1 75 0
 647 000a 1032     		adds	r2, r2, #16
 648 000c 1378     		ldrb	r3, [r2]	@ zero_extendqisi2
 649 000e 03F0FE03 		and	r3, r3, #254
 650 0012 1370     		strb	r3, [r2]
 651 0014 7047     		bx	lr
 652              	.L6:
 653 0016 00BF     		.align	2
 654              	.L5:
 655 0018 A2430040 		.word	1073759138
 656              		.cfi_endproc
 657              	.LFE1:
 658              		.size	VGA_CLK_Stop, .-VGA_CLK_Stop
 659              		.section	.text.VGA_CLK_StopBlock,"ax",%progbits
 660              		.align	2
 661              		.global	VGA_CLK_StopBlock
 662              		.thumb
 663              		.thumb_func
 664              		.type	VGA_CLK_StopBlock, %function
 665              	VGA_CLK_StopBlock:
 666              	.LFB2:
  76:Generated_Source\PSoC5/VGA_CLK.c **** }
  77:Generated_Source\PSoC5/VGA_CLK.c **** 
  78:Generated_Source\PSoC5/VGA_CLK.c **** 
  79:Generated_Source\PSoC5/VGA_CLK.c **** #if(CY_PSOC3 || CY_PSOC5LP)
  80:Generated_Source\PSoC5/VGA_CLK.c **** 
  81:Generated_Source\PSoC5/VGA_CLK.c **** 
  82:Generated_Source\PSoC5/VGA_CLK.c **** /*******************************************************************************
  83:Generated_Source\PSoC5/VGA_CLK.c **** * Function Name: VGA_CLK_StopBlock
  84:Generated_Source\PSoC5/VGA_CLK.c **** ********************************************************************************
  85:Generated_Source\PSoC5/VGA_CLK.c **** *
  86:Generated_Source\PSoC5/VGA_CLK.c **** * Summary:
  87:Generated_Source\PSoC5/VGA_CLK.c **** *  Stops the clock and waits for the hardware to actually be disabled before
  88:Generated_Source\PSoC5/VGA_CLK.c **** *  returning. This ensures that the clock is never truncated (high part of the
  89:Generated_Source\PSoC5/VGA_CLK.c **** *  cycle will terminate before the clock is disabled and the API returns).
  90:Generated_Source\PSoC5/VGA_CLK.c **** *  Note that the source clock must be running or this API will never return as
  91:Generated_Source\PSoC5/VGA_CLK.c **** *  a stopped clock cannot be disabled.
  92:Generated_Source\PSoC5/VGA_CLK.c **** *
  93:Generated_Source\PSoC5/VGA_CLK.c **** * Parameters:
  94:Generated_Source\PSoC5/VGA_CLK.c **** *  None
  95:Generated_Source\PSoC5/VGA_CLK.c **** *
  96:Generated_Source\PSoC5/VGA_CLK.c **** * Returns:
  97:Generated_Source\PSoC5/VGA_CLK.c **** *  None
  98:Generated_Source\PSoC5/VGA_CLK.c **** *
  99:Generated_Source\PSoC5/VGA_CLK.c **** *******************************************************************************/
 100:Generated_Source\PSoC5/VGA_CLK.c **** void VGA_CLK_StopBlock(void) 
 101:Generated_Source\PSoC5/VGA_CLK.c **** {
 667              		.loc 1 101 0
 668              		.cfi_startproc
 669              		@ args = 0, pretend = 0, frame = 0
 670              		@ frame_needed = 0, uses_anonymous_args = 0
 671              		@ link register save eliminated.
 102:Generated_Source\PSoC5/VGA_CLK.c ****     if ((VGA_CLK_CLKEN & VGA_CLK_CLKEN_MASK) != 0u)
 672              		.loc 1 102 0
 673 0000 164B     		ldr	r3, .L10
 674 0002 1B78     		ldrb	r3, [r3]	@ zero_extendqisi2
ARM GAS  C:\Users\info\AppData\Local\Temp\cckCo0kV.s 			page 46


 675 0004 13F0010F 		tst	r3, #1
 676 0008 27D0     		beq	.L7
 677              	.LBB2:
 103:Generated_Source\PSoC5/VGA_CLK.c ****     {
 104:Generated_Source\PSoC5/VGA_CLK.c **** #if HAS_CLKDIST_LD_DISABLE
 105:Generated_Source\PSoC5/VGA_CLK.c ****         uint16 oldDivider;
 106:Generated_Source\PSoC5/VGA_CLK.c **** 
 107:Generated_Source\PSoC5/VGA_CLK.c ****         CLK_DIST_LD = 0u;
 678              		.loc 1 107 0
 679 000a 1549     		ldr	r1, .L10+4
 680 000c 0023     		movs	r3, #0
 681 000e 0B70     		strb	r3, [r1]
 108:Generated_Source\PSoC5/VGA_CLK.c **** 
 109:Generated_Source\PSoC5/VGA_CLK.c ****         /* Clear all the mask bits except ours. */
 110:Generated_Source\PSoC5/VGA_CLK.c **** #if defined(VGA_CLK__CFG3)
 111:Generated_Source\PSoC5/VGA_CLK.c ****         CLK_DIST_AMASK = VGA_CLK_CLKEN_MASK;
 112:Generated_Source\PSoC5/VGA_CLK.c ****         CLK_DIST_DMASK = 0x00u;
 113:Generated_Source\PSoC5/VGA_CLK.c **** #else
 114:Generated_Source\PSoC5/VGA_CLK.c ****         CLK_DIST_DMASK = VGA_CLK_CLKEN_MASK;
 682              		.loc 1 114 0
 683 0010 0120     		movs	r0, #1
 684 0012 144A     		ldr	r2, .L10+8
 685 0014 1070     		strb	r0, [r2]
 115:Generated_Source\PSoC5/VGA_CLK.c ****         CLK_DIST_AMASK = 0x00u;
 686              		.loc 1 115 0
 687 0016 0432     		adds	r2, r2, #4
 688 0018 1370     		strb	r3, [r2]
 116:Generated_Source\PSoC5/VGA_CLK.c **** #endif /* VGA_CLK__CFG3 */
 117:Generated_Source\PSoC5/VGA_CLK.c **** 
 118:Generated_Source\PSoC5/VGA_CLK.c ****         /* Clear mask of bus clock. */
 119:Generated_Source\PSoC5/VGA_CLK.c ****         CLK_DIST_BCFG2 &= (uint8)(~BCFG2_MASK);
 689              		.loc 1 119 0
 690 001a 0C3A     		subs	r2, r2, #12
 691 001c 1378     		ldrb	r3, [r2]	@ zero_extendqisi2
 692 001e 03F07F03 		and	r3, r3, #127
 693 0022 1370     		strb	r3, [r2]
 120:Generated_Source\PSoC5/VGA_CLK.c **** 
 121:Generated_Source\PSoC5/VGA_CLK.c ****         oldDivider = CY_GET_REG16(VGA_CLK_DIV_PTR);
 694              		.loc 1 121 0
 695 0024 104B     		ldr	r3, .L10+12
 696 0026 1A88     		ldrh	r2, [r3]
 697 0028 92B2     		uxth	r2, r2
 698              	.LVL0:
 122:Generated_Source\PSoC5/VGA_CLK.c ****         CY_SET_REG16(CYREG_CLKDIST_WRK0, oldDivider);
 699              		.loc 1 122 0
 700 002a 7E3B     		subs	r3, r3, #126
 701 002c 1A80     		strh	r2, [r3]	@ movhi
 123:Generated_Source\PSoC5/VGA_CLK.c ****         CLK_DIST_LD = CYCLK_LD_DISABLE | CYCLK_LD_SYNC_EN | CYCLK_LD_LOAD;
 702              		.loc 1 123 0
 703 002e 0723     		movs	r3, #7
 704 0030 0B70     		strb	r3, [r1]
 705              	.L9:
 124:Generated_Source\PSoC5/VGA_CLK.c **** 
 125:Generated_Source\PSoC5/VGA_CLK.c ****         /* Wait for clock to be disabled */
 126:Generated_Source\PSoC5/VGA_CLK.c ****         while ((CLK_DIST_LD & CYCLK_LD_LOAD) != 0u) { }
 706              		.loc 1 126 0 discriminator 1
 707 0032 0B4B     		ldr	r3, .L10+4
ARM GAS  C:\Users\info\AppData\Local\Temp\cckCo0kV.s 			page 47


 708 0034 1B78     		ldrb	r3, [r3]	@ zero_extendqisi2
 709 0036 13F0010F 		tst	r3, #1
 710 003a FAD1     		bne	.L9
 127:Generated_Source\PSoC5/VGA_CLK.c **** #endif /* HAS_CLKDIST_LD_DISABLE */
 128:Generated_Source\PSoC5/VGA_CLK.c **** 
 129:Generated_Source\PSoC5/VGA_CLK.c ****         /* Clear the bit to disable the clock. */
 130:Generated_Source\PSoC5/VGA_CLK.c ****         VGA_CLK_CLKEN &= (uint8)(~VGA_CLK_CLKEN_MASK);
 711              		.loc 1 130 0
 712 003c 0749     		ldr	r1, .L10
 713 003e 0B78     		ldrb	r3, [r1]	@ zero_extendqisi2
 714 0040 03F0FE03 		and	r3, r3, #254
 715 0044 0B70     		strb	r3, [r1]
 131:Generated_Source\PSoC5/VGA_CLK.c ****         VGA_CLK_CLKSTBY &= (uint8)(~VGA_CLK_CLKSTBY_MASK);
 716              		.loc 1 131 0
 717 0046 1031     		adds	r1, r1, #16
 718 0048 0B78     		ldrb	r3, [r1]	@ zero_extendqisi2
 719 004a 03F0FE03 		and	r3, r3, #254
 720 004e 0B70     		strb	r3, [r1]
 132:Generated_Source\PSoC5/VGA_CLK.c **** 
 133:Generated_Source\PSoC5/VGA_CLK.c **** #if HAS_CLKDIST_LD_DISABLE
 134:Generated_Source\PSoC5/VGA_CLK.c ****         /* Clear the disable bit */
 135:Generated_Source\PSoC5/VGA_CLK.c ****         CLK_DIST_LD = 0x00u;
 721              		.loc 1 135 0
 722 0050 0021     		movs	r1, #0
 723 0052 034B     		ldr	r3, .L10+4
 724 0054 1970     		strb	r1, [r3]
 136:Generated_Source\PSoC5/VGA_CLK.c ****         CY_SET_REG16(VGA_CLK_DIV_PTR, oldDivider);
 725              		.loc 1 136 0
 726 0056 7F33     		adds	r3, r3, #127
 727 0058 1A80     		strh	r2, [r3]	@ movhi
 728              	.LVL1:
 729              	.L7:
 730 005a 7047     		bx	lr
 731              	.L11:
 732              		.align	2
 733              	.L10:
 734 005c A2430040 		.word	1073759138
 735 0060 01400040 		.word	1073758209
 736 0064 10400040 		.word	1073758224
 737 0068 80400040 		.word	1073758336
 738              	.LBE2:
 739              		.cfi_endproc
 740              	.LFE2:
 741              		.size	VGA_CLK_StopBlock, .-VGA_CLK_StopBlock
 742              		.section	.text.VGA_CLK_StandbyPower,"ax",%progbits
 743              		.align	2
 744              		.global	VGA_CLK_StandbyPower
 745              		.thumb
 746              		.thumb_func
 747              		.type	VGA_CLK_StandbyPower, %function
 748              	VGA_CLK_StandbyPower:
 749              	.LFB3:
 137:Generated_Source\PSoC5/VGA_CLK.c **** #endif /* HAS_CLKDIST_LD_DISABLE */
 138:Generated_Source\PSoC5/VGA_CLK.c ****     }
 139:Generated_Source\PSoC5/VGA_CLK.c **** }
 140:Generated_Source\PSoC5/VGA_CLK.c **** #endif /* (CY_PSOC3 || CY_PSOC5LP) */
 141:Generated_Source\PSoC5/VGA_CLK.c **** 
ARM GAS  C:\Users\info\AppData\Local\Temp\cckCo0kV.s 			page 48


 142:Generated_Source\PSoC5/VGA_CLK.c **** 
 143:Generated_Source\PSoC5/VGA_CLK.c **** /*******************************************************************************
 144:Generated_Source\PSoC5/VGA_CLK.c **** * Function Name: VGA_CLK_StandbyPower
 145:Generated_Source\PSoC5/VGA_CLK.c **** ********************************************************************************
 146:Generated_Source\PSoC5/VGA_CLK.c **** *
 147:Generated_Source\PSoC5/VGA_CLK.c **** * Summary:
 148:Generated_Source\PSoC5/VGA_CLK.c **** *  Sets whether the clock is active in standby mode.
 149:Generated_Source\PSoC5/VGA_CLK.c **** *
 150:Generated_Source\PSoC5/VGA_CLK.c **** * Parameters:
 151:Generated_Source\PSoC5/VGA_CLK.c **** *  state:  0 to disable clock during standby, nonzero to enable.
 152:Generated_Source\PSoC5/VGA_CLK.c **** *
 153:Generated_Source\PSoC5/VGA_CLK.c **** * Returns:
 154:Generated_Source\PSoC5/VGA_CLK.c **** *  None
 155:Generated_Source\PSoC5/VGA_CLK.c **** *
 156:Generated_Source\PSoC5/VGA_CLK.c **** *******************************************************************************/
 157:Generated_Source\PSoC5/VGA_CLK.c **** void VGA_CLK_StandbyPower(uint8 state) 
 158:Generated_Source\PSoC5/VGA_CLK.c **** {
 750              		.loc 1 158 0
 751              		.cfi_startproc
 752              		@ args = 0, pretend = 0, frame = 0
 753              		@ frame_needed = 0, uses_anonymous_args = 0
 754              		@ link register save eliminated.
 755              	.LVL2:
 159:Generated_Source\PSoC5/VGA_CLK.c ****     if(state == 0u)
 756              		.loc 1 159 0
 757 0000 28B9     		cbnz	r0, .L13
 160:Generated_Source\PSoC5/VGA_CLK.c ****     {
 161:Generated_Source\PSoC5/VGA_CLK.c ****         VGA_CLK_CLKSTBY &= (uint8)(~VGA_CLK_CLKSTBY_MASK);
 758              		.loc 1 161 0
 759 0002 064A     		ldr	r2, .L15
 760 0004 1378     		ldrb	r3, [r2]	@ zero_extendqisi2
 761 0006 03F0FE03 		and	r3, r3, #254
 762 000a 1370     		strb	r3, [r2]
 763 000c 7047     		bx	lr
 764              	.L13:
 162:Generated_Source\PSoC5/VGA_CLK.c ****     }
 163:Generated_Source\PSoC5/VGA_CLK.c ****     else
 164:Generated_Source\PSoC5/VGA_CLK.c ****     {
 165:Generated_Source\PSoC5/VGA_CLK.c ****         VGA_CLK_CLKSTBY |= VGA_CLK_CLKSTBY_MASK;
 765              		.loc 1 165 0
 766 000e 034A     		ldr	r2, .L15
 767 0010 1378     		ldrb	r3, [r2]	@ zero_extendqisi2
 768 0012 43F00103 		orr	r3, r3, #1
 769 0016 1370     		strb	r3, [r2]
 770 0018 7047     		bx	lr
 771              	.L16:
 772 001a 00BF     		.align	2
 773              	.L15:
 774 001c B2430040 		.word	1073759154
 775              		.cfi_endproc
 776              	.LFE3:
 777              		.size	VGA_CLK_StandbyPower, .-VGA_CLK_StandbyPower
 778              		.section	.text.VGA_CLK_GetDividerRegister,"ax",%progbits
 779              		.align	2
 780              		.global	VGA_CLK_GetDividerRegister
 781              		.thumb
 782              		.thumb_func
ARM GAS  C:\Users\info\AppData\Local\Temp\cckCo0kV.s 			page 49


 783              		.type	VGA_CLK_GetDividerRegister, %function
 784              	VGA_CLK_GetDividerRegister:
 785              	.LFB5:
 166:Generated_Source\PSoC5/VGA_CLK.c ****     }
 167:Generated_Source\PSoC5/VGA_CLK.c **** }
 168:Generated_Source\PSoC5/VGA_CLK.c **** 
 169:Generated_Source\PSoC5/VGA_CLK.c **** 
 170:Generated_Source\PSoC5/VGA_CLK.c **** /*******************************************************************************
 171:Generated_Source\PSoC5/VGA_CLK.c **** * Function Name: VGA_CLK_SetDividerRegister
 172:Generated_Source\PSoC5/VGA_CLK.c **** ********************************************************************************
 173:Generated_Source\PSoC5/VGA_CLK.c **** *
 174:Generated_Source\PSoC5/VGA_CLK.c **** * Summary:
 175:Generated_Source\PSoC5/VGA_CLK.c **** *  Modifies the clock divider and, thus, the frequency. When the clock divider
 176:Generated_Source\PSoC5/VGA_CLK.c **** *  register is set to zero or changed from zero, the clock will be temporarily
 177:Generated_Source\PSoC5/VGA_CLK.c **** *  disabled in order to change the SSS mode bit. If the clock is enabled when
 178:Generated_Source\PSoC5/VGA_CLK.c **** *  SetDividerRegister is called, then the source clock must be running.
 179:Generated_Source\PSoC5/VGA_CLK.c **** *
 180:Generated_Source\PSoC5/VGA_CLK.c **** * Parameters:
 181:Generated_Source\PSoC5/VGA_CLK.c **** *  clkDivider:  Divider register value (0-65,535). This value is NOT the
 182:Generated_Source\PSoC5/VGA_CLK.c **** *    divider; the clock hardware divides by clkDivider plus one. For example,
 183:Generated_Source\PSoC5/VGA_CLK.c **** *    to divide the clock by 2, this parameter should be set to 1.
 184:Generated_Source\PSoC5/VGA_CLK.c **** *  restart:  If nonzero, restarts the clock divider: the current clock cycle
 185:Generated_Source\PSoC5/VGA_CLK.c **** *   will be truncated and the new divide value will take effect immediately. If
 186:Generated_Source\PSoC5/VGA_CLK.c **** *   zero, the new divide value will take effect at the end of the current clock
 187:Generated_Source\PSoC5/VGA_CLK.c **** *   cycle.
 188:Generated_Source\PSoC5/VGA_CLK.c **** *
 189:Generated_Source\PSoC5/VGA_CLK.c **** * Returns:
 190:Generated_Source\PSoC5/VGA_CLK.c **** *  None
 191:Generated_Source\PSoC5/VGA_CLK.c **** *
 192:Generated_Source\PSoC5/VGA_CLK.c **** *******************************************************************************/
 193:Generated_Source\PSoC5/VGA_CLK.c **** void VGA_CLK_SetDividerRegister(uint16 clkDivider, uint8 restart)
 194:Generated_Source\PSoC5/VGA_CLK.c ****                                 
 195:Generated_Source\PSoC5/VGA_CLK.c **** {
 196:Generated_Source\PSoC5/VGA_CLK.c ****     uint8 enabled;
 197:Generated_Source\PSoC5/VGA_CLK.c **** 
 198:Generated_Source\PSoC5/VGA_CLK.c ****     uint8 currSrc = VGA_CLK_GetSourceRegister();
 199:Generated_Source\PSoC5/VGA_CLK.c ****     uint16 oldDivider = VGA_CLK_GetDividerRegister();
 200:Generated_Source\PSoC5/VGA_CLK.c **** 
 201:Generated_Source\PSoC5/VGA_CLK.c ****     if (clkDivider != oldDivider)
 202:Generated_Source\PSoC5/VGA_CLK.c ****     {
 203:Generated_Source\PSoC5/VGA_CLK.c ****         enabled = VGA_CLK_CLKEN & VGA_CLK_CLKEN_MASK;
 204:Generated_Source\PSoC5/VGA_CLK.c **** 
 205:Generated_Source\PSoC5/VGA_CLK.c ****         if ((currSrc == (uint8)CYCLK_SRC_SEL_CLK_SYNC_D) && ((oldDivider == 0u) || (clkDivider == 0
 206:Generated_Source\PSoC5/VGA_CLK.c ****         {
 207:Generated_Source\PSoC5/VGA_CLK.c ****             /* Moving to/from SSS requires correct ordering to prevent halting the clock    */
 208:Generated_Source\PSoC5/VGA_CLK.c ****             if (oldDivider == 0u)
 209:Generated_Source\PSoC5/VGA_CLK.c ****             {
 210:Generated_Source\PSoC5/VGA_CLK.c ****                 /* Moving away from SSS, set the divider first so when SSS is cleared we    */
 211:Generated_Source\PSoC5/VGA_CLK.c ****                 /* don't halt the clock.  Using the shadow load isn't required as the       */
 212:Generated_Source\PSoC5/VGA_CLK.c ****                 /* divider is ignored while SSS is set.                                     */
 213:Generated_Source\PSoC5/VGA_CLK.c ****                 CY_SET_REG16(VGA_CLK_DIV_PTR, clkDivider);
 214:Generated_Source\PSoC5/VGA_CLK.c ****                 VGA_CLK_MOD_SRC &= (uint8)(~CYCLK_SSS);
 215:Generated_Source\PSoC5/VGA_CLK.c ****             }
 216:Generated_Source\PSoC5/VGA_CLK.c ****             else
 217:Generated_Source\PSoC5/VGA_CLK.c ****             {
 218:Generated_Source\PSoC5/VGA_CLK.c ****                 /* Moving to SSS, set SSS which then ignores the divider and we can set     */
 219:Generated_Source\PSoC5/VGA_CLK.c ****                 /* it without bothering with the shadow load.                               */
ARM GAS  C:\Users\info\AppData\Local\Temp\cckCo0kV.s 			page 50


 220:Generated_Source\PSoC5/VGA_CLK.c ****                 VGA_CLK_MOD_SRC |= CYCLK_SSS;
 221:Generated_Source\PSoC5/VGA_CLK.c ****                 CY_SET_REG16(VGA_CLK_DIV_PTR, clkDivider);
 222:Generated_Source\PSoC5/VGA_CLK.c ****             }
 223:Generated_Source\PSoC5/VGA_CLK.c ****         }
 224:Generated_Source\PSoC5/VGA_CLK.c ****         else
 225:Generated_Source\PSoC5/VGA_CLK.c ****         {
 226:Generated_Source\PSoC5/VGA_CLK.c **** 			
 227:Generated_Source\PSoC5/VGA_CLK.c ****             if (enabled != 0u)
 228:Generated_Source\PSoC5/VGA_CLK.c ****             {
 229:Generated_Source\PSoC5/VGA_CLK.c ****                 CLK_DIST_LD = 0x00u;
 230:Generated_Source\PSoC5/VGA_CLK.c **** 
 231:Generated_Source\PSoC5/VGA_CLK.c ****                 /* Clear all the mask bits except ours. */
 232:Generated_Source\PSoC5/VGA_CLK.c **** #if defined(VGA_CLK__CFG3)
 233:Generated_Source\PSoC5/VGA_CLK.c ****                 CLK_DIST_AMASK = VGA_CLK_CLKEN_MASK;
 234:Generated_Source\PSoC5/VGA_CLK.c ****                 CLK_DIST_DMASK = 0x00u;
 235:Generated_Source\PSoC5/VGA_CLK.c **** #else
 236:Generated_Source\PSoC5/VGA_CLK.c ****                 CLK_DIST_DMASK = VGA_CLK_CLKEN_MASK;
 237:Generated_Source\PSoC5/VGA_CLK.c ****                 CLK_DIST_AMASK = 0x00u;
 238:Generated_Source\PSoC5/VGA_CLK.c **** #endif /* VGA_CLK__CFG3 */
 239:Generated_Source\PSoC5/VGA_CLK.c ****                 /* Clear mask of bus clock. */
 240:Generated_Source\PSoC5/VGA_CLK.c ****                 CLK_DIST_BCFG2 &= (uint8)(~BCFG2_MASK);
 241:Generated_Source\PSoC5/VGA_CLK.c **** 
 242:Generated_Source\PSoC5/VGA_CLK.c ****                 /* If clock is currently enabled, disable it if async or going from N-to-1*/
 243:Generated_Source\PSoC5/VGA_CLK.c ****                 if (((VGA_CLK_MOD_SRC & CYCLK_SYNC) == 0u) || (clkDivider == 0u))
 244:Generated_Source\PSoC5/VGA_CLK.c ****                 {
 245:Generated_Source\PSoC5/VGA_CLK.c **** #if HAS_CLKDIST_LD_DISABLE
 246:Generated_Source\PSoC5/VGA_CLK.c ****                     CY_SET_REG16(CYREG_CLKDIST_WRK0, oldDivider);
 247:Generated_Source\PSoC5/VGA_CLK.c ****                     CLK_DIST_LD = CYCLK_LD_DISABLE|CYCLK_LD_SYNC_EN|CYCLK_LD_LOAD;
 248:Generated_Source\PSoC5/VGA_CLK.c **** 
 249:Generated_Source\PSoC5/VGA_CLK.c ****                     /* Wait for clock to be disabled */
 250:Generated_Source\PSoC5/VGA_CLK.c ****                     while ((CLK_DIST_LD & CYCLK_LD_LOAD) != 0u) { }
 251:Generated_Source\PSoC5/VGA_CLK.c **** #endif /* HAS_CLKDIST_LD_DISABLE */
 252:Generated_Source\PSoC5/VGA_CLK.c **** 
 253:Generated_Source\PSoC5/VGA_CLK.c ****                     VGA_CLK_CLKEN &= (uint8)(~VGA_CLK_CLKEN_MASK);
 254:Generated_Source\PSoC5/VGA_CLK.c **** 
 255:Generated_Source\PSoC5/VGA_CLK.c **** #if HAS_CLKDIST_LD_DISABLE
 256:Generated_Source\PSoC5/VGA_CLK.c ****                     /* Clear the disable bit */
 257:Generated_Source\PSoC5/VGA_CLK.c ****                     CLK_DIST_LD = 0x00u;
 258:Generated_Source\PSoC5/VGA_CLK.c **** #endif /* HAS_CLKDIST_LD_DISABLE */
 259:Generated_Source\PSoC5/VGA_CLK.c ****                 }
 260:Generated_Source\PSoC5/VGA_CLK.c ****             }
 261:Generated_Source\PSoC5/VGA_CLK.c **** 
 262:Generated_Source\PSoC5/VGA_CLK.c ****             /* Load divide value. */
 263:Generated_Source\PSoC5/VGA_CLK.c ****             if ((VGA_CLK_CLKEN & VGA_CLK_CLKEN_MASK) != 0u)
 264:Generated_Source\PSoC5/VGA_CLK.c ****             {
 265:Generated_Source\PSoC5/VGA_CLK.c ****                 /* If the clock is still enabled, use the shadow registers */
 266:Generated_Source\PSoC5/VGA_CLK.c ****                 CY_SET_REG16(CYREG_CLKDIST_WRK0, clkDivider);
 267:Generated_Source\PSoC5/VGA_CLK.c **** 
 268:Generated_Source\PSoC5/VGA_CLK.c ****                 CLK_DIST_LD = (CYCLK_LD_LOAD | ((restart != 0u) ? CYCLK_LD_SYNC_EN : 0x00u));
 269:Generated_Source\PSoC5/VGA_CLK.c ****                 while ((CLK_DIST_LD & CYCLK_LD_LOAD) != 0u) { }
 270:Generated_Source\PSoC5/VGA_CLK.c ****             }
 271:Generated_Source\PSoC5/VGA_CLK.c ****             else
 272:Generated_Source\PSoC5/VGA_CLK.c ****             {
 273:Generated_Source\PSoC5/VGA_CLK.c ****                 /* If the clock is disabled, set the divider directly */
 274:Generated_Source\PSoC5/VGA_CLK.c ****                 CY_SET_REG16(VGA_CLK_DIV_PTR, clkDivider);
 275:Generated_Source\PSoC5/VGA_CLK.c **** 				VGA_CLK_CLKEN |= enabled;
 276:Generated_Source\PSoC5/VGA_CLK.c ****             }
ARM GAS  C:\Users\info\AppData\Local\Temp\cckCo0kV.s 			page 51


 277:Generated_Source\PSoC5/VGA_CLK.c ****         }
 278:Generated_Source\PSoC5/VGA_CLK.c ****     }
 279:Generated_Source\PSoC5/VGA_CLK.c **** }
 280:Generated_Source\PSoC5/VGA_CLK.c **** 
 281:Generated_Source\PSoC5/VGA_CLK.c **** 
 282:Generated_Source\PSoC5/VGA_CLK.c **** /*******************************************************************************
 283:Generated_Source\PSoC5/VGA_CLK.c **** * Function Name: VGA_CLK_GetDividerRegister
 284:Generated_Source\PSoC5/VGA_CLK.c **** ********************************************************************************
 285:Generated_Source\PSoC5/VGA_CLK.c **** *
 286:Generated_Source\PSoC5/VGA_CLK.c **** * Summary:
 287:Generated_Source\PSoC5/VGA_CLK.c **** *  Gets the clock divider register value.
 288:Generated_Source\PSoC5/VGA_CLK.c **** *
 289:Generated_Source\PSoC5/VGA_CLK.c **** * Parameters:
 290:Generated_Source\PSoC5/VGA_CLK.c **** *  None
 291:Generated_Source\PSoC5/VGA_CLK.c **** *
 292:Generated_Source\PSoC5/VGA_CLK.c **** * Returns:
 293:Generated_Source\PSoC5/VGA_CLK.c **** *  Divide value of the clock minus 1. For example, if the clock is set to
 294:Generated_Source\PSoC5/VGA_CLK.c **** *  divide by 2, the return value will be 1.
 295:Generated_Source\PSoC5/VGA_CLK.c **** *
 296:Generated_Source\PSoC5/VGA_CLK.c **** *******************************************************************************/
 297:Generated_Source\PSoC5/VGA_CLK.c **** uint16 VGA_CLK_GetDividerRegister(void) 
 298:Generated_Source\PSoC5/VGA_CLK.c **** {
 786              		.loc 1 298 0
 787              		.cfi_startproc
 788              		@ args = 0, pretend = 0, frame = 0
 789              		@ frame_needed = 0, uses_anonymous_args = 0
 790              		@ link register save eliminated.
 299:Generated_Source\PSoC5/VGA_CLK.c ****     return CY_GET_REG16(VGA_CLK_DIV_PTR);
 791              		.loc 1 299 0
 792 0000 014B     		ldr	r3, .L18
 793 0002 1888     		ldrh	r0, [r3]
 300:Generated_Source\PSoC5/VGA_CLK.c **** }
 794              		.loc 1 300 0
 795 0004 80B2     		uxth	r0, r0
 796 0006 7047     		bx	lr
 797              	.L19:
 798              		.align	2
 799              	.L18:
 800 0008 80400040 		.word	1073758336
 801              		.cfi_endproc
 802              	.LFE5:
 803              		.size	VGA_CLK_GetDividerRegister, .-VGA_CLK_GetDividerRegister
 804              		.section	.text.VGA_CLK_SetModeRegister,"ax",%progbits
 805              		.align	2
 806              		.global	VGA_CLK_SetModeRegister
 807              		.thumb
 808              		.thumb_func
 809              		.type	VGA_CLK_SetModeRegister, %function
 810              	VGA_CLK_SetModeRegister:
 811              	.LFB6:
 301:Generated_Source\PSoC5/VGA_CLK.c **** 
 302:Generated_Source\PSoC5/VGA_CLK.c **** 
 303:Generated_Source\PSoC5/VGA_CLK.c **** /*******************************************************************************
 304:Generated_Source\PSoC5/VGA_CLK.c **** * Function Name: VGA_CLK_SetModeRegister
 305:Generated_Source\PSoC5/VGA_CLK.c **** ********************************************************************************
 306:Generated_Source\PSoC5/VGA_CLK.c **** *
 307:Generated_Source\PSoC5/VGA_CLK.c **** * Summary:
ARM GAS  C:\Users\info\AppData\Local\Temp\cckCo0kV.s 			page 52


 308:Generated_Source\PSoC5/VGA_CLK.c **** *  Sets flags that control the operating mode of the clock. This function only
 309:Generated_Source\PSoC5/VGA_CLK.c **** *  changes flags from 0 to 1; flags that are already 1 will remain unchanged.
 310:Generated_Source\PSoC5/VGA_CLK.c **** *  To clear flags, use the ClearModeRegister function. The clock must be
 311:Generated_Source\PSoC5/VGA_CLK.c **** *  disabled before changing the mode.
 312:Generated_Source\PSoC5/VGA_CLK.c **** *
 313:Generated_Source\PSoC5/VGA_CLK.c **** * Parameters:
 314:Generated_Source\PSoC5/VGA_CLK.c **** *  clkMode: Bit mask containing the bits to set. For PSoC 3 and PSoC 5,
 315:Generated_Source\PSoC5/VGA_CLK.c **** *   clkMode should be a set of the following optional bits or'ed together.
 316:Generated_Source\PSoC5/VGA_CLK.c **** *   - CYCLK_EARLY Enable early phase mode. Rising edge of output clock will
 317:Generated_Source\PSoC5/VGA_CLK.c **** *                 occur when the divider count reaches half of the divide
 318:Generated_Source\PSoC5/VGA_CLK.c **** *                 value.
 319:Generated_Source\PSoC5/VGA_CLK.c **** *   - CYCLK_DUTY  Enable 50% duty cycle output. When enabled, the output clock
 320:Generated_Source\PSoC5/VGA_CLK.c **** *                 is asserted for approximately half of its period. When
 321:Generated_Source\PSoC5/VGA_CLK.c **** *                 disabled, the output clock is asserted for one period of the
 322:Generated_Source\PSoC5/VGA_CLK.c **** *                 source clock.
 323:Generated_Source\PSoC5/VGA_CLK.c **** *   - CYCLK_SYNC  Enable output synchronization to master clock. This should
 324:Generated_Source\PSoC5/VGA_CLK.c **** *                 be enabled for all synchronous clocks.
 325:Generated_Source\PSoC5/VGA_CLK.c **** *   See the Technical Reference Manual for details about setting the mode of
 326:Generated_Source\PSoC5/VGA_CLK.c **** *   the clock. Specifically, see the CLKDIST.DCFG.CFG2 register.
 327:Generated_Source\PSoC5/VGA_CLK.c **** *
 328:Generated_Source\PSoC5/VGA_CLK.c **** * Returns:
 329:Generated_Source\PSoC5/VGA_CLK.c **** *  None
 330:Generated_Source\PSoC5/VGA_CLK.c **** *
 331:Generated_Source\PSoC5/VGA_CLK.c **** *******************************************************************************/
 332:Generated_Source\PSoC5/VGA_CLK.c **** void VGA_CLK_SetModeRegister(uint8 modeBitMask) 
 333:Generated_Source\PSoC5/VGA_CLK.c **** {
 812              		.loc 1 333 0
 813              		.cfi_startproc
 814              		@ args = 0, pretend = 0, frame = 0
 815              		@ frame_needed = 0, uses_anonymous_args = 0
 816              		@ link register save eliminated.
 817              	.LVL3:
 334:Generated_Source\PSoC5/VGA_CLK.c ****     VGA_CLK_MOD_SRC |= modeBitMask & (uint8)VGA_CLK_MODE_MASK;
 818              		.loc 1 334 0
 819 0000 034B     		ldr	r3, .L21
 820 0002 1A78     		ldrb	r2, [r3]	@ zero_extendqisi2
 821 0004 00F0F800 		and	r0, r0, #248
 822              	.LVL4:
 823 0008 1043     		orrs	r0, r0, r2
 824 000a 1870     		strb	r0, [r3]
 825 000c 7047     		bx	lr
 826              	.L22:
 827 000e 00BF     		.align	2
 828              	.L21:
 829 0010 82400040 		.word	1073758338
 830              		.cfi_endproc
 831              	.LFE6:
 832              		.size	VGA_CLK_SetModeRegister, .-VGA_CLK_SetModeRegister
 833              		.section	.text.VGA_CLK_ClearModeRegister,"ax",%progbits
 834              		.align	2
 835              		.global	VGA_CLK_ClearModeRegister
 836              		.thumb
 837              		.thumb_func
 838              		.type	VGA_CLK_ClearModeRegister, %function
 839              	VGA_CLK_ClearModeRegister:
 840              	.LFB7:
 335:Generated_Source\PSoC5/VGA_CLK.c **** }
ARM GAS  C:\Users\info\AppData\Local\Temp\cckCo0kV.s 			page 53


 336:Generated_Source\PSoC5/VGA_CLK.c **** 
 337:Generated_Source\PSoC5/VGA_CLK.c **** 
 338:Generated_Source\PSoC5/VGA_CLK.c **** /*******************************************************************************
 339:Generated_Source\PSoC5/VGA_CLK.c **** * Function Name: VGA_CLK_ClearModeRegister
 340:Generated_Source\PSoC5/VGA_CLK.c **** ********************************************************************************
 341:Generated_Source\PSoC5/VGA_CLK.c **** *
 342:Generated_Source\PSoC5/VGA_CLK.c **** * Summary:
 343:Generated_Source\PSoC5/VGA_CLK.c **** *  Clears flags that control the operating mode of the clock. This function
 344:Generated_Source\PSoC5/VGA_CLK.c **** *  only changes flags from 1 to 0; flags that are already 0 will remain
 345:Generated_Source\PSoC5/VGA_CLK.c **** *  unchanged. To set flags, use the SetModeRegister function. The clock must be
 346:Generated_Source\PSoC5/VGA_CLK.c **** *  disabled before changing the mode.
 347:Generated_Source\PSoC5/VGA_CLK.c **** *
 348:Generated_Source\PSoC5/VGA_CLK.c **** * Parameters:
 349:Generated_Source\PSoC5/VGA_CLK.c **** *  clkMode: Bit mask containing the bits to clear. For PSoC 3 and PSoC 5,
 350:Generated_Source\PSoC5/VGA_CLK.c **** *   clkMode should be a set of the following optional bits or'ed together.
 351:Generated_Source\PSoC5/VGA_CLK.c **** *   - CYCLK_EARLY Enable early phase mode. Rising edge of output clock will
 352:Generated_Source\PSoC5/VGA_CLK.c **** *                 occur when the divider count reaches half of the divide
 353:Generated_Source\PSoC5/VGA_CLK.c **** *                 value.
 354:Generated_Source\PSoC5/VGA_CLK.c **** *   - CYCLK_DUTY  Enable 50% duty cycle output. When enabled, the output clock
 355:Generated_Source\PSoC5/VGA_CLK.c **** *                 is asserted for approximately half of its period. When
 356:Generated_Source\PSoC5/VGA_CLK.c **** *                 disabled, the output clock is asserted for one period of the
 357:Generated_Source\PSoC5/VGA_CLK.c **** *                 source clock.
 358:Generated_Source\PSoC5/VGA_CLK.c **** *   - CYCLK_SYNC  Enable output synchronization to master clock. This should
 359:Generated_Source\PSoC5/VGA_CLK.c **** *                 be enabled for all synchronous clocks.
 360:Generated_Source\PSoC5/VGA_CLK.c **** *   See the Technical Reference Manual for details about setting the mode of
 361:Generated_Source\PSoC5/VGA_CLK.c **** *   the clock. Specifically, see the CLKDIST.DCFG.CFG2 register.
 362:Generated_Source\PSoC5/VGA_CLK.c **** *
 363:Generated_Source\PSoC5/VGA_CLK.c **** * Returns:
 364:Generated_Source\PSoC5/VGA_CLK.c **** *  None
 365:Generated_Source\PSoC5/VGA_CLK.c **** *
 366:Generated_Source\PSoC5/VGA_CLK.c **** *******************************************************************************/
 367:Generated_Source\PSoC5/VGA_CLK.c **** void VGA_CLK_ClearModeRegister(uint8 modeBitMask) 
 368:Generated_Source\PSoC5/VGA_CLK.c **** {
 841              		.loc 1 368 0
 842              		.cfi_startproc
 843              		@ args = 0, pretend = 0, frame = 0
 844              		@ frame_needed = 0, uses_anonymous_args = 0
 845              		@ link register save eliminated.
 846              	.LVL5:
 369:Generated_Source\PSoC5/VGA_CLK.c ****     VGA_CLK_MOD_SRC &= (uint8)(~modeBitMask) | (uint8)(~(uint8)(VGA_CLK_MODE_MASK));
 847              		.loc 1 369 0
 848 0000 044B     		ldr	r3, .L24
 849 0002 1A78     		ldrb	r2, [r3]	@ zero_extendqisi2
 850 0004 C043     		mvns	r0, r0
 851              	.LVL6:
 852 0006 C0B2     		uxtb	r0, r0
 853 0008 40F00700 		orr	r0, r0, #7
 854 000c 1040     		ands	r0, r0, r2
 855 000e 1870     		strb	r0, [r3]
 856 0010 7047     		bx	lr
 857              	.L25:
 858 0012 00BF     		.align	2
 859              	.L24:
 860 0014 82400040 		.word	1073758338
 861              		.cfi_endproc
 862              	.LFE7:
 863              		.size	VGA_CLK_ClearModeRegister, .-VGA_CLK_ClearModeRegister
ARM GAS  C:\Users\info\AppData\Local\Temp\cckCo0kV.s 			page 54


 864              		.section	.text.VGA_CLK_GetModeRegister,"ax",%progbits
 865              		.align	2
 866              		.global	VGA_CLK_GetModeRegister
 867              		.thumb
 868              		.thumb_func
 869              		.type	VGA_CLK_GetModeRegister, %function
 870              	VGA_CLK_GetModeRegister:
 871              	.LFB8:
 370:Generated_Source\PSoC5/VGA_CLK.c **** }
 371:Generated_Source\PSoC5/VGA_CLK.c **** 
 372:Generated_Source\PSoC5/VGA_CLK.c **** 
 373:Generated_Source\PSoC5/VGA_CLK.c **** /*******************************************************************************
 374:Generated_Source\PSoC5/VGA_CLK.c **** * Function Name: VGA_CLK_GetModeRegister
 375:Generated_Source\PSoC5/VGA_CLK.c **** ********************************************************************************
 376:Generated_Source\PSoC5/VGA_CLK.c **** *
 377:Generated_Source\PSoC5/VGA_CLK.c **** * Summary:
 378:Generated_Source\PSoC5/VGA_CLK.c **** *  Gets the clock mode register value.
 379:Generated_Source\PSoC5/VGA_CLK.c **** *
 380:Generated_Source\PSoC5/VGA_CLK.c **** * Parameters:
 381:Generated_Source\PSoC5/VGA_CLK.c **** *  None
 382:Generated_Source\PSoC5/VGA_CLK.c **** *
 383:Generated_Source\PSoC5/VGA_CLK.c **** * Returns:
 384:Generated_Source\PSoC5/VGA_CLK.c **** *  Bit mask representing the enabled mode bits. See the SetModeRegister and
 385:Generated_Source\PSoC5/VGA_CLK.c **** *  ClearModeRegister descriptions for details about the mode bits.
 386:Generated_Source\PSoC5/VGA_CLK.c **** *
 387:Generated_Source\PSoC5/VGA_CLK.c **** *******************************************************************************/
 388:Generated_Source\PSoC5/VGA_CLK.c **** uint8 VGA_CLK_GetModeRegister(void) 
 389:Generated_Source\PSoC5/VGA_CLK.c **** {
 872              		.loc 1 389 0
 873              		.cfi_startproc
 874              		@ args = 0, pretend = 0, frame = 0
 875              		@ frame_needed = 0, uses_anonymous_args = 0
 876              		@ link register save eliminated.
 390:Generated_Source\PSoC5/VGA_CLK.c ****     return VGA_CLK_MOD_SRC & (uint8)(VGA_CLK_MODE_MASK);
 877              		.loc 1 390 0
 878 0000 024B     		ldr	r3, .L27
 879 0002 1878     		ldrb	r0, [r3]	@ zero_extendqisi2
 391:Generated_Source\PSoC5/VGA_CLK.c **** }
 880              		.loc 1 391 0
 881 0004 00F0F800 		and	r0, r0, #248
 882 0008 7047     		bx	lr
 883              	.L28:
 884 000a 00BF     		.align	2
 885              	.L27:
 886 000c 82400040 		.word	1073758338
 887              		.cfi_endproc
 888              	.LFE8:
 889              		.size	VGA_CLK_GetModeRegister, .-VGA_CLK_GetModeRegister
 890              		.section	.text.VGA_CLK_GetSourceRegister,"ax",%progbits
 891              		.align	2
 892              		.global	VGA_CLK_GetSourceRegister
 893              		.thumb
 894              		.thumb_func
 895              		.type	VGA_CLK_GetSourceRegister, %function
 896              	VGA_CLK_GetSourceRegister:
 897              	.LFB10:
 392:Generated_Source\PSoC5/VGA_CLK.c **** 
ARM GAS  C:\Users\info\AppData\Local\Temp\cckCo0kV.s 			page 55


 393:Generated_Source\PSoC5/VGA_CLK.c **** 
 394:Generated_Source\PSoC5/VGA_CLK.c **** /*******************************************************************************
 395:Generated_Source\PSoC5/VGA_CLK.c **** * Function Name: VGA_CLK_SetSourceRegister
 396:Generated_Source\PSoC5/VGA_CLK.c **** ********************************************************************************
 397:Generated_Source\PSoC5/VGA_CLK.c **** *
 398:Generated_Source\PSoC5/VGA_CLK.c **** * Summary:
 399:Generated_Source\PSoC5/VGA_CLK.c **** *  Sets the input source of the clock. The clock must be disabled before
 400:Generated_Source\PSoC5/VGA_CLK.c **** *  changing the source. The old and new clock sources must be running.
 401:Generated_Source\PSoC5/VGA_CLK.c **** *
 402:Generated_Source\PSoC5/VGA_CLK.c **** * Parameters:
 403:Generated_Source\PSoC5/VGA_CLK.c **** *  clkSource:  For PSoC 3 and PSoC 5 devices, clkSource should be one of the
 404:Generated_Source\PSoC5/VGA_CLK.c **** *   following input sources:
 405:Generated_Source\PSoC5/VGA_CLK.c **** *   - CYCLK_SRC_SEL_SYNC_DIG
 406:Generated_Source\PSoC5/VGA_CLK.c **** *   - CYCLK_SRC_SEL_IMO
 407:Generated_Source\PSoC5/VGA_CLK.c **** *   - CYCLK_SRC_SEL_XTALM
 408:Generated_Source\PSoC5/VGA_CLK.c **** *   - CYCLK_SRC_SEL_ILO
 409:Generated_Source\PSoC5/VGA_CLK.c **** *   - CYCLK_SRC_SEL_PLL
 410:Generated_Source\PSoC5/VGA_CLK.c **** *   - CYCLK_SRC_SEL_XTALK
 411:Generated_Source\PSoC5/VGA_CLK.c **** *   - CYCLK_SRC_SEL_DSI_G
 412:Generated_Source\PSoC5/VGA_CLK.c **** *   - CYCLK_SRC_SEL_DSI_D/CYCLK_SRC_SEL_DSI_A
 413:Generated_Source\PSoC5/VGA_CLK.c **** *   See the Technical Reference Manual for details on clock sources.
 414:Generated_Source\PSoC5/VGA_CLK.c **** *
 415:Generated_Source\PSoC5/VGA_CLK.c **** * Returns:
 416:Generated_Source\PSoC5/VGA_CLK.c **** *  None
 417:Generated_Source\PSoC5/VGA_CLK.c **** *
 418:Generated_Source\PSoC5/VGA_CLK.c **** *******************************************************************************/
 419:Generated_Source\PSoC5/VGA_CLK.c **** void VGA_CLK_SetSourceRegister(uint8 clkSource) 
 420:Generated_Source\PSoC5/VGA_CLK.c **** {
 421:Generated_Source\PSoC5/VGA_CLK.c ****     uint16 currDiv = VGA_CLK_GetDividerRegister();
 422:Generated_Source\PSoC5/VGA_CLK.c ****     uint8 oldSrc = VGA_CLK_GetSourceRegister();
 423:Generated_Source\PSoC5/VGA_CLK.c **** 
 424:Generated_Source\PSoC5/VGA_CLK.c ****     if (((oldSrc != ((uint8)CYCLK_SRC_SEL_CLK_SYNC_D)) && 
 425:Generated_Source\PSoC5/VGA_CLK.c ****         (clkSource == ((uint8)CYCLK_SRC_SEL_CLK_SYNC_D))) && (currDiv == 0u))
 426:Generated_Source\PSoC5/VGA_CLK.c ****     {
 427:Generated_Source\PSoC5/VGA_CLK.c ****         /* Switching to Master and divider is 1, set SSS, which will output master, */
 428:Generated_Source\PSoC5/VGA_CLK.c ****         /* then set the source so we are consistent.                                */
 429:Generated_Source\PSoC5/VGA_CLK.c ****         VGA_CLK_MOD_SRC |= CYCLK_SSS;
 430:Generated_Source\PSoC5/VGA_CLK.c ****         VGA_CLK_MOD_SRC =
 431:Generated_Source\PSoC5/VGA_CLK.c ****             (VGA_CLK_MOD_SRC & (uint8)(~VGA_CLK_SRC_SEL_MSK)) | clkSource;
 432:Generated_Source\PSoC5/VGA_CLK.c ****     }
 433:Generated_Source\PSoC5/VGA_CLK.c ****     else if (((oldSrc == ((uint8)CYCLK_SRC_SEL_CLK_SYNC_D)) && 
 434:Generated_Source\PSoC5/VGA_CLK.c ****             (clkSource != ((uint8)CYCLK_SRC_SEL_CLK_SYNC_D))) && (currDiv == 0u))
 435:Generated_Source\PSoC5/VGA_CLK.c ****     {
 436:Generated_Source\PSoC5/VGA_CLK.c ****         /* Switching from Master to not and divider is 1, set source, so we don't   */
 437:Generated_Source\PSoC5/VGA_CLK.c ****         /* lock when we clear SSS.                                                  */
 438:Generated_Source\PSoC5/VGA_CLK.c ****         VGA_CLK_MOD_SRC =
 439:Generated_Source\PSoC5/VGA_CLK.c ****             (VGA_CLK_MOD_SRC & (uint8)(~VGA_CLK_SRC_SEL_MSK)) | clkSource;
 440:Generated_Source\PSoC5/VGA_CLK.c ****         VGA_CLK_MOD_SRC &= (uint8)(~CYCLK_SSS);
 441:Generated_Source\PSoC5/VGA_CLK.c ****     }
 442:Generated_Source\PSoC5/VGA_CLK.c ****     else
 443:Generated_Source\PSoC5/VGA_CLK.c ****     {
 444:Generated_Source\PSoC5/VGA_CLK.c ****         VGA_CLK_MOD_SRC =
 445:Generated_Source\PSoC5/VGA_CLK.c ****             (VGA_CLK_MOD_SRC & (uint8)(~VGA_CLK_SRC_SEL_MSK)) | clkSource;
 446:Generated_Source\PSoC5/VGA_CLK.c ****     }
 447:Generated_Source\PSoC5/VGA_CLK.c **** }
 448:Generated_Source\PSoC5/VGA_CLK.c **** 
 449:Generated_Source\PSoC5/VGA_CLK.c **** 
ARM GAS  C:\Users\info\AppData\Local\Temp\cckCo0kV.s 			page 56


 450:Generated_Source\PSoC5/VGA_CLK.c **** /*******************************************************************************
 451:Generated_Source\PSoC5/VGA_CLK.c **** * Function Name: VGA_CLK_GetSourceRegister
 452:Generated_Source\PSoC5/VGA_CLK.c **** ********************************************************************************
 453:Generated_Source\PSoC5/VGA_CLK.c **** *
 454:Generated_Source\PSoC5/VGA_CLK.c **** * Summary:
 455:Generated_Source\PSoC5/VGA_CLK.c **** *  Gets the input source of the clock.
 456:Generated_Source\PSoC5/VGA_CLK.c **** *
 457:Generated_Source\PSoC5/VGA_CLK.c **** * Parameters:
 458:Generated_Source\PSoC5/VGA_CLK.c **** *  None
 459:Generated_Source\PSoC5/VGA_CLK.c **** *
 460:Generated_Source\PSoC5/VGA_CLK.c **** * Returns:
 461:Generated_Source\PSoC5/VGA_CLK.c **** *  The input source of the clock. See SetSourceRegister for details.
 462:Generated_Source\PSoC5/VGA_CLK.c **** *
 463:Generated_Source\PSoC5/VGA_CLK.c **** *******************************************************************************/
 464:Generated_Source\PSoC5/VGA_CLK.c **** uint8 VGA_CLK_GetSourceRegister(void) 
 465:Generated_Source\PSoC5/VGA_CLK.c **** {
 898              		.loc 1 465 0
 899              		.cfi_startproc
 900              		@ args = 0, pretend = 0, frame = 0
 901              		@ frame_needed = 0, uses_anonymous_args = 0
 902              		@ link register save eliminated.
 466:Generated_Source\PSoC5/VGA_CLK.c ****     return VGA_CLK_MOD_SRC & VGA_CLK_SRC_SEL_MSK;
 903              		.loc 1 466 0
 904 0000 024B     		ldr	r3, .L30
 905 0002 1878     		ldrb	r0, [r3]	@ zero_extendqisi2
 467:Generated_Source\PSoC5/VGA_CLK.c **** }
 906              		.loc 1 467 0
 907 0004 00F00700 		and	r0, r0, #7
 908 0008 7047     		bx	lr
 909              	.L31:
 910 000a 00BF     		.align	2
 911              	.L30:
 912 000c 82400040 		.word	1073758338
 913              		.cfi_endproc
 914              	.LFE10:
 915              		.size	VGA_CLK_GetSourceRegister, .-VGA_CLK_GetSourceRegister
 916              		.section	.text.VGA_CLK_SetDividerRegister,"ax",%progbits
 917              		.align	2
 918              		.global	VGA_CLK_SetDividerRegister
 919              		.thumb
 920              		.thumb_func
 921              		.type	VGA_CLK_SetDividerRegister, %function
 922              	VGA_CLK_SetDividerRegister:
 923              	.LFB4:
 195:Generated_Source\PSoC5/VGA_CLK.c ****     uint8 enabled;
 924              		.loc 1 195 0
 925              		.cfi_startproc
 926              		@ args = 0, pretend = 0, frame = 0
 927              		@ frame_needed = 0, uses_anonymous_args = 0
 928              	.LVL7:
 929 0000 70B5     		push	{r4, r5, r6, lr}
 930              		.cfi_def_cfa_offset 16
 931              		.cfi_offset 4, -16
 932              		.cfi_offset 5, -12
 933              		.cfi_offset 6, -8
 934              		.cfi_offset 14, -4
 935 0002 0546     		mov	r5, r0
ARM GAS  C:\Users\info\AppData\Local\Temp\cckCo0kV.s 			page 57


 936 0004 0E46     		mov	r6, r1
 198:Generated_Source\PSoC5/VGA_CLK.c ****     uint16 oldDivider = VGA_CLK_GetDividerRegister();
 937              		.loc 1 198 0
 938 0006 FFF7FEFF 		bl	VGA_CLK_GetSourceRegister
 939              	.LVL8:
 940 000a 0446     		mov	r4, r0
 941              	.LVL9:
 199:Generated_Source\PSoC5/VGA_CLK.c **** 
 942              		.loc 1 199 0
 943 000c FFF7FEFF 		bl	VGA_CLK_GetDividerRegister
 944              	.LVL10:
 201:Generated_Source\PSoC5/VGA_CLK.c ****     {
 945              		.loc 1 201 0
 946 0010 A842     		cmp	r0, r5
 947 0012 56D0     		beq	.L32
 203:Generated_Source\PSoC5/VGA_CLK.c **** 
 948              		.loc 1 203 0
 949 0014 2B4B     		ldr	r3, .L45
 950 0016 1B78     		ldrb	r3, [r3]	@ zero_extendqisi2
 951 0018 03F00102 		and	r2, r3, #1
 952              	.LVL11:
 205:Generated_Source\PSoC5/VGA_CLK.c ****         {
 953              		.loc 1 205 0
 954 001c 94B9     		cbnz	r4, .L34
 205:Generated_Source\PSoC5/VGA_CLK.c ****         {
 955              		.loc 1 205 0 is_stmt 0 discriminator 1
 956 001e 00B1     		cbz	r0, .L35
 205:Generated_Source\PSoC5/VGA_CLK.c ****         {
 957              		.loc 1 205 0 discriminator 2
 958 0020 85B9     		cbnz	r5, .L34
 959              	.L35:
 208:Generated_Source\PSoC5/VGA_CLK.c ****             {
 960              		.loc 1 208 0 is_stmt 1
 961 0022 38B9     		cbnz	r0, .L36
 213:Generated_Source\PSoC5/VGA_CLK.c ****                 VGA_CLK_MOD_SRC &= (uint8)(~CYCLK_SSS);
 962              		.loc 1 213 0
 963 0024 284B     		ldr	r3, .L45+4
 964 0026 1D80     		strh	r5, [r3]	@ movhi
 214:Generated_Source\PSoC5/VGA_CLK.c ****             }
 965              		.loc 1 214 0
 966 0028 284A     		ldr	r2, .L45+8
 967              	.LVL12:
 968 002a 1378     		ldrb	r3, [r2]	@ zero_extendqisi2
 969 002c 03F0BF03 		and	r3, r3, #191
 970 0030 1370     		strb	r3, [r2]
 971 0032 70BD     		pop	{r4, r5, r6, pc}
 972              	.LVL13:
 973              	.L36:
 220:Generated_Source\PSoC5/VGA_CLK.c ****                 CY_SET_REG16(VGA_CLK_DIV_PTR, clkDivider);
 974              		.loc 1 220 0
 975 0034 254A     		ldr	r2, .L45+8
 976              	.LVL14:
 977 0036 1378     		ldrb	r3, [r2]	@ zero_extendqisi2
 978              	.LVL15:
 979 0038 43F04003 		orr	r3, r3, #64
 980 003c 1370     		strb	r3, [r2]
 221:Generated_Source\PSoC5/VGA_CLK.c ****             }
ARM GAS  C:\Users\info\AppData\Local\Temp\cckCo0kV.s 			page 58


 981              		.loc 1 221 0
 982 003e 224B     		ldr	r3, .L45+4
 983 0040 1D80     		strh	r5, [r3]	@ movhi
 984 0042 70BD     		pop	{r4, r5, r6, pc}
 985              	.LVL16:
 986              	.L34:
 227:Generated_Source\PSoC5/VGA_CLK.c ****             {
 987              		.loc 1 227 0
 988 0044 22B3     		cbz	r2, .L37
 229:Generated_Source\PSoC5/VGA_CLK.c **** 
 989              		.loc 1 229 0
 990 0046 0023     		movs	r3, #0
 991 0048 2149     		ldr	r1, .L45+12
 992 004a 0B70     		strb	r3, [r1]
 236:Generated_Source\PSoC5/VGA_CLK.c ****                 CLK_DIST_AMASK = 0x00u;
 993              		.loc 1 236 0
 994 004c 0124     		movs	r4, #1
 995              	.LVL17:
 996 004e 0F31     		adds	r1, r1, #15
 997 0050 0C70     		strb	r4, [r1]
 237:Generated_Source\PSoC5/VGA_CLK.c **** #endif /* VGA_CLK__CFG3 */
 998              		.loc 1 237 0
 999 0052 0431     		adds	r1, r1, #4
 1000 0054 0B70     		strb	r3, [r1]
 240:Generated_Source\PSoC5/VGA_CLK.c **** 
 1001              		.loc 1 240 0
 1002 0056 0C39     		subs	r1, r1, #12
 1003 0058 0B78     		ldrb	r3, [r1]	@ zero_extendqisi2
 1004 005a 03F07F03 		and	r3, r3, #127
 1005 005e 0B70     		strb	r3, [r1]
 243:Generated_Source\PSoC5/VGA_CLK.c ****                 {
 1006              		.loc 1 243 0
 1007 0060 1A4B     		ldr	r3, .L45+8
 1008 0062 1B78     		ldrb	r3, [r3]	@ zero_extendqisi2
 1009 0064 13F0080F 		tst	r3, #8
 1010 0068 00D0     		beq	.L38
 243:Generated_Source\PSoC5/VGA_CLK.c ****                 {
 1011              		.loc 1 243 0 is_stmt 0 discriminator 1
 1012 006a 8DB9     		cbnz	r5, .L37
 1013              	.L38:
 246:Generated_Source\PSoC5/VGA_CLK.c ****                     CLK_DIST_LD = CYCLK_LD_DISABLE|CYCLK_LD_SYNC_EN|CYCLK_LD_LOAD;
 1014              		.loc 1 246 0 is_stmt 1
 1015 006c 194B     		ldr	r3, .L45+16
 1016 006e 1880     		strh	r0, [r3]	@ movhi
 247:Generated_Source\PSoC5/VGA_CLK.c **** 
 1017              		.loc 1 247 0
 1018 0070 0721     		movs	r1, #7
 1019 0072 013B     		subs	r3, r3, #1
 1020 0074 1970     		strb	r1, [r3]
 1021              	.L39:
 250:Generated_Source\PSoC5/VGA_CLK.c **** #endif /* HAS_CLKDIST_LD_DISABLE */
 1022              		.loc 1 250 0 discriminator 1
 1023 0076 164B     		ldr	r3, .L45+12
 1024 0078 1B78     		ldrb	r3, [r3]	@ zero_extendqisi2
 1025 007a 13F0010F 		tst	r3, #1
 1026 007e FAD1     		bne	.L39
 253:Generated_Source\PSoC5/VGA_CLK.c **** 
ARM GAS  C:\Users\info\AppData\Local\Temp\cckCo0kV.s 			page 59


 1027              		.loc 1 253 0
 1028 0080 1049     		ldr	r1, .L45
 1029 0082 0B78     		ldrb	r3, [r1]	@ zero_extendqisi2
 1030 0084 03F0FE03 		and	r3, r3, #254
 1031 0088 0B70     		strb	r3, [r1]
 257:Generated_Source\PSoC5/VGA_CLK.c **** #endif /* HAS_CLKDIST_LD_DISABLE */
 1032              		.loc 1 257 0
 1033 008a 0021     		movs	r1, #0
 1034 008c 104B     		ldr	r3, .L45+12
 1035 008e 1970     		strb	r1, [r3]
 1036              	.L37:
 263:Generated_Source\PSoC5/VGA_CLK.c ****             {
 1037              		.loc 1 263 0
 1038 0090 0C4B     		ldr	r3, .L45
 1039 0092 1B78     		ldrb	r3, [r3]	@ zero_extendqisi2
 1040 0094 13F0010F 		tst	r3, #1
 1041 0098 0DD0     		beq	.L40
 266:Generated_Source\PSoC5/VGA_CLK.c **** 
 1042              		.loc 1 266 0
 1043 009a 0E4B     		ldr	r3, .L45+16
 1044 009c 1D80     		strh	r5, [r3]	@ movhi
 268:Generated_Source\PSoC5/VGA_CLK.c ****                 while ((CLK_DIST_LD & CYCLK_LD_LOAD) != 0u) { }
 1045              		.loc 1 268 0
 1046 009e 0EB1     		cbz	r6, .L43
 1047 00a0 0322     		movs	r2, #3
 1048              	.LVL18:
 1049 00a2 00E0     		b	.L41
 1050              	.LVL19:
 1051              	.L43:
 1052 00a4 0122     		movs	r2, #1
 1053              	.LVL20:
 1054              	.L41:
 268:Generated_Source\PSoC5/VGA_CLK.c ****                 while ((CLK_DIST_LD & CYCLK_LD_LOAD) != 0u) { }
 1055              		.loc 1 268 0 is_stmt 0 discriminator 4
 1056 00a6 0A4B     		ldr	r3, .L45+12
 1057 00a8 1A70     		strb	r2, [r3]
 1058              	.L42:
 269:Generated_Source\PSoC5/VGA_CLK.c ****             }
 1059              		.loc 1 269 0 is_stmt 1 discriminator 1
 1060 00aa 094B     		ldr	r3, .L45+12
 1061 00ac 1B78     		ldrb	r3, [r3]	@ zero_extendqisi2
 1062 00ae 13F0010F 		tst	r3, #1
 1063 00b2 FAD1     		bne	.L42
 1064 00b4 70BD     		pop	{r4, r5, r6, pc}
 1065              	.LVL21:
 1066              	.L40:
 274:Generated_Source\PSoC5/VGA_CLK.c **** 				VGA_CLK_CLKEN |= enabled;
 1067              		.loc 1 274 0
 1068 00b6 044B     		ldr	r3, .L45+4
 1069 00b8 1D80     		strh	r5, [r3]	@ movhi
 275:Generated_Source\PSoC5/VGA_CLK.c ****             }
 1070              		.loc 1 275 0
 1071 00ba 0249     		ldr	r1, .L45
 1072 00bc 0B78     		ldrb	r3, [r1]	@ zero_extendqisi2
 1073 00be 1343     		orrs	r3, r3, r2
 1074 00c0 0B70     		strb	r3, [r1]
 1075              	.LVL22:
ARM GAS  C:\Users\info\AppData\Local\Temp\cckCo0kV.s 			page 60


 1076              	.L32:
 1077 00c2 70BD     		pop	{r4, r5, r6, pc}
 1078              	.L46:
 1079              		.align	2
 1080              	.L45:
 1081 00c4 A2430040 		.word	1073759138
 1082 00c8 80400040 		.word	1073758336
 1083 00cc 82400040 		.word	1073758338
 1084 00d0 01400040 		.word	1073758209
 1085 00d4 02400040 		.word	1073758210
 1086              		.cfi_endproc
 1087              	.LFE4:
 1088              		.size	VGA_CLK_SetDividerRegister, .-VGA_CLK_SetDividerRegister
 1089              		.section	.text.VGA_CLK_SetSourceRegister,"ax",%progbits
 1090              		.align	2
 1091              		.global	VGA_CLK_SetSourceRegister
 1092              		.thumb
 1093              		.thumb_func
 1094              		.type	VGA_CLK_SetSourceRegister, %function
 1095              	VGA_CLK_SetSourceRegister:
 1096              	.LFB9:
 420:Generated_Source\PSoC5/VGA_CLK.c ****     uint16 currDiv = VGA_CLK_GetDividerRegister();
 1097              		.loc 1 420 0
 1098              		.cfi_startproc
 1099              		@ args = 0, pretend = 0, frame = 0
 1100              		@ frame_needed = 0, uses_anonymous_args = 0
 1101              	.LVL23:
 1102 0000 38B5     		push	{r3, r4, r5, lr}
 1103              		.cfi_def_cfa_offset 16
 1104              		.cfi_offset 3, -16
 1105              		.cfi_offset 4, -12
 1106              		.cfi_offset 5, -8
 1107              		.cfi_offset 14, -4
 1108 0002 0446     		mov	r4, r0
 421:Generated_Source\PSoC5/VGA_CLK.c ****     uint8 oldSrc = VGA_CLK_GetSourceRegister();
 1109              		.loc 1 421 0
 1110 0004 FFF7FEFF 		bl	VGA_CLK_GetDividerRegister
 1111              	.LVL24:
 1112 0008 0546     		mov	r5, r0
 1113              	.LVL25:
 422:Generated_Source\PSoC5/VGA_CLK.c **** 
 1114              		.loc 1 422 0
 1115 000a FFF7FEFF 		bl	VGA_CLK_GetSourceRegister
 1116              	.LVL26:
 424:Generated_Source\PSoC5/VGA_CLK.c ****         (clkSource == ((uint8)CYCLK_SRC_SEL_CLK_SYNC_D))) && (currDiv == 0u))
 1117              		.loc 1 424 0
 1118 000e 0346     		mov	r3, r0
 1119 0010 60B1     		cbz	r0, .L48
 424:Generated_Source\PSoC5/VGA_CLK.c ****         (clkSource == ((uint8)CYCLK_SRC_SEL_CLK_SYNC_D))) && (currDiv == 0u))
 1120              		.loc 1 424 0 is_stmt 0 discriminator 1
 1121 0012 5CB9     		cbnz	r4, .L48
 425:Generated_Source\PSoC5/VGA_CLK.c ****     {
 1122              		.loc 1 425 0 is_stmt 1
 1123 0014 55B9     		cbnz	r5, .L48
 429:Generated_Source\PSoC5/VGA_CLK.c ****         VGA_CLK_MOD_SRC =
 1124              		.loc 1 429 0
 1125 0016 104A     		ldr	r2, .L52
ARM GAS  C:\Users\info\AppData\Local\Temp\cckCo0kV.s 			page 61


 1126 0018 1378     		ldrb	r3, [r2]	@ zero_extendqisi2
 1127 001a 43F04003 		orr	r3, r3, #64
 1128 001e 1370     		strb	r3, [r2]
 431:Generated_Source\PSoC5/VGA_CLK.c ****     }
 1129              		.loc 1 431 0
 1130 0020 1378     		ldrb	r3, [r2]	@ zero_extendqisi2
 430:Generated_Source\PSoC5/VGA_CLK.c ****             (VGA_CLK_MOD_SRC & (uint8)(~VGA_CLK_SRC_SEL_MSK)) | clkSource;
 1131              		.loc 1 430 0
 1132 0022 03F0F803 		and	r3, r3, #248
 1133 0026 1C43     		orrs	r4, r4, r3
 1134 0028 1470     		strb	r4, [r2]
 1135 002a 38BD     		pop	{r3, r4, r5, pc}
 1136              	.LVL27:
 1137              	.L48:
 433:Generated_Source\PSoC5/VGA_CLK.c ****             (clkSource != ((uint8)CYCLK_SRC_SEL_CLK_SYNC_D))) && (currDiv == 0u))
 1138              		.loc 1 433 0
 1139 002c 63B9     		cbnz	r3, .L50
 433:Generated_Source\PSoC5/VGA_CLK.c ****             (clkSource != ((uint8)CYCLK_SRC_SEL_CLK_SYNC_D))) && (currDiv == 0u))
 1140              		.loc 1 433 0 is_stmt 0 discriminator 1
 1141 002e 5CB1     		cbz	r4, .L50
 434:Generated_Source\PSoC5/VGA_CLK.c ****     {
 1142              		.loc 1 434 0 is_stmt 1
 1143 0030 55B9     		cbnz	r5, .L50
 439:Generated_Source\PSoC5/VGA_CLK.c ****         VGA_CLK_MOD_SRC &= (uint8)(~CYCLK_SSS);
 1144              		.loc 1 439 0
 1145 0032 094A     		ldr	r2, .L52
 1146 0034 1378     		ldrb	r3, [r2]	@ zero_extendqisi2
 438:Generated_Source\PSoC5/VGA_CLK.c ****             (VGA_CLK_MOD_SRC & (uint8)(~VGA_CLK_SRC_SEL_MSK)) | clkSource;
 1147              		.loc 1 438 0
 1148 0036 03F0F803 		and	r3, r3, #248
 1149 003a 1C43     		orrs	r4, r4, r3
 1150 003c 1470     		strb	r4, [r2]
 440:Generated_Source\PSoC5/VGA_CLK.c ****     }
 1151              		.loc 1 440 0
 1152 003e 1378     		ldrb	r3, [r2]	@ zero_extendqisi2
 1153 0040 03F0BF03 		and	r3, r3, #191
 1154 0044 1370     		strb	r3, [r2]
 1155 0046 38BD     		pop	{r3, r4, r5, pc}
 1156              	.LVL28:
 1157              	.L50:
 445:Generated_Source\PSoC5/VGA_CLK.c ****     }
 1158              		.loc 1 445 0
 1159 0048 034A     		ldr	r2, .L52
 1160 004a 1378     		ldrb	r3, [r2]	@ zero_extendqisi2
 444:Generated_Source\PSoC5/VGA_CLK.c ****             (VGA_CLK_MOD_SRC & (uint8)(~VGA_CLK_SRC_SEL_MSK)) | clkSource;
 1161              		.loc 1 444 0
 1162 004c 03F0F803 		and	r3, r3, #248
 1163 0050 1C43     		orrs	r4, r4, r3
 1164 0052 1470     		strb	r4, [r2]
 1165 0054 38BD     		pop	{r3, r4, r5, pc}
 1166              	.LVL29:
 1167              	.L53:
 1168 0056 00BF     		.align	2
 1169              	.L52:
 1170 0058 82400040 		.word	1073758338
 1171              		.cfi_endproc
 1172              	.LFE9:
ARM GAS  C:\Users\info\AppData\Local\Temp\cckCo0kV.s 			page 62


 1173              		.size	VGA_CLK_SetSourceRegister, .-VGA_CLK_SetSourceRegister
 1174              		.text
 1175              	.Letext0:
 1176              		.file 2 "Generated_Source\\PSoC5/cytypes.h"