ARM GAS  C:\Users\info\AppData\Local\Temp\ccBHmZHM.s 			page 1


   1              		.syntax unified
   2              		.cpu cortex-m3
   3              		.fpu softvfp
   4              		.eabi_attribute 20, 1
   5              		.eabi_attribute 21, 1
   6              		.eabi_attribute 23, 3
   7              		.eabi_attribute 24, 1
   8              		.eabi_attribute 25, 1
   9              		.eabi_attribute 26, 1
  10              		.eabi_attribute 30, 1
  11              		.eabi_attribute 34, 1
  12              		.eabi_attribute 18, 4
  13              		.thumb
  14              		.syntax unified
  15              		.file	"video.c"
  16              		.text
  17              	.Ltext0:
  18              		.cfi_sections	.debug_frame
  19              		.section	.text.newline_handler,"ax",%progbits
  20              		.align	2
  21              		.global	newline_handler
  22              		.thumb
  23              		.thumb_func
  24              		.type	newline_handler, %function
  25              	newline_handler:
  26              	.LFB63:
  27              		.file 1 "video.c"
   1:video.c       **** #include "project.h"
   2:video.c       **** #include "chip8.h"
   3:video.c       **** 
   4:video.c       **** void newline_handler(uint8_t* dma_chan, uint8_t* dma_td, 
   5:video.c       ****     volatile uint8_t* vga_update_flag, uint64_t vram[], uint8_t vbuf[][128]) {
  28              		.loc 1 5 0
  29              		.cfi_startproc
  30              		@ args = 4, pretend = 0, frame = 0
  31              		@ frame_needed = 0, uses_anonymous_args = 0
  32              	.LVL0:
  33 0000 2DE9F84F 		push	{r3, r4, r5, r6, r7, r8, r9, r10, fp, lr}
  34              		.cfi_def_cfa_offset 40
  35              		.cfi_offset 3, -40
  36              		.cfi_offset 4, -36
  37              		.cfi_offset 5, -32
  38              		.cfi_offset 6, -28
  39              		.cfi_offset 7, -24
  40              		.cfi_offset 8, -20
  41              		.cfi_offset 9, -16
  42              		.cfi_offset 10, -12
  43              		.cfi_offset 11, -8
  44              		.cfi_offset 14, -4
  45 0004 8146     		mov	r9, r0
  46 0006 8A46     		mov	r10, r1
  47 0008 9046     		mov	r8, r2
  48 000a 1F46     		mov	r7, r3
  49 000c 0A9E     		ldr	r6, [sp, #40]
   6:video.c       ****     uint16 line = 805 - VERT_ReadCounter();
  50              		.loc 1 6 0
  51 000e FFF7FEFF 		bl	VERT_ReadCounter
ARM GAS  C:\Users\info\AppData\Local\Temp\ccBHmZHM.s 			page 2


  52              	.LVL1:
  53 0012 C0F54970 		rsb	r0, r0, #804
  54 0016 0130     		adds	r0, r0, #1
  55 0018 80B2     		uxth	r0, r0
  56              	.LVL2:
   7:video.c       ****     if (line % 8 == 0) {
  57              		.loc 1 7 0
  58 001a 10F0070F 		tst	r0, #7
  59 001e 6ED1     		bne	.L1
   8:video.c       ****         if (line < 768) {
  60              		.loc 1 8 0
  61 0020 B0F5407F 		cmp	r0, #768
  62 0024 0DD2     		bcs	.L3
   9:video.c       ****             CY_SET_REG16(CY_DMA_TDMEM_STRUCT_PTR[*dma_td].TD1,
  63              		.loc 1 9 0
  64 0026 9AF80020 		ldrb	r2, [r10]	@ zero_extendqisi2
  65 002a D200     		lsls	r2, r2, #3
  66 002c 02F18042 		add	r2, r2, #1073741824
  67 0030 02F5F042 		add	r2, r2, #30720
  68 0034 C308     		lsrs	r3, r0, #3
  69 0036 06EBC313 		add	r3, r6, r3, lsl #7
  70 003a 9BB2     		uxth	r3, r3
  71 003c 9380     		strh	r3, [r2, #4]	@ movhi
  72 003e BDE8F88F 		pop	{r3, r4, r5, r6, r7, r8, r9, r10, fp, pc}
  73              	.LVL3:
  74              	.L3:
  10:video.c       ****                          LO16((uint32) vbuf[line / 8]));
  11:video.c       ****         } else if (line == 768 && *vga_update_flag) {
  75              		.loc 1 11 0
  76 0042 B0F5407F 		cmp	r0, #768
  77 0046 5AD1     		bne	.L1
  78              		.loc 1 11 0 is_stmt 0 discriminator 1
  79 0048 98F80030 		ldrb	r3, [r8]	@ zero_extendqisi2
  80 004c 13F0FF0F 		tst	r3, #255
  81 0050 55D0     		beq	.L1
  12:video.c       ****             /* Refresh buffer during vsync */
  13:video.c       ****             CyDmaChDisable(*dma_chan);
  82              		.loc 1 13 0 is_stmt 1
  83 0052 99F80000 		ldrb	r0, [r9]	@ zero_extendqisi2
  84              	.LVL4:
  85 0056 FFF7FEFF 		bl	CyDmaChDisable
  86              	.LVL5:
  14:video.c       ****             if (*vga_update_flag) {
  87              		.loc 1 14 0
  88 005a 98F80030 		ldrb	r3, [r8]	@ zero_extendqisi2
  89 005e 13F0FF0F 		tst	r3, #255
  90 0062 3FD1     		bne	.L9
  91 0064 46E0     		b	.L5
  92              	.LVL6:
  93              	.L7:
  94              	.LBB2:
  95              	.LBB3:
  96              	.LBB4:
  15:video.c       ****                 uint8_t pixel;
  16:video.c       ****                 uint64_t temprow;
  17:video.c       ****                 for (uint8_t x = 0; x < 64; x++){
  18:video.c       ****                     for (uint8_t y = 0; y < 48; y++){
ARM GAS  C:\Users\info\AppData\Local\Temp\ccBHmZHM.s 			page 3


  19:video.c       ****                         if (y < 8 || y >= 40) {
  97              		.loc 1 19 0
  98 0066 A3F10802 		sub	r2, r3, #8
  99 006a D2B2     		uxtb	r2, r2
 100 006c 1F2A     		cmp	r2, #31
 101 006e 1ED8     		bhi	.L10
  20:video.c       ****                             pixel = 0;
  21:video.c       ****                         } else {
  22:video.c       ****                             temprow = vram[y - 8] & (((uint64_t)1) << (63-x));
 102              		.loc 1 22 0
 103 0070 03F10052 		add	r2, r3, #536870912
 104 0074 083A     		subs	r2, r2, #8
 105 0076 07EBC202 		add	r2, r7, r2, lsl #3
 106 007a D2E90001 		ldrd	r0, [r2]
 107 007e CEF13F02 		rsb	r2, lr, #63
 108 0082 4FF0010C 		mov	ip, #1
 109 0086 A2F1200B 		sub	fp, r2, #32
 110 008a C2F1200A 		rsb	r10, r2, #32
 111 008e 0CFA0BF5 		lsl	r5, ip, fp
 112 0092 2CFA0AFA 		lsr	r10, ip, r10
 113 0096 45EA0A05 		orr	r5, r5, r10
 114 009a 0CFA02F4 		lsl	r4, ip, r2
 115 009e 2040     		ands	r0, r0, r4
 116 00a0 2940     		ands	r1, r1, r5
 117              	.LVL7:
  23:video.c       ****                             pixel = (temprow) ? 1 : 0;
 118              		.loc 1 23 0
 119 00a2 50EA0102 		orrs	r2, r0, r1
 120 00a6 14BF     		ite	ne
 121 00a8 6046     		movne	r0, ip
 122              	.LVL8:
 123 00aa 0020     		moveq	r0, #0
 124              	.LVL9:
 125 00ac 00E0     		b	.L6
 126              	.LVL10:
 127              	.L10:
  20:video.c       ****                             pixel = 0;
 128              		.loc 1 20 0
 129 00ae 0020     		movs	r0, #0
 130              	.L6:
 131              	.LVL11:
  24:video.c       ****                         }
  25:video.c       ****                         vbuf[2*y][2*x] = pixel;
 132              		.loc 1 25 0 discriminator 2
 133 00b0 1A02     		lsls	r2, r3, #8
 134 00b2 06EB020C 		add	ip, r6, r2
 135 00b6 4FEA4E01 		lsl	r1, lr, #1
 136 00ba 0CF81E00 		strb	r0, [ip, lr, lsl #1]
  26:video.c       ****                         vbuf[2*y+1][2*x] = pixel;
 137              		.loc 1 26 0 discriminator 2
 138 00be 8032     		adds	r2, r2, #128
 139 00c0 3244     		add	r2, r2, r6
 140 00c2 02F81E00 		strb	r0, [r2, lr, lsl #1]
  27:video.c       ****                         vbuf[2*y][2*x+1] = pixel;
 141              		.loc 1 27 0 discriminator 2
 142 00c6 0131     		adds	r1, r1, #1
 143 00c8 0CF80100 		strb	r0, [ip, r1]
ARM GAS  C:\Users\info\AppData\Local\Temp\ccBHmZHM.s 			page 4


  28:video.c       ****                         vbuf[2*y+1][2*x+1] = pixel;
 144              		.loc 1 28 0 discriminator 2
 145 00cc 5054     		strb	r0, [r2, r1]
  18:video.c       ****                         if (y < 8 || y >= 40) {
 146              		.loc 1 18 0 discriminator 2
 147 00ce 0133     		adds	r3, r3, #1
 148              	.LVL12:
 149 00d0 DBB2     		uxtb	r3, r3
 150              	.LVL13:
 151 00d2 00E0     		b	.L8
 152              	.LVL14:
 153              	.L11:
 154              	.LBE4:
 155 00d4 0023     		movs	r3, #0
 156              	.L8:
 157              	.LVL15:
 158              	.LBB5:
  18:video.c       ****                         if (y < 8 || y >= 40) {
 159              		.loc 1 18 0 is_stmt 0 discriminator 1
 160 00d6 2F2B     		cmp	r3, #47
 161 00d8 C5D9     		bls	.L7
 162              	.LBE5:
  17:video.c       ****                     for (uint8_t y = 0; y < 48; y++){
 163              		.loc 1 17 0 is_stmt 1 discriminator 2
 164 00da 0EF1010E 		add	lr, lr, #1
 165              	.LVL16:
 166 00de 5FFA8EFE 		uxtb	lr, lr
 167              	.LVL17:
 168 00e2 01E0     		b	.L4
 169              	.LVL18:
 170              	.L9:
 171              	.LBE3:
 172              	.LBE2:
 173 00e4 4FF0000E 		mov	lr, #0
 174              	.LVL19:
 175              	.L4:
 176              	.LBB7:
 177              	.LBB6:
  17:video.c       ****                     for (uint8_t y = 0; y < 48; y++){
 178              		.loc 1 17 0 is_stmt 0 discriminator 1
 179 00e8 BEF13F0F 		cmp	lr, #63
 180 00ec F2D9     		bls	.L11
 181              	.LBE6:
  29:video.c       ****                     }
  30:video.c       ****                 }
  31:video.c       ****                 *vga_update_flag = 0;
 182              		.loc 1 31 0 is_stmt 1
 183 00ee 0023     		movs	r3, #0
 184 00f0 88F80030 		strb	r3, [r8]
 185              	.LVL20:
 186              	.L5:
 187              	.LBE7:
  32:video.c       ****             }
  33:video.c       ****             CyDmaChEnable(*dma_chan, 1);
 188              		.loc 1 33 0
 189 00f4 0121     		movs	r1, #1
 190 00f6 99F80000 		ldrb	r0, [r9]	@ zero_extendqisi2
ARM GAS  C:\Users\info\AppData\Local\Temp\ccBHmZHM.s 			page 5


 191 00fa FFF7FEFF 		bl	CyDmaChEnable
 192              	.LVL21:
 193              	.L1:
 194 00fe BDE8F88F 		pop	{r3, r4, r5, r6, r7, r8, r9, r10, fp, pc}
 195              		.cfi_endproc
 196              	.LFE63:
 197              		.size	newline_handler, .-newline_handler
 198 0102 00BF     		.text
 199              	.Letext0:
 200              		.file 2 "c:\\program files (x86)\\cypress\\psoc creator\\4.2\\psoc creator\\import\\gnu\\arm\\5.4.
 201              		.file 3 "c:\\program files (x86)\\cypress\\psoc creator\\4.2\\psoc creator\\import\\gnu\\arm\\5.4.
 202              		.file 4 "Generated_Source\\PSoC5/cytypes.h"
 203              		.file 5 "Generated_Source\\PSoC5/CYDMAC.H"
 204              		.file 6 "Generated_Source\\PSoC5/VERT.h"
 205              		.file 7 "Generated_Source\\PSoC5/core_cm3.h"