ARM GAS  C:\Users\info\AppData\Local\Temp\ccr6fIe5.s 			page 1


   1              		.syntax unified
   2              		.cpu cortex-m3
   3              		.fpu softvfp
   4              		.eabi_attribute 20, 1
   5              		.eabi_attribute 21, 1
   6              		.eabi_attribute 23, 3
   7              		.eabi_attribute 24, 1
   8              		.eabi_attribute 25, 1
   9              		.eabi_attribute 26, 1
  10              		.eabi_attribute 30, 1
  11              		.eabi_attribute 34, 1
  12              		.eabi_attribute 18, 4
  13              		.thumb
  14              		.syntax unified
  15              		.file	"VSYNC_PM.c"
  16              		.text
  17              	.Ltext0:
  18              		.section	.gnu.lto_.profile.792a7ae4,"",%progbits
  19 0000 789C6361 		.ascii	"x\234ca`d`e`\000\222\015\214J\000\002\"\000\257"
  19      60646065 
  19      6000920D 
  19      8C4A0002 
  19      2200AF
  20              		.text
  21              		.section	.gnu.lto_.inline.792a7ae4,"",%progbits
  22 0000 789C6361 		.ascii	"x\234ca`d\000\2016\006\004`a`\340Qcd`b\373\240\307\300"
  22      60640081 
  22      36060460 
  22      6160E051 
  22      63646062 
  23 0018 B6409E09 		.ascii	"\266@\236\011$\306\304\215J`W\3018\301\017\225bf\340"
  23      24C6C48D 
  23      4A6057C1 
  23      38C10F95 
  23      6266E0
  24 002b 9202AAE3 		.ascii	"\222\002\252\343\332g\007W\307\310\005#X\0308\204\321"
  24      DA670757 
  24      C7C80523 
  24      58183884 
  24      D1
  25 003c 0C414832 		.ascii	"\014AH2\000\000u\226\013\355"
  25      00007596 
  25      0BED
  26              		.text
  27              		.section	.gnu.lto_.jmpfuncs.792a7ae4,"",%progbits
  28 0000 789C6361 		.ascii	"x\234ca`d\000\001\011\006\004`\201PL`\222\031!\002\000"
  28      60640001 
  28      09060460 
  28      81504C60 
  28      92192102 
  29 0015 0521002B 		.ascii	"\005!\000+"
  30              		.text
  31              		.section	.gnu.lto_.pureconst.792a7ae4,"",%progbits
  32 0000 789C6361 		.ascii	"x\234ca`d\340d```a\220`\222`\226b\221\000\000\002\243"
  32      6064E064 
  32      60606061 
  32      90609260 
ARM GAS  C:\Users\info\AppData\Local\Temp\ccr6fIe5.s 			page 2


  32      96629100 
  33 0017 007E     		.ascii	"\000~"
  34              		.text
  35              		.section	.gnu.lto_VSYNC_SaveConfig.792a7ae4,"",%progbits
  36 0000 789C9592 		.ascii	"x\234\225\222\315+\304A\030\307\237\357\314\372\355"
  36      CD2BC441 
  36      18C79FEF 
  36      CCFAED
  37 000f AE977227 		.ascii	"\256\227r'IR{\261'\177\201\342D\262\245DI\354\225Z\234"
  37      49527BB1 
  37      277F81E2 
  37      44B2A544 
  37      49EC955A 
  38 0024 7758BF70 		.ascii	"wX\277p\021\007\353$9Y/\353]\354\311/\341$\016rr\301"
  38      1107EB24 
  38      39592FEB 
  38      5DECC92F 
  38      E1240E72 
  39 003a 419203C5 		.ascii	"A\222\003\305q\255\347\231uP^\342\251\231g\232\371>"
  39      71ADE799 
  39      75505EE2 
  39      A999679A 
  39      F93E
  40 004c CFF37966 		.ascii	"\317\363yf\306G \261VET\315\276\214\0074AM\235\021\015"
  40      C64720B1 
  40      564554CD 
  40      BE8C0734 
  40      414D9D11 
  41 0061 0714200B 		.ascii	"\007\024 \013\023\000\305\025\342xUY\205\303\261\273"
  41      1300C515 
  41      E2785559 
  41      85C3B1BB 
  42 0071 8C0A2D1A 		.ascii	"\214\012-\032\266\353\343\2446)\017\256&\312)\233\211"
  42      B6EBE3A4 
  42      36290FAE 
  42      26CA299B 
  42      89
  43 0082 B08810B1 		.ascii	"\260\210\020\261\354v\363m\246\304\031\025Ye\376\020"
  43      EC76F36D 
  43      A6C41915 
  43      5965FE10 
  44 0092 2938526E 		.ascii	")8Rn\275\3253\271\\\302x{\005\351\342\"M\256\206#SP"
  44      BDD533B9 
  44      5CC2787B 
  44      05E9E222 
  44      4DAE8623 
  45 00a8 26A227D6 		.ascii	"&\242'\326J\325g\245\304\353{$\274\203\214\222\350\204"
  45      4AD567A5 
  45      C4EB7B24 
  45      BC838C92 
  45      E884
  46 00ba D69C3993 		.ascii	"\326\2349\223y\274\362\307\263f\334\230RW\253\234\342"
  46      79BCF2C7 
  46      B366DC98 
  46      5257AB9C 
  46      E2
  47 00cb 202C21CE 		.ascii	" ,!\316\341\232\3560\222\\\250\0211+\223\356\341\271"
ARM GAS  C:\Users\info\AppData\Local\Temp\ccr6fIe5.s 			page 3


  47      E19AEE30 
  47      925CA811 
  47      312B93EE 
  47      E1B9
  48 00dd FF45B9DA 		.ascii	"\377E\271\332\007\372\022\350\233`j\331~8\275<*\234"
  48      07FA12E8 
  48      9B606AD9 
  48      7E38BD3C 
  48      2A9C
  49 00ef C7DCB0B1 		.ascii	"\307\334\260\261\373\005X\341V\227Qn\017'\3677&\002"
  49      FB0558E1 
  49      5697516E 
  49      0F27F737 
  49      2602
  50 0101 E1B4B461 		.ascii	"\341\264\264a\006\\\355`\025\363x\263\275\"\2150\023"
  50      065CED60 
  50      15F378B3 
  50      BD228D30 
  50      13
  51 0112 91005E64 		.ascii	"\221\000^d\221\007t\276\003d9\326>\001\336T|\000\376"
  51      910774BE 
  51      036439D6 
  51      3E01DE54 
  51      7C00FE
  52 0125 9568FD07 		.ascii	"\225h\375\007\242\016!\332\260Dr\263\330\024\"\307\022"
  52      A20E21DA 
  52      B04472B3 
  52      D81422C7 
  52      12
  53 0136 4D9F84F3 		.ascii	"M\237\204\363D\301\357\210\270\020\266>\023\325\376"
  53      44C1EF88 
  53      B810B63E 
  53      13D5FE
  54 0145 9368FBB7 		.ascii	"\223h\373\267;\332\261D\366\315w\205(H\017\030\361f"
  54      3BDAB144 
  54      F6CD7785 
  54      28480F18 
  54      F166
  55 0157 1BA486FD 		.ascii	"\033\244\206\375$O\214\313o\313\212\252\306h_4\326="
  55      244F8CCB 
  55      6FCB8AAA 
  55      C6685F34 
  55      D63D
  56 0169 18EDED8A 		.ascii	"\030\355\355\212\364\017\305z\242\235-\221\376\372\272"
  56      F40FC57A 
  56      A29D2D91 
  56      FEFABA
  57 0178 CEB6487B 		.ascii	"\316\266H{s}WKSm\017\275\003Y+\330\213"
  57      737D574B 
  57      536D0FBD 
  57      03592BD8 
  57      8B
  58              		.text
  59              		.section	.gnu.lto_VSYNC_RestoreConfig.792a7ae4,"",%progbits
  60 0000 789C9591 		.ascii	"x\234\225\221=HBQ\024\307\317\271\367\371\224 h\257"
  60      3D484251 
  60      14C7CFB9 
ARM GAS  C:\Users\info\AppData\Local\Temp\ccr6fIe5.s 			page 4


  60      F7F99420 
  60      68AF
  61 0012 21A2C5A1 		.ascii	"!\242\305\241li\017\034\232\012I\010\002A\302\336\232"
  61      6C690F1C 
  61      9A0A4908 
  61      0241C2DE 
  61      9A
  62 0023 2035BFAB 		.ascii	" 5\277\253\366(\227\250\241\266p\324>\325> \233^\022"
  62      F62897A8 
  62      A1B670D4 
  62      3ED53E20 
  62      9B5E12
  63 0036 B444D1E0 		.ascii	"\264D\321\340\024T4HH\224R\215\372\272\347J-\011\342"
  63      14543448 
  63      4894528D 
  63      FABAE74A 
  63      2D09E2
  64 0049 817BCFE5 		.ascii	"\201{\317\345\334\303\377\377\273\367h\200@1\301\000"
  64      DCC3FFFF 
  64      BBF76880 
  64      4031C100 
  65 0059 8665EE97 		.ascii	"\206e\356\227\0139 \333\270\005\210{\030\"\035\204\007"
  65      0B3920DB 
  65      B805887B 
  65      18221D84 
  65      07
  66 006a C16468E2 		.ascii	"\301dh\3427k0,\255V\212\314\233\0212\236\255\3671\221"
  66      376B302C 
  66      AD568ACC 
  66      9B11329E 
  66      ADF73191 
  67 007e B5D1E200 		.ascii	"\265\321\342\000\016SJ\200\031\364\202l{)4\267z\365"
  67      0E534A80 
  67      19F4826C 
  67      7B2934B7 
  67      7AF5
  68 0090 156A1B6C 		.ascii	"\025j\033l]b\026u\262\313\315\330\302q\222\302\376\324"
  68      5D621675 
  68      B2CBCDD8 
  68      C27192C2 
  68      FED4
  69 00a2 2FCBD7CC 		.ascii	"/\313\327\314\303\300\342\250\321\246\323\006P\223\335"
  69      C3C0E2A8 
  69      D1A6D306 
  69      5093DD
  70 00b1 E45B678C 		.ascii	"\344[g\2142\257`\342\242\360\270\351\"\201$'\206m\253"
  70      32AF60E2 
  70      A2F0B8E9 
  70      22812427 
  70      866DAB
  71 00c4 74E7FE62 		.ascii	"t\347\376b\026gH^\305\342\333\203\333l\2105!\372d-%"
  71      1667485E 
  71      C5E2DB83 
  71      DB6C8835 
  71      21FA642D 
  72 00d9 71A85CBD 		.ascii	"q\250\\\275)_\365\244q'.T\235\343\236|\303.\016\250"
  72      295FF5A4 
ARM GAS  C:\Users\info\AppData\Local\Temp\ccr6fIe5.s 			page 5


  72      71272E54 
  72      9DE39E7C 
  72      C32E0EA8 
  73 00ed CBF5F37C 		.ascii	"\313\365\363|\312\343\033\261\270\206\373\230\306\246"
  73      CAE31BB1 
  73      B886FB98 
  73      C6A6
  74 00fb C2C703F4 		.ascii	"\302\307\003\364\301+j\344\364_\330\345H;\300C4AbX\\"
  74      C12B6AE4 
  74      F45FD8E5 
  74      483BC043 
  74      34416258 
  75 0110 0722AB3F 		.ascii	"\007\"\253?\335\363\026\231\326\005\312Q{\224\234B\241"
  75      DDF31699 
  75      D605CA51 
  75      7B949C42 
  75      A1
  76 0121 5FC27C07 		.ascii	"_\302|\007\024\011\214\005\205\242\375\241|\374~\222"
  76      14098C05 
  76      85A2FDA1 
  76      7CFC7E92 
  77 0131 DE05CA71 		.ascii	"\336\005\312q{\224\023\205\242\006w\332\001E*\343\231"
  77      7B941385 
  77      A20677DA 
  77      01452AE3 
  77      99
  78 0142 42D109A5 		.ascii	"B\321\011\245\212\011[\016V\265S\324\344\203\344\034"
  78      8A095B0E 
  78      56B553D4 
  78      E483E41C 
  79 0152 A5D4D0A4 		.ascii	"\245\324\320\244\261h\304\346\227\214\205p0\272\034"
  79      B168C4E6 
  79      978C8570 
  79      30BA1C
  80 0161 8B18A140 		.ascii	"\213\030\241@0\352\037\017\315\006\347\246\375\341\300"
  80      30EA1F0F 
  80      CD06E7A6 
  80      FDE1C0
  81 0170 D468047E 		.ascii	"\324h\004~\000\223\307\315P"
  81      0093C7CD 
  81      50
  82              		.text
  83              		.section	.gnu.lto_VSYNC_Sleep.792a7ae4,"",%progbits
  84 0000 789C8D91 		.ascii	"x\234\215\221\317kSA\020\307\347\273\273//}\325\322"
  84      CF6B5341 
  84      10C7E7BB 
  84      BB2F2F7D 
  84      D5D2
  85 0012 3FA00711 		.ascii	"?\240\007\021/\275X<x\265\207\036\004A)\006\004\241"
  85      2FBD583C 
  85      78B5871E 
  85      04412906 
  85      04A1
  86 0024 50A4E6DA 		.ascii	"P\244\346\332B\325s6?\036\261\036\212\210J/\322\233"
  86      42D57336 
  86      3F1EB11E 
  86      8A884A2F 
ARM GAS  C:\Users\info\AppData\Local\Temp\ccr6fIe5.s 			page 6


  86      D29B
  87 0036 6DD59AC4 		.ascii	"m\325\232\304\266jn\317\240 R\333S/\012\242\036\202"
  87      B66A6ECF 
  87      A02052DB 
  87      532F0AA2 
  87      1E82
  88 0048 140F8944 		.ascii	"\024\017\211D\211\205&\316lb-\210\322\201}\273o\366"
  88      898526CE 
  88      6C622D88 
  88      D2817DBB 
  88      6FF6
  89 005a BBF3F9EE 		.ascii	"\273\363\371\356\254!\220DJ\021\035\343\371\024\017"
  89      AC219044 
  89      4A111DE3 
  89      F9140F
  90 0069 C408EAE6 		.ascii	"\304\010\352\346\006Q:\256\224n\366\221\015\314\334"
  90      06513AAE 
  90      946EF691 
  90      0DCCDC
  91 0078 30D9431A 		.ascii	"0\331C\032^'m~/<@\0266\016\256\240\215\207\024\276\253"
  91      5E276D7E 
  91      2F3C4016 
  91      360EAEA0 
  91      8D8714BE 
  92 008d 5D854ABE 		.ascii	"]\205J\276ZV\203\013\226\343cx\377\204]\214\020j\242"
  92      5A56830B 
  92      96E36378 
  92      FF845D8C 
  92      106AA2
  93 00a0 B67230C2 		.ascii	"\266r0\302\002\006\211e\237K\255;\207c9\221\035\351"
  93      02068965 
  93      9F4BAD3B 
  93      87633991 
  93      1DE9
  94 00b2 6C621131 		.ascii	"lb\0211qT8\037\331v;k\243\225\340E3\350\321\024j\030"
  94      7154381F 
  94      D9763B6B 
  94      A395E045 
  94      33E8D114 
  95 00c8 FEB0A6C6 		.ascii	"\376\260\246\306C\240u\245d\326UTvn|X\272\0159\233\325"
  95      43A075A5 
  95      64D65554 
  95      766E7C58 
  95      BA0D399B 
  96 00dd 9AEBDE0D 		.ascii	"\232\353\336\015+\233~C\205ZC0\257f\337\265z;\277;\257"
  96      2B9B7E43 
  96      855A4330 
  96      AF66DFB5 
  96      7A3BBF3B 
  97 00f2 D3D670EA 		.ascii	"\323\326p\352\355j\255\240\347q/\235cc\006\0170\200"
  97      ED6AADA0 
  97      E7712F9D 
  97      6363060F 
  97      3080
  98 0104 250C30FF 		.ascii	"%\0140\377!\346AUd\276\345\033\272S\320pM\372\204\334"
  98      21E64155 
  98      64BEE51B 
ARM GAS  C:\Users\info\AppData\Local\Temp\ccr6fIe5.s 			page 7


  98      BA53D070 
  98      4DFA84DC 
  99 0118 4676B29B 		.ascii	"Fv\262\233\330OP <\222\223$\21645\373\330P\246Q\334"
  99      D84F5020 
  99      3C929324 
  99      8E3435FB 
  99      D850A651 
 100 012d BCD52BEA 		.ascii	"\274\325+\352\375R\317\231)\227\277\276\367S\273\366"
 100      FD52CF99 
 100      2997BFBE 
 100      F753BBF6 
 101 013d BAB5FD9C 		.ascii	"\272\265\375\234\233\341\266Hz{}\353e \206\254\313\307"
 101      9BE1B648 
 101      7A7B7DEB 
 101      652086AC 
 101      CBC7
 102 014f F0987BB9 		.ascii	"\360\230{\271,\205ys\366yq&>\264,}\262WB\355\243\300"
 102      2C857973 
 102      F6797126 
 102      3EB42C7D 
 102      B25742ED 
 103 0165 2E5BAE99 		.ascii	".[\256\231(b\210\025k\371\365R \020\037@\311\371\251"
 103      28628815 
 103      6BF9F552 
 103      20101F40 
 103      C9F9A9
 104 0178 2B4373C3 		.ascii	"+Cs\303\316Mmk\317\315A\361O\376\207_\371\203_u\370"
 104      CE4D6D6B 
 104      CFCD41F1 
 104      4FFE875F 
 104      F9835F75 
 105 018d BD3BFADC 		.ascii	"\275;\372\334\216\265.\336s\317\363\005\331\250\376"
 105      8EB52EDE 
 105      73CFF305 
 105      D9A8FE
 106 019c 4609FEEF 		.ascii	"F\011\376\357\353\307\333\334?\302S\244\370m{H\264?"
 106      EBC7DBDC 
 106      3FC253A4 
 106      F86D7B48 
 106      B43F
 107 01ae 827F4A99 		.ascii	"\202\177J\231\210g]\35162\321\3173N*Q\343:Lc\305\321"
 107      88675DE9 
 107      3632D1CF 
 107      334E2A51 
 107      E33A4C63 
 108 01c4 D3C9C9E4 		.ascii	"\323\311\311\344\364\245\253\311\313\343\211\251k\323"
 108      F4A5ABC9 
 108      CBE389A9 
 108      6BD3
 109 01d2 13C9B1D1 		.ascii	"\023\311\261\321\304\324\310\311\261\013\211\213\347"
 109      C4D4C8C9 
 109      B10B898B 
 109      E7
 110 01df 46C647CF 		.ascii	"F\306G\317\036\237\240_\\\326\357u"
 110      1E9FA05F 
 110      5CD6EF75 
 111              		.text
ARM GAS  C:\Users\info\AppData\Local\Temp\ccr6fIe5.s 			page 8


 112              		.section	.gnu.lto_VSYNC_Wakeup.792a7ae4,"",%progbits
 113 0000 789C754F 		.ascii	"x\234uO\277K\202Q\024\275\347\275\247I\032\364\007\204"
 113      BF4B8251 
 113      14BDE7BD 
 113      A7491AF4 
 113      0784
 114 0012 44B43894 		.ascii	"D\2648\224\004\365\02744D!\011A\020D\230k\201\324\354"
 114      04F51734 
 114      34442109 
 114      41104498 
 114      6B81D4EC 
 115 0026 33FDA896 		.ascii	"3\375\250\226h\251-\032\265\237\326\226\337\364%5\031"
 115      68A92D1A 
 115      B59FD696 
 115      DFF42535 
 115      19
 116 0037 3555834B 		.ascii	"5U\203K5H\204\203B\022\025i\367}\005\015\321\205\307"
 116      35488483 
 116      42121569 
 116      F77D050D 
 116      D185C7
 117 004a 7D9C7BCE 		.ascii	"}\234{\316=\367(\002\231Jq\353\345>\310\017\036\202"
 117      3DF72802 
 117      994A71EB 
 117      E53EC80F 
 117      1E82
 118 005c D8B862D0 		.ascii	"\330\270b\320'\204\264\203\244\333\325m\230t@B}\303"
 118      2784B483 
 118      A4DBD56D 
 118      98744042 
 118      7DC3
 119 006e 0A301FED 		.ascii	"\0120\037\355\003%\205TH\242!>\005\212+\225\202\010"
 119      03258554 
 119      48A2213E 
 119      058A2B95 
 119      8208
 120 0080 6535D7FD 		.ascii	"e5\327\375\205=\240s\016,I\324\022\256\005!\213\020"
 120      853DA073 
 120      0E2C49D4 
 120      12AE0521 
 120      8B10
 121 0092 31EDF1A4 		.ascii	"1\355\361\244\271\331\341\315\030Z\367\367\0209x\315"
 121      B9D9E1CD 
 121      185AF7F7 
 121      103978CD 
 122 00a2 1DF90947 		.ascii	"\035\371\011G\267Zi\355\334\371\317\336\375^E\226d\270"
 122      B75A69ED 
 122      DCF9CFDE 
 122      FD5E4596 
 122      64B8
 123 00b4 C6146357 		.ascii	"\306\024cW\027\302t\371\204\264S.\011#2\353\012\205"
 123      17C274F9 
 123      84B4532E 
 123      092332EB 
 123      0A85
 124 00c6 6AB92DF9 		.ascii	"j\271-\371\251W\265\356\264\244h\011\226`\027I\026K"
 124      A957B5EE 
ARM GAS  C:\Users\info\AppData\Local\Temp\ccr6fIe5.s 			page 9


 124      B4A46809 
 124      96601749 
 124      164B
 125 00d8 AA60D9AE 		.ascii	"\252`\331\256\277\026=\206\234\226\212\351[V\361\272"
 125      BF163D86 
 125      9C968AE9 
 125      5B56F1BA 
 126 00e8 ED45587C 		.ascii	"\355EX|\366_\265Z\343{\015\374|ys\336\276\203\355\224"
 126      F65FB55A 
 126      E37B0DFC 
 126      7C7973DE 
 126      BE83ED94 
 127 00fc 76710FF6 		.ascii	"vq\017\3669\344\036\272\334\341\372\351\361\232/\334"
 127      39E41EBA 
 127      DCE1FAE9 
 127      F19A2FDC 
 128 010c 67492F0E 		.ascii	"gI/\016\260\203\246\233\017\207\010\323\0032\345t\360"
 128      B083A69B 
 128      0F8708D3 
 128      0332E574 
 128      F0
 129 011d D72C5F2D 		.ascii	"\327,_-\274u\0303\200pd\344drH\262\203n\214F)\360o\014"
 129      BC751833 
 129      807064E4 
 129      647248B2 
 129      836E8C46 
 130 0135 DE8AFC4F 		.ascii	"\336\212\374O\014#Rn\370g,;\037\243\256\310T\215\323"
 130      0C23526E 
 130      F8672C3B 
 130      1FA3AEC8 
 130      548DD3
 131 0148 32CCDC9E 		.ascii	"2\314\334\236\221\370|<1\273\030\237\233\211.,%b\361"
 131      91F87C3C 
 131      31BB189F 
 131      9B892E2C 
 131      2562F1
 132 015b E9487461 		.ascii	"\351Htaxhz2:5><\023\031\353\217\321\027\011\226\226"
 132      78687A32 
 132      3A353E3C 
 132      1319EB8F 
 132      D1170996 
 133 0170 3E       		.ascii	">"
 134              		.text
 135              		.section	.gnu.lto_.symbol_nodes.792a7ae4,"",%progbits
 136 0000 789C55CC 		.ascii	"x\234U\314\261\015\3020\020F\341\347\263\035\307N*z"
 136      B10DC230 
 136      1046E1E7 
 136      B31DC74E 
 136      2A7A
 137 0012 24D881FD 		.ascii	"$\330\201\375.E\006`\006\224\212\236\015R3\003 \346"
 137      2E450660 
 137      06948A9E 
 137      0D523303 
 137      20E6
 138 0024 40D81105 		.ascii	"@\330\021\005W=}\377Y\0168\366\016\020\247p\276C\315"
 138      573D7DFF 
 138      590E38F6 
ARM GAS  C:\Users\info\AppData\Local\Temp\ccr6fIe5.s 			page 10


 138      0E10A770 
 138      BE43CD
 139 0037 753A4284 		.ascii	"u:B\204i\007^D\2359\210W\261CPo\006\2274lC\375b:Tw\032"
 139      69075E44 
 139      9D398857 
 139      B143506F 
 139      0697346C 
 140 0052 8DA376C6 		.ascii	"\215\243v\306E\223q\326\336\270\327l<h1\036u\370\267"
 140      459371D6 
 140      DEB8D76C 
 140      3C68311E 
 140      75F8B7
 141 0065 27B13C3E 		.ascii	"'\261<>\316\323\361\336\032Y\236\265RX\233%3o\356Y["
 141      CED3F1DE 
 141      1A599EB5 
 141      52589B25 
 141      336FEE59 
 142 007a FDF02BBC 		.ascii	"\375\360+\274Z\203pi\357\302\310|;\361\005\241\355A"
 142      5A837069 
 142      EFC2C87C 
 142      3BF105A1 
 142      ED41
 143 008c 23       		.ascii	"#"
 144              		.text
 145              		.section	.gnu.lto_.refs.792a7ae4,"",%progbits
 146 0000 789C1DC8 		.ascii	"x\234\035\310\301\015\0000\010\304\260\344\200N\322"
 146      C10D0030 
 146      08C4B0E4 
 146      804ED2
 147 000f FD672CEA 		.ascii	"\375g,\352\317r#\027(4\332z*k\334\231\324\257\2611<"
 147      CF722317 
 147      2834DA7A 
 147      2A6BDC99 
 147      D4AFB131 
 148 0024 0B3A006A 		.ascii	"\013:\000j"
 149              		.text
 150              		.section	.gnu.lto_.decls.792a7ae4,"",%progbits
 151 0000 789C8D55 		.ascii	"x\234\215UkL\024W\024\236\263wYpY@\241mh\263I\251\301"
 151      6B4C1457 
 151      149EB377 
 151      59705940 
 151      A16D68B3 
 152 0017 84A409D5 		.ascii	"\204\244\011\325\032\023\377\331\204\264\372GK$jLL-"
 152      1A13FFD9 
 152      84B4FA47 
 152      4B246A4C 
 152      4C2D
 153 0029 8FD11209 		.ascii	"\217\321\022\011\220ui\342\277A\360\205\306HU(H#J\332"
 153      907569E2 
 153      BF41F085 
 153      C6485528 
 153      48234ADA 
 154 003d AA405940 		.ascii	"\252@Y@E\336+\257\225\207TDA\344\265\212\024\254\326"
 154      45DE2BAF 
 154      95875444 
 154      41E4B58A 
 154      14ACD6
ARM GAS  C:\Users\info\AppData\Local\Temp\ccr6fIe5.s 			page 11


 155 0050 2EF1491B 		.ascii	".\361I\033\244\347>\206\231%\320\366\302\307\334s\347"
 155      A4E73E86 
 155      9925D0F6 
 155      C2C7DC73 
 155      E7
 156 0061 7CDFB9E7 		.ascii	"|\337\271\347\234;\027\243\004\022\035+\227HR!N\353"
 156      9C3B17A3 
 156      04121D2B 
 156      97485221 
 156      4EEB
 157 0073 10B3387C 		.ascii	"\020\2638|pm\253\244\015\013\242\024Q\206(GT\"j\021"
 157      706DABA4 
 157      0D0BA214 
 157      51862847 
 157      54226A11 
 158 0087 F5884644 		.ascii	"\365\210FD3\242\025\341B\264#:\021TyH\362\036T\303W"
 158      33A215E1 
 158      42B4233A 
 158      11547948 
 158      F21E54C3 
 159 009c 685B11C3 		.ascii	"h[\021\303\210\032\304\010b\020Q\215 \210^D\037\342"
 159      881AC408 
 159      6210518D 
 159      20885E44 
 159      1FE2
 160 00ae 2EC22878 		.ascii	".\302(x\215\"^\355\"\332e\363\264\365\232\243\210\246"
 160      8D225EED 
 160      22DA65F3 
 160      B4F59AA3 
 160      88A6
 161 00c0 45B4CBC4 		.ascii	"E\264\313\304\276[E\036\013i\323\234\315:m7b\0021>/"
 161      BE5B451E 
 161      0B69D39C 
 161      CD3A6D37 
 161      6202313E 
 162 00d5 CE24A244 		.ascii	"\316$\242Dh\334\023\361\312EMJ\027\321\256\234\267o"
 162      68DC13F1 
 162      CA454D4A 
 162      17D1AE9C 
 162      B76F
 163 00e7 5543AFAB 		.ascii	"UC\257\253\327\253\024{^\254\3063\006\310x\370{\241"
 163      D7AB147B 
 163      5EACC633 
 163      06C878F8 
 163      7BA1
 164 00f9 DF200C00 		.ascii	"\337 \014\000H\300\206$\372,\321\025\361\244\023\340"
 164      48C08624 
 164      FA2CD115 
 164      F1A413E0 
 165 0109 8641125A 		.ascii	"\206A\022Z\334\013T)`?\370k`\376\240{\341\345\307\316"
 165      DC0B5429 
 165      603FF86B 
 165      60FEA07B 
 165      E1E5C7CE 
 166 011d 0C1BDA12 		.ascii	"\014\033\332\022\314\015\325\023\274E\251\252f\242m"
 166      CC0DD513 
 166      BC45A9AA 
ARM GAS  C:\Users\info\AppData\Local\Temp\ccr6fIe5.s 			page 12


 166      66A26D
 167 012c D0083A3D 		.ascii	"\320\010:=\261{\021\037\364a\2314Q\223>\372\343\344"
 167      B17B111F 
 167      F4619934 
 167      51933EFA 
 167      E3E4
 168 013e 79425013 		.ascii	"yBP\023\347\243\323\027\276\210,Qp\234P\024\303\307"
 168      E7A3D317 
 168      BE882C51 
 168      709C5014 
 168      C3C7
 169 0150 5A657A32 		.ascii	"Zez2\035\005\344\205\001\202\315`Ds\352f\376X \232\357"
 169      1D05E485 
 169      0182CD60 
 169      4473EA66 
 169      FE58209A 
 170 0165 98210CCD 		.ascii	"\230!\014\315\231\3663\371\206\320\034\306\313P\302"
 170      99F633F9 
 170      86D01CC6 
 170      CB50C2
 171 0174 8CB0F53D 		.ascii	"\214\260\365=(\006+\\\002l\014\224@(\376\2153r\245\322"
 171      28062B5C 
 171      026C0C94 
 171      4028FE8D 
 171      3372A5D2 
 172 0188 E723F581 		.ascii	"\347#\365\201\313\013\025\267CqOO~\232\24783\221f\240"
 172      CB0B15B7 
 172      43714F4F 
 172      7E9AA738 
 172      339166A0 
 173 019c 5E700108 		.ascii	"^p\001\010\\\204H\272E\234\322\307\3170\210\233/\205"
 173      5C8448BA 
 173      459CD2C7 
 173      CF30889B 
 173      2F85
 174 01ae E5C8EC1A 		.ascii	"\345\310\354\032)-\012 \353\330F\247:N\2353q\025\247"
 174      292D0A20 
 174      EBD846A7 
 174      3A4E9D33 
 174      7115A7
 175 01c1 A7CDA29C 		.ascii	"\247\315\242\234HW\224\317\230\306/\232\306/z\2152\246"
 175      485794CF 
 175      98C62F9A 
 175      C62F7A8D 
 175      32A6
 176 01d3 31929F5D 		.ascii	"1\222\237]k\"1L\343\220\247*\335\214\032\205\250\341"
 176      6B22314C 
 176      E390A72A 
 176      DD8C1A85 
 176      A8E1
 177 01e5 E8D06B38 		.ascii	"\350\320k84\015\207^\243\234i\274\275\\\321h ;\231F"
 177      340D875E 
 177      A39C69BC 
 177      BD5CD168 
 177      203B9946 
 178 01f9 C9B5F43F 		.ascii	"\311\265\364?MB\343N\247^\243B\323\250\320kT2\215\364"
 178      4D42E34E 
ARM GAS  C:\Users\info\AppData\Local\Temp\ccr6fIe5.s 			page 13


 178      A75EA342 
 178      D3A8D06B 
 178      54328DF4 
 179 020d 1E8FDB44 		.ascii	"\036\217\333D\222\230F\331\201G\027\375\260\230V3\314"
 179      929846D9 
 179      814717FD 
 179      B0985633 
 179      CC
 180 021e 02B59F56 		.ascii	"\002\265\237VO\007p\233\276\316\313\036{\353O\016\002"
 180      4F07709B 
 180      BECECB1E 
 180      7BEB4F0E 
 180      02
 181 022f 350CBD63 		.ascii	"5\014\275c\305\217\215\020a\376\211\326\332]\235\265"
 181      C58F8D10 
 181      61FE89D6 
 181      DA5D9DB5 
 182 023f 2BF7102D 		.ascii	"+\367\020-^5\230\241J\013h\245\337\334aE\331\257x\316"
 182      5E3598A1 
 182      4A0B68A5 
 182      DFDC6145 
 182      D9AF78CE 
 183 0253 2BA65009 		.ascii	"+\246P\011V[a\245U\202k\020AU\251\027\\\305\376\\\301"
 183      565B61A5 
 183      55826B10 
 183      4155A917 
 183      5CC5FE5C 
 184 0268 FE60845B 		.ascii	"\376`\204[G[3\202\364\355\243rZ\377j\274\372\367\272"
 184      475B3382 
 184      F4EDA372 
 184      5AFF6ABC 
 184      FAF7BA
 185 027b DF914C0B 		.ascii	"\337\221L\013\217\341\353;\277\252(:\350<\001\314\007"
 185      8FE1EB3B 
 185      BFAA283A 
 185      E83C01CC 
 185      07
 186 028c 2E6B1BB8 		.ascii	".k\033\270\014\374xA-\3136\247f\372\215\231t\263\024"
 186      0CFC7841 
 186      2DCB36A7 
 186      66FA8D99 
 186      74B314
 187 029f 60A83DFD 		.ascii	"`\250=\375\331\022\256\340\354\357\014\314S\232\214"
 187      D912AEE0 
 187      ECEF0CCC 
 187      539A8C
 188 02ae 8C5EA7D1 		.ascii	"\214^\247\321\353Tz=\243g\217\275\374#\210\2709\375"
 188      EB547A3D 
 188      A3678FBD 
 188      FC2388B8 
 188      39FD
 189 02c0 754E71B7 		.ascii	"uNq\267E\320\263\273\311\034\275A\2437\250\364FF\257"
 189      45D0B3BB 
 189      C91CBD41 
 189      A337A8F4 
 189      4646AF
 190 02d3 CC9A3093 		.ascii	"\314\2320\223)\316\036\317=\373\304d\304\357\226\345"
ARM GAS  C:\Users\info\AppData\Local\Temp\ccr6fIe5.s 			page 14


 190      29CE1ECF 
 190      3DFBC464 
 190      C4EF96E5 
 191 02e3 8839D11E 		.ascii	"\2109\321\036\326\014=5-zz\233X\366\327A\244\237;\372"
 191      D60C3D35 
 191      2D7A7A9B 
 191      58F6D741 
 191      A49F3BFA 
 192 02f7 A0394084 		.ascii	"\2409@\204\237\351\010`\341\321\005\234Zx\247\032\276"
 192      9FE90860 
 192      E1D1059C 
 192      5A78A71A 
 192      BE
 193 0308 99853F56 		.ascii	"\231\205?V\357\2524\223c\374\003k?3\272F\260_\212\334"
 193      EFAA3493 
 193      63FC036B 
 193      3F33BA46 
 193      B05F8ADC 
 194 031c 29BB4563 		.ascii	")\273Ec\267\250\354V\306\316k.|L\310Y\316\236\372\353"
 194      B7A8EC56 
 194      C6CE6B2E 
 194      7C4CC859 
 194      CE9EFAEB 
 195 0330 C9C1B9E0 		.ascii	"\311\301\271\340\235\2269z\233FoS\351.F\317,?>i$\345"
 195      9D96397A 
 195      9B466F53 
 195      E92E46CF 
 195      2C3F3E69 
 196 0346 9CEEB93D 		.ascii	"\234\356\271=s\311_\320\373:,\3308vRoh\354\033*\273"
 196      73C95FD0 
 196      FB3A2CD8 
 196      3876526F 
 196      68EC1B2A 
 197 035b 9DB18FBC 		.ascii	"\235\261\217\274\032\3121\221:\316\356\357=\344V\331"
 197      1ACA3191 
 197      3ACEEEEF 
 197      3DE456D9 
 198 036b AF8FF3C2 		.ascii	"\257\217\363\302Sz\207F\357P\351\235\214^\364}\303p"
 198      537A8746 
 198      EF50E99D 
 198      8C5EF47D 
 198      C370
 199 037d 0069E7F4 		.ascii	"\000i\347\364g\231\343n\177~e\204\242y\333\323\365\203"
 199      6799E36E 
 199      7F7E6584 
 199      A279DBD3 
 199      F583
 200 038f 3097D2FB 		.ascii	"0\227\322\373e\266\366\024\220>\356:=3z\313@\334\334"
 200      65B6F614 
 200      903EEE3A 
 200      3D337ACB 
 200      40DCDC
 201 03a2 38D0E07A 		.ascii	"8\320\340zc!\023\3348\322~\325\025H^1\303tE\271?J <"
 201      632113DC 
 201      38D27ED5 
 201      15485E31 
 201      C37445B9 
ARM GAS  C:\Users\info\AppData\Local\Temp\ccr6fIe5.s 			page 15


 202 03ba 243C3C22 		.ascii	"$<<\"\374<=\354\316~\327\273\271\2123\235\260\346\376"
 202      FC3C3DEC 
 202      CE7ED7BB 
 202      B98A339D 
 202      B0E6FE
 203 03cd 8AFBBA03 		.ascii	"\212\373\272\003!\352\331\377\2046\263\233\266T\312"
 203      21EAD9FF 
 203      8436B39B 
 203      B654CA
 204 03dc 66AD762A 		.ascii	"f\255v*\012\275\030\265NSgL\004\372\361+\271\007\341"
 204      0ABD18B5 
 204      4E53674C 
 204      04FAF12B 
 204      B907E1
 205 03ef D087E845 		.ascii	"\320\207\350E\334\205p\226\025\217Q\320\341\2578\276"
 205      DC857096 
 205      158F51D0 
 205      E1AF38BE 
 206 03ff 66116E2F 		.ascii	"f\021n/\020\341&\213\300]{]A\332vn-\340\274\232\372"
 206      10E1268B 
 206      C05D7B5D 
 206      41DA766E 
 206      2DE0BC9A 
 207 0414 B24FD959 		.ascii	"\262O\331Y\345\262(\212\037\365\220D5\265\220\365\256"
 207      E5B2288A 
 207      1FF59044 
 207      35B590F5 
 207      AE
 208 0425 004DA767 		.ascii	"\000M\247g\001\235UV~8\213\363[\234>\344\010aW\305\300"
 208      019D5556 
 208      7E388BF3 
 208      5B9C3EE4 
 208      086157C5 
 209 043a B5E1EBBE 		.ascii	"\265\341\353\276\020\021\"\364\263\200\352\017\"s@k"
 209      101122F4 
 209      B380EA0F 
 209      2273406B 
 210 044a 180DB748 		.ascii	"\030\015\267H=\340>\226\341\277J\2021\273O\272\016\373"
 210      3DE03E96 
 210      E1BF4A82 
 210      31BB4FBA 
 210      0EFB
 211 045c AC285214 		.ascii	"\254(R\024<\031\323\216\355'\025e\003\213\322\305\243"
 211      3C19D38E 
 211      ED271565 
 211      038BD2C5 
 211      A3
 212 046d E8EADB45 		.ascii	"\350\352\333EO\007\014\301\012d]\352j\353&\226,\232"
 212      4F070CC1 
 212      0A645DEA 
 212      6AEB2696 
 212      2C9A
 213 047f 1E7E73C1 		.ascii	"\036~s\301\033\330'\254\271\016\203\205\235#|\242s\257"
 213      1BD827AC 
 213      B90E8385 
 213      9D237CA2 
 213      73AF
ARM GAS  C:\Users\info\AppData\Local\Temp\ccr6fIe5.s 			page 16


 214 0491 EBEFAA00 		.ascii	"\353\357\252\000\2753\325\327\234G\204\363\010s\366"
 214      BD33D5D7 
 214      9C4784F3 
 214      0873F6
 215 04a0 5CBFD11C 		.ascii	"\\\277\321\034\244wn\362R\036\025\316\243\324\231\264"
 215      A4776EF2 
 215      521E15CE 
 215      A3D499B4 
 216 04b0 F496359A 		.ascii	"\364\2265\232\301l\005|\017\207i\031<\373u\027\246\004"
 216      C16C057C 
 216      0F876919 
 216      3CFB7517 
 216      A604
 217 04c2 6EC0AB14 		.ascii	"n\300\253\024\036\340\353\207H\317W\250O\017\260efx"
 217      1EE0EB87 
 217      48CF57A8 
 217      4F0FB065 
 217      6678
 218 04d4 D6B139FD 		.ascii	"\326\2619\375\203\261_d>\3573\231q9\343\377]\2747\037"
 218      83B15F64 
 218      3EEF3399 
 218      7139E3FF 
 218      5DBC371F 
 219 04e8 9F9BF525 		.ascii	"\237\233\365%\005\274_\225\247\363N\373\2029b\001\372"
 219      05BC5F95 
 219      A7F34EFB 
 219      82396201 
 219      FA
 220 04f9 6F0BD0D5 		.ascii	"o\013\320\325\377\000_\346\177\227\256\204\3018\036"
 220      FF005FE6 
 220      7F97AE84 
 220      C1381E
 221 0508 8D475A63 		.ascii	"\215GZc\307\350\276i\210\213\317\232\235\240/\307\270"
 221      C7E8BE69 
 221      888BCF9A 
 221      9DA02FC7 
 221      B8
 222 0519 D7DD3E21 		.ascii	"\327\335>!\3121\301j\227?P\320\351\247w.\361\252\335"
 222      CA31C16A 
 222      973F50D0 
 222      E9A7772E 
 222      F1AADD
 223 052c 2458547D 		.ascii	"$XT}\234JK\267\306l\337\024\2653&\366[9*%yW\342n\277"
 223      9C4A4BB7 
 223      C66CDF14 
 223      B53326F6 
 223      5B392A25 
 224 0545 F59BB684 		.ascii	"\365\233\266\204E\255Z%-_/'\313\266X\273\234\2603&%"
 224      45AD5A25 
 224      2D5F2F27 
 224      CBB658BB 
 224      9CB03326 
 225 055a CD162FEF 		.ascii	"\315\026/\357\210\216I\211Z\263\203\023\2427F\306K!"
 225      888E4989 
 225      5AB38313 
 225      A23746C6 
 225      4B21
ARM GAS  C:\Users\info\AppData\Local\Temp\ccr6fIe5.s 			page 17


 226 056c 7CBE59DE 		.ascii	"|\276Y\336kO\261\011\276\277\020L\222\345T\013\237o"
 226      6B4FB109 
 226      BEBF104C 
 226      92E5540B 
 226      9F6F
 227 057e 8BDD23A7 		.ascii	"\213\335#\247\245\276\257:\307&\240\247\335\226\222"
 227      A5BEAF3A 
 227      C726A0A7 
 227      DD9692
 228 058d B459DE9D 		.ascii	"\264Y\336\235\270\327.\333|\322\022\223\355k?Z$^\374"
 228      B8D72EDB 
 228      7CD21293 
 228      ED6B3F5A 
 228      245EFC
 229 05a0 3EFBBE54 		.ascii	">\373\276Tyo\3447\322\207\377\266#|\277L\037!-\031\225"
 229      796FE437 
 229      D287FFB6 
 229      237CBF4C 
 229      1F212D19 
 230 05b5 976A2BD1 		.ascii	"\227j+\321\262-1%\341\003\261#[\242]\236\267\213`\257"
 230      B22D3125 
 230      E103B123 
 230      5BA25D9E 
 230      B78B60AF 
 231 05c9 578CBE4C 		.ascii	"W\214\276L\267\304\371f\221\235=EM\356\363\344\330\270"
 231      B7C4F966 
 231      919D3D45 
 231      4DEEF3E4 
 231      D8B8
 232 05db 24591871 		.ascii	"$Y\030q\261\361{\322R\227Do\333\310\335M8\333\222\020"
 232      B1F17BD2 
 232      5297446F 
 232      DBC8DD4D 
 232      38DB9210 
 233 05ef 17880FEE 		.ascii	"\027\210\017\356\027c\307\355\007\243\271pp\316\217"
 233      1763C7ED 
 233      07A3B970 
 233      70CE8F
 234 05fe B1DBD2E2 		.ascii	"\261\333\322\342\355F\233\274{\355?/\300b\003"
 234      ED469BBC 
 234      7BED3F2F 
 234      C06203
 235              		.text
 236              		.section	.gnu.lto_.symtab.792a7ae4,"",%progbits
 237 0000 5653594E 		.ascii	"VSYNC_SaveConfig\000"
 237      435F5361 
 237      7665436F 
 237      6E666967 
 237      00
 238 0011 00       		.ascii	"\000"
 239 0012 00       		.ascii	"\000"
 240 0013 00       		.ascii	"\000"
 241 0014 00000000 		.ascii	"\000\000\000\000\000\000\000\000"
 241      00000000 
 242 001c AD000000 		.ascii	"\255\000\000\000"
 243 0020 5653594E 		.ascii	"VSYNC_RestoreConfig\000"
 243      435F5265 
ARM GAS  C:\Users\info\AppData\Local\Temp\ccr6fIe5.s 			page 18


 243      73746F72 
 243      65436F6E 
 243      66696700 
 244 0034 00       		.ascii	"\000"
 245 0035 00       		.ascii	"\000"
 246 0036 00       		.ascii	"\000"
 247 0037 00000000 		.ascii	"\000\000\000\000\000\000\000\000"
 247      00000000 
 248 003f AF000000 		.ascii	"\257\000\000\000"
 249 0043 5653594E 		.ascii	"VSYNC_Sleep\000"
 249      435F536C 
 249      65657000 
 250 004f 00       		.ascii	"\000"
 251 0050 00       		.ascii	"\000"
 252 0051 00       		.ascii	"\000"
 253 0052 00000000 		.ascii	"\000\000\000\000\000\000\000\000"
 253      00000000 
 254 005a B1000000 		.ascii	"\261\000\000\000"
 255 005e 5653594E 		.ascii	"VSYNC_Wakeup\000"
 255      435F5761 
 255      6B657570 
 255      00
 256 006b 00       		.ascii	"\000"
 257 006c 00       		.ascii	"\000"
 258 006d 00       		.ascii	"\000"
 259 006e 00000000 		.ascii	"\000\000\000\000\000\000\000\000"
 259      00000000 
 260 0076 B3000000 		.ascii	"\263\000\000\000"
 261 007a 5653594E 		.ascii	"VSYNC_ReadControlRegister\000"
 261      435F5265 
 261      6164436F 
 261      6E74726F 
 261      6C526567 
 262 0094 00       		.ascii	"\000"
 263 0095 02       		.ascii	"\002"
 264 0096 00       		.ascii	"\000"
 265 0097 00000000 		.ascii	"\000\000\000\000\000\000\000\000"
 265      00000000 
 266 009f BB000000 		.ascii	"\273\000\000\000"
 267 00a3 5653594E 		.ascii	"VSYNC_ReadCounter\000"
 267      435F5265 
 267      6164436F 
 267      756E7465 
 267      7200
 268 00b5 00       		.ascii	"\000"
 269 00b6 02       		.ascii	"\002"
 270 00b7 00       		.ascii	"\000"
 271 00b8 00000000 		.ascii	"\000\000\000\000\000\000\000\000"
 271      00000000 
 272 00c0 BD000000 		.ascii	"\275\000\000\000"
 273 00c4 5653594E 		.ascii	"VSYNC_ReadPeriod\000"
 273      435F5265 
 273      61645065 
 273      72696F64 
 273      00
 274 00d5 00       		.ascii	"\000"
 275 00d6 02       		.ascii	"\002"
ARM GAS  C:\Users\info\AppData\Local\Temp\ccr6fIe5.s 			page 19


 276 00d7 00       		.ascii	"\000"
 277 00d8 00000000 		.ascii	"\000\000\000\000\000\000\000\000"
 277      00000000 
 278 00e0 BF000000 		.ascii	"\277\000\000\000"
 279 00e4 5653594E 		.ascii	"VSYNC_WriteControlRegister\000"
 279      435F5772 
 279      69746543 
 279      6F6E7472 
 279      6F6C5265 
 280 00ff 00       		.ascii	"\000"
 281 0100 02       		.ascii	"\002"
 282 0101 00       		.ascii	"\000"
 283 0102 00000000 		.ascii	"\000\000\000\000\000\000\000\000"
 283      00000000 
 284 010a C3000000 		.ascii	"\303\000\000\000"
 285 010e 5653594E 		.ascii	"VSYNC_WriteCounter\000"
 285      435F5772 
 285      69746543 
 285      6F756E74 
 285      657200
 286 0121 00       		.ascii	"\000"
 287 0122 02       		.ascii	"\002"
 288 0123 00       		.ascii	"\000"
 289 0124 00000000 		.ascii	"\000\000\000\000\000\000\000\000"
 289      00000000 
 290 012c C5000000 		.ascii	"\305\000\000\000"
 291 0130 5653594E 		.ascii	"VSYNC_WritePeriod\000"
 291      435F5772 
 291      69746550 
 291      6572696F 
 291      6400
 292 0142 00       		.ascii	"\000"
 293 0143 02       		.ascii	"\002"
 294 0144 00       		.ascii	"\000"
 295 0145 00000000 		.ascii	"\000\000\000\000\000\000\000\000"
 295      00000000 
 296 014d C7000000 		.ascii	"\307\000\000\000"
 297 0151 5653594E 		.ascii	"VSYNC_Stop\000"
 297      435F5374 
 297      6F7000
 298 015c 00       		.ascii	"\000"
 299 015d 02       		.ascii	"\002"
 300 015e 00       		.ascii	"\000"
 301 015f 00000000 		.ascii	"\000\000\000\000\000\000\000\000"
 301      00000000 
 302 0167 C9000000 		.ascii	"\311\000\000\000"
 303 016b 5653594E 		.ascii	"VSYNC_Enable\000"
 303      435F456E 
 303      61626C65 
 303      00
 304 0178 00       		.ascii	"\000"
 305 0179 02       		.ascii	"\002"
 306 017a 00       		.ascii	"\000"
 307 017b 00000000 		.ascii	"\000\000\000\000\000\000\000\000"
 307      00000000 
 308 0183 CB000000 		.ascii	"\313\000\000\000"
 309              		.text
ARM GAS  C:\Users\info\AppData\Local\Temp\ccr6fIe5.s 			page 20


 310              		.section	.gnu.lto_.opts,"",%progbits
 311 0000 272D666D 		.ascii	"'-fmath-errno' '-fsigned-zeros' '-ftrapping-math' '"
 311      6174682D 
 311      6572726E 
 311      6F272027 
 311      2D667369 
 312 0033 2D666E6F 		.ascii	"-fno-trapv' '-fno-strict-overflow' '-fno-openmp' '-"
 312      2D747261 
 312      70762720 
 312      272D666E 
 312      6F2D7374 
 313 0066 666E6F2D 		.ascii	"fno-openacc' '-mcpu=cortex-m3' '-mthumb' '-g' '-Og'"
 313      6F70656E 
 313      61636327 
 313      20272D6D 
 313      6370753D 
 314 0099 20272D66 		.ascii	" '-ffunction-sections' '-ffat-lto-objects' '-flto'\000"
 314      66756E63 
 314      74696F6E 
 314      2D736563 
 314      74696F6E 
 315              		.text
 316              		.cfi_sections	.debug_frame
 317              		.section	.text.VSYNC_SaveConfig,"ax",%progbits
 318              		.align	2
 319              		.global	VSYNC_SaveConfig
 320              		.thumb
 321              		.thumb_func
 322              		.type	VSYNC_SaveConfig, %function
 323              	VSYNC_SaveConfig:
 324              	.LFB0:
 325              		.file 1 "Generated_Source\\PSoC5\\VSYNC_PM.c"
   1:Generated_Source\PSoC5/VSYNC_PM.c **** /*******************************************************************************
   2:Generated_Source\PSoC5/VSYNC_PM.c **** * File Name: VSYNC_PM.c
   3:Generated_Source\PSoC5/VSYNC_PM.c **** * Version 3.30
   4:Generated_Source\PSoC5/VSYNC_PM.c **** *
   5:Generated_Source\PSoC5/VSYNC_PM.c **** * Description:
   6:Generated_Source\PSoC5/VSYNC_PM.c **** *  This file provides the power management source code to API for the
   7:Generated_Source\PSoC5/VSYNC_PM.c **** *  PWM.
   8:Generated_Source\PSoC5/VSYNC_PM.c **** *
   9:Generated_Source\PSoC5/VSYNC_PM.c **** * Note:
  10:Generated_Source\PSoC5/VSYNC_PM.c **** *
  11:Generated_Source\PSoC5/VSYNC_PM.c **** ********************************************************************************
  12:Generated_Source\PSoC5/VSYNC_PM.c **** * Copyright 2008-2014, Cypress Semiconductor Corporation.  All rights reserved.
  13:Generated_Source\PSoC5/VSYNC_PM.c **** * You may use this file only in accordance with the license, terms, conditions,
  14:Generated_Source\PSoC5/VSYNC_PM.c **** * disclaimers, and limitations in the end user license agreement accompanying
  15:Generated_Source\PSoC5/VSYNC_PM.c **** * the software package with which this file was provided.
  16:Generated_Source\PSoC5/VSYNC_PM.c **** *******************************************************************************/
  17:Generated_Source\PSoC5/VSYNC_PM.c **** 
  18:Generated_Source\PSoC5/VSYNC_PM.c **** #include "VSYNC.h"
  19:Generated_Source\PSoC5/VSYNC_PM.c **** 
  20:Generated_Source\PSoC5/VSYNC_PM.c **** static VSYNC_backupStruct VSYNC_backup;
  21:Generated_Source\PSoC5/VSYNC_PM.c **** 
  22:Generated_Source\PSoC5/VSYNC_PM.c **** 
  23:Generated_Source\PSoC5/VSYNC_PM.c **** /*******************************************************************************
  24:Generated_Source\PSoC5/VSYNC_PM.c **** * Function Name: VSYNC_SaveConfig
  25:Generated_Source\PSoC5/VSYNC_PM.c **** ********************************************************************************
ARM GAS  C:\Users\info\AppData\Local\Temp\ccr6fIe5.s 			page 21


  26:Generated_Source\PSoC5/VSYNC_PM.c **** *
  27:Generated_Source\PSoC5/VSYNC_PM.c **** * Summary:
  28:Generated_Source\PSoC5/VSYNC_PM.c **** *  Saves the current user configuration of the component.
  29:Generated_Source\PSoC5/VSYNC_PM.c **** *
  30:Generated_Source\PSoC5/VSYNC_PM.c **** * Parameters:
  31:Generated_Source\PSoC5/VSYNC_PM.c **** *  None
  32:Generated_Source\PSoC5/VSYNC_PM.c **** *
  33:Generated_Source\PSoC5/VSYNC_PM.c **** * Return:
  34:Generated_Source\PSoC5/VSYNC_PM.c **** *  None
  35:Generated_Source\PSoC5/VSYNC_PM.c **** *
  36:Generated_Source\PSoC5/VSYNC_PM.c **** * Global variables:
  37:Generated_Source\PSoC5/VSYNC_PM.c **** *  VSYNC_backup:  Variables of this global structure are modified to
  38:Generated_Source\PSoC5/VSYNC_PM.c **** *  store the values of non retention configuration registers when Sleep() API is
  39:Generated_Source\PSoC5/VSYNC_PM.c **** *  called.
  40:Generated_Source\PSoC5/VSYNC_PM.c **** *
  41:Generated_Source\PSoC5/VSYNC_PM.c **** *******************************************************************************/
  42:Generated_Source\PSoC5/VSYNC_PM.c **** void VSYNC_SaveConfig(void) 
  43:Generated_Source\PSoC5/VSYNC_PM.c **** {
 326              		.loc 1 43 0
 327              		.cfi_startproc
 328              		@ args = 0, pretend = 0, frame = 0
 329              		@ frame_needed = 0, uses_anonymous_args = 0
 330 0000 10B5     		push	{r4, lr}
 331              		.cfi_def_cfa_offset 8
 332              		.cfi_offset 4, -8
 333              		.cfi_offset 14, -4
  44:Generated_Source\PSoC5/VSYNC_PM.c **** 
  45:Generated_Source\PSoC5/VSYNC_PM.c ****     #if(!VSYNC_UsingFixedFunction)
  46:Generated_Source\PSoC5/VSYNC_PM.c ****         #if(!VSYNC_PWMModeIsCenterAligned)
  47:Generated_Source\PSoC5/VSYNC_PM.c ****             VSYNC_backup.PWMPeriod = VSYNC_ReadPeriod();
 334              		.loc 1 47 0
 335 0002 FFF7FEFF 		bl	VSYNC_ReadPeriod
 336              	.LVL0:
 337 0006 044C     		ldr	r4, .L3
 338 0008 A070     		strb	r0, [r4, #2]
  48:Generated_Source\PSoC5/VSYNC_PM.c ****         #endif /* (!VSYNC_PWMModeIsCenterAligned) */
  49:Generated_Source\PSoC5/VSYNC_PM.c ****         VSYNC_backup.PWMUdb = VSYNC_ReadCounter();
 339              		.loc 1 49 0
 340 000a FFF7FEFF 		bl	VSYNC_ReadCounter
 341              	.LVL1:
 342 000e 6070     		strb	r0, [r4, #1]
  50:Generated_Source\PSoC5/VSYNC_PM.c ****         #if (VSYNC_UseStatus)
  51:Generated_Source\PSoC5/VSYNC_PM.c ****             VSYNC_backup.InterruptMaskValue = VSYNC_STATUS_MASK;
  52:Generated_Source\PSoC5/VSYNC_PM.c ****         #endif /* (VSYNC_UseStatus) */
  53:Generated_Source\PSoC5/VSYNC_PM.c **** 
  54:Generated_Source\PSoC5/VSYNC_PM.c ****         #if(VSYNC_DeadBandMode == VSYNC__B_PWM__DBM_256_CLOCKS || \
  55:Generated_Source\PSoC5/VSYNC_PM.c ****             VSYNC_DeadBandMode == VSYNC__B_PWM__DBM_2_4_CLOCKS)
  56:Generated_Source\PSoC5/VSYNC_PM.c ****             VSYNC_backup.PWMdeadBandValue = VSYNC_ReadDeadTime();
  57:Generated_Source\PSoC5/VSYNC_PM.c ****         #endif /*  deadband count is either 2-4 clocks or 256 clocks */
  58:Generated_Source\PSoC5/VSYNC_PM.c **** 
  59:Generated_Source\PSoC5/VSYNC_PM.c ****         #if(VSYNC_KillModeMinTime)
  60:Generated_Source\PSoC5/VSYNC_PM.c ****              VSYNC_backup.PWMKillCounterPeriod = VSYNC_ReadKillTime();
  61:Generated_Source\PSoC5/VSYNC_PM.c ****         #endif /* (VSYNC_KillModeMinTime) */
  62:Generated_Source\PSoC5/VSYNC_PM.c **** 
  63:Generated_Source\PSoC5/VSYNC_PM.c ****         #if(VSYNC_UseControl)
  64:Generated_Source\PSoC5/VSYNC_PM.c ****             VSYNC_backup.PWMControlRegister = VSYNC_ReadControlRegister();
 343              		.loc 1 64 0
ARM GAS  C:\Users\info\AppData\Local\Temp\ccr6fIe5.s 			page 22


 344 0010 FFF7FEFF 		bl	VSYNC_ReadControlRegister
 345              	.LVL2:
 346 0014 E070     		strb	r0, [r4, #3]
 347 0016 10BD     		pop	{r4, pc}
 348              	.L4:
 349              		.align	2
 350              	.L3:
 351 0018 00000000 		.word	.LANCHOR0
 352              		.cfi_endproc
 353              	.LFE0:
 354              		.size	VSYNC_SaveConfig, .-VSYNC_SaveConfig
 355              		.section	.text.VSYNC_RestoreConfig,"ax",%progbits
 356              		.align	2
 357              		.global	VSYNC_RestoreConfig
 358              		.thumb
 359              		.thumb_func
 360              		.type	VSYNC_RestoreConfig, %function
 361              	VSYNC_RestoreConfig:
 362              	.LFB1:
  65:Generated_Source\PSoC5/VSYNC_PM.c ****         #endif /* (VSYNC_UseControl) */
  66:Generated_Source\PSoC5/VSYNC_PM.c ****     #endif  /* (!VSYNC_UsingFixedFunction) */
  67:Generated_Source\PSoC5/VSYNC_PM.c **** }
  68:Generated_Source\PSoC5/VSYNC_PM.c **** 
  69:Generated_Source\PSoC5/VSYNC_PM.c **** 
  70:Generated_Source\PSoC5/VSYNC_PM.c **** /*******************************************************************************
  71:Generated_Source\PSoC5/VSYNC_PM.c **** * Function Name: VSYNC_RestoreConfig
  72:Generated_Source\PSoC5/VSYNC_PM.c **** ********************************************************************************
  73:Generated_Source\PSoC5/VSYNC_PM.c **** *
  74:Generated_Source\PSoC5/VSYNC_PM.c **** * Summary:
  75:Generated_Source\PSoC5/VSYNC_PM.c **** *  Restores the current user configuration of the component.
  76:Generated_Source\PSoC5/VSYNC_PM.c **** *
  77:Generated_Source\PSoC5/VSYNC_PM.c **** * Parameters:
  78:Generated_Source\PSoC5/VSYNC_PM.c **** *  None
  79:Generated_Source\PSoC5/VSYNC_PM.c **** *
  80:Generated_Source\PSoC5/VSYNC_PM.c **** * Return:
  81:Generated_Source\PSoC5/VSYNC_PM.c **** *  None
  82:Generated_Source\PSoC5/VSYNC_PM.c **** *
  83:Generated_Source\PSoC5/VSYNC_PM.c **** * Global variables:
  84:Generated_Source\PSoC5/VSYNC_PM.c **** *  VSYNC_backup:  Variables of this global structure are used to
  85:Generated_Source\PSoC5/VSYNC_PM.c **** *  restore the values of non retention registers on wakeup from sleep mode.
  86:Generated_Source\PSoC5/VSYNC_PM.c **** *
  87:Generated_Source\PSoC5/VSYNC_PM.c **** *******************************************************************************/
  88:Generated_Source\PSoC5/VSYNC_PM.c **** void VSYNC_RestoreConfig(void) 
  89:Generated_Source\PSoC5/VSYNC_PM.c **** {
 363              		.loc 1 89 0
 364              		.cfi_startproc
 365              		@ args = 0, pretend = 0, frame = 0
 366              		@ frame_needed = 0, uses_anonymous_args = 0
 367 0000 10B5     		push	{r4, lr}
 368              		.cfi_def_cfa_offset 8
 369              		.cfi_offset 4, -8
 370              		.cfi_offset 14, -4
  90:Generated_Source\PSoC5/VSYNC_PM.c ****         #if(!VSYNC_UsingFixedFunction)
  91:Generated_Source\PSoC5/VSYNC_PM.c ****             #if(!VSYNC_PWMModeIsCenterAligned)
  92:Generated_Source\PSoC5/VSYNC_PM.c ****                 VSYNC_WritePeriod(VSYNC_backup.PWMPeriod);
 371              		.loc 1 92 0
 372 0002 054C     		ldr	r4, .L7
ARM GAS  C:\Users\info\AppData\Local\Temp\ccr6fIe5.s 			page 23


 373 0004 A078     		ldrb	r0, [r4, #2]	@ zero_extendqisi2
 374 0006 FFF7FEFF 		bl	VSYNC_WritePeriod
 375              	.LVL3:
  93:Generated_Source\PSoC5/VSYNC_PM.c ****             #endif /* (!VSYNC_PWMModeIsCenterAligned) */
  94:Generated_Source\PSoC5/VSYNC_PM.c **** 
  95:Generated_Source\PSoC5/VSYNC_PM.c ****             VSYNC_WriteCounter(VSYNC_backup.PWMUdb);
 376              		.loc 1 95 0
 377 000a 6078     		ldrb	r0, [r4, #1]	@ zero_extendqisi2
 378 000c FFF7FEFF 		bl	VSYNC_WriteCounter
 379              	.LVL4:
  96:Generated_Source\PSoC5/VSYNC_PM.c **** 
  97:Generated_Source\PSoC5/VSYNC_PM.c ****             #if (VSYNC_UseStatus)
  98:Generated_Source\PSoC5/VSYNC_PM.c ****                 VSYNC_STATUS_MASK = VSYNC_backup.InterruptMaskValue;
  99:Generated_Source\PSoC5/VSYNC_PM.c ****             #endif /* (VSYNC_UseStatus) */
 100:Generated_Source\PSoC5/VSYNC_PM.c **** 
 101:Generated_Source\PSoC5/VSYNC_PM.c ****             #if(VSYNC_DeadBandMode == VSYNC__B_PWM__DBM_256_CLOCKS || \
 102:Generated_Source\PSoC5/VSYNC_PM.c ****                 VSYNC_DeadBandMode == VSYNC__B_PWM__DBM_2_4_CLOCKS)
 103:Generated_Source\PSoC5/VSYNC_PM.c ****                 VSYNC_WriteDeadTime(VSYNC_backup.PWMdeadBandValue);
 104:Generated_Source\PSoC5/VSYNC_PM.c ****             #endif /* deadband count is either 2-4 clocks or 256 clocks */
 105:Generated_Source\PSoC5/VSYNC_PM.c **** 
 106:Generated_Source\PSoC5/VSYNC_PM.c ****             #if(VSYNC_KillModeMinTime)
 107:Generated_Source\PSoC5/VSYNC_PM.c ****                 VSYNC_WriteKillTime(VSYNC_backup.PWMKillCounterPeriod);
 108:Generated_Source\PSoC5/VSYNC_PM.c ****             #endif /* (VSYNC_KillModeMinTime) */
 109:Generated_Source\PSoC5/VSYNC_PM.c **** 
 110:Generated_Source\PSoC5/VSYNC_PM.c ****             #if(VSYNC_UseControl)
 111:Generated_Source\PSoC5/VSYNC_PM.c ****                 VSYNC_WriteControlRegister(VSYNC_backup.PWMControlRegister);
 380              		.loc 1 111 0
 381 0010 E078     		ldrb	r0, [r4, #3]	@ zero_extendqisi2
 382 0012 FFF7FEFF 		bl	VSYNC_WriteControlRegister
 383              	.LVL5:
 384 0016 10BD     		pop	{r4, pc}
 385              	.L8:
 386              		.align	2
 387              	.L7:
 388 0018 00000000 		.word	.LANCHOR0
 389              		.cfi_endproc
 390              	.LFE1:
 391              		.size	VSYNC_RestoreConfig, .-VSYNC_RestoreConfig
 392              		.section	.text.VSYNC_Sleep,"ax",%progbits
 393              		.align	2
 394              		.global	VSYNC_Sleep
 395              		.thumb
 396              		.thumb_func
 397              		.type	VSYNC_Sleep, %function
 398              	VSYNC_Sleep:
 399              	.LFB2:
 112:Generated_Source\PSoC5/VSYNC_PM.c ****             #endif /* (VSYNC_UseControl) */
 113:Generated_Source\PSoC5/VSYNC_PM.c ****         #endif  /* (!VSYNC_UsingFixedFunction) */
 114:Generated_Source\PSoC5/VSYNC_PM.c ****     }
 115:Generated_Source\PSoC5/VSYNC_PM.c **** 
 116:Generated_Source\PSoC5/VSYNC_PM.c **** 
 117:Generated_Source\PSoC5/VSYNC_PM.c **** /*******************************************************************************
 118:Generated_Source\PSoC5/VSYNC_PM.c **** * Function Name: VSYNC_Sleep
 119:Generated_Source\PSoC5/VSYNC_PM.c **** ********************************************************************************
 120:Generated_Source\PSoC5/VSYNC_PM.c **** *
 121:Generated_Source\PSoC5/VSYNC_PM.c **** * Summary:
 122:Generated_Source\PSoC5/VSYNC_PM.c **** *  Disables block's operation and saves the user configuration. Should be called
ARM GAS  C:\Users\info\AppData\Local\Temp\ccr6fIe5.s 			page 24


 123:Generated_Source\PSoC5/VSYNC_PM.c **** *  just prior to entering sleep.
 124:Generated_Source\PSoC5/VSYNC_PM.c **** *
 125:Generated_Source\PSoC5/VSYNC_PM.c **** * Parameters:
 126:Generated_Source\PSoC5/VSYNC_PM.c **** *  None
 127:Generated_Source\PSoC5/VSYNC_PM.c **** *
 128:Generated_Source\PSoC5/VSYNC_PM.c **** * Return:
 129:Generated_Source\PSoC5/VSYNC_PM.c **** *  None
 130:Generated_Source\PSoC5/VSYNC_PM.c **** *
 131:Generated_Source\PSoC5/VSYNC_PM.c **** * Global variables:
 132:Generated_Source\PSoC5/VSYNC_PM.c **** *  VSYNC_backup.PWMEnableState:  Is modified depending on the enable
 133:Generated_Source\PSoC5/VSYNC_PM.c **** *  state of the block before entering sleep mode.
 134:Generated_Source\PSoC5/VSYNC_PM.c **** *
 135:Generated_Source\PSoC5/VSYNC_PM.c **** *******************************************************************************/
 136:Generated_Source\PSoC5/VSYNC_PM.c **** void VSYNC_Sleep(void) 
 137:Generated_Source\PSoC5/VSYNC_PM.c **** {
 400              		.loc 1 137 0
 401              		.cfi_startproc
 402              		@ args = 0, pretend = 0, frame = 0
 403              		@ frame_needed = 0, uses_anonymous_args = 0
 404 0000 08B5     		push	{r3, lr}
 405              		.cfi_def_cfa_offset 8
 406              		.cfi_offset 3, -8
 407              		.cfi_offset 14, -4
 138:Generated_Source\PSoC5/VSYNC_PM.c ****     #if(VSYNC_UseControl)
 139:Generated_Source\PSoC5/VSYNC_PM.c ****         if(VSYNC_CTRL_ENABLE == (VSYNC_CONTROL & VSYNC_CTRL_ENABLE))
 408              		.loc 1 139 0
 409 0002 084B     		ldr	r3, .L13
 410 0004 1B78     		ldrb	r3, [r3]	@ zero_extendqisi2
 411 0006 13F0800F 		tst	r3, #128
 412 000a 03D0     		beq	.L10
 140:Generated_Source\PSoC5/VSYNC_PM.c ****         {
 141:Generated_Source\PSoC5/VSYNC_PM.c ****             /*Component is enabled */
 142:Generated_Source\PSoC5/VSYNC_PM.c ****             VSYNC_backup.PWMEnableState = 1u;
 413              		.loc 1 142 0
 414 000c 0122     		movs	r2, #1
 415 000e 064B     		ldr	r3, .L13+4
 416 0010 1A70     		strb	r2, [r3]
 417 0012 02E0     		b	.L11
 418              	.L10:
 143:Generated_Source\PSoC5/VSYNC_PM.c ****         }
 144:Generated_Source\PSoC5/VSYNC_PM.c ****         else
 145:Generated_Source\PSoC5/VSYNC_PM.c ****         {
 146:Generated_Source\PSoC5/VSYNC_PM.c ****             /* Component is disabled */
 147:Generated_Source\PSoC5/VSYNC_PM.c ****             VSYNC_backup.PWMEnableState = 0u;
 419              		.loc 1 147 0
 420 0014 0022     		movs	r2, #0
 421 0016 044B     		ldr	r3, .L13+4
 422 0018 1A70     		strb	r2, [r3]
 423              	.L11:
 148:Generated_Source\PSoC5/VSYNC_PM.c ****         }
 149:Generated_Source\PSoC5/VSYNC_PM.c ****     #endif /* (VSYNC_UseControl) */
 150:Generated_Source\PSoC5/VSYNC_PM.c **** 
 151:Generated_Source\PSoC5/VSYNC_PM.c ****     /* Stop component */
 152:Generated_Source\PSoC5/VSYNC_PM.c ****     VSYNC_Stop();
 424              		.loc 1 152 0
 425 001a FFF7FEFF 		bl	VSYNC_Stop
 426              	.LVL6:
ARM GAS  C:\Users\info\AppData\Local\Temp\ccr6fIe5.s 			page 25


 153:Generated_Source\PSoC5/VSYNC_PM.c **** 
 154:Generated_Source\PSoC5/VSYNC_PM.c ****     /* Save registers configuration */
 155:Generated_Source\PSoC5/VSYNC_PM.c ****     VSYNC_SaveConfig();
 427              		.loc 1 155 0
 428 001e FFF7FEFF 		bl	VSYNC_SaveConfig
 429              	.LVL7:
 430 0022 08BD     		pop	{r3, pc}
 431              	.L14:
 432              		.align	2
 433              	.L13:
 434 0024 7A640040 		.word	1073767546
 435 0028 00000000 		.word	.LANCHOR0
 436              		.cfi_endproc
 437              	.LFE2:
 438              		.size	VSYNC_Sleep, .-VSYNC_Sleep
 439              		.section	.text.VSYNC_Wakeup,"ax",%progbits
 440              		.align	2
 441              		.global	VSYNC_Wakeup
 442              		.thumb
 443              		.thumb_func
 444              		.type	VSYNC_Wakeup, %function
 445              	VSYNC_Wakeup:
 446              	.LFB3:
 156:Generated_Source\PSoC5/VSYNC_PM.c **** }
 157:Generated_Source\PSoC5/VSYNC_PM.c **** 
 158:Generated_Source\PSoC5/VSYNC_PM.c **** 
 159:Generated_Source\PSoC5/VSYNC_PM.c **** /*******************************************************************************
 160:Generated_Source\PSoC5/VSYNC_PM.c **** * Function Name: VSYNC_Wakeup
 161:Generated_Source\PSoC5/VSYNC_PM.c **** ********************************************************************************
 162:Generated_Source\PSoC5/VSYNC_PM.c **** *
 163:Generated_Source\PSoC5/VSYNC_PM.c **** * Summary:
 164:Generated_Source\PSoC5/VSYNC_PM.c **** *  Restores and enables the user configuration. Should be called just after
 165:Generated_Source\PSoC5/VSYNC_PM.c **** *  awaking from sleep.
 166:Generated_Source\PSoC5/VSYNC_PM.c **** *
 167:Generated_Source\PSoC5/VSYNC_PM.c **** * Parameters:
 168:Generated_Source\PSoC5/VSYNC_PM.c **** *  None
 169:Generated_Source\PSoC5/VSYNC_PM.c **** *
 170:Generated_Source\PSoC5/VSYNC_PM.c **** * Return:
 171:Generated_Source\PSoC5/VSYNC_PM.c **** *  None
 172:Generated_Source\PSoC5/VSYNC_PM.c **** *
 173:Generated_Source\PSoC5/VSYNC_PM.c **** * Global variables:
 174:Generated_Source\PSoC5/VSYNC_PM.c **** *  VSYNC_backup.pwmEnable:  Is used to restore the enable state of
 175:Generated_Source\PSoC5/VSYNC_PM.c **** *  block on wakeup from sleep mode.
 176:Generated_Source\PSoC5/VSYNC_PM.c **** *
 177:Generated_Source\PSoC5/VSYNC_PM.c **** *******************************************************************************/
 178:Generated_Source\PSoC5/VSYNC_PM.c **** void VSYNC_Wakeup(void) 
 179:Generated_Source\PSoC5/VSYNC_PM.c **** {
 447              		.loc 1 179 0
 448              		.cfi_startproc
 449              		@ args = 0, pretend = 0, frame = 0
 450              		@ frame_needed = 0, uses_anonymous_args = 0
 451 0000 08B5     		push	{r3, lr}
 452              		.cfi_def_cfa_offset 8
 453              		.cfi_offset 3, -8
 454              		.cfi_offset 14, -4
 180:Generated_Source\PSoC5/VSYNC_PM.c ****      /* Restore registers values */
 181:Generated_Source\PSoC5/VSYNC_PM.c ****     VSYNC_RestoreConfig();
ARM GAS  C:\Users\info\AppData\Local\Temp\ccr6fIe5.s 			page 26


 455              		.loc 1 181 0
 456 0002 FFF7FEFF 		bl	VSYNC_RestoreConfig
 457              	.LVL8:
 182:Generated_Source\PSoC5/VSYNC_PM.c **** 
 183:Generated_Source\PSoC5/VSYNC_PM.c ****     if(VSYNC_backup.PWMEnableState != 0u)
 458              		.loc 1 183 0
 459 0006 034B     		ldr	r3, .L18
 460 0008 1B78     		ldrb	r3, [r3]	@ zero_extendqisi2
 461 000a 0BB1     		cbz	r3, .L15
 184:Generated_Source\PSoC5/VSYNC_PM.c ****     {
 185:Generated_Source\PSoC5/VSYNC_PM.c ****         /* Enable component's operation */
 186:Generated_Source\PSoC5/VSYNC_PM.c ****         VSYNC_Enable();
 462              		.loc 1 186 0
 463 000c FFF7FEFF 		bl	VSYNC_Enable
 464              	.LVL9:
 465              	.L15:
 466 0010 08BD     		pop	{r3, pc}
 467              	.L19:
 468 0012 00BF     		.align	2
 469              	.L18:
 470 0014 00000000 		.word	.LANCHOR0
 471              		.cfi_endproc
 472              	.LFE3:
 473              		.size	VSYNC_Wakeup, .-VSYNC_Wakeup
 474              		.bss
 475              		.align	2
 476              		.set	.LANCHOR0,. + 0
 477              		.type	VSYNC_backup, %object
 478              		.size	VSYNC_backup, 4
 479              	VSYNC_backup:
 480 0000 00000000 		.space	4
 481              		.text
 482              	.Letext0:
 483              		.file 2 "Generated_Source\\PSoC5\\cytypes.h"
 484              		.file 3 "Generated_Source\\PSoC5\\VSYNC.h"