ARM GAS  C:\Users\info\AppData\Local\Temp\cctjqHuZ.s 			page 1


   1              		.syntax unified
   2              		.cpu cortex-m3
   3              		.fpu softvfp
   4              		.eabi_attribute 20, 1
   5              		.eabi_attribute 21, 1
   6              		.eabi_attribute 23, 3
   7              		.eabi_attribute 24, 1
   8              		.eabi_attribute 25, 1
   9              		.eabi_attribute 26, 1
  10              		.eabi_attribute 30, 1
  11              		.eabi_attribute 34, 1
  12              		.eabi_attribute 18, 4
  13              		.thumb
  14              		.syntax unified
  15              		.file	"VSYNC.c"
  16              		.text
  17              	.Ltext0:
  18              		.section	.gnu.lto_.profile.792a7a5e,"",%progbits
  19 0000 789C6361 		.ascii	"x\234ca`d`a`\000\222Y\006\000\001n\000\245"
  19      60646061 
  19      60009259 
  19      0600016E 
  19      00A5
  20              		.text
  21              		.section	.gnu.lto_.inline.792a7a5e,"",%progbits
  22 0000 789C6361 		.ascii	"x\234ca`d\000\001Q\010\005\006\274\014\014l\254\214"
  22      60640001 
  22      51080506 
  22      BC0C0C6C 
  22      AC8C
  23 0012 0C4C6C1F 		.ascii	"\014Ll\037\364\030\330\026\3103\201\304\0301\205\230"
  23      F418D816 
  23      C83381C4 
  23      18318598 
  24 0022 18589881 		.ascii	"\030X\230\201BL\027\370\341B\314\014\254,@!\226\005"
  24      424C17F8 
  24      E142CC0C 
  24      AC2C4021 
  24      9605
  25 0034 F2702116 		.ascii	"\362p!\026LU\254\230Bl\014\002Z@!\276\015\271\010\343"
  25      4C55AC98 
  25      426C0C02 
  25      5A4021BE 
  25      0DB908E3 
  26 0048 B941B622 		.ascii	"\271A\266\"\223\354\014\234\302@6\307/\023\204\263\270"
  26      93EC0C9C 
  26      C24036C7 
  26      2F1384B3 
  26      B8
  27 0059 600427A6 		.ascii	"`\004'\246\241\\\230B\334\230B<\230B\274\230B\014\000"
  27      A15C9842 
  27      DC98423C 
  27      9842BC98 
  27      420C00
  28 006c 6FAC181F 		.ascii	"o\254\030\037"
  29              		.text
  30              		.section	.gnu.lto_.jmpfuncs.792a7a5e,"",%progbits
ARM GAS  C:\Users\info\AppData\Local\Temp\cctjqHuZ.s 			page 2


  31 0000 789C6361 		.ascii	"x\234ca`d\000\001=\006\004\340\005b\240(\023\003\003"
  31      60640001 
  31      3D0604E0 
  31      0562A028 
  31      130303
  32 0013 3303030B 		.ascii	"3\003\003\013\003\003+\003\003\033X\202\035Dp20p10p"
  32      03032B03 
  32      031B5882 
  32      1D447032 
  32      30703130 
  33 0028 3330F040 		.ascii	"30\360@T\002\000\023\207\000\224"
  33      54020013 
  33      870094
  34              		.text
  35              		.section	.gnu.lto_.pureconst.792a7a5e,"",%progbits
  36 0000 789C05C1 		.ascii	"x\234\005\301A\022\000\020\014\004\301\215\004%\344"
  36      41120010 
  36      0C04C18D 
  36      0425E4
  37 000f AEC6FFFF 		.ascii	"\256\306\377\377\251;dz\222J\030\015'\350\014\346]$"
  37      A93B647A 
  37      924A180D 
  37      27E80CE6 
  37      5D24
  38 0021 9B43F101 		.ascii	"\233C\361\001\031~\001\321"
  38      197E01D1 
  39              		.text
  40              		.section	.gnu.lto_VSYNC_Enable.792a7a5e,"",%progbits
  41 0000 789C7D8F 		.ascii	"x\234}\2171K\003A\020\205\347\315\306\030\024\363\007"
  41      314B0341 
  41      1085E7CD 
  41      C61814F3 
  41      07
  42 0011 0CA86540 		.ascii	"\014\250e@\004\013\177A\012\273 \036\010BP$^k h\235"
  42      040B7F41 
  42      0ABB201E 
  42      08425024 
  42      5E6B2068 
  43 0026 3D9343B0 		.ascii	"=\223C\260\020\033\323I\312D\215\204\200\010Z\235\007"
  43      101BD349 
  43      CA448D84 
  43      80085A9D 
  43      07
  44 0037 8A16C64E 		.ascii	"\212\026\306N\301J\024\257\260:AA\002&\316\346z\007"
  44      C14A14AF 
  44      B03A4141 
  44      0226CEE6 
  44      7A07
  45 0049 766777E7 		.ascii	"vgw\347\355\367fb\00421-iJ\362\270,(\002\357w\210\234"
  45      EDF76662 
  45      0432312D 
  45      694AF2B8 
  45      2C2802EF 
  46 0060 0403E6A0 		.ascii	"\004\003\346\240\023\240\022\243\204o\376e\370;\301"
  46      13A012A3 
  46      846FFE65 
  46      F83BC1
ARM GAS  C:\Users\info\AppData\Local\Temp\cctjqHuZ.s 			page 3


  47 006f 05A7EB5A 		.ascii	"\005\247\353Z\342\345\375mV7<\270\212\250\317\003\022"
  47      E2E5FD6D 
  47      56373CB8 
  47      8AA8CF03 
  47      12
  48 0080 A18E3489 		.ascii	"\241\2164\211\354\265\335;\030\213W\214l2*\242\201\270"
  48      ECB5DD3B 
  48      188B578C 
  48      6C322AA2 
  48      81B8
  49 0092 B16B2D7A 		.ascii	"\261k-z\272\337/k\257\235\274zL\0161\271J<e#\012Eg\034"
  49      BADF2F6B 
  49      AF9DBC7A 
  49      4C0E31B9 
  49      4A3C6523 
  50 00aa 3F994D56 		.ascii	"?\231MV\001\374\356n\347r\305|-+\343^u\375\207\341/"
  50      01FCEE6E 
  50      E772C57C 
  50      2D2BE35E 
  50      75FD87E1 
  51 00bf 7615C3B8 		.ascii	"v\025\303\270\\\357=\367F\243k\367\326\3211y\272?\013"
  51      5CEF3DF7 
  51      46A36BF7 
  51      D6D13179 
  51      BA3F0B
  52 00d2 5BAA8643 		.ascii	"[\252\206C\247\"})\034#\205#\244\304\376\0045P\200\362"
  52      A7227D29 
  52      1C238523 
  52      A4C4FE04 
  52      355080F2 
  53 00e6 4F3CC2A9 		.ascii	"O<\302\251\210x\036\334\335\214\030\004\240\201\246"
  53      88781EDC 
  53      DD8C1804 
  53      A081A6
  54 00f5 48C5B50A 		.ascii	"H\305\265\012\243\371\217v*4a\320\007\266\275\247\254"
  54      A3F98F76 
  54      2A3461D0 
  54      07B6BDA7 
  54      AC
  55 0106 510FC60F 		.ascii	"Q\017\306\017\245/\351\\\346\230\230\2677\354\342\332"
  55      A52FE95C 
  55      E69898B7 
  55      37ECE2DA 
  56 0116 A6BDBE6A 		.ascii	"\246\275\276j\025\266\212y;\267`\0252s\271%k9\233\231"
  56      15B68A79 
  56      3BB76015 
  56      3273B925 
  56      6B399B99 
  57 012a C9D31FE5 		.ascii	"\311\323\037\345\005rC"
  57      057243
  58              		.text
  59              		.section	.gnu.lto_VSYNC_Stop.792a7a5e,"",%progbits
  60 0000 789C6361 		.ascii	"x\234ca`d\000\001\035 \245\010\244\245\201\230\221\231"
  60      60640001 
  60      1D20A508 
  60      A4A58198 
  60      9199
ARM GAS  C:\Users\info\AppData\Local\Temp\cctjqHuZ.s 			page 4


  61 0012 819169C2 		.ascii	"\201\221i\3029\006\206F\016&FF\020\243\201\203\221\241"
  61      39068646 
  61      0E264646 
  61      10A38183 
  61      91A1
  62 0024 9E89B19E 		.ascii	"\236\211\261\236\361+\323_&\306C\355\317v2i.o\000\202"
  62      F12BD35F 
  62      26C643ED 
  62      CF763269 
  62      2E6F0082 
  63 0038 074BBF19 		.ascii	"\007K\277\0316\2548\300\330\312\314\300\360\237\011"
  63      36AC38C0 
  63      D8CACCC0 
  63      F09F09
  64 0047 6C1203E3 		.ascii	"l\022\003\343rFM\006\240\262G\033\377M\345ek\001)S\200"
  64      72464D06 
  64      A0B2471B 
  64      FF4DE565 
  64      6B012953 
  65 005c 4832AE60 		.ascii	"H2\256`d\003Y\267>\350@\303\377\377\315\015\007\266"
  65      640359B7 
  65      3EE840C3 
  65      FFFFCD0D 
  65      07B6
  66 006e F21FBCC1 		.ascii	"\362\037\274\301\317\312\304\320\312\014\264\023H00"
  66      CFCAC4D0 
  66      CA0CB413 
  66      483030
  67 007d 7C00AA03 		.ascii	"|\000\252\003\331\370\221\211\011D3?c<\364\253\353\331"
  67      D9F89189 
  67      0944333F 
  67      633CF4AB 
  67      EBD9
  68 008f DE3890D6 		.ascii	"\3368\220\326ff\220\355\323Z\017\235g\377\302\324\312"
  68      666690ED 
  68      D35A0F9D 
  68      67FFC2D4 
  68      CA
  69 00a0 CCC408B2 		.ascii	"\314\304\010\262\345h\337\255\177\334\020\356\257\023"
  69      E568DFAD 
  69      7FDC10EE 
  69      AF13
  70 00ae 8D0D2C40 		.ascii	"\215\015,@\241\263[>\254g\236\3178\267\261\005\350."
  70      A1B35B3E 
  70      AC679ECF 
  70      38B7B105 
  70      E82E
  71 00c0 66C6558C 		.ascii	"f\306U\2142\214+\031e\200\326\257f\234\317\310\360\214"
  71      328C2B19 
  71      6580D6AF 
  71      669CCFC8 
  71      F08C
  72 00d2 B1F90F1B 		.ascii	"\261\371\017\033\3048f\210\211\277O<\333\317\0172\202"
  72      C4386688 
  72      89BF4F3C 
  72      DBCF0F32 
  72      82
ARM GAS  C:\Users\info\AppData\Local\Temp\cctjqHuZ.s 			page 5


  73 00e3 99F13F03 		.ascii	"\231\361?\003\343\032\240R\240\255\323\030Aj\360\231"
  73      E31AA052 
  73      A0ADD318 
  73      416AF099 
  74 00f3 B616681A 		.ascii	"\266\026h\032\320\014\206W\214M\007n\372\203T\203\275"
  74      D00C8657 
  74      8C4D076E 
  74      FA835483 
  74      BD
  75 0104 FF01E82E 		.ascii	"\377\001\350.\240\313\201\376\220wO\315K-J,IM\211\017"
  75      A0CB81FE 
  75      90774FCD 
  75      4B2D4A2C 
  75      494D890F 
  76 0118 CE2F2D4A 		.ascii	"\316/-JN\215\011\010\316w6\215\011\013\216\364s\326"
  76      4E8D0908 
  76      CE77368D 
  76      090B8EF4 
  76      73D6
  77 012a 4B660000 		.ascii	"Kf\000\000$\030s\002"
  77      24187302 
  78              		.text
  79              		.section	.gnu.lto_VSYNC_WriteCounter.792a7a5e,"",%progbits
  80 0000 789C2D4F 		.ascii	"x\234-O\277KBQ\024>\337=\017u\011\032\303\036\024-\342"
  80      BF4B4251 
  80      143EDF3D 
  80      0F75091A 
  80      C31E142D 
  81 0015 1241F417 		.ascii	"\022A\364\0278\264E\364 \010\214\010{\253\202\350\354"
  81      38B445F4 
  81      20088C08 
  81      7BAB82E8 
  81      EC
  82 0026 7DEA2368 		.ascii	"}\352#hj\311 \210\206(\315\212rl\023!p\252\206((\250"
  82      6AC92088 
  82      8628CD8A 
  82      726C1321 
  82      70AA8628 
  83 003c 10126A32 		.ascii	"\020\022j2\310\006\241\354\\\353\300\345\234\363q\276"
  83      C806A1EC 
  83      5CEBC0E5 
  83      9CF371BE 
  84 004c 1FD72290 		.ascii	"\037\327\"\220\251aiQ\351\243\362\300\004\265yE\344"
  84      A9616951 
  84      E9A3F2C0 
  84      04B57945 
  84      E4
  85 005d 85146006 		.ascii	"\205\024`\006\035\002\345\024r\350\252o\205\306z\373"
  85      1D02E514 
  85      72E8AA6F 
  85      85C67AFB 
  86 006d 4245CB5A 		.ascii	"BE\313Z\352\345\265\352x\332\037\361\231\250\257\006"
  86      EAE5B5EA 
  86      78DA1FF1 
  86      99A8AF06 
  87 007d 4A8432A2 		.ascii	"J\2042\242ruw^\373b\236\000\311|x{\323\264\"\007Z\347"
  87      7275775E 
ARM GAS  C:\Users\info\AppData\Local\Temp\cctjqHuZ.s 			page 6


  87      FB629E00 
  87      C97C787B 
  87      D3B42207 
  88 0093 B5DE5ED6 		.ascii	"\265\336^\326\3543P\001\013\003\3236\246l\022\200p\204"
  88      EC335001 
  88      0B03D336 
  88      A66C1280 
  88      7084
  89 00a5 88396ED5 		.ascii	"\2109n\325~\266\206\002E#?\376'\212*\002&\346\331B]"
  89      7EB68602 
  89      45233FFE 
  89      278A2A02 
  89      26E6D942 
  90 00ba F7FB055D 		.ascii	"\367\373\005]\177\014_>\205-\011g(\324\221\033\223\362"
  90      7F0C5F3E 
  90      852D0967 
  90      28D4911B 
  90      93F2
  91 00cc 4329D3B9 		.ascii	"C)\323\271\215\306N\355\276\304\206&z%\277q\035\374"
  91      8DC64EED 
  91      BEC48626 
  91      7A25BF71 
  91      1DFC
  92 00de 543EAB41 		.ascii	"T>\253A\226^\371\255\373\277n4=m\011T\354\355\267\260"
  92      965EF9AD 
  92      FBBF6E34 
  92      3D6D0954 
  92      ECEDB7B0 
  93 00f2 875DAF08 		.ascii	"\207]\257\010\237\031'\260q\014[|O\005-\260\242w\344"
  93      9F1927B0 
  93      710C5B7C 
  93      4F052DB0 
  93      A277E4
  94 0105 EBCF0FCA 		.ascii	"\353\317\017\312\010\016\276\330\021)q\022\337\261Y"
  94      080EBED8 
  94      11297112 
  94      DFB159
  95 0114 37E9A657 		.ascii	"7\351\246W3\356\332\212\223\312\246\023n|\336I\305f"
  95      33EEDA8A 
  95      93CAA613 
  95      6E7CDE49 
  95      C566
  96 0126 E28BCED2 		.ascii	"\342\213\316\322\\l2A\301D*\233\314\270\351_\214\246"
  96      5C6C3241 
  96      C1442A9B 
  96      CCB8E95F 
  96      8CA6
  97 0138 6D82     		.ascii	"m\202"
  98              		.text
  99              		.section	.gnu.lto_VSYNC_ReadCounter.792a7a5e,"",%progbits
 100 0000 789C6361 		.ascii	"x\234ca`d\000\001u \245\010\244\245\201\230\221\231"
 100      60640001 
 100      7520A508 
 100      A4A58198 
 100      9199
 101 0012 819169C2 		.ascii	"\201\221i\3029\006\206F\016&FF\020\243\201\203\221\241"
 101      39068646 
ARM GAS  C:\Users\info\AppData\Local\Temp\cctjqHuZ.s 			page 7


 101      0E264646 
 101      10A38183 
 101      91A1
 102 0024 9E89B19E 		.ascii	"\236\211\261\236\361+\323_&\306\323\337O\364pi.ohhj"
 102      F12BD35F 
 102      26C6D3DF 
 102      4FF47069 
 102      2E6F6868 
 103 0039 78B0745B 		.ascii	"x\260t[\364\307\246V\211Vf\006\206\377L\014\214\306"
 103      F4C7A656 
 103      89566606 
 103      86FF4C0C 
 103      8CC6
 104 004b 328C0632 		.ascii	"2\214\0062 #\2263j2\000\225>\332\370o*/[K\003\020(\200"
 104      20239633 
 104      6A320095 
 104      3EDAF86F 
 104      2A2F5B4B 
 105 0063 14006556 		.ascii	"\024\000eV0\262\201\254\\\037t\240\341\377\377\346\206"
 105      30B281AC 
 105      5C1F74A0 
 105      E1FFFFE6 
 105      86
 106 0074 035BA58F 		.ascii	"\003[\245\217^\221fabhe\006\332\0132\207\341\003P\035"
 106      5E916661 
 106      62686506 
 106      DA0B3287 
 106      E103501D 
 107 0088 C8D68F4C 		.ascii	"\310\326\217LL \232\371\031\343\241_]\337\336\232\201"
 107      4C209AF9 
 107      19E3A15F 
 107      5DDFDE9A 
 107      81
 108 0099 B4363383 		.ascii	"\26463\203\\0\255\365\320y\366/L\255\314L\214 [\036"
 108      5C30ADF5 
 108      D079F62F 
 108      4CADCC4C 
 108      8C205B1E 
 109 00ad F41CD8C3 		.ascii	"\364\034\330\303\017\341\316:\321\330\300\002\024z7"
 109      0FE1CE3A 
 109      D1D8C002 
 109      147A37
 110 00bc ABED1ADF 		.ascii	"\253\355\032\337|\306\271\215-\214\255\314\314\214\253"
 110      7CC6B98D 
 110      2D8CADCC 
 110      CC8CAB
 111 00cb 18651857 		.ascii	"\030e\030W2\002]\306\270\232q>#\003\330\304s\357\002"
 111      32025DC6 
 111      B89A713E 
 111      2303D8C4 
 111      73EF02
 112 00de 20263203 		.ascii	" &2\003\3257\177\373\265\222\033b\304-\250\021\307\237"
 112      D5377FFB 
 112      B5921B62 
 112      C42DA811 
 112      C79F
 113 00f0 1EED6406 		.ascii	"\036\355d\006\033\321\330\320\020\314\0002f\015\334"
ARM GAS  C:\Users\info\AppData\Local\Temp\cctjqHuZ.s 			page 8


 113      1BD1D8D0 
 113      10CC0032 
 113      660DDC
 114 00ff 98B52063 		.ascii	"\230\265 c^165\004B\315`\000;\234\021\344`\240\363\345"
 114      5E313635 
 114      0442CD60 
 114      003B9C11 
 114      E460A0F3 
 115 0114 DD53F352 		.ascii	"\335S\363R\213\022KRS\342\203\363K\213\222Sc\002\202"
 115      8B124B52 
 115      53E283F3 
 115      4B8B9253 
 115      630282
 116 0127 F39D4D63 		.ascii	"\363\235Mc\302\202#\375\234\365\222\031\000\231\032"
 116      C28223FD 
 116      9CF59219 
 116      00991A
 117 0136 73BB     		.ascii	"s\273"
 118              		.text
 119              		.section	.gnu.lto_VSYNC_WritePeriod.792a7a5e,"",%progbits
 120 0000 789C254F 		.ascii	"x\234%O\277KBQ\024>\337\275\242\016\205\177@\017^\264"
 120      BF4B4251 
 120      143EDFBD 
 120      A20E857F 
 120      400F5EB4 
 121 0014 984B04D2 		.ascii	"\230K\004\322_\340\320\026\321\203 x \241oh\311\220"
 121      5FE0D016 
 121      D1832078 
 121      20A16F68 
 121      C990
 122 0026 9ABDFE78 		.ascii	"\232\275\376x\004\265\264\364\244\240\234D+#J\032\242"
 122      04B5B4F4 
 122      A4A09C44 
 122      2B234A1A 
 122      A2
 123 0037 E52504D1 		.ascii	"\345%\004\321PS{4\030d\203F\265\231\235\253\007.\337"
 123      50537B34 
 123      18648346 
 123      B5999DAB 
 123      072EDF
 124 004a B987F3FD 		.ascii	"\271\207\363\3758\001\002\351\2120L3N\360\203$\210\275"
 124      380102E9 
 124      8A304C33 
 124      4EF08324 
 124      88BD
 125 005c 27A27C58 		.ascii	"'\242|X\000\272QaPN \207\037\321\027hm\267oD\254\246"
 125      00BA5161 
 125      504E2087 
 125      1FD11768 
 125      6DB76F44 
 126 0072 B85EEFBF 		.ascii	"\270^\357\277\342\252\356\303\225D\0031T\"\324\020\343"
 126      E2AAEEC3 
 126      95440331 
 126      5422D410 
 126      E3
 127 0083 ADA6F752 		.ascii	"\255\246\367R\016\311)\020\367\307\007\235N$ZU\252\240"
 127      0EC92910 
ARM GAS  C:\Users\info\AppData\Local\Temp\cctjqHuZ.s 			page 9


 127      F7C7079D 
 127      4E245A55 
 127      AAA0
 128 0095 54DF56D2 		.ascii	"T\337V\322\225@\035\222\031\210\033\2305\210\007\204"
 128      95401D92 
 128      19881B98 
 128      35880784 
 129 00a5 1344F5F2 		.ascii	"\023D\365\362\333\345\337\376x\260\244\345'G\2428EP"
 129      DBE5DFFE 
 129      78B0A4E5 
 129      2747A238 
 129      4550
 130 00b7 C7BC58F2 		.ascii	"\307\274X\362\325`PT~\331\274\2732\003\034NS\250\313"
 130      D5605054 
 130      7ED9BCBB 
 130      32031C4E 
 130      53A8CB
 131 00ca 3B3A654F 		.ascii	";:eO\010\215\262\215\326a\357\275,5\215\365<\267\365"
 131      088DB28D 
 131      D661EFBD 
 131      2C358DF5 
 131      3CB7F5
 132 00dd 1CFA16AE 		.ascii	"\034\372\026\256\024\303,\267\273\327\237c\243\357\343"
 132      14C32CB7 
 132      BBD79F63 
 132      A3EFE3
 133 00ec 435E0578 		.ascii	"C^\005x\364\353\3554\"\025\034\345K|\210D\003\006\316"
 133      F4EBED34 
 133      22151CE5 
 133      4B7C8844 
 133      0306CE
 134 00ff 60B0EF39 		.ascii	"`\260\3579*(JA\037(\370\315\244\326\033^\330e%6b[s\336"
 134      2A284A41 
 134      1F28F8CD 
 134      A4D61B5E 
 134      D8652536 
 135 0117 5977B2AB 		.ascii	"Yw\262\253\233N:ie\266\262)\307^\2642\2119{\331ZYH\314"
 135      9B4E3A69 
 135      65B6B229 
 135      C75EB432 
 135      89397BD9 
 136 012f A428B8E1 		.ascii	"\244(\270\341d\3272\351\177\216\034l\004"
 136      64D732E9 
 136      7F8E1C6C 
 136      04
 137              		.text
 138              		.section	.gnu.lto_VSYNC_WriteCompare.792a7a5e,"",%progbits
 139 0000 789C254F 		.ascii	"x\234%O;HBQ\030\376\277sD%lh\356B\341b.\021DK\253C["
 139      3B484251 
 139      18FEBF73 
 139      44256C68 
 139      EE42E162 
 140 001b 44421018 		.ascii	"DB\020\030!v\3072.E\243\347\252\227\232\302\245\007"
 140      2176C732 
 140      2E45A3E7 
 140      AA979AC2 
 140      A507
ARM GAS  C:\Users\info\AppData\Local\Temp\cctjqHuZ.s 			page 10


 141 002d 97C4C142 		.ascii	"\227\304\301B\323\"\204\226\266\213\020D`\017Zj\013"
 141      D3228496 
 141      B68B1044 
 141      600F5A6A 
 141      0B
 142 003e 0787960C 		.ascii	"\007\207\226\014j,\373\217\376p\370\037|\257\343#\220"
 142      6A2CFB8F 
 142      FE70F81F 
 142      7CAFE323 
 142      90
 143 004f AE116E51 		.ascii	"\256\021nQ\356\243\374 \011\242\360@d\007\005\240\007"
 143      EEA3FC20 
 143      09A2F040 
 143      640705A0 
 143      07
 144 0060 15046504 		.ascii	"\025\004e\0042\370\021\277\002\315\335\316\215\210V"
 144      32F811BF 
 144      02CDDDCE 
 144      8D8856
 145 006f 14D7BB53 		.ascii	"\024\327\273S\016\271\352IIG\022\365D_\212PA\224a\356"
 145      0EB9EA49 
 145      494712F5 
 145      445F8A50 
 145      419461EE 
 146 0083 67EB1632 		.ascii	"g\353\0262\014\342\371\265Z\270G\344L\251\254RG+\032"
 146      0CE2F9B5 
 146      5AB847E4 
 146      4CA9AC52 
 146      472B1A
 147 0096 0E542199 		.ascii	"\016T!\231\201i\003S\006\361\201p\216\210\006\267\033"
 147      81690353 
 147      06F18170 
 147      8E8806B7 
 147      1B
 148 00a7 7F07C3FE 		.ascii	"\177\007\303\376\274\326\037\037\210\242\006\277\316"
 148      BCD61F1F 
 148      88A206BF 
 148      CE
 149 00b4 79B5E8A9 		.ascii	"y\265\350\251^/\247\274b\370y\257\036\362q<\315\241"
 149      5E2FA7BC 
 149      62F879AF 
 149      1EF2713C 
 149      CDA1
 150 00c6 2E8374CE 		.ascii	".\203t\316/!t\227\0354\335F\353xV\363X\360\320i>\006"
 150      2F217497 
 150      1D34DD46 
 150      EB7856F3 
 150      58F0D069 
 151 00dc BE852345 		.ascii	"\276\205#E?L\371\372tg\260\325\356l\345\343\313\311"
 151      3F4CF9FA 
 151      7467B0D5 
 151      EE6CE5E3 
 151      CBC9
 152 00ee FE8B3354 		.ascii	"\376\2133TB\321\316\303\221\022\0270P\207\301\276\227"
 152      42D1CEC3 
 152      91121730 
 152      5087C1BE 
ARM GAS  C:\Users\info\AppData\Local\Temp\cctjqHuZ.s 			page 11


 152      97
 153 00ff 28212705 		.ascii	"(!'\005} \353\275\265'\264^\377\213]Vb#\266\035\233"
 153      7D20EBBD 
 153      B527B45E 
 153      FF8B5D56 
 153      6223B61D 
 154 0114 33374C2B 		.ascii	"37L+\271e\256\255\306\323\333V\312L,\304\323\261\231"
 154      B965AEAD 
 154      C6D3DB56 
 154      CA4C2CC4 
 154      D3B199
 155 0127 C4527C79 		.ascii	"\304R|y>6\231\242@*\275\276\231\264\314\177\366\363"
 155      3E3699A2 
 155      402ABDBE 
 155      99B4CC7F 
 155      F6F3
 156 0139 6C44     		.ascii	"lD"
 157              		.text
 158              		.section	.gnu.lto_VSYNC_Init.792a7a5e,"",%progbits
 159 0000 789C7552 		.ascii	"x\234uRAkSA\030\334\331}y\0116Z\357\006,B\205^\244P"
 159      416B5341 
 159      18DCD97D 
 159      7909365A 
 159      EF062C42 
 160 0018 FC053D78 		.ascii	"\374\005=x\020\244\030\020\204\242H\314M,\204z\316\246"
 160      10A41810 
 160      84A248CC 
 160      4D2C847A 
 160      CEA6
 161 002a C98BC183 		.ascii	"\311\213\301\203X\320\012-6\202\207\304\252M\243\321"
 161      58D00A2D 
 161      368287C4 
 161      AA4DA3D1 
 162 003a 1ABC3CA3 		.ascii	"\032\274<\243V\015\330\336,X\260R1H-\022%J)m\342\367"
 162      560DD8DE 
 162      2C58B052 
 162      31482D12 
 162      254A296D 
 163 0050 BD2DDA0A 		.ascii	"\275-\332\012Y\330\335owg\206\231\335\265\004\004\267"
 163      59D8DD6F 
 163      77678699 
 163      DDB50404 
 163      B7
 164 0061 5529C461 		.ascii	"U)\304a\232\017P\207\022\220\327\346\205H\004$\300\205"
 164      9A0F5087 
 164      1290D7E6 
 164      85480424 
 164      C085
 165 0073 0E40C425 		.ascii	"\016@\304%\342\370%\267$*\227ke\331\223\323\324>9\337"
 165      E2F825B7 
 165      242A976B 
 165      65D993D3 
 165      D43E39DF 
 166 0087 7A75DE85 		.ascii	"zu\336\205\243\204hIOI \207\036A\260\371\351\306L\247"
 166      A3846849 
 166      4F492087 
 166      1E41B0F9 
ARM GAS  C:\Users\info\AppData\Local\Temp\cctjqHuZ.s 			page 12


 166      E9C64CA7 
 167 009b 3A04AE7F 		.ascii	":\004\256\177f\246\226;\273\357h=\242\335\345\271\316"
 167      66A6963B 
 167      BBEF683D 
 167      A2DDE5B9 
 167      CE
 168 00ac 9BDA4D74 		.ascii	"\233\332Mt9\012\310C\021\015}!\364\206<2aW\212\315\033"
 168      390AC843 
 168      110D7D21 
 168      F4863C32 
 168      61578ACD 
 169 00c1 7BED14CB 		.ascii	"{\355\024\313w\341.\272\2150\246`\223U\360N\341\244"
 169      77E12EBA 
 169      8D30A660 
 169      9355F04E 
 169      E1A4
 170 00d3 AB5BADA4 		.ascii	"\253[\255\244v\227\354\347\357;\202R8J\222g:\261\270"
 170      7697ECE7 
 170      EF3B8252 
 170      384A9267 
 170      3AB1B8
 171 00e6 B479F0F3 		.ascii	"\264y\360\363 D\235:'\370!%\317\252\206\312\306\225"
 171      20449D3A 
 171      27F82125 
 171      CFAA86CA 
 171      C695
 172 00f8 EF93032C 		.ascii	"\357\223\003,\227T\234f\314\251,\370\033\322Q\312s\372"
 172      97549C66 
 172      CCA92CF8 
 172      1BD251CA 
 172      73FA
 173 010a EAEA8766 		.ascii	"\352\352\207f\207Yn\274Ih\213\266\336\225\352\005\225"
 173      87596EBC 
 173      49688BB6 
 173      DE95EA05 
 173      95
 174 011b C5AD448A 		.ascii	"\305\255D\212rZ\270\217\020\356\201\354\342\001\262"
 174      725AB88F 
 174      10EE81EC 
 174      E201B2
 175 012a 10352437 		.ascii	"\0205$7\323\015\030Ae4'no\316)\026\001\\`\232\300+\220"
 175      D30D1841 
 175      6534276E 
 175      6FCE2916 
 175      015C609A 
 176 0141 5E02F248 		.ascii	"^\002\362H(&\255\247\233\223g\014\313\242-b\215?kT}"
 176      2826ADA7 
 176      9B93670C 
 176      CBA22D62 
 176      8D3F6B54 
 177 0156 CC9208A0 		.ascii	"\314\222\010\240@$2;\346\011\3572\221\320\272O\3546"
 177      4024323B 
 177      E609EF32 
 177      91D0BA4F 
 177      EC36
 178 0168 32434648 		.ascii	"2CFHFx\351~g\257o\273a^27\272\0204y\306\337\232<\037"
 178      4678E97E 
ARM GAS  C:\Users\info\AppData\Local\Temp\cctjqHuZ.s 			page 13


 178      67AF6FBB 
 178      615E3237 
 178      BA103479 
 179 0181 338B6BBE 		.ascii	"3\213k\276\177y\212\177e\036n\347Y\267\015\337o$J/_"
 179      7F798A7F 
 179      651E6EE7 
 179      59B70DDF 
 179      6F244A2F 
 180 0196 A703C617 		.ascii	"\247\003\306\027\360\350?_m\305J\236'\277\370\212\224"
 180      F0E83F5F 
 180      6DC54A9E 
 180      27BFF88A 
 180      94
 181 01a7 3B510D32 		.ascii	";Q\0152\234\357\267\\^[\362\307\267tF\353\375\216\362"
 181      9CEFB75C 
 181      5E5BF2C7 
 181      B77446EB 
 181      FD8EF2
 182 01ba B5243FEA 		.ascii	"\265$?\352c\304\371\354K\376\305\347=\346\332l<A\310"
 182      63C4F9EC 
 182      4BFEC5E7 
 182      3DE6DA6C 
 182      3C41C8
 183 01cd 51B6472F 		.ascii	"Q\266G/Ve[:\275/f\211\276\023?[\335\327\026O\037\025"
 183      56655B3A 
 183      BD2F6689 
 183      BE133F5B 
 183      DDD7164F 
 184 01e3 4F77E057 		.ascii	"Ow\340W1\342.\036\367\340\334\352\344\207\376\011\251"
 184      31E22E1E 
 184      F7E0DCEA 
 184      E487FE09 
 184      A9
 185 01f4 1E3C16BD 		.ascii	"\036<\026\275\030\215\235\033\216\236?\033\036\272\024"
 185      188D9D1B 
 185      8E9E3F1B 
 185      1EBA14
 186 0203 8B440707 		.ascii	"\213D\007\007\302C\375G\007O\205O\237\350?\022\021V"
 186      C243FD47 
 186      074F854F 
 186      9FE83F12 
 186      1156
 187 0215 643876E1 		.ascii	"d8v\341\017Q\233\005\003"
 187      0F519B05 
 187      03
 188              		.text
 189              		.section	.gnu.lto_VSYNC_Start.792a7a5e,"",%progbits
 190 0000 789C9590 		.ascii	"x\234\225\220\277KBQ\024\307\317\271\367\371\003Qhi"
 190      BF4B4251 
 190      14C7CFB9 
 190      F7F90351 
 190      6869
 191 0012 0BABD145 		.ascii	"\013\253\321E\227\372\013\204\332\"\022\202@\210\260"
 191      97FA0B84 
 191      DA221282 
 191      4088B0
 192 0021 B72648CD 		.ascii	"\267&H\315^\177amA\344\022\341\024\332O{C\203B\362\220"
ARM GAS  C:\Users\info\AppData\Local\Temp\cctjqHuZ.s 			page 14


 192      5E7F616D 
 192      41E412E1 
 192      14DA4F7B 
 192      438342F2 
 193 0036 46A9A986 		.ascii	"F\251\251\206Z*HB\034\024lp\260\3279\257\250!\032:p"
 193      5A2A4842 
 193      1C146C70 
 193      B0D739AF 
 193      A8211A3A 
 194 004b 3997EFFD 		.ascii	"9\227\357\375\336\357\371p4@\340\252S\233\244>E\007"
 194      DEEFF970 
 194      3440E0AA 
 194      539BA43E 
 194      4507
 195 005d 1D8062FB 		.ascii	"\035\200b\373\032 \345\026B\326\374\240<\332]\010\224"
 195      1A20E516 
 195      42D6FCA0 
 195      3CDA5D08 
 195      94
 196 006e 57A2F629 		.ascii	"W\242\366)k\210|Qn\204\244\220\032&\361M\014\0056\362"
 196      6B887C51 
 196      6E84A490 
 196      1A26F14D 
 196      0C0536F2 
 197 0082 ADAA0894 		.ascii	"\255\252\010\224\024\325\343\313\236Te\023s\022\300"
 197      14D5E3CB 
 197      9E546513 
 197      7312C0
 198 0091 12F608C0 		.ascii	"\022\366\010\300\022\006\200l\317\306\373\256\317\231"
 198      1206806C 
 198      CFC6FBAE 
 198      CF99
 199 009f 65DBC4E7 		.ascii	"e\333\304\347#\226\321\311\034\225\005SYVF\231=\307"
 199      2396D1C9 
 199      1C950553 
 199      59564699 
 199      3DC7
 200 00b1 81D72521 		.ascii	"\201\327%!'I\355\222\203\247\365\204\340.[\230.\030"
 200      2749ED92 
 200      83A7F584 
 200      E02E5B98 
 200      2E18
 201 00c3 9741FE93 		.ascii	"\227A\376\223\221\222\362\012\271\306\215\253/rR \307"
 201      9192F20A 
 201      B9C68DAB 
 201      2F725220 
 201      C7
 202 00d4 57AB9D07 		.ascii	"W\253\235\007Wr\2506\225\032!m\213\010Xn7o\257<E\334"
 202      5772A836 
 202      951A216D 
 202      8B08586E 
 202      376FAF3C 
 203 00ea 4F295B97 		.ascii	"O)[\227xD\330\2078F\323\217\261\210\360\204\331\373"
 203      7844D887 
 203      3846D38F 
 203      B188F084 
 203      D9FB
ARM GAS  C:\Users\info\AppData\Local\Temp\cctjqHuZ.s 			page 15


 204 00fc 8CFF27B5 		.ascii	"\214\377'\265\322\251\016|\234\212\010x\302>`\006\011"
 204      D2A90E7C 
 204      9C8A0878 
 204      C23E6006 
 204      09
 205 010d 35BF7CC5 		.ascii	"5\277|\305\2149\320\331\373{\240f\021\006\340)&\011"
 205      8C39D0D9 
 205      FB7BA066 
 205      1106E029 
 205      2609
 206 011f DF0144DB 		.ascii	"\337\001D\333\357\326C\354\375\007\333\3317[\205\330"
 206      EFD643EC 
 206      FD07DBD9 
 206      375B85D8 
 207 012f C871916F 		.ascii	"\310q\221o\032\036\246!\034<\267izB\263\367\3010\326"
 207      1A1EA621 
 207      1C3CB769 
 207      7A42B3F7 
 207      C130D6
 208 0142 E89F30B4 		.ascii	"\350\2370\264=4\276`\332\2306wfl+W\227H)\201\034\343"
 208      3D34BE60 
 208      DA983677 
 208      666C2B57 
 208      97482981 
 209 0158 B3FA9A9E 		.ascii	"\263\372\232\236XY\327W\227#\361\215DL\217\316G\342"
 209      5859D757 
 209      9723F18D 
 209      444C8FCE 
 209      47E2
 210 016a E1E9E862 		.ascii	"\341\351\350bdi.\034\214\301\007\205\203\252\267"
 210      64692E1C 
 210      8CC10785 
 210      83AAB7
 211              		.text
 212              		.section	.gnu.lto_VSYNC_ReadControlRegister.792a7a5e,"",%progbits
 213 0000 789C4D4F 		.ascii	"x\234MOMKBA\024\275g\306T\014\177AB\021\010\271\251"
 213      4D4B4241 
 213      14BD67C6 
 213      540C7F41 
 213      421108B9 
 214 0015 20EA0FB8 		.ascii	" \352\017\270h\027\225\024\004B\204\275]$\230B;\347"
 214      68179514 
 214      044284BD 
 214      5D249842 
 214      3BE7
 215 0027 3D7D1B8B 		.ascii	"=}\033\213hc\005\025.\"\354[\202\240M\304C\020\214\310"
 215      68630515 
 215      2E22EC5B 
 215      82A04DC4 
 215      43108CC8 
 216 003b 6ADB2A5C 		.ascii	"j\333*\\H\264(\355\203@H\233\261\026]\030\356\231\313"
 216      48B428ED 
 216      8340489B 
 216      B1165D18 
 216      EE99CB
 217 004e 39E79E6B 		.ascii	"9\347\236k#\220\252!\331zd\357\220\017\234\300VKD\272"
 217      2390AA21 
ARM GAS  C:\Users\info\AppData\Local\Temp\cctjqHuZ.s 			page 16


 217      D97A64EF 
 217      900F9CC0 
 217      564B44BA 
 218 0062 93010A08 		.ascii	"\223\001\012\010'(\316\020\307'\373f\270\376*.\273|"
 218      2728CE10 
 218      C727FB66 
 218      B8FE2A2E 
 218      BB7C
 219 0074 59210CF1 		.ascii	"Y!\014\361\270\373\346\336<\271\023\334\344DMF\030\360"
 219      B8FBE6DE 
 219      3CB913DC 
 219      E4444D46 
 219      18F0
 220 0086 A0DFA33C 		.ascii	"\240\337\243<\262\360\221\344V\226\012\227\016\336\015"
 220      B2F091E4 
 220      56960A97 
 220      0EDE0D
 221 0095 85CFAF4A 		.ascii	"\205\317\257J\2516\357\216\322Y\353\257\2135Cl\010\233"
 221      A936EF8E 
 221      D259EBAF 
 221      8B35436C 
 221      089B
 222 00a7 14620FFC 		.ascii	"\024b\017\374\277\226\024\271|\332H\273\355I!\253\013"
 222      BF9614B9 
 222      7CDA48BB 
 222      ED4921AB 
 222      0B
 223 00b8 FBF02A77 		.ascii	"\373\360*wi{\000\273L\0125\311\215[\242\331L\010+\335"
 223      697B00BB 
 223      4C0A35C9 
 223      8D5BA2D9 
 223      4C082BDD 
 224 00cc 77FFF4EE 		.ascii	"w\377\364\356\346\322A\361\250*\211*t\2151\325y\005"
 224      E6D241F1 
 224      A82A892A 
 224      748D31D5 
 224      7905
 225 00de F97AEAE5 		.ascii	"\371z\352\345\"\341R\342\004W\027\254\231\371[\307\007"
 225      22E152E2 
 225      045717AC 
 225      99F95BC7 
 225      07
 226 00ef 33395AC1 		.ascii	"39Z\301\012+\017\215\366\337o\275\250\013\233\034\335"
 226      0A2B0F8D 
 226      F6DF6FBD 
 226      A80B9B1C 
 226      DD
 227 0100 9C55733C 		.ascii	"\234Us<\203m=\251\0131A&g8\202\007\207\220\001q\214"
 227      836D3DA9 
 227      0B314126 
 227      67388207 
 227      87900171 
 228 0115 0CA80C43 		.ascii	"\014\250\014C\214\265\362\310\255\322\226\236aX[\341"
 228      8CB5F2C8 
 228      ADD2969E 
 228      61585BE1 
 229 0125 BF25EA8A 		.ascii	"\277%\352\212*\203\012 q\347\2606\257Ef\242\332\354"
ARM GAS  C:\Users\info\AppData\Local\Temp\cctjqHuZ.s 			page 17


 229      2A830A20 
 229      71E7B036 
 229      AF4566A2 
 229      DAEC
 230 0137 74201C8B 		.ascii	"t \034\213\204\264\340h \354\037\014N\006\246F\374\275"
 230      84B4E068 
 230      20EC1F0C 
 230      4E06A646 
 230      FCBD
 231 0149 21B247B4 		.ascii	"!\262G\264\205\330\\\364\007\010'zs"
 231      85D85CF4 
 231      0708277A 
 231      73
 232              		.text
 233              		.section	.gnu.lto_VSYNC_WriteControlRegister.792a7a5e,"",%progbits
 234 0000 789C254F 		.ascii	"x\234%O\275KBQ\024?\277{\037*\210\015\255=(Z\314\245"
 234      BD4B4251 
 234      143FBF7B 
 234      1F2A880D 
 234      AD3D285A 
 235 0016 A2E82F70 		.ascii	"\242\350/ph\213H\010\002#\302\336\026>\020\233\275O"
 235      688B4808 
 235      0223C2DE 
 235      163E109B 
 235      BD4F
 236 0028 7DD41435 		.ascii	"}\324\0245\324`\212\020\230}\"APm\"\004-Z\255M\321\340"
 236      D4608A10 
 236      987D2241 
 236      506D2204 
 236      2D5AAD4D 
 237 003e D0A4514B 		.ascii	"\320\244QK\240\257s\365\300\345|\360\373\272\006\201"
 237      A0AF73F5 
 237      C0E57CF0 
 237      FBBA0681 
 238 004e 748D728B 		.ascii	"t\215r\213p\037\343\007I\020\007-\"' \000=\250\000("
 238      701FE307 
 238      4910072D 
 238      22272000 
 238      3DA80028 
 239 0062 2390C1AF 		.ascii	"#\220\301\257\350\0114v\333\217\"RU\\\037\025/TP\257"
 239      E8093476 
 239      DB8F2252 
 239      555C1F15 
 239      2F5450AF 
 240 0076 4ABA92C8 		.ascii	"J\272\222\310\023\003)B\025\021\015k\226\234\240\234"
 240      13032942 
 240      15110D6B 
 240      969CA09C 
 241 0086 04F1DC3A 		.ascii	"\004\361\334:{(\032\341\212RY\245\356\3275\0348\207"
 241      7B281AE1 
 241      8A5259A5 
 241      EED7351C 
 241      3887
 242 0098 6406E64D 		.ascii	"d\006\346M\314\232\304\007\302\005\302\032\374y\333"
 242      CC9AC407 
 242      C205C21A 
 242      FC79DB
ARM GAS  C:\Users\info\AppData\Local\Temp\cctjqHuZ.s 			page 18


 243 00a7 3F0AF9F2 		.ascii	"?\012\371\362Z\177b(\212K\370t\316\332J]y^N\325{3o{"
 243      5A7F6228 
 243      8A4BF874 
 243      CEDA4A5D 
 243      795E4ED5 
 244 00bf A72306C7 		.ascii	"\247#\006\307\323\034\3520H\347\354\012\241\273l\243"
 244      D31CEA30 
 244      48E7EC0A 
 244      A1BB6CA3 
 245 00cf 51E87A27 		.ascii	"Q\350z's\232\307\202\307n\343\305\377#\\)\006a\236\366"
 245      739AC782 
 245      C76EE3C5 
 245      FF235C29 
 245      06619EF6 
 246 00e3 DFFBC1E1 		.ascii	"\337\373\301\341\372\367\354(\203O\315\273NM\226Qr\362"
 246      FAF7EC28 
 246      834FCDBB 
 246      4E4D9651 
 246      72F2
 247 00f5 70A5C435 		.ascii	"p\245\3045L\\\301d\343\033\224\221\223\202\276\220\255"
 247      4C5CC164 
 247      E31B9491 
 247      9382BE90 
 247      AD
 248 0106 1F7E4F69 		.ascii	"\037~Oi\301\301\037;,\305N\354;\276h%\255\324f\332\332"
 248      C1C11F3B 
 248      2CC54EEC 
 248      3BBE6825 
 248      ADD466DA 
 249 011b DA88D93B 		.ascii	"\332\210\331;\251\204\025_\216\331\321\205\370jlm):"
 249      A984155F 
 249      8ED9D185 
 249      F86A6C6D 
 249      293A
 250 012d 9D207FC2 		.ascii	"\235 \177\302N\246S\366\366?\245\001n\317"
 250      4EA653F6 
 250      F63FA501 
 250      6ECF
 251              		.text
 252              		.section	.gnu.lto_VSYNC_ReadCapture.792a7a5e,"",%progbits
 253 0000 789C6361 		.ascii	"x\234ca`d\000\201G@\254\010\304\322@\314\310\314\300"
 253      60640081 
 253      4740AC08 
 253      C4D240CC 
 253      C8CCC0
 254 0013 C834E11C 		.ascii	"\3104\341\034\003C#\007\023##\210\321\300\301\310P\317"
 254      03432307 
 254      13232388 
 254      D1C0C1C8 
 254      50CF
 255 0025 C458CFF8 		.ascii	"\304X\317\370\225\351/\023\343\351\357'z\2704\22774"
 255      95E92F13 
 255      E3E9EF27 
 255      7AB83497 
 255      3734
 256 0037 34353C38 		.ascii	"45<8\272\232o\366\272\013\015\314\255\314\014\014\377"
 256      BA9A6FF6 
ARM GAS  C:\Users\info\AppData\Local\Temp\cctjqHuZ.s 			page 19


 256      BA0B0DCC 
 256      ADCC0C0C 
 256      FF
 257 0048 9918188D 		.ascii	"\231\030\030\215e\030\015d@f,g\324d\000\252}\264\361"
 257      65180D64 
 257      40662C67 
 257      D46400AA 
 257      7DB4F1
 258 005b DF545EB6 		.ascii	"\337T^\266\226\006 P\000)\000\312\254`d\003\331\271"
 258      96062050 
 258      002900CA 
 258      AC606403 
 258      D9B9
 259 006d 3EE840C3 		.ascii	">\350@\303\377\377\315\015\007\356\033]\\\261\216\217"
 259      FFFFCD0D 
 259      07EE1B5D 
 259      5CB18E8F 
 260 007d 99890164 		.ascii	"\231\211\001d\006\303\007\240\032\220\225\037\231\230"
 260      06C307A0 
 260      1A90951F 
 260      9998
 261 008b 4034F333 		.ascii	"@4\3633\306C\277\272\216\235n\346\002\351kf\006\331"
 261      C643BFBA 
 261      8E9D6EE6 
 261      02E96B66 
 261      06D9
 262 009d 3FADF5D0 		.ascii	"?\255\365\320y\366/L\255\314\214\214 +\232\277\375Z"
 262      79F62F4C 
 262      ADCC8C8C 
 262      202B9ABF 
 262      FD5A
 263 00af C90DE1DE 		.ascii	"\311\015\341\336:\321\330\300\002\024:\376\364h'\363"
 263      3AD1D8C0 
 263      02143AFE 
 263      F46827F3 
 264 00bf 7CC6B98D 		.ascii	"|\306\271\215-\215\015\015\301@\203\231\030W1\3120\256"
 264      2D8D0D0D 
 264      C1408399 
 264      185731CA 
 264      30AE
 265 00d1 64043A8D 		.ascii	"d\004:\215q5\343|F\206W\214M\015\201P#\031\300\3262"
 265      7135E37C 
 265      4686578C 
 265      4D0D8150 
 265      2319C0D6 
 266 00e6 82AC03B2 		.ascii	"\202\254\003\262\345\335S\363R\213\022KRS\342\203\363"
 266      E5DD53F3 
 266      528B124B 
 266      5253E283 
 266      F3
 267 00f7 4B8B9253 		.ascii	"K\213\222Sc\002\202\363\235Mc\302\202#\375\234\365\222"
 267      630282F3 
 267      9D4D63C2 
 267      8223FD9C 
 267      F592
 268 0109 1900FB9C 		.ascii	"\031\000\373\234]\016"
 268      5D0E
ARM GAS  C:\Users\info\AppData\Local\Temp\cctjqHuZ.s 			page 20


 269              		.text
 270              		.section	.gnu.lto_VSYNC_ReadCompare.792a7a5e,"",%progbits
 271 0000 789C6361 		.ascii	"x\234ca`d\000\201\207@\254\010\304\322@\314\310\314"
 271      60640081 
 271      8740AC08 
 271      C4D240CC 
 271      C8CC
 272 0012 C0C834E1 		.ascii	"\300\3104\341\034\003C#\007\023##\210\321\300\301\310"
 272      1C034323 
 272      07132323 
 272      88D1C0C1 
 272      C8
 273 0023 50CFC458 		.ascii	"P\317\304X\317\370\225\351/\023\343\351\357'z\2704\227"
 273      CFF895E9 
 273      2F13E3E9 
 273      EF277AB8 
 273      3497
 274 0035 37343435 		.ascii	"7445<h\335\3057{\335\205\006\346Vf\006\206\377L\014"
 274      3C68DDC5 
 274      377BDD85 
 274      06E65666 
 274      0686FF4C 
 275 004a 8CC6328C 		.ascii	"\214\3062\214\0062 3\2263j2\000\325>\332\370o*/[K\003"
 275      06322033 
 275      96336A32 
 275      00D53EDA 
 275      F86F2A2F 
 276 0061 10288014 		.ascii	"\020(\200\024\000eV0\262\201\354\\\037t\240\341\377"
 276      00655630 
 276      B281EC5C 
 276      1F74A0E1 
 276      FF
 277 0072 FFE68603 		.ascii	"\377\346\206\003\227\215/\276\330\315\307\314\304\000"
 277      978D2FBE 
 277      D8CDC7CC 
 277      C400
 278 0080 3283E103 		.ascii	"2\203\341\003P\015\310\312\217LL \232\371\031\343\241"
 278      500DC8CA 
 278      8F4C4C20 
 278      9AF919E3 
 278      A1
 279 0091 5F5DEFCE 		.ascii	"_]\357\3165s\203\36453\203\354\237\326z\350<\373\027"
 279      357383F4 
 279      353383EC 
 279      9FD67AE8 
 279      3CFB17
 280 00a4 A6566646 		.ascii	"\246VfFF\220\025\213\267,)\207\360V\235hl`\001\212\314"
 280      4690158B 
 280      B72C2987 
 280      F0569D68 
 280      6C60018A 
 281 00b9 E9BBDCCA 		.ascii	"\351\273\334\3125\237qncKcCC4\320\\&\306U\2142\214+"
 281      359F716E 
 281      634B6343 
 281      4334D05C 
 281      26C6558C 
 282 00d0 19812E63 		.ascii	"\031\201.c\\\3158\237\221\341\025cSC$\324D\006\260\255"
ARM GAS  C:\Users\info\AppData\Local\Temp\cctjqHuZ.s 			page 21


 282      5CCD389F 
 282      91E11563 
 282      534324D4 
 282      4406B0AD 
 283 00e4 8C20DB80 		.ascii	"\214 \333\200ly\367\324\274\324\242\304\222\324\224"
 283      6C79F7D4 
 283      BCD4A2C4 
 283      92D494
 284 00f3 F8E0FCD2 		.ascii	"\370\340\374\322\242\344\324\230\200\340|g\323\230\260"
 284      A2E4D498 
 284      80E07C67 
 284      D398B0
 285 0102 E0483F67 		.ascii	"\340H?g\275d\006\000P(\\\004"
 285      BD640600 
 285      50285C04 
 286              		.text
 287              		.section	.gnu.lto_VSYNC_ReadPeriod.792a7a5e,"",%progbits
 288 0000 789C6361 		.ascii	"x\234ca`d\000\201\207@\254\010\304\322@\314\310\314"
 288      60640081 
 288      8740AC08 
 288      C4D240CC 
 288      C8CC
 289 0012 C0C834E1 		.ascii	"\300\3104\341\034\003C#\007\023##\210\321\300\301\310"
 289      1C034323 
 289      07132323 
 289      88D1C0C1 
 289      C8
 290 0023 50CFC458 		.ascii	"P\317\304X\317\370\225\351/\023\343\351\357'z\2704\227"
 290      CFF895E9 
 290      2F13E3E9 
 290      EF277AB8 
 290      3497
 291 0035 37343435 		.ascii	"7445<h\375\315\367\275\251U\242\225\231\201\341?\023"
 291      3C68FDCD 
 291      F7BDA955 
 291      A2959981 
 291      E13F13
 292 0048 03A3B10C 		.ascii	"\003\243\261\014\243\201\014\310\210\345\214\232\014"
 292      A3810CC8 
 292      88E58C9A 
 292      0C
 293 0055 40A58F36 		.ascii	"@\245\2176\376\233\312\313\326\322\000\004\012 \005"
 293      FE9BCACB 
 293      D6D20004 
 293      0A2005
 294 0064 4099158C 		.ascii	"@\231\025\214l +\327\007\035h\370\377\277\271\341\300"
 294      6C202BD7 
 294      071D68F8 
 294      FFBFB9E1 
 294      C0
 295 0075 6DF3892F 		.ascii	"m\363\211/\376\361131\200\314`\370\000T\003\262\361"
 295      FEF13133 
 295      3180CC60 
 295      F8005403 
 295      B2F1
 296 0087 23131388 		.ascii	"#\023\023\210f~\306x\350W\327\271\373\315\\ }\315\314"
 296      667EC678 
ARM GAS  C:\Users\info\AppData\Local\Temp\cctjqHuZ.s 			page 22


 296      E857D7B9 
 296      FBCD5C20 
 296      7DCDCC
 297 009a 20EBA7B5 		.ascii	" \353\247\265\036:\317\376\205\251\225\231\221\021d"
 297      1E3ACFFE 
 297      85A99599 
 297      911164
 298 00a9 C5EEEEAD 		.ascii	"\305\356\356\255ox \334S'\032\033X\200B\337\246u\255"
 298      6F7820DC 
 298      53271A1B 
 298      588042DF 
 298      A675AD
 299 00bc E19FCF38 		.ascii	"\341\237\3178\267\261\245\261\241!\030h0\023\343*F\031"
 299      B7B1A5B1 
 299      A1211868 
 299      3013E32A 
 299      4619
 300 00ce C6958C40 		.ascii	"\306\225\214@\2471\256f\234\317\310\360\212\261\251"
 300      A731AE66 
 300      9CCFC8F0 
 300      8AB1A9
 301 00dd 21106A24 		.ascii	"!\020j$\003\330ZF\220u@\266\274{j^jQbIjJ|p~iQrjL@p\276"
 301      03D85A46 
 301      907540B6 
 301      BC7B6A5E 
 301      6A516249 
 302 00fe B3694C58 		.ascii	"\263iLXp\244\237\263^2\003\000\224\221\\\224"
 302      70A49FB3 
 302      5E320300 
 302      94915C94 
 303              		.text
 304              		.section	.gnu.lto_.symbol_nodes.792a7a5e,"",%progbits
 305 0000 789C55CE 		.ascii	"x\234U\316\273\021\302@\020\203a\355\355\335\236_\020"
 305      BB11C240 
 305      108361ED 
 305      EDDD9E5F 
 305      10
 306 0011 B801861E 		.ascii	"\270\001\206\036\334\237 !\246\006\207\304T@\001\364"
 306      DC9F2021 
 306      A60687C4 
 306      544001F4 
 307 0021 8063D7C0 		.ascii	"\200c\327\300`\223)\372g\276Q\240\014\303\321\000$'"
 307      609329FA 
 307      67BE51A0 
 307      0CC3D100 
 307      2427
 308 0033 707F035B 		.ascii	"p\177\003[\036\227\363\006\231\246P\230\024\202\256"
 308      1E97F306 
 308      99A65098 
 308      1482AE
 309 0042 5099151A 		.ascii	"P\231\025\032\026\205\304P0V\201\002\\\307\375O\313"
 309      1685C450 
 309      30568102 
 309      5CC7FD4F 
 309      CB
 310 0053 46971D5B 		.ascii	"F\227\035[\205\236\235\302\300^\341\300A\300#a\276\255"
 310      859E9DC2 
ARM GAS  C:\Users\info\AppData\Local\Temp\cctjqHuZ.s 			page 23


 310      C05EE1C0 
 310      41C02361 
 310      BEAD
 311 0065 278F8CD7 		.ascii	"'\217\214\327\277\005\313\336\032X\236\223W`\376|\015"
 311      BF05CBDE 
 311      1A589E93 
 311      5760FE7C 
 311      0D
 312 0076 3F910E3C 		.ascii	"?\221\016<p"
 312      70
 313              		.text
 314              		.section	.gnu.lto_.refs.792a7a5e,"",%progbits
 315 0000 789C6361 		.ascii	"x\234ca`d\340d```bg\340`d\344`a\000\000\001|\000."
 315      6064E064 
 315      60606062 
 315      67E06064 
 315      E4606100 
 316              		.text
 317              		.section	.gnu.lto_.decls.792a7a5e,"",%progbits
 318 0000 789C8D94 		.ascii	"x\234\215\224]L\024W\024\307\347\354\035\027:,PI\323"
 318      5D4C1457 
 318      14C7E7EC 
 318      1D173A2C 
 318      5049D3
 319 0013 D86613A9 		.ascii	"\330f\023\251\211\211O\244\2461\241\017M\232\220V\373"
 319      89894FA4 
 319      A631A10F 
 319      4D9A9056 
 319      FB
 320 0024 628DA4B4 		.ascii	"b\215\244\264Ml\314\212\243%\261@\326\345\301\227f\326"
 320      4D6CCC8A 
 320      A325B140 
 320      D6E5C197 
 320      66D6
 321 0036 A55A6D63 		.ascii	"\245Zmc\021\013\012\330\010\364CQ\020\004\221/\221E"
 321      110B0AD8 
 321      08F44351 
 321      1004912F 
 321      9145
 322 0048 40405C05 		.ascii	"@@\\\005?\300\025[\211T+E\253\266V]\255\245\347\336"
 322      3FC0155B 
 322      89542B45 
 322      ABB6565D 
 322      ADA5E7DE 
 323 005c B9CBBD63 		.ascii	"\271\313\275cF\351M\316\356\2753\377\377\357\234{f\356"
 323      46E94DCE 
 323      EEBD33FF 
 323      FFEF9C7B 
 323      66EE
 324 006e A80A2874 		.ascii	"\250\012(t\204b\024e\011N\335DQ\246p$\340\265\014E\214"
 324      84621465 
 324      094EDD44 
 324      51A67024 
 324      E0B50C45 
 325 0083 788C1A8C 		.ascii	"x\214\032\214Z\214f\2146\214v\214\016\214N\214.\214"
 325      5A8C668C 
 325      368C768C 
ARM GAS  C:\Users\info\AppData\Local\Temp\cctjqHuZ.s 			page 24


 325      0E8C4E8C 
 325      2E8C
 326 0095 1E8C5E8C 		.ascii	"\036\214^\214~\214\001\312\304\240\364A\305:(G\345|"
 326      7E8C01CA 
 326      C4A0F441 
 326      C53A2847 
 326      E57C
 327 00a7 37C6058C 		.ascii	"7\306\005\214s\374\036\360\373O\217\332\031<\2656\236"
 327      73FC1EF0 
 327      FB4F8FDA 
 327      193CB536 
 327      9E
 328 00b8 66C9D368 		.ascii	"f\311\323h\343i\266\361\264qO#\3173\2021,y\332l<\355"
 328      E369B6F1 
 328      B4714F23 
 328      CF338231 
 328      2C79DA6C 
 329 00ce 33E469B7 		.ascii	"3\344i\267\361t\314\340\351\260\361\320>\307H\036\271"
 329      F174CCE0 
 329      E9B0F1D0 
 329      3EC7481E 
 329      B9
 330 00df 0F17319A 		.ascii	"\017\0271\232\270N\345\332fE<\243\247\007}^NE\3643\314"
 330      B84EE5DA 
 330      66453CA3 
 330      A7077D5E 
 330      4E45F433 
 331 00f4 999730AA 		.ascii	"\231\2270\252\271\206p\035e\325(\366\317\262\207\353"
 331      B986701D 
 331      65D528F6 
 331      CFB287EB 
 332 0104 A8F7E95E 		.ascii	"\250\367\351^\365\330\344\355\235a\337\2756\236\376"
 332      F5D8E4ED 
 332      9D61DFBD 
 332      369EFE
 333 0113 E7E4E8B7 		.ascii	"\347\344\350\267\321\017<G?`\243\017=G\037\262\321?"
 333      D10F3C47 
 333      3F60A30F 
 333      3D471FB2 
 333      D13F
 334 0125 7140E0EA 		.ascii	"q@\340\352\357\345\261\243\020\006P\200\015\205\237"
 334      EFE5B1A3 
 334      10065080 
 334      0D859F
 335 0134 23855EE1 		.ascii	"#\205^\341\377t\002\346\302\021\345\3014\231O\230\034"
 335      FF7402E6 
 335      C211E5C1 
 335      34994F98 
 335      1C
 336 0145 1407D383 		.ascii	"\024\007\323\203t\303\242cg\222\015q\011\246GT\011V"
 336      74C3A263 
 336      67920D71 
 336      09A64754 
 336      0956
 337 0157 28A58A25 		.ascii	"(\245\212%\256\035\302 \361x\365<?\310i\031\232D7\275"
 337      AE1DC220 
 337      F178F53C 
ARM GAS  C:\Users\info\AppData\Local\Temp\cctjqHuZ.s 			page 25


 337      3FC86919 
 337      9A4437BD 
 338 016b E5FEE562 		.ascii	"\345\376\345b'A&\316\257D\366\275\233Rm\340(0\014\307"
 338      274126CE 
 338      AF44F6BD 
 338      9B526DE0 
 338      28300CC7 
 339 017f 5CD199A1 		.ascii	"\\\321\231\241\374\272\335\344\236\003\2224Pqy7T:\236"
 339      FCBADDE4 
 339      9E039234 
 339      50717937 
 339      543A9E
 340 0192 80CB9734 		.ascii	"\200\313\2274H\306\345\223\376\262R\307\234b\346\013"
 340      48C6E593 
 340      FEB252C7 
 340      9C62E60B 
 341 01a2 18C92A64 		.ascii	"\030\311*d\274\014\007\300\015\373\001_B\250\2069\370"
 341      BC0C07C0 
 341      0DFB015F 
 341      42A88639 
 341      F8
 342 01b3 BB4A3549 		.ascii	"\273J5I\221\301\316\012u^\2711Vg\214\335=\352.\016\030"
 342      91C1CE0A 
 342      755EB931 
 342      56678CDD 
 342      3DEA2E0E 
 343 01c8 7D684BA6 		.ascii	"}hK\246*\330\007\004\252 \205\226\210S\372\267\027F"
 343      2AD80704 
 343      AA208596 
 343      8853FAB7 
 343      1746
 344 01da B1F81A98 		.ascii	"\261\370\032\230\207\316\374C\333n\250$\225\025Z\231"
 344      87CEFC43 
 344      DB6EA824 
 344      95155A99 
 345 01ea 5FB8CD85 		.ascii	"_\270\315\205\224\362:#X\177\306e\024\370\015\343m\306"
 345      94F23A23 
 345      587FC665 
 345      14F80DE3 
 345      6DC6
 346 01fc 38281807 		.ascii	"8(\030\007eF-c|\335\336\333\240\2214\306\250\375\342"
 346      65462D63 
 346      7CDDDEDB 
 346      A09134C6 
 346      A8FDE2
 347 020f D7AA58DC 		.ascii	"\327\252X\334\204[\203)\240\353\233-\221xsMo\227l\037"
 347      845B8329 
 347      A0EB9B2D 
 347      9178734D 
 347      6F976C1F 
 348 0223 FF378E64 		.ascii	"\3777\216d\320\271\343\334\370\201\011\025\026h?\321"
 348      D0B9E3DC 
 348      F8810915 
 348      16683FD1 
 349 0233 2D8E4536 		.ascii	"-\216E6\255\331\271\031\373\003\215\240A\203\310\347"
 349      ADD9B919 
 349      FB038DA0 
ARM GAS  C:\Users\info\AppData\Local\Temp\cctjqHuZ.s 			page 26


 349      4183C8E7 
 350 0243 D6F0F74B 		.ascii	"\326\360\367K\303\330h\334\2514\234s\024x\303\015\257"
 350      C3D868DC 
 350      A9349C73 
 350      1478C30D 
 350      AF
 351 0254 BB15380C 		.ascii	"\273\0258\014\013(\224\252\240\036\333r\010\333\202"
 351      0B2894AA 
 351      A01EDB72 
 351      08DB82
 352 0263 09AEEDDC 		.ascii	"\011\256\355\3343\351T\361\035b\034\354\017^\253n\275"
 352      33E954F1 
 352      1D621CEC 
 352      0F5EAB6E 
 352      BD
 353 0274 7CD3F9CC 		.ascii	"|\323\371\314N6\261N\036\001\336\312\246\374\236\275"
 353      4E36B14E 
 353      1E01DECA 
 353      A6FC9EBD 
 354 0284 B1D15656 		.ascii	"\261\321VV/*\2557\214-hT\251\016\352D]ur\037\232Y\037"
 354      2F2AAD37 
 354      8C2D6854 
 354      A90EEA44 
 354      5D75721F 
 355 029b 8A5B230F 		.ascii	"\212[#\0175\3629\333\350\340W=\201D9'-G$m\265<\276\211"
 355      35F239DB 
 355      E8E0573D 
 355      81443927 
 355      2D47246D 
 356 02b3 B3B77746 		.ascii	"\263\267wF\033\3370\032_b\004\363\015\332\012TA\213"
 356      1BDF301A 
 356      5F6204F3 
 356      0DDA0A54 
 356      418B
 357 02c5 48D922A7 		.ascii	"H\331\"\247lc)K\272\312'\010)\000\226\323\037i\217$"
 357      6C63294B 
 357      BACA2708 
 357      290096D3 
 357      1F698F24 
 358 02d9 9AA5078B 		.ascii	"\232\245\007\213\366\220i\014\255\374\250\300\034\225"
 358      F690690C 
 358      ADFCA8C0 
 358      1C95
 359 02e7 31ED0CB3 		.ascii	"1\355\014\263\261\346\3045\007\25141\3376\025\326\315"
 359      B1E6C435 
 359      07A93431 
 359      DF3615D6 
 359      CD
 360 02f8 E29892AB 		.ascii	"\342\230\222\253\313\266G_&\2129&0\307dL\007\303\354"
 360      CBB6475F 
 360      268A3926 
 360      30C7644C 
 360      07C3EC
 361 030b BA35797F 		.ascii	"\2725y\177\026i41\217\002g\337\342\224\360&Q\014}\235"
 361      16693431 
 361      8F0267DF 
 361      E294F026 
ARM GAS  C:\Users\info\AppData\Local\Temp\cctjqHuZ.s 			page 27


 361      510C7D9D 
 362 031f 82821294 		.ascii	"\202\202\022\224)\235\214r\275\273\177\340\005\0224"
 362      299D8C72 
 362      BDBB7FE0 
 362      051234
 363 032e 29458DDB 		.ascii	")E\215\333\276!\2745\277\350\374QP\306q\3018.3\272\030"
 363      BE21BC35 
 363      BFE8FC51 
 363      50C671C1 
 363      382E33BA 
 364 0343 C33F7467 		.ascii	"\303?tg\314IN\231\214\363{\352\217%p\306\216\333\037"
 364      CC494E99 
 364      8CF37BEA 
 364      8F2570C6 
 364      8EDB1F
 365 0356 4D6F88B6 		.ascii	"Mo\210\266\267[`\272eL\017\3034l\375M#\327M\312\324"
 365      B75B60BA 
 365      654C0FC3 
 365      346CFD4D 
 365      23D74DCA 
 366 036b 3FBB1AA2 		.ascii	"?\273\032\242\225<\276mm\313\011A9!Sz\031\345\360\203"
 366      953CBE6D 
 366      6DCB0941 
 366      3921537A 
 366      19E5F083 
 367 037f 8A2B2AF1 		.ascii	"\212+*\361\233_\203\303m\201\037\3428\346\347?\255\305"
 367      9B5F83C3 
 367      6D811FE2 
 367      38E6E73F 
 367      ADC5
 368 0391 F4094C9F 		.ascii	"\364\011L\237\214\351g\230\276\357:\037\305\223\035"
 368      8CE96798 
 368      BEEF3A1F 
 368      C5931D
 369 03a0 26E69E7F 		.ascii	"&\346\236\177\377\205\350+3\270\336\362\306\234\024"
 369      FF85E82B 
 369      33B8DEF2 
 369      C69C14
 370 03af 94933265 		.ascii	"\224\2232e\200Q\266\217\377}+\221\374hR\312BUW4N\011"
 370      8051B68F 
 370      FF7D2B91 
 370      FC6852CA 
 370      42555734 
 371 03c5 3F48B560 		.ascii	"?H\265`N\011\314)\031\023b\230\323\243}o\3363\017+\005"
 371      4E09CC29 
 371      19136298 
 371      D3A37D6F 
 371      DE330F2B 
 372 03da 758FF53E 		.ascii	"u\217\365>v\221#&\265\353\344\336\0330\377{\243\274"
 372      76912326 
 372      B5EBE4DE 
 372      1B30FF7B 
 372      A3BC
 373 03ec D208167C 		.ascii	"\322\010\026|b\020\246:c\342\370\361U\330\3724\236\005"
 373      6210A63A 
 373      63E2F8F1 
 373      55D8FA34 
ARM GAS  C:\Users\info\AppData\Local\Temp\cctjqHuZ.s 			page 28


 373      9E05
 374 03fe 1884F974 		.ascii	"\030\204\371t?\371\177\015;5<\347\201\377w\316C\023"
 374      3FF97F0D 
 374      3B353CE7 
 374      81FF77CE 
 374      4313
 375 0410 155331A4 		.ascii	"\025S1\244\233%t4\024\225\024\305\200\266\300\306~\336"
 375      9B257434 
 375      149514C5 
 375      80B6C0C6 
 375      7EDE
 376 0422 C61EFDE0 		.ascii	"\306\036\375\340\274_Z\350\307\316\237\303\352\316\212"
 376      BC5F5AE8 
 376      C7CE9FC3 
 376      EACE8A
 377 0431 CD0E8166 		.ascii	"\315\016\201f\236\312\252?\272\202\340\332J?=x\204\223"
 377      9ECAAA3F 
 377      BA82E0DA 
 377      4A3F3D78 
 377      8493
 378 0443 9630A138 		.ascii	"\2260\2418\302\027\300\305\276\373\370\217\342\212\262"
 378      C217C0C5 
 378      BEFBF88F 
 378      E28AB2
 379 0452 C9AB71D1 		.ascii	"\311\253q\321\372\013f(\000\365\233\037N\206-\360a\013"
 379      FA0B6628 
 379      00F59B1F 
 379      4E862DF0 
 379      610B
 380 0464 7C84C347 		.ascii	"|\204\303G\030\374Ng_W\242,\246\357\234\020_\344\342"
 380      18FC4E67 
 380      5F57A22C 
 380      A6EF9C10 
 380      5FE4E2
 381 0477 8B4CEC2F 		.ascii	"\213L\354/\253(\264\210\255_\2360\027\207\231\2704\274"
 381      AB28B488 
 381      AD5F9E30 
 381      178799B8 
 381      34BC
 382 0489 7B205616 		.ascii	"{ V\026W[\310\227\300\025m\013N\025WF\372\307K\323V"
 382      575BC897 
 382      C0156D0B 
 382      4E155746 
 382      FAC74BD3 
 383 049e BE93ED59 		.ascii	"\276\223\355Y\265N\217]\274\364\203\344\264\205\013"
 383      B54E8F5D 
 383      BCF483E4 
 383      B4850B
 384 04ad 95B98BF5 		.ascii	"\225\271\213\365l\335\353\361\351\253W\246\347\344y"
 384      6CDDEBF1 
 384      E9AB57A6 
 384      E7E479
 385 04bc 33F515CB 		.ascii	"3\365\025\313\322s\322\026\255`\342\224LE3]\351\276"
 385      D273D216 
 385      AD60E294 
 385      4C45335D 
 385      E9BE
ARM GAS  C:\Users\info\AppData\Local\Temp\cctjqHuZ.s 			page 29


 386 04ce 9CDC2473 		.ascii	"\234\334$s\372\2417\313\247\247\345\344e\373t\357\254"
 386      FAA137CB 
 386      A7A7E5E4 
 386      65FB74EF 
 386      AC
 387 04df BCAC6C5F 		.ascii	"\274\254l_\352k\317`dn\360m\310\325\327\247|\252\314"
 387      EA6BCF60 
 387      646EF06D 
 387      C8D5D7A7 
 387      7CAACC
 388 04f2 36ADCB75 		.ascii	"6\255\313u\317j\356\234-\301\226\351\336\254\234\325"
 388      CF6AEE9C 
 388      2DC196E9 
 388      DEAC9CD5 
 389 0502 56FC67B9 		.ascii	"V\374g\271\036\257\316\223\277\227\235\345\213\213\326"
 389      1EAFCE93 
 389      BF979DE5 
 389      8B8BD6
 390 0511 E1F1FA5E 		.ascii	"\341\361\372^\221i\331>o\316\272\345\372\332\254\365"
 390      9169D93E 
 390      6FCEBAE5 
 390      FADAACF5 
 391 0521 487DD5C2 		.ascii	"H}\325\302\260\334\222K\360\344\372\362\274\272\245"
 391      B0DC924B 
 391      F0E4FAF2 
 391      BCBAA5
 392 0530 2896EF45 		.ascii	"(\226\357Eq\305\254)\336\274\220\205\005dx\274\252W"
 392      71C5AC29 
 392      DEBC9085 
 392      056478BC 
 392      AA57
 393 0542 5F9BFA1F 		.ascii	"_\233\372\037]\362\370\372"
 393      5DF2F8FA 
 394              		.text
 395              		.section	.gnu.lto_.symtab.792a7a5e,"",%progbits
 396 0000 5653594E 		.ascii	"VSYNC_Enable\000"
 396      435F456E 
 396      61626C65 
 396      00
 397 000d 00       		.ascii	"\000"
 398 000e 00       		.ascii	"\000"
 399 000f 00       		.ascii	"\000"
 400 0010 00000000 		.ascii	"\000\000\000\000\000\000\000\000"
 400      00000000 
 401 0018 AD000000 		.ascii	"\255\000\000\000"
 402 001c 5653594E 		.ascii	"VSYNC_Stop\000"
 402      435F5374 
 402      6F7000
 403 0027 00       		.ascii	"\000"
 404 0028 00       		.ascii	"\000"
 405 0029 00       		.ascii	"\000"
 406 002a 00000000 		.ascii	"\000\000\000\000\000\000\000\000"
 406      00000000 
 407 0032 AF000000 		.ascii	"\257\000\000\000"
 408 0036 5653594E 		.ascii	"VSYNC_WriteCounter\000"
 408      435F5772 
 408      69746543 
ARM GAS  C:\Users\info\AppData\Local\Temp\cctjqHuZ.s 			page 30


 408      6F756E74 
 408      657200
 409 0049 00       		.ascii	"\000"
 410 004a 00       		.ascii	"\000"
 411 004b 00       		.ascii	"\000"
 412 004c 00000000 		.ascii	"\000\000\000\000\000\000\000\000"
 412      00000000 
 413 0054 B8000000 		.ascii	"\270\000\000\000"
 414 0058 5653594E 		.ascii	"VSYNC_ReadCounter\000"
 414      435F5265 
 414      6164436F 
 414      756E7465 
 414      7200
 415 006a 00       		.ascii	"\000"
 416 006b 00       		.ascii	"\000"
 417 006c 00       		.ascii	"\000"
 418 006d 00000000 		.ascii	"\000\000\000\000\000\000\000\000"
 418      00000000 
 419 0075 BB000000 		.ascii	"\273\000\000\000"
 420 0079 5653594E 		.ascii	"VSYNC_WritePeriod\000"
 420      435F5772 
 420      69746550 
 420      6572696F 
 420      6400
 421 008b 00       		.ascii	"\000"
 422 008c 00       		.ascii	"\000"
 423 008d 00       		.ascii	"\000"
 424 008e 00000000 		.ascii	"\000\000\000\000\000\000\000\000"
 424      00000000 
 425 0096 BD000000 		.ascii	"\275\000\000\000"
 426 009a 5653594E 		.ascii	"VSYNC_WriteCompare\000"
 426      435F5772 
 426      69746543 
 426      6F6D7061 
 426      726500
 427 00ad 00       		.ascii	"\000"
 428 00ae 00       		.ascii	"\000"
 429 00af 00       		.ascii	"\000"
 430 00b0 00000000 		.ascii	"\000\000\000\000\000\000\000\000"
 430      00000000 
 431 00b8 BF000000 		.ascii	"\277\000\000\000"
 432 00bc 5653594E 		.ascii	"VSYNC_Init\000"
 432      435F496E 
 432      697400
 433 00c7 00       		.ascii	"\000"
 434 00c8 00       		.ascii	"\000"
 435 00c9 00       		.ascii	"\000"
 436 00ca 00000000 		.ascii	"\000\000\000\000\000\000\000\000"
 436      00000000 
 437 00d2 C1000000 		.ascii	"\301\000\000\000"
 438 00d6 5653594E 		.ascii	"VSYNC_Start\000"
 438      435F5374 
 438      61727400 
 439 00e2 00       		.ascii	"\000"
 440 00e3 00       		.ascii	"\000"
 441 00e4 00       		.ascii	"\000"
 442 00e5 00000000 		.ascii	"\000\000\000\000\000\000\000\000"
ARM GAS  C:\Users\info\AppData\Local\Temp\cctjqHuZ.s 			page 31


 442      00000000 
 443 00ed C3000000 		.ascii	"\303\000\000\000"
 444 00f1 5653594E 		.ascii	"VSYNC_initVar\000"
 444      435F696E 
 444      69745661 
 444      7200
 445 00ff 00       		.ascii	"\000"
 446 0100 00       		.ascii	"\000"
 447 0101 00       		.ascii	"\000"
 448 0102 00000000 		.ascii	"\000\000\000\000\000\000\000\000"
 448      00000000 
 449 010a D0000000 		.ascii	"\320\000\000\000"
 450 010e 5653594E 		.ascii	"VSYNC_ReadControlRegister\000"
 450      435F5265 
 450      6164436F 
 450      6E74726F 
 450      6C526567 
 451 0128 00       		.ascii	"\000"
 452 0129 00       		.ascii	"\000"
 453 012a 00       		.ascii	"\000"
 454 012b 00000000 		.ascii	"\000\000\000\000\000\000\000\000"
 454      00000000 
 455 0133 C5000000 		.ascii	"\305\000\000\000"
 456 0137 5653594E 		.ascii	"VSYNC_WriteControlRegister\000"
 456      435F5772 
 456      69746543 
 456      6F6E7472 
 456      6F6C5265 
 457 0152 00       		.ascii	"\000"
 458 0153 00       		.ascii	"\000"
 459 0154 00       		.ascii	"\000"
 460 0155 00000000 		.ascii	"\000\000\000\000\000\000\000\000"
 460      00000000 
 461 015d C7000000 		.ascii	"\307\000\000\000"
 462 0161 5653594E 		.ascii	"VSYNC_ReadCapture\000"
 462      435F5265 
 462      61644361 
 462      70747572 
 462      6500
 463 0173 00       		.ascii	"\000"
 464 0174 00       		.ascii	"\000"
 465 0175 00       		.ascii	"\000"
 466 0176 00000000 		.ascii	"\000\000\000\000\000\000\000\000"
 466      00000000 
 467 017e C9000000 		.ascii	"\311\000\000\000"
 468 0182 5653594E 		.ascii	"VSYNC_ReadCompare\000"
 468      435F5265 
 468      6164436F 
 468      6D706172 
 468      6500
 469 0194 00       		.ascii	"\000"
 470 0195 00       		.ascii	"\000"
 471 0196 00       		.ascii	"\000"
 472 0197 00000000 		.ascii	"\000\000\000\000\000\000\000\000"
 472      00000000 
 473 019f CB000000 		.ascii	"\313\000\000\000"
 474 01a3 5653594E 		.ascii	"VSYNC_ReadPeriod\000"
ARM GAS  C:\Users\info\AppData\Local\Temp\cctjqHuZ.s 			page 32


 474      435F5265 
 474      61645065 
 474      72696F64 
 474      00
 475 01b4 00       		.ascii	"\000"
 476 01b5 00       		.ascii	"\000"
 477 01b6 00       		.ascii	"\000"
 478 01b7 00000000 		.ascii	"\000\000\000\000\000\000\000\000"
 478      00000000 
 479 01bf CD000000 		.ascii	"\315\000\000\000"
 480              		.text
 481              		.section	.gnu.lto_.opts,"",%progbits
 482 0000 272D666D 		.ascii	"'-fmath-errno' '-fsigned-zeros' '-ftrapping-math' '"
 482      6174682D 
 482      6572726E 
 482      6F272027 
 482      2D667369 
 483 0033 2D666E6F 		.ascii	"-fno-trapv' '-fno-strict-overflow' '-fno-openmp' '-"
 483      2D747261 
 483      70762720 
 483      272D666E 
 483      6F2D7374 
 484 0066 666E6F2D 		.ascii	"fno-openacc' '-mcpu=cortex-m3' '-mthumb' '-g' '-Og'"
 484      6F70656E 
 484      61636327 
 484      20272D6D 
 484      6370753D 
 485 0099 20272D66 		.ascii	" '-ffunction-sections' '-ffat-lto-objects' '-flto'\000"
 485      66756E63 
 485      74696F6E 
 485      2D736563 
 485      74696F6E 
 486              		.text
 487              		.cfi_sections	.debug_frame
 488              		.section	.text.VSYNC_Enable,"ax",%progbits
 489              		.align	2
 490              		.global	VSYNC_Enable
 491              		.thumb
 492              		.thumb_func
 493              		.type	VSYNC_Enable, %function
 494              	VSYNC_Enable:
 495              	.LFB2:
 496              		.file 1 "Generated_Source\\PSoC5\\VSYNC.c"
   1:Generated_Source\PSoC5/VSYNC.c **** /*******************************************************************************
   2:Generated_Source\PSoC5/VSYNC.c **** * File Name: VSYNC.c
   3:Generated_Source\PSoC5/VSYNC.c **** * Version 3.30
   4:Generated_Source\PSoC5/VSYNC.c **** *
   5:Generated_Source\PSoC5/VSYNC.c **** * Description:
   6:Generated_Source\PSoC5/VSYNC.c **** *  The PWM User Module consist of an 8 or 16-bit counter with two 8 or 16-bit
   7:Generated_Source\PSoC5/VSYNC.c **** *  comparitors. Each instance of this user module is capable of generating
   8:Generated_Source\PSoC5/VSYNC.c **** *  two PWM outputs with the same period. The pulse width is selectable between
   9:Generated_Source\PSoC5/VSYNC.c **** *  1 and 255/65535. The period is selectable between 2 and 255/65536 clocks.
  10:Generated_Source\PSoC5/VSYNC.c **** *  The compare value output may be configured to be active when the present
  11:Generated_Source\PSoC5/VSYNC.c **** *  counter is less than or less than/equal to the compare value.
  12:Generated_Source\PSoC5/VSYNC.c **** *  A terminal count output is also provided. It generates a pulse one clock
  13:Generated_Source\PSoC5/VSYNC.c **** *  width wide when the counter is equal to zero.
  14:Generated_Source\PSoC5/VSYNC.c **** *
ARM GAS  C:\Users\info\AppData\Local\Temp\cctjqHuZ.s 			page 33


  15:Generated_Source\PSoC5/VSYNC.c **** * Note:
  16:Generated_Source\PSoC5/VSYNC.c **** *
  17:Generated_Source\PSoC5/VSYNC.c **** *******************************************************************************
  18:Generated_Source\PSoC5/VSYNC.c **** * Copyright 2008-2014, Cypress Semiconductor Corporation.  All rights reserved.
  19:Generated_Source\PSoC5/VSYNC.c **** * You may use this file only in accordance with the license, terms, conditions,
  20:Generated_Source\PSoC5/VSYNC.c **** * disclaimers, and limitations in the end user license agreement accompanying
  21:Generated_Source\PSoC5/VSYNC.c **** * the software package with which this file was provided.
  22:Generated_Source\PSoC5/VSYNC.c **** ********************************************************************************/
  23:Generated_Source\PSoC5/VSYNC.c **** 
  24:Generated_Source\PSoC5/VSYNC.c **** #include "VSYNC.h"
  25:Generated_Source\PSoC5/VSYNC.c **** 
  26:Generated_Source\PSoC5/VSYNC.c **** /* Error message for removed <resource> through optimization */
  27:Generated_Source\PSoC5/VSYNC.c **** #ifdef VSYNC_PWMUDB_genblk1_ctrlreg__REMOVED
  28:Generated_Source\PSoC5/VSYNC.c ****     #error PWM_v3_30 detected with a constant 0 for the enable or \
  29:Generated_Source\PSoC5/VSYNC.c ****          constant 1 for reset. This will prevent the component from operating.
  30:Generated_Source\PSoC5/VSYNC.c **** #endif /* VSYNC_PWMUDB_genblk1_ctrlreg__REMOVED */
  31:Generated_Source\PSoC5/VSYNC.c **** 
  32:Generated_Source\PSoC5/VSYNC.c **** uint8 VSYNC_initVar = 0u;
  33:Generated_Source\PSoC5/VSYNC.c **** 
  34:Generated_Source\PSoC5/VSYNC.c **** 
  35:Generated_Source\PSoC5/VSYNC.c **** /*******************************************************************************
  36:Generated_Source\PSoC5/VSYNC.c **** * Function Name: VSYNC_Start
  37:Generated_Source\PSoC5/VSYNC.c **** ********************************************************************************
  38:Generated_Source\PSoC5/VSYNC.c **** *
  39:Generated_Source\PSoC5/VSYNC.c **** * Summary:
  40:Generated_Source\PSoC5/VSYNC.c **** *  The start function initializes the pwm with the default values, the
  41:Generated_Source\PSoC5/VSYNC.c **** *  enables the counter to begin counting.  It does not enable interrupts,
  42:Generated_Source\PSoC5/VSYNC.c **** *  the EnableInt command should be called if interrupt generation is required.
  43:Generated_Source\PSoC5/VSYNC.c **** *
  44:Generated_Source\PSoC5/VSYNC.c **** * Parameters:
  45:Generated_Source\PSoC5/VSYNC.c **** *  None
  46:Generated_Source\PSoC5/VSYNC.c **** *
  47:Generated_Source\PSoC5/VSYNC.c **** * Return:
  48:Generated_Source\PSoC5/VSYNC.c **** *  None
  49:Generated_Source\PSoC5/VSYNC.c **** *
  50:Generated_Source\PSoC5/VSYNC.c **** * Global variables:
  51:Generated_Source\PSoC5/VSYNC.c **** *  VSYNC_initVar: Is modified when this function is called for the
  52:Generated_Source\PSoC5/VSYNC.c **** *   first time. Is used to ensure that initialization happens only once.
  53:Generated_Source\PSoC5/VSYNC.c **** *
  54:Generated_Source\PSoC5/VSYNC.c **** *******************************************************************************/
  55:Generated_Source\PSoC5/VSYNC.c **** void VSYNC_Start(void) 
  56:Generated_Source\PSoC5/VSYNC.c **** {
  57:Generated_Source\PSoC5/VSYNC.c ****     /* If not Initialized then initialize all required hardware and software */
  58:Generated_Source\PSoC5/VSYNC.c ****     if(VSYNC_initVar == 0u)
  59:Generated_Source\PSoC5/VSYNC.c ****     {
  60:Generated_Source\PSoC5/VSYNC.c ****         VSYNC_Init();
  61:Generated_Source\PSoC5/VSYNC.c ****         VSYNC_initVar = 1u;
  62:Generated_Source\PSoC5/VSYNC.c ****     }
  63:Generated_Source\PSoC5/VSYNC.c ****     VSYNC_Enable();
  64:Generated_Source\PSoC5/VSYNC.c **** 
  65:Generated_Source\PSoC5/VSYNC.c **** }
  66:Generated_Source\PSoC5/VSYNC.c **** 
  67:Generated_Source\PSoC5/VSYNC.c **** 
  68:Generated_Source\PSoC5/VSYNC.c **** /*******************************************************************************
  69:Generated_Source\PSoC5/VSYNC.c **** * Function Name: VSYNC_Init
  70:Generated_Source\PSoC5/VSYNC.c **** ********************************************************************************
  71:Generated_Source\PSoC5/VSYNC.c **** *
ARM GAS  C:\Users\info\AppData\Local\Temp\cctjqHuZ.s 			page 34


  72:Generated_Source\PSoC5/VSYNC.c **** * Summary:
  73:Generated_Source\PSoC5/VSYNC.c **** *  Initialize component's parameters to the parameters set by user in the
  74:Generated_Source\PSoC5/VSYNC.c **** *  customizer of the component placed onto schematic. Usually called in
  75:Generated_Source\PSoC5/VSYNC.c **** *  VSYNC_Start().
  76:Generated_Source\PSoC5/VSYNC.c **** *
  77:Generated_Source\PSoC5/VSYNC.c **** * Parameters:
  78:Generated_Source\PSoC5/VSYNC.c **** *  None
  79:Generated_Source\PSoC5/VSYNC.c **** *
  80:Generated_Source\PSoC5/VSYNC.c **** * Return:
  81:Generated_Source\PSoC5/VSYNC.c **** *  None
  82:Generated_Source\PSoC5/VSYNC.c **** *
  83:Generated_Source\PSoC5/VSYNC.c **** *******************************************************************************/
  84:Generated_Source\PSoC5/VSYNC.c **** void VSYNC_Init(void) 
  85:Generated_Source\PSoC5/VSYNC.c **** {
  86:Generated_Source\PSoC5/VSYNC.c ****     #if (VSYNC_UsingFixedFunction || VSYNC_UseControl)
  87:Generated_Source\PSoC5/VSYNC.c ****         uint8 ctrl;
  88:Generated_Source\PSoC5/VSYNC.c ****     #endif /* (VSYNC_UsingFixedFunction || VSYNC_UseControl) */
  89:Generated_Source\PSoC5/VSYNC.c **** 
  90:Generated_Source\PSoC5/VSYNC.c ****     #if(!VSYNC_UsingFixedFunction)
  91:Generated_Source\PSoC5/VSYNC.c ****         #if(VSYNC_UseStatus)
  92:Generated_Source\PSoC5/VSYNC.c ****             /* Interrupt State Backup for Critical Region*/
  93:Generated_Source\PSoC5/VSYNC.c ****             uint8 VSYNC_interruptState;
  94:Generated_Source\PSoC5/VSYNC.c ****         #endif /* (VSYNC_UseStatus) */
  95:Generated_Source\PSoC5/VSYNC.c ****     #endif /* (!VSYNC_UsingFixedFunction) */
  96:Generated_Source\PSoC5/VSYNC.c **** 
  97:Generated_Source\PSoC5/VSYNC.c ****     #if (VSYNC_UsingFixedFunction)
  98:Generated_Source\PSoC5/VSYNC.c ****         /* You are allowed to write the compare value (FF only) */
  99:Generated_Source\PSoC5/VSYNC.c ****         VSYNC_CONTROL |= VSYNC_CFG0_MODE;
 100:Generated_Source\PSoC5/VSYNC.c ****         #if (VSYNC_DeadBand2_4)
 101:Generated_Source\PSoC5/VSYNC.c ****             VSYNC_CONTROL |= VSYNC_CFG0_DB;
 102:Generated_Source\PSoC5/VSYNC.c ****         #endif /* (VSYNC_DeadBand2_4) */
 103:Generated_Source\PSoC5/VSYNC.c **** 
 104:Generated_Source\PSoC5/VSYNC.c ****         ctrl = VSYNC_CONTROL3 & ((uint8 )(~VSYNC_CTRL_CMPMODE1_MASK));
 105:Generated_Source\PSoC5/VSYNC.c ****         VSYNC_CONTROL3 = ctrl | VSYNC_DEFAULT_COMPARE1_MODE;
 106:Generated_Source\PSoC5/VSYNC.c **** 
 107:Generated_Source\PSoC5/VSYNC.c ****          /* Clear and Set SYNCTC and SYNCCMP bits of RT1 register */
 108:Generated_Source\PSoC5/VSYNC.c ****         VSYNC_RT1 &= ((uint8)(~VSYNC_RT1_MASK));
 109:Generated_Source\PSoC5/VSYNC.c ****         VSYNC_RT1 |= VSYNC_SYNC;
 110:Generated_Source\PSoC5/VSYNC.c **** 
 111:Generated_Source\PSoC5/VSYNC.c ****         /*Enable DSI Sync all all inputs of the PWM*/
 112:Generated_Source\PSoC5/VSYNC.c ****         VSYNC_RT1 &= ((uint8)(~VSYNC_SYNCDSI_MASK));
 113:Generated_Source\PSoC5/VSYNC.c ****         VSYNC_RT1 |= VSYNC_SYNCDSI_EN;
 114:Generated_Source\PSoC5/VSYNC.c **** 
 115:Generated_Source\PSoC5/VSYNC.c ****     #elif (VSYNC_UseControl)
 116:Generated_Source\PSoC5/VSYNC.c ****         /* Set the default compare mode defined in the parameter */
 117:Generated_Source\PSoC5/VSYNC.c ****         ctrl = VSYNC_CONTROL & ((uint8)(~VSYNC_CTRL_CMPMODE2_MASK)) &
 118:Generated_Source\PSoC5/VSYNC.c ****                 ((uint8)(~VSYNC_CTRL_CMPMODE1_MASK));
 119:Generated_Source\PSoC5/VSYNC.c ****         VSYNC_CONTROL = ctrl | VSYNC_DEFAULT_COMPARE2_MODE |
 120:Generated_Source\PSoC5/VSYNC.c ****                                    VSYNC_DEFAULT_COMPARE1_MODE;
 121:Generated_Source\PSoC5/VSYNC.c ****     #endif /* (VSYNC_UsingFixedFunction) */
 122:Generated_Source\PSoC5/VSYNC.c **** 
 123:Generated_Source\PSoC5/VSYNC.c ****     #if (!VSYNC_UsingFixedFunction)
 124:Generated_Source\PSoC5/VSYNC.c ****         #if (VSYNC_Resolution == 8)
 125:Generated_Source\PSoC5/VSYNC.c ****             /* Set FIFO 0 to 1 byte register for period*/
 126:Generated_Source\PSoC5/VSYNC.c ****             VSYNC_AUX_CONTROLDP0 |= (VSYNC_AUX_CTRL_FIFO0_CLR);
 127:Generated_Source\PSoC5/VSYNC.c ****         #else /* (VSYNC_Resolution == 16)*/
 128:Generated_Source\PSoC5/VSYNC.c ****             /* Set FIFO 0 to 1 byte register for period */
ARM GAS  C:\Users\info\AppData\Local\Temp\cctjqHuZ.s 			page 35


 129:Generated_Source\PSoC5/VSYNC.c ****             VSYNC_AUX_CONTROLDP0 |= (VSYNC_AUX_CTRL_FIFO0_CLR);
 130:Generated_Source\PSoC5/VSYNC.c ****             VSYNC_AUX_CONTROLDP1 |= (VSYNC_AUX_CTRL_FIFO0_CLR);
 131:Generated_Source\PSoC5/VSYNC.c ****         #endif /* (VSYNC_Resolution == 8) */
 132:Generated_Source\PSoC5/VSYNC.c **** 
 133:Generated_Source\PSoC5/VSYNC.c ****         VSYNC_WriteCounter(VSYNC_INIT_PERIOD_VALUE);
 134:Generated_Source\PSoC5/VSYNC.c ****     #endif /* (!VSYNC_UsingFixedFunction) */
 135:Generated_Source\PSoC5/VSYNC.c **** 
 136:Generated_Source\PSoC5/VSYNC.c ****     VSYNC_WritePeriod(VSYNC_INIT_PERIOD_VALUE);
 137:Generated_Source\PSoC5/VSYNC.c **** 
 138:Generated_Source\PSoC5/VSYNC.c ****         #if (VSYNC_UseOneCompareMode)
 139:Generated_Source\PSoC5/VSYNC.c ****             VSYNC_WriteCompare(VSYNC_INIT_COMPARE_VALUE1);
 140:Generated_Source\PSoC5/VSYNC.c ****         #else
 141:Generated_Source\PSoC5/VSYNC.c ****             VSYNC_WriteCompare1(VSYNC_INIT_COMPARE_VALUE1);
 142:Generated_Source\PSoC5/VSYNC.c ****             VSYNC_WriteCompare2(VSYNC_INIT_COMPARE_VALUE2);
 143:Generated_Source\PSoC5/VSYNC.c ****         #endif /* (VSYNC_UseOneCompareMode) */
 144:Generated_Source\PSoC5/VSYNC.c **** 
 145:Generated_Source\PSoC5/VSYNC.c ****         #if (VSYNC_KillModeMinTime)
 146:Generated_Source\PSoC5/VSYNC.c ****             VSYNC_WriteKillTime(VSYNC_MinimumKillTime);
 147:Generated_Source\PSoC5/VSYNC.c ****         #endif /* (VSYNC_KillModeMinTime) */
 148:Generated_Source\PSoC5/VSYNC.c **** 
 149:Generated_Source\PSoC5/VSYNC.c ****         #if (VSYNC_DeadBandUsed)
 150:Generated_Source\PSoC5/VSYNC.c ****             VSYNC_WriteDeadTime(VSYNC_INIT_DEAD_TIME);
 151:Generated_Source\PSoC5/VSYNC.c ****         #endif /* (VSYNC_DeadBandUsed) */
 152:Generated_Source\PSoC5/VSYNC.c **** 
 153:Generated_Source\PSoC5/VSYNC.c ****     #if (VSYNC_UseStatus || VSYNC_UsingFixedFunction)
 154:Generated_Source\PSoC5/VSYNC.c ****         VSYNC_SetInterruptMode(VSYNC_INIT_INTERRUPTS_MODE);
 155:Generated_Source\PSoC5/VSYNC.c ****     #endif /* (VSYNC_UseStatus || VSYNC_UsingFixedFunction) */
 156:Generated_Source\PSoC5/VSYNC.c **** 
 157:Generated_Source\PSoC5/VSYNC.c ****     #if (VSYNC_UsingFixedFunction)
 158:Generated_Source\PSoC5/VSYNC.c ****         /* Globally Enable the Fixed Function Block chosen */
 159:Generated_Source\PSoC5/VSYNC.c ****         VSYNC_GLOBAL_ENABLE |= VSYNC_BLOCK_EN_MASK;
 160:Generated_Source\PSoC5/VSYNC.c ****         /* Set the Interrupt source to come from the status register */
 161:Generated_Source\PSoC5/VSYNC.c ****         VSYNC_CONTROL2 |= VSYNC_CTRL2_IRQ_SEL;
 162:Generated_Source\PSoC5/VSYNC.c ****     #else
 163:Generated_Source\PSoC5/VSYNC.c ****         #if(VSYNC_UseStatus)
 164:Generated_Source\PSoC5/VSYNC.c **** 
 165:Generated_Source\PSoC5/VSYNC.c ****             /* CyEnterCriticalRegion and CyExitCriticalRegion are used to mark following region cri
 166:Generated_Source\PSoC5/VSYNC.c ****             /* Enter Critical Region*/
 167:Generated_Source\PSoC5/VSYNC.c ****             VSYNC_interruptState = CyEnterCriticalSection();
 168:Generated_Source\PSoC5/VSYNC.c ****             /* Use the interrupt output of the status register for IRQ output */
 169:Generated_Source\PSoC5/VSYNC.c ****             VSYNC_STATUS_AUX_CTRL |= VSYNC_STATUS_ACTL_INT_EN_MASK;
 170:Generated_Source\PSoC5/VSYNC.c **** 
 171:Generated_Source\PSoC5/VSYNC.c ****              /* Exit Critical Region*/
 172:Generated_Source\PSoC5/VSYNC.c ****             CyExitCriticalSection(VSYNC_interruptState);
 173:Generated_Source\PSoC5/VSYNC.c **** 
 174:Generated_Source\PSoC5/VSYNC.c ****             /* Clear the FIFO to enable the VSYNC_STATUS_FIFOFULL
 175:Generated_Source\PSoC5/VSYNC.c ****                    bit to be set on FIFO full. */
 176:Generated_Source\PSoC5/VSYNC.c ****             VSYNC_ClearFIFO();
 177:Generated_Source\PSoC5/VSYNC.c ****         #endif /* (VSYNC_UseStatus) */
 178:Generated_Source\PSoC5/VSYNC.c ****     #endif /* (VSYNC_UsingFixedFunction) */
 179:Generated_Source\PSoC5/VSYNC.c **** }
 180:Generated_Source\PSoC5/VSYNC.c **** 
 181:Generated_Source\PSoC5/VSYNC.c **** 
 182:Generated_Source\PSoC5/VSYNC.c **** /*******************************************************************************
 183:Generated_Source\PSoC5/VSYNC.c **** * Function Name: VSYNC_Enable
 184:Generated_Source\PSoC5/VSYNC.c **** ********************************************************************************
 185:Generated_Source\PSoC5/VSYNC.c **** *
ARM GAS  C:\Users\info\AppData\Local\Temp\cctjqHuZ.s 			page 36


 186:Generated_Source\PSoC5/VSYNC.c **** * Summary:
 187:Generated_Source\PSoC5/VSYNC.c **** *  Enables the PWM block operation
 188:Generated_Source\PSoC5/VSYNC.c **** *
 189:Generated_Source\PSoC5/VSYNC.c **** * Parameters:
 190:Generated_Source\PSoC5/VSYNC.c **** *  None
 191:Generated_Source\PSoC5/VSYNC.c **** *
 192:Generated_Source\PSoC5/VSYNC.c **** * Return:
 193:Generated_Source\PSoC5/VSYNC.c **** *  None
 194:Generated_Source\PSoC5/VSYNC.c **** *
 195:Generated_Source\PSoC5/VSYNC.c **** * Side Effects:
 196:Generated_Source\PSoC5/VSYNC.c **** *  This works only if software enable mode is chosen
 197:Generated_Source\PSoC5/VSYNC.c **** *
 198:Generated_Source\PSoC5/VSYNC.c **** *******************************************************************************/
 199:Generated_Source\PSoC5/VSYNC.c **** void VSYNC_Enable(void) 
 200:Generated_Source\PSoC5/VSYNC.c **** {
 497              		.loc 1 200 0
 498              		.cfi_startproc
 499              		@ args = 0, pretend = 0, frame = 0
 500              		@ frame_needed = 0, uses_anonymous_args = 0
 501              		@ link register save eliminated.
 201:Generated_Source\PSoC5/VSYNC.c ****     /* Globally Enable the Fixed Function Block chosen */
 202:Generated_Source\PSoC5/VSYNC.c ****     #if (VSYNC_UsingFixedFunction)
 203:Generated_Source\PSoC5/VSYNC.c ****         VSYNC_GLOBAL_ENABLE |= VSYNC_BLOCK_EN_MASK;
 204:Generated_Source\PSoC5/VSYNC.c ****         VSYNC_GLOBAL_STBY_ENABLE |= VSYNC_BLOCK_STBY_EN_MASK;
 205:Generated_Source\PSoC5/VSYNC.c ****     #endif /* (VSYNC_UsingFixedFunction) */
 206:Generated_Source\PSoC5/VSYNC.c **** 
 207:Generated_Source\PSoC5/VSYNC.c ****     /* Enable the PWM from the control register  */
 208:Generated_Source\PSoC5/VSYNC.c ****     #if (VSYNC_UseControl || VSYNC_UsingFixedFunction)
 209:Generated_Source\PSoC5/VSYNC.c ****         VSYNC_CONTROL |= VSYNC_CTRL_ENABLE;
 502              		.loc 1 209 0
 503 0000 024A     		ldr	r2, .L2
 504 0002 1378     		ldrb	r3, [r2]	@ zero_extendqisi2
 505 0004 43F08003 		orr	r3, r3, #128
 506 0008 1370     		strb	r3, [r2]
 507 000a 7047     		bx	lr
 508              	.L3:
 509              		.align	2
 510              	.L2:
 511 000c 7A640040 		.word	1073767546
 512              		.cfi_endproc
 513              	.LFE2:
 514              		.size	VSYNC_Enable, .-VSYNC_Enable
 515              		.section	.text.VSYNC_Stop,"ax",%progbits
 516              		.align	2
 517              		.global	VSYNC_Stop
 518              		.thumb
 519              		.thumb_func
 520              		.type	VSYNC_Stop, %function
 521              	VSYNC_Stop:
 522              	.LFB3:
 210:Generated_Source\PSoC5/VSYNC.c ****     #endif /* (VSYNC_UseControl || VSYNC_UsingFixedFunction) */
 211:Generated_Source\PSoC5/VSYNC.c **** }
 212:Generated_Source\PSoC5/VSYNC.c **** 
 213:Generated_Source\PSoC5/VSYNC.c **** 
 214:Generated_Source\PSoC5/VSYNC.c **** /*******************************************************************************
 215:Generated_Source\PSoC5/VSYNC.c **** * Function Name: VSYNC_Stop
 216:Generated_Source\PSoC5/VSYNC.c **** ********************************************************************************
ARM GAS  C:\Users\info\AppData\Local\Temp\cctjqHuZ.s 			page 37


 217:Generated_Source\PSoC5/VSYNC.c **** *
 218:Generated_Source\PSoC5/VSYNC.c **** * Summary:
 219:Generated_Source\PSoC5/VSYNC.c **** *  The stop function halts the PWM, but does not change any modes or disable
 220:Generated_Source\PSoC5/VSYNC.c **** *  interrupts.
 221:Generated_Source\PSoC5/VSYNC.c **** *
 222:Generated_Source\PSoC5/VSYNC.c **** * Parameters:
 223:Generated_Source\PSoC5/VSYNC.c **** *  None
 224:Generated_Source\PSoC5/VSYNC.c **** *
 225:Generated_Source\PSoC5/VSYNC.c **** * Return:
 226:Generated_Source\PSoC5/VSYNC.c **** *  None
 227:Generated_Source\PSoC5/VSYNC.c **** *
 228:Generated_Source\PSoC5/VSYNC.c **** * Side Effects:
 229:Generated_Source\PSoC5/VSYNC.c **** *  If the Enable mode is set to Hardware only then this function
 230:Generated_Source\PSoC5/VSYNC.c **** *  has no effect on the operation of the PWM
 231:Generated_Source\PSoC5/VSYNC.c **** *
 232:Generated_Source\PSoC5/VSYNC.c **** *******************************************************************************/
 233:Generated_Source\PSoC5/VSYNC.c **** void VSYNC_Stop(void) 
 234:Generated_Source\PSoC5/VSYNC.c **** {
 523              		.loc 1 234 0
 524              		.cfi_startproc
 525              		@ args = 0, pretend = 0, frame = 0
 526              		@ frame_needed = 0, uses_anonymous_args = 0
 527              		@ link register save eliminated.
 235:Generated_Source\PSoC5/VSYNC.c ****     #if (VSYNC_UseControl || VSYNC_UsingFixedFunction)
 236:Generated_Source\PSoC5/VSYNC.c ****         VSYNC_CONTROL &= ((uint8)(~VSYNC_CTRL_ENABLE));
 528              		.loc 1 236 0
 529 0000 024A     		ldr	r2, .L5
 530 0002 1378     		ldrb	r3, [r2]	@ zero_extendqisi2
 531 0004 03F07F03 		and	r3, r3, #127
 532 0008 1370     		strb	r3, [r2]
 533 000a 7047     		bx	lr
 534              	.L6:
 535              		.align	2
 536              	.L5:
 537 000c 7A640040 		.word	1073767546
 538              		.cfi_endproc
 539              	.LFE3:
 540              		.size	VSYNC_Stop, .-VSYNC_Stop
 541              		.section	.text.VSYNC_WriteCounter,"ax",%progbits
 542              		.align	2
 543              		.global	VSYNC_WriteCounter
 544              		.thumb
 545              		.thumb_func
 546              		.type	VSYNC_WriteCounter, %function
 547              	VSYNC_WriteCounter:
 548              	.LFB4:
 237:Generated_Source\PSoC5/VSYNC.c ****     #endif /* (VSYNC_UseControl || VSYNC_UsingFixedFunction) */
 238:Generated_Source\PSoC5/VSYNC.c **** 
 239:Generated_Source\PSoC5/VSYNC.c ****     /* Globally disable the Fixed Function Block chosen */
 240:Generated_Source\PSoC5/VSYNC.c ****     #if (VSYNC_UsingFixedFunction)
 241:Generated_Source\PSoC5/VSYNC.c ****         VSYNC_GLOBAL_ENABLE &= ((uint8)(~VSYNC_BLOCK_EN_MASK));
 242:Generated_Source\PSoC5/VSYNC.c ****         VSYNC_GLOBAL_STBY_ENABLE &= ((uint8)(~VSYNC_BLOCK_STBY_EN_MASK));
 243:Generated_Source\PSoC5/VSYNC.c ****     #endif /* (VSYNC_UsingFixedFunction) */
 244:Generated_Source\PSoC5/VSYNC.c **** }
 245:Generated_Source\PSoC5/VSYNC.c **** 
 246:Generated_Source\PSoC5/VSYNC.c **** #if (VSYNC_UseOneCompareMode)
 247:Generated_Source\PSoC5/VSYNC.c ****     #if (VSYNC_CompareMode1SW)
ARM GAS  C:\Users\info\AppData\Local\Temp\cctjqHuZ.s 			page 38


 248:Generated_Source\PSoC5/VSYNC.c **** 
 249:Generated_Source\PSoC5/VSYNC.c **** 
 250:Generated_Source\PSoC5/VSYNC.c ****         /*******************************************************************************
 251:Generated_Source\PSoC5/VSYNC.c ****         * Function Name: VSYNC_SetCompareMode
 252:Generated_Source\PSoC5/VSYNC.c ****         ********************************************************************************
 253:Generated_Source\PSoC5/VSYNC.c ****         *
 254:Generated_Source\PSoC5/VSYNC.c ****         * Summary:
 255:Generated_Source\PSoC5/VSYNC.c ****         *  This function writes the Compare Mode for the pwm output when in Dither mode,
 256:Generated_Source\PSoC5/VSYNC.c ****         *  Center Align Mode or One Output Mode.
 257:Generated_Source\PSoC5/VSYNC.c ****         *
 258:Generated_Source\PSoC5/VSYNC.c ****         * Parameters:
 259:Generated_Source\PSoC5/VSYNC.c ****         *  comparemode:  The new compare mode for the PWM output. Use the compare types
 260:Generated_Source\PSoC5/VSYNC.c ****         *                defined in the H file as input arguments.
 261:Generated_Source\PSoC5/VSYNC.c ****         *
 262:Generated_Source\PSoC5/VSYNC.c ****         * Return:
 263:Generated_Source\PSoC5/VSYNC.c ****         *  None
 264:Generated_Source\PSoC5/VSYNC.c ****         *
 265:Generated_Source\PSoC5/VSYNC.c ****         *******************************************************************************/
 266:Generated_Source\PSoC5/VSYNC.c ****         void VSYNC_SetCompareMode(uint8 comparemode) 
 267:Generated_Source\PSoC5/VSYNC.c ****         {
 268:Generated_Source\PSoC5/VSYNC.c ****             #if(VSYNC_UsingFixedFunction)
 269:Generated_Source\PSoC5/VSYNC.c **** 
 270:Generated_Source\PSoC5/VSYNC.c ****                 #if(0 != VSYNC_CTRL_CMPMODE1_SHIFT)
 271:Generated_Source\PSoC5/VSYNC.c ****                     uint8 comparemodemasked = ((uint8)((uint8)comparemode << VSYNC_CTRL_CMPMODE1_SH
 272:Generated_Source\PSoC5/VSYNC.c ****                 #else
 273:Generated_Source\PSoC5/VSYNC.c ****                     uint8 comparemodemasked = comparemode;
 274:Generated_Source\PSoC5/VSYNC.c ****                 #endif /* (0 != VSYNC_CTRL_CMPMODE1_SHIFT) */
 275:Generated_Source\PSoC5/VSYNC.c **** 
 276:Generated_Source\PSoC5/VSYNC.c ****                 VSYNC_CONTROL3 &= ((uint8)(~VSYNC_CTRL_CMPMODE1_MASK)); /*Clear Existing Data */
 277:Generated_Source\PSoC5/VSYNC.c ****                 VSYNC_CONTROL3 |= comparemodemasked;
 278:Generated_Source\PSoC5/VSYNC.c **** 
 279:Generated_Source\PSoC5/VSYNC.c ****             #elif (VSYNC_UseControl)
 280:Generated_Source\PSoC5/VSYNC.c **** 
 281:Generated_Source\PSoC5/VSYNC.c ****                 #if(0 != VSYNC_CTRL_CMPMODE1_SHIFT)
 282:Generated_Source\PSoC5/VSYNC.c ****                     uint8 comparemode1masked = ((uint8)((uint8)comparemode << VSYNC_CTRL_CMPMODE1_S
 283:Generated_Source\PSoC5/VSYNC.c ****                                                 VSYNC_CTRL_CMPMODE1_MASK;
 284:Generated_Source\PSoC5/VSYNC.c ****                 #else
 285:Generated_Source\PSoC5/VSYNC.c ****                     uint8 comparemode1masked = comparemode & VSYNC_CTRL_CMPMODE1_MASK;
 286:Generated_Source\PSoC5/VSYNC.c ****                 #endif /* (0 != VSYNC_CTRL_CMPMODE1_SHIFT) */
 287:Generated_Source\PSoC5/VSYNC.c **** 
 288:Generated_Source\PSoC5/VSYNC.c ****                 #if(0 != VSYNC_CTRL_CMPMODE2_SHIFT)
 289:Generated_Source\PSoC5/VSYNC.c ****                     uint8 comparemode2masked = ((uint8)((uint8)comparemode << VSYNC_CTRL_CMPMODE2_S
 290:Generated_Source\PSoC5/VSYNC.c ****                                                VSYNC_CTRL_CMPMODE2_MASK;
 291:Generated_Source\PSoC5/VSYNC.c ****                 #else
 292:Generated_Source\PSoC5/VSYNC.c ****                     uint8 comparemode2masked = comparemode & VSYNC_CTRL_CMPMODE2_MASK;
 293:Generated_Source\PSoC5/VSYNC.c ****                 #endif /* (0 != VSYNC_CTRL_CMPMODE2_SHIFT) */
 294:Generated_Source\PSoC5/VSYNC.c **** 
 295:Generated_Source\PSoC5/VSYNC.c ****                 /*Clear existing mode */
 296:Generated_Source\PSoC5/VSYNC.c ****                 VSYNC_CONTROL &= ((uint8)(~(VSYNC_CTRL_CMPMODE1_MASK |
 297:Generated_Source\PSoC5/VSYNC.c ****                                             VSYNC_CTRL_CMPMODE2_MASK)));
 298:Generated_Source\PSoC5/VSYNC.c ****                 VSYNC_CONTROL |= (comparemode1masked | comparemode2masked);
 299:Generated_Source\PSoC5/VSYNC.c **** 
 300:Generated_Source\PSoC5/VSYNC.c ****             #else
 301:Generated_Source\PSoC5/VSYNC.c ****                 uint8 temp = comparemode;
 302:Generated_Source\PSoC5/VSYNC.c ****             #endif /* (VSYNC_UsingFixedFunction) */
 303:Generated_Source\PSoC5/VSYNC.c ****         }
 304:Generated_Source\PSoC5/VSYNC.c ****     #endif /* VSYNC_CompareMode1SW */
ARM GAS  C:\Users\info\AppData\Local\Temp\cctjqHuZ.s 			page 39


 305:Generated_Source\PSoC5/VSYNC.c **** 
 306:Generated_Source\PSoC5/VSYNC.c **** #else /* UseOneCompareMode */
 307:Generated_Source\PSoC5/VSYNC.c **** 
 308:Generated_Source\PSoC5/VSYNC.c ****     #if (VSYNC_CompareMode1SW)
 309:Generated_Source\PSoC5/VSYNC.c **** 
 310:Generated_Source\PSoC5/VSYNC.c **** 
 311:Generated_Source\PSoC5/VSYNC.c ****         /*******************************************************************************
 312:Generated_Source\PSoC5/VSYNC.c ****         * Function Name: VSYNC_SetCompareMode1
 313:Generated_Source\PSoC5/VSYNC.c ****         ********************************************************************************
 314:Generated_Source\PSoC5/VSYNC.c ****         *
 315:Generated_Source\PSoC5/VSYNC.c ****         * Summary:
 316:Generated_Source\PSoC5/VSYNC.c ****         *  This function writes the Compare Mode for the pwm or pwm1 output
 317:Generated_Source\PSoC5/VSYNC.c ****         *
 318:Generated_Source\PSoC5/VSYNC.c ****         * Parameters:
 319:Generated_Source\PSoC5/VSYNC.c ****         *  comparemode:  The new compare mode for the PWM output. Use the compare types
 320:Generated_Source\PSoC5/VSYNC.c ****         *                defined in the H file as input arguments.
 321:Generated_Source\PSoC5/VSYNC.c ****         *
 322:Generated_Source\PSoC5/VSYNC.c ****         * Return:
 323:Generated_Source\PSoC5/VSYNC.c ****         *  None
 324:Generated_Source\PSoC5/VSYNC.c ****         *
 325:Generated_Source\PSoC5/VSYNC.c ****         *******************************************************************************/
 326:Generated_Source\PSoC5/VSYNC.c ****         void VSYNC_SetCompareMode1(uint8 comparemode) 
 327:Generated_Source\PSoC5/VSYNC.c ****         {
 328:Generated_Source\PSoC5/VSYNC.c ****             #if(0 != VSYNC_CTRL_CMPMODE1_SHIFT)
 329:Generated_Source\PSoC5/VSYNC.c ****                 uint8 comparemodemasked = ((uint8)((uint8)comparemode << VSYNC_CTRL_CMPMODE1_SHIFT)
 330:Generated_Source\PSoC5/VSYNC.c ****                                            VSYNC_CTRL_CMPMODE1_MASK;
 331:Generated_Source\PSoC5/VSYNC.c ****             #else
 332:Generated_Source\PSoC5/VSYNC.c ****                 uint8 comparemodemasked = comparemode & VSYNC_CTRL_CMPMODE1_MASK;
 333:Generated_Source\PSoC5/VSYNC.c ****             #endif /* (0 != VSYNC_CTRL_CMPMODE1_SHIFT) */
 334:Generated_Source\PSoC5/VSYNC.c **** 
 335:Generated_Source\PSoC5/VSYNC.c ****             #if (VSYNC_UseControl)
 336:Generated_Source\PSoC5/VSYNC.c ****                 VSYNC_CONTROL &= ((uint8)(~VSYNC_CTRL_CMPMODE1_MASK)); /*Clear existing mode */
 337:Generated_Source\PSoC5/VSYNC.c ****                 VSYNC_CONTROL |= comparemodemasked;
 338:Generated_Source\PSoC5/VSYNC.c ****             #endif /* (VSYNC_UseControl) */
 339:Generated_Source\PSoC5/VSYNC.c ****         }
 340:Generated_Source\PSoC5/VSYNC.c ****     #endif /* VSYNC_CompareMode1SW */
 341:Generated_Source\PSoC5/VSYNC.c **** 
 342:Generated_Source\PSoC5/VSYNC.c **** #if (VSYNC_CompareMode2SW)
 343:Generated_Source\PSoC5/VSYNC.c **** 
 344:Generated_Source\PSoC5/VSYNC.c **** 
 345:Generated_Source\PSoC5/VSYNC.c ****     /*******************************************************************************
 346:Generated_Source\PSoC5/VSYNC.c ****     * Function Name: VSYNC_SetCompareMode2
 347:Generated_Source\PSoC5/VSYNC.c ****     ********************************************************************************
 348:Generated_Source\PSoC5/VSYNC.c ****     *
 349:Generated_Source\PSoC5/VSYNC.c ****     * Summary:
 350:Generated_Source\PSoC5/VSYNC.c ****     *  This function writes the Compare Mode for the pwm or pwm2 output
 351:Generated_Source\PSoC5/VSYNC.c ****     *
 352:Generated_Source\PSoC5/VSYNC.c ****     * Parameters:
 353:Generated_Source\PSoC5/VSYNC.c ****     *  comparemode:  The new compare mode for the PWM output. Use the compare types
 354:Generated_Source\PSoC5/VSYNC.c ****     *                defined in the H file as input arguments.
 355:Generated_Source\PSoC5/VSYNC.c ****     *
 356:Generated_Source\PSoC5/VSYNC.c ****     * Return:
 357:Generated_Source\PSoC5/VSYNC.c ****     *  None
 358:Generated_Source\PSoC5/VSYNC.c ****     *
 359:Generated_Source\PSoC5/VSYNC.c ****     *******************************************************************************/
 360:Generated_Source\PSoC5/VSYNC.c ****     void VSYNC_SetCompareMode2(uint8 comparemode) 
 361:Generated_Source\PSoC5/VSYNC.c ****     {
ARM GAS  C:\Users\info\AppData\Local\Temp\cctjqHuZ.s 			page 40


 362:Generated_Source\PSoC5/VSYNC.c **** 
 363:Generated_Source\PSoC5/VSYNC.c ****         #if(0 != VSYNC_CTRL_CMPMODE2_SHIFT)
 364:Generated_Source\PSoC5/VSYNC.c ****             uint8 comparemodemasked = ((uint8)((uint8)comparemode << VSYNC_CTRL_CMPMODE2_SHIFT)) &
 365:Generated_Source\PSoC5/VSYNC.c ****                                                  VSYNC_CTRL_CMPMODE2_MASK;
 366:Generated_Source\PSoC5/VSYNC.c ****         #else
 367:Generated_Source\PSoC5/VSYNC.c ****             uint8 comparemodemasked = comparemode & VSYNC_CTRL_CMPMODE2_MASK;
 368:Generated_Source\PSoC5/VSYNC.c ****         #endif /* (0 != VSYNC_CTRL_CMPMODE2_SHIFT) */
 369:Generated_Source\PSoC5/VSYNC.c **** 
 370:Generated_Source\PSoC5/VSYNC.c ****         #if (VSYNC_UseControl)
 371:Generated_Source\PSoC5/VSYNC.c ****             VSYNC_CONTROL &= ((uint8)(~VSYNC_CTRL_CMPMODE2_MASK)); /*Clear existing mode */
 372:Generated_Source\PSoC5/VSYNC.c ****             VSYNC_CONTROL |= comparemodemasked;
 373:Generated_Source\PSoC5/VSYNC.c ****         #endif /* (VSYNC_UseControl) */
 374:Generated_Source\PSoC5/VSYNC.c ****     }
 375:Generated_Source\PSoC5/VSYNC.c ****     #endif /*VSYNC_CompareMode2SW */
 376:Generated_Source\PSoC5/VSYNC.c **** 
 377:Generated_Source\PSoC5/VSYNC.c **** #endif /* UseOneCompareMode */
 378:Generated_Source\PSoC5/VSYNC.c **** 
 379:Generated_Source\PSoC5/VSYNC.c **** 
 380:Generated_Source\PSoC5/VSYNC.c **** #if (!VSYNC_UsingFixedFunction)
 381:Generated_Source\PSoC5/VSYNC.c **** 
 382:Generated_Source\PSoC5/VSYNC.c **** 
 383:Generated_Source\PSoC5/VSYNC.c ****     /*******************************************************************************
 384:Generated_Source\PSoC5/VSYNC.c ****     * Function Name: VSYNC_WriteCounter
 385:Generated_Source\PSoC5/VSYNC.c ****     ********************************************************************************
 386:Generated_Source\PSoC5/VSYNC.c ****     *
 387:Generated_Source\PSoC5/VSYNC.c ****     * Summary:
 388:Generated_Source\PSoC5/VSYNC.c ****     *  Writes a new counter value directly to the counter register. This will be
 389:Generated_Source\PSoC5/VSYNC.c ****     *  implemented for that currently running period and only that period. This API
 390:Generated_Source\PSoC5/VSYNC.c ****     *  is valid only for UDB implementation and not available for fixed function
 391:Generated_Source\PSoC5/VSYNC.c ****     *  PWM implementation.
 392:Generated_Source\PSoC5/VSYNC.c ****     *
 393:Generated_Source\PSoC5/VSYNC.c ****     * Parameters:
 394:Generated_Source\PSoC5/VSYNC.c ****     *  counter:  The period new period counter value.
 395:Generated_Source\PSoC5/VSYNC.c ****     *
 396:Generated_Source\PSoC5/VSYNC.c ****     * Return:
 397:Generated_Source\PSoC5/VSYNC.c ****     *  None
 398:Generated_Source\PSoC5/VSYNC.c ****     *
 399:Generated_Source\PSoC5/VSYNC.c ****     * Side Effects:
 400:Generated_Source\PSoC5/VSYNC.c ****     *  The PWM Period will be reloaded when a counter value will be a zero
 401:Generated_Source\PSoC5/VSYNC.c ****     *
 402:Generated_Source\PSoC5/VSYNC.c ****     *******************************************************************************/
 403:Generated_Source\PSoC5/VSYNC.c ****     void VSYNC_WriteCounter(uint8 counter) \
 404:Generated_Source\PSoC5/VSYNC.c ****                                        
 405:Generated_Source\PSoC5/VSYNC.c ****     {
 549              		.loc 1 405 0
 550              		.cfi_startproc
 551              		@ args = 0, pretend = 0, frame = 0
 552              		@ frame_needed = 0, uses_anonymous_args = 0
 553              		@ link register save eliminated.
 554              	.LVL0:
 406:Generated_Source\PSoC5/VSYNC.c ****         CY_SET_REG8(VSYNC_COUNTER_LSB_PTR, counter);
 555              		.loc 1 406 0
 556 0000 014B     		ldr	r3, .L8
 557 0002 1870     		strb	r0, [r3]
 558 0004 7047     		bx	lr
 559              	.L9:
 560 0006 00BF     		.align	2
ARM GAS  C:\Users\info\AppData\Local\Temp\cctjqHuZ.s 			page 41


 561              	.L8:
 562 0008 0A640040 		.word	1073767434
 563              		.cfi_endproc
 564              	.LFE4:
 565              		.size	VSYNC_WriteCounter, .-VSYNC_WriteCounter
 566              		.section	.text.VSYNC_ReadCounter,"ax",%progbits
 567              		.align	2
 568              		.global	VSYNC_ReadCounter
 569              		.thumb
 570              		.thumb_func
 571              		.type	VSYNC_ReadCounter, %function
 572              	VSYNC_ReadCounter:
 573              	.LFB5:
 407:Generated_Source\PSoC5/VSYNC.c ****     }
 408:Generated_Source\PSoC5/VSYNC.c **** 
 409:Generated_Source\PSoC5/VSYNC.c **** 
 410:Generated_Source\PSoC5/VSYNC.c ****     /*******************************************************************************
 411:Generated_Source\PSoC5/VSYNC.c ****     * Function Name: VSYNC_ReadCounter
 412:Generated_Source\PSoC5/VSYNC.c ****     ********************************************************************************
 413:Generated_Source\PSoC5/VSYNC.c ****     *
 414:Generated_Source\PSoC5/VSYNC.c ****     * Summary:
 415:Generated_Source\PSoC5/VSYNC.c ****     *  This function returns the current value of the counter.  It doesn't matter
 416:Generated_Source\PSoC5/VSYNC.c ****     *  if the counter is enabled or running.
 417:Generated_Source\PSoC5/VSYNC.c ****     *
 418:Generated_Source\PSoC5/VSYNC.c ****     * Parameters:
 419:Generated_Source\PSoC5/VSYNC.c ****     *  None
 420:Generated_Source\PSoC5/VSYNC.c ****     *
 421:Generated_Source\PSoC5/VSYNC.c ****     * Return:
 422:Generated_Source\PSoC5/VSYNC.c ****     *  The current value of the counter.
 423:Generated_Source\PSoC5/VSYNC.c ****     *
 424:Generated_Source\PSoC5/VSYNC.c ****     *******************************************************************************/
 425:Generated_Source\PSoC5/VSYNC.c ****     uint8 VSYNC_ReadCounter(void) 
 426:Generated_Source\PSoC5/VSYNC.c ****     {
 574              		.loc 1 426 0
 575              		.cfi_startproc
 576              		@ args = 0, pretend = 0, frame = 0
 577              		@ frame_needed = 0, uses_anonymous_args = 0
 578              		@ link register save eliminated.
 427:Generated_Source\PSoC5/VSYNC.c ****         /* Force capture by reading Accumulator */
 428:Generated_Source\PSoC5/VSYNC.c ****         /* Must first do a software capture to be able to read the counter */
 429:Generated_Source\PSoC5/VSYNC.c ****         /* It is up to the user code to make sure there isn't already captured data in the FIFO */
 430:Generated_Source\PSoC5/VSYNC.c ****           (void)CY_GET_REG8(VSYNC_COUNTERCAP_LSB_PTR_8BIT);
 579              		.loc 1 430 0
 580 0000 024B     		ldr	r3, .L11
 581 0002 1B78     		ldrb	r3, [r3]	@ zero_extendqisi2
 431:Generated_Source\PSoC5/VSYNC.c **** 
 432:Generated_Source\PSoC5/VSYNC.c ****         /* Read the data from the FIFO */
 433:Generated_Source\PSoC5/VSYNC.c ****         return (CY_GET_REG8(VSYNC_CAPTURE_LSB_PTR));
 582              		.loc 1 433 0
 583 0004 024B     		ldr	r3, .L11+4
 584 0006 1878     		ldrb	r0, [r3]	@ zero_extendqisi2
 434:Generated_Source\PSoC5/VSYNC.c ****     }
 585              		.loc 1 434 0
 586 0008 7047     		bx	lr
 587              	.L12:
 588 000a 00BF     		.align	2
 589              	.L11:
ARM GAS  C:\Users\info\AppData\Local\Temp\cctjqHuZ.s 			page 42


 590 000c 1A640040 		.word	1073767450
 591 0010 5A640040 		.word	1073767514
 592              		.cfi_endproc
 593              	.LFE5:
 594              		.size	VSYNC_ReadCounter, .-VSYNC_ReadCounter
 595              		.section	.text.VSYNC_WritePeriod,"ax",%progbits
 596              		.align	2
 597              		.global	VSYNC_WritePeriod
 598              		.thumb
 599              		.thumb_func
 600              		.type	VSYNC_WritePeriod, %function
 601              	VSYNC_WritePeriod:
 602              	.LFB6:
 435:Generated_Source\PSoC5/VSYNC.c **** 
 436:Generated_Source\PSoC5/VSYNC.c ****     #if (VSYNC_UseStatus)
 437:Generated_Source\PSoC5/VSYNC.c **** 
 438:Generated_Source\PSoC5/VSYNC.c **** 
 439:Generated_Source\PSoC5/VSYNC.c ****         /*******************************************************************************
 440:Generated_Source\PSoC5/VSYNC.c ****         * Function Name: VSYNC_ClearFIFO
 441:Generated_Source\PSoC5/VSYNC.c ****         ********************************************************************************
 442:Generated_Source\PSoC5/VSYNC.c ****         *
 443:Generated_Source\PSoC5/VSYNC.c ****         * Summary:
 444:Generated_Source\PSoC5/VSYNC.c ****         *  This function clears all capture data from the capture FIFO
 445:Generated_Source\PSoC5/VSYNC.c ****         *
 446:Generated_Source\PSoC5/VSYNC.c ****         * Parameters:
 447:Generated_Source\PSoC5/VSYNC.c ****         *  None
 448:Generated_Source\PSoC5/VSYNC.c ****         *
 449:Generated_Source\PSoC5/VSYNC.c ****         * Return:
 450:Generated_Source\PSoC5/VSYNC.c ****         *  None
 451:Generated_Source\PSoC5/VSYNC.c ****         *
 452:Generated_Source\PSoC5/VSYNC.c ****         *******************************************************************************/
 453:Generated_Source\PSoC5/VSYNC.c ****         void VSYNC_ClearFIFO(void) 
 454:Generated_Source\PSoC5/VSYNC.c ****         {
 455:Generated_Source\PSoC5/VSYNC.c ****             while(0u != (VSYNC_ReadStatusRegister() & VSYNC_STATUS_FIFONEMPTY))
 456:Generated_Source\PSoC5/VSYNC.c ****             {
 457:Generated_Source\PSoC5/VSYNC.c ****                 (void)VSYNC_ReadCapture();
 458:Generated_Source\PSoC5/VSYNC.c ****             }
 459:Generated_Source\PSoC5/VSYNC.c ****         }
 460:Generated_Source\PSoC5/VSYNC.c **** 
 461:Generated_Source\PSoC5/VSYNC.c ****     #endif /* VSYNC_UseStatus */
 462:Generated_Source\PSoC5/VSYNC.c **** 
 463:Generated_Source\PSoC5/VSYNC.c **** #endif /* !VSYNC_UsingFixedFunction */
 464:Generated_Source\PSoC5/VSYNC.c **** 
 465:Generated_Source\PSoC5/VSYNC.c **** 
 466:Generated_Source\PSoC5/VSYNC.c **** /*******************************************************************************
 467:Generated_Source\PSoC5/VSYNC.c **** * Function Name: VSYNC_WritePeriod
 468:Generated_Source\PSoC5/VSYNC.c **** ********************************************************************************
 469:Generated_Source\PSoC5/VSYNC.c **** *
 470:Generated_Source\PSoC5/VSYNC.c **** * Summary:
 471:Generated_Source\PSoC5/VSYNC.c **** *  This function is used to change the period of the counter.  The new period
 472:Generated_Source\PSoC5/VSYNC.c **** *  will be loaded the next time terminal count is detected.
 473:Generated_Source\PSoC5/VSYNC.c **** *
 474:Generated_Source\PSoC5/VSYNC.c **** * Parameters:
 475:Generated_Source\PSoC5/VSYNC.c **** *  period:  Period value. May be between 1 and (2^Resolution)-1.  A value of 0
 476:Generated_Source\PSoC5/VSYNC.c **** *           will result in the counter remaining at zero.
 477:Generated_Source\PSoC5/VSYNC.c **** *
 478:Generated_Source\PSoC5/VSYNC.c **** * Return:
ARM GAS  C:\Users\info\AppData\Local\Temp\cctjqHuZ.s 			page 43


 479:Generated_Source\PSoC5/VSYNC.c **** *  None
 480:Generated_Source\PSoC5/VSYNC.c **** *
 481:Generated_Source\PSoC5/VSYNC.c **** *******************************************************************************/
 482:Generated_Source\PSoC5/VSYNC.c **** void VSYNC_WritePeriod(uint8 period) 
 483:Generated_Source\PSoC5/VSYNC.c **** {
 603              		.loc 1 483 0
 604              		.cfi_startproc
 605              		@ args = 0, pretend = 0, frame = 0
 606              		@ frame_needed = 0, uses_anonymous_args = 0
 607              		@ link register save eliminated.
 608              	.LVL1:
 484:Generated_Source\PSoC5/VSYNC.c ****     #if(VSYNC_UsingFixedFunction)
 485:Generated_Source\PSoC5/VSYNC.c ****         CY_SET_REG16(VSYNC_PERIOD_LSB_PTR, (uint16)period);
 486:Generated_Source\PSoC5/VSYNC.c ****     #else
 487:Generated_Source\PSoC5/VSYNC.c ****         CY_SET_REG8(VSYNC_PERIOD_LSB_PTR, period);
 609              		.loc 1 487 0
 610 0000 014B     		ldr	r3, .L14
 611 0002 1870     		strb	r0, [r3]
 612 0004 7047     		bx	lr
 613              	.L15:
 614 0006 00BF     		.align	2
 615              	.L14:
 616 0008 4A640040 		.word	1073767498
 617              		.cfi_endproc
 618              	.LFE6:
 619              		.size	VSYNC_WritePeriod, .-VSYNC_WritePeriod
 620              		.section	.text.VSYNC_WriteCompare,"ax",%progbits
 621              		.align	2
 622              		.global	VSYNC_WriteCompare
 623              		.thumb
 624              		.thumb_func
 625              		.type	VSYNC_WriteCompare, %function
 626              	VSYNC_WriteCompare:
 627              	.LFB7:
 488:Generated_Source\PSoC5/VSYNC.c ****     #endif /* (VSYNC_UsingFixedFunction) */
 489:Generated_Source\PSoC5/VSYNC.c **** }
 490:Generated_Source\PSoC5/VSYNC.c **** 
 491:Generated_Source\PSoC5/VSYNC.c **** #if (VSYNC_UseOneCompareMode)
 492:Generated_Source\PSoC5/VSYNC.c **** 
 493:Generated_Source\PSoC5/VSYNC.c **** 
 494:Generated_Source\PSoC5/VSYNC.c ****     /*******************************************************************************
 495:Generated_Source\PSoC5/VSYNC.c ****     * Function Name: VSYNC_WriteCompare
 496:Generated_Source\PSoC5/VSYNC.c ****     ********************************************************************************
 497:Generated_Source\PSoC5/VSYNC.c ****     *
 498:Generated_Source\PSoC5/VSYNC.c ****     * Summary:
 499:Generated_Source\PSoC5/VSYNC.c ****     *  This funtion is used to change the compare1 value when the PWM is in Dither
 500:Generated_Source\PSoC5/VSYNC.c ****     *  mode. The compare output will reflect the new value on the next UDB clock.
 501:Generated_Source\PSoC5/VSYNC.c ****     *  The compare output will be driven high when the present counter value is
 502:Generated_Source\PSoC5/VSYNC.c ****     *  compared to the compare value based on the compare mode defined in
 503:Generated_Source\PSoC5/VSYNC.c ****     *  Dither Mode.
 504:Generated_Source\PSoC5/VSYNC.c ****     *
 505:Generated_Source\PSoC5/VSYNC.c ****     * Parameters:
 506:Generated_Source\PSoC5/VSYNC.c ****     *  compare:  New compare value.
 507:Generated_Source\PSoC5/VSYNC.c ****     *
 508:Generated_Source\PSoC5/VSYNC.c ****     * Return:
 509:Generated_Source\PSoC5/VSYNC.c ****     *  None
 510:Generated_Source\PSoC5/VSYNC.c ****     *
ARM GAS  C:\Users\info\AppData\Local\Temp\cctjqHuZ.s 			page 44


 511:Generated_Source\PSoC5/VSYNC.c ****     * Side Effects:
 512:Generated_Source\PSoC5/VSYNC.c ****     *  This function is only available if the PWM mode parameter is set to
 513:Generated_Source\PSoC5/VSYNC.c ****     *  Dither Mode, Center Aligned Mode or One Output Mode
 514:Generated_Source\PSoC5/VSYNC.c ****     *
 515:Generated_Source\PSoC5/VSYNC.c ****     *******************************************************************************/
 516:Generated_Source\PSoC5/VSYNC.c ****     void VSYNC_WriteCompare(uint8 compare) \
 517:Generated_Source\PSoC5/VSYNC.c ****                                        
 518:Generated_Source\PSoC5/VSYNC.c ****     {
 628              		.loc 1 518 0
 629              		.cfi_startproc
 630              		@ args = 0, pretend = 0, frame = 0
 631              		@ frame_needed = 0, uses_anonymous_args = 0
 632              		@ link register save eliminated.
 633              	.LVL2:
 519:Generated_Source\PSoC5/VSYNC.c ****         #if(VSYNC_UsingFixedFunction)
 520:Generated_Source\PSoC5/VSYNC.c ****             CY_SET_REG16(VSYNC_COMPARE1_LSB_PTR, (uint16)compare);
 521:Generated_Source\PSoC5/VSYNC.c ****         #else
 522:Generated_Source\PSoC5/VSYNC.c ****             CY_SET_REG8(VSYNC_COMPARE1_LSB_PTR, compare);
 634              		.loc 1 522 0
 635 0000 014B     		ldr	r3, .L17
 636 0002 1870     		strb	r0, [r3]
 637 0004 7047     		bx	lr
 638              	.L18:
 639 0006 00BF     		.align	2
 640              	.L17:
 641 0008 2A640040 		.word	1073767466
 642              		.cfi_endproc
 643              	.LFE7:
 644              		.size	VSYNC_WriteCompare, .-VSYNC_WriteCompare
 645              		.section	.text.VSYNC_Init,"ax",%progbits
 646              		.align	2
 647              		.global	VSYNC_Init
 648              		.thumb
 649              		.thumb_func
 650              		.type	VSYNC_Init, %function
 651              	VSYNC_Init:
 652              	.LFB1:
  85:Generated_Source\PSoC5/VSYNC.c ****     #if (VSYNC_UsingFixedFunction || VSYNC_UseControl)
 653              		.loc 1 85 0
 654              		.cfi_startproc
 655              		@ args = 0, pretend = 0, frame = 0
 656              		@ frame_needed = 0, uses_anonymous_args = 0
 657 0000 08B5     		push	{r3, lr}
 658              		.cfi_def_cfa_offset 8
 659              		.cfi_offset 3, -8
 660              		.cfi_offset 14, -4
 117:Generated_Source\PSoC5/VSYNC.c ****                 ((uint8)(~VSYNC_CTRL_CMPMODE1_MASK));
 661              		.loc 1 117 0
 662 0002 0B4A     		ldr	r2, .L21
 663 0004 1378     		ldrb	r3, [r2]	@ zero_extendqisi2
 664 0006 03F0C003 		and	r3, r3, #192
 665              	.LVL3:
 119:Generated_Source\PSoC5/VSYNC.c ****                                    VSYNC_DEFAULT_COMPARE1_MODE;
 666              		.loc 1 119 0
 667 000a 43F00803 		orr	r3, r3, #8
 668              	.LVL4:
 669 000e 1370     		strb	r3, [r2]
ARM GAS  C:\Users\info\AppData\Local\Temp\cctjqHuZ.s 			page 45


 126:Generated_Source\PSoC5/VSYNC.c ****         #else /* (VSYNC_Resolution == 16)*/
 670              		.loc 1 126 0
 671 0010 2032     		adds	r2, r2, #32
 672 0012 1378     		ldrb	r3, [r2]	@ zero_extendqisi2
 673 0014 43F00103 		orr	r3, r3, #1
 674 0018 1370     		strb	r3, [r2]
 133:Generated_Source\PSoC5/VSYNC.c ****     #endif /* (!VSYNC_UsingFixedFunction) */
 675              		.loc 1 133 0
 676 001a 0620     		movs	r0, #6
 677 001c FFF7FEFF 		bl	VSYNC_WriteCounter
 678              	.LVL5:
 136:Generated_Source\PSoC5/VSYNC.c **** 
 679              		.loc 1 136 0
 680 0020 0620     		movs	r0, #6
 681 0022 FFF7FEFF 		bl	VSYNC_WritePeriod
 682              	.LVL6:
 139:Generated_Source\PSoC5/VSYNC.c ****         #else
 683              		.loc 1 139 0
 684 0026 0620     		movs	r0, #6
 685 0028 FFF7FEFF 		bl	VSYNC_WriteCompare
 686              	.LVL7:
 687 002c 08BD     		pop	{r3, pc}
 688              	.L22:
 689 002e 00BF     		.align	2
 690              	.L21:
 691 0030 7A640040 		.word	1073767546
 692              		.cfi_endproc
 693              	.LFE1:
 694              		.size	VSYNC_Init, .-VSYNC_Init
 695              		.section	.text.VSYNC_Start,"ax",%progbits
 696              		.align	2
 697              		.global	VSYNC_Start
 698              		.thumb
 699              		.thumb_func
 700              		.type	VSYNC_Start, %function
 701              	VSYNC_Start:
 702              	.LFB0:
  56:Generated_Source\PSoC5/VSYNC.c ****     /* If not Initialized then initialize all required hardware and software */
 703              		.loc 1 56 0
 704              		.cfi_startproc
 705              		@ args = 0, pretend = 0, frame = 0
 706              		@ frame_needed = 0, uses_anonymous_args = 0
 707 0000 08B5     		push	{r3, lr}
 708              		.cfi_def_cfa_offset 8
 709              		.cfi_offset 3, -8
 710              		.cfi_offset 14, -4
  58:Generated_Source\PSoC5/VSYNC.c ****     {
 711              		.loc 1 58 0
 712 0002 054B     		ldr	r3, .L26
 713 0004 1B78     		ldrb	r3, [r3]	@ zero_extendqisi2
 714 0006 23B9     		cbnz	r3, .L24
  60:Generated_Source\PSoC5/VSYNC.c ****         VSYNC_initVar = 1u;
 715              		.loc 1 60 0
 716 0008 FFF7FEFF 		bl	VSYNC_Init
 717              	.LVL8:
  61:Generated_Source\PSoC5/VSYNC.c ****     }
 718              		.loc 1 61 0
ARM GAS  C:\Users\info\AppData\Local\Temp\cctjqHuZ.s 			page 46


 719 000c 0122     		movs	r2, #1
 720 000e 024B     		ldr	r3, .L26
 721 0010 1A70     		strb	r2, [r3]
 722              	.L24:
  63:Generated_Source\PSoC5/VSYNC.c **** 
 723              		.loc 1 63 0
 724 0012 FFF7FEFF 		bl	VSYNC_Enable
 725              	.LVL9:
 726 0016 08BD     		pop	{r3, pc}
 727              	.L27:
 728              		.align	2
 729              	.L26:
 730 0018 00000000 		.word	.LANCHOR0
 731              		.cfi_endproc
 732              	.LFE0:
 733              		.size	VSYNC_Start, .-VSYNC_Start
 734              		.section	.text.VSYNC_ReadControlRegister,"ax",%progbits
 735              		.align	2
 736              		.global	VSYNC_ReadControlRegister
 737              		.thumb
 738              		.thumb_func
 739              		.type	VSYNC_ReadControlRegister, %function
 740              	VSYNC_ReadControlRegister:
 741              	.LFB8:
 523:Generated_Source\PSoC5/VSYNC.c ****         #endif /* (VSYNC_UsingFixedFunction) */
 524:Generated_Source\PSoC5/VSYNC.c **** 
 525:Generated_Source\PSoC5/VSYNC.c ****         #if (VSYNC_PWMMode == VSYNC__B_PWM__DITHER)
 526:Generated_Source\PSoC5/VSYNC.c ****             #if(VSYNC_UsingFixedFunction)
 527:Generated_Source\PSoC5/VSYNC.c ****                 CY_SET_REG16(VSYNC_COMPARE2_LSB_PTR, (uint16)(compare + 1u));
 528:Generated_Source\PSoC5/VSYNC.c ****             #else
 529:Generated_Source\PSoC5/VSYNC.c ****                 CY_SET_REG8(VSYNC_COMPARE2_LSB_PTR, (compare + 1u));
 530:Generated_Source\PSoC5/VSYNC.c ****             #endif /* (VSYNC_UsingFixedFunction) */
 531:Generated_Source\PSoC5/VSYNC.c ****         #endif /* (VSYNC_PWMMode == VSYNC__B_PWM__DITHER) */
 532:Generated_Source\PSoC5/VSYNC.c ****     }
 533:Generated_Source\PSoC5/VSYNC.c **** 
 534:Generated_Source\PSoC5/VSYNC.c **** 
 535:Generated_Source\PSoC5/VSYNC.c **** #else
 536:Generated_Source\PSoC5/VSYNC.c **** 
 537:Generated_Source\PSoC5/VSYNC.c **** 
 538:Generated_Source\PSoC5/VSYNC.c ****     /*******************************************************************************
 539:Generated_Source\PSoC5/VSYNC.c ****     * Function Name: VSYNC_WriteCompare1
 540:Generated_Source\PSoC5/VSYNC.c ****     ********************************************************************************
 541:Generated_Source\PSoC5/VSYNC.c ****     *
 542:Generated_Source\PSoC5/VSYNC.c ****     * Summary:
 543:Generated_Source\PSoC5/VSYNC.c ****     *  This funtion is used to change the compare1 value.  The compare output will
 544:Generated_Source\PSoC5/VSYNC.c ****     *  reflect the new value on the next UDB clock.  The compare output will be
 545:Generated_Source\PSoC5/VSYNC.c ****     *  driven high when the present counter value is less than or less than or
 546:Generated_Source\PSoC5/VSYNC.c ****     *  equal to the compare register, depending on the mode.
 547:Generated_Source\PSoC5/VSYNC.c ****     *
 548:Generated_Source\PSoC5/VSYNC.c ****     * Parameters:
 549:Generated_Source\PSoC5/VSYNC.c ****     *  compare:  New compare value.
 550:Generated_Source\PSoC5/VSYNC.c ****     *
 551:Generated_Source\PSoC5/VSYNC.c ****     * Return:
 552:Generated_Source\PSoC5/VSYNC.c ****     *  None
 553:Generated_Source\PSoC5/VSYNC.c ****     *
 554:Generated_Source\PSoC5/VSYNC.c ****     *******************************************************************************/
 555:Generated_Source\PSoC5/VSYNC.c ****     void VSYNC_WriteCompare1(uint8 compare) \
ARM GAS  C:\Users\info\AppData\Local\Temp\cctjqHuZ.s 			page 47


 556:Generated_Source\PSoC5/VSYNC.c ****                                         
 557:Generated_Source\PSoC5/VSYNC.c ****     {
 558:Generated_Source\PSoC5/VSYNC.c ****         #if(VSYNC_UsingFixedFunction)
 559:Generated_Source\PSoC5/VSYNC.c ****             CY_SET_REG16(VSYNC_COMPARE1_LSB_PTR, (uint16)compare);
 560:Generated_Source\PSoC5/VSYNC.c ****         #else
 561:Generated_Source\PSoC5/VSYNC.c ****             CY_SET_REG8(VSYNC_COMPARE1_LSB_PTR, compare);
 562:Generated_Source\PSoC5/VSYNC.c ****         #endif /* (VSYNC_UsingFixedFunction) */
 563:Generated_Source\PSoC5/VSYNC.c ****     }
 564:Generated_Source\PSoC5/VSYNC.c **** 
 565:Generated_Source\PSoC5/VSYNC.c **** 
 566:Generated_Source\PSoC5/VSYNC.c ****     /*******************************************************************************
 567:Generated_Source\PSoC5/VSYNC.c ****     * Function Name: VSYNC_WriteCompare2
 568:Generated_Source\PSoC5/VSYNC.c ****     ********************************************************************************
 569:Generated_Source\PSoC5/VSYNC.c ****     *
 570:Generated_Source\PSoC5/VSYNC.c ****     * Summary:
 571:Generated_Source\PSoC5/VSYNC.c ****     *  This funtion is used to change the compare value, for compare1 output.
 572:Generated_Source\PSoC5/VSYNC.c ****     *  The compare output will reflect the new value on the next UDB clock.
 573:Generated_Source\PSoC5/VSYNC.c ****     *  The compare output will be driven high when the present counter value is
 574:Generated_Source\PSoC5/VSYNC.c ****     *  less than or less than or equal to the compare register, depending on the
 575:Generated_Source\PSoC5/VSYNC.c ****     *  mode.
 576:Generated_Source\PSoC5/VSYNC.c ****     *
 577:Generated_Source\PSoC5/VSYNC.c ****     * Parameters:
 578:Generated_Source\PSoC5/VSYNC.c ****     *  compare:  New compare value.
 579:Generated_Source\PSoC5/VSYNC.c ****     *
 580:Generated_Source\PSoC5/VSYNC.c ****     * Return:
 581:Generated_Source\PSoC5/VSYNC.c ****     *  None
 582:Generated_Source\PSoC5/VSYNC.c ****     *
 583:Generated_Source\PSoC5/VSYNC.c ****     *******************************************************************************/
 584:Generated_Source\PSoC5/VSYNC.c ****     void VSYNC_WriteCompare2(uint8 compare) \
 585:Generated_Source\PSoC5/VSYNC.c ****                                         
 586:Generated_Source\PSoC5/VSYNC.c ****     {
 587:Generated_Source\PSoC5/VSYNC.c ****         #if(VSYNC_UsingFixedFunction)
 588:Generated_Source\PSoC5/VSYNC.c ****             CY_SET_REG16(VSYNC_COMPARE2_LSB_PTR, compare);
 589:Generated_Source\PSoC5/VSYNC.c ****         #else
 590:Generated_Source\PSoC5/VSYNC.c ****             CY_SET_REG8(VSYNC_COMPARE2_LSB_PTR, compare);
 591:Generated_Source\PSoC5/VSYNC.c ****         #endif /* (VSYNC_UsingFixedFunction) */
 592:Generated_Source\PSoC5/VSYNC.c ****     }
 593:Generated_Source\PSoC5/VSYNC.c **** #endif /* UseOneCompareMode */
 594:Generated_Source\PSoC5/VSYNC.c **** 
 595:Generated_Source\PSoC5/VSYNC.c **** #if (VSYNC_DeadBandUsed)
 596:Generated_Source\PSoC5/VSYNC.c **** 
 597:Generated_Source\PSoC5/VSYNC.c **** 
 598:Generated_Source\PSoC5/VSYNC.c ****     /*******************************************************************************
 599:Generated_Source\PSoC5/VSYNC.c ****     * Function Name: VSYNC_WriteDeadTime
 600:Generated_Source\PSoC5/VSYNC.c ****     ********************************************************************************
 601:Generated_Source\PSoC5/VSYNC.c ****     *
 602:Generated_Source\PSoC5/VSYNC.c ****     * Summary:
 603:Generated_Source\PSoC5/VSYNC.c ****     *  This function writes the dead-band counts to the corresponding register
 604:Generated_Source\PSoC5/VSYNC.c ****     *
 605:Generated_Source\PSoC5/VSYNC.c ****     * Parameters:
 606:Generated_Source\PSoC5/VSYNC.c ****     *  deadtime:  Number of counts for dead time
 607:Generated_Source\PSoC5/VSYNC.c ****     *
 608:Generated_Source\PSoC5/VSYNC.c ****     * Return:
 609:Generated_Source\PSoC5/VSYNC.c ****     *  None
 610:Generated_Source\PSoC5/VSYNC.c ****     *
 611:Generated_Source\PSoC5/VSYNC.c ****     *******************************************************************************/
 612:Generated_Source\PSoC5/VSYNC.c ****     void VSYNC_WriteDeadTime(uint8 deadtime) 
ARM GAS  C:\Users\info\AppData\Local\Temp\cctjqHuZ.s 			page 48


 613:Generated_Source\PSoC5/VSYNC.c ****     {
 614:Generated_Source\PSoC5/VSYNC.c ****         /* If using the Dead Band 1-255 mode then just write the register */
 615:Generated_Source\PSoC5/VSYNC.c ****         #if(!VSYNC_DeadBand2_4)
 616:Generated_Source\PSoC5/VSYNC.c ****             CY_SET_REG8(VSYNC_DEADBAND_COUNT_PTR, deadtime);
 617:Generated_Source\PSoC5/VSYNC.c ****         #else
 618:Generated_Source\PSoC5/VSYNC.c ****             /* Otherwise the data has to be masked and offset */
 619:Generated_Source\PSoC5/VSYNC.c ****             /* Clear existing data */
 620:Generated_Source\PSoC5/VSYNC.c ****             VSYNC_DEADBAND_COUNT &= ((uint8)(~VSYNC_DEADBAND_COUNT_MASK));
 621:Generated_Source\PSoC5/VSYNC.c **** 
 622:Generated_Source\PSoC5/VSYNC.c ****             /* Set new dead time */
 623:Generated_Source\PSoC5/VSYNC.c ****             #if(VSYNC_DEADBAND_COUNT_SHIFT)
 624:Generated_Source\PSoC5/VSYNC.c ****                 VSYNC_DEADBAND_COUNT |= ((uint8)((uint8)deadtime << VSYNC_DEADBAND_COUNT_SHIFT)) &
 625:Generated_Source\PSoC5/VSYNC.c ****                                                     VSYNC_DEADBAND_COUNT_MASK;
 626:Generated_Source\PSoC5/VSYNC.c ****             #else
 627:Generated_Source\PSoC5/VSYNC.c ****                 VSYNC_DEADBAND_COUNT |= deadtime & VSYNC_DEADBAND_COUNT_MASK;
 628:Generated_Source\PSoC5/VSYNC.c ****             #endif /* (VSYNC_DEADBAND_COUNT_SHIFT) */
 629:Generated_Source\PSoC5/VSYNC.c **** 
 630:Generated_Source\PSoC5/VSYNC.c ****         #endif /* (!VSYNC_DeadBand2_4) */
 631:Generated_Source\PSoC5/VSYNC.c ****     }
 632:Generated_Source\PSoC5/VSYNC.c **** 
 633:Generated_Source\PSoC5/VSYNC.c **** 
 634:Generated_Source\PSoC5/VSYNC.c ****     /*******************************************************************************
 635:Generated_Source\PSoC5/VSYNC.c ****     * Function Name: VSYNC_ReadDeadTime
 636:Generated_Source\PSoC5/VSYNC.c ****     ********************************************************************************
 637:Generated_Source\PSoC5/VSYNC.c ****     *
 638:Generated_Source\PSoC5/VSYNC.c ****     * Summary:
 639:Generated_Source\PSoC5/VSYNC.c ****     *  This function reads the dead-band counts from the corresponding register
 640:Generated_Source\PSoC5/VSYNC.c ****     *
 641:Generated_Source\PSoC5/VSYNC.c ****     * Parameters:
 642:Generated_Source\PSoC5/VSYNC.c ****     *  None
 643:Generated_Source\PSoC5/VSYNC.c ****     *
 644:Generated_Source\PSoC5/VSYNC.c ****     * Return:
 645:Generated_Source\PSoC5/VSYNC.c ****     *  Dead Band Counts
 646:Generated_Source\PSoC5/VSYNC.c ****     *
 647:Generated_Source\PSoC5/VSYNC.c ****     *******************************************************************************/
 648:Generated_Source\PSoC5/VSYNC.c ****     uint8 VSYNC_ReadDeadTime(void) 
 649:Generated_Source\PSoC5/VSYNC.c ****     {
 650:Generated_Source\PSoC5/VSYNC.c ****         /* If using the Dead Band 1-255 mode then just read the register */
 651:Generated_Source\PSoC5/VSYNC.c ****         #if(!VSYNC_DeadBand2_4)
 652:Generated_Source\PSoC5/VSYNC.c ****             return (CY_GET_REG8(VSYNC_DEADBAND_COUNT_PTR));
 653:Generated_Source\PSoC5/VSYNC.c ****         #else
 654:Generated_Source\PSoC5/VSYNC.c **** 
 655:Generated_Source\PSoC5/VSYNC.c ****             /* Otherwise the data has to be masked and offset */
 656:Generated_Source\PSoC5/VSYNC.c ****             #if(VSYNC_DEADBAND_COUNT_SHIFT)
 657:Generated_Source\PSoC5/VSYNC.c ****                 return ((uint8)(((uint8)(VSYNC_DEADBAND_COUNT & VSYNC_DEADBAND_COUNT_MASK)) >>
 658:Generated_Source\PSoC5/VSYNC.c ****                                                                            VSYNC_DEADBAND_COUNT_SHI
 659:Generated_Source\PSoC5/VSYNC.c ****             #else
 660:Generated_Source\PSoC5/VSYNC.c ****                 return (VSYNC_DEADBAND_COUNT & VSYNC_DEADBAND_COUNT_MASK);
 661:Generated_Source\PSoC5/VSYNC.c ****             #endif /* (VSYNC_DEADBAND_COUNT_SHIFT) */
 662:Generated_Source\PSoC5/VSYNC.c ****         #endif /* (!VSYNC_DeadBand2_4) */
 663:Generated_Source\PSoC5/VSYNC.c ****     }
 664:Generated_Source\PSoC5/VSYNC.c **** #endif /* DeadBandUsed */
 665:Generated_Source\PSoC5/VSYNC.c **** 
 666:Generated_Source\PSoC5/VSYNC.c **** #if (VSYNC_UseStatus || VSYNC_UsingFixedFunction)
 667:Generated_Source\PSoC5/VSYNC.c **** 
 668:Generated_Source\PSoC5/VSYNC.c **** 
 669:Generated_Source\PSoC5/VSYNC.c ****     /*******************************************************************************
ARM GAS  C:\Users\info\AppData\Local\Temp\cctjqHuZ.s 			page 49


 670:Generated_Source\PSoC5/VSYNC.c ****     * Function Name: VSYNC_SetInterruptMode
 671:Generated_Source\PSoC5/VSYNC.c ****     ********************************************************************************
 672:Generated_Source\PSoC5/VSYNC.c ****     *
 673:Generated_Source\PSoC5/VSYNC.c ****     * Summary:
 674:Generated_Source\PSoC5/VSYNC.c ****     *  This function configures the interrupts mask control of theinterrupt
 675:Generated_Source\PSoC5/VSYNC.c ****     *  source status register.
 676:Generated_Source\PSoC5/VSYNC.c ****     *
 677:Generated_Source\PSoC5/VSYNC.c ****     * Parameters:
 678:Generated_Source\PSoC5/VSYNC.c ****     *  uint8 interruptMode: Bit field containing the interrupt sources enabled
 679:Generated_Source\PSoC5/VSYNC.c ****     *
 680:Generated_Source\PSoC5/VSYNC.c ****     * Return:
 681:Generated_Source\PSoC5/VSYNC.c ****     *  None
 682:Generated_Source\PSoC5/VSYNC.c ****     *
 683:Generated_Source\PSoC5/VSYNC.c ****     *******************************************************************************/
 684:Generated_Source\PSoC5/VSYNC.c ****     void VSYNC_SetInterruptMode(uint8 interruptMode) 
 685:Generated_Source\PSoC5/VSYNC.c ****     {
 686:Generated_Source\PSoC5/VSYNC.c ****         CY_SET_REG8(VSYNC_STATUS_MASK_PTR, interruptMode);
 687:Generated_Source\PSoC5/VSYNC.c ****     }
 688:Generated_Source\PSoC5/VSYNC.c **** 
 689:Generated_Source\PSoC5/VSYNC.c **** 
 690:Generated_Source\PSoC5/VSYNC.c ****     /*******************************************************************************
 691:Generated_Source\PSoC5/VSYNC.c ****     * Function Name: VSYNC_ReadStatusRegister
 692:Generated_Source\PSoC5/VSYNC.c ****     ********************************************************************************
 693:Generated_Source\PSoC5/VSYNC.c ****     *
 694:Generated_Source\PSoC5/VSYNC.c ****     * Summary:
 695:Generated_Source\PSoC5/VSYNC.c ****     *  This function returns the current state of the status register.
 696:Generated_Source\PSoC5/VSYNC.c ****     *
 697:Generated_Source\PSoC5/VSYNC.c ****     * Parameters:
 698:Generated_Source\PSoC5/VSYNC.c ****     *  None
 699:Generated_Source\PSoC5/VSYNC.c ****     *
 700:Generated_Source\PSoC5/VSYNC.c ****     * Return:
 701:Generated_Source\PSoC5/VSYNC.c ****     *  uint8 : Current status register value. The status register bits are:
 702:Generated_Source\PSoC5/VSYNC.c ****     *  [7:6] : Unused(0)
 703:Generated_Source\PSoC5/VSYNC.c ****     *  [5]   : Kill event output
 704:Generated_Source\PSoC5/VSYNC.c ****     *  [4]   : FIFO not empty
 705:Generated_Source\PSoC5/VSYNC.c ****     *  [3]   : FIFO full
 706:Generated_Source\PSoC5/VSYNC.c ****     *  [2]   : Terminal count
 707:Generated_Source\PSoC5/VSYNC.c ****     *  [1]   : Compare output 2
 708:Generated_Source\PSoC5/VSYNC.c ****     *  [0]   : Compare output 1
 709:Generated_Source\PSoC5/VSYNC.c ****     *
 710:Generated_Source\PSoC5/VSYNC.c ****     *******************************************************************************/
 711:Generated_Source\PSoC5/VSYNC.c ****     uint8 VSYNC_ReadStatusRegister(void) 
 712:Generated_Source\PSoC5/VSYNC.c ****     {
 713:Generated_Source\PSoC5/VSYNC.c ****         return (CY_GET_REG8(VSYNC_STATUS_PTR));
 714:Generated_Source\PSoC5/VSYNC.c ****     }
 715:Generated_Source\PSoC5/VSYNC.c **** 
 716:Generated_Source\PSoC5/VSYNC.c **** #endif /* (VSYNC_UseStatus || VSYNC_UsingFixedFunction) */
 717:Generated_Source\PSoC5/VSYNC.c **** 
 718:Generated_Source\PSoC5/VSYNC.c **** 
 719:Generated_Source\PSoC5/VSYNC.c **** #if (VSYNC_UseControl)
 720:Generated_Source\PSoC5/VSYNC.c **** 
 721:Generated_Source\PSoC5/VSYNC.c **** 
 722:Generated_Source\PSoC5/VSYNC.c ****     /*******************************************************************************
 723:Generated_Source\PSoC5/VSYNC.c ****     * Function Name: VSYNC_ReadControlRegister
 724:Generated_Source\PSoC5/VSYNC.c ****     ********************************************************************************
 725:Generated_Source\PSoC5/VSYNC.c ****     *
 726:Generated_Source\PSoC5/VSYNC.c ****     * Summary:
ARM GAS  C:\Users\info\AppData\Local\Temp\cctjqHuZ.s 			page 50


 727:Generated_Source\PSoC5/VSYNC.c ****     *  Returns the current state of the control register. This API is available
 728:Generated_Source\PSoC5/VSYNC.c ****     *  only if the control register is not removed.
 729:Generated_Source\PSoC5/VSYNC.c ****     *
 730:Generated_Source\PSoC5/VSYNC.c ****     * Parameters:
 731:Generated_Source\PSoC5/VSYNC.c ****     *  None
 732:Generated_Source\PSoC5/VSYNC.c ****     *
 733:Generated_Source\PSoC5/VSYNC.c ****     * Return:
 734:Generated_Source\PSoC5/VSYNC.c ****     *  uint8 : Current control register value
 735:Generated_Source\PSoC5/VSYNC.c ****     *
 736:Generated_Source\PSoC5/VSYNC.c ****     *******************************************************************************/
 737:Generated_Source\PSoC5/VSYNC.c ****     uint8 VSYNC_ReadControlRegister(void) 
 738:Generated_Source\PSoC5/VSYNC.c ****     {
 742              		.loc 1 738 0
 743              		.cfi_startproc
 744              		@ args = 0, pretend = 0, frame = 0
 745              		@ frame_needed = 0, uses_anonymous_args = 0
 746              		@ link register save eliminated.
 739:Generated_Source\PSoC5/VSYNC.c ****         uint8 result;
 740:Generated_Source\PSoC5/VSYNC.c **** 
 741:Generated_Source\PSoC5/VSYNC.c ****         result = CY_GET_REG8(VSYNC_CONTROL_PTR);
 747              		.loc 1 741 0
 748 0000 014B     		ldr	r3, .L29
 749 0002 1878     		ldrb	r0, [r3]	@ zero_extendqisi2
 750              	.LVL10:
 742:Generated_Source\PSoC5/VSYNC.c ****         return (result);
 743:Generated_Source\PSoC5/VSYNC.c ****     }
 751              		.loc 1 743 0
 752 0004 7047     		bx	lr
 753              	.L30:
 754 0006 00BF     		.align	2
 755              	.L29:
 756 0008 7A640040 		.word	1073767546
 757              		.cfi_endproc
 758              	.LFE8:
 759              		.size	VSYNC_ReadControlRegister, .-VSYNC_ReadControlRegister
 760              		.section	.text.VSYNC_WriteControlRegister,"ax",%progbits
 761              		.align	2
 762              		.global	VSYNC_WriteControlRegister
 763              		.thumb
 764              		.thumb_func
 765              		.type	VSYNC_WriteControlRegister, %function
 766              	VSYNC_WriteControlRegister:
 767              	.LFB9:
 744:Generated_Source\PSoC5/VSYNC.c **** 
 745:Generated_Source\PSoC5/VSYNC.c **** 
 746:Generated_Source\PSoC5/VSYNC.c ****     /*******************************************************************************
 747:Generated_Source\PSoC5/VSYNC.c ****     * Function Name: VSYNC_WriteControlRegister
 748:Generated_Source\PSoC5/VSYNC.c ****     ********************************************************************************
 749:Generated_Source\PSoC5/VSYNC.c ****     *
 750:Generated_Source\PSoC5/VSYNC.c ****     * Summary:
 751:Generated_Source\PSoC5/VSYNC.c ****     *  Sets the bit field of the control register. This API is available only if
 752:Generated_Source\PSoC5/VSYNC.c ****     *  the control register is not removed.
 753:Generated_Source\PSoC5/VSYNC.c ****     *
 754:Generated_Source\PSoC5/VSYNC.c ****     * Parameters:
 755:Generated_Source\PSoC5/VSYNC.c ****     *  uint8 control: Control register bit field, The status register bits are:
 756:Generated_Source\PSoC5/VSYNC.c ****     *  [7]   : PWM Enable
 757:Generated_Source\PSoC5/VSYNC.c ****     *  [6]   : Reset
ARM GAS  C:\Users\info\AppData\Local\Temp\cctjqHuZ.s 			page 51


 758:Generated_Source\PSoC5/VSYNC.c ****     *  [5:3] : Compare Mode2
 759:Generated_Source\PSoC5/VSYNC.c ****     *  [2:0] : Compare Mode2
 760:Generated_Source\PSoC5/VSYNC.c ****     *
 761:Generated_Source\PSoC5/VSYNC.c ****     * Return:
 762:Generated_Source\PSoC5/VSYNC.c ****     *  None
 763:Generated_Source\PSoC5/VSYNC.c ****     *
 764:Generated_Source\PSoC5/VSYNC.c ****     *******************************************************************************/
 765:Generated_Source\PSoC5/VSYNC.c ****     void VSYNC_WriteControlRegister(uint8 control) 
 766:Generated_Source\PSoC5/VSYNC.c ****     {
 768              		.loc 1 766 0
 769              		.cfi_startproc
 770              		@ args = 0, pretend = 0, frame = 0
 771              		@ frame_needed = 0, uses_anonymous_args = 0
 772              		@ link register save eliminated.
 773              	.LVL11:
 767:Generated_Source\PSoC5/VSYNC.c ****         CY_SET_REG8(VSYNC_CONTROL_PTR, control);
 774              		.loc 1 767 0
 775 0000 014B     		ldr	r3, .L32
 776 0002 1870     		strb	r0, [r3]
 777 0004 7047     		bx	lr
 778              	.L33:
 779 0006 00BF     		.align	2
 780              	.L32:
 781 0008 7A640040 		.word	1073767546
 782              		.cfi_endproc
 783              	.LFE9:
 784              		.size	VSYNC_WriteControlRegister, .-VSYNC_WriteControlRegister
 785              		.section	.text.VSYNC_ReadCapture,"ax",%progbits
 786              		.align	2
 787              		.global	VSYNC_ReadCapture
 788              		.thumb
 789              		.thumb_func
 790              		.type	VSYNC_ReadCapture, %function
 791              	VSYNC_ReadCapture:
 792              	.LFB10:
 768:Generated_Source\PSoC5/VSYNC.c ****     }
 769:Generated_Source\PSoC5/VSYNC.c **** 
 770:Generated_Source\PSoC5/VSYNC.c **** #endif /* (VSYNC_UseControl) */
 771:Generated_Source\PSoC5/VSYNC.c **** 
 772:Generated_Source\PSoC5/VSYNC.c **** 
 773:Generated_Source\PSoC5/VSYNC.c **** #if (!VSYNC_UsingFixedFunction)
 774:Generated_Source\PSoC5/VSYNC.c **** 
 775:Generated_Source\PSoC5/VSYNC.c **** 
 776:Generated_Source\PSoC5/VSYNC.c ****     /*******************************************************************************
 777:Generated_Source\PSoC5/VSYNC.c ****     * Function Name: VSYNC_ReadCapture
 778:Generated_Source\PSoC5/VSYNC.c ****     ********************************************************************************
 779:Generated_Source\PSoC5/VSYNC.c ****     *
 780:Generated_Source\PSoC5/VSYNC.c ****     * Summary:
 781:Generated_Source\PSoC5/VSYNC.c ****     *  Reads the capture value from the capture FIFO.
 782:Generated_Source\PSoC5/VSYNC.c ****     *
 783:Generated_Source\PSoC5/VSYNC.c ****     * Parameters:
 784:Generated_Source\PSoC5/VSYNC.c ****     *  None
 785:Generated_Source\PSoC5/VSYNC.c ****     *
 786:Generated_Source\PSoC5/VSYNC.c ****     * Return:
 787:Generated_Source\PSoC5/VSYNC.c ****     *  uint8/uint16: The current capture value
 788:Generated_Source\PSoC5/VSYNC.c ****     *
 789:Generated_Source\PSoC5/VSYNC.c ****     *******************************************************************************/
ARM GAS  C:\Users\info\AppData\Local\Temp\cctjqHuZ.s 			page 52


 790:Generated_Source\PSoC5/VSYNC.c ****     uint8 VSYNC_ReadCapture(void) 
 791:Generated_Source\PSoC5/VSYNC.c ****     {
 793              		.loc 1 791 0
 794              		.cfi_startproc
 795              		@ args = 0, pretend = 0, frame = 0
 796              		@ frame_needed = 0, uses_anonymous_args = 0
 797              		@ link register save eliminated.
 792:Generated_Source\PSoC5/VSYNC.c ****         return (CY_GET_REG8(VSYNC_CAPTURE_LSB_PTR));
 798              		.loc 1 792 0
 799 0000 014B     		ldr	r3, .L35
 800 0002 1878     		ldrb	r0, [r3]	@ zero_extendqisi2
 793:Generated_Source\PSoC5/VSYNC.c ****     }
 801              		.loc 1 793 0
 802 0004 7047     		bx	lr
 803              	.L36:
 804 0006 00BF     		.align	2
 805              	.L35:
 806 0008 5A640040 		.word	1073767514
 807              		.cfi_endproc
 808              	.LFE10:
 809              		.size	VSYNC_ReadCapture, .-VSYNC_ReadCapture
 810              		.section	.text.VSYNC_ReadCompare,"ax",%progbits
 811              		.align	2
 812              		.global	VSYNC_ReadCompare
 813              		.thumb
 814              		.thumb_func
 815              		.type	VSYNC_ReadCompare, %function
 816              	VSYNC_ReadCompare:
 817              	.LFB11:
 794:Generated_Source\PSoC5/VSYNC.c **** 
 795:Generated_Source\PSoC5/VSYNC.c **** #endif /* (!VSYNC_UsingFixedFunction) */
 796:Generated_Source\PSoC5/VSYNC.c **** 
 797:Generated_Source\PSoC5/VSYNC.c **** 
 798:Generated_Source\PSoC5/VSYNC.c **** #if (VSYNC_UseOneCompareMode)
 799:Generated_Source\PSoC5/VSYNC.c **** 
 800:Generated_Source\PSoC5/VSYNC.c **** 
 801:Generated_Source\PSoC5/VSYNC.c ****     /*******************************************************************************
 802:Generated_Source\PSoC5/VSYNC.c ****     * Function Name: VSYNC_ReadCompare
 803:Generated_Source\PSoC5/VSYNC.c ****     ********************************************************************************
 804:Generated_Source\PSoC5/VSYNC.c ****     *
 805:Generated_Source\PSoC5/VSYNC.c ****     * Summary:
 806:Generated_Source\PSoC5/VSYNC.c ****     *  Reads the compare value for the compare output when the PWM Mode parameter is
 807:Generated_Source\PSoC5/VSYNC.c ****     *  set to Dither mode, Center Aligned mode, or One Output mode.
 808:Generated_Source\PSoC5/VSYNC.c ****     *
 809:Generated_Source\PSoC5/VSYNC.c ****     * Parameters:
 810:Generated_Source\PSoC5/VSYNC.c ****     *  None
 811:Generated_Source\PSoC5/VSYNC.c ****     *
 812:Generated_Source\PSoC5/VSYNC.c ****     * Return:
 813:Generated_Source\PSoC5/VSYNC.c ****     *  uint8/uint16: Current compare value
 814:Generated_Source\PSoC5/VSYNC.c ****     *
 815:Generated_Source\PSoC5/VSYNC.c ****     *******************************************************************************/
 816:Generated_Source\PSoC5/VSYNC.c ****     uint8 VSYNC_ReadCompare(void) 
 817:Generated_Source\PSoC5/VSYNC.c ****     {
 818              		.loc 1 817 0
 819              		.cfi_startproc
 820              		@ args = 0, pretend = 0, frame = 0
 821              		@ frame_needed = 0, uses_anonymous_args = 0
ARM GAS  C:\Users\info\AppData\Local\Temp\cctjqHuZ.s 			page 53


 822              		@ link register save eliminated.
 818:Generated_Source\PSoC5/VSYNC.c ****         #if(VSYNC_UsingFixedFunction)
 819:Generated_Source\PSoC5/VSYNC.c ****             return ((uint8)CY_GET_REG16(VSYNC_COMPARE1_LSB_PTR));
 820:Generated_Source\PSoC5/VSYNC.c ****         #else
 821:Generated_Source\PSoC5/VSYNC.c ****             return (CY_GET_REG8(VSYNC_COMPARE1_LSB_PTR));
 823              		.loc 1 821 0
 824 0000 014B     		ldr	r3, .L38
 825 0002 1878     		ldrb	r0, [r3]	@ zero_extendqisi2
 822:Generated_Source\PSoC5/VSYNC.c ****         #endif /* (VSYNC_UsingFixedFunction) */
 823:Generated_Source\PSoC5/VSYNC.c ****     }
 826              		.loc 1 823 0
 827 0004 7047     		bx	lr
 828              	.L39:
 829 0006 00BF     		.align	2
 830              	.L38:
 831 0008 2A640040 		.word	1073767466
 832              		.cfi_endproc
 833              	.LFE11:
 834              		.size	VSYNC_ReadCompare, .-VSYNC_ReadCompare
 835              		.section	.text.VSYNC_ReadPeriod,"ax",%progbits
 836              		.align	2
 837              		.global	VSYNC_ReadPeriod
 838              		.thumb
 839              		.thumb_func
 840              		.type	VSYNC_ReadPeriod, %function
 841              	VSYNC_ReadPeriod:
 842              	.LFB12:
 824:Generated_Source\PSoC5/VSYNC.c **** 
 825:Generated_Source\PSoC5/VSYNC.c **** #else
 826:Generated_Source\PSoC5/VSYNC.c **** 
 827:Generated_Source\PSoC5/VSYNC.c **** 
 828:Generated_Source\PSoC5/VSYNC.c ****     /*******************************************************************************
 829:Generated_Source\PSoC5/VSYNC.c ****     * Function Name: VSYNC_ReadCompare1
 830:Generated_Source\PSoC5/VSYNC.c ****     ********************************************************************************
 831:Generated_Source\PSoC5/VSYNC.c ****     *
 832:Generated_Source\PSoC5/VSYNC.c ****     * Summary:
 833:Generated_Source\PSoC5/VSYNC.c ****     *  Reads the compare value for the compare1 output.
 834:Generated_Source\PSoC5/VSYNC.c ****     *
 835:Generated_Source\PSoC5/VSYNC.c ****     * Parameters:
 836:Generated_Source\PSoC5/VSYNC.c ****     *  None
 837:Generated_Source\PSoC5/VSYNC.c ****     *
 838:Generated_Source\PSoC5/VSYNC.c ****     * Return:
 839:Generated_Source\PSoC5/VSYNC.c ****     *  uint8/uint16: Current compare value.
 840:Generated_Source\PSoC5/VSYNC.c ****     *
 841:Generated_Source\PSoC5/VSYNC.c ****     *******************************************************************************/
 842:Generated_Source\PSoC5/VSYNC.c ****     uint8 VSYNC_ReadCompare1(void) 
 843:Generated_Source\PSoC5/VSYNC.c ****     {
 844:Generated_Source\PSoC5/VSYNC.c ****         return (CY_GET_REG8(VSYNC_COMPARE1_LSB_PTR));
 845:Generated_Source\PSoC5/VSYNC.c ****     }
 846:Generated_Source\PSoC5/VSYNC.c **** 
 847:Generated_Source\PSoC5/VSYNC.c **** 
 848:Generated_Source\PSoC5/VSYNC.c ****     /*******************************************************************************
 849:Generated_Source\PSoC5/VSYNC.c ****     * Function Name: VSYNC_ReadCompare2
 850:Generated_Source\PSoC5/VSYNC.c ****     ********************************************************************************
 851:Generated_Source\PSoC5/VSYNC.c ****     *
 852:Generated_Source\PSoC5/VSYNC.c ****     * Summary:
 853:Generated_Source\PSoC5/VSYNC.c ****     *  Reads the compare value for the compare2 output.
ARM GAS  C:\Users\info\AppData\Local\Temp\cctjqHuZ.s 			page 54


 854:Generated_Source\PSoC5/VSYNC.c ****     *
 855:Generated_Source\PSoC5/VSYNC.c ****     * Parameters:
 856:Generated_Source\PSoC5/VSYNC.c ****     *  None
 857:Generated_Source\PSoC5/VSYNC.c ****     *
 858:Generated_Source\PSoC5/VSYNC.c ****     * Return:
 859:Generated_Source\PSoC5/VSYNC.c ****     *  uint8/uint16: Current compare value.
 860:Generated_Source\PSoC5/VSYNC.c ****     *
 861:Generated_Source\PSoC5/VSYNC.c ****     *******************************************************************************/
 862:Generated_Source\PSoC5/VSYNC.c ****     uint8 VSYNC_ReadCompare2(void) 
 863:Generated_Source\PSoC5/VSYNC.c ****     {
 864:Generated_Source\PSoC5/VSYNC.c ****         return (CY_GET_REG8(VSYNC_COMPARE2_LSB_PTR));
 865:Generated_Source\PSoC5/VSYNC.c ****     }
 866:Generated_Source\PSoC5/VSYNC.c **** 
 867:Generated_Source\PSoC5/VSYNC.c **** #endif /* (VSYNC_UseOneCompareMode) */
 868:Generated_Source\PSoC5/VSYNC.c **** 
 869:Generated_Source\PSoC5/VSYNC.c **** 
 870:Generated_Source\PSoC5/VSYNC.c **** /*******************************************************************************
 871:Generated_Source\PSoC5/VSYNC.c **** * Function Name: VSYNC_ReadPeriod
 872:Generated_Source\PSoC5/VSYNC.c **** ********************************************************************************
 873:Generated_Source\PSoC5/VSYNC.c **** *
 874:Generated_Source\PSoC5/VSYNC.c **** * Summary:
 875:Generated_Source\PSoC5/VSYNC.c **** *  Reads the period value used by the PWM hardware.
 876:Generated_Source\PSoC5/VSYNC.c **** *
 877:Generated_Source\PSoC5/VSYNC.c **** * Parameters:
 878:Generated_Source\PSoC5/VSYNC.c **** *  None
 879:Generated_Source\PSoC5/VSYNC.c **** *
 880:Generated_Source\PSoC5/VSYNC.c **** * Return:
 881:Generated_Source\PSoC5/VSYNC.c **** *  uint8/16: Period value
 882:Generated_Source\PSoC5/VSYNC.c **** *
 883:Generated_Source\PSoC5/VSYNC.c **** *******************************************************************************/
 884:Generated_Source\PSoC5/VSYNC.c **** uint8 VSYNC_ReadPeriod(void) 
 885:Generated_Source\PSoC5/VSYNC.c **** {
 843              		.loc 1 885 0
 844              		.cfi_startproc
 845              		@ args = 0, pretend = 0, frame = 0
 846              		@ frame_needed = 0, uses_anonymous_args = 0
 847              		@ link register save eliminated.
 886:Generated_Source\PSoC5/VSYNC.c ****     #if(VSYNC_UsingFixedFunction)
 887:Generated_Source\PSoC5/VSYNC.c ****         return ((uint8)CY_GET_REG16(VSYNC_PERIOD_LSB_PTR));
 888:Generated_Source\PSoC5/VSYNC.c ****     #else
 889:Generated_Source\PSoC5/VSYNC.c ****         return (CY_GET_REG8(VSYNC_PERIOD_LSB_PTR));
 848              		.loc 1 889 0
 849 0000 014B     		ldr	r3, .L41
 850 0002 1878     		ldrb	r0, [r3]	@ zero_extendqisi2
 890:Generated_Source\PSoC5/VSYNC.c ****     #endif /* (VSYNC_UsingFixedFunction) */
 891:Generated_Source\PSoC5/VSYNC.c **** }
 851              		.loc 1 891 0
 852 0004 7047     		bx	lr
 853              	.L42:
 854 0006 00BF     		.align	2
 855              	.L41:
 856 0008 4A640040 		.word	1073767498
 857              		.cfi_endproc
 858              	.LFE12:
 859              		.size	VSYNC_ReadPeriod, .-VSYNC_ReadPeriod
 860              		.global	VSYNC_initVar
 861              		.bss
ARM GAS  C:\Users\info\AppData\Local\Temp\cctjqHuZ.s 			page 55


 862              		.set	.LANCHOR0,. + 0
 863              		.type	VSYNC_initVar, %object
 864              		.size	VSYNC_initVar, 1
 865              	VSYNC_initVar:
 866 0000 00       		.space	1
 867              		.text
 868              	.Letext0:
 869              		.file 2 "Generated_Source\\PSoC5\\cytypes.h"