ARM GAS  C:\Users\info\AppData\Local\Temp\ccE8l62R.s 			page 1


   1              		.syntax unified
   2              		.cpu cortex-m3
   3              		.fpu softvfp
   4              		.eabi_attribute 20, 1
   5              		.eabi_attribute 21, 1
   6              		.eabi_attribute 23, 3
   7              		.eabi_attribute 24, 1
   8              		.eabi_attribute 25, 1
   9              		.eabi_attribute 26, 1
  10              		.eabi_attribute 30, 1
  11              		.eabi_attribute 34, 1
  12              		.eabi_attribute 18, 4
  13              		.thumb
  14              		.syntax unified
  15              		.file	"VSYNC_OUT.c"
  16              		.text
  17              	.Ltext0:
  18              		.section	.gnu.lto_.profile.792a78aa,"",%progbits
  19 0000 789C6361 		.ascii	"x\234ca`d`a`\000\222\222\242\000\000\261\0009"
  19      60646061 
  19      60009292 
  19      A20000B1 
  19      0039
  20              		.text
  21              		.section	.gnu.lto_.inline.792a78aa,"",%progbits
  22 0000 789C6361 		.ascii	"x\234ca`d\000\001?\006\004`a`\340\344`d`\342y\020\313"
  22      60640001 
  22      3F060460 
  22      6160E0E4 
  22      606460E2 
  23 0017 C0B6409E 		.ascii	"\300\266@\236\011$\306\310\300\301\016\024\342\232\340"
  23      0924C6C8 
  23      C0C10E14 
  23      E29AE0
  24 0026 07176262 		.ascii	"\007\027bb`c\005\012\261}\320\203\0131c\0121\000\000"
  24      6063050A 
  24      B17DD083 
  24      0B31630A 
  24      310000
  25 0039 537C0835 		.ascii	"S|\0105"
  26              		.text
  27              		.section	.gnu.lto_.jmpfuncs.792a78aa,"",%progbits
  28 0000 789C6361 		.ascii	"x\234ca`d\000\001>\006\004`\001b\240(\023\003\0033\220"
  28      60640001 
  28      3E060460 
  28      0162A028 
  28      13030333 
  29 0015 05000292 		.ascii	"\005\000\002\222\000\036"
  29      001E
  30              		.text
  31              		.section	.gnu.lto_.pureconst.792a78aa,"",%progbits
  32 0000 789C6361 		.ascii	"x\234ca`d\340d```a\220b\224b\222b\226\002\000\002\261"
  32      6064E064 
  32      60606061 
  32      90629462 
  32      92629602 
  33 0017 0081     		.ascii	"\000\201"
ARM GAS  C:\Users\info\AppData\Local\Temp\ccE8l62R.s 			page 2


  34              		.text
  35              		.section	.gnu.lto_VSYNC_OUT_Write.792a78aa,"",%progbits
  36 0000 789C5551 		.ascii	"x\234UQKk\023Q\024>\337\2753\223\364a\376\200Y\024\244"
  36      4B6B1351 
  36      143EDFBD 
  36      3393F461 
  36      FE805914 
  37 0015 968A8820 		.ascii	"\226\212\210 \372\003\354\302\235-\246\012B\240\204"
  37      FA03ECC2 
  37      9D2DA60A 
  37      42A084
  38 0024 741685D6 		.ascii	"t\026\205\326B\233\272\355\235\244I\241\013\351\306"
  38      429BBAED 
  38      9DA449A1 
  38      0BE9C6
  39 0033 5610DB52 		.ascii	"V\020\333R)\251\257>\354\252 8\014\270*\324M@(\242\222"
  39      29A9AF3E 
  39      ECAA2038 
  39      0CB82AD4 
  39      4D4028A2 
  40 0048 C5088210 		.ascii	"\305\010\202\020\305\320Z\037\361\234\231\215=p\037"
  40      C5D05A1F 
  40      F19C998D 
  40      3D701F
  41 0057 73E6FBBE 		.ascii	"s\346\373\276\363\235s-\002I\234SDW\370<\315\013\232"
  41      F39D732D 
  41      02499C53 
  41      4457F83C 
  41      CD0B9A
  42 006a A0E6F789 		.ascii	"\240\346\367\211\274\244\002\344b\222\240i\205i4\325"
  42      BCA402E4 
  42      6292A069 
  42      856934D5 
  43 007a 1F856036 		.ascii	"\037\205`6\334U\275U\303\361imI\233u\037eM\324R\221"
  43      DC55BD55 
  43      C3F1696D 
  43      499B751F 
  43      654DD452 
  44 008f 12A18A5E 		.ascii	"\022\241\212^F}~5[\203>\013\342{%h6:z\326\214)\032\363"
  44      467D7E35 
  44      5B833E0B 
  44      E27B2568 
  44      363A7AD6 
  45 00a7 336B7459 		.ascii	"3ktY\003\353\320\314\300\2454.\246\211\023\204'\350"
  45      03EBD0CC 
  45      C0A5342E 
  45      A6891384 
  45      27E8
  46 00b9 11F0D141 		.ascii	"\021\360\321Am#\245\317G\304y\023\256vv?\026\242\177"
  46      6D23A5CF 
  46      47C47913 
  46      AE76763F 
  46      16A27F
  47 00cc 38B6687C 		.ascii	"8\266h|\257K\270O\377\347J0\264\276\375\367\376)gF\\"
  47      AF4BB84F 
  47      FFE74A30 
  47      B4BEFDF7 
ARM GAS  C:\Users\info\AppData\Local\Temp\ccE8l62R.s 			page 3


  47      FE296746 
  48 00e1 75E119BA 		.ascii	"u\341\031\272c?x\016\207;\204d6o\370\246\325*\031\277"
  48      633F780E 
  48      873B8464 
  48      366FF8A6 
  48      D52A19BF 
  49 00f5 6937759B 		.ascii	"i7u\233\342\242\212;\345\037\026\244\266-\011G\266\204"
  49      E2A28A3B 
  49      E51F16A4 
  49      B62D0947 
  49      B684
  50 0107 6C440D5E 		.ascii	"lD\015^\322\3757\245\344\324!\202\343\271\017\213\011"
  50      D2FD37A5 
  50      E4D42182 
  50      E3B90F8B 
  50      09
  51 0118 D12C6999 		.ascii	"\321,i\231\304B9x\233\370\241\312ZGn\337\274\256?P\361"
  51      C4423978 
  51      9BF8A1CA 
  51      5A476EDF 
  51      BCAE3F50 
  52 012d E7CAAA67 		.ascii	"\347\312\252g,N\355\035,\025S\313x\344\315\360\214,"
  52      2C4EED1D 
  52      2C1553CB 
  52      78E4CDF0 
  52      8C2C
  53 013f 6C208D17 		.ascii	"l \215\027`\317\330\3042(D\351w\345=bA\035k>\374\370"
  53      60CFD8C4 
  53      322844E9 
  53      77E53D62 
  53      411D6B3E 
  54 0155 354C8908 		.ascii	"5L\211\010p\010l1\270\016\025\265\301N\031%\244F%\254"
  54      70086C31 
  54      B80E15B5 
  54      C14E1925 
  54      A44625AC 
  55 0169 B6C52CBB 		.ascii	"\266\305,\273\244\245N\360}\253\332),\033\032\333L\212"
  55      A4A54EF0 
  55      7DABDA29 
  55      2C1B1ADB 
  55      4C8A
  56 017b A46B2A06 		.ascii	"\244k*\006\011\216As\307\357\356%\005d!\211\2271\350"
  56      098E4173 
  56      C7EFEE25 
  56      05642189 
  56      9731E8
  57 018e C8892189 		.ascii	"\310\211!\211\310\200\303\251`!2t\302\274gL\307I\377"
  57      C880C3A9 
  57      60213274 
  57      C2BC674C 
  57      C749FF
  58 01a1 3BEC9F59 		.ascii	";\354\237Y\364\005E\377\227-\204\350!\032\0122+\236"
  58      F40545FF 
  58      972D84E8 
  58      211A0A32 
  58      2B9E
  59 01b3 DC996BEE 		.ascii	"\334\231k\356\035w\"Wp\207\2072\343S\023y7;\220\031"
ARM GAS  C:\Users\info\AppData\Local\Temp\ccE8l62R.s 			page 4


  59      1D772257 
  59      70878732 
  59      E3531379 
  59      373B9019 
  60 01c7 EFBB9CBD 		.ascii	"\357\273\234\275\225\271}\275o\250\377\346\340\205<"
  60      95B97DBD 
  60      6FA8FFE6 
  60      E0853C
  61 01d6 D97773A3 		.ascii	"\331ws\243Sn\373d!W\030\311_\035)L\376\003\252\231\303"
  61      536EFB64 
  61      215718C9 
  61      5F1D294C 
  61      FE03AA99 
  62 01eb 8A       		.ascii	"\212"
  63              		.text
  64              		.section	.gnu.lto_VSYNC_OUT_SetDriveMode.792a78aa,"",%progbits
  65 0000 789C7D51 		.ascii	"x\234}QMK\033Q\024\275\347\275\311L\202\230?\320,\004"
  65      4D4B1B51 
  65      14BDE7BD 
  65      C94C8298 
  65      3FD02C04 
  66 0014 41890B11 		.ascii	"A\211\013\021J\177A\240\356jiT\020\024\021\235\245\206"
  66      4A7F41A0 
  66      EE6A6954 
  66      1014119D 
  66      A586
  67 0026 8A5DE725 		.ascii	"\212]\347%c\020\332M!4\"\"q#~\033\305\225\2738\240K"
  67      6310DA4D 
  67      21342222 
  67      71237E1B 
  67      C595BB38 
  68 003c DD880B17 		.ascii	"\335\210\013\027R\\\244 (\321\266\264\330j\274w\246"
  68      525CA420 
  68      28D1B6B4 
  68      D86ABC77 
  68      A6
  69 004d 8BACFA98 		.ascii	"\213\254\372\230w?\016\347\034\356}c\021H\3167N]\234"
  69      773F0EE7 
  69      1CEE7D63 
  69      1148CE37 
  69      4E5D9C
  70 0060 5FF08526 		.ascii	"_\360\205&\250\317'D\271\250\002\2440QPV!\213\237\352"
  70      A8CF2744 
  70      B9A802A4 
  70      30515056 
  70      218B9FEA 
  71 0074 51C19FAB 		.ascii	"Q\301\237\253\035\250\344\252\341\363\365\350\266\307"
  71      1DA8E4AA 
  71      E1F3F5E8 
  71      B6C7
  72 0082 AC5551D0 		.ascii	"\254UQ\320D\015\0258\021V\221d\326\367\375\225b\213"
  72      440D1538 
  72      11569164 
  72      D6F7FD95 
  72      628B
  73 0094 EE00717D 		.ascii	"\356\000q}wR\277\214w\256\030\2237f~\304\350\202\006"
  73      7752BF8C 
ARM GAS  C:\Users\info\AppData\Local\Temp\ccE8l62R.s 			page 5


  73      77AE1893 
  73      37667EC4 
  73      E88206
  74 00a7 D6A05981 		.ascii	"\326\240Y\201\227\011\364$\210\001\302::\205|\265\367"
  74      9709F424 
  74      8801C23A 
  74      3A857CB5 
  74      F7
  75 00b8 F4A5D59E 		.ascii	"\364\245\325\236\025\373\266\320\024\033\260e\314\312"
  75      15FBB6D0 
  75      141BB065 
  75      CCCA
  76 00c6 BBAA6934 		.ascii	"\273\252i4<S\375e\037>\330-\212eJs\320\226\204\010\304"
  76      3C53FD65 
  76      1F3ED82D 
  76      8A654A73 
  76      D0968408 
  77 00db C196D291 		.ascii	"\301\226\322\221\020\225\020\023\016Q\235\257,r\247"
  77      10951013 
  77      0E519DAF 
  77      2C72A7
  78 00ea 94645D83 		.ascii	"\224d]\203\377\360\261\266h\211\263\247e\251R\301?u"
  78      FFF0B1B6 
  78      6889B3A7 
  78      65A952C1 
  78      3F75
  79 00fc 7EA882B6 		.ascii	"~\250\202\266\302\211\317\256\372\302\256\270\2343\026"
  79      C289CFAE 
  79      FAC2AEB8 
  79      9C3316
  80 010b 23E505BF 		.ascii	"#\345\005\277\030/c)7\313\333F\260\205\0046\221\340"
  80      182F6329 
  80      37CBDB46 
  80      B0850436 
  80      91E0
  81 011d E1B65106 		.ascii	"\341\266Q\006\325\220\277wB7\315\206\334{\177\355\260"
  81      D590BF77 
  81      4237CD86 
  81      DC7B7FED 
  81      B0
  82 012e B71862FD 		.ascii	"\267\030b\375\305\361\247\307\230Xj\274\307\016+\233"
  82      C5F1A7C7 
  82      98586ABC 
  82      C70E2B9B 
  83 013e 24FC459A 		.ascii	"$\374E\232%\016C,\2719\337\334\322\241$\216J \361~\377"
  83      250E432C 
  83      B939DFDC 
  83      D2A1248E 
  83      4A20F17E 
  84 0153 A3440363 		.ascii	"\243D\003c\247\331%\306(\367~\011\322\377o\344]\036"
  84      A7D925C6 
  84      28F77E09 
  84      D2FF6FE4 
  84      5D1E
  85 0165 99F9748D 		.ascii	"\231\371t\215|\365\317ka\007\177\256\256 \257\303o\325"
  85      7CF5CF6B 
  85      61077FAE 
ARM GAS  C:\Users\info\AppData\Local\Temp\ccE8l62R.s 			page 6


  85      AE20AFC3 
  85      6FD5
  86 0177 DEEB4EB9 		.ascii	"\336\353N\271\323c3\356\304h:\363az\334\035~\233\316"
  86      D36333EE 
  86      C4683AF3 
  86      617ADC1D 
  86      7E9BCE
  87 018a A45E0D0F 		.ascii	"\244^\015\017\246\207\336\244F\373\006\372\273\307\311"
  87      A687DEA4 
  87      46FB06FA 
  87      BBC7C9
  88 0199 9ACC4CB8 		.ascii	"\232\314L\270\317>\001\245\222"
  88      CF3E01A5 
  88      92
  89              		.text
  90              		.section	.gnu.lto_VSYNC_OUT_Read.792a78aa,"",%progbits
  91 0000 789C354F 		.ascii	"x\2345O\337+\303Q\024?\237{\277?\226\370\013\354A\311"
  91      DF2BC351 
  91      143F9F7B 
  91      BF3F96F8 
  91      0BEC41C9 
  92 0014 C35EA4A4 		.ascii	"\303^\244\244\344u\305\0332Vj\2654{\265Z<\357n\337\375"
  92      E475C51B 
  92      32566AB5 
  92      347BB55A 
  92      3CEF6EDF 
  93 0029 2879F082 		.ascii	"(y\360\202Z\261\2206\277\302\263\227\331\223(<PJIZ{"
  93      5AB19036 
  93      BFC2B397 
  93      D993283C 
  93      504A495A 
  94 003e F0C49AD4 		.ascii	"\360\304\232\324\302\234\353\313\251{\316\275\347~~"
  94      C29CEBCB 
  94      A97BCEBD 
  94      E77E7E
  95 004d 9C631048 		.ascii	"\234c\020HG\220K\017\327N>\220\004\261|E\224\364\010"
  95      47904B0F 
  95      D74E3E90 
  95      04B17C45 
  95      94F408
  96 0060 405F9407 		.ascii	"@_\224\007\224\020H\340]|\011\\~\234/\265\371\212J\245"
  96      941048E0 
  96      5D7C095C 
  96      7E9C2FB5 
  96      F98A4AA5 
  97 0074 D4D34E73 		.ascii	"\324\323Nsp\255TFF\022\265\004\241\337\213>\257\226"
  97      70AD5446 
  97      4612B504 
  97      A1DF8B3E 
  97      AF96
  98 0086 28C2470C 		.ascii	"(\302G\014}>\371^\351\260\322\212\243K\003\370\247\004"
  98      7D3EF95E 
  98      E9B0D28A 
  98      A34B03F8 
  98      A704
  99 0098 4B5B1E4D 		.ascii	"K[\036M\224U\253\345\250\362\235}vo\333\240\214d_N\006"
  99      9455ABE5 
ARM GAS  C:\Users\info\AppData\Local\Temp\ccE8l62R.s 			page 7


  99      A8F29D7D 
  99      766FDBA0 
  99      8C645F4E 
 100 00ad 2761EA64 		.ascii	"'a\352d\221\226\245W\246\351!\336\204\320U\326Pi.>n"
 100      9196A557 
 100      A6E921DE 
 100      84D055D6 
 100      50692E3E 
 101 00c2 0C692547 		.ascii	"\014i%GJvY\315T\256\355\206\310H\011m\232\333\316\337"
 101      4A7659CD 
 101      54AEED86 
 101      C848096D 
 101      9ADBCEDF 
 102 00d6 C07D6E6E 		.ascii	"\300}nn%\225\301\255|V=X\005\254'\323<\252\201=x\261"
 102      2595C1AD 
 102      7C563D58 
 102      05AC27D3 
 102      3CAA813D 
 103 00ec 0B1E14FB 		.ascii	"\013\036\024\373(\200jp>\207\311\221p\345\362\247\215"
 103      28806A70 
 103      3E87C991 
 103      70E5F2A7 
 103      8D
 104 00fd 0B53F301 		.ascii	"\013S\363\001\017\016\030VC\252\236\273\225\256\241"
 104      0F0E1856 
 104      43AA9EBB 
 104      95AEA1
 105 010c C138CDA8 		.ascii	"\3018\315\250g\253\246\3331\271\311\264J\375\270\330"
 105      67ABA6DB 
 105      31B9C9B4 
 105      4AFDB8D8 
 106 011c AE690212 		.ascii	"\256i\002\022\207\377\264*\\\220\306\321\013\304\337"
 106      87FFB42A 
 106      5C90C6D1 
 106      0BC4DF
 107 012b 8B7E1783 		.ascii	"\213~\027\203^\210\327\353\036\211\316E\3433\363\321"
 107      5E88D7EB 
 107      1E89CE45 
 107      E333F3D1 
 108 013b D97020B6 		.ascii	"\331p \266\020\217DC\343\201\230\177 \024\014L\217\372"
 108      108F4443 
 108      E381987F 
 108      20140C4C 
 108      8FFA
 109 014d C3635393 		.ascii	"\303cS\223\275\021\372\001\365\245{F"
 109      BD11FA01 
 109      F5A57B46 
 110              		.text
 111              		.section	.gnu.lto_VSYNC_OUT_ReadDataReg.792a78aa,"",%progbits
 112 0000 789C354F 		.ascii	"x\2345O\275KBQ\024?\277{\337S\221\352\037\310!\210\006"
 112      BD4B4251 
 112      143FBF7B 
 112      DF5391EA 
 112      1FC82188 
 113 0015 9708A2A1 		.ascii	"\227\010\242\241V\241\266\212,!\020$\3145Aj\366\351"
 113      56A1B68A 
 113      2C211024 
ARM GAS  C:\Users\info\AppData\Local\Temp\ccE8l62R.s 			page 8


 113      CC35416A 
 113      F6E9
 114 0027 D3826868 		.ascii	"\323\202hh\351\203\240\214 \324>\250\346\210L\010\242"
 114      E983A08C 
 114      20D43EA8 
 114      E6884C08 
 114      A2
 115 0038 A01A9A9A 		.ascii	"\240\032\232\232B\304\241\251\304\010\242\262szu\340"
 115      42C4A1A9 
 115      C408A2B2 
 115      737A75E0 
 116 0048 9E73CFBD 		.ascii	"\236s\317\275\277\217s\014\002I\204\270tqm\347\003M"
 116      BF8F730C 
 116      024984B8 
 116      74716DE7 
 116      034D
 117 005a 50CBB744 		.ascii	"P\313\267D)\217\002\344by@I\205$\336\324\227\302\315"
 117      298F02E4 
 117      62794049 
 117      8524DED4 
 117      97C2CD
 118 006d FBD592D7 		.ascii	"\373\325\222\327\237\267\254\264\365\264\233\357_+\224"
 118      9FB7ACB4 
 118      F5B49BEF 
 118      5F2B94
 119 007c 90D5444D 		.ascii	"\220\325DME\350\365\241\307'\022y\370\211\241\225\223"
 119      45E8F5A1 
 119      C7271279 
 119      F889A195 
 119      93
 120 008d EF955657 		.ascii	"\357\225VW\306\342\350\020\000\377\024\340\022\313\243"
 120      C6E2E810 
 120      00FF14E0 
 120      12CBA3
 121 009c B192D56C 		.ascii	"\261\222\325l\332V\351\314{q\357u\203\262\232}9\031"
 121      DA56E9CC 
 121      7B71EF75 
 121      83B29A7D 
 121      3919
 122 00ae 9C9429C9 		.ascii	"\234\224)\311E\"K/L\223!^\225\222\252k(\177,~\027\007"
 122      45224B2F 
 122      4C93215E 
 122      9592AA6B 
 122      287F2C7E 
 123 00c4 44C9D69A 		.ascii	"D\311\326\232]V\263\345;wCe\265\206\230^\236W\326\225"
 123      5D56B3E5 
 123      3B774365 
 123      B586985E 
 123      9E57D695 
 124 00d8 D36EEFA4 		.ascii	"\323n\357\244,CF~\334J\267\345\260\231\312\360\250\006"
 124      2C43467E 
 124      DC4AB7E5 
 124      B099CAF0 
 124      A806
 125 00ea F6E04311 		.ascii	"\366\340C\021<(\366\221\003\325`\177\016\222\255\341"
 125      3C28F691 
 125      03D5607F 
ARM GAS  C:\Users\info\AppData\Local\Temp\ccE8l62R.s 			page 9


 125      0E92ADE1 
 126 00fa C86D9C36 		.ascii	"\310m\2346\256M\341\003\036\0340\254\206t}\341A;\206"
 126      AE4DE103 
 126      1E1C30AC 
 126      86747DE1 
 126      413B86
 127 010d 06E38451 		.ascii	"\006\343\204Q\237\257\232\316\213\311\217L+\327\217"
 127      9FAF9ACE 
 127      8BC98F4C 
 127      2BD78F
 128 011c F32D4253 		.ascii	"\363-BS\3208\374\247U\341\200\004G\317P\177\035\375"
 128      D038FCA7 
 128      55E18004 
 128      47CF507F 
 128      1DFD
 129 012e 2E065988 		.ascii	".\006Y\210\327\353\034\212\315\304\022S\263\261\351"
 129      D7EB1C8A 
 129      CDC41253 
 129      B3B1E9
 130 013d 48303E97 		.ascii	"H0>\227\210\306\302\243\301x\240/\034\012N\016\007\""
 130      88C6C2A3 
 130      C178A02F 
 130      1C0A4E0E 
 130      0722
 131 014f 2313E3DD 		.ascii	"#\023\343\335Q\372\001$\025{\301"
 131      51FA0124 
 131      157BC1
 132              		.text
 133              		.section	.gnu.lto_.symbol_nodes.792a78aa,"",%progbits
 134 0000 789C6361 		.ascii	"x\234ca`dpc\000\002&\206z\006\206\011\347\030@\324\252"
 134      60647063 
 134      00022686 
 134      7A068609 
 134      E71840D4 
 135 0015 0645A000 		.ascii	"\006E\240\000c=#\252\000S=\023\252\000s=3\212\000\003"
 135      633D23AA 
 135      00533D13 
 135      AA00733D 
 135      338A0003 
 136 0029 001ED60E 		.ascii	"\000\036\326\016\374"
 136      FC
 137              		.text
 138              		.section	.gnu.lto_.refs.792a78aa,"",%progbits
 139 0000 789C6361 		.ascii	"x\234ca`\004B \000\000\0009\000\007"
 139      60044220 
 139      00000039 
 139      0007
 140              		.text
 141              		.section	.gnu.lto_.decls.792a78aa,"",%progbits
 142 0000 789C8D92 		.ascii	"x\234\215\222]HTA\024\307\347\334{wWn\233\206\224\010"
 142      5D485441 
 142      14C7E7DC 
 142      7B77576E 
 142      9B869408 
 143 0014 DD87CD5E 		.ascii	"\335\207\315^\244\207%\211\300\207\276@\311^\322\360"
 143      A4872589 
 143      C087BE40 
ARM GAS  C:\Users\info\AppData\Local\Temp\ccE8l62R.s 			page 10


 143      C95ED2F0 
 144 0024 2B024156 		.ascii	"+\002AV\275\230/\032\333\032\370\022\223k`I\240\204"
 144      BD982F1A 
 144      DB1AF812 
 144      936B6049 
 144      A084
 145 0036 8AF6A125 		.ascii	"\212\366\241%\344\367W\272\246k\352\226f\021\011\231"
 145      E4F757BA 
 145      A66BEA96 
 145      66110999 
 146 0046 108581D6 		.ascii	"\020\205\201\326\326\203%a\270\005>\230\235\231\275"
 146      D6832561 
 146      B8053E98 
 146      9D99BD
 147 0055 EBBDD606 		.ascii	"\353\275\326\006\036\230;sf\316\377w\316\234\271\022"
 147      1E983B73 
 147      66CEFF77 
 147      CE9CB912 
 148 0065 01C2ECA8 		.ascii	"\001\302\354\250DH+\316\012\272\033h&\\g\023\335\360"
 148      44482BCE 
 148      0ABA1B68 
 148      265C6713 
 148      DDF0
 149 0077 980CE0F0 		.ascii	"\230\014\340\360\340\030\306\341%\377\032;7k\272\036"
 149      E018C6E1 
 149      25FF1A3B 
 149      376BBA1E 
 150 0087 C6C23181 		.ascii	"\306\3021\201c\014G\232\026\003Z\334\337\346\011\243"
 150      630C479A 
 150      16035ADC 
 150      DFE609A3 
 151 0097 F519F421 		.ascii	"\365\031\364!\255'\214\226\325c2\350\322\302\350\206"
 151      AD278C96 
 151      D56332E8 
 151      D2C2E886 
 152 00a7 C3E8BCDB 		.ascii	"\303\350\274\333\320\205\273\347\272\000\356O_\233#"
 152      D085BBE7 
 152      BA00EE4F 
 152      5F9B23
 153 00b6 E6E13D00 		.ascii	"\346\341=\000\001nD\353#a;\332\314\026\020t\204\020"
 153      016E44EB 
 153      23613BDA 
 153      CC161074 
 153      8410
 154 00c8 0F36C9DA 		.ascii	"\0176\311\332\202\207\003\021x<\030\016\266\304\361"
 154      82870311 
 154      783C180E 
 154      B6C4F1
 155 00d7 37E1A66F 		.ascii	"7\341\246o\301\246\205\"a+\224Qu\027}A\027\030xZ\365"
 155      C1A68522 
 155      612B9451 
 155      75177D41 
 155      1718785A 
 156 00ec 5A7E30A6 		.ascii	"Z~0\246\345h1t\351\325[\253~\253\210L\\/\254\265\235"
 156      E5683174 
 156      E9D55BAB 
 156      7EAB884C 
ARM GAS  C:\Users\info\AppData\Local\Temp\ccE8l62R.s 			page 11


 156      5C2FACB5 
 157 0101 B47751B4 		.ascii	"\264wQ\264jJ\205\003zgz\257~n\217\010\010\240\310\260"
 157      6A4A8503 
 157      7A677AAF 
 157      7E6E8F08 
 157      08A0C8B0 
 158 0115 01CC5F1E 		.ascii	"\001\314_\036Y\333\031\364\331qC\215\377\367\016q/["
 158      59DB19F4 
 158      D971438D 
 158      FFF70E71 
 158      2F5B
 159 0127 0B73FECE 		.ascii	"\013s\376\316%\011\342\345\007\014\263x\263\377\330"
 159      2509E2E5 
 159      070CB378 
 159      B3FFD8
 160 0136 08A5BBA0 		.ascii	"\010\245\273\240\007d\350\002\021\332\301\316*Pd\374"
 160      0764E802 
 160      11DAC1CE 
 160      2A5064FC 
 161 0146 56525A4E 		.ascii	"VRZNW\356Ss,\201C\012\034T\010tC<c\262(\350\004\005"
 161      57EE5373 
 161      2C81430A 
 161      1C540874 
 161      433C63B2 
 162 015e 3A4061FC 		.ascii	":@a\374/\365M\337\314\022\266\233s\362$\2667[\321w["
 162      2FF54DDF 
 162      CC12B69B 
 162      73F224B6 
 162      375BD177 
 163 0173 C412A265 		.ascii	"\304\022\242e\220\320\3751\323\350\217Dw\267\0146t\273"
 163      90D0FD31 
 163      D3E88F44 
 163      77B70C36 
 163      74BB
 164 0185 BC1F96CD 		.ascii	"\274\037\226\315\261u\374*nj\223 ;\006\372\021\330\207"
 164      B175FC2A 
 164      6E6A9320 
 164      3B06FA11 
 164      D887
 165 0197 40020F21 		.ascii	"@\002\017!\026\277\275 \005o7\265\360\246\311\024\327"
 165      16BFBD20 
 165      056F37B5 
 165      F0A6C914 
 165      D7
 166 01a8 4C9BFBE8 		.ascii	"L\233\373\350b\375\364\221:7}\201:\033\013\2036\275"
 166      62FDF491 
 166      3A377D81 
 166      3A1B0B83 
 166      36BD
 167 01ba 685CB2A9 		.ascii	"h\\\262\251\025\346\261\241\003\020\207\312\266\356"
 167      15E6B1A1 
 167      031087CA 
 167      B6EE
 168 01c8 958FB258 		.ascii	"\225\217\262X\310\233pg\370\325\270\034\244\370\002"
 168      C89B7067 
 168      F8D5B81C 
 168      A4F802
ARM GAS  C:\Users\info\AppData\Local\Temp\ccE8l62R.s 			page 12


 169 01d7 D3565A7D 		.ascii	"\323VZ}\205\322\023\2341\2503\006\215\014\017gL\275"
 169      85D2139C 
 169      31A83306 
 169      8D0C0F67 
 169      4CBD
 170 01e9 FBD52289 		.ascii	"\373\325\"\211\2279\343u\3253w\224\261lv_\275\356G\274"
 170      9739E375 
 170      D5337794 
 170      B16C765F 
 170      BDEE47BC 
 171 01fd EE3CADEC 		.ascii	"\356<\255\354\273\201\216QQK8\367\\l\240\276\012\324"
 171      BB818E51 
 171      514B38F7 
 171      5C6CA0BE 
 171      0AD4
 172 020f 092C0A86 		.ascii	"\011,\012\206\364\224C\306\224\303<e\323\340L\207E\274"
 172      F49443C6 
 172      94C33C65 
 172      D3E04C87 
 172      45BC
 173 0221 013CE7E4 		.ascii	"\001<\347\344\317@\225E\303x_\206\352f\220\021\0352"
 173      CF409545 
 173      C3785F86 
 173      EA669011 
 173      1D32
 174 0233 62847839 		.ascii	"b\204x9$P\261\372\326,\343#\272\267\367\2103K\3676,"
 174      2450B1FA 
 174      D62CE323 
 174      BAB7F788 
 174      334BF736 
 175 0248 620B4F2A 		.ascii	"b\013O*\014\3246\324Z@\216\017#\037\017#\327~\246\265"
 175      0CD436D4 
 175      5A408E0F 
 175      231F0F23 
 175      D77EA6B5 
 176 025c CC9A6BEC 		.ascii	"\314\232k\354\206c\330\225\307zq\243 \007;\322\376}"
 176      8663D895 
 176      C77A71A3 
 176      20073BD2 
 176      FE7D
 177 026e D207D6EB 		.ascii	"\322\007\326\353\354\277\302\366E\237\342\201z\373&"
 177      ECBFC2F6 
 177      459FE281 
 177      7AFB26
 178 027d C0CAFF7F 		.ascii	"\300\312\377\177\234\327\005qj\256wB\006Y\001<\207J"
 178      9CD70571 
 178      6AAE7742 
 178      0659013C 
 178      874A
 179 028f 9660A5DC 		.ascii	"\226`\245\334P\007\001\037\303\302\023<~\212\362F\312"
 179      5007011F 
 179      C3C2133C 
 179      7E8AF246 
 179      CA
 180 02a0 6266816F 		.ascii	"bf\201osg\3458_\363OTv\306\271\324\244\334\264\254\314"
 180      7367E538 
 180      5FF34F54 
ARM GAS  C:\Users\info\AppData\Local\Temp\ccE8l62R.s 			page 13


 180      76C6B9D4 
 180      A4DCB4AC 
 181 02b5 DCB3CE22 		.ascii	"\334\263\316\"\227\032\221\222\232eKJH \246\322\242"
 181      971A9192 
 181      9A654B4A 
 181      4820A6D2 
 181      A2
 182 02c6 6257E2BE 		.ascii	"bW\342\276\024\265Xu:\\jAnFI\2513_\3159\223Q\222t8'"
 182      14B55875 
 182      3A5C6A41 
 182      6E4649A9 
 182      335FCD39 
 183 02e0 BFCC5576 		.ascii	"\277\314UvA\275h?O\366\377'b\223k\317'1z\222\014\325"
 183      41BD683F 
 183      4FF6FF27 
 183      62936BCF 
 183      27317A92 
 184 02f6 95EC2CBA 		.ascii	"\225\354,\272\244\236.)P#\365\355t\325Q\260g\253\233"
 184      A49E2E29 
 184      5023F5ED 
 184      74D551B0 
 184      67AB9B
 185 0309 EC7039D2 		.ascii	"\354p9\322\325B\311\251\026&\376\001QFf\213"
 185      D542C9A9 
 185      1626FE01 
 185      5146668B 
 186              		.text
 187              		.section	.gnu.lto_.symtab.792a78aa,"",%progbits
 188 0000 5653594E 		.ascii	"VSYNC_OUT_Write\000"
 188      435F4F55 
 188      545F5772 
 188      69746500 
 189 0010 00       		.ascii	"\000"
 190 0011 00       		.ascii	"\000"
 191 0012 00       		.ascii	"\000"
 192 0013 00000000 		.ascii	"\000\000\000\000\000\000\000\000"
 192      00000000 
 193 001b B3000000 		.ascii	"\263\000\000\000"
 194 001f 5653594E 		.ascii	"VSYNC_OUT_SetDriveMode\000"
 194      435F4F55 
 194      545F5365 
 194      74447269 
 194      76654D6F 
 195 0036 00       		.ascii	"\000"
 196 0037 00       		.ascii	"\000"
 197 0038 00       		.ascii	"\000"
 198 0039 00000000 		.ascii	"\000\000\000\000\000\000\000\000"
 198      00000000 
 199 0041 B5000000 		.ascii	"\265\000\000\000"
 200 0045 5653594E 		.ascii	"VSYNC_OUT_Read\000"
 200      435F4F55 
 200      545F5265 
 200      616400
 201 0054 00       		.ascii	"\000"
 202 0055 00       		.ascii	"\000"
 203 0056 00       		.ascii	"\000"
 204 0057 00000000 		.ascii	"\000\000\000\000\000\000\000\000"
ARM GAS  C:\Users\info\AppData\Local\Temp\ccE8l62R.s 			page 14


 204      00000000 
 205 005f B8000000 		.ascii	"\270\000\000\000"
 206 0063 5653594E 		.ascii	"VSYNC_OUT_ReadDataReg\000"
 206      435F4F55 
 206      545F5265 
 206      61644461 
 206      74615265 
 207 0079 00       		.ascii	"\000"
 208 007a 00       		.ascii	"\000"
 209 007b 00       		.ascii	"\000"
 210 007c 00000000 		.ascii	"\000\000\000\000\000\000\000\000"
 210      00000000 
 211 0084 BA000000 		.ascii	"\272\000\000\000"
 212              		.text
 213              		.section	.gnu.lto_.opts,"",%progbits
 214 0000 272D666D 		.ascii	"'-fmath-errno' '-fsigned-zeros' '-ftrapping-math' '"
 214      6174682D 
 214      6572726E 
 214      6F272027 
 214      2D667369 
 215 0033 2D666E6F 		.ascii	"-fno-trapv' '-fno-strict-overflow' '-fno-openmp' '-"
 215      2D747261 
 215      70762720 
 215      272D666E 
 215      6F2D7374 
 216 0066 666E6F2D 		.ascii	"fno-openacc' '-mcpu=cortex-m3' '-mthumb' '-g' '-Og'"
 216      6F70656E 
 216      61636327 
 216      20272D6D 
 216      6370753D 
 217 0099 20272D66 		.ascii	" '-ffunction-sections' '-ffat-lto-objects' '-flto'\000"
 217      66756E63 
 217      74696F6E 
 217      2D736563 
 217      74696F6E 
 218              		.text
 219              		.cfi_sections	.debug_frame
 220              		.section	.text.VSYNC_OUT_Write,"ax",%progbits
 221              		.align	2
 222              		.global	VSYNC_OUT_Write
 223              		.thumb
 224              		.thumb_func
 225              		.type	VSYNC_OUT_Write, %function
 226              	VSYNC_OUT_Write:
 227              	.LFB0:
 228              		.file 1 "Generated_Source\\PSoC5\\VSYNC_OUT.c"
   1:Generated_Source\PSoC5/VSYNC_OUT.c **** /*******************************************************************************
   2:Generated_Source\PSoC5/VSYNC_OUT.c **** * File Name: VSYNC_OUT.c  
   3:Generated_Source\PSoC5/VSYNC_OUT.c **** * Version 2.20
   4:Generated_Source\PSoC5/VSYNC_OUT.c **** *
   5:Generated_Source\PSoC5/VSYNC_OUT.c **** * Description:
   6:Generated_Source\PSoC5/VSYNC_OUT.c **** *  This file contains API to enable firmware control of a Pins component.
   7:Generated_Source\PSoC5/VSYNC_OUT.c **** *
   8:Generated_Source\PSoC5/VSYNC_OUT.c **** * Note:
   9:Generated_Source\PSoC5/VSYNC_OUT.c **** *
  10:Generated_Source\PSoC5/VSYNC_OUT.c **** ********************************************************************************
  11:Generated_Source\PSoC5/VSYNC_OUT.c **** * Copyright 2008-2015, Cypress Semiconductor Corporation.  All rights reserved.
ARM GAS  C:\Users\info\AppData\Local\Temp\ccE8l62R.s 			page 15


  12:Generated_Source\PSoC5/VSYNC_OUT.c **** * You may use this file only in accordance with the license, terms, conditions, 
  13:Generated_Source\PSoC5/VSYNC_OUT.c **** * disclaimers, and limitations in the end user license agreement accompanying 
  14:Generated_Source\PSoC5/VSYNC_OUT.c **** * the software package with which this file was provided.
  15:Generated_Source\PSoC5/VSYNC_OUT.c **** *******************************************************************************/
  16:Generated_Source\PSoC5/VSYNC_OUT.c **** 
  17:Generated_Source\PSoC5/VSYNC_OUT.c **** #include "cytypes.h"
  18:Generated_Source\PSoC5/VSYNC_OUT.c **** #include "VSYNC_OUT.h"
  19:Generated_Source\PSoC5/VSYNC_OUT.c **** 
  20:Generated_Source\PSoC5/VSYNC_OUT.c **** /* APIs are not generated for P15[7:6] on PSoC 5 */
  21:Generated_Source\PSoC5/VSYNC_OUT.c **** #if !(CY_PSOC5A &&\
  22:Generated_Source\PSoC5/VSYNC_OUT.c **** 	 VSYNC_OUT__PORT == 15 && ((VSYNC_OUT__MASK & 0xC0) != 0))
  23:Generated_Source\PSoC5/VSYNC_OUT.c **** 
  24:Generated_Source\PSoC5/VSYNC_OUT.c **** 
  25:Generated_Source\PSoC5/VSYNC_OUT.c **** /*******************************************************************************
  26:Generated_Source\PSoC5/VSYNC_OUT.c **** * Function Name: VSYNC_OUT_Write
  27:Generated_Source\PSoC5/VSYNC_OUT.c **** ****************************************************************************//**
  28:Generated_Source\PSoC5/VSYNC_OUT.c **** *
  29:Generated_Source\PSoC5/VSYNC_OUT.c **** * \brief Writes the value to the physical port (data output register), masking
  30:Generated_Source\PSoC5/VSYNC_OUT.c **** *  and shifting the bits appropriately. 
  31:Generated_Source\PSoC5/VSYNC_OUT.c **** *
  32:Generated_Source\PSoC5/VSYNC_OUT.c **** * The data output register controls the signal applied to the physical pin in 
  33:Generated_Source\PSoC5/VSYNC_OUT.c **** * conjunction with the drive mode parameter. This function avoids changing 
  34:Generated_Source\PSoC5/VSYNC_OUT.c **** * other bits in the port by using the appropriate method (read-modify-write or
  35:Generated_Source\PSoC5/VSYNC_OUT.c **** * bit banding).
  36:Generated_Source\PSoC5/VSYNC_OUT.c **** *
  37:Generated_Source\PSoC5/VSYNC_OUT.c **** * <b>Note</b> This function should not be used on a hardware digital output pin 
  38:Generated_Source\PSoC5/VSYNC_OUT.c **** * as it is driven by the hardware signal attached to it.
  39:Generated_Source\PSoC5/VSYNC_OUT.c **** *
  40:Generated_Source\PSoC5/VSYNC_OUT.c **** * \param value
  41:Generated_Source\PSoC5/VSYNC_OUT.c **** *  Value to write to the component instance.
  42:Generated_Source\PSoC5/VSYNC_OUT.c **** *
  43:Generated_Source\PSoC5/VSYNC_OUT.c **** * \return 
  44:Generated_Source\PSoC5/VSYNC_OUT.c **** *  None 
  45:Generated_Source\PSoC5/VSYNC_OUT.c **** *
  46:Generated_Source\PSoC5/VSYNC_OUT.c **** * \sideeffect
  47:Generated_Source\PSoC5/VSYNC_OUT.c **** *  If you use read-modify-write operations that are not atomic; the Interrupt 
  48:Generated_Source\PSoC5/VSYNC_OUT.c **** *  Service Routines (ISR) can cause corruption of this function. An ISR that 
  49:Generated_Source\PSoC5/VSYNC_OUT.c **** *  interrupts this function and performs writes to the Pins component data 
  50:Generated_Source\PSoC5/VSYNC_OUT.c **** *  register can cause corrupted port data. To avoid this issue, you should 
  51:Generated_Source\PSoC5/VSYNC_OUT.c **** *  either use the Per-Pin APIs (primary method) or disable interrupts around 
  52:Generated_Source\PSoC5/VSYNC_OUT.c **** *  this function.
  53:Generated_Source\PSoC5/VSYNC_OUT.c **** *
  54:Generated_Source\PSoC5/VSYNC_OUT.c **** * \funcusage
  55:Generated_Source\PSoC5/VSYNC_OUT.c **** *  \snippet VSYNC_OUT_SUT.c usage_VSYNC_OUT_Write
  56:Generated_Source\PSoC5/VSYNC_OUT.c **** *******************************************************************************/
  57:Generated_Source\PSoC5/VSYNC_OUT.c **** void VSYNC_OUT_Write(uint8 value)
  58:Generated_Source\PSoC5/VSYNC_OUT.c **** {
 229              		.loc 1 58 0
 230              		.cfi_startproc
 231              		@ args = 0, pretend = 0, frame = 0
 232              		@ frame_needed = 0, uses_anonymous_args = 0
 233              		@ link register save eliminated.
 234              	.LVL0:
  59:Generated_Source\PSoC5/VSYNC_OUT.c ****     uint8 staticBits = (VSYNC_OUT_DR & (uint8)(~VSYNC_OUT_MASK));
 235              		.loc 1 59 0
 236 0000 044A     		ldr	r2, .L2
 237 0002 1378     		ldrb	r3, [r2]	@ zero_extendqisi2
ARM GAS  C:\Users\info\AppData\Local\Temp\ccE8l62R.s 			page 16


 238 0004 03F0F703 		and	r3, r3, #247
 239              	.LVL1:
  60:Generated_Source\PSoC5/VSYNC_OUT.c ****     VSYNC_OUT_DR = staticBits | ((uint8)(value << VSYNC_OUT_SHIFT) & VSYNC_OUT_MASK);
 240              		.loc 1 60 0
 241 0008 C000     		lsls	r0, r0, #3
 242              	.LVL2:
 243 000a 00F00800 		and	r0, r0, #8
 244 000e 1843     		orrs	r0, r0, r3
 245 0010 1070     		strb	r0, [r2]
 246 0012 7047     		bx	lr
 247              	.L3:
 248              		.align	2
 249              	.L2:
 250 0014 20510040 		.word	1073762592
 251              		.cfi_endproc
 252              	.LFE0:
 253              		.size	VSYNC_OUT_Write, .-VSYNC_OUT_Write
 254              		.section	.text.VSYNC_OUT_SetDriveMode,"ax",%progbits
 255              		.align	2
 256              		.global	VSYNC_OUT_SetDriveMode
 257              		.thumb
 258              		.thumb_func
 259              		.type	VSYNC_OUT_SetDriveMode, %function
 260              	VSYNC_OUT_SetDriveMode:
 261              	.LFB1:
  61:Generated_Source\PSoC5/VSYNC_OUT.c **** }
  62:Generated_Source\PSoC5/VSYNC_OUT.c **** 
  63:Generated_Source\PSoC5/VSYNC_OUT.c **** 
  64:Generated_Source\PSoC5/VSYNC_OUT.c **** /*******************************************************************************
  65:Generated_Source\PSoC5/VSYNC_OUT.c **** * Function Name: VSYNC_OUT_SetDriveMode
  66:Generated_Source\PSoC5/VSYNC_OUT.c **** ****************************************************************************//**
  67:Generated_Source\PSoC5/VSYNC_OUT.c **** *
  68:Generated_Source\PSoC5/VSYNC_OUT.c **** * \brief Sets the drive mode for each of the Pins component's pins.
  69:Generated_Source\PSoC5/VSYNC_OUT.c **** * 
  70:Generated_Source\PSoC5/VSYNC_OUT.c **** * <b>Note</b> This affects all pins in the Pins component instance. Use the
  71:Generated_Source\PSoC5/VSYNC_OUT.c **** * Per-Pin APIs if you wish to control individual pin's drive modes.
  72:Generated_Source\PSoC5/VSYNC_OUT.c **** *
  73:Generated_Source\PSoC5/VSYNC_OUT.c **** * \param mode
  74:Generated_Source\PSoC5/VSYNC_OUT.c **** *  Mode for the selected signals. Valid options are documented in 
  75:Generated_Source\PSoC5/VSYNC_OUT.c **** *  \ref driveMode.
  76:Generated_Source\PSoC5/VSYNC_OUT.c **** *
  77:Generated_Source\PSoC5/VSYNC_OUT.c **** * \return
  78:Generated_Source\PSoC5/VSYNC_OUT.c **** *  None
  79:Generated_Source\PSoC5/VSYNC_OUT.c **** *
  80:Generated_Source\PSoC5/VSYNC_OUT.c **** * \sideeffect
  81:Generated_Source\PSoC5/VSYNC_OUT.c **** *  If you use read-modify-write operations that are not atomic, the ISR can
  82:Generated_Source\PSoC5/VSYNC_OUT.c **** *  cause corruption of this function. An ISR that interrupts this function 
  83:Generated_Source\PSoC5/VSYNC_OUT.c **** *  and performs writes to the Pins component Drive Mode registers can cause 
  84:Generated_Source\PSoC5/VSYNC_OUT.c **** *  corrupted port data. To avoid this issue, you should either use the Per-Pin
  85:Generated_Source\PSoC5/VSYNC_OUT.c **** *  APIs (primary method) or disable interrupts around this function.
  86:Generated_Source\PSoC5/VSYNC_OUT.c **** *
  87:Generated_Source\PSoC5/VSYNC_OUT.c **** * \funcusage
  88:Generated_Source\PSoC5/VSYNC_OUT.c **** *  \snippet VSYNC_OUT_SUT.c usage_VSYNC_OUT_SetDriveMode
  89:Generated_Source\PSoC5/VSYNC_OUT.c **** *******************************************************************************/
  90:Generated_Source\PSoC5/VSYNC_OUT.c **** void VSYNC_OUT_SetDriveMode(uint8 mode)
  91:Generated_Source\PSoC5/VSYNC_OUT.c **** {
 262              		.loc 1 91 0
ARM GAS  C:\Users\info\AppData\Local\Temp\ccE8l62R.s 			page 17


 263              		.cfi_startproc
 264              		@ args = 0, pretend = 0, frame = 0
 265              		@ frame_needed = 0, uses_anonymous_args = 0
 266              		@ link register save eliminated.
 267              	.LVL3:
  92:Generated_Source\PSoC5/VSYNC_OUT.c **** 	CyPins_SetPinDriveMode(VSYNC_OUT_0, mode);
 268              		.loc 1 92 0
 269 0000 044A     		ldr	r2, .L5
 270 0002 1378     		ldrb	r3, [r2]	@ zero_extendqisi2
 271 0004 03F0F103 		and	r3, r3, #241
 272 0008 00F00E00 		and	r0, r0, #14
 273              	.LVL4:
 274 000c 1843     		orrs	r0, r0, r3
 275 000e 1070     		strb	r0, [r2]
 276 0010 7047     		bx	lr
 277              	.L6:
 278 0012 00BF     		.align	2
 279              	.L5:
 280 0014 13500040 		.word	1073762323
 281              		.cfi_endproc
 282              	.LFE1:
 283              		.size	VSYNC_OUT_SetDriveMode, .-VSYNC_OUT_SetDriveMode
 284              		.section	.text.VSYNC_OUT_Read,"ax",%progbits
 285              		.align	2
 286              		.global	VSYNC_OUT_Read
 287              		.thumb
 288              		.thumb_func
 289              		.type	VSYNC_OUT_Read, %function
 290              	VSYNC_OUT_Read:
 291              	.LFB2:
  93:Generated_Source\PSoC5/VSYNC_OUT.c **** }
  94:Generated_Source\PSoC5/VSYNC_OUT.c **** 
  95:Generated_Source\PSoC5/VSYNC_OUT.c **** 
  96:Generated_Source\PSoC5/VSYNC_OUT.c **** /*******************************************************************************
  97:Generated_Source\PSoC5/VSYNC_OUT.c **** * Function Name: VSYNC_OUT_Read
  98:Generated_Source\PSoC5/VSYNC_OUT.c **** ****************************************************************************//**
  99:Generated_Source\PSoC5/VSYNC_OUT.c **** *
 100:Generated_Source\PSoC5/VSYNC_OUT.c **** * \brief Reads the associated physical port (pin status register) and masks 
 101:Generated_Source\PSoC5/VSYNC_OUT.c **** *  the required bits according to the width and bit position of the component
 102:Generated_Source\PSoC5/VSYNC_OUT.c **** *  instance. 
 103:Generated_Source\PSoC5/VSYNC_OUT.c **** *
 104:Generated_Source\PSoC5/VSYNC_OUT.c **** * The pin's status register returns the current logic level present on the 
 105:Generated_Source\PSoC5/VSYNC_OUT.c **** * physical pin.
 106:Generated_Source\PSoC5/VSYNC_OUT.c **** *
 107:Generated_Source\PSoC5/VSYNC_OUT.c **** * \return 
 108:Generated_Source\PSoC5/VSYNC_OUT.c **** *  The current value for the pins in the component as a right justified number.
 109:Generated_Source\PSoC5/VSYNC_OUT.c **** *
 110:Generated_Source\PSoC5/VSYNC_OUT.c **** * \funcusage
 111:Generated_Source\PSoC5/VSYNC_OUT.c **** *  \snippet VSYNC_OUT_SUT.c usage_VSYNC_OUT_Read  
 112:Generated_Source\PSoC5/VSYNC_OUT.c **** *******************************************************************************/
 113:Generated_Source\PSoC5/VSYNC_OUT.c **** uint8 VSYNC_OUT_Read(void)
 114:Generated_Source\PSoC5/VSYNC_OUT.c **** {
 292              		.loc 1 114 0
 293              		.cfi_startproc
 294              		@ args = 0, pretend = 0, frame = 0
 295              		@ frame_needed = 0, uses_anonymous_args = 0
 296              		@ link register save eliminated.
ARM GAS  C:\Users\info\AppData\Local\Temp\ccE8l62R.s 			page 18


 115:Generated_Source\PSoC5/VSYNC_OUT.c ****     return (VSYNC_OUT_PS & VSYNC_OUT_MASK) >> VSYNC_OUT_SHIFT;
 297              		.loc 1 115 0
 298 0000 024B     		ldr	r3, .L8
 299 0002 1878     		ldrb	r0, [r3]	@ zero_extendqisi2
 116:Generated_Source\PSoC5/VSYNC_OUT.c **** }
 300              		.loc 1 116 0
 301 0004 C0F3C000 		ubfx	r0, r0, #3, #1
 302 0008 7047     		bx	lr
 303              	.L9:
 304 000a 00BF     		.align	2
 305              	.L8:
 306 000c 21510040 		.word	1073762593
 307              		.cfi_endproc
 308              	.LFE2:
 309              		.size	VSYNC_OUT_Read, .-VSYNC_OUT_Read
 310              		.section	.text.VSYNC_OUT_ReadDataReg,"ax",%progbits
 311              		.align	2
 312              		.global	VSYNC_OUT_ReadDataReg
 313              		.thumb
 314              		.thumb_func
 315              		.type	VSYNC_OUT_ReadDataReg, %function
 316              	VSYNC_OUT_ReadDataReg:
 317              	.LFB3:
 117:Generated_Source\PSoC5/VSYNC_OUT.c **** 
 118:Generated_Source\PSoC5/VSYNC_OUT.c **** 
 119:Generated_Source\PSoC5/VSYNC_OUT.c **** /*******************************************************************************
 120:Generated_Source\PSoC5/VSYNC_OUT.c **** * Function Name: VSYNC_OUT_ReadDataReg
 121:Generated_Source\PSoC5/VSYNC_OUT.c **** ****************************************************************************//**
 122:Generated_Source\PSoC5/VSYNC_OUT.c **** *
 123:Generated_Source\PSoC5/VSYNC_OUT.c **** * \brief Reads the associated physical port's data output register and masks 
 124:Generated_Source\PSoC5/VSYNC_OUT.c **** *  the correct bits according to the width and bit position of the component 
 125:Generated_Source\PSoC5/VSYNC_OUT.c **** *  instance. 
 126:Generated_Source\PSoC5/VSYNC_OUT.c **** *
 127:Generated_Source\PSoC5/VSYNC_OUT.c **** * The data output register controls the signal applied to the physical pin in 
 128:Generated_Source\PSoC5/VSYNC_OUT.c **** * conjunction with the drive mode parameter. This is not the same as the 
 129:Generated_Source\PSoC5/VSYNC_OUT.c **** * preferred VSYNC_OUT_Read() API because the 
 130:Generated_Source\PSoC5/VSYNC_OUT.c **** * VSYNC_OUT_ReadDataReg() reads the data register instead of the status 
 131:Generated_Source\PSoC5/VSYNC_OUT.c **** * register. For output pins this is a useful function to determine the value 
 132:Generated_Source\PSoC5/VSYNC_OUT.c **** * just written to the pin.
 133:Generated_Source\PSoC5/VSYNC_OUT.c **** *
 134:Generated_Source\PSoC5/VSYNC_OUT.c **** * \return 
 135:Generated_Source\PSoC5/VSYNC_OUT.c **** *  The current value of the data register masked and shifted into a right 
 136:Generated_Source\PSoC5/VSYNC_OUT.c **** *  justified number for the component instance.
 137:Generated_Source\PSoC5/VSYNC_OUT.c **** *
 138:Generated_Source\PSoC5/VSYNC_OUT.c **** * \funcusage
 139:Generated_Source\PSoC5/VSYNC_OUT.c **** *  \snippet VSYNC_OUT_SUT.c usage_VSYNC_OUT_ReadDataReg 
 140:Generated_Source\PSoC5/VSYNC_OUT.c **** *******************************************************************************/
 141:Generated_Source\PSoC5/VSYNC_OUT.c **** uint8 VSYNC_OUT_ReadDataReg(void)
 142:Generated_Source\PSoC5/VSYNC_OUT.c **** {
 318              		.loc 1 142 0
 319              		.cfi_startproc
 320              		@ args = 0, pretend = 0, frame = 0
 321              		@ frame_needed = 0, uses_anonymous_args = 0
 322              		@ link register save eliminated.
 143:Generated_Source\PSoC5/VSYNC_OUT.c ****     return (VSYNC_OUT_DR & VSYNC_OUT_MASK) >> VSYNC_OUT_SHIFT;
 323              		.loc 1 143 0
 324 0000 024B     		ldr	r3, .L11
ARM GAS  C:\Users\info\AppData\Local\Temp\ccE8l62R.s 			page 19


 325 0002 1878     		ldrb	r0, [r3]	@ zero_extendqisi2
 144:Generated_Source\PSoC5/VSYNC_OUT.c **** }
 326              		.loc 1 144 0
 327 0004 C0F3C000 		ubfx	r0, r0, #3, #1
 328 0008 7047     		bx	lr
 329              	.L12:
 330 000a 00BF     		.align	2
 331              	.L11:
 332 000c 20510040 		.word	1073762592
 333              		.cfi_endproc
 334              	.LFE3:
 335              		.size	VSYNC_OUT_ReadDataReg, .-VSYNC_OUT_ReadDataReg
 336              		.text
 337              	.Letext0:
 338              		.file 2 "Generated_Source\\PSoC5\\cytypes.h"