ARM GAS  C:\Users\info\AppData\Local\Temp\ccShSrVg.s 			page 1


   1              		.syntax unified
   2              		.cpu cortex-m3
   3              		.fpu softvfp
   4              		.eabi_attribute 20, 1
   5              		.eabi_attribute 21, 1
   6              		.eabi_attribute 23, 3
   7              		.eabi_attribute 24, 1
   8              		.eabi_attribute 25, 1
   9              		.eabi_attribute 26, 1
  10              		.eabi_attribute 30, 4
  11              		.eabi_attribute 34, 1
  12              		.eabi_attribute 18, 4
  13              		.thumb
  14              		.syntax unified
  15              		.file	"Col_2.c"
  16              		.text
  17              	.Ltext0:
  18              		.section	.gnu.lto_.profile.bf15226f,"",%progbits
  19 0000 789C6361 		.ascii	"x\234ca`d`a`\000\222\222\242\000\000\261\0009"
  19      60646061 
  19      60009292 
  19      A20000B1 
  19      0039
  20              		.text
  21              		.section	.gnu.lto_.icf.bf15226f,"",%progbits
  22 0000 789C6361 		.ascii	"x\234ca`d\000\001)\006\004`ax5\365\355[N\306\203\313"
  22      60640001 
  22      29060460 
  22      617835F5 
  22      ED5B4EC6 
  23 0016 DF4E6762 		.ascii	"\337Ngb:\260\373\310m.\346/\313\216\035\340`\000\000"
  23      3AB0FBC8 
  23      6D2EE62F 
  23      CB8E1DE0 
  23      600000
  24 0029 B0EE0CC6 		.ascii	"\260\356\014\306"
  25              		.text
  26              		.section	.gnu.lto_.jmpfuncs.bf15226f,"",%progbits
  27 0000 789C6361 		.ascii	"x\234ca`d\000\001!\006\004`a`dd\254g\004\021L\014\014"
  27      60640001 
  27      21060460 
  27      61606464 
  27      AC670411 
  28 0017 CC401100 		.ascii	"\314@\021\000\016\"\001&"
  28      0E220126 
  29              		.text
  30              		.section	.gnu.lto_.inline.bf15226f,"",%progbits
  31 0000 789C6361 		.ascii	"x\234ca`d\000\201$\006\004`a`\340\344`dd\340\000J1s"
  31      60640081 
  31      24060460 
  31      6160E0E4 
  31      606464E0 
  32 0018 1CB06360 		.ascii	"\034\260c`[ \317\304\300\262@\236\005$\013\024g\307"
  32      5B20CFC4 
  32      C0B2409E 
  32      05240B14 
  32      67C7
ARM GAS  C:\Users\info\AppData\Local\Temp\ccShSrVg.s 			page 2


  33 002a 9064BAC0 		.ascii	"\220d\272\300\017\226db`ced`b\373\240\007\021\007\002"
  33      0F966462 
  33      60636564 
  33      6062FBA0 
  33      07110702 
  34 003e 664C2106 		.ascii	"fL!\006\000\346\332\011\346"
  34      00E6DA09 
  34      E6
  35              		.text
  36              		.section	.gnu.lto_.pureconst.bf15226f,"",%progbits
  37 0000 789C6361 		.ascii	"x\234ca`d\340d```a\220b\224b\222b\226\002\000\002\261"
  37      6064E064 
  37      60606061 
  37      90629462 
  37      92629602 
  38 0017 0081     		.ascii	"\000\201"
  39              		.text
  40              		.section	.gnu.lto_Col_2_Write.bf15226f,"",%progbits
  41 0000 789C5551 		.ascii	"x\234UQMKTa\024>\317\373\336\017\277\012\367\016(\202"
  41      4D4B5461 
  41      143ECFFB 
  41      DE0FBF0A 
  41      F70E2882 
  42 0014 982D248C 		.ascii	"\230-$\214\376@.\332Jn\007d\030\357B\260\006tl\353{"
  42      FE402EDA 
  42      4A6E0764 
  42      18EF42B0 
  42      06746CEB 
  43 0029 9D0FC195 		.ascii	"\235\017\301\225\233\024A\023&\304\257\322\321VQ\213"
  43      9B144113 
  43      26C4AFD2 
  43      D156518B 
  44 0039 CB5D1614 		.ascii	"\313]\026\024\201\233>\010qq\205\0265\222C\222\326t"
  44      819B3E08 
  44      71718516 
  44      35924392 
  44      D674
  45 004b CEBD2EF2 		.ascii	"\316\275.\362\300\373q\317}\236\347<\347\274\026\201"
  45      C0FB71CF 
  45      7D9EE73C 
  45      E7BC1681 
  46 005b 246E2AA2 		.ascii	"$n*\242\001>;xA\023\324\374;\"\277I\001r1M\240i\205"
  46      013E3B78 
  46      4113D4FC 
  46      3B22BF49 
  46      0172314D 
  47 0072 69D4D51F 		.ascii	"i\324\325\037\205p6z\251\372\326\015\307\341\332\023"
  47      8570367A 
  47      A9FAD60D 
  47      C7E1DA13 
  48 0082 6D360294 		.ascii	"m6\002\2244QC\305J\204u\3641\352\370\365\354\001t7\210"
  48      345143C5 
  48      4A8475F4 
  48      31EAF8F5 
  48      EC017437 
  49 0097 EFE5B05E 		.ascii	"\357\345\260^k\355]3f\306\230\223\264\321%\015l@3\003"
  49      6BED5D33 
ARM GAS  C:\Users\info\AppData\Local\Temp\ccShSrVg.s 			page 3


  49      66C69893 
  49      B4D1250D 
  49      6C403303 
  50 00ab B753B895 		.ascii	"\267S\270\225\"N\0206\321+\340\263O\007;\327\365\215"
  50      224E1036 
  50      D12BE0B3 
  50      4F073BD7 
  50      F58D
  51 00bd 98386FA2 		.ascii	"\2308o\242J[\317S!\006\277\036,\232\300\357\022\356"
  51      4A5BCF53 
  51      2106BF1E 
  51      2C9AC0EF 
  51      12EE
  52 00cf D6FF5C09 		.ascii	"\326\377\\\011\206\036\355\375}|\315)\212\253.l\243"
  52      861EEDFD 
  52      7D7CCD29 
  52      8AAB2E6C 
  52      A3
  53 00e0 27F18367 		.ascii	"'\361\203gp\270CHf\367~`\032\215\202\011\352v]7+.\252"
  53      70B84348 
  53      66F77E60 
  53      1A8D8209 
  53      EA765D37 
  54 00f7 B853FE61 		.ascii	"\270S\376aAj\333\222pdse#\252\361\222\356O\224\222S"
  54      416ADB92 
  54      70647365 
  54      23AAF192 
  54      EE4F9492 
  55 010c 47087FCF 		.ascii	"G\010\177\317}]tE\263\240e\022\013\245\360\275{\252"
  55      7D5D7445 
  55      B3A06512 
  55      0BA5F0BD 
  55      7BAA
  56 011e 4A5AC76E 		.ascii	"JZ\307n?~^\372\356$\237\325\212o,N\035\316-\237\273"
  56      3F7E5EFA 
  56      EE249FD5 
  56      8A6F2C4E 
  56      1DCE2D9F 
  57 0133 AB58F18B 		.ascii	"\253X\361\213<#\013;H\3419\3303v\261\012\212P\270(\177"
  57      3C230B3B 
  57      48E139D8 
  57      3376B10A 
  57      8A50B828 
  58 0148 4122A813 		.ascii	"A\"\250\023\315\312\233\225\260ED\200\037@\225\301G"
  58      CDCA9B95 
  58      B0454480 
  58      1F4095C1 
  58      47
  59 0159 50711BEC 		.ascii	"Pq\033\354\224QB\252\225\243\343K\033vAK\235\017\305"
  59      945142AA 
  59      95A3E34B 
  59      1B76414B 
  59      9D0FC5
  60 016c EAB21696 		.ascii	"\352\262\026\226\015\013{L\212\245O/\245\005\307\240"
  60      0D0B7B4C 
  60      8AA54F2F 
  60      A505C7A0 
ARM GAS  C:\Users\info\AppData\Local\Temp\ccShSrVg.s 			page 4


  61 017c 573F2FDE 		.ascii	"W?/\336*\001Yh\307~\002:s\022\210\033\033p8\025.\304"
  61      2A015968 
  61      C77E023A 
  61      7312881B 
  61      1B703815 
  62 0192 AC2BE67D 		.ascii	"\254+\346}cZ\257\372\177\301\376\231E\3370\023\234\333"
  62      635AAFFA 
  62      7FC1FE99 
  62      45DF3013 
  62      9CDB
  63 01a4 42881FA2 		.ascii	"B\210\037\242\246 \263\342\311u\336\363\036z\023\231"
  63      A620B3E2 
  63      C975DEF3 
  63      1E7A1399 
  64 01b4 BC373A32 		.ascii	"\2747:2\234\233\232\310z\351\241\341\334\340\235\364"
  64      9C9B9AC8 
  64      7AE9A1E1 
  64      DCE09DF4 
  65 01c4 606E7C64 		.ascii	"`n|d\240?K\366\243\314\370\224\3272\231\317\344\307"
  65      A03F4BF6 
  65      A3CCF894 
  65      D73299CF 
  65      E4C7
  66 01d6 B277C7F2 		.ascii	"\262w\307\362\223\377\000\352\332\302\335"
  66      93FF00EA 
  66      DAC2DD
  67              		.text
  68              		.section	.gnu.lto_Col_2_SetDriveMode.bf15226f,"",%progbits
  69 0000 789C7D51 		.ascii	"x\234}QM+DQ\030~\237s\356\334;\223\314\0370E\026d#\221"
  69      4D2B4451 
  69      187E9F73 
  69      EEDC3B93 
  69      CC1F3045 
  70 0018 5FA0D8CA 		.ascii	"_\240\330\312l\247$\356\016\023\261vf\306\244\260P\242"
  70      6CA724EE 
  70      0E13B176 
  70      66C6A4B0 
  70      50A2
  71 002a 84D8C8F7 		.ascii	"\204\330\310\367WV\026jL\261\244,,,\220\305$E\343+\362"
  71      5756166A 
  71      4CB1A42C 
  71      2C2C90C5 
  71      2445E32B 
  72 003f 35DEF75E 		.ascii	"5\336\367^\213Y9\335\363~<=\317\323\373\236k\021H\316"
  72      8B5939DD 
  72      F37E3C3D 
  72      CFD3FB9E 
  72      6B1148CE 
  73 0053 2DA72ACE 		.ascii	"-\247*\316e|\241\011j\342\204(\021T\200\024&\010\032"
  73      657CA109 
  73      6AE28428 
  73      11548014 
  73      26081A
  74 0066 5218C2AB 		.ascii	"R\030\302\253\372V\310\216\344\366U\315\262\341s}\364"
  74      FA56C88E 
  74      E4F655CD 
  74      B2E1737D 
ARM GAS  C:\Users\info\AppData\Local\Temp\ccShSrVg.s 			page 5


  74      F4
  75 0077 50675632 		.ascii	"PgV2Hk\242\202\362\234\010\313\250a\326\363\336\322"
  75      486BA282 
  75      F29C08CB 
  75      A861D6F3 
  75      DED2
  76 0089 6489AE04 		.ascii	"d\211\256\004q\375x\222\277\014W/\031\2234\246\0203"
  76      71FD7892 
  76      BF0C572F 
  76      199334A6 
  76      1033
  77 009b 3AAD8115 		.ascii	":\255\201\025hV\240!\202\272\0101@XE\265\220ov\177\246"
  77      6856A021 
  77      82BA0831 
  77      405845B5 
  77      906F767F 
  78 00b0 4AED61B1 		.ascii	"J\355a\261\257\360M\261\006[\306\334n\313\230B!e2o\366"
  78      AFF04DB1 
  78      065BC6DC 
  78      6ECB9842 
  78      2165326F 
  79 00c5 E1875DA2 		.ascii	"\341\207]\242X\2464\007mI\010@\034l)\035\011A\011!\341"
  79      58A63407 
  79      6D490840 
  79      1C6C291D 
  79      09410921 
  80 00da 10E5F9CA 		.ascii	"\020\345\371\312\"\217JI\3269d?Fs\263\2268\247\264,"
  80      228F4A49 
  80      D639643F 
  80      4673B396 
  80      38A7B42C 
  81 00ee 359DCE9E 		.ascii	"5\235\316\236:/*\255-o\342\347\263\231\203\260\337\316"
  81      3A2F2AAD 
  81      2D6FE2E7 
  81      B39983B0 
  81      DFCE
  82 0100 2D268CC5 		.ascii	"-&\214\305\320\370\325\354\221Z\300|b\230\327\015`\003"
  82      D0F8D5EC 
  82      915AC07C 
  82      6298D70D 
  82      6003
  83 0112 11AC23C2 		.ascii	"\021\254#\302\323mb\001\224C\362\311\361\3554;r\237"
  83      D36D6201 
  83      9443F2C9 
  83      F1ED343B 
  83      729F
  84 0124 FAB2FDDE 		.ascii	"\372\262\375\336b\210\365\027\307c\337!\261\324\350"
  84      6288F517 
  84      C763DF21 
  84      B1D4E8
  85 0133 C3162B8B 		.ascii	"\303\026+\213$\374\005\212%\016C,\271?_\337\320\276"
  85      24FC058A 
  85      250E432C 
  85      B93F5FDF 
  85      D0BE
  86 0145 248C6D4F 		.ascii	"$\214mO\222z\377\243\004=c\247\330%\304(\367\331iH\377"
  86      927AFFA3 
ARM GAS  C:\Users\info\AppData\Local\Temp\ccShSrVg.s 			page 6


  86      043D63A7 
  86      D825C428 
  86      F7D96948 
  87 015a DFC83B3C 		.ascii	"\337\310;<2\363\351\016\311\314g\263\260\275_\227W\220"
  87      32F3E90E 
  87      C9CC67B3 
  87      B0BD5F97 
  87      5790
  88 016c E7E1C72A 		.ascii	"\347\341\307*oq{\335\376\216\001\267\253=\032\037\354"
  88      6F717BDD 
  88      FE8E01B7 
  88      AB3D1A1F 
  88      EC
  89 017d EF7463AD 		.ascii	"\357tc\255\321xSc\254)\336\335^_\333IVO\274\313\375"
  89      D1785363 
  89      AC29DEDD 
  89      5E5FDB49 
  89      564FBCCB 
  90 0192 052E1EA5 		.ascii	"\005.\036\245S"
  90      53
  91              		.text
  92              		.section	.gnu.lto_Col_2_Read.bf15226f,"",%progbits
  93 0000 789C354F 		.ascii	"x\2345O\315K\002Q\020\237\337{\353\256\024E\367\204"
  93      CD4B0251 
  93      109FDF7B 
  93      EBAE1445 
  93      F784
  94 0012 EAE825A2 		.ascii	"\352\350%\242\010\242\253P\327H\350$H\330\336\"A\352"
  94      08A2AB50 
  94      D748E824 
  94      48D8DE22 
  94      41EA
  95 0024 ECAEEB16 		.ascii	"\354\256\353\026D\207.\325%\023\202\320\276(\377\003"
  95      44872ED5 
  95      251382D0 
  95      BE28FF03 
  96 0034 F3141445 		.ascii	"\363\024\024EE\020\024\022!\006\235L\214@*\233\347\326"
  96      45101412 
  96      21069D4C 
  96      8C402A9B 
  96      E7D6
  97 0046 C09B796F 		.ascii	"\300\233yo\336\357cF#\220\212\031.\003\\{\371@\022\304"
  97      DEEF6346 
  97      23908A19 
  97      2E035C7B 
  97      F94012C4 
  98 005a FA1591ED 		.ascii	"\372\025\221\355\027\200\272X~PR \211\017\361-p\361"
  98      1780BA58 
  98      7E505220 
  98      890FF12D 
  98      70F1
  99 006c 79BED611 		.ascii	"y\276\326\021\314YV\312z\336k\216m\345\213p%QK\020F"
  99      CC5956CA 
  99      7ADE6B8E 
  99      6DE58B70 
  99      25514B10 
 100 0081 02180A28 		.ascii	"\002\030\012(\211\034\202\304\320\227\302\317F\227\236"
ARM GAS  C:\Users\info\AppData\Local\Temp\ccShSrVg.s 			page 7


 100      891C82C4 
 100      D097C2CF 
 100      46979E
 101 0090 B638FA15 		.ascii	"\2668\372\025\200\177\362\320\225\345\311t\321j\265"
 101      807FF2D0 
 101      95E5C974 
 101      D16AB5
 102 009f 1CAB786F 		.ascii	"\034\253xo\234=\030\006\310\225\354\313I\343$|*\351"
 102      9C3D1806 
 102      C895ECCB 
 102      49E3247C 
 102      2AE9
 103 00b1 A464A9C6 		.ascii	"\244d\251\30645\304\273\020\252\312*J\315\325\362\316"
 103      3435C4BB 
 103      10AACA2A 
 103      4ACDD5F2 
 103      CE
 104 00c2 B85272A4 		.ascii	"\270Rr\244d\227M\267tm4\204+%\224i\352\265\374\330\351"
 104      64974DB7 
 104      746D3484 
 104      2B259469 
 104      EAB5FCD8 
 105 00d7 3D0BBBB6 		.ascii	"=\013\273\266\245q\313\265\357\236\272\263\310\330i"
 105      A571CBB5 
 105      EF9EBAB3 
 105      C8D869
 106 00e6 1E55C301 		.ascii	"\036U\303\001\002\330\007\017\212CdAU8_\023\344Hxr\267"
 106      02D8070F 
 106      8A436441 
 106      55385F13 
 106      E4487872 
 107 00fb B5CB4C9B 		.ascii	"\265\313L\233\017\364\340\210aU\244\352+\015\341\031"
 107      0FF4E088 
 107      6155A4EA 
 107      2B0DE119 
 108 010b 6A8C538C 		.ascii	"j\214S\214\372rE\363:>n2\355&}\272-\025M@\303\361?\255"
 108      FA7245F3 
 108      3A3E6E32 
 108      ED267DBA 
 108      2D154D40 
 109 0123 020FA470 		.ascii	"\002\017\244p\364\206?\021\235\332\213A-\304\353\365"
 109      F4863F11 
 109      9DDA8B41 
 109      2DC4EBF5 
 110 0133 4D9A0B66 		.ascii	"M\232\013fbv\321\234\213\206\343K\211\230\031\231\012"
 110      6276D19C 
 110      8B86E34B 
 110      89981999 
 110      0A
 111 0144 C743A391 		.ascii	"\307C\243\221P|>:<\030\243_\267\232z\277"
 111      507C3E3A 
 111      3C18A35F 
 111      B79A7ABF 
 112              		.text
 113              		.section	.gnu.lto_Col_2_ReadDataReg.bf15226f,"",%progbits
 114 0000 789C354F 		.ascii	"x\2345O\315KBA\020\237\337\356\363)F\320=\241:z\211"
 114      CD4B4241 
ARM GAS  C:\Users\info\AppData\Local\Temp\ccShSrVg.s 			page 8


 114      109FDFEE 
 114      F32946D0 
 114      3DA13A7A 
 115 0015 283AD455 		.ascii	"(:\324U\250k$t\022$\354\335\"A\352\354\352\363\025H"
 115      A86B2474 
 115      1224ECDD 
 115      2241EAEC 
 115      EAF31548 
 116 0029 872E1581 		.ascii	"\207.\025\201!\004\241\366A\366\007\004\346)(\372\272"
 116      2104A1F6 
 116      41F60704 
 116      E62928FA 
 116      BA
 117 003a 451709F1 		.ascii	"E\027\011\361\320!L\214\240\017m\266W\003;\263;\373"
 117      D0214C8C 
 117      A00F6DB6 
 117      57033BB3 
 117      3BFB
 118 004c FB983108 		.ascii	"\373\2301\010\244c\216\313\020\327~>\220\004\261qM\224"
 118      A4638ECB 
 118      10D77E3E 
 118      9004B171 
 118      4D94
 119 005e F209405F 		.ascii	"\362\011@_\224\017\224\024H\342M|\013\\\276_\254\373"
 119      940F9414 
 119      48E24D7C 
 119      0B5CBE5F 
 119      ACFB
 120 0070 8305A5D2 		.ascii	"\203\005\245\322\252\266_\230\330.V\340H\242\256 \214"
 120      AAB65F98 
 120      D82E56E0 
 120      48A2AE20 
 120      8C
 121 0081 053012D0 		.ascii	"\0050\022\320\022\005\004\211\241O\247\235\315^3\243"
 121      12050489 
 121      A14FA79D 
 121      CD5E33A3 
 122 0091 38063580 		.ascii	"8\0065\200\177\2120\265\345\311lEu\273\266\252\234\371"
 122      7F8A30B5 
 122      E5C96C45 
 122      75BBB6AA 
 122      9CF9
 123 00a3 CF6FFD5E 		.ascii	"\317o\375^\220#\331\227\223\301Ixt2I\313R\223iz\210"
 123      9023D997 
 123      93C14978 
 123      743249CB 
 123      5293697A 
 124 00b8 57217495 		.ascii	"W!t\225\015T?\262\235\322\244V\262\245d\227-\247z\343"
 124      0D543FB2 
 124      9DD2A456 
 124      B2A56497 
 124      2DA77AE3 
 125 00cc 6D0B474A 		.ascii	"m\013GJh\323\207\307\235\027\323}\226\367R\312\340V"
 125      68D387C7 
 125      9D17D37D 
 125      96F752CA 
 125      E056
ARM GAS  C:\Users\info\AppData\Local\Temp\ccShSrVg.s 			page 9


 126 00de 2D9BFBF4 		.ascii	"-\233\373\364\346\261\233\312\360\250\006\016\020@\011"
 126      E6B19BCA 
 126      F0A8060E 
 126      104009
 127 00ed 3C280E91 		.ascii	"<(\016\221\0075`\177M\221-\341\312\3357\257v{4\037\350"
 127      0735607F 
 127      4D912DE1 
 127      CADD37AF 
 127      767B341F 
 128 0102 C311C31A 		.ascii	"\303\021\303\032H\267\326\332\30254\030\247\031\255"
 128      48B7D6DA 
 128      C2353418 
 128      A719AD
 129 0111 D5BAE176 		.ascii	"\325\272\341v<\334d\332]\246\234\223\232&`\340\370\237"
 129      3CDC64DA 
 129      5DA69C93 
 129      9A2660E0 
 129      F89F
 130 0123 56870BD2 		.ascii	"V\207\013\3228z\306\237\210I\277\213A/\304\353\015L"
 130      387AC69F 
 130      8849BF8B 
 130      412FC4EB 
 130      0D4C
 131 0135 5B4B5662 		.ascii	"[KVb~\331Z\210\206\343+\211\230\025\231\011\307C\343"
 131      7ED95A88 
 131      86E32B89 
 131      98159909 
 131      C743E3
 132 0148 91507C31 		.ascii	"\221P|1::\034\243\037\223@z\326"
 132      3A3A1CA3 
 132      1F93407A 
 132      D6
 133              		.text
 134              		.section	.gnu.lto_.symbol_nodes.bf15226f,"",%progbits
 135 0000 789C6361 		.ascii	"x\234ca`dpc\000\002&\206z\006\206\011\347\030@\324\256"
 135      60647063 
 135      00022686 
 135      7A068609 
 135      E71840D4 
 136 0015 0645A000 		.ascii	"\006E\240\000c=#\252\000S=\023\252\000s=3\212\000\003"
 136      633D23AA 
 136      00533D13 
 136      AA00733D 
 136      338A0003 
 137 0029 0026B60F 		.ascii	"\000&\266\017<"
 137      3C
 138              		.text
 139              		.section	.gnu.lto_.refs.bf15226f,"",%progbits
 140 0000 789C6361 		.ascii	"x\234ca`\004B \000\000\0009\000\007"
 140      60044220 
 140      00000039 
 140      0007
 141              		.text
 142              		.section	.gnu.lto_.decls.bf15226f,"",%progbits
 143 0000 789C8D53 		.ascii	"x\234\215S]HTA\024\236s\357\335]\271\232\232D\371\260"
 143      5D485441 
 143      149E73EF 
ARM GAS  C:\Users\info\AppData\Local\Temp\ccShSrVg.s 			page 10


 143      DD5DB99A 
 143      9A44F9B0 
 144 0014 94F9E493 		.ascii	"\224\371\344\223d\022\370T\201\222Oeh\331\213\260\370"
 144      6412F854 
 144      81924F65 
 144      68D98BB0 
 144      F8
 145 0025 732921DC 		.ascii	"s)!\334\330\326\300\207`P#\263\"\305,5ES\310\337tS\327"
 145      D8D6C087 
 145      605023B3 
 145      22C52C35 
 145      4553C8DF 
 146 003c 56B35C4B 		.ascii	"V\263\\K3B\313\0370DBA}\260\014\224\244\222\260\355"
 146      3342CB1F 
 146      30444241 
 146      7DB00C94 
 146      A492B0ED 
 147 0050 CCDCBB7B 		.ascii	"\314\334\273{\267\332\300\341\236\231sf\316\367\315"
 147      B7DAC0E1 
 147      9E997366 
 147      CEF7CD
 148 005f 77CECE4A 		.ascii	"w\316\316J\004\010\033\031\022!\025\270\2321\364\340"
 148      04081B19 
 148      122115B8 
 148      9A31F4E0 
 149 006f 30A09F4E 		.ascii	"0\240\237N\364\201\307\244\007\315\211\346B\033 \377"
 149      F481C7A4 
 149      07CD89E6 
 149      421B20FF 
 150 007f 0E766ED4 		.ascii	"\016vn\324p\235\214\013m\030m\010-E\313\001-\357\357"
 150      709D8C0B 
 150      6D186D08 
 150      2D45CB01 
 150      2DEFEF
 151 0092 E10C801D 		.ascii	"\341\014\200\035\361\303{\261\316\000X\246\307\340\207"
 151      F1C37BB1 
 151      CE0058A6 
 151      C7E087
 152 00a1 4B098073 		.ascii	"K\011\200s\005\300\015\354\000\027\250\316m\001\\\245"
 152      05C00DEC 
 152      0017A8CE 
 152      6D015CA5 
 153 00b1 55DFC2E6 		.ascii	"U\337\302\346a\016\004\320\032H\000\324\031\270\021"
 153      610E04D0 
 153      1A4800D4 
 153      19B811
 154 00c0 D578888E 		.ascii	"\325x\210\216\300g\342\333\362-\304\227\242\271:\031"
 154      C067E2DB 
 154      F22DC497 
 154      A2B93A19 
 155 00d0 FFBCABC7 		.ascii	"\377\274\253\307;8\211\316\016\032\010|\0124\237\237"
 155      3B3889CE 
 155      0E1A087C 
 155      0A349F9F 
 156 00e0 0BFA05A0 		.ascii	"\013\372\005\240\206^\200\037\237*\327O\023\374Y\023"
 156      865E801F 
 156      9F2AD74F 
ARM GAS  C:\Users\info\AppData\Local\Temp\ccShSrVg.s 			page 11


 156      13FC5913 
 157 00f0 788B767E 		.ascii	"x\213v~\030j\012\023\261b\364\027\266ZN\304vP\034e\224"
 157      186A0A13 
 157      B162F417 
 157      B65A4EC4 
 157      76501C65 
 158 0105 0AFBF5CE 		.ascii	"\012\373\365\316t][n\015\332\024\300,\203\007X\274\326"
 158      745D5B6E 
 158      0DDA14C0 
 158      2C830758 
 158      BCD6
 159 0117 BFB54B8D 		.ascii	"\277\265K\215\331qu\371\322\257`q\037\363\205\231\245"
 159      D97175F9 
 159      D2AF6071 
 159      1FF38599 
 159      A5
 160 0128 F6550962 		.ascii	"\366U\011b\344G\214f\361\247\343h?\245\341\320\0112"
 160      E4478C66 
 160      F1A7E368 
 160      3FA5E1D0 
 160      0932
 161 013a 748008AD 		.ascii	"t\200\010\255\020\313.7\3138\227PZH\327\033\2511\222"
 161      10CB2E37 
 161      CB389750 
 161      5A48D71B 
 161      A93192
 162 014d 40BC190E 		.ascii	"@\274\031\016\231\011<\206\030\306\311\262\240\035\314"
 162      99093C86 
 162      18C6C9B2 
 162      A01DCC
 163 015c D00666C6 		.ascii	"\320\006f\306\277r\277\376\263Q\022\020\310x\262$\266"
 163      BF72BFFE 
 163      B3511210 
 163      C878B224 
 163      B6
 164 016d 37EAF9EE 		.ascii	"7\352\371\356\016C\011\0212\010\030N\257\217\327\005"
 164      0E430911 
 164      3208184E 
 164      AF8FD705 
 165 017d 63B84786 		.ascii	"c\270G\206p\014\337\335\235\233\206\310{L\003-\242Q"
 165      700CDFDD 
 165      9D9B86C8 
 165      7B4C032D 
 165      A251
 166 018f 02A4EF85 		.ascii	"\002\244\357\205'H\350@B\002\335\020\211s\027Hju\343"
 166      2748E840 
 166      4202DD10 
 166      89731748 
 166      6A75E3
 167 01a2 15CDDDA6 		.ascii	"\025\315\335\246\350\006\332\340\240\213\236\225\370"
 167      E806DAE0 
 167      A08B9E95 
 167      F8
 168 01af 6AEA2E44 		.ascii	"j\352.D\230\300\322\240E\027\215.[\232a\036[\331\003"
 168      98C0D2A0 
 168      45178D2E 
 168      5B9A611E 
ARM GAS  C:\Users\info\AppData\Local\Temp\ccShSrVg.s 			page 12


 168      5BD903
 169 01c2 D1886C29 		.ascii	"\321\210l)Y\330\010\023-\274\011\245\025\357]\222\312"
 169      59D80813 
 169      2DBC09A5 
 169      15EF5D92 
 169      CA
 170 01d3 E2DE7C1D 		.ascii	"\342\336|\035B'\221\3438\347\350\3259z\3759\234\234"
 170      422791E3 
 170      38E7E8D5 
 170      397AFD39 
 170      9C9C
 171 01e5 636DED53 		.ascii	"cm\355S\273I\264q\216\272\262\246\266`\177\331\254^"
 171      BB49B471 
 171      8EBAB2A6 
 171      B6607FD9 
 171      AC5E
 172 01f7 5DF753AE 		.ascii	"]\367S\256;K\223\335\270|\333\241\311v\317\214\211>"
 172      3B4B93DD 
 172      B87CDBA1 
 172      C976CF8C 
 172      893E
 173 0209 D998057D 		.ascii	"\331\230\005}\372\225}\376W\272\370\225\327o\215\326"
 173      FA957DFE 
 173      57BAF895 
 173      D76F8DD6 
 174 0219 9BC4ABFC 		.ascii	"\233\304\253\374\312\233[c\037\2034\226\201\267^\331"
 174      CA9B5B63 
 174      1F833496 
 174      81B75ED9 
 175 0229 8CA35FE7 		.ascii	"\214\243_\347\350\367\347\030\340\034S\305\216ZQ\355"
 175      E8F7E718 
 175      E01C53C5 
 175      8E5A51ED 
 176 0239 BF84E1C6 		.ascii	"\277\204\341\306D\315R\250\332\377(\0147\213\277\316"
 176      44CD52A8 
 176      DAFF280C 
 176      378BBFCE 
 177 0249 1AE51256 		.ascii	"\032\345\022V\305\216~\341\211\325\207\036\223x\007"
 177      C58E7EE1 
 177      89D5871E 
 177      937807
 178 0258 F813EAA9 		.ascii	"\370\023\352\251\254\2564\201\034\023\000\356\016\000"
 178      ACAE3481 
 178      1C1300EE 
 178      0E00
 179 0266 D75EDA8F 		.ascii	"\327^\332\2173\3457X\371C\330\262\027\272\364\347 \253"
 179      33E53758 
 179      F943D8B2 
 179      17BAF4E7 
 179      20AB
 180 0278 EDEA9DFC 		.ascii	"\355\352\235\374\322e\010)e\217\256\254\210F\274\011"
 180      D2650829 
 180      658FAEAC 
 180      8846BC09 
 181 0288 E5998348 		.ascii	"\345\231\203H\362\2147w\030B\370\277\003\327mA\034\234"
 181      F28C3777 
 181      1842F8BF 
ARM GAS  C:\Users\info\AppData\Local\Temp\ccShSrVg.s 			page 13


 181      03D76D41 
 181      1C9C
 182 029a 7D502BE2 		.ascii	"}P+\342\031\373\344\032\212R\350\024\300\010\222\361"
 182      19FBE41A 
 182      8A52E814 
 182      C00892F1 
 183 02aa 60FD18F7 		.ascii	"`\375\030\367\3316]/\244\306\252P\257D\302\017\010\274"
 183      D9365D2F 
 183      A4C6AA50 
 183      AF44C20F 
 183      08BC
 184 02bc 44E42B24 		.ascii	"D\344+$\346ap\242\365\242\345\260\345\234-\327\256\004"
 184      E66170A2 
 184      F5A2E5B0 
 184      E59C2DD7 
 184      AE04
 185 02ce 259F3A1B 		.ascii	"%\237:\033\225\030\027G\014\371\271y\366\204\203\311"
 185      95181747 
 185      0CF9B979 
 185      F68483C9 
 186 02de 4A9E62CB 		.ascii	"J\236b\313\264+9\2264k\276-[\3118\235fM<\222\221]`/"
 186      B42B3996 
 186      346BBE2D 
 186      5BC9389D 
 186      664D3C92 
 187 02f6 B8A45C8E 		.ascii	"\270\244\\\216\275@\016\374'\203s\306f\223\010\225<"
 187      BD400EFC 
 187      278373C6 
 187      66930895 
 187      3C
 188 0307 4DB127D9 		.ascii	"M\261'\331r\257('\2559\212\254n\245*\2319\273u7)\323"
 188      72AF2827 
 188      AD398AAC 
 188      6EA52A99 
 188      39BB7537 
 189 031d 9E99AA9C 		.ascii	"\236\231\252\234\227l\312\371\204\337\207\302k\356"
 189      976CCAF9 
 189      84DF87C2 
 189      6BEE
 190              		.text
 191              		.section	.gnu.lto_.symtab.bf15226f,"",%progbits
 192 0000 436F6C5F 		.ascii	"Col_2_Write\000"
 192      325F5772 
 192      69746500 
 193 000c 00       		.ascii	"\000"
 194 000d 00       		.ascii	"\000"
 195 000e 00       		.ascii	"\000"
 196 000f 00000000 		.ascii	"\000\000\000\000\000\000\000\000"
 196      00000000 
 197 0017 B3000000 		.ascii	"\263\000\000\000"
 198 001b 436F6C5F 		.ascii	"Col_2_SetDriveMode\000"
 198      325F5365 
 198      74447269 
 198      76654D6F 
 198      646500
 199 002e 00       		.ascii	"\000"
 200 002f 00       		.ascii	"\000"
ARM GAS  C:\Users\info\AppData\Local\Temp\ccShSrVg.s 			page 14


 201 0030 00       		.ascii	"\000"
 202 0031 00000000 		.ascii	"\000\000\000\000\000\000\000\000"
 202      00000000 
 203 0039 B5000000 		.ascii	"\265\000\000\000"
 204 003d 436F6C5F 		.ascii	"Col_2_Read\000"
 204      325F5265 
 204      616400
 205 0048 00       		.ascii	"\000"
 206 0049 00       		.ascii	"\000"
 207 004a 00       		.ascii	"\000"
 208 004b 00000000 		.ascii	"\000\000\000\000\000\000\000\000"
 208      00000000 
 209 0053 B8000000 		.ascii	"\270\000\000\000"
 210 0057 436F6C5F 		.ascii	"Col_2_ReadDataReg\000"
 210      325F5265 
 210      61644461 
 210      74615265 
 210      6700
 211 0069 00       		.ascii	"\000"
 212 006a 00       		.ascii	"\000"
 213 006b 00       		.ascii	"\000"
 214 006c 00000000 		.ascii	"\000\000\000\000\000\000\000\000"
 214      00000000 
 215 0074 BA000000 		.ascii	"\272\000\000\000"
 216              		.text
 217              		.section	.gnu.lto_.opts,"",%progbits
 218 0000 272D666D 		.ascii	"'-fmath-errno' '-fsigned-zeros' '-ftrapping-math' '"
 218      6174682D 
 218      6572726E 
 218      6F272027 
 218      2D667369 
 219 0033 2D666E6F 		.ascii	"-fno-trapv' '-fno-openmp' '-fno-openacc' '-mcpu=cor"
 219      2D747261 
 219      70762720 
 219      272D666E 
 219      6F2D6F70 
 220 0066 7465782D 		.ascii	"tex-m3' '-mthumb' '-g' '-Os' '-ffunction-sections' "
 220      6D332720 
 220      272D6D74 
 220      68756D62 
 220      2720272D 
 221 0099 272D6666 		.ascii	"'-ffat-lto-objects' '-flto'\000"
 221      61742D6C 
 221      746F2D6F 
 221      626A6563 
 221      74732720 
 222              		.text
 223              		.cfi_sections	.debug_frame
 224              		.section	.text.Col_2_Write,"ax",%progbits
 225              		.align	1
 226              		.global	Col_2_Write
 227              		.thumb
 228              		.thumb_func
 229              		.type	Col_2_Write, %function
 230              	Col_2_Write:
 231              	.LFB0:
 232              		.file 1 "Generated_Source\\PSoC5\\Col_2.c"
ARM GAS  C:\Users\info\AppData\Local\Temp\ccShSrVg.s 			page 15


   1:Generated_Source\PSoC5/Col_2.c **** /*******************************************************************************
   2:Generated_Source\PSoC5/Col_2.c **** * File Name: Col_2.c  
   3:Generated_Source\PSoC5/Col_2.c **** * Version 2.20
   4:Generated_Source\PSoC5/Col_2.c **** *
   5:Generated_Source\PSoC5/Col_2.c **** * Description:
   6:Generated_Source\PSoC5/Col_2.c **** *  This file contains API to enable firmware control of a Pins component.
   7:Generated_Source\PSoC5/Col_2.c **** *
   8:Generated_Source\PSoC5/Col_2.c **** * Note:
   9:Generated_Source\PSoC5/Col_2.c **** *
  10:Generated_Source\PSoC5/Col_2.c **** ********************************************************************************
  11:Generated_Source\PSoC5/Col_2.c **** * Copyright 2008-2015, Cypress Semiconductor Corporation.  All rights reserved.
  12:Generated_Source\PSoC5/Col_2.c **** * You may use this file only in accordance with the license, terms, conditions, 
  13:Generated_Source\PSoC5/Col_2.c **** * disclaimers, and limitations in the end user license agreement accompanying 
  14:Generated_Source\PSoC5/Col_2.c **** * the software package with which this file was provided.
  15:Generated_Source\PSoC5/Col_2.c **** *******************************************************************************/
  16:Generated_Source\PSoC5/Col_2.c **** 
  17:Generated_Source\PSoC5/Col_2.c **** #include "cytypes.h"
  18:Generated_Source\PSoC5/Col_2.c **** #include "Col_2.h"
  19:Generated_Source\PSoC5/Col_2.c **** 
  20:Generated_Source\PSoC5/Col_2.c **** /* APIs are not generated for P15[7:6] on PSoC 5 */
  21:Generated_Source\PSoC5/Col_2.c **** #if !(CY_PSOC5A &&\
  22:Generated_Source\PSoC5/Col_2.c **** 	 Col_2__PORT == 15 && ((Col_2__MASK & 0xC0) != 0))
  23:Generated_Source\PSoC5/Col_2.c **** 
  24:Generated_Source\PSoC5/Col_2.c **** 
  25:Generated_Source\PSoC5/Col_2.c **** /*******************************************************************************
  26:Generated_Source\PSoC5/Col_2.c **** * Function Name: Col_2_Write
  27:Generated_Source\PSoC5/Col_2.c **** ****************************************************************************//**
  28:Generated_Source\PSoC5/Col_2.c **** *
  29:Generated_Source\PSoC5/Col_2.c **** * \brief Writes the value to the physical port (data output register), masking
  30:Generated_Source\PSoC5/Col_2.c **** *  and shifting the bits appropriately. 
  31:Generated_Source\PSoC5/Col_2.c **** *
  32:Generated_Source\PSoC5/Col_2.c **** * The data output register controls the signal applied to the physical pin in 
  33:Generated_Source\PSoC5/Col_2.c **** * conjunction with the drive mode parameter. This function avoids changing 
  34:Generated_Source\PSoC5/Col_2.c **** * other bits in the port by using the appropriate method (read-modify-write or
  35:Generated_Source\PSoC5/Col_2.c **** * bit banding).
  36:Generated_Source\PSoC5/Col_2.c **** *
  37:Generated_Source\PSoC5/Col_2.c **** * <b>Note</b> This function should not be used on a hardware digital output pin 
  38:Generated_Source\PSoC5/Col_2.c **** * as it is driven by the hardware signal attached to it.
  39:Generated_Source\PSoC5/Col_2.c **** *
  40:Generated_Source\PSoC5/Col_2.c **** * \param value
  41:Generated_Source\PSoC5/Col_2.c **** *  Value to write to the component instance.
  42:Generated_Source\PSoC5/Col_2.c **** *
  43:Generated_Source\PSoC5/Col_2.c **** * \return 
  44:Generated_Source\PSoC5/Col_2.c **** *  None 
  45:Generated_Source\PSoC5/Col_2.c **** *
  46:Generated_Source\PSoC5/Col_2.c **** * \sideeffect
  47:Generated_Source\PSoC5/Col_2.c **** *  If you use read-modify-write operations that are not atomic; the Interrupt 
  48:Generated_Source\PSoC5/Col_2.c **** *  Service Routines (ISR) can cause corruption of this function. An ISR that 
  49:Generated_Source\PSoC5/Col_2.c **** *  interrupts this function and performs writes to the Pins component data 
  50:Generated_Source\PSoC5/Col_2.c **** *  register can cause corrupted port data. To avoid this issue, you should 
  51:Generated_Source\PSoC5/Col_2.c **** *  either use the Per-Pin APIs (primary method) or disable interrupts around 
  52:Generated_Source\PSoC5/Col_2.c **** *  this function.
  53:Generated_Source\PSoC5/Col_2.c **** *
  54:Generated_Source\PSoC5/Col_2.c **** * \funcusage
  55:Generated_Source\PSoC5/Col_2.c **** *  \snippet Col_2_SUT.c usage_Col_2_Write
  56:Generated_Source\PSoC5/Col_2.c **** *******************************************************************************/
  57:Generated_Source\PSoC5/Col_2.c **** void Col_2_Write(uint8 value)
ARM GAS  C:\Users\info\AppData\Local\Temp\ccShSrVg.s 			page 16


  58:Generated_Source\PSoC5/Col_2.c **** {
 233              		.loc 1 58 0
 234              		.cfi_startproc
 235              		@ args = 0, pretend = 0, frame = 0
 236              		@ frame_needed = 0, uses_anonymous_args = 0
 237              		@ link register save eliminated.
 238              	.LVL0:
  59:Generated_Source\PSoC5/Col_2.c ****     uint8 staticBits = (Col_2_DR & (uint8)(~Col_2_MASK));
 239              		.loc 1 59 0
 240 0000 044A     		ldr	r2, .L2
  60:Generated_Source\PSoC5/Col_2.c ****     Col_2_DR = staticBits | ((uint8)(value << Col_2_SHIFT) & Col_2_MASK);
 241              		.loc 1 60 0
 242 0002 0001     		lsls	r0, r0, #4
 243              	.LVL1:
  59:Generated_Source\PSoC5/Col_2.c ****     uint8 staticBits = (Col_2_DR & (uint8)(~Col_2_MASK));
 244              		.loc 1 59 0
 245 0004 1378     		ldrb	r3, [r2]	@ zero_extendqisi2
 246              	.LVL2:
 247              		.loc 1 60 0
 248 0006 00F01000 		and	r0, r0, #16
 249 000a 03F0EF03 		and	r3, r3, #239
 250              	.LVL3:
 251 000e 0343     		orrs	r3, r3, r0
 252 0010 1370     		strb	r3, [r2]
 253 0012 7047     		bx	lr
 254              	.L3:
 255              		.align	2
 256              	.L2:
 257 0014 30510040 		.word	1073762608
 258              		.cfi_endproc
 259              	.LFE0:
 260              		.size	Col_2_Write, .-Col_2_Write
 261              		.section	.text.Col_2_SetDriveMode,"ax",%progbits
 262              		.align	1
 263              		.global	Col_2_SetDriveMode
 264              		.thumb
 265              		.thumb_func
 266              		.type	Col_2_SetDriveMode, %function
 267              	Col_2_SetDriveMode:
 268              	.LFB1:
  61:Generated_Source\PSoC5/Col_2.c **** }
  62:Generated_Source\PSoC5/Col_2.c **** 
  63:Generated_Source\PSoC5/Col_2.c **** 
  64:Generated_Source\PSoC5/Col_2.c **** /*******************************************************************************
  65:Generated_Source\PSoC5/Col_2.c **** * Function Name: Col_2_SetDriveMode
  66:Generated_Source\PSoC5/Col_2.c **** ****************************************************************************//**
  67:Generated_Source\PSoC5/Col_2.c **** *
  68:Generated_Source\PSoC5/Col_2.c **** * \brief Sets the drive mode for each of the Pins component's pins.
  69:Generated_Source\PSoC5/Col_2.c **** * 
  70:Generated_Source\PSoC5/Col_2.c **** * <b>Note</b> This affects all pins in the Pins component instance. Use the
  71:Generated_Source\PSoC5/Col_2.c **** * Per-Pin APIs if you wish to control individual pin's drive modes.
  72:Generated_Source\PSoC5/Col_2.c **** *
  73:Generated_Source\PSoC5/Col_2.c **** * \param mode
  74:Generated_Source\PSoC5/Col_2.c **** *  Mode for the selected signals. Valid options are documented in 
  75:Generated_Source\PSoC5/Col_2.c **** *  \ref driveMode.
  76:Generated_Source\PSoC5/Col_2.c **** *
  77:Generated_Source\PSoC5/Col_2.c **** * \return
ARM GAS  C:\Users\info\AppData\Local\Temp\ccShSrVg.s 			page 17


  78:Generated_Source\PSoC5/Col_2.c **** *  None
  79:Generated_Source\PSoC5/Col_2.c **** *
  80:Generated_Source\PSoC5/Col_2.c **** * \sideeffect
  81:Generated_Source\PSoC5/Col_2.c **** *  If you use read-modify-write operations that are not atomic, the ISR can
  82:Generated_Source\PSoC5/Col_2.c **** *  cause corruption of this function. An ISR that interrupts this function 
  83:Generated_Source\PSoC5/Col_2.c **** *  and performs writes to the Pins component Drive Mode registers can cause 
  84:Generated_Source\PSoC5/Col_2.c **** *  corrupted port data. To avoid this issue, you should either use the Per-Pin
  85:Generated_Source\PSoC5/Col_2.c **** *  APIs (primary method) or disable interrupts around this function.
  86:Generated_Source\PSoC5/Col_2.c **** *
  87:Generated_Source\PSoC5/Col_2.c **** * \funcusage
  88:Generated_Source\PSoC5/Col_2.c **** *  \snippet Col_2_SUT.c usage_Col_2_SetDriveMode
  89:Generated_Source\PSoC5/Col_2.c **** *******************************************************************************/
  90:Generated_Source\PSoC5/Col_2.c **** void Col_2_SetDriveMode(uint8 mode)
  91:Generated_Source\PSoC5/Col_2.c **** {
 269              		.loc 1 91 0
 270              		.cfi_startproc
 271              		@ args = 0, pretend = 0, frame = 0
 272              		@ frame_needed = 0, uses_anonymous_args = 0
 273              		@ link register save eliminated.
 274              	.LVL4:
  92:Generated_Source\PSoC5/Col_2.c **** 	CyPins_SetPinDriveMode(Col_2_0, mode);
 275              		.loc 1 92 0
 276 0000 044A     		ldr	r2, .L5
 277 0002 00F00E00 		and	r0, r0, #14
 278              	.LVL5:
 279 0006 1378     		ldrb	r3, [r2]	@ zero_extendqisi2
 280 0008 03F0F103 		and	r3, r3, #241
 281 000c 1843     		orrs	r0, r0, r3
 282 000e 1070     		strb	r0, [r2]
 283 0010 7047     		bx	lr
 284              	.L6:
 285 0012 00BF     		.align	2
 286              	.L5:
 287 0014 1C500040 		.word	1073762332
 288              		.cfi_endproc
 289              	.LFE1:
 290              		.size	Col_2_SetDriveMode, .-Col_2_SetDriveMode
 291              		.section	.text.Col_2_Read,"ax",%progbits
 292              		.align	1
 293              		.global	Col_2_Read
 294              		.thumb
 295              		.thumb_func
 296              		.type	Col_2_Read, %function
 297              	Col_2_Read:
 298              	.LFB2:
  93:Generated_Source\PSoC5/Col_2.c **** }
  94:Generated_Source\PSoC5/Col_2.c **** 
  95:Generated_Source\PSoC5/Col_2.c **** 
  96:Generated_Source\PSoC5/Col_2.c **** /*******************************************************************************
  97:Generated_Source\PSoC5/Col_2.c **** * Function Name: Col_2_Read
  98:Generated_Source\PSoC5/Col_2.c **** ****************************************************************************//**
  99:Generated_Source\PSoC5/Col_2.c **** *
 100:Generated_Source\PSoC5/Col_2.c **** * \brief Reads the associated physical port (pin status register) and masks 
 101:Generated_Source\PSoC5/Col_2.c **** *  the required bits according to the width and bit position of the component
 102:Generated_Source\PSoC5/Col_2.c **** *  instance. 
 103:Generated_Source\PSoC5/Col_2.c **** *
 104:Generated_Source\PSoC5/Col_2.c **** * The pin's status register returns the current logic level present on the 
ARM GAS  C:\Users\info\AppData\Local\Temp\ccShSrVg.s 			page 18


 105:Generated_Source\PSoC5/Col_2.c **** * physical pin.
 106:Generated_Source\PSoC5/Col_2.c **** *
 107:Generated_Source\PSoC5/Col_2.c **** * \return 
 108:Generated_Source\PSoC5/Col_2.c **** *  The current value for the pins in the component as a right justified number.
 109:Generated_Source\PSoC5/Col_2.c **** *
 110:Generated_Source\PSoC5/Col_2.c **** * \funcusage
 111:Generated_Source\PSoC5/Col_2.c **** *  \snippet Col_2_SUT.c usage_Col_2_Read  
 112:Generated_Source\PSoC5/Col_2.c **** *******************************************************************************/
 113:Generated_Source\PSoC5/Col_2.c **** uint8 Col_2_Read(void)
 114:Generated_Source\PSoC5/Col_2.c **** {
 299              		.loc 1 114 0
 300              		.cfi_startproc
 301              		@ args = 0, pretend = 0, frame = 0
 302              		@ frame_needed = 0, uses_anonymous_args = 0
 303              		@ link register save eliminated.
 115:Generated_Source\PSoC5/Col_2.c ****     return (Col_2_PS & Col_2_MASK) >> Col_2_SHIFT;
 304              		.loc 1 115 0
 305 0000 024B     		ldr	r3, .L8
 306 0002 1878     		ldrb	r0, [r3]	@ zero_extendqisi2
 116:Generated_Source\PSoC5/Col_2.c **** }
 307              		.loc 1 116 0
 308 0004 C0F30010 		ubfx	r0, r0, #4, #1
 309 0008 7047     		bx	lr
 310              	.L9:
 311 000a 00BF     		.align	2
 312              	.L8:
 313 000c 31510040 		.word	1073762609
 314              		.cfi_endproc
 315              	.LFE2:
 316              		.size	Col_2_Read, .-Col_2_Read
 317              		.section	.text.Col_2_ReadDataReg,"ax",%progbits
 318              		.align	1
 319              		.global	Col_2_ReadDataReg
 320              		.thumb
 321              		.thumb_func
 322              		.type	Col_2_ReadDataReg, %function
 323              	Col_2_ReadDataReg:
 324              	.LFB3:
 117:Generated_Source\PSoC5/Col_2.c **** 
 118:Generated_Source\PSoC5/Col_2.c **** 
 119:Generated_Source\PSoC5/Col_2.c **** /*******************************************************************************
 120:Generated_Source\PSoC5/Col_2.c **** * Function Name: Col_2_ReadDataReg
 121:Generated_Source\PSoC5/Col_2.c **** ****************************************************************************//**
 122:Generated_Source\PSoC5/Col_2.c **** *
 123:Generated_Source\PSoC5/Col_2.c **** * \brief Reads the associated physical port's data output register and masks 
 124:Generated_Source\PSoC5/Col_2.c **** *  the correct bits according to the width and bit position of the component 
 125:Generated_Source\PSoC5/Col_2.c **** *  instance. 
 126:Generated_Source\PSoC5/Col_2.c **** *
 127:Generated_Source\PSoC5/Col_2.c **** * The data output register controls the signal applied to the physical pin in 
 128:Generated_Source\PSoC5/Col_2.c **** * conjunction with the drive mode parameter. This is not the same as the 
 129:Generated_Source\PSoC5/Col_2.c **** * preferred Col_2_Read() API because the 
 130:Generated_Source\PSoC5/Col_2.c **** * Col_2_ReadDataReg() reads the data register instead of the status 
 131:Generated_Source\PSoC5/Col_2.c **** * register. For output pins this is a useful function to determine the value 
 132:Generated_Source\PSoC5/Col_2.c **** * just written to the pin.
 133:Generated_Source\PSoC5/Col_2.c **** *
 134:Generated_Source\PSoC5/Col_2.c **** * \return 
 135:Generated_Source\PSoC5/Col_2.c **** *  The current value of the data register masked and shifted into a right 
ARM GAS  C:\Users\info\AppData\Local\Temp\ccShSrVg.s 			page 19


 136:Generated_Source\PSoC5/Col_2.c **** *  justified number for the component instance.
 137:Generated_Source\PSoC5/Col_2.c **** *
 138:Generated_Source\PSoC5/Col_2.c **** * \funcusage
 139:Generated_Source\PSoC5/Col_2.c **** *  \snippet Col_2_SUT.c usage_Col_2_ReadDataReg 
 140:Generated_Source\PSoC5/Col_2.c **** *******************************************************************************/
 141:Generated_Source\PSoC5/Col_2.c **** uint8 Col_2_ReadDataReg(void)
 142:Generated_Source\PSoC5/Col_2.c **** {
 325              		.loc 1 142 0
 326              		.cfi_startproc
 327              		@ args = 0, pretend = 0, frame = 0
 328              		@ frame_needed = 0, uses_anonymous_args = 0
 329              		@ link register save eliminated.
 143:Generated_Source\PSoC5/Col_2.c ****     return (Col_2_DR & Col_2_MASK) >> Col_2_SHIFT;
 330              		.loc 1 143 0
 331 0000 024B     		ldr	r3, .L11
 332 0002 1878     		ldrb	r0, [r3]	@ zero_extendqisi2
 144:Generated_Source\PSoC5/Col_2.c **** }
 333              		.loc 1 144 0
 334 0004 C0F30010 		ubfx	r0, r0, #4, #1
 335 0008 7047     		bx	lr
 336              	.L12:
 337 000a 00BF     		.align	2
 338              	.L11:
 339 000c 30510040 		.word	1073762608
 340              		.cfi_endproc
 341              	.LFE3:
 342              		.size	Col_2_ReadDataReg, .-Col_2_ReadDataReg
 343              		.text
 344              	.Letext0:
 345              		.file 2 "Generated_Source\\PSoC5\\cytypes.h"