ARM GAS  C:\Users\info\AppData\Local\Temp\cc22OsCk.s 			page 1


   1              		.syntax unified
   2              		.cpu cortex-m3
   3              		.fpu softvfp
   4              		.eabi_attribute 20, 1
   5              		.eabi_attribute 21, 1
   6              		.eabi_attribute 23, 3
   7              		.eabi_attribute 24, 1
   8              		.eabi_attribute 25, 1
   9              		.eabi_attribute 26, 1
  10              		.eabi_attribute 30, 4
  11              		.eabi_attribute 34, 1
  12              		.eabi_attribute 18, 4
  13              		.thumb
  14              		.syntax unified
  15              		.file	"Col_3.c"
  16              		.text
  17              	.Ltext0:
  18              		.section	.gnu.lto_.profile.bf151d68,"",%progbits
  19 0000 789C6361 		.ascii	"x\234ca`d`a`\000\222\222\242\000\000\261\0009"
  19      60646061 
  19      60009292 
  19      A20000B1 
  19      0039
  20              		.text
  21              		.section	.gnu.lto_.icf.bf151d68,"",%progbits
  22 0000 789C6361 		.ascii	"x\234ca`d\000\001)\006\004`a\370q}\305:N\306\017\367"
  22      60640001 
  22      29060460 
  22      61F8717D 
  22      C53A4EC6 
  23 0016 9E5DE665 		.ascii	"\236]\346ej\2772\375;\027\363\274\207\017\317\3601\000"
  23      6ABF32FD 
  23      3B17F3BC 
  23      870FCFF0 
  23      3100
  24 0028 00B5160D 		.ascii	"\000\265\026\015\031"
  24      19
  25              		.text
  26              		.section	.gnu.lto_.jmpfuncs.bf151d68,"",%progbits
  27 0000 789C6361 		.ascii	"x\234ca`d\000\001!\006\004`a`dd\254g\004\021L\014\014"
  27      60640001 
  27      21060460 
  27      61606464 
  27      AC670411 
  28 0017 CC401100 		.ascii	"\314@\021\000\016\"\001&"
  28      0E220126 
  29              		.text
  30              		.section	.gnu.lto_.inline.bf151d68,"",%progbits
  31 0000 789C6361 		.ascii	"x\234ca`d\000\201$\006\004`a`\340\344`dd\340\000J1s"
  31      60640081 
  31      24060460 
  31      6160E0E4 
  31      606464E0 
  32 0018 1CB06360 		.ascii	"\034\260c`[ \317\304\300\262@\236\005$\013\024g\307"
  32      5B20CFC4 
  32      C0B2409E 
  32      05240B14 
ARM GAS  C:\Users\info\AppData\Local\Temp\cc22OsCk.s 			page 2


  32      67C7
  33 002a 9064BAC0 		.ascii	"\220d\272\300\017\226db`ced`b\373\240\007\021\007\002"
  33      0F966462 
  33      60636564 
  33      6062FBA0 
  33      07110702 
  34 003e 664C2106 		.ascii	"fL!\006\000\346\332\011\346"
  34      00E6DA09 
  34      E6
  35              		.text
  36              		.section	.gnu.lto_.pureconst.bf151d68,"",%progbits
  37 0000 789C6361 		.ascii	"x\234ca`d\340d```a\220b\224b\222b\226\002\000\002\261"
  37      6064E064 
  37      60606061 
  37      90629462 
  37      92629602 
  38 0017 0081     		.ascii	"\000\201"
  39              		.text
  40              		.section	.gnu.lto_Col_3_Write.bf151d68,"",%progbits
  41 0000 789C5551 		.ascii	"x\234UQMKTa\024>\317\373\336\017k\254?\340\200C f\213"
  41      4D4B5461 
  41      143ECFFB 
  41      DE0F6BAC 
  41      3FE08043 
  42 0017 88A43F90 		.ascii	"\210\244?\220\013\267\241\333\001\031\246\273\020\314"
  42      0BB7A1DB 
  42      0119A6BB 
  42      10CC
  43 0025 011DDBFA 		.ascii	"\001\035\333\372^\307\231\001WnT\202J\360\003?\363\243"
  43      5EC79901 
  43      576E5482 
  43      4AF0033F 
  43      F3A3
  44 0037 5645C2E5 		.ascii	"VE\302\345\356\332\024\204\233>(\231\305\225\012b\004"
  44      EEDA1484 
  44      9B3E2899 
  44      C5950A62 
  44      04
  45 0048 8724ADE9 		.ascii	"\207$\255\351\234{]\344\201\367\343\236\373<\317y\316"
  45      9C7B5DE4 
  45      81F7E39E 
  45      FB3CCF79 
  45      CE
  46 0059 792D0249 		.ascii	"y-\002I\334PD\267\371l\343\005MP\323o\211\374\026\005"
  46      DC5044B7 
  46      F96CE305 
  46      4D50D36F 
  46      89FC1605 
  47 006d C8C5B480 		.ascii	"\310\305\264\200\306\025\306\321P\177\024\302j\364R"
  47      C615C6D1 
  47      507F14C2 
  47      6AF452
  48 007c 75AD188E 		.ascii	"u\255\030\216\203\345\247\332\254\006(k\242\246\212"
  48      83E5A7DA 
  48      AC06286B 
  48      A2A68A
  49 008b 95082BE8 		.ascii	"\225\010+\350b\324\341\353\352>\3645\020\337+a\243\236"
ARM GAS  C:\Users\info\AppData\Local\Temp\cc22OsCk.s 			page 3


  49      62D4E1EB 
  49      EA3EF435 
  49      10DF2B61 
  49      A39E
  50 009d EA5C3666 		.ascii	"\352\\6f\302\230\243\254\321e\015\254B3\003\335i\334"
  50      C298A3AC 
  50      D1650DAC 
  50      423303DD 
  50      69DC
  51 00af 4A132708 		.ascii	"J\023'\010k\350\024\360\311\307\375\255\253\372zL\234"
  51      6BE814F0 
  51      C9C7FDAD 
  51      ABFA7A4C 
  51      9C
  52 00c0 36D1426B 		.ascii	"6\321Bk\307\242\020\203_\017\346L\340g\204\273\376?"
  52      C7A21083 
  52      5F0FE64C 
  52      E06784BB 
  52      FE3F
  53 00d2 5782A1B5 		.ascii	"W\202\241\265\335\2773W\234Iq\225\301\006:\022?\330"
  53      DDBF3357 
  53      9C497195 
  53      C1063A12 
  53      3FD8
  54 00e4 84C31D42 		.ascii	"\204\303\035B2\333}\201i6K&h\330\015}IqQ\305\235\362"
  54      32DB7D81 
  54      69364B26 
  54      68D80D7D 
  54      497151C5 
  55 00fa 0F0B52DB 		.ascii	"\017\013R\333\226\204#\233+\033Q\235\227t\177\244\224"
  55      9684239B 
  55      2B1B519D 
  55      97747FA4 
  55      94
  56 010b 9C3A42F8 		.ascii	"\234:B\370{\352\313\234+\232%-\223\230-\207\357\334"
  56      7BEACB9C 
  56      2B9A252D 
  56      93982D87 
  56      EFDC
  57 011d 6355D63A 		.ascii	"cU\326:v\373\341\323\243\237N\362\271\263\340\033\213"
  57      76FBE1D3 
  57      A39F4EF2 
  57      B9B3E01B 
  57      8B
  58 012e 5307538F 		.ascii	"S\007S\217O\335y<\361'yF\026\266\220\3063\260glc\036"
  58      4FDD793C 
  58      F1277946 
  58      16B690C6 
  58      33B0676C 
  59 0144 14A17456 		.ascii	"\024\241tV\371\214DP'\232?\336\327\202\224\210\000_"
  59      F98C4450 
  59      279A3FDE 
  59      D7829488 
  59      005F
  60 0156 811D06D7 		.ascii	"\201\035\006\327\240\3426\330)\243\204T\257D\207\347"
  60      A0E236D8 
  60      29A38454 
ARM GAS  C:\Users\info\AppData\Local\Temp\cc22OsCk.s 			page 4


  60      AF4487E7 
  61 0166 36EC9296 		.ascii	"6\354\222\226:o\226^\235\265\012\313\206\215]&\305\322"
  61      3A6F965E 
  61      9DB50ACB 
  61      868D5D26 
  61      C5D2
  62 0178 C7E7D282 		.ascii	"\307\347\322\202cP\365\233\331\263\004d!\203\347\011"
  62      6350F59B 
  62      D9B30464 
  62      2183E709 
  63 0188 E8C44920 		.ascii	"\350\304I nl\300\341T8\033\263.\230\367\215I]\364\377"
  63      6E6CC0E1 
  63      54381BB3 
  63      2E98F78D 
  63      495DF4FF 
  64 019c 82FD338B 		.ascii	"\202\3753\213\276c\"8\265\205\020?D]Af\305\223k\357"
  64      BE632238 
  64      B585103F 
  64      445D4166 
  64      C5936BEF 
  65 01b0 F586BD91 		.ascii	"\365\206\275\221\\\321\273?\320_\030\033\311{\331{\375"
  65      5CD1BB3F 
  65      D05F181B 
  65      C97BD97B 
  65      FD
  66 01c1 859E3BD9 		.ascii	"\205\236;\331\236\302\320@\367\315<\331\017sCc\336\345"
  66      9EC2D040 
  66      F7CD3CD9 
  66      0F734363 
  66      DEE5
  67 01d3 D162AE38 		.ascii	"\321b\2568\230\277;X\034\375\007e\274\3039"
  67      98BF3B58 
  67      1CFD0765 
  67      BCC339
  68              		.text
  69              		.section	.gnu.lto_Col_3_SetDriveMode.bf151d68,"",%progbits
  70 0000 789C7D51 		.ascii	"x\234}Q\273J\003A\024\275gf\263\233 \346\007\014(\026"
  70      BB4A0341 
  70      14BD6766 
  70      B39B20E6 
  70      070C2816 
  71 0014 8A8D08E2 		.ascii	"\212\215\010\342\027\004\264\025m\003\"\272\235\032"
  71      1704B415 
  71      6D0322BA 
  71      9D1A
  72 0022 14AD9DBC 		.ascii	"\024\255\235\274\020\264\011\210)\024\321F|\277\260"
  72      10B40988 
  72      2914D146 
  72      7CBFB0
  73 0031 B28B0105 		.ascii	"\262\213\001\005\033\355,,D,\202\010J|\021\211\306x"
  73      1BED2C2C 
  73      442C8208 
  73      4A7C1189 
  73      C678
  74 0043 EF26452A 		.ascii	"\357&E*\207\235\3738\234s\270w\326\"\220\234GNm\234"
  74      879DFB38 
  74      9C73B877 
ARM GAS  C:\Users\info\AppData\Local\Temp\cc22OsCk.s 			page 5


  74      D622909C 
  74      474E6D9C 
  75 0057 9BF84213 		.ascii	"\233\370B\023T\372\212(\346W\200\024\306\017\232U\230"
  75      54FA8A28 
  75      E6578014 
  75      C60F9A55 
  75      98
  76 0068 C5A72A2B 		.ascii	"\305\247*+\344\346\362\247\252c\323\360\271?\177\351"
  76      E4E6F2A7 
  76      AA63D3F0 
  76      B93F7FE9 
  77 0078 325B59A4 		.ascii	"2[Y\2444QEyN\204Mt0\353\375dc\261A\267\202\270~\275"
  77      34514579 
  77      4E844D74 
  77      30EBFD64 
  77      63B141B7 
  78 0090 2ADC05DB 		.ascii	"*\334\005\3337\214\211\033S\211\030\235\322\300\026"
  78      378C891B 
  78      5389189D 
  78      D2C016
  79 009f 342BD01D 		.ascii	"4+\320\035BW\210\030 l\243]\310\017\307\277K\215vR\354"
  79      42578818 
  79      206CA35D 
  79      C80FC7BF 
  79      4B8D7652 
  80 00b4 5BAAA6D8 		.ascii	"[\252\246\330\201-c\036\016dM\245\2220\331\242}V\262"
  80      812D631E 
  80      0E644DA5 
  80      9230D9A2 
  80      7D56B2
  81 00c7 1B14CB94 		.ascii	"\033\024\313\224\346\240-\011>\210\203-\245#\301/! "
  81      E6A02D09 
  81      3E88832D 
  81      A523C12F 
  81      2120
  82 00d9 1CA2025F 		.ascii	"\034\242\002_Y\344U)\311:\217\\i>\277b\211sB\313R\231"
  82      59E45529 
  82      C93A8F5C 
  82      693EBF62 
  82      897342CB 
  83 00ef 54EEDAF9 		.ascii	"T\356\332\371P)my\023/\037\245\277j\355\352z\314X\014"
  83      50296D79 
  83      132F1FA5 
  83      BF6AEDEA 
  83      7ACC580C 
  84 0103 5D161FCB 		.ascii	"]\026\037\313\215kX\215%y]\037\366\020\302.B<\335>\326"
  84      8D6B588D 
  84      25795D1F 
  84      F610C22E 
  84      423CDD3E 
  85 0118 4079C4DF 		.ascii	"@y\304\337\234\252\235fG\356\023?v\265\267\030b\375"
  85      9CAA9D66 
  85      47EE133F 
  85      76B5B718 
  85      62FD
  86 012a EDC54239 		.ascii	"\355\305B9 \226\032\2238`e\235\204?_\275\304a\210%\317"
  86      20961A93 
ARM GAS  C:\Users\info\AppData\Local\Temp\cc22OsCk.s 			page 6


  86      3860659D 
  86      843F5FBD 
  86      C4618825 
  87 013f 37BB7BBA 		.ascii	"7\273{\272*\011\342\320\223$\276j\024\277g\354\324\273"
  87      2A09E2D0 
  87      9324BE6A 
  87      14BF67EC 
  87      D4BB
  88 0151 0418E53E 		.ascii	"\004\030\345>\227\201\364\377\215|\304#3\237\236\020"
  88      9781F4FF 
  88      8D7CC423 
  88      339F9E10 
  89 0161 CF7EF70A 		.ascii	"\317~\367\012\333\373u\005\005y\036~\254\346>w\302\235"
  89      DBFB7505 
  89      05791E7E 
  89      ACE63E77 
  89      C29D
  90 0173 1A9E7647 		.ascii	"\032\236vG\207\006\2433S#n\244\1770\032\356\211\204"
  90      8706A333 
  90      53236EA4 
  90      7F301AEE 
  90      8984
  91 0185 A36343DD 		.ascii	"\243cC\335\235#d\215GG\335?\032h\246\317"
  91      9D23648D 
  91      4747DD3F 
  91      1A68A6CF 
  92              		.text
  93              		.section	.gnu.lto_Col_3_Read.bf151d68,"",%progbits
  94 0000 789C354F 		.ascii	"x\2345O\315K\002Q\020\237\337{\253+}\370\017$dG/\021"
  94      CD4B0251 
  94      109FDF7B 
  94      AB2B7DF8 
  94      0F246447 
  95 0016 48105D85 		.ascii	"H\020]\205\272FB'A\302\366\026\011Rgw]\267 :t\251 ("
  95      BA464227 
  95      41C2F616 
  95      09526777 
  95      5DB7203A 
  96 002e 210AED8B 		.ascii	"!\012\355\213\360\332\311<\025Q\035\"\010\012\211\022"
  96      F0DAC93C 
  96      15511D22 
  96      080A8912 
  97 003e 834E2946 		.ascii	"\203N)F \226\315kk\340\315\2747\357\3671\243\021H\305"
  97      2096CD6B 
  97      6BE0CDBC 
  97      37EFF731 
  97      A31148C5 
  98 0052 149701AE 		.ascii	"\024\227\001\256}| \011b\365\232\310\362\011@]L\037"
  98      7D7C2009 
  98      62F59AC8 
  98      F209405D 
  98      4C1F
  99 0064 282D90C6 		.ascii	"(-\220\306\207\370\022\270\374<_\351\012\345M3c>\355"
  99      87F812B8 
  99      FC3C5FE9 
  99      0AE54D33 
  99      633EED
ARM GAS  C:\Users\info\AppData\Local\Temp\cc22OsCk.s 			page 7


 100 0077 B546360A 		.ascii	"\265F6\012%8\222\250#\010\341\000\206\002J\"\217\020"
 100      253892A8 
 100      2308E100 
 100      86024A22 
 100      8F10
 101 0089 31F4B9F8 		.ascii	"1\364\271\370\275\326\353\315\232\034A\005\340\237\002"
 101      BDD6EBCD 
 101      9A1C4105 
 101      E09F02
 102 0098 BCCAF264 		.ascii	"\274\312\362d\262dv:\266Y\272\323\317\356u\035\344H"
 102      B264763A 
 102      B659BAD3 
 102      CFEE751D 
 102      E448
 103 00aa F6E5A471 		.ascii	"\366\345\244q\022\036\225\274\244d\351\235ij\210\272"
 103      121E95BC 
 103      A464E99D 
 103      696A88BA 
 104 00ba 10AACA1A 		.ascii	"\020\252\312\032\312\255\345\312\366\250R\262\245d\227"
 104      CAADE5CA 
 104      F6A852B2 
 104      A56497
 105 00c9 75A77CA3 		.ascii	"u\247|\2437\205#%\224i\346\265\362\320\355>\213;\226"
 105      37852325 
 105      9469E6B5 
 105      F2D0ED3E 
 105      8B3B96
 106 00dc A971CBB1 		.ascii	"\251q\313\261n\037\3759lYY\036U\303\001\002\330\007"
 106      6E1FFD39 
 106      6C59591E 
 106      55C30102 
 106      D807
 107 00ee 0F8A43E4 		.ascii	"\017\212C\344@5\330\3551\262%\\\271\372\325\346\213"
 107      4035D8ED 
 107      31B2255C 
 107      B9FAD5E6 
 107      8B
 108 00ff 5FF18120 		.ascii	"_\361\201 \216\030VC\246\261\324\024\256\241\3068\305"
 108      8E185643 
 108      A6B1D414 
 108      AEA1C638 
 108      C5
 109 0110 682C5635 		.ascii	"h,V5\267\343\341&\323.vO\333=\212&\340\301\361?\255"
 109      B7E3E126 
 109      D32E764F 
 109      DB3D8A26 
 109      E0C1F13F 
 110 0125 0A17A470 		.ascii	"\012\027\244p\364\206?\021/\375.\006\265\020\257\327"
 110      F4863F11 
 110      2FFD2E06 
 110      B510AFD7 
 111 0135 3F6ECC19 		.ascii	"?n\314\031\251\351yc&\036M.\244\022Fl\"\232\214\014"
 111      A9E97963 
 111      261E4D2E 
 111      A412466C 
 111      229A8C0C 
 112 0149 C722C9D9 		.ascii	"\307\"\311\331xx0A?\372\316{o"
ARM GAS  C:\Users\info\AppData\Local\Temp\cc22OsCk.s 			page 8


 112      78783041 
 112      3FFACE7B 
 112      6F
 113              		.text
 114              		.section	.gnu.lto_Col_3_ReadDataReg.bf151d68,"",%progbits
 115 0000 789C354F 		.ascii	"x\2345O\315KBA\020\237\337\356\363)R\375\003\011\331"
 115      CD4B4241 
 115      109FDFEE 
 115      F32952FD 
 115      0309D9
 116 0013 D14B04D2 		.ascii	"\321K\004\322\241\256B]\243\240\223 a\357\026\011Rg"
 116      A1AE425D 
 116      A3A09320 
 116      61EF1609 
 116      5267
 117 0025 D78F5720 		.ascii	"\327\217W \035\272T\024\205\020\205\332\007\3255\010"
 117      1DBA5414 
 117      851085DA 
 117      07D53508 
 118 0035 CC53117D 		.ascii	"\314S\021}\\\243\213\224x\350\020)FP\246\315\366j`g"
 118      5CA38B94 
 118      78E81029 
 118      4650A6CD 
 118      F66A6067 
 119 0049 76677F1F 		.ascii	"vg\177\0373\006\201tLq\351\347\332\313\007\222 Vn\211"
 119      33068174 
 119      4C71E9E7 
 119      DACB0792 
 119      20566E89 
 120 005d 921E01E8 		.ascii	"\222\036\001\350\213\362\200\022\002\011\274\213o\201"
 120      8BF28012 
 120      0209BC8B 
 120      6F81
 121 006b EB8FCB65 		.ascii	"\353\217\313eo \257TJU\366\362\303\353\205\022lI\324"
 121      6F20AF54 
 121      4A55F6F2 
 121      C3EB8512 
 121      6C49D4
 122 007e 1184A00F 		.ascii	"\021\204\240\017\203>-\221G\200\030\372t\332^\35563"
 122      833E2D91 
 122      478018FA 
 122      74DA5EED 
 122      3633
 123 0090 8AC3AF01 		.ascii	"\212\303\257\001\374S\200\251-\217'J\252\323I\253\322"
 123      FC5380A9 
 123      2D8F274A 
 123      AAD349AB 
 123      D2
 124 00a1 B9F7E2DE 		.ascii	"\271\367\342\336\353\006\331\222}9\031\234\204K'\223"
 124      EB06D992 
 124      7D39199C 
 124      844B2793 
 125 00b1 B42CBD31 		.ascii	"\264,\2751M\017Q\027BWYC\3713\333.\216h\245\264\224"
 125      4D0F5117 
 125      42575943 
 125      F933DB2E 
 125      8E68A5B4 
ARM GAS  C:\Users\info\AppData\Local\Temp\cc22OsCk.s 			page 9


 126 00c6 ECB26697 		.ascii	"\354\262f\227\357\334MaK\011m\372\360\270\361j:\317"
 126      EFDC4D61 
 126      4B096DFA 
 126      F0B8F16A 
 126      3ACF
 127 00d8 939DA432 		.ascii	"\223\235\2442\270U\311n}\271s\330NfxT\003\373\360\241"
 127      B855C96E 
 127      7DB973D8 
 127      4E667854 
 127      03FBF0A1 
 128 00ec 081E1407 		.ascii	"\010\036\024\007\310\201jH\267F)-\341\310\325o6\237"
 128      C8816A48 
 128      B746292D 
 128      E1C8D56F 
 128      369F
 129 00fe 7B341FF0 		.ascii	"{4\037\360\343\220a5\244\032KM\341\030\032\214\323\214"
 129      E3906135 
 129      A41A4B4D 
 129      E1181A8C 
 129      D38C
 130 0110 C662D570 		.ascii	"\306b\325p:.n2\355j\367\254\325\245i\002.\034\375\323"
 130      3A2E6E32 
 130      ED6AF7AC 
 130      D5A56902 
 130      2E1CFDD3 
 131 0124 AA70401A 		.ascii	"\252p@\032G/\370\0231\351w1\350\205x\275\2761k\316\212"
 131      472FF813 
 131      31E97731 
 131      E88578BD 
 131      BE316BCE 
 132 0139 4FCF5B33 		.ascii	"O\317[3\221\311\330B<j\205\307'c\241\241p(6\033\011"
 132      91C9D842 
 132      3C6A85C7 
 132      2763A1A1 
 132      7028361B 
 133 014e 0E44E907 		.ascii	"\016D\351\007\326t{\206"
 133      D6747B86 
 134              		.text
 135              		.section	.gnu.lto_.symbol_nodes.bf151d68,"",%progbits
 136 0000 789C6361 		.ascii	"x\234ca`dpc\000\002&\206z\006\206\011\347\030@\324\256"
 136      60647063 
 136      00022686 
 136      7A068609 
 136      E71840D4 
 137 0015 0645A000 		.ascii	"\006E\240\000c=#\252\000S=\023\252\000s=3\212\000\003"
 137      633D23AA 
 137      00533D13 
 137      AA00733D 
 137      338A0003 
 138 0029 0026B60F 		.ascii	"\000&\266\017<"
 138      3C
 139              		.text
 140              		.section	.gnu.lto_.refs.bf151d68,"",%progbits
 141 0000 789C6361 		.ascii	"x\234ca`\004B \000\000\0009\000\007"
 141      60044220 
 141      00000039 
 141      0007
ARM GAS  C:\Users\info\AppData\Local\Temp\cc22OsCk.s 			page 10


 142              		.text
 143              		.section	.gnu.lto_.decls.bf151d68,"",%progbits
 144 0000 789C8D53 		.ascii	"x\234\215S]HTA\024\236s\357u\225\253\251I\224\017K\231"
 144      5D485441 
 144      149E73EF 
 144      7595ABA9 
 144      49940F4B 
 145 0015 4F3E2D89 		.ascii	"O>-\211\004>U\240\344S\031Z\366\220 \253^L\0107\266"
 145      043E55A0 
 145      E453195A 
 145      F69020AB 
 145      5E4C0837 
 146 002a 35F02118 		.ascii	"5\360!\030\374\001\363\245\265\264\324\224\254\240\374"
 146      FC01F3A5 
 146      B5B4D494 
 146      ACA0FC
 147 0039 4B2D7F72 		.ascii	"K-\177rW\3135ME2\374\011C\014\362'\003\311`C\261$l;"
 147      57CB354D 
 147      4532FC09 
 147      430CF227 
 147      03C96043 
 148 0051 33F7EEDE 		.ascii	"3\367\356\336\2556p\270g\346\234\231\363}\363\235\263"
 148      AD3670B8 
 148      67E69C99 
 148      F37DF39D 
 148      B3
 149 0062 B31201C2 		.ascii	"\263\022\001\302\306\005\211\220[\270\0321\364\340\010"
 149      C6058990 
 149      5BB81A31 
 149      F4E008
 150 0071 423F83E8 		.ascii	"B?\203\350\003\217I\027Z\017Z\037\232\223\374;\330\271"
 150      038F4917 
 150      5A0F5A1F 
 150      9A93FC3B 
 150      D8B9
 151 0083 41C3B533 		.ascii	"A\303\2653.\264!\264A\264T-\007\264\274\277GO\000\354"
 151      2EB421B4 
 151      41B4542D 
 151      07B4BCBF 
 151      474F00EC 
 152 0097 881FDE8B 		.ascii	"\210\037\336\213\355\011\200ez\202\374p\251\001p}\001"
 152      ED098065 
 152      7A82FC70 
 152      A901707D 
 152      01
 153 00a8 70CE5DE0 		.ascii	"p\316]\340\002\325\271#@_E\315V\304\002\314\203\000"
 153      02D5B923 
 153      405F45CD 
 153      56C402CC 
 153      8300
 154 00ba 5A030980 		.ascii	"Z\003\011\200:\0037\242\032\017\321\021\370L|[\276\205"
 154      3A0337A2 
 154      1A0FD111 
 154      F84C7C5B 
 154      BE85
 155 00cc F8523457 		.ascii	"\370R4W'\343\237w\365x\007'\321\331A\003\201O\201\346"
 155      27E39F77 
ARM GAS  C:\Users\info\AppData\Local\Temp\cc22OsCk.s 			page 11


 155      F5780727 
 155      D1D94103 
 155      814F81E6 
 156 00e0 F37341BF 		.ascii	"\363sA\277\000\324\320\013\360\343S\345\372i\202?k\002"
 156      00D4D00B 
 156      F0E353E5 
 156      FA69823F 
 156      6B02
 157 00f2 6FD1EF97 		.ascii	"o\321\357\2277\306\005\021+F\377\343v\323IS\033\305"
 157      37C60511 
 157      2B46FFE3 
 157      76D34953 
 157      1BC5
 158 0104 61A75438 		.ascii	"a\247T8\250w\246\243\354Ss\310\246\000F\031<\300\342"
 158      A877A6A3 
 158      EC5373C8 
 158      A6004619 
 158      3CC0E2
 159 0117 75C7F61E 		.ascii	"u\307\366\0365f\307\265\225+\277B\305\003\314\027fW"
 159      3566C7B5 
 159      952BBF42 
 159      C503CC17 
 159      6657
 160 0129 5AD72488 		.ascii	"Z\327$\210\223\0371\232\305\237\235\307\034\224FB;\310"
 160      931F319A 
 160      C59F9DC7 
 160      1C944642 
 160      3BC8
 161 013b D0062234 		.ascii	"\320\006\"4\203\211]n\224q.\247\264\230\272\037PC4\201"
 161      83895D6E 
 161      94712EA7 
 161      B498BA1F 
 161      50433481 
 162 014f 04231C31 		.ascii	"\004#\0341\022x\002q\214\223eA+\030\241\005\214\214"
 162      12780271 
 162      8C936541 
 162      2B18A105 
 162      8C8C
 163 0161 7FF5CEBD 		.ascii	"\177\365\316\275/\006I@ \343\311\226\330\336k\317wW"
 163      2F064940 
 163      20E3C996 
 163      D8DE6BCF 
 163      7757
 164 0173 044A8892 		.ascii	"\004J\210\222A\300p\306\375\246!\024\303}2Db\370\266"
 164      41C070C6 
 164      FDA62114 
 164      C37D3244 
 164      62F8B6
 165 0186 6A7E06A2 		.ascii	"j~\006\242o3\015\264\204\306\010\220\261\037\236\"a"
 165      6F330DB4 
 165      84C60890 
 165      B11F9E22 
 165      61
 166 0197 27121278 		.ascii	"'\022\022x\006\3218w\200\244V7^\3462\3076\322\306N\272"
 166      06D13877 
 166      80A45637 
 166      5EE632C7 
ARM GAS  C:\Users\info\AppData\Local\Temp\cc22OsCk.s 			page 12


 166      36D2C64E 
 167 01ac E8594DA8 		.ascii	"\350YM\250\245\256bD\011,\013\232t\315\350\262\3451"
 167      A5AE6244 
 167      092C0B9A 
 167      74CDE8B2 
 167      E531
 168 01be 2C6027BB 		.ascii	",`'\273 \026\201c\325\353\237\0051\213\367`\342\303"
 168      20168163 
 168      D5EB9F05 
 168      318BF760 
 168      E2C3
 169 01d0 FC92A0B2 		.ascii	"\374\222\240\262\2706G\303\350\024r\234\340\034\335"
 169      B83647C3 
 169      E814729C 
 169      E01CDD
 170 01df 3A47B73F 		.ascii	":G\267?G\017\347h]\036\275\011\242\225s4\330\037\266"
 170      470FE768 
 170      5D1EBD09 
 170      A2957334 
 170      D81FB6
 171 01f2 84FAAB66 		.ascii	"\204\372\253f\345\352\262\237s\331\331\232\352~\247"
 171      E5EAB29F 
 171      73D9D99A 
 171      EA7EA7
 172 0201 7D2944BB 		.ascii	"})D\273pvL\364\311\306,\350\325\257\354\365\277\262"
 172      70764CF4 
 172      C9C62CE8 
 172      D5AFECF5 
 172      BFB2
 173 0213 8F5FB9F8 		.ascii	"\217_\271\370\256q+\\\274\306\257\034\253\035\256\212"
 173      AE712B5C 
 173      BCC6AF1C 
 173      AB1DAE8A 
 174 0223 D0589C13 		.ascii	"\320X\234\023^\331\214\303\241s8\3749\234\234c\272\264"
 174      5ED98CC3 
 174      A17338FC 
 174      399C9C63 
 174      BAB4
 175 0235 B35E54DB 		.ascii	"\263^T\333/a\370m\262n%\\m\177\014\206\233\245\033s"
 175      2F61F86D 
 175      B26E255C 
 175      6D7F0C86 
 175      9BA51B73 
 176 0249 06B99C55 		.ascii	"\006\271\234U\261\253\037xr\355\276'X\274\001\374\005"
 176      B1AB1F78 
 176      72EDBE27 
 176      58BC01FC 
 176      05
 177 025a 7555D756 		.ascii	"uU\327V\007\203\034\027\000\356\012\000\327\036\332"
 177      07831C17 
 177      00EE0A00 
 177      D71EDA
 178 0269 8FB395D7 		.ascii	"\217\263\225\327Y\371\203\330\262\227\272\364\027 \253"
 178      59F983D8 
 178      B297BAF4 
 178      1720AB
 179 0278 EDEA9EFA 		.ascii	"\355\352\236\372\332\021\024V\301\336\234\275\204F\215"
ARM GAS  C:\Users\info\AppData\Local\Temp\cc22OsCk.s 			page 13


 179      DA111456 
 179      C1DE9CBD 
 179      84468D
 180 0287 87F3CC01 		.ascii	"\207\363\314\001$\351\347\315\035\2020\376\347\300u"
 180      24E9E7CD 
 180      1D8230FE 
 180      E7C075
 181 0296 471007E6 		.ascii	"G\020\007\346\356\326\213x\306>\271\216\242\024:\015"
 181      EED68B78 
 181      C63EB98E 
 181      A2143A0D 
 182 02a6 3082643C 		.ascii	"0\202d<p\037\347>\333\246\356bj\250\011\367J$\374\200"
 182      701FE73E 
 182      DBA6EE62 
 182      6AA809F7 
 182      4A24FC80 
 183 02ba C02B440E 		.ascii	"\300+D\016#1\017C\223,\227\262\022\262\316[\363mJH\312"
 183      23310F43 
 183      932C97B2 
 183      12B2CE5B 
 183      F36D4A48 
 184 02cf E9733149 		.ascii	"\351s1I\361\361$\2500\277\300\226x8E)P\254f\233\222"
 184      F1F124A8 
 184      30BFC096 
 184      78384529 
 184      50AC669B 
 185 02e4 9B956E29 		.ascii	"\233\225n)\264\346(\231g\322-IG3s\212lE\227\225+\246"
 185      B4E62899 
 185      67D22D49 
 185      4733738A 
 185      6C459795 
 186 02fa 8BE4D07F 		.ascii	"\213\344\320\17728\247)\207D\251\344\351\212-\331\232"
 186      3238A729 
 186      8744A9E4 
 186      E98A2DD9 
 186      9A
 187 030b 7F553965 		.ascii	"\177U9e\311Udu+M1\347\356\325\335d\263\315\234\246\344"
 187      C9556475 
 187      2B4D31E7 
 187      EED5DD64 
 187      B3CD9CA6 
 188 0320 4956252F 		.ascii	"IV%/\3617\024\324l\373"
 188      F13714D4 
 188      6CFB
 189              		.text
 190              		.section	.gnu.lto_.symtab.bf151d68,"",%progbits
 191 0000 436F6C5F 		.ascii	"Col_3_Write\000"
 191      335F5772 
 191      69746500 
 192 000c 00       		.ascii	"\000"
 193 000d 00       		.ascii	"\000"
 194 000e 00       		.ascii	"\000"
 195 000f 00000000 		.ascii	"\000\000\000\000\000\000\000\000"
 195      00000000 
 196 0017 B3000000 		.ascii	"\263\000\000\000"
 197 001b 436F6C5F 		.ascii	"Col_3_SetDriveMode\000"
 197      335F5365 
ARM GAS  C:\Users\info\AppData\Local\Temp\cc22OsCk.s 			page 14


 197      74447269 
 197      76654D6F 
 197      646500
 198 002e 00       		.ascii	"\000"
 199 002f 00       		.ascii	"\000"
 200 0030 00       		.ascii	"\000"
 201 0031 00000000 		.ascii	"\000\000\000\000\000\000\000\000"
 201      00000000 
 202 0039 B5000000 		.ascii	"\265\000\000\000"
 203 003d 436F6C5F 		.ascii	"Col_3_Read\000"
 203      335F5265 
 203      616400
 204 0048 00       		.ascii	"\000"
 205 0049 00       		.ascii	"\000"
 206 004a 00       		.ascii	"\000"
 207 004b 00000000 		.ascii	"\000\000\000\000\000\000\000\000"
 207      00000000 
 208 0053 B8000000 		.ascii	"\270\000\000\000"
 209 0057 436F6C5F 		.ascii	"Col_3_ReadDataReg\000"
 209      335F5265 
 209      61644461 
 209      74615265 
 209      6700
 210 0069 00       		.ascii	"\000"
 211 006a 00       		.ascii	"\000"
 212 006b 00       		.ascii	"\000"
 213 006c 00000000 		.ascii	"\000\000\000\000\000\000\000\000"
 213      00000000 
 214 0074 BA000000 		.ascii	"\272\000\000\000"
 215              		.text
 216              		.section	.gnu.lto_.opts,"",%progbits
 217 0000 272D666D 		.ascii	"'-fmath-errno' '-fsigned-zeros' '-ftrapping-math' '"
 217      6174682D 
 217      6572726E 
 217      6F272027 
 217      2D667369 
 218 0033 2D666E6F 		.ascii	"-fno-trapv' '-fno-openmp' '-fno-openacc' '-mcpu=cor"
 218      2D747261 
 218      70762720 
 218      272D666E 
 218      6F2D6F70 
 219 0066 7465782D 		.ascii	"tex-m3' '-mthumb' '-g' '-Os' '-ffunction-sections' "
 219      6D332720 
 219      272D6D74 
 219      68756D62 
 219      2720272D 
 220 0099 272D6666 		.ascii	"'-ffat-lto-objects' '-flto'\000"
 220      61742D6C 
 220      746F2D6F 
 220      626A6563 
 220      74732720 
 221              		.text
 222              		.cfi_sections	.debug_frame
 223              		.section	.text.Col_3_Write,"ax",%progbits
 224              		.align	1
 225              		.global	Col_3_Write
 226              		.thumb
ARM GAS  C:\Users\info\AppData\Local\Temp\cc22OsCk.s 			page 15


 227              		.thumb_func
 228              		.type	Col_3_Write, %function
 229              	Col_3_Write:
 230              	.LFB0:
 231              		.file 1 "Generated_Source\\PSoC5\\Col_3.c"
   1:Generated_Source\PSoC5/Col_3.c **** /*******************************************************************************
   2:Generated_Source\PSoC5/Col_3.c **** * File Name: Col_3.c  
   3:Generated_Source\PSoC5/Col_3.c **** * Version 2.20
   4:Generated_Source\PSoC5/Col_3.c **** *
   5:Generated_Source\PSoC5/Col_3.c **** * Description:
   6:Generated_Source\PSoC5/Col_3.c **** *  This file contains API to enable firmware control of a Pins component.
   7:Generated_Source\PSoC5/Col_3.c **** *
   8:Generated_Source\PSoC5/Col_3.c **** * Note:
   9:Generated_Source\PSoC5/Col_3.c **** *
  10:Generated_Source\PSoC5/Col_3.c **** ********************************************************************************
  11:Generated_Source\PSoC5/Col_3.c **** * Copyright 2008-2015, Cypress Semiconductor Corporation.  All rights reserved.
  12:Generated_Source\PSoC5/Col_3.c **** * You may use this file only in accordance with the license, terms, conditions, 
  13:Generated_Source\PSoC5/Col_3.c **** * disclaimers, and limitations in the end user license agreement accompanying 
  14:Generated_Source\PSoC5/Col_3.c **** * the software package with which this file was provided.
  15:Generated_Source\PSoC5/Col_3.c **** *******************************************************************************/
  16:Generated_Source\PSoC5/Col_3.c **** 
  17:Generated_Source\PSoC5/Col_3.c **** #include "cytypes.h"
  18:Generated_Source\PSoC5/Col_3.c **** #include "Col_3.h"
  19:Generated_Source\PSoC5/Col_3.c **** 
  20:Generated_Source\PSoC5/Col_3.c **** /* APIs are not generated for P15[7:6] on PSoC 5 */
  21:Generated_Source\PSoC5/Col_3.c **** #if !(CY_PSOC5A &&\
  22:Generated_Source\PSoC5/Col_3.c **** 	 Col_3__PORT == 15 && ((Col_3__MASK & 0xC0) != 0))
  23:Generated_Source\PSoC5/Col_3.c **** 
  24:Generated_Source\PSoC5/Col_3.c **** 
  25:Generated_Source\PSoC5/Col_3.c **** /*******************************************************************************
  26:Generated_Source\PSoC5/Col_3.c **** * Function Name: Col_3_Write
  27:Generated_Source\PSoC5/Col_3.c **** ****************************************************************************//**
  28:Generated_Source\PSoC5/Col_3.c **** *
  29:Generated_Source\PSoC5/Col_3.c **** * \brief Writes the value to the physical port (data output register), masking
  30:Generated_Source\PSoC5/Col_3.c **** *  and shifting the bits appropriately. 
  31:Generated_Source\PSoC5/Col_3.c **** *
  32:Generated_Source\PSoC5/Col_3.c **** * The data output register controls the signal applied to the physical pin in 
  33:Generated_Source\PSoC5/Col_3.c **** * conjunction with the drive mode parameter. This function avoids changing 
  34:Generated_Source\PSoC5/Col_3.c **** * other bits in the port by using the appropriate method (read-modify-write or
  35:Generated_Source\PSoC5/Col_3.c **** * bit banding).
  36:Generated_Source\PSoC5/Col_3.c **** *
  37:Generated_Source\PSoC5/Col_3.c **** * <b>Note</b> This function should not be used on a hardware digital output pin 
  38:Generated_Source\PSoC5/Col_3.c **** * as it is driven by the hardware signal attached to it.
  39:Generated_Source\PSoC5/Col_3.c **** *
  40:Generated_Source\PSoC5/Col_3.c **** * \param value
  41:Generated_Source\PSoC5/Col_3.c **** *  Value to write to the component instance.
  42:Generated_Source\PSoC5/Col_3.c **** *
  43:Generated_Source\PSoC5/Col_3.c **** * \return 
  44:Generated_Source\PSoC5/Col_3.c **** *  None 
  45:Generated_Source\PSoC5/Col_3.c **** *
  46:Generated_Source\PSoC5/Col_3.c **** * \sideeffect
  47:Generated_Source\PSoC5/Col_3.c **** *  If you use read-modify-write operations that are not atomic; the Interrupt 
  48:Generated_Source\PSoC5/Col_3.c **** *  Service Routines (ISR) can cause corruption of this function. An ISR that 
  49:Generated_Source\PSoC5/Col_3.c **** *  interrupts this function and performs writes to the Pins component data 
  50:Generated_Source\PSoC5/Col_3.c **** *  register can cause corrupted port data. To avoid this issue, you should 
  51:Generated_Source\PSoC5/Col_3.c **** *  either use the Per-Pin APIs (primary method) or disable interrupts around 
  52:Generated_Source\PSoC5/Col_3.c **** *  this function.
ARM GAS  C:\Users\info\AppData\Local\Temp\cc22OsCk.s 			page 16


  53:Generated_Source\PSoC5/Col_3.c **** *
  54:Generated_Source\PSoC5/Col_3.c **** * \funcusage
  55:Generated_Source\PSoC5/Col_3.c **** *  \snippet Col_3_SUT.c usage_Col_3_Write
  56:Generated_Source\PSoC5/Col_3.c **** *******************************************************************************/
  57:Generated_Source\PSoC5/Col_3.c **** void Col_3_Write(uint8 value)
  58:Generated_Source\PSoC5/Col_3.c **** {
 232              		.loc 1 58 0
 233              		.cfi_startproc
 234              		@ args = 0, pretend = 0, frame = 0
 235              		@ frame_needed = 0, uses_anonymous_args = 0
 236              		@ link register save eliminated.
 237              	.LVL0:
  59:Generated_Source\PSoC5/Col_3.c ****     uint8 staticBits = (Col_3_DR & (uint8)(~Col_3_MASK));
 238              		.loc 1 59 0
 239 0000 044A     		ldr	r2, .L2
  60:Generated_Source\PSoC5/Col_3.c ****     Col_3_DR = staticBits | ((uint8)(value << Col_3_SHIFT) & Col_3_MASK);
 240              		.loc 1 60 0
 241 0002 4001     		lsls	r0, r0, #5
 242              	.LVL1:
  59:Generated_Source\PSoC5/Col_3.c ****     uint8 staticBits = (Col_3_DR & (uint8)(~Col_3_MASK));
 243              		.loc 1 59 0
 244 0004 1378     		ldrb	r3, [r2]	@ zero_extendqisi2
 245              	.LVL2:
 246              		.loc 1 60 0
 247 0006 00F02000 		and	r0, r0, #32
 248 000a 03F0DF03 		and	r3, r3, #223
 249              	.LVL3:
 250 000e 0343     		orrs	r3, r3, r0
 251 0010 1370     		strb	r3, [r2]
 252 0012 7047     		bx	lr
 253              	.L3:
 254              		.align	2
 255              	.L2:
 256 0014 30510040 		.word	1073762608
 257              		.cfi_endproc
 258              	.LFE0:
 259              		.size	Col_3_Write, .-Col_3_Write
 260              		.section	.text.Col_3_SetDriveMode,"ax",%progbits
 261              		.align	1
 262              		.global	Col_3_SetDriveMode
 263              		.thumb
 264              		.thumb_func
 265              		.type	Col_3_SetDriveMode, %function
 266              	Col_3_SetDriveMode:
 267              	.LFB1:
  61:Generated_Source\PSoC5/Col_3.c **** }
  62:Generated_Source\PSoC5/Col_3.c **** 
  63:Generated_Source\PSoC5/Col_3.c **** 
  64:Generated_Source\PSoC5/Col_3.c **** /*******************************************************************************
  65:Generated_Source\PSoC5/Col_3.c **** * Function Name: Col_3_SetDriveMode
  66:Generated_Source\PSoC5/Col_3.c **** ****************************************************************************//**
  67:Generated_Source\PSoC5/Col_3.c **** *
  68:Generated_Source\PSoC5/Col_3.c **** * \brief Sets the drive mode for each of the Pins component's pins.
  69:Generated_Source\PSoC5/Col_3.c **** * 
  70:Generated_Source\PSoC5/Col_3.c **** * <b>Note</b> This affects all pins in the Pins component instance. Use the
  71:Generated_Source\PSoC5/Col_3.c **** * Per-Pin APIs if you wish to control individual pin's drive modes.
  72:Generated_Source\PSoC5/Col_3.c **** *
ARM GAS  C:\Users\info\AppData\Local\Temp\cc22OsCk.s 			page 17


  73:Generated_Source\PSoC5/Col_3.c **** * \param mode
  74:Generated_Source\PSoC5/Col_3.c **** *  Mode for the selected signals. Valid options are documented in 
  75:Generated_Source\PSoC5/Col_3.c **** *  \ref driveMode.
  76:Generated_Source\PSoC5/Col_3.c **** *
  77:Generated_Source\PSoC5/Col_3.c **** * \return
  78:Generated_Source\PSoC5/Col_3.c **** *  None
  79:Generated_Source\PSoC5/Col_3.c **** *
  80:Generated_Source\PSoC5/Col_3.c **** * \sideeffect
  81:Generated_Source\PSoC5/Col_3.c **** *  If you use read-modify-write operations that are not atomic, the ISR can
  82:Generated_Source\PSoC5/Col_3.c **** *  cause corruption of this function. An ISR that interrupts this function 
  83:Generated_Source\PSoC5/Col_3.c **** *  and performs writes to the Pins component Drive Mode registers can cause 
  84:Generated_Source\PSoC5/Col_3.c **** *  corrupted port data. To avoid this issue, you should either use the Per-Pin
  85:Generated_Source\PSoC5/Col_3.c **** *  APIs (primary method) or disable interrupts around this function.
  86:Generated_Source\PSoC5/Col_3.c **** *
  87:Generated_Source\PSoC5/Col_3.c **** * \funcusage
  88:Generated_Source\PSoC5/Col_3.c **** *  \snippet Col_3_SUT.c usage_Col_3_SetDriveMode
  89:Generated_Source\PSoC5/Col_3.c **** *******************************************************************************/
  90:Generated_Source\PSoC5/Col_3.c **** void Col_3_SetDriveMode(uint8 mode)
  91:Generated_Source\PSoC5/Col_3.c **** {
 268              		.loc 1 91 0
 269              		.cfi_startproc
 270              		@ args = 0, pretend = 0, frame = 0
 271              		@ frame_needed = 0, uses_anonymous_args = 0
 272              		@ link register save eliminated.
 273              	.LVL4:
  92:Generated_Source\PSoC5/Col_3.c **** 	CyPins_SetPinDriveMode(Col_3_0, mode);
 274              		.loc 1 92 0
 275 0000 044A     		ldr	r2, .L5
 276 0002 00F00E00 		and	r0, r0, #14
 277              	.LVL5:
 278 0006 1378     		ldrb	r3, [r2]	@ zero_extendqisi2
 279 0008 03F0F103 		and	r3, r3, #241
 280 000c 1843     		orrs	r0, r0, r3
 281 000e 1070     		strb	r0, [r2]
 282 0010 7047     		bx	lr
 283              	.L6:
 284 0012 00BF     		.align	2
 285              	.L5:
 286 0014 1D500040 		.word	1073762333
 287              		.cfi_endproc
 288              	.LFE1:
 289              		.size	Col_3_SetDriveMode, .-Col_3_SetDriveMode
 290              		.section	.text.Col_3_Read,"ax",%progbits
 291              		.align	1
 292              		.global	Col_3_Read
 293              		.thumb
 294              		.thumb_func
 295              		.type	Col_3_Read, %function
 296              	Col_3_Read:
 297              	.LFB2:
  93:Generated_Source\PSoC5/Col_3.c **** }
  94:Generated_Source\PSoC5/Col_3.c **** 
  95:Generated_Source\PSoC5/Col_3.c **** 
  96:Generated_Source\PSoC5/Col_3.c **** /*******************************************************************************
  97:Generated_Source\PSoC5/Col_3.c **** * Function Name: Col_3_Read
  98:Generated_Source\PSoC5/Col_3.c **** ****************************************************************************//**
  99:Generated_Source\PSoC5/Col_3.c **** *
ARM GAS  C:\Users\info\AppData\Local\Temp\cc22OsCk.s 			page 18


 100:Generated_Source\PSoC5/Col_3.c **** * \brief Reads the associated physical port (pin status register) and masks 
 101:Generated_Source\PSoC5/Col_3.c **** *  the required bits according to the width and bit position of the component
 102:Generated_Source\PSoC5/Col_3.c **** *  instance. 
 103:Generated_Source\PSoC5/Col_3.c **** *
 104:Generated_Source\PSoC5/Col_3.c **** * The pin's status register returns the current logic level present on the 
 105:Generated_Source\PSoC5/Col_3.c **** * physical pin.
 106:Generated_Source\PSoC5/Col_3.c **** *
 107:Generated_Source\PSoC5/Col_3.c **** * \return 
 108:Generated_Source\PSoC5/Col_3.c **** *  The current value for the pins in the component as a right justified number.
 109:Generated_Source\PSoC5/Col_3.c **** *
 110:Generated_Source\PSoC5/Col_3.c **** * \funcusage
 111:Generated_Source\PSoC5/Col_3.c **** *  \snippet Col_3_SUT.c usage_Col_3_Read  
 112:Generated_Source\PSoC5/Col_3.c **** *******************************************************************************/
 113:Generated_Source\PSoC5/Col_3.c **** uint8 Col_3_Read(void)
 114:Generated_Source\PSoC5/Col_3.c **** {
 298              		.loc 1 114 0
 299              		.cfi_startproc
 300              		@ args = 0, pretend = 0, frame = 0
 301              		@ frame_needed = 0, uses_anonymous_args = 0
 302              		@ link register save eliminated.
 115:Generated_Source\PSoC5/Col_3.c ****     return (Col_3_PS & Col_3_MASK) >> Col_3_SHIFT;
 303              		.loc 1 115 0
 304 0000 024B     		ldr	r3, .L8
 305 0002 1878     		ldrb	r0, [r3]	@ zero_extendqisi2
 116:Generated_Source\PSoC5/Col_3.c **** }
 306              		.loc 1 116 0
 307 0004 C0F34010 		ubfx	r0, r0, #5, #1
 308 0008 7047     		bx	lr
 309              	.L9:
 310 000a 00BF     		.align	2
 311              	.L8:
 312 000c 31510040 		.word	1073762609
 313              		.cfi_endproc
 314              	.LFE2:
 315              		.size	Col_3_Read, .-Col_3_Read
 316              		.section	.text.Col_3_ReadDataReg,"ax",%progbits
 317              		.align	1
 318              		.global	Col_3_ReadDataReg
 319              		.thumb
 320              		.thumb_func
 321              		.type	Col_3_ReadDataReg, %function
 322              	Col_3_ReadDataReg:
 323              	.LFB3:
 117:Generated_Source\PSoC5/Col_3.c **** 
 118:Generated_Source\PSoC5/Col_3.c **** 
 119:Generated_Source\PSoC5/Col_3.c **** /*******************************************************************************
 120:Generated_Source\PSoC5/Col_3.c **** * Function Name: Col_3_ReadDataReg
 121:Generated_Source\PSoC5/Col_3.c **** ****************************************************************************//**
 122:Generated_Source\PSoC5/Col_3.c **** *
 123:Generated_Source\PSoC5/Col_3.c **** * \brief Reads the associated physical port's data output register and masks 
 124:Generated_Source\PSoC5/Col_3.c **** *  the correct bits according to the width and bit position of the component 
 125:Generated_Source\PSoC5/Col_3.c **** *  instance. 
 126:Generated_Source\PSoC5/Col_3.c **** *
 127:Generated_Source\PSoC5/Col_3.c **** * The data output register controls the signal applied to the physical pin in 
 128:Generated_Source\PSoC5/Col_3.c **** * conjunction with the drive mode parameter. This is not the same as the 
 129:Generated_Source\PSoC5/Col_3.c **** * preferred Col_3_Read() API because the 
 130:Generated_Source\PSoC5/Col_3.c **** * Col_3_ReadDataReg() reads the data register instead of the status 
ARM GAS  C:\Users\info\AppData\Local\Temp\cc22OsCk.s 			page 19


 131:Generated_Source\PSoC5/Col_3.c **** * register. For output pins this is a useful function to determine the value 
 132:Generated_Source\PSoC5/Col_3.c **** * just written to the pin.
 133:Generated_Source\PSoC5/Col_3.c **** *
 134:Generated_Source\PSoC5/Col_3.c **** * \return 
 135:Generated_Source\PSoC5/Col_3.c **** *  The current value of the data register masked and shifted into a right 
 136:Generated_Source\PSoC5/Col_3.c **** *  justified number for the component instance.
 137:Generated_Source\PSoC5/Col_3.c **** *
 138:Generated_Source\PSoC5/Col_3.c **** * \funcusage
 139:Generated_Source\PSoC5/Col_3.c **** *  \snippet Col_3_SUT.c usage_Col_3_ReadDataReg 
 140:Generated_Source\PSoC5/Col_3.c **** *******************************************************************************/
 141:Generated_Source\PSoC5/Col_3.c **** uint8 Col_3_ReadDataReg(void)
 142:Generated_Source\PSoC5/Col_3.c **** {
 324              		.loc 1 142 0
 325              		.cfi_startproc
 326              		@ args = 0, pretend = 0, frame = 0
 327              		@ frame_needed = 0, uses_anonymous_args = 0
 328              		@ link register save eliminated.
 143:Generated_Source\PSoC5/Col_3.c ****     return (Col_3_DR & Col_3_MASK) >> Col_3_SHIFT;
 329              		.loc 1 143 0
 330 0000 024B     		ldr	r3, .L11
 331 0002 1878     		ldrb	r0, [r3]	@ zero_extendqisi2
 144:Generated_Source\PSoC5/Col_3.c **** }
 332              		.loc 1 144 0
 333 0004 C0F34010 		ubfx	r0, r0, #5, #1
 334 0008 7047     		bx	lr
 335              	.L12:
 336 000a 00BF     		.align	2
 337              	.L11:
 338 000c 30510040 		.word	1073762608
 339              		.cfi_endproc
 340              	.LFE3:
 341              		.size	Col_3_ReadDataReg, .-Col_3_ReadDataReg
 342              		.text
 343              	.Letext0:
 344              		.file 2 "Generated_Source\\PSoC5\\cytypes.h"