ARM GAS  C:\Users\info\AppData\Local\Temp\ccDbtwl2.s 			page 1


   1              		.syntax unified
   2              		.cpu cortex-m3
   3              		.fpu softvfp
   4              		.eabi_attribute 20, 1
   5              		.eabi_attribute 21, 1
   6              		.eabi_attribute 23, 3
   7              		.eabi_attribute 24, 1
   8              		.eabi_attribute 25, 1
   9              		.eabi_attribute 26, 1
  10              		.eabi_attribute 30, 2
  11              		.eabi_attribute 34, 1
  12              		.eabi_attribute 18, 4
  13              		.thumb
  14              		.syntax unified
  15              		.file	"cyfitter_cfg.c"
  16              		.text
  17              	.Ltext0:
  18              		.cfi_sections	.debug_frame
  19              		.section	.text.SetAnalogRoutingPumps,"ax",%progbits
  20              		.align	2
  21              		.global	SetAnalogRoutingPumps
  22              		.thumb
  23              		.thumb_func
  24              		.type	SetAnalogRoutingPumps, %function
  25              	SetAnalogRoutingPumps:
  26              	.LFB7:
  27              		.file 1 "Generated_Source\\PSoC5\\cyfitter_cfg.c"
   1:Generated_Source\PSoC5/cyfitter_cfg.c **** 
   2:Generated_Source\PSoC5/cyfitter_cfg.c **** /*******************************************************************************
   3:Generated_Source\PSoC5/cyfitter_cfg.c **** * File Name: cyfitter_cfg.c
   4:Generated_Source\PSoC5/cyfitter_cfg.c **** * 
   5:Generated_Source\PSoC5/cyfitter_cfg.c **** * PSoC Creator  4.2
   6:Generated_Source\PSoC5/cyfitter_cfg.c **** *
   7:Generated_Source\PSoC5/cyfitter_cfg.c **** * Description:
   8:Generated_Source\PSoC5/cyfitter_cfg.c **** * This file contains device initialization code.
   9:Generated_Source\PSoC5/cyfitter_cfg.c **** * Except for the user defined sections in CyClockStartupError(), this file should not be modified.
  10:Generated_Source\PSoC5/cyfitter_cfg.c **** * This file is automatically generated by PSoC Creator.
  11:Generated_Source\PSoC5/cyfitter_cfg.c **** *
  12:Generated_Source\PSoC5/cyfitter_cfg.c **** ********************************************************************************
  13:Generated_Source\PSoC5/cyfitter_cfg.c **** * Copyright (c) 2007-2018 Cypress Semiconductor.  All rights reserved.
  14:Generated_Source\PSoC5/cyfitter_cfg.c **** * You may use this file only in accordance with the license, terms, conditions, 
  15:Generated_Source\PSoC5/cyfitter_cfg.c **** * disclaimers, and limitations in the end user license agreement accompanying 
  16:Generated_Source\PSoC5/cyfitter_cfg.c **** * the software package with which this file was provided.
  17:Generated_Source\PSoC5/cyfitter_cfg.c **** ********************************************************************************/
  18:Generated_Source\PSoC5/cyfitter_cfg.c **** 
  19:Generated_Source\PSoC5/cyfitter_cfg.c **** #include <string.h>
  20:Generated_Source\PSoC5/cyfitter_cfg.c **** #include "cytypes.h"
  21:Generated_Source\PSoC5/cyfitter_cfg.c **** #include "cydevice_trm.h"
  22:Generated_Source\PSoC5/cyfitter_cfg.c **** #include "cyfitter.h"
  23:Generated_Source\PSoC5/cyfitter_cfg.c **** #include "CyLib.h"
  24:Generated_Source\PSoC5/cyfitter_cfg.c **** #include "cyfitter_cfg.h"
  25:Generated_Source\PSoC5/cyfitter_cfg.c **** #include "cyapicallbacks.h"
  26:Generated_Source\PSoC5/cyfitter_cfg.c **** 
  27:Generated_Source\PSoC5/cyfitter_cfg.c **** #define CY_NEED_CYCLOCKSTARTUPERROR 1
  28:Generated_Source\PSoC5/cyfitter_cfg.c **** 
  29:Generated_Source\PSoC5/cyfitter_cfg.c **** 
  30:Generated_Source\PSoC5/cyfitter_cfg.c **** #if defined(__GNUC__) || defined(__ARMCC_VERSION)
ARM GAS  C:\Users\info\AppData\Local\Temp\ccDbtwl2.s 			page 2


  31:Generated_Source\PSoC5/cyfitter_cfg.c ****     #define CYPACKED 
  32:Generated_Source\PSoC5/cyfitter_cfg.c ****     #define CYPACKED_ATTR __attribute__ ((packed))
  33:Generated_Source\PSoC5/cyfitter_cfg.c ****     #define CYALIGNED __attribute__ ((aligned))
  34:Generated_Source\PSoC5/cyfitter_cfg.c ****     #define CY_CFG_UNUSED __attribute__ ((unused))
  35:Generated_Source\PSoC5/cyfitter_cfg.c ****     #ifndef CY_CFG_SECTION
  36:Generated_Source\PSoC5/cyfitter_cfg.c ****         #define CY_CFG_SECTION __attribute__ ((section(".psocinit")))
  37:Generated_Source\PSoC5/cyfitter_cfg.c ****     #endif
  38:Generated_Source\PSoC5/cyfitter_cfg.c ****     
  39:Generated_Source\PSoC5/cyfitter_cfg.c ****     #if defined(__ARMCC_VERSION)
  40:Generated_Source\PSoC5/cyfitter_cfg.c ****         #define CY_CFG_MEMORY_BARRIER() __memory_changed()
  41:Generated_Source\PSoC5/cyfitter_cfg.c ****     #else
  42:Generated_Source\PSoC5/cyfitter_cfg.c ****         #define CY_CFG_MEMORY_BARRIER() __sync_synchronize()
  43:Generated_Source\PSoC5/cyfitter_cfg.c ****     #endif
  44:Generated_Source\PSoC5/cyfitter_cfg.c ****     
  45:Generated_Source\PSoC5/cyfitter_cfg.c **** #elif defined(__ICCARM__)
  46:Generated_Source\PSoC5/cyfitter_cfg.c ****     #include <intrinsics.h>
  47:Generated_Source\PSoC5/cyfitter_cfg.c **** 
  48:Generated_Source\PSoC5/cyfitter_cfg.c ****     #define CYPACKED __packed
  49:Generated_Source\PSoC5/cyfitter_cfg.c ****     #define CYPACKED_ATTR 
  50:Generated_Source\PSoC5/cyfitter_cfg.c ****     #define CYALIGNED _Pragma("data_alignment=4")
  51:Generated_Source\PSoC5/cyfitter_cfg.c ****     #define CY_CFG_UNUSED _Pragma("diag_suppress=Pe177")
  52:Generated_Source\PSoC5/cyfitter_cfg.c ****     #define CY_CFG_SECTION _Pragma("location=\".psocinit\"")
  53:Generated_Source\PSoC5/cyfitter_cfg.c ****     
  54:Generated_Source\PSoC5/cyfitter_cfg.c ****     #define CY_CFG_MEMORY_BARRIER() __DMB()
  55:Generated_Source\PSoC5/cyfitter_cfg.c ****     
  56:Generated_Source\PSoC5/cyfitter_cfg.c **** #else
  57:Generated_Source\PSoC5/cyfitter_cfg.c ****     #error Unsupported toolchain
  58:Generated_Source\PSoC5/cyfitter_cfg.c **** #endif
  59:Generated_Source\PSoC5/cyfitter_cfg.c **** 
  60:Generated_Source\PSoC5/cyfitter_cfg.c **** #ifndef CYCODE
  61:Generated_Source\PSoC5/cyfitter_cfg.c ****     #define CYCODE
  62:Generated_Source\PSoC5/cyfitter_cfg.c **** #endif
  63:Generated_Source\PSoC5/cyfitter_cfg.c **** #ifndef CYDATA
  64:Generated_Source\PSoC5/cyfitter_cfg.c ****     #define CYDATA
  65:Generated_Source\PSoC5/cyfitter_cfg.c **** #endif
  66:Generated_Source\PSoC5/cyfitter_cfg.c **** #ifndef CYFAR
  67:Generated_Source\PSoC5/cyfitter_cfg.c ****     #define CYFAR
  68:Generated_Source\PSoC5/cyfitter_cfg.c **** #endif
  69:Generated_Source\PSoC5/cyfitter_cfg.c **** #ifndef CYXDATA
  70:Generated_Source\PSoC5/cyfitter_cfg.c ****     #define CYXDATA
  71:Generated_Source\PSoC5/cyfitter_cfg.c **** #endif
  72:Generated_Source\PSoC5/cyfitter_cfg.c **** 
  73:Generated_Source\PSoC5/cyfitter_cfg.c **** 
  74:Generated_Source\PSoC5/cyfitter_cfg.c **** CY_CFG_UNUSED
  75:Generated_Source\PSoC5/cyfitter_cfg.c **** static void CYMEMZERO(void *s, size_t n);
  76:Generated_Source\PSoC5/cyfitter_cfg.c **** CY_CFG_UNUSED
  77:Generated_Source\PSoC5/cyfitter_cfg.c **** static void CYMEMZERO(void *s, size_t n)
  78:Generated_Source\PSoC5/cyfitter_cfg.c **** {
  79:Generated_Source\PSoC5/cyfitter_cfg.c **** 	(void)memset(s, 0, n);
  80:Generated_Source\PSoC5/cyfitter_cfg.c **** }
  81:Generated_Source\PSoC5/cyfitter_cfg.c **** CY_CFG_UNUSED
  82:Generated_Source\PSoC5/cyfitter_cfg.c **** static void CYCONFIGCPY(void *dest, const void *src, size_t n);
  83:Generated_Source\PSoC5/cyfitter_cfg.c **** CY_CFG_UNUSED
  84:Generated_Source\PSoC5/cyfitter_cfg.c **** static void CYCONFIGCPY(void *dest, const void *src, size_t n)
  85:Generated_Source\PSoC5/cyfitter_cfg.c **** {
  86:Generated_Source\PSoC5/cyfitter_cfg.c **** 	(void)memcpy(dest, src, n);
  87:Generated_Source\PSoC5/cyfitter_cfg.c **** }
ARM GAS  C:\Users\info\AppData\Local\Temp\ccDbtwl2.s 			page 3


  88:Generated_Source\PSoC5/cyfitter_cfg.c **** CY_CFG_UNUSED
  89:Generated_Source\PSoC5/cyfitter_cfg.c **** static void CYCONFIGCPYCODE(void *dest, const void *src, size_t n);
  90:Generated_Source\PSoC5/cyfitter_cfg.c **** CY_CFG_UNUSED
  91:Generated_Source\PSoC5/cyfitter_cfg.c **** static void CYCONFIGCPYCODE(void *dest, const void *src, size_t n)
  92:Generated_Source\PSoC5/cyfitter_cfg.c **** {
  93:Generated_Source\PSoC5/cyfitter_cfg.c **** 	(void)memcpy(dest, src, n);
  94:Generated_Source\PSoC5/cyfitter_cfg.c **** }
  95:Generated_Source\PSoC5/cyfitter_cfg.c **** 
  96:Generated_Source\PSoC5/cyfitter_cfg.c **** 
  97:Generated_Source\PSoC5/cyfitter_cfg.c **** 
  98:Generated_Source\PSoC5/cyfitter_cfg.c **** 
  99:Generated_Source\PSoC5/cyfitter_cfg.c **** /* Clock startup error codes                                                   */
 100:Generated_Source\PSoC5/cyfitter_cfg.c **** #define CYCLOCKSTART_NO_ERROR    0u
 101:Generated_Source\PSoC5/cyfitter_cfg.c **** #define CYCLOCKSTART_XTAL_ERROR  1u
 102:Generated_Source\PSoC5/cyfitter_cfg.c **** #define CYCLOCKSTART_32KHZ_ERROR 2u
 103:Generated_Source\PSoC5/cyfitter_cfg.c **** #define CYCLOCKSTART_PLL_ERROR   3u
 104:Generated_Source\PSoC5/cyfitter_cfg.c **** #define CYCLOCKSTART_FLL_ERROR   4u
 105:Generated_Source\PSoC5/cyfitter_cfg.c **** #define CYCLOCKSTART_WCO_ERROR   5u
 106:Generated_Source\PSoC5/cyfitter_cfg.c **** 
 107:Generated_Source\PSoC5/cyfitter_cfg.c **** 
 108:Generated_Source\PSoC5/cyfitter_cfg.c **** #ifdef CY_NEED_CYCLOCKSTARTUPERROR
 109:Generated_Source\PSoC5/cyfitter_cfg.c **** /*******************************************************************************
 110:Generated_Source\PSoC5/cyfitter_cfg.c **** * Function Name: CyClockStartupError
 111:Generated_Source\PSoC5/cyfitter_cfg.c **** ********************************************************************************
 112:Generated_Source\PSoC5/cyfitter_cfg.c **** * Summary:
 113:Generated_Source\PSoC5/cyfitter_cfg.c **** *  If an error is encountered during clock configuration (crystal startup error,
 114:Generated_Source\PSoC5/cyfitter_cfg.c **** *  PLL lock error, etc.), the system will end up here.  Unless reimplemented by
 115:Generated_Source\PSoC5/cyfitter_cfg.c **** *  the customer, this function will stop in an infinite loop.
 116:Generated_Source\PSoC5/cyfitter_cfg.c **** *
 117:Generated_Source\PSoC5/cyfitter_cfg.c **** * Parameters:
 118:Generated_Source\PSoC5/cyfitter_cfg.c **** *   void
 119:Generated_Source\PSoC5/cyfitter_cfg.c **** *
 120:Generated_Source\PSoC5/cyfitter_cfg.c **** * Return:
 121:Generated_Source\PSoC5/cyfitter_cfg.c **** *   void
 122:Generated_Source\PSoC5/cyfitter_cfg.c **** *
 123:Generated_Source\PSoC5/cyfitter_cfg.c **** *******************************************************************************/
 124:Generated_Source\PSoC5/cyfitter_cfg.c **** CY_CFG_UNUSED
 125:Generated_Source\PSoC5/cyfitter_cfg.c **** static void CyClockStartupError(uint8 errorCode);
 126:Generated_Source\PSoC5/cyfitter_cfg.c **** CY_CFG_UNUSED
 127:Generated_Source\PSoC5/cyfitter_cfg.c **** static void CyClockStartupError(uint8 errorCode)
 128:Generated_Source\PSoC5/cyfitter_cfg.c **** {
 129:Generated_Source\PSoC5/cyfitter_cfg.c ****     /* To remove the compiler warning if errorCode not used.                */
 130:Generated_Source\PSoC5/cyfitter_cfg.c ****     errorCode = errorCode;
 131:Generated_Source\PSoC5/cyfitter_cfg.c **** 
 132:Generated_Source\PSoC5/cyfitter_cfg.c ****     /* If we have a clock startup error (bad MHz crystal, PLL lock, etc.),  */
 133:Generated_Source\PSoC5/cyfitter_cfg.c ****     /* we will end up here to allow the customer to implement something to  */
 134:Generated_Source\PSoC5/cyfitter_cfg.c ****     /* deal with the clock condition.                                       */
 135:Generated_Source\PSoC5/cyfitter_cfg.c **** 
 136:Generated_Source\PSoC5/cyfitter_cfg.c **** #ifdef CY_CFG_CLOCK_STARTUP_ERROR_CALLBACK
 137:Generated_Source\PSoC5/cyfitter_cfg.c ****     CY_CFG_Clock_Startup_ErrorCallback();
 138:Generated_Source\PSoC5/cyfitter_cfg.c **** #else
 139:Generated_Source\PSoC5/cyfitter_cfg.c ****     /*  If not using CY_CFG_CLOCK_STARTUP_ERROR_CALLBACK, place your clock startup code here. */
 140:Generated_Source\PSoC5/cyfitter_cfg.c ****     /* `#START CyClockStartupError` */
 141:Generated_Source\PSoC5/cyfitter_cfg.c **** 
 142:Generated_Source\PSoC5/cyfitter_cfg.c **** 
 143:Generated_Source\PSoC5/cyfitter_cfg.c **** 
 144:Generated_Source\PSoC5/cyfitter_cfg.c ****     /* `#END` */
ARM GAS  C:\Users\info\AppData\Local\Temp\ccDbtwl2.s 			page 4


 145:Generated_Source\PSoC5/cyfitter_cfg.c **** 
 146:Generated_Source\PSoC5/cyfitter_cfg.c ****     while(1) {}
 147:Generated_Source\PSoC5/cyfitter_cfg.c **** #endif /* CY_CFG_CLOCK_STARTUP_ERROR_CALLBACK */
 148:Generated_Source\PSoC5/cyfitter_cfg.c **** }
 149:Generated_Source\PSoC5/cyfitter_cfg.c **** #endif
 150:Generated_Source\PSoC5/cyfitter_cfg.c **** 
 151:Generated_Source\PSoC5/cyfitter_cfg.c **** #define CY_CFG_BASE_ADDR_COUNT 20u
 152:Generated_Source\PSoC5/cyfitter_cfg.c **** CYPACKED typedef struct
 153:Generated_Source\PSoC5/cyfitter_cfg.c **** {
 154:Generated_Source\PSoC5/cyfitter_cfg.c **** 	uint8 offset;
 155:Generated_Source\PSoC5/cyfitter_cfg.c **** 	uint8 value;
 156:Generated_Source\PSoC5/cyfitter_cfg.c **** } CYPACKED_ATTR cy_cfg_addrvalue_t;
 157:Generated_Source\PSoC5/cyfitter_cfg.c **** 
 158:Generated_Source\PSoC5/cyfitter_cfg.c **** #define cy_cfg_addr_table ((const uint32 CYFAR *)0x48000000u)
 159:Generated_Source\PSoC5/cyfitter_cfg.c **** #define cy_cfg_data_table ((const cy_cfg_addrvalue_t CYFAR *)0x48000050u)
 160:Generated_Source\PSoC5/cyfitter_cfg.c **** 
 161:Generated_Source\PSoC5/cyfitter_cfg.c **** /* IOPINS0_7 Address: CYREG_PRT12_DR Size (bytes): 10 */
 162:Generated_Source\PSoC5/cyfitter_cfg.c **** #define BS_IOPINS0_7_VAL ((const uint8 CYFAR *)0x480002C0u)
 163:Generated_Source\PSoC5/cyfitter_cfg.c **** 
 164:Generated_Source\PSoC5/cyfitter_cfg.c **** /* IOPINS0_1 Address: CYREG_PRT1_DM0 Size (bytes): 8 */
 165:Generated_Source\PSoC5/cyfitter_cfg.c **** #define BS_IOPINS0_1_VAL ((const uint8 CYFAR *)0x480002CCu)
 166:Generated_Source\PSoC5/cyfitter_cfg.c **** 
 167:Generated_Source\PSoC5/cyfitter_cfg.c **** /* IOPINS0_2 Address: CYREG_PRT2_DM0 Size (bytes): 8 */
 168:Generated_Source\PSoC5/cyfitter_cfg.c **** #define BS_IOPINS0_2_VAL ((const uint8 CYFAR *)0x480002D4u)
 169:Generated_Source\PSoC5/cyfitter_cfg.c **** 
 170:Generated_Source\PSoC5/cyfitter_cfg.c **** /* IOPINS0_3 Address: CYREG_PRT3_DM0 Size (bytes): 8 */
 171:Generated_Source\PSoC5/cyfitter_cfg.c **** #define BS_IOPINS0_3_VAL ((const uint8 CYFAR *)0x480002DCu)
 172:Generated_Source\PSoC5/cyfitter_cfg.c **** 
 173:Generated_Source\PSoC5/cyfitter_cfg.c **** 
 174:Generated_Source\PSoC5/cyfitter_cfg.c **** /*******************************************************************************
 175:Generated_Source\PSoC5/cyfitter_cfg.c **** * Function Name: cfg_write_bytes32
 176:Generated_Source\PSoC5/cyfitter_cfg.c **** ********************************************************************************
 177:Generated_Source\PSoC5/cyfitter_cfg.c **** * Summary:
 178:Generated_Source\PSoC5/cyfitter_cfg.c **** *  This function is used for setting up the chip configuration areas that
 179:Generated_Source\PSoC5/cyfitter_cfg.c **** *  contain relatively sparse data.
 180:Generated_Source\PSoC5/cyfitter_cfg.c **** *
 181:Generated_Source\PSoC5/cyfitter_cfg.c **** * Parameters:
 182:Generated_Source\PSoC5/cyfitter_cfg.c **** *   void
 183:Generated_Source\PSoC5/cyfitter_cfg.c **** *
 184:Generated_Source\PSoC5/cyfitter_cfg.c **** * Return:
 185:Generated_Source\PSoC5/cyfitter_cfg.c **** *   void
 186:Generated_Source\PSoC5/cyfitter_cfg.c **** *
 187:Generated_Source\PSoC5/cyfitter_cfg.c **** *******************************************************************************/
 188:Generated_Source\PSoC5/cyfitter_cfg.c **** static void cfg_write_bytes32(const uint32 addr_table[], const cy_cfg_addrvalue_t data_table[]);
 189:Generated_Source\PSoC5/cyfitter_cfg.c **** static void cfg_write_bytes32(const uint32 addr_table[], const cy_cfg_addrvalue_t data_table[])
 190:Generated_Source\PSoC5/cyfitter_cfg.c **** {
 191:Generated_Source\PSoC5/cyfitter_cfg.c **** 	/* For 32-bit little-endian architectures */
 192:Generated_Source\PSoC5/cyfitter_cfg.c **** 	uint32 i, j = 0u;
 193:Generated_Source\PSoC5/cyfitter_cfg.c **** 	for (i = 0u; i < CY_CFG_BASE_ADDR_COUNT; i++)
 194:Generated_Source\PSoC5/cyfitter_cfg.c **** 	{
 195:Generated_Source\PSoC5/cyfitter_cfg.c **** 		uint32 baseAddr = addr_table[i];
 196:Generated_Source\PSoC5/cyfitter_cfg.c **** 		uint8 count = (uint8)baseAddr;
 197:Generated_Source\PSoC5/cyfitter_cfg.c **** 		baseAddr &= 0xFFFFFF00u;
 198:Generated_Source\PSoC5/cyfitter_cfg.c **** 		while (count != 0u)
 199:Generated_Source\PSoC5/cyfitter_cfg.c **** 		{
 200:Generated_Source\PSoC5/cyfitter_cfg.c **** 			CY_SET_REG8((void *)(baseAddr + data_table[j].offset), data_table[j].value);
 201:Generated_Source\PSoC5/cyfitter_cfg.c **** 			j++;
ARM GAS  C:\Users\info\AppData\Local\Temp\ccDbtwl2.s 			page 5


 202:Generated_Source\PSoC5/cyfitter_cfg.c **** 			count--;
 203:Generated_Source\PSoC5/cyfitter_cfg.c **** 		}
 204:Generated_Source\PSoC5/cyfitter_cfg.c **** 	}
 205:Generated_Source\PSoC5/cyfitter_cfg.c **** }
 206:Generated_Source\PSoC5/cyfitter_cfg.c **** 
 207:Generated_Source\PSoC5/cyfitter_cfg.c **** /*******************************************************************************
 208:Generated_Source\PSoC5/cyfitter_cfg.c **** * Function Name: ClockSetup
 209:Generated_Source\PSoC5/cyfitter_cfg.c **** ********************************************************************************
 210:Generated_Source\PSoC5/cyfitter_cfg.c **** *
 211:Generated_Source\PSoC5/cyfitter_cfg.c **** * Summary:
 212:Generated_Source\PSoC5/cyfitter_cfg.c **** *  Performs the initialization of all of the clocks in the device based on the
 213:Generated_Source\PSoC5/cyfitter_cfg.c **** *  settings in the Clock tab of the DWR.  This includes enabling the requested
 214:Generated_Source\PSoC5/cyfitter_cfg.c **** *  clocks and setting the necessary dividers to produce the desired frequency. 
 215:Generated_Source\PSoC5/cyfitter_cfg.c **** *
 216:Generated_Source\PSoC5/cyfitter_cfg.c **** * Parameters:
 217:Generated_Source\PSoC5/cyfitter_cfg.c **** *  void
 218:Generated_Source\PSoC5/cyfitter_cfg.c **** *
 219:Generated_Source\PSoC5/cyfitter_cfg.c **** * Return:
 220:Generated_Source\PSoC5/cyfitter_cfg.c **** *  void
 221:Generated_Source\PSoC5/cyfitter_cfg.c **** *
 222:Generated_Source\PSoC5/cyfitter_cfg.c **** *******************************************************************************/
 223:Generated_Source\PSoC5/cyfitter_cfg.c **** static void ClockSetup(void);
 224:Generated_Source\PSoC5/cyfitter_cfg.c **** static void ClockSetup(void)
 225:Generated_Source\PSoC5/cyfitter_cfg.c **** {
 226:Generated_Source\PSoC5/cyfitter_cfg.c **** 	uint32 timeout;
 227:Generated_Source\PSoC5/cyfitter_cfg.c **** 	uint8 pllLock;
 228:Generated_Source\PSoC5/cyfitter_cfg.c **** 
 229:Generated_Source\PSoC5/cyfitter_cfg.c **** 
 230:Generated_Source\PSoC5/cyfitter_cfg.c **** 	/* Configure Digital Clocks based on settings from Clock DWR */
 231:Generated_Source\PSoC5/cyfitter_cfg.c **** 	CY_SET_XTND_REG16((void CYFAR *)(CYREG_CLKDIST_DCFG0_CFG0), 0x0007u);
 232:Generated_Source\PSoC5/cyfitter_cfg.c **** 	CY_SET_XTND_REG8((void CYFAR *)(CYREG_CLKDIST_DCFG0_CFG0 + 0x2u), 0x18u);
 233:Generated_Source\PSoC5/cyfitter_cfg.c **** 	CY_SET_XTND_REG16((void CYFAR *)(CYREG_CLKDIST_DCFG1_CFG0), 0x2A68u);
 234:Generated_Source\PSoC5/cyfitter_cfg.c **** 	CY_SET_XTND_REG8((void CYFAR *)(CYREG_CLKDIST_DCFG1_CFG0 + 0x2u), 0x18u);
 235:Generated_Source\PSoC5/cyfitter_cfg.c **** 
 236:Generated_Source\PSoC5/cyfitter_cfg.c **** 	/* Configure ILO based on settings from Clock DWR */
 237:Generated_Source\PSoC5/cyfitter_cfg.c **** 	CY_SET_XTND_REG8((void CYFAR *)(CYREG_SLOWCLK_ILO_CR0), 0x02u);
 238:Generated_Source\PSoC5/cyfitter_cfg.c **** 	CY_SET_XTND_REG8((void CYFAR *)(CYREG_CLKDIST_CR), 0x08u);
 239:Generated_Source\PSoC5/cyfitter_cfg.c **** 
 240:Generated_Source\PSoC5/cyfitter_cfg.c **** 	/* Configure IMO based on settings from Clock DWR */
 241:Generated_Source\PSoC5/cyfitter_cfg.c **** 	CY_SET_XTND_REG8((void CYFAR *)(CYREG_FASTCLK_IMO_CR), 0x02u);
 242:Generated_Source\PSoC5/cyfitter_cfg.c **** 	CY_SET_XTND_REG8((void CYFAR *)(CYREG_IMO_TR1), (CY_GET_XTND_REG8((void CYFAR *)CYREG_FLSHID_CUST_
 243:Generated_Source\PSoC5/cyfitter_cfg.c **** 
 244:Generated_Source\PSoC5/cyfitter_cfg.c **** 	/* Configure PLL based on settings from Clock DWR */
 245:Generated_Source\PSoC5/cyfitter_cfg.c **** 	CY_SET_XTND_REG16((void CYFAR *)(CYREG_FASTCLK_PLL_P), 0x0D26u);
 246:Generated_Source\PSoC5/cyfitter_cfg.c **** 	CY_SET_XTND_REG16((void CYFAR *)(CYREG_FASTCLK_PLL_CFG0), 0x1251u);
 247:Generated_Source\PSoC5/cyfitter_cfg.c **** 	/* Wait up to 250us for the PLL to lock */
 248:Generated_Source\PSoC5/cyfitter_cfg.c **** 	pllLock = 0u;
 249:Generated_Source\PSoC5/cyfitter_cfg.c **** 	for (timeout = 250u / 10u; (timeout > 0u) && (pllLock != 0x03u); timeout--)
 250:Generated_Source\PSoC5/cyfitter_cfg.c **** 	{ 
 251:Generated_Source\PSoC5/cyfitter_cfg.c **** 		pllLock = 0x03u & ((uint8)((uint8)pllLock << 1) | ((CY_GET_XTND_REG8((void CYFAR *)CYREG_FASTCLK_
 252:Generated_Source\PSoC5/cyfitter_cfg.c **** 		CyDelayCycles(10u * 48u); /* Delay 10us based on 48MHz clock */
 253:Generated_Source\PSoC5/cyfitter_cfg.c **** 	}
 254:Generated_Source\PSoC5/cyfitter_cfg.c **** 	/* If we ran out of time the PLL didn't lock so go to the error function */
 255:Generated_Source\PSoC5/cyfitter_cfg.c **** 	if (timeout == 0u)
 256:Generated_Source\PSoC5/cyfitter_cfg.c **** 	{
 257:Generated_Source\PSoC5/cyfitter_cfg.c **** 		CyClockStartupError(CYCLOCKSTART_PLL_ERROR);
 258:Generated_Source\PSoC5/cyfitter_cfg.c **** 	}
ARM GAS  C:\Users\info\AppData\Local\Temp\ccDbtwl2.s 			page 6


 259:Generated_Source\PSoC5/cyfitter_cfg.c **** 
 260:Generated_Source\PSoC5/cyfitter_cfg.c **** 	/* Configure Bus/Master Clock based on settings from Clock DWR */
 261:Generated_Source\PSoC5/cyfitter_cfg.c **** 	CY_SET_XTND_REG16((void CYFAR *)(CYREG_CLKDIST_MSTR0), 0x0100u);
 262:Generated_Source\PSoC5/cyfitter_cfg.c **** 	CY_SET_XTND_REG8((void CYFAR *)(CYREG_CLKDIST_MSTR0), 0x07u);
 263:Generated_Source\PSoC5/cyfitter_cfg.c **** 	CY_SET_XTND_REG8((void CYFAR *)(CYREG_CLKDIST_BCFG0), 0x00u);
 264:Generated_Source\PSoC5/cyfitter_cfg.c **** 	CY_SET_XTND_REG8((void CYFAR *)(CYREG_CLKDIST_BCFG2), 0x48u);
 265:Generated_Source\PSoC5/cyfitter_cfg.c **** 	CY_SET_XTND_REG8((void CYFAR *)(CYREG_CLKDIST_MSTR0), 0x00u);
 266:Generated_Source\PSoC5/cyfitter_cfg.c **** 	CY_SET_XTND_REG8((void CYFAR *)(CYREG_CLKDIST_LD), 0x02u);
 267:Generated_Source\PSoC5/cyfitter_cfg.c **** 
 268:Generated_Source\PSoC5/cyfitter_cfg.c **** 	CY_SET_XTND_REG8((void CYFAR *)(CYREG_PM_ACT_CFG2), ((CY_GET_XTND_REG8((void CYFAR *)CYREG_PM_ACT_
 269:Generated_Source\PSoC5/cyfitter_cfg.c **** }
 270:Generated_Source\PSoC5/cyfitter_cfg.c **** 
 271:Generated_Source\PSoC5/cyfitter_cfg.c **** 
 272:Generated_Source\PSoC5/cyfitter_cfg.c **** /* Analog API Functions */
 273:Generated_Source\PSoC5/cyfitter_cfg.c **** 
 274:Generated_Source\PSoC5/cyfitter_cfg.c **** 
 275:Generated_Source\PSoC5/cyfitter_cfg.c **** /*******************************************************************************
 276:Generated_Source\PSoC5/cyfitter_cfg.c **** * Function Name: AnalogSetDefault
 277:Generated_Source\PSoC5/cyfitter_cfg.c **** ********************************************************************************
 278:Generated_Source\PSoC5/cyfitter_cfg.c **** *
 279:Generated_Source\PSoC5/cyfitter_cfg.c **** * Summary:
 280:Generated_Source\PSoC5/cyfitter_cfg.c **** *  Sets up the analog portions of the chip to default values based on chip
 281:Generated_Source\PSoC5/cyfitter_cfg.c **** *  configuration options from the project.
 282:Generated_Source\PSoC5/cyfitter_cfg.c **** *
 283:Generated_Source\PSoC5/cyfitter_cfg.c **** * Parameters:
 284:Generated_Source\PSoC5/cyfitter_cfg.c **** *  void
 285:Generated_Source\PSoC5/cyfitter_cfg.c **** *
 286:Generated_Source\PSoC5/cyfitter_cfg.c **** * Return:
 287:Generated_Source\PSoC5/cyfitter_cfg.c **** *  void
 288:Generated_Source\PSoC5/cyfitter_cfg.c **** *
 289:Generated_Source\PSoC5/cyfitter_cfg.c **** *******************************************************************************/
 290:Generated_Source\PSoC5/cyfitter_cfg.c **** static void AnalogSetDefault(void);
 291:Generated_Source\PSoC5/cyfitter_cfg.c **** static void AnalogSetDefault(void)
 292:Generated_Source\PSoC5/cyfitter_cfg.c **** {
 293:Generated_Source\PSoC5/cyfitter_cfg.c **** 	uint8 bg_xover_inl_trim = CY_GET_XTND_REG8((void CYFAR *)(CYREG_FLSHID_MFG_CFG_BG_XOVER_INL_TRIM +
 294:Generated_Source\PSoC5/cyfitter_cfg.c **** 	CY_SET_XTND_REG8((void CYFAR *)(CYREG_BG_DFT0), (bg_xover_inl_trim & 0x07u));
 295:Generated_Source\PSoC5/cyfitter_cfg.c **** 	CY_SET_XTND_REG8((void CYFAR *)(CYREG_BG_DFT1), ((bg_xover_inl_trim >> 4) & 0x0Fu));
 296:Generated_Source\PSoC5/cyfitter_cfg.c **** 	CY_SET_XTND_REG8((void CYFAR *)CYREG_PUMP_CR0, 0x44u);
 297:Generated_Source\PSoC5/cyfitter_cfg.c **** }
 298:Generated_Source\PSoC5/cyfitter_cfg.c **** 
 299:Generated_Source\PSoC5/cyfitter_cfg.c **** 
 300:Generated_Source\PSoC5/cyfitter_cfg.c **** /*******************************************************************************
 301:Generated_Source\PSoC5/cyfitter_cfg.c **** * Function Name: SetAnalogRoutingPumps
 302:Generated_Source\PSoC5/cyfitter_cfg.c **** ********************************************************************************
 303:Generated_Source\PSoC5/cyfitter_cfg.c **** *
 304:Generated_Source\PSoC5/cyfitter_cfg.c **** * Summary:
 305:Generated_Source\PSoC5/cyfitter_cfg.c **** * Enables or disables the analog pumps feeding analog routing switches.
 306:Generated_Source\PSoC5/cyfitter_cfg.c **** * Intended to be called at startup, based on the Vdda system configuration;
 307:Generated_Source\PSoC5/cyfitter_cfg.c **** * may be called during operation when the user informs us that the Vdda voltage
 308:Generated_Source\PSoC5/cyfitter_cfg.c **** * crossed the pump threshold.
 309:Generated_Source\PSoC5/cyfitter_cfg.c **** *
 310:Generated_Source\PSoC5/cyfitter_cfg.c **** * Parameters:
 311:Generated_Source\PSoC5/cyfitter_cfg.c **** *  enabled - 1 to enable the pumps, 0 to disable the pumps
 312:Generated_Source\PSoC5/cyfitter_cfg.c **** *
 313:Generated_Source\PSoC5/cyfitter_cfg.c **** * Return:
 314:Generated_Source\PSoC5/cyfitter_cfg.c **** *  void
 315:Generated_Source\PSoC5/cyfitter_cfg.c **** *
ARM GAS  C:\Users\info\AppData\Local\Temp\ccDbtwl2.s 			page 7


 316:Generated_Source\PSoC5/cyfitter_cfg.c **** *******************************************************************************/
 317:Generated_Source\PSoC5/cyfitter_cfg.c **** void SetAnalogRoutingPumps(uint8 enabled)
 318:Generated_Source\PSoC5/cyfitter_cfg.c **** {
  28              		.loc 1 318 0
  29              		.cfi_startproc
  30              		@ args = 0, pretend = 0, frame = 0
  31              		@ frame_needed = 0, uses_anonymous_args = 0
  32              		@ link register save eliminated.
  33              	.LVL0:
 319:Generated_Source\PSoC5/cyfitter_cfg.c **** 	uint8 regValue = CY_GET_XTND_REG8((void CYFAR *)CYREG_PUMP_CR0);
  34              		.loc 1 319 0
  35 0000 024A     		ldr	r2, .L2
  36 0002 1378     		ldrb	r3, [r2]	@ zero_extendqisi2
  37 0004 DBB2     		uxtb	r3, r3
  38              	.LVL1:
 320:Generated_Source\PSoC5/cyfitter_cfg.c **** 	if (enabled != 0u)
 321:Generated_Source\PSoC5/cyfitter_cfg.c **** 	{
 322:Generated_Source\PSoC5/cyfitter_cfg.c **** 		regValue |= 0x00u;
 323:Generated_Source\PSoC5/cyfitter_cfg.c **** 	}
 324:Generated_Source\PSoC5/cyfitter_cfg.c **** 	else
 325:Generated_Source\PSoC5/cyfitter_cfg.c **** 	{
 326:Generated_Source\PSoC5/cyfitter_cfg.c **** 		regValue &= (uint8)~0x00u;
 327:Generated_Source\PSoC5/cyfitter_cfg.c **** 	}
 328:Generated_Source\PSoC5/cyfitter_cfg.c **** 	CY_SET_XTND_REG8((void CYFAR *)CYREG_PUMP_CR0, regValue);
  39              		.loc 1 328 0
  40 0006 1370     		strb	r3, [r2]
  41 0008 7047     		bx	lr
  42              	.L3:
  43 000a 00BF     		.align	2
  44              	.L2:
  45 000c 76580040 		.word	1073764470
  46              		.cfi_endproc
  47              	.LFE7:
  48              		.size	SetAnalogRoutingPumps, .-SetAnalogRoutingPumps
  49              		.section	.text.cyfitter_cfg,"ax",%progbits
  50              		.align	2
  51              		.global	cyfitter_cfg
  52              		.thumb
  53              		.thumb_func
  54              		.type	cyfitter_cfg, %function
  55              	cyfitter_cfg:
  56              	.LFB8:
 329:Generated_Source\PSoC5/cyfitter_cfg.c **** }
 330:Generated_Source\PSoC5/cyfitter_cfg.c **** 
 331:Generated_Source\PSoC5/cyfitter_cfg.c **** 
 332:Generated_Source\PSoC5/cyfitter_cfg.c **** 
 333:Generated_Source\PSoC5/cyfitter_cfg.c **** 
 334:Generated_Source\PSoC5/cyfitter_cfg.c **** /*******************************************************************************
 335:Generated_Source\PSoC5/cyfitter_cfg.c **** * Function Name: cyfitter_cfg
 336:Generated_Source\PSoC5/cyfitter_cfg.c **** ********************************************************************************
 337:Generated_Source\PSoC5/cyfitter_cfg.c **** * Summary:
 338:Generated_Source\PSoC5/cyfitter_cfg.c **** *  This function is called by the start-up code for the selected device. It
 339:Generated_Source\PSoC5/cyfitter_cfg.c **** *  performs all of the necessary device configuration based on the design
 340:Generated_Source\PSoC5/cyfitter_cfg.c **** *  settings.  This includes settings from the Design Wide Resources (DWR) such
 341:Generated_Source\PSoC5/cyfitter_cfg.c **** *  as Clocks and Pins as well as any component configuration that is necessary.
 342:Generated_Source\PSoC5/cyfitter_cfg.c **** *
 343:Generated_Source\PSoC5/cyfitter_cfg.c **** * Parameters:
ARM GAS  C:\Users\info\AppData\Local\Temp\ccDbtwl2.s 			page 8


 344:Generated_Source\PSoC5/cyfitter_cfg.c **** *   void
 345:Generated_Source\PSoC5/cyfitter_cfg.c **** *
 346:Generated_Source\PSoC5/cyfitter_cfg.c **** * Return:
 347:Generated_Source\PSoC5/cyfitter_cfg.c **** *   void
 348:Generated_Source\PSoC5/cyfitter_cfg.c **** *
 349:Generated_Source\PSoC5/cyfitter_cfg.c **** *******************************************************************************/
 350:Generated_Source\PSoC5/cyfitter_cfg.c **** 
 351:Generated_Source\PSoC5/cyfitter_cfg.c **** void cyfitter_cfg(void)
 352:Generated_Source\PSoC5/cyfitter_cfg.c **** {
  57              		.loc 1 352 0
  58              		.cfi_startproc
  59              		@ args = 0, pretend = 0, frame = 0
  60              		@ frame_needed = 0, uses_anonymous_args = 0
  61 0000 F8B5     		push	{r3, r4, r5, r6, r7, lr}
  62              		.cfi_def_cfa_offset 24
  63              		.cfi_offset 3, -24
  64              		.cfi_offset 4, -20
  65              		.cfi_offset 5, -16
  66              		.cfi_offset 6, -12
  67              		.cfi_offset 7, -8
  68              		.cfi_offset 14, -4
 353:Generated_Source\PSoC5/cyfitter_cfg.c **** #ifdef CYGlobalIntDisable
 354:Generated_Source\PSoC5/cyfitter_cfg.c **** 	/* Disable interrupts by default. Let user enable if/when they want. */
 355:Generated_Source\PSoC5/cyfitter_cfg.c **** 	CYGlobalIntDisable
  69              		.loc 1 355 0
  70              		.syntax unified
  71              	@ 355 "Generated_Source\PSoC5\cyfitter_cfg.c" 1
  72 0002 72B6     		CPSID   i
  73              	@ 0 "" 2
  74              		.thumb
  75              		.syntax unified
  76              	.LBB48:
  77              	.LBB49:
 233:Generated_Source\PSoC5/cyfitter_cfg.c **** 	CY_SET_XTND_REG8((void CYFAR *)(CYREG_CLKDIST_DCFG1_CFG0 + 0x2u), 0x18u);
  78              		.loc 1 233 0
  79 0004 42F66824 		movw	r4, #10856
 245:Generated_Source\PSoC5/cyfitter_cfg.c **** 	CY_SET_XTND_REG16((void CYFAR *)(CYREG_FASTCLK_PLL_CFG0), 0x1251u);
  80              		.loc 1 245 0
  81 0008 40F62656 		movw	r6, #3366
 246:Generated_Source\PSoC5/cyfitter_cfg.c **** 	/* Wait up to 250us for the PLL to lock */
  82              		.loc 1 246 0
  83 000c 41F25120 		movw	r0, #4689
  84              	.LBE49:
  85              	.LBE48:
 356:Generated_Source\PSoC5/cyfitter_cfg.c **** #endif
 357:Generated_Source\PSoC5/cyfitter_cfg.c **** 
 358:Generated_Source\PSoC5/cyfitter_cfg.c **** 
 359:Generated_Source\PSoC5/cyfitter_cfg.c **** 	/* Set Flash Cycles based on max possible frequency in case a glitch occurs during ClockSetup(). *
 360:Generated_Source\PSoC5/cyfitter_cfg.c **** 	CY_SET_XTND_REG8((void CYFAR *)(CYREG_CACHE_CC_CTL), (((CYDEV_INSTRUCT_CACHE_ENABLED) != 0) ? 0x61
  86              		.loc 1 360 0
  87 0010 664D     		ldr	r5, .L27
  88              	.LBB54:
  89              	.LBB50:
 231:Generated_Source\PSoC5/cyfitter_cfg.c **** 	CY_SET_XTND_REG8((void CYFAR *)(CYREG_CLKDIST_DCFG0_CFG0 + 0x2u), 0x18u);
  90              		.loc 1 231 0
  91 0012 674A     		ldr	r2, .L27+4
  92              	.LBE50:
ARM GAS  C:\Users\info\AppData\Local\Temp\ccDbtwl2.s 			page 9


  93              	.LBE54:
  94              		.loc 1 360 0
  95 0014 6127     		movs	r7, #97
  96 0016 2F70     		strb	r7, [r5]
  97              	.LBB55:
  98              	.LBB51:
 232:Generated_Source\PSoC5/cyfitter_cfg.c **** 	CY_SET_XTND_REG16((void CYFAR *)(CYREG_CLKDIST_DCFG1_CFG0), 0x2A68u);
  99              		.loc 1 232 0
 100 0018 6649     		ldr	r1, .L27+8
 233:Generated_Source\PSoC5/cyfitter_cfg.c **** 	CY_SET_XTND_REG8((void CYFAR *)(CYREG_CLKDIST_DCFG1_CFG0 + 0x2u), 0x18u);
 101              		.loc 1 233 0
 102 001a 674B     		ldr	r3, .L27+12
 231:Generated_Source\PSoC5/cyfitter_cfg.c **** 	CY_SET_XTND_REG8((void CYFAR *)(CYREG_CLKDIST_DCFG0_CFG0 + 0x2u), 0x18u);
 103              		.loc 1 231 0
 104 001c 0725     		movs	r5, #7
 105 001e 1580     		strh	r5, [r2]	@ movhi
 234:Generated_Source\PSoC5/cyfitter_cfg.c **** 
 106              		.loc 1 234 0
 107 0020 664F     		ldr	r7, .L27+16
 232:Generated_Source\PSoC5/cyfitter_cfg.c **** 	CY_SET_XTND_REG16((void CYFAR *)(CYREG_CLKDIST_DCFG1_CFG0), 0x2A68u);
 108              		.loc 1 232 0
 109 0022 1825     		movs	r5, #24
 110 0024 0D70     		strb	r5, [r1]
 233:Generated_Source\PSoC5/cyfitter_cfg.c **** 	CY_SET_XTND_REG8((void CYFAR *)(CYREG_CLKDIST_DCFG1_CFG0 + 0x2u), 0x18u);
 111              		.loc 1 233 0
 112 0026 1C80     		strh	r4, [r3]	@ movhi
 237:Generated_Source\PSoC5/cyfitter_cfg.c **** 	CY_SET_XTND_REG8((void CYFAR *)(CYREG_CLKDIST_CR), 0x08u);
 113              		.loc 1 237 0
 114 0028 0223     		movs	r3, #2
 234:Generated_Source\PSoC5/cyfitter_cfg.c **** 
 115              		.loc 1 234 0
 116 002a 3D70     		strb	r5, [r7]
 238:Generated_Source\PSoC5/cyfitter_cfg.c **** 
 117              		.loc 1 238 0
 118 002c 4FF04024 		mov	r4, #1073758208
 237:Generated_Source\PSoC5/cyfitter_cfg.c **** 	CY_SET_XTND_REG8((void CYFAR *)(CYREG_CLKDIST_CR), 0x08u);
 119              		.loc 1 237 0
 120 0030 82F88032 		strb	r3, [r2, #640]
 238:Generated_Source\PSoC5/cyfitter_cfg.c **** 
 121              		.loc 1 238 0
 122 0034 0827     		movs	r7, #8
 242:Generated_Source\PSoC5/cyfitter_cfg.c **** 
 123              		.loc 1 242 0
 124 0036 624A     		ldr	r2, .L27+20
 238:Generated_Source\PSoC5/cyfitter_cfg.c **** 
 125              		.loc 1 238 0
 126 0038 2770     		strb	r7, [r4]
 241:Generated_Source\PSoC5/cyfitter_cfg.c **** 	CY_SET_XTND_REG8((void CYFAR *)(CYREG_IMO_TR1), (CY_GET_XTND_REG8((void CYFAR *)CYREG_FLSHID_CUST_
 127              		.loc 1 241 0
 128 003a 81F87E31 		strb	r3, [r1, #382]
 242:Generated_Source\PSoC5/cyfitter_cfg.c **** 
 129              		.loc 1 242 0
 130 003e 1278     		ldrb	r2, [r2]	@ zero_extendqisi2
 131 0040 604F     		ldr	r7, .L27+24
 251:Generated_Source\PSoC5/cyfitter_cfg.c **** 		CyDelayCycles(10u * 48u); /* Delay 10us based on 48MHz clock */
 132              		.loc 1 251 0
 133 0042 614B     		ldr	r3, .L27+28
ARM GAS  C:\Users\info\AppData\Local\Temp\ccDbtwl2.s 			page 10


 242:Generated_Source\PSoC5/cyfitter_cfg.c **** 
 134              		.loc 1 242 0
 135 0044 D2B2     		uxtb	r2, r2
 136 0046 3A70     		strb	r2, [r7]
 245:Generated_Source\PSoC5/cyfitter_cfg.c **** 	CY_SET_XTND_REG16((void CYFAR *)(CYREG_FASTCLK_PLL_CFG0), 0x1251u);
 137              		.loc 1 245 0
 138 0048 A4F82262 		strh	r6, [r4, #546]	@ movhi
 246:Generated_Source\PSoC5/cyfitter_cfg.c **** 	/* Wait up to 250us for the PLL to lock */
 139              		.loc 1 246 0
 140 004c A1F89E01 		strh	r0, [r1, #414]	@ movhi
 141              	.LVL2:
 251:Generated_Source\PSoC5/cyfitter_cfg.c **** 		CyDelayCycles(10u * 48u); /* Delay 10us based on 48MHz clock */
 142              		.loc 1 251 0
 143 0050 1C78     		ldrb	r4, [r3]	@ zero_extendqisi2
 252:Generated_Source\PSoC5/cyfitter_cfg.c **** 	}
 144              		.loc 1 252 0
 145 0052 4FF4F070 		mov	r0, #480
 251:Generated_Source\PSoC5/cyfitter_cfg.c **** 		CyDelayCycles(10u * 48u); /* Delay 10us based on 48MHz clock */
 146              		.loc 1 251 0
 147 0056 04F00104 		and	r4, r4, #1
 148              	.LVL3:
 149 005a 1E46     		mov	r6, r3
 252:Generated_Source\PSoC5/cyfitter_cfg.c **** 	}
 150              		.loc 1 252 0
 151 005c FFF7FEFF 		bl	CyDelayCycles
 152              	.LVL4:
 153 0060 01E0     		b	.L6
 154              	.L26:
 249:Generated_Source\PSoC5/cyfitter_cfg.c **** 	{ 
 155              		.loc 1 249 0
 156 0062 032C     		cmp	r4, #3
 157 0064 0DD0     		beq	.L25
 158              	.L6:
 251:Generated_Source\PSoC5/cyfitter_cfg.c **** 		CyDelayCycles(10u * 48u); /* Delay 10us based on 48MHz clock */
 159              		.loc 1 251 0
 160 0066 3378     		ldrb	r3, [r6]	@ zero_extendqisi2
 252:Generated_Source\PSoC5/cyfitter_cfg.c **** 	}
 161              		.loc 1 252 0
 162 0068 4FF4F070 		mov	r0, #480
 251:Generated_Source\PSoC5/cyfitter_cfg.c **** 		CyDelayCycles(10u * 48u); /* Delay 10us based on 48MHz clock */
 163              		.loc 1 251 0
 164 006c 03F00103 		and	r3, r3, #1
 165 0070 43EA4404 		orr	r4, r3, r4, lsl #1
 166              	.LVL5:
 252:Generated_Source\PSoC5/cyfitter_cfg.c **** 	}
 167              		.loc 1 252 0
 168 0074 FFF7FEFF 		bl	CyDelayCycles
 169              	.LVL6:
 249:Generated_Source\PSoC5/cyfitter_cfg.c **** 	{ 
 170              		.loc 1 249 0
 171 0078 013D     		subs	r5, r5, #1
 251:Generated_Source\PSoC5/cyfitter_cfg.c **** 		CyDelayCycles(10u * 48u); /* Delay 10us based on 48MHz clock */
 172              		.loc 1 251 0
 173 007a 04F00304 		and	r4, r4, #3
 174              	.LVL7:
 249:Generated_Source\PSoC5/cyfitter_cfg.c **** 	{ 
 175              		.loc 1 249 0
ARM GAS  C:\Users\info\AppData\Local\Temp\ccDbtwl2.s 			page 11


 176 007e F0D1     		bne	.L26
 177              	.L5:
 178 0080 FEE7     		b	.L5
 179              	.L25:
 180 0082 524E     		ldr	r6, .L27+32
 261:Generated_Source\PSoC5/cyfitter_cfg.c **** 	CY_SET_XTND_REG8((void CYFAR *)(CYREG_CLKDIST_MSTR0), 0x07u);
 181              		.loc 1 261 0
 182 0084 524B     		ldr	r3, .L27+36
 183 0086 3546     		mov	r5, r6
 263:Generated_Source\PSoC5/cyfitter_cfg.c **** 	CY_SET_XTND_REG8((void CYFAR *)(CYREG_CLKDIST_BCFG2), 0x48u);
 184              		.loc 1 263 0
 185 0088 524F     		ldr	r7, .L27+40
 261:Generated_Source\PSoC5/cyfitter_cfg.c **** 	CY_SET_XTND_REG8((void CYFAR *)(CYREG_CLKDIST_MSTR0), 0x07u);
 186              		.loc 1 261 0
 187 008a 4FF48070 		mov	r0, #256
 188 008e 1880     		strh	r0, [r3]	@ movhi
 263:Generated_Source\PSoC5/cyfitter_cfg.c **** 	CY_SET_XTND_REG8((void CYFAR *)(CYREG_CLKDIST_BCFG2), 0x48u);
 189              		.loc 1 263 0
 190 0090 0022     		movs	r2, #0
 264:Generated_Source\PSoC5/cyfitter_cfg.c **** 	CY_SET_XTND_REG8((void CYFAR *)(CYREG_CLKDIST_MSTR0), 0x00u);
 191              		.loc 1 264 0
 192 0092 5149     		ldr	r1, .L27+44
 262:Generated_Source\PSoC5/cyfitter_cfg.c **** 	CY_SET_XTND_REG8((void CYFAR *)(CYREG_CLKDIST_BCFG0), 0x00u);
 193              		.loc 1 262 0
 194 0094 0720     		movs	r0, #7
 195 0096 1870     		strb	r0, [r3]
 263:Generated_Source\PSoC5/cyfitter_cfg.c **** 	CY_SET_XTND_REG8((void CYFAR *)(CYREG_CLKDIST_BCFG2), 0x48u);
 196              		.loc 1 263 0
 197 0098 3A70     		strb	r2, [r7]
 266:Generated_Source\PSoC5/cyfitter_cfg.c **** 
 198              		.loc 1 266 0
 199 009a 5048     		ldr	r0, .L27+48
 264:Generated_Source\PSoC5/cyfitter_cfg.c **** 	CY_SET_XTND_REG8((void CYFAR *)(CYREG_CLKDIST_MSTR0), 0x00u);
 200              		.loc 1 264 0
 201 009c 4827     		movs	r7, #72
 202 009e 0F70     		strb	r7, [r1]
 266:Generated_Source\PSoC5/cyfitter_cfg.c **** 
 203              		.loc 1 266 0
 204 00a0 0227     		movs	r7, #2
 265:Generated_Source\PSoC5/cyfitter_cfg.c **** 	CY_SET_XTND_REG8((void CYFAR *)(CYREG_CLKDIST_LD), 0x02u);
 205              		.loc 1 265 0
 206 00a2 1A70     		strb	r2, [r3]
 266:Generated_Source\PSoC5/cyfitter_cfg.c **** 
 207              		.loc 1 266 0
 208 00a4 0770     		strb	r7, [r0]
 268:Generated_Source\PSoC5/cyfitter_cfg.c **** }
 209              		.loc 1 268 0
 210 00a6 91F89A33 		ldrb	r3, [r1, #922]	@ zero_extendqisi2
 211              	.LBE51:
 212              	.LBE55:
 361:Generated_Source\PSoC5/cyfitter_cfg.c **** 	/* Setup clocks based on selections from Clock DWR */
 362:Generated_Source\PSoC5/cyfitter_cfg.c **** 	ClockSetup();
 363:Generated_Source\PSoC5/cyfitter_cfg.c **** 	/* Set Flash Cycles based on newly configured 65.14MHz Bus Clock. */
 364:Generated_Source\PSoC5/cyfitter_cfg.c **** 	CY_SET_XTND_REG8((void CYFAR *)(CYREG_CACHE_CC_CTL), (((CYDEV_INSTRUCT_CACHE_ENABLED) != 0) ? 0x01
 365:Generated_Source\PSoC5/cyfitter_cfg.c **** 	/* Enable/Disable Debug functionality based on settings from System DWR */
 366:Generated_Source\PSoC5/cyfitter_cfg.c **** 	CY_SET_XTND_REG8((void CYFAR *)CYREG_MLOGIC_DEBUG, (CY_GET_XTND_REG8((void CYFAR *)CYREG_MLOGIC_DE
 213              		.loc 1 366 0
ARM GAS  C:\Users\info\AppData\Local\Temp\ccDbtwl2.s 			page 12


 214 00aa 1446     		mov	r4, r2
 215              	.LVL8:
 216              	.LBB56:
 217              	.LBB52:
 268:Generated_Source\PSoC5/cyfitter_cfg.c **** }
 218              		.loc 1 268 0
 219 00ac 43F00303 		orr	r3, r3, #3
 220              	.LBE52:
 221              	.LBE56:
 222              		.loc 1 366 0
 223 00b0 4B4A     		ldr	r2, .L27+52
 364:Generated_Source\PSoC5/cyfitter_cfg.c **** 	/* Enable/Disable Debug functionality based on settings from System DWR */
 224              		.loc 1 364 0
 225 00b2 0127     		movs	r7, #1
 226              	.LBB57:
 227              	.LBB53:
 268:Generated_Source\PSoC5/cyfitter_cfg.c **** }
 228              		.loc 1 268 0
 229 00b4 81F89A33 		strb	r3, [r1, #922]
 230              	.LBE53:
 231              	.LBE57:
 364:Generated_Source\PSoC5/cyfitter_cfg.c **** 	/* Enable/Disable Debug functionality based on settings from System DWR */
 232              		.loc 1 364 0
 233 00b8 80F8FF77 		strb	r7, [r0, #2047]
 234              		.loc 1 366 0
 235 00bc 1378     		ldrb	r3, [r2]	@ zero_extendqisi2
 236 00be 43F00403 		orr	r3, r3, #4
 237 00c2 1370     		strb	r3, [r2]
 238              	.LVL9:
 239              	.L8:
 240              	.LBB58:
 241              	.LBB59:
 367:Generated_Source\PSoC5/cyfitter_cfg.c **** 
 368:Generated_Source\PSoC5/cyfitter_cfg.c **** 	{
 369:Generated_Source\PSoC5/cyfitter_cfg.c **** 
 370:Generated_Source\PSoC5/cyfitter_cfg.c **** 		CYPACKED typedef struct {
 371:Generated_Source\PSoC5/cyfitter_cfg.c **** 			void CYFAR *address;
 372:Generated_Source\PSoC5/cyfitter_cfg.c **** 			uint16 size;
 373:Generated_Source\PSoC5/cyfitter_cfg.c **** 		} CYPACKED_ATTR cfg_memset_t;
 374:Generated_Source\PSoC5/cyfitter_cfg.c **** 
 375:Generated_Source\PSoC5/cyfitter_cfg.c **** 		static const cfg_memset_t CYCODE cfg_memset_list[] = {
 376:Generated_Source\PSoC5/cyfitter_cfg.c **** 			/* address, size */
 377:Generated_Source\PSoC5/cyfitter_cfg.c **** 			{(void CYFAR *)(CYREG_PRT0_DR), 16u},
 378:Generated_Source\PSoC5/cyfitter_cfg.c **** 			{(void CYFAR *)(CYREG_PRT4_DR), 48u},
 379:Generated_Source\PSoC5/cyfitter_cfg.c **** 			{(void CYFAR *)(CYREG_PRT15_DR), 16u},
 380:Generated_Source\PSoC5/cyfitter_cfg.c **** 			{(void CYFAR *)(CYDEV_UCFG_B0_P0_U0_BASE), 4096u},
 381:Generated_Source\PSoC5/cyfitter_cfg.c **** 			{(void CYFAR *)(CYDEV_UCFG_B1_P2_U0_BASE), 2048u},
 382:Generated_Source\PSoC5/cyfitter_cfg.c **** 			{(void CYFAR *)(CYDEV_UCFG_DSI0_BASE), 2560u},
 383:Generated_Source\PSoC5/cyfitter_cfg.c **** 			{(void CYFAR *)(CYDEV_UCFG_DSI12_BASE), 512u},
 384:Generated_Source\PSoC5/cyfitter_cfg.c **** 			{(void CYFAR *)(CYREG_BCTL0_MDCLK_EN), 32u},
 385:Generated_Source\PSoC5/cyfitter_cfg.c **** 		};
 386:Generated_Source\PSoC5/cyfitter_cfg.c **** 
 387:Generated_Source\PSoC5/cyfitter_cfg.c **** 		uint8 CYDATA i;
 388:Generated_Source\PSoC5/cyfitter_cfg.c **** 
 389:Generated_Source\PSoC5/cyfitter_cfg.c **** 		/* Zero out critical memory blocks before beginning configuration */
 390:Generated_Source\PSoC5/cyfitter_cfg.c **** 		for (i = 0u; i < (sizeof(cfg_memset_list)/sizeof(cfg_memset_list[0])); i++)
 391:Generated_Source\PSoC5/cyfitter_cfg.c **** 		{
ARM GAS  C:\Users\info\AppData\Local\Temp\ccDbtwl2.s 			page 13


 392:Generated_Source\PSoC5/cyfitter_cfg.c **** 			const cfg_memset_t CYCODE * CYDATA ms = &cfg_memset_list[i];
 393:Generated_Source\PSoC5/cyfitter_cfg.c **** 			CYMEMZERO(ms->address, (size_t)(uint32)(ms->size));
 242              		.loc 1 393 0 discriminator 3
 243 00c4 04EB4403 		add	r3, r4, r4, lsl #1
 244              	.LBB60:
 245              	.LBB61:
  79:Generated_Source\PSoC5/cyfitter_cfg.c **** }
 246              		.loc 1 79 0 discriminator 3
 247 00c8 AA88     		ldrh	r2, [r5, #4]
 248              	.LVL10:
 249 00ca 56F81300 		ldr	r0, [r6, r3, lsl #1]	@ unaligned
 250 00ce 0134     		adds	r4, r4, #1
 251              	.LVL11:
 252 00d0 0021     		movs	r1, #0
 253 00d2 FFF7FEFF 		bl	memset
 254              	.LVL12:
 255              	.LBE61:
 256              	.LBE60:
 257              	.LBE59:
 390:Generated_Source\PSoC5/cyfitter_cfg.c **** 		{
 258              		.loc 1 390 0 discriminator 3
 259 00d6 082C     		cmp	r4, #8
 260 00d8 05F10605 		add	r5, r5, #6
 261 00dc F2D1     		bne	.L8
 262 00de 414E     		ldr	r6, .L27+56
 263              	.LBB62:
 264              	.LBB63:
 193:Generated_Source\PSoC5/cyfitter_cfg.c **** 	{
 265              		.loc 1 193 0
 266 00e0 414F     		ldr	r7, .L27+60
 267              	.LBE63:
 268              	.LBE62:
 269 00e2 0025     		movs	r5, #0
 270              	.LVL13:
 271              	.L11:
 272              	.LBB66:
 273              	.LBB65:
 274              	.LBB64:
 195:Generated_Source\PSoC5/cyfitter_cfg.c **** 		uint8 count = (uint8)baseAddr;
 275              		.loc 1 195 0
 276 00e4 56F8043F 		ldr	r3, [r6, #4]!
 277              	.LVL14:
 198:Generated_Source\PSoC5/cyfitter_cfg.c **** 		{
 278              		.loc 1 198 0
 279 00e8 13F0FF0E 		ands	lr, r3, #255
 197:Generated_Source\PSoC5/cyfitter_cfg.c **** 		while (count != 0u)
 280              		.loc 1 197 0
 281 00ec 23F0FF04 		bic	r4, r3, #255
 282              	.LVL15:
 198:Generated_Source\PSoC5/cyfitter_cfg.c **** 		{
 283              		.loc 1 198 0
 284 00f0 13D0     		beq	.L9
 285 00f2 05F11053 		add	r3, r5, #603979776
 286              	.LVL16:
 287 00f6 0EF1FF3E 		add	lr, lr, #-1
 288 00fa 03F12900 		add	r0, r3, #41
 289 00fe 5FFA8EFE 		uxtb	lr, lr
ARM GAS  C:\Users\info\AppData\Local\Temp\ccDbtwl2.s 			page 14


 290 0102 7044     		add	r0, r0, lr
 291 0104 2833     		adds	r3, r3, #40
 292 0106 4000     		lsls	r0, r0, #1
 293 0108 5B00     		lsls	r3, r3, #1
 294              	.LVL17:
 295              	.L10:
 200:Generated_Source\PSoC5/cyfitter_cfg.c **** 			j++;
 296              		.loc 1 200 0
 297 010a 1A78     		ldrb	r2, [r3]	@ zero_extendqisi2
 298 010c 5978     		ldrb	r1, [r3, #1]	@ zero_extendqisi2
 299 010e 0233     		adds	r3, r3, #2
 198:Generated_Source\PSoC5/cyfitter_cfg.c **** 		{
 300              		.loc 1 198 0
 301 0110 8342     		cmp	r3, r0
 200:Generated_Source\PSoC5/cyfitter_cfg.c **** 			j++;
 302              		.loc 1 200 0
 303 0112 1155     		strb	r1, [r2, r4]
 198:Generated_Source\PSoC5/cyfitter_cfg.c **** 		{
 304              		.loc 1 198 0
 305 0114 F9D1     		bne	.L10
 306 0116 0135     		adds	r5, r5, #1
 307 0118 7544     		add	r5, r5, lr
 308              	.L9:
 309              	.LVL18:
 310              	.LBE64:
 193:Generated_Source\PSoC5/cyfitter_cfg.c **** 	{
 311              		.loc 1 193 0
 312 011a BE42     		cmp	r6, r7
 313 011c E2D1     		bne	.L11
 314              	.LVL19:
 315              	.LBE65:
 316              	.LBE66:
 394:Generated_Source\PSoC5/cyfitter_cfg.c **** 		}
 395:Generated_Source\PSoC5/cyfitter_cfg.c **** 
 396:Generated_Source\PSoC5/cyfitter_cfg.c **** 		cfg_write_bytes32(cy_cfg_addr_table, cy_cfg_data_table);
 397:Generated_Source\PSoC5/cyfitter_cfg.c **** 
 398:Generated_Source\PSoC5/cyfitter_cfg.c **** 		/* Perform normal device configuration. Order is not critical for these items. */
 399:Generated_Source\PSoC5/cyfitter_cfg.c **** 		CYMEMZERO((void CYFAR *)(CYREG_PHUB_CFGMEM0_CFG0), 4u);
 400:Generated_Source\PSoC5/cyfitter_cfg.c **** 
 401:Generated_Source\PSoC5/cyfitter_cfg.c **** 		/* Enable digital routing */
 402:Generated_Source\PSoC5/cyfitter_cfg.c **** 		CY_SET_XTND_REG8((void CYFAR *)CYREG_BCTL0_BANK_CTL, CY_GET_XTND_REG8((void CYFAR *)CYREG_BCTL0_B
 317              		.loc 1 402 0
 318 011e 3349     		ldr	r1, .L27+64
 403:Generated_Source\PSoC5/cyfitter_cfg.c **** 		CY_SET_XTND_REG8((void CYFAR *)CYREG_BCTL1_BANK_CTL, CY_GET_XTND_REG8((void CYFAR *)CYREG_BCTL1_B
 319              		.loc 1 403 0
 320 0120 334A     		ldr	r2, .L27+68
 402:Generated_Source\PSoC5/cyfitter_cfg.c **** 		CY_SET_XTND_REG8((void CYFAR *)CYREG_BCTL1_BANK_CTL, CY_GET_XTND_REG8((void CYFAR *)CYREG_BCTL1_B
 321              		.loc 1 402 0
 322 0122 0B78     		ldrb	r3, [r1]	@ zero_extendqisi2
 404:Generated_Source\PSoC5/cyfitter_cfg.c **** 
 405:Generated_Source\PSoC5/cyfitter_cfg.c **** 		/* Enable UDB array */
 406:Generated_Source\PSoC5/cyfitter_cfg.c **** 		CY_SET_XTND_REG8((void CYFAR *)CYREG_PM_ACT_CFG0, CY_GET_XTND_REG8((void CYFAR *)CYREG_PM_ACT_CFG
 323              		.loc 1 406 0
 324 0124 334D     		ldr	r5, .L27+72
 402:Generated_Source\PSoC5/cyfitter_cfg.c **** 		CY_SET_XTND_REG8((void CYFAR *)CYREG_BCTL1_BANK_CTL, CY_GET_XTND_REG8((void CYFAR *)CYREG_BCTL1_B
 325              		.loc 1 402 0
 326 0126 43F00203 		orr	r3, r3, #2
ARM GAS  C:\Users\info\AppData\Local\Temp\ccDbtwl2.s 			page 15


 327 012a 0B70     		strb	r3, [r1]
 403:Generated_Source\PSoC5/cyfitter_cfg.c **** 
 328              		.loc 1 403 0
 329 012c 1378     		ldrb	r3, [r2]	@ zero_extendqisi2
 407:Generated_Source\PSoC5/cyfitter_cfg.c **** 		CY_SET_XTND_REG8((void CYFAR *)CYREG_PM_AVAIL_CR2, CY_GET_XTND_REG8((void CYFAR *)CYREG_PM_AVAIL_
 330              		.loc 1 407 0
 331 012e A1F58631 		sub	r1, r1, #68608
 403:Generated_Source\PSoC5/cyfitter_cfg.c **** 
 332              		.loc 1 403 0
 333 0132 43F00203 		orr	r3, r3, #2
 334 0136 1370     		strb	r3, [r2]
 406:Generated_Source\PSoC5/cyfitter_cfg.c **** 		CY_SET_XTND_REG8((void CYFAR *)CYREG_PM_AVAIL_CR2, CY_GET_XTND_REG8((void CYFAR *)CYREG_PM_AVAIL_
 335              		.loc 1 406 0
 336 0138 2B78     		ldrb	r3, [r5]	@ zero_extendqisi2
 337              		.loc 1 407 0
 338 013a 4139     		subs	r1, r1, #65
 406:Generated_Source\PSoC5/cyfitter_cfg.c **** 		CY_SET_XTND_REG8((void CYFAR *)CYREG_PM_AVAIL_CR2, CY_GET_XTND_REG8((void CYFAR *)CYREG_PM_AVAIL_
 339              		.loc 1 406 0
 340 013c 43F04003 		orr	r3, r3, #64
 341 0140 2B70     		strb	r3, [r5]
 342              		.loc 1 407 0
 343 0142 0A78     		ldrb	r2, [r1]	@ zero_extendqisi2
 344              	.LBB67:
 345              	.LBB68:
  79:Generated_Source\PSoC5/cyfitter_cfg.c **** }
 346              		.loc 1 79 0
 347 0144 2C48     		ldr	r0, .L27+76
 348              	.LBE68:
 349              	.LBE67:
 350              	.LBE58:
 351              	.LBB73:
 352              	.LBB74:
  86:Generated_Source\PSoC5/cyfitter_cfg.c **** }
 353              		.loc 1 86 0
 354 0146 2D4B     		ldr	r3, .L27+80
 355              	.LBE74:
 356              	.LBE73:
 357              	.LBB77:
 358              		.loc 1 407 0
 359 0148 42F01002 		orr	r2, r2, #16
 360              	.LBB71:
 361              	.LBB69:
  79:Generated_Source\PSoC5/cyfitter_cfg.c **** }
 362              		.loc 1 79 0
 363 014c 0026     		movs	r6, #0
 364              	.LBE69:
 365              	.LBE71:
 366              	.LBE77:
 367              	.LBB78:
 368              	.LBB75:
  86:Generated_Source\PSoC5/cyfitter_cfg.c **** }
 369              		.loc 1 86 0
 370 014e 2C4C     		ldr	r4, .L27+84
 371              	.LBE75:
 372              	.LBE78:
 373              	.LBB79:
 374              		.loc 1 407 0
ARM GAS  C:\Users\info\AppData\Local\Temp\ccDbtwl2.s 			page 16


 375 0150 0A70     		strb	r2, [r1]
 376              	.LBB72:
 377              	.LBB70:
  79:Generated_Source\PSoC5/cyfitter_cfg.c **** }
 378              		.loc 1 79 0
 379 0152 0660     		str	r6, [r0]
 380              	.LVL20:
 381              	.LBE70:
 382              	.LBE72:
 383              	.LBE79:
 384              	.LBB80:
 385              	.LBB76:
  86:Generated_Source\PSoC5/cyfitter_cfg.c **** }
 386              		.loc 1 86 0
 387 0154 93E80700 		ldmia	r3, {r0, r1, r2}
 388 0158 03C4     		stmia	r4!, {r0, r1}
 389 015a 2280     		strh	r2, [r4]	@ movhi
 390              	.LVL21:
 391              	.LBE76:
 392              	.LBE80:
 393              	.LBB81:
 394              	.LBB82:
 395 015c 294A     		ldr	r2, .L27+88
 396 015e 0C33     		adds	r3, r3, #12
 397 0160 03CB     		ldmia	r3!, {r0, r1}
 398              	.LBE82:
 399              	.LBE81:
 408:Generated_Source\PSoC5/cyfitter_cfg.c **** 	}
 409:Generated_Source\PSoC5/cyfitter_cfg.c **** 
 410:Generated_Source\PSoC5/cyfitter_cfg.c **** 
 411:Generated_Source\PSoC5/cyfitter_cfg.c **** 	/* Perform second pass device configuration. These items must be configured in specific order afte
 412:Generated_Source\PSoC5/cyfitter_cfg.c **** 	CYCONFIGCPY((void CYFAR *)(CYREG_PRT12_DR), (const void CYFAR *)(BS_IOPINS0_7_VAL), 10u);
 413:Generated_Source\PSoC5/cyfitter_cfg.c **** 	CYCONFIGCPY((void CYFAR *)(CYREG_PRT1_DM0), (const void CYFAR *)(BS_IOPINS0_1_VAL), 8u);
 414:Generated_Source\PSoC5/cyfitter_cfg.c **** 	CYCONFIGCPY((void CYFAR *)(CYREG_PRT2_DM0), (const void CYFAR *)(BS_IOPINS0_2_VAL), 8u);
 415:Generated_Source\PSoC5/cyfitter_cfg.c **** 	CYCONFIGCPY((void CYFAR *)(CYREG_PRT3_DM0), (const void CYFAR *)(BS_IOPINS0_3_VAL), 8u);
 416:Generated_Source\PSoC5/cyfitter_cfg.c **** 	/* Switch Boost to the precision bandgap reference from its internal reference */
 417:Generated_Source\PSoC5/cyfitter_cfg.c **** 	CY_SET_REG8((void CYXDATA *)CYREG_BOOST_CR2, (CY_GET_REG8((void CYXDATA *)CYREG_BOOST_CR2) | 0x08u
 400              		.loc 1 417 0
 401 0162 A4F6A664 		subw	r4, r4, #3750
 402              	.LBB84:
 403              	.LBB83:
  86:Generated_Source\PSoC5/cyfitter_cfg.c **** }
 404              		.loc 1 86 0
 405 0166 1060     		str	r0, [r2]	@ unaligned
 406 0168 5160     		str	r1, [r2, #4]	@ unaligned
 407              	.LVL22:
 408              	.LBE83:
 409              	.LBE84:
 410              		.loc 1 417 0
 411 016a 2278     		ldrb	r2, [r4]	@ zero_extendqisi2
 412              	.LBB85:
 413              	.LBB86:
  86:Generated_Source\PSoC5/cyfitter_cfg.c **** }
 414              		.loc 1 86 0
 415 016c 264E     		ldr	r6, .L27+92
 416 016e 03CB     		ldmia	r3!, {r0, r1}
 417              	.LBE86:
ARM GAS  C:\Users\info\AppData\Local\Temp\ccDbtwl2.s 			page 17


 418              	.LBE85:
 419              		.loc 1 417 0
 420 0170 42F00802 		orr	r2, r2, #8
 421              	.LBB88:
 422              	.LBB87:
  86:Generated_Source\PSoC5/cyfitter_cfg.c **** }
 423              		.loc 1 86 0
 424 0174 3060     		str	r0, [r6]	@ unaligned
 425 0176 7160     		str	r1, [r6, #4]	@ unaligned
 426              	.LVL23:
 427              	.LBE87:
 428              	.LBE88:
 429              	.LBB89:
 430              	.LBB90:
 293:Generated_Source\PSoC5/cyfitter_cfg.c **** 	CY_SET_XTND_REG8((void CYFAR *)(CYREG_BG_DFT0), (bg_xover_inl_trim & 0x07u));
 431              		.loc 1 293 0
 432 0178 244E     		ldr	r6, .L27+96
 433              	.LBE90:
 434              	.LBE89:
 435              	.LBB94:
 436              	.LBB95:
  86:Generated_Source\PSoC5/cyfitter_cfg.c **** }
 437              		.loc 1 86 0
 438 017a 03CB     		ldmia	r3!, {r0, r1}
 439              	.LBE95:
 440              	.LBE94:
 441              		.loc 1 417 0
 442 017c 2270     		strb	r2, [r4]
 443              	.LBB98:
 444              	.LBB91:
 293:Generated_Source\PSoC5/cyfitter_cfg.c **** 	CY_SET_XTND_REG8((void CYFAR *)(CYREG_BG_DFT0), (bg_xover_inl_trim & 0x07u));
 445              		.loc 1 293 0
 446 017e 3378     		ldrb	r3, [r6]	@ zero_extendqisi2
 447              	.LBE91:
 448              	.LBE98:
 449              	.LBB99:
 450              	.LBB96:
  86:Generated_Source\PSoC5/cyfitter_cfg.c **** }
 451              		.loc 1 86 0
 452 0180 234A     		ldr	r2, .L27+100
 453              	.LBE96:
 454              	.LBE99:
 455              	.LBB100:
 456              	.LBB92:
 293:Generated_Source\PSoC5/cyfitter_cfg.c **** 	CY_SET_XTND_REG8((void CYFAR *)(CYREG_BG_DFT0), (bg_xover_inl_trim & 0x07u));
 457              		.loc 1 293 0
 458 0182 DBB2     		uxtb	r3, r3
 294:Generated_Source\PSoC5/cyfitter_cfg.c **** 	CY_SET_XTND_REG8((void CYFAR *)(CYREG_BG_DFT1), ((bg_xover_inl_trim >> 4) & 0x0Fu));
 459              		.loc 1 294 0
 460 0184 DFF894E0 		ldr	lr, .L27+112
 295:Generated_Source\PSoC5/cyfitter_cfg.c **** 	CY_SET_XTND_REG8((void CYFAR *)CYREG_PUMP_CR0, 0x44u);
 461              		.loc 1 295 0
 462 0188 224F     		ldr	r7, .L27+104
 296:Generated_Source\PSoC5/cyfitter_cfg.c **** }
 463              		.loc 1 296 0
 464 018a 234E     		ldr	r6, .L27+108
 465              	.LBE92:
ARM GAS  C:\Users\info\AppData\Local\Temp\ccDbtwl2.s 			page 18


 466              	.LBE100:
 467              	.LBB101:
 468              	.LBB97:
  86:Generated_Source\PSoC5/cyfitter_cfg.c **** }
 469              		.loc 1 86 0
 470 018c 1060     		str	r0, [r2]	@ unaligned
 471 018e 5160     		str	r1, [r2, #4]	@ unaligned
 472              	.LVL24:
 473              	.LBE97:
 474              	.LBE101:
 475              	.LBB102:
 476              	.LBB103:
 477 0190 8E34     		adds	r4, r4, #142
 478              	.LBE103:
 479              	.LBE102:
 480              	.LBB105:
 481              	.LBB93:
 294:Generated_Source\PSoC5/cyfitter_cfg.c **** 	CY_SET_XTND_REG8((void CYFAR *)(CYREG_BG_DFT1), ((bg_xover_inl_trim >> 4) & 0x0Fu));
 482              		.loc 1 294 0
 483 0192 03F00701 		and	r1, r3, #7
 296:Generated_Source\PSoC5/cyfitter_cfg.c **** }
 484              		.loc 1 296 0
 485 0196 4422     		movs	r2, #68
 295:Generated_Source\PSoC5/cyfitter_cfg.c **** 	CY_SET_XTND_REG8((void CYFAR *)CYREG_PUMP_CR0, 0x44u);
 486              		.loc 1 295 0
 487 0198 1B09     		lsrs	r3, r3, #4
 488              	.LVL25:
 294:Generated_Source\PSoC5/cyfitter_cfg.c **** 	CY_SET_XTND_REG8((void CYFAR *)(CYREG_BG_DFT1), ((bg_xover_inl_trim >> 4) & 0x0Fu));
 489              		.loc 1 294 0
 490 019a 8EF80010 		strb	r1, [lr]
 295:Generated_Source\PSoC5/cyfitter_cfg.c **** 	CY_SET_XTND_REG8((void CYFAR *)CYREG_PUMP_CR0, 0x44u);
 491              		.loc 1 295 0
 492 019e 3B70     		strb	r3, [r7]
 296:Generated_Source\PSoC5/cyfitter_cfg.c **** }
 493              		.loc 1 296 0
 494 01a0 3270     		strb	r2, [r6]
 495              	.LVL26:
 496              	.LBE93:
 497              	.LBE105:
 498              	.LBB106:
 499              	.LBB104:
  86:Generated_Source\PSoC5/cyfitter_cfg.c **** }
 500              		.loc 1 86 0
 501 01a2 95E80F00 		ldmia	r5, {r0, r1, r2, r3}
 502 01a6 07C4     		stmia	r4!, {r0, r1, r2}
 503 01a8 2380     		strh	r3, [r4]	@ movhi
 504              	.LVL27:
 505 01aa F8BD     		pop	{r3, r4, r5, r6, r7, pc}
 506              	.L28:
 507              		.align	2
 508              	.L27:
 509 01ac 00480040 		.word	1073760256
 510 01b0 80400040 		.word	1073758336
 511 01b4 82400040 		.word	1073758338
 512 01b8 84400040 		.word	1073758340
 513 01bc 86400040 		.word	1073758342
 514 01c0 0B010049 		.word	1224737035
ARM GAS  C:\Users\info\AppData\Local\Temp\ccDbtwl2.s 			page 19


 515 01c4 A1460040 		.word	1073759905
 516 01c8 25420040 		.word	1073758757
 517 01cc 00000000 		.word	.LANCHOR0
 518 01d0 04400040 		.word	1073758212
 519 01d4 06400040 		.word	1073758214
 520 01d8 08400040 		.word	1073758216
 521 01dc 01400040 		.word	1073758209
 522 01e0 E8460040 		.word	1073759976
 523 01e4 FCFFFF47 		.word	1207959548
 524 01e8 4C000048 		.word	1207959628
 525 01ec 03500140 		.word	1073827843
 526 01f0 13500140 		.word	1073827859
 527 01f4 A0430040 		.word	1073759136
 528 01f8 00760040 		.word	1073772032
 529 01fc C0020048 		.word	1207960256
 530 0200 C0510040 		.word	1073762752
 531 0204 12510040 		.word	1073762578
 532 0208 22510040 		.word	1073762594
 533 020c CF010049 		.word	1224737231
 534 0210 32510040 		.word	1073762610
 535 0214 6F580040 		.word	1073764463
 536 0218 76580040 		.word	1073764470
 537 021c 6E580040 		.word	1073764462
 538              	.LBE104:
 539              	.LBE106:
 540              		.cfi_endproc
 541              	.LFE8:
 542              		.size	cyfitter_cfg, .-cyfitter_cfg
 543              		.section	.rodata
 544              		.align	2
 545              		.set	.LANCHOR0,. + 0
 546              		.type	cfg_memset_list.5013, %object
 547              		.size	cfg_memset_list.5013, 48
 548              	cfg_memset_list.5013:
 549 0000 00510040 		.word	1073762560
 550 0004 1000     		.short	16
 551 0006 40510040 		.4byte	1073762624
 552 000a 3000     		.short	48
 553 000c F0510040 		.word	1073762800
 554 0010 1000     		.short	16
 555 0012 00000140 		.4byte	1073807360
 556 0016 0010     		.short	4096
 557 0018 00140140 		.word	1073812480
 558 001c 0008     		.short	2048
 559 001e 00400140 		.4byte	1073823744
 560 0022 000A     		.short	2560
 561 0024 004C0140 		.word	1073826816
 562 0028 0002     		.short	512
 563 002a 00500140 		.4byte	1073827840
 564 002e 2000     		.short	32
 565              		.text
 566              	.Letext0:
 567              		.file 2 "c:\\program files (x86)\\cypress\\psoc creator\\4.2\\psoc creator\\import\\gnu\\arm\\5.4.
 568              		.file 3 "Generated_Source\\PSoC5\\cytypes.h"
 569              		.file 4 "Generated_Source\\PSoC5\\CyLib.h"