ARM GAS  C:\Users\info\AppData\Local\Temp\cceOWHVn.s 			page 1


   1              		.syntax unified
   2              		.cpu cortex-m3
   3              		.fpu softvfp
   4              		.eabi_attribute 20, 1
   5              		.eabi_attribute 21, 1
   6              		.eabi_attribute 23, 3
   7              		.eabi_attribute 24, 1
   8              		.eabi_attribute 25, 1
   9              		.eabi_attribute 26, 1
  10              		.eabi_attribute 30, 4
  11              		.eabi_attribute 34, 1
  12              		.eabi_attribute 18, 4
  13              		.thumb
  14              		.syntax unified
  15              		.file	"HORIZ_PM.c"
  16              		.text
  17              	.Ltext0:
  18              		.section	.gnu.lto_.profile.bf150bc7,"",%progbits
  19 0000 789C6361 		.ascii	"x\234ca`d`e`\000\222\015\214J\000\002\"\000\257"
  19      60646065 
  19      6000920D 
  19      8C4A0002 
  19      2200AF
  20              		.text
  21              		.section	.gnu.lto_.icf.bf150bc7,"",%progbits
  22 0000 789C6361 		.ascii	"x\234ca`d\000\001\005\006\004`e\270\331p`+/\343\336"
  22      60640001 
  22      05060460 
  22      65B8D970 
  22      602B2FE3 
  23 0015 87EFDA59 		.ascii	"\207\357\332Y\231\356\367n^\310\307\374j\325\355\267"
  23      99EEF76E 
  23      5EC8C7FC 
  23      6AD5EDB7 
  24 0025 1C2C9BB6 		.ascii	"\034,\233\266\366lba\000\000\374\343\017\003"
  24      F66C6261 
  24      0000FCE3 
  24      0F03
  25              		.text
  26              		.section	.gnu.lto_.jmpfuncs.bf150bc7,"",%progbits
  27 0000 789C6361 		.ascii	"x\234ca`d\000\001E\006\004`\201PL`\004\307\314\010)"
  27      60640001 
  27      45060460 
  27      81504C60 
  27      04C7CC08 
  28 0015 00086C00 		.ascii	"\000\010l\000:"
  28      3A
  29              		.text
  30              		.section	.gnu.lto_.inline.bf150bc7,"",%progbits
  31 0000 789C6361 		.ascii	"x\234ca`d\000\2016\006\004`a`\340Qcd`b\373\240\307\300"
  31      60640081 
  31      36060460 
  31      6160E051 
  31      63646062 
  32 0018 B6409E09 		.ascii	"\266@\236\011$\306\304\215J`W\3018\301\017\225bf\340"
  32      24C6C48D 
  32      4A6057C1 
ARM GAS  C:\Users\info\AppData\Local\Temp\cceOWHVn.s 			page 2


  32      38C10F95 
  32      6266E0
  33 002b 9202AAE3 		.ascii	"\222\002\252\343\332g\007W\307\310\005#X\0308\204\321"
  33      DA670757 
  33      C7C80523 
  33      58183884 
  33      D1
  34 003c 0C414832 		.ascii	"\014AH2\000\000u\226\013\355"
  34      00007596 
  34      0BED
  35              		.text
  36              		.section	.gnu.lto_.pureconst.bf150bc7,"",%progbits
  37 0000 789C6361 		.ascii	"x\234ca`d\340d```a\220`\222`\226b\221\000\000\002\243"
  37      6064E064 
  37      60606061 
  37      90609260 
  37      96629100 
  38 0017 007E     		.ascii	"\000~"
  39              		.text
  40              		.section	.gnu.lto_HORIZ_SaveConfig.bf150bc7,"",%progbits
  41 0000 789C9592 		.ascii	"x\234\225\222\273/\304A\020\307\347\273{~\356<\022="
  41      BB2FC441 
  41      10C7E7BB 
  41      7B7EEE3C 
  41      123D
  42 0012 1111915C 		.ascii	"\021\021\221\\\343*\177\201\304\243\020r:$\"\\\353\022"
  42      E32A7F81 
  42      C4A31072 
  42      3A24225C 
  42      EB12
  43 0024 8FFA96F3 		.ascii	"\217\372\226\363\013\032\241p*\271\250<\317[\270\312"
  43      0B1AA170 
  43      2AB9A83C 
  43      CF5BB8CA 
  44 0034 2F824A28 		.ascii	"/\202J(D\245A!\"\012\022\312sf\366\024\022\2170\311"
  44      44A54121 
  44      220A12CA 
  44      7366F614 
  44      128F30C9 
  45 0048 EE6C76BF 		.ascii	"\356lv\2773\363\231\335\365\021H,\254\210\252\330\227"
  45      33F399DD 
  45      F511482C 
  45      AC88AAD8 
  45      97
  46 0059 F28026A8 		.ascii	"\362\200&\250\2513\242a\277\002da\374\240\230B\014\257"
  46      A933A261 
  46      BF026461 
  46      FCA09842 
  46      0CAF
  47 006b 2AA37038 		.ascii	"*\243p8v\227V\301\005\303v}\234\320f\321\203\253\211"
  47      769756C1 
  47      05C3767D 
  47      9CD066D1 
  47      83AB89
  48 007e B2CA6622 		.ascii	"\262\312f\", H,\273\335|\233)vFEV\221;\304\"\034)\267"
  48      2C20482C 
  48      BBDD7C9B 
ARM GAS  C:\Users\info\AppData\Local\Temp\cceOWHVn.s 			page 3


  48      29764645 
  48      56913BC4 
  49 0096 1EF64C36 		.ascii	"\036\366L6\0337\336^^\252\250P\223\253\341\310\024\220"
  49      1B37DE5E 
  49      5EAAA850 
  49      93ABE1C8 
  49      1490
  50 00a8 89E889B5 		.ascii	"\211\350\211\265R\365Y)\361\372\036q\357 \255$:\256"
  50      52F55929 
  50      F1FA1E71 
  50      EF20AD24 
  50      3AAE
  51 00ba 35674EA7 		.ascii	"5gN\247\037\257\362c\0313nL\211\253UVq\020\226\020\343"
  51      1FAFF263 
  51      19336E4C 
  51      89AB5556 
  51      71109610 
  52 00cf 704D7718 		.ascii	"pMw\030I\314W\213\230\225\011\367\360<\377E\271\332"
  52      49CC578B 
  52      989509F7 
  52      F03CFF45 
  52      B9DA
  53 00e1 07FA12E8 		.ascii	"\007\372\022\350\233`j\331~8\275<*Hbn\330\330\375<\254"
  53      9B606AD9 
  53      7E38BD3C 
  53      2A48626E 
  53      D8D8FD3C 
  54 00f6 70ABCB28 		.ascii	"p\253\313(\263\207\223\373\033\023\376PJ\3320\003\256"
  54      B38793FB 
  54      1B13FE50 
  54      4ADA3003 
  54      AE
  55 0107 76B08A24 		.ascii	"v\260\212$\336l\257H!\304D$\200\027\031\344\000\235"
  55      DE6CAF48 
  55      21C44424 
  55      801719E4 
  55      009D
  56 0119 EF00598E 		.ascii	"\357\000Y\216\265O\2007\345\037\200\177%Z\377\201\250"
  56      B54F8037 
  56      E51F807F 
  56      255AFF81 
  56      A8
  57 012a 4388362C 		.ascii	"C\2106,\221\334,6\205\310\261D\323'\241\034Q\340;\""
  57      91DC2C36 
  57      85C8B144 
  57      D327A11C 
  57      51E03B22 
  58 013e 2E84ADCF 		.ascii	".\204\255\317D5\377$\332\376\355\216v,\221}\363]!\012"
  58      4435FF24 
  58      DAFEED8E 
  58      762C917D 
  58      F35D210A 
  59 0152 D00346BC 		.ascii	"\320\003F\274\331z\251a?\311\023\343\362\333\262\242"
  59      D97AA961 
  59      3FC913E3 
  59      F2DBB2A2 
  60 0162 B221D217 		.ascii	"\262!\322\027\351\357\036\214\364v\265E\207\372{\"\235"
ARM GAS  C:\Users\info\AppData\Local\Temp\cceOWHVn.s 			page 4


  60      E9EF1E8C 
  60      F476B545 
  60      87FA7B22 
  60      9D
  61 0173 AD6DD1BA 		.ascii	"\255m\321\272\332\316\306\226pS{WksM\017\275\003X\243"
  61      DACEC696 
  61      70537B57 
  61      6B734D0F 
  61      BD0358A3 
  62 0187 D884     		.ascii	"\330\204"
  63              		.text
  64              		.section	.gnu.lto_HORIZ_RestoreConfig.bf150bc7,"",%progbits
  65 0000 789C9591 		.ascii	"x\234\225\221=HBQ\024\307\317\271\367\371\224 h\257"
  65      3D484251 
  65      14C7CFB9 
  65      F7F99420 
  65      68AF
  66 0012 21A2C5A1 		.ascii	"!\242\305\241li\017\032\252!\012\335B\220\260\267&H"
  66      6C690F1A 
  66      AA210ADD 
  66      4290B0B7 
  66      2648
  67 0024 CDEFAA3D 		.ascii	"\315\357\252=\312%j\250-\034\265O\265\017\310\246\227"
  67      CA256AA8 
  67      2D1CB54F 
  67      B50FC8A6 
  67      97
  68 0035 042D5134 		.ascii	"\004-Q48\005\025\015\022\022\245T\243\276\356\271RK"
  68      3805150D 
  68      1212A554 
  68      A3BEEEB9 
  68      524B
  69 0047 8278E0DE 		.ascii	"\202x\340\336s9\367\360\377\377\356=\032 P\2141\200"
  69      7339F7F0 
  69      FFFFEE3D 
  69      1A20508C 
  69      3180
  70 0059 41997BE5 		.ascii	"A\231{\345B\016\3106n\001b\036\206H\007\341A0\031\232"
  70      420EC836 
  70      6E01621E 
  70      864807E1 
  70      4130199A 
  71 006d F8CDEA0C 		.ascii	"\370\315\352\014\213\253\345\002\363\246\205\214g\353"
  71      8BABE502 
  71      F3A6858C 
  71      67EB
  72 007b 7D44646C 		.ascii	"}Ddl\2648\200\303\224\022`\032\275 \333^\362\215\255"
  72      B43880C3 
  72      9412601A 
  72      BD20DB5E 
  72      F28DAD
  73 008e 6E7D85DA 		.ascii	"n}\205\332\372\233\227\230A\235\354\262~[8NB\330\237"
  73      FA9B9798 
  73      419DECB2 
  73      7E5B384E 
  73      42D89F
  74 00a1 FA65E99A 		.ascii	"\372e\351\232y\030X\0345\332t\332\000\252\262\233|k"
ARM GAS  C:\Users\info\AppData\Local\Temp\cceOWHVn.s 			page 5


  74      7918581C 
  74      35DA74DA 
  74      00AAB29B 
  74      7C6B
  75 00b3 8C51E665 		.ascii	"\214Q\346e\214_\344\0377]$\220\340\304\260m\025\357"
  75      8C5FE41F 
  75      375D2490 
  75      E0C4B06D 
  75      15EF
  76 00c5 DC5FCCE2 		.ascii	"\334_\314\342\014\311\253Px{p\233u\261&D\217\254%%\016"
  76      0CC9AB50 
  76      787B709B 
  76      75B12644 
  76      8FAC2525 
  77 00da 952B37A5 		.ascii	"\225+7\245\253\256\024\356\304\204\252s\334\223o\330"
  77      ABAE14EE 
  77      C484AA73 
  77      DC936FD8 
  78 00ea C53E75B9 		.ascii	"\305>u\271~\236Kz|C\026\327p\037S\330P\370x\200>xE\215"
  78      7E9E4B7A 
  78      7C4316D7 
  78      701F53D8 
  78      50F87880 
  79 0102 9CFE0BBB 		.ascii	"\234\376\013\273\034i\007x\210&H\014\213\353@d\265\247"
  79      1C690778 
  79      8826480C 
  79      8BEB4064 
  79      B5A7
  80 0114 7BDE24D3 		.ascii	"{\336$\323:@9j\215\222U(\364K\230k\203\"\2011\257P\264"
  80      3A40396A 
  80      8D925528 
  80      F44B986B 
  80      83228131 
  81 012b 3F948FDF 		.ascii	"?\224\217\337O\322;@9n\215r\242P\324\340N\333\240He"
  81      4FD23B40 
  81      396E8D72 
  81      A250D4E0 
  81      4EDBA048 
  82 0140 3C53283A 		.ascii	"<S(:\241T0n\313\301\252v\212\252|\220\234\243\224\032"
  82      A154306E 
  82      CBC1AA76 
  82      8AAA7C90 
  82      9CA3941A 
  83 0154 9830168D 		.ascii	"\2300\026\215\350\374\222\261\020\012D\226\243a#8\033"
  83      E8FC92B1 
  83      100A4496 
  83      A3612338 
  83      1B
  84 0165 888C8F06 		.ascii	"\210\214\217\006'g\374Ss\241\331\351\3410\374\000\223"
  84      2767FC53 
  84      73A1D9E9 
  84      E130FC00 
  84      93
  85 0176 3FCD49   		.ascii	"?\315I"
  86              		.text
  87              		.section	.gnu.lto_HORIZ_Sleep.bf150bc7,"",%progbits
  88 0000 789C8D91 		.ascii	"x\234\215\221\277k\024A\024\307\337wf\366vo\325\340"
ARM GAS  C:\Users\info\AppData\Local\Temp\cceOWHVn.s 			page 6


  88      BF6B1441 
  88      14C7DF77 
  88      66F6766F 
  88      D5E0
  89 0012 1F9042C4 		.ascii	"\037\220B\304&\215\301\302\326\024\026\376\0001$\235"
  89      268DC1C2 
  89      D61416FE 
  89      0031249D 
  90 0022 0482C46B 		.ascii	"\004\202\304k\023\210Z\337\334\217\345\214\205\210\250"
  90      13885ADF 
  90      DC8FE58C 
  90      8588A8
  91 0031 A4917426 		.ascii	"\244\221t&Qc\356\022\243\236\325zX\210\304\244J%Hbq"
  91      5163EE12 
  91      A39ED57A 
  91      5888C4A4 
  91      4A254862 
  92 0046 48B0B80B 		.ascii	"H\260\270\013\247\\\224\344|o\356\214\001Q|0;\263o\276"
  92      A75C94E4 
  92      7C6FEE8C 
  92      01517C30 
  92      3BB36FBE 
  93 005a F33EDF79 		.ascii	"\363>\337yc\010$\221VD\307x>\305\003\011\202\272\275"
  93      63082491 
  93      5644C778 
  93      3EC50309 
  93      82BABD
  94 006d 42940994 		.ascii	"B\224\011\224\322\315.\262\241\231\354#{P\303k\247\315"
  94      D2CD2EB2 
  94      A199EC23 
  94      7B50C36B 
  94      A7CD
  95 007f AF8507C8 		.ascii	"\257\205\007\310\302\006\340\012\332xH\343\253\332Q"
  95      C206E00A 
  95      DA7848E3 
  95      ABDA51
  96 008e A814AA65 		.ascii	"\250\024\252e\3253m9\326\243\207'\354L\214H\023\265"
  96      D5336D39 
  96      D6A38727 
  96      EC4C8C48 
  96      13B5
  97 00a0 948311A6 		.ascii	"\224\203\021\246\321C,\373T\332\275w(\221\027\331\221"
  97      D1432CFB 
  97      54DABD77 
  97      289117D9 
  97      91
  98 00b1 F6266690 		.ascii	"\366&f\220\020G\363\003\261m\265r6^\014_7\303\244\246"
  98      1047F303 
  98      B16DB572 
  98      365E0C5F 
  98      37C3A4A6 
  99 00c5 48C3F087 		.ascii	"H\303\360\20755\036\002\255+%\263\256\242\362\375\346"
  99      35351E02 
  99      AD2B25B3 
  99      AEA2F2FD 
  99      E6
 100 00d6 C7D9BB90 		.ascii	"\307\331\273\220\2639\255\271\356\375\250\262\3527T"
ARM GAS  C:\Users\info\AppData\Local\Temp\cceOWHVn.s 			page 7


 100      B339ADB9 
 100      EEFDA8B2 
 100      EA3754
 101 00e5 A43504B3 		.ascii	"\2445\004\263^{\265\235l\377n\275\315X\303\251\367?"
 101      5E7BB59D 
 101      6CFF6EBD 
 101      CD58C3A9 
 101      F73F
 102 00f7 36168229 		.ascii	"6\026\202)<\310\344\331\230\301#tc\026\335\314\177\214"
 102      3CC8E4D9 
 102      98C12374 
 102      6316DDCC 
 102      7F8C
 103 0109 295015D9 		.ascii	")P\025\331\255BC\267\013\032\256I\033\310\257\344F;"
 103      AD4243B7 
 103      0B1AAE49 
 103      1BC8AFE4 
 103      463B
 104 011b 89FD0405 		.ascii	"\211\375\004\005\302\0239I\342HS\263\213\015e\033\305"
 104      C2133949 
 104      E24853B3 
 104      8B0D651B 
 104      C5
 105 012c D53B0744 		.ascii	"\325;\007D\275_\35293\345\362\227\017~z\307\336\260"
 105      BD5FEA39 
 105      33E5F297 
 105      0F7E7AC7 
 105      DEB0
 106 013e F630E726 		.ascii	"\3660\347&\270-\222\336\\^{\023\212!\353\362\011<\345"
 106      B82D92DE 
 106      5C5E7B13 
 106      8A21EBF2 
 106      093CE5
 107 0151 5ECE4961 		.ascii	"^\316Ia\336\274\365\2628\021\364\316I\237\354\325H\373"
 107      DEBCF5B2 
 107      3811F4CE 
 107      499FECD5 
 107      48FB
 108 0163 986797BB 		.ascii	"\230g\227\273\256\231(\242\227\025K\205\345R(\020\037"
 108      AE9928A2 
 108      97154B85 
 108      E5522810 
 108      1F
 109 0174 40C9F9A9 		.ascii	"@\311\371\251+C\223}\316Mmm\317\315\377\342\027\376"
 109      2B43937D 
 109      CE4D6D6D 
 109      CFCDFFE2 
 109      17FE
 110 0186 855FFC8D 		.ascii	"\205_\374\215\177\346\360{w\364\271\035K\035\274\347"
 110      7FE6F07B 
 110      77F4B91D 
 110      4B1DBCE7 
 111 0196 9EE73372 		.ascii	"\236\3473rq\375\235\022\374\237\327\017Z\334?\302s\244"
 111      71FD9D12 
 111      FC9FD70F 
 111      5ADC3FC2 
 111      73A4
ARM GAS  C:\Users\info\AppData\Local\Temp\cceOWHVn.s 			page 8


 112 01a8 F96D9324 		.ascii	"\371m\223$\332o\341_\245L\304\213\216t\023\331x\373"
 112      DA6FE15F 
 112      A54CC48B 
 112      8E7413D9 
 112      78FB
 113 01ba BC934AD4 		.ascii	"\274\223J\324\270\016\323Xq\364Lj45~\371Z\352\312\360"
 113      B80ED358 
 113      71F44C6A 
 113      34357EF9 
 113      5AEACAF0 
 114 01ce E0D8F5F1 		.ascii	"\340\330\365\361\221\324P\377\340\330\351\223Cg/\016"
 114      91D450FF 
 114      E0D8E993 
 114      43672F0E 
 115 01de 9CBB34DC 		.ascii	"\234\2734\334\177\341\370\010\375\004|\204\357\374"
 115      7FE1F808 
 115      FD047C84 
 115      EFFC
 116              		.text
 117              		.section	.gnu.lto_HORIZ_Wakeup.bf150bc7,"",%progbits
 118 0000 789C754F 		.ascii	"x\234uO;K\203A\020\334\271\273<\320\004\374\001\022"
 118      3B4B8341 
 118      10DCB9BB 
 118      3CD004FC 
 118      0112
 119 0012 446C5268 		.ascii	"DlRh\020\364\027X\250\210\030\222N\002AbZ\005\321:\227"
 119      10F41758 
 119      A8881892 
 119      4E024162 
 119      5A05D13A 
 120 0027 C787DA88 		.ascii	"\307\207\332\210\215v\2222\361\031\355L\252\317\240"
 120      8D769232 
 120      F119ED4C 
 120      AACFA0
 121 0036 95A2955A 		.ascii	"\225\242\225Z\244Q\013\021\261H\300 *\032\367>\005\013"
 121      A4510B11 
 121      B148C020 
 121      2A1AF73E 
 121      050B
 122 0048 71E1D863 		.ascii	"q\341\330cvfgG\021\310T\232[\017\367\001~p\021\304\352"
 122      76666747 
 122      11C8549A 
 122      5B0FF701 
 122      7E7011C4 
 123 005d 39835E21 		.ascii	"9\203^!d%@\272M]\205H\373$\3247\254\000\363\321^PJH"
 123      642540BA 
 123      4D5D8548 
 123      FB24D437 
 123      AC00F3D1 
 124 0075 85149AE2 		.ascii	"\205\024\232\342C\240\272x_\026\301\202\346\2729\251"
 124      43A0BA78 
 124      5F16C182 
 124      E6BA39A9 
 125 0085 F4EBA20D 		.ascii	"\364\353\242\015K\022\265\204cA( HL\273;\370\\\363\273"
 125      4B12B584 
 125      63412820 
 125      484CBB3B 
ARM GAS  C:\Users\info\AppData\Local\Temp\cceOWHVn.s 			page 9


 125      F85CF3BB 
 126 0099 7386D6F5 		.ascii	"s\206\326\365=D\021nsG)b\353V+\253\355\353\366\243\267"
 126      3D44116E 
 126      73472962 
 126      EB562BAB 
 126      EDEBF6A3 
 127 00ae 76B7224B 		.ascii	"v\267\"K2\\g\212\261k\010a\272|@\326\256\235\012#2\353"
 127      325C678A 
 127      B16B0861 
 127      BA7C40D6 
 127      AE9D0A23 
 128 00c4 CAE5A79A 		.ascii	"\312\345\247\232'\365\241\227\264\356\260\244h\011\226"
 128      27F5A197 
 128      B4EEB0A4 
 128      680996
 129 00d3 60132916 		.ascii	"`\023)\026K\272G\246\322x\251\272\0149+\025\323\327"
 129      4BBA47A6 
 129      D278A9BA 
 129      0C392B15 
 129      D3D7
 130 00e5 ADEA85E7 		.ascii	"\255\352\205\347YX|\366_\265Z\346{\015\374xvy\334\226"
 130      59587CF6 
 130      5FB55AE6 
 130      7B0DFC78 
 130      7679DC96 
 131 00f9 C7465A3B 		.ascii	"\307FZ;\270\013\333\034r\013\235\316p\345p\177\331\033"
 131      B80BDB1C 
 131      720B9DCE 
 131      70E5707F 
 131      D91B
 132 010b EAB5A41B 		.ascii	"\352\265\244\033;\310\343\323\311\207]\204\350\026\271"
 132      3BC8E3D3 
 132      C9875D84 
 132      E816B9
 133 011a 5A36F06B 		.ascii	"Z6\360kVz*\277\372\215\031@\3303r29$U\002N\214\346\251"
 133      567A2ABF 
 133      FA8D1940 
 133      D8337232 
 133      39245502 
 134 0132 EFDF18BC 		.ascii	"\357\337\030\274\025\245\237\030F\244\234\360\217\310"
 134      15A59F18 
 134      46A49CF0 
 134      8FC8
 135 0140 D8EF638E 		.ascii	"\330\357c\216\310T\235\3232\314\334\356\341\344Lrnj"
 135      C8549DD3 
 135      32CCDCEE 
 135      E1E44C72 
 135      6E6A
 136 0152 3E391D8F 		.ascii	">9\035\217\316.\314%\222\261ptvh062\021\031\235\214"
 136      CE2ECC25 
 136      92B17074 
 136      76683036 
 136      3211199D 
 137 0167 87C7FB12 		.ascii	"\207\307\373\022\364\005\011\016\2267"
 137      F405090E 
 137      9637
 138              		.text
ARM GAS  C:\Users\info\AppData\Local\Temp\cceOWHVn.s 			page 10


 139              		.section	.gnu.lto_.symbol_nodes.bf150bc7,"",%progbits
 140 0000 789C55CC 		.ascii	"x\234U\314\261\015\3020\020F\341\347\263\035\307N*z"
 140      B10DC230 
 140      1046E1E7 
 140      B31DC74E 
 140      2A7A
 141 0012 24D881FD 		.ascii	"$\330\201\375.E\006`\006\224\025h\250S3\003 \346@\330"
 141      2E450660 
 141      06941568 
 141      A8533303 
 141      20E640D8 
 142 0026 1105573D 		.ascii	"\021\005W=}\377Y\0168\366\016\020\247p\276C\315m:B\204"
 142      7DFF590E 
 142      38F60E10 
 142      A770BE43 
 142      CD6D3A42 
 143 003b 69075E44 		.ascii	"i\007^D\2359\210W\261CPo\006\2274lC\375b:Tw\032\215"
 143      9D398857 
 143      B143506F 
 143      0697346C 
 143      43FD623A 
 144 0053 A376C645 		.ascii	"\243v\306E\223q\326\336\270\327l<h1\036u\370\267'\261"
 144      9371D6DE 
 144      B8D76C3C 
 144      68311E75 
 144      F8B727B1 
 145 0067 3C3ECED3 		.ascii	"<>\316\323\361\336\032Y\236\265RX\233%3o\356Y[\375\360"
 145      F1DE1A59 
 145      9EB55258 
 145      9B25336F 
 145      EE595BFD 
 146 007c 2BBC5A83 		.ascii	"+\274Z\203pi\357\302\310|=\361\005\336\015Ac"
 146      7069EFC2 
 146      C87C3DF1 
 146      05DE0D41 
 146      63
 147              		.text
 148              		.section	.gnu.lto_.refs.bf150bc7,"",%progbits
 149 0000 789C1DC8 		.ascii	"x\234\035\310\301\015\0000\010\304\260\344\200N\322"
 149      C10D0030 
 149      08C4B0E4 
 149      804ED2
 150 000f FD672CEA 		.ascii	"\375g,\352\317r#\027(4\332z*k\334\231\324\257\2611<"
 150      CF722317 
 150      2834DA7A 
 150      2A6BDC99 
 150      D4AFB131 
 151 0024 0B3A006A 		.ascii	"\013:\000j"
 152              		.text
 153              		.section	.gnu.lto_.decls.bf150bc7,"",%progbits
 154 0000 789C8D55 		.ascii	"x\234\215UkL\024W\024\236\263\263<\334]\026\205\266"
 154      6B4C1457 
 154      149EB3B3 
 154      3CDC5D16 
 154      85B6
 155 0012 A10D49A9 		.ascii	"\241\015I\251\301\204\244\011\2555M\374g\023\333\332"
 155      C184A409 
ARM GAS  C:\Users\info\AppData\Local\Temp\cceOWHVn.s 			page 11


 155      AD354DFC 
 155      6713DBDA 
 156 0022 FEB01289 		.ascii	"\376\260\022\211\2326\246\226\307h\211\004\350\272\264"
 156      9A36A696 
 156      C7688904 
 156      E8BAB4
 157 0031 F1479351 		.ascii	"\361G\223Q|\000\321F-\026\241\240(\265E\004vyTE^[\224"
 157      7C00D146 
 157      2D16A1A0 
 157      28B54504 
 157      76795445 
 158 0048 E72AF272 		.ascii	"\347*\362r\025\251\262\025PPkA\254\026\033\334\236\373"
 158      15A9B215 
 158      50506B41 
 158      AC161BDC 
 158      9EFB
 159 005a 1866962C 		.ascii	"\030f\226,m'|;\367\314|\337w\316\271\367\316E/\200@"
 159      6D277C3B 
 159      F7CC7CDF 
 159      77CEB9F7 
 159      CE452F80 
 160 006f AE771708 		.ascii	"\256w\027\010B\021\016\353\021\036\274\374\360\331z"
 160      42110EEB 
 160      111EBCFC 
 160      F0D97A
 161 007e 41BD4C88 		.ascii	"A\275L\210r\204\015Q\211\250F\324!\032\020M\210\013"
 161      72840D51 
 161      89A846D4 
 161      211A104D 
 161      880B
 162 0090 8816441B 		.ascii	"\210\026D\033\242\003\341D\020\347\233\202\367E<\002"
 162      A203E144 
 162      10E79B82 
 162      F7453C02 
 163 00a0 B87738E2 		.ascii	"\270w8\342\026\342<b\0101\210\250E\210\210~\204\013"
 163      16E23C62 
 163      083188A8 
 163      4588887E 
 163      840B
 164 00b2 7115A1E7 		.ascii	"q\025\241\347\272&\236\257n\036o\333\034o\255\247\033"
 164      BA269EAF 
 164      6E1E6FDB 
 164      1C6FADA7 
 164      1B
 165 00c3 D13C8FB7 		.ascii	"\321<\217\267\215\327\335\302\373\360\345Mz6h\274\207"
 165      8DD7DDC2 
 165      FBF0E54D 
 165      7A3668BC 
 165      87
 166 00d4 1163883B 		.ascii	"\021c\210;s\362\214#\312\270\307\000\317W\311\347\244"
 166      73F28C23 
 166      CAB8C700 
 166      CF57C9E7 
 166      A4
 167 00e5 7C1EEFEA 		.ascii	"|\036\357\3529u+\036Z_\255_5\257y\2769\236\321\301\271"
 167      39752B1E 
 167      5A5FAD5F 
ARM GAS  C:\Users\info\AppData\Local\Temp\cceOWHVn.s 			page 12


 167      35AF79BE 
 167      399ED1C1 
 168 00fa EC234F82 		.ascii	"\354#O\202\007a\000t\300\027X\000`\277@!0\320\020\007"
 168      07610074 
 168      C0175800 
 168      60BF4021 
 168      30D01007 
 169 010e 3AFA2BCC 		.ascii	":\372+\314>\232\275\011\263\024>T\315\350\237r\367("
 169      3E9ABD09 
 169      B3143E54 
 169      CDE89F72 
 169      F728
 170 0120 173551DD 		.ascii	"\0275Q\335\201\213`\266\002>\246\357uj\002`\241\"\320"
 170      818B60B6 
 170      023EA6EF 
 170      756A0260 
 170      A122D0
 171 0133 F8B17235 		.ascii	"\370\261r55\201wO\2404\235\225{\357k\021\033\306\341"
 171      3581774F 
 171      A0349D95 
 171      7BEF6B11 
 171      1BC6E1
 172 0146 D074C9FB 		.ascii	"\320t\311\373\321e2^\007dY\367\272:1-\236\247\216\340"
 172      D165325E 
 172      076459F7 
 172      BA3A312D 
 172      9EA78EE0 
 173 015a C73A0831 		.ascii	"\307:\0101\200\016\303\336\211K\205F\014_0\300B\014"
 173      800EC3DE 
 173      894B8546 
 173      0C5F30C0 
 173      420C
 174 016c EF37E679 		.ascii	"\3577\346y\202\302\276#:9C\216\320\301\372\227\3404"
 174      82C2BE23 
 174      3A39438E 
 174      D0C1FA97 
 174      E034
 175 017e 844329E0 		.ascii	"\204C)\340\272@\031\204\341o\274\2369\355+\310~f\\\\"
 175      BA401984 
 175      E16FBC9E 
 175      39ED2BC8 
 175      7E665C5C 
 176 0192 24BBEDB2 		.ascii	"$\273\355\262{z\354\255<\331\261\023U:\302\202\022\020"
 176      7B7AECAD 
 176      3CD9B113 
 176      553AC282 
 176      1210
 177 01a4 E1144493 		.ascii	"\341\024D\223\342pHn?\301 V]\016\213Qy\361d\273\307"
 177      E270486E 
 177      3FC12056 
 177      5D0E8B51 
 177      79F164BB 
 178 01b9 20AEA085 		.ascii	" \256\240\205\346\3312\037\032\230\213c\242\325$w\243"
 178      E6D9321F 
 178      1A988B63 
 178      A2D52477 
 178      A3
ARM GAS  C:\Users\info\AppData\Local\Temp\cceOWHVn.s 			page 13


 179 01ca C73BD4A3 		.ascii	"\307;\324\243B\365\250\320z\330\250GF\321\217\365F1"
 179      42F5A8D0 
 179      7AD8A847 
 179      46D18FF5 
 179      4631
 180 01dc 967AE43F 		.ascii	"\226z\344?\355\031\011F\217\"\364\260wj=\354\252\207"
 180      ED190946 
 180      8F22F4B0 
 180      776A3DEC 
 180      AA87
 181 01ee 5DEB5149 		.ascii	"]\353QI=&\257>\2372\213\233\250G\341\321\023g\315\334"
 181      3D26AF3E 
 181      9F328B9B 
 181      A847E1D1 
 181      1367CDDC 
 182 0202 A3DFA9F5 		.ascii	"\243\337\251\365\250R=\252\264\036\325\324\243\265\360"
 182      A8523DAA 
 182      B41ED5D4 
 182      A3B5F0
 183 0211 5186594C 		.ascii	"Q\206YL\246\036\266\335#\247\002q2\303\015\340\001\022"
 183      A61EB6DD 
 183      23A70271 
 183      32C30DE0 
 183      0112
 184 0223 3FA89D0E 		.ascii	"?\250\235\016b1m\365\340\360s\243\270\007H\240\353\033"
 184      62316DF5 
 184      E0F073A3 
 184      B80748A0 
 184      EB1B
 185 0235 3E3DAE87 		.ascii	">=\256\207(\303\217d\252\335\265\331\233s\367\222\311"
 185      28C38F64 
 185      AADDB5D9 
 185      9B73F792 
 185      C9
 186 0246 AB05039C 		.ascii	"\253\005\003\234U\023\206\223O.S\226w\312\023'd\377"
 186      55138693 
 186      4F2E5396 
 186      77CA1327 
 186      64FF
 187 0258 30019685 		.ascii	"0\001\226\205\303\233\341\002\234\203(\342JXp\006\327"
 187      C39BE102 
 187      9C8328E2 
 187      4A587006 
 187      D7
 188 0269 E7675C1F 		.ascii	"\347g\\\037\322\304\201\342R\243v\371\210\235\272~\347"
 188      D2C481E2 
 188      52A376F9 
 188      889DBA7E 
 188      E7
 189 027a BDD6AF74 		.ascii	"\275\326\257t\240o\214\256\037\346op~ZU\274\307\021"
 189      A06F8CAE 
 189      1FE66F70 
 189      7E5A55BC 
 189      C711
 190 028c 433950A3 		.ascii	"C9P\243\026PC;\306A\035\355\266\352x\351\210(v\001\333"
 190      1650433B 
 190      C6411DED 
ARM GAS  C:\Users\info\AppData\Local\Temp\cceOWHVn.s 			page 14


 190      B6EA78E9 
 190      88287601 
 191 02a1 63F62739 		.ascii	"c\366'9~\314\300q\315i\316\223\233uT^\257\312\353\025"
 191      7ECCC071 
 191      CD69CE93 
 191      9B75545E 
 191      AFCAEB15 
 192 02b5 7903953F 		.ascii	"y\003\225?\252\271\276_'\272\231\334y\377d\206?\227"
 192      AAB9BE5F 
 192      27BA99DC 
 192      79FF6486 
 192      3F97
 193 02c7 1FEC1267 		.ascii	"\037\354\022g\345\215\252\274Q\2217Qy\367\363\202{\001"
 193      E58DAABC 
 193      51913751 
 193      79F7F382 
 193      7B01
 194 02d9 E224938F 		.ascii	"\342$\223\217\346\036\273\357\257\327\341K\322$6\205"
 194      E61EBBEF 
 194      AFD7E14B 
 194      D2243685 
 195 02e9 CFBA7206 		.ascii	"\317\272r\006za\336\355\333L\333\377\005x\377\177L\036"
 195      7A61DEED 
 195      DB4CDBFF 
 195      0578FF7F 
 195      4C1E
 196 02fb 3DB580E7 		.ascii	"=\265\200\347\237\351\014\242\371\221\002\0165\277C"
 196      9FE90CA2 
 196      F991020E 
 196      35BF43
 197 030a C97F81E6 		.ascii	"\311\177\201\346/\272U\337\037$\356c_Xq\313\203\034"
 197      2FBA55DF 
 197      1F24EE63 
 197      5F5871CB 
 197      831C
 198 031c 0397FFC9 		.ascii	"\003\227\377\311\273'\362\213\252\374\242\"o\241\362"
 198      BB27F28B 
 198      AAFCA222 
 198      6FA1F2
 199 032b 1957DD68 		.ascii	"\031W\335h\200x\214\311w\034\352\316T\3443N\323\254"
 199      80788CC9 
 199      771CEACE 
 199      54E4334E 
 199      D3AC
 200 033d BC5595B7 		.ascii	"\274U\225\267*\3626*\177\266\267bR'V2yW\371\225:\245"
 200      2AF2362A 
 200      7FB6B762 
 200      52275632 
 200      7957F995 
 201 0353 7857A7C9 		.ascii	"xW\247\311\021C\267j\273*nW\304\035T\354\032?^b\024"
 201      1143B76A 
 201      BB2A6E57 
 201      C41D54EC 
 201      1A3F5E62 
 202 0368 EB99F8EF 		.ascii	"\353\231\370\357\212)\247\236\213\237~\303f\236\310"
 202      8A29A79E 
 202      8B9F7EC3 
ARM GAS  C:\Users\info\AppData\Local\Temp\cceOWHVn.s 			page 15


 202      669EC8
 203 0377 3B5579A7 		.ascii	";Uy\247\"wR\371\356\326*{\240\330\301\344=\273\354\005"
 203      227752F9 
 203      EED62A7B 
 203      A0D8C1E4 
 203      3DBBEC05 
 204 038b 223B42F4 		.ascii	"\";B\364\344+\272\234?lfGH\004\206\017w\215\272\371"
 204      E42BBA9C 
 204      3F6C6647 
 204      4804860F 
 204      778DBAF9 
 205 039f 891246C8 		.ascii	"\211\022F\310\236\272\034\020]L9=3\324\215\353\317\202"
 205      9EBA1C10 
 205      5D4C393D 
 205      33D48DEB 
 205      CF82
 206 03b1 DD8D6D7F 		.ascii	"\335\215m\177\231\304\273,\310\3528\323f\026\237\320"
 206      99C4BB2C 
 206      C8EA38D3 
 206      66169FD0 
 207 03c1 C0BF30AF 		.ascii	"\300\2770\257\370a\020DFFF\205F\236 \233\337q\255\355"
 207      F8611044 
 207      46464685 
 207      469E209B 
 207      DF71ADED 
 208 03d5 C55CD9B1 		.ascii	"\305\\\331\261C\244k\335\215e^\207P\345[x\203\254\355"
 208      43A46BDD 
 208      8D655E87 
 208      50E55B78 
 208      83ACED
 209 03e8 69B2C202 		.ascii	"i\262\302\002#\027t\032e\373g\224\332\347\203zEC\355"
 209      2317741A 
 209      65FB6794 
 209      DAE7837A 
 209      4543ED
 210 03fb 6B0B567D 		.ascii	"k\013V}{|\220\227\021.\375F\035g\333L\262\034H\030\002"
 210      7B7C9097 
 210      112EFD46 
 210      1D67DB4C 
 210      B21C4818 
 211 0410 9F25721D 		.ascii	"\237%r\035\244g\254C\226\341\013\001\272p\257]\246{"
 211      A467AC43 
 211      96E10B01 
 211      BA70AF5D 
 211      A67B
 212 0422 8DF82009 		.ascii	"\215\370 \011\256\341\207:\000\221\340B\364#\256B$\225"
 212      AEE1873A 
 212      0091E042 
 212      F423AE42 
 212      2495
 213 0434 B1F40D6D 		.ascii	"\261\364\015mAj\372^\037\351\227\206\263\275j\257\266"
 213      416AFA5E 
 213      1FE99786 
 213      B3BD6AAF 
 213      B6
 214 0445 E5078A59 		.ascii	"\345\007\212Y\"=:nwM\375 Bh\224\317\324\360+f\374\257"
 214      223D3A6E 
ARM GAS  C:\Users\info\AppData\Local\Temp\cceOWHVn.s 			page 16


 214      774DFD20 
 214      426894CF 
 214      D4F02B66 
 215 045b ECBCA16C 		.ascii	"\354\274\241l \015\015\"\371\206\272\362\244?\232\323"
 215      200D0D22 
 215      F986BAF2 
 215      A43F9AD3 
 216 046b 36DE7438 		.ascii	"6\336t8pI\261,\343F\231\266\177\374\255,\207Q\356%\306"
 216      7049B12C 
 216      E34699B6 
 216      7FFCAD2C 
 216      8751EE25 
 217 0480 D5347B89 		.ascii	"\3254{\211l\026\270\011KP\265\377\\\357W\246l\322\335"
 217      6C16B809 
 217      4B50B5FF 
 217      5CEF57A6 
 217      6CD2DD
 218 0493 810C39A4 		.ascii	"\201\0149\244\335L?i\225z\013Lt[\341\235\234 \275%7"
 218      DD4C3F69 
 218      957A0B4C 
 218      745BE19D 
 218      9C20BD25 
 219 04a8 745E6C92 		.ascii	"t^l\222@e\017q\366\020eg\035\255\3135y\261\233\275\274"
 219      40650F71 
 219      F6106567 
 219      1DADCB35 
 219      79B19BBD 
 220 04bd DD9CED26 		.ascii	"\335\234\355&l\261\336\365}\201\210\357\310\237!_\306"
 220      6CB1DEF5 
 220      7D8188EF 
 220      C89F215F 
 220      C6
 221 04ce 4354EE01 		.ascii	"CT\356\001\030\006\203@\203\211\025tL\036\313\023;e"
 221      18068340 
 221      83891574 
 221      4C1ECB13 
 221      3B65
 222 04e0 FF2366E5 		.ascii	"\377#f\345p\025\350\013\001~C\345m2\243\030b\366\307"
 222      7015E80B 
 222      017E43E5 
 222      6D32A318 
 222      62F6C7
 223 04f3 BBA65CFE 		.ascii	"\273\246\\\376\206Lr\260\374\257\263\370\362\370qO\200"
 223      864C72B0 
 223      FCAFB3F8 
 223      F2F8714F 
 223      80
 224 0504 58C096AC 		.ascii	"X\300\226\254\372p\336\341\0000D\371\220\337\365!W\376"
 224      FA70DEE1 
 224      003044F9 
 224      90DFF521 
 224      57FE
 225 0516 29ACC93F 		.ascii	")\254\311?\264C\216\200;\270;F\325\025\032!\345\221"
 225      B4438E80 
 225      3BB83B46 
 225      D5151A21 
 225      E591
ARM GAS  C:\Users\info\AppData\Local\Temp\cceOWHVn.s 			page 17


 226 0528 1435DDBF 		.ascii	"\0245\335\277\333\374\274&\2040\325\011\031\343\023"
 226      DBFCBC26 
 226      8430D509 
 226      19E313
 227 0537 3246A7EF 		.ascii	"2F\247\357NIu\221\331\213]\3465}\343`R2\340PX\370\301"
 227      4E497591 
 227      D98B5DE6 
 227      357DE360 
 227      5232E050 
 228 054e 9AB51F7E 		.ascii	"\232\265\037~\262)6\356Kiej\312\346\244-\201\253>Z\027"
 228      B22936EE 
 228      4B69656A 
 228      CAE6A42D 
 228      81AB3E5A 
 229 0563 B172E952 		.ascii	"\261r\351Ra\361*)E\262\304Y\245\304M\261\251\351\226"
 229      61F12A29 
 229      45B2C459 
 229      A5C44DB1 
 229      A9E996
 230 0576 0469634C 		.ascii	"\004icLl\352\312\26772A\314\352\350\004!\224\215\327"
 230      6CEACAB7 
 230      373241CC 
 230      EAE80421 
 230      948DD7
 231 0589 4ADBACA9 		.ascii	"J\333\254\251\026\2567r\303dIJ3\261\361\206\270\255"
 231      16AE3772 
 231      C364494A 
 231      33B1F186 
 231      B8AD
 232 059b 527ADACB 		.ascii	"Rz\332\313\0129.\021\231VKj\362ZiK\3226\253d\361KOJ"
 232      0A392E11 
 232      99564B6A 
 232      F25A694B 
 232      D236AB64 
 233 05b3 B12E7F6D 		.ascii	"\261.\177m\236|\011\333\255\333\323\244m\321\237\013"
 233      9E7C09DB 
 233      ADDBD3A4 
 233      6DD19F0B 
 234 05c3 AFFE5B45 		.ascii	"\257\376[E\370~\2216Cz\012:/T\237\304H\226\244\324\304"
 234      F87E9136 
 234      437A0A3A 
 234      2F549FC4 
 234      4896A4D4 
 235 05d8 57784596 		.ascii	"WxE\226$\2534\247\212\020\257WT\276H\363\210\351\015"
 235      24AB34A7 
 235      8A10AF57 
 235      54BE48F3 
 235      88E90D
 236 05eb BC3B6BAA 		.ascii	"\274;k\252\322\334{)q\361\311\022\017\342\343\022\266"
 236      D2DC7B29 
 236      71F1C912 
 236      0FE2E312 
 236      B6
 237 05fc A6A72D88 		.ascii	"\246\247-\210\331\260\232\321\375q\264.1\336\2147\306"
 237      D9B09AD1 
 237      FD71B42E 
 237      31DE8C37 
ARM GAS  C:\Users\info\AppData\Local\Temp\cceOWHVn.s 			page 18


 237      C6
 238 060d 8BB562F9 		.ascii	"\213\265b\371!\030\372N\316\364\261VKz\202Uo\221\266"
 238      2118FA4E 
 238      CEF4B156 
 238      4B7A8255 
 238      6F91B6
 239 0620 2CFF07BA 		.ascii	",\377\007\272\244mZ"
 239      A46D5A
 240              		.text
 241              		.section	.gnu.lto_.symtab.bf150bc7,"",%progbits
 242 0000 484F5249 		.ascii	"HORIZ_SaveConfig\000"
 242      5A5F5361 
 242      7665436F 
 242      6E666967 
 242      00
 243 0011 00       		.ascii	"\000"
 244 0012 00       		.ascii	"\000"
 245 0013 00       		.ascii	"\000"
 246 0014 00000000 		.ascii	"\000\000\000\000\000\000\000\000"
 246      00000000 
 247 001c AD000000 		.ascii	"\255\000\000\000"
 248 0020 484F5249 		.ascii	"HORIZ_RestoreConfig\000"
 248      5A5F5265 
 248      73746F72 
 248      65436F6E 
 248      66696700 
 249 0034 00       		.ascii	"\000"
 250 0035 00       		.ascii	"\000"
 251 0036 00       		.ascii	"\000"
 252 0037 00000000 		.ascii	"\000\000\000\000\000\000\000\000"
 252      00000000 
 253 003f AF000000 		.ascii	"\257\000\000\000"
 254 0043 484F5249 		.ascii	"HORIZ_Sleep\000"
 254      5A5F536C 
 254      65657000 
 255 004f 00       		.ascii	"\000"
 256 0050 00       		.ascii	"\000"
 257 0051 00       		.ascii	"\000"
 258 0052 00000000 		.ascii	"\000\000\000\000\000\000\000\000"
 258      00000000 
 259 005a B1000000 		.ascii	"\261\000\000\000"
 260 005e 484F5249 		.ascii	"HORIZ_Wakeup\000"
 260      5A5F5761 
 260      6B657570 
 260      00
 261 006b 00       		.ascii	"\000"
 262 006c 00       		.ascii	"\000"
 263 006d 00       		.ascii	"\000"
 264 006e 00000000 		.ascii	"\000\000\000\000\000\000\000\000"
 264      00000000 
 265 0076 B3000000 		.ascii	"\263\000\000\000"
 266 007a 484F5249 		.ascii	"HORIZ_ReadControlRegister\000"
 266      5A5F5265 
 266      6164436F 
 266      6E74726F 
 266      6C526567 
 267 0094 00       		.ascii	"\000"
ARM GAS  C:\Users\info\AppData\Local\Temp\cceOWHVn.s 			page 19


 268 0095 02       		.ascii	"\002"
 269 0096 00       		.ascii	"\000"
 270 0097 00000000 		.ascii	"\000\000\000\000\000\000\000\000"
 270      00000000 
 271 009f BB000000 		.ascii	"\273\000\000\000"
 272 00a3 484F5249 		.ascii	"HORIZ_ReadCounter\000"
 272      5A5F5265 
 272      6164436F 
 272      756E7465 
 272      7200
 273 00b5 00       		.ascii	"\000"
 274 00b6 02       		.ascii	"\002"
 275 00b7 00       		.ascii	"\000"
 276 00b8 00000000 		.ascii	"\000\000\000\000\000\000\000\000"
 276      00000000 
 277 00c0 BD000000 		.ascii	"\275\000\000\000"
 278 00c4 484F5249 		.ascii	"HORIZ_ReadPeriod\000"
 278      5A5F5265 
 278      61645065 
 278      72696F64 
 278      00
 279 00d5 00       		.ascii	"\000"
 280 00d6 02       		.ascii	"\002"
 281 00d7 00       		.ascii	"\000"
 282 00d8 00000000 		.ascii	"\000\000\000\000\000\000\000\000"
 282      00000000 
 283 00e0 BF000000 		.ascii	"\277\000\000\000"
 284 00e4 484F5249 		.ascii	"HORIZ_WriteControlRegister\000"
 284      5A5F5772 
 284      69746543 
 284      6F6E7472 
 284      6F6C5265 
 285 00ff 00       		.ascii	"\000"
 286 0100 02       		.ascii	"\002"
 287 0101 00       		.ascii	"\000"
 288 0102 00000000 		.ascii	"\000\000\000\000\000\000\000\000"
 288      00000000 
 289 010a C3000000 		.ascii	"\303\000\000\000"
 290 010e 484F5249 		.ascii	"HORIZ_WriteCounter\000"
 290      5A5F5772 
 290      69746543 
 290      6F756E74 
 290      657200
 291 0121 00       		.ascii	"\000"
 292 0122 02       		.ascii	"\002"
 293 0123 00       		.ascii	"\000"
 294 0124 00000000 		.ascii	"\000\000\000\000\000\000\000\000"
 294      00000000 
 295 012c C5000000 		.ascii	"\305\000\000\000"
 296 0130 484F5249 		.ascii	"HORIZ_WritePeriod\000"
 296      5A5F5772 
 296      69746550 
 296      6572696F 
 296      6400
 297 0142 00       		.ascii	"\000"
 298 0143 02       		.ascii	"\002"
 299 0144 00       		.ascii	"\000"
ARM GAS  C:\Users\info\AppData\Local\Temp\cceOWHVn.s 			page 20


 300 0145 00000000 		.ascii	"\000\000\000\000\000\000\000\000"
 300      00000000 
 301 014d C7000000 		.ascii	"\307\000\000\000"
 302 0151 484F5249 		.ascii	"HORIZ_Stop\000"
 302      5A5F5374 
 302      6F7000
 303 015c 00       		.ascii	"\000"
 304 015d 02       		.ascii	"\002"
 305 015e 00       		.ascii	"\000"
 306 015f 00000000 		.ascii	"\000\000\000\000\000\000\000\000"
 306      00000000 
 307 0167 C9000000 		.ascii	"\311\000\000\000"
 308 016b 484F5249 		.ascii	"HORIZ_Enable\000"
 308      5A5F456E 
 308      61626C65 
 308      00
 309 0178 00       		.ascii	"\000"
 310 0179 02       		.ascii	"\002"
 311 017a 00       		.ascii	"\000"
 312 017b 00000000 		.ascii	"\000\000\000\000\000\000\000\000"
 312      00000000 
 313 0183 CB000000 		.ascii	"\313\000\000\000"
 314              		.text
 315              		.section	.gnu.lto_.opts,"",%progbits
 316 0000 272D666D 		.ascii	"'-fmath-errno' '-fsigned-zeros' '-ftrapping-math' '"
 316      6174682D 
 316      6572726E 
 316      6F272027 
 316      2D667369 
 317 0033 2D666E6F 		.ascii	"-fno-trapv' '-fno-openmp' '-fno-openacc' '-mcpu=cor"
 317      2D747261 
 317      70762720 
 317      272D666E 
 317      6F2D6F70 
 318 0066 7465782D 		.ascii	"tex-m3' '-mthumb' '-g' '-Os' '-ffunction-sections' "
 318      6D332720 
 318      272D6D74 
 318      68756D62 
 318      2720272D 
 319 0099 272D6666 		.ascii	"'-ffat-lto-objects' '-flto'\000"
 319      61742D6C 
 319      746F2D6F 
 319      626A6563 
 319      74732720 
 320              		.text
 321              		.cfi_sections	.debug_frame
 322              		.section	.text.HORIZ_SaveConfig,"ax",%progbits
 323              		.align	1
 324              		.global	HORIZ_SaveConfig
 325              		.thumb
 326              		.thumb_func
 327              		.type	HORIZ_SaveConfig, %function
 328              	HORIZ_SaveConfig:
 329              	.LFB0:
 330              		.file 1 "Generated_Source\\PSoC5\\HORIZ_PM.c"
   1:Generated_Source\PSoC5/HORIZ_PM.c **** /*******************************************************************************
   2:Generated_Source\PSoC5/HORIZ_PM.c **** * File Name: HORIZ_PM.c
ARM GAS  C:\Users\info\AppData\Local\Temp\cceOWHVn.s 			page 21


   3:Generated_Source\PSoC5/HORIZ_PM.c **** * Version 3.30
   4:Generated_Source\PSoC5/HORIZ_PM.c **** *
   5:Generated_Source\PSoC5/HORIZ_PM.c **** * Description:
   6:Generated_Source\PSoC5/HORIZ_PM.c **** *  This file provides the power management source code to API for the
   7:Generated_Source\PSoC5/HORIZ_PM.c **** *  PWM.
   8:Generated_Source\PSoC5/HORIZ_PM.c **** *
   9:Generated_Source\PSoC5/HORIZ_PM.c **** * Note:
  10:Generated_Source\PSoC5/HORIZ_PM.c **** *
  11:Generated_Source\PSoC5/HORIZ_PM.c **** ********************************************************************************
  12:Generated_Source\PSoC5/HORIZ_PM.c **** * Copyright 2008-2014, Cypress Semiconductor Corporation.  All rights reserved.
  13:Generated_Source\PSoC5/HORIZ_PM.c **** * You may use this file only in accordance with the license, terms, conditions,
  14:Generated_Source\PSoC5/HORIZ_PM.c **** * disclaimers, and limitations in the end user license agreement accompanying
  15:Generated_Source\PSoC5/HORIZ_PM.c **** * the software package with which this file was provided.
  16:Generated_Source\PSoC5/HORIZ_PM.c **** *******************************************************************************/
  17:Generated_Source\PSoC5/HORIZ_PM.c **** 
  18:Generated_Source\PSoC5/HORIZ_PM.c **** #include "HORIZ.h"
  19:Generated_Source\PSoC5/HORIZ_PM.c **** 
  20:Generated_Source\PSoC5/HORIZ_PM.c **** static HORIZ_backupStruct HORIZ_backup;
  21:Generated_Source\PSoC5/HORIZ_PM.c **** 
  22:Generated_Source\PSoC5/HORIZ_PM.c **** 
  23:Generated_Source\PSoC5/HORIZ_PM.c **** /*******************************************************************************
  24:Generated_Source\PSoC5/HORIZ_PM.c **** * Function Name: HORIZ_SaveConfig
  25:Generated_Source\PSoC5/HORIZ_PM.c **** ********************************************************************************
  26:Generated_Source\PSoC5/HORIZ_PM.c **** *
  27:Generated_Source\PSoC5/HORIZ_PM.c **** * Summary:
  28:Generated_Source\PSoC5/HORIZ_PM.c **** *  Saves the current user configuration of the component.
  29:Generated_Source\PSoC5/HORIZ_PM.c **** *
  30:Generated_Source\PSoC5/HORIZ_PM.c **** * Parameters:
  31:Generated_Source\PSoC5/HORIZ_PM.c **** *  None
  32:Generated_Source\PSoC5/HORIZ_PM.c **** *
  33:Generated_Source\PSoC5/HORIZ_PM.c **** * Return:
  34:Generated_Source\PSoC5/HORIZ_PM.c **** *  None
  35:Generated_Source\PSoC5/HORIZ_PM.c **** *
  36:Generated_Source\PSoC5/HORIZ_PM.c **** * Global variables:
  37:Generated_Source\PSoC5/HORIZ_PM.c **** *  HORIZ_backup:  Variables of this global structure are modified to
  38:Generated_Source\PSoC5/HORIZ_PM.c **** *  store the values of non retention configuration registers when Sleep() API is
  39:Generated_Source\PSoC5/HORIZ_PM.c **** *  called.
  40:Generated_Source\PSoC5/HORIZ_PM.c **** *
  41:Generated_Source\PSoC5/HORIZ_PM.c **** *******************************************************************************/
  42:Generated_Source\PSoC5/HORIZ_PM.c **** void HORIZ_SaveConfig(void) 
  43:Generated_Source\PSoC5/HORIZ_PM.c **** {
 331              		.loc 1 43 0
 332              		.cfi_startproc
 333              		@ args = 0, pretend = 0, frame = 0
 334              		@ frame_needed = 0, uses_anonymous_args = 0
 335 0000 10B5     		push	{r4, lr}
 336              		.cfi_def_cfa_offset 8
 337              		.cfi_offset 4, -8
 338              		.cfi_offset 14, -4
  44:Generated_Source\PSoC5/HORIZ_PM.c **** 
  45:Generated_Source\PSoC5/HORIZ_PM.c ****     #if(!HORIZ_UsingFixedFunction)
  46:Generated_Source\PSoC5/HORIZ_PM.c ****         #if(!HORIZ_PWMModeIsCenterAligned)
  47:Generated_Source\PSoC5/HORIZ_PM.c ****             HORIZ_backup.PWMPeriod = HORIZ_ReadPeriod();
 339              		.loc 1 47 0
 340 0002 FFF7FEFF 		bl	HORIZ_ReadPeriod
 341              	.LVL0:
 342 0006 044C     		ldr	r4, .L2
ARM GAS  C:\Users\info\AppData\Local\Temp\cceOWHVn.s 			page 22


 343 0008 A070     		strb	r0, [r4, #2]
  48:Generated_Source\PSoC5/HORIZ_PM.c ****         #endif /* (!HORIZ_PWMModeIsCenterAligned) */
  49:Generated_Source\PSoC5/HORIZ_PM.c ****         HORIZ_backup.PWMUdb = HORIZ_ReadCounter();
 344              		.loc 1 49 0
 345 000a FFF7FEFF 		bl	HORIZ_ReadCounter
 346              	.LVL1:
 347 000e 6070     		strb	r0, [r4, #1]
  50:Generated_Source\PSoC5/HORIZ_PM.c ****         #if (HORIZ_UseStatus)
  51:Generated_Source\PSoC5/HORIZ_PM.c ****             HORIZ_backup.InterruptMaskValue = HORIZ_STATUS_MASK;
  52:Generated_Source\PSoC5/HORIZ_PM.c ****         #endif /* (HORIZ_UseStatus) */
  53:Generated_Source\PSoC5/HORIZ_PM.c **** 
  54:Generated_Source\PSoC5/HORIZ_PM.c ****         #if(HORIZ_DeadBandMode == HORIZ__B_PWM__DBM_256_CLOCKS || \
  55:Generated_Source\PSoC5/HORIZ_PM.c ****             HORIZ_DeadBandMode == HORIZ__B_PWM__DBM_2_4_CLOCKS)
  56:Generated_Source\PSoC5/HORIZ_PM.c ****             HORIZ_backup.PWMdeadBandValue = HORIZ_ReadDeadTime();
  57:Generated_Source\PSoC5/HORIZ_PM.c ****         #endif /*  deadband count is either 2-4 clocks or 256 clocks */
  58:Generated_Source\PSoC5/HORIZ_PM.c **** 
  59:Generated_Source\PSoC5/HORIZ_PM.c ****         #if(HORIZ_KillModeMinTime)
  60:Generated_Source\PSoC5/HORIZ_PM.c ****              HORIZ_backup.PWMKillCounterPeriod = HORIZ_ReadKillTime();
  61:Generated_Source\PSoC5/HORIZ_PM.c ****         #endif /* (HORIZ_KillModeMinTime) */
  62:Generated_Source\PSoC5/HORIZ_PM.c **** 
  63:Generated_Source\PSoC5/HORIZ_PM.c ****         #if(HORIZ_UseControl)
  64:Generated_Source\PSoC5/HORIZ_PM.c ****             HORIZ_backup.PWMControlRegister = HORIZ_ReadControlRegister();
 348              		.loc 1 64 0
 349 0010 FFF7FEFF 		bl	HORIZ_ReadControlRegister
 350              	.LVL2:
 351 0014 E070     		strb	r0, [r4, #3]
 352 0016 10BD     		pop	{r4, pc}
 353              	.L3:
 354              		.align	2
 355              	.L2:
 356 0018 00000000 		.word	.LANCHOR0
 357              		.cfi_endproc
 358              	.LFE0:
 359              		.size	HORIZ_SaveConfig, .-HORIZ_SaveConfig
 360              		.section	.text.HORIZ_RestoreConfig,"ax",%progbits
 361              		.align	1
 362              		.global	HORIZ_RestoreConfig
 363              		.thumb
 364              		.thumb_func
 365              		.type	HORIZ_RestoreConfig, %function
 366              	HORIZ_RestoreConfig:
 367              	.LFB1:
  65:Generated_Source\PSoC5/HORIZ_PM.c ****         #endif /* (HORIZ_UseControl) */
  66:Generated_Source\PSoC5/HORIZ_PM.c ****     #endif  /* (!HORIZ_UsingFixedFunction) */
  67:Generated_Source\PSoC5/HORIZ_PM.c **** }
  68:Generated_Source\PSoC5/HORIZ_PM.c **** 
  69:Generated_Source\PSoC5/HORIZ_PM.c **** 
  70:Generated_Source\PSoC5/HORIZ_PM.c **** /*******************************************************************************
  71:Generated_Source\PSoC5/HORIZ_PM.c **** * Function Name: HORIZ_RestoreConfig
  72:Generated_Source\PSoC5/HORIZ_PM.c **** ********************************************************************************
  73:Generated_Source\PSoC5/HORIZ_PM.c **** *
  74:Generated_Source\PSoC5/HORIZ_PM.c **** * Summary:
  75:Generated_Source\PSoC5/HORIZ_PM.c **** *  Restores the current user configuration of the component.
  76:Generated_Source\PSoC5/HORIZ_PM.c **** *
  77:Generated_Source\PSoC5/HORIZ_PM.c **** * Parameters:
  78:Generated_Source\PSoC5/HORIZ_PM.c **** *  None
  79:Generated_Source\PSoC5/HORIZ_PM.c **** *
ARM GAS  C:\Users\info\AppData\Local\Temp\cceOWHVn.s 			page 23


  80:Generated_Source\PSoC5/HORIZ_PM.c **** * Return:
  81:Generated_Source\PSoC5/HORIZ_PM.c **** *  None
  82:Generated_Source\PSoC5/HORIZ_PM.c **** *
  83:Generated_Source\PSoC5/HORIZ_PM.c **** * Global variables:
  84:Generated_Source\PSoC5/HORIZ_PM.c **** *  HORIZ_backup:  Variables of this global structure are used to
  85:Generated_Source\PSoC5/HORIZ_PM.c **** *  restore the values of non retention registers on wakeup from sleep mode.
  86:Generated_Source\PSoC5/HORIZ_PM.c **** *
  87:Generated_Source\PSoC5/HORIZ_PM.c **** *******************************************************************************/
  88:Generated_Source\PSoC5/HORIZ_PM.c **** void HORIZ_RestoreConfig(void) 
  89:Generated_Source\PSoC5/HORIZ_PM.c **** {
 368              		.loc 1 89 0
 369              		.cfi_startproc
 370              		@ args = 0, pretend = 0, frame = 0
 371              		@ frame_needed = 0, uses_anonymous_args = 0
 372 0000 10B5     		push	{r4, lr}
 373              		.cfi_def_cfa_offset 8
 374              		.cfi_offset 4, -8
 375              		.cfi_offset 14, -4
  90:Generated_Source\PSoC5/HORIZ_PM.c ****         #if(!HORIZ_UsingFixedFunction)
  91:Generated_Source\PSoC5/HORIZ_PM.c ****             #if(!HORIZ_PWMModeIsCenterAligned)
  92:Generated_Source\PSoC5/HORIZ_PM.c ****                 HORIZ_WritePeriod(HORIZ_backup.PWMPeriod);
 376              		.loc 1 92 0
 377 0002 064C     		ldr	r4, .L5
 378 0004 A078     		ldrb	r0, [r4, #2]	@ zero_extendqisi2
 379 0006 FFF7FEFF 		bl	HORIZ_WritePeriod
 380              	.LVL3:
  93:Generated_Source\PSoC5/HORIZ_PM.c ****             #endif /* (!HORIZ_PWMModeIsCenterAligned) */
  94:Generated_Source\PSoC5/HORIZ_PM.c **** 
  95:Generated_Source\PSoC5/HORIZ_PM.c ****             HORIZ_WriteCounter(HORIZ_backup.PWMUdb);
 381              		.loc 1 95 0
 382 000a 6078     		ldrb	r0, [r4, #1]	@ zero_extendqisi2
 383 000c FFF7FEFF 		bl	HORIZ_WriteCounter
 384              	.LVL4:
  96:Generated_Source\PSoC5/HORIZ_PM.c **** 
  97:Generated_Source\PSoC5/HORIZ_PM.c ****             #if (HORIZ_UseStatus)
  98:Generated_Source\PSoC5/HORIZ_PM.c ****                 HORIZ_STATUS_MASK = HORIZ_backup.InterruptMaskValue;
  99:Generated_Source\PSoC5/HORIZ_PM.c ****             #endif /* (HORIZ_UseStatus) */
 100:Generated_Source\PSoC5/HORIZ_PM.c **** 
 101:Generated_Source\PSoC5/HORIZ_PM.c ****             #if(HORIZ_DeadBandMode == HORIZ__B_PWM__DBM_256_CLOCKS || \
 102:Generated_Source\PSoC5/HORIZ_PM.c ****                 HORIZ_DeadBandMode == HORIZ__B_PWM__DBM_2_4_CLOCKS)
 103:Generated_Source\PSoC5/HORIZ_PM.c ****                 HORIZ_WriteDeadTime(HORIZ_backup.PWMdeadBandValue);
 104:Generated_Source\PSoC5/HORIZ_PM.c ****             #endif /* deadband count is either 2-4 clocks or 256 clocks */
 105:Generated_Source\PSoC5/HORIZ_PM.c **** 
 106:Generated_Source\PSoC5/HORIZ_PM.c ****             #if(HORIZ_KillModeMinTime)
 107:Generated_Source\PSoC5/HORIZ_PM.c ****                 HORIZ_WriteKillTime(HORIZ_backup.PWMKillCounterPeriod);
 108:Generated_Source\PSoC5/HORIZ_PM.c ****             #endif /* (HORIZ_KillModeMinTime) */
 109:Generated_Source\PSoC5/HORIZ_PM.c **** 
 110:Generated_Source\PSoC5/HORIZ_PM.c ****             #if(HORIZ_UseControl)
 111:Generated_Source\PSoC5/HORIZ_PM.c ****                 HORIZ_WriteControlRegister(HORIZ_backup.PWMControlRegister);
 385              		.loc 1 111 0
 386 0010 E078     		ldrb	r0, [r4, #3]	@ zero_extendqisi2
 112:Generated_Source\PSoC5/HORIZ_PM.c ****             #endif /* (HORIZ_UseControl) */
 113:Generated_Source\PSoC5/HORIZ_PM.c ****         #endif  /* (!HORIZ_UsingFixedFunction) */
 114:Generated_Source\PSoC5/HORIZ_PM.c ****     }
 387              		.loc 1 114 0
 388 0012 BDE81040 		pop	{r4, lr}
 389              		.cfi_restore 14
ARM GAS  C:\Users\info\AppData\Local\Temp\cceOWHVn.s 			page 24


 390              		.cfi_restore 4
 391              		.cfi_def_cfa_offset 0
 111:Generated_Source\PSoC5/HORIZ_PM.c ****             #endif /* (HORIZ_UseControl) */
 392              		.loc 1 111 0
 393 0016 FFF7FEBF 		b	HORIZ_WriteControlRegister
 394              	.LVL5:
 395              	.L6:
 396 001a 00BF     		.align	2
 397              	.L5:
 398 001c 00000000 		.word	.LANCHOR0
 399              		.cfi_endproc
 400              	.LFE1:
 401              		.size	HORIZ_RestoreConfig, .-HORIZ_RestoreConfig
 402              		.section	.text.HORIZ_Sleep,"ax",%progbits
 403              		.align	1
 404              		.global	HORIZ_Sleep
 405              		.thumb
 406              		.thumb_func
 407              		.type	HORIZ_Sleep, %function
 408              	HORIZ_Sleep:
 409              	.LFB2:
 115:Generated_Source\PSoC5/HORIZ_PM.c **** 
 116:Generated_Source\PSoC5/HORIZ_PM.c **** 
 117:Generated_Source\PSoC5/HORIZ_PM.c **** /*******************************************************************************
 118:Generated_Source\PSoC5/HORIZ_PM.c **** * Function Name: HORIZ_Sleep
 119:Generated_Source\PSoC5/HORIZ_PM.c **** ********************************************************************************
 120:Generated_Source\PSoC5/HORIZ_PM.c **** *
 121:Generated_Source\PSoC5/HORIZ_PM.c **** * Summary:
 122:Generated_Source\PSoC5/HORIZ_PM.c **** *  Disables block's operation and saves the user configuration. Should be called
 123:Generated_Source\PSoC5/HORIZ_PM.c **** *  just prior to entering sleep.
 124:Generated_Source\PSoC5/HORIZ_PM.c **** *
 125:Generated_Source\PSoC5/HORIZ_PM.c **** * Parameters:
 126:Generated_Source\PSoC5/HORIZ_PM.c **** *  None
 127:Generated_Source\PSoC5/HORIZ_PM.c **** *
 128:Generated_Source\PSoC5/HORIZ_PM.c **** * Return:
 129:Generated_Source\PSoC5/HORIZ_PM.c **** *  None
 130:Generated_Source\PSoC5/HORIZ_PM.c **** *
 131:Generated_Source\PSoC5/HORIZ_PM.c **** * Global variables:
 132:Generated_Source\PSoC5/HORIZ_PM.c **** *  HORIZ_backup.PWMEnableState:  Is modified depending on the enable
 133:Generated_Source\PSoC5/HORIZ_PM.c **** *  state of the block before entering sleep mode.
 134:Generated_Source\PSoC5/HORIZ_PM.c **** *
 135:Generated_Source\PSoC5/HORIZ_PM.c **** *******************************************************************************/
 136:Generated_Source\PSoC5/HORIZ_PM.c **** void HORIZ_Sleep(void) 
 137:Generated_Source\PSoC5/HORIZ_PM.c **** {
 410              		.loc 1 137 0
 411              		.cfi_startproc
 412              		@ args = 0, pretend = 0, frame = 0
 413              		@ frame_needed = 0, uses_anonymous_args = 0
 414 0000 08B5     		push	{r3, lr}
 415              		.cfi_def_cfa_offset 8
 416              		.cfi_offset 3, -8
 417              		.cfi_offset 14, -4
 138:Generated_Source\PSoC5/HORIZ_PM.c ****     #if(HORIZ_UseControl)
 139:Generated_Source\PSoC5/HORIZ_PM.c ****         if(HORIZ_CTRL_ENABLE == (HORIZ_CONTROL & HORIZ_CTRL_ENABLE))
 418              		.loc 1 139 0
 419 0002 074B     		ldr	r3, .L11
 420 0004 1B78     		ldrb	r3, [r3]	@ zero_extendqisi2
ARM GAS  C:\Users\info\AppData\Local\Temp\cceOWHVn.s 			page 25


 421 0006 13F0800F 		tst	r3, #128
 422 000a 064B     		ldr	r3, .L11+4
 140:Generated_Source\PSoC5/HORIZ_PM.c ****         {
 141:Generated_Source\PSoC5/HORIZ_PM.c ****             /*Component is enabled */
 142:Generated_Source\PSoC5/HORIZ_PM.c ****             HORIZ_backup.PWMEnableState = 1u;
 423              		.loc 1 142 0
 424 000c 14BF     		ite	ne
 425 000e 0122     		movne	r2, #1
 143:Generated_Source\PSoC5/HORIZ_PM.c ****         }
 144:Generated_Source\PSoC5/HORIZ_PM.c ****         else
 145:Generated_Source\PSoC5/HORIZ_PM.c ****         {
 146:Generated_Source\PSoC5/HORIZ_PM.c ****             /* Component is disabled */
 147:Generated_Source\PSoC5/HORIZ_PM.c ****             HORIZ_backup.PWMEnableState = 0u;
 426              		.loc 1 147 0
 427 0010 0022     		moveq	r2, #0
 428 0012 1A70     		strb	r2, [r3]
 148:Generated_Source\PSoC5/HORIZ_PM.c ****         }
 149:Generated_Source\PSoC5/HORIZ_PM.c ****     #endif /* (HORIZ_UseControl) */
 150:Generated_Source\PSoC5/HORIZ_PM.c **** 
 151:Generated_Source\PSoC5/HORIZ_PM.c ****     /* Stop component */
 152:Generated_Source\PSoC5/HORIZ_PM.c ****     HORIZ_Stop();
 429              		.loc 1 152 0
 430 0014 FFF7FEFF 		bl	HORIZ_Stop
 431              	.LVL6:
 153:Generated_Source\PSoC5/HORIZ_PM.c **** 
 154:Generated_Source\PSoC5/HORIZ_PM.c ****     /* Save registers configuration */
 155:Generated_Source\PSoC5/HORIZ_PM.c ****     HORIZ_SaveConfig();
 156:Generated_Source\PSoC5/HORIZ_PM.c **** }
 432              		.loc 1 156 0
 433 0018 BDE80840 		pop	{r3, lr}
 434              		.cfi_restore 14
 435              		.cfi_restore 3
 436              		.cfi_def_cfa_offset 0
 155:Generated_Source\PSoC5/HORIZ_PM.c **** }
 437              		.loc 1 155 0
 438 001c FFF7FEBF 		b	HORIZ_SaveConfig
 439              	.LVL7:
 440              	.L12:
 441              		.align	2
 442              	.L11:
 443 0020 72640040 		.word	1073767538
 444 0024 00000000 		.word	.LANCHOR0
 445              		.cfi_endproc
 446              	.LFE2:
 447              		.size	HORIZ_Sleep, .-HORIZ_Sleep
 448              		.section	.text.HORIZ_Wakeup,"ax",%progbits
 449              		.align	1
 450              		.global	HORIZ_Wakeup
 451              		.thumb
 452              		.thumb_func
 453              		.type	HORIZ_Wakeup, %function
 454              	HORIZ_Wakeup:
 455              	.LFB3:
 157:Generated_Source\PSoC5/HORIZ_PM.c **** 
 158:Generated_Source\PSoC5/HORIZ_PM.c **** 
 159:Generated_Source\PSoC5/HORIZ_PM.c **** /*******************************************************************************
 160:Generated_Source\PSoC5/HORIZ_PM.c **** * Function Name: HORIZ_Wakeup
ARM GAS  C:\Users\info\AppData\Local\Temp\cceOWHVn.s 			page 26


 161:Generated_Source\PSoC5/HORIZ_PM.c **** ********************************************************************************
 162:Generated_Source\PSoC5/HORIZ_PM.c **** *
 163:Generated_Source\PSoC5/HORIZ_PM.c **** * Summary:
 164:Generated_Source\PSoC5/HORIZ_PM.c **** *  Restores and enables the user configuration. Should be called just after
 165:Generated_Source\PSoC5/HORIZ_PM.c **** *  awaking from sleep.
 166:Generated_Source\PSoC5/HORIZ_PM.c **** *
 167:Generated_Source\PSoC5/HORIZ_PM.c **** * Parameters:
 168:Generated_Source\PSoC5/HORIZ_PM.c **** *  None
 169:Generated_Source\PSoC5/HORIZ_PM.c **** *
 170:Generated_Source\PSoC5/HORIZ_PM.c **** * Return:
 171:Generated_Source\PSoC5/HORIZ_PM.c **** *  None
 172:Generated_Source\PSoC5/HORIZ_PM.c **** *
 173:Generated_Source\PSoC5/HORIZ_PM.c **** * Global variables:
 174:Generated_Source\PSoC5/HORIZ_PM.c **** *  HORIZ_backup.pwmEnable:  Is used to restore the enable state of
 175:Generated_Source\PSoC5/HORIZ_PM.c **** *  block on wakeup from sleep mode.
 176:Generated_Source\PSoC5/HORIZ_PM.c **** *
 177:Generated_Source\PSoC5/HORIZ_PM.c **** *******************************************************************************/
 178:Generated_Source\PSoC5/HORIZ_PM.c **** void HORIZ_Wakeup(void) 
 179:Generated_Source\PSoC5/HORIZ_PM.c **** {
 456              		.loc 1 179 0
 457              		.cfi_startproc
 458              		@ args = 0, pretend = 0, frame = 0
 459              		@ frame_needed = 0, uses_anonymous_args = 0
 460 0000 08B5     		push	{r3, lr}
 461              		.cfi_def_cfa_offset 8
 462              		.cfi_offset 3, -8
 463              		.cfi_offset 14, -4
 180:Generated_Source\PSoC5/HORIZ_PM.c ****      /* Restore registers values */
 181:Generated_Source\PSoC5/HORIZ_PM.c ****     HORIZ_RestoreConfig();
 464              		.loc 1 181 0
 465 0002 FFF7FEFF 		bl	HORIZ_RestoreConfig
 466              	.LVL8:
 182:Generated_Source\PSoC5/HORIZ_PM.c **** 
 183:Generated_Source\PSoC5/HORIZ_PM.c ****     if(HORIZ_backup.PWMEnableState != 0u)
 467              		.loc 1 183 0
 468 0006 044B     		ldr	r3, .L16
 469 0008 1B78     		ldrb	r3, [r3]	@ zero_extendqisi2
 470 000a 1BB1     		cbz	r3, .L13
 184:Generated_Source\PSoC5/HORIZ_PM.c ****     {
 185:Generated_Source\PSoC5/HORIZ_PM.c ****         /* Enable component's operation */
 186:Generated_Source\PSoC5/HORIZ_PM.c ****         HORIZ_Enable();
 187:Generated_Source\PSoC5/HORIZ_PM.c ****     } /* Do nothing if component's block was disabled before */
 188:Generated_Source\PSoC5/HORIZ_PM.c **** 
 189:Generated_Source\PSoC5/HORIZ_PM.c **** }
 471              		.loc 1 189 0
 472 000c BDE80840 		pop	{r3, lr}
 473              		.cfi_remember_state
 474              		.cfi_restore 14
 475              		.cfi_restore 3
 476              		.cfi_def_cfa_offset 0
 186:Generated_Source\PSoC5/HORIZ_PM.c ****     } /* Do nothing if component's block was disabled before */
 477              		.loc 1 186 0
 478 0010 FFF7FEBF 		b	HORIZ_Enable
 479              	.LVL9:
 480              	.L13:
 481              		.cfi_restore_state
 482 0014 08BD     		pop	{r3, pc}
ARM GAS  C:\Users\info\AppData\Local\Temp\cceOWHVn.s 			page 27


 483              	.L17:
 484 0016 00BF     		.align	2
 485              	.L16:
 486 0018 00000000 		.word	.LANCHOR0
 487              		.cfi_endproc
 488              	.LFE3:
 489              		.size	HORIZ_Wakeup, .-HORIZ_Wakeup
 490              		.bss
 491              		.set	.LANCHOR0,. + 0
 492              		.type	HORIZ_backup, %object
 493              		.size	HORIZ_backup, 4
 494              	HORIZ_backup:
 495 0000 00000000 		.space	4
 496              		.text
 497              	.Letext0:
 498              		.file 2 "Generated_Source\\PSoC5\\cytypes.h"
 499              		.file 3 "Generated_Source\\PSoC5\\HORIZ.h"