ARM GAS  C:\Users\info\AppData\Local\Temp\ccdL7Aty.s 			page 1


   1              		.syntax unified
   2              		.cpu cortex-m3
   3              		.fpu softvfp
   4              		.eabi_attribute 20, 1
   5              		.eabi_attribute 21, 1
   6              		.eabi_attribute 23, 3
   7              		.eabi_attribute 24, 1
   8              		.eabi_attribute 25, 1
   9              		.eabi_attribute 26, 1
  10              		.eabi_attribute 30, 4
  11              		.eabi_attribute 34, 1
  12              		.eabi_attribute 18, 4
  13              		.thumb
  14              		.syntax unified
  15              		.file	"HSYNC_OUT.c"
  16              		.text
  17              	.Ltext0:
  18              		.section	.gnu.lto_.profile.bf150e4d,"",%progbits
  19 0000 789C6361 		.ascii	"x\234ca`d`a`\000\222\222\242\000\000\261\0009"
  19      60646061 
  19      60009292 
  19      A20000B1 
  19      0039
  20              		.text
  21              		.section	.gnu.lto_.icf.bf150e4d,"",%progbits
  22 0000 789C6361 		.ascii	"x\234ca`d\000\001)\006\004`a8\336q\342\003\017c\317"
  22      60640001 
  22      29060460 
  22      6138DE71 
  22      E2030F63 
  23 0015 C2A91BB8 		.ascii	"\302\251\033\270\231\016\277{\377\216\203\371\365\316"
  23      990EBF7B 
  23      FF8E83F9 
  23      F5CE
  24 0023 A6565E06 		.ascii	"\246V^\006\000\245-\014\010"
  24      00A52D0C 
  24      08
  25              		.text
  26              		.section	.gnu.lto_.jmpfuncs.bf150e4d,"",%progbits
  27 0000 789C6361 		.ascii	"x\234ca`d\000\001!\006\004`a`dd\254g\004\021L\014\014"
  27      60640001 
  27      21060460 
  27      61606464 
  27      AC670411 
  28 0017 CC401100 		.ascii	"\314@\021\000\016\"\001&"
  28      0E220126 
  29              		.text
  30              		.section	.gnu.lto_.inline.bf150e4d,"",%progbits
  31 0000 789C6361 		.ascii	"x\234ca`d\000\201$\006\004`a`\340\344`dd\340\000J1s"
  31      60640081 
  31      24060460 
  31      6160E0E4 
  31      606464E0 
  32 0018 1CB06360 		.ascii	"\034\260c`[ \317\304\300\262@\236\005$\013\024g\307"
  32      5B20CFC4 
  32      C0B2409E 
  32      05240B14 
ARM GAS  C:\Users\info\AppData\Local\Temp\ccdL7Aty.s 			page 2


  32      67C7
  33 002a 9064BAC0 		.ascii	"\220d\272\300\017\226db`ced`b\373\240\007\021\007\002"
  33      0F966462 
  33      60636564 
  33      6062FBA0 
  33      07110702 
  34 003e 664C2106 		.ascii	"fL!\006\000\346\332\011\346"
  34      00E6DA09 
  34      E6
  35              		.text
  36              		.section	.gnu.lto_.pureconst.bf150e4d,"",%progbits
  37 0000 789C6361 		.ascii	"x\234ca`d\340d```a\220b\224b\222b\226\002\000\002\261"
  37      6064E064 
  37      60606061 
  37      90629462 
  37      92629602 
  38 0017 0081     		.ascii	"\000\201"
  39              		.text
  40              		.section	.gnu.lto_HSYNC_OUT_Write.bf150e4d,"",%progbits
  41 0000 789C5551 		.ascii	"x\234UQ;k\024Q\024>\337\2753\263yh\260w\213\200\304"
  41      3B6B1451 
  41      143EDFBD 
  41      33B37968 
  41      B0778B80 
  42 0015 10111144 		.ascii	"\020\021\021D\177\200)b\245\342j!,\204e\235\"\240\006"
  42      7F802962 
  42      A5E26A21 
  42      2C84659D 
  42      22A006
  43 0028 928D6DEE 		.ascii	"\222\215m\356\354+`\225&\211\205Id%l|\345\241\225(8"
  43      EC2B6095 
  43      26898549 
  43      64256C7C 
  43      E5A19528 
  44 003d 0CD81850 		.ascii	"\014\330\030P\204\255\202\210l1\202\215+\272\0305q="
  44      84AD8288 
  44      6C31828D 
  44      2BBA1835 
  44      713D
  45 004f E74E630E 		.ascii	"\347Nc\016\334\307\234\371\276\357|\347\\\207@\022\307"
  45      DCC79CF9 
  45      BEEF7CE7 
  45      5C874012 
  45      C7
  46 0060 14D1193E 		.ascii	"\024\321\031>\017\363\202&\250\331\267DA\227\002\344"
  46      0FF38226 
  46      A8D9B744 
  46      419702E4 
  47 0070 62BA40D3 		.ascii	"b\272@\323\012\323h\253=\205h&~\256\206\352\206\343"
  47      0AD368AB 
  47      3D856826 
  47      7EAE86EA 
  47      86E3
  48 0082 D3CA9236 		.ascii	"\323\312\2226\253!*\232\250\243\254\022\241\216!F}~"
  48      AB212A9A 
  48      A8A3AC12 
  48      A18E2146 
ARM GAS  C:\Users\info\AppData\Local\Temp\ccdL7Aty.s 			page 3


  48      7D7E
  49 0094 39D3803E 		.ascii	"9\323\200>\012\342{5j\267z\007W\214)\032\363+ktE\003"
  49      0AE27B35 
  49      6AB77A07 
  49      578C291A 
  49      F32B6B74 
  50 00aa ABD0CCC0 		.ascii	"\253\320\314\300\2514N\246\211\023\204\007\030\024\360"
  50      A9344EA6 
  50      89138407 
  50      1814F0
  51 00b9 CE7663AD 		.ascii	"\316vc\255O\037\267\304Y\023\327\016\014\334\027b\370"
  51      4F1FB7C4 
  51      5913D70E 
  51      0CDC1762 
  51      F8
  52 00ca F3C68209 		.ascii	"\363\306\202\011\203~\341>\374\237+\301\320\346\346"
  52      837EE13E 
  52      FC9F2BC1 
  52      D0E6E6
  53 00d9 DFB9835E 		.ascii	"\337\271\203^Y\\\365\343\021\006\022?x\014\217;\204"
  53      595CF5E3 
  53      1106123F 
  53      780C8F3B 
  53      84
  54 00ea 64D62F85 		.ascii	"d\326/\205\246\323)\231\260\355\266u\267\342\242\212"
  54      A6D32999 
  54      B0EDB675 
  54      B7E2A28A 
  55 00fa 3BE51F0E 		.ascii	";\345\037\016\244\266+\011O\266\224lD-^\322\3757\245"
  55      A4B62B09 
  55      4FB6946C 
  55      442D5ED2 
  55      FD37A5
  56 010d E4D431A2 		.ascii	"\344\3241\242\337\267?.\244D\263\244e\022\363\225\350"
  56      DFB73F2E 
  56      A444B3A4 
  56      6512F395 
  56      E8
  57 011e 5DEA87AA 		.ascii	"]\352\207\252hm\335\276~\325\274\243\222\317{\265\300"
  57      686DDDBE 
  57      7ED5BCA3 
  57      92CF7BB5 
  57      C0
  58 012f 389CDADA 		.ascii	"8\234\332\332^*\366-c1(\363\214\034\254!\215'`\317X"
  58      5E2AF62D 
  58      633128F3 
  58      8C1CAC21 
  58      8D2760CF 
  59 0144 C7322846 		.ascii	"\3072(Fi\267\372\001\211\240N4ko\026\243\036\021\001"
  59      69B7FA01 
  59      89A04E34 
  59      6B6F16A3 
  59      1E1101
  60 0157 BE021B0C 		.ascii	"\276\002\033\014nB\3316\330)\243\204\324\252\306\365"
  60      6E42D936 
  60      D829A384 
  60      D4AAC6F5 
ARM GAS  C:\Users\info\AppData\Local\Temp\ccdL7Aty.s 			page 4


  61 0167 EE84E596 		.ascii	"\356\204\345\226\264\324y_\336\270\253\205\345\302\301"
  61      B4D4795F 
  61      DEB8AB85 
  61      E5C2C1
  62 0176 2693AC74 		.ascii	"&\223\254tC% \3011\350\305\367\335-\353\317\301!<M@"
  62      432520C1 
  62      31E8C5F7 
  62      DD2DEBCF 
  62      C1213C4D 
  63 018b 3B5E0249 		.ascii	";^\002IY\003\036\247\242ykh\237\371\300\230\336\375"
  63      59031EA7 
  63      A2796B68 
  63      9FF9C098 
  63      DEFD
  64 019d FE9FB17F 		.ascii	"\376\237\261\177f\321\027\024\303?\256\020\354C\264"
  64      66D11714 
  64      C33FAE10 
  64      EC43B4
  65 01ac 1464563C 		.ascii	"\024dV<\271##\376M\177\"W\360\257\215f\306\247&\362"
  65      B92323FE 
  65      4D7F2257 
  65      F0AF8D66 
  65      C6A726F2 
  66 01c0 7EF66266 		.ascii	"~\366bf|\370t\366\\\346\352\371\341\321\013W.\237\310"
  66      7CF874F6 
  66      5CE6EAF9 
  66      E1D10B57 
  66      2E9FC8
  67 01d3 937B2B77 		.ascii	"\223{+w}\312\357\231,\344\012c\371\263c\205\311\177"
  67      7DCAEF99 
  67      2CE40A63 
  67      F9B36385 
  67      C97F
  68 01e5 1EE2C30A 		.ascii	"\036\342\303\012"
  69              		.text
  70              		.section	.gnu.lto_HSYNC_OUT_SetDriveMode.bf150e4d,"",%progbits
  71 0000 789C7D51 		.ascii	"x\234}QM+DQ\030>\3179w\356\235I\374\001\263P\212XH\311"
  71      4D2B4451 
  71      183ECF39 
  71      77EE9D49 
  71      FC01B350 
  72 0018 2F505808 		.ascii	"/PX\010\031\026\212$\356\222\211X;3cRl\024f\026\322"
  72      19168A24 
  72      EE928958 
  72      3B336352 
  72      6C146616 
  73 002d D84CE3FB 		.ascii	"\330L\343\373#+\262\030S,\311F\261\220,f\241h|E\276"
  73      232BB218 
  73      532CC946 
  73      B1902C66 
  73      A1687C45 
  74 0042 C6FBDE6B 		.ascii	"\306\373\336k1+\247{\336\257\236\347\3519\3575\004\004"
  74      312BA77B 
  74      DEAF9EE7 
  74      E939EF35 
  74      0404
  75 0054 9F2CA56A 		.ascii	"\237,\245j\312\245t\241\004\344\354\251\020!\257\004"
ARM GAS  C:\Users\info\AppData\Local\Temp\ccdL7Aty.s 			page 5


  75      CAA574A1 
  75      04E4ECA9 
  75      1021AF04 
  76 0064 B8D05E88 		.ascii	"\270\320^\210\011\211\011\274\312o\211\314Tv_V\2454"
  76      098909BC 
  76      CA6F89CC 
  76      54765F56 
  76      A534
  77 0076 9D9BE387 		.ascii	"\235\233\343\207Z\275\222FT\011\221\227\216\222@\012"
  77      5ABD9246 
  77      54099197 
  77      8E92400A 
  78 0086 55847ADE 		.ascii	"U\204z\336K\316\025\251\012\010\252\037Os\327%\225I"
  78      4BCE15A9 
  78      0A08AA1F 
  78      4F73D725 
  78      9549
  79 0098 ADC35AC7 		.ascii	"\255\303Z\307{\265\212*`\005\212\030\250\363\243\326"
  79      7BB58A2A 
  79      60058A18 
  79      A8F3A3D6 
  80 00a8 2F6820B0 		.ascii	"/h \260\212J\006\337\356\376,\024\233\223,_\346\212"
  80      8A4A06DF 
  80      EEFE2C14 
  80      9B932C5F 
  80      E68A
  81 00ba 620D26DB 		.ascii	"b\015&\333\334\356H\353|>\242\323o\346\321\207Y$\211"
  81      DCEE48EB 
  81      7C3EA2D3 
  81      6FE6D187 
  81      592489
  82 00cd 26150565 		.ascii	"&\025\005ep\360\200\025L.-\016^\016>\306\010\221\243"
  82      70F08015 
  82      4C2E2D0E 
  82      5E0E3EC6 
  82      0891A3
  83 00e0 CB0F7994 		.ascii	"\313\017y\224\222\263\312\"\3631\235]4X9\242\370Q\261"
  83      92B3CA22 
  83      F3319D5D 
  83      345839A2 
  83      F851B1
  84 00f3 68E6CC7A 		.ascii	"h\346\314z\221Qe8\216\357\317/\343\206\333\316/\207"
  84      91516538 
  84      8EEFCF2F 
  84      E386DBCE 
  84      2F87
  85 0105 B441A3C3 		.ascii	"\264A\243\303\203\325\226\004\226B\223\364Z\0176\340"
  85      83D59604 
  85      964293F4 
  85      5A0F36E0 
  86 0115 C73AFC64 		.ascii	"\307:\374dn\023\011\320\376\302O\226\253\246H\220\372"
  86      6E1309D0 
  86      FEC24F96 
  86      ABA64890 
  86      FA
  87 0126 C897E9F6 		.ascii	"\310\227\351\366\006\215\210~u2\363\355cE\205\021l\021"
  87      068D887E 
ARM GAS  C:\Users\info\AppData\Local\Temp\ccdL7Aty.s 			page 6


  87      7532F3ED 
  87      63458511 
  87      6C11
  88 0138 B380429F 		.ascii	"\263\200B\237\247\220b\321\210M\\\254o(\227R\202m\207"
  88      A79062D1 
  88      884D5CAC 
  88      6F289752 
  88      826D87
  89 014b 1279FF83 		.ascii	"\022y\377\203x\035a\253P\305GS\35231p\377\217\343\035"
  89      781D61AB 
  89      50C54753 
  89      EA333170 
  89      FF8FE31D 
  90 015f 724C7071 		.ascii	"rLpq\207p\372\263\221\301\316\217\313I\360rhU\345M\366"
  90      8770FAB3 
  90      91C1CE8F 
  90      CB49F072 
  90      6855E54D 
  91 0174 B03DDA3F 		.ascii	"\260=\332?f\017\366\005\202\343\243\003vO{ \330P\337"
  91      660FF605 
  91      82E3A303 
  91      764F7B20 
  91      D850DF
  92 0187 D31CE86E 		.ascii	"\323\034\350nm\350k\353\352\254\031\020\306Pp\320\376"
  92      6DE86BEB 
  92      EAAC1910 
  92      C65070D0 
  92      FE
  93 0198 05AA0DA5 		.ascii	"\005\252\015\245`"
  93      60
  94              		.text
  95              		.section	.gnu.lto_HSYNC_OUT_Read.bf150e4d,"",%progbits
  96 0000 789C354F 		.ascii	"x\2345O\337+\303Q\024?\237{\277\373\021)\357\366\240"
  96      DF2BC351 
  96      143F9F7B 
  96      BFFB1129 
  96      EFF6A0
  97 0013 E4612F52 		.ascii	"\344a/RR\362\272\302\0232\224Z-\315\367\325j\361\274"
  97      52F2BAC2 
  97      1332945A 
  97      2DCDF7D5 
  97      6AF1BC
  98 0026 BB7DF7A3 		.ascii	"\273}\367\243\344\301\013j\231\205\264\371\025\376\203"
  98      E4C10B6A 
  98      9985B4F9 
  98      15FE83
  99 0035 D99322BF 		.ascii	"\331\223\"\277\242\224\222\264\366\340i\026\251\205"
  99      A29492B4 
  99      F6E06916 
  99      A985
 100 0043 39D79753 		.ascii	"9\327\227S\367\234{\317\375\3748\307 \220\216I.\235"
 100      F79C7BCF 
 100      FDFC38C7 
 100      20908E49 
 100      2E9D
 101 0055 5CDBF840 		.ascii	"\\\333\370@\022\304\322\005Q\314-\000}QnPT \212w\361"
 101      12C4D205 
ARM GAS  C:\Users\info\AppData\Local\Temp\ccdL7Aty.s 			page 7


 101      51CC2D00 
 101      7D516E50 
 101      54208A77 
 102 006a 2570F671 		.ascii	"%p\366q\272\330\344\315+\025WO\333\365\276\325B\021"
 102      BAD8E4CD 
 102      2B15574F 
 102      DBF5BED5 
 102      4211
 103 007c 4949D410 		.ascii	"II\324\020\204\036\017\272=Z\"\017/1\364\371\370{\271"
 103      841E0FBA 
 103      3D5A220F 
 103      2F31F4F9 
 103      F87BB9
 104 008f C599501C 		.ascii	"\305\231P\034\355\032\300?\0058\265\345\341XQ5\032\226"
 104      ED1AC03F 
 104      0538B5E5 
 104      E1585135 
 104      1A96
 105 00a1 2ADEB94E 		.ascii	"*\336\271N\356].PR\262/'\203\223p\350\344$-KU\246\351"
 105      EE5D2E50 
 105      52B22F27 
 105      839370E8 
 105      E4242D4B 
 106 00b8 215E85D0 		.ascii	"!^\205\320UVP\252/<\256\367k%KJvYI\226.]o\")%\264iz"
 106      555650AA 
 106      2F3CAEF7 
 106      6B254B4A 
 106      76594996 
 107 00d5 2B7305FB 		.ascii	"+s\005\373\271\261\031S\006\2672)\365\340\314!\033K"
 107      B9B11953 
 107      06B73229 
 107      F5E0CC21 
 107      1B4B
 108 00e7 F0A80676 		.ascii	"\360\250\006v\341\301\016xP\354!\007\252\300\372\034"
 108      E1C10E78 
 108      50EC2107 
 108      AAC0FA1C 
 109 00f7 204BC296 		.ascii	" K\302\226\273\251\236g\2335\037h\305>\303*\210\327"
 109      BBA99E67 
 109      9B351F68 
 109      C53EC32A 
 109      88D7
 110 0109 D2B7D236 		.ascii	"\322\267\32264\030\247\031\265T\331aw\034\334d\332u"
 110      3418A719 
 110      B554D961 
 110      771CDC64 
 110      DA75
 111 011b E2684D6A 		.ascii	"\342hMj\232\200\201\203\177Z\0316H\343\350\005\342\357"
 111      9A808183 
 111      7F5A1936 
 111      48E3E805 
 111      E2EF
 112 012d 45BF8B41 		.ascii	"E\277\213A/\304\353u\014\232\263fdz\316\234\011\372"
 112      2FC4EB75 
 112      0C9AB366 
 112      647ACE9C 
 112      09FA
ARM GAS  C:\Users\info\AppData\Local\Temp\ccdL7Aty.s 			page 8


 113 013f C3F39190 		.ascii	"\303\363\221\220\031\030\365\207}\275\201!\377\324\260"
 113      1918F587 
 113      7DBD8121 
 113      FFD4B0
 114 014e 2F383231 		.ascii	"/821\336\025\242\037\341\315z\354"
 114      DE15A21F 
 114      E1CD7AEC 
 115              		.text
 116              		.section	.gnu.lto_HSYNC_OUT_ReadDataReg.bf150e4d,"",%progbits
 117 0000 789C354F 		.ascii	"x\2345O\273K\202Q\024?\277{?\037\030E{\016A4\270D\020"
 117      BB4B8251 
 117      143FBF7B 
 117      3F1F1845 
 117      7B0E4134 
 118 0017 0DB50AD5 		.ascii	"\015\265\012\325T\221\025\004\202\204\271&H\315~\276"
 118      54911504 
 118      8284B926 
 118      48CD7EBE 
 119 0027 0AA2A1A5 		.ascii	"\012\242\241\245\307\220\031A\250=\250\376\200\310\204"
 119      C7901941 
 119      A83DA8FE 
 119      80C884
 120 0036 20287AD1 		.ascii	" (z\321\324\024\"\016M&E\020\245\235\323W\007\3569\367"
 120      D414220E 
 120      4D264510 
 120      A59DD357 
 120      07EE39F7 
 121 004a DCFB7B9C 		.ascii	"\334\373{\234c\020Hb\222K'\3276>\320\004\265rC\024s"
 121      63104862 
 121      924B27D7 
 121      363ED004 
 121      B5724314 
 122 005f 2A402EA6 		.ascii	"*@.\246\023\024U\210\342]}+\\}\\.\273<Y\323\214\233"
 122      13145588 
 122      E25D7D2B 
 122      5C7D5C2E 
 122      BB3C59D3 
 123 0075 CFBBD9BE 		.ascii	"\317\273\331\276\365\\\001)M\324P\204\0367\272\335\""
 123      F55C0129 
 123      4DD45084 
 123      1E37BADD 
 123      22
 124 0086 91858718 		.ascii	"\221\205\207\030Z:\251\2576\333\223&G\273\000\370'\007"
 124      5A3AA9AF 
 124      36DB9326 
 124      47BB00F8 
 124      2707
 125 0098 BB581E8D 		.ascii	"\273X\036\215\025\314F#a\026N]\347w.\007(\245\331\227"
 125      15CC4623 
 125      61164E5D 
 125      E7772E07 
 125      28A5D997 
 126 00ac 93C149D9 		.ascii	"\223\301I\331$\331Id\251\3124\031\342U)\251\272\202"
 126      24D94964 
 126      A9CA3419 
 126      E25529A9 
 126      BA82
ARM GAS  C:\Users\info\AppData\Local\Temp\ccdL7Aty.s 			page 9


 127 00be E2E7523D 		.ascii	"\342\347R=\337/J\011\255\331e-U\274u\274\251\224\326"
 127      DF2F4A09 
 127      ADD9652D 
 127      55BC75BC 
 127      A994D6
 128 00d1 10D38BB3 		.ascii	"\020\323\213\263\322\206\262\332\355\235\230i\310\310"
 128      D286B2DA 
 128      ED9D9869 
 128      C8C8
 129 00df 4F5BF196 		.ascii	"O[\361\226\014\322\261$\217j`\017n\344\301\203b\037"
 129      0CD2B124 
 129      8F6A600F 
 129      6EE4C183 
 129      621F
 130 00f1 19500589 		.ascii	"\031P\005\211\257\001JhXr\017\325\353t\223\360\201V"
 130      AF014A68 
 130      58720FD5 
 130      EB7493F0 
 130      8156
 131 0103 1C30AC82 		.ascii	"\0340\254\202xm\361Q[\206\006\343\204Q[(\333\254\027"
 131      786DF151 
 131      5B8606E3 
 131      84515B28 
 131      DBAC17
 132 0116 1B3F32ED 		.ascii	"\033?2\355>y\274\251\205\246`\340\360\237V\206\005\022"
 132      3E79BCA9 
 132      85A660E0 
 132      F09F5686 
 132      0512
 133 0128 1CBD40FD 		.ascii	"\034\275@\375u\364\273\030d!^\257c04\033\212L\317\205"
 133      75F4BB18 
 133      64215EAF 
 133      6330341B 
 133      8A4CCF85 
 134 013c 6602BEF0 		.ascii	"f\002\276\360|$\030\362\217\372\302\336^\377\220oj\330"
 134      7C2418F2 
 134      8FFAC2DE 
 134      5EFF906F 
 134      6AD8
 135 014e 1B189918 		.ascii	"\033\030\231\030\357\012\322\017\020={g"
 135      EF0AD20F 
 135      103D7B67 
 136              		.text
 137              		.section	.gnu.lto_.symbol_nodes.bf150e4d,"",%progbits
 138 0000 789C6361 		.ascii	"x\234ca`dpc\000\002&\206z\006\206\011\347\030@\324\256"
 138      60647063 
 138      00022686 
 138      7A068609 
 138      E71840D4 
 139 0015 0645A000 		.ascii	"\006E\240\000c=#\252\000S=\023\252\000s=3\212\000\003"
 139      633D23AA 
 139      00533D13 
 139      AA00733D 
 139      338A0003 
 140 0029 0026B60F 		.ascii	"\000&\266\017<"
 140      3C
 141              		.text
ARM GAS  C:\Users\info\AppData\Local\Temp\ccdL7Aty.s 			page 10


 142              		.section	.gnu.lto_.refs.bf150e4d,"",%progbits
 143 0000 789C6361 		.ascii	"x\234ca`\004B \000\000\0009\000\007"
 143      60044220 
 143      00000039 
 143      0007
 144              		.text
 145              		.section	.gnu.lto_.decls.bf150e4d,"",%progbits
 146 0000 789C8D53 		.ascii	"x\234\215S]H\024Q\024\276gf\\e4\025)\021\332\207\315"
 146      5D481451 
 146      14BE6766 
 146      5C653415 
 146      2911DA87 
 147 0015 5EA40749 		.ascii	"^\244\007I\"\360!2P\262\2274\374\213@\020\177\006\363"
 147      22F02132 
 147      50B29734 
 147      FC8B4010 
 147      7F06F3
 148 0028 45635B03 		.ascii	"Ec[\003_\342\246V&DJ\371\257\345O\370\237?\271[\256"
 148      5FE2A656 
 148      26444AF9 
 148      AFE54FF8 
 148      9F3FB95B 
 149 003d 5AAE6616 		.ascii	"Z\256f\026\222\341O\010\342C\202\025H\011\206R\030\330"
 149      92E14F08 
 149      E2438215 
 149      48098652 
 149      18D8
 150 004f 76EE9DD9 		.ascii	"v\356\235\331\235\2656\3602g\3569\367\236\357;\3379"
 150      9DB536F0 
 150      3267EE39 
 150      F79EEF3B 
 150      DF39
 151 0061 3B2B1120 		.ascii	";+\021 l\245K\204t\340n\304\320\211\313\007\3754\242"
 151      6CA54B84 
 151      74E06EC4 
 151      D089CB07 
 151      FD34A2
 152 0074 2FBC2643 		.ascii	"/\274&Ch6\264a\264\021\362\357b\367\006\015\327\307"
 152      6836B461 
 152      B411F2EF 
 152      62F7060D 
 152      D7C7
 153 0086 B8D026D0 		.ascii	"\270\320&\320\306\321\022\265\034\320\362\376^6/\330"
 153      C6D112B5 
 153      1CD0F2FE 
 153      5E362FD8 
 154 0096 290FBC0B 		.ascii	")\017\274\013k\363\202ez|<p\211^p\303^p#\373\300y\353"
 154      6BF38265 
 154      7A7C3C70 
 154      895E70C3 
 154      5E7023FB 
 155 00ad 735780E1 		.ascii	"sW\200\341\362\332\037A+\260\014\002h\003$\000\352\033"
 155      F2DA1F41 
 155      2BB00C02 
 155      68032400 
 155      EA1B
 156 00bf B811D578 		.ascii	"\270\021\325x\210\216\300\337\304}\344\336\210;Esu2"
ARM GAS  C:\Users\info\AppData\Local\Temp\ccdL7Aty.s 			page 11


 156      888EC0DF 
 156      C47DE4DE 
 156      883B4573 
 156      7532
 157 00d1 FEB876A7 		.ascii	"\376\270v\247kq\022\235\0354\020\270\025h>\277\027\364"
 157      6B71129D 
 157      1D3410B8 
 157      15683EBF 
 157      17F4
 158 00e3 02A0862E 		.ascii	"\002\240\206.\200\007\237*\327C\023\354\355\011\\M\337"
 158      80079F2A 
 158      D74313EC 
 158      ED095C4D 
 158      DF
 159 00f4 689F1C95 		.ascii	"h\237\034\225E\354\030\375\217;\235g#{)\256\012J\205"
 159      45EC18FD 
 159      8F3B9D67 
 159      237B29AE 
 159      0A4A85
 160 0107 63FA64FA 		.ascii	"c\372d\372o~\352\362\333\026\300(\203\023X\374\315\276"
 160      6F7EEAF2 
 160      DB16C028 
 160      831358FC 
 160      CDBE
 161 0119 73408DD9 		.ascii	"s@\215\331u]\345\332o\177\3610\363\205\305\265\236u"
 161      755DE5DA 
 161      6F7FF130 
 161      F385C5B5 
 161      9E75
 162 012b 0922E476 		.ascii	"\011\"\344vF\263z\177\360\264\235\322`\350\003\031z"
 162      46B37A7F 
 162      F0B49DD2 
 162      60E80319 
 162      7A
 163 013c 41842E88 		.ascii	"A\204.\210d\305\2152\276\313(-\246\233\255\324\020F"
 163      64C58D32 
 163      BECB282D 
 163      A69BADD4 
 163      1046
 164 014e E084118E 		.ascii	"\340\204\021\216\033\011<\201\010\306\311\262\240\007"
 164      1B093C81 
 164      08C6C9B2 
 164      A007
 165 015c 8CD00D46 		.ascii	"\214\320\015F\306\377\271\346\321W\203$ \220\361dI\354"
 165      C6FFB9E6 
 165      D1578324 
 165      2090F164 
 165      49EC
 166 016e ECB5F3A7 		.ascii	"\354\265\363\247#\010%\204\310 `\270\260\371\256\311"
 166      23082584 
 166      C82060B8 
 166      B0F9AEC9 
 167 017e 1FC38332 		.ascii	"\037\303\2032\004c\370\376\301\362\002\204U3\015\264"
 167      0463F8FE 
 167      C1F20284 
 167      55330DB4 
 168 018e 849A0448 		.ascii	"\204\232\004H\013\205A$\034@B\002O!\014\337\375 \251"
ARM GAS  C:\Users\info\AppData\Local\Temp\ccdL7Aty.s 			page 12


 168      0B854124 
 168      1C404202 
 168      4F210CDF 
 168      FD20A9
 169 01a1 DDD95BEC 		.ascii	"\335\331[\354\217\245\360f\332<@Wk\246OU\227\320N\204"
 169      8FA5F066 
 169      DA3C4057 
 169      6BA64F55 
 169      97D04E84 
 170 01b5 99581A74 		.ascii	"\231X\032t\352\242\321e[\007\254\340(\207 \034\221\033"
 170      EAA2D165 
 170      5B07ACE0 
 170      2887201C 
 170      911B
 171 01c7 5FBAAD82 		.ascii	"_\272\255\202\230\313\207p\257\241\341W\200\312\342"
 171      98CB8770 
 171      AFA1E157 
 171      80CAE2
 172 01d6 D89E0EA0 		.ascii	"\330\236\016\240s\310q\206sXu\016\253'\207\215sl\325"
 172      73C87186 
 172      7358750E 
 172      AB27878D 
 172      736CD5
 173 01e9 96B54AE2 		.ascii	"\226\265J\342u\316\321T\321\326\355\357)\233\365\253"
 173      75CED154 
 173      D1D6EDEF 
 173      299BF5AB 
 174 01f9 EB7ECE75 		.ascii	"\353~\316ugi\262\007\232\226b\264z\213o\304:\352(F\224"
 174      6769B207 
 174      9A9662B4 
 174      7A8B6FC4 
 174      3AEA2846 
 175 020e C092E099 		.ascii	"\300\222\340\231^\361\231g\305a^qf\251\341\203\257x"
 175      5EF19967 
 175      C5615E71 
 175      66A9E183 
 175      AF78
 176 0220 1778C95B 		.ascii	"\027x\311[\267\0376\372k4#3.\331\214\304\256\223\330"
 176      B71F36FA 
 176      6B342333 
 176      2ED98CC4 
 176      AE93D8
 177 0233 3D494638 		.ascii	"=IF8\311|\351@\243\250\316_\302\360\373l\375Z\240:\177"
 177      C97CE940 
 177      A3A8CE5F 
 177      C2F0FB6C 
 177      FD5AA03A 
 178 0248 1386DBA5 		.ascii	"\023\206\333\245[K\006\271\214u\261\257_xv\275\305\351"
 178      5B4B06B9 
 178      8C75B1AF 
 178      5F7876BD 
 178      C5E9
 179 025a 2BB67149 		.ascii	"+\266qI\302PU]\225/\310\021^\340\016/p\355K\333I\251"
 179      C250555D 
 179      952FC811 
 179      5EE00E2F 
 179      70ED4BDB 
ARM GAS  C:\Users\info\AppData\Local\Temp\ccdL7Aty.s 			page 13


 180 0270 BCC3FA1F 		.ascii	"\274\303\372\037\307\221\275\324\245\277\000Y\035\227"
 180      C791BDD4 
 180      A5BF0059 
 180      1D97
 181 027e 756EA3DF 		.ascii	"un\243\337'\240\234}t\025%4\344m \317\034C\222Q>\334"
 181      27A09C7D 
 181      74152534 
 181      E46D20CF 
 181      1C439251 
 182 0294 0908E0FF 		.ascii	"\011\010\340\377\016\334w\005ql\251\241Q\304;\366\310"
 182      0EDC7705 
 182      716CA9A1 
 182      51C43BF6 
 182      C8
 183 02a5 F514A5D0 		.ascii	"\365\024\245\320y\200)$\343\301f\014\367\3311\335,\246"
 183      79802924 
 183      E3C1660C 
 183      F7D931DD 
 183      2CA6
 184 02b7 86DA4097 		.ascii	"\206\332@\227D\302/\010L\"\362\025\022\3630\350\\\362"
 184      44C22F08 
 184      4C22F215 
 184      12F330E8 
 184      5CF2
 185 02c9 A584D88C 		.ascii	"\245\204\330\214\304\324\224\214\213\346<\213\342\027"
 185      C4D4948C 
 185      8BE63C8B 
 185      E217
 186 02d7 9F906A8A 		.ascii	"\237\220j\212\215\212\">\205y\371\226\350#\361J\276"
 186      8D8A223E 
 186      8579F996 
 186      E823F14A 
 186      BE
 187 02e8 62CEB428 		.ascii	"b\316\264(9\031\311\005\205\346l%\375BrA\354\311\364"
 187      3919C905 
 187      85E66C25 
 187      FD427241 
 187      ECC9F4
 188 02fb EC224BD1 		.ascii	"\354\"K\321\025\345j\344er\364?\031n\336\310l\022\252"
 188      15E56AE4 
 188      6572F43F 
 188      196EDEC8 
 188      6C12AA
 189 030e 1749562C 		.ascii	"\027IV,q\346\274k\312\371\202\034%P?NR2s\016\355\015"
 189      71E6BC6B 
 189      CAF9821C 
 189      25503F4E 
 189      5232730E 
 190 0324 E3322D99 		.ascii	"\3432-\231IJ\256dVr\243\377\000\004\213o\203"
 190      494AAE64 
 190      5672A3FF 
 190      00048B6F 
 190      83
 191              		.text
 192              		.section	.gnu.lto_.symtab.bf150e4d,"",%progbits
 193 0000 4853594E 		.ascii	"HSYNC_OUT_Write\000"
 193      435F4F55 
ARM GAS  C:\Users\info\AppData\Local\Temp\ccdL7Aty.s 			page 14


 193      545F5772 
 193      69746500 
 194 0010 00       		.ascii	"\000"
 195 0011 00       		.ascii	"\000"
 196 0012 00       		.ascii	"\000"
 197 0013 00000000 		.ascii	"\000\000\000\000\000\000\000\000"
 197      00000000 
 198 001b B3000000 		.ascii	"\263\000\000\000"
 199 001f 4853594E 		.ascii	"HSYNC_OUT_SetDriveMode\000"
 199      435F4F55 
 199      545F5365 
 199      74447269 
 199      76654D6F 
 200 0036 00       		.ascii	"\000"
 201 0037 00       		.ascii	"\000"
 202 0038 00       		.ascii	"\000"
 203 0039 00000000 		.ascii	"\000\000\000\000\000\000\000\000"
 203      00000000 
 204 0041 B5000000 		.ascii	"\265\000\000\000"
 205 0045 4853594E 		.ascii	"HSYNC_OUT_Read\000"
 205      435F4F55 
 205      545F5265 
 205      616400
 206 0054 00       		.ascii	"\000"
 207 0055 00       		.ascii	"\000"
 208 0056 00       		.ascii	"\000"
 209 0057 00000000 		.ascii	"\000\000\000\000\000\000\000\000"
 209      00000000 
 210 005f B8000000 		.ascii	"\270\000\000\000"
 211 0063 4853594E 		.ascii	"HSYNC_OUT_ReadDataReg\000"
 211      435F4F55 
 211      545F5265 
 211      61644461 
 211      74615265 
 212 0079 00       		.ascii	"\000"
 213 007a 00       		.ascii	"\000"
 214 007b 00       		.ascii	"\000"
 215 007c 00000000 		.ascii	"\000\000\000\000\000\000\000\000"
 215      00000000 
 216 0084 BA000000 		.ascii	"\272\000\000\000"
 217              		.text
 218              		.section	.gnu.lto_.opts,"",%progbits
 219 0000 272D666D 		.ascii	"'-fmath-errno' '-fsigned-zeros' '-ftrapping-math' '"
 219      6174682D 
 219      6572726E 
 219      6F272027 
 219      2D667369 
 220 0033 2D666E6F 		.ascii	"-fno-trapv' '-fno-openmp' '-fno-openacc' '-mcpu=cor"
 220      2D747261 
 220      70762720 
 220      272D666E 
 220      6F2D6F70 
 221 0066 7465782D 		.ascii	"tex-m3' '-mthumb' '-g' '-Os' '-ffunction-sections' "
 221      6D332720 
 221      272D6D74 
 221      68756D62 
 221      2720272D 
ARM GAS  C:\Users\info\AppData\Local\Temp\ccdL7Aty.s 			page 15


 222 0099 272D6666 		.ascii	"'-ffat-lto-objects' '-flto'\000"
 222      61742D6C 
 222      746F2D6F 
 222      626A6563 
 222      74732720 
 223              		.text
 224              		.cfi_sections	.debug_frame
 225              		.section	.text.HSYNC_OUT_Write,"ax",%progbits
 226              		.align	1
 227              		.global	HSYNC_OUT_Write
 228              		.thumb
 229              		.thumb_func
 230              		.type	HSYNC_OUT_Write, %function
 231              	HSYNC_OUT_Write:
 232              	.LFB0:
 233              		.file 1 "Generated_Source\\PSoC5\\HSYNC_OUT.c"
   1:Generated_Source\PSoC5/HSYNC_OUT.c **** /*******************************************************************************
   2:Generated_Source\PSoC5/HSYNC_OUT.c **** * File Name: HSYNC_OUT.c  
   3:Generated_Source\PSoC5/HSYNC_OUT.c **** * Version 2.20
   4:Generated_Source\PSoC5/HSYNC_OUT.c **** *
   5:Generated_Source\PSoC5/HSYNC_OUT.c **** * Description:
   6:Generated_Source\PSoC5/HSYNC_OUT.c **** *  This file contains API to enable firmware control of a Pins component.
   7:Generated_Source\PSoC5/HSYNC_OUT.c **** *
   8:Generated_Source\PSoC5/HSYNC_OUT.c **** * Note:
   9:Generated_Source\PSoC5/HSYNC_OUT.c **** *
  10:Generated_Source\PSoC5/HSYNC_OUT.c **** ********************************************************************************
  11:Generated_Source\PSoC5/HSYNC_OUT.c **** * Copyright 2008-2015, Cypress Semiconductor Corporation.  All rights reserved.
  12:Generated_Source\PSoC5/HSYNC_OUT.c **** * You may use this file only in accordance with the license, terms, conditions, 
  13:Generated_Source\PSoC5/HSYNC_OUT.c **** * disclaimers, and limitations in the end user license agreement accompanying 
  14:Generated_Source\PSoC5/HSYNC_OUT.c **** * the software package with which this file was provided.
  15:Generated_Source\PSoC5/HSYNC_OUT.c **** *******************************************************************************/
  16:Generated_Source\PSoC5/HSYNC_OUT.c **** 
  17:Generated_Source\PSoC5/HSYNC_OUT.c **** #include "cytypes.h"
  18:Generated_Source\PSoC5/HSYNC_OUT.c **** #include "HSYNC_OUT.h"
  19:Generated_Source\PSoC5/HSYNC_OUT.c **** 
  20:Generated_Source\PSoC5/HSYNC_OUT.c **** /* APIs are not generated for P15[7:6] on PSoC 5 */
  21:Generated_Source\PSoC5/HSYNC_OUT.c **** #if !(CY_PSOC5A &&\
  22:Generated_Source\PSoC5/HSYNC_OUT.c **** 	 HSYNC_OUT__PORT == 15 && ((HSYNC_OUT__MASK & 0xC0) != 0))
  23:Generated_Source\PSoC5/HSYNC_OUT.c **** 
  24:Generated_Source\PSoC5/HSYNC_OUT.c **** 
  25:Generated_Source\PSoC5/HSYNC_OUT.c **** /*******************************************************************************
  26:Generated_Source\PSoC5/HSYNC_OUT.c **** * Function Name: HSYNC_OUT_Write
  27:Generated_Source\PSoC5/HSYNC_OUT.c **** ****************************************************************************//**
  28:Generated_Source\PSoC5/HSYNC_OUT.c **** *
  29:Generated_Source\PSoC5/HSYNC_OUT.c **** * \brief Writes the value to the physical port (data output register), masking
  30:Generated_Source\PSoC5/HSYNC_OUT.c **** *  and shifting the bits appropriately. 
  31:Generated_Source\PSoC5/HSYNC_OUT.c **** *
  32:Generated_Source\PSoC5/HSYNC_OUT.c **** * The data output register controls the signal applied to the physical pin in 
  33:Generated_Source\PSoC5/HSYNC_OUT.c **** * conjunction with the drive mode parameter. This function avoids changing 
  34:Generated_Source\PSoC5/HSYNC_OUT.c **** * other bits in the port by using the appropriate method (read-modify-write or
  35:Generated_Source\PSoC5/HSYNC_OUT.c **** * bit banding).
  36:Generated_Source\PSoC5/HSYNC_OUT.c **** *
  37:Generated_Source\PSoC5/HSYNC_OUT.c **** * <b>Note</b> This function should not be used on a hardware digital output pin 
  38:Generated_Source\PSoC5/HSYNC_OUT.c **** * as it is driven by the hardware signal attached to it.
  39:Generated_Source\PSoC5/HSYNC_OUT.c **** *
  40:Generated_Source\PSoC5/HSYNC_OUT.c **** * \param value
  41:Generated_Source\PSoC5/HSYNC_OUT.c **** *  Value to write to the component instance.
ARM GAS  C:\Users\info\AppData\Local\Temp\ccdL7Aty.s 			page 16


  42:Generated_Source\PSoC5/HSYNC_OUT.c **** *
  43:Generated_Source\PSoC5/HSYNC_OUT.c **** * \return 
  44:Generated_Source\PSoC5/HSYNC_OUT.c **** *  None 
  45:Generated_Source\PSoC5/HSYNC_OUT.c **** *
  46:Generated_Source\PSoC5/HSYNC_OUT.c **** * \sideeffect
  47:Generated_Source\PSoC5/HSYNC_OUT.c **** *  If you use read-modify-write operations that are not atomic; the Interrupt 
  48:Generated_Source\PSoC5/HSYNC_OUT.c **** *  Service Routines (ISR) can cause corruption of this function. An ISR that 
  49:Generated_Source\PSoC5/HSYNC_OUT.c **** *  interrupts this function and performs writes to the Pins component data 
  50:Generated_Source\PSoC5/HSYNC_OUT.c **** *  register can cause corrupted port data. To avoid this issue, you should 
  51:Generated_Source\PSoC5/HSYNC_OUT.c **** *  either use the Per-Pin APIs (primary method) or disable interrupts around 
  52:Generated_Source\PSoC5/HSYNC_OUT.c **** *  this function.
  53:Generated_Source\PSoC5/HSYNC_OUT.c **** *
  54:Generated_Source\PSoC5/HSYNC_OUT.c **** * \funcusage
  55:Generated_Source\PSoC5/HSYNC_OUT.c **** *  \snippet HSYNC_OUT_SUT.c usage_HSYNC_OUT_Write
  56:Generated_Source\PSoC5/HSYNC_OUT.c **** *******************************************************************************/
  57:Generated_Source\PSoC5/HSYNC_OUT.c **** void HSYNC_OUT_Write(uint8 value)
  58:Generated_Source\PSoC5/HSYNC_OUT.c **** {
 234              		.loc 1 58 0
 235              		.cfi_startproc
 236              		@ args = 0, pretend = 0, frame = 0
 237              		@ frame_needed = 0, uses_anonymous_args = 0
 238              		@ link register save eliminated.
 239              	.LVL0:
  59:Generated_Source\PSoC5/HSYNC_OUT.c ****     uint8 staticBits = (HSYNC_OUT_DR & (uint8)(~HSYNC_OUT_MASK));
 240              		.loc 1 59 0
 241 0000 044A     		ldr	r2, .L2
  60:Generated_Source\PSoC5/HSYNC_OUT.c ****     HSYNC_OUT_DR = staticBits | ((uint8)(value << HSYNC_OUT_SHIFT) & HSYNC_OUT_MASK);
 242              		.loc 1 60 0
 243 0002 0001     		lsls	r0, r0, #4
 244              	.LVL1:
  59:Generated_Source\PSoC5/HSYNC_OUT.c ****     uint8 staticBits = (HSYNC_OUT_DR & (uint8)(~HSYNC_OUT_MASK));
 245              		.loc 1 59 0
 246 0004 1378     		ldrb	r3, [r2]	@ zero_extendqisi2
 247              	.LVL2:
 248              		.loc 1 60 0
 249 0006 00F01000 		and	r0, r0, #16
 250 000a 03F0EF03 		and	r3, r3, #239
 251              	.LVL3:
 252 000e 0343     		orrs	r3, r3, r0
 253 0010 1370     		strb	r3, [r2]
 254 0012 7047     		bx	lr
 255              	.L3:
 256              		.align	2
 257              	.L2:
 258 0014 20510040 		.word	1073762592
 259              		.cfi_endproc
 260              	.LFE0:
 261              		.size	HSYNC_OUT_Write, .-HSYNC_OUT_Write
 262              		.section	.text.HSYNC_OUT_SetDriveMode,"ax",%progbits
 263              		.align	1
 264              		.global	HSYNC_OUT_SetDriveMode
 265              		.thumb
 266              		.thumb_func
 267              		.type	HSYNC_OUT_SetDriveMode, %function
 268              	HSYNC_OUT_SetDriveMode:
 269              	.LFB1:
  61:Generated_Source\PSoC5/HSYNC_OUT.c **** }
ARM GAS  C:\Users\info\AppData\Local\Temp\ccdL7Aty.s 			page 17


  62:Generated_Source\PSoC5/HSYNC_OUT.c **** 
  63:Generated_Source\PSoC5/HSYNC_OUT.c **** 
  64:Generated_Source\PSoC5/HSYNC_OUT.c **** /*******************************************************************************
  65:Generated_Source\PSoC5/HSYNC_OUT.c **** * Function Name: HSYNC_OUT_SetDriveMode
  66:Generated_Source\PSoC5/HSYNC_OUT.c **** ****************************************************************************//**
  67:Generated_Source\PSoC5/HSYNC_OUT.c **** *
  68:Generated_Source\PSoC5/HSYNC_OUT.c **** * \brief Sets the drive mode for each of the Pins component's pins.
  69:Generated_Source\PSoC5/HSYNC_OUT.c **** * 
  70:Generated_Source\PSoC5/HSYNC_OUT.c **** * <b>Note</b> This affects all pins in the Pins component instance. Use the
  71:Generated_Source\PSoC5/HSYNC_OUT.c **** * Per-Pin APIs if you wish to control individual pin's drive modes.
  72:Generated_Source\PSoC5/HSYNC_OUT.c **** *
  73:Generated_Source\PSoC5/HSYNC_OUT.c **** * \param mode
  74:Generated_Source\PSoC5/HSYNC_OUT.c **** *  Mode for the selected signals. Valid options are documented in 
  75:Generated_Source\PSoC5/HSYNC_OUT.c **** *  \ref driveMode.
  76:Generated_Source\PSoC5/HSYNC_OUT.c **** *
  77:Generated_Source\PSoC5/HSYNC_OUT.c **** * \return
  78:Generated_Source\PSoC5/HSYNC_OUT.c **** *  None
  79:Generated_Source\PSoC5/HSYNC_OUT.c **** *
  80:Generated_Source\PSoC5/HSYNC_OUT.c **** * \sideeffect
  81:Generated_Source\PSoC5/HSYNC_OUT.c **** *  If you use read-modify-write operations that are not atomic, the ISR can
  82:Generated_Source\PSoC5/HSYNC_OUT.c **** *  cause corruption of this function. An ISR that interrupts this function 
  83:Generated_Source\PSoC5/HSYNC_OUT.c **** *  and performs writes to the Pins component Drive Mode registers can cause 
  84:Generated_Source\PSoC5/HSYNC_OUT.c **** *  corrupted port data. To avoid this issue, you should either use the Per-Pin
  85:Generated_Source\PSoC5/HSYNC_OUT.c **** *  APIs (primary method) or disable interrupts around this function.
  86:Generated_Source\PSoC5/HSYNC_OUT.c **** *
  87:Generated_Source\PSoC5/HSYNC_OUT.c **** * \funcusage
  88:Generated_Source\PSoC5/HSYNC_OUT.c **** *  \snippet HSYNC_OUT_SUT.c usage_HSYNC_OUT_SetDriveMode
  89:Generated_Source\PSoC5/HSYNC_OUT.c **** *******************************************************************************/
  90:Generated_Source\PSoC5/HSYNC_OUT.c **** void HSYNC_OUT_SetDriveMode(uint8 mode)
  91:Generated_Source\PSoC5/HSYNC_OUT.c **** {
 270              		.loc 1 91 0
 271              		.cfi_startproc
 272              		@ args = 0, pretend = 0, frame = 0
 273              		@ frame_needed = 0, uses_anonymous_args = 0
 274              		@ link register save eliminated.
 275              	.LVL4:
  92:Generated_Source\PSoC5/HSYNC_OUT.c **** 	CyPins_SetPinDriveMode(HSYNC_OUT_0, mode);
 276              		.loc 1 92 0
 277 0000 044A     		ldr	r2, .L5
 278 0002 00F00E00 		and	r0, r0, #14
 279              	.LVL5:
 280 0006 1378     		ldrb	r3, [r2]	@ zero_extendqisi2
 281 0008 03F0F103 		and	r3, r3, #241
 282 000c 1843     		orrs	r0, r0, r3
 283 000e 1070     		strb	r0, [r2]
 284 0010 7047     		bx	lr
 285              	.L6:
 286 0012 00BF     		.align	2
 287              	.L5:
 288 0014 14500040 		.word	1073762324
 289              		.cfi_endproc
 290              	.LFE1:
 291              		.size	HSYNC_OUT_SetDriveMode, .-HSYNC_OUT_SetDriveMode
 292              		.section	.text.HSYNC_OUT_Read,"ax",%progbits
 293              		.align	1
 294              		.global	HSYNC_OUT_Read
 295              		.thumb
ARM GAS  C:\Users\info\AppData\Local\Temp\ccdL7Aty.s 			page 18


 296              		.thumb_func
 297              		.type	HSYNC_OUT_Read, %function
 298              	HSYNC_OUT_Read:
 299              	.LFB2:
  93:Generated_Source\PSoC5/HSYNC_OUT.c **** }
  94:Generated_Source\PSoC5/HSYNC_OUT.c **** 
  95:Generated_Source\PSoC5/HSYNC_OUT.c **** 
  96:Generated_Source\PSoC5/HSYNC_OUT.c **** /*******************************************************************************
  97:Generated_Source\PSoC5/HSYNC_OUT.c **** * Function Name: HSYNC_OUT_Read
  98:Generated_Source\PSoC5/HSYNC_OUT.c **** ****************************************************************************//**
  99:Generated_Source\PSoC5/HSYNC_OUT.c **** *
 100:Generated_Source\PSoC5/HSYNC_OUT.c **** * \brief Reads the associated physical port (pin status register) and masks 
 101:Generated_Source\PSoC5/HSYNC_OUT.c **** *  the required bits according to the width and bit position of the component
 102:Generated_Source\PSoC5/HSYNC_OUT.c **** *  instance. 
 103:Generated_Source\PSoC5/HSYNC_OUT.c **** *
 104:Generated_Source\PSoC5/HSYNC_OUT.c **** * The pin's status register returns the current logic level present on the 
 105:Generated_Source\PSoC5/HSYNC_OUT.c **** * physical pin.
 106:Generated_Source\PSoC5/HSYNC_OUT.c **** *
 107:Generated_Source\PSoC5/HSYNC_OUT.c **** * \return 
 108:Generated_Source\PSoC5/HSYNC_OUT.c **** *  The current value for the pins in the component as a right justified number.
 109:Generated_Source\PSoC5/HSYNC_OUT.c **** *
 110:Generated_Source\PSoC5/HSYNC_OUT.c **** * \funcusage
 111:Generated_Source\PSoC5/HSYNC_OUT.c **** *  \snippet HSYNC_OUT_SUT.c usage_HSYNC_OUT_Read  
 112:Generated_Source\PSoC5/HSYNC_OUT.c **** *******************************************************************************/
 113:Generated_Source\PSoC5/HSYNC_OUT.c **** uint8 HSYNC_OUT_Read(void)
 114:Generated_Source\PSoC5/HSYNC_OUT.c **** {
 300              		.loc 1 114 0
 301              		.cfi_startproc
 302              		@ args = 0, pretend = 0, frame = 0
 303              		@ frame_needed = 0, uses_anonymous_args = 0
 304              		@ link register save eliminated.
 115:Generated_Source\PSoC5/HSYNC_OUT.c ****     return (HSYNC_OUT_PS & HSYNC_OUT_MASK) >> HSYNC_OUT_SHIFT;
 305              		.loc 1 115 0
 306 0000 024B     		ldr	r3, .L8
 307 0002 1878     		ldrb	r0, [r3]	@ zero_extendqisi2
 116:Generated_Source\PSoC5/HSYNC_OUT.c **** }
 308              		.loc 1 116 0
 309 0004 C0F30010 		ubfx	r0, r0, #4, #1
 310 0008 7047     		bx	lr
 311              	.L9:
 312 000a 00BF     		.align	2
 313              	.L8:
 314 000c 21510040 		.word	1073762593
 315              		.cfi_endproc
 316              	.LFE2:
 317              		.size	HSYNC_OUT_Read, .-HSYNC_OUT_Read
 318              		.section	.text.HSYNC_OUT_ReadDataReg,"ax",%progbits
 319              		.align	1
 320              		.global	HSYNC_OUT_ReadDataReg
 321              		.thumb
 322              		.thumb_func
 323              		.type	HSYNC_OUT_ReadDataReg, %function
 324              	HSYNC_OUT_ReadDataReg:
 325              	.LFB3:
 117:Generated_Source\PSoC5/HSYNC_OUT.c **** 
 118:Generated_Source\PSoC5/HSYNC_OUT.c **** 
 119:Generated_Source\PSoC5/HSYNC_OUT.c **** /*******************************************************************************
ARM GAS  C:\Users\info\AppData\Local\Temp\ccdL7Aty.s 			page 19


 120:Generated_Source\PSoC5/HSYNC_OUT.c **** * Function Name: HSYNC_OUT_ReadDataReg
 121:Generated_Source\PSoC5/HSYNC_OUT.c **** ****************************************************************************//**
 122:Generated_Source\PSoC5/HSYNC_OUT.c **** *
 123:Generated_Source\PSoC5/HSYNC_OUT.c **** * \brief Reads the associated physical port's data output register and masks 
 124:Generated_Source\PSoC5/HSYNC_OUT.c **** *  the correct bits according to the width and bit position of the component 
 125:Generated_Source\PSoC5/HSYNC_OUT.c **** *  instance. 
 126:Generated_Source\PSoC5/HSYNC_OUT.c **** *
 127:Generated_Source\PSoC5/HSYNC_OUT.c **** * The data output register controls the signal applied to the physical pin in 
 128:Generated_Source\PSoC5/HSYNC_OUT.c **** * conjunction with the drive mode parameter. This is not the same as the 
 129:Generated_Source\PSoC5/HSYNC_OUT.c **** * preferred HSYNC_OUT_Read() API because the 
 130:Generated_Source\PSoC5/HSYNC_OUT.c **** * HSYNC_OUT_ReadDataReg() reads the data register instead of the status 
 131:Generated_Source\PSoC5/HSYNC_OUT.c **** * register. For output pins this is a useful function to determine the value 
 132:Generated_Source\PSoC5/HSYNC_OUT.c **** * just written to the pin.
 133:Generated_Source\PSoC5/HSYNC_OUT.c **** *
 134:Generated_Source\PSoC5/HSYNC_OUT.c **** * \return 
 135:Generated_Source\PSoC5/HSYNC_OUT.c **** *  The current value of the data register masked and shifted into a right 
 136:Generated_Source\PSoC5/HSYNC_OUT.c **** *  justified number for the component instance.
 137:Generated_Source\PSoC5/HSYNC_OUT.c **** *
 138:Generated_Source\PSoC5/HSYNC_OUT.c **** * \funcusage
 139:Generated_Source\PSoC5/HSYNC_OUT.c **** *  \snippet HSYNC_OUT_SUT.c usage_HSYNC_OUT_ReadDataReg 
 140:Generated_Source\PSoC5/HSYNC_OUT.c **** *******************************************************************************/
 141:Generated_Source\PSoC5/HSYNC_OUT.c **** uint8 HSYNC_OUT_ReadDataReg(void)
 142:Generated_Source\PSoC5/HSYNC_OUT.c **** {
 326              		.loc 1 142 0
 327              		.cfi_startproc
 328              		@ args = 0, pretend = 0, frame = 0
 329              		@ frame_needed = 0, uses_anonymous_args = 0
 330              		@ link register save eliminated.
 143:Generated_Source\PSoC5/HSYNC_OUT.c ****     return (HSYNC_OUT_DR & HSYNC_OUT_MASK) >> HSYNC_OUT_SHIFT;
 331              		.loc 1 143 0
 332 0000 024B     		ldr	r3, .L11
 333 0002 1878     		ldrb	r0, [r3]	@ zero_extendqisi2
 144:Generated_Source\PSoC5/HSYNC_OUT.c **** }
 334              		.loc 1 144 0
 335 0004 C0F30010 		ubfx	r0, r0, #4, #1
 336 0008 7047     		bx	lr
 337              	.L12:
 338 000a 00BF     		.align	2
 339              	.L11:
 340 000c 20510040 		.word	1073762592
 341              		.cfi_endproc
 342              	.LFE3:
 343              		.size	HSYNC_OUT_ReadDataReg, .-HSYNC_OUT_ReadDataReg
 344              		.text
 345              	.Letext0:
 346              		.file 2 "Generated_Source\\PSoC5\\cytypes.h"