ARM GAS  C:\Users\info\AppData\Local\Temp\cc0a1lkC.s 			page 1


   1              		.syntax unified
   2              		.cpu cortex-m3
   3              		.fpu softvfp
   4              		.eabi_attribute 20, 1
   5              		.eabi_attribute 21, 1
   6              		.eabi_attribute 23, 3
   7              		.eabi_attribute 24, 1
   8              		.eabi_attribute 25, 1
   9              		.eabi_attribute 26, 1
  10              		.eabi_attribute 30, 4
  11              		.eabi_attribute 34, 1
  12              		.eabi_attribute 18, 4
  13              		.thumb
  14              		.syntax unified
  15              		.file	"keybd.c"
  16              		.text
  17              	.Ltext0:
  18              		.section	.gnu.lto_.profile.bf14d267,"",%progbits
  19 0000 789C6361 		.ascii	"x\234ca`d`e`\000\222\013\030\255\001\002\233\000\350"
  19      60646065 
  19      6000920B 
  19      18AD0102 
  19      9B00E8
  20              		.text
  21              		.section	.gnu.lto_.icf.bf14d267,"",%progbits
  22 0000 789C6361 		.ascii	"x\234ca`d\000\001U\006\004`c\370\262\363\362qN\306\247"
  22      60640001 
  22      55060460 
  22      63F8B2F3 
  22      F2714EC6 
  23 0015 3DF36E71 		.ascii	"=\363nq1}\275\261\374\015\0333\230d\331\273\374\236"
  23      317DBDB1 
  23      FC0D1B33 
  23      9864D9BB 
  23      FC9E
  24 0027 31EBDACF 		.ascii	"1\353\332\317\357\232Y\030\000n[\022\331"
  24      EF9A5918 
  24      006E5B12 
  24      D9
  25              		.text
  26              		.section	.gnu.lto_.jmpfuncs.bf14d267,"",%progbits
  27 0000 789C6361 		.ascii	"x\234ca`d\000\201*\006\004`b`dd\254gb\374\313\304\270"
  27      60640081 
  27      2A060460 
  27      62606464 
  27      AC6762FC 
  28 0017 B5FDCC46 		.ascii	"\265\375\314F\256/L\255\314 \241\345\2142@I8\015\224"
  28      AE2F4CAD 
  28      CC20A1E5 
  28      8C324049 
  28      380D94
  29 002a 9ED67AE8 		.ascii	"\236\326z\350<;H\232\221\221\201q\005H\270^\000\210"
  29      3C3B489A 
  29      91918171 
  29      0548B85E 
  29      0088
  30 003c 50B50275 		.ascii	"P\265\002u2\256\204\310\261\200\014G6\003J3@0\003\000"
ARM GAS  C:\Users\info\AppData\Local\Temp\cc0a1lkC.s 			page 2


  30      32AE84C8 
  30      B1800C47 
  30      36034A33 
  30      40300300 
  31 0050 B4831728 		.ascii	"\264\203\027("
  32              		.text
  33              		.section	.gnu.lto_.inline.bf14d267,"",%progbits
  34 0000 789C6361 		.ascii	"x\234ca`d\000\201|\006\004`b`\220\276\300\300\310\310"
  34      60640081 
  34      7C060460 
  34      626090BE 
  34      C0C0C8C8 
  35 0014 C0019463 		.ascii	"\300\001\224c\022h\250e`[ \017\024d`a`\342f\000j\200"
  35      1268A865 
  35      605B200F 
  35      14646061 
  35      60E26600 
  36 002a 902C0230 		.ascii	"\220,\0020\022\306dPy.\017\224\325xv\270\002\246\205"
  36      12C66450 
  36      792E0F94 
  36      D57876B8 
  36      02A685
  37 003d 81998791 		.ascii	"\201\231\207\221\201q\202\037\0237#X#\013\220d\346\001"
  37      8171821F 
  37      13372358 
  37      230B9064 
  37      E601
  38 004f 9257C498 		.ascii	"\222W\304\230y\230A2\014\000V\327\012\341"
  38      79984132 
  38      0C0056D7 
  38      0AE1
  39              		.text
  40              		.section	.gnu.lto_.pureconst.bf14d267,"",%progbits
  41 0000 789C6361 		.ascii	"x\234ca`d`e```b\220`\261\000\000\001\013\000a"
  41      60646065 
  41      60606062 
  41      9060B100 
  41      00010B00 
  42              		.text
  43              		.section	.gnu.lto_key_pressed.bf14d267,"",%progbits
  44 0000 789C9593 		.ascii	"x\234\225\223\313O\023Q\024\306\357\231;\355L[hy%\232"
  44      CB4F1351 
  44      14C6EF99 
  44      3BED4C5B 
  44      6879259A 
  45 0014 D8058921 		.ascii	"\330\005\211!\350F%.\335\3707\350\0267\002+MP0>V\\("
  45      E846252E 
  45      DDF837E8 
  45      1637022B 
  45      4D50303E 
  46 002b B5565CC0 		.ascii	"\265V\\\300\002\020\037`b\010/\261T\005\255\010\216"
  46      02101F60 
  46      62082FB1 
  46      5405AD08 
  46      8E
  47 003c 08082981 		.ascii	"\010\010)\201\304\304\005>\022\001c\010\242A\304 A\250"
  47      C4C4053E 
ARM GAS  C:\Users\info\AppData\Local\Temp\cc0a1lkC.s 			page 3


  47      12016308 
  47      A241C420 
  47      41A8
  48 004e E7DC9962 		.ascii	"\347\334\231b\013\215\211\223\314\364\366\314\371\335"
  48      0B8D8993 
  48      CCF4F6CC 
  48      F9DD
  49 005c 73BEEFDC 		.ascii	"s\276\357\334Q\0310\272\372m\214\355\305\337=x\003g"
  49      511930BA 
  49      FA6D8CED 
  49      C5DF3D78 
  49      0367
  50 006e A0D44E32 		.ascii	"\240\324N2V\251+\000\264\020:\260\012\005*\340\247\262"
  50      56A92B00 
  50      B4103AB0 
  50      0A052AE0 
  50      A7B2
  51 0080 A1407475 		.ascii	"\241@tu\354\232s\177\233\020U\342\343H4\255\261\335"
  51      EC9A737F 
  51      9B1055E2 
  51      E34834AD 
  51      B1DD
  52 0092 003F672C 		.ascii	"\000?g,\24608\354\205C^\332\242\015\366c\346P\317t\275"
  52      A63038EC 
  52      85435EDA 
  52      A20DF663 
  52      E650CF74 
  53 00a7 9BBB80E1 		.ascii	"\233\273\200\341z\274y\346\252\236\337J\224X/\024\034"
  53      7ABC79E6 
  53      AA9EDF4A 
  53      94582F14 
  53      1C
  54 00b8 116807FE 		.ascii	"\021h\007\376\227\242=\240\003\362)\271\351[\177\253"
  54      97A23DA0 
  54      03F229B9 
  54      E95B7FAB 
  55 00c8 836748F0 		.ascii	"\203gH\360F]g\217\236w\227@c\355\\\2430*s\211\355Ld"
  55      465D678F 
  55      9E779740 
  55      63ED5CA3 
  55      302A7389 
  56 00df E9C2D4B9 		.ascii	"\351\302\324\271/\"\244\361\335\022\273\276\376\253"
  56      2F22A4F1 
  56      DD12BBBE 
  56      FEAB
  57 00ed 5BB3B095 		.ascii	"[\263\260\225B\341;J\320\275\024P\315\327\351:\033\367"
  57      42E13B4A 
  57      D0BD1450 
  57      CDD7E93A 
  57      1BF7
  58 00ff 4AA8E37D 		.ascii	"J\250\343}\315\035\247\005-\307\241\373)\240\346hs "
  58      CD1DA705 
  58      2DC7A1FB 
  58      29A0E668 
  58      7320
  59 0111 8DE74A68 		.ascii	"\215\347Jh\365\355TT\261\240\2458\324\223\002\232\015"
  59      F5ED5454 
ARM GAS  C:\Users\info\AppData\Local\Temp\cc0a1lkC.s 			page 4


  59      B1A0A538 
  59      D493029A 
  59      0D
  60 0122 6FD6A7DB 		.ascii	"o\326\247\333\253\005^\271\020\206<\010\341\335\215"
  60      AB055EB9 
  60      10863C08 
  60      E1DD8D
  61 0131 7717E491 		.ascii	"w\027\344\221}\250\377\001\330q \352\366\267\241c\206"
  61      7DA8FF01 
  61      D87120EA 
  61      F6B7A163 
  61      86
  62 0142 88C57CC2 		.ascii	"\210\305|\302\370\260o\370\246m\027\000\031\245\240"
  62      F8B06FF8 
  62      A66D1700 
  62      19A5A0
  63 0151 65A032CA 		.ascii	"e\2402\312\265\321\322N\017\015\037\212\316\010v0\302"
  63      B5D1D24E 
  63      0F0D1F8A 
  63      CE087630 
  63      C2
  64 0162 9D1475E1 		.ascii	"\235\024u\341\203\273i\345\301\207\232IIY\370\260e3"
  64      83BB69E5 
  64      C1879A49 
  64      4959F8B0 
  64      6533
  65 0174 DA3E875E 		.ascii	"\332>\207^3\266\204-\320\270\277+\012\375\362\317P\265"
  65      33B6842D 
  65      D0B8BF2B 
  65      0AFDF2CF 
  65      50B5
  66 0186 1C189DB3 		.ascii	"\034\030\235\263QW>\256\37080\014\015\316\270\315\200"
  66      51573EAE 
  66      F838300C 
  66      0DCEB8CD 
  66      80
  67 0197 8A921AFC 		.ascii	"\212\222\032\374CS\332\212\342\347viE$\262\370N\253"
  67      4353DA8A 
  67      E2E77669 
  67      4524B2F8 
  67      4EAB
  68 01a9 D8105784 		.ascii	"\330\020W\204\310\300X\220\233\302\027&\336\014;[\340"
  68      C8C05890 
  68      9BC21726 
  68      DE0C3B5B 
  68      E0
  69 01ba 76A59071 		.ascii	"v\245\220q\015\036\341Yz\010^\363\345\300\300\014/\010"
  69      0D1EE159 
  69      7A085EF3 
  69      E5C0C00C 
  69      2F08
  70 01cc 912BE204 		.ascii	"\221+\342\004Y\327\013-\200\345\3104\350\203\0026\013"
  70      59D70B2D 
  70      80E5C834 
  70      E8830236 
  70      0B
  71 01dd 55E28874 		.ascii	"U\342\210t\006\225bY&\373\232\374\241\231m\330\314\220"
ARM GAS  C:\Users\info\AppData\Local\Temp\cc0a1lkC.s 			page 5


  71      06956259 
  71      26FB9AFC 
  71      A1996DD8 
  71      CC90
  72 01ef 6FD96EFE 		.ascii	"o\331n\376\247\020n;\022[5<\324\031\200\002\217\261"
  72      A7106E3B 
  72      125B353C 
  72      D4198002 
  72      8FB1
  73 0201 96A416C1 		.ascii	"\226\244\026\301L\3220\217\240\337\026\244c\010\241"
  73      4CD2308F 
  73      A0DF16A4 
  73      6308A1
  74 0210 E0ADA62E 		.ascii	"\340\255\246.)\007?\002x\202\320,\302T9D\225uI\\~\315"
  74      29073F02 
  74      7882D02C 
  74      C2543944 
  74      9575495C 
  75 0226 4DC68185 		.ascii	"M\306\201\205\223\222\272)\311A\375\032\027e\000\255"
  75      9392BA29 
  75      C941FD1A 
  75      176500AD 
  76 0236 4DF408BF 		.ascii	"M\364\010\2775\210\304;\331<n\356\342$\204l\265:s%\022"
  76      3588C43B 
  76      D93C6EEE 
  76      E224846C 
  76      B53A7325 
  77 024b 7A0A57F5 		.ascii	"z\012W\365 \316!\205\253\016\350GW\237&\271z\020\347"
  77      20CE2185 
  77      AB0EE847 
  77      579F26B9 
  77      7A10E7
  78 025e 0ACFA49F 		.ascii	"\012\317\244\237N\351\347\000\3729\017*\225bX\2132{"
  78      4EE9E700 
  78      FA390F2A 
  78      9562588B 
  78      327B
  79 0270 031361A7 		.ascii	"\003\023a\247\331\036\300 x\375\230:\017\325F\255lh"
  79      D91EC020 
  79      78FD983A 
  79      0FD546AD 
  79      6C68
  80 0282 677D574C 		.ascii	"g}WL\301\372\360\034*\222\3504\244\015\242\323\255\371"
  80      C1FAF01C 
  80      2A92E834 
  80      A40DA2D3 
  80      ADF9
  81 0294 AC5836B9 		.ascii	"\254X6\271M\343\266\004z\022\005\272S\010t\007i\370"
  81      4DE3B604 
  81      7A1205BA 
  81      53087407 
  81      69F8
  82 02a6 3B057A60 		.ascii	";\005z`\010\005\276\330.P\205\227R\240[\012\034\226"
  82      0805BED8 
  82      2E508597 
  82      52A05B0A 
  82      1C96
ARM GAS  C:\Users\info\AppData\Local\Temp\cc0a1lkC.s 			page 6


  83 02b8 02ADD299 		.ascii	"\002\255\322\231X\015\217v\006\315\255/\360I5\243Y\370"
  83      580D8F76 
  83      06CDAD2F 
  83      F04935A3 
  83      59F8
  84 02ca 0237082D 		.ascii	"\0027\010-F\326\322\251\007\224\003#\333\017H6\346m"
  84      46D6D2A9 
  84      07940323 
  84      DB0F4836 
  84      E66D
  85 02dc 0DB68B06 		.ascii	"\015\266\213\006\233-E\204[\255\317!\347?\0063\232z"
  85      9B2D4584 
  85      5BADCF21 
  85      E73F0633 
  85      9A7A
  86 02ee 30AF1206 		.ascii	"0\257\022\0063\2264\230\034yP\342\223h\370\367$\306"
  86      33963498 
  86      1C7950E2 
  86      9368F8F7 
  86      24C6
  87 0300 711271EB 		.ascii	"q\022q\353\027\360\3545\235\265$\320\306K\230\202\337"
  87      17F0EC35 
  87      9DB524D0 
  87      C64B9882 
  87      DF
  88 0311 321AAA9F 		.ascii	"2\032\252\237*\271t\262\370@\021S\317\343J;SVR^^R\314"
  88      2AB974B2 
  88      F8401153 
  88      CFE34A3B 
  88      5356525E 
  89 0328 8B4A4FF3 		.ascii	"\213JO\363\262\322\013\034c\177\000c\247\315\311"
  89      B2D20B1C 
  89      637F0063 
  89      A7CDC9
  90              		.text
  91              		.section	.gnu.lto_v2p.bf14d267,"",%progbits
  92 0000 789C4D90 		.ascii	"x\234M\220\301J\303@\020\206g\222\246VM\333\027\310"
  92      C14AC340 
  92      10866792 
  92      A6564DDB 
  92      17C8
  93 0012 4BA897BE 		.ascii	"K\250\227\276\201o\3433DhE<{\022\017\202J\325\3324j"
  93      816FE333 
  93      4468453C 
  93      7B120F82 
  93      4AD5DA34 
  94 0027 8D26555B 		.ascii	"\215&U[\333\212\350E=I\301\243\007\021\017R\002Ej\324"
  94      DB8AE845 
  94      3D49C1A3 
  94      07110F52 
  94      02456AD4 
  95 003b DF9D5076 		.ascii	"\337\235Pv\341c\363\361Ovv'CL\377k\321\240\364\213("
  95      E163F3F1 
  95      4F767627 
  95      434CFF6B 
  95      D1A0F48B 
  96 0050 31D81BC6 		.ascii	"1\330\033\306^66*&qQWV\372<(\207,\351,4yY\3761$-@\343"
ARM GAS  C:\Users\info\AppData\Local\Temp\cc0a1lkC.s 			page 7


  96      5E36362A 
  96      26715157 
  96      56FA3C28 
  96      872CE92C 
  97 006d B5CAC894 		.ascii	"\265\312\310\224t\012\272\375\036\366,I\363\320\356"
  97      740ABAFD 
  97      1EF62C49 
  97      F3D0EE
  98 007c D0AFDA92 		.ascii	"\320\257\332\222\232\320\361\333\372\200%\265\365\243"
  98      9AD0F1DB 
  98      FA8025B5 
  98      F5A3
  99 008a 481D3569 		.ascii	"H\0355i\304\252\321\244\230\244\370\3631\261%\235\321"
  99      C4AAD1A4 
  99      98A4F8F3 
  99      31B1259D 
  99      D1
 100 009b 9594D682 		.ascii	"\225\224\326\202\335(\375wZWR\272\321\212\357-\321\234"
 100      DD28FD77 
 100      5A5752BA 
 100      D18AEF2D 
 100      D19C
 101 00ad 7E675677 		.ascii	"~gVw~\035\327\243\202\244Y]Y\351\335N\364\2356\262t"
 101      7E1DD7A3 
 101      82A4595D 
 101      59E9DD4E 
 101      F49D36B2 
 102 00c2 65A54F65 		.ascii	"e\245Oe\1773}~FWVz\363;\352\024%5\364i\260\232F\263"
 102      7F337D7E 
 102      4657567A 
 102      F33BEA14 
 102      2535F469 
 103 00da 7FBB9293 		.ascii	"\177\273\222\223\224\365bV\305\215\217\360+/)\351\203"
 103      94F56256 
 103      C58D8FF0 
 103      2B2F29E9 
 103      83
 104 00eb 2535D887 		.ascii	"%5\330\207\266\273T\012\334\325-\327\265*\246\301s\016"
 104      B6BB540A 
 104      DCD52DD7 
 104      B52AA6C1 
 104      730E
 105 00fd F7D8E179 		.ascii	"\367\330\341y\207\273\330\256A\007\264\301\025\270\004"
 105      87BBD8AE 
 105      4107B4C1 
 105      15B804
 106 010c 17A00522 		.ascii	"\027\240\005\"\020\202sp\006\002\260\340\360)\266&8"
 106      10827370 
 106      0602B0E0 
 106      F029B626 
 106      38
 107 011d 01C7E008 		.ascii	"\001\307\340\010\370\240\001<P\007\207\240\006\016\300"
 107      F8A0013C 
 107      500787A0 
 107      060EC0
 108 012c 3ED80355 		.ascii	">\330\003Uv\210\373\\\242?@>\306\317"
 108      7688FB5C 
ARM GAS  C:\Users\info\AppData\Local\Temp\cc0a1lkC.s 			page 8


 108      A23F403E 
 108      C6CF
 109              		.text
 110              		.section	.gnu.lto_col_wr.bf14d267,"",%progbits
 111 0000 789C6361 		.ascii	"x\234ca`d\000\201m@\314\305\000\001\177\231\030w\356"
 111      60640081 
 111      6D40CCC5 
 111      00017F99 
 111      1877EE
 112 0013 7C739BBD 		.ascii	"|s\233\275\376oCGC\303\203\243\017\231[\231\031\376"
 112      FE6F4347 
 112      43C383A3 
 112      0F995B99 
 112      19FE
 113 0025 3341640E 		.ascii	"3Ad\016}\332\260\234\347\013S+3##3\252\302\206\255\214"
 113      7DDAB09C 
 113      E70B532B 
 113      33232333 
 113      AAC286AD 
 114 003a 60758C60 		.ascii	"`u\214`uG\377\177?\300\017Q\307\204\246\256\022\254"
 114      7547FF7F 
 114      3FC00F51 
 114      C784A6AE 
 114      12AC
 115 004c 8C09DDA2 		.ascii	"\214\011\335\242\006[\26083X|~\317\324[l\026\333\032"
 115      065BB038 
 115      33587C7E 
 115      CFD45B6C 
 115      16DB1A
 116 005f 3A163438 		.ascii	":\02648\264231\032\3120\256a\254g4\222a\\\015\244V1"
 116      B4323331 
 116      1ACA30AE 
 116      61AC6734 
 116      92615C0D 
 117 0076 CA30AE04 		.ascii	"\3120\256\004\322+\200\364r\306z\006\306\265\214\026"
 117      D22B80F4 
 117      72C67A06 
 117      C6B58C16 
 118 0086 0C1CD9A9 		.ascii	"\014\034\331\251\225I)z\311\014\000\347\012I\000"
 118      9549297A 
 118      C90C00E7 
 118      0A4900
 119              		.text
 120              		.section	.gnu.lto_row_rd.bf14d267,"",%progbits
 121 0000 789C6361 		.ascii	"x\234ca`d\000\201m@\314\305\000\001\177\231\030w\356"
 121      60640081 
 121      6D40CCC5 
 121      00017F99 
 121      1877EE
 122 0013 7C739BBD 		.ascii	"|s\233\275\376oCGC\303\203\243\307\314Z\231\031\376"
 122      FE6F4347 
 122      43C383A3 
 122      C7CC5A99 
 122      19FE
 123 0025 3341640E 		.ascii	"3Ad\016}\332\260\234\347\013S+3##3\252\302\206\215\214"
 123      7DDAB09C 
 123      E70B532B 
ARM GAS  C:\Users\info\AppData\Local\Temp\cc0a1lkC.s 			page 9


 123      33232333 
 123      AAC2868D 
 124 003a 60758C60 		.ascii	"`u\214`uG\377\177?\300\017Q\307\204\246\256\034\254"
 124      7547FF7F 
 124      3FC00F51 
 124      C784A6AE 
 124      1CAC
 125 004c 8C09DDA2 		.ascii	"\214\011\335\242\006[\26083X|~\317\324[l\026\333\032"
 125      065BB038 
 125      33587C7E 
 125      CFD45B6C 
 125      16DB1A
 126 005f 3A163438 		.ascii	":\02648\264231\032\3120\256a\254g4\222a\\\015\244V1"
 126      B4323331 
 126      1ACA30AE 
 126      61AC6734 
 126      92615C0D 
 127 0076 CA30AE04 		.ascii	"\3120\256\004\322+\200\364r\306z\006\306\265\214\026"
 127      D22B80F4 
 127      72C67A06 
 127      C6B58C16 
 128 0086 0C1CD9A9 		.ascii	"\014\034\331\251\225I)z\311\014\000\364wI\022"
 128      9549297A 
 128      C90C00F4 
 128      774912
 129              		.text
 130              		.section	.gnu.lto_wait_key.bf14d267,"",%progbits
 131 0000 789C7D55 		.ascii	"x\234}U\335O\\E\024\2373s\277?v\357.\020\244\331\304"
 131      DD4F5C45 
 131      149F3373 
 131      BF3F76EF 
 131      2E10A4D9 
 132 0015 BE10D307 		.ascii	"\276\020\323\007\215\215\217$&\276\370\007\370'X51\232"
 132      8D8D8F24 
 132      26BEF807 
 132      F8275835 
 132      319A
 133 0027 34D144E3 		.ascii	"4\321D\343\023\027\356\256\264)&\222\246\264\232\026"
 133      1317EEAE 
 133      B4292692 
 133      A6B49A16 
 134 0037 3446DB5A 		.ascii	"4F\333ZZ\012\024\332\255B/\320/]\204j\243\261\255Q\301"
 134      5A0A14DA 
 134      AD422FD0 
 134      2F5D846A 
 134      A3B1AD51 
 135 004c 4010DB94 		.ascii	"@\020\333\224E\011\245\006\327sf.\260B\352}\230\235"
 135      4509A506 
 135      D773662E 
 135      B042EA7D 
 135      989D
 136 005e F99DF33B 		.ascii	"\371\235\363;\237sf5\006\214\276q\203\261\307\360\367"
 136      9F736635 
 136      068CBE71 
 136      83B1C7F0 
 136      F7
 137 006f 713C422D 		.ascii	"q<B-\003\376\376$c-\026\007A\033\020\020(@\343\372\276"
ARM GAS  C:\Users\info\AppData\Local\Temp\cc0a1lkC.s 			page 10


 137      03FEFE24 
 137      632D1607 
 137      411B1010 
 137      2840E3FA 
 138 0084 2758E8F8 		.ascii	"'X\350\370\264z:XRlp{L jN~\315\0206\025<jY\334\210\256"
 138      B47A3A58 
 138      526C707B 
 138      4C206A4E 
 138      7ECD1036 
 139 009f 21E2D8EF 		.ascii	"!\342\330\357\231\210\333\334\225j\276Rs!+\331\216\372"
 139      9988DBDC 
 139      956ABE52 
 139      73212BD9 
 139      8EFA
 140 00b1 1DB5B2DC 		.ascii	"\035\265\262\334i\227\352^\236\324=\000\302C\313\207"
 140      6997EA5E 
 140      9ED43D00 
 140      C243CB87 
 141 00c1 94524871 		.ascii	"\224RHq-~\026\345\351\033i\224\247UP\243V\3003\022\256"
 141      2D7E16E5 
 141      E91B6994 
 141      A75550A3 
 141      56C03312 
 142 00d6 91708D8A 		.ascii	"\221p\215\212\371\271\214b\001\260f.4\3350-\333u\262"
 142      F9B98C62 
 142      01B0662E 
 142      34DD302D 
 142      DB75B2
 143 00e9 9E9F4A07 		.ascii	"\236\237J\0075\031h6\004S_\300 \326@\223\373\224\332"
 143      35196836 
 143      04535FC0 
 143      20D64093 
 143      FB94DA
 144 00fc 6F00963C 		.ascii	"o\000\226<;R\226M\364\227\371\032\207\322\312\365vg"
 144      3B52964D 
 144      F497F91A 
 144      87D2CAF5 
 144      7667
 145 010e D7F1306C 		.ascii	"\327\3610l\015\177\235\275\351\035>\021C\001\015V8\203"
 145      0D7F9DBD 
 145      E91D3E11 
 145      43010D56 
 145      3883
 146 0120 6772F074 		.ascii	"gr\360t\016\365\3408\354b\250:\323\367\317!\337\310"
 146      0EF5E038 
 146      EC62A83A 
 146      D3F7CF21 
 146      DFC8
 147 0132 87F8ED24 		.ascii	"\207\370\355$\005\224\234\000\003\353\254\241\360\300"
 147      05949C00 
 147      03EBACA1 
 147      F0C0
 148 0140 BD5B1DBA 		.ascii	"\275[\035\272p\201\024O\376t\340#\247\361\023\262\031"
 148      7081144F 
 148      FE74E023 
 148      A7F113B2 
 148      19
ARM GAS  C:\Users\info\AppData\Local\Temp\cc0a1lkC.s 			page 11


 149 0151 0F14E170 		.ascii	"\017\024\341p\030\267\354D\243p\022D\265]\344\177\016"
 149      18B7EC44 
 149      A3701244 
 149      B55DE47F 
 149      0E
 150 0162 8DA8FFDB 		.ascii	"\215\250\377\333\037a\257)\322\222{\344\357\007\247"
 150      1F61AF29 
 150      D2927BE4 
 150      EF07A7
 151 0171 CD843BF8 		.ascii	"\315\204;\370\373&\367\3246n\217\344v\225\272\332<Q"
 151      FB26F7D4 
 151      366E8FE4 
 151      7695BADA 
 151      3C51
 152 0183 23B92BB7 		.ascii	"#\271+\267\247J<\341\236\237\335\344\236\336\306=#\271"
 152      A74A3CE1 
 152      9E9FDDE4 
 152      9EDEC63D 
 152      23B9
 153 0195 572A2B71 		.ascii	"W*+q\372/^\020\000T\212\357\026'\216\271t\344\020\340"
 153      FA2F5E10 
 153      00548AEF 
 153      16278EB9 
 153      74E410E0 
 154 01a9 F1D3D2F8 		.ascii	"\361\323\322\370HJ\324+\313]\367\037z\211\345\341U8"
 154      484AD42B 
 154      CB5DF71F 
 154      7A89E5E1 
 154      5538
 155 01bb 12C6AD68 		.ascii	"\022\306\255hY@\237\262|\026r\320\013\211\355~h\354"
 155      59409FB2 
 155      7C1672D0 
 155      0B89ED7E 
 155      68EC
 156 01cd 7D210E2B 		.ascii	"}!\016+\225(\214\273\237\034;\370<^EJ\224\313\220\205"
 156      95288CBB 
 156      9F1C3BF8 
 156      3C5E454A 
 156      94CB9085 
 157 01e1 54F0E4EA 		.ascii	"T\360\344\352K<\305\012BK\323\022\320\222\241%+C\254"
 157      4B3CC50A 
 157      424BD312 
 157      D092A125 
 157      2B43AC
 158 01f4 C5AD5E27 		.ascii	"\305\255^'i\365\264m\220\333\035\222\233#\200\261El"
 158      69F5B46D 
 158      90DB1D92 
 158      9B2380B1 
 158      456C
 159 0206 4313AE9C 		.ascii	"C\023\256\2345\2112\027\354>\300\014\264R\325\2674\214"
 159      35893217 
 159      EC3EC00C 
 159      B452D5B7 
 159      348C
 160 0218 3CC97E61 		.ascii	"<\311~a\204\003\3305U\371\316\302\330\224I)\343\364"
 160      8403D835 
 160      55F9CEC2 
ARM GAS  C:\Users\info\AppData\Local\Temp\cc0a1lkC.s 			page 12


 160      D8944929 
 160      E3F4
 161 022a C0399941 		.ascii	"\3009\231A\231kl\242V\314A\353R\333\317\263\366V3=d"
 161      996B6CA2 
 161      56CC41EB 
 161      52DBCFB3 
 161      F656333D 
 162 023f 6680CC6C 		.ascii	"f\200\314l\225\234!\311\240t0\004F$R\221\0006\007\321"
 162      959C21C9 
 162      A0743004 
 162      46245291 
 162      003607D1 
 163 0253 87863AA7 		.ascii	"\207\206:\247\021B\316\267\371\263G\005\271\244\353"
 163      1142CEB7 
 163      F9B34705 
 163      B9A4EB
 164 0262 791E5D4A 		.ascii	"y\036]JO\023\272R\012\"\301\211\324\231\2202\222\027"
 164      4F13BA52 
 164      0A22C189 
 164      D4999032 
 164      9217
 165 0274 90D2C874 		.ascii	"\220\322\310tNa\331\352\300\015\331\237b\361\356\035"
 165      4E61D9EA 
 165      C00DD99F 
 165      62F1EE1D 
 166 0284 B3792DDC 		.ascii	"\263y-\334\027\206\001b\373i$\020^\230\370\376\262\323"
 166      17860162 
 166      FB692410 
 166      5E98F8FE 
 166      B2D3
 167 0296 0DC75A42 		.ascii	"\015\307ZB\211\233P\204f\270@i\222pxxZ\354\356\245\340"
 167      899B5084 
 167      66B84069 
 167      92707878 
 167      5AECEEA5 
 168 02ab C34374E9 		.ascii	"\303Ct\351\341\"t\003\272\224]\374\002v3\254d\370&\371"
 168      E1227403 
 168      BA945DFC 
 168      027633AC 
 168      64F826F9 
 169 02bf A4DCD02F 		.ascii	"\244\334\320/\233\207|\\\034\004\025F\3556\277V\205"
 169      9B877C5C 
 169      1C041546 
 169      ED36BF56 
 169      85
 170 02d0 D3ABF325 		.ascii	"\323\253\363%43\324.\010\233MC\376N\324_E\350\275[\\"
 170      3433D42E 
 170      089B4D43 
 170      FE4ED45F 
 170      45E8BD5B 
 171 02e5 F5296E1D 		.ascii	"\365)n\035\013>\234\\\2312\327\331g\216`K\340U\247\206"
 171      0B3E9C5C 
 171      9932D7D9 
 171      678E604B 
 171      E055A786 
 172 02f9 E58311C8 		.ascii	"\345\203\021\310i\355\367R\250b0|\201\004Epsu[s\373"
 172      69EDF752 
ARM GAS  C:\Users\info\AppData\Local\Temp\cc0a1lkC.s 			page 13


 172      A862307C 
 172      81044570 
 172      73755B73 
 173 030e A9F643B2 		.ascii	"\251\366C\262\366\227\310U\375\243b\213\377\023\333"
 173      F697C855 
 173      FDA3628B 
 173      FF13DB
 174 031d ED680912 		.ascii	"\355h\011\022BU0&[\030W\236n\315J\361\366\012;\025\274"
 174      42553026 
 174      5B18579E 
 174      6ECD4AF1 
 174      F60A3B15 
 175 0332 710C46D1 		.ascii	"q\014F\321\032\312\006\333&\372\034\212\330\005\200"
 175      1ACA06DB 
 175      26FA1C8A 
 175      D80580
 176 0341 31C81584 		.ascii	"1\310\025\204'{\370\356\3259[\231\337\021\011Q\255\210"
 176      277BF8EE 
 176      D5395B99 
 176      DF110951 
 176      AD88
 177 0353 1307E3E8 		.ascii	"\023\007\343\350p\0068)P\374\250$\275[\014\037;\272"
 177      70063829 
 177      50FCA824 
 177      BD5B0C1F 
 177      3BBA
 178 0365 C40153B0 		.ascii	"\304\001S\260\240H\247\242\241$R\262\323\371M\307EC"
 178      A048A7A2 
 178      A12452B2 
 178      D3F94DC7 
 178      4543
 179 0377 D9B1E1B2 		.ascii	"\331\261\341\262\012|\011D$\360!G;\346\274\215\206l"
 179      0A7C0944 
 179      24F02147 
 179      3BE6BC8D 
 179      866C
 180 0389 AAA94CF2 		.ascii	"\252\251L\362\322\270\330\344\256-\336X\363\210\353"
 180      D2B8D8E4 
 180      AE2DDE58 
 180      F388EB
 181 0398 E37B7D65 		.ascii	"\343{}e#i\2275\001\375:\354GM\346\376\347\362\377\347"
 181      23699735 
 181      01FD3AEC 
 181      474DE6FE 
 181      E7F2FFE7 
 182 03ac 7E15735F 		.ascii	"~\025s_O\226\210YvP\007\"\226\327\222Hs\217j\302\265"
 182      4F968859 
 182      76500722 
 182      96D79248 
 182      738F6AC2 
 183 03c1 2D17E4E1 		.ascii	"-\027\344\341:\241\252\011\036\016\364\002N\362\312"
 183      3AA1AA09 
 183      1E0EF402 
 183      4EF2CA
 184 03d0 C75C09B3 		.ascii	"\307\\\011\263\012\367Y\007\015'\026\367\207e\227\306"
 184      0AF75907 
 184      0D2716F7 
ARM GAS  C:\Users\info\AppData\Local\Temp\cc0a1lkC.s 			page 14


 184      876597C6 
 185 03e0 2D127538 		.ascii	"-\022u83\325\305\305\177\012\270\236\024\027\025hdQ"
 185      33D5C5C5 
 185      7F0AB89E 
 185      14171568 
 185      6451
 186 03f2 49B253EC 		.ascii	"I\262S\354\227\206\244\266\022\345\252\266o)Cde\377"
 186      9786A4B6 
 186      12E5AAB6 
 186      6F294364 
 186      65FF
 187 0404 D10F4E25 		.ascii	"\321\017N%/\202\200\257\326K\313#\321\220\301\322\326"
 187      2F8280AF 
 187      D64BCB23 
 187      D190C1D2 
 187      D6
 188 0415 F90F5C34 		.ascii	"\371\017\\4\223\306\\U\020\223\203.\275\006\221\360"
 188      93C65C55 
 188      1093832E 
 188      BD0691F0 
 189 0425 71DA37BC 		.ascii	"q\3327\274&\017\014\242\322k\300ZM\241\274J\024\224"
 189      260F0CA2 
 189      D26BC05A 
 189      4DA1BC4A 
 189      1494
 190 0437 D7571413 		.ascii	"\327W\024\0236\335\000\275Ab^Gb\372\202\213\317Z\015"
 190      36DD00BD 
 190      41625E47 
 190      62FA828B 
 190      CF5A0D
 191 044a 3B0750E6 		.ascii	";\007P\346\0316\251\323x4\220<\350)\245P\004\254\011"
 191      1936A9D3 
 191      7834903C 
 191      E829A550 
 191      04AC09
 192 045d DB60BDF6 		.ascii	"\333`\275\366\362;/\276\364\324\036&\336\330\373\266"
 192      F23B2FBE 
 192      F4D41E26 
 192      DED8FBB6 
 193 046d D8B3F775 		.ascii	"\330\263\367u\201\000\274\372/-\352>`"
 193      8100BCFA 
 193      2F2DEA3E 
 193      60
 194              		.text
 195              		.section	.gnu.lto_p2v.bf14d267,"",%progbits
 196 0000 789C4D8F 		.ascii	"x\234M\217\313J\303P\020\206g\222\246V\355\345\005\362"
 196      CB4AC350 
 196      10866792 
 196      A656EDE5 
 196      05F2
 197 0012 12EAA68F 		.ascii	"\022\352\246\217\340cEhE\\\273\022\027\202J\325\332"
 197      E0634568 
 197      455CBB12 
 197      17824AD5 
 197      DA
 198 0023 B46A8D26 		.ascii	"\264j\215&\365R\333\212\324\225\256\264\340J\024D\\"
 198      F552DB8A 
ARM GAS  C:\Users\info\AppData\Local\Temp\cc0a1lkC.s 			page 15


 198      D495AEB4 
 198      E04A1444 
 198      5C
 199 0034 480914A9 		.ascii	"H\011\024\251Q\377\314\011\345\004>N>\37693gR\304\024"
 199      51FFCC09 
 199      E5043E4E 
 199      3EFE3933 
 199      6752C414 
 200 0048 7F8B0625 		.ascii	"\177\213\006%\177D\221\301\3560t\323\241Q6\211\013\272"
 200      7F4491C1 
 200      EE3074D3 
 200      A1513689 
 200      0BBA
 201 005a B2E8E3A0 		.ascii	"\262\350\343\240\344\263Jg\241\321\363\322\257\241\322"
 201      E4B34A67 
 201      A1D1F3D2 
 201      AFA1D2
 202 0069 3CB4FEE9 		.ascii	"<\264\376\351\177\347T\032\267\332\372\360\273\226J"
 202      7FE7541A 
 202      B7DAFAF0 
 202      BB964A
 203 0078 7371F1D7 		.ascii	"sq\361\327}\224U\351\014t\374\2766`\225f\365V$\255&"
 203      7D9455E9 
 203      0C74FCBE 
 203      36609566 
 203      F55624AD 
 204 008d 83580655 		.ascii	"\203X\006U\275\235 \231;\255\267bi\265\336\012\357,"
 204      BD9D2099 
 204      3BADB762 
 204      69B5DE0A 
 204      EF2C
 205 009f 9566F462 		.ascii	"\225f\364b\226\342p\265<2U:\245\277\212\344U\223\224"
 205      96E270B5 
 205      3C32553A 
 205      A5BF8AE4 
 205      559394
 206 00b2 257D1DD7 		.ascii	"%}\035\327\202\274J\323\272\262h\177;\370IV\260te\321"
 206      82BC4AD3 
 206      BAB2687F 
 206      3BF84956 
 206      B07465D1 
 207 00c6 87526323 		.ascii	"\207Rc#\031\224\322\225E'\373\222\354\333\0316*\311"
 207      1994D295 
 207      4527FB92 
 207      ECDB1936 
 207      2AC9
 208 00d8 5D535712 		.ascii	"]SW\022\275\371\033\265\013*5t%\321f\357v9\243\224\241"
 208      BDF91BB5 
 208      0B2A3574 
 208      25D166EF 
 208      7639A394 
 209 00ed 2FFDA737 		.ascii	"/\375\2477\263\3509+\233\216c\225M\203\347l\356\262"
 209      B3E8392B 
 209      9B8E6395 
 209      4D83E76C 
 209      EEB2
 210 00ff CDF33677 		.ascii	"\315\3636wp\\\2036\270\002\227\340\002\234\203\026\010"
ARM GAS  C:\Users\info\AppData\Local\Temp\cc0a1lkC.s 			page 16


 210      705C8336 
 210      B80297E0 
 210      029C8316 
 210      08
 211 0110 800FCEC0 		.ascii	"\200\017\316\300)\360\300\202\315'8\232\340\030\034"
 211      29F0C082 
 211      CD27389A 
 211      E0181C
 212 011f 8143D000 		.ascii	"\201C\320\000u\340\202\0328\000U\260\017\366\300.\250"
 212      75E0821A 
 212      380055B0 
 212      0FF6C02E 
 212      A8
 213 0130 B04DDCE3 		.ascii	"\260M\334\343\"\375\003\304X\307\277"
 213      22FD03C4 
 213      58C7BF
 214              		.text
 215              		.section	.gnu.lto_.symbol_nodes.bf14d267,"",%progbits
 216 0000 789C558A 		.ascii	"x\234U\212;N\002a\024F\317\377R\240\240p\003\310\"\214"
 216      3B4E0261 
 216      1446CFFF 
 216      52A0A070 
 216      03C8228C 
 217 0014 256B6205 		.ascii	"%kb\005w \004\022I\014K \304UP\030_\014\217\001\033"
 217      77200412 
 217      490C4B20 
 217      C4555018 
 217      5F0C8F01 
 218 0029 7B0A3325 		.ascii	"{\0123%\235\035\241\340\377\007)nu\316=\337\365\030"
 218      9D1DA1E0 
 218      FF07296E 
 218      75CE3DDF 
 218      F518
 219 003b 1E0D603F 		.ascii	"\036\015`?\021\230|\2230\317\332\020>\240w\027\247\320"
 219      11987C93 
 219      30CFDA10 
 219      3EA07717 
 219      A7D0
 220 004d 3117BE61 		.ascii	"1\027\276a+\261_\210\321\277\357\270j2k\304V\023d\323"
 220      2BB15F88 
 220      D1BFEFB8 
 220      6A326BC4 
 220      561364D3 
 221 0061 FB183688 		.ascii	"\373\0306\210S\241@\274\012[$\250\260@nT\310\221[\025"
 221      53A140BC 
 221      0A5B24A8 
 221      B0406E54 
 221      C8915B15 
 222 0075 96484D85 		.ascii	"\226HM\205\025RWa\2074\256!\213\301\321\244\034\035"
 222      15525761 
 222      8734AE21 
 222      8BC1D1A4 
 222      1C1D
 223 0087 5A8983E7 		.ascii	"Z\211\203\347C\313\303O<I|\272\360o\034\351\242\364"
 223      43CBC34F 
 223      3C497CBA 
 223      F06F1CE9 
ARM GAS  C:\Users\info\AppData\Local\Temp\cc0a1lkC.s 			page 17


 223      A2F4
 224 0099 F3FCF890 		.ascii	"\363\374\370\220\344wX\316\273\3167y\031\375\313\240"
 224      E47758CE 
 224      BBCE3779 
 224      19FDCBA0 
 225 00a9 38BD8634 		.ascii	"8\275\2064\315\212r\0378\003r\307M\333"
 225      CD8A721F 
 225      380372C7 
 225      4DDB
 226              		.text
 227              		.section	.gnu.lto_.refs.bf14d267,"",%progbits
 228 0000 789C05C1 		.ascii	"x\234\005\301\301\001\200 \020\304\300\\XAP\036~\254"
 228      C1018020 
 228      10C4C05C 
 228      5841501E 
 228      7EAC
 229 0012 C1FE2B74 		.ascii	"\301\376+t&\024\037\020(q\323\036|\243\313\313\333\235"
 229      26141F10 
 229      2871D31E 
 229      7CA3CBCB 
 229      DB9D
 230 0024 6677783A 		.ascii	"fwx:+\034\235\037\026\315\000\351"
 230      2B1C9D1F 
 230      16CD00E9 
 231              		.text
 232              		.section	.gnu.lto_.decls.bf14d267,"",%progbits
 233 0000 789CBD56 		.ascii	"x\234\275VkL\034\327\031\235;\263,\313\202!AV\343\037"
 233      6B4C1CD7 
 233      199D3BB3 
 233      2CCB8221 
 233      4156E31F 
 234 0014 2B85460A 		.ascii	"+\205F\012\241UC\312#Q\224\037QZW\211TU\025J\332T\252"
 234      A15543CA 
 234      2351941F 
 234      515A5789 
 234      5455154A 
 235 002b 565A2DBB 		.ascii	"VZ-\273c\007\005\263tY\354\360o\000;\020\3275D\302\017"
 235      630705B3 
 235      7459ECF0 
 235      6F003B10 
 235      D73544C2 
 236 0040 DCD8AC6D 		.ascii	"\334\330\254mJ\300<\214\215\215\215\003f\355\000\006"
 236      4AC03C8C 
 236      8D8D8D03 
 236      66ED0006 
 237 0050 F330601E 		.ascii	"\3630`\036^\273\346e\236\001\314\313\006C\214\335\357"
 237      5EBBE665 
 237      9E01CCCB 
 237      06438CDD 
 237      EF
 238 0061 3E666727 		.ascii	">fg'fK\177u\264\337\316\334;\347|\347\334\357\336\271"
 238      664B7F75 
 238      B4DFCEDC 
 238      3BE77CE7 
 238      DCEFDEB9 
 239 0075 331A0E71 		.ascii	"3\032\016q\370\370k\020\307\275\"p\3346\236\343\236"
 239      F8F86B10 
ARM GAS  C:\Users\info\AppData\Local\Temp\cc0a1lkC.s 			page 18


 239      C7BD2270 
 239      DC369EE3 
 239      9E
 240 0086 C3E10F7D 		.ascii	"\303\341\017}\237B@\223+\207\250\346\350\021\010Q\007"
 240      9F424093 
 240      2B87A8E6 
 240      E8110851 
 240      07
 241 0097 E1826882 		.ascii	"\341\202h\202h\206\270\011\321\006\321\011\321\015\321"
 241      6886B809 
 241      D106D109 
 241      D10DD1
 242 00a6 03D10771 		.ascii	"\003\321\007q\027B\0031\0141\0051\0131\307\251\017\234"
 242      17420331 
 242      0C310531 
 242      0B31C7A9 
 242      0F9C
 243 00b8 EB65963F 		.ascii	"\353e\226?\016\302\0001\0011\015\261\000\361\030b\010"
 243      0EC20031 
 243      01310DB1 
 243      00F11862 
 243      08
 244 00c9 62196212 		.ascii	"b\031b\022b\034b\205yrC<\201\230\201\250g\371x\226\023"
 244      621C6285 
 244      7972433C 
 244      819881A8 
 244      67F97896 
 245 00de 6B0B3FD1 		.ascii	"k\013?\321\366>\206\331}\254\267\225i\370:\246\030v"
 245      F63E86D9 
 245      7DACB795 
 245      69F83AA6 
 245      1876
 246 00f0 95612759 		.ascii	"\225a'Y\277\206\215\263\207\215\273s\003\356,\343\256"
 246      BF868DB3 
 246      878DBB73 
 246      03EE2CE3 
 246      AE
 247 0101 31EE8C17 		.ascii	"1\356\214\027\027\327\014\327\016\327\260i\003\256\013"
 247      17D70CD7 
 247      0ED7B069 
 247      03AE0B
 248 0110 2298A3B5 		.ascii	"\"\230\243\265\011e|\204\224:\311\265\021\240\257\226"
 248      09657C84 
 248      943AC9B5 
 248      11A0AF96 
 249 0120 53D7259C 		.ascii	"S\327%\234\345\020X\036\271&x\266\177:\007s\334\377"
 249      E510581E 
 249      B92678B6 
 249      7F3A0773 
 249      DCFF
 250 0132 5E8B751E 		.ascii	"^\213u\036\335o.)\025\036\361\350\015=\302+%\004\272"
 250      DD6F2E29 
 250      151EF1E8 
 250      0D3DC22B 
 250      2504BA
 251 0145 CECED4AC 		.ascii	"\316\316\324\254n\241]\0301\270Z\374ad\231\004G\256"
 251      6EA15D18 
ARM GAS  C:\Users\info\AppData\Local\Temp\cc0a1lkC.s 			page 19


 251      31B85AFC 
 251      61649904 
 251      47AE
 252 0157 24F1BC42 		.ascii	"$\361\274B\27598\266\030 \004\022P\327\336\312op\232"
 252      BD3938B6 
 252      18200412 
 252      50D7DECA 
 252      6F709A
 253 016a 503DD240 		.ascii	"P=\322@s\241\375\330\203`hn\325\243\260u\236\257>]\260"
 253      73A1FDD8 
 253      8360686E 
 253      D5A3B075 
 253      9EAF3E5D 
 254 017f E487F411 		.ascii	"\344\207\364\021\331\222\224!\345fJ\241\315\301\034"
 254      D9929421 
 254      E5664AA1 
 254      CDC11C
 255 018e 2A430654 		.ascii	"*C\006T\212\014\034\252@\021X\253\004Er\250\030:\277"
 255      8A0C1CAA 
 255      401158AB 
 255      044572A8 
 255      183ABF
 256 01a1 85CE22AC 		.ascii	"\205\316\"\2547\324{\371\375\032Iz\011\225#=:\203\004"
 256      37D47BF9 
 256      FD1A497A 
 256      0995233D 
 256      3A8304
 257 01b4 028151BF 		.ascii	"\002\201Q\277\241\307\377\320\211\315\356\033-\321\201"
 257      A1C7FFD0 
 257      89CDEE1B 
 257      2DD181
 258 01c3 9201FC23 		.ascii	"\222\001\374#/\363\006j\376\202k\251\\#\304\342k\276"
 258      2FF3066A 
 258      FE826BA9 
 258      5C23C4E2 
 258      6BBE
 259 01d5 ABCADD18 		.ascii	"\253\312\335\030\200\"\3644\367\372\343\337dJ\022BU"
 259      8022F434 
 259      F7FAE3DF 
 259      644A1242 
 259      55
 260 01e6 90FB9C92 		.ascii	"\220\373\234\222\333\200s\023\237\363\247$\3556\016"
 260      DB807313 
 260      9FF3A724 
 260      ED360E
 261 01f5 C518D0AF 		.ascii	"\305\030\320\257\301\344y0i`&+\301\344Y0\011\371K\012"
 261      C1E47930 
 261      6960262B 
 261      C1E45930 
 261      09F94B0A 
 262 0209 8A1BB608 		.ascii	"\212\033\266\010\327\020\021\230\315\233\316\026<\002"
 262      D7101198 
 262      CD9BCE16 
 262      3C02
 263 0217 55070DA5 		.ascii	"U\007\015\245\330|5\010\\P\004@oc\205\213\033(`2\250"
 263      D87C3508 
 263      5C500440 
ARM GAS  C:\Users\info\AppData\Local\Temp\cc0a1lkC.s 			page 20


 263      6F63858B 
 263      1B286032 
 264 022c 5CDE7F74 		.ascii	"\\\336\177t9\344\036r#\036\261'\234,\035\374\217Hp4"
 264      39E41E72 
 264      231EB127 
 264      9C2C1DFC 
 264      8F487034 
 265 0240 48132E78 		.ascii	"H\023.x\362\317y\272<'\316\003a\227J2\362\223\317\317"
 265      F2CF79BA 
 265      3C27CE03 
 265      61974A32 
 265      F293CFCF 
 266 0254 E5832451 		.ascii	"\345\203$Q\262#FB\036\007\354\232\334\347\025\001D\233"
 266      B2234642 
 266      1E07EC9A 
 266      DCE71501 
 266      449B
 267 0266 32C12B1F 		.ascii	"2\301+\037\265\353\345\011\251\307\204\344\345\265/"
 267      B5EBE509 
 267      A9C784E4 
 267      E5B52F
 268 0275 67E0EC16 		.ascii	"g\340\354\026\301\305\223y\034\236\253\313\367\327\300"
 268      C1C59379 
 268      1C9EABCB 
 268      F7D7C0
 269 0284 E223E58C 		.ascii	"\342#\345\214\327\340\276\306\347+\256\020\272\346x"
 269      D7E0BEC6 
 269      E72BAE10 
 269      BAE678
 270 0293 6876CFB7 		.ascii	"hv\317\267\035\017\244k\356%h^\315\350t\373o;\214\247"
 270      1D0FA46B 
 270      EE25685E 
 270      CDE874FB 
 270      6F3B8CA7 
 271 02a7 42CA94C2 		.ascii	"B\312\224\302xB\374\016\352z\005\352\312\241Z\264\015"
 271      7842FC0E 
 271      EA7A05EA 
 271      CAA15AB4 
 271      0D
 272 02b8 FE6B9086 		.ascii	"\376k\220\206\212}\263\274\327\031\362\232S\032\252"
 272      8A7DB3BC 
 272      D719F29A 
 272      531AAA
 273 02c7 94866A0E 		.ascii	"\224\206j\016\277\222\177^\222\366\001Q\203q\350\262"
 273      BF927F5E 
 273      92F60151 
 273      8371E8B2 
 274 02d7 327B7089 		.ascii	"2{p\211O\227\320=p]\207^\003\252;\263\250V/\364R\237"
 274      4F97D03D 
 274      705D875E 
 274      03AA3BB3 
 274      A8562FF4 
 275 02ed 2D59AD3D 		.ascii	"-Y\255=~\276U\353\261*\033\337\341\203\007\016aIg\245"
 275      7EBE55EB 
 275      B12A1BDF 
 275      E183070E 
 275      614967A5 
ARM GAS  C:\Users\info\AppData\Local\Temp\cc0a1lkC.s 			page 21


 276 0301 E43A2132 		.ascii	"\344:!29\000\240\253\212\334Uo9\027\221\273\223\355"
 276      3900A0AB 
 276      8ADC556F 
 276      391791BB 
 276      93ED
 277 0313 9CD00A03 		.ascii	"\234\320\012\003T.\377\353\007\317\002\205)\322\340"
 277      542EFFEB 
 277      07CF0285 
 277      29D2E0
 278 0322 6F3F289D 		.ascii	"o?(\235\322x\226_o%}v\032\300\300\365\315\327\367\367"
 278      D278965F 
 278      6F257D76 
 278      1AC0C0F5 
 278      CDD7F7F7 
 279 0336 1BAFEFE3 		.ascii	"\033\257\357\343\271\247\317\004z\217\247A5\236FR\305"
 279      B9A7CF04 
 279      7A8FA741 
 279      359E4652 
 279      C5
 280 0347 7856C4AC 		.ascii	"xV\304\254\201s9A\270\210 _\337\377+(\342^?\014A\327"
 280      81733941 
 280      B888205F 
 280      DFFF2B28 
 280      E25E3F0C 
 281 035d 14FD6B64 		.ascii	"\024\375kdDp\321DF\223\277Z\376P+\344\010d4\353\223"
 281      4470D144 
 281      4693BF5A 
 281      FE502BE4 
 281      086434EB 
 282 0372 073AF494 		.ascii	"\007:\364\224\357|t7\310\025G\3107\024\362\015\231\334"
 282      EF7C7437 
 282      C81547C8 
 282      3714F20D 
 282      99DC
 283 0384 4CC8AB3D 		.ascii	"L\310\253=\207\236\352\205+\224\\x|\361\320\026F>6 "
 283      879EEA85 
 283      2B945C78 
 283      7CF1D016 
 283      463E3620 
 284 0398 935B1472 		.ascii	"\223[\024r\213L\276I\310\315\203\353\347\374\2041J\036"
 284      8B4CBE49 
 284      C8CD83EB 
 284      E7FC8431 
 284      4A1E
 285 03aa 4E3F7E3D 		.ascii	"N?~=\230\221;\007er\253Bn\225\311m\204,]*\212\023r5"
 285      98913B07 
 285      6572AB42 
 285      6E95C96D 
 285      842C5D2A 
 286 03c2 843B76A4 		.ascii	"\204;v\244`ZK\226f\203giv\344\271\273\221w\331>\375"
 286      605A4B96 
 286      66836769 
 286      76E4B9BB 
 286      9177D93E 
 287 03d7 9957D56E 		.ascii	"\231W\325n\221\252u\310k\317]\235\371KV\265'#\311y\231"
 287      91AA75C8 
 287      6BCF5D9D 
ARM GAS  C:\Users\info\AppData\Local\Temp\cc0a1lkC.s 			page 22


 287      F94B56B5 
 287      2723C979 
 288 03ec CE088C40 		.ascii	"\316\010\214@\355\212z\273\254\336I\324/\366\327\237"
 288      ED8A7ABB 
 288      ACDE49D4 
 288      2FF6D79F 
 289 03fc 0E116AA9 		.ascii	"\016\021j\251\374\245k\347\235\362\270+w\344K\327y\302"
 289      FCA56BE7 
 289      9DF2B82B 
 289      77E44BD7 
 289      79C2
 290 040e EE52D85D 		.ascii	"\356R\330]2\273\233\260\373G\226\232ya\222\262\213\334"
 290      32BB9BB0 
 290      FB47969A 
 290      796192B2 
 290      8BDC
 291 0420 8519FE8C 		.ascii	"\205\031\376\214}g\247\207}[a\337\226\331=\204\235\325"
 291      7D67A787 
 291      7D5B61DF 
 291      96D93D84 
 291      9DD5
 292 0432 713256C8 		.ascii	"q2V\310\363#\344)g]1b\344\334\317=\344^\205\334+\223"
 292      F323E429 
 292      675D3162 
 292      E4DCCF3D 
 292      E45E85DC 
 293 0448 FB08F99F 		.ascii	"\373\010\371\237\223\013\031\274\340\242\354\331\271"
 293      930B19BC 
 293      E0A2ECD9 
 293      B9
 294 0455 8276FA48 		.ascii	"\202v\372H\227{\352\226U\230wJ\357\263nnR\267;r\335"
 294      977BEA96 
 294      5598774A 
 294      EFB36E6E 
 294      52B73B72 
 295 046a 6EF4DE7B 		.ascii	"n\364\336{\312\344\207\316=L>Q\366\245+\216\200P\277"
 295      CAE487CE 
 295      3D4C3E51 
 295      F6A52B8E 
 295      8050BF
 296 047d E2A05F76 		.ascii	"\342\240_vp\2278\310)[u\371\011\223\324\201\274c\204"
 296      709738C8 
 296      295B75F9 
 296      0993D481 
 296      BC6384
 297 0490 D21DA37A 		.ascii	"\322\035\243z\274\245IO7\020\011\277J*\026\037Uh\351"
 297      BCA5494F 
 297      371009BF 
 297      4A2A161F 
 297      5568E9
 298 04a3 6DFC5A1C 		.ascii	"m\374Z\034o^x\032\250\317&/B\362\012\3037\344\227\030"
 298      6F5E781A 
 298      A8CF262F 
 298      42F20AC3 
 298      37E49718 
 299 04b7 8706F1BE 		.ascii	"\207\006\361\276\216\3362\240\001\372\344H\205\373\307"
 299      8EDE32A0 
ARM GAS  C:\Users\info\AppData\Local\Temp\cc0a1lkC.s 			page 23


 299      01FAE448 
 299      85FBC7
 300 04c6 35A1B9EC 		.ascii	"5\241\271\354\275\371\001\";\301}\200\377\233\300\207"
 300      BDF90122 
 300      3BC17D80 
 300      FF9BC087 
 301 04d6 50A84CC2 		.ascii	"P\250L\302\350\223\247\216t\205\274~Z\032\202\341\324"
 301      E893A78E 
 301      7485BC7E 
 301      5A1A82E1 
 301      D4
 302 04e7 F46DCDCF 		.ascii	"\364m\315\317\220$\001c\340\301'C\361b\342\236?\301"
 302      90240163 
 302      E0C12743 
 302      F162E29E 
 302      3FC1
 303 04f9 0E3F8C5E 		.ascii	"\016?\214^\007b\373`\223U\230\241\343\271\276X\371m"
 303      0762FB60 
 303      935598A1 
 303      E3B9BE58 
 303      F96D
 304 050b 10352C40 		.ascii	"\0205,@sn\345\324W:\337\206Ge\303\017\250\341\215\266"
 304      736EE5D4 
 304      573ADF86 
 304      4765C30F 
 304      A8E18DB6 
 305 051f D895A182 		.ascii	"\330\225\241\202,\255\317\371\030'\3631&\317\307h\375"
 305      2CADCFF9 
 305      1827F331 
 305      26CFC768 
 305      FD
 306 0530 FE6C5DD0 		.ascii	"\376l]\320~\345\035\217\001^\202\023(\210m}\003\355"
 306      7EE51D8F 
 306      015E8213 
 306      28886D7D 
 306      03ED
 307 0542 AD8DC14A 		.ascii	"\255\215\301Jm\034\370\226\327\010'ImF\345\332\334\317"
 307      6D1CF896 
 307      D7082749 
 307      6D46E5DA 
 307      DCCF
 308 0554 581AD3D2 		.ascii	"X\032\323\322\332\270\376\376\241\224\2130\000\215\274"
 308      DAB8FEFE 
 308      A1948B30 
 308      008DBC
 309 0563 50981156 		.ascii	"P\230\021V\230)R\230\272\322\003\255A\302\022\255\314"
 309      98295298 
 309      BAD203AD 
 309      41C212AD 
 309      CC
 310 0574 F0D11317 		.ascii	"\360\321\023\027\374T\326\352U\326\246=\326\306\317"
 310      FC54D6EA 
 310      55D6A63D 
 310      D6C6CF
 311 0583 2C8DE8BC 		.ascii	",\215\350\274\255M\253\254\315\250\255}\331z\245-\200"
 311      AD4DABAC 
 311      CDA8AD7D 
ARM GAS  C:\Users\info\AppData\Local\Temp\cc0a1lkC.s 			page 24


 311      D97AA52D 
 311      80
 312 0594 59AB4A4C 		.ascii	"Y\253JL\227\\\032\214@?\274\340\355\007\346m\226x\253"
 312      975C1A8C 
 312      403FBCE0 
 312      ED07E66D 
 312      9678AB
 313 05a7 286B2AD5 		.ascii	"(k*\325\011k\324\333\300\035\247S\303r\324X!\007\"\023"
 313      096BD4DB 
 313      C01DA753 
 313      C372D458 
 313      21072213 
 314 05bb FFF0851C 		.ascii	"\377\360\205\034\017Y\2169:\361\215\267\217\372\013"
 314      0F598E39 
 314      3AF18DB7 
 314      8FFA0B
 315 05ca CF480ECD 		.ascii	"\317H\016\315h\305\205>\001\005\030\020\200QD\026\331"
 315      68C5853E 
 315      01051810 
 315      80514416 
 315      D9
 316 05db DE339C61 		.ascii	"\3363\234a\177\363l\357\217`{_@\001\220e\021 K\220\357"
 316      7FF36CEF 
 316      8F607B5F 
 316      40019065 
 316      11204B90 
 317 05f0 98A4233D 		.ascii	"\230\244#=\307\244l\374\232\300\227E\362G\036\207\233"
 317      C7A46CFC 
 317      9AC09745 
 317      F2471E87 
 317      9B
 318 0601 689E3D3A 		.ascii	"h\236=:\370\351\2016hN\314N^T\3170v\252\224\3611-#>"
 318      F8E98136 
 318      684ECC4E 
 318      5E54CF30 
 318      76AA94F1 
 319 0619 03FAD662 		.ascii	"\003\372\326bz\241\032=\251B/3\3642A\217\2566\274\252"
 319      7AA11A3D 
 319      A9422F33 
 319      F432418F 
 319      AE36BCAA 
 320 062d 02BB5533 		.ascii	"\002\273U3\264\302\300+\004|\240\247\357\244^\205\236"
 320      B4C2C02B 
 320      047CA0A7 
 320      EFA45E85 
 320      9E
 321 063e 51A57EC2 		.ascii	"Q\245~\302\320O\010\372\253\023\337\035\011R\241o\251"
 321      D04F08FA 
 321      AB13DF1D 
 321      0952A16F 
 321      A9
 322 064f 72AF32F4 		.ascii	"r\2572\364*A\377\343r\367\036\025\270Q\005^c\3405\002"
 322      2A41FFE3 
 322      72F71E15 
 322      B851055E 
 322      63E03502 
 323 0663 FED7DA8F 		.ascii	"\376\327\332\217\363\370\2737\034\177>\013^\337\237"
ARM GAS  C:\Users\info\AppData\Local\Temp\cc0a1lkC.s 			page 25


 323      F3F8BB37 
 323      1C7F3E0B 
 323      5EDF9F
 324 0672 E1F4FBB3 		.ascii	"\341\364\373\263\276\265\245(H\330\253%/\350BW\306>"
 324      BEB5A528 
 324      48D8AB25 
 324      2FE84257 
 324      C63E
 325 0684 247F06C3 		.ascii	"$\177\006\303\363\244/\206\317`\371q\202\317\327\010"
 325      F3A42F86 
 325      CF60F971 
 325      82CFD708 
 326 0694 CC226FE0 		.ascii	"\314\"o\340\247\320\371\243\3473x}\366\367\344S\365"
 326      A7D0F9A3 
 326      E733787D 
 326      F6F7E453 
 326      F5
 327 06a5 193C97EB 		.ascii	"\031<\227\353\312\326\026\316\026\341\325\257\357\215"
 327      CAD616CE 
 327      16E1D5AF 
 327      EF8D
 328 06b3 EB851CAA 		.ascii	"\353\205\034\252Q2\337V\026\342S#\203\367\245Qu0\274"
 328      5132DF56 
 328      16E25323 
 328      83F7A551 
 328      7530BC
 329 06c6 0CAF8374 		.ascii	"\014\257\203t\036v?\336\243\361\214\254t\334\013BU\023"
 329      1E763FDE 
 329      A3F18CAC 
 329      74DC0B42 
 329      5513
 330 06d8 373BD455 		.ascii	"7;\324U\257U\225&\223\247\245\301g\335G\177\374s\330"
 330      AF559526 
 330      93A7A5C1 
 330      67DD477F 
 330      FC73D8
 331 06eb F6A8284E 		.ascii	"\366\250(N\233\232\220\344\210\211\376\371Gb\222h7;"
 331      9B9A90E4 
 331      8889FEF9 
 331      47629268 
 331      373B
 332 06fd 44ABE913 		.ascii	"D\253\351\023[\252\335\"\032\343>\261m\177\373-K\232"
 332      5BAADD22 
 332      1AE33EB1 
 332      6D7FFB2D 
 332      4B9A
 333 070f 232D594C 		.ascii	"#-YL\211\374\214\0130\2310\364]\223#\035Y\3363&\333"
 333      89FC8C0B 
 333      309930F4 
 333      5D93231D 
 333      59DE3326 
 334 0724 6D3BEDE6 		.ascii	"m;\355\346]a;\022\022\305\224\260\210/\336}\347\027"
 334      5D613B12 
 334      12C594B0 
 334      882FDE7D 
 334      E717
 335 0736 464B5AB2 		.ascii	"FKZ\262]LI1&\247\330,a\026\273hv\330\354\306\330\310"
ARM GAS  C:\Users\info\AppData\Local\Temp\cc0a1lkC.s 			page 26


 335      5D4C4931 
 335      26A7D82C 
 335      6116BB68 
 335      76D8ECC6 
 336 074c 687547C2 		.ascii	"huG\302\256d\233\335a\334\231\224j4\333w\031\337\216"
 336      AE649BDD 
 336      61DC9994 
 336      6A34DB77 
 336      19DF8E
 337 075f 8C8D8CC2 		.ascii	"\214\215\214\302Wo&\331\222\3047Es|\2021!\311\222\230"
 337      576F26D9 
 337      92C43745 
 337      737C8231 
 337      21C99298 
 338 0773 6A158DBB 		.ascii	"j\025\215\273\314\226\317\022\222D\243\311*\3560\247"
 338      CC96CF12 
 338      9244A3C9 
 338      2AEE30A7 
 339 0783 263A4CB2 		.ascii	"&:L\262\031\177fe\367\377\313IJZ\212\321\224\342\260"
 339      197F6665 
 339      F7FFCB49 
 339      4A5A8AD1 
 339      94E2B0
 340 0796 822CC807 		.ascii	"\202,\310\007~.\246\231\210\202h\325\301u\2745\322\302"
 340      7E2EA699 
 340      888268D5 
 340      C175BC35 
 340      D2C2
 341 07a8 E9F69813 		.ascii	"\351\366\230\023\034&h\351?\266\3551E\231>\026\315V"
 341      1C2668E9 
 341      3FB6ED31 
 341      45993E16 
 341      CD56
 342 07ba 3FE2F355 		.ascii	"?\342\363U\037\305%8HG\010\321\204\360\337\240\3212"
 342      1FC52538 
 342      484708D1 
 342      84F0DFA0 
 342      D132
 343 07cc 34665368 		.ascii	"4fSh"
 344 07d0 8C0C8DDD 		.ascii	"\214\014\215\335\024\032\213\307\263\335\226\010\216"
 344      141A8BC7 
 344      B3DD9608 
 344      8E
 345 07dd FF624F70 		.ascii	"\377bOp\210\276\260\004\"c\2437\307F\313\330\230\315"
 345      88BEB004 
 345      2263A337 
 345      C746CBD8 
 345      98CD
 346 07ef B1313236 		.ascii	"\261126vs,\366\353\277=\355wb\2429\315'.\355\017\011"
 346      76732CF6 
 346      EBBF3DED 
 346      7762A239 
 346      CD272EED 
 347 0805 F1801376 		.ascii	"\361\200\023vG'k-@\332c\327\332a\254v\253\220\034\275"
 347      47276B2D 
 347      40DA63D7 
 347      DA61AC76 
ARM GAS  C:\Users\info\AppData\Local\Temp\cc0a1lkC.s 			page 27


 347      AB901CBD 
 348 0819 DBCFF45B 		.ascii	"\333\317\364[\233-QO\327s\324;&\207N\276\370\017C[\347"
 348      9B2D514F 
 348      D773D43B 
 348      26874EBE 
 348      F80F435B 
 349 082e 0B       		.ascii	"\013"
 350              		.text
 351              		.section	.gnu.lto_.symtab.bf14d267,"",%progbits
 352 0000 6B65795F 		.ascii	"key_pressed\000"
 352      70726573 
 352      73656400 
 353 000c 00       		.ascii	"\000"
 354 000d 00       		.ascii	"\000"
 355 000e 00       		.ascii	"\000"
 356 000f 00000000 		.ascii	"\000\000\000\000\000\000\000\000"
 356      00000000 
 357 0017 BD000000 		.ascii	"\275\000\000\000"
 358 001b 76327000 		.ascii	"v2p\000"
 359 001f 00       		.ascii	"\000"
 360 0020 00       		.ascii	"\000"
 361 0021 00       		.ascii	"\000"
 362 0022 00000000 		.ascii	"\000\000\000\000\000\000\000\000"
 362      00000000 
 363 002a E1000000 		.ascii	"\341\000\000\000"
 364 002e 636F6C5F 		.ascii	"col_wr\000"
 364      777200
 365 0035 00       		.ascii	"\000"
 366 0036 00       		.ascii	"\000"
 367 0037 00       		.ascii	"\000"
 368 0038 00000000 		.ascii	"\000\000\000\000\000\000\000\000"
 368      00000000 
 369 0040 E9000000 		.ascii	"\351\000\000\000"
 370 0044 726F775F 		.ascii	"row_rd\000"
 370      726400
 371 004b 00       		.ascii	"\000"
 372 004c 00       		.ascii	"\000"
 373 004d 00       		.ascii	"\000"
 374 004e 00000000 		.ascii	"\000\000\000\000\000\000\000\000"
 374      00000000 
 375 0056 ED000000 		.ascii	"\355\000\000\000"
 376 005a 77616974 		.ascii	"wait_key\000"
 376      5F6B6579 
 376      00
 377 0063 00       		.ascii	"\000"
 378 0064 00       		.ascii	"\000"
 379 0065 00       		.ascii	"\000"
 380 0066 00000000 		.ascii	"\000\000\000\000\000\000\000\000"
 380      00000000 
 381 006e C0000000 		.ascii	"\300\000\000\000"
 382 0072 70327600 		.ascii	"p2v\000"
 383 0076 00       		.ascii	"\000"
 384 0077 00       		.ascii	"\000"
 385 0078 00       		.ascii	"\000"
 386 0079 00000000 		.ascii	"\000\000\000\000\000\000\000\000"
 386      00000000 
 387 0081 EF000000 		.ascii	"\357\000\000\000"
ARM GAS  C:\Users\info\AppData\Local\Temp\cc0a1lkC.s 			page 28


 388 0085 526F775F 		.ascii	"Row_1_Read\000"
 388      315F5265 
 388      616400
 389 0090 00       		.ascii	"\000"
 390 0091 02       		.ascii	"\002"
 391 0092 00       		.ascii	"\000"
 392 0093 00000000 		.ascii	"\000\000\000\000\000\000\000\000"
 392      00000000 
 393 009b C6000000 		.ascii	"\306\000\000\000"
 394 009f 526F775F 		.ascii	"Row_2_Read\000"
 394      325F5265 
 394      616400
 395 00aa 00       		.ascii	"\000"
 396 00ab 02       		.ascii	"\002"
 397 00ac 00       		.ascii	"\000"
 398 00ad 00000000 		.ascii	"\000\000\000\000\000\000\000\000"
 398      00000000 
 399 00b5 C8000000 		.ascii	"\310\000\000\000"
 400 00b9 526F775F 		.ascii	"Row_3_Read\000"
 400      335F5265 
 400      616400
 401 00c4 00       		.ascii	"\000"
 402 00c5 02       		.ascii	"\002"
 403 00c6 00       		.ascii	"\000"
 404 00c7 00000000 		.ascii	"\000\000\000\000\000\000\000\000"
 404      00000000 
 405 00cf CA000000 		.ascii	"\312\000\000\000"
 406 00d3 526F775F 		.ascii	"Row_4_Read\000"
 406      345F5265 
 406      616400
 407 00de 00       		.ascii	"\000"
 408 00df 02       		.ascii	"\002"
 409 00e0 00       		.ascii	"\000"
 410 00e1 00000000 		.ascii	"\000\000\000\000\000\000\000\000"
 410      00000000 
 411 00e9 CC000000 		.ascii	"\314\000\000\000"
 412 00ed 436F6C5F 		.ascii	"Col_1_Write\000"
 412      315F5772 
 412      69746500 
 413 00f9 00       		.ascii	"\000"
 414 00fa 02       		.ascii	"\002"
 415 00fb 00       		.ascii	"\000"
 416 00fc 00000000 		.ascii	"\000\000\000\000\000\000\000\000"
 416      00000000 
 417 0104 D0000000 		.ascii	"\320\000\000\000"
 418 0108 436F6C5F 		.ascii	"Col_2_Write\000"
 418      325F5772 
 418      69746500 
 419 0114 00       		.ascii	"\000"
 420 0115 02       		.ascii	"\002"
 421 0116 00       		.ascii	"\000"
 422 0117 00000000 		.ascii	"\000\000\000\000\000\000\000\000"
 422      00000000 
 423 011f D2000000 		.ascii	"\322\000\000\000"
 424 0123 436F6C5F 		.ascii	"Col_3_Write\000"
 424      335F5772 
 424      69746500 
ARM GAS  C:\Users\info\AppData\Local\Temp\cc0a1lkC.s 			page 29


 425 012f 00       		.ascii	"\000"
 426 0130 02       		.ascii	"\002"
 427 0131 00       		.ascii	"\000"
 428 0132 00000000 		.ascii	"\000\000\000\000\000\000\000\000"
 428      00000000 
 429 013a D4000000 		.ascii	"\324\000\000\000"
 430 013e 436F6C5F 		.ascii	"Col_4_Write\000"
 430      345F5772 
 430      69746500 
 431 014a 00       		.ascii	"\000"
 432 014b 02       		.ascii	"\002"
 433 014c 00       		.ascii	"\000"
 434 014d 00000000 		.ascii	"\000\000\000\000\000\000\000\000"
 434      00000000 
 435 0155 D6000000 		.ascii	"\326\000\000\000"
 436 0159 43794465 		.ascii	"CyDelay\000"
 436      6C617900 
 437 0161 00       		.ascii	"\000"
 438 0162 02       		.ascii	"\002"
 439 0163 00       		.ascii	"\000"
 440 0164 00000000 		.ascii	"\000\000\000\000\000\000\000\000"
 440      00000000 
 441 016c DA000000 		.ascii	"\332\000\000\000"
 442              		.text
 443              		.section	.gnu.lto_.opts,"",%progbits
 444 0000 272D666D 		.ascii	"'-fmath-errno' '-fsigned-zeros' '-ftrapping-math' '"
 444      6174682D 
 444      6572726E 
 444      6F272027 
 444      2D667369 
 445 0033 2D666E6F 		.ascii	"-fno-trapv' '-fno-openmp' '-fno-openacc' '-mcpu=cor"
 445      2D747261 
 445      70762720 
 445      272D666E 
 445      6F2D6F70 
 446 0066 7465782D 		.ascii	"tex-m3' '-mthumb' '-g' '-Os' '-ffunction-sections' "
 446      6D332720 
 446      272D6D74 
 446      68756D62 
 446      2720272D 
 447 0099 272D6666 		.ascii	"'-ffat-lto-objects' '-flto'\000"
 447      61742D6C 
 447      746F2D6F 
 447      626A6563 
 447      74732720 
 448              		.text
 449              		.cfi_sections	.debug_frame
 450              		.section	.text.key_pressed,"ax",%progbits
 451              		.align	1
 452              		.global	key_pressed
 453              		.thumb
 454              		.thumb_func
 455              		.type	key_pressed, %function
 456              	key_pressed:
 457              	.LFB63:
 458              		.file 1 "keybd.c"
   1:keybd.c       **** #include "project.h"
ARM GAS  C:\Users\info\AppData\Local\Temp\cc0a1lkC.s 			page 30


   2:keybd.c       **** #include "chip8.h"
   3:keybd.c       **** 
   4:keybd.c       **** /* Column Write Functions */
   5:keybd.c       **** void (*col_wr[4])(uint8_t) = 
   6:keybd.c       ****             {&Col_1_Write, &Col_2_Write, &Col_3_Write, &Col_4_Write};
   7:keybd.c       **** 
   8:keybd.c       **** /* Row Read Functions */
   9:keybd.c       **** uint8_t (*row_rd[4])() = 
  10:keybd.c       ****             {&Row_1_Read, &Row_2_Read, &Row_3_Read, &Row_4_Read};
  11:keybd.c       ****             
  12:keybd.c       **** uint8_t p2v[] = {0x1, 0x2, 0x3, 0xc,
  13:keybd.c       ****                  0x4, 0x5, 0x6, 0xd,
  14:keybd.c       ****                  0x7, 0x8, 0x9, 0xe,
  15:keybd.c       ****                  0xa, 0x0, 0xb, 0xf};
  16:keybd.c       **** 
  17:keybd.c       **** uint8_t v2p[] = {0xd, 0x0, 0x1, 0x2,
  18:keybd.c       ****                  0x4, 0x5, 0x6, 0x8,
  19:keybd.c       ****                  0x9, 0xa, 0xc, 0xe,
  20:keybd.c       ****                  0x3, 0x7, 0xb, 0xf};
  21:keybd.c       ****             
  22:keybd.c       **** uint8_t key_pressed(uint8_t vkey){
 459              		.loc 1 22 0
 460              		.cfi_startproc
 461              		@ args = 0, pretend = 0, frame = 0
 462              		@ frame_needed = 0, uses_anonymous_args = 0
 463              	.LVL0:
 464 0000 70B5     		push	{r4, r5, r6, lr}
 465              		.cfi_def_cfa_offset 16
 466              		.cfi_offset 4, -16
 467              		.cfi_offset 5, -12
 468              		.cfi_offset 6, -8
 469              		.cfi_offset 14, -4
  23:keybd.c       ****     /* Determine row and column numbers */
  24:keybd.c       ****     uint8_t key = v2p[vkey];
 470              		.loc 1 24 0
 471 0002 0E4E     		ldr	r6, .L2
 472 0004 345C     		ldrb	r4, [r6, r0]	@ zero_extendqisi2
 473              	.LVL1:
  25:keybd.c       ****     uint8_t row = (key & 0xc) >> 2;
  26:keybd.c       ****     uint8_t col = (key & 0x3);
  27:keybd.c       ****     
  28:keybd.c       ****     uint8_t pressed = 0;
  29:keybd.c       ****     
  30:keybd.c       ****     /* Assert column line and read row line */
  31:keybd.c       ****     (*col_wr[col])(1);
 474              		.loc 1 31 0
 475 0006 0120     		movs	r0, #1
 476              	.LVL2:
 477 0008 04F00305 		and	r5, r4, #3
 478 000c 06EB8505 		add	r5, r6, r5, lsl #2
 479 0010 2B69     		ldr	r3, [r5, #16]
  32:keybd.c       ****     CyDelay(1);
  33:keybd.c       ****     pressed = (*row_rd[row])() ? 1 : 0;
 480              		.loc 1 33 0
 481 0012 04F00C04 		and	r4, r4, #12
 482              	.LVL3:
  31:keybd.c       ****     CyDelay(1);
ARM GAS  C:\Users\info\AppData\Local\Temp\cc0a1lkC.s 			page 31


 483              		.loc 1 31 0
 484 0016 9847     		blx	r3
 485              	.LVL4:
 486              		.loc 1 33 0
 487 0018 3444     		add	r4, r4, r6
  32:keybd.c       ****     CyDelay(1);
 488              		.loc 1 32 0
 489 001a 0120     		movs	r0, #1
 490 001c FFF7FEFF 		bl	CyDelay
 491              	.LVL5:
 492              		.loc 1 33 0
 493 0020 236A     		ldr	r3, [r4, #32]
 494 0022 9847     		blx	r3
 495              	.LVL6:
 496 0024 0446     		mov	r4, r0
 497              	.LVL7:
  34:keybd.c       ****     (*col_wr[col])(0);
 498              		.loc 1 34 0
 499 0026 2B69     		ldr	r3, [r5, #16]
 500 0028 0020     		movs	r0, #0
 501 002a 9847     		blx	r3
 502              	.LVL8:
  35:keybd.c       ****     CyDelay(1);
 503              		.loc 1 35 0
 504 002c 0120     		movs	r0, #1
 505 002e FFF7FEFF 		bl	CyDelay
 506              	.LVL9:
  36:keybd.c       ****     return pressed;
  37:keybd.c       **** }
 507              		.loc 1 37 0
 508 0032 201C     		adds	r0, r4, #0
 509 0034 18BF     		it	ne
 510 0036 0120     		movne	r0, #1
 511 0038 70BD     		pop	{r4, r5, r6, pc}
 512              	.LVL10:
 513              	.L3:
 514 003a 00BF     		.align	2
 515              	.L2:
 516 003c 00000000 		.word	.LANCHOR0
 517              		.cfi_endproc
 518              	.LFE63:
 519              		.size	key_pressed, .-key_pressed
 520              		.section	.text.wait_key,"ax",%progbits
 521              		.align	1
 522              		.global	wait_key
 523              		.thumb
 524              		.thumb_func
 525              		.type	wait_key, %function
 526              	wait_key:
 527              	.LFB64:
  38:keybd.c       **** 
  39:keybd.c       **** uint8_t wait_key(){
 528              		.loc 1 39 0
 529              		.cfi_startproc
 530              		@ args = 0, pretend = 0, frame = 0
 531              		@ frame_needed = 0, uses_anonymous_args = 0
 532 0000 2DE9F843 		push	{r3, r4, r5, r6, r7, r8, r9, lr}
ARM GAS  C:\Users\info\AppData\Local\Temp\cc0a1lkC.s 			page 32


 533              		.cfi_def_cfa_offset 32
 534              		.cfi_offset 3, -32
 535              		.cfi_offset 4, -28
 536              		.cfi_offset 5, -24
 537              		.cfi_offset 6, -20
 538              		.cfi_offset 7, -16
 539              		.cfi_offset 8, -12
 540              		.cfi_offset 9, -8
 541              		.cfi_offset 14, -4
 542              	.LBB2:
 543              	.LBB3:
 544              	.LBB4:
  40:keybd.c       ****     while(1){
  41:keybd.c       ****         for (uint8_t row = 0; row < 4; row++){
  42:keybd.c       ****             for (uint8_t col = 0; col < 4; col++){
  43:keybd.c       ****                 uint8_t key = p2v[row*4 + col];
 545              		.loc 1 43 0
 546 0004 DFF85090 		ldr	r9, .L25
 547              	.L11:
 548              	.LVL11:
 549 0008 0026     		movs	r6, #0
 550              	.LVL12:
 551              	.L5:
 552              	.LBE4:
 553              	.LBE3:
 554              	.LBE2:
  39:keybd.c       ****     while(1){
 555              		.loc 1 39 0
 556 000a 0027     		movs	r7, #0
 557              	.LBB8:
 558              	.LBB7:
 559              	.LBB6:
 560              		.loc 1 43 0
 561 000c 09EB0608 		add	r8, r9, r6
 562              	.LVL13:
 563              	.L10:
 564 0010 18F80750 		ldrb	r5, [r8, r7]	@ zero_extendqisi2
 565              	.LVL14:
  44:keybd.c       ****                 if (key_pressed(key)){
 566              		.loc 1 44 0
 567 0014 2846     		mov	r0, r5
 568 0016 FFF7FEFF 		bl	key_pressed
 569              	.LVL15:
 570 001a 98B1     		cbz	r0, .L6
 571 001c 0A24     		movs	r4, #10
 572              	.L7:
 573              	.LVL16:
 574              	.LBB5:
  45:keybd.c       ****                     /* Debounce keypress */
  46:keybd.c       ****                     uint16_t i;
  47:keybd.c       ****                     /* First ensure it is stable for 10 ms */
  48:keybd.c       ****                     for (i=0; i<10; i++){
  49:keybd.c       ****                         if (!key_pressed(key)){
 575              		.loc 1 49 0
 576 001e 2846     		mov	r0, r5
 577 0020 FFF7FEFF 		bl	key_pressed
 578              	.LVL17:
ARM GAS  C:\Users\info\AppData\Local\Temp\cc0a1lkC.s 			page 33


 579 0024 70B1     		cbz	r0, .L6
 580 0026 013C     		subs	r4, r4, #1
 581              	.LVL18:
  50:keybd.c       ****                             break;
  51:keybd.c       ****                         }
  52:keybd.c       ****                         CyDelay(1);
 582              		.loc 1 52 0 discriminator 2
 583 0028 0120     		movs	r0, #1
 584 002a A4B2     		uxth	r4, r4
 585 002c FFF7FEFF 		bl	CyDelay
 586              	.LVL19:
  48:keybd.c       ****                         if (!key_pressed(key)){
 587              		.loc 1 48 0 discriminator 2
 588 0030 002C     		cmp	r4, #0
 589 0032 F4D1     		bne	.L7
 590              	.L8:
  53:keybd.c       ****                     }
  54:keybd.c       ****                     /* Wait for user to release key */
  55:keybd.c       ****                     if (i == 10){
  56:keybd.c       ****                         while(key_pressed(key)){
 591              		.loc 1 56 0
 592 0034 2846     		mov	r0, r5
 593 0036 FFF7FEFF 		bl	key_pressed
 594              	.LVL20:
 595 003a 50B1     		cbz	r0, .L24
  57:keybd.c       ****                             CyDelay(1);
 596              		.loc 1 57 0
 597 003c 0120     		movs	r0, #1
 598 003e FFF7FEFF 		bl	CyDelay
 599              	.LVL21:
 600 0042 F7E7     		b	.L8
 601              	.L6:
 602              	.LVL22:
 603 0044 0137     		adds	r7, r7, #1
 604              	.LVL23:
 605              	.LBE5:
 606              	.LBE6:
  42:keybd.c       ****                 uint8_t key = p2v[row*4 + col];
 607              		.loc 1 42 0
 608 0046 042F     		cmp	r7, #4
 609 0048 E2D1     		bne	.L10
 610 004a 0436     		adds	r6, r6, #4
 611              	.LBE7:
  41:keybd.c       ****             for (uint8_t col = 0; col < 4; col++){
 612              		.loc 1 41 0 discriminator 2
 613 004c 102E     		cmp	r6, #16
 614 004e DCD1     		bne	.L5
 615 0050 DAE7     		b	.L11
 616              	.LVL24:
 617              	.L24:
 618              	.LBE8:
  58:keybd.c       ****                         }
  59:keybd.c       ****                         return key;
  60:keybd.c       ****                     }
  61:keybd.c       ****                 }
  62:keybd.c       ****             }
  63:keybd.c       ****         }
ARM GAS  C:\Users\info\AppData\Local\Temp\cc0a1lkC.s 			page 34


  64:keybd.c       ****     }
  65:keybd.c       **** }
 619              		.loc 1 65 0
 620 0052 2846     		mov	r0, r5
 621 0054 BDE8F883 		pop	{r3, r4, r5, r6, r7, r8, r9, pc}
 622              	.LVL25:
 623              	.L26:
 624              		.align	2
 625              	.L25:
 626 0058 30000000 		.word	.LANCHOR0+48
 627              		.cfi_endproc
 628              	.LFE64:
 629              		.size	wait_key, .-wait_key
 630              		.global	v2p
 631              		.global	p2v
 632              		.global	row_rd
 633              		.global	col_wr
 634              		.data
 635              		.align	2
 636              		.set	.LANCHOR0,. + 0
 637              		.type	v2p, %object
 638              		.size	v2p, 16
 639              	v2p:
 640 0000 0D       		.byte	13
 641 0001 00       		.byte	0
 642 0002 01       		.byte	1
 643 0003 02       		.byte	2
 644 0004 04       		.byte	4
 645 0005 05       		.byte	5
 646 0006 06       		.byte	6
 647 0007 08       		.byte	8
 648 0008 09       		.byte	9
 649 0009 0A       		.byte	10
 650 000a 0C       		.byte	12
 651 000b 0E       		.byte	14
 652 000c 03       		.byte	3
 653 000d 07       		.byte	7
 654 000e 0B       		.byte	11
 655 000f 0F       		.byte	15
 656              		.type	col_wr, %object
 657              		.size	col_wr, 16
 658              	col_wr:
 659 0010 00000000 		.word	Col_1_Write
 660 0014 00000000 		.word	Col_2_Write
 661 0018 00000000 		.word	Col_3_Write
 662 001c 00000000 		.word	Col_4_Write
 663              		.type	row_rd, %object
 664              		.size	row_rd, 16
 665              	row_rd:
 666 0020 00000000 		.word	Row_1_Read
 667 0024 00000000 		.word	Row_2_Read
 668 0028 00000000 		.word	Row_3_Read
 669 002c 00000000 		.word	Row_4_Read
 670              		.type	p2v, %object
 671              		.size	p2v, 16
 672              	p2v:
 673 0030 01       		.byte	1
ARM GAS  C:\Users\info\AppData\Local\Temp\cc0a1lkC.s 			page 35


 674 0031 02       		.byte	2
 675 0032 03       		.byte	3
 676 0033 0C       		.byte	12
 677 0034 04       		.byte	4
 678 0035 05       		.byte	5
 679 0036 06       		.byte	6
 680 0037 0D       		.byte	13
 681 0038 07       		.byte	7
 682 0039 08       		.byte	8
 683 003a 09       		.byte	9
 684 003b 0E       		.byte	14
 685 003c 0A       		.byte	10
 686 003d 00       		.byte	0
 687 003e 0B       		.byte	11
 688 003f 0F       		.byte	15
 689              		.text
 690              	.Letext0:
 691              		.file 2 "c:\\program files (x86)\\cypress\\psoc creator\\4.2\\psoc creator\\import\\gnu\\arm\\5.4.
 692              		.file 3 "c:\\program files (x86)\\cypress\\psoc creator\\4.2\\psoc creator\\import\\gnu\\arm\\5.4.
 693              		.file 4 "Generated_Source\\PSoC5/core_cm3.h"
 694              		.file 5 "Generated_Source\\PSoC5/CyLib.h"