ARM GAS  C:\Users\info\AppData\Local\Temp\ccrImvS9.s 			page 1


   1              		.syntax unified
   2              		.cpu cortex-m3
   3              		.fpu softvfp
   4              		.eabi_attribute 20, 1
   5              		.eabi_attribute 21, 1
   6              		.eabi_attribute 23, 3
   7              		.eabi_attribute 24, 1
   8              		.eabi_attribute 25, 1
   9              		.eabi_attribute 26, 1
  10              		.eabi_attribute 30, 2
  11              		.eabi_attribute 34, 1
  12              		.eabi_attribute 18, 4
  13              		.thumb
  14              		.syntax unified
  15              		.file	"main.c"
  16              		.text
  17              	.Ltext0:
  18              		.cfi_sections	.debug_frame
  19              		.section	.text._isr_tmr_handler,"ax",%progbits
  20              		.align	2
  21              		.global	_isr_tmr_handler
  22              		.thumb
  23              		.thumb_func
  24              		.type	_isr_tmr_handler, %function
  25              	_isr_tmr_handler:
  26              	.LFB63:
  27              		.file 1 "main.c"
   1:main.c        **** /* ============================================================================
   2:main.c        ****  * CHIP8 Emulator
   3:main.c        ****  * Written By Keshav Gupta, April 2019
   4:main.c        ****  * Technical Reference: http://devernay.free.fr/hacks/chip8/C8TECH10.HTM
   5:main.c        ****  * ============================================================================
   6:main.c        **** */
   7:main.c        **** 
   8:main.c        **** /*
   9:main.c        **** TODO Check last column on vga is always black
  10:main.c        **** 
  11:main.c        **** TODO Space Invaders debug
  12:main.c        **** 
  13:main.c        **** TODO sound
  14:main.c        **** 
  15:main.c        **** Replace SRAM with EEPROM (or other funcitonality to change roms nicely)
  16:main.c        **** 
  17:main.c        **** Implement 1.3" OLED
  18:main.c        **** */
  19:main.c        **** 
  20:main.c        **** #include "project.h"
  21:main.c        **** #include "ram_init_data.h"
  22:main.c        **** #include "chip8.h"
  23:main.c        **** 
  24:main.c        **** /* 
  25:main.c        ****    CHIP8 Timers 
  26:main.c        ****    Decrement each at 60Hz if not zero
  27:main.c        **** */
  28:main.c        **** uint8_t snd = 0, tmr = 0;
  29:main.c        **** 
  30:main.c        **** CY_ISR(_isr_tmr_handler){
ARM GAS  C:\Users\info\AppData\Local\Temp\ccrImvS9.s 			page 2


  28              		.loc 1 30 0
  29              		.cfi_startproc
  30              		@ args = 0, pretend = 0, frame = 0
  31              		@ frame_needed = 0, uses_anonymous_args = 0
  32              		@ link register save eliminated.
  31:main.c        ****     isr_tmr_handler(&snd, &tmr);
  33              		.loc 1 31 0
  34 0000 0149     		ldr	r1, .L2
  35 0002 481C     		adds	r0, r1, #1
  36 0004 FFF7FEBF 		b	isr_tmr_handler
  37              	.LVL0:
  38              	.L3:
  39              		.align	2
  40              	.L2:
  41 0008 00000000 		.word	.LANCHOR0
  42              		.cfi_endproc
  43              	.LFE63:
  44              		.size	_isr_tmr_handler, .-_isr_tmr_handler
  45              		.section	.text._newline_handler,"ax",%progbits
  46              		.align	2
  47              		.global	_newline_handler
  48              		.thumb
  49              		.thumb_func
  50              		.type	_newline_handler, %function
  51              	_newline_handler:
  52              	.LFB64:
  32:main.c        **** };
  33:main.c        **** 
  34:main.c        **** /* 
  35:main.c        ****    CHIP8 Video
  36:main.c        ****    Each row is one 64bit number
  37:main.c        **** */
  38:main.c        **** uint64_t vram[32];
  39:main.c        **** 
  40:main.c        **** /* 
  41:main.c        ****    The following code snippet (concerning VGA) is courtesy of
  42:main.c        ****    the 6.115 Staff. It has been modified to suit this application.
  43:main.c        **** 
  44:main.c        **** */
  45:main.c        **** uint8_t dma_chan, dma_td;
  46:main.c        **** volatile uint8_t vga_update_flag = 1;
  47:main.c        **** 
  48:main.c        **** CY_ISR(_newline_handler){
  53              		.loc 1 48 0
  54              		.cfi_startproc
  55              		@ args = 0, pretend = 0, frame = 0
  56              		@ frame_needed = 0, uses_anonymous_args = 0
  57              		@ link register save eliminated.
  49:main.c        ****     newline_handler(&dma_chan, &dma_td,
  58              		.loc 1 49 0
  59 0000 024B     		ldr	r3, .L5
  60 0002 034A     		ldr	r2, .L5+4
  61 0004 0349     		ldr	r1, .L5+8
  62 0006 0448     		ldr	r0, .L5+12
  63 0008 FFF7FEBF 		b	newline_handler
  64              	.LVL1:
  65              	.L6:
ARM GAS  C:\Users\info\AppData\Local\Temp\ccrImvS9.s 			page 3


  66              		.align	2
  67              	.L5:
  68 000c 00000000 		.word	vram
  69 0010 00000000 		.word	.LANCHOR1
  70 0014 00000000 		.word	dma_td
  71 0018 00000000 		.word	dma_chan
  72              		.cfi_endproc
  73              	.LFE64:
  74              		.size	_newline_handler, .-_newline_handler
  75              		.section	.text.startup.main,"ax",%progbits
  76              		.align	2
  77              		.global	main
  78              		.thumb
  79              		.thumb_func
  80              		.type	main, %function
  81              	main:
  82              	.LFB65:
  50:main.c        ****       &vga_update_flag, vram);
  51:main.c        **** };
  52:main.c        **** 
  53:main.c        **** int main(void){
  83              		.loc 1 53 0
  84              		.cfi_startproc
  85              		@ args = 0, pretend = 0, frame = 4104
  86              		@ frame_needed = 0, uses_anonymous_args = 0
  87 0000 2DE9F04F 		push	{r4, r5, r6, r7, r8, r9, r10, fp, lr}
  88              		.cfi_def_cfa_offset 36
  89              		.cfi_offset 4, -36
  90              		.cfi_offset 5, -32
  91              		.cfi_offset 6, -28
  92              		.cfi_offset 7, -24
  93              		.cfi_offset 8, -20
  94              		.cfi_offset 9, -16
  95              		.cfi_offset 10, -12
  96              		.cfi_offset 11, -8
  97              		.cfi_offset 14, -4
  98 0004 ADF5805D 		sub	sp, sp, #4096
  99              		.cfi_def_cfa_offset 4132
 100 0008 85B0     		sub	sp, sp, #20
 101              		.cfi_def_cfa_offset 4152
  54:main.c        ****     /* Start the interrupts */
  55:main.c        ****     isr_timer_StartEx(_isr_tmr_handler);
 102              		.loc 1 55 0
 103 000a F748     		ldr	r0, .L9
 104 000c FFF7FEFF 		bl	isr_timer_StartEx
 105              	.LVL2:
  56:main.c        ****     NEWLINE_StartEx(_newline_handler);
 106              		.loc 1 56 0
 107 0010 F648     		ldr	r0, .L9+4
 108 0012 FFF7FEFF 		bl	NEWLINE_StartEx
 109              	.LVL3:
  57:main.c        ****     
  58:main.c        ****     /* Initialize the DMA */
  59:main.c        ****     dma_td = CyDmaTdAllocate();
 110              		.loc 1 59 0
 111 0016 FFF7FEFF 		bl	CyDmaTdAllocate
 112              	.LVL4:
ARM GAS  C:\Users\info\AppData\Local\Temp\ccrImvS9.s 			page 4


 113 001a F54C     		ldr	r4, .L9+8
  60:main.c        ****     dma_chan = DMA_DmaInitialize(1, 0, HI16(CYDEV_SRAM_BASE),
 114              		.loc 1 60 0
 115 001c 4FF48043 		mov	r3, #16384
  59:main.c        ****     dma_chan = DMA_DmaInitialize(1, 0, HI16(CYDEV_SRAM_BASE),
 116              		.loc 1 59 0
 117 0020 2070     		strb	r0, [r4]
 118              		.loc 1 60 0
 119 0022 41F6FF72 		movw	r2, #8191
 120 0026 0021     		movs	r1, #0
 121 0028 0120     		movs	r0, #1
 122 002a FFF7FEFF 		bl	DMA_DmaInitialize
 123              	.LVL5:
 124 002e F14D     		ldr	r5, .L9+12
  61:main.c        ****                                  HI16(CYDEV_PERIPH_BASE));
  62:main.c        ****     CyDmaTdSetConfiguration(dma_td, 128, dma_td, 
 125              		.loc 1 62 0
 126 0030 2278     		ldrb	r2, [r4]	@ zero_extendqisi2
 127 0032 0523     		movs	r3, #5
  60:main.c        ****                                  HI16(CYDEV_PERIPH_BASE));
 128              		.loc 1 60 0
 129 0034 2870     		strb	r0, [r5]
 130              		.loc 1 62 0
 131 0036 8021     		movs	r1, #128
 132 0038 1046     		mov	r0, r2
 133 003a FFF7FEFF 		bl	CyDmaTdSetConfiguration
 134              	.LVL6:
  63:main.c        ****                             DMA__TD_TERMOUT_EN | TD_INC_SRC_ADR);
  64:main.c        ****     CyDmaTdSetAddress(dma_td, 0, LO16((uint32) PIXEL_Control_PTR));
 135              		.loc 1 64 0
 136 003e 46F27F42 		movw	r2, #25727
 137 0042 2078     		ldrb	r0, [r4]	@ zero_extendqisi2
 138 0044 0021     		movs	r1, #0
 139 0046 FFF7FEFF 		bl	CyDmaTdSetAddress
 140              	.LVL7:
  65:main.c        ****     CyDmaChSetInitialTd(dma_chan, dma_td);
 141              		.loc 1 65 0
 142 004a 2178     		ldrb	r1, [r4]	@ zero_extendqisi2
 143 004c 2878     		ldrb	r0, [r5]	@ zero_extendqisi2
 144 004e FFF7FEFF 		bl	CyDmaChSetInitialTd
 145              	.LVL8:
  66:main.c        ****     CyDmaChEnable(dma_chan, 1);
 146              		.loc 1 66 0
 147 0052 0121     		movs	r1, #1
 148 0054 2878     		ldrb	r0, [r5]	@ zero_extendqisi2
 149 0056 FFF7FEFF 		bl	CyDmaChEnable
 150              	.LVL9:
  67:main.c        ****     
  68:main.c        ****     /* Start all of the timing counters */
  69:main.c        ****     HORIZ_Start();
 151              		.loc 1 69 0
 152 005a FFF7FEFF 		bl	HORIZ_Start
 153              	.LVL10:
  70:main.c        ****     VERT_Start();
 154              		.loc 1 70 0
 155 005e FFF7FEFF 		bl	VERT_Start
 156              	.LVL11:
ARM GAS  C:\Users\info\AppData\Local\Temp\ccrImvS9.s 			page 5


  71:main.c        ****     HSYNC_Start();
 157              		.loc 1 71 0
 158 0062 FFF7FEFF 		bl	HSYNC_Start
 159              	.LVL12:
  72:main.c        ****     VSYNC_Start();
 160              		.loc 1 72 0
 161 0066 FFF7FEFF 		bl	VSYNC_Start
 162              	.LVL13:
  73:main.c        ****     
  74:main.c        ****     /* Initialize Random Generator */
  75:main.c        ****     random_Enable();
 163              		.loc 1 75 0
 164 006a FFF7FEFF 		bl	random_Enable
 165              	.LVL14:
  76:main.c        ****     random_Init();
 166              		.loc 1 76 0
 167 006e FFF7FEFF 		bl	random_Init
 168              	.LVL15:
  77:main.c        ****     random_Start();
 169              		.loc 1 77 0
 170 0072 FFF7FEFF 		bl	random_Start
 171              	.LVL16:
  78:main.c        ****     
  79:main.c        ****     /* Start the OLED */
  80:main.c        ****     oled_initialize();
 172              		.loc 1 80 0
 173 0076 FFF7FEFF 		bl	oled_initialize
 174              	.LVL17:
  81:main.c        ****     
  82:main.c        ****     /* Enable global interrupts */
  83:main.c        ****     CyGlobalIntEnable;
 175              		.loc 1 83 0
 176              		.syntax unified
 177              	@ 83 "main.c" 1
 178 007a 62B6     		CPSIE   i
 179              	@ 0 "" 2
  84:main.c        ****     
  85:main.c        ****     /* CHIP8 RAM */
  86:main.c        ****     uint8_t ram[4096] = RAM_INITIAL_DATA;
 180              		.loc 1 86 0
 181              		.thumb
 182              		.syntax unified
 183 007c 4FF06005 		mov	r5, #96
 184 0080 04A8     		add	r0, sp, #16
 185 0082 4FF48052 		mov	r2, #4096
 186 0086 0021     		movs	r1, #0
 187 0088 FFF7FEFF 		bl	memset
 188              	.LVL18:
 189 008c FC23     		movs	r3, #252
 190 008e 0293     		str	r3, [sp, #8]
 191 0090 04AB     		add	r3, sp, #16
 192 0092 9D71     		strb	r5, [r3, #6]
 193 0094 4FF07005 		mov	r5, #112
 194 0098 5D72     		strb	r5, [r3, #9]
 195 009a 4FF01005 		mov	r5, #16
 196 009e FE22     		movs	r2, #254
 197 00a0 2027     		movs	r7, #32
ARM GAS  C:\Users\info\AppData\Local\Temp\ccrImvS9.s 			page 6


 198 00a2 4FF09008 		mov	r8, #144
 199 00a6 8021     		movs	r1, #128
 200 00a8 0392     		str	r2, [sp, #12]
 201 00aa F022     		movs	r2, #240
 202 00ac 1A70     		strb	r2, [r3]
 203 00ae 1A71     		strb	r2, [r3, #4]
 204 00b0 9A72     		strb	r2, [r3, #10]
 205 00b2 1A73     		strb	r2, [r3, #12]
 206 00b4 9A73     		strb	r2, [r3, #14]
 207 00b6 DA73     		strb	r2, [r3, #15]
 208 00b8 5A74     		strb	r2, [r3, #17]
 209 00ba DA74     		strb	r2, [r3, #19]
 210 00bc 9A75     		strb	r2, [r3, #22]
 211 00be 5A76     		strb	r2, [r3, #25]
 212 00c0 DA76     		strb	r2, [r3, #27]
 213 00c2 5A77     		strb	r2, [r3, #29]
 214 00c4 9A77     		strb	r2, [r3, #30]
 215 00c6 83F80180 		strb	r8, [r3, #1]
 216 00ca 83F80280 		strb	r8, [r3, #2]
 217 00ce 83F80380 		strb	r8, [r3, #3]
 218 00d2 83F81480 		strb	r8, [r3, #20]
 219 00d6 83F81580 		strb	r8, [r3, #21]
 220 00da 5F71     		strb	r7, [r3, #5]
 221 00dc DF71     		strb	r7, [r3, #7]
 222 00de 1F72     		strb	r7, [r3, #8]
 223 00e0 DD72     		strb	r5, [r3, #11]
 224 00e2 1D74     		strb	r5, [r3, #16]
 225 00e4 9D74     		strb	r5, [r3, #18]
 226 00e6 DD75     		strb	r5, [r3, #23]
 227 00e8 1D76     		strb	r5, [r3, #24]
 228 00ea 1D77     		strb	r5, [r3, #28]
 229 00ec 5973     		strb	r1, [r3, #13]
 230 00ee 9976     		strb	r1, [r3, #26]
 231 00f0 83F82450 		strb	r5, [r3, #36]
 232 00f4 83F83050 		strb	r5, [r3, #48]
 233 00f8 4FF04005 		mov	r5, #64
 234 00fc 83F82650 		strb	r5, [r3, #38]
 235 0100 83F82750 		strb	r5, [r3, #39]
 236 0104 6FF01F05 		mvn	r5, #31
 237 0108 D977     		strb	r1, [r3, #31]
 238 010a 83F82020 		strb	r2, [r3, #32]
 239 010e 83F82180 		strb	r8, [r3, #33]
 240 0112 83F82220 		strb	r2, [r3, #34]
 241 0116 83F82320 		strb	r2, [r3, #35]
 242 011a 83F82570 		strb	r7, [r3, #37]
 243 011e 83F82820 		strb	r2, [r3, #40]
 244 0122 83F82980 		strb	r8, [r3, #41]
 245 0126 83F82A20 		strb	r2, [r3, #42]
 246 012a 83F82B80 		strb	r8, [r3, #43]
 247 012e 83F82C20 		strb	r2, [r3, #44]
 248 0132 83F82D20 		strb	r2, [r3, #45]
 249 0136 83F82E80 		strb	r8, [r3, #46]
 250 013a 83F82F20 		strb	r2, [r3, #47]
 251 013e 83F83120 		strb	r2, [r3, #49]
 252 0142 83F83220 		strb	r2, [r3, #50]
 253 0146 83F83380 		strb	r8, [r3, #51]
 254 014a 83F83420 		strb	r2, [r3, #52]
ARM GAS  C:\Users\info\AppData\Local\Temp\ccrImvS9.s 			page 7


 255 014e 83F83580 		strb	r8, [r3, #53]
 256 0152 83F83680 		strb	r8, [r3, #54]
 257 0156 83F83880 		strb	r8, [r3, #56]
 258 015a 83F83A80 		strb	r8, [r3, #58]
 259 015e 83F83C20 		strb	r2, [r3, #60]
 260 0162 83F83D10 		strb	r1, [r3, #61]
 261 0166 83F83E10 		strb	r1, [r3, #62]
 262 016a 83F83F10 		strb	r1, [r3, #63]
 263 016e 83F84020 		strb	r2, [r3, #64]
 264 0172 83F83750 		strb	r5, [r3, #55]
 265 0176 83F83950 		strb	r5, [r3, #57]
 266 017a 83F83B50 		strb	r5, [r3, #59]
 267 017e 83F84150 		strb	r5, [r3, #65]
 268 0182 83F84550 		strb	r5, [r3, #69]
 269 0186 4FF05005 		mov	r5, #80
 270 018a 83F80352 		strb	r5, [r3, #515]
 271 018e 4FF05605 		mov	r5, #86
 272 0192 83F80A52 		strb	r5, [r3, #522]
 273 0196 4FF02505 		mov	r5, #37
 274 019a 83F80152 		strb	r5, [r3, #513]
 275 019e 4FF05305 		mov	r5, #83
 276 01a2 83F80252 		strb	r5, [r3, #514]
 277 01a6 83F80F52 		strb	r5, [r3, #527]
 278 01aa 4FF04105 		mov	r5, #65
 279 01ae 83F80452 		strb	r5, [r3, #516]
 280 01b2 83F80B52 		strb	r5, [r3, #523]
 281 01b6 4FF04305 		mov	r5, #67
 282 01ba 83F80552 		strb	r5, [r3, #517]
 283 01be 4FF04505 		mov	r5, #69
 284 01c2 83F80652 		strb	r5, [r3, #518]
 285 01c6 83F80D52 		strb	r5, [r3, #525]
 286 01ca 4FF04905 		mov	r5, #73
 287 01ce 83F80852 		strb	r5, [r3, #520]
 288 01d2 4FF04E05 		mov	r5, #78
 289 01d6 83F80952 		strb	r5, [r3, #521]
 290 01da 4FF04405 		mov	r5, #68
 291 01de 83F80C52 		strb	r5, [r3, #524]
 292 01e2 4FF05205 		mov	r5, #82
 293 01e6 1220     		movs	r0, #18
 294 01e8 83F84280 		strb	r8, [r3, #66]
 295 01ec 83F84380 		strb	r8, [r3, #67]
 296 01f0 83F84480 		strb	r8, [r3, #68]
 297 01f4 83F84620 		strb	r2, [r3, #70]
 298 01f8 83F84710 		strb	r1, [r3, #71]
 299 01fc 83F84820 		strb	r2, [r3, #72]
 300 0200 83F84910 		strb	r1, [r3, #73]
 301 0204 83F84A20 		strb	r2, [r3, #74]
 302 0208 83F84B20 		strb	r2, [r3, #75]
 303 020c 83F84C10 		strb	r1, [r3, #76]
 304 0210 83F84D20 		strb	r2, [r3, #77]
 305 0214 83F84E10 		strb	r1, [r3, #78]
 306 0218 83F84F10 		strb	r1, [r3, #79]
 307 021c 83F80772 		strb	r7, [r3, #519]
 308 0220 83F81072 		strb	r7, [r3, #528]
 309 0224 83F80002 		strb	r0, [r3, #512]
 310 0228 83F80E52 		strb	r5, [r3, #526]
 311 022c 4FF03005 		mov	r5, #48
ARM GAS  C:\Users\info\AppData\Local\Temp\ccrImvS9.s 			page 8


 312 0230 83F81152 		strb	r5, [r3, #529]
 313 0234 4FF02E05 		mov	r5, #46
 314 0238 83F81252 		strb	r5, [r3, #530]
 315 023c 4FF03905 		mov	r5, #57
 316 0240 83F81352 		strb	r5, [r3, #531]
 317 0244 4FF03105 		mov	r5, #49
 318 0248 83F81452 		strb	r5, [r3, #532]
 319 024c 4FF04205 		mov	r5, #66
 320 0250 83F81652 		strb	r5, [r3, #534]
 321 0254 4FF07905 		mov	r5, #121
 322 0258 83F81752 		strb	r5, [r3, #535]
 323 025c 4FF04405 		mov	r5, #68
 324 0260 83F81952 		strb	r5, [r3, #537]
 325 0264 4FF06105 		mov	r5, #97
 326 0268 83F81A52 		strb	r5, [r3, #538]
 327 026c 4FF07605 		mov	r5, #118
 328 0270 83F81B52 		strb	r5, [r3, #539]
 329 0274 4FF06405 		mov	r5, #100
 330 0278 83F81D52 		strb	r5, [r3, #541]
 331 027c 4FF05705 		mov	r5, #87
 332 0280 83F81F52 		strb	r5, [r3, #543]
 333 0284 4FF04905 		mov	r5, #73
 334 0288 83F82052 		strb	r5, [r3, #544]
 335 028c 4FF04E05 		mov	r5, #78
 336 0290 83F82152 		strb	r5, [r3, #545]
 337 0294 4FF05405 		mov	r5, #84
 338 0298 83F82252 		strb	r5, [r3, #546]
 339 029c 4FF04505 		mov	r5, #69
 340 02a0 83F82352 		strb	r5, [r3, #547]
 341 02a4 4FF05205 		mov	r5, #82
 342 02a8 83F82452 		strb	r5, [r3, #548]
 343 02ac 4FF06005 		mov	r5, #96
 344 02b0 83F82552 		strb	r5, [r3, #549]
 345 02b4 4FF06105 		mov	r5, #97
 346 02b8 83F82752 		strb	r5, [r3, #551]
 347 02bc 4FF06205 		mov	r5, #98
 348 02c0 83F82952 		strb	r5, [r3, #553]
 349 02c4 6FF05C05 		mvn	r5, #92
 350 02c8 83F82B52 		strb	r5, [r3, #555]
 351 02cc 6FF02205 		mvn	r5, #34
 352 02d0 83F82C52 		strb	r5, [r3, #556]
 353 02d4 6FF02F05 		mvn	r5, #47
 354 02d8 83F82D52 		strb	r5, [r3, #557]
 355 02dc 4FF01805 		mov	r5, #24
 356 02e0 83F82E52 		strb	r5, [r3, #558]
 357 02e4 4FF07105 		mov	r5, #113
 358 02e8 83F82F52 		strb	r5, [r3, #559]
 359 02ec 6FF00D05 		mvn	r5, #13
 360 02f0 83F83152 		strb	r5, [r3, #561]
 361 02f4 4FF01E05 		mov	r5, #30
 362 02f8 83F83252 		strb	r5, [r3, #562]
 363 02fc 4FF03105 		mov	r5, #49
 364 0300 4FF00809 		mov	r9, #8
 365 0304 4FF0690A 		mov	r10, #105
 366 0308 83F81572 		strb	r7, [r3, #533]
 367 030c 83F81872 		strb	r7, [r3, #536]
 368 0310 83F81CA2 		strb	r10, [r3, #540]
ARM GAS  C:\Users\info\AppData\Local\Temp\ccrImvS9.s 			page 9


 369 0314 83F81E72 		strb	r7, [r3, #542]
 370 0318 83F82A92 		strb	r9, [r3, #554]
 371 031c 83F83092 		strb	r9, [r3, #560]
 372 0320 83F83352 		strb	r5, [r3, #563]
 373 0324 4FF04B05 		mov	r5, #75
 374 0328 83F85052 		strb	r5, [r3, #592]
 375 032c 4FF02D05 		mov	r5, #45
 376 0330 83F83652 		strb	r5, [r3, #566]
 377 0334 4FF07005 		mov	r5, #112
 378 0338 83F83752 		strb	r5, [r3, #567]
 379 033c 4FF06105 		mov	r5, #97
 380 0340 83F83952 		strb	r5, [r3, #569]
 381 0344 4FF03005 		mov	r5, #48
 382 0348 83F83B52 		strb	r5, [r3, #571]
 383 034c 4FF04005 		mov	r5, #64
 384 0350 83F83C52 		strb	r5, [r3, #572]
 385 0354 4FF02D05 		mov	r5, #45
 386 0358 83F83E52 		strb	r5, [r3, #574]
 387 035c 4FF00505 		mov	r5, #5
 388 0360 83F84052 		strb	r5, [r3, #576]
 389 0364 4FF06C05 		mov	r5, #108
 390 0368 83F84152 		strb	r5, [r3, #577]
 391 036c 4FF01505 		mov	r5, #21
 392 0370 83F84252 		strb	r5, [r3, #578]
 393 0374 4FF06E05 		mov	r5, #110
 394 0378 83F84352 		strb	r5, [r3, #579]
 395 037c 6FF06E05 		mvn	r5, #110
 396 0380 83F84652 		strb	r5, [r3, #582]
 397 0384 4FF06005 		mov	r5, #96
 398 0388 83F84752 		strb	r5, [r3, #583]
 399 038c 4FF00A05 		mov	r5, #10
 400 0390 83F84852 		strb	r5, [r3, #584]
 401 0394 4FF01505 		mov	r5, #21
 402 0398 83F84A52 		strb	r5, [r3, #586]
 403 039c 4FF00705 		mov	r5, #7
 404 03a0 83F84C52 		strb	r5, [r3, #588]
 405 03a4 4FF03005 		mov	r5, #48
 406 03a8 83F84D52 		strb	r5, [r3, #589]
 407 03ac 6FF06E05 		mvn	r5, #110
 408 03b0 83F85252 		strb	r5, [r3, #594]
 409 03b4 4FF07E05 		mov	r5, #126
 410 03b8 83F85352 		strb	r5, [r3, #595]
 411 03bc 4FF04505 		mov	r5, #69
 412 03c0 83F85652 		strb	r5, [r3, #598]
 413 03c4 4FF06605 		mov	r5, #102
 414 03c8 2324     		movs	r4, #35
 415 03ca 4FF0010B 		mov	fp, #1
 416 03ce 83F83472 		strb	r7, [r3, #564]
 417 03d2 83F83502 		strb	r0, [r3, #565]
 418 03d6 83F83892 		strb	r9, [r3, #568]
 419 03da 83F83D02 		strb	r0, [r3, #573]
 420 03de 83F83FA2 		strb	r10, [r3, #575]
 421 03e2 83F84542 		strb	r4, [r3, #581]
 422 03e6 07E0     		b	.L10
 423              	.L11:
 424              		.align	2
 425              	.L9:
ARM GAS  C:\Users\info\AppData\Local\Temp\ccrImvS9.s 			page 10


 426 03e8 00000000 		.word	_isr_tmr_handler
 427 03ec 00000000 		.word	_newline_handler
 428 03f0 00000000 		.word	dma_td
 429 03f4 00000000 		.word	dma_chan
 430              	.L10:
 431 03f8 83F84922 		strb	r2, [r3, #585]
 432 03fc 83F84B22 		strb	r2, [r3, #587]
 433 0400 83F84F02 		strb	r0, [r3, #591]
 434 0404 83F85142 		strb	r4, [r3, #593]
 435 0408 83F854B2 		strb	fp, [r3, #596]
 436 040c 83F85502 		strb	r0, [r3, #597]
 437 0410 83F85752 		strb	r5, [r3, #599]
 438 0414 4FF06805 		mov	r5, #104
 439 0418 83F85952 		strb	r5, [r3, #601]
 440 041c 4FF01C05 		mov	r5, #28
 441 0420 83F85A52 		strb	r5, [r3, #602]
 442 0424 4FF06A05 		mov	r5, #106
 443 0428 83F85D52 		strb	r5, [r3, #605]
 444 042c 4FF00405 		mov	r5, #4
 445 0430 83F85E52 		strb	r5, [r3, #606]
 446 0434 4FF06B05 		mov	r5, #107
 447 0438 83F85F52 		strb	r5, [r3, #607]
 448 043c 4FF00A05 		mov	r5, #10
 449 0440 83F86052 		strb	r5, [r3, #608]
 450 0444 4FF06C05 		mov	r5, #108
 451 0448 83F86152 		strb	r5, [r3, #609]
 452 044c 4FF00405 		mov	r5, #4
 453 0450 83F86252 		strb	r5, [r3, #610]
 454 0454 4FF06D05 		mov	r5, #109
 455 0458 83F86352 		strb	r5, [r3, #611]
 456 045c 4FF03C05 		mov	r5, #60
 457 0460 83F86452 		strb	r5, [r3, #612]
 458 0464 4FF06E05 		mov	r5, #110
 459 0468 83F86552 		strb	r5, [r3, #613]
 460 046c 4FF00F05 		mov	r5, #15
 461 0470 83F86652 		strb	r5, [r3, #614]
 462 0474 6FF01F05 		mvn	r5, #31
 463 0478 83F86852 		strb	r5, [r3, #616]
 464 047c 6FF00205 		mvn	r5, #2
 465 0480 83F86D52 		strb	r5, [r3, #621]
 466 0484 4FF01505 		mov	r5, #21
 467 0488 83F86E52 		strb	r5, [r3, #622]
 468 048c 4FF06005 		mov	r5, #96
 469 0490 83F86F52 		strb	r5, [r3, #623]
 470 0494 4FF00405 		mov	r5, #4
 471 0498 83F87052 		strb	r5, [r3, #624]
 472 049c 6FF01F05 		mvn	r5, #31
 473 04a0 83F87152 		strb	r5, [r3, #625]
 474 04a4 6FF06105 		mvn	r5, #97
 475 04a8 83F87252 		strb	r5, [r3, #626]
 476 04ac 4FF07D05 		mov	r5, #125
 477 04b0 83F87452 		strb	r5, [r3, #628]
 478 04b4 4FF03805 		mov	r5, #56
 479 04b8 83F87752 		strb	r5, [r3, #631]
 480 04bc 4FF07805 		mov	r5, #120
 481 04c0 83F87952 		strb	r5, [r3, #633]
 482 04c4 4FF0FF35 		mov	r5, #-1
ARM GAS  C:\Users\info\AppData\Local\Temp\ccrImvS9.s 			page 11


 483 04c8 83F87A52 		strb	r5, [r3, #634]
 484 04cc 4FF06005 		mov	r5, #96
 485 04d0 4FF0510E 		mov	lr, #81
 486 04d4 4FF0750C 		mov	ip, #117
 487 04d8 83F85BA2 		strb	r10, [r3, #603]
 488 04dc 83F86942 		strb	r4, [r3, #617]
 489 04e0 83F86AC2 		strb	ip, [r3, #618]
 490 04e4 83F86B42 		strb	r4, [r3, #619]
 491 04e8 83F86CE2 		strb	lr, [r3, #620]
 492 04ec 83F87302 		strb	r0, [r3, #627]
 493 04f0 83F87542 		strb	r4, [r3, #629]
 494 04f4 83F876C2 		strb	ip, [r3, #630]
 495 04f8 83F87B42 		strb	r4, [r3, #635]
 496 04fc 83F87CC2 		strb	ip, [r3, #636]
 497 0500 83F87D52 		strb	r5, [r3, #637]
 498 0504 4FF03905 		mov	r5, #57
 499 0508 83F88652 		strb	r5, [r3, #646]
 500 050c 6FF01F05 		mvn	r5, #31
 501 0510 83F87F52 		strb	r5, [r3, #639]
 502 0514 6FF06105 		mvn	r5, #97
 503 0518 83F88052 		strb	r5, [r3, #640]
 504 051c 6FF07405 		mvn	r5, #116
 505 0520 83F88252 		strb	r5, [r3, #642]
 506 0524 4FF03805 		mov	r5, #56
 507 0528 83F88552 		strb	r5, [r3, #645]
 508 052c 4FF07805 		mov	r5, #120
 509 0530 83F88752 		strb	r5, [r3, #647]
 510 0534 4FF03605 		mov	r5, #54
 511 0538 83F88B52 		strb	r5, [r3, #651]
 512 053c 6FF06005 		mvn	r5, #96
 513 0540 83F88E52 		strb	r5, [r3, #654]
 514 0544 4FF06005 		mov	r5, #96
 515 0548 83F88F52 		strb	r5, [r3, #655]
 516 054c 4FF00505 		mov	r5, #5
 517 0550 83F89052 		strb	r5, [r3, #656]
 518 0554 6FF01F05 		mvn	r5, #31
 519 0558 83F89152 		strb	r5, [r3, #657]
 520 055c 6FF06105 		mvn	r5, #97
 521 0560 83F89252 		strb	r5, [r3, #658]
 522 0564 6FF01605 		mvn	r5, #22
 523 0568 83F89452 		strb	r5, [r3, #660]
 524 056c 4FF06605 		mov	r5, #102
 525 0570 83F89552 		strb	r5, [r3, #661]
 526 0574 4FF06505 		mov	r5, #101
 527 0578 83F89752 		strb	r5, [r3, #663]
 528 057c 4FF01B05 		mov	r5, #27
 529 0580 83F89852 		strb	r5, [r3, #664]
 530 0584 6FF07B05 		mvn	r5, #123
 531 0588 83F89952 		strb	r5, [r3, #665]
 532 058c 6FF05C05 		mvn	r5, #92
 533 0590 83F89B52 		strb	r5, [r3, #667]
 534 0594 6FF02605 		mvn	r5, #38
 535 0598 83F89C52 		strb	r5, [r3, #668]
 536 059c 6FF02B05 		mvn	r5, #43
 537 05a0 83F89D52 		strb	r5, [r3, #669]
 538 05a4 6FF05C05 		mvn	r5, #92
 539 05a8 0626     		movs	r6, #6
ARM GAS  C:\Users\info\AppData\Local\Temp\ccrImvS9.s 			page 12


 540 05aa 83F87E62 		strb	r6, [r3, #638]
 541 05ae 83F88102 		strb	r0, [r3, #641]
 542 05b2 83F88342 		strb	r4, [r3, #643]
 543 05b6 83F884C2 		strb	ip, [r3, #644]
 544 05ba 83F888B2 		strb	fp, [r3, #648]
 545 05be 83F88942 		strb	r4, [r3, #649]
 546 05c2 83F88AC2 		strb	ip, [r3, #650]
 547 05c6 83F88D02 		strb	r0, [r3, #653]
 548 05ca 83F89302 		strb	r0, [r3, #659]
 549 05ce 83F896B2 		strb	fp, [r3, #662]
 550 05d2 83F89A12 		strb	r1, [r3, #666]
 551 05d6 83F89EE2 		strb	lr, [r3, #670]
 552 05da 83F89F52 		strb	r5, [r3, #671]
 553 05de 6FF02605 		mvn	r5, #38
 554 05e2 83F8A052 		strb	r5, [r3, #672]
 555 05e6 4FF03505 		mov	r5, #53
 556 05ea 83F8A552 		strb	r5, [r3, #677]
 557 05ee 6FF02B05 		mvn	r5, #43
 558 05f2 83F8A152 		strb	r5, [r3, #673]
 559 05f6 4FF0FF35 		mov	r5, #-1
 560 05fa 83F8A452 		strb	r5, [r3, #676]
 561 05fe 83F8A652 		strb	r5, [r3, #678]
 562 0602 6FF05205 		mvn	r5, #82
 563 0606 83F8A852 		strb	r5, [r3, #680]
 564 060a 4FF06605 		mov	r5, #102
 565 060e 83F8A952 		strb	r5, [r3, #681]
 566 0612 6FF01605 		mvn	r5, #22
 567 0616 83F8AC52 		strb	r5, [r3, #684]
 568 061a 6FF02B05 		mvn	r5, #43
 569 061e 83F8AD52 		strb	r5, [r3, #685]
 570 0622 4FF03F05 		mov	r5, #63
 571 0626 83F8AF52 		strb	r5, [r3, #687]
 572 062a 6FF01605 		mvn	r5, #22
 573 062e 83F8B252 		strb	r5, [r3, #690]
 574 0632 6FF02B05 		mvn	r5, #43
 575 0636 83F8B352 		strb	r5, [r3, #691]
 576 063a 4FF06605 		mov	r5, #102
 577 063e 83F8B552 		strb	r5, [r3, #693]
 578 0642 6FF07C05 		mvn	r5, #124
 579 0646 83F8B752 		strb	r5, [r3, #695]
 580 064a 4FF04005 		mov	r5, #64
 581 064e 83F8B852 		strb	r5, [r3, #696]
 582 0652 4FF07305 		mov	r5, #115
 583 0656 83F8B952 		strb	r5, [r3, #697]
 584 065a 4FF00305 		mov	r5, #3
 585 065e 83F8BA52 		strb	r5, [r3, #698]
 586 0662 6FF07C05 		mvn	r5, #124
 587 0666 83F8BB52 		strb	r5, [r3, #699]
 588 066a 6FF04A05 		mvn	r5, #74
 589 066e 83F8BC52 		strb	r5, [r3, #700]
 590 0672 4FF06205 		mov	r5, #98
 591 0676 83F8BD52 		strb	r5, [r3, #701]
 592 067a 6FF00705 		mvn	r5, #7
 593 067e 83F8BE52 		strb	r5, [r3, #702]
 594 0682 6FF07C05 		mvn	r5, #124
 595 0686 83F8BF52 		strb	r5, [r3, #703]
 596 068a 4FF02205 		mov	r5, #34
ARM GAS  C:\Users\info\AppData\Local\Temp\ccrImvS9.s 			page 13


 597 068e 83F8C052 		strb	r5, [r3, #704]
 598 0692 4FF06205 		mov	r5, #98
 599 0696 83F8A2E2 		strb	lr, [r3, #674]
 600 069a 83F8A3C2 		strb	ip, [r3, #675]
 601 069e 83F8A702 		strb	r0, [r3, #679]
 602 06a2 83F8AB02 		strb	r0, [r3, #683]
 603 06a6 83F8AEE2 		strb	lr, [r3, #686]
 604 06aa 83F8B0B2 		strb	fp, [r3, #688]
 605 06ae 83F8B102 		strb	r0, [r3, #689]
 606 06b2 83F8B4E2 		strb	lr, [r3, #692]
 607 06b6 83F8C152 		strb	r5, [r3, #705]
 608 06ba 4FF03305 		mov	r5, #51
 609 06be 83F8C352 		strb	r5, [r3, #707]
 610 06c2 6FF03605 		mvn	r5, #54
 611 06c6 83F8C652 		strb	r5, [r3, #710]
 612 06ca 4FF07D05 		mov	r5, #125
 613 06ce 83F8C852 		strb	r5, [r3, #712]
 614 06d2 6FF07D05 		mvn	r5, #125
 615 06d6 83F8C952 		strb	r5, [r3, #713]
 616 06da 4FF04305 		mov	r5, #67
 617 06de 83F8CB52 		strb	r5, [r3, #715]
 618 06e2 6FF02C05 		mvn	r5, #44
 619 06e6 83F8CE52 		strb	r5, [r3, #718]
 620 06ea 4FF03305 		mov	r5, #51
 621 06ee 83F8CF52 		strb	r5, [r3, #719]
 622 06f2 4FF01005 		mov	r5, #16
 623 06f6 83F8D052 		strb	r5, [r3, #720]
 624 06fa 6FF02A05 		mvn	r5, #42
 625 06fe 83F8D252 		strb	r5, [r3, #722]
 626 0702 4FF07D05 		mov	r5, #125
 627 0706 83F8D452 		strb	r5, [r3, #724]
 628 070a 6FF07D05 		mvn	r5, #125
 629 070e 83F8D552 		strb	r5, [r3, #725]
 630 0712 4FF03305 		mov	r5, #51
 631 0716 83F8D752 		strb	r5, [r3, #727]
 632 071a 4FF01805 		mov	r5, #24
 633 071e 83F8D852 		strb	r5, [r3, #728]
 634 0722 6FF02205 		mvn	r5, #34
 635 0726 83F8DA52 		strb	r5, [r3, #730]
 636 072a 4FF07D05 		mov	r5, #125
 637 072e 83F8DC52 		strb	r5, [r3, #732]
 638 0732 6FF07D05 		mvn	r5, #125
 639 0736 83F8DD52 		strb	r5, [r3, #733]
 640 073a 4FF04305 		mov	r5, #67
 641 073e 83F8DF52 		strb	r5, [r3, #735]
 642 0742 6FF01805 		mvn	r5, #24
 643 0746 83F8E252 		strb	r5, [r3, #738]
 644 074a 4FF03305 		mov	r5, #51
 645 074e 83F8C292 		strb	r9, [r3, #706]
 646 0752 83F8C502 		strb	r0, [r3, #709]
 647 0756 83F8C742 		strb	r4, [r3, #711]
 648 075a 83F8CA62 		strb	r6, [r3, #714]
 649 075e 83F8CC92 		strb	r9, [r3, #716]
 650 0762 83F8CD02 		strb	r0, [r3, #717]
 651 0766 83F8D102 		strb	r0, [r3, #721]
 652 076a 83F8D342 		strb	r4, [r3, #723]
 653 076e 83F8D662 		strb	r6, [r3, #726]
ARM GAS  C:\Users\info\AppData\Local\Temp\ccrImvS9.s 			page 14


 654 0772 83F8D902 		strb	r0, [r3, #729]
 655 0776 83F8DB42 		strb	r4, [r3, #731]
 656 077a 83F8DE62 		strb	r6, [r3, #734]
 657 077e 83F8E072 		strb	r7, [r3, #736]
 658 0782 83F8E102 		strb	r0, [r3, #737]
 659 0786 83F8E352 		strb	r5, [r3, #739]
 660 078a 4FF02805 		mov	r5, #40
 661 078e 83F8E452 		strb	r5, [r3, #740]
 662 0792 4FF03E05 		mov	r5, #62
 663 0796 83F8E952 		strb	r5, [r3, #745]
 664 079a 6FF01605 		mvn	r5, #22
 665 079e 83F8E652 		strb	r5, [r3, #742]
 666 07a2 4FF07D05 		mov	r5, #125
 667 07a6 83F8E852 		strb	r5, [r3, #744]
 668 07aa 4FF01305 		mov	r5, #19
 669 07ae 83F8EB52 		strb	r5, [r3, #747]
 670 07b2 4FF00705 		mov	r5, #7
 671 07b6 83F8EC52 		strb	r5, [r3, #748]
 672 07ba 4FF07905 		mov	r5, #121
 673 07be 83F8ED52 		strb	r5, [r3, #749]
 674 07c2 4FF04905 		mov	r5, #73
 675 07c6 83F8EF52 		strb	r5, [r3, #751]
 676 07ca 4FF01805 		mov	r5, #24
 677 07ce 83F8F052 		strb	r5, [r3, #752]
 678 07d2 4FF06A05 		mov	r5, #106
 679 07d6 83F8F352 		strb	r5, [r3, #755]
 680 07da 4FF00405 		mov	r5, #4
 681 07de 83F8F452 		strb	r5, [r3, #756]
 682 07e2 4FF06B05 		mov	r5, #107
 683 07e6 83F8F552 		strb	r5, [r3, #757]
 684 07ea 4FF00A05 		mov	r5, #10
 685 07ee 83F8F652 		strb	r5, [r3, #758]
 686 07f2 4FF06C05 		mov	r5, #108
 687 07f6 83F8F752 		strb	r5, [r3, #759]
 688 07fa 4FF00405 		mov	r5, #4
 689 07fe 83F8F852 		strb	r5, [r3, #760]
 690 0802 4FF07D05 		mov	r5, #125
 691 0806 83F8F952 		strb	r5, [r3, #761]
 692 080a 6FF00B05 		mvn	r5, #11
 693 080e 83F8FA52 		strb	r5, [r3, #762]
 694 0812 4FF06E05 		mov	r5, #110
 695 0816 83F8FB52 		strb	r5, [r3, #763]
 696 081a 4FF00F05 		mov	r5, #15
 697 081e 83F8FC52 		strb	r5, [r3, #764]
 698 0822 6FF01F05 		mvn	r5, #31
 699 0826 83F8FE52 		strb	r5, [r3, #766]
 700 082a 6FF00205 		mvn	r5, #2
 701 082e 83F80353 		strb	r5, [r3, #771]
 702 0832 4FF01505 		mov	r5, #21
 703 0836 83F80453 		strb	r5, [r3, #772]
 704 083a 4FF06F05 		mov	r5, #111
 705 083e 83F80653 		strb	r5, [r3, #774]
 706 0842 6FF00805 		mvn	r5, #8
 707 0846 83F8E502 		strb	r0, [r3, #741]
 708 084a 83F8E742 		strb	r4, [r3, #743]
 709 084e 83F8EE62 		strb	r6, [r3, #750]
 710 0852 83F8F1A2 		strb	r10, [r3, #753]
ARM GAS  C:\Users\info\AppData\Local\Temp\ccrImvS9.s 			page 15


 711 0856 83F8FF42 		strb	r4, [r3, #767]
 712 085a 83F800E3 		strb	lr, [r3, #768]
 713 085e 83F80143 		strb	r4, [r3, #769]
 714 0862 83F802C3 		strb	ip, [r3, #770]
 715 0866 83F80503 		strb	r0, [r3, #773]
 716 086a 83F80753 		strb	r5, [r3, #775]
 717 086e 4FF00705 		mov	r5, #7
 718 0872 83F80853 		strb	r5, [r3, #776]
 719 0876 4FF03705 		mov	r5, #55
 720 087a 83F80953 		strb	r5, [r3, #777]
 721 087e 4FF06F05 		mov	r5, #111
 722 0882 83F80C53 		strb	r5, [r3, #780]
 723 0886 6FF00205 		mvn	r5, #2
 724 088a 83F80D53 		strb	r5, [r3, #781]
 725 088e 4FF01505 		mov	r5, #21
 726 0892 83F80E53 		strb	r5, [r3, #782]
 727 0896 6FF07405 		mvn	r5, #116
 728 089a 83F81153 		strb	r5, [r3, #785]
 729 089e 6FF05B05 		mvn	r5, #91
 730 08a2 83F81253 		strb	r5, [r3, #786]
 731 08a6 4FF03B05 		mov	r5, #59
 732 08aa 83F81353 		strb	r5, [r3, #787]
 733 08ae 4FF01305 		mov	r5, #19
 734 08b2 83F81553 		strb	r5, [r3, #789]
 735 08b6 4FF01B05 		mov	r5, #27
 736 08ba 83F81653 		strb	r5, [r3, #790]
 737 08be 4FF07C05 		mov	r5, #124
 738 08c2 83F81753 		strb	r5, [r3, #791]
 739 08c6 4FF00205 		mov	r5, #2
 740 08ca 83F81853 		strb	r5, [r3, #792]
 741 08ce 4FF06A05 		mov	r5, #106
 742 08d2 83F81953 		strb	r5, [r3, #793]
 743 08d6 9DF80850 		ldrb	r5, [sp, #8]	@ zero_extendqisi2
 744 08da 83F80B03 		strb	r0, [r3, #779]
 745 08de 83F81A53 		strb	r5, [r3, #794]
 746 08e2 4FF03B05 		mov	r5, #59
 747 08e6 83F81B53 		strb	r5, [r3, #795]
 748 08ea 4FF00205 		mov	r5, #2
 749 08ee 83F81C53 		strb	r5, [r3, #796]
 750 08f2 4FF01305 		mov	r5, #19
 751 08f6 83F81D53 		strb	r5, [r3, #797]
 752 08fa 4FF07C05 		mov	r5, #124
 753 08fe 83F81F53 		strb	r5, [r3, #799]
 754 0902 4FF00205 		mov	r5, #2
 755 0906 83F82053 		strb	r5, [r3, #800]
 756 090a 4FF06A05 		mov	r5, #106
 757 090e 83F82153 		strb	r5, [r3, #801]
 758 0912 4FF00405 		mov	r5, #4
 759 0916 83F82253 		strb	r5, [r3, #802]
 760 091a 4FF03C05 		mov	r5, #60
 761 091e 83F82553 		strb	r5, [r3, #805]
 762 0922 4FF01805 		mov	r5, #24
 763 0926 83F82653 		strb	r5, [r3, #806]
 764 092a 4FF06F05 		mov	r5, #111
 765 092e 83F80F43 		strb	r4, [r3, #783]
 766 0932 83F810E3 		strb	lr, [r3, #784]
 767 0936 83F81403 		strb	r0, [r3, #788]
ARM GAS  C:\Users\info\AppData\Local\Temp\ccrImvS9.s 			page 16


 768 093a 83F81E43 		strb	r4, [r3, #798]
 769 093e 83F82343 		strb	r4, [r3, #803]
 770 0942 83F824E3 		strb	lr, [r3, #804]
 771 0946 83F82703 		strb	r0, [r3, #807]
 772 094a 83F82853 		strb	r5, [r3, #808]
 773 094e 6FF01F05 		mvn	r5, #31
 774 0952 83F82A53 		strb	r5, [r3, #810]
 775 0956 6FF05B05 		mvn	r5, #91
 776 095a 83F82B53 		strb	r5, [r3, #811]
 777 095e 6FF02205 		mvn	r5, #34
 778 0962 83F82C53 		strb	r5, [r3, #812]
 779 0966 4FF01F05 		mov	r5, #31
 780 096a 83F83453 		strb	r5, [r3, #820]
 781 096e 4FF06005 		mov	r5, #96
 782 0972 83F82D53 		strb	r5, [r3, #813]
 783 0976 4FF01405 		mov	r5, #20
 784 097a 83F82E53 		strb	r5, [r3, #814]
 785 097e 4FF06105 		mov	r5, #97
 786 0982 83F82F53 		strb	r5, [r3, #815]
 787 0986 4FF06205 		mov	r5, #98
 788 098a 83F83153 		strb	r5, [r3, #817]
 789 098e 4FF00F05 		mov	r5, #15
 790 0992 83F83253 		strb	r5, [r3, #818]
 791 0996 6FF02F05 		mvn	r5, #47
 792 099a 83F83353 		strb	r5, [r3, #819]
 793 099e 4FF07005 		mov	r5, #112
 794 09a2 83F83553 		strb	r5, [r3, #821]
 795 09a6 6FF00D05 		mvn	r5, #13
 796 09aa 83F83753 		strb	r5, [r3, #823]
 797 09ae 4FF01E05 		mov	r5, #30
 798 09b2 83F83853 		strb	r5, [r3, #824]
 799 09b6 4FF03005 		mov	r5, #48
 800 09ba 83F83953 		strb	r5, [r3, #825]
 801 09be 4FF02C05 		mov	r5, #44
 802 09c2 83F83A53 		strb	r5, [r3, #826]
 803 09c6 4FF01305 		mov	r5, #19
 804 09ca 83F83B53 		strb	r5, [r3, #827]
 805 09ce 4FF03305 		mov	r5, #51
 806 09d2 83F83C53 		strb	r5, [r3, #828]
 807 09d6 4FF06005 		mov	r5, #96
 808 09da 83F83D53 		strb	r5, [r3, #829]
 809 09de 4FF0FF35 		mov	r5, #-1
 810 09e2 83F83E53 		strb	r5, [r3, #830]
 811 09e6 4FF01505 		mov	r5, #21
 812 09ea 83F84053 		strb	r5, [r3, #832]
 813 09ee 4FF00705 		mov	r5, #7
 814 09f2 83F84253 		strb	r5, [r3, #834]
 815 09f6 4FF03005 		mov	r5, #48
 816 09fa 83F84353 		strb	r5, [r3, #835]
 817 09fe 4FF01305 		mov	r5, #19
 818 0a02 83F84553 		strb	r5, [r3, #837]
 819 0a06 4FF04105 		mov	r5, #65
 820 0a0a 83F84653 		strb	r5, [r3, #838]
 821 0a0e 4FF00A05 		mov	r5, #10
 822 0a12 83F84853 		strb	r5, [r3, #840]
 823 0a16 6FF01F05 		mvn	r5, #31
 824 0a1a 83F84A53 		strb	r5, [r3, #842]
ARM GAS  C:\Users\info\AppData\Local\Temp\ccrImvS9.s 			page 17


 825 0a1e 6FF05805 		mvn	r5, #88
 826 0a22 83F83093 		strb	r9, [r3, #816]
 827 0a26 83F83693 		strb	r9, [r3, #822]
 828 0a2a 83F83F23 		strb	r2, [r3, #831]
 829 0a2e 83F84123 		strb	r2, [r3, #833]
 830 0a32 83F84723 		strb	r2, [r3, #839]
 831 0a36 83F84B53 		strb	r5, [r3, #843]
 832 0a3a 83F84C63 		strb	r6, [r3, #844]
 833 0a3e 9DF80C50 		ldrb	r5, [sp, #12]	@ zero_extendqisi2
 834 0a42 83F86913 		strb	r1, [r3, #873]
 835 0a46 83F84D53 		strb	r5, [r3, #845]
 836 0a4a 4FF06505 		mov	r5, #101
 837 0a4e 83F84E53 		strb	r5, [r3, #846]
 838 0a52 6FF03E05 		mvn	r5, #62
 839 0a56 83F85253 		strb	r5, [r3, #850]
 840 0a5a 4FF02505 		mov	r5, #37
 841 0a5e 83F85053 		strb	r5, [r3, #848]
 842 0a62 6FF05C05 		mvn	r5, #92
 843 0a66 83F85153 		strb	r5, [r3, #849]
 844 0a6a 6FF00605 		mvn	r5, #6
 845 0a6e 83F85353 		strb	r5, [r3, #851]
 846 0a72 4FF01E05 		mov	r5, #30
 847 0a76 83F85453 		strb	r5, [r3, #852]
 848 0a7a 4FF06105 		mov	r5, #97
 849 0a7e 83F86B13 		strb	r1, [r3, #875]
 850 0a82 83F85553 		strb	r5, [r3, #853]
 851 0a86 4FF03001 		mov	r1, #48
 852 0a8a 6FF02F05 		mvn	r5, #47
 853 0a8e 83F86D13 		strb	r1, [r3, #877]
 854 0a92 83F86653 		strb	r5, [r3, #870]
 855 0a96 6FF07E01 		mvn	r1, #126
 856 0a9a 6FF01F05 		mvn	r5, #31
 857 0a9e 83F85913 		strb	r1, [r3, #857]
 858 0aa2 83F86A53 		strb	r5, [r3, #874]
 859 0aa6 83F85D13 		strb	r1, [r3, #861]
 860 0aaa 83F86113 		strb	r1, [r3, #865]
 861 0aae 4FF00405 		mov	r5, #4
 862 0ab2 4FF07B01 		mov	r1, #123
 863 0ab6 83F84F03 		strb	r0, [r3, #847]
 864 0aba 83F85693 		strb	r9, [r3, #854]
 865 0abe 83F85743 		strb	r4, [r3, #855]
 866 0ac2 83F858A3 		strb	r10, [r3, #856]
 867 0ac6 83F85A63 		strb	r6, [r3, #858]
 868 0aca 83F85B43 		strb	r4, [r3, #859]
 869 0ace 83F85CA3 		strb	r10, [r3, #860]
 870 0ad2 83F85E63 		strb	r6, [r3, #862]
 871 0ad6 83F85F43 		strb	r4, [r3, #863]
 872 0ada 83F860A3 		strb	r10, [r3, #864]
 873 0ade 83F86263 		strb	r6, [r3, #866]
 874 0ae2 83F86343 		strb	r4, [r3, #867]
 875 0ae6 83F864A3 		strb	r10, [r3, #868]
 876 0aea 83F86C03 		strb	r0, [r3, #876]
 877 0aee 83F86513 		strb	r1, [r3, #869]
 878 0af2 83F87113 		strb	r1, [r3, #881]
 879 0af6 83F87A53 		strb	r5, [r3, #890]
 880 0afa 4FF00705 		mov	r5, #7
 881 0afe 83F88A53 		strb	r5, [r3, #906]
ARM GAS  C:\Users\info\AppData\Local\Temp\ccrImvS9.s 			page 18


 882 0b02 4FF03005 		mov	r5, #48
 883 0b06 6FF02401 		mvn	r1, #36
 884 0b0a 83F88B53 		strb	r5, [r3, #907]
 885 0b0e 4FF01305 		mov	r5, #19
 886 0b12 83F86F13 		strb	r1, [r3, #879]
 887 0b16 83F88D53 		strb	r5, [r3, #909]
 888 0b1a 6FF03901 		mvn	r1, #57
 889 0b1e 4FF06A05 		mov	r5, #106
 890 0b22 83F87013 		strb	r1, [r3, #880]
 891 0b26 83F89153 		strb	r5, [r3, #913]
 892 0b2a 4FF00C01 		mov	r1, #12
 893 0b2e 6FF01F05 		mvn	r5, #31
 894 0b32 83F87213 		strb	r1, [r3, #882]
 895 0b36 83F87D43 		strb	r4, [r3, #893]
 896 0b3a 83F88043 		strb	r4, [r3, #896]
 897 0b3e 83F88143 		strb	r4, [r3, #897]
 898 0b42 83F89453 		strb	r5, [r3, #916]
 899 0b46 6FF05C01 		mvn	r1, #92
 900 0b4a 4FF06004 		mov	r4, #96
 901 0b4e 4FF06B05 		mov	r5, #107
 902 0b52 83F87513 		strb	r1, [r3, #885]
 903 0b56 83F88343 		strb	r4, [r3, #899]
 904 0b5a 83F89553 		strb	r5, [r3, #917]
 905 0b5e 6FF02601 		mvn	r1, #38
 906 0b62 4FF00504 		mov	r4, #5
 907 0b66 4FF00405 		mov	r5, #4
 908 0b6a 83F87613 		strb	r1, [r3, #886]
 909 0b6e 83F88443 		strb	r4, [r3, #900]
 910 0b72 83F89653 		strb	r5, [r3, #918]
 911 0b76 4FF06001 		mov	r1, #96
 912 0b7a 4FF01804 		mov	r4, #24
 913 0b7e 6FF01605 		mvn	r5, #22
 914 0b82 83F87713 		strb	r1, [r3, #887]
 915 0b86 83F88643 		strb	r4, [r3, #902]
 916 0b8a 83F89753 		strb	r5, [r3, #919]
 917 0b8e 4FF01C01 		mov	r1, #28
 918 0b92 4FF01504 		mov	r4, #21
 919 0b96 6FF02705 		mvn	r5, #39
 920 0b9a 4FF0EE08 		mov	r8, #238
 921 0b9e 83F86883 		strb	r8, [r3, #872]
 922 0ba2 83F87483 		strb	r8, [r3, #884]
 923 0ba6 83F87813 		strb	r1, [r3, #888]
 924 0baa 83F87C83 		strb	r8, [r3, #892]
 925 0bae 83F87EE3 		strb	lr, [r3, #894]
 926 0bb2 83F882E3 		strb	lr, [r3, #898]
 927 0bb6 83F88523 		strb	r2, [r3, #901]
 928 0bba 83F88723 		strb	r2, [r3, #903]
 929 0bbe 83F88843 		strb	r4, [r3, #904]
 930 0bc2 83F88923 		strb	r2, [r3, #905]
 931 0bc6 83F89083 		strb	r8, [r3, #912]
 932 0bca 83F87953 		strb	r5, [r3, #889]
 933 0bce 6FF07105 		mvn	r5, #113
 934 0bd2 83F87F53 		strb	r5, [r3, #895]
 935 0bd6 6FF07605 		mvn	r5, #118
 936 0bda 83F88E53 		strb	r5, [r3, #910]
 937 0bde 6FF07205 		mvn	r5, #114
 938 0be2 83F89353 		strb	r5, [r3, #915]
ARM GAS  C:\Users\info\AppData\Local\Temp\ccrImvS9.s 			page 19


 939 0be6 6FF05E05 		mvn	r5, #94
 940 0bea 83F89853 		strb	r5, [r3, #920]
 941 0bee 4FF05705 		mov	r5, #87
 942 0bf2 83F89A53 		strb	r5, [r3, #922]
 943 0bf6 4FF00C05 		mov	r5, #12
 944 0bfa 83F89C53 		strb	r5, [r3, #924]
 945 0bfe 6FF00205 		mvn	r5, #2
 946 0c02 83F89D53 		strb	r5, [r3, #925]
 947 0c06 4FF01E05 		mov	r5, #30
 948 0c0a 83F89E53 		strb	r5, [r3, #926]
 949 0c0e 4FF06505 		mov	r5, #101
 950 0c12 83F8A053 		strb	r5, [r3, #928]
 951 0c16 4FF03005 		mov	r5, #48
 952 0c1a 83F8A153 		strb	r5, [r3, #929]
 953 0c1e 4FF01305 		mov	r5, #19
 954 0c22 83F8A353 		strb	r5, [r3, #931]
 955 0c26 4FF06A05 		mov	r5, #106
 956 0c2a 83F89F23 		strb	r2, [r3, #927]
 957 0c2e 83F8A553 		strb	r5, [r3, #933]
 958 0c32 83F8B123 		strb	r2, [r3, #945]
 959 0c36 4FF06B05 		mov	r5, #107
 960 0c3a 4FF01E02 		mov	r2, #30
 961 0c3e 83F8A753 		strb	r5, [r3, #935]
 962 0c42 83F8B223 		strb	r2, [r3, #946]
 963 0c46 4FF00405 		mov	r5, #4
 964 0c4a 6FF02402 		mvn	r2, #36
 965 0c4e 83F8A853 		strb	r5, [r3, #936]
 966 0c52 83F8B323 		strb	r2, [r3, #947]
 967 0c56 4FF06D05 		mov	r5, #109
 968 0c5a 6FF03902 		mvn	r2, #57
 969 0c5e 83F8A953 		strb	r5, [r3, #937]
 970 0c62 83F8B423 		strb	r2, [r3, #948]
 971 0c66 4FF06E05 		mov	r5, #110
 972 0c6a 4FF07B02 		mov	r2, #123
 973 0c6e 83F8AB53 		strb	r5, [r3, #939]
 974 0c72 83F8B523 		strb	r2, [r3, #949]
 975 0c76 4FF01305 		mov	r5, #19
 976 0c7a 4FF07D02 		mov	r2, #125
 977 0c7e 83F8AD53 		strb	r5, [r3, #941]
 978 0c82 83F8B723 		strb	r2, [r3, #951]
 979 0c86 4FF00A05 		mov	r5, #10
 980 0c8a 6FF05902 		mvn	r2, #89
 981 0c8e 83F89903 		strb	r0, [r3, #921]
 982 0c92 83F8B053 		strb	r5, [r3, #944]
 983 0c96 4FF0FF30 		mov	r0, #-1
 984 0c9a 83F89B23 		strb	r2, [r3, #923]
 985 0c9e 4FF03C05 		mov	r5, #60
 986 0ca2 6FF05002 		mvn	r2, #80
 987 0ca6 83F8A203 		strb	r0, [r3, #930]
 988 0caa 83F8AAB3 		strb	fp, [r3, #938]
 989 0cae 83F8ACB3 		strb	fp, [r3, #940]
 990 0cb2 83F8B693 		strb	r9, [r3, #950]
 991 0cb6 83F8B8B3 		strb	fp, [r3, #952]
 992 0cba 83F8A423 		strb	r2, [r3, #932]
 993 0cbe 83F8C153 		strb	r5, [r3, #961]
 994 0cc2 4FF07E05 		mov	r5, #126
 995 0cc6 83F8C253 		strb	r5, [r3, #962]
ARM GAS  C:\Users\info\AppData\Local\Temp\ccrImvS9.s 			page 20


 996 0cca 83F8C753 		strb	r5, [r3, #967]
 997 0cce 6FF01805 		mvn	r5, #24
 998 0cd2 83F8CC53 		strb	r5, [r3, #972]
 999 0cd6 4FF07E05 		mov	r5, #126
 1000 0cda 83F8CD53 		strb	r5, [r3, #973]
 1001 0cde 4FF03C05 		mov	r5, #60
 1002 0ce2 83F8CF53 		strb	r5, [r3, #975]
 1003 0ce6 83F8D053 		strb	r5, [r3, #976]
 1004 0cea 4FF07E05 		mov	r5, #126
 1005 0cee 83F8D153 		strb	r5, [r3, #977]
 1006 0cf2 6FF02405 		mvn	r5, #36
 1007 0cf6 83F8D253 		strb	r5, [r3, #978]
 1008 0cfa 6FF07E05 		mvn	r5, #126
 1009 0cfe 83F8D353 		strb	r5, [r3, #979]
 1010 0d02 4FF04205 		mov	r5, #66
 1011 0d06 83F8D453 		strb	r5, [r3, #980]
 1012 0d0a 4FF03C05 		mov	r5, #60
 1013 0d0e 83F8D553 		strb	r5, [r3, #981]
 1014 0d12 4FF07E05 		mov	r5, #126
 1015 0d16 6FF05A02 		mvn	r2, #90
 1016 0d1a 83F8D653 		strb	r5, [r3, #982]
 1017 0d1e 6FF02405 		mvn	r5, #36
 1018 0d22 83F8AF23 		strb	r2, [r3, #943]
 1019 0d26 83F8D853 		strb	r5, [r3, #984]
 1020 0d2a 4FF07A02 		mov	r2, #122
 1021 0d2e 4FF01005 		mov	r5, #16
 1022 0d32 83F8B923 		strb	r2, [r3, #953]
 1023 0d36 83F8D953 		strb	r5, [r3, #985]
 1024 0d3a 6FF06802 		mvn	r2, #104
 1025 0d3e 4FF03805 		mov	r5, #56
 1026 0d42 83F8AE23 		strb	r2, [r3, #942]
 1027 0d46 83F8DA53 		strb	r5, [r3, #986]
 1028 0d4a 4FF00702 		mov	r2, #7
 1029 0d4e 4FF07C05 		mov	r5, #124
 1030 0d52 83F8BC23 		strb	r2, [r3, #956]
 1031 0d56 83F8DB53 		strb	r5, [r3, #987]
 1032 0d5a 4FF01302 		mov	r2, #19
 1033 0d5e 4FF03A05 		mov	r5, #58
 1034 0d62 83F8BD23 		strb	r2, [r3, #957]
 1035 0d66 83F8BB53 		strb	r5, [r3, #955]
 1036 0d6a 6FF06802 		mvn	r2, #104
 1037 0d6e 6FF06605 		mvn	r5, #102
 1038 0d72 83F8BAB3 		strb	fp, [r3, #954]
 1039 0d76 83F8BE23 		strb	r2, [r3, #958]
 1040 0d7a 83F8C083 		strb	r8, [r3, #960]
 1041 0d7e 83F8C303 		strb	r0, [r3, #963]
 1042 0d82 83F8C403 		strb	r0, [r3, #964]
 1043 0d86 83F8C803 		strb	r0, [r3, #968]
 1044 0d8a 83F8C903 		strb	r0, [r3, #969]
 1045 0d8e 83F8CE03 		strb	r0, [r3, #974]
 1046 0d92 83F8D703 		strb	r0, [r3, #983]
 1047 0d96 83F8C553 		strb	r5, [r3, #965]
 1048 0d9a 83F8C653 		strb	r5, [r3, #966]
 1049 0d9e 4FF02405 		mov	r5, #36
 1050 0da2 83F8CA53 		strb	r5, [r3, #970]
 1051 0da6 83F8CB53 		strb	r5, [r3, #971]
 1052 0daa 4FF03F05 		mov	r5, #63
ARM GAS  C:\Users\info\AppData\Local\Temp\ccrImvS9.s 			page 21


 1053 0dae 83F8E153 		strb	r5, [r3, #993]
 1054 0db2 4FF00305 		mov	r5, #3
 1055 0db6 83F8EA53 		strb	r5, [r3, #1002]
 1056 0dba 83F8EB53 		strb	r5, [r3, #1003]
 1057 0dbe 83F8EC53 		strb	r5, [r3, #1004]
 1058 0dc2 83F8ED53 		strb	r5, [r3, #1005]
 1059 0dc6 4FF03F05 		mov	r5, #63
 1060 0dca 83F8F053 		strb	r5, [r3, #1008]
 1061 0dce 83F8F953 		strb	r5, [r3, #1017]
 1062 0dd2 4FF0FF35 		mov	r5, #-1
 1063 0dd6 83F8FC53 		strb	r5, [r3, #1020]
 1064 0dda 9DF80850 		ldrb	r5, [sp, #8]	@ zero_extendqisi2
 1065 0dde 0398     		ldr	r0, [sp, #12]
 1066 0de0 83F80154 		strb	r5, [r3, #1025]
 1067 0de4 4FF07E05 		mov	r5, #126
 1068 0de8 83F80754 		strb	r5, [r3, #1031]
 1069 0dec 4FF04205 		mov	r5, #66
 1070 0df0 83F8DC03 		strb	r0, [r3, #988]
 1071 0df4 83F8E7B3 		strb	fp, [r3, #999]
 1072 0df8 83F8E8B3 		strb	fp, [r3, #1000]
 1073 0dfc 83F8E9B3 		strb	fp, [r3, #1001]
 1074 0e00 83F8F173 		strb	r7, [r3, #1009]
 1075 0e04 83F8F273 		strb	r7, [r3, #1010]
 1076 0e08 83F8F373 		strb	r7, [r3, #1011]
 1077 0e0c 83F8F473 		strb	r7, [r3, #1012]
 1078 0e10 83F8F573 		strb	r7, [r3, #1013]
 1079 0e14 83F8F673 		strb	r7, [r3, #1014]
 1080 0e18 83F8F773 		strb	r7, [r3, #1015]
 1081 0e1c 83F8F873 		strb	r7, [r3, #1016]
 1082 0e20 83F8FA93 		strb	r9, [r3, #1018]
 1083 0e24 83F8FB93 		strb	r9, [r3, #1019]
 1084 0e28 83F8FF03 		strb	r0, [r3, #1023]
 1085 0e2c 83F80304 		strb	r0, [r3, #1027]
 1086 0e30 83F80854 		strb	r5, [r3, #1032]
 1087 0e34 83F80954 		strb	r5, [r3, #1033]
 1088 0e38 4FF06205 		mov	r5, #98
 1089 0e3c 83F80A54 		strb	r5, [r3, #1034]
 1090 0e40 83F80B54 		strb	r5, [r3, #1035]
 1091 0e44 83F80C54 		strb	r5, [r3, #1036]
 1092 0e48 4FF07F05 		mov	r5, #127
 1093 0e4c 83F8DF53 		strb	r5, [r3, #991]
 1094 0e50 83F8E353 		strb	r5, [r3, #995]
 1095 0e54 4FF06205 		mov	r5, #98
 1096 0e58 83F80D54 		strb	r5, [r3, #1037]
 1097 0e5c 4FF07D05 		mov	r5, #125
 1098 0e60 83F81E54 		strb	r5, [r3, #1054]
 1099 0e64 4FF04105 		mov	r5, #65
 1100 0e68 83F82054 		strb	r5, [r3, #1056]
 1101 0e6c 4FF07D05 		mov	r5, #125
 1102 0e70 83F82154 		strb	r5, [r3, #1057]
 1103 0e74 4FF00505 		mov	r5, #5
 1104 0e78 83F82254 		strb	r5, [r3, #1058]
 1105 0e7c 4FF07D05 		mov	r5, #125
 1106 0e80 83F82354 		strb	r5, [r3, #1059]
 1107 0e84 83F82454 		strb	r5, [r3, #1060]
 1108 0e88 6FF03905 		mvn	r5, #57
 1109 0e8c 83F82954 		strb	r5, [r3, #1065]
ARM GAS  C:\Users\info\AppData\Local\Temp\ccrImvS9.s 			page 22


 1110 0e90 4FF04405 		mov	r5, #68
 1111 0e94 83F82A54 		strb	r5, [r3, #1066]
 1112 0e98 4FF06C05 		mov	r5, #108
 1113 0e9c 83F82B54 		strb	r5, [r3, #1067]
 1114 0ea0 4FF02805 		mov	r5, #40
 1115 0ea4 83F82C54 		strb	r5, [r3, #1068]
 1116 0ea8 4FF03805 		mov	r5, #56
 1117 0eac 83F82D54 		strb	r5, [r3, #1069]
 1118 0eb0 4FF0FF35 		mov	r5, #-1
 1119 0eb4 83F83054 		strb	r5, [r3, #1072]
 1120 0eb8 83F83954 		strb	r5, [r3, #1081]
 1121 0ebc 83F83C54 		strb	r5, [r3, #1084]
 1122 0ec0 6FF00805 		mvn	r5, #8
 1123 0ec4 83F83E54 		strb	r5, [r3, #1086]
 1124 0ec8 4FF01005 		mov	r5, #16
 1125 0ecc 83F83F54 		strb	r5, [r3, #1087]
 1126 0ed0 4FF01405 		mov	r5, #20
 1127 0ed4 83F84054 		strb	r5, [r3, #1088]
 1128 0ed8 6FF00805 		mvn	r5, #8
 1129 0edc 83F84154 		strb	r5, [r3, #1089]
 1130 0ee0 83F84254 		strb	r5, [r3, #1090]
 1131 0ee4 4FF00405 		mov	r5, #4
 1132 0ee8 83F84354 		strb	r5, [r3, #1091]
 1133 0eec 83F84454 		strb	r5, [r3, #1092]
 1134 0ef0 4FF07C05 		mov	r5, #124
 1135 0ef4 83F84754 		strb	r5, [r3, #1095]
 1136 0ef8 4FF04405 		mov	r5, #68
 1137 0efc 8346     		mov	fp, r0
 1138 0efe 83F84854 		strb	r5, [r3, #1096]
 1139 0f02 4FF0FF30 		mov	r0, #-1
 1140 0f06 6FF03D05 		mvn	r5, #61
 1141 0f0a 83F81004 		strb	r0, [r3, #1040]
 1142 0f0e 83F81904 		strb	r0, [r3, #1049]
 1143 0f12 83F81C04 		strb	r0, [r3, #1052]
 1144 0f16 83F849B4 		strb	fp, [r3, #1097]
 1145 0f1a 83F82754 		strb	r5, [r3, #1063]
 1146 0f1e 83F82854 		strb	r5, [r3, #1064]
 1147 0f22 83F84A54 		strb	r5, [r3, #1098]
 1148 0f26 83F84B54 		strb	r5, [r3, #1099]
 1149 0f2a 83F84C54 		strb	r5, [r3, #1100]
 1150 0f2e 83F84D54 		strb	r5, [r3, #1101]
 1151 0f32 4FF0FF35 		mov	r5, #-1
 1152 0f36 83F85054 		strb	r5, [r3, #1104]
 1153 0f3a 83F85954 		strb	r5, [r3, #1113]
 1154 0f3e 83F85C54 		strb	r5, [r3, #1116]
 1155 0f42 4FF02805 		mov	r5, #40
 1156 0f46 83F86054 		strb	r5, [r3, #1120]
 1157 0f4a 6FF00605 		mvn	r5, #6
 1158 0f4e 83F86754 		strb	r5, [r3, #1127]
 1159 0f52 83F86D54 		strb	r5, [r3, #1133]
 1160 0f56 4FF0FF35 		mov	r5, #-1
 1161 0f5a 83F87054 		strb	r5, [r3, #1136]
 1162 0f5e 83F87954 		strb	r5, [r3, #1145]
 1163 0f62 83F87C54 		strb	r5, [r3, #1148]
 1164 0f66 4FF03005 		mov	r5, #48
 1165 0f6a 83F88154 		strb	r5, [r3, #1153]
 1166 0f6e 6FF00805 		mvn	r5, #8
ARM GAS  C:\Users\info\AppData\Local\Temp\ccrImvS9.s 			page 23


 1167 0f72 83F88754 		strb	r5, [r3, #1159]
 1168 0f76 4FF00405 		mov	r5, #4
 1169 0f7a 83F88854 		strb	r5, [r3, #1160]
 1170 0f7e 6FF01805 		mvn	r5, #24
 1171 0f82 83F88954 		strb	r5, [r3, #1161]
 1172 0f86 6FF07B05 		mvn	r5, #123
 1173 0f8a 83F88C54 		strb	r5, [r3, #1164]
 1174 0f8e 6FF01005 		mvn	r5, #16
 1175 0f92 83F85E54 		strb	r5, [r3, #1118]
 1176 0f96 6FF01705 		mvn	r5, #23
 1177 0f9a 83F86154 		strb	r5, [r3, #1121]
 1178 0f9e 83F86254 		strb	r5, [r3, #1122]
 1179 0fa2 4FF02F05 		mov	r5, #47
 1180 0fa6 83F86354 		strb	r5, [r3, #1123]
 1181 0faa 83F86454 		strb	r5, [r3, #1124]
 1182 0fae 6FF07A05 		mvn	r5, #122
 1183 0fb2 83F86854 		strb	r5, [r3, #1128]
 1184 0fb6 83F88A54 		strb	r5, [r3, #1162]
 1185 0fba 83F88B54 		strb	r5, [r3, #1163]
 1186 0fbe 6FF03A05 		mvn	r5, #58
 1187 0fc2 83F85F74 		strb	r7, [r3, #1119]
 1188 0fc6 83F88074 		strb	r7, [r3, #1152]
 1189 0fca 83F88274 		strb	r7, [r3, #1154]
 1190 0fce 83F86954 		strb	r5, [r3, #1129]
 1191 0fd2 83F86A54 		strb	r5, [r3, #1130]
 1192 0fd6 83F86B54 		strb	r5, [r3, #1131]
 1193 0fda 83F86C54 		strb	r5, [r3, #1132]
 1194 0fde 6FF04105 		mvn	r5, #65
 1195 0fe2 83F87E54 		strb	r5, [r3, #1150]
 1196 0fe6 83F88354 		strb	r5, [r3, #1155]
 1197 0fea 83F88454 		strb	r5, [r3, #1156]
 1198 0fee 6FF00B05 		mvn	r5, #11
 1199 0ff2 83F88D54 		strb	r5, [r3, #1165]
 1200 0ff6 4FF0FF35 		mov	r5, #-1
 1201 0ffa 83F89054 		strb	r5, [r3, #1168]
 1202 0ffe 83F89954 		strb	r5, [r3, #1177]
 1203 1002 83F89C54 		strb	r5, [r3, #1180]
 1204 1006 4FF07F05 		mov	r5, #127
 1205 100a 83F89F54 		strb	r5, [r3, #1183]
 1206 100e 4FF03F05 		mov	r5, #63
 1207 1012 83F8A154 		strb	r5, [r3, #1185]
 1208 1016 4FF07F05 		mov	r5, #127
 1209 101a 83F8A354 		strb	r5, [r3, #1187]
 1210 101e 6FF01005 		mvn	r5, #16
 1211 1022 83F8A754 		strb	r5, [r3, #1191]
 1212 1026 4FF02805 		mov	r5, #40
 1213 102a 83F8A854 		strb	r5, [r3, #1192]
 1214 102e 6FF01005 		mvn	r5, #16
 1215 1032 83F8A954 		strb	r5, [r3, #1193]
 1216 1036 6FF01F05 		mvn	r5, #31
 1217 103a 83F8AB54 		strb	r5, [r3, #1195]
 1218 103e 4FF06005 		mov	r5, #96
 1219 1042 83F8AC54 		strb	r5, [r3, #1196]
 1220 1046 4FF06F05 		mov	r5, #111
 1221 104a 83F8AD54 		strb	r5, [r3, #1197]
 1222 104e 4FF0FF35 		mov	r5, #-1
 1223 1052 5F46     		mov	r7, fp
ARM GAS  C:\Users\info\AppData\Local\Temp\ccrImvS9.s 			page 24


 1224 1054 83F8B054 		strb	r5, [r3, #1200]
 1225 1058 83F8B954 		strb	r5, [r3, #1209]
 1226 105c 83F8BC54 		strb	r5, [r3, #1212]
 1227 1060 4FF00405 		mov	r5, #4
 1228 1064 83F8BFB4 		strb	fp, [r3, #1215]
 1229 1068 DDF808B0 		ldr	fp, [sp, #8]
 1230 106c 83F8C374 		strb	r7, [r3, #1219]
 1231 1070 83F8C1B4 		strb	fp, [r3, #1217]
 1232 1074 83F8D0B4 		strb	fp, [r3, #1232]
 1233 1078 83F8D154 		strb	r5, [r3, #1233]
 1234 107c 83F8D254 		strb	r5, [r3, #1234]
 1235 1080 83F8D354 		strb	r5, [r3, #1235]
 1236 1084 83F8D454 		strb	r5, [r3, #1236]
 1237 1088 83F8D554 		strb	r5, [r3, #1237]
 1238 108c 83F8D654 		strb	r5, [r3, #1238]
 1239 1090 83F8D754 		strb	r5, [r3, #1239]
 1240 1094 6FF03F05 		mvn	r5, #63
 1241 1098 83F8C754 		strb	r5, [r3, #1223]
 1242 109c 83F8C954 		strb	r5, [r3, #1225]
 1243 10a0 83F8CA54 		strb	r5, [r3, #1226]
 1244 10a4 83F8CB54 		strb	r5, [r3, #1227]
 1245 10a8 83F8CC54 		strb	r5, [r3, #1228]
 1246 10ac 83F8CD54 		strb	r5, [r3, #1229]
 1247 10b0 4FF00405 		mov	r5, #4
 1248 10b4 83F8D854 		strb	r5, [r3, #1240]
 1249 10b8 4FF01005 		mov	r5, #16
 1250 10bc 83F8DA54 		strb	r5, [r3, #1242]
 1251 10c0 83F8DB54 		strb	r5, [r3, #1243]
 1252 10c4 4FF0FF35 		mov	r5, #-1
 1253 10c8 83F8DC54 		strb	r5, [r3, #1244]
 1254 10cc 6FF00605 		mvn	r5, #6
 1255 10d0 83F8DD54 		strb	r5, [r3, #1245]
 1256 10d4 6FF07E05 		mvn	r5, #126
 1257 10d8 83F8DE54 		strb	r5, [r3, #1246]
 1258 10dc 6FF07405 		mvn	r5, #116
 1259 10e0 83F8E054 		strb	r5, [r3, #1248]
 1260 10e4 6FF06605 		mvn	r5, #102
 1261 10e8 83F8EA54 		strb	r5, [r3, #1258]
 1262 10ec 6FF00705 		mvn	r5, #7
 1263 10f0 83F8EB54 		strb	r5, [r3, #1259]
 1264 10f4 4FF02505 		mov	r5, #37
 1265 10f8 83F8ED54 		strb	r5, [r3, #1261]
 1266 10fc 83F8EE54 		strb	r5, [r3, #1262]
 1267 1100 6FF00B05 		mvn	r5, #11
 1268 1104 83F8EF54 		strb	r5, [r3, #1263]
 1269 1108 4FF01405 		mov	r5, #20
 1270 110c 83F8F554 		strb	r5, [r3, #1269]
 1271 1110 4FF03705 		mov	r5, #55
 1272 1114 83F8F754 		strb	r5, [r3, #1271]
 1273 1118 4FF03605 		mov	r5, #54
 1274 111c 83F8F854 		strb	r5, [r3, #1272]
 1275 1120 6FF04605 		mvn	r5, #70
 1276 1124 83F8DF54 		strb	r5, [r3, #1247]
 1277 1128 6FF07505 		mvn	r5, #117
 1278 112c 83F8E654 		strb	r5, [r3, #1254]
 1279 1130 6FF06405 		mvn	r5, #100
 1280 1134 83F8E954 		strb	r5, [r3, #1257]
ARM GAS  C:\Users\info\AppData\Local\Temp\ccrImvS9.s 			page 25


 1281 1138 6FF01905 		mvn	r5, #25
 1282 113c 83F8EC54 		strb	r5, [r3, #1260]
 1283 1140 4FF01705 		mov	r5, #23
 1284 1144 83F8F454 		strb	r5, [r3, #1268]
 1285 1148 4FF02605 		mov	r5, #38
 1286 114c 83F8F954 		strb	r5, [r3, #1273]
 1287 1150 6FF03805 		mvn	r5, #56
 1288 1154 83F8FA54 		strb	r5, [r3, #1274]
 1289 1158 6FF06505 		mvn	r5, #101
 1290 115c 83F8D9B4 		strb	fp, [r3, #1241]
 1291 1160 8DF8F154 		strb	r5, [sp, #1265]
 1292 1164 8DF8F254 		strb	r5, [sp, #1266]
 1293 1168 8DF8F754 		strb	r5, [sp, #1271]
 1294 116c 8DF8F854 		strb	r5, [sp, #1272]
 1295 1170 6FF00505 		mvn	r5, #5
 1296 1174 8DF8F354 		strb	r5, [sp, #1267]
 1297 1178 8DF8F554 		strb	r5, [sp, #1269]
 1298 117c 4FF03405 		mov	r5, #52
 1299 1180 8DF80055 		strb	r5, [sp, #1280]
 1300 1184 8DF80155 		strb	r5, [sp, #1281]
 1301 1188 8DF80255 		strb	r5, [sp, #1282]
 1302 118c 8DF80655 		strb	r5, [sp, #1286]
 1303 1190 6FF02005 		mvn	r5, #32
 1304 1194 83F8FB54 		strb	r5, [r3, #1275]
 1305 1198 83F80155 		strb	r5, [r3, #1281]
 1306 119c 83F80355 		strb	r5, [r3, #1283]
 1307 11a0 6FF03F05 		mvn	r5, #63
 1308 11a4 83F80C75 		strb	r7, [r3, #1292]
 1309 11a8 83F81855 		strb	r5, [r3, #1304]
 1310 11ac 83F81955 		strb	r5, [r3, #1305]
 1311 11b0 83F81A55 		strb	r5, [r3, #1306]
 1312 11b4 3D46     		mov	r5, r7
 1313 11b6 4FF07C07 		mov	r7, #124
 1314 11ba 83F80A75 		strb	r7, [r3, #1290]
 1315 11be 4FF04407 		mov	r7, #68
 1316 11c2 83F810B5 		strb	fp, [r3, #1296]
 1317 11c6 83F80B75 		strb	r7, [r3, #1291]
 1318 11ca 5F46     		mov	r7, fp
 1319 11cc 6FF07B0B 		mvn	fp, #123
 1320 11d0 83F811B5 		strb	fp, [r3, #1297]
 1321 11d4 4FF05C0B 		mov	fp, #92
 1322 11d8 83F8FEB4 		strb	fp, [r3, #1278]
 1323 11dc 4FF0110B 		mov	fp, #17
 1324 11e0 83F804B5 		strb	fp, [r3, #1284]
 1325 11e4 4FF01F0B 		mov	fp, #31
 1326 11e8 83F805B5 		strb	fp, [r3, #1285]
 1327 11ec 4FF01B0B 		mov	fp, #27
 1328 11f0 83F807B5 		strb	fp, [r3, #1287]
 1329 11f4 4FF0190B 		mov	fp, #25
 1330 11f8 83F808B5 		strb	fp, [r3, #1288]
 1331 11fc 6FF0260B 		mvn	fp, #38
 1332 1200 83F809B5 		strb	fp, [r3, #1289]
 1333 1204 4FF0500B 		mov	fp, #80
 1334 1208 83F8FCB4 		strb	fp, [r3, #1276]
 1335 120c 83F8FDB4 		strb	fp, [r3, #1277]
 1336 1210 6FF0270B 		mvn	fp, #39
 1337 1214 83F8FFB4 		strb	fp, [r3, #1279]
ARM GAS  C:\Users\info\AppData\Local\Temp\ccrImvS9.s 			page 26


 1338 1218 83F800B5 		strb	fp, [r3, #1280]
 1339 121c 4FF0120B 		mov	fp, #18
 1340 1220 83F81255 		strb	r5, [r3, #1298]
 1341 1224 83F81555 		strb	r5, [r3, #1301]
 1342 1228 83F81655 		strb	r5, [r3, #1302]
 1343 122c 83F81B55 		strb	r5, [r3, #1307]
 1344 1230 83F81C75 		strb	r7, [r3, #1308]
 1345 1234 83F806B5 		strb	fp, [r3, #1286]
 1346 1238 83F82175 		strb	r7, [r3, #1313]
 1347 123c 6FF03D07 		mvn	r7, #61
 1348 1240 83F81E75 		strb	r7, [r3, #1310]
 1349 1244 83F81F75 		strb	r7, [r3, #1311]
 1350 1248 83F82075 		strb	r7, [r3, #1312]
 1351 124c 6FF00707 		mvn	r7, #7
 1352 1250 6FF07F0B 		mvn	fp, #127
 1353 1254 83F82475 		strb	r7, [r3, #1316]
 1354 1258 6FF03F07 		mvn	r7, #63
 1355 125c 8626     		movs	r6, #134
 1356 125e 4FF0820C 		mov	ip, #130
 1357 1262 83F813C5 		strb	ip, [r3, #1299]
 1358 1266 83F814C5 		strb	ip, [r3, #1300]
 1359 126a 83F81DC5 		strb	ip, [r3, #1309]
 1360 126e 83F80D65 		strb	r6, [r3, #1293]
 1361 1272 83F80E65 		strb	r6, [r3, #1294]
 1362 1276 83F80F65 		strb	r6, [r3, #1295]
 1363 127a 83F817B5 		strb	fp, [r3, #1303]
 1364 127e 83F823B5 		strb	fp, [r3, #1315]
 1365 1282 83F82255 		strb	r5, [r3, #1314]
 1366 1286 83F82575 		strb	r7, [r3, #1317]
 1367 128a 83F82675 		strb	r7, [r3, #1318]
 1368 128e 83F82755 		strb	r5, [r3, #1319]
 1369 1292 6FF04103 		mvn	r3, #65
 1370 1296 8DF84035 		strb	r3, [sp, #1344]
 1371 129a 6FF00F03 		mvn	r3, #15
 1372 129e 8DF83A35 		strb	r3, [sp, #1338]
 1373 12a2 4FF01003 		mov	r3, #16
 1374 12a6 FE21     		movs	r1, #254
 1375 12a8 4FF0C00A 		mov	r10, #192
 1376 12ac 8DF83815 		strb	r1, [sp, #1336]
 1377 12b0 8DF83E15 		strb	r1, [sp, #1342]
 1378 12b4 8DF84315 		strb	r1, [sp, #1347]
 1379 12b8 8DF84615 		strb	r1, [sp, #1350]
 1380 12bc 8DF839B5 		strb	fp, [sp, #1337]
 1381 12c0 8DF83FB5 		strb	fp, [sp, #1343]
 1382 12c4 8DF84165 		strb	r6, [sp, #1345]
 1383 12c8 8DF84265 		strb	r6, [sp, #1346]
 1384 12cc 8DF84465 		strb	r6, [sp, #1348]
 1385 12d0 8DF84565 		strb	r6, [sp, #1349]
 1386 12d4 8DF84765 		strb	r6, [sp, #1351]
 1387 12d8 8DF84865 		strb	r6, [sp, #1352]
 1388 12dc 8DF84965 		strb	r6, [sp, #1353]
 1389 12e0 8DF83BA5 		strb	r10, [sp, #1339]
 1390 12e4 8DF84A35 		strb	r3, [sp, #1354]
 1391 12e8 8DF84B35 		strb	r3, [sp, #1355]
 1392 12ec 8DF84C35 		strb	r3, [sp, #1356]
 1393 12f0 8DF84D35 		strb	r3, [sp, #1357]
 1394 12f4 8DF84E35 		strb	r3, [sp, #1358]
ARM GAS  C:\Users\info\AppData\Local\Temp\ccrImvS9.s 			page 27


 1395 12f8 8DF84F35 		strb	r3, [sp, #1359]
 1396 12fc 4FF04803 		mov	r3, #72
 1397 1300 8DF85335 		strb	r3, [sp, #1363]
 1398 1304 8DF85435 		strb	r3, [sp, #1364]
 1399 1308 4FF07803 		mov	r3, #120
 1400 130c 8DF85535 		strb	r3, [sp, #1365]
 1401 1310 6FF06303 		mvn	r3, #99
 1402 1314 8DF85635 		strb	r3, [sp, #1366]
 1403 1318 8DF85B35 		strb	r3, [sp, #1371]
 1404 131c 6FF06F03 		mvn	r3, #111
 1405 1320 1824     		movs	r4, #24
 1406 1322 8DF869C5 		strb	ip, [sp, #1385]
 1407 1326 8DF86115 		strb	r1, [sp, #1377]
 1408 132a 8DF86815 		strb	r1, [sp, #1384]
 1409 132e 8DF83CA5 		strb	r10, [sp, #1340]
 1410 1332 8DF83DA5 		strb	r10, [sp, #1341]
 1411 1336 8DF859A5 		strb	r10, [sp, #1369]
 1412 133a 8DF85CB5 		strb	fp, [sp, #1372]
 1413 133e 8DF85DB5 		strb	fp, [sp, #1373]
 1414 1342 8DF85EA5 		strb	r10, [sp, #1374]
 1415 1346 8DF85FA5 		strb	r10, [sp, #1375]
 1416 134a 8DF860A5 		strb	r10, [sp, #1376]
 1417 134e 8DF86565 		strb	r6, [sp, #1381]
 1418 1352 8DF86665 		strb	r6, [sp, #1382]
 1419 1356 8DF86765 		strb	r6, [sp, #1383]
 1420 135a 8DF86A65 		strb	r6, [sp, #1386]
 1421 135e 8DF86B65 		strb	r6, [sp, #1387]
 1422 1362 8DF86C65 		strb	r6, [sp, #1388]
 1423 1366 8DF86D65 		strb	r6, [sp, #1389]
 1424 136a 8DF85045 		strb	r4, [sp, #1360]
 1425 136e 8DF85145 		strb	r4, [sp, #1361]
 1426 1372 8DF85245 		strb	r4, [sp, #1362]
 1427 1376 8DF85735 		strb	r3, [sp, #1367]
 1428 137a 6FF04F03 		mvn	r3, #79
 1429 137e 8DF85835 		strb	r3, [sp, #1368]
 1430 1382 8DF85A35 		strb	r3, [sp, #1370]
 1431 1386 6FF01103 		mvn	r3, #17
 1432 138a 8DF86235 		strb	r3, [sp, #1378]
 1433 138e 6FF06D03 		mvn	r3, #109
 1434 1392 8DF86335 		strb	r3, [sp, #1379]
 1435 1396 8DF86435 		strb	r3, [sp, #1380]
 1436 139a 4FF07C03 		mov	r3, #124
 1437 139e 8DF86E35 		strb	r3, [sp, #1390]
 1438 13a2 8DF87335 		strb	r3, [sp, #1395]
 1439 13a6 8DF87A35 		strb	r3, [sp, #1402]
 1440 13aa 6FF06F03 		mvn	r3, #111
 1441 13ae 8DF88335 		strb	r3, [sp, #1411]
 1442 13b2 6FF06303 		mvn	r3, #99
 1443 13b6 8DF88435 		strb	r3, [sp, #1412]
 1444 13ba 4FF01003 		mov	r3, #16
 1445 13be 8DF88D35 		strb	r3, [sp, #1421]
 1446 13c2 6FF03503 		mvn	r3, #53
 1447 13c6 8DF87D35 		strb	r3, [sp, #1405]
 1448 13ca 4FF07A03 		mov	r3, #122
 1449 13ce 8DF87F35 		strb	r3, [sp, #1407]
 1450 13d2 6FF03D03 		mvn	r3, #61
 1451 13d6 8DF86FC5 		strb	ip, [sp, #1391]
ARM GAS  C:\Users\info\AppData\Local\Temp\ccrImvS9.s 			page 28


 1452 13da 8DF875C5 		strb	ip, [sp, #1397]
 1453 13de 8DF87BC5 		strb	ip, [sp, #1403]
 1454 13e2 8DF87415 		strb	r1, [sp, #1396]
 1455 13e6 8DF87615 		strb	r1, [sp, #1398]
 1456 13ea 8DF88015 		strb	r1, [sp, #1408]
 1457 13ee 8DF88215 		strb	r1, [sp, #1410]
 1458 13f2 8DF88615 		strb	r1, [sp, #1414]
 1459 13f6 8DF88815 		strb	r1, [sp, #1416]
 1460 13fa 8DF88B15 		strb	r1, [sp, #1419]
 1461 13fe 8DF88C15 		strb	r1, [sp, #1420]
 1462 1402 8DF877A5 		strb	r10, [sp, #1399]
 1463 1406 8DF878A5 		strb	r10, [sp, #1400]
 1464 140a 8DF879A5 		strb	r10, [sp, #1401]
 1465 140e 8DF87065 		strb	r6, [sp, #1392]
 1466 1412 8DF87165 		strb	r6, [sp, #1393]
 1467 1416 8DF87265 		strb	r6, [sp, #1394]
 1468 141a 8DF88165 		strb	r6, [sp, #1409]
 1469 141e 8DF887A5 		strb	r10, [sp, #1415]
 1470 1422 8DF87C35 		strb	r3, [sp, #1404]
 1471 1426 6FF03B03 		mvn	r3, #59
 1472 142a 8DF87E35 		strb	r3, [sp, #1406]
 1473 142e 6FF07B03 		mvn	r3, #123
 1474 1432 8DF88535 		strb	r3, [sp, #1413]
 1475 1436 4FF00203 		mov	r3, #2
 1476 143a 8DF88935 		strb	r3, [sp, #1417]
 1477 143e 8DF88A35 		strb	r3, [sp, #1418]
 1478 1442 4FF01003 		mov	r3, #16
 1479 1446 8DF89D35 		strb	r3, [sp, #1437]
 1480 144a 6FF03D03 		mvn	r3, #61
 1481 144e 8DF89435 		strb	r3, [sp, #1428]
 1482 1452 8DF89535 		strb	r3, [sp, #1429]
 1483 1456 8DF89635 		strb	r3, [sp, #1430]
 1484 145a 6FF01103 		mvn	r3, #17
 1485 145e 8DF89B35 		strb	r3, [sp, #1435]
 1486 1462 6FF06D03 		mvn	r3, #109
 1487 1466 8DF8A135 		strb	r3, [sp, #1441]
 1488 146a 8DF8A235 		strb	r3, [sp, #1442]
 1489 146e 6FF01103 		mvn	r3, #17
 1490 1472 8DF8A335 		strb	r3, [sp, #1443]
 1491 1476 6FF06903 		mvn	r3, #105
 1492 147a 4FF0300E 		mov	lr, #48
 1493 147e 8DF88EE5 		strb	lr, [sp, #1422]
 1494 1482 8DF88FE5 		strb	lr, [sp, #1423]
 1495 1486 8DF890E5 		strb	lr, [sp, #1424]
 1496 148a 8DF891E5 		strb	lr, [sp, #1425]
 1497 148e 8DF8ADE5 		strb	lr, [sp, #1453]
 1498 1492 8DF8AEE5 		strb	lr, [sp, #1454]
 1499 1496 8DF8AFE5 		strb	lr, [sp, #1455]
 1500 149a 8DF892C5 		strb	ip, [sp, #1426]
 1501 149e 8DF893C5 		strb	ip, [sp, #1427]
 1502 14a2 8DF898C5 		strb	ip, [sp, #1432]
 1503 14a6 8DF899C5 		strb	ip, [sp, #1433]
 1504 14aa 8DF89AC5 		strb	ip, [sp, #1434]
 1505 14ae 8DF8A4C5 		strb	ip, [sp, #1444]
 1506 14b2 8DF8A9C5 		strb	ip, [sp, #1449]
 1507 14b6 8DF8AAC5 		strb	ip, [sp, #1450]
 1508 14ba 8DF8ABC5 		strb	ip, [sp, #1451]
ARM GAS  C:\Users\info\AppData\Local\Temp\ccrImvS9.s 			page 29


 1509 14be 8DF89715 		strb	r1, [sp, #1431]
 1510 14c2 8DF8AC15 		strb	r1, [sp, #1452]
 1511 14c6 8DF89E65 		strb	r6, [sp, #1438]
 1512 14ca 8DF89F65 		strb	r6, [sp, #1439]
 1513 14ce 8DF8B015 		strb	r1, [sp, #1456]
 1514 14d2 8DF8A035 		strb	r3, [sp, #1440]
 1515 14d6 4FF03803 		mov	r3, #56
 1516 14da 8DF89C35 		strb	r3, [sp, #1436]
 1517 14de 8DF8A635 		strb	r3, [sp, #1446]
 1518 14e2 8DF8A735 		strb	r3, [sp, #1447]
 1519 14e6 4FF04403 		mov	r3, #68
 1520 14ea 8DF8A535 		strb	r3, [sp, #1445]
 1521 14ee 8DF8A835 		strb	r3, [sp, #1448]
 1522 14f2 4FF00203 		mov	r3, #2
 1523 14f6 8DF8B135 		strb	r3, [sp, #1457]
 1524 14fa 6FF00F03 		mvn	r3, #15
 1525 14fe 8DF8B335 		strb	r3, [sp, #1459]
 1526 1502 4FF07C03 		mov	r3, #124
 1527 1506 8DF8CE35 		strb	r3, [sp, #1486]
 1528 150a 6FF03903 		mvn	r3, #57
 1529 150e 8DF8CF35 		strb	r3, [sp, #1487]
 1530 1512 4FF01E03 		mov	r3, #30
 1531 1516 8DF8B235 		strb	r3, [sp, #1458]
 1532 151a 4FF00603 		mov	r3, #6
 1533 151e 8DF8DBC5 		strb	ip, [sp, #1499]
 1534 1522 8DF8B515 		strb	r1, [sp, #1461]
 1535 1526 8DF8D615 		strb	r1, [sp, #1494]
 1536 152a 8DF8D715 		strb	r1, [sp, #1495]
 1537 152e 8DF8DA15 		strb	r1, [sp, #1498]
 1538 1532 8DF8DF15 		strb	r1, [sp, #1503]
 1539 1536 8DF8BA35 		strb	r3, [sp, #1466]
 1540 153a 8DF8C1A5 		strb	r10, [sp, #1473]
 1541 153e 8DF8C845 		strb	r4, [sp, #1480]
 1542 1542 8DF8C945 		strb	r4, [sp, #1481]
 1543 1546 8DF8CA45 		strb	r4, [sp, #1482]
 1544 154a 8DF8CB45 		strb	r4, [sp, #1483]
 1545 154e 8DF8CD45 		strb	r4, [sp, #1485]
 1546 1552 8DF8D145 		strb	r4, [sp, #1489]
 1547 1556 8DF8D345 		strb	r4, [sp, #1491]
 1548 155a 8DF8E345 		strb	r4, [sp, #1507]
 1549 155e 8DF8B4B5 		strb	fp, [sp, #1460]
 1550 1562 8DF8DC65 		strb	r6, [sp, #1500]
 1551 1566 8DF8DD65 		strb	r6, [sp, #1501]
 1552 156a 8DF8DE65 		strb	r6, [sp, #1502]
 1553 156e 8DF8E445 		strb	r4, [sp, #1508]
 1554 1572 8DF8BB35 		strb	r3, [sp, #1467]
 1555 1576 4FF06003 		mov	r3, #96
 1556 157a 8DF8BF35 		strb	r3, [sp, #1471]
 1557 157e 8DF8C035 		strb	r3, [sp, #1472]
 1558 1582 4FF00C03 		mov	r3, #12
 1559 1586 8DF8D035 		strb	r3, [sp, #1488]
 1560 158a 4FF00803 		mov	r3, #8
 1561 158e 8DF8E035 		strb	r3, [sp, #1504]
 1562 1592 8DF8E135 		strb	r3, [sp, #1505]
 1563 1596 8DF8E235 		strb	r3, [sp, #1506]
 1564 159a 4FF00203 		mov	r3, #2
 1565 159e 8DF8E735 		strb	r3, [sp, #1511]
ARM GAS  C:\Users\info\AppData\Local\Temp\ccrImvS9.s 			page 30


 1566 15a2 8DF8ED35 		strb	r3, [sp, #1517]
 1567 15a6 4FF01E03 		mov	r3, #30
 1568 15aa 8DF8EE35 		strb	r3, [sp, #1518]
 1569 15ae 4FF00603 		mov	r3, #6
 1570 15b2 8DF8EF35 		strb	r3, [sp, #1519]
 1571 15b6 8DF8F035 		strb	r3, [sp, #1520]
 1572 15ba 6FF07B03 		mvn	r3, #123
 1573 15be 8DF8F235 		strb	r3, [sp, #1522]
 1574 15c2 6FF03B03 		mvn	r3, #59
 1575 15c6 8DF8F335 		strb	r3, [sp, #1523]
 1576 15ca 8DF8F435 		strb	r3, [sp, #1524]
 1577 15ce 4FF00603 		mov	r3, #6
 1578 15d2 8DF8FB35 		strb	r3, [sp, #1531]
 1579 15d6 8DF8FC35 		strb	r3, [sp, #1532]
 1580 15da 4FF00203 		mov	r3, #2
 1581 15de 8DF8E615 		strb	r1, [sp, #1510]
 1582 15e2 8DF8E815 		strb	r1, [sp, #1512]
 1583 15e6 8DF8EB15 		strb	r1, [sp, #1515]
 1584 15ea 8DF8EC15 		strb	r1, [sp, #1516]
 1585 15ee 8DF8F115 		strb	r1, [sp, #1521]
 1586 15f2 8DF8F515 		strb	r1, [sp, #1525]
 1587 15f6 8DF8F815 		strb	r1, [sp, #1528]
 1588 15fa 8DF8FA15 		strb	r1, [sp, #1530]
 1589 15fe 8DF8FD15 		strb	r1, [sp, #1533]
 1590 1602 8DF8E545 		strb	r4, [sp, #1509]
 1591 1606 8DF8F9B5 		strb	fp, [sp, #1529]
 1592 160a 8DF8E9A5 		strb	r10, [sp, #1513]
 1593 160e 8DF8EAA5 		strb	r10, [sp, #1514]
 1594 1612 8DF8FEA5 		strb	r10, [sp, #1534]
 1595 1616 8DF8FFA5 		strb	r10, [sp, #1535]
 1596 161a 8DF800A6 		strb	r10, [sp, #1536]
 1597 161e 8DF80116 		strb	r1, [sp, #1537]
 1598 1622 8DF80536 		strb	r3, [sp, #1541]
 1599 1626 4FF00403 		mov	r3, #4
 1600 162a 8DF8F635 		strb	r3, [sp, #1526]
 1601 162e 8DF8F735 		strb	r3, [sp, #1527]
 1602 1632 4FF00203 		mov	r3, #2
 1603 1636 8DF80636 		strb	r3, [sp, #1542]
 1604 163a 4FF00603 		mov	r3, #6
 1605 163e 8DF80736 		strb	r3, [sp, #1543]
 1606 1642 8DF80836 		strb	r3, [sp, #1544]
 1607 1646 8DF80936 		strb	r3, [sp, #1545]
 1608 164a 4FF07C03 		mov	r3, #124
 1609 164e 8DF80A36 		strb	r3, [sp, #1546]
 1610 1652 4FF04403 		mov	r3, #68
 1611 1656 8DF80B36 		strb	r3, [sp, #1547]
 1612 165a 4FF00603 		mov	r3, #6
 1613 165e 8DF81336 		strb	r3, [sp, #1555]
 1614 1662 8DF81436 		strb	r3, [sp, #1556]
 1615 1666 8DF81536 		strb	r3, [sp, #1557]
 1616 166a 4FF04403 		mov	r3, #68
 1617 166e 8DF81636 		strb	r3, [sp, #1558]
 1618 1672 8DF81836 		strb	r3, [sp, #1560]
 1619 1676 8DF81936 		strb	r3, [sp, #1561]
 1620 167a 8DF81B36 		strb	r3, [sp, #1563]
 1621 167e 4FF00C03 		mov	r3, #12
 1622 1682 8DF82636 		strb	r3, [sp, #1574]
ARM GAS  C:\Users\info\AppData\Local\Temp\ccrImvS9.s 			page 31


 1623 1686 4FF06C03 		mov	r3, #108
 1624 168a A822     		movs	r2, #168
 1625 168c 8DF802C6 		strb	ip, [sp, #1538]
 1626 1690 8DF811C6 		strb	ip, [sp, #1553]
 1627 1694 8DF80316 		strb	r1, [sp, #1539]
 1628 1698 8DF80416 		strb	r1, [sp, #1540]
 1629 169c 8DF80C16 		strb	r1, [sp, #1548]
 1630 16a0 8DF80F16 		strb	r1, [sp, #1551]
 1631 16a4 8DF81016 		strb	r1, [sp, #1552]
 1632 16a8 8DF81216 		strb	r1, [sp, #1554]
 1633 16ac 8DF81716 		strb	r1, [sp, #1559]
 1634 16b0 8DF81A16 		strb	r1, [sp, #1562]
 1635 16b4 8DF81C26 		strb	r2, [sp, #1564]
 1636 16b8 8DF81D26 		strb	r2, [sp, #1565]
 1637 16bc 8DF80D66 		strb	r6, [sp, #1549]
 1638 16c0 8DF80E66 		strb	r6, [sp, #1550]
 1639 16c4 8DF82746 		strb	r4, [sp, #1575]
 1640 16c8 8DF81E26 		strb	r2, [sp, #1566]
 1641 16cc 8DF82336 		strb	r3, [sp, #1571]
 1642 16d0 4FF05A03 		mov	r3, #90
 1643 16d4 8DF82436 		strb	r3, [sp, #1572]
 1644 16d8 4FF00603 		mov	r3, #6
 1645 16dc 8DF83D36 		strb	r3, [sp, #1597]
 1646 16e0 4FF06C03 		mov	r3, #108
 1647 16e4 8DF83036 		strb	r3, [sp, #1584]
 1648 16e8 4FF01203 		mov	r3, #18
 1649 16ec 8DF82D36 		strb	r3, [sp, #1581]
 1650 16f0 4FF05A03 		mov	r3, #90
 1651 16f4 8DF83236 		strb	r3, [sp, #1586]
 1652 16f8 4FF04803 		mov	r3, #72
 1653 16fc 8DF83836 		strb	r3, [sp, #1592]
 1654 1700 8DF83936 		strb	r3, [sp, #1593]
 1655 1704 4FF01203 		mov	r3, #18
 1656 1708 8DF83B36 		strb	r3, [sp, #1595]
 1657 170c 6FF06F03 		mvn	r3, #111
 1658 1710 8DF83E36 		strb	r3, [sp, #1598]
 1659 1714 4FF01203 		mov	r3, #18
 1660 1718 8DF84036 		strb	r3, [sp, #1600]
 1661 171c 8DF84436 		strb	r3, [sp, #1604]
 1662 1720 6FF07B03 		mvn	r3, #123
 1663 1724 8DF84636 		strb	r3, [sp, #1606]
 1664 1728 4FF04E03 		mov	r3, #78
 1665 172c 8DF82A36 		strb	r3, [sp, #1578]
 1666 1730 8DF84836 		strb	r3, [sp, #1608]
 1667 1734 4FF07E03 		mov	r3, #126
 1668 1738 8DF82B36 		strb	r3, [sp, #1579]
 1669 173c 8DF84236 		strb	r3, [sp, #1602]
 1670 1740 4FF05403 		mov	r3, #84
 1671 1744 4FF06608 		mov	r8, #102
 1672 1748 8DF829E6 		strb	lr, [sp, #1577]
 1673 174c 8DF843E6 		strb	lr, [sp, #1603]
 1674 1750 8DF847E6 		strb	lr, [sp, #1607]
 1675 1754 8DF81F26 		strb	r2, [sp, #1567]
 1676 1758 8DF82026 		strb	r2, [sp, #1568]
 1677 175c 8DF82126 		strb	r2, [sp, #1569]
 1678 1760 8DF82226 		strb	r2, [sp, #1570]
 1679 1764 8DF82826 		strb	r2, [sp, #1576]
ARM GAS  C:\Users\info\AppData\Local\Temp\ccrImvS9.s 			page 32


 1680 1768 8DF83126 		strb	r2, [sp, #1585]
 1681 176c 8DF83C26 		strb	r2, [sp, #1596]
 1682 1770 8DF83F26 		strb	r2, [sp, #1599]
 1683 1774 8DF84526 		strb	r2, [sp, #1605]
 1684 1778 8DF82E46 		strb	r4, [sp, #1582]
 1685 177c 8DF83A46 		strb	r4, [sp, #1594]
 1686 1780 8DF84A46 		strb	r4, [sp, #1610]
 1687 1784 8DF82F86 		strb	r8, [sp, #1583]
 1688 1788 8DF83436 		strb	r3, [sp, #1588]
 1689 178c 4FF02403 		mov	r3, #36
 1690 1790 8DF83536 		strb	r3, [sp, #1589]
 1691 1794 6FF06F03 		mvn	r3, #111
 1692 1798 8DF85236 		strb	r3, [sp, #1618]
 1693 179c 4FF05403 		mov	r3, #84
 1694 17a0 8DF85336 		strb	r3, [sp, #1619]
 1695 17a4 4FF07803 		mov	r3, #120
 1696 17a8 8DF85436 		strb	r3, [sp, #1620]
 1697 17ac 4FF04803 		mov	r3, #72
 1698 17b0 8DF85636 		strb	r3, [sp, #1622]
 1699 17b4 4FF07803 		mov	r3, #120
 1700 17b8 8DF85736 		strb	r3, [sp, #1623]
 1701 17bc 4FF06C03 		mov	r3, #108
 1702 17c0 8DF85836 		strb	r3, [sp, #1624]
 1703 17c4 4FF01203 		mov	r3, #18
 1704 17c8 8DF85B36 		strb	r3, [sp, #1627]
 1705 17cc 4FF06C03 		mov	r3, #108
 1706 17d0 8DF85D36 		strb	r3, [sp, #1629]
 1707 17d4 4FF05403 		mov	r3, #84
 1708 17d8 8DF86036 		strb	r3, [sp, #1632]
 1709 17dc 6FF06F03 		mvn	r3, #111
 1710 17e0 8DF86136 		strb	r3, [sp, #1633]
 1711 17e4 4FF04E03 		mov	r3, #78
 1712 17e8 4FF07209 		mov	r9, #114
 1713 17ec 8DF84C26 		strb	r2, [sp, #1612]
 1714 17f0 8DF84D26 		strb	r2, [sp, #1613]
 1715 17f4 8DF84E26 		strb	r2, [sp, #1614]
 1716 17f8 8DF84F26 		strb	r2, [sp, #1615]
 1717 17fc 8DF85026 		strb	r2, [sp, #1616]
 1718 1800 8DF85126 		strb	r2, [sp, #1617]
 1719 1804 8DF85526 		strb	r2, [sp, #1621]
 1720 1808 8DF85A26 		strb	r2, [sp, #1626]
 1721 180c 8DF86226 		strb	r2, [sp, #1634]
 1722 1810 8DF86626 		strb	r2, [sp, #1638]
 1723 1814 8DF83386 		strb	r8, [sp, #1587]
 1724 1818 8DF83686 		strb	r8, [sp, #1590]
 1725 181c 8DF84B86 		strb	r8, [sp, #1611]
 1726 1820 8DF84996 		strb	r9, [sp, #1609]
 1727 1824 8DF85996 		strb	r9, [sp, #1625]
 1728 1828 8DF85C46 		strb	r4, [sp, #1628]
 1729 182c 8DF85E96 		strb	r9, [sp, #1630]
 1730 1830 8DF85F86 		strb	r8, [sp, #1631]
 1731 1834 8DF86396 		strb	r9, [sp, #1635]
 1732 1838 8DF86546 		strb	r4, [sp, #1637]
 1733 183c 8DF867E6 		strb	lr, [sp, #1639]
 1734 1840 8DF86836 		strb	r3, [sp, #1640]
 1735 1844 4FF07E03 		mov	r3, #126
 1736 1848 8DF86936 		strb	r3, [sp, #1641]
ARM GAS  C:\Users\info\AppData\Local\Temp\ccrImvS9.s 			page 33


 1737 184c 4FF01203 		mov	r3, #18
 1738 1850 8DF86B36 		strb	r3, [sp, #1643]
 1739 1854 4FF02A03 		mov	r3, #42
 1740 1858 8DF86436 		strb	r3, [sp, #1636]
 1741 185c 4FF06C03 		mov	r3, #108
 1742 1860 8DF86E36 		strb	r3, [sp, #1646]
 1743 1864 4FF05403 		mov	r3, #84
 1744 1868 8DF87136 		strb	r3, [sp, #1649]
 1745 186c 4FF05A03 		mov	r3, #90
 1746 1870 8DF87336 		strb	r3, [sp, #1651]
 1747 1874 4FF07E03 		mov	r3, #126
 1748 1878 8DF87636 		strb	r3, [sp, #1654]
 1749 187c 4FF04E03 		mov	r3, #78
 1750 1880 8DF87836 		strb	r3, [sp, #1656]
 1751 1884 4FF02A03 		mov	r3, #42
 1752 1888 8DF87C36 		strb	r3, [sp, #1660]
 1753 188c 4FF04E03 		mov	r3, #78
 1754 1890 8DF88236 		strb	r3, [sp, #1666]
 1755 1894 4FF07E03 		mov	r3, #126
 1756 1898 8DF88336 		strb	r3, [sp, #1667]
 1757 189c 4FF06C03 		mov	r3, #108
 1758 18a0 8DF88536 		strb	r3, [sp, #1669]
 1759 18a4 4FF05403 		mov	r3, #84
 1760 18a8 8DF88736 		strb	r3, [sp, #1671]
 1761 18ac 4FF04E03 		mov	r3, #78
 1762 18b0 8DF88836 		strb	r3, [sp, #1672]
 1763 18b4 6FF06303 		mvn	r3, #99
 1764 18b8 8DF87EE6 		strb	lr, [sp, #1662]
 1765 18bc 8DF881E6 		strb	lr, [sp, #1665]
 1766 18c0 8DF886E6 		strb	lr, [sp, #1670]
 1767 18c4 8DF86F26 		strb	r2, [sp, #1647]
 1768 18c8 8DF87226 		strb	r2, [sp, #1650]
 1769 18cc 8DF87A26 		strb	r2, [sp, #1658]
 1770 18d0 8DF88026 		strb	r2, [sp, #1664]
 1771 18d4 8DF86C46 		strb	r4, [sp, #1644]
 1772 18d8 8DF86D86 		strb	r8, [sp, #1645]
 1773 18dc 8DF87096 		strb	r9, [sp, #1648]
 1774 18e0 8DF87486 		strb	r8, [sp, #1652]
 1775 18e4 8DF87546 		strb	r4, [sp, #1653]
 1776 18e8 8DF87746 		strb	r4, [sp, #1655]
 1777 18ec 8DF87996 		strb	r9, [sp, #1657]
 1778 18f0 8DF87B96 		strb	r9, [sp, #1659]
 1779 18f4 8DF87D46 		strb	r4, [sp, #1661]
 1780 18f8 8DF87F86 		strb	r8, [sp, #1663]
 1781 18fc 8DF88936 		strb	r3, [sp, #1673]
 1782 1900 6FF02703 		mvn	r3, #39
 1783 1904 8DF8A536 		strb	r3, [sp, #1701]
 1784 1908 4FF04803 		mov	r3, #72
 1785 190c 8DF89136 		strb	r3, [sp, #1681]
 1786 1910 4FF05403 		mov	r3, #84
 1787 1914 8DF89236 		strb	r3, [sp, #1682]
 1788 1918 4FF07E03 		mov	r3, #126
 1789 191c 8DF89336 		strb	r3, [sp, #1683]
 1790 1920 6FF06F03 		mvn	r3, #111
 1791 1924 8DF89636 		strb	r3, [sp, #1686]
 1792 1928 4FF05403 		mov	r3, #84
 1793 192c 8DF89736 		strb	r3, [sp, #1687]
ARM GAS  C:\Users\info\AppData\Local\Temp\ccrImvS9.s 			page 34


 1794 1930 4FF07803 		mov	r3, #120
 1795 1934 8DF89836 		strb	r3, [sp, #1688]
 1796 1938 4FF06C03 		mov	r3, #108
 1797 193c 8DF89B36 		strb	r3, [sp, #1691]
 1798 1940 4FF02A03 		mov	r3, #42
 1799 1944 8DF89C36 		strb	r3, [sp, #1692]
 1800 1948 4FF05A03 		mov	r3, #90
 1801 194c 8DF89E36 		strb	r3, [sp, #1694]
 1802 1950 6FF07B03 		mvn	r3, #123
 1803 1954 8DF8A036 		strb	r3, [sp, #1696]
 1804 1958 4FF02A03 		mov	r3, #42
 1805 195c 8DF8A336 		strb	r3, [sp, #1699]
 1806 1960 4FF04E03 		mov	r3, #78
 1807 1964 8DF8A836 		strb	r3, [sp, #1704]
 1808 1968 4FF01203 		mov	r3, #18
 1809 196c 8DF8A936 		strb	r3, [sp, #1705]
 1810 1970 4FF04E03 		mov	r3, #78
 1811 1974 8DF89DE6 		strb	lr, [sp, #1693]
 1812 1978 8DF8A1E6 		strb	lr, [sp, #1697]
 1813 197c 8DF88A26 		strb	r2, [sp, #1674]
 1814 1980 8DF88B26 		strb	r2, [sp, #1675]
 1815 1984 8DF88C26 		strb	r2, [sp, #1676]
 1816 1988 8DF88D26 		strb	r2, [sp, #1677]
 1817 198c 8DF88E26 		strb	r2, [sp, #1678]
 1818 1990 8DF88F26 		strb	r2, [sp, #1679]
 1819 1994 8DF89026 		strb	r2, [sp, #1680]
 1820 1998 8DF89526 		strb	r2, [sp, #1685]
 1821 199c 8DF89A26 		strb	r2, [sp, #1690]
 1822 19a0 8DF89F26 		strb	r2, [sp, #1695]
 1823 19a4 8DF8A426 		strb	r2, [sp, #1700]
 1824 19a8 8DF8A626 		strb	r2, [sp, #1702]
 1825 19ac 8DF8AA26 		strb	r2, [sp, #1706]
 1826 19b0 8DF89446 		strb	r4, [sp, #1684]
 1827 19b4 8DF89986 		strb	r8, [sp, #1689]
 1828 19b8 8DF8A296 		strb	r9, [sp, #1698]
 1829 19bc 8DF8AD26 		strb	r2, [sp, #1709]
 1830 19c0 8DF8AF36 		strb	r3, [sp, #1711]
 1831 19c4 4FF01203 		mov	r3, #18
 1832 19c8 8DF8B036 		strb	r3, [sp, #1712]
 1833 19cc 4FF06C03 		mov	r3, #108
 1834 19d0 8DF8B236 		strb	r3, [sp, #1714]
 1835 19d4 6FF01B03 		mvn	r3, #27
 1836 19d8 8DF8AB36 		strb	r3, [sp, #1707]
 1837 19dc 6FF05D03 		mvn	r3, #93
 1838 19e0 8DF8AC36 		strb	r3, [sp, #1708]
 1839 19e4 4FF02A03 		mov	r3, #42
 1840 19e8 8DF8B336 		strb	r3, [sp, #1715]
 1841 19ec 4FF05403 		mov	r3, #84
 1842 19f0 8DF8B436 		strb	r3, [sp, #1716]
 1843 19f4 8DF8B536 		strb	r3, [sp, #1717]
 1844 19f8 6FF07B03 		mvn	r3, #123
 1845 19fc 8DF8B836 		strb	r3, [sp, #1720]
 1846 1a00 4FF02A03 		mov	r3, #42
 1847 1a04 8DF8BB36 		strb	r3, [sp, #1723]
 1848 1a08 6FF06303 		mvn	r3, #99
 1849 1a0c 8DF8BE36 		strb	r3, [sp, #1726]
 1850 1a10 4FF02A03 		mov	r3, #42
ARM GAS  C:\Users\info\AppData\Local\Temp\ccrImvS9.s 			page 35


 1851 1a14 8DF8C136 		strb	r3, [sp, #1729]
 1852 1a18 4FF00C03 		mov	r3, #12
 1853 1a1c 8DF8C436 		strb	r3, [sp, #1732]
 1854 1a20 4FF05403 		mov	r3, #84
 1855 1a24 8DF8C536 		strb	r3, [sp, #1733]
 1856 1a28 4FF04803 		mov	r3, #72
 1857 1a2c 8DF8C636 		strb	r3, [sp, #1734]
 1858 1a30 4FF05A03 		mov	r3, #90
 1859 1a34 8DF8C736 		strb	r3, [sp, #1735]
 1860 1a38 4FF07803 		mov	r3, #120
 1861 1a3c 8DF8C836 		strb	r3, [sp, #1736]
 1862 1a40 4FF05A03 		mov	r3, #90
 1863 1a44 8DF8B9E6 		strb	lr, [sp, #1721]
 1864 1a48 8DF8B126 		strb	r2, [sp, #1713]
 1865 1a4c 8DF8B726 		strb	r2, [sp, #1719]
 1866 1a50 8DF8BC26 		strb	r2, [sp, #1724]
 1867 1a54 8DF8BF26 		strb	r2, [sp, #1727]
 1868 1a58 8DF8C326 		strb	r2, [sp, #1731]
 1869 1a5c 8DF8CC26 		strb	r2, [sp, #1740]
 1870 1a60 8DF8B696 		strb	r9, [sp, #1718]
 1871 1a64 8DF8BA96 		strb	r9, [sp, #1722]
 1872 1a68 8DF8C096 		strb	r9, [sp, #1728]
 1873 1a6c 8DF8C246 		strb	r4, [sp, #1730]
 1874 1a70 8DF8C996 		strb	r9, [sp, #1737]
 1875 1a74 8DF8CA46 		strb	r4, [sp, #1738]
 1876 1a78 8DF8CB86 		strb	r8, [sp, #1739]
 1877 1a7c 8DF8CD86 		strb	r8, [sp, #1741]
 1878 1a80 8DF8CE46 		strb	r4, [sp, #1742]
 1879 1a84 8DF8CF36 		strb	r3, [sp, #1743]
 1880 1a88 4FF05403 		mov	r3, #84
 1881 1a8c 8DF8D036 		strb	r3, [sp, #1744]
 1882 1a90 4FF06C03 		mov	r3, #108
 1883 1a94 8DF8D336 		strb	r3, [sp, #1747]
 1884 1a98 6FF02103 		mvn	r3, #33
 1885 1a9c 8DF8BD36 		strb	r3, [sp, #1725]
 1886 1aa0 4FF02A03 		mov	r3, #42
 1887 1aa4 8DF8D636 		strb	r3, [sp, #1750]
 1888 1aa8 8DF8DB36 		strb	r3, [sp, #1755]
 1889 1aac 4FF04E03 		mov	r3, #78
 1890 1ab0 8DF8DF36 		strb	r3, [sp, #1759]
 1891 1ab4 4FF07E03 		mov	r3, #126
 1892 1ab8 8DF8E036 		strb	r3, [sp, #1760]
 1893 1abc 4FF01203 		mov	r3, #18
 1894 1ac0 8DF8E236 		strb	r3, [sp, #1762]
 1895 1ac4 4FF06C03 		mov	r3, #108
 1896 1ac8 8DF8E536 		strb	r3, [sp, #1765]
 1897 1acc 4FF04E03 		mov	r3, #78
 1898 1ad0 8DF8EC36 		strb	r3, [sp, #1772]
 1899 1ad4 4FF00C03 		mov	r3, #12
 1900 1ad8 8DF8ED36 		strb	r3, [sp, #1773]
 1901 1adc 4FF06C03 		mov	r3, #108
 1902 1ae0 8DF8F136 		strb	r3, [sp, #1777]
 1903 1ae4 4FF04E03 		mov	r3, #78
 1904 1ae8 8DF8DEE6 		strb	lr, [sp, #1758]
 1905 1aec 8DF8EBE6 		strb	lr, [sp, #1771]
 1906 1af0 8DF8D426 		strb	r2, [sp, #1748]
 1907 1af4 8DF8D926 		strb	r2, [sp, #1753]
ARM GAS  C:\Users\info\AppData\Local\Temp\ccrImvS9.s 			page 36


 1908 1af8 8DF8DD26 		strb	r2, [sp, #1757]
 1909 1afc 8DF8E626 		strb	r2, [sp, #1766]
 1910 1b00 8DF8EA26 		strb	r2, [sp, #1770]
 1911 1b04 8DF8D186 		strb	r8, [sp, #1745]
 1912 1b08 8DF8D296 		strb	r9, [sp, #1746]
 1913 1b0c 8DF8D596 		strb	r9, [sp, #1749]
 1914 1b10 8DF8D896 		strb	r9, [sp, #1752]
 1915 1b14 8DF8DA96 		strb	r9, [sp, #1754]
 1916 1b18 8DF8DC46 		strb	r4, [sp, #1756]
 1917 1b1c 8DF8E346 		strb	r4, [sp, #1763]
 1918 1b20 8DF8E486 		strb	r8, [sp, #1764]
 1919 1b24 8DF8E886 		strb	r8, [sp, #1768]
 1920 1b28 8DF8E946 		strb	r4, [sp, #1769]
 1921 1b2c 8DF8EE86 		strb	r8, [sp, #1774]
 1922 1b30 8DF8EF46 		strb	r4, [sp, #1775]
 1923 1b34 8DF8F2E6 		strb	lr, [sp, #1778]
 1924 1b38 8DF8F336 		strb	r3, [sp, #1779]
 1925 1b3c 4FF02403 		mov	r3, #36
 1926 1b40 8DF8F436 		strb	r3, [sp, #1780]
 1927 1b44 4FF02A03 		mov	r3, #42
 1928 1b48 8DF8F736 		strb	r3, [sp, #1783]
 1929 1b4c 4FF01E03 		mov	r3, #30
 1930 1b50 8DF8FC36 		strb	r3, [sp, #1788]
 1931 1b54 4FF05403 		mov	r3, #84
 1932 1b58 8DF8FD36 		strb	r3, [sp, #1789]
 1933 1b5c 4FF00C03 		mov	r3, #12
 1934 1b60 8DF8FF36 		strb	r3, [sp, #1791]
 1935 1b64 6FF06303 		mvn	r3, #99
 1936 1b68 8DF80137 		strb	r3, [sp, #1793]
 1937 1b6c 4FF02403 		mov	r3, #36
 1938 1b70 8DF80337 		strb	r3, [sp, #1795]
 1939 1b74 4FF05403 		mov	r3, #84
 1940 1b78 8DF80437 		strb	r3, [sp, #1796]
 1941 1b7c 8DF80537 		strb	r3, [sp, #1797]
 1942 1b80 4FF01203 		mov	r3, #18
 1943 1b84 8DF80637 		strb	r3, [sp, #1798]
 1944 1b88 4FF07803 		mov	r3, #120
 1945 1b8c 8DF80937 		strb	r3, [sp, #1801]
 1946 1b90 4FF00C03 		mov	r3, #12
 1947 1b94 8DF80A37 		strb	r3, [sp, #1802]
 1948 1b98 4FF04203 		mov	r3, #66
 1949 1b9c 8DF80837 		strb	r3, [sp, #1800]
 1950 1ba0 4FF03C03 		mov	r3, #60
 1951 1ba4 8DF8F9E6 		strb	lr, [sp, #1785]
 1952 1ba8 8DF8F526 		strb	r2, [sp, #1781]
 1953 1bac 8DF8FB26 		strb	r2, [sp, #1787]
 1954 1bb0 8DF80227 		strb	r2, [sp, #1794]
 1955 1bb4 8DF80727 		strb	r2, [sp, #1799]
 1956 1bb8 8DF80C27 		strb	r2, [sp, #1804]
 1957 1bbc 8DF80E27 		strb	r2, [sp, #1806]
 1958 1bc0 8DF80F27 		strb	r2, [sp, #1807]
 1959 1bc4 8DF81027 		strb	r2, [sp, #1808]
 1960 1bc8 8DF81127 		strb	r2, [sp, #1809]
 1961 1bcc 8DF81227 		strb	r2, [sp, #1810]
 1962 1bd0 8DF81327 		strb	r2, [sp, #1811]
 1963 1bd4 8DF81427 		strb	r2, [sp, #1812]
 1964 1bd8 8DF8F696 		strb	r9, [sp, #1782]
ARM GAS  C:\Users\info\AppData\Local\Temp\ccrImvS9.s 			page 37


 1965 1bdc 8DF8F846 		strb	r4, [sp, #1784]
 1966 1be0 8DF8FA86 		strb	r8, [sp, #1786]
 1967 1be4 8DF8FE86 		strb	r8, [sp, #1790]
 1968 1be8 8DF80047 		strb	r4, [sp, #1792]
 1969 1bec 8DF80B37 		strb	r3, [sp, #1803]
 1970 1bf0 6FF05103 		mvn	r3, #81
 1971 1bf4 8DF80D37 		strb	r3, [sp, #1805]
 1972 1bf8 4FF0FF33 		mov	r3, #-1
  87:main.c        ****         
  88:main.c        ****     /* Turn on LED to indicate execution */
  89:main.c        ****     pin_led_Write(1);
 1973              		.loc 1 89 0
 1974 1bfc 0120     		movs	r0, #1
  86:main.c        ****         
 1975              		.loc 1 86 0
 1976 1bfe 8DF81537 		strb	r3, [sp, #1813]
 1977              		.loc 1 89 0
 1978 1c02 FFF7FEFF 		bl	pin_led_Write
 1979              	.LVL19:
  90:main.c        **** 
  91:main.c        ****     /* Start execution */
  92:main.c        ****     execute(ram, vram, &snd, &tmr, &vga_update_flag);
 1980              		.loc 1 92 0
 1981 1c06 084B     		ldr	r3, .L12
 1982 1c08 084A     		ldr	r2, .L12+4
 1983 1c0a 04A8     		add	r0, sp, #16
 1984 1c0c 0092     		str	r2, [sp]
 1985 1c0e 0849     		ldr	r1, .L12+8
 1986 1c10 5A1C     		adds	r2, r3, #1
 1987 1c12 FFF7FEFF 		bl	execute
 1988              	.LVL20:
  93:main.c        ****     
  94:main.c        ****     /* Normally we would never get here */
  95:main.c        ****     /* Turn off LED if invalid instruction received */
  96:main.c        ****     pin_led_Write(0);
 1989              		.loc 1 96 0
 1990 1c16 0020     		movs	r0, #0
 1991 1c18 FFF7FEFF 		bl	pin_led_Write
 1992              	.LVL21:
  97:main.c        ****     return 0;
  98:main.c        **** }...
 1993              		.loc 1 98 0
 1994 1c1c 0020     		movs	r0, #0
 1995 1c1e 0DF5805D 		add	sp, sp, #4096
 1996 1c22 05B0     		add	sp, sp, #20
 1997              		.cfi_def_cfa_offset 36
 1998              		@ sp needed
 1999 1c24 BDE8F08F 		pop	{r4, r5, r6, r7, r8, r9, r10, fp, pc}
 2000              	.L13:
 2001              		.align	2
 2002              	.L12:
 2003 1c28 00000000 		.word	.LANCHOR0
 2004 1c2c 00000000 		.word	.LANCHOR1
 2005 1c30 00000000 		.word	vram
 2006              		.cfi_endproc
 2007              	.LFE65:
 2008              		.size	main, .-main
ARM GAS  C:\Users\info\AppData\Local\Temp\ccrImvS9.s 			page 38


 2009              		.global	vga_update_flag
 2010              		.comm	dma_td,1,1
 2011              		.comm	dma_chan,1,1
 2012              		.comm	vram,256,8
 2013              		.global	tmr
 2014              		.global	snd
 2015              		.data
 2016              		.set	.LANCHOR1,. + 0
 2017              		.type	vga_update_flag, %object
 2018              		.size	vga_update_flag, 1
 2019              	vga_update_flag:
 2020 0000 01       		.byte	1
 2021              		.bss
 2022              		.set	.LANCHOR0,. + 0
 2023              		.type	tmr, %object
 2024              		.size	tmr, 1
 2025              	tmr:
 2026 0000 00       		.space	1
 2027              		.type	snd, %object
 2028              		.size	snd, 1
 2029              	snd:
 2030 0001 00       		.space	1
 2031              		.text
 2032              	.Letext0:
 2033              		.file 2 "c:\\program files (x86)\\cypress\\psoc creator\\4.2\\psoc creator\\import\\gnu\\arm\\5.4.
 2034              		.file 3 "c:\\program files (x86)\\cypress\\psoc creator\\4.2\\psoc creator\\import\\gnu\\arm\\5.4.
 2035              		.file 4 "Generated_Source\\PSoC5/cytypes.h"
 2036              		.file 5 "Generated_Source\\PSoC5/core_cm3.h"
 2037              		.file 6 "chip8.h"
 2038              		.file 7 "Generated_Source\\PSoC5/isr_timer.h"
 2039              		.file 8 "Generated_Source\\PSoC5/NEWLINE.h"
 2040              		.file 9 "Generated_Source\\PSoC5/CYDMAC.H"
 2041              		.file 10 "Generated_Source\\PSoC5/DMA_dma.h"
 2042              		.file 11 "Generated_Source\\PSoC5/HORIZ.h"
 2043              		.file 12 "Generated_Source\\PSoC5/VERT.h"
 2044              		.file 13 "Generated_Source\\PSoC5/HSYNC.h"
 2045              		.file 14 "Generated_Source\\PSoC5/VSYNC.h"
 2046              		.file 15 "Generated_Source\\PSoC5/random.h"
 2047              		.file 16 "Generated_Source\\PSoC5/pin_led.h"
 2048              		.section	.debug_info,"",%progbits
 2049              	.Ldebug_info0:
 2050 0000 94040000 		.4byte	0x494
 2051 0004 0400     		.2byte	0x4
 2052 0006 00000000 		.4byte	.Ldebug_abbrev0
 2053 000a 04       		.byte	0x4
 2054 000b 01       		.uleb128 0x1
 2055 000c 28000000 		.4byte	.LASF51
 2056 0010 0C       		.byte	0xc
 2057 0011 FB020000 		.4byte	.LASF52
 2058 0015 34020000 		.4byte	.LASF53
 2059 0019 00000000 		.4byte	.Ldebug_ranges0+0
 2060 001d 00000000 		.4byte	0
 2061 0021 00000000 		.4byte	.Ldebug_line0
 2062 0025 02       		.uleb128 0x2
 2063 0026 01       		.byte	0x1
 2064 0027 06       		.byte	0x6
 2065 0028 76030000 		.4byte	.LASF0
ARM GAS  C:\Users\info\AppData\Local\Temp\ccrImvS9.s 			page 39


 2066 002c 03       		.uleb128 0x3
 2067 002d 0E000000 		.4byte	.LASF4
 2068 0031 02       		.byte	0x2
 2069 0032 1D       		.byte	0x1d
 2070 0033 37000000 		.4byte	0x37
 2071 0037 02       		.uleb128 0x2
 2072 0038 01       		.byte	0x1
 2073 0039 08       		.byte	0x8
 2074 003a 64010000 		.4byte	.LASF1
 2075 003e 02       		.uleb128 0x2
 2076 003f 02       		.byte	0x2
 2077 0040 05       		.byte	0x5
 2078 0041 1E030000 		.4byte	.LASF2
 2079 0045 02       		.uleb128 0x2
 2080 0046 02       		.byte	0x2
 2081 0047 07       		.byte	0x7
 2082 0048 B1010000 		.4byte	.LASF3
 2083 004c 03       		.uleb128 0x3
 2084 004d B6000000 		.4byte	.LASF5
 2085 0051 02       		.byte	0x2
 2086 0052 3F       		.byte	0x3f
 2087 0053 57000000 		.4byte	0x57
 2088 0057 02       		.uleb128 0x2
 2089 0058 04       		.byte	0x4
 2090 0059 05       		.byte	0x5
 2091 005a D2000000 		.4byte	.LASF6
 2092 005e 02       		.uleb128 0x2
 2093 005f 04       		.byte	0x4
 2094 0060 07       		.byte	0x7
 2095 0061 9F010000 		.4byte	.LASF7
 2096 0065 02       		.uleb128 0x2
 2097 0066 08       		.byte	0x8
 2098 0067 05       		.byte	0x5
 2099 0068 00000000 		.4byte	.LASF8
 2100 006c 03       		.uleb128 0x3
 2101 006d 28030000 		.4byte	.LASF9
 2102 0071 02       		.byte	0x2
 2103 0072 5B       		.byte	0x5b
 2104 0073 77000000 		.4byte	0x77
 2105 0077 02       		.uleb128 0x2
 2106 0078 08       		.byte	0x8
 2107 0079 07       		.byte	0x7
 2108 007a 9E020000 		.4byte	.LASF10
 2109 007e 04       		.uleb128 0x4
 2110 007f 04       		.byte	0x4
 2111 0080 05       		.byte	0x5
 2112 0081 696E7400 		.ascii	"int\000"
 2113 0085 02       		.uleb128 0x2
 2114 0086 04       		.byte	0x4
 2115 0087 07       		.byte	0x7
 2116 0088 27020000 		.4byte	.LASF11
 2117 008c 03       		.uleb128 0x3
 2118 008d B5020000 		.4byte	.LASF12
 2119 0091 03       		.byte	0x3
 2120 0092 18       		.byte	0x18
 2121 0093 2C000000 		.4byte	0x2c
 2122 0097 03       		.uleb128 0x3
ARM GAS  C:\Users\info\AppData\Local\Temp\ccrImvS9.s 			page 40


 2123 0098 DA020000 		.4byte	.LASF13
 2124 009c 03       		.byte	0x3
 2125 009d 2C       		.byte	0x2c
 2126 009e 4C000000 		.4byte	0x4c
 2127 00a2 03       		.uleb128 0x3
 2128 00a3 09010000 		.4byte	.LASF14
 2129 00a7 03       		.byte	0x3
 2130 00a8 3C       		.byte	0x3c
 2131 00a9 6C000000 		.4byte	0x6c
 2132 00ad 05       		.uleb128 0x5
 2133 00ae 33030000 		.4byte	.LASF15
 2134 00b2 04       		.byte	0x4
 2135 00b3 E401     		.2byte	0x1e4
 2136 00b5 37000000 		.4byte	0x37
 2137 00b9 05       		.uleb128 0x5
 2138 00ba 0C020000 		.4byte	.LASF16
 2139 00be 04       		.byte	0x4
 2140 00bf E501     		.2byte	0x1e5
 2141 00c1 45000000 		.4byte	0x45
 2142 00c5 05       		.uleb128 0x5
 2143 00c6 13020000 		.4byte	.LASF17
 2144 00ca 04       		.byte	0x4
 2145 00cb E601     		.2byte	0x1e6
 2146 00cd 5E000000 		.4byte	0x5e
 2147 00d1 02       		.uleb128 0x2
 2148 00d2 04       		.byte	0x4
 2149 00d3 04       		.byte	0x4
 2150 00d4 4E010000 		.4byte	.LASF18
 2151 00d8 02       		.uleb128 0x2
 2152 00d9 08       		.byte	0x8
 2153 00da 04       		.byte	0x4
 2154 00db D8010000 		.4byte	.LASF19
 2155 00df 02       		.uleb128 0x2
 2156 00e0 01       		.byte	0x1
 2157 00e1 08       		.byte	0x8
 2158 00e2 02030000 		.4byte	.LASF20
 2159 00e6 05       		.uleb128 0x5
 2160 00e7 82010000 		.4byte	.LASF21
 2161 00eb 04       		.byte	0x4
 2162 00ec 8E02     		.2byte	0x28e
 2163 00ee F2000000 		.4byte	0xf2
 2164 00f2 06       		.uleb128 0x6
 2165 00f3 AD000000 		.4byte	0xad
 2166 00f7 02       		.uleb128 0x2
 2167 00f8 08       		.byte	0x8
 2168 00f9 04       		.byte	0x4
 2169 00fa 5A030000 		.4byte	.LASF22
 2170 00fe 02       		.uleb128 0x2
 2171 00ff 04       		.byte	0x4
 2172 0100 07       		.byte	0x7
 2173 0101 E2020000 		.4byte	.LASF23
 2174 0105 06       		.uleb128 0x6
 2175 0106 8C000000 		.4byte	0x8c
 2176 010a 07       		.uleb128 0x7
 2177 010b C9020000 		.4byte	.LASF24
 2178 010f 01       		.byte	0x1
 2179 0110 1E       		.byte	0x1e
ARM GAS  C:\Users\info\AppData\Local\Temp\ccrImvS9.s 			page 41


 2180 0111 00000000 		.4byte	.LFB63
 2181 0115 0C000000 		.4byte	.LFE63-.LFB63
 2182 0119 01       		.uleb128 0x1
 2183 011a 9C       		.byte	0x9c
 2184 011b 3C010000 		.4byte	0x13c
 2185 011f 08       		.uleb128 0x8
 2186 0120 08000000 		.4byte	.LVL0
 2187 0124 B2030000 		.4byte	0x3b2
 2188 0128 09       		.uleb128 0x9
 2189 0129 01       		.uleb128 0x1
 2190 012a 50       		.byte	0x50
 2191 012b 05       		.uleb128 0x5
 2192 012c 03       		.byte	0x3
 2193 012d 01000000 		.4byte	.LANCHOR0+1
 2194 0131 09       		.uleb128 0x9
 2195 0132 01       		.uleb128 0x1
 2196 0133 51       		.byte	0x51
 2197 0134 05       		.uleb128 0x5
 2198 0135 03       		.byte	0x3
 2199 0136 00000000 		.4byte	.LANCHOR0
 2200 013a 00       		.byte	0
 2201 013b 00       		.byte	0
 2202 013c 07       		.uleb128 0x7
 2203 013d E8010000 		.4byte	.LASF25
 2204 0141 01       		.byte	0x1
 2205 0142 30       		.byte	0x30
 2206 0143 00000000 		.4byte	.LFB64
 2207 0147 1C000000 		.4byte	.LFE64-.LFB64
 2208 014b 01       		.uleb128 0x1
 2209 014c 9C       		.byte	0x9c
 2210 014d 80010000 		.4byte	0x180
 2211 0151 08       		.uleb128 0x8
 2212 0152 0C000000 		.4byte	.LVL1
 2213 0156 BD030000 		.4byte	0x3bd
 2214 015a 09       		.uleb128 0x9
 2215 015b 01       		.uleb128 0x1
 2216 015c 50       		.byte	0x50
 2217 015d 05       		.uleb128 0x5
 2218 015e 03       		.byte	0x3
 2219 015f 00000000 		.4byte	dma_chan
 2220 0163 09       		.uleb128 0x9
 2221 0164 01       		.uleb128 0x1
 2222 0165 51       		.byte	0x51
 2223 0166 05       		.uleb128 0x5
 2224 0167 03       		.byte	0x3
 2225 0168 00000000 		.4byte	dma_td
 2226 016c 09       		.uleb128 0x9
 2227 016d 01       		.uleb128 0x1
 2228 016e 52       		.byte	0x52
 2229 016f 05       		.uleb128 0x5
 2230 0170 03       		.byte	0x3
 2231 0171 00000000 		.4byte	.LANCHOR1
 2232 0175 09       		.uleb128 0x9
 2233 0176 01       		.uleb128 0x1
 2234 0177 53       		.byte	0x53
 2235 0178 05       		.uleb128 0x5
 2236 0179 03       		.byte	0x3
ARM GAS  C:\Users\info\AppData\Local\Temp\ccrImvS9.s 			page 42


 2237 017a 00000000 		.4byte	vram
 2238 017e 00       		.byte	0
 2239 017f 00       		.byte	0
 2240 0180 0A       		.uleb128 0xa
 2241 0181 F9010000 		.4byte	.LASF54
 2242 0185 01       		.byte	0x1
 2243 0186 35       		.byte	0x35
 2244 0187 7E000000 		.4byte	0x7e
 2245 018b 00000000 		.4byte	.LFB65
 2246 018f 341C0000 		.4byte	.LFE65-.LFB65
 2247 0193 01       		.uleb128 0x1
 2248 0194 9C       		.byte	0x9c
 2249 0195 1A030000 		.4byte	0x31a
 2250 0199 0B       		.uleb128 0xb
 2251 019a 72616D00 		.ascii	"ram\000"
 2252 019e 01       		.byte	0x1
 2253 019f 56       		.byte	0x56
 2254 01a0 1A030000 		.4byte	0x31a
 2255 01a4 03       		.uleb128 0x3
 2256 01a5 91       		.byte	0x91
 2257 01a6 D85F     		.sleb128 -4136
 2258 01a8 0C       		.uleb128 0xc
 2259 01a9 10000000 		.4byte	.LVL2
 2260 01ad C8030000 		.4byte	0x3c8
 2261 01b1 BF010000 		.4byte	0x1bf
 2262 01b5 09       		.uleb128 0x9
 2263 01b6 01       		.uleb128 0x1
 2264 01b7 50       		.byte	0x50
 2265 01b8 05       		.uleb128 0x5
 2266 01b9 03       		.byte	0x3
 2267 01ba 00000000 		.4byte	_isr_tmr_handler
 2268 01be 00       		.byte	0
 2269 01bf 0C       		.uleb128 0xc
 2270 01c0 16000000 		.4byte	.LVL3
 2271 01c4 D3030000 		.4byte	0x3d3
 2272 01c8 D6010000 		.4byte	0x1d6
 2273 01cc 09       		.uleb128 0x9
 2274 01cd 01       		.uleb128 0x1
 2275 01ce 50       		.byte	0x50
 2276 01cf 05       		.uleb128 0x5
 2277 01d0 03       		.byte	0x3
 2278 01d1 00000000 		.4byte	_newline_handler
 2279 01d5 00       		.byte	0
 2280 01d6 0D       		.uleb128 0xd
 2281 01d7 1A000000 		.4byte	.LVL4
 2282 01db DE030000 		.4byte	0x3de
 2283 01df 0C       		.uleb128 0xc
 2284 01e0 2E000000 		.4byte	.LVL5
 2285 01e4 E9030000 		.4byte	0x3e9
 2286 01e8 05020000 		.4byte	0x205
 2287 01ec 09       		.uleb128 0x9
 2288 01ed 01       		.uleb128 0x1
 2289 01ee 50       		.byte	0x50
 2290 01ef 01       		.uleb128 0x1
 2291 01f0 31       		.byte	0x31
 2292 01f1 09       		.uleb128 0x9
 2293 01f2 01       		.uleb128 0x1
ARM GAS  C:\Users\info\AppData\Local\Temp\ccrImvS9.s 			page 43


 2294 01f3 51       		.byte	0x51
 2295 01f4 01       		.uleb128 0x1
 2296 01f5 30       		.byte	0x30
 2297 01f6 09       		.uleb128 0x9
 2298 01f7 01       		.uleb128 0x1
 2299 01f8 52       		.byte	0x52
 2300 01f9 03       		.uleb128 0x3
 2301 01fa 0A       		.byte	0xa
 2302 01fb FF1F     		.2byte	0x1fff
 2303 01fd 09       		.uleb128 0x9
 2304 01fe 01       		.uleb128 0x1
 2305 01ff 53       		.byte	0x53
 2306 0200 03       		.uleb128 0x3
 2307 0201 0A       		.byte	0xa
 2308 0202 0040     		.2byte	0x4000
 2309 0204 00       		.byte	0
 2310 0205 0C       		.uleb128 0xc
 2311 0206 3E000000 		.4byte	.LVL6
 2312 020a F4030000 		.4byte	0x3f4
 2313 020e 1E020000 		.4byte	0x21e
 2314 0212 09       		.uleb128 0x9
 2315 0213 01       		.uleb128 0x1
 2316 0214 51       		.byte	0x51
 2317 0215 02       		.uleb128 0x2
 2318 0216 08       		.byte	0x8
 2319 0217 80       		.byte	0x80
 2320 0218 09       		.uleb128 0x9
 2321 0219 01       		.uleb128 0x1
 2322 021a 53       		.byte	0x53
 2323 021b 01       		.uleb128 0x1
 2324 021c 35       		.byte	0x35
 2325 021d 00       		.byte	0
 2326 021e 0C       		.uleb128 0xc
 2327 021f 4A000000 		.4byte	.LVL7
 2328 0223 FF030000 		.4byte	0x3ff
 2329 0227 38020000 		.4byte	0x238
 2330 022b 09       		.uleb128 0x9
 2331 022c 01       		.uleb128 0x1
 2332 022d 51       		.byte	0x51
 2333 022e 01       		.uleb128 0x1
 2334 022f 30       		.byte	0x30
 2335 0230 09       		.uleb128 0x9
 2336 0231 01       		.uleb128 0x1
 2337 0232 52       		.byte	0x52
 2338 0233 03       		.uleb128 0x3
 2339 0234 0A       		.byte	0xa
 2340 0235 7F64     		.2byte	0x647f
 2341 0237 00       		.byte	0
 2342 0238 0D       		.uleb128 0xd
 2343 0239 52000000 		.4byte	.LVL8
 2344 023d 0A040000 		.4byte	0x40a
 2345 0241 0C       		.uleb128 0xc
 2346 0242 5A000000 		.4byte	.LVL9
 2347 0246 15040000 		.4byte	0x415
 2348 024a 54020000 		.4byte	0x254
 2349 024e 09       		.uleb128 0x9
 2350 024f 01       		.uleb128 0x1
ARM GAS  C:\Users\info\AppData\Local\Temp\ccrImvS9.s 			page 44


 2351 0250 51       		.byte	0x51
 2352 0251 01       		.uleb128 0x1
 2353 0252 31       		.byte	0x31
 2354 0253 00       		.byte	0
 2355 0254 0D       		.uleb128 0xd
 2356 0255 5E000000 		.4byte	.LVL10
 2357 0259 20040000 		.4byte	0x420
 2358 025d 0D       		.uleb128 0xd
 2359 025e 62000000 		.4byte	.LVL11
 2360 0262 2B040000 		.4byte	0x42b
 2361 0266 0D       		.uleb128 0xd
 2362 0267 66000000 		.4byte	.LVL12
 2363 026b 36040000 		.4byte	0x436
 2364 026f 0D       		.uleb128 0xd
 2365 0270 6A000000 		.4byte	.LVL13
 2366 0274 41040000 		.4byte	0x441
 2367 0278 0D       		.uleb128 0xd
 2368 0279 6E000000 		.4byte	.LVL14
 2369 027d 4C040000 		.4byte	0x44c
 2370 0281 0D       		.uleb128 0xd
 2371 0282 72000000 		.4byte	.LVL15
 2372 0286 57040000 		.4byte	0x457
 2373 028a 0D       		.uleb128 0xd
 2374 028b 76000000 		.4byte	.LVL16
 2375 028f 62040000 		.4byte	0x462
 2376 0293 0D       		.uleb128 0xd
 2377 0294 7A000000 		.4byte	.LVL17
 2378 0298 6D040000 		.4byte	0x46d
 2379 029c 0C       		.uleb128 0xc
 2380 029d 8C000000 		.4byte	.LVL18
 2381 02a1 78040000 		.4byte	0x478
 2382 02a5 BD020000 		.4byte	0x2bd
 2383 02a9 09       		.uleb128 0x9
 2384 02aa 01       		.uleb128 0x1
 2385 02ab 50       		.byte	0x50
 2386 02ac 03       		.uleb128 0x3
 2387 02ad 91       		.byte	0x91
 2388 02ae D85F     		.sleb128 -4136
 2389 02b0 09       		.uleb128 0x9
 2390 02b1 01       		.uleb128 0x1
 2391 02b2 51       		.byte	0x51
 2392 02b3 01       		.uleb128 0x1
 2393 02b4 30       		.byte	0x30
 2394 02b5 09       		.uleb128 0x9
 2395 02b6 01       		.uleb128 0x1
 2396 02b7 52       		.byte	0x52
 2397 02b8 03       		.uleb128 0x3
 2398 02b9 0A       		.byte	0xa
 2399 02ba 0010     		.2byte	0x1000
 2400 02bc 00       		.byte	0
 2401 02bd 0C       		.uleb128 0xc
 2402 02be 061C0000 		.4byte	.LVL19
 2403 02c2 81040000 		.4byte	0x481
 2404 02c6 D0020000 		.4byte	0x2d0
 2405 02ca 09       		.uleb128 0x9
 2406 02cb 01       		.uleb128 0x1
 2407 02cc 50       		.byte	0x50
ARM GAS  C:\Users\info\AppData\Local\Temp\ccrImvS9.s 			page 45


 2408 02cd 01       		.uleb128 0x1
 2409 02ce 31       		.byte	0x31
 2410 02cf 00       		.byte	0
 2411 02d0 0C       		.uleb128 0xc
 2412 02d1 161C0000 		.4byte	.LVL20
 2413 02d5 8C040000 		.4byte	0x48c
 2414 02d9 0A030000 		.4byte	0x30a
 2415 02dd 09       		.uleb128 0x9
 2416 02de 01       		.uleb128 0x1
 2417 02df 50       		.byte	0x50
 2418 02e0 03       		.uleb128 0x3
 2419 02e1 91       		.byte	0x91
 2420 02e2 D85F     		.sleb128 -4136
 2421 02e4 09       		.uleb128 0x9
 2422 02e5 01       		.uleb128 0x1
 2423 02e6 51       		.byte	0x51
 2424 02e7 05       		.uleb128 0x5
 2425 02e8 03       		.byte	0x3
 2426 02e9 00000000 		.4byte	vram
 2427 02ed 09       		.uleb128 0x9
 2428 02ee 01       		.uleb128 0x1
 2429 02ef 52       		.byte	0x52
 2430 02f0 05       		.uleb128 0x5
 2431 02f1 03       		.byte	0x3
 2432 02f2 01000000 		.4byte	.LANCHOR0+1
 2433 02f6 09       		.uleb128 0x9
 2434 02f7 01       		.uleb128 0x1
 2435 02f8 53       		.byte	0x53
 2436 02f9 05       		.uleb128 0x5
 2437 02fa 03       		.byte	0x3
 2438 02fb 00000000 		.4byte	.LANCHOR0
 2439 02ff 09       		.uleb128 0x9
 2440 0300 02       		.uleb128 0x2
 2441 0301 7D       		.byte	0x7d
 2442 0302 00       		.sleb128 0
 2443 0303 05       		.uleb128 0x5
 2444 0304 03       		.byte	0x3
 2445 0305 00000000 		.4byte	.LANCHOR1
 2446 0309 00       		.byte	0
 2447 030a 0E       		.uleb128 0xe
 2448 030b 1C1C0000 		.4byte	.LVL21
 2449 030f 81040000 		.4byte	0x481
 2450 0313 09       		.uleb128 0x9
 2451 0314 01       		.uleb128 0x1
 2452 0315 50       		.byte	0x50
 2453 0316 01       		.uleb128 0x1
 2454 0317 30       		.byte	0x30
 2455 0318 00       		.byte	0
 2456 0319 00       		.byte	0
 2457 031a 0F       		.uleb128 0xf
 2458 031b 8C000000 		.4byte	0x8c
 2459 031f 2B030000 		.4byte	0x32b
 2460 0323 10       		.uleb128 0x10
 2461 0324 FE000000 		.4byte	0xfe
 2462 0328 FF0F     		.2byte	0xfff
 2463 032a 00       		.byte	0
 2464 032b 11       		.uleb128 0x11
ARM GAS  C:\Users\info\AppData\Local\Temp\ccrImvS9.s 			page 46


 2465 032c C4010000 		.4byte	.LASF26
 2466 0330 05       		.byte	0x5
 2467 0331 1207     		.2byte	0x712
 2468 0333 37030000 		.4byte	0x337
 2469 0337 06       		.uleb128 0x6
 2470 0338 97000000 		.4byte	0x97
 2471 033c 12       		.uleb128 0x12
 2472 033d 736E6400 		.ascii	"snd\000"
 2473 0341 01       		.byte	0x1
 2474 0342 1C       		.byte	0x1c
 2475 0343 8C000000 		.4byte	0x8c
 2476 0347 05       		.uleb128 0x5
 2477 0348 03       		.byte	0x3
 2478 0349 00000000 		.4byte	snd
 2479 034d 12       		.uleb128 0x12
 2480 034e 746D7200 		.ascii	"tmr\000"
 2481 0352 01       		.byte	0x1
 2482 0353 1C       		.byte	0x1c
 2483 0354 8C000000 		.4byte	0x8c
 2484 0358 05       		.uleb128 0x5
 2485 0359 03       		.byte	0x3
 2486 035a 00000000 		.4byte	tmr
 2487 035e 0F       		.uleb128 0xf
 2488 035f A2000000 		.4byte	0xa2
 2489 0363 6E030000 		.4byte	0x36e
 2490 0367 13       		.uleb128 0x13
 2491 0368 FE000000 		.4byte	0xfe
 2492 036c 1F       		.byte	0x1f
 2493 036d 00       		.byte	0
 2494 036e 14       		.uleb128 0x14
 2495 036f 82030000 		.4byte	.LASF27
 2496 0373 01       		.byte	0x1
 2497 0374 26       		.byte	0x26
 2498 0375 5E030000 		.4byte	0x35e
 2499 0379 05       		.uleb128 0x5
 2500 037a 03       		.byte	0x3
 2501 037b 00000000 		.4byte	vram
 2502 037f 14       		.uleb128 0x14
 2503 0380 DF010000 		.4byte	.LASF28
 2504 0384 01       		.byte	0x1
 2505 0385 2D       		.byte	0x2d
 2506 0386 8C000000 		.4byte	0x8c
 2507 038a 05       		.uleb128 0x5
 2508 038b 03       		.byte	0x3
 2509 038c 00000000 		.4byte	dma_chan
 2510 0390 14       		.uleb128 0x14
 2511 0391 53030000 		.4byte	.LASF29
 2512 0395 01       		.byte	0x1
 2513 0396 2D       		.byte	0x2d
 2514 0397 8C000000 		.4byte	0x8c
 2515 039b 05       		.uleb128 0x5
 2516 039c 03       		.byte	0x3
 2517 039d 00000000 		.4byte	dma_td
 2518 03a1 14       		.uleb128 0x14
 2519 03a2 72010000 		.4byte	.LASF30
 2520 03a6 01       		.byte	0x1
 2521 03a7 2E       		.byte	0x2e
ARM GAS  C:\Users\info\AppData\Local\Temp\ccrImvS9.s 			page 47


 2522 03a8 05010000 		.4byte	0x105
 2523 03ac 05       		.uleb128 0x5
 2524 03ad 03       		.byte	0x3
 2525 03ae 00000000 		.4byte	vga_update_flag
 2526 03b2 15       		.uleb128 0x15
 2527 03b3 66030000 		.4byte	.LASF31
 2528 03b7 66030000 		.4byte	.LASF31
 2529 03bb 06       		.byte	0x6
 2530 03bc 06       		.byte	0x6
 2531 03bd 15       		.uleb128 0x15
 2532 03be EB020000 		.4byte	.LASF32
 2533 03c2 EB020000 		.4byte	.LASF32
 2534 03c6 06       		.byte	0x6
 2535 03c7 03       		.byte	0x3
 2536 03c8 15       		.uleb128 0x15
 2537 03c9 3C010000 		.4byte	.LASF33
 2538 03cd 3C010000 		.4byte	.LASF33
 2539 03d1 07       		.byte	0x7
 2540 03d2 18       		.byte	0x18
 2541 03d3 15       		.uleb128 0x15
 2542 03d4 54010000 		.4byte	.LASF34
 2543 03d8 54010000 		.4byte	.LASF34
 2544 03dc 08       		.byte	0x8
 2545 03dd 18       		.byte	0x18
 2546 03de 15       		.uleb128 0x15
 2547 03df 2C010000 		.4byte	.LASF35
 2548 03e3 2C010000 		.4byte	.LASF35
 2549 03e7 09       		.byte	0x9
 2550 03e8 38       		.byte	0x38
 2551 03e9 15       		.uleb128 0x15
 2552 03ea DB000000 		.4byte	.LASF36
 2553 03ee DB000000 		.4byte	.LASF36
 2554 03f2 0A       		.byte	0xa
 2555 03f3 1E       		.byte	0x1e
 2556 03f4 15       		.uleb128 0x15
 2557 03f5 87010000 		.4byte	.LASF37
 2558 03f9 87010000 		.4byte	.LASF37
 2559 03fd 09       		.byte	0x9
 2560 03fe 3B       		.byte	0x3b
 2561 03ff 15       		.uleb128 0x15
 2562 0400 C0000000 		.4byte	.LASF38
 2563 0404 C0000000 		.4byte	.LASF38
 2564 0408 09       		.byte	0x9
 2565 0409 3F       		.byte	0x3f
 2566 040a 15       		.uleb128 0x15
 2567 040b ED000000 		.4byte	.LASF39
 2568 040f ED000000 		.4byte	.LASF39
 2569 0413 09       		.byte	0x9
 2570 0414 2F       		.byte	0x2f
 2571 0415 15       		.uleb128 0x15
 2572 0416 FE010000 		.4byte	.LASF40
 2573 041a FE010000 		.4byte	.LASF40
 2574 041e 09       		.byte	0x9
 2575 041f 29       		.byte	0x29
 2576 0420 15       		.uleb128 0x15
 2577 0421 39030000 		.4byte	.LASF41
 2578 0425 39030000 		.4byte	.LASF41
ARM GAS  C:\Users\info\AppData\Local\Temp\ccrImvS9.s 			page 48


 2579 0429 0B       		.byte	0xb
 2580 042a 92       		.byte	0x92
 2581 042b 15       		.uleb128 0x15
 2582 042c 13030000 		.4byte	.LASF42
 2583 0430 13030000 		.4byte	.LASF42
 2584 0434 0C       		.byte	0xc
 2585 0435 92       		.byte	0x92
 2586 0436 15       		.uleb128 0x15
 2587 0437 07030000 		.4byte	.LASF43
 2588 043b 07030000 		.4byte	.LASF43
 2589 043f 0D       		.byte	0xd
 2590 0440 92       		.byte	0x92
 2591 0441 15       		.uleb128 0x15
 2592 0442 BD020000 		.4byte	.LASF44
 2593 0446 BD020000 		.4byte	.LASF44
 2594 044a 0E       		.byte	0xe
 2595 044b 92       		.byte	0x92
 2596 044c 15       		.uleb128 0x15
 2597 044d 45030000 		.4byte	.LASF45
 2598 0451 45030000 		.4byte	.LASF45
 2599 0455 0F       		.byte	0xf
 2600 0456 58       		.byte	0x58
 2601 0457 15       		.uleb128 0x15
 2602 0458 12010000 		.4byte	.LASF46
 2603 045c 12010000 		.4byte	.LASF46
 2604 0460 0F       		.byte	0xf
 2605 0461 57       		.byte	0x57
 2606 0462 15       		.uleb128 0x15
 2607 0463 1A020000 		.4byte	.LASF47
 2608 0467 1A020000 		.4byte	.LASF47
 2609 046b 0F       		.byte	0xf
 2610 046c 59       		.byte	0x59
 2611 046d 15       		.uleb128 0x15
 2612 046e 18000000 		.4byte	.LASF48
 2613 0472 18000000 		.4byte	.LASF48
 2614 0476 06       		.byte	0x6
 2615 0477 0E       		.byte	0xe
 2616 0478 16       		.uleb128 0x16
 2617 0479 D1010000 		.4byte	.LASF55
 2618 047d D1010000 		.4byte	.LASF55
 2619 0481 15       		.uleb128 0x15
 2620 0482 1E010000 		.4byte	.LASF49
 2621 0486 1E010000 		.4byte	.LASF49
 2622 048a 10       		.byte	0x10
 2623 048b 26       		.byte	0x26
 2624 048c 15       		.uleb128 0x15
 2625 048d 01010000 		.4byte	.LASF50
 2626 0491 01010000 		.4byte	.LASF50
 2627 0495 06       		.byte	0x6
 2628 0496 08       		.byte	0x8
 2629 0497 00       		.byte	0
 2630              		.section	.debug_abbrev,"",%progbits
 2631              	.Ldebug_abbrev0:
 2632 0000 01       		.uleb128 0x1
 2633 0001 11       		.uleb128 0x11
 2634 0002 01       		.byte	0x1
 2635 0003 25       		.uleb128 0x25
ARM GAS  C:\Users\info\AppData\Local\Temp\ccrImvS9.s 			page 49


 2636 0004 0E       		.uleb128 0xe
 2637 0005 13       		.uleb128 0x13
 2638 0006 0B       		.uleb128 0xb
 2639 0007 03       		.uleb128 0x3
 2640 0008 0E       		.uleb128 0xe
 2641 0009 1B       		.uleb128 0x1b
 2642 000a 0E       		.uleb128 0xe
 2643 000b 55       		.uleb128 0x55
 2644 000c 17       		.uleb128 0x17
 2645 000d 11       		.uleb128 0x11
 2646 000e 01       		.uleb128 0x1
 2647 000f 10       		.uleb128 0x10
 2648 0010 17       		.uleb128 0x17
 2649 0011 00       		.byte	0
 2650 0012 00       		.byte	0
 2651 0013 02       		.uleb128 0x2
 2652 0014 24       		.uleb128 0x24
 2653 0015 00       		.byte	0
 2654 0016 0B       		.uleb128 0xb
 2655 0017 0B       		.uleb128 0xb
 2656 0018 3E       		.uleb128 0x3e
 2657 0019 0B       		.uleb128 0xb
 2658 001a 03       		.uleb128 0x3
 2659 001b 0E       		.uleb128 0xe
 2660 001c 00       		.byte	0
 2661 001d 00       		.byte	0
 2662 001e 03       		.uleb128 0x3
 2663 001f 16       		.uleb128 0x16
 2664 0020 00       		.byte	0
 2665 0021 03       		.uleb128 0x3
 2666 0022 0E       		.uleb128 0xe
 2667 0023 3A       		.uleb128 0x3a
 2668 0024 0B       		.uleb128 0xb
 2669 0025 3B       		.uleb128 0x3b
 2670 0026 0B       		.uleb128 0xb
 2671 0027 49       		.uleb128 0x49
 2672 0028 13       		.uleb128 0x13
 2673 0029 00       		.byte	0
 2674 002a 00       		.byte	0
 2675 002b 04       		.uleb128 0x4
 2676 002c 24       		.uleb128 0x24
 2677 002d 00       		.byte	0
 2678 002e 0B       		.uleb128 0xb
 2679 002f 0B       		.uleb128 0xb
 2680 0030 3E       		.uleb128 0x3e
 2681 0031 0B       		.uleb128 0xb
 2682 0032 03       		.uleb128 0x3
 2683 0033 08       		.uleb128 0x8
 2684 0034 00       		.byte	0
 2685 0035 00       		.byte	0
 2686 0036 05       		.uleb128 0x5
 2687 0037 16       		.uleb128 0x16
 2688 0038 00       		.byte	0
 2689 0039 03       		.uleb128 0x3
 2690 003a 0E       		.uleb128 0xe
 2691 003b 3A       		.uleb128 0x3a
 2692 003c 0B       		.uleb128 0xb
ARM GAS  C:\Users\info\AppData\Local\Temp\ccrImvS9.s 			page 50


 2693 003d 3B       		.uleb128 0x3b
 2694 003e 05       		.uleb128 0x5
 2695 003f 49       		.uleb128 0x49
 2696 0040 13       		.uleb128 0x13
 2697 0041 00       		.byte	0
 2698 0042 00       		.byte	0
 2699 0043 06       		.uleb128 0x6
 2700 0044 35       		.uleb128 0x35
 2701 0045 00       		.byte	0
 2702 0046 49       		.uleb128 0x49
 2703 0047 13       		.uleb128 0x13
 2704 0048 00       		.byte	0
 2705 0049 00       		.byte	0
 2706 004a 07       		.uleb128 0x7
 2707 004b 2E       		.uleb128 0x2e
 2708 004c 01       		.byte	0x1
 2709 004d 3F       		.uleb128 0x3f
 2710 004e 19       		.uleb128 0x19
 2711 004f 03       		.uleb128 0x3
 2712 0050 0E       		.uleb128 0xe
 2713 0051 3A       		.uleb128 0x3a
 2714 0052 0B       		.uleb128 0xb
 2715 0053 3B       		.uleb128 0x3b
 2716 0054 0B       		.uleb128 0xb
 2717 0055 27       		.uleb128 0x27
 2718 0056 19       		.uleb128 0x19
 2719 0057 11       		.uleb128 0x11
 2720 0058 01       		.uleb128 0x1
 2721 0059 12       		.uleb128 0x12
 2722 005a 06       		.uleb128 0x6
 2723 005b 40       		.uleb128 0x40
 2724 005c 18       		.uleb128 0x18
 2725 005d 9742     		.uleb128 0x2117
 2726 005f 19       		.uleb128 0x19
 2727 0060 01       		.uleb128 0x1
 2728 0061 13       		.uleb128 0x13
 2729 0062 00       		.byte	0
 2730 0063 00       		.byte	0
 2731 0064 08       		.uleb128 0x8
 2732 0065 898201   		.uleb128 0x4109
 2733 0068 01       		.byte	0x1
 2734 0069 11       		.uleb128 0x11
 2735 006a 01       		.uleb128 0x1
 2736 006b 9542     		.uleb128 0x2115
 2737 006d 19       		.uleb128 0x19
 2738 006e 31       		.uleb128 0x31
 2739 006f 13       		.uleb128 0x13
 2740 0070 00       		.byte	0
 2741 0071 00       		.byte	0
 2742 0072 09       		.uleb128 0x9
 2743 0073 8A8201   		.uleb128 0x410a
 2744 0076 00       		.byte	0
 2745 0077 02       		.uleb128 0x2
 2746 0078 18       		.uleb128 0x18
 2747 0079 9142     		.uleb128 0x2111
 2748 007b 18       		.uleb128 0x18
 2749 007c 00       		.byte	0
ARM GAS  C:\Users\info\AppData\Local\Temp\ccrImvS9.s 			page 51


 2750 007d 00       		.byte	0
 2751 007e 0A       		.uleb128 0xa
 2752 007f 2E       		.uleb128 0x2e
 2753 0080 01       		.byte	0x1
 2754 0081 3F       		.uleb128 0x3f
 2755 0082 19       		.uleb128 0x19
 2756 0083 03       		.uleb128 0x3
 2757 0084 0E       		.uleb128 0xe
 2758 0085 3A       		.uleb128 0x3a
 2759 0086 0B       		.uleb128 0xb
 2760 0087 3B       		.uleb128 0x3b
 2761 0088 0B       		.uleb128 0xb
 2762 0089 27       		.uleb128 0x27
 2763 008a 19       		.uleb128 0x19
 2764 008b 49       		.uleb128 0x49
 2765 008c 13       		.uleb128 0x13
 2766 008d 11       		.uleb128 0x11
 2767 008e 01       		.uleb128 0x1
 2768 008f 12       		.uleb128 0x12
 2769 0090 06       		.uleb128 0x6
 2770 0091 40       		.uleb128 0x40
 2771 0092 18       		.uleb128 0x18
 2772 0093 9742     		.uleb128 0x2117
 2773 0095 19       		.uleb128 0x19
 2774 0096 01       		.uleb128 0x1
 2775 0097 13       		.uleb128 0x13
 2776 0098 00       		.byte	0
 2777 0099 00       		.byte	0
 2778 009a 0B       		.uleb128 0xb
 2779 009b 34       		.uleb128 0x34
 2780 009c 00       		.byte	0
 2781 009d 03       		.uleb128 0x3
 2782 009e 08       		.uleb128 0x8
 2783 009f 3A       		.uleb128 0x3a
 2784 00a0 0B       		.uleb128 0xb
 2785 00a1 3B       		.uleb128 0x3b
 2786 00a2 0B       		.uleb128 0xb
 2787 00a3 49       		.uleb128 0x49
 2788 00a4 13       		.uleb128 0x13
 2789 00a5 02       		.uleb128 0x2
 2790 00a6 18       		.uleb128 0x18
 2791 00a7 00       		.byte	0
 2792 00a8 00       		.byte	0
 2793 00a9 0C       		.uleb128 0xc
 2794 00aa 898201   		.uleb128 0x4109
 2795 00ad 01       		.byte	0x1
 2796 00ae 11       		.uleb128 0x11
 2797 00af 01       		.uleb128 0x1
 2798 00b0 31       		.uleb128 0x31
 2799 00b1 13       		.uleb128 0x13
 2800 00b2 01       		.uleb128 0x1
 2801 00b3 13       		.uleb128 0x13
 2802 00b4 00       		.byte	0
 2803 00b5 00       		.byte	0
 2804 00b6 0D       		.uleb128 0xd
 2805 00b7 898201   		.uleb128 0x4109
 2806 00ba 00       		.byte	0
ARM GAS  C:\Users\info\AppData\Local\Temp\ccrImvS9.s 			page 52


 2807 00bb 11       		.uleb128 0x11
 2808 00bc 01       		.uleb128 0x1
 2809 00bd 31       		.uleb128 0x31
 2810 00be 13       		.uleb128 0x13
 2811 00bf 00       		.byte	0
 2812 00c0 00       		.byte	0
 2813 00c1 0E       		.uleb128 0xe
 2814 00c2 898201   		.uleb128 0x4109
 2815 00c5 01       		.byte	0x1
 2816 00c6 11       		.uleb128 0x11
 2817 00c7 01       		.uleb128 0x1
 2818 00c8 31       		.uleb128 0x31
 2819 00c9 13       		.uleb128 0x13
 2820 00ca 00       		.byte	0
 2821 00cb 00       		.byte	0
 2822 00cc 0F       		.uleb128 0xf
 2823 00cd 01       		.uleb128 0x1
 2824 00ce 01       		.byte	0x1
 2825 00cf 49       		.uleb128 0x49
 2826 00d0 13       		.uleb128 0x13
 2827 00d1 01       		.uleb128 0x1
 2828 00d2 13       		.uleb128 0x13
 2829 00d3 00       		.byte	0
 2830 00d4 00       		.byte	0
 2831 00d5 10       		.uleb128 0x10
 2832 00d6 21       		.uleb128 0x21
 2833 00d7 00       		.byte	0
 2834 00d8 49       		.uleb128 0x49
 2835 00d9 13       		.uleb128 0x13
 2836 00da 2F       		.uleb128 0x2f
 2837 00db 05       		.uleb128 0x5
 2838 00dc 00       		.byte	0
 2839 00dd 00       		.byte	0
 2840 00de 11       		.uleb128 0x11
 2841 00df 34       		.uleb128 0x34
 2842 00e0 00       		.byte	0
 2843 00e1 03       		.uleb128 0x3
 2844 00e2 0E       		.uleb128 0xe
 2845 00e3 3A       		.uleb128 0x3a
 2846 00e4 0B       		.uleb128 0xb
 2847 00e5 3B       		.uleb128 0x3b
 2848 00e6 05       		.uleb128 0x5
 2849 00e7 49       		.uleb128 0x49
 2850 00e8 13       		.uleb128 0x13
 2851 00e9 3F       		.uleb128 0x3f
 2852 00ea 19       		.uleb128 0x19
 2853 00eb 3C       		.uleb128 0x3c
 2854 00ec 19       		.uleb128 0x19
 2855 00ed 00       		.byte	0
 2856 00ee 00       		.byte	0
 2857 00ef 12       		.uleb128 0x12
 2858 00f0 34       		.uleb128 0x34
 2859 00f1 00       		.byte	0
 2860 00f2 03       		.uleb128 0x3
 2861 00f3 08       		.uleb128 0x8
 2862 00f4 3A       		.uleb128 0x3a
 2863 00f5 0B       		.uleb128 0xb
ARM GAS  C:\Users\info\AppData\Local\Temp\ccrImvS9.s 			page 53


 2864 00f6 3B       		.uleb128 0x3b
 2865 00f7 0B       		.uleb128 0xb
 2866 00f8 49       		.uleb128 0x49
 2867 00f9 13       		.uleb128 0x13
 2868 00fa 3F       		.uleb128 0x3f
 2869 00fb 19       		.uleb128 0x19
 2870 00fc 02       		.uleb128 0x2
 2871 00fd 18       		.uleb128 0x18
 2872 00fe 00       		.byte	0
 2873 00ff 00       		.byte	0
 2874 0100 13       		.uleb128 0x13
 2875 0101 21       		.uleb128 0x21
 2876 0102 00       		.byte	0
 2877 0103 49       		.uleb128 0x49
 2878 0104 13       		.uleb128 0x13
 2879 0105 2F       		.uleb128 0x2f
 2880 0106 0B       		.uleb128 0xb
 2881 0107 00       		.byte	0
 2882 0108 00       		.byte	0
 2883 0109 14       		.uleb128 0x14
 2884 010a 34       		.uleb128 0x34
 2885 010b 00       		.byte	0
 2886 010c 03       		.uleb128 0x3
 2887 010d 0E       		.uleb128 0xe
 2888 010e 3A       		.uleb128 0x3a
 2889 010f 0B       		.uleb128 0xb
 2890 0110 3B       		.uleb128 0x3b
 2891 0111 0B       		.uleb128 0xb
 2892 0112 49       		.uleb128 0x49
 2893 0113 13       		.uleb128 0x13
 2894 0114 3F       		.uleb128 0x3f
 2895 0115 19       		.uleb128 0x19
 2896 0116 02       		.uleb128 0x2
 2897 0117 18       		.uleb128 0x18
 2898 0118 00       		.byte	0
 2899 0119 00       		.byte	0
 2900 011a 15       		.uleb128 0x15
 2901 011b 2E       		.uleb128 0x2e
 2902 011c 00       		.byte	0
 2903 011d 3F       		.uleb128 0x3f
 2904 011e 19       		.uleb128 0x19
 2905 011f 3C       		.uleb128 0x3c
 2906 0120 19       		.uleb128 0x19
 2907 0121 6E       		.uleb128 0x6e
 2908 0122 0E       		.uleb128 0xe
 2909 0123 03       		.uleb128 0x3
 2910 0124 0E       		.uleb128 0xe
 2911 0125 3A       		.uleb128 0x3a
 2912 0126 0B       		.uleb128 0xb
 2913 0127 3B       		.uleb128 0x3b
 2914 0128 0B       		.uleb128 0xb
 2915 0129 00       		.byte	0
 2916 012a 00       		.byte	0
 2917 012b 16       		.uleb128 0x16
 2918 012c 2E       		.uleb128 0x2e
 2919 012d 00       		.byte	0
 2920 012e 3F       		.uleb128 0x3f
ARM GAS  C:\Users\info\AppData\Local\Temp\ccrImvS9.s 			page 54


 2921 012f 19       		.uleb128 0x19
 2922 0130 3C       		.uleb128 0x3c
 2923 0131 19       		.uleb128 0x19
 2924 0132 6E       		.uleb128 0x6e
 2925 0133 0E       		.uleb128 0xe
 2926 0134 03       		.uleb128 0x3
 2927 0135 0E       		.uleb128 0xe
 2928 0136 00       		.byte	0
 2929 0137 00       		.byte	0
 2930 0138 00       		.byte	0
 2931              		.section	.debug_aranges,"",%progbits
 2932 0000 2C000000 		.4byte	0x2c
 2933 0004 0200     		.2byte	0x2
 2934 0006 00000000 		.4byte	.Ldebug_info0
 2935 000a 04       		.byte	0x4
 2936 000b 00       		.byte	0
 2937 000c 0000     		.2byte	0
 2938 000e 0000     		.2byte	0
 2939 0010 00000000 		.4byte	.LFB63
 2940 0014 0C000000 		.4byte	.LFE63-.LFB63
 2941 0018 00000000 		.4byte	.LFB64
 2942 001c 1C000000 		.4byte	.LFE64-.LFB64
 2943 0020 00000000 		.4byte	.LFB65
 2944 0024 341C0000 		.4byte	.LFE65-.LFB65
 2945 0028 00000000 		.4byte	0
 2946 002c 00000000 		.4byte	0
 2947              		.section	.debug_ranges,"",%progbits
 2948              	.Ldebug_ranges0:
 2949 0000 00000000 		.4byte	.LFB63
 2950 0004 0C000000 		.4byte	.LFE63
 2951 0008 00000000 		.4byte	.LFB64
 2952 000c 1C000000 		.4byte	.LFE64
 2953 0010 00000000 		.4byte	.LFB65
 2954 0014 341C0000 		.4byte	.LFE65
 2955 0018 00000000 		.4byte	0
 2956 001c 00000000 		.4byte	0
 2957              		.section	.debug_line,"",%progbits
 2958              	.Ldebug_line0:
 2959 0000 24020000 		.section	.debug_str,"MS",%progbits,1
 2959      0200D001 
 2959      00000201 
 2959      FB0E0D00 
 2959      01010101 
 2960              	.LASF8:
 2961 0000 6C6F6E67 		.ascii	"long long int\000"
 2961      206C6F6E 
 2961      6720696E 
 2961      7400
 2962              	.LASF4:
 2963 000e 5F5F7569 		.ascii	"__uint8_t\000"
 2963      6E74385F 
 2963      7400
 2964              	.LASF48:
 2965 0018 6F6C6564 		.ascii	"oled_initialize\000"
 2965      5F696E69 
 2965      7469616C 
 2965      697A6500 
ARM GAS  C:\Users\info\AppData\Local\Temp\ccrImvS9.s 			page 55


 2966              	.LASF51:
 2967 0028 474E5520 		.ascii	"GNU C11 5.4.1 20160609 (release) [ARM/embedded-5-br"
 2967      43313120 
 2967      352E342E 
 2967      31203230 
 2967      31363036 
 2968 005b 616E6368 		.ascii	"anch revision 237715] -mcpu=cortex-m3 -mthumb -g -O"
 2968      20726576 
 2968      6973696F 
 2968      6E203233 
 2968      37373135 
 2969 008e 33202D66 		.ascii	"3 -ffunction-sections -ffat-lto-objects\000"
 2969      66756E63 
 2969      74696F6E 
 2969      2D736563 
 2969      74696F6E 
 2970              	.LASF5:
 2971 00b6 5F5F696E 		.ascii	"__int32_t\000"
 2971      7433325F 
 2971      7400
 2972              	.LASF38:
 2973 00c0 4379446D 		.ascii	"CyDmaTdSetAddress\000"
 2973      61546453 
 2973      65744164 
 2973      64726573 
 2973      7300
 2974              	.LASF6:
 2975 00d2 6C6F6E67 		.ascii	"long int\000"
 2975      20696E74 
 2975      00
 2976              	.LASF36:
 2977 00db 444D415F 		.ascii	"DMA_DmaInitialize\000"
 2977      446D6149 
 2977      6E697469 
 2977      616C697A 
 2977      6500
 2978              	.LASF39:
 2979 00ed 4379446D 		.ascii	"CyDmaChSetInitialTd\000"
 2979      61436853 
 2979      6574496E 
 2979      69746961 
 2979      6C546400 
 2980              	.LASF50:
 2981 0101 65786563 		.ascii	"execute\000"
 2981      75746500 
 2982              	.LASF14:
 2983 0109 75696E74 		.ascii	"uint64_t\000"
 2983      36345F74 
 2983      00
 2984              	.LASF46:
 2985 0112 72616E64 		.ascii	"random_Init\000"
 2985      6F6D5F49 
 2985      6E697400 
 2986              	.LASF49:
 2987 011e 70696E5F 		.ascii	"pin_led_Write\000"
 2987      6C65645F 
 2987      57726974 
ARM GAS  C:\Users\info\AppData\Local\Temp\ccrImvS9.s 			page 56


 2987      6500
 2988              	.LASF35:
 2989 012c 4379446D 		.ascii	"CyDmaTdAllocate\000"
 2989      61546441 
 2989      6C6C6F63 
 2989      61746500 
 2990              	.LASF33:
 2991 013c 6973725F 		.ascii	"isr_timer_StartEx\000"
 2991      74696D65 
 2991      725F5374 
 2991      61727445 
 2991      7800
 2992              	.LASF18:
 2993 014e 666C6F61 		.ascii	"float\000"
 2993      7400
 2994              	.LASF34:
 2995 0154 4E45574C 		.ascii	"NEWLINE_StartEx\000"
 2995      494E455F 
 2995      53746172 
 2995      74457800 
 2996              	.LASF1:
 2997 0164 756E7369 		.ascii	"unsigned char\000"
 2997      676E6564 
 2997      20636861 
 2997      7200
 2998              	.LASF30:
 2999 0172 7667615F 		.ascii	"vga_update_flag\000"
 2999      75706461 
 2999      74655F66 
 2999      6C616700 
 3000              	.LASF21:
 3001 0182 72656738 		.ascii	"reg8\000"
 3001      00
 3002              	.LASF37:
 3003 0187 4379446D 		.ascii	"CyDmaTdSetConfiguration\000"
 3003      61546453 
 3003      6574436F 
 3003      6E666967 
 3003      75726174 
 3004              	.LASF7:
 3005 019f 6C6F6E67 		.ascii	"long unsigned int\000"
 3005      20756E73 
 3005      69676E65 
 3005      6420696E 
 3005      7400
 3006              	.LASF3:
 3007 01b1 73686F72 		.ascii	"short unsigned int\000"
 3007      7420756E 
 3007      7369676E 
 3007      65642069 
 3007      6E7400
 3008              	.LASF26:
 3009 01c4 49544D5F 		.ascii	"ITM_RxBuffer\000"
 3009      52784275 
 3009      66666572 
 3009      00
 3010              	.LASF55:
ARM GAS  C:\Users\info\AppData\Local\Temp\ccrImvS9.s 			page 57


 3011 01d1 6D656D73 		.ascii	"memset\000"
 3011      657400
 3012              	.LASF19:
 3013 01d8 646F7562 		.ascii	"double\000"
 3013      6C6500
 3014              	.LASF28:
 3015 01df 646D615F 		.ascii	"dma_chan\000"
 3015      6368616E 
 3015      00
 3016              	.LASF25:
 3017 01e8 5F6E6577 		.ascii	"_newline_handler\000"
 3017      6C696E65 
 3017      5F68616E 
 3017      646C6572 
 3017      00
 3018              	.LASF54:
 3019 01f9 6D61696E 		.ascii	"main\000"
 3019      00
 3020              	.LASF40:
 3021 01fe 4379446D 		.ascii	"CyDmaChEnable\000"
 3021      61436845 
 3021      6E61626C 
 3021      6500
 3022              	.LASF16:
 3023 020c 75696E74 		.ascii	"uint16\000"
 3023      313600
 3024              	.LASF17:
 3025 0213 75696E74 		.ascii	"uint32\000"
 3025      333200
 3026              	.LASF47:
 3027 021a 72616E64 		.ascii	"random_Start\000"
 3027      6F6D5F53 
 3027      74617274 
 3027      00
 3028              	.LASF11:
 3029 0227 756E7369 		.ascii	"unsigned int\000"
 3029      676E6564 
 3029      20696E74 
 3029      00
 3030              	.LASF53:
 3031 0234 433A5C55 		.ascii	"C:\\Users\\info\\Desktop\\Spring 2019 Classes\\6.11"
 3031      73657273 
 3031      5C696E66 
 3031      6F5C4465 
 3031      736B746F 
 3032 0262 355C362E 		.ascii	"5\\6.115-final\\PSoCCreator\\Final Project\\FinalEm"
 3032      3131352D 
 3032      66696E61 
 3032      6C5C5053 
 3032      6F434372 
 3033 0291 756C6174 		.ascii	"ulator.cydsn\000"
 3033      6F722E63 
 3033      7964736E 
 3033      00
 3034              	.LASF10:
 3035 029e 6C6F6E67 		.ascii	"long long unsigned int\000"
 3035      206C6F6E 
ARM GAS  C:\Users\info\AppData\Local\Temp\ccrImvS9.s 			page 58


 3035      6720756E 
 3035      7369676E 
 3035      65642069 
 3036              	.LASF12:
 3037 02b5 75696E74 		.ascii	"uint8_t\000"
 3037      385F7400 
 3038              	.LASF44:
 3039 02bd 5653594E 		.ascii	"VSYNC_Start\000"
 3039      435F5374 
 3039      61727400 
 3040              	.LASF24:
 3041 02c9 5F697372 		.ascii	"_isr_tmr_handler\000"
 3041      5F746D72 
 3041      5F68616E 
 3041      646C6572 
 3041      00
 3042              	.LASF13:
 3043 02da 696E7433 		.ascii	"int32_t\000"
 3043      325F7400 
 3044              	.LASF23:
 3045 02e2 73697A65 		.ascii	"sizetype\000"
 3045      74797065 
 3045      00
 3046              	.LASF32:
 3047 02eb 6E65776C 		.ascii	"newline_handler\000"
 3047      696E655F 
 3047      68616E64 
 3047      6C657200 
 3048              	.LASF52:
 3049 02fb 6D61696E 		.ascii	"main.c\000"
 3049      2E6300
 3050              	.LASF20:
 3051 0302 63686172 		.ascii	"char\000"
 3051      00
 3052              	.LASF43:
 3053 0307 4853594E 		.ascii	"HSYNC_Start\000"
 3053      435F5374 
 3053      61727400 
 3054              	.LASF42:
 3055 0313 56455254 		.ascii	"VERT_Start\000"
 3055      5F537461 
 3055      727400
 3056              	.LASF2:
 3057 031e 73686F72 		.ascii	"short int\000"
 3057      7420696E 
 3057      7400
 3058              	.LASF9:
 3059 0328 5F5F7569 		.ascii	"__uint64_t\000"
 3059      6E743634 
 3059      5F7400
 3060              	.LASF15:
 3061 0333 75696E74 		.ascii	"uint8\000"
 3061      3800
 3062              	.LASF41:
 3063 0339 484F5249 		.ascii	"HORIZ_Start\000"
 3063      5A5F5374 
 3063      61727400 
ARM GAS  C:\Users\info\AppData\Local\Temp\ccrImvS9.s 			page 59


 3064              	.LASF45:
 3065 0345 72616E64 		.ascii	"random_Enable\000"
 3065      6F6D5F45 
 3065      6E61626C 
 3065      6500
 3066              	.LASF29:
 3067 0353 646D615F 		.ascii	"dma_td\000"
 3067      746400
 3068              	.LASF22:
 3069 035a 6C6F6E67 		.ascii	"long double\000"
 3069      20646F75 
 3069      626C6500 
 3070              	.LASF31:
 3071 0366 6973725F 		.ascii	"isr_tmr_handler\000"
 3071      746D725F 
 3071      68616E64 
 3071      6C657200 
 3072              	.LASF0:
 3073 0376 7369676E 		.ascii	"signed char\000"
 3073      65642063 
 3073      68617200 
 3074              	.LASF27:
 3075 0382 7672616D 		.ascii	"vram\000"
 3075      00
 3076              		.ident	"GCC: (GNU Tools for ARM Embedded Processors) 5.4.1 20160609 (release) [ARM/embedded-5-bran
