ARM GAS  C:\Users\info\AppData\Local\Temp\cc7r1Oln.s 			page 1


   1              		.syntax unified
   2              		.cpu cortex-m3
   3              		.fpu softvfp
   4              		.eabi_attribute 20, 1
   5              		.eabi_attribute 21, 1
   6              		.eabi_attribute 23, 3
   7              		.eabi_attribute 24, 1
   8              		.eabi_attribute 25, 1
   9              		.eabi_attribute 26, 1
  10              		.eabi_attribute 30, 4
  11              		.eabi_attribute 34, 1
  12              		.eabi_attribute 18, 4
  13              		.thumb
  14              		.syntax unified
  15              		.file	"PIXEL_PM.c"
  16              		.text
  17              	.Ltext0:
  18              		.section	.gnu.lto_.profile.bf152f05,"",%progbits
  19 0000 789C6361 		.ascii	"x\234ca`d`a`\000\222\012\\\000\000\264\0005"
  19      60646061 
  19      6000920A 
  19      5C0000B4 
  19      0035
  20              		.text
  21              		.section	.gnu.lto_.icf.bf152f05,"",%progbits
  22 0000 789C6361 		.ascii	"x\234ca`d\000\001\005\006\004`e\330\365\356\340'\016"
  22      60640001 
  22      05060460 
  22      65D8F5EE 
  22      E0270E
  23 0013 C66357DB 		.ascii	"\306cW\333\276\3621\315:\367\372\006\037\363\374\231"
  23      BEF231CD 
  23      3AF7FA06 
  23      1FF3FC99 
  24 0023 878E71B1 		.ascii	"\207\216q\261\200I\006\000\014'\017\211"
  24      80490600 
  24      0C270F89 
  25              		.text
  26              		.section	.gnu.lto_.jmpfuncs.bf152f05,"",%progbits
  27 0000 789C6361 		.ascii	"x\234ca`d\000\001\001\006\004`\001b&\006\006f(\223\001"
  27      60640001 
  27      01060460 
  27      01622606 
  27      06662893 
  28 0015 00031D00 		.ascii	"\000\003\035\000#"
  28      23
  29              		.text
  30              		.section	.gnu.lto_.inline.bf152f05,"",%progbits
  31 0000 789C6361 		.ascii	"x\234ca`d\000\2010\006\004`a``ead`bY \317\300\266@\236"
  31      60640081 
  31      30060460 
  31      61606065 
  31      61646062 
  32 001b 0924C684 		.ascii	"\011$\306\204)\304\314\300\302\003\024\002\262`\"\214"
  32      29C4CCC0 
  32      C2031402 
  32      B260228C 
ARM GAS  C:\Users\info\AppData\Local\Temp\cc7r1Oln.s 			page 2


  33 002b 5C60DD58 		.ascii	"\\`\335X\205\031\000\";\005_"
  33      85190022 
  33      3B055F
  34              		.text
  35              		.section	.gnu.lto_.pureconst.bf152f05,"",%progbits
  36 0000 789C6361 		.ascii	"x\234ca`d\340d```a\220b\222b\226`\221\000\000\002\265"
  36      6064E064 
  36      60606061 
  36      90629262 
  36      96609100 
  37 0017 0080     		.ascii	"\000\200"
  38              		.text
  39              		.section	.gnu.lto_PIXEL_SaveConfig.bf152f05,"",%progbits
  40 0000 789C4D50 		.ascii	"x\234MP\277K\202Q\024}\347\275\317\037\005A{B\021-."
  40      BF4B8251 
  40      147DE7BD 
  40      CF1F0541 
  40      7B42112D 
  41 0015 39F51744 		.ascii	"9\365\027DTP \2714\010\022\366\255\011R\263\317\037"
  41      545020B9 
  41      340812F6 
  41      AD0952B3 
  41      CF1F
  42 0027 1F6543B4 		.ascii	"\037eC\264\350\026ni\251Y\024\224\264|ISDM\265\264T"
  42      E8166E69 
  42      A9591494 
  42      B47C4953 
  42      444DB5B4 
  43 003c 83835418 		.ascii	"\203\203T\030TC\240v\357\347\322\205\307}\357\334\363"
  43      5443A076 
  43      EFE7D285 
  43      C77DEFDC 
  43      F3
  44 004d CEB9F71A 		.ascii	"\316\271\367\032\002\202c\216\322\004\345\021:P\002"
  44      0282638E 
  44      D204E511 
  44      3A5002
  45 005c 72F74E88 		.ascii	"r\367N\210\244W\002|\321^\210\204D\002\337\262#\321"
  45      A457027C 
  45      D15E8884 
  45      4402DFB2 
  45      23D1
  46 006e D86CD6A5 		.ascii	"\330l\326\245\277\250)\236\255\274\322%\033\226\022"
  46      BFA8299E 
  46      ADBCD225 
  46      1B9612
  47 007d A2271D25 		.ascii	"\242'\035%\201\"\374\202h\257'\335\334\220;\303\264"
  47      8122FC82 
  47      68AF27DD 
  47      DC903BC3 
  47      B4
  48 008e B17E1125 		.ascii	"\261~\021%\270\331\256\266d\353^/\255\355S\327\2734"
  48      B8D9AEB6 
  48      64EB5E2F 
  48      ADED53D7 
  48      BB34
  49 00a0 A4B014A1 		.ascii	"\244\260\024\241mb\260\327\247\224\234U\023\215\337"
ARM GAS  C:\Users\info\AppData\Local\Temp\cc7r1Oln.s 			page 3


  49      6D62B0D7 
  49      A7949C55 
  49      138DDF
  50 00af EDC7DC00 		.ascii	"\355\307\334\000\177J+\366\315[\215{\317\227\264\224"
  50      7F4A2BF6 
  50      CD5B8D7B 
  50      CF97B494 
  51 00bf 04EBA7AE 		.ascii	"\004\353\247\256\316.\335\375\347\317MR\033\004\225"
  51      CE2EDDFD 
  51      E7CF4D52 
  51      1B0495
  52 00ce 2BFB1F83 		.ascii	"+\373\037\203\005\354%3\324\221\302!|8\200\217\214\313"
  52      05EC2533 
  52      D491C221 
  52      7C38808F 
  52      8CCB
  53 00e0 28403491 		.ascii	"(@4\221\312\277\214\262\336\1771\303\021\253\327\337"
  53      CABF8CB2 
  53      DE7F31C3 
  53      11ABD7DF 
  54 00f0 9E3C898E 		.ascii	"\236<\211\216\336\322z\230\260,\315\303p\353\366\341"
  54      DED27A98 
  54      B02CCDC3 
  54      70EBF6E1 
  55 0100 DA11D40E 		.ascii	"\332\021\324\016\356B\225\226PaI*\356\\\034g\275\201"
  55      EE429596 
  55      5061492A 
  55      EE5C1C67 
  55      BD81
  56 0112 2A0FA843 		.ascii	"*\017\250C\226r\343\210\\\272\316\026PC\200\232\026"
  56      9672E388 
  56      5CBACE16 
  56      5043809A 
  56      16
  57 0123 2DA4EC73 		.ascii	"-\244\354s\027[:\253iS\3474\033Q\306g\31553\276\262"
  57      175B3AAB 
  57      6953E734 
  57      1B51C667 
  57      CD3533BE 
  58 0138 6EAE4642 		.ascii	"n\256FB\261\215x\324\014\007C\261\351\251pp~yf!\022"
  58      B18D78D4 
  58      0C0743B1 
  58      E9A97070 
  58      7E796621 
  59 014d 5C9C8C8A 		.ascii	"\\\234\214\212?\234b~\252"
  59      3F9C627E 
  59      AA
  60              		.text
  61              		.section	.gnu.lto_PIXEL_backup.bf152f05,"",%progbits
  62 0000 789C6361 		.ascii	"x\234ca`d\000\001] \206\260\030\030\37621\256\177\263"
  62      60640001 
  62      5D2086B0 
  62      1818FE32 
  62      31AE7FB3 
  63 0014 F327EF17 		.ascii	"\363'\357\027\246Vf\240 \220\273sn\373m>\213m\015\035"
  63      A65666A0 
  63      2090BB73 
ARM GAS  C:\Users\info\AppData\Local\Temp\cc7r1Oln.s 			page 4


  63      6EFB6D3E 
  63      8B6D0D1D 
  64 0028 0B1A045A 		.ascii	"\013\032\004Z\231\031\377110.g\224a`\\\301h\301\000"
  64      9919FF31 
  64      31302E67 
  64      9461605C 
  64      C168C100 
  65 003c 00C3A010 		.ascii	"\000\303\240\020)"
  65      29
  66              		.text
  67              		.section	.gnu.lto_PIXEL_RestoreConfig.bf152f05,"",%progbits
  68 0000 789C4D90 		.ascii	"x\234M\220\277K\202A\030\307\357{\367\372*\221\320\324"
  68      BF4B8241 
  68      18C7EF7B 
  68      F7FA2A91 
  68      D0D4
  69 0012 9243448B 		.ascii	"\222CD\213C9\365\027\364\213\242@ri\020$\354]\023\244"
  69      4339F517 
  69      F48BA240 
  69      72691024 
  69      EC5D13A4 
  70 0026 66CF1F2F 		.ascii	"f\317\037/\345\0225\344\026\342PZZ\0264d\015\275ISD"
  70      E51235E4 
  70      16E2505A 
  70      5A163464 
  70      0DBD4953 
  71 003b 4D4D2DD1 		.ascii	"MM-\321\340 \021\012\325\246\366\334\271\364\300\361"
  71      E020110A 
  71      D5A6F6DC 
  71      B9F4C0F1 
  72 004b DC7D9FE7 		.ascii	"\334}\237\347\236\317\367\316``*f(\215S\036\241\005"
  72      9ECFF7CE 
  72      60602A66 
  72      288D531E 
  72      A105
  73 005d C1C0F79E 		.ascii	"\301\300\367\236\031Kz8\2406\322\003\226\340H\340\207"
  73      194B7A38 
  73      A036D203 
  73      96E048E0 
  73      87
  74 006e 7738EADB 		.ascii	"w8\352\333\215\032\367\027%\305\373Q^\310\222\003[0"
  74      8D1AF717 
  74      25C5FB51 
  74      5EC89203 
  74      5B30
  75 0080 D6E37A12 		.ascii	"\326\343z\022C\021~Fm\037\227\335\003\257\231Qm\243"
  75      43117E46 
  75      6D1F97DD 
  75      03AF9951 
  75      6DA3
  76 0092 FD224A30 		.ascii	"\375\"J0\025\256\272\342\310^/-\235\216\2530hpf\013"
  76      15AEBAE2 
  76      C85E2F2D 
  76      9D8EAB30 
  76      6870660B 
  77 00a6 525BD4A1 		.ascii	"R[\324\241Xm\316U\026\015\244n\332w\213\352NZ(l\316"
  77      586DCE55 
ARM GAS  C:\Users\info\AppData\Local\Temp\cc7r1Oln.s 			page 5


  77      160DA46E 
  77      DA778BEA 
  77      4E5A286C 
  78 00bb AEBFB8BF 		.ascii	"\256\277\270\277\271-8\324\370Z\355\363\315\235\350"
  78      B92D38D4 
  78      F85AEDF3 
  78      CD9DE8
  79 00ca C81D2987 		.ascii	"\310\035)\207H\313\222\003%7\237^\037\006\3628LJ\255"
  79      48CB9203 
  79      25379F5E 
  79      1F06F238 
  79      4C4AAD
  80 00dd 0B9C92ED 		.ascii	"\013\234\222\355\023\370tq\367\372\"\353\011L\330\302"
  80      13F87471 
  80      F7FA22EB 
  80      094CD8C2 
  81 00ed 40197974 		.ascii	"@\031yt\265cT\020`\015\324s\205a\005\373OriR\352\376"
  81      B5635410 
  81      600DD473 
  81      856105FB 
  81      4F726952 
  82 0103 EAD6EC1F 		.ascii	"\352\326\354\037\177\037\223\322 \251\\9\376\322\224"
  82      7F1F93D2 
  82      20A95C39 
  82      FED294
  83 0112 0C71BCB6 		.ascii	"\014q\274\2660q\016\037\316\024\006U\232L\216Y\023)"
  83      30710E1F 
  83      CE140655 
  83      9A4C8E59 
  83      1329
  84 0124 677F4E8D 		.ascii	"g\177N\215\324\337\322\"\333\364.B\216\315[\033V|m\323"
  84      D4DFD222 
  84      DBF42E42 
  84      8ECD5B1B 
  84      567C6DD3 
  85 0138 5A8F8462 		.ascii	"Z\217\204b[\361\250\025\016\206b\323S\341\340\302\352"
  85      5BF1A815 
  85      0E8662D3 
  85      53E1E0C2 
  85      EA
  86 0149 EC5224B8 		.ascii	"\354R$\270<\031e\177\026\311|\240"
  86      3C19657F 
  86      16C97CA0 
  87              		.text
  88              		.section	.gnu.lto_PIXEL_Sleep.bf152f05,"",%progbits
  89 0000 789C6361 		.ascii	"x\234ca`d\000\201\325@\254\002\304\322@\314\310\314"
  89      60640081 
  89      D540AC02 
  89      C4D240CC 
  89      C8CC
  90 0012 C0C834E1 		.ascii	"\300\3104\341\034\003C#\007\023##\210\321\300\301\310"
  90      1C034323 
  90      07132323 
  90      88D1C0C1 
  90      C8
  91 0023 50CFC458 		.ascii	"P\317\304X\317\370\225\351/\023\343\241\366g;\2314\227"
  91      CFF895E9 
ARM GAS  C:\Users\info\AppData\Local\Temp\cc7r1Oln.s 			page 6


  91      2F13E3A1 
  91      F6673B99 
  91      3497
  92 0035 3700C183 		.ascii	"7\000\301\203\245\257\014\032V\034`lef`\370\317\004"
  92      A5AF0C1A 
  92      561C606C 
  92      656660F8 
  92      CF04
  93 0047 36898171 		.ascii	"6\211\201q9\243&\003P\331\243\215\377\246\362\262\265"
  93      39A32603 
  93      50D9A38D 
  93      FFA6F2B2 
  93      B5
  94 0058 80942940 		.ascii	"\200\224)@$\031W0\262\201\254[\037t\240\341\377\377"
  94      24195730 
  94      B281AC5B 
  94      1F74A0E1 
  94      FFFF
  95 006a E6860357 		.ascii	"\346\206\003W\331\016\336`\003j\375\000\224\005\331"
  95      D90EDE60 
  95      036AFD00 
  95      9405D9
  96 0079 F3918909 		.ascii	"\363\221\211\011D3\277`l>p\375\030\023H=\310\244\235"
  96      4433BF60 
  96      6C3E70FD 
  96      1813483D 
  96      C8A49D
  97 008c 3BDFDC66 		.ascii	";\337\334f\257\377\333\320\321\320 \320\312\314\370"
  97      AFFFDBD0 
  97      D1D020D0 
  97      CACCF8
  98 009b 9F096808 		.ascii	"\237\011h\010\343J\306z\206Vf&\206W\214M\007n\272\201"
  98      E34AC67A 
  98      86566626 
  98      86578C4D 
  98      076EBA81 
  99 00af 9582C007 		.ascii	"\225\202\300\007\240$\320\010\240\201J\356\251y\251"
  99      A024D008 
  99      A0814AEE 
  99      A979A9
 100 00be 458925A9 		.ascii	"E\211%\251)\361\301\371\245E\311\2511\001\301\371\316"
 100      29F1C1F9 
 100      A545C9A9 
 100      3101C1F9 
 100      CE
 101 00cf A631019E 		.ascii	"\2461\001\236\021\256>\361\001\276z\311\014\000\033"
 101      11AE3EF1 
 101      01BE7AC9 
 101      0C001B
 102 00de 714BC2   		.ascii	"qK\302"
 103              		.text
 104              		.section	.gnu.lto_PIXEL_Wakeup.bf152f05,"",%progbits
 105 0000 789C6361 		.ascii	"x\234ca`d\000\201\325@\254\002\304\322@\314\310\314"
 105      60640081 
 105      D540AC02 
 105      C4D240CC 
 105      C8CC
ARM GAS  C:\Users\info\AppData\Local\Temp\cc7r1Oln.s 			page 7


 106 0012 C0C834E1 		.ascii	"\300\3104\341\034\003C#\007\023##\210\321\300\301\310"
 106      1C034323 
 106      07132323 
 106      88D1C0C1 
 106      C8
 107 0023 50CFC458 		.ascii	"P\317\304X\317\370\225\351/\023\343\241\366g;\2314\227"
 107      CFF895E9 
 107      2F13E3A1 
 107      F6673B99 
 107      3497
 108 0035 3700C183 		.ascii	"7\000\301\203\245\237\015\032V\034`lef`\370\317\004"
 108      A59F0D1A 
 108      561C606C 
 108      656660F8 
 108      CF04
 109 0047 36898171 		.ascii	"6\211\201q9\243&\003P\331\243\215\377\246\362\262\265"
 109      39A32603 
 109      50D9A38D 
 109      FFA6F2B2 
 109      B5
 110 0058 80942940 		.ascii	"\200\224)@$\031W0\262\201\254[\037t\240\341\377\377"
 110      24195730 
 110      B281AC5B 
 110      1F74A0E1 
 110      FFFF
 111 006a E6860373 		.ascii	"\346\206\003s\331\017n`\007j\375\000\224\005\331\363"
 111      D90F6E60 
 111      076AFD00 
 111      9405D9F3 
 112 007a 91890944 		.ascii	"\221\211\011D3\277`l>0\3778\023H=\310\244\235;\337\334"
 112      33BF606C 
 112      3E30FF38 
 112      13483DC8 
 112      A49D3BDF 
 113 008f 66AFFFDB 		.ascii	"f\257\377\333\320\321\320 \320\312\314\370\237\011h"
 113      D0D1D020 
 113      D0CACCF8 
 113      9F0968
 114 009e 08E34AC6 		.ascii	"\010\343J\306z\206Vf&\206W\214M\0076\272\203\225\202"
 114      7A865666 
 114      2686578C 
 114      4D0736BA 
 114      839582
 115 00b1 C007A024 		.ascii	"\300\007\240$\320\010\240\201J\356\251y\251E\211%\251"
 115      D008A081 
 115      4AEEA979 
 115      A9458925 
 115      A9
 116 00c2 29F1C1F9 		.ascii	")\361\301\371\245E\311\2511\001\301\371\316\2461\001"
 116      A545C9A9 
 116      3101C1F9 
 116      CEA63101 
 117 00d2 9E11AE3E 		.ascii	"\236\021\256>\361\001\276z\311\014\000\325tK\017"
 117      F101BE7A 
 117      C90C00D5 
 117      744B0F
 118              		.text
ARM GAS  C:\Users\info\AppData\Local\Temp\cc7r1Oln.s 			page 8


 119              		.section	.gnu.lto_.symbol_nodes.bf152f05,"",%progbits
 120 0000 789C5589 		.ascii	"x\234U\211A\021\200@\014\304\322\335b\000\007\030\303"
 120      41118040 
 120      0CC4D2DD 
 120      62000718 
 120      C3
 121 0011 4A4F021A 		.ascii	"JO\002\032\220\201\0104\240\204\341\206_\363\311L\222"
 121      90810834 
 121      A084E186 
 121      5FF3C94C 
 121      92
 122 0022 043B1345 		.ascii	"\004;\023E\301q\303\32456X`\254`\251\242\015\271\324"
 122      C171C3D4 
 122      35365860 
 122      AC60A9A2 
 122      0DB9D4
 123 0035 43965BB0 		.ascii	"C\226[\260\341|\336p\3527\037\230\252\025\003"
 123      E17CDE70 
 123      EA371F98 
 123      AA1503
 124              		.text
 125              		.section	.gnu.lto_.refs.bf152f05,"",%progbits
 126 0000 789C6361 		.ascii	"x\234ca`d\340f`\000\222\214\214L\214L@\222\001\000\001"
 126      6064E066 
 126      6000928C 
 126      8C4C8C4C 
 126      40920100 
 127 0015 54001B   		.ascii	"T\000\033"
 128              		.text
 129              		.section	.gnu.lto_.decls.bf152f05,"",%progbits
 130 0000 789C8D94 		.ascii	"x\234\215\224}LSW\024\300\357y\257\264\344Q\252\221"
 130      7D4C5357 
 130      14C0EF79 
 130      AFB4E451 
 130      AA91
 131 0012 C5F04713 		.ascii	"\305\360G\023+\321\254\311\022\034[\226\370\237\333"
 131      2BD1ACC9 
 131      121C5B96 
 131      F89FDB
 132 0021 1A3546DD 		.ascii	"\0325F\335\210\005\267?H\010\326\247#\022\252\265,\341"
 132      8805B73F 
 132      4808D6A7 
 132      2312AAB5 
 132      2CE1
 133 0033 BF2BF835 		.ascii	"\277+\3705\314\014\032u\226}\341G6\234@\201\242\200"
 133      CC0C1A75 
 133      967DE147 
 133      369C4081 
 133      A280
 134 0045 1F58A720 		.ascii	"\037X\247 \370\301\224-\313\214\013VXH\3304\301h\\0"
 134      F8C1942D 
 134      CB8C0B56 
 134      5848D834 
 134      C1685C30 
 135 0059 B27AEEC7 		.ascii	"\262z\356\307\353{\230bv\323\363\3569\357\236\363;\347"
 135      EB7B9862 
 135      76D3F3EE 
ARM GAS  C:\Users\info\AppData\Local\Temp\cc7r1Oln.s 			page 9


 135      39EF9EF3 
 135      3BE7
 136 006b DE735F6D 		.ascii	"\336s_m\004\010\033\3533\010\031\307\271\004\315$\016"
 136      04081BEB 
 136      330819C7 
 136      B904CD24 
 136      0E
 137 007c 3B7B47CC 		.ascii	";{G\314aCiA\211\242\264\243\304PX\344e2s0\037\207\214"
 137      61436941 
 137      89A2B4A3 
 137      C45058E4 
 137      65327330 
 138 0093 75A30CA0 		.ascii	"u\243\014\240\364\243\014\242\304Q\316\311\270\363r"
 138      F4A30CA2 
 138      C451CEC9 
 138      B8F372
 139 00a2 6E9985C3 		.ascii	"n\231\205\303lE2\342\226\230t#\372JNk.#\2775gt\226\234"
 139      6C4532E2 
 139      96987423 
 139      FA4A4E6B 
 139      2E23BF35 
 140 00ba 6C5FAAE4 		.ascii	"l_\252\344\\Gi\226\357\025\271\326\222&w\354511\231"
 140      5C476996 
 140      EF15B9D6 
 140      922677EC 
 140      35313199 
 141 00ce EBD531AD 		.ascii	"\353\3251\255@w\335\321gs\356\301]P@6\200\000\210'p"
 141      4077DDD1 
 141      6773EEC1 
 141      5D504036 
 141      80008827 
 142 00e3 2142B889 		.ascii	"!B\270\211\212\302\237$\365*5\221\224\213TM\030\377"
 142      8AC29F24 
 142      F52A3591 
 142      948B544D 
 142      18FF
 143 00f5 1973D218 		.ascii	"\031s\322\030\034b\322A\006A\252\002\251\363u\305L\000"
 143      1C62D241 
 143      0641AA02 
 143      A9F375C5 
 143      4C00
 144 0107 C234022C 		.ascii	"\3024\002,<Q\256\245&\230\271'06\375eo,\341Tq\307\250"
 144      3C51AEA5 
 144      2698B927 
 144      3036FD65 
 144      6F2CE154 
 145 011e DF9F6A5A 		.ascii	"\337\237jZ\221\337Lq\324S\252\274e\236L_\362\337\370"
 145      91DF4C71 
 145      D453AABC 
 145      659E4C5F 
 145      F2DFF8
 146 0131 9CA70ACC 		.ascii	"\234\247\012\314\323@Asx\362\346\267Yh\276\241\301\\"
 146      D3404173 
 146      78F2E6B7 
 146      5968BEA1 
 146      C15C
 147 0143 34FFE98D 		.ascii	"4\377\351\215$\263s\217\2608ZK=\012\254\237\017\247"
ARM GAS  C:\Users\info\AppData\Local\Temp\cc7r1Oln.s 			page 10


 147      24B3738F 
 147      B0385A4B 
 147      3D0AAC9F 
 147      0FA7
 148 0155 C10D3F01 		.ascii	"\301\015?\0016\036\232!\027\237\033l\202\264\377\306"
 148      361E9A21 
 148      179F1B6C 
 148      82B4FFC6 
 149 0165 C99B90D7 		.ascii	"\311\233\220\327H\023m41\225x'B\3435\030\2450/h\002"
 149      48136D34 
 149      31957827 
 149      42E33518 
 149      A5302F68 
 150 017a 154E413E 		.ascii	"\025NA>\253\016U6\375\010\367\260\354\026\310\303\310"
 150      AB0E5536 
 150      FD08F7B0 
 150      EC16C8C3 
 150      C8
 151 018b 5FBEFBED 		.ascii	"_\276\373\355OP\227\361Bk\277\037\032v\010J\374\271"
 151      4F5097F1 
 151      426BBF1F 
 151      1A76084A 
 151      FCB9
 152 019d 4E7721C2 		.ascii	"Nw!\302\306\021\255&\242\325\212\210rD\327h\274\313"
 152      C611AD26 
 152      A2D58A88 
 152      7244D768 
 152      BCCB
 153 01af A1FA39E2 		.ascii	"\241\3729\342\305\203\316q\027\"\032\0211\334\357\244"
 153      C583CE71 
 153      17221A11 
 153      31DCEFA4 
 154 01bf B791F13E 		.ascii	"\267\221\361>g\264\231\2146+\243\2353.=\372\243\336"
 154      67B4998C 
 154      362BA39D 
 154      332E3DFA 
 154      A3DE
 155 01d1 A59672C6 		.ascii	"\245\226r\306\236C#\343\016\311h\270fet\230\214\016"
 155      9E4323E3 
 155      0EC968B8 
 155      66657498 
 155      8C0E
 156 01e3 2B23C619 		.ascii	"+#\306\031\317\206F=j\005G\354\037\033\031\261\253\325"
 156      CF86463D 
 156      6A0547EC 
 156      1F1B19B1 
 156      ABD5
 157 01f5 5C8FEEFA 		.ascii	"\\\217\356\372\353T&\036\253[\203$0\373a\317T\266\260"
 157      EB54261E 
 157      AB5B8324 
 157      30FB61CF 
 157      54B6B0
 158 0208 D972E4C0 		.ascii	"\331r\344\300\330\177Y\352n`\206\362\353\330\351\011"
 158      D87F59EA 
 158      6E6086F2 
 158      EBD8E909 
 159 0218 1B78B51F 		.ascii	"\033x\265\037\330\241'z\3526}\265\207\035\3439\320\240"
ARM GAS  C:\Users\info\AppData\Local\Temp\cc7r1Oln.s 			page 11


 159      D8A1277A 
 159      EA367DB5 
 159      871DE339 
 159      D0A0
 160 022a DBCCEDD6 		.ascii	"\333\314\355\326\360\271\227\322\032:y\234\332s\011"
 160      F0B997D2 
 160      1A3A799C 
 160      DA7309
 161 0239 BCEB86B7 		.ascii	"\274\353\206\267\335\004z\300\313\250\314\013\272\260"
 161      DD047AC0 
 161      CBA8CC0B 
 161      BAB0
 162 0247 5367B153 		.ascii	"Sg\261S\323\212\332<q\377\013\033,\312\361\036g!\211"
 162      D38ADA3C 
 162      71FF0B1B 
 162      2CCAF11E 
 162      672189
 163 025a 8BFBDEFC 		.ascii	"\213\373\336\374\272\025[j\347\3303\210\275\0009\006"
 163      BA155B6A 
 163      E7D83388 
 163      BD003906 
 164 026a 6209EB6D 		.ascii	"b\011\353m\001\373\262\017\260\022&\261\215\260\315"
 164      01FBB20F 
 164      B01226B1 
 164      8DB0CD
 165 0279 4840B827 		.ascii	"H@\270'\342\341\"f:\017\213\370E\342\265\306#:\245\231"
 165      E2E12266 
 165      3A0F8BF8 
 165      45E2B5C6 
 165      233AA599 
 166 028d 6C9DC82A 		.ascii	"l\235\310*\345\035{\332w\362\250C\035\022\333;\322="
 166      E51D7BDA 
 166      77F2A843 
 166      1D12DB3B 
 166      D23D
 167 029f 3269076F 		.ascii	"2i\007o\216\010i\317\306\255\305\221\330kn\215\001\322"
 167      8E0869CF 
 167      C6ADC591 
 167      D86B6E8D 
 167      01D2
 168 02b1 E6864B98 		.ascii	"\346\206K\2302]zv\301\273\007\317f->A)^\235\251\013"
 168      325D7A76 
 168      C1BB07CF 
 168      662D3E41 
 168      295E9DA9 
 169 02c6 E54F6A68 		.ascii	"\345Ojh.\347v\012n\252zf\027\341\347}\031\026c\324\235"
 169      2EE7760A 
 169      6EAA7A66 
 169      17E1E77D 
 169      191663D4 
 170 02db 9D6DDFA8 		.ascii	"\235m\337\250\342\366\333\320||\253a\314%n\277\207\325"
 170      E2F6DBD0 
 170      7C7CAB61 
 170      CC256EBF 
 170      87D5
 171 02ed BDF3C9EF 		.ascii	"\275\363\311\357vm/\273\372\377\347\220\341\326\304"
 171      766D2FBB 
ARM GAS  C:\Users\info\AppData\Local\Temp\cc7r1Oln.s 			page 12


 171      FAFFE790 
 171      E1D6C4
 172 02fc B1A4431D 		.ascii	"\261\244C\035\025\373\214\035\216\034v\200\346M\023"
 172      15FB8C1D 
 172      8E1C7680 
 172      E64D13
 173 030b 7E2D4DB8 		.ascii	"~-M\270\321\355\217\033\016\356\240\036\350\307\266"
 173      D1ED8F1B 
 173      0EEEA01E 
 173      E8C7B6
 174 031a F4994772 		.ascii	"\364\231Gr\0254\261\315\316\333\217\242\031\316:\326"
 174      1534B1CD 
 174      CEDB8FA2 
 174      19CE3AD6 
 175 032a C4FA5A3A 		.ascii	"\304\372Z:o\300\305=\257 \344g\376I\016\200\223\377"
 175      6FC0C53D 
 175      AF20E467 
 175      FE490E80 
 175      93FF
 176 033c 11E0CCFE 		.ascii	"\021\340\314\376\366\376\336=\255\316\360fGbz\017J\357"
 176      F6FEDE3D 
 176      ADCEF066 
 176      47627A0F 
 176      4AEF
 177 034e 41EE3DDE 		.ascii	"A\356=\336\024kt\315\360f\367\335\364\276\016N\243\036"
 177      146B74CD 
 177      F066F7DD 
 177      F4BE0E4E 
 177      A31E
 178 0360 54C9DCC2 		.ascii	"T\311\334\302U\237._S\352/\373\\\367\005+7\225o\316"
 178      559F2E5F 
 178      53EA2FFB 
 178      5CF7052B 
 178      37956FCE 
 179 0374 5CF951B1 		.ascii	"\\\371Q\261\307WP@\362V\352\225z\250,\254o,\365\007"
 179      C7575040 
 179      F256EA95 
 179      7AA82CAC 
 179      6F2CF507 
 180 0388 AB4201BD 		.ascii	"\253B\001\275\244\320\037\364\275W\"\002\012\327\346"
 180      A4D01FF4 
 180      BD572202 
 180      0AD7E6
 181 0397 07488ED0 		.ascii	"\007H\216\320\327\351\333\303\301\220\214\317\222\300"
 181      D7E9DBC3 
 181      C1908CCF 
 181      92C0
 182 03a5 0A5DDFEA 		.ascii	"\012]\337\352\024\372'e[\364*\303\330P\026\330\202F"
 182      14FA2765 
 182      5BF42AC3 
 182      D85016D8 
 182      8246
 183 03b7 2058190E 		.ascii	" X\031\016\005+\374aL\220QU^\031^\272p\226|\201\352"
 183      052BFC61 
 183      4C905155 
 183      5E195EBA 
 183      70967C81 
ARM GAS  C:\Users\info\AppData\Local\Temp\cc7r1Oln.s 			page 13


 184 03cc 70F5567D 		.ascii	"p\365V}{\376gd\301\353*\302uY\316\207\037\370V\027\027"
 184      7BFE6764 
 184      C1EB2AC2 
 184      7559CE87 
 184      1FF85617 
 185 03e1 96FA8BD6 		.ascii	"\226\372\213\326\025\373\212l!}\363\322\227\326o\331"
 185      15FB8A6C 
 185      217DF3D2 
 185      97D66FD9 
 186 03f1 A7       		.ascii	"\247"
 187              		.text
 188              		.section	.gnu.lto_.symtab.bf152f05,"",%progbits
 189 0000 50495845 		.ascii	"PIXEL_SaveConfig\000"
 189      4C5F5361 
 189      7665436F 
 189      6E666967 
 189      00
 190 0011 00       		.ascii	"\000"
 191 0012 00       		.ascii	"\000"
 192 0013 00       		.ascii	"\000"
 193 0014 00000000 		.ascii	"\000\000\000\000\000\000\000\000"
 193      00000000 
 194 001c AD000000 		.ascii	"\255\000\000\000"
 195 0020 50495845 		.ascii	"PIXEL_RestoreConfig\000"
 195      4C5F5265 
 195      73746F72 
 195      65436F6E 
 195      66696700 
 196 0034 00       		.ascii	"\000"
 197 0035 00       		.ascii	"\000"
 198 0036 00       		.ascii	"\000"
 199 0037 00000000 		.ascii	"\000\000\000\000\000\000\000\000"
 199      00000000 
 200 003f AF000000 		.ascii	"\257\000\000\000"
 201 0043 50495845 		.ascii	"PIXEL_Sleep\000"
 201      4C5F536C 
 201      65657000 
 202 004f 00       		.ascii	"\000"
 203 0050 00       		.ascii	"\000"
 204 0051 00       		.ascii	"\000"
 205 0052 00000000 		.ascii	"\000\000\000\000\000\000\000\000"
 205      00000000 
 206 005a B1000000 		.ascii	"\261\000\000\000"
 207 005e 50495845 		.ascii	"PIXEL_Wakeup\000"
 207      4C5F5761 
 207      6B657570 
 207      00
 208 006b 00       		.ascii	"\000"
 209 006c 00       		.ascii	"\000"
 210 006d 00       		.ascii	"\000"
 211 006e 00000000 		.ascii	"\000\000\000\000\000\000\000\000"
 211      00000000 
 212 0076 B3000000 		.ascii	"\263\000\000\000"
 213              		.text
 214              		.section	.gnu.lto_.opts,"",%progbits
 215 0000 272D666D 		.ascii	"'-fmath-errno' '-fsigned-zeros' '-ftrapping-math' '"
 215      6174682D 
ARM GAS  C:\Users\info\AppData\Local\Temp\cc7r1Oln.s 			page 14


 215      6572726E 
 215      6F272027 
 215      2D667369 
 216 0033 2D666E6F 		.ascii	"-fno-trapv' '-fno-openmp' '-fno-openacc' '-mcpu=cor"
 216      2D747261 
 216      70762720 
 216      272D666E 
 216      6F2D6F70 
 217 0066 7465782D 		.ascii	"tex-m3' '-mthumb' '-g' '-Os' '-ffunction-sections' "
 217      6D332720 
 217      272D6D74 
 217      68756D62 
 217      2720272D 
 218 0099 272D6666 		.ascii	"'-ffat-lto-objects' '-flto'\000"
 218      61742D6C 
 218      746F2D6F 
 218      626A6563 
 218      74732720 
 219              		.text
 220              		.cfi_sections	.debug_frame
 221              		.section	.text.PIXEL_SaveConfig,"ax",%progbits
 222              		.align	1
 223              		.global	PIXEL_SaveConfig
 224              		.thumb
 225              		.thumb_func
 226              		.type	PIXEL_SaveConfig, %function
 227              	PIXEL_SaveConfig:
 228              	.LFB0:
 229              		.file 1 "Generated_Source\\PSoC5\\PIXEL_PM.c"
   1:Generated_Source\PSoC5/PIXEL_PM.c **** /*******************************************************************************
   2:Generated_Source\PSoC5/PIXEL_PM.c **** * File Name: PIXEL_PM.c
   3:Generated_Source\PSoC5/PIXEL_PM.c **** * Version 1.80
   4:Generated_Source\PSoC5/PIXEL_PM.c **** *
   5:Generated_Source\PSoC5/PIXEL_PM.c **** * Description:
   6:Generated_Source\PSoC5/PIXEL_PM.c **** *  This file contains the setup, control, and status commands to support 
   7:Generated_Source\PSoC5/PIXEL_PM.c **** *  the component operation in the low power mode. 
   8:Generated_Source\PSoC5/PIXEL_PM.c **** *
   9:Generated_Source\PSoC5/PIXEL_PM.c **** * Note:
  10:Generated_Source\PSoC5/PIXEL_PM.c **** *
  11:Generated_Source\PSoC5/PIXEL_PM.c **** ********************************************************************************
  12:Generated_Source\PSoC5/PIXEL_PM.c **** * Copyright 2015, Cypress Semiconductor Corporation.  All rights reserved.
  13:Generated_Source\PSoC5/PIXEL_PM.c **** * You may use this file only in accordance with the license, terms, conditions, 
  14:Generated_Source\PSoC5/PIXEL_PM.c **** * disclaimers, and limitations in the end user license agreement accompanying 
  15:Generated_Source\PSoC5/PIXEL_PM.c **** * the software package with which this file was provided.
  16:Generated_Source\PSoC5/PIXEL_PM.c **** *******************************************************************************/
  17:Generated_Source\PSoC5/PIXEL_PM.c **** 
  18:Generated_Source\PSoC5/PIXEL_PM.c **** #include "PIXEL.h"
  19:Generated_Source\PSoC5/PIXEL_PM.c **** 
  20:Generated_Source\PSoC5/PIXEL_PM.c **** /* Check for removal by optimization */
  21:Generated_Source\PSoC5/PIXEL_PM.c **** #if !defined(PIXEL_Sync_ctrl_reg__REMOVED)
  22:Generated_Source\PSoC5/PIXEL_PM.c **** 
  23:Generated_Source\PSoC5/PIXEL_PM.c **** static PIXEL_BACKUP_STRUCT  PIXEL_backup = {0u};
  24:Generated_Source\PSoC5/PIXEL_PM.c **** 
  25:Generated_Source\PSoC5/PIXEL_PM.c ****     
  26:Generated_Source\PSoC5/PIXEL_PM.c **** /*******************************************************************************
  27:Generated_Source\PSoC5/PIXEL_PM.c **** * Function Name: PIXEL_SaveConfig
  28:Generated_Source\PSoC5/PIXEL_PM.c **** ********************************************************************************
ARM GAS  C:\Users\info\AppData\Local\Temp\cc7r1Oln.s 			page 15


  29:Generated_Source\PSoC5/PIXEL_PM.c **** *
  30:Generated_Source\PSoC5/PIXEL_PM.c **** * Summary:
  31:Generated_Source\PSoC5/PIXEL_PM.c **** *  Saves the control register value.
  32:Generated_Source\PSoC5/PIXEL_PM.c **** *
  33:Generated_Source\PSoC5/PIXEL_PM.c **** * Parameters:
  34:Generated_Source\PSoC5/PIXEL_PM.c **** *  None
  35:Generated_Source\PSoC5/PIXEL_PM.c **** *
  36:Generated_Source\PSoC5/PIXEL_PM.c **** * Return:
  37:Generated_Source\PSoC5/PIXEL_PM.c **** *  None
  38:Generated_Source\PSoC5/PIXEL_PM.c **** *
  39:Generated_Source\PSoC5/PIXEL_PM.c **** *******************************************************************************/
  40:Generated_Source\PSoC5/PIXEL_PM.c **** void PIXEL_SaveConfig(void) 
  41:Generated_Source\PSoC5/PIXEL_PM.c **** {
 230              		.loc 1 41 0
 231              		.cfi_startproc
 232              		@ args = 0, pretend = 0, frame = 0
 233              		@ frame_needed = 0, uses_anonymous_args = 0
 234              		@ link register save eliminated.
  42:Generated_Source\PSoC5/PIXEL_PM.c ****     PIXEL_backup.controlState = PIXEL_Control;
 235              		.loc 1 42 0
 236 0000 024B     		ldr	r3, .L2
 237 0002 1A78     		ldrb	r2, [r3]	@ zero_extendqisi2
 238 0004 024B     		ldr	r3, .L2+4
 239 0006 1A70     		strb	r2, [r3]
 240 0008 7047     		bx	lr
 241              	.L3:
 242 000a 00BF     		.align	2
 243              	.L2:
 244 000c 76650040 		.word	1073767798
 245 0010 00000000 		.word	.LANCHOR0
 246              		.cfi_endproc
 247              	.LFE0:
 248              		.size	PIXEL_SaveConfig, .-PIXEL_SaveConfig
 249              		.section	.text.PIXEL_RestoreConfig,"ax",%progbits
 250              		.align	1
 251              		.global	PIXEL_RestoreConfig
 252              		.thumb
 253              		.thumb_func
 254              		.type	PIXEL_RestoreConfig, %function
 255              	PIXEL_RestoreConfig:
 256              	.LFB1:
  43:Generated_Source\PSoC5/PIXEL_PM.c **** }
  44:Generated_Source\PSoC5/PIXEL_PM.c **** 
  45:Generated_Source\PSoC5/PIXEL_PM.c **** 
  46:Generated_Source\PSoC5/PIXEL_PM.c **** /*******************************************************************************
  47:Generated_Source\PSoC5/PIXEL_PM.c **** * Function Name: PIXEL_RestoreConfig
  48:Generated_Source\PSoC5/PIXEL_PM.c **** ********************************************************************************
  49:Generated_Source\PSoC5/PIXEL_PM.c **** *
  50:Generated_Source\PSoC5/PIXEL_PM.c **** * Summary:
  51:Generated_Source\PSoC5/PIXEL_PM.c **** *  Restores the control register value.
  52:Generated_Source\PSoC5/PIXEL_PM.c **** *
  53:Generated_Source\PSoC5/PIXEL_PM.c **** * Parameters:
  54:Generated_Source\PSoC5/PIXEL_PM.c **** *  None
  55:Generated_Source\PSoC5/PIXEL_PM.c **** *
  56:Generated_Source\PSoC5/PIXEL_PM.c **** * Return:
  57:Generated_Source\PSoC5/PIXEL_PM.c **** *  None
  58:Generated_Source\PSoC5/PIXEL_PM.c **** *
ARM GAS  C:\Users\info\AppData\Local\Temp\cc7r1Oln.s 			page 16


  59:Generated_Source\PSoC5/PIXEL_PM.c **** *
  60:Generated_Source\PSoC5/PIXEL_PM.c **** *******************************************************************************/
  61:Generated_Source\PSoC5/PIXEL_PM.c **** void PIXEL_RestoreConfig(void) 
  62:Generated_Source\PSoC5/PIXEL_PM.c **** {
 257              		.loc 1 62 0
 258              		.cfi_startproc
 259              		@ args = 0, pretend = 0, frame = 0
 260              		@ frame_needed = 0, uses_anonymous_args = 0
 261              		@ link register save eliminated.
  63:Generated_Source\PSoC5/PIXEL_PM.c ****      PIXEL_Control = PIXEL_backup.controlState;
 262              		.loc 1 63 0
 263 0000 024B     		ldr	r3, .L5
 264 0002 1A78     		ldrb	r2, [r3]	@ zero_extendqisi2
 265 0004 024B     		ldr	r3, .L5+4
 266 0006 1A70     		strb	r2, [r3]
 267 0008 7047     		bx	lr
 268              	.L6:
 269 000a 00BF     		.align	2
 270              	.L5:
 271 000c 00000000 		.word	.LANCHOR0
 272 0010 76650040 		.word	1073767798
 273              		.cfi_endproc
 274              	.LFE1:
 275              		.size	PIXEL_RestoreConfig, .-PIXEL_RestoreConfig
 276              		.section	.text.PIXEL_Sleep,"ax",%progbits
 277              		.align	1
 278              		.global	PIXEL_Sleep
 279              		.thumb
 280              		.thumb_func
 281              		.type	PIXEL_Sleep, %function
 282              	PIXEL_Sleep:
 283              	.LFB2:
  64:Generated_Source\PSoC5/PIXEL_PM.c **** }
  65:Generated_Source\PSoC5/PIXEL_PM.c **** 
  66:Generated_Source\PSoC5/PIXEL_PM.c **** 
  67:Generated_Source\PSoC5/PIXEL_PM.c **** /*******************************************************************************
  68:Generated_Source\PSoC5/PIXEL_PM.c **** * Function Name: PIXEL_Sleep
  69:Generated_Source\PSoC5/PIXEL_PM.c **** ********************************************************************************
  70:Generated_Source\PSoC5/PIXEL_PM.c **** *
  71:Generated_Source\PSoC5/PIXEL_PM.c **** * Summary:
  72:Generated_Source\PSoC5/PIXEL_PM.c **** *  Prepares the component for entering the low power mode.
  73:Generated_Source\PSoC5/PIXEL_PM.c **** *
  74:Generated_Source\PSoC5/PIXEL_PM.c **** * Parameters:
  75:Generated_Source\PSoC5/PIXEL_PM.c **** *  None
  76:Generated_Source\PSoC5/PIXEL_PM.c **** *
  77:Generated_Source\PSoC5/PIXEL_PM.c **** * Return:
  78:Generated_Source\PSoC5/PIXEL_PM.c **** *  None
  79:Generated_Source\PSoC5/PIXEL_PM.c **** *
  80:Generated_Source\PSoC5/PIXEL_PM.c **** *******************************************************************************/
  81:Generated_Source\PSoC5/PIXEL_PM.c **** void PIXEL_Sleep(void) 
  82:Generated_Source\PSoC5/PIXEL_PM.c **** {
 284              		.loc 1 82 0
 285              		.cfi_startproc
 286              		@ args = 0, pretend = 0, frame = 0
 287              		@ frame_needed = 0, uses_anonymous_args = 0
 288              		@ link register save eliminated.
  83:Generated_Source\PSoC5/PIXEL_PM.c ****     PIXEL_SaveConfig();
ARM GAS  C:\Users\info\AppData\Local\Temp\cc7r1Oln.s 			page 17


 289              		.loc 1 83 0
 290 0000 FFF7FEBF 		b	PIXEL_SaveConfig
 291              	.LVL0:
 292              		.cfi_endproc
 293              	.LFE2:
 294              		.size	PIXEL_Sleep, .-PIXEL_Sleep
 295              		.section	.text.PIXEL_Wakeup,"ax",%progbits
 296              		.align	1
 297              		.global	PIXEL_Wakeup
 298              		.thumb
 299              		.thumb_func
 300              		.type	PIXEL_Wakeup, %function
 301              	PIXEL_Wakeup:
 302              	.LFB3:
  84:Generated_Source\PSoC5/PIXEL_PM.c **** }
  85:Generated_Source\PSoC5/PIXEL_PM.c **** 
  86:Generated_Source\PSoC5/PIXEL_PM.c **** 
  87:Generated_Source\PSoC5/PIXEL_PM.c **** /*******************************************************************************
  88:Generated_Source\PSoC5/PIXEL_PM.c **** * Function Name: PIXEL_Wakeup
  89:Generated_Source\PSoC5/PIXEL_PM.c **** ********************************************************************************
  90:Generated_Source\PSoC5/PIXEL_PM.c **** *
  91:Generated_Source\PSoC5/PIXEL_PM.c **** * Summary:
  92:Generated_Source\PSoC5/PIXEL_PM.c **** *  Restores the component after waking up from the low power mode.
  93:Generated_Source\PSoC5/PIXEL_PM.c **** *
  94:Generated_Source\PSoC5/PIXEL_PM.c **** * Parameters:
  95:Generated_Source\PSoC5/PIXEL_PM.c **** *  None
  96:Generated_Source\PSoC5/PIXEL_PM.c **** *
  97:Generated_Source\PSoC5/PIXEL_PM.c **** * Return:
  98:Generated_Source\PSoC5/PIXEL_PM.c **** *  None
  99:Generated_Source\PSoC5/PIXEL_PM.c **** *
 100:Generated_Source\PSoC5/PIXEL_PM.c **** *******************************************************************************/
 101:Generated_Source\PSoC5/PIXEL_PM.c **** void PIXEL_Wakeup(void)  
 102:Generated_Source\PSoC5/PIXEL_PM.c **** {
 303              		.loc 1 102 0
 304              		.cfi_startproc
 305              		@ args = 0, pretend = 0, frame = 0
 306              		@ frame_needed = 0, uses_anonymous_args = 0
 307              		@ link register save eliminated.
 103:Generated_Source\PSoC5/PIXEL_PM.c ****     PIXEL_RestoreConfig();
 308              		.loc 1 103 0
 309 0000 FFF7FEBF 		b	PIXEL_RestoreConfig
 310              	.LVL1:
 311              		.cfi_endproc
 312              	.LFE3:
 313              		.size	PIXEL_Wakeup, .-PIXEL_Wakeup
 314              		.bss
 315              		.set	.LANCHOR0,. + 0
 316              		.type	PIXEL_backup, %object
 317              		.size	PIXEL_backup, 1
 318              	PIXEL_backup:
 319 0000 00       		.space	1
 320              		.text
 321              	.Letext0:
 322              		.file 2 "Generated_Source\\PSoC5\\cytypes.h"
 323              		.file 3 "Generated_Source\\PSoC5\\PIXEL.h"