ARM GAS  C:\Users\info\AppData\Local\Temp\cc9Nu7d7.s 			page 1


   1              		.syntax unified
   2              		.cpu cortex-m3
   3              		.fpu softvfp
   4              		.eabi_attribute 20, 1
   5              		.eabi_attribute 21, 1
   6              		.eabi_attribute 23, 3
   7              		.eabi_attribute 24, 1
   8              		.eabi_attribute 25, 1
   9              		.eabi_attribute 26, 1
  10              		.eabi_attribute 30, 4
  11              		.eabi_attribute 34, 1
  12              		.eabi_attribute 18, 4
  13              		.thumb
  14              		.syntax unified
  15              		.file	"random.c"
  16              		.text
  17              	.Ltext0:
  18              		.section	.gnu.lto_.profile.bf152308,"",%progbits
  19 0000 789C6361 		.ascii	"x\234ca`d`a`\000\222\251j\000\001Z\000\226"
  19      60646061 
  19      600092A9 
  19      6A00015A 
  19      0096
  20              		.text
  21              		.section	.gnu.lto_.icf.bf152308,"",%progbits
  22 0000 789C6361 		.ascii	"x\234ca`d\000\001\027\006\004\340f\230q\373h7#\343\242"
  22      60640001 
  22      170604E0 
  22      669871FB 
  22      683723E3 
  23 0015 9F33EE72 		.ascii	"\2373\356r3MZ\365\373\007\007\363\332\233\273;yX~\315"
  23      334D5AF5 
  23      FB0707F3 
  23      DA9BBB3B 
  23      79587ECD 
  24 0029 BED3C2C4 		.ascii	"\276\323\302\304\272\346\357\215\353ll\023\233\316\357"
  24      BAE6EF8D 
  24      EB6C6C13 
  24      9BCEEF
  25 0038 E460EFB9 		.ascii	"\344`\357\271\326\367\226\233c\303\266\216\265L\234"
  25      D6F7969B 
  25      63C3B68E 
  25      B54C9C
  26 0047 134E7E9E 		.ascii	"\023N~\236\306\305\265n\351\254\317\274\014\000\202"
  26      C6C5B56E 
  26      E9ACCFBC 
  26      0C0082
  27 0056 1E20CE   		.ascii	"\036 \316"
  28              		.text
  29              		.section	.gnu.lto_.jmpfuncs.bf152308,"",%progbits
  30 0000 789C6361 		.ascii	"x\234ca`d\000\001g\006\004\340\004b\240(\023##c=\023"
  30      60640001 
  30      670604E0 
  30      0462A028 
  30      13232363 
  31 0016 48809901 		.ascii	"H\200\231\001\304\373\313\304x\271\371\310y\346/L\255"
  31      C4FBCBC4 
ARM GAS  C:\Users\info\AppData\Local\Temp\cc9Nu7d7.s 			page 2


  31      78B9F9C8 
  31      79E62F4C 
  31      AD
  32 0027 CC0C8CFF 		.ascii	"\314\014\214\377\031\031\2273\31200\260\200\024\260"
  32      19199733 
  32      CA3030B0 
  32      8014B0
  33 0036 3130B083 		.ascii	"10\260\203Ts\0005\203h\006\000F/\0115"
  33      54730035 
  33      83680600 
  33      462F0935 
  34              		.text
  35              		.section	.gnu.lto_.inline.bf152308,"",%progbits
  36 0000 789C6361 		.ascii	"x\234ca`d\000\201s\014\010\300\311\300\300\306\312\310"
  36      60640081 
  36      730C08C0 
  36      C9C0C0C6 
  36      CAC8
  37 0012 C0C4F641 		.ascii	"\300\304\366A\217\201m\201<\023H\214\021S\210\211\201"
  37      8F816D81 
  37      3C13488C 
  37      11538889 
  37      81
  38 0023 5B0628C4 		.ascii	"[\006(\304q\300\016!\304\015T9\301\017D103pH\002\245"
  38      71C00E21 
  38      C40D5439 
  38      C10F4431 
  38      30337048 
  39 0039 5916C823 		.ascii	"Y\026\310#\014\341\202\251a`a\340\024\006i\376e\202"
  39      0CE182A9 
  39      616061E0 
  39      140669FE 
  39      6582
  40 004b 2A0B26D8 		.ascii	"*\013&\330\030X\230\201\222L\027\370\341\222\354\230"
  40      18589881 
  40      924C17F8 
  40      E192EC98 
  41 005b 421C9842 		.ascii	"B\034\230B\234\230B\014\000\036\014\022\250"
  41      9C98420C 
  41      001E0C12 
  41      A8
  42              		.text
  43              		.section	.gnu.lto_.pureconst.bf152308,"",%progbits
  44 0000 789C6361 		.ascii	"x\234ca`d\020f``\340d\220b\224b\222b\226b\221`\223b"
  44      60641066 
  44      6060E064 
  44      90629462 
  44      92629662 
  45 0018 97E290E2 		.ascii	"\227\342\220\342\224\002\000\014,\0012"
  45      9402000C 
  45      2C0132
  46              		.text
  47              		.section	.gnu.lto_random_Enable.bf152308,"",%progbits
  48 0000 789C7D8F 		.ascii	"x\234}\217=K\003A\020\206\347\335\215\271+\364\027\230"
  48      3D4B0341 
  48      1086E7DD 
  48      8DB92BF4 
ARM GAS  C:\Users\info\AppData\Local\Temp\cc9Nu7d7.s 			page 3


  48      1798
  49 0012 22D80541 		.ascii	"\"\330\005Al\374\005\026i\305\264\001\011\311\225\346"
  49      6CFC0516 
  49      69C5B401 
  49      09C995E6 
  50 0022 E050B0CB 		.ascii	"\340P\260\313\235\227S\260\022\304\370M\312\304/D\260"
  50      9D9753B0 
  50      12C4F84D 
  50      CAC42F44 
  50      B0
  51 0033 B1BB1C8A 		.ascii	"\261\273\034\212V\361/\210\305\025\332\304/\020A\317"
  51      56F12F88 
  51      C515DAC4 
  51      2F1041CF 
  52 0043 995CEFC0 		.ascii	"\231\\\357\300\356\354\316\276\373>3\031\002ILr\232"
  52      EEECCEBE 
  52      FB3E3319 
  52      02494C72 
  52      9A
  53 0054 E03CCE0B 		.ascii	"\340<\316\013\232\2406\373D\236\251\0009\270&\250\241"
  53      9AA036FB 
  53      449EA900 
  53      39B826A8 
  53      A1
  54 0065 D0C0A7FA 		.ascii	"\320\300\247\372Q\210\326\343kU\350\270\034\217\267"
  54      5188D6E3 
  54      6B55E8B8 
  54      1C8FB7
  55 0074 6FD36E37 		.ascii	"o\323n7D\240\211\0225t\"tP \226=]\376n\217e\233\"\313"
  55      44A08912 
  55      35742274 
  55      5020963D 
  55      5DFE6E8F 
  56 008c A78FE822 		.ascii	"\247\217\350\"+\270\213\371\320M\022\337\015w\214\336"
  56      2BB88BF9 
  56      D04D12DF 
  56      0D778CDE 
  57 009c BE31A228 		.ascii	"\2761\242(\320\314\344\215h\300:!\276*%Y\307\210\276"
  57      D0CCE48D 
  57      68C03A21 
  57      BE2A2559 
  57      C788BE
  58 00af 37E2C315 		.ascii	"7\342\303\025\371\352k\241\267\202\350\301\370P\201"
  58      F9EA6BA1 
  58      B782E8C1 
  58      F85081
  59 00be 56104A2F 		.ascii	"V\020J/y\331\032M\257\357\367\236\233\341\322^\177\267"
  59      79D91A4D 
  59      AFEFF79E 
  59      9BE1D25E 
  59      7FB7
  60 00d0 8D368EBC 		.ascii	"\2156\216\274&\367\245q\202\034\216\221c\374)W)\206"
  60      26F7A571 
  60      821C8E91 
  60      63FC2957 
  60      2986
  61 00e2 FF954DED 		.ascii	"\377\225M\355t\352xus\267f\212\0058\316X\311\320\026"
ARM GAS  C:\Users\info\AppData\Local\Temp\cc9Nu7d7.s 			page 4


  61      74EA7875 
  61      73B7668A 
  61      0538CE58 
  61      C9D016
  62 00f5 44F29FD9 		.ascii	"D\362\237\3319W\331\202\236\261\032\036\024E=\234~\300"
  62      3957D982 
  62      9EB11A1E 
  62      14453D9C 
  62      7EC0
  63 0107 6D71E33C 		.ascii	"mq\343<F\276h\325-\247\262d\325\026J\366\262S\265\312"
  63      46BE68D5 
  63      2DA7B264 
  63      D5164AF6 
  63      B253B5CA 
  64 011b 73257B76 		.ascii	"s%{v\246\354T\3525{q\252J\177\263\012p\252"
  64      A6EC54EA 
  64      357B71AA 
  64      4A7FB30A 
  64      70AA
  65              		.text
  66              		.section	.gnu.lto_random_Stop.bf152308,"",%progbits
  67 0000 789C6361 		.ascii	"x\234ca`d\000\001\035 \245\004\244\245\201\230\221\231"
  67      60640001 
  67      1D20A504 
  67      A4A58198 
  67      9199
  68 0012 819169C2 		.ascii	"\201\221i\3029\006\206F\016&FF\020\243\201\203\221\241"
  68      39068646 
  68      0E264646 
  68      10A38183 
  68      91A1
  69 0024 9E89B19E 		.ascii	"\236\211\261\236\361+\323_&\306C\355\317v2i.o\000\202"
  69      F12BD35F 
  69      26C643ED 
  69      CF763269 
  69      2E6F0082 
  70 0038 074BD719 		.ascii	"\007K\327\0316\2548\300\330\312\314\300\360\237\011"
  70      36AC38C0 
  70      D8CACCC0 
  70      F09F09
  71 0047 6C1203E3 		.ascii	"l\022\003\343rFM\006\240\262G\033\377M\345ek\001)S\200"
  71      72464D06 
  71      A0B2471B 
  71      FF4DE565 
  71      6B012953 
  72 005c 4832AE60 		.ascii	"H2\256`d\003Y\267>\350@\303\377\377\315\015\007\276"
  72      640359B7 
  72      3EE840C3 
  72      FFFFCD0D 
  72      07BE
  73 006e 721DFCC1 		.ascii	"r\035\374\301\305\312\304\320\312\014\264\023H00|\000"
  73      C5CAC4D0 
  73      CA0CB413 
  73      4830307C 
  73      00
  74 007f AA03D9F8 		.ascii	"\252\003\331\370\221\211\011D3?c<\364\253\353\336\352"
  74      91890944 
ARM GAS  C:\Users\info\AppData\Local\Temp\cc9Nu7d7.s 			page 5


  74      333F633C 
  74      F4ABEBDE 
  74      EA
  75 0090 0290D666 		.ascii	"\002\220\326ff\220\355\323Z\017\235g\377\302\324\312"
  75      6690EDD3 
  75      5A0F9D67 
  75      FFC2D4CA 
  76 00a0 CCC408B2 		.ascii	"\314\304\010\262\345\340\377\327\223y \334\317'\032"
  76      E5E0FFD7 
  76      937920DC 
  76      CF271A
  77 00af 1B588042 		.ascii	"\033X\200B3\317\315\230\3178\237qnc\013\320]\314\214"
  77      33CFCD98 
  77      CF389F71 
  77      6E630BD0 
  77      5DCC8C
  78 00c2 AB186518 		.ascii	"\253\030e\030W2\312\000\255_\015\024ex\306\330\374\207"
  78      5732CA00 
  78      AD5F0D14 
  78      6578C6D8 
  78      FC87
  79 00d4 0D621C33 		.ascii	"\015b\0343\304\304\333\335\327\246\360\202\214`f\374"
  79      C4C4DBDD 
  79      D7A6F082 
  79      8C6066FC 
  80 00e4 C7C8B806 		.ascii	"\307\310\270\006\250\024h\3534F\220\032|\246\255\005"
  80      A81468EB 
  80      3446901A 
  80      7CA6AD05 
  81 00f4 8A02CD60 		.ascii	"\212\002\315`x\305\330t\340\247\027H5\330\373\037\200"
  81      78C5D874 
  81      E0A71748 
  81      35D8FB1F 
  81      80
  82 0105 EE02BA1C 		.ascii	"\356\002\272\034\350\017\005\367\324\274\324\242\304"
  82      E80F05F7 
  82      D4BCD4A2 
  82      C4
  83 0112 92D494F8 		.ascii	"\222\324\224\370\340\374\322\242\344\324\230\200\340"
  83      E0FCD2A2 
  83      E4D49880 
  83      E0
  84 011f 7C67D398 		.ascii	"|g\323\230\242\304\274\224\374\\\275d\006\000\326\261"
  84      A2C4BC94 
  84      FC5CBD64 
  84      0600D6B1 
  85 012f 727E     		.ascii	"r~"
  86              		.text
  87              		.section	.gnu.lto_random_ResetSeedInit.bf152308,"",%progbits
  88 0000 789C7D50 		.ascii	"x\234}PMh\023A\024~\337\314f\223\226Tz\260 \0300 \245"
  88      4D681341 
  88      147EDFCC 
  88      66939654 
  88      7AB02018 
  89 0017 F6228208 		.ascii	"\366\"\202\010\336=\210\236\304^+\022\233\275i\242\233"
  89      DE3D889E 
  89      C45E2B12 
ARM GAS  C:\Users\info\AppData\Local\Temp\cc9Nu7d7.s 			page 6


  89      9BBD69A2 
  89      9B
  90 0028 F49C4993 		.ascii	"\364\234I\223\305\220C\250\024\253=h\017\"\251Vmk\364"
  90      C59043A8 
  90      14AB3D68 
  90      0F22A956 
  90      6D6BF4
  91 003b 10B0B8C6 		.ascii	"\020\260\270\306\213Z\211\032\361\217\"J\016\265\024"
  91      8B5A891A 
  91      F18F224A 
  91      0EB514
  92 004a 95562B48 		.ascii	"\225V+H\241\215ov\213\012\202\017fgv\346}\177\317 \220"
  92      A18D6F76 
  92      8B0A820F 
  92      666776E6 
  92      7D7FCF20 
  93 005f AE9420DA 		.ascii	"\256\224 \332\317\373v^\220\0041\\'\312\206\004\240"
  93      CFFB765E 
  93      9004315C 
  93      27CA8604 
  93      A0
  94 0070 0F2A04CA 		.ascii	"\017*\004\312\010d\360C\254\013\324\316.TEoYq}t\226"
  94      0864F043 
  94      AC0BD4CE 
  94      2E54456F 
  94      59717D74 
  95 0085 CE6495B3 		.ascii	"\316d\225\263\315\221D-\3411\021\312\350\345\256\007"
  95      CD91442D 
  95      E13111CA 
  95      E8E5AE07 
  96 0095 2FBF3C6D 		.ascii	"/\277<m\227;A|\256\314\025\334p\317U\245\206\224\252"
  96      973B417C 
  96      AECC15DC 
  96      70CF55A5 
  96      8694AA
  97 00a8 1C53D291 		.ascii	"\034S\322\221\300\004$#\2607\202=\021\342\013\3025\364"
  97      C0042423 
  97      B037823D 
  97      11E20BC2 
  97      35F4
  98 00ba E8E6CB2B 		.ascii	"\350\346\313+/\306\332\344.\017\370\341b\361\255\354"
  98      2FC6DAE4 
  98      2E0FF8E1 
  98      62F1ADEC 
  99 00ca BEA281EE 		.ascii	"\276\242\201\356\233z\327\005\345f\243\032|\375o\260"
  99      9B7AD705 
  99      E566A31A 
  99      7CFD6FB0 
 100 00da 2EEE6DCE 		.ascii	".\356m\316l\234\3570\363\332V\024\223\350\366\015\341"
 100      6C9CEF30 
 100      F3DA5614 
 100      93E8F60D 
 100      E1
 101 00eb 064C8E08 		.ascii	"\006L\216\010}3u\324U\255VN\271\257\266\214\025&E;\240"
 101      7D3375D4 
 101      55AD564E 
 101      B9AFB68C 
ARM GAS  C:\Users\info\AppData\Local\Temp\cc9Nu7d7.s 			page 7


 101      1526453B 
 102 0100 350DD26F 		.ascii	"5\015\322o\001\366 L\375!Z\346\245c\257\010\241w\331"
 102      01F6204C 
 102      FD215AE6 
 102      A563AF08 
 102      A177D9
 103 0113 C490FBBE 		.ascii	"\304\220\373\276\324\345Q1 \307f\027\221s\277\227v\350"
 103      D4E55131 
 103      20C76617 
 103      9173BF97 
 103      76E8
 104 0125 AB9C3458 		.ascii	"\253\2344X\275Z\375<\037\314\254\253\202R\235\216dw"
 104      BD5AFD3C 
 104      1FCCACAB 
 104      82529D8E 
 104      6477
 105 0137 5AF42632 		.ascii	"Z\364&2\314hP\023\302\003\263\016w\323\002jk\305\327"
 105      CC685013 
 105      C203B30E 
 105      77D3026A 
 105      6BC5D7
 106 014a F7EFC187 		.ascii	"\367\357\301\207\007\030>\352\324\236\005W\205#\003"
 106      07183EEA 
 106      D49E0557 
 106      852303
 107 0159 5EEEB966 		.ascii	"^\356\271f\351S\233\377;\3628\253\264\300\306\363zA"
 107      E9539BFF 
 107      3BF238AB 
 107      B4C0C6F3 
 107      7A41
 108 016b 8CE35236 		.ascii	"\214\343R6\017G\232\230B\004\267\300\3411\215q0e\356"
 108      0F479A98 
 108      4204B7C0 
 108      E1318D71 
 108      3065EE
 109 017e A7E9D36D 		.ascii	"\247\351\323m2\326\276M\227\303\232B@b\206;Yu\324S\374"
 109      32D6BE4D 
 109      97C39A42 
 109      4062863B 
 109      5975D453 
 110 0193 1FD96D26 		.ascii	"\037\331m&c\012\316\227wg\033[u;\375\223.\330\342\301"
 110      630ACE97 
 110      77671B5B 
 110      753BFD93 
 110      2ED8E2C1 
 111 01a7 102A9C8E 		.ascii	"\020*\234\216\34382\244\271\033\305'\2077\331G\334\265"
 111      E33832A4 
 111      B91BC527 
 111      8737D947 
 111      DCB5
 112 01b9 731DBEFB 		.ascii	"s\035\276\373\207\217|\367_g'\346\215?\202w~\013\336"
 112      878F7CF7 
 112      5F6727E6 
 112      8D3F8277 
 112      7E0BDE
 113 01cc F504414B 		.ascii	"\365\004AK<\343w\215\260'\250k\231\007\310\263g\235"
 113      3CE3778D 
ARM GAS  C:\Users\info\AppData\Local\Temp\cc9Nu7d7.s 			page 8


 113      B027A86B 
 113      9907C8B3 
 113      679D
 114 01de E8412B61 		.ascii	"\350A+a\331\261\264\025?\336\227\034\264\007\254\376"
 114      D9B1B415 
 114      3FDE971C 
 114      B407ACFE 
 115 01ee 237DC903 		.ascii	"#}\311\003\373\372\355X\"\236<\265{\200\214\224e\305"
 115      FBFAED58 
 115      229E3CB5 
 115      7B808C94 
 115      65C5
 116 0200 3BAD44EC 		.ascii	";\255D\354\304I\353P\"m\331\366\340\351t\352\027\363"
 116      C449EB50 
 116      226DD9F6 
 116      E0E974EA 
 116      17F3
 117 0212 47E3C4   		.ascii	"G\343\304"
 118              		.text
 119              		.section	.gnu.lto_random_Init.bf152308,"",%progbits
 120 0000 789C6D52 		.ascii	"x\234mRMh\023A\024~of\273\0115\255\275\2129\024\244"
 120      4D681341 
 120      147E6F66 
 120      BB0935AD 
 120      BD8A3914 
 121 0015 875E8A28 		.ascii	"\207^\212(^\304\233\240W\261\327\202\204f\017B\233\225"
 121      5EC49BA0 
 121      57B1D782 
 121      84660F42 
 121      9B95
 122 0027 A8074F99 		.ascii	"\250\007O\231\374,j\351\301\322\252`\325\034\026I\265"
 122      FC2C6AE9 
 122      C1D2AA60 
 122      D51C1649 
 122      B5
 123 0038 6ADB685B 		.ascii	"j\333h[s(\256Q\212\007\261`D\020\017\326*E\212b\013"
 123      7328AE51 
 123      8A07B160 
 123      44100FD6 
 123      2A458A62 
 124 004d B6A82559 		.ascii	"\266\250%Y\337\233\215\365'\016\0143\363\346{\337\373"
 124      DF9B8DF5 
 124      270E0C33 
 124      F3E67BDF 
 124      FB
 125 005e DE376300 		.ascii	"\3367c\000\002\217\227\002`\017\255;i\242\004\024\027"
 125      028F9702 
 125      600FAD3B 
 125      69A20414 
 125      17
 126 006f 9E03A4C3 		.ascii	"\236\003\244\303\002\2217*\214\220\022\230\302uQ\025"
 126      0291372A 
 126      8C901298 
 126      C2755115 
 127 007f 583EBB5C 		.ascii	"X>\273\\\022\235\005Ec\321\311K5\346\241#\001|\241\231"
 127      129D0545 
 127      63D1C94B 
ARM GAS  C:\Users\info\AppData\Local\Temp\cc9Nu7d7.s 			page 9


 127      35E6A123 
 127      017CA199 
 128 0093 000BD809 		.ascii	"\000\013\330\011\004[\232\252]l1s\014k\017.q\014M.7"
 128      045B9AAA 
 128      5D6C3173 
 128      0C6B0F2E 
 128      710C4D2E 
 129 00a8 71D453BE 		.ascii	"q\324S\276\237U\336f\323\215\026\023`\225.\271\314\232"
 129      9F55DE66 
 129      D38D1613 
 129      60952EB9 
 129      CC9A
 130 00ba 10BCCA25 		.ascii	"\020\274\312%\314\2641\303\340\350\314FD\356B\336\277"
 130      CCB431C3 
 130      E0E8CC46 
 130      44EE42DE 
 130      BF
 131 00cb 1D5DAF99 		.ascii	"\035]\257\231\035\256R\031\345}\177\275MM\252\260#\021"
 131      1DAE5219 
 131      E57D7FBD 
 131      4D4DAAB0 
 131      2311
 132 00dd 6FA2246A 		.ascii	"o\242$j\334\033\305\335\321\240\372-\354 \370\310\371"
 132      DC1BC5DD 
 132      D1A0FA2D 
 132      EC20F8C8 
 132      F9
 133 00ee 035F0503 		.ascii	"\003_\005\003\036 \216c\024\210\322\363\337/\212\277"
 133      1E208E63 
 133      1488D2F3 
 133      DF2F8ABF 
 134 00fe 75297770 		.ascii	"u)wp\007'he\276\300\006\331x\033I\037\336!\335\004\323"
 134      07276865 
 134      BEC006D9 
 134      781B491F 
 134      DE21DD04 
 135 0113 4CCB587E 		.ascii	"L\313X~1\360\352\252\033\342(\341/9\345\205\020\327"
 135      31F0EAAA 
 135      1BE228E1 
 135      2F39E585 
 135      10D7
 136 0125 0AD2D71E 		.ascii	"\012\322\327\036\216\273\221\340\350>M+\203B\217\247"
 136      8EBB91E0 
 136      E83E4D2B 
 136      83428FA7 
 137 0135 3F7C31F3 		.ascii	"?|1\363x-\235K\2536GJ\234\300(\336%*\300I\314\377\326"
 137      782D9D4B 
 137      AB36474A 
 137      9CC028DE 
 137      252AC049 
 138 014c 37341FD1 		.ascii	"74\037\321\016\261 \012\010>P\372\243\312\347g\315\262"
 138      0EB1200A 
 138      083E50FA 
 138      A3CAE767 
 138      CDB2
 139 015e 4BB3BFCB 		.ascii	"K\263\277\313\314\026\215F\027\246\032\\(j\027*\331"
 139      CC168D46 
ARM GAS  C:\Users\info\AppData\Local\Temp\cc9Nu7d7.s 			page 10


 139      17A61A5C 
 139      286A172A 
 139      D9
 140 016f 270B32F0 		.ascii	"'\0132\360\301G\274W\2573w}\373?6\024\310\206\342\226"
 140      C147BC57 
 140      AF33777D 
 140      FB3F3614 
 140      C886E296 
 141 0183 0DA2D186 		.ascii	"\015\242\321\206\373\332\206i\022G0M\244m\250U\367s"
 141      FBDA8669 
 141      1247304D 
 141      A46DA855 
 141      F773
 142 0195 90E0DF86 		.ascii	"\220\340\337\206VFZ\203\266\263\365\266\3476\334\037"
 142      56465A83 
 142      B6B3F5B6 
 142      E736DC1F 
 143 01a5 F867DB33 		.ascii	"\370g\3333[m\317r\333\277\344\014\327\333f\001\360\021"
 143      5B6DCF72 
 143      DBBFE40C 
 143      D7DB6601 
 143      F011
 144 01b7 73DEE5F9 		.ascii	"s\336\345\371V\016\260\212R\351\323\233P\252\252\316"
 144      560EB08A 
 144      52E9D39B 
 144      50AAAACE 
 145 01c7 29A6307C 		.ascii	")\2460|A\377\214\2364\005\234\355\310&\302g\275+\346"
 145      41FF8C9E 
 145      34059CED 
 145      C826C267 
 145      BD2BE6
 146 01da FFE1D48A 		.ascii	"\377\341\324\212A\360\022\301\035\031\202\025\252U9"
 146      41F012C1 
 146      1D198215 
 146      AA5539
 147 01e9 A4A13C56 		.ascii	"\244\241<V\351\275\350\263\321\327k?l%\254d\354\224"
 147      E9BDE8B3 
 147      D1D76B3F 
 147      6C25AC64 
 147      EC94
 148 01fb 153FD66D 		.ascii	"\025?\326m\237N\366Z=G\272\355\203\373z\222\261D\334"
 148      9F4EF65A 
 148      3D47BAED 
 148      83FB7A92 
 148      B144DC
 149 020e EEEFEA85 		.ascii	"\356\357\352\205\346\023v\337\231\204\335\177<\326g"
 149      E61376DF 
 149      9984DD7F 
 149      3CD667
 150 021d 9CB4ACF8 		.ascii	"\234\264\254\370O\003\262\013Y"
 150      4F03B20B 
 150      59
 151              		.text
 152              		.section	.gnu.lto_random_Start.bf152308,"",%progbits
 153 0000 789C9590 		.ascii	"x\234\225\220=O\002A\020\206gv\017\216\020H\374\001"
 153      3D4F0241 
 153      10866776 
ARM GAS  C:\Users\info\AppData\Local\Temp\cc9Nu7d7.s 			page 11


 153      0F8E1048 
 153      FC01
 154 0012 C6103B1A 		.ascii	"\306\020;\032\265\320_`abe\244%1\010W\012\011\321\372"
 154      B5D05F60 
 154      616265A4 
 154      25310857 
 154      0A09D1FA 
 155 0026 968F0BDA 		.ascii	"\226\217\013\332\331\210\225\241\004?\341\012\213\243"
 155      D98895A1 
 155      043FE10A 
 155      8BA3
 156 0034 3A112D08 		.ascii	":\021-\010\321J\013m\324\202\030B\001\011\026\026x\316"
 156      D14A0B6D 
 156      D4821842 
 156      01091616 
 156      78CE
 157 0046 1E460B63 		.ascii	"\036F\013c\341$\233\331\274\373\356\274\317\256\002"
 157      E1249BD9 
 157      BCFBEEBC 
 157      CFAE02
 158 0055 08B22EA9 		.ascii	"\010\262.\251MS\237\247\205\036@\266{\003\220\3611\306"
 158      4D539FA7 
 158      851E40B6 
 158      7B0390F1 
 158      31C6
 159 0067 EB5320FC 		.ascii	"\353S \374\312\375,\210\000Ge,+\210r#|\010:\343\012"
 159      CAFD2C88 
 159      0047652C 
 159      2B887223 
 159      7C083AE3 
 160 007c EAF8C646 		.ascii	"\352\370\306F\014\033\205\216\305\302eA\365t\345\314"
 160      0C1B858E 
 160      C5C26541 
 160      F574E5CC 
 161 008c 898A8D06 		.ascii	"\211\212\215\006\007p\230\033\001X\3060\220\355\305"
 161      0770981B 
 161      0158C630 
 161      90EDC5
 162 009b FCD80B7A 		.ascii	"\374\330\013z\363\322\026\032\037b\005\275\222\243\272"
 162      F3D2161A 
 162      1F6205BD 
 162      92A3BA
 163 00aa 6A0BC7C9 		.ascii	"j\013\307\311\011\333Q/j~\225\203\301I\356\223E\306"
 163      09DB512F 
 163      6A7E9583 
 163      C149EE93 
 163      45C6
 164 00bc 0D18939D 		.ascii	"\015\030\223\235w0[\0344\263\252\274\225\343\234&\026"
 164      77305B1C 
 164      34B3AABC 
 164      95E39C26 
 164      16
 165 00cd 8DC6AD3A 		.ascii	"\215\306\255:d\006g(\003,\253\367\250\352#\261-\304"
 165      64066728 
 165      032CABF7 
 165      A8EA23B1 
 165      2DC4
ARM GAS  C:\Users\info\AppData\Local\Temp\cc9Nu7d7.s 			page 12


 166 00df 04693BC4 		.ascii	"\004i;\304 \345n\373\256\351/\341AF\270:\307#\002?\304"
 166      20E56EFB 
 166      AEE92FE1 
 166      4146B83A 
 166      C723023F 
 167 00f4 49CA3FC6 		.ascii	"I\312?\306\022\3023\346\037r\353?S\253=\353=(\247\""
 167      12C233E6 
 167      1F72EB3F 
 167      53AB3DEB 
 167      3D28A722 
 168 0108 029E481F 		.ascii	"\002\236H\037H\010\016\365)\376\2129{\277\025\220\346"
 168      48080EF5 
 168      29FE8A39 
 168      7BBF1590 
 168      E6
 169 0119 DF898A43 		.ascii	"\337\211\212C\034\200\247\250\323\003<@\274\303\332"
 169      1C80A7A8 
 169      D3033C40 
 169      BCC3DA
 170 0128 F598F71F 		.ascii	"\365\230\367\037tg\337tU\242#\307y\241m\372%\017\001"
 170      7467DF74 
 170      55A223C7 
 170      79A16DFA 
 170      250F01
 171 013b 61CDE519 		.ascii	"a\315\345\0310\305\375\022\211Sj\261?q\350\007\321\374"
 171      30C5FD12 
 171      89536AB1 
 171      3F71E807 
 171      D1FC
 172 014d C2E962D6 		.ascii	"\302\351b\3266\227]\253\254>\261\322\010r\204\226\264"
 172      36975DAB 
 172      AC3EB1D2 
 172      08728496 
 172      B4
 173 015e A4968E6D 		.ascii	"\244\226\216mj\211\265Hj+\035\327\242+\221\324\342B"
 173      6A89B548 
 173      6A2B1DD7 
 173      A22B91D4 
 173      E242
 174 0170 341D4B26 		.ascii	"4\035K&R\0333q\370\004\241\002\256\207"
 174      521B3371 
 174      F804A102 
 174      AE87
 175              		.text
 176              		.section	.gnu.lto_random_Read.bf152308,"",%progbits
 177 0000 789C6361 		.ascii	"x\234ca`d\000\201\373@\254\004\304\322@\314\310\314"
 177      60640081 
 177      FB40AC04 
 177      C4D240CC 
 177      C8CC
 178 0012 C0C834E1 		.ascii	"\300\3104\341\034\003C#\007\023##\210\321\300\301\310"
 178      1C034323 
 178      07132323 
 178      88D1C0C1 
 178      C8
 179 0023 50CFC458 		.ascii	"P\317\304X\317\370\225\351/\023\343\351\357'z\2704\227"
 179      CFF895E9 
ARM GAS  C:\Users\info\AppData\Local\Temp\cc9Nu7d7.s 			page 13


 179      2F13E3E9 
 179      EF277AB8 
 179      3497
 180 0035 37343435 		.ascii	"7445<h]\035\375\261\251U\242\225\231\201\341?\023\003"
 180      3C685D1D 
 180      FDB1A955 
 180      A2959981 
 180      E13F1303 
 181 0049 A3B10CA3 		.ascii	"\243\261\014\243\201\014\310\210\345\214\232\014@\245"
 181      810CC888 
 181      E58C9A0C 
 181      40A5
 182 0057 8F36FE9B 		.ascii	"\2176\376\233\312\313\326\322\000\004\012 \005@\231"
 182      CACBD6D2 
 182      00040A20 
 182      054099
 183 0066 158C6C20 		.ascii	"\025\214l +\327\007\035h\370\377\277\271\341\300m\251"
 183      2BD7071D 
 183      68F8FFBF 
 183      B9E1C06D 
 183      A9
 184 0077 A3D7A499 		.ascii	"\243\327\244\231\231\030@F0|\000*\001Y\370\221\211\011"
 184      99184046 
 184      307C002A 
 184      0159F891 
 184      8909
 185 0089 44333F63 		.ascii	"D3?c<\364\253\353\330\273\010\220\256ff\220\345\323"
 185      3CF4ABEB 
 185      D8BB0890 
 185      AE666690 
 185      E5D3
 186 009b 5A0F9D67 		.ascii	"Z\017\235g\377\302\324\312\314\310\010\262\340\307\304"
 186      FFC2D4CA 
 186      CCC808B2 
 186      E0C7C4
 187 00aa 5753F820 		.ascii	"WS\370 \334\346\023\215\015,@\241\275\337\026\377b\234"
 187      DCE6138D 
 187      0D2C40A1 
 187      BDDF16FF 
 187      629C
 188 00bc CF38B7B1 		.ascii	"\3178\267\261\245\261\241!\032h.\023\343*F\031\306\225"
 188      A5B1A121 
 188      1A682E13 
 188      E32A4619 
 188      C695
 189 00ce 8C408731 		.ascii	"\214@\2071\256\006\3120\274blj\210\204\032\311\000\266"
 189      AE06CA30 
 189      BC626C6A 
 189      88841AC9 
 189      00B6
 190 00e0 9511641B 		.ascii	"\225\021d\033\220\255\340\236\232\227Z\224X\222\232"
 190      90ADE09E 
 190      9A975A94 
 190      58929A
 191 00ef 121F9C5F 		.ascii	"\022\037\234_Z\224\234\032\023\020\234\357l\032S\224"
 191      5A949C1A 
 191      13109CEF 
ARM GAS  C:\Users\info\AppData\Local\Temp\cc9Nu7d7.s 			page 14


 191      6C1A5394 
 192 00ff 9897929F 		.ascii	"\230\227\222\237\253\227\314\000\000\001\267\\\312"
 192      AB97CC00 
 192      0001B75C 
 192      CA
 193              		.text
 194              		.section	.gnu.lto_random_WriteSeed.bf152308,"",%progbits
 195 0000 789C258F 		.ascii	"x\234%\217;H\003A\020\206\347\337=b\020\037\255\340"
 195      3B480341 
 195      1086E7DF 
 195      3D62101F 
 195      ADE0
 196 0012 A1018B90 		.ascii	"\241\001\213\220F\004\261\261\265\260\025\323F$$W\232"
 196      4604B1B1 
 196      B5B015D3 
 196      46242457 
 196      9A
 197 0023 40D43A7B 		.ascii	"@\324:{I\016\305J\361\321\031\013\221\370D\304*E\340"
 197      490EC54A 
 197      F1D1190B 
 197      91F844C4 
 197      2A45E0
 198 0036 0C0882A2 		.ascii	"\014\010\202\242\340\243V\002^\021\020\"\250\210\220"
 198      E0A35602 
 198      5E111022 
 198      A88890
 199 0045 C4D9CBC2 		.ascii	"\304\331\313\3022\263?\377|\363\257A }F\270\204\271"
 199      32B33FFF 
 199      7CF3AF41 
 199      207D46B8 
 199      84B9
 200 0057 0EF28524 		.ascii	"\016\362\205$\210\365{\";(\000\335\250 (+\220\305\267"
 200      88F57B22 
 200      3B2800DD 
 200      A820282B 
 200      90C5B7
 201 006a 680A5457 		.ascii	"h\012TW\274\262\210\224\024\237\267w/j+g\300\221Dm\341"
 201      BCB28894 
 201      149FB777 
 201      2F6A2B67 
 201      C091446D 
 202 007f 93082544 		.ascii	"\223\010%D\330u\365\364q\327-\231\313\375\345\355\252"
 202      D875F5F4 
 202      71D72D99 
 202      CBFDE5ED 
 202      AA
 203 0090 DB133E50 		.ascii	"\333\023>P*\247\324\346\234\222\216\004\016!y\002\343"
 203      2AA7D4E6 
 203      9C928E04 
 203      0E217902 
 203      E3
 204 00a1 26C64C62 		.ascii	"&\306Lb\201p\204\2606\327.Z\333\275\201\202\306\207"
 204      817084B0 
 204      36D72E5A 
 204      DBBD8182 
 204      C687
 205 00b3 3A501C23 		.ascii	":P\034#\240c\236\317\272\252\335\316+\267<t\375<l\000"
ARM GAS  C:\Users\info\AppData\Local\Temp\cc9Nu7d7.s 			page 15


 205      A0639ECF 
 205      BAAADDCE 
 205      2BB73C74 
 205      FD3C6C00 
 206 00c7 FE0835D8 		.ascii	"\376\0105\330\243S~\012\241\253\254!\347V\212\375\376"
 206      A3537E0A 
 206      A1ABAC21 
 206      E7568AFD 
 206      FE
 207 00d8 141BF2CC 		.ascii	"\024\033\362\314\366P}\\k5'\265\306+v\234\352C\327\227"
 207      F6507D5C 
 207      6B3527B5 
 207      C62B769C 
 207      EA43D797 
 208 00ec 70A4F0E3 		.ascii	"p\244\360\343\375n\324\267\372:\317\374\215\255\014"
 208      FD6ED4B7 
 208      FA3ACFFC 
 208      8DAD0C
 209 00fb 962A3FFB 		.ascii	"\226*?\373\177\330\303\256]\200#%Na\342\004&G9cU\023"
 209      7FD8C3AE 
 209      5D802325 
 209      4E61E204 
 209      26473963 
 210 0111 EBBCE4E5 		.ascii	"\353\274\344\345Uh\240\377\353\006\243x9G\011M[)+\023"
 210      5568A0FF 
 210      EB06A378 
 210      3947094D 
 210      5B292B13 
 211 0125 5FB292F3 		.ascii	"_\262\222\363\321\364r&a\305f\242\351\251\211X&\236"
 211      D1F47226 
 211      61C566A2 
 211      E9A98958 
 211      269E
 212 0137 4AA61746 		.ascii	"J\246\027F\023d,ZV\362\037&IsW"
 212      13642C5A 
 212      56F21F26 
 212      497357
 213              		.text
 214              		.section	.gnu.lto_random_ReadPolynomial.bf152308,"",%progbits
 215 0000 789C6361 		.ascii	"x\234ca`d\000\201;@\254\004\304\322@\314\310\314\300"
 215      60640081 
 215      3B40AC04 
 215      C4D240CC 
 215      C8CCC0
 216 0013 C834E11C 		.ascii	"\3104\341\034\003C#\007\023##\210\321\300\301\310P\317"
 216      03432307 
 216      13232388 
 216      D1C0C1C8 
 216      50CF
 217 0025 C458CFF8 		.ascii	"\304X\317\370\225\351/\023\343\351\357'z\2704\22774"
 217      95E92F13 
 217      E3E9EF27 
 217      7AB83497 
 217      3734
 218 0037 34353C78 		.ascii	"45<x\272\210g\366\272\013\015\314\255\314\014\014\377"
 218      BA8867F6 
 218      BA0B0DCC 
ARM GAS  C:\Users\info\AppData\Local\Temp\cc9Nu7d7.s 			page 16


 218      ADCC0C0C 
 218      FF
 219 0048 9918188D 		.ascii	"\231\030\030\215e\030\015d@f,g\324d\000\252}\264\361"
 219      65180D64 
 219      40662C67 
 219      D46400AA 
 219      7DB4F1
 220 005b DF545EB6 		.ascii	"\337T^\266\226\006 P\000)\000\312\254`d\003\331\271"
 220      96062050 
 220      002900CA 
 220      AC606403 
 220      D9B9
 221 006d 3EE840C3 		.ascii	">\350@\303\377\377\315\015\007f+]|\261\211\207\231\211"
 221      FFFFCD0D 
 221      07662B5D 
 221      7CB18987 
 221      9989
 222 007f 016406C3 		.ascii	"\001d\006\303\007\240\032\220\225\037\231\230@4\363"
 222      07A01A90 
 222      951F9998 
 222      4034F3
 223 008e 33C643BF 		.ascii	"3\306C\277\272\216\3654s\203\36453\203\354\237\326z"
 223      BA8EF534 
 223      7383F435 
 223      3383EC9F 
 223      D67A
 224 00a0 E83CFB17 		.ascii	"\350<\373\027\246VfFF\220\025\037\367\257^\314\003\341"
 224      A6566646 
 224      4690151F 
 224      F7AF5ECC 
 224      03E1
 225 00b2 2E3ED1D8 		.ascii	".>\321\330\300\002\024:\274\365\311{\266\371\214s\033"
 225      C002143A 
 225      BCF5C97B 
 225      B6F98C73 
 225      1B
 226 00c3 5B185B99 		.ascii	"[\030[\231\231\030W1\3120\256d\004:\213q5\343|F\206"
 226      99185731 
 226      CA30AE64 
 226      043A8B71 
 226      35E37C46 
 227 00d8 578C4C50 		.ascii	"W\214LP\303\030\300\0262\202,\002\262\025\334S\363R"
 227      C318C016 
 227      32822C02 
 227      B215DC53 
 227      F352
 228 00ea 8B124B52 		.ascii	"\213\022KRS\342\203\363K\213\222Sc\002\202\363\235M"
 228      53E283F3 
 228      4B8B9253 
 228      630282F3 
 228      9D4D
 229 00fc 638A12F3 		.ascii	"c\212\022\363R\362s\365\222\031\000\247\033Z\231"
 229      52F273F5 
 229      921900A7 
 229      1B5A99
 230              		.text
 231              		.section	.gnu.lto_random_WritePolynomial.bf152308,"",%progbits
ARM GAS  C:\Users\info\AppData\Local\Temp\cc9Nu7d7.s 			page 17


 232 0000 789C258F 		.ascii	"x\234%\217\275KBQ\030\306\317s\216\250\310\355/\350"
 232      BD4B4251 
 232      18C6CF73 
 232      8EA8C8ED 
 232      2FE8
 233 0012 0E828339 		.ascii	"\016\202\2039\024A\364\0274\264F\256F\210\336!PoH\015"
 233      1441F417 
 233      34B446AE 
 233      4688DE21 
 233      506F480D 
 234 0026 4D1E3F2E 		.ascii	"M\036?.A4\264\324\220\205\204\204\226E4\024\264\224"
 234      4134B4D4 
 234      90858484 
 234      96453414 
 234      B494
 235 0038 D8D2D4D7 		.ascii	"\330\322\324\327\340,V\006-)},\241\267\367\\_8\274\037"
 235      E02C5606 
 235      2D297D2C 
 235      A1B7F75C 
 235      5F38BC1F 
 236 004c 3CEFEF7D 		.ascii	"<\357\357}\216\213\201\251\010R\032\247<J\017\202\201"
 236      8E8B81A9 
 236      08521AA7 
 236      3C4A0F82 
 236      81
 237 005d 6FDD3396 		.ascii	"o\3353\226\365r@\025\322\013\226\341\310\340\207\367"
 237      F5724015 
 237      D20B96E1 
 237      C8E087F7 
 238 006d 391AEB9D 		.ascii	"9\032\353\235+\036\252H\212\326\333\265\266+\037\245"
 238      2B1EAA48 
 238      8AD6DBB5 
 238      B62B1FA5 
 239 007d B0046336 		.ascii	"\260\004c6wP\014\025\204H\266Y\274\374\325D\000\214"
 239      77500C15 
 239      8448B659 
 239      BCFCD544 
 239      008C
 240 008f EA41F3A0 		.ascii	"\352A\363\240\357\013\036J\231\223\262\264\240\344@"
 240      EF0B1E4A 
 240      9993B2B4 
 240      A0E440
 241 009e 15823630 		.ascii	"\025\20260\245cRg4`8BP\211\333\347\203\355\021wA\361"
 241      A5635267 
 241      34603842 
 241      5089DBE7 
 241      83ED1177 
 242 00b4 FD43288E 		.ascii	"\375C(\216\341V>\317\346\353\322\266\363\262\376\027"
 242      E1563ECF 
 242      E6EBD2B6 
 242      F3B2FE17 
 243 00c4 78AA7E69 		.ascii	"x\252~i.\300\331a]\022)\237=\316U\026m\344\352\366K"
 243      2EC0D961 
 243      5D12299F 
 243      3DCE5516 
 243      6DE4EAF6 
 244 00d9 8B3B7BA4 		.ascii	"\213;{\244\310\023\275\203\306\363Fs\257\354QC\272\262"
ARM GAS  C:\Users\info\AppData\Local\Temp\cc9Nu7d7.s 			page 18


 244      C813BD83 
 244      C6F34673 
 244      AFEC5143 
 244      BAB2
 245 00eb 63351E3C 		.ascii	"c5\036<\337\334\022\334q\330\273\251\225\265a[\276\313"
 245      DFDC12DC 
 245      71D8BBA9 
 245      95B5615B 
 245      BECB
 246 00fd 4A178D6E 		.ascii	"J\027\215n/^?\335%\354g\013\260\204\300\011t\324\240"
 246      2F5E3FDD 
 246      25EC670B 
 246      B084C009 
 246      74D4A0
 247 0110 939B5394 		.ascii	"\223\233S\224\240\220\037t\246\370>\246\200\316\307"
 247      A0901F74 
 247      A6F83EA6 
 247      80CEC7
 248 011f BB84A2F3 		.ascii	"\273\204\242\363d\306?k\244\214tt\305\210/\206\315\325"
 248      64C63F6B 
 248      A48C7474 
 248      C5882F86 
 248      CDD5
 249 0131 74CC88CC 		.ascii	"t\314\210\314\205\315\231\351H:\232\212\233\311\211"
 249      85CD99E9 
 249      483A9A8A 
 249      9BC989
 250 0140 18F32D9B 		.ascii	"\030\363-\233\211\265\224\231\\\212&\376\001\033\350"
 250      89B59499 
 250      5C8A26FE 
 250      011BE8
 251 014f 78F9     		.ascii	"x\371"
 252              		.text
 253              		.section	.gnu.lto_random_backup.bf152308,"",%progbits
 254 0000 789C6361 		.ascii	"x\234ca`d\000\001\027 \206\260\030\030\37621\256o}\262"
 254      60640001 
 254      172086B0 
 254      1818FE32 
 254      31AE6F7D 
 255 0015 92E30B53 		.ascii	"\222\343\013S+3\003\343\177F\020\377\315\316\237\274"
 255      2B3303E3 
 255      7F4610FF 
 255      CDCE9FBC 
 256 0025 103E48FA 		.ascii	"\020>H\372^\307\356s\234\026\333\032:\0264(\26423\376"
 256      5EC7EE73 
 256      9C16DB1A 
 256      3A163428 
 256      B43233FE 
 257 0039 6362605C 		.ascii	"cb`\\\301(\363\217\211\221q9\243\014\003\343JF\013\006"
 257      C128F38F 
 257      89917139 
 257      A30C03E3 
 257      4A460B06 
 258 004d 00DED418 		.ascii	"\000\336\324\030\222"
 258      92
 259              		.text
 260              		.section	.gnu.lto_.symbol_nodes.bf152308,"",%progbits
ARM GAS  C:\Users\info\AppData\Local\Temp\cc9Nu7d7.s 			page 19


 261 0000 789C558C 		.ascii	"x\234U\214\273\021\302@\014DW\322\235\377\021\015\200"
 261      BB11C240 
 261      0C4457D2 
 261      9DFF110D 
 261      80
 262 0011 7BA0BF3D 		.ascii	"{\240\277=\022bjp\015D\204\01415\000CH\005\016\030d"
 262      12626A70 
 262      0D44840C 
 262      31350043 
 262      48050E18 
 263 0026 4748C9CE 		.ascii	"GH\311\316\276\325\274\004\301\014?5\002\247;\340q)"
 263      BED5BC04 
 263      C10C3F35 
 263      02A73BE0 
 263      7129
 264 0038 A3834C89 		.ascii	"\243\203L\211\240\242F\240\264\010\022S\000\0318l\026"
 264      A0A246A0 
 264      B4081253 
 264      0019386C 
 264      16
 265 0049 79CD1C3F 		.ascii	"y\315\034?\033V\021\264\254#\350\330D\227\310\352\222"
 265      1B5611B4 
 265      AC23E8D8 
 265      4497C8EA 
 265      92
 266 005a 81ED3A00 		.ascii	"\201\355:\000\245\354\274\367\354\376\273\351\200\333"
 266      A5ECBCF7 
 266      ECFEBBE9 
 266      80DB
 267 0068 E32BA63D 		.ascii	"\343+\246=\336OOSL\307\317\326\014\270.\231\014\257"
 267      DE4F4F53 
 267      4CC7CFD6 
 267      0CB82E99 
 267      0CAF
 268 007a F3DE1230 		.ascii	"\363\336\0220\371\214\037\337Z8\254"
 268      F98C1FDF 
 268      5A38AC
 269              		.text
 270              		.section	.gnu.lto_.refs.bf152308,"",%progbits
 271 0000 789C6361 		.ascii	"x\234ca`d\340d```ba`eddea\000\000\001I\000%"
 271      6064E064 
 271      60606062 
 271      61606564 
 271      64656100 
 272              		.text
 273              		.section	.gnu.lto_.decls.bf152308,"",%progbits
 274 0000 789C8555 		.ascii	"x\234\205UkL\024W\024\2363wy\270\273\200\361A\375AR"
 274      6B4C1457 
 274      149E3377 
 274      79B8BB80 
 274      F141FD41 
 275 0015 6A30E117 		.ascii	"j0\341\027\2551&\366OSK\254i\372\010\021\264mbb\026"
 275      AD3126F6 
 275      4F534BAC 
 275      69FA0811 
 275      B46D6262 
 276 002a 98D44D71 		.ascii	"\230\324Mq\261\353\232\226_\035\305\007j\252P\253H\025"
ARM GAS  C:\Users\info\AppData\Local\Temp\cc9Nu7d7.s 			page 20


 276      B1EB9A96 
 276      5F1DC507 
 276      6AAA50AB 
 276      4815
 277 003c 45348A08 		.ascii	"E4\212\010\010.\312Ka\027\344eQy\210\312CY\036Z\250"
 277      082ECA4B 
 277      6117E465 
 277      517988CA 
 277      43591E5A 
 278 0051 1A518996 		.ascii	"\032Q\211\226h\273=\367\316\035f\226,\345f\317\316\275"
 278      68BB3DF7 
 278      CE1D6696 
 278      2CE566CF 
 278      CEBD
 279 0063 77BEEFBB 		.ascii	"w\276\357\273\3379s\347\216A\000\2016q\216 \034\305"
 279      DF3973E7 
 279      8E410081 
 279      36718E20 
 279      1CC5
 280 0075 6E812808 		.ascii	"n\201(\010^l&\234[\207A\357\026\011J\243s\0271\3121"
 280      5E6C269C 
 280      5B8741EF 
 280      16094AA3 
 280      731731CA 
 281 008a 2A31AA31 		.ascii	"*1\2521\256`\324a\2701\0320\0321\2321Z\251&F\033\306"
 281      AE60D461 
 281      B8311A30 
 281      1A319A31 
 281      5AA92646 
 282 00a0 5DC1B751 		.ascii	"]\301\267Q\015\003\327\217\300x\200\321\317\357\001"
 282      0D03D78F 
 282      C07880D1 
 282      CFEF01
 283 00af BF3FBD95 		.ascii	"\277?\275\225\317\302)\367\303\241\036\347pN\021\347"
 283      CFC229F7 
 283      C3A11EE7 
 283      704E11E7 
 284 00bf 0D60D4EA 		.ascii	"\015`\324\352\370\036\214\012\216'\234\323\312s\230"
 284      F81E8C0A 
 284      8E279CD3 
 284      CA7398
 285 00ce DE68BEC1 		.ascii	"\336h\276\301:\275\351\032\203\030e\034\033\300\361"
 285      3ABDE91A 
 285      8318651C 
 285      1BC0F1
 286 00dd B41E6EAE 		.ascii	"\264\036n\256\353//Z\277@]^C\\[\257E8\256\232k\320|"
 286      EB2F2F5A 
 286      BF405D5E 
 286      435C5BAF 
 286      4538AE9A 
 287 00f4 DBA6E9D4 		.ascii	"\333\246\351\324q\034\345\216`\014\363y\340\367\246"
 287      711CE58E 
 287      600CF379 
 287      E0F7A6
 288 0103 37EA49AD 		.ascii	"7\352I\255\247>\027\225\343\366\303i\370\2375\032\374"
 288      A73E1795 
 288      E3F6C369 
ARM GAS  C:\Users\info\AppData\Local\Temp\cc9Nu7d7.s 			page 21


 288      F89F351A 
 288      FC
 289 0114 E01B6759 		.ascii	"\340\033gY\243\321\017\207\356\025\272oh-\272y\277\035"
 289      A3D10F87 
 289      EE15BA6F 
 289      682DBA79 
 289      BF1D
 290 0126 A3C30F96 		.ascii	"\243\303\017\226\266\177D\270\260s\344\\\360\204\010"
 290      B67F44B8 
 290      B073E45C 
 290      F08408
 291 0135 1146F002 		.ascii	"\021F\360\002\035?\251\232\014Q\306\364\366\300d\301"
 291      1D3FA99A 
 291      0C51C6F4 
 291      F6C064C1 
 292 0145 A7314532 		.ascii	"\2471E2\266LY\026E\215\227\2235\374\257\211\230(H\354"
 292      B64C5916 
 292      458D9793 
 292      35FCAF89 
 292      982848EC 
 293 0159 1A3E3F66 		.ascii	"\032>?f\200h\343\031\212\363t\225~T%\313s\241\010\214"
 293      8068E319 
 293      8AF37495 
 293      7E5425CB 
 293      73A1088C 
 294 016d 500804CE 		.ascii	"P\010\004\316A\014\265\034a\304\377\014Y\336.\217\347"
 294      410CB51C 
 294      61C4FF0C 
 294      59DE2E8F 
 294      E7
 295 017e CB818B04 		.ascii	"\313\201\213\004X\026\001\037D\010p\036\242\351b\024"
 295      5816011F 
 295      4408701E 
 295      A2E96214 
 296 018e 05051001 		.ascii	"\005\005\020\001g\001'\221\213kT\356=\362*\254\017z"
 296      67012791 
 296      8B6B54EE 
 296      3DF22AAC 
 296      0F7A
 297 01a0 4004FEA2 		.ascii	"@\004\376\242\011\000\312?\260\020\224`C\354\210\354"
 297      0900CA3F 
 297      B0109460 
 297      43EC88EC 
 298 01b0 5F989A9A 		.ascii	"_\230\232\232\272\010S\020\336\325\304\330O\275z\325"
 298      BA085310 
 298      DED5C4D8 
 298      4FBD7AD5 
 299 01c0 C6443475 		.ascii	"\306D4u\340$\230r\300\373\354\276\250-\000\312P%\350"
 299      E0249872 
 299      C0FBECBE 
 299      A82D00CA 
 299      5025E8
 300 01d3 F414BB3A 		.ascii	"\364\024\273:O\340\233\023\250\205\315\235\250H\017"
 300      4FE09B13 
 300      A885CD9D 
 300      A8480F
 301 01e2 24CB58F5 		.ascii	"$\313X\365\033\275\257]a\3700\346\031A\304a\347x[\256"
ARM GAS  C:\Users\info\AppData\Local\Temp\cc9Nu7d7.s 			page 22


 301      1BBDAF5D 
 301      61F830E6 
 301      1941C461 
 301      E7785BAE 
 302 01f6 09870B8C 		.ascii	"\011\207\013\2140\027\207\217ks\274!\213\016\323\242"
 302      3017878F 
 302      6B73BC21 
 302      8B0ED3A2 
 303 0206 CBE972A4 		.ascii	"\313\351r\244\010\353\302\241\024+x\001+(@\031,\302"
 303      08EBC2A1 
 303      142B7801 
 303      2B284019 
 303      2CC2
 304 0218 FF4483A2 		.ascii	"\377D\203\242:>\326\3544.\316\223=\245\262\347\340."
 304      3A3ED6EC 
 304      342ECE93 
 304      3DA5B2E7 
 304      E02E
 305 022a 69F0A22C 		.ascii	"i\360\242,\357D\232\201\302\240D{J\330\245\227b\350"
 305      EF449A81 
 305      C2A0447B 
 305      4AD8A597 
 305      62E8
 306 023c 437B1761 		.ascii	"C{\027a1R\363\237\356\253\011#\211\314Pm\265\2737\010"
 306      3152F39F 
 306      EEAB0923 
 306      89CC506D 
 306      B5BB3708 
 307 0250 65F24A65 		.ascii	"e\362Je\327\213\353f\271\0355>f\032NM\303\251\327(g"
 307      D78BEB66 
 307      B91D353E 
 307      661A4E4D 
 307      C3A9D728 
 308 0265 1AA3B965 		.ascii	"\032\243\271e\007\202\210\215i<\314>\3618\320\200[\211"
 308      0782888D 
 308      693CCC3E 
 308      F138D080 
 308      5B89
 309 0277 ED103488 		.ascii	"\355\0204\210s7\177\353\351\204\031S\251`\251\\\006"
 309      73377FEB 
 309      E9841953 
 309      A960A95C 
 309      06
 310 0288 9E4B5BF1 		.ascii	"\236K[\361\275/\225T\\\035\373\303rd\327vd\211\024\005"
 310      BD2F9554 
 310      5C1DFBC3 
 310      7264D776 
 310      64891405 
 311 029c 97341797 		.ascii	"\2274\027\227\364.*\231\213?\363\213;BI:0\033\273\317"
 311      F42E2A99 
 311      8B3FF38B 
 311      3B42493A 
 311      301BBBCF 
 312 02b0 3C3C11C4 		.ascii	"<<\021\304e&{\364\251Ti\"Uz\221j&\262\373\364x\213\201"
 312      65267BF4 
 312      A9546922 
 312      557A916A 
ARM GAS  C:\Users\info\AppData\Local\Temp\cc9Nu7d7.s 			page 23


 312      26B2FBF4 
 313 02c7 1C50440A 		.ascii	"\034PD\012=\367[\325z\274m\326\213\324h\"5z\221+L\244"
 313      3DF75BD5 
 313      7ABC6DD6 
 313      8BD46822 
 313      357A912B 
 314 02dd BFEB4E05 		.ascii	"\277\353N\005!\307\024\221\334\314S\205&}\362\264.Z"
 314      21C71491 
 314      DCCC5385 
 314      267DF2B4 
 314      2E5A
 315 02ef F6B53E0F 		.ascii	"\366\265>\017\262\273\253}g\030_\261\2477d*{D\301Um"
 315      B2BBAB7D 
 315      67185FB1 
 315      A737642A 
 315      7B44C155 
 316 0304 CDABFA35 		.ascii	"\315\253\3725\353\330\232\031\335\336W\301\244@Y\363"
 316      EBD89A19 
 316      DDDE57C1 
 316      A44059F3 
 317 0314 F27899D7 		.ascii	"\362x\231\327\300\263\2578\316e\266)Eti2.\275\214\233"
 317      C0B3AF38 
 317      CE65B629 
 317      45746932 
 317      2EBD8C9B 
 318 0328 C9FC5255 		.ascii	"\311\374RU\236\016\244J\221\251|\341|\"r7\331C\337d"
 318      9E0EA44A 
 318      91A97CE1 
 318      7C227237 
 318      D943DF64 
 319 033c A5CB05E8 		.ascii	"\245\313\005\350&\222\271\251\327d\352\3652\015L\346"
 319      2692B9A9 
 319      D764EAF5 
 319      320D4CE6 
 320 034c DC9167FD 		.ascii	"\334\221g\375FrK\221yy\355\231\323\304\335\274\036\216"
 320      46724B91 
 320      7979ED99 
 320      D3C4DDBC 
 320      1E8E
 321 035e 53643223 		.ascii	"Sd2#\231\233k\232\3145\275L#\223\251\033\273~\226\220"
 321      999B6B9A 
 321      CC35BD4C 
 321      2393A91B 
 321      BB7E9690 
 322 0372 478ACCE0 		.ascii	"G\212\314\340\236\301{f*\203\247\320\344\201\237q\223"
 322      9EC17B66 
 322      2A83A7D0 
 322      E4819F71 
 322      93
 323 0383 EF08601A 		.ascii	"\357\010`\032M\232F\023\323\300N3\343\027\325\344\276"
 323      4D9A4613 
 323      D3C04E33 
 323      E317D5E4 
 323      BE
 324 0394 0926C744 		.ascii	"\011&\307D\306\377k\364\370\2550\205\357z\323Lr\344"
 324      C6FF6BF4 
 324      F8AD3085 
ARM GAS  C:\Users\info\AppData\Local\Temp\cc9Nu7d7.s 			page 24


 324      EF7AD34C 
 324      72E4
 325 03a6 7AA5AE2D 		.ascii	"z\245\256-\032\275E\245\2672\372\315\276\226\017'\224"
 325      1ABD45A5 
 325      B732FACD 
 325      BE960F27 
 325      94
 326 03b7 07C6AA3A 		.ascii	"\007\306\252:\332P,\022\247\242V\355n+ KN\311y\371\262"
 326      DA502C12 
 326      A7A256ED 
 326      6E2B204B 
 326      4EC979F9 
 327 03cc E7D75DE1 		.ascii	"\347\327]\341\331\262\013\030\360\017E\215\237\177\002"
 327      D9B20B18 
 327      F00F458D 
 327      9F7F02
 328 03db 1B5FA787 		.ascii	"\033_\247\207^\033,AZ\361\351\366\227\"\251W4\352\017"
 328      5E1B2C41 
 328      5AF1E9F6 
 328      9722A957 
 328      34EA0F
 329 03ee F7DF3693 		.ascii	"\367\3376\223ve\340\356z\332f$\375l`8\334\273\367[\210"
 329      7665E0EE 
 329      7ADA6624 
 329      FD6C6038 
 329      DCBBF75B 
 330 0403 8A8A9E9F 		.ascii	"\212\212\236\237O\217T\317\301\273\313\217\226\340\366"
 330      4F8F54CF 
 330      C1BBCB8F 
 330      96E0F6
 331 0412 09644BDC 		.ascii	"\011dK\334D\311.\230\257\036\261\357\323e\226\322\217"
 331      44C92E98 
 331      AF1EB1EF 
 331      D36596D2 
 331      8F
 332 0423 0203BBDE 		.ascii	"\002\003\273\336\024\003\272\331F\030\366\226\037\354"
 332      1403BAD9 
 332      4618F696 
 332      1FEC
 333 0431 328A65A7 		.ascii	"2\212e\247\271\253K\222\345`\012\020x\011h\313b\037"
 333      B9AB4B92 
 333      E5600A10 
 333      780968CB 
 333      621F
 334 0443 04972CC3 		.ascii	"\004\227,\303\017\202n\247R\031\232Y'\036\351\355\020"
 334      0F826EA7 
 334      52199A59 
 334      271EE9ED 
 334      10
 335 0454 051D10A5 		.ascii	"\005\035\020\245\236j\305#\265\243&\262\235\260\357"
 335      9E6AC523 
 335      B5A326B2 
 335      9DB0EF
 336 0463 45D5D9DD 		.ascii	"E\325\331\335\317\203a~\264_\031\270\203\354\231\224"
 336      CF83617E 
 336      B45F19B8 
 336      83EC9994 
ARM GAS  C:\Users\info\AppData\Local\Temp\cc9Nu7d7.s 			page 25


 337 0473 144F279A 		.ascii	"\024O'\232\200\232\352F\320m\355\321P\217l\255\246\372"
 337      809AEA46 
 337      D06DEDD1 
 337      508F6CAD 
 337      A6FA
 338 0485 920C56F8 		.ascii	"\222\014V\370<z\326\275S\202;\2330\360\015^y\3151\235"
 338      3C7AD6BD 
 338      53823B9B 
 338      30F00D5E 
 338      79CD319D 
 339 0499 49C0CFC6 		.ascii	"I\300\317\306]V\372\216\035\245\307\210r\334\032p\370"
 339      5D56FA8E 
 339      1DA5C788 
 339      72DC1A70 
 339      F8
 340 04aa FCC6EFC3 		.ascii	"\374\306\357\303\241\312q\033\211\303\211\035/\357\004"
 340      A1CA711B 
 340      89C3891D 
 340      2FEF04
 341 04b9 1A33E83B 		.ascii	"\0323\350;:\373\027\014\3617\306Nz\203H\266\222\262"
 341      3AFB170C 
 341      F137C64E 
 341      7A8348B6 
 341      92B2
 342 04cb F350CEA1 		.ascii	"\363P\316\241 0F\373\241\337\367C\347_\322\277\023\262"
 342      203046FB 
 342      A1DFF743 
 342      E75FD2BF 
 342      13B2
 343 04dd F6D097BB 		.ascii	"\366\320\227\273\037\237S\237\226i/\030\225L\313\333"
 343      1F9F539F 
 343      96692F18 
 343      954CCBDB 
 344 04ed 9F5E0830 		.ascii	"\237^\0100\357\245\01753]\236\327\022\312\220=(r\217"
 344      EFA50F35 
 344      335D9ED7 
 344      12CA903D 
 344      28728F
 345 0500 A5F700CC 		.ascii	"\245\367\000\314l\263\342\225\276\271\225\235?\372\200"
 345      6CB3E295 
 345      BEB9959D 
 345      3FFA80
 346 050f E9DED6C0 		.ascii	"\351\336\326\300\003\034<\300\300{\216\327d\233}\320"
 346      031C3CC0 
 346      C07B8ED7 
 346      649B7DD0 
 347 051f 153E680F 		.ascii	"\025>h\017G{\030\372Q\2013/\324\007]\346\203\036\004"
 347      477B18FA 
 347      5181332F 
 347      D4075DE6 
 347      831E04
 348 0532 B36A7E90 		.ascii	"\263j~\220\021\366\335~\273\322\007_\344c|\210\253\017"
 348      11F6DD7E 
 348      BBD2075F 
 348      E4637C88 
 348      AB0F
 349 0544 31F0C9A3 		.ascii	"1\360\311\243\217\207Lj\3453g)\035\342\367\347v\277"
ARM GAS  C:\Users\info\AppData\Local\Temp\cc9Nu7d7.s 			page 26


 349      8F874C6A 
 349      E5336729 
 349      1DE2F7E7 
 349      76BF
 350 0556 F07533EC 		.ascii	"\360u3\354\243>\302\325\3515x\365Wk#c\227.\025\002\266"
 350      A33EC2D5 
 350      E93578F5 
 350      576B2363 
 350      972E1502 
 351 056b 5A6D8E15 		.ascii	"Zm\216\025\357\255\226l\222\335\342\220\2227\304\247"
 351      EFAD966C 
 351      92DDE290 
 351      9237C4A7 
 352 057b 6EB52749 		.ascii	"n\265'I\353\343\342Sc\227\257OJs\244m\226\266\304l\024"
 352      EBE3E253 
 352      6397AF4F 
 352      4A73A46D 
 352      96B6C46C 
 353 0590 42EC165B 		.ascii	"B\354\026[r\352\246\015\253l\226\304\024)r\006\274\002"
 353      72EAA60D 
 353      AB6C96C4 
 353      14297206 
 353      BC02
 354 05a2 8A49124C 		.ascii	"\212I\022L\034\036\357H\335\274\200\367\327H[$G\274"
 354      1C1EEF48 
 354      DDBC80F7 
 354      D7485B24 
 354      47BC
 355 05b4 24257F66 		.ascii	"$%\177f\263:T\000\355\233\247\300\026\373\324\2155\222"
 355      B33A5400 
 355      ED9BA7C0 
 355      16FBD48D 
 355      3592
 356 05c6 25792EEF 		.ascii	"%y.\357\177m\267:$\312\\\250\273\031\227\232\222fK\335"
 356      7F6DB73A 
 356      24CA5CA8 
 356      BB19979A 
 356      92664BDD 
 357 05da 64B5A484 		.ascii	"d\265\244\204\353a\332\364\302\330\264U?Y\035\2618k"
 357      EB61DAF4 
 357      C2D8B455 
 357      3F591DB1 
 357      386B
 358 05ec 4DB2A4C4 		.ascii	"M\262\244\304KI\016k\252\355\335\031\254\307\246}aM"
 358      4B490E6B 
 358      AAEDDD19 
 358      ACC7A67D 
 358      614D
 359 05fe C444C391 		.ascii	"\304D\303\221esH\366i\264P\276\206\025\375\256\263\330"
 359      657348F6 
 359      69B450BE 
 359      8615FDAE 
 359      B3D8
 360 0610 D572245A 		.ascii	"\325r$Z\222\276\337\272\331$\261\252\240\177\207d\330"
 360      92BEDFBA 
 360      D924B1AA 
 360      A07F8764 
ARM GAS  C:\Users\info\AppData\Local\Temp\cc9Nu7d7.s 			page 27


 360      D8
 361 0621 823E67A9 		.ascii	"\202>g\251\317FA\255\311'+c?_\033\267!>a\315\332\330"
 361      CF4641AD 
 361      C9272B63 
 361      3F5F1BB7 
 361      213E61CD 
 362 0637 04835DFA 		.ascii	"\004\203]\372n\305\177\356~p\036"
 362      6EC57FEE 
 362      7E701E
 363              		.text
 364              		.section	.gnu.lto_.symtab.bf152308,"",%progbits
 365 0000 72616E64 		.ascii	"random_Enable\000"
 365      6F6D5F45 
 365      6E61626C 
 365      6500
 366 000e 00       		.ascii	"\000"
 367 000f 00       		.ascii	"\000"
 368 0010 00       		.ascii	"\000"
 369 0011 00000000 		.ascii	"\000\000\000\000\000\000\000\000"
 369      00000000 
 370 0019 B2000000 		.ascii	"\262\000\000\000"
 371 001d 72616E64 		.ascii	"random_Stop\000"
 371      6F6D5F53 
 371      746F7000 
 372 0029 00       		.ascii	"\000"
 373 002a 00       		.ascii	"\000"
 374 002b 00       		.ascii	"\000"
 375 002c 00000000 		.ascii	"\000\000\000\000\000\000\000\000"
 375      00000000 
 376 0034 B4000000 		.ascii	"\264\000\000\000"
 377 0038 72616E64 		.ascii	"random_ResetSeedInit\000"
 377      6F6D5F52 
 377      65736574 
 377      53656564 
 377      496E6974 
 378 004d 00       		.ascii	"\000"
 379 004e 00       		.ascii	"\000"
 380 004f 00       		.ascii	"\000"
 381 0050 00000000 		.ascii	"\000\000\000\000\000\000\000\000"
 381      00000000 
 382 0058 B8000000 		.ascii	"\270\000\000\000"
 383 005c 72616E64 		.ascii	"random_Init\000"
 383      6F6D5F49 
 383      6E697400 
 384 0068 00       		.ascii	"\000"
 385 0069 00       		.ascii	"\000"
 386 006a 00       		.ascii	"\000"
 387 006b 00000000 		.ascii	"\000\000\000\000\000\000\000\000"
 387      00000000 
 388 0073 BA000000 		.ascii	"\272\000\000\000"
 389 0077 72616E64 		.ascii	"random_Start\000"
 389      6F6D5F53 
 389      74617274 
 389      00
 390 0084 00       		.ascii	"\000"
 391 0085 00       		.ascii	"\000"
 392 0086 00       		.ascii	"\000"
ARM GAS  C:\Users\info\AppData\Local\Temp\cc9Nu7d7.s 			page 28


 393 0087 00000000 		.ascii	"\000\000\000\000\000\000\000\000"
 393      00000000 
 394 008f BC000000 		.ascii	"\274\000\000\000"
 395 0093 72616E64 		.ascii	"random_initVar\000"
 395      6F6D5F69 
 395      6E697456 
 395      617200
 396 00a2 00       		.ascii	"\000"
 397 00a3 00       		.ascii	"\000"
 398 00a4 00       		.ascii	"\000"
 399 00a5 00000000 		.ascii	"\000\000\000\000\000\000\000\000"
 399      00000000 
 400 00ad CC000000 		.ascii	"\314\000\000\000"
 401 00b1 72616E64 		.ascii	"random_Read\000"
 401      6F6D5F52 
 401      65616400 
 402 00bd 00       		.ascii	"\000"
 403 00be 00       		.ascii	"\000"
 404 00bf 00       		.ascii	"\000"
 405 00c0 00000000 		.ascii	"\000\000\000\000\000\000\000\000"
 405      00000000 
 406 00c8 BF000000 		.ascii	"\277\000\000\000"
 407 00cc 72616E64 		.ascii	"random_WriteSeed\000"
 407      6F6D5F57 
 407      72697465 
 407      53656564 
 407      00
 408 00dd 00       		.ascii	"\000"
 409 00de 00       		.ascii	"\000"
 410 00df 00       		.ascii	"\000"
 411 00e0 00000000 		.ascii	"\000\000\000\000\000\000\000\000"
 411      00000000 
 412 00e8 C1000000 		.ascii	"\301\000\000\000"
 413 00ec 72616E64 		.ascii	"random_ReadPolynomial\000"
 413      6F6D5F52 
 413      65616450 
 413      6F6C796E 
 413      6F6D6961 
 414 0102 00       		.ascii	"\000"
 415 0103 00       		.ascii	"\000"
 416 0104 00       		.ascii	"\000"
 417 0105 00000000 		.ascii	"\000\000\000\000\000\000\000\000"
 417      00000000 
 418 010d C3000000 		.ascii	"\303\000\000\000"
 419 0111 72616E64 		.ascii	"random_WritePolynomial\000"
 419      6F6D5F57 
 419      72697465 
 419      506F6C79 
 419      6E6F6D69 
 420 0128 00       		.ascii	"\000"
 421 0129 00       		.ascii	"\000"
 422 012a 00       		.ascii	"\000"
 423 012b 00000000 		.ascii	"\000\000\000\000\000\000\000\000"
 423      00000000 
 424 0133 C5000000 		.ascii	"\305\000\000\000"
 425 0137 72616E64 		.ascii	"random_backup\000"
 425      6F6D5F62 
ARM GAS  C:\Users\info\AppData\Local\Temp\cc9Nu7d7.s 			page 29


 425      61636B75 
 425      7000
 426 0145 00       		.ascii	"\000"
 427 0146 00       		.ascii	"\000"
 428 0147 00       		.ascii	"\000"
 429 0148 00000000 		.ascii	"\000\000\000\000\000\000\000\000"
 429      00000000 
 430 0150 D7000000 		.ascii	"\327\000\000\000"
 431 0154 43794578 		.ascii	"CyExitCriticalSection\000"
 431      69744372 
 431      69746963 
 431      616C5365 
 431      6374696F 
 432 016a 00       		.ascii	"\000"
 433 016b 02       		.ascii	"\002"
 434 016c 00       		.ascii	"\000"
 435 016d 00000000 		.ascii	"\000\000\000\000\000\000\000\000"
 435      00000000 
 436 0175 C7000000 		.ascii	"\307\000\000\000"
 437 0179 4379456E 		.ascii	"CyEnterCriticalSection\000"
 437      74657243 
 437      72697469 
 437      63616C53 
 437      65637469 
 438 0190 00       		.ascii	"\000"
 439 0191 02       		.ascii	"\002"
 440 0192 00       		.ascii	"\000"
 441 0193 00000000 		.ascii	"\000\000\000\000\000\000\000\000"
 441      00000000 
 442 019b C9000000 		.ascii	"\311\000\000\000"
 443              		.text
 444              		.section	.gnu.lto_.opts,"",%progbits
 445 0000 272D666D 		.ascii	"'-fmath-errno' '-fsigned-zeros' '-ftrapping-math' '"
 445      6174682D 
 445      6572726E 
 445      6F272027 
 445      2D667369 
 446 0033 2D666E6F 		.ascii	"-fno-trapv' '-fno-openmp' '-fno-openacc' '-mcpu=cor"
 446      2D747261 
 446      70762720 
 446      272D666E 
 446      6F2D6F70 
 447 0066 7465782D 		.ascii	"tex-m3' '-mthumb' '-g' '-Os' '-ffunction-sections' "
 447      6D332720 
 447      272D6D74 
 447      68756D62 
 447      2720272D 
 448 0099 272D6666 		.ascii	"'-ffat-lto-objects' '-flto'\000"
 448      61742D6C 
 448      746F2D6F 
 448      626A6563 
 448      74732720 
 449              		.text
 450              		.cfi_sections	.debug_frame
 451              		.section	.text.random_Enable,"ax",%progbits
 452              		.align	1
 453              		.global	random_Enable
ARM GAS  C:\Users\info\AppData\Local\Temp\cc9Nu7d7.s 			page 30


 454              		.thumb
 455              		.thumb_func
 456              		.type	random_Enable, %function
 457              	random_Enable:
 458              	.LFB1:
 459              		.file 1 "Generated_Source\\PSoC5\\random.c"
   1:Generated_Source\PSoC5/random.c **** /*******************************************************************************
   2:Generated_Source\PSoC5/random.c **** * File Name: random.c
   3:Generated_Source\PSoC5/random.c **** * Version 2.40
   4:Generated_Source\PSoC5/random.c **** *
   5:Generated_Source\PSoC5/random.c **** * Description:
   6:Generated_Source\PSoC5/random.c **** *  This file provides the source code to the API for the PRS component
   7:Generated_Source\PSoC5/random.c **** *
   8:Generated_Source\PSoC5/random.c **** * Note:
   9:Generated_Source\PSoC5/random.c **** *  None
  10:Generated_Source\PSoC5/random.c **** *
  11:Generated_Source\PSoC5/random.c **** ********************************************************************************
  12:Generated_Source\PSoC5/random.c **** * Copyright 2008-2013, Cypress Semiconductor Corporation.  All rights reserved.
  13:Generated_Source\PSoC5/random.c **** * You may use this file only in accordance with the license, terms, conditions,
  14:Generated_Source\PSoC5/random.c **** * disclaimers, and limitations in the end user license agreement accompanying
  15:Generated_Source\PSoC5/random.c **** * the software package with which this file was provided.
  16:Generated_Source\PSoC5/random.c **** *******************************************************************************/
  17:Generated_Source\PSoC5/random.c **** 
  18:Generated_Source\PSoC5/random.c **** #include "random.h"
  19:Generated_Source\PSoC5/random.c **** 
  20:Generated_Source\PSoC5/random.c **** uint8 random_initVar = 0u;
  21:Generated_Source\PSoC5/random.c **** 
  22:Generated_Source\PSoC5/random.c **** random_BACKUP_STRUCT random_backup =
  23:Generated_Source\PSoC5/random.c **** {
  24:Generated_Source\PSoC5/random.c ****     0x00u, /* enableState; */
  25:Generated_Source\PSoC5/random.c **** 
  26:Generated_Source\PSoC5/random.c ****     #if (random_WAKEUP_BEHAVIOUR == random__RESUMEWORK)
  27:Generated_Source\PSoC5/random.c ****         /* Save dff register for time mult */
  28:Generated_Source\PSoC5/random.c ****         #if (random_TIME_MULTIPLEXING_ENABLE)
  29:Generated_Source\PSoC5/random.c ****             random_INIT_STATE, /* dffStatus; */
  30:Generated_Source\PSoC5/random.c ****         #endif  /* End random_TIME_MULTIPLEXING_ENABLE */
  31:Generated_Source\PSoC5/random.c **** 
  32:Generated_Source\PSoC5/random.c ****         /* Save A0 and A1 registers are none-retention */
  33:Generated_Source\PSoC5/random.c ****         #if(random_PRS_SIZE <= 32u)
  34:Generated_Source\PSoC5/random.c ****             random_DEFAULT_SEED, /* seed */
  35:Generated_Source\PSoC5/random.c **** 
  36:Generated_Source\PSoC5/random.c ****         #else
  37:Generated_Source\PSoC5/random.c ****             random_DEFAULT_SEED_UPPER, /* seedUpper; */
  38:Generated_Source\PSoC5/random.c ****             random_DEFAULT_SEED_LOWER, /* seedLower; */
  39:Generated_Source\PSoC5/random.c **** 
  40:Generated_Source\PSoC5/random.c ****         #endif  /* End (random_PRS_SIZE <= 32u) */
  41:Generated_Source\PSoC5/random.c **** 
  42:Generated_Source\PSoC5/random.c ****     #endif  /* End (random_WAKEUP_BEHAVIOUR == random__RESUMEWORK) */
  43:Generated_Source\PSoC5/random.c **** };
  44:Generated_Source\PSoC5/random.c **** 
  45:Generated_Source\PSoC5/random.c **** 
  46:Generated_Source\PSoC5/random.c **** /*******************************************************************************
  47:Generated_Source\PSoC5/random.c **** * Function Name: random_Init
  48:Generated_Source\PSoC5/random.c **** ********************************************************************************
  49:Generated_Source\PSoC5/random.c **** *
  50:Generated_Source\PSoC5/random.c **** * Summary:
  51:Generated_Source\PSoC5/random.c **** *  Initializes seed and polynomial registers with initial values.
ARM GAS  C:\Users\info\AppData\Local\Temp\cc9Nu7d7.s 			page 31


  52:Generated_Source\PSoC5/random.c **** *
  53:Generated_Source\PSoC5/random.c **** * Parameters:
  54:Generated_Source\PSoC5/random.c **** *  void
  55:Generated_Source\PSoC5/random.c **** *
  56:Generated_Source\PSoC5/random.c **** * Return:
  57:Generated_Source\PSoC5/random.c **** *  void
  58:Generated_Source\PSoC5/random.c **** *
  59:Generated_Source\PSoC5/random.c **** *******************************************************************************/
  60:Generated_Source\PSoC5/random.c **** void random_Init(void) 
  61:Generated_Source\PSoC5/random.c **** {
  62:Generated_Source\PSoC5/random.c ****     /* Writes seed value and ponynom value provided for customizer */
  63:Generated_Source\PSoC5/random.c ****     #if (random_PRS_SIZE <= 32u)
  64:Generated_Source\PSoC5/random.c ****         random_WritePolynomial(random_DEFAULT_POLYNOM);
  65:Generated_Source\PSoC5/random.c ****         random_WriteSeed(random_DEFAULT_SEED);
  66:Generated_Source\PSoC5/random.c ****         #if (random_RUN_MODE == random__CLOCKED)
  67:Generated_Source\PSoC5/random.c ****             random_ResetSeedInit(random_DEFAULT_SEED);
  68:Generated_Source\PSoC5/random.c ****         #endif  /* End (random_RUN_MODE == random__CLOCKED) */
  69:Generated_Source\PSoC5/random.c ****             random_Enable();
  70:Generated_Source\PSoC5/random.c ****     #else
  71:Generated_Source\PSoC5/random.c ****         random_WritePolynomialUpper(random_DEFAULT_POLYNOM_UPPER);
  72:Generated_Source\PSoC5/random.c ****         random_WritePolynomialLower(random_DEFAULT_POLYNOM_LOWER);
  73:Generated_Source\PSoC5/random.c ****         random_WriteSeedUpper(random_DEFAULT_SEED_UPPER);
  74:Generated_Source\PSoC5/random.c ****         random_WriteSeedLower(random_DEFAULT_SEED_LOWER);
  75:Generated_Source\PSoC5/random.c ****         #if (random_RUN_MODE == random__CLOCKED)
  76:Generated_Source\PSoC5/random.c ****             random_ResetSeedInitUpper(random_DEFAULT_SEED_UPPER);
  77:Generated_Source\PSoC5/random.c ****             random_ResetSeedInitLower(random_DEFAULT_SEED_LOWER);
  78:Generated_Source\PSoC5/random.c ****         #endif  /* End (random_RUN_MODE == random__CLOCKED) */
  79:Generated_Source\PSoC5/random.c ****             random_Enable();
  80:Generated_Source\PSoC5/random.c ****     #endif  /* End (random_PRS_SIZE <= 32u) */
  81:Generated_Source\PSoC5/random.c **** }
  82:Generated_Source\PSoC5/random.c **** 
  83:Generated_Source\PSoC5/random.c **** 
  84:Generated_Source\PSoC5/random.c **** /*******************************************************************************
  85:Generated_Source\PSoC5/random.c **** * Function Name: random_Enable
  86:Generated_Source\PSoC5/random.c **** ********************************************************************************
  87:Generated_Source\PSoC5/random.c **** *
  88:Generated_Source\PSoC5/random.c **** * Summary:
  89:Generated_Source\PSoC5/random.c **** *  Starts PRS computation on rising edge of input clock.
  90:Generated_Source\PSoC5/random.c **** *
  91:Generated_Source\PSoC5/random.c **** * Parameters:
  92:Generated_Source\PSoC5/random.c **** *  void
  93:Generated_Source\PSoC5/random.c **** *
  94:Generated_Source\PSoC5/random.c **** * Return:
  95:Generated_Source\PSoC5/random.c **** *  void
  96:Generated_Source\PSoC5/random.c **** *
  97:Generated_Source\PSoC5/random.c **** *******************************************************************************/
  98:Generated_Source\PSoC5/random.c **** void random_Enable(void) 
  99:Generated_Source\PSoC5/random.c **** {
 460              		.loc 1 99 0
 461              		.cfi_startproc
 462              		@ args = 0, pretend = 0, frame = 0
 463              		@ frame_needed = 0, uses_anonymous_args = 0
 464              		@ link register save eliminated.
 100:Generated_Source\PSoC5/random.c ****         random_CONTROL_REG |= random_CTRL_ENABLE;
 465              		.loc 1 100 0
 466 0000 024A     		ldr	r2, .L2
 467 0002 1378     		ldrb	r3, [r2]	@ zero_extendqisi2
ARM GAS  C:\Users\info\AppData\Local\Temp\cc9Nu7d7.s 			page 32


 468 0004 43F00103 		orr	r3, r3, #1
 469 0008 1370     		strb	r3, [r2]
 470 000a 7047     		bx	lr
 471              	.L3:
 472              		.align	2
 473              	.L2:
 474 000c 73640040 		.word	1073767539
 475              		.cfi_endproc
 476              	.LFE1:
 477              		.size	random_Enable, .-random_Enable
 478              		.section	.text.random_Stop,"ax",%progbits
 479              		.align	1
 480              		.global	random_Stop
 481              		.thumb
 482              		.thumb_func
 483              		.type	random_Stop, %function
 484              	random_Stop:
 485              	.LFB3:
 101:Generated_Source\PSoC5/random.c **** }
 102:Generated_Source\PSoC5/random.c **** 
 103:Generated_Source\PSoC5/random.c **** 
 104:Generated_Source\PSoC5/random.c **** /*******************************************************************************
 105:Generated_Source\PSoC5/random.c **** * Function Name: random_Start
 106:Generated_Source\PSoC5/random.c **** ********************************************************************************
 107:Generated_Source\PSoC5/random.c **** *
 108:Generated_Source\PSoC5/random.c **** * Summary:
 109:Generated_Source\PSoC5/random.c **** *  Initializes seed and polynomial registers with initial values. Computation
 110:Generated_Source\PSoC5/random.c **** *  of PRS starts on rising edge of input clock.
 111:Generated_Source\PSoC5/random.c **** *
 112:Generated_Source\PSoC5/random.c **** * Parameters:
 113:Generated_Source\PSoC5/random.c **** *  void
 114:Generated_Source\PSoC5/random.c **** *
 115:Generated_Source\PSoC5/random.c **** * Return:
 116:Generated_Source\PSoC5/random.c **** *  void
 117:Generated_Source\PSoC5/random.c **** *
 118:Generated_Source\PSoC5/random.c **** * Global variables:
 119:Generated_Source\PSoC5/random.c **** *  random_initVar: global variable is used to indicate initial
 120:Generated_Source\PSoC5/random.c **** *  configuration of this component.  The variable is initialized to zero and set
 121:Generated_Source\PSoC5/random.c **** *  to 1 the first time random_Start() is called. This allows
 122:Generated_Source\PSoC5/random.c **** *  enable/disable component without re-initialization in all subsequent calls
 123:Generated_Source\PSoC5/random.c **** *  to the random_Start() routine.
 124:Generated_Source\PSoC5/random.c **** *
 125:Generated_Source\PSoC5/random.c **** *******************************************************************************/
 126:Generated_Source\PSoC5/random.c **** void random_Start(void) 
 127:Generated_Source\PSoC5/random.c **** {
 128:Generated_Source\PSoC5/random.c ****     /* Writes seed value and ponynom value provided from customizer */
 129:Generated_Source\PSoC5/random.c ****     if (random_initVar == 0u)
 130:Generated_Source\PSoC5/random.c ****     {
 131:Generated_Source\PSoC5/random.c ****         random_Init();
 132:Generated_Source\PSoC5/random.c ****         random_initVar = 1u;
 133:Generated_Source\PSoC5/random.c ****     }
 134:Generated_Source\PSoC5/random.c **** 
 135:Generated_Source\PSoC5/random.c ****     random_Enable();
 136:Generated_Source\PSoC5/random.c **** }
 137:Generated_Source\PSoC5/random.c **** 
 138:Generated_Source\PSoC5/random.c **** 
 139:Generated_Source\PSoC5/random.c **** /*******************************************************************************
ARM GAS  C:\Users\info\AppData\Local\Temp\cc9Nu7d7.s 			page 33


 140:Generated_Source\PSoC5/random.c **** * Function Name: random_Stop
 141:Generated_Source\PSoC5/random.c **** ********************************************************************************
 142:Generated_Source\PSoC5/random.c **** *
 143:Generated_Source\PSoC5/random.c **** * Summary:
 144:Generated_Source\PSoC5/random.c **** *  Stops PRS computation.
 145:Generated_Source\PSoC5/random.c **** *
 146:Generated_Source\PSoC5/random.c **** * Parameters:
 147:Generated_Source\PSoC5/random.c **** *  void
 148:Generated_Source\PSoC5/random.c **** *
 149:Generated_Source\PSoC5/random.c **** * Return:
 150:Generated_Source\PSoC5/random.c **** *  void
 151:Generated_Source\PSoC5/random.c **** *
 152:Generated_Source\PSoC5/random.c **** *******************************************************************************/
 153:Generated_Source\PSoC5/random.c **** void random_Stop(void) 
 154:Generated_Source\PSoC5/random.c **** {
 486              		.loc 1 154 0
 487              		.cfi_startproc
 488              		@ args = 0, pretend = 0, frame = 0
 489              		@ frame_needed = 0, uses_anonymous_args = 0
 490              		@ link register save eliminated.
 155:Generated_Source\PSoC5/random.c ****     random_CONTROL_REG &= ((uint8)~random_CTRL_ENABLE);
 491              		.loc 1 155 0
 492 0000 024A     		ldr	r2, .L5
 493 0002 1378     		ldrb	r3, [r2]	@ zero_extendqisi2
 494 0004 03F0FE03 		and	r3, r3, #254
 495 0008 1370     		strb	r3, [r2]
 496 000a 7047     		bx	lr
 497              	.L6:
 498              		.align	2
 499              	.L5:
 500 000c 73640040 		.word	1073767539
 501              		.cfi_endproc
 502              	.LFE3:
 503              		.size	random_Stop, .-random_Stop
 504              		.section	.text.random_ResetSeedInit,"ax",%progbits
 505              		.align	1
 506              		.global	random_ResetSeedInit
 507              		.thumb
 508              		.thumb_func
 509              		.type	random_ResetSeedInit, %function
 510              	random_ResetSeedInit:
 511              	.LFB4:
 156:Generated_Source\PSoC5/random.c **** }
 157:Generated_Source\PSoC5/random.c **** 
 158:Generated_Source\PSoC5/random.c **** 
 159:Generated_Source\PSoC5/random.c **** #if (random_RUN_MODE == random__APISINGLESTEP)
 160:Generated_Source\PSoC5/random.c ****     /*******************************************************************************
 161:Generated_Source\PSoC5/random.c ****     * FUNCTION NAME: random_Step
 162:Generated_Source\PSoC5/random.c ****     ********************************************************************************
 163:Generated_Source\PSoC5/random.c ****     *
 164:Generated_Source\PSoC5/random.c ****     * Summary:
 165:Generated_Source\PSoC5/random.c ****     *  Increments the PRS by one when API single step mode is used.
 166:Generated_Source\PSoC5/random.c ****     *
 167:Generated_Source\PSoC5/random.c ****     * Parameters:
 168:Generated_Source\PSoC5/random.c ****     *  void
 169:Generated_Source\PSoC5/random.c ****     *
 170:Generated_Source\PSoC5/random.c ****     * Return:
ARM GAS  C:\Users\info\AppData\Local\Temp\cc9Nu7d7.s 			page 34


 171:Generated_Source\PSoC5/random.c ****     *  void
 172:Generated_Source\PSoC5/random.c ****     *
 173:Generated_Source\PSoC5/random.c ****     *******************************************************************************/
 174:Generated_Source\PSoC5/random.c ****     void random_Step(void) 
 175:Generated_Source\PSoC5/random.c ****     {
 176:Generated_Source\PSoC5/random.c ****         #if (random_TIME_MULTIPLEXING_ENABLE)
 177:Generated_Source\PSoC5/random.c ****             /* Makes 4 pulse, 4x for Time Mult */
 178:Generated_Source\PSoC5/random.c ****             random_EXECUTE_STEP;
 179:Generated_Source\PSoC5/random.c ****             random_EXECUTE_STEP;
 180:Generated_Source\PSoC5/random.c ****             random_EXECUTE_STEP;
 181:Generated_Source\PSoC5/random.c ****             random_EXECUTE_STEP;
 182:Generated_Source\PSoC5/random.c **** 
 183:Generated_Source\PSoC5/random.c ****         #else
 184:Generated_Source\PSoC5/random.c ****             /* One pulse without Time mult required */
 185:Generated_Source\PSoC5/random.c ****             random_EXECUTE_STEP;
 186:Generated_Source\PSoC5/random.c **** 
 187:Generated_Source\PSoC5/random.c ****         #endif  /* End random_TIME_MULTIPLEXING_ENABLE */
 188:Generated_Source\PSoC5/random.c ****     }
 189:Generated_Source\PSoC5/random.c **** #endif  /* End (random_RUN_MODE == random__APISINGLESTEP) */
 190:Generated_Source\PSoC5/random.c **** 
 191:Generated_Source\PSoC5/random.c **** 
 192:Generated_Source\PSoC5/random.c **** #if (random_RUN_MODE == random__CLOCKED)
 193:Generated_Source\PSoC5/random.c ****     #if (random_PRS_SIZE <= 32u) /* 8-32 bits PRS */
 194:Generated_Source\PSoC5/random.c ****         /*******************************************************************************
 195:Generated_Source\PSoC5/random.c ****         * FUNCTION NAME: random_ResetSeedInit
 196:Generated_Source\PSoC5/random.c ****         ********************************************************************************
 197:Generated_Source\PSoC5/random.c ****         *
 198:Generated_Source\PSoC5/random.c ****         * Summary:
 199:Generated_Source\PSoC5/random.c ****         *  Increments the PRS by one when API single step mode is used.
 200:Generated_Source\PSoC5/random.c ****         *
 201:Generated_Source\PSoC5/random.c ****         * Parameters:
 202:Generated_Source\PSoC5/random.c ****         *  void
 203:Generated_Source\PSoC5/random.c ****         *
 204:Generated_Source\PSoC5/random.c ****         * Return:
 205:Generated_Source\PSoC5/random.c ****         *  void
 206:Generated_Source\PSoC5/random.c ****         *
 207:Generated_Source\PSoC5/random.c ****         *******************************************************************************/
 208:Generated_Source\PSoC5/random.c ****         void random_ResetSeedInit(uint8 seed)
 209:Generated_Source\PSoC5/random.c ****                                             
 210:Generated_Source\PSoC5/random.c ****         {
 512              		.loc 1 210 0
 513              		.cfi_startproc
 514              		@ args = 0, pretend = 0, frame = 0
 515              		@ frame_needed = 0, uses_anonymous_args = 0
 516              	.LVL0:
 517 0000 10B5     		push	{r4, lr}
 518              		.cfi_def_cfa_offset 8
 519              		.cfi_offset 4, -8
 520              		.cfi_offset 14, -4
 521              		.loc 1 210 0
 522 0002 0446     		mov	r4, r0
 523              	.LVL1:
 211:Generated_Source\PSoC5/random.c ****             uint8 enableInterrupts;
 212:Generated_Source\PSoC5/random.c **** 
 213:Generated_Source\PSoC5/random.c ****             /* Mask the Seed to cut unused bits */
 214:Generated_Source\PSoC5/random.c ****             seed &= random_MASK;
 215:Generated_Source\PSoC5/random.c **** 
ARM GAS  C:\Users\info\AppData\Local\Temp\cc9Nu7d7.s 			page 35


 216:Generated_Source\PSoC5/random.c ****             /* Change AuxControl reg, need to be safety */
 217:Generated_Source\PSoC5/random.c ****             enableInterrupts = CyEnterCriticalSection();
 524              		.loc 1 217 0
 525 0004 FFF7FEFF 		bl	CyEnterCriticalSection
 526              	.LVL2:
 218:Generated_Source\PSoC5/random.c **** 
 219:Generated_Source\PSoC5/random.c ****             #if (random_TIME_MULTIPLEXING_ENABLE)
 220:Generated_Source\PSoC5/random.c ****                 /* Set FIFOs to single register */
 221:Generated_Source\PSoC5/random.c ****                 random_AUX_CONTROL_A_REG |= random_AUXCTRL_FIFO_SINGLE_REG;
 222:Generated_Source\PSoC5/random.c **** 
 223:Generated_Source\PSoC5/random.c ****                 #if(random_PRS_SIZE > 16u)       /* 17-32 bits PRS */
 224:Generated_Source\PSoC5/random.c ****                     random_AUX_CONTROL_B_REG |= random_AUXCTRL_FIFO_SINGLE_REG;
 225:Generated_Source\PSoC5/random.c ****                 #endif  /* End (random_PRS_SIZE <= 8u) */
 226:Generated_Source\PSoC5/random.c **** 
 227:Generated_Source\PSoC5/random.c ****                 /* AuxControl reg settings are done */
 228:Generated_Source\PSoC5/random.c ****                 CyExitCriticalSection(enableInterrupts);
 229:Generated_Source\PSoC5/random.c **** 
 230:Generated_Source\PSoC5/random.c ****                 /* Write Seed COPY */
 231:Generated_Source\PSoC5/random.c ****                 #if (random_PRS_SIZE <= 16u)          /* 16 bits PRS */
 232:Generated_Source\PSoC5/random.c ****                     random_SEED_COPY_A__A1_REG = HI8(seed);
 233:Generated_Source\PSoC5/random.c ****                     random_SEED_COPY_A__A0_REG = LO8(seed);
 234:Generated_Source\PSoC5/random.c **** 
 235:Generated_Source\PSoC5/random.c ****                 #elif (random_PRS_SIZE <= 24u)        /* 24 bits PRS */
 236:Generated_Source\PSoC5/random.c ****                     random_SEED_COPY_B__A1_REG = LO8(HI16(seed));
 237:Generated_Source\PSoC5/random.c ****                     random_SEED_COPY_B__A0_REG = HI8(seed);
 238:Generated_Source\PSoC5/random.c ****                     random_SEED_COPY_A__A0_REG = LO8(seed);
 239:Generated_Source\PSoC5/random.c **** 
 240:Generated_Source\PSoC5/random.c ****                 #else                                           /* 32 bits PRS */
 241:Generated_Source\PSoC5/random.c ****                     random_SEED_COPY_B__A1_REG = HI8(HI16(seed));
 242:Generated_Source\PSoC5/random.c ****                     random_SEED_COPY_A__A1_REG = LO8(HI16(seed));
 243:Generated_Source\PSoC5/random.c ****                     random_SEED_COPY_B__A0_REG = HI8(seed);
 244:Generated_Source\PSoC5/random.c ****                     random_SEED_COPY_A__A0_REG = LO8(seed);
 245:Generated_Source\PSoC5/random.c ****                 #endif  /* End (random_PRS_SIZE <= 32u) */
 246:Generated_Source\PSoC5/random.c **** 
 247:Generated_Source\PSoC5/random.c ****             #else
 248:Generated_Source\PSoC5/random.c ****                 /* Set FIFOs to single register */
 249:Generated_Source\PSoC5/random.c ****                 #if (random_PRS_SIZE <= 8u)      /* 8 bits PRS */
 250:Generated_Source\PSoC5/random.c ****                     random_AUX_CONTROL_A_REG |= random_AUXCTRL_FIFO_SINGLE_REG;
 527              		.loc 1 250 0
 528 0008 044A     		ldr	r2, .L8
 529 000a 1378     		ldrb	r3, [r2]	@ zero_extendqisi2
 530 000c 43F00303 		orr	r3, r3, #3
 531 0010 1370     		strb	r3, [r2]
 251:Generated_Source\PSoC5/random.c **** 
 252:Generated_Source\PSoC5/random.c ****                 #elif (random_PRS_SIZE <= 16u)      /* 16 bits PRS */
 253:Generated_Source\PSoC5/random.c ****                     random_AUX_CONTROL_A_REG  |= random_AUXCTRL_FIFO_SINGLE_REG;
 254:Generated_Source\PSoC5/random.c ****                     random_AUX_CONTROL_B_REG  |= random_AUXCTRL_FIFO_SINGLE_REG;
 255:Generated_Source\PSoC5/random.c **** 
 256:Generated_Source\PSoC5/random.c ****                 #elif (random_PRS_SIZE <= 24u)      /* 24-39 bits PRS */
 257:Generated_Source\PSoC5/random.c ****                     random_AUX_CONTROL_A_REG  |= random_AUXCTRL_FIFO_SINGLE_REG;
 258:Generated_Source\PSoC5/random.c ****                     random_AUX_CONTROL_B_REG  |= random_AUXCTRL_FIFO_SINGLE_REG;
 259:Generated_Source\PSoC5/random.c ****                     random_AUX_CONTROL_C_REG  |= random_AUXCTRL_FIFO_SINGLE_REG;
 260:Generated_Source\PSoC5/random.c **** 
 261:Generated_Source\PSoC5/random.c ****                 #elif (random_PRS_SIZE <= 32u)      /* 40-55 bits PRS */
 262:Generated_Source\PSoC5/random.c ****                     random_AUX_CONTROL_A_REG  |= random_AUXCTRL_FIFO_SINGLE_REG;
 263:Generated_Source\PSoC5/random.c ****                     random_AUX_CONTROL_B_REG  |= random_AUXCTRL_FIFO_SINGLE_REG;
 264:Generated_Source\PSoC5/random.c ****                     random_AUX_CONTROL_C_REG  |= random_AUXCTRL_FIFO_SINGLE_REG;
ARM GAS  C:\Users\info\AppData\Local\Temp\cc9Nu7d7.s 			page 36


 265:Generated_Source\PSoC5/random.c ****                     random_AUX_CONTROL_D_REG  |= random_AUXCTRL_FIFO_SINGLE_REG;
 266:Generated_Source\PSoC5/random.c **** 
 267:Generated_Source\PSoC5/random.c ****                 #endif  /* End (random_PRS_SIZE <= 8u) */
 268:Generated_Source\PSoC5/random.c **** 
 269:Generated_Source\PSoC5/random.c ****                 /* AuxControl reg setting are done */
 270:Generated_Source\PSoC5/random.c ****                 CyExitCriticalSection(enableInterrupts);
 532              		.loc 1 270 0
 533 0012 FFF7FEFF 		bl	CyExitCriticalSection
 534              	.LVL3:
 271:Generated_Source\PSoC5/random.c **** 
 272:Generated_Source\PSoC5/random.c ****                 /* Write Seed COPY */
 273:Generated_Source\PSoC5/random.c ****                 CY_SET_REG8(random_SEED_COPY_PTR, seed);
 535              		.loc 1 273 0
 536 0016 024B     		ldr	r3, .L8+4
 537 0018 1C70     		strb	r4, [r3]
 538 001a 10BD     		pop	{r4, pc}
 539              	.LVL4:
 540              	.L9:
 541              		.align	2
 542              	.L8:
 543 001c 93640040 		.word	1073767571
 544 0020 43640040 		.word	1073767491
 545              		.cfi_endproc
 546              	.LFE4:
 547              		.size	random_ResetSeedInit, .-random_ResetSeedInit
 548              		.section	.text.random_Init,"ax",%progbits
 549              		.align	1
 550              		.global	random_Init
 551              		.thumb
 552              		.thumb_func
 553              		.type	random_Init, %function
 554              	random_Init:
 555              	.LFB0:
  61:Generated_Source\PSoC5/random.c ****     /* Writes seed value and ponynom value provided for customizer */
 556              		.loc 1 61 0
 557              		.cfi_startproc
 558              		@ args = 0, pretend = 0, frame = 0
 559              		@ frame_needed = 0, uses_anonymous_args = 0
 560              	.LVL5:
 561 0000 08B5     		push	{r3, lr}
 562              		.cfi_def_cfa_offset 8
 563              		.cfi_offset 3, -8
 564              		.cfi_offset 14, -4
 565              	.LBB6:
 566              	.LBB7:
 274:Generated_Source\PSoC5/random.c **** 
 275:Generated_Source\PSoC5/random.c ****             #endif  /* End (random_TIME_MULTIPLEXING_ENABLE) */
 276:Generated_Source\PSoC5/random.c ****         }
 277:Generated_Source\PSoC5/random.c **** 
 278:Generated_Source\PSoC5/random.c ****     #else
 279:Generated_Source\PSoC5/random.c **** 
 280:Generated_Source\PSoC5/random.c ****         /*******************************************************************************
 281:Generated_Source\PSoC5/random.c ****         * FUNCTION NAME: random_ResetSeedInitUpper
 282:Generated_Source\PSoC5/random.c ****         ********************************************************************************
 283:Generated_Source\PSoC5/random.c ****         *
 284:Generated_Source\PSoC5/random.c ****         * Summary:
 285:Generated_Source\PSoC5/random.c ****         *  Increments the PRS by one when API single step mode is used.
ARM GAS  C:\Users\info\AppData\Local\Temp\cc9Nu7d7.s 			page 37


 286:Generated_Source\PSoC5/random.c ****         *
 287:Generated_Source\PSoC5/random.c ****         * Parameters:
 288:Generated_Source\PSoC5/random.c ****         *  void
 289:Generated_Source\PSoC5/random.c ****         *
 290:Generated_Source\PSoC5/random.c ****         * Return:
 291:Generated_Source\PSoC5/random.c ****         *  void
 292:Generated_Source\PSoC5/random.c ****         *
 293:Generated_Source\PSoC5/random.c ****         *******************************************************************************/
 294:Generated_Source\PSoC5/random.c ****         void random_ResetSeedInitUpper(uint32 seed) 
 295:Generated_Source\PSoC5/random.c ****         {
 296:Generated_Source\PSoC5/random.c **** 			uint8 enableInterrupts;
 297:Generated_Source\PSoC5/random.c **** 
 298:Generated_Source\PSoC5/random.c **** 			/* Mask the Seed Upper half to cut unused bits */
 299:Generated_Source\PSoC5/random.c ****             seed &= random_MASK;
 300:Generated_Source\PSoC5/random.c **** 
 301:Generated_Source\PSoC5/random.c **** 			/* Change AuxControl reg, need to be safety */
 302:Generated_Source\PSoC5/random.c ****             enableInterrupts = CyEnterCriticalSection();
 303:Generated_Source\PSoC5/random.c **** 
 304:Generated_Source\PSoC5/random.c ****             /* Set FIFOs to single register */
 305:Generated_Source\PSoC5/random.c ****             random_AUX_CONTROL_A_REG |= random_AUXCTRL_FIFO_SINGLE_REG;
 306:Generated_Source\PSoC5/random.c ****             random_AUX_CONTROL_B_REG |= random_AUXCTRL_FIFO_SINGLE_REG;
 307:Generated_Source\PSoC5/random.c ****             random_AUX_CONTROL_C_REG |= random_AUXCTRL_FIFO_SINGLE_REG;
 308:Generated_Source\PSoC5/random.c **** 
 309:Generated_Source\PSoC5/random.c **** 			#if (random_PRS_SIZE > 48u)               /* 49-64 bits PRS */
 310:Generated_Source\PSoC5/random.c ****                 random_AUX_CONTROL_D_REG |= random_AUXCTRL_FIFO_SINGLE_REG;
 311:Generated_Source\PSoC5/random.c ****             #endif  /* End (random_PRS_SIZE <= 8u) */
 312:Generated_Source\PSoC5/random.c **** 
 313:Generated_Source\PSoC5/random.c ****             /* AuxControl reg settings are done */
 314:Generated_Source\PSoC5/random.c ****             CyExitCriticalSection(enableInterrupts);
 315:Generated_Source\PSoC5/random.c **** 
 316:Generated_Source\PSoC5/random.c ****             /* Write Seed Upper COPY */
 317:Generated_Source\PSoC5/random.c ****             #if (random_PRS_SIZE <= 40u)          /* 40 bits PRS */
 318:Generated_Source\PSoC5/random.c ****                 random_SEED_UPPER_COPY_C__A1_REG = LO8(seed);
 319:Generated_Source\PSoC5/random.c **** 
 320:Generated_Source\PSoC5/random.c ****             #elif (random_PRS_SIZE <= 48u)        /* 48 bits PRS */
 321:Generated_Source\PSoC5/random.c ****                 random_SEED_UPPER_COPY_C__A1_REG = HI8(seed);
 322:Generated_Source\PSoC5/random.c ****                 random_SEED_UPPER_COPY_B__A1_REG = LO8(seed);
 323:Generated_Source\PSoC5/random.c **** 
 324:Generated_Source\PSoC5/random.c ****             #elif (random_PRS_SIZE <= 56u)        /* 56 bits PRS */
 325:Generated_Source\PSoC5/random.c ****                 random_SEED_UPPER_COPY_D__A1_REG = LO8(HI16(seed));
 326:Generated_Source\PSoC5/random.c ****                 random_SEED_UPPER_COPY_C__A1_REG = HI8(seed);
 327:Generated_Source\PSoC5/random.c ****                 random_SEED_UPPER_COPY_B__A1_REG = HI8(seed);
 328:Generated_Source\PSoC5/random.c **** 
 329:Generated_Source\PSoC5/random.c ****             #else                                           /* 64 bits PRS */
 330:Generated_Source\PSoC5/random.c ****                 random_SEED_UPPER_COPY_D__A1_REG = HI8(HI16(seed));
 331:Generated_Source\PSoC5/random.c ****                 random_SEED_UPPER_COPY_C__A1_REG = LO8(HI16(seed));
 332:Generated_Source\PSoC5/random.c ****                 random_SEED_UPPER_COPY_B__A1_REG = HI8(seed);
 333:Generated_Source\PSoC5/random.c ****                 random_SEED_UPPER_COPY_A__A1_REG = LO8(seed);
 334:Generated_Source\PSoC5/random.c **** 
 335:Generated_Source\PSoC5/random.c ****             #endif  /* End (random_PRS_SIZE <= 32u) */
 336:Generated_Source\PSoC5/random.c ****         }
 337:Generated_Source\PSoC5/random.c **** 
 338:Generated_Source\PSoC5/random.c **** 
 339:Generated_Source\PSoC5/random.c ****         /*******************************************************************************
 340:Generated_Source\PSoC5/random.c ****         * FUNCTION NAME: random_ResetSeedInitLower
 341:Generated_Source\PSoC5/random.c ****         ********************************************************************************
 342:Generated_Source\PSoC5/random.c ****         *
ARM GAS  C:\Users\info\AppData\Local\Temp\cc9Nu7d7.s 			page 38


 343:Generated_Source\PSoC5/random.c ****         * Summary:
 344:Generated_Source\PSoC5/random.c ****         *  Increments the PRS by one when API single step mode is used.
 345:Generated_Source\PSoC5/random.c ****         *
 346:Generated_Source\PSoC5/random.c ****         * Parameters:
 347:Generated_Source\PSoC5/random.c ****         *  void
 348:Generated_Source\PSoC5/random.c ****         *
 349:Generated_Source\PSoC5/random.c ****         * Return:
 350:Generated_Source\PSoC5/random.c ****         *  void
 351:Generated_Source\PSoC5/random.c ****         *
 352:Generated_Source\PSoC5/random.c ****         *******************************************************************************/
 353:Generated_Source\PSoC5/random.c ****         void random_ResetSeedInitLower(uint32 seed) 
 354:Generated_Source\PSoC5/random.c ****         {
 355:Generated_Source\PSoC5/random.c ****             /* Write Seed Lower COPY */
 356:Generated_Source\PSoC5/random.c ****             #if (random_PRS_SIZE <= 40u)          /* 40 bits PRS */
 357:Generated_Source\PSoC5/random.c ****                 random_SEED_LOWER_COPY_B__A1_REG = HI8(HI16(seed));
 358:Generated_Source\PSoC5/random.c ****                 random_SEED_LOWER_COPY_C__A0_REG = LO8(HI16(seed));
 359:Generated_Source\PSoC5/random.c ****                 random_SEED_LOWER_COPY_B__A0_REG = HI8(seed);
 360:Generated_Source\PSoC5/random.c ****                 random_SEED_LOWER_COPY_A__A0_REG = LO8(seed);
 361:Generated_Source\PSoC5/random.c **** 
 362:Generated_Source\PSoC5/random.c ****             #elif (random_PRS_SIZE <= 48u)        /* 48 bits PRS */
 363:Generated_Source\PSoC5/random.c ****                 random_SEED_LOWER_COPY_A__A1_REG = HI8(HI16(seed));
 364:Generated_Source\PSoC5/random.c ****                 random_SEED_LOWER_COPY_C__A0_REG = LO8(HI16(seed));
 365:Generated_Source\PSoC5/random.c ****                 random_SEED_LOWER_COPY_B__A0_REG = HI8(seed);
 366:Generated_Source\PSoC5/random.c ****                 random_SEED_LOWER_COPY_A__A0_REG = LO8(seed);
 367:Generated_Source\PSoC5/random.c **** 
 368:Generated_Source\PSoC5/random.c ****             #else                                           /* 64 bits PRS */
 369:Generated_Source\PSoC5/random.c ****                 random_SEED_LOWER_COPY_D__A0_REG = HI8(HI16(seed));
 370:Generated_Source\PSoC5/random.c ****                 random_SEED_LOWER_COPY_C__A0_REG = LO8(HI16(seed));
 371:Generated_Source\PSoC5/random.c ****                 random_SEED_LOWER_COPY_B__A0_REG = HI8(seed);
 372:Generated_Source\PSoC5/random.c ****                 random_SEED_LOWER_COPY_A__A0_REG = LO8(seed);
 373:Generated_Source\PSoC5/random.c **** 
 374:Generated_Source\PSoC5/random.c ****             #endif  /* End (random_PRS_SIZE <= 32u) */
 375:Generated_Source\PSoC5/random.c ****         }
 376:Generated_Source\PSoC5/random.c **** 
 377:Generated_Source\PSoC5/random.c ****     #endif  /* End (random_PRS_SIZE <= 32u) */
 378:Generated_Source\PSoC5/random.c **** 
 379:Generated_Source\PSoC5/random.c **** #endif  /* End (random_RUN_MODE == random__CLOCKED) */
 380:Generated_Source\PSoC5/random.c **** 
 381:Generated_Source\PSoC5/random.c **** 
 382:Generated_Source\PSoC5/random.c **** #if(random_PRS_SIZE <= 32u) /* 8-32 bits PRS */
 383:Generated_Source\PSoC5/random.c ****     /*******************************************************************************
 384:Generated_Source\PSoC5/random.c ****     * Function Name: random_Read
 385:Generated_Source\PSoC5/random.c ****     ********************************************************************************
 386:Generated_Source\PSoC5/random.c ****     *
 387:Generated_Source\PSoC5/random.c ****     * Summary:
 388:Generated_Source\PSoC5/random.c ****     *  Reads PRS value.
 389:Generated_Source\PSoC5/random.c ****     *
 390:Generated_Source\PSoC5/random.c ****     * Parameters:
 391:Generated_Source\PSoC5/random.c ****     *  void
 392:Generated_Source\PSoC5/random.c ****     *
 393:Generated_Source\PSoC5/random.c ****     * Return:
 394:Generated_Source\PSoC5/random.c ****     *  Returns PRS value.
 395:Generated_Source\PSoC5/random.c ****     *
 396:Generated_Source\PSoC5/random.c ****     * Side Effects:
 397:Generated_Source\PSoC5/random.c ****     *  The seed value is cut according to mask = 2^(Resolution) - 1.
 398:Generated_Source\PSoC5/random.c ****     *  For example if PRS Resolution is 14 bits the mask value is:
 399:Generated_Source\PSoC5/random.c ****     *  mask = 2^(14) - 1 = 0x3FFFu.
ARM GAS  C:\Users\info\AppData\Local\Temp\cc9Nu7d7.s 			page 39


 400:Generated_Source\PSoC5/random.c ****     *  The seed value = 0xFFFFu is cut:
 401:Generated_Source\PSoC5/random.c ****     *  seed & mask = 0xFFFFu & 0x3FFFu = 0x3FFFu.
 402:Generated_Source\PSoC5/random.c ****     *
 403:Generated_Source\PSoC5/random.c ****     *******************************************************************************/
 404:Generated_Source\PSoC5/random.c ****     uint8 random_Read(void) 
 405:Generated_Source\PSoC5/random.c ****     {
 406:Generated_Source\PSoC5/random.c ****         /* Read PRS */
 407:Generated_Source\PSoC5/random.c ****         #if (random_TIME_MULTIPLEXING_ENABLE)
 408:Generated_Source\PSoC5/random.c **** 
 409:Generated_Source\PSoC5/random.c ****             uint8 seed;
 410:Generated_Source\PSoC5/random.c **** 
 411:Generated_Source\PSoC5/random.c ****             #if (random_PRS_SIZE <= 16u)          /* 16 bits PRS */
 412:Generated_Source\PSoC5/random.c ****                 seed = ((uint16) random_SEED_A__A1_REG) << 8u;
 413:Generated_Source\PSoC5/random.c ****                 seed |= random_SEED_A__A0_REG;
 414:Generated_Source\PSoC5/random.c **** 
 415:Generated_Source\PSoC5/random.c ****             #elif (random_PRS_SIZE <= 24u)        /* 24 bits PRS */
 416:Generated_Source\PSoC5/random.c ****                 seed = ((uint32) (random_SEED_B__A1_REG)) << 16u;
 417:Generated_Source\PSoC5/random.c ****                 seed |= ((uint32) (random_SEED_B__A0_REG)) << 8u;
 418:Generated_Source\PSoC5/random.c ****                 seed |= random_SEED_A__A0_REG;
 419:Generated_Source\PSoC5/random.c **** 
 420:Generated_Source\PSoC5/random.c ****             #else                                           /* 32 bits PRS */
 421:Generated_Source\PSoC5/random.c ****                 seed = ((uint32) random_SEED_B__A1_REG) << 24u;
 422:Generated_Source\PSoC5/random.c ****                 seed |= ((uint32) random_SEED_A__A1_REG) << 16u;
 423:Generated_Source\PSoC5/random.c ****                 seed |= ((uint32) random_SEED_B__A0_REG) << 8u;
 424:Generated_Source\PSoC5/random.c ****                 seed |= random_SEED_A__A0_REG;
 425:Generated_Source\PSoC5/random.c **** 
 426:Generated_Source\PSoC5/random.c ****             #endif  /* End (random_PRS_SIZE <= 8u) */
 427:Generated_Source\PSoC5/random.c **** 
 428:Generated_Source\PSoC5/random.c ****             return (seed  & random_MASK);
 429:Generated_Source\PSoC5/random.c **** 
 430:Generated_Source\PSoC5/random.c ****         #else
 431:Generated_Source\PSoC5/random.c **** 
 432:Generated_Source\PSoC5/random.c ****             return (CY_GET_REG8(random_SEED_PTR) & random_MASK);
 433:Generated_Source\PSoC5/random.c **** 
 434:Generated_Source\PSoC5/random.c ****         #endif  /* End (random_TIME_MULTIPLEXING_ENABLE) */
 435:Generated_Source\PSoC5/random.c ****     }
 436:Generated_Source\PSoC5/random.c **** 
 437:Generated_Source\PSoC5/random.c **** 
 438:Generated_Source\PSoC5/random.c ****     /*******************************************************************************
 439:Generated_Source\PSoC5/random.c ****     * Function Name: random_WriteSeed
 440:Generated_Source\PSoC5/random.c ****     ********************************************************************************
 441:Generated_Source\PSoC5/random.c ****     *
 442:Generated_Source\PSoC5/random.c ****     * Summary:
 443:Generated_Source\PSoC5/random.c ****     *  Writes seed value.
 444:Generated_Source\PSoC5/random.c ****     *
 445:Generated_Source\PSoC5/random.c ****     * Parameters:
 446:Generated_Source\PSoC5/random.c ****     *  seed:  Seed value.
 447:Generated_Source\PSoC5/random.c ****     *
 448:Generated_Source\PSoC5/random.c ****     * Return:
 449:Generated_Source\PSoC5/random.c ****     *  void
 450:Generated_Source\PSoC5/random.c ****     *
 451:Generated_Source\PSoC5/random.c ****     * Side Effects:
 452:Generated_Source\PSoC5/random.c ****     *  The seed value is cut according to mask = 2^(Resolution) - 1.
 453:Generated_Source\PSoC5/random.c ****     *  For example if PRS Resolution is 14 bits the mask value is:
 454:Generated_Source\PSoC5/random.c ****     *  mask = 2^(14) - 1 = 0x3FFFu.
 455:Generated_Source\PSoC5/random.c ****     *  The seed value = 0xFFFFu is cut:
 456:Generated_Source\PSoC5/random.c ****     *  seed & mask = 0xFFFFu & 0x3FFFu = 0x3FFFu.
ARM GAS  C:\Users\info\AppData\Local\Temp\cc9Nu7d7.s 			page 40


 457:Generated_Source\PSoC5/random.c ****     *
 458:Generated_Source\PSoC5/random.c ****     *******************************************************************************/
 459:Generated_Source\PSoC5/random.c ****     void random_WriteSeed(uint8 seed) 
 460:Generated_Source\PSoC5/random.c ****     {
 461:Generated_Source\PSoC5/random.c ****         /* Masks the Seed to cut unused bits */
 462:Generated_Source\PSoC5/random.c ****         seed &= random_MASK;
 463:Generated_Source\PSoC5/random.c **** 
 464:Generated_Source\PSoC5/random.c ****         /* Writes Seed */
 465:Generated_Source\PSoC5/random.c ****         #if (random_TIME_MULTIPLEXING_ENABLE)
 466:Generated_Source\PSoC5/random.c **** 
 467:Generated_Source\PSoC5/random.c ****             #if (random_PRS_SIZE <= 16u)          /* 16 bits PRS */
 468:Generated_Source\PSoC5/random.c ****                 random_SEED_A__A1_REG = HI8(seed);
 469:Generated_Source\PSoC5/random.c ****                 random_SEED_A__A0_REG = LO8(seed);
 470:Generated_Source\PSoC5/random.c **** 
 471:Generated_Source\PSoC5/random.c ****             #elif (random_PRS_SIZE <= 24u)        /* 24 bits PRS */
 472:Generated_Source\PSoC5/random.c ****                 random_SEED_B__A1_REG = LO8(HI16(seed));
 473:Generated_Source\PSoC5/random.c ****                 random_SEED_B__A0_REG = HI8(seed);
 474:Generated_Source\PSoC5/random.c ****                 random_SEED_A__A0_REG = LO8(seed);
 475:Generated_Source\PSoC5/random.c **** 
 476:Generated_Source\PSoC5/random.c ****             #else                                           /* 32 bits PRS */
 477:Generated_Source\PSoC5/random.c ****                 random_SEED_B__A1_REG = HI8(HI16(seed));
 478:Generated_Source\PSoC5/random.c ****                 random_SEED_A__A1_REG = LO8(HI16(seed));
 479:Generated_Source\PSoC5/random.c ****                 random_SEED_B__A0_REG = HI8(seed);
 480:Generated_Source\PSoC5/random.c ****                 random_SEED_A__A0_REG = LO8(seed);
 481:Generated_Source\PSoC5/random.c ****             #endif  /* End (random_PRS_SIZE <= 32u) */
 482:Generated_Source\PSoC5/random.c **** 
 483:Generated_Source\PSoC5/random.c ****             /* Resets triggers */
 484:Generated_Source\PSoC5/random.c ****             #if (random_WAKEUP_BEHAVIOUR == random__RESUMEWORK)
 485:Generated_Source\PSoC5/random.c ****                 if((random_sleepState & random_NORMAL_SEQUENCE) != 0u)
 486:Generated_Source\PSoC5/random.c ****                 {
 487:Generated_Source\PSoC5/random.c ****                     random_EXECUTE_DFF_RESET;
 488:Generated_Source\PSoC5/random.c ****                 }
 489:Generated_Source\PSoC5/random.c ****             #else
 490:Generated_Source\PSoC5/random.c ****                 random_EXECUTE_DFF_RESET;
 491:Generated_Source\PSoC5/random.c ****             #endif  /* (random_WAKEUP_BEHAVIOUR == random__RESUMEWORK) */
 492:Generated_Source\PSoC5/random.c **** 
 493:Generated_Source\PSoC5/random.c ****         #else
 494:Generated_Source\PSoC5/random.c **** 
 495:Generated_Source\PSoC5/random.c ****             CY_SET_REG8(random_SEED_PTR, seed);
 496:Generated_Source\PSoC5/random.c **** 
 497:Generated_Source\PSoC5/random.c ****         #endif  /* End (random_TIME_MULTIPLEXING_ENABLE) */
 498:Generated_Source\PSoC5/random.c ****     }
 499:Generated_Source\PSoC5/random.c **** 
 500:Generated_Source\PSoC5/random.c **** 
 501:Generated_Source\PSoC5/random.c ****     /*******************************************************************************
 502:Generated_Source\PSoC5/random.c ****     * Function Name: random_ReadPolynomial
 503:Generated_Source\PSoC5/random.c ****     ********************************************************************************
 504:Generated_Source\PSoC5/random.c ****     *
 505:Generated_Source\PSoC5/random.c ****     * Summary:
 506:Generated_Source\PSoC5/random.c ****     *  Reads PRS polynomial value.
 507:Generated_Source\PSoC5/random.c ****     *
 508:Generated_Source\PSoC5/random.c ****     * Parameters:
 509:Generated_Source\PSoC5/random.c ****     *  void
 510:Generated_Source\PSoC5/random.c ****     *
 511:Generated_Source\PSoC5/random.c ****     * Return:
 512:Generated_Source\PSoC5/random.c ****     *  Returns PRS polynomial value.
 513:Generated_Source\PSoC5/random.c ****     *
ARM GAS  C:\Users\info\AppData\Local\Temp\cc9Nu7d7.s 			page 41


 514:Generated_Source\PSoC5/random.c ****     *******************************************************************************/
 515:Generated_Source\PSoC5/random.c ****     uint8 random_ReadPolynomial(void)
 516:Generated_Source\PSoC5/random.c ****                                 
 517:Generated_Source\PSoC5/random.c ****     {
 518:Generated_Source\PSoC5/random.c ****         /* Reads polynomial */
 519:Generated_Source\PSoC5/random.c ****         #if (random_TIME_MULTIPLEXING_ENABLE)
 520:Generated_Source\PSoC5/random.c **** 
 521:Generated_Source\PSoC5/random.c ****             uint8 polynomial;
 522:Generated_Source\PSoC5/random.c **** 
 523:Generated_Source\PSoC5/random.c ****             #if (random_PRS_SIZE <= 16u)          /* 16 bits PRS */
 524:Generated_Source\PSoC5/random.c ****                 polynomial = ((uint16) random_POLYNOM_A__D1_REG) << 8u;
 525:Generated_Source\PSoC5/random.c ****                 polynomial |= (random_POLYNOM_A__D0_REG);
 526:Generated_Source\PSoC5/random.c **** 
 527:Generated_Source\PSoC5/random.c ****             #elif (random_PRS_SIZE <= 24u)        /* 24 bits PRS */
 528:Generated_Source\PSoC5/random.c ****                 polynomial = ((uint32) random_POLYNOM_B__D1_REG) << 16u;
 529:Generated_Source\PSoC5/random.c ****                 polynomial |= ((uint32) random_POLYNOM_B__D0_REG) << 8u;
 530:Generated_Source\PSoC5/random.c ****                 polynomial |= random_POLYNOM_A__D0_REG;
 531:Generated_Source\PSoC5/random.c **** 
 532:Generated_Source\PSoC5/random.c ****             #else                                           /* 32 bits PRS */
 533:Generated_Source\PSoC5/random.c ****                 polynomial = ((uint32) random_POLYNOM_B__D1_REG) << 24u;
 534:Generated_Source\PSoC5/random.c ****                 polynomial |= ((uint32) random_POLYNOM_A__D1_REG) << 16u;
 535:Generated_Source\PSoC5/random.c ****                 polynomial |= ((uint32) random_POLYNOM_B__D0_REG) << 8u;
 536:Generated_Source\PSoC5/random.c ****                 polynomial |= random_POLYNOM_A__D0_REG;
 537:Generated_Source\PSoC5/random.c **** 
 538:Generated_Source\PSoC5/random.c ****             #endif  /* End (random_PRS_SIZE <= 32u) */
 539:Generated_Source\PSoC5/random.c **** 
 540:Generated_Source\PSoC5/random.c ****             return polynomial;
 541:Generated_Source\PSoC5/random.c **** 
 542:Generated_Source\PSoC5/random.c ****         #else
 543:Generated_Source\PSoC5/random.c **** 
 544:Generated_Source\PSoC5/random.c ****             return CY_GET_REG8(random_POLYNOM_PTR);
 545:Generated_Source\PSoC5/random.c **** 
 546:Generated_Source\PSoC5/random.c ****         #endif  /* End (random_TIME_MULTIPLEXING_ENABLE) */
 547:Generated_Source\PSoC5/random.c ****     }
 548:Generated_Source\PSoC5/random.c **** 
 549:Generated_Source\PSoC5/random.c **** 
 550:Generated_Source\PSoC5/random.c ****     /*******************************************************************************
 551:Generated_Source\PSoC5/random.c ****     * Function Name: random_WritePolynomial
 552:Generated_Source\PSoC5/random.c ****     ********************************************************************************
 553:Generated_Source\PSoC5/random.c ****     *
 554:Generated_Source\PSoC5/random.c ****     * Summary:
 555:Generated_Source\PSoC5/random.c ****     *  Writes PRS polynomial value.
 556:Generated_Source\PSoC5/random.c ****     *
 557:Generated_Source\PSoC5/random.c ****     * Parameters:
 558:Generated_Source\PSoC5/random.c ****     *  polynomial:  PRS polynomial.
 559:Generated_Source\PSoC5/random.c ****     *
 560:Generated_Source\PSoC5/random.c ****     * Return:
 561:Generated_Source\PSoC5/random.c ****     *  void
 562:Generated_Source\PSoC5/random.c ****     *
 563:Generated_Source\PSoC5/random.c ****     * Side Effects:
 564:Generated_Source\PSoC5/random.c ****     *  The polynomial value is cut according to mask = 2^(Resolution) - 1.
 565:Generated_Source\PSoC5/random.c ****     *  For example if PRS Resolution is 14 bits the mask value is:
 566:Generated_Source\PSoC5/random.c ****     *  mask = 2^(14) - 1 = 0x3FFFu.
 567:Generated_Source\PSoC5/random.c ****     *  The polynomial value = 0xFFFFu is cut:
 568:Generated_Source\PSoC5/random.c ****     *  polynomial & mask = 0xFFFFu & 0x3FFFu = 0x3FFFu.
 569:Generated_Source\PSoC5/random.c ****     *
 570:Generated_Source\PSoC5/random.c ****     *******************************************************************************/
ARM GAS  C:\Users\info\AppData\Local\Temp\cc9Nu7d7.s 			page 42


 571:Generated_Source\PSoC5/random.c ****     void random_WritePolynomial(uint8 polynomial)
 572:Generated_Source\PSoC5/random.c ****                                           
 573:Generated_Source\PSoC5/random.c ****     {
 574:Generated_Source\PSoC5/random.c ****         /* Mask polynomial to cut unused bits */
 575:Generated_Source\PSoC5/random.c ****         polynomial &= random_MASK;
 576:Generated_Source\PSoC5/random.c **** 
 577:Generated_Source\PSoC5/random.c ****         /* Write polynomial */
 578:Generated_Source\PSoC5/random.c ****         #if (random_TIME_MULTIPLEXING_ENABLE)
 579:Generated_Source\PSoC5/random.c **** 
 580:Generated_Source\PSoC5/random.c ****             #if (random_PRS_SIZE <= 16u)          /* 16 bits PRS */
 581:Generated_Source\PSoC5/random.c **** 
 582:Generated_Source\PSoC5/random.c ****                 random_POLYNOM_A__D1_REG = HI8(polynomial);
 583:Generated_Source\PSoC5/random.c ****                 random_POLYNOM_A__D0_REG = LO8(polynomial);
 584:Generated_Source\PSoC5/random.c **** 
 585:Generated_Source\PSoC5/random.c ****             #elif (random_PRS_SIZE <= 24u)        /* 24 bits PRS */
 586:Generated_Source\PSoC5/random.c ****                 random_POLYNOM_B__D1_REG = LO8(HI16(polynomial));
 587:Generated_Source\PSoC5/random.c ****                 random_POLYNOM_B__D0_REG = HI8(polynomial);
 588:Generated_Source\PSoC5/random.c ****                 random_POLYNOM_A__D0_REG = LO8(polynomial);
 589:Generated_Source\PSoC5/random.c **** 
 590:Generated_Source\PSoC5/random.c ****             #else                                           /* 32 bits PRS */
 591:Generated_Source\PSoC5/random.c ****                 random_POLYNOM_B__D1_REG = HI8(HI16(polynomial));
 592:Generated_Source\PSoC5/random.c ****                 random_POLYNOM_A__D1_REG = LO8(HI16(polynomial));
 593:Generated_Source\PSoC5/random.c ****                 random_POLYNOM_B__D0_REG = HI8(polynomial);
 594:Generated_Source\PSoC5/random.c ****                 random_POLYNOM_A__D0_REG = LO8(polynomial);
 595:Generated_Source\PSoC5/random.c **** 
 596:Generated_Source\PSoC5/random.c ****             #endif  /* End (random_PRS_SIZE <= 32u) */
 597:Generated_Source\PSoC5/random.c **** 
 598:Generated_Source\PSoC5/random.c ****             /* Resets triggers */
 599:Generated_Source\PSoC5/random.c ****             #if (random_WAKEUP_BEHAVIOUR == random__RESUMEWORK)
 600:Generated_Source\PSoC5/random.c ****                 if((random_sleepState & random_NORMAL_SEQUENCE) != 0u)
 601:Generated_Source\PSoC5/random.c ****                 {
 602:Generated_Source\PSoC5/random.c ****                     random_EXECUTE_DFF_RESET;
 603:Generated_Source\PSoC5/random.c ****                 }
 604:Generated_Source\PSoC5/random.c ****             #else
 605:Generated_Source\PSoC5/random.c ****                 random_EXECUTE_DFF_RESET;
 606:Generated_Source\PSoC5/random.c ****             #endif  /* (random_WAKEUP_BEHAVIOUR == random__RESUMEWORK) */
 607:Generated_Source\PSoC5/random.c **** 
 608:Generated_Source\PSoC5/random.c ****         #else
 609:Generated_Source\PSoC5/random.c **** 
 610:Generated_Source\PSoC5/random.c ****             CY_SET_REG8(random_POLYNOM_PTR, polynomial);
 567              		.loc 1 610 0
 568 0002 064B     		ldr	r3, .L11
 569 0004 B822     		movs	r2, #184
 570              	.LBE7:
 571              	.LBE6:
 572              	.LBB9:
 573              	.LBB10:
 495:Generated_Source\PSoC5/random.c **** 
 574              		.loc 1 495 0
 575 0006 FF20     		movs	r0, #255
 576              	.LBE10:
 577              	.LBE9:
 578              	.LBB12:
 579              	.LBB8:
 580              		.loc 1 610 0
 581 0008 1A70     		strb	r2, [r3]
 582              	.LVL6:
ARM GAS  C:\Users\info\AppData\Local\Temp\cc9Nu7d7.s 			page 43


 583              	.LBE8:
 584              	.LBE12:
 585              	.LBB13:
 586              	.LBB11:
 495:Generated_Source\PSoC5/random.c **** 
 587              		.loc 1 495 0
 588 000a 03F8200C 		strb	r0, [r3, #-32]
 589              	.LVL7:
 590              	.LBE11:
 591              	.LBE13:
  67:Generated_Source\PSoC5/random.c ****         #endif  /* End (random_RUN_MODE == random__CLOCKED) */
 592              		.loc 1 67 0
 593 000e FFF7FEFF 		bl	random_ResetSeedInit
 594              	.LVL8:
  81:Generated_Source\PSoC5/random.c **** 
 595              		.loc 1 81 0
 596 0012 BDE80840 		pop	{r3, lr}
 597              		.cfi_restore 14
 598              		.cfi_restore 3
 599              		.cfi_def_cfa_offset 0
  69:Generated_Source\PSoC5/random.c ****     #else
 600              		.loc 1 69 0
 601 0016 FFF7FEBF 		b	random_Enable
 602              	.LVL9:
 603              	.L12:
 604 001a 00BF     		.align	2
 605              	.L11:
 606 001c 23640040 		.word	1073767459
 607              		.cfi_endproc
 608              	.LFE0:
 609              		.size	random_Init, .-random_Init
 610              		.section	.text.random_Start,"ax",%progbits
 611              		.align	1
 612              		.global	random_Start
 613              		.thumb
 614              		.thumb_func
 615              		.type	random_Start, %function
 616              	random_Start:
 617              	.LFB2:
 127:Generated_Source\PSoC5/random.c ****     /* Writes seed value and ponynom value provided from customizer */
 618              		.loc 1 127 0
 619              		.cfi_startproc
 620              		@ args = 0, pretend = 0, frame = 0
 621              		@ frame_needed = 0, uses_anonymous_args = 0
 622 0000 10B5     		push	{r4, lr}
 623              		.cfi_def_cfa_offset 8
 624              		.cfi_offset 4, -8
 625              		.cfi_offset 14, -4
 129:Generated_Source\PSoC5/random.c ****     {
 626              		.loc 1 129 0
 627 0002 054C     		ldr	r4, .L16
 628 0004 2378     		ldrb	r3, [r4]	@ zero_extendqisi2
 629 0006 1BB9     		cbnz	r3, .L14
 131:Generated_Source\PSoC5/random.c ****         random_initVar = 1u;
 630              		.loc 1 131 0
 631 0008 FFF7FEFF 		bl	random_Init
 632              	.LVL10:
ARM GAS  C:\Users\info\AppData\Local\Temp\cc9Nu7d7.s 			page 44


 132:Generated_Source\PSoC5/random.c ****     }
 633              		.loc 1 132 0
 634 000c 0123     		movs	r3, #1
 635 000e 2370     		strb	r3, [r4]
 636              	.L14:
 136:Generated_Source\PSoC5/random.c **** 
 637              		.loc 1 136 0
 638 0010 BDE81040 		pop	{r4, lr}
 639              		.cfi_restore 14
 640              		.cfi_restore 4
 641              		.cfi_def_cfa_offset 0
 135:Generated_Source\PSoC5/random.c **** }
 642              		.loc 1 135 0
 643 0014 FFF7FEBF 		b	random_Enable
 644              	.LVL11:
 645              	.L17:
 646              		.align	2
 647              	.L16:
 648 0018 00000000 		.word	.LANCHOR0
 649              		.cfi_endproc
 650              	.LFE2:
 651              		.size	random_Start, .-random_Start
 652              		.section	.text.random_Read,"ax",%progbits
 653              		.align	1
 654              		.global	random_Read
 655              		.thumb
 656              		.thumb_func
 657              		.type	random_Read, %function
 658              	random_Read:
 659              	.LFB5:
 405:Generated_Source\PSoC5/random.c ****         /* Read PRS */
 660              		.loc 1 405 0
 661              		.cfi_startproc
 662              		@ args = 0, pretend = 0, frame = 0
 663              		@ frame_needed = 0, uses_anonymous_args = 0
 664              		@ link register save eliminated.
 432:Generated_Source\PSoC5/random.c **** 
 665              		.loc 1 432 0
 666 0000 014B     		ldr	r3, .L19
 667 0002 1878     		ldrb	r0, [r3]	@ zero_extendqisi2
 435:Generated_Source\PSoC5/random.c **** 
 668              		.loc 1 435 0
 669 0004 7047     		bx	lr
 670              	.L20:
 671 0006 00BF     		.align	2
 672              	.L19:
 673 0008 03640040 		.word	1073767427
 674              		.cfi_endproc
 675              	.LFE5:
 676              		.size	random_Read, .-random_Read
 677              		.section	.text.random_WriteSeed,"ax",%progbits
 678              		.align	1
 679              		.global	random_WriteSeed
 680              		.thumb
 681              		.thumb_func
 682              		.type	random_WriteSeed, %function
 683              	random_WriteSeed:
ARM GAS  C:\Users\info\AppData\Local\Temp\cc9Nu7d7.s 			page 45


 684              	.LFB6:
 460:Generated_Source\PSoC5/random.c ****         /* Masks the Seed to cut unused bits */
 685              		.loc 1 460 0
 686              		.cfi_startproc
 687              		@ args = 0, pretend = 0, frame = 0
 688              		@ frame_needed = 0, uses_anonymous_args = 0
 689              		@ link register save eliminated.
 690              	.LVL12:
 495:Generated_Source\PSoC5/random.c **** 
 691              		.loc 1 495 0
 692 0000 014B     		ldr	r3, .L22
 693 0002 1870     		strb	r0, [r3]
 694 0004 7047     		bx	lr
 695              	.L23:
 696 0006 00BF     		.align	2
 697              	.L22:
 698 0008 03640040 		.word	1073767427
 699              		.cfi_endproc
 700              	.LFE6:
 701              		.size	random_WriteSeed, .-random_WriteSeed
 702              		.section	.text.random_ReadPolynomial,"ax",%progbits
 703              		.align	1
 704              		.global	random_ReadPolynomial
 705              		.thumb
 706              		.thumb_func
 707              		.type	random_ReadPolynomial, %function
 708              	random_ReadPolynomial:
 709              	.LFB7:
 517:Generated_Source\PSoC5/random.c ****         /* Reads polynomial */
 710              		.loc 1 517 0
 711              		.cfi_startproc
 712              		@ args = 0, pretend = 0, frame = 0
 713              		@ frame_needed = 0, uses_anonymous_args = 0
 714              		@ link register save eliminated.
 544:Generated_Source\PSoC5/random.c **** 
 715              		.loc 1 544 0
 716 0000 014B     		ldr	r3, .L25
 717 0002 1878     		ldrb	r0, [r3]	@ zero_extendqisi2
 547:Generated_Source\PSoC5/random.c **** 
 718              		.loc 1 547 0
 719 0004 7047     		bx	lr
 720              	.L26:
 721 0006 00BF     		.align	2
 722              	.L25:
 723 0008 23640040 		.word	1073767459
 724              		.cfi_endproc
 725              	.LFE7:
 726              		.size	random_ReadPolynomial, .-random_ReadPolynomial
 727              		.section	.text.random_WritePolynomial,"ax",%progbits
 728              		.align	1
 729              		.global	random_WritePolynomial
 730              		.thumb
 731              		.thumb_func
 732              		.type	random_WritePolynomial, %function
 733              	random_WritePolynomial:
 734              	.LFB8:
 573:Generated_Source\PSoC5/random.c ****         /* Mask polynomial to cut unused bits */
ARM GAS  C:\Users\info\AppData\Local\Temp\cc9Nu7d7.s 			page 46


 735              		.loc 1 573 0
 736              		.cfi_startproc
 737              		@ args = 0, pretend = 0, frame = 0
 738              		@ frame_needed = 0, uses_anonymous_args = 0
 739              		@ link register save eliminated.
 740              	.LVL13:
 741              		.loc 1 610 0
 742 0000 014B     		ldr	r3, .L28
 743 0002 1870     		strb	r0, [r3]
 744 0004 7047     		bx	lr
 745              	.L29:
 746 0006 00BF     		.align	2
 747              	.L28:
 748 0008 23640040 		.word	1073767459
 749              		.cfi_endproc
 750              	.LFE8:
 751              		.size	random_WritePolynomial, .-random_WritePolynomial
 752              		.global	random_backup
 753              		.global	random_initVar
 754              		.data
 755              		.type	random_backup, %object
 756              		.size	random_backup, 2
 757              	random_backup:
 758 0000 00       		.byte	0
 759 0001 FF       		.byte	-1
 760              		.bss
 761              		.set	.LANCHOR0,. + 0
 762              		.type	random_initVar, %object
 763              		.size	random_initVar, 1
 764              	random_initVar:
 765 0000 00       		.space	1
 766              		.text
 767              	.Letext0:
 768              		.file 2 "Generated_Source\\PSoC5\\cytypes.h"
 769              		.file 3 "Generated_Source\\PSoC5\\random.h"
 770              		.file 4 "Generated_Source\\PSoC5\\CyLib.h"