ARM GAS  C:\Users\info\AppData\Local\Temp\ccJ9Kg8W.s 			page 1


   1              		.syntax unified
   2              		.cpu cortex-m3
   3              		.fpu softvfp
   4              		.eabi_attribute 20, 1
   5              		.eabi_attribute 21, 1
   6              		.eabi_attribute 23, 3
   7              		.eabi_attribute 24, 1
   8              		.eabi_attribute 25, 1
   9              		.eabi_attribute 26, 1
  10              		.eabi_attribute 30, 4
  11              		.eabi_attribute 34, 1
  12              		.eabi_attribute 18, 4
  13              		.thumb
  14              		.syntax unified
  15              		.file	"Row_1.c"
  16              		.text
  17              	.Ltext0:
  18              		.section	.gnu.lto_.profile.bf152fce,"",%progbits
  19 0000 789C6361 		.ascii	"x\234ca`d`a`\000\222\022\"\000\000\256\0007"
  19      60646061 
  19      60009212 
  19      220000AE 
  19      0037
  20              		.text
  21              		.section	.gnu.lto_.icf.bf152fce,"",%progbits
  22 0000 789C6361 		.ascii	"x\234ca`d\000\001I\006\004`ah{\267e57\343\252\256g\017"
  22      60640001 
  22      49060460 
  22      61687BB7 
  22      653537E3 
  23 0018 7899566D 		.ascii	"x\231Vm<\227\316\374\263\365N\007\027\003\000\227A\013"
  23      3C97CEFC 
  23      B3F54E07 
  23      17030097 
  23      410B
  24 002a 8A       		.ascii	"\212"
  25              		.text
  26              		.section	.gnu.lto_.jmpfuncs.bf152fce,"",%progbits
  27 0000 789C6361 		.ascii	"x\234ca`d\000\001!\006\004`a`dd\254g\004\021L\014\014"
  27      60640001 
  27      21060460 
  27      61606464 
  27      AC670411 
  28 0017 CC401100 		.ascii	"\314@\021\000\016\"\001&"
  28      0E220126 
  29              		.text
  30              		.section	.gnu.lto_.inline.bf152fce,"",%progbits
  31 0000 789C6361 		.ascii	"x\234ca`d\000\201$\006\004`a`\340`gdd\340\000J1s\034"
  31      60640081 
  31      24060460 
  31      6160E060 
  31      676464E0 
  32 0019 B063605B 		.ascii	"\260c`[ \317\304\300t\201\237\005$\313\210O\222\211"
  32      20CFC4C0 
  32      74819F05 
  32      24CB884F 
  32      9289
ARM GAS  C:\Users\info\AppData\Local\Temp\ccJ9Kg8W.s 			page 2


  33 002b 818D9591 		.ascii	"\201\215\225\221\201\211\355\203\036D\034\010\2301\205"
  33      8189ED83 
  33      1E441C08 
  33      983185
  34 003a 1800EEF5 		.ascii	"\030\000\356\365\012\002"
  34      0A02
  35              		.text
  36              		.section	.gnu.lto_.pureconst.bf152fce,"",%progbits
  37 0000 789C6361 		.ascii	"x\234ca`d\340d```a\220b\224b\222b\226\002\000\002\261"
  37      6064E064 
  37      60606061 
  37      90629462 
  37      92629602 
  38 0017 0081     		.ascii	"\000\201"
  39              		.text
  40              		.section	.gnu.lto_Row_1_Write.bf152fce,"",%progbits
  41 0000 789C5550 		.ascii	"x\234UPMK\033Q\024\275\347\275L\022\264\266?\300\200"
  41      4D4B1B51 
  41      14BDE7BD 
  41      4C12B4B6 
  41      3FC080
  42 0013 2288BA29 		.ascii	"\"\210\272)\325\342\037\250\013\267E\267\001\011q\026"
  42      D5E21FA8 
  42      0BB745B7 
  42      01097116 
  43 0023 426D4063 		.ascii	"Bm@c\273\364\215q\"d\225\215J\241UP\304\357\317\235"
  43      BBF48D71 
  43      2264958D 
  43      4AA15550 
  43      C4EFCF9D 
  44 0037 20749895 		.ascii	" t\230\225\253\272q\323\017\212\270\030\241\213\022"
  44      ABBA71D3 
  44      0F8AB818 
  44      A18B12
  45 0046 2141316D 		.ascii	"!A1m\323{g\\\350\2037\357\315y\347\234{\356\215\021"
  45      D37B675C 
  45      E88337EF 
  45      CD79E79C 
  45      7BEE8D11 
  46 005a 48965244 		.ascii	"H\226RD}|\266\362\206&\250\362\027\"'\251\000\271\230"
  46      7D7CB6F2 
  46      8626A8F2 
  46      172227A9 
  46      00B998
  47 006d 24685A61 		.ascii	"$hZa\0325\365W\301\237\013\216U\317\272\341u\261\266"
  47      1A35F557 
  47      C19F0B8E 
  47      55CFBAE1 
  47      75B1B6
  48 0080 A4CD8607 		.ascii	"\244\315\206\007W\0235T\350DXG\017\263\256N\346\316"
  48      57133554 
  48      E8445847 
  48      0FB3AE4E 
  48      E6CE
  49 0092 A13B407C 		.ascii	"\241;@|/\372\265Js\327\23213\306\\\247\215v5\260\001"
  49      2FFAB54A 
  49      73D79A31 
ARM GAS  C:\Users\info\AppData\Local\Temp\ccJ9Kg8W.s 			page 3


  49      33C65CA7 
  49      8D7635B0 
  50 00a7 CD0ABC4C 		.ascii	"\315\012\274L\341E\212\030 l\242K\310\267\337\316\367"
  50      E1458A18 
  50      206CA24B 
  50      C8B7DFCE 
  50      F7
  51 00b8 9EEAEE50 		.ascii	"\236\352\356PX6\301\312\223\316U\021z7\343\213\306s"
  51      5836C1CA 
  51      93CE5511 
  51      7A37E38B 
  51      C673
  52 00ca DA45BBF5 		.ascii	"\332E\273\365P+\213\251\227\207\377\346[\342\263\222"
  52      502B8BA9 
  52      9787FFE6 
  52      5BE2B392 
  53 00da AA1DDBE8 		.ascii	"\252\035\333\350\214\362`\007q\356\020\202\354\017y"
  53      8CF26007 
  53      71EE1082 
  53      EC0F79
  54 00e9 A6D12818 		.ascii	"\246\321(\030\257f\325tRqQ\305\235\362C\014R\333\022"
  54      AF66D574 
  54      527151C5 
  54      9DF2430C 
  54      52DB12
  55 00fc 202E1FA2 		.ascii	" .\037\242\012oi\374\232\347\302\247\016\340\337\225"
  55      0A6F69FC 
  55      9AE7C2A7 
  55      0EE0DF95 
  56 010c 7E2E26C4 		.ascii	"~.&\304\256\240e\010\013\256\177\226\250*W\3530\350"
  56      AEA06508 
  56      0BAE7F96 
  56      A82A57EB 
  56      30E8
  57 011e D7EF1F7E 		.ascii	"\327\357\037~\307\243\337\203\025\307\304\030\272(}"
  57      C7A3DF83 
  57      15C7C418 
  57      BA287D
  58 012d AC2796F1 		.ascii	"\254'\226\361\311\231\345\361\304\260\207\024v\301q"
  58      C999E5F1 
  58      C4B08714 
  58      76C171
  59 013c B18F6550 		.ascii	"\261\217eP\200\302\237\342\017D\206:\362\254\237\006"
  59      80C29FE2 
  59      0F44863A 
  59      F2AC9F06 
  60 014c 9F9F8909 		.ascii	"\237\237\211\011\320 \0340\371\022*\354\200C2KD\225"
  60      D0201C30 
  60      F9122AEC 
  60      8043324B 
  60      4495
  61 015e 6270751F 		.ascii	"bpu\037\303*h\251S-\2717ZT\026\0228d\021\263n\213\325"
  61      C32A68A9 
  61      532DB937 
  61      5A541612 
  61      386411B3 
  62 0175 7BEBC8DD 		.ascii	"{\353\310\335b\320_\010\241G\311\034c\232\037\207;\342"
ARM GAS  C:\Users\info\AppData\Local\Temp\ccJ9Kg8W.s 			page 4


  62      62D05F08 
  62      A147C91C 
  62      639A1F87 
  62      3BE2
  63 0187 70ACA25F 		.ascii	"p\254\242_\230\361\352\226\010\302\001W\024d\020<\226"
  63      98F1EA96 
  63      08C20157 
  63      1464103C 
  63      96
  64 0198 B641FBAD 		.ascii	"\266A\373\255=\221\311\333\243#\303\271\251\211\254"
  64      3D91C9DB 
  64      A323C3B9 
  64      A989AC
  65 01a7 9D7E3D9C 		.ascii	"\235~=\234\033\350O\017\345\336\217\364>\317\222\365"
  65      1BE84F0F 
  65      E5DE8FF4 
  65      3ECF92F5 
  66 01b7 2EF366CA 		.ascii	".\363f\312n\232\314g\362c\331Wc\371\311\377\340`\270"
  66      6E9ACC67 
  66      F263D957 
  66      63F9C9FF 
  66      E060B8
  67 01ca 34       		.ascii	"4"
  68              		.text
  69              		.section	.gnu.lto_Row_1_SetDriveMode.bf152fce,"",%progbits
  70 0000 789C7D51 		.ascii	"x\234}Q\271J\003Q\024\275\347\275\311L\202\313\017\030"
  70      B94A0351 
  70      14BDE7BD 
  70      C94C82CB 
  70      0F18
  71 0012 502C141B 		.ascii	"P,\024\033Q\304/\020\264\025m\003\":\245\006E\261\364"
  71      51C42F10 
  71      B4156D03 
  71      223AA506 
  71      45B1F4
  72 0025 2531080A 		.ascii	"%1\010\012\"\2106\"\261\021\367\015+\2731\242\235Ke"
  72      22883622 
  72      B111F70D 
  72      2BBB31A2 
  72      9D4B65
  73 0038 61216211 		.ascii	"a!b\021DP\342\206\342\026\357\235\261H\345c\336]\016"
  73      4450E286 
  73      E216EF9D 
  73      B148E563 
  73      DE5D0E
  74 004b E71CEE7D 		.ascii	"\347\034\356}c\021H\316-\247\032\316\025|\241\011j\372"
  74      631148CE 
  74      2DA71ACE 
  74      157CA109 
  74      6AFA
  75 005d 94281156 		.ascii	"\224(\021V\200\024&\014\032U\030\305\253\372V\310\216"
  75      8014260C 
  75      1A5518C5 
  75      ABFA56C8 
  75      8E
  76 006e E7F655DD 		.ascii	"\347\366U\335\262\341s}\364\320`V<\2445QA\371N\204e"
  76      B2E1737D 
ARM GAS  C:\Users\info\AppData\Local\Temp\ccJ9Kg8W.s 			page 5


  76      F4D06056 
  76      3CA43551 
  76      41F94E84 
  77 0083 D431EB79 		.ascii	"\3241\353yoi\246DW\203\270~<\315_\225\327.\031\2234"
  77      6F69A644 
  77      5783B87E 
  77      3CCD5F95 
  77      D72E1993 
  78 0098 A610333A 		.ascii	"\246\0203:\255\201\025hV\240)\212\206(1@XE\255\220o"
  78      AD811568 
  78      56A0298A 
  78      86283140 
  78      5845AD90 
  79 00ad 767F66CB 		.ascii	"v\177f\313\3541\261\257\012L\261\006[\306\334\356\360"
  79      EC31B1AF 
  79      0A4CB106 
  79      5BC6DCEE 
  79      F0
  80 00be 4CA19032 		.ascii	"L\241\2202\336\233}\360a\227(\226)\315A[\022B\020\007"
  80      DE9B7DF0 
  80      61972896 
  80      29CD415B 
  80      12421007 
  81 00d2 5B4A4742 		.ascii	"[JGBXBD8Dy\276\262\310\243R\222u\016\331\217\211\334"
  81      58424438 
  81      4479BEB2 
  81      C8A35292 
  81      750ED98F 
  82 00e8 BC25CE29 		.ascii	"\274%\316)-K\315\245\263g\316\213Jk\313\237\370ak\352"
  82      2D4BCDA5 
  82      B367CE8B 
  82      4A6BCB9F 
  82      F8616BEA 
  83 00fc A4346833 		.ascii	"\2444h3\213\011c1t\356]\034Z\031,$\306x\335\0206\020"
  83      8B096331 
  83      74EE5D1C 
  83      5A192C24 
  83      C678DD10 
  84 0112 C53AA23C 		.ascii	"\305:\242<\335&2\240\034\222ON`\247\331\221\373\324"
  84      DD2632A0 
  84      1C924F4E 
  84      60A7D991 
  84      FBD4
  85 0124 971DF416 		.ascii	"\227\035\364\026C\254\277<\236\374\216\210\245\306\000"
  85      43ACBF3C 
  85      9EFC8E88 
  85      A5C600
  86 0133 B6585924 		.ascii	"\266XY$\341/T,q\030b\311\375\305\372\206\016$\345\330"
  86      E12F542C 
  86      711862C9 
  86      FDC5FA86 
  86      0E24E5D8 
  87 0147 F625A9F7 		.ascii	"\366%\251\367?J\3307v\212]\"\214r\237\235\203\364\377"
  87      3F4AD837 
  87      768A5D22 
  87      8C729F9D 
  87      83F4FF
ARM GAS  C:\Users\info\AppData\Local\Temp\ccJ9Kg8W.s 			page 6


  88 015a 8DBCC323 		.ascii	"\215\274\303#3\237\356\220\364>[\205\355\377\272\274"
  88      339FEE90 
  88      F43E5B85 
  88      EDFFBABC 
  89 016a 823C0F3F 		.ascii	"\202<\017?Ve\233\333\357\016v\017\271\275]\235\361\341"
  89      56659BDB 
  89      EF0E760F 
  89      B9BD5D9D 
  89      F1E1
  90 017c C11E37D6 		.ascii	"\301\0367\326\336\031oi\216u\304G\272\032\353{\310\352"
  90      DE196F69 
  90      8E75C447 
  90      BA1AEB7B 
  90      C8EA
  91 018e 8BF7BABF 		.ascii	"\213\367\272\277\220\341\246\011"
  91      90E1A609 
  92              		.text
  93              		.section	.gnu.lto_Row_1_Read.bf152fce,"",%progbits
  94 0000 789C354F 		.ascii	"x\2345O;K\003A\020\236o\367\222\013\021\375\003\006"
  94      3B4B0341 
  94      109E6FF7 
  94      920B11FD 
  94      0306
  95 0012 D4328D28 		.ascii	"\3242\215(\"\210\255\240\255$\205M H\274\326@P,\263"
  95      2288ADA0 
  95      AD24854D 
  95      2048BCD6 
  95      40502CB3 
  96 0026 97CB2904 		.ascii	"\227\313)\004\013\033\265RA\220\304\027\222\306:\246"
  96      0B1BB552 
  96      4190C417 
  96      92C63AA6 
  97 0036 1045D042 		.ascii	"\020E\320B\004A\011\"\341\004+\015\221@P\343\254\247"
  97      04410922 
  97      E1042B0D 
  97      914050E3 
  97      ACA7
  98 0048 033BB33B 		.ascii	"\003;\263;\373=f\014\002\351\230\3412\300\265\227\017"
  98      FB3D660C 
  98      02E998E1 
  98      32C0B597 
  98      0F
  99 0059 2441AC5D 		.ascii	"$A\254]\023\331!\001\350\213\012\201\262\002Y|\210/"
  99      13D92101 
  99      E88B0A81 
  99      B202597C 
  99      882F
 100 006b 81ABD6C5 		.ascii	"\201\253\326\305j8ZT*\247\236\366\332c\233\245\012\\"
 100      6A385A54 
 100      2AA79EF6 
 100      DA639BA5 
 100      0A5C
 101 007d 49D41184 		.ascii	"I\324\021\204\221\010\206\"Z\242\210(1\364\271\374\275"
 101      91088622 
 101      5AA28828 
 101      31F4B9FC 
 101      BD
ARM GAS  C:\Users\info\AppData\Local\Temp\ccJ9Kg8W.s 			page 7


 102 008e DE1DCC2B 		.ascii	"\336\035\314+\216~\015\340\237\022\202\332\362$VQ\235"
 102      8E7E0DE0 
 102      9F1282DA 
 102      F2245651 
 102      9D
 103 009f 8EA32A77 		.ascii	"\216\243*w\346\331\275i\202\\\311\276\234\014N\"\240"
 103      E6D9BD69 
 103      825CC9BE 
 103      9C0C4E22 
 103      A0
 104 00b0 5390B42C 		.ascii	"S\220\264,\2751M\017\361.\204\256\322C\265]\250m\217"
 104      BD314D0F 
 104      F12E84AE 
 104      D243B55D 
 104      A86D8F
 105 00c3 6B25474A 		.ascii	"k%GJv\331p\2537fS\270RB\233\346^j\017]\376\263\274k"
 105      76D970AB 
 105      376653B8 
 105      52429BE6 
 105      5E6A0F5D 
 106 00db 2B835BAE 		.ascii	"+\203[\256}\373\330\263\203-;\317\243\0328@\004\373"
 106      7DFBD8B3 
 106      832D3BCF 
 106      A31A3840 
 106      04FB
 107 00ed E0417188 		.ascii	"\340Aq\210\035\220\007\347s\222\034\011_\356\324\273"
 107      1D9007E7 
 107      73921C09 
 107      5FEED4BB 
 108 00fd 3C0F6B3E 		.ascii	"<\017k>\240\200#\306y\3105V\232\302w4\030\250)\215\345"
 108      A08023C6 
 108      79C83556 
 108      9AC27734 
 108      18A8298D 
 109 0112 BAE17702 		.ascii	"\272\341w\002\334d^\263\340\266\244\346\011\2308\376"
 109      DC645EB3 
 109      E0B6A4E6 
 109      099838FE 
 110 0122 A7D5E183 		.ascii	"\247\325\341\2034\216^\361'\022\244\337\315\2407\342"
 110      348E5EF1 
 110      2712A4DF 
 110      CDA037E2 
 111 0132 FDFAA6AC 		.ascii	"\375\372\246\254y+3\273`\315%\343\351\305L\312JL\307"
 111      792B33BB 
 111      60CD25E3 
 111      E9C54CCA 
 111      4A4CC7
 112 0145 D313A389 		.ascii	"\323\023\243\211Xz)9<\230\242\037h\254{\245"
 112      587A2939 
 112      3C98A21F 
 112      68AC7BA5 
 113              		.text
 114              		.section	.gnu.lto_Row_1_ReadDataReg.bf152fce,"",%progbits
 115 0000 789C354F 		.ascii	"x\2345O;K\003A\020\236o\367r\027\016\374\005\006\324"
 115      3B4B0341 
 115      109E6FF7 
 115      72170EFC 
ARM GAS  C:\Users\info\AppData\Local\Temp\ccJ9Kg8W.s 			page 8


 115      0506D4
 116 0013 328D2862 		.ascii	"2\215(b\241\255\240\255$\205M H\274\326@P,\263\311\345"
 116      A1ADA0AD 
 116      24854D20 
 116      48BCD640 
 116      502CB3C9 
 117 0028 1482858D 		.ascii	"\024\202\205\215\212\240\004\004I\342\003\265\261\023"
 117      8AA00404 
 117      49E203B5 
 117      B113
 118 0036 620A5104 		.ascii	"b\012Q\004\265\025\233 !\205\205h\210\004|$\316z:\260"
 118      B5159B20 
 118      21858568 
 118      88047C24 
 118      CE7A3AB0 
 119 004a 33BBB3DF 		.ascii	"3\273\263\337c\306 \220\216\031.\003\\{\371@\022\304"
 119      63C62090 
 119      8E192E03 
 119      5C7BF940 
 119      12C4
 120 005c DA2D5126 		.ascii	"\332-Q&(\000}QAPZ \215w\361-p\323\276Z\265\303E\245"
 120      28007D51 
 120      41505A20 
 120      8D77F12D 
 120      70D3BE5A 
 121 0074 B2AAB657 		.ascii	"\262\252\266W\034\333,U\340I\242\256 \214\2040\024\322"
 121      1CDB2C55 
 121      E049A2AE 
 121      208C8430 
 121      14D2
 122 0086 12458489 		.ascii	"\022E\204\211\241O\247\235\365\0363\2478\3725\200\177"
 122      A14FA79D 
 122      F51E33A7 
 122      38FA3580 
 122      7F
 123 0097 4A30B5E5 		.ascii	"J0\265\345q\244\242\272]WU\316\355\213{\333\002y\222"
 123      71A4A2BA 
 123      5D5755CE 
 123      ED8B7BDB 
 123      027992
 124 00aa 7D39199C 		.ascii	"}9\031\234D@'\223\264,\2752M\017\361&\204\256\262\201"
 124      44402793 
 124      B42CBD32 
 124      4D0FF126 
 124      84AEB281 
 125 00be EA47BE53 		.ascii	"\352G\276S\036\327J\256\224\354\262\341U\357\254\226"
 125      1ED74AAE 
 125      94ECB2E1 
 125      55EFAC96 
 126 00ce F0A48436 		.ascii	"\360\244\2046}x\334z1\375\347\311nF\031\334\252\345"
 126      7D78DC7A 
 126      31FDE7C9 
 126      6E4619DC 
 126      AAE5
 127 00e0 B73FAD02 		.ascii	"\267?\255\002v29\036\325\300>B(\203\007\305\001\012"
 127      7632391E 
 127      D5C03E42 
ARM GAS  C:\Users\info\AppData\Local\Temp\ccJ9Kg8W.s 			page 9


 127      288307C5 
 127      010A
 128 00f2 A006DCAF 		.ascii	"\240\006\334\257Ir%|\271\263\306\365\245\255\371\200"
 128      4972257C 
 128      B9B3C6F5 
 128      A5ADF980 
 129 0102 020E19D7 		.ascii	"\002\016\031\327@\266\271\322\022\276\243\301@Mi.\327"
 129      40B6B9D2 
 129      12BEA3C1 
 129      404D692E 
 129      D7
 130 0113 0DBF13E0 		.ascii	"\015\277\023\340&\363Zy\257-5O\300\302\321?\255\016"
 130      26F35A79 
 130      AF2D354F 
 130      C0C2D13F 
 130      AD0E
 131 0125 1FA471F4 		.ascii	"\037\244q\364\214?\021\223~7\203\336\210\367\353\233"
 131      8C3F1193 
 131      7E3783DE 
 131      88F7EB9B 
 132 0135 72E69DD4 		.ascii	"r\346\235\324\354\2023\027\217&\027S\011'6\035MN\214"
 132      EC823317 
 132      8F261753 
 132      0927361D 
 132      4D4E8C
 133 0148 C622C9A5 		.ascii	"\306\"\311\245\370\360`\202~\000Di{\274"
 133      F8F06082 
 133      7E004469 
 133      7BBC
 134              		.text
 135              		.section	.gnu.lto_.symbol_nodes.bf152fce,"",%progbits
 136 0000 789C6361 		.ascii	"x\234ca`dpc\000\002&\206z\006\206\011\347\030@\324\256"
 136      60647063 
 136      00022686 
 136      7A068609 
 136      E71840D4 
 137 0015 0645A000 		.ascii	"\006E\240\000c=#\252\000S=\023\252\000s=3\212\000\003"
 137      633D23AA 
 137      00533D13 
 137      AA00733D 
 137      338A0003 
 138 0029 0026B60F 		.ascii	"\000&\266\017<"
 138      3C
 139              		.text
 140              		.section	.gnu.lto_.refs.bf152fce,"",%progbits
 141 0000 789C6361 		.ascii	"x\234ca`\004B \000\000\0009\000\007"
 141      60044220 
 141      00000039 
 141      0007
 142              		.text
 143              		.section	.gnu.lto_.decls.bf152fce,"",%progbits
 144 0000 789C8D53 		.ascii	"x\234\215S]HTA\024\236s\357u\265\353\246&Q>,e>\371$"
 144      5D485441 
 144      149E73EF 
 144      75B5EBA6 
 144      26513E2C 
 145 0018 89043E55 		.ascii	"\211\004>U\240\344S\031Z\366\",\376\\\314\0277\266\265"
ARM GAS  C:\Users\info\AppData\Local\Temp\ccJ9Kg8W.s 			page 10


 145      A0E45319 
 145      5AF6222C 
 145      FE5CCC17 
 145      37B6B5
 146 002b F02118D4 		.ascii	"\360!\030\324\300\244H)\313_\262\202\362_k]s7\323\265"
 146      C0A44829 
 146      CB5FB282 
 146      F25F6B5D 
 146      7337D3B5 
 147 003f AC2452FC 		.ascii	"\254$R\374!I\204\222TB+2ZL)\333\316\314\275\273w\253"
 147      21498492 
 147      54422B32 
 147      5A4C29DB 
 147      CECCBDBB 
 148 0055 0D1AEE99 		.ascii	"\015\032\356\2319g\346|\337|\347\354\254D\200\260\221"
 148      3967E67C 
 148      DF7CE7EC 
 148      AC4480B0 
 148      91
 149 0066 2D117205 		.ascii	"-\021r\005W\023\206^\034!\350g\021}\3401\261\2439\320"
 149      5713865E 
 149      1C21E867 
 149      117DE031 
 149      B1A339D0 
 150 007a FAD15CE4 		.ascii	"\372\321\\\344\357\301\316\015\032\256\213q\241\015"
 150      EFC1CE0D 
 150      1AAE8B71 
 150      A10D
 151 0088 A30DA1A5 		.ascii	"\243\015\241\245k9\240\345\3759\034A\260#\001x\037\326"
 151      6B39A0E5 
 151      FD391C41 
 151      B0230178 
 151      1FD6
 152 009a 1104CBF4 		.ascii	"\021\004\313\364\204\004\340\322\203\340\372\203\340"
 152      8404E0D2 
 152      83E0FA83 
 152      E0
 153 00a7 5CFF810B 		.ascii	"\\\377\201\013V\347\246\000\375\225\265k\221s0\013\002"
 153      56E7A600 
 153      FD95B56B 
 153      9173300B 
 153      02
 154 00b8 680D2400 		.ascii	"h\015$\000\352\014\334\210j<DG\3403\361o\371\027\342"
 154      EA0CDC88 
 154      6A3C4447 
 154      E033F16F 
 154      F917E2
 155 00cb 4FD15C9D 		.ascii	"O\321\\\235\214\177\276\325\353\033\234Dg\007\015\004"
 155      8C7FBED5 
 155      EB1B9C44 
 155      67070D04 
 156 00db 7E059ACF 		.ascii	"~\005\232\317\317\005\375\002PC\037 \200O\225\033\240"
 156      CF05FD02 
 156      50431F20 
 156      804F951B 
 156      A0
 157 00ec 097EAF09 		.ascii	"\011~\257\011|E7\274{3 \211X1\372o7Z\016%tP\034U\224"
ARM GAS  C:\Users\info\AppData\Local\Temp\ccJ9Kg8W.s 			page 11


 157      7C4537BC 
 157      7B332089 
 157      5831FA6F 
 157      375A0E25 
 158 0105 0ABBF4CE 		.ascii	"\012\273\364\316t\237_l\015\363\010`\222\301\013,\376"
 158      749F5F6C 
 158      0DF30860 
 158      92C10B2C 
 158      FE
 159 0116 E8DCD8AA 		.ascii	"\350\334\330\252\306\354\270\256z\341g\270\270\223\371"
 159      C6ECB8AE 
 159      7AE167B8 
 159      B893F9
 160 0125 C2F442FB 		.ascii	"\302\364B\373\262\004\361\362\035F3\377\275g\277\223"
 160      B204F1F2 
 160      1D4633FF 
 160      BD67BF93 
 161 0135 D228E802 		.ascii	"\322(\350\002\031:@\204VH`\227\233d\234+(-\245\253\267"
 161      193A4084 
 161      56486097 
 161      9B649C2B 
 161      282DA5AB 
 162 014a A8218640 		.ascii	"\250!\206@\222\011\366\232\010tB<\343dY\320\016&h\003"
 162      9209F69A 
 162      0874423C 
 162      E36459D0 
 162      0E266803 
 163 015e 13E35FBA 		.ascii	"\023\343_\272~\343\203A\022\020\310xr%\266\367\324\373"
 163      7EE38341 
 163      1210C878 
 163      7225B6F7 
 163      D4FB
 164 0170 CD1D8912 		.ascii	"\315\035\211\022\242e\0200\234Z}\331\024\216\341v\031"
 164      A2651030 
 164      9C5A7DD9 
 164      148EE176 
 164      19
 165 0181 A2301CBF 		.ascii	"\2420\034\277:;\0051\327\230\006ZFc\005\310\332\001"
 165      3A3B0531 
 165      D798065A 
 165      466305C8 
 165      DA01
 166 0193 F790B007 		.ascii	"\367\220\260\007\011\011\334\207\030\234\273AR\253{"
 166      0909DC87 
 166      189CBB41 
 166      52AB7B
 167 01a2 B5B26E0F 		.ascii	"\265\262n\017\213k\246\315=t\336\273\224TG\335\245\010"
 167      8B6BA6CD 
 167      3D74DEBB 
 167      945447DD 
 167      A508
 168 01b4 13581AB4 		.ascii	"\023X\032\264\350\242\321e\313]\230\303V\332!\016\221"
 168      E8A2D165 
 168      CB5D98C3 
 168      56DA210E 
 168      91
 169 01c5 B5CB3F3C 		.ascii	"\265\313?<[D3o\302\347\331\361KF\225\305\355yf\244\023"
ARM GAS  C:\Users\info\AppData\Local\Temp\ccJ9Kg8W.s 			page 12


 169      5B44336F 
 169      C2E7D9F1 
 169      4B4695C5 
 169      ED7966A4 
 170 01da C8719073 		.ascii	"\310q\220s\364\352\034\275\201\034\016\316\361\272\242"
 170      F4EA1CBD 
 170      811C0ECE 
 170      F1BAA2
 171 01e9 F9BD41B4 		.ascii	"\371\275A\264r\216\246\252\333m\341\201\262Y\275\272"
 171      728EA6AA 
 171      DB6DE181 
 171      B259BDBA 
 172 01f9 EE075C77 		.ascii	"\356\007\\w\256&{\3355X\033\241]8\375\\\364\313\306"
 172      AE267BDD 
 172      35581BA1 
 172      5D38FD5C 
 172      F4CBC6
 173 020c 2CE8D3AF 		.ascii	",\350\323\257\354\013\274\262\237_\271\266\3229j\024"
 173      EC0BBCB2 
 173      9F5FB9B6 
 173      D2396A14 
 174 021c CFF12B17 		.ascii	"\317\361+\027\355\027\247\264\342\335\256\027>\331\214"
 174      ED17A7B4 
 174      E2DDAE17 
 174      3ED98C
 175 022b C3A97338 		.ascii	"\303\251s8\0039\\\234c\262\274\247QT\373/a\370e\254"
 175      03395C9C 
 175      63B2BCA7 
 175      5154FB2F 
 175      61F865AC 
 176 023f 7E2142ED 		.ascii	"~!B\355\177,\206\236\362\2573\006\271\202U\361_\277"
 176      7F2C869E 
 176      F2AF3306 
 176      B98255F1 
 176      5FBF
 177 0251 F0D8F24D 		.ascii	"\360\330\362Mo\250x\031\370\023\262\327\324\325\204"
 177      6FA87819 
 177      F813B2D7 
 177      D4D584
 178 0260 821C1F04 		.ascii	"\202\034\037\004\356\016\002\327^\332\372\261\352\013"
 178      EE0E02D7 
 178      5EDAFAB1 
 178      EA0B
 179 026e ACFC216C 		.ascii	"\254\374!l\331\240.\375\021\310j\273z'>u\207\030+\331"
 179      D9A02EFD 
 179      11C86ABB 
 179      7A273E75 
 179      87182BD9 
 180 0282 A3AB2AA3 		.ascii	"\243\253*\243\321\243\021<s\000I\036\362\346\016\203"
 180      D1A3113C 
 180      7300491E 
 180      F2E60E83 
 181 0292 91FF3B70 		.ascii	"\221\377;p\335\024\304\201\231\206F\021\317\330'\327"
 181      DD14C481 
 181      99864611 
 181      CFD827D7 
 182 02a2 53944227 		.ascii	"S\224B'\001F\220\214\007\253\007\270\317\266\351j)5"
ARM GAS  C:\Users\info\AppData\Local\Temp\ccJ9Kg8W.s 			page 13


 182      0146908C 
 182      07AB07B8 
 182      CFB6E96A 
 182      2935
 183 02b4 D446F824 		.ascii	"\324F\370$\022~@\3401\"\237 1\017\3033,g\315\211\346"
 183      127E40E0 
 183      31229F20 
 183      310FC333 
 183      2C67CD89 
 184 02c9 13D6429B 		.ascii	"\023\326B\233\022\226v\344xlJb\"\011).,\262%\357IS\212"
 184      129676E4 
 184      786C4A62 
 184      2209292E 
 184      2CB225EF 
 185 02e0 146B8E4D 		.ascii	"\024k\216M\3117gZ\212\255yJ\366\321LK\312\276\354\274"
 185      C937675A 
 185      8AAD794A 
 185      F6D14C4B 
 185      CABEECBC 
 186 02f4 125BC929 		.ascii	"\022[\311)\345t\302I\262\373\037\031\2343!\217D\253"
 186      E574C249 
 186      B2FB1F19 
 186      9C33218F 
 186      44AB
 187 0306 E4998A2D 		.ascii	"\344\231\212-\325ZxF9l\311Wdu+C\311\311\337\246\273"
 187      D55A7846 
 187      396CC957 
 187      64752B43 
 187      C9C9DFA6 
 188 031b A939B69C 		.ascii	"\2519\266\234\014\245@\262*\005\311\277\000|<n\243"
 188      0CA540B2 
 188      2A05C9BF 
 188      007C3C6E 
 188      A3
 189              		.text
 190              		.section	.gnu.lto_.symtab.bf152fce,"",%progbits
 191 0000 526F775F 		.ascii	"Row_1_Write\000"
 191      315F5772 
 191      69746500 
 192 000c 00       		.ascii	"\000"
 193 000d 00       		.ascii	"\000"
 194 000e 00       		.ascii	"\000"
 195 000f 00000000 		.ascii	"\000\000\000\000\000\000\000\000"
 195      00000000 
 196 0017 B3000000 		.ascii	"\263\000\000\000"
 197 001b 526F775F 		.ascii	"Row_1_SetDriveMode\000"
 197      315F5365 
 197      74447269 
 197      76654D6F 
 197      646500
 198 002e 00       		.ascii	"\000"
 199 002f 00       		.ascii	"\000"
 200 0030 00       		.ascii	"\000"
 201 0031 00000000 		.ascii	"\000\000\000\000\000\000\000\000"
 201      00000000 
 202 0039 B5000000 		.ascii	"\265\000\000\000"
 203 003d 526F775F 		.ascii	"Row_1_Read\000"
ARM GAS  C:\Users\info\AppData\Local\Temp\ccJ9Kg8W.s 			page 14


 203      315F5265 
 203      616400
 204 0048 00       		.ascii	"\000"
 205 0049 00       		.ascii	"\000"
 206 004a 00       		.ascii	"\000"
 207 004b 00000000 		.ascii	"\000\000\000\000\000\000\000\000"
 207      00000000 
 208 0053 B8000000 		.ascii	"\270\000\000\000"
 209 0057 526F775F 		.ascii	"Row_1_ReadDataReg\000"
 209      315F5265 
 209      61644461 
 209      74615265 
 209      6700
 210 0069 00       		.ascii	"\000"
 211 006a 00       		.ascii	"\000"
 212 006b 00       		.ascii	"\000"
 213 006c 00000000 		.ascii	"\000\000\000\000\000\000\000\000"
 213      00000000 
 214 0074 BA000000 		.ascii	"\272\000\000\000"
 215              		.text
 216              		.section	.gnu.lto_.opts,"",%progbits
 217 0000 272D666D 		.ascii	"'-fmath-errno' '-fsigned-zeros' '-ftrapping-math' '"
 217      6174682D 
 217      6572726E 
 217      6F272027 
 217      2D667369 
 218 0033 2D666E6F 		.ascii	"-fno-trapv' '-fno-openmp' '-fno-openacc' '-mcpu=cor"
 218      2D747261 
 218      70762720 
 218      272D666E 
 218      6F2D6F70 
 219 0066 7465782D 		.ascii	"tex-m3' '-mthumb' '-g' '-Os' '-ffunction-sections' "
 219      6D332720 
 219      272D6D74 
 219      68756D62 
 219      2720272D 
 220 0099 272D6666 		.ascii	"'-ffat-lto-objects' '-flto'\000"
 220      61742D6C 
 220      746F2D6F 
 220      626A6563 
 220      74732720 
 221              		.text
 222              		.cfi_sections	.debug_frame
 223              		.section	.text.Row_1_Write,"ax",%progbits
 224              		.align	1
 225              		.global	Row_1_Write
 226              		.thumb
 227              		.thumb_func
 228              		.type	Row_1_Write, %function
 229              	Row_1_Write:
 230              	.LFB0:
 231              		.file 1 "Generated_Source\\PSoC5\\Row_1.c"
   1:Generated_Source\PSoC5/Row_1.c **** /*******************************************************************************
   2:Generated_Source\PSoC5/Row_1.c **** * File Name: Row_1.c  
   3:Generated_Source\PSoC5/Row_1.c **** * Version 2.20
   4:Generated_Source\PSoC5/Row_1.c **** *
   5:Generated_Source\PSoC5/Row_1.c **** * Description:
ARM GAS  C:\Users\info\AppData\Local\Temp\ccJ9Kg8W.s 			page 15


   6:Generated_Source\PSoC5/Row_1.c **** *  This file contains API to enable firmware control of a Pins component.
   7:Generated_Source\PSoC5/Row_1.c **** *
   8:Generated_Source\PSoC5/Row_1.c **** * Note:
   9:Generated_Source\PSoC5/Row_1.c **** *
  10:Generated_Source\PSoC5/Row_1.c **** ********************************************************************************
  11:Generated_Source\PSoC5/Row_1.c **** * Copyright 2008-2015, Cypress Semiconductor Corporation.  All rights reserved.
  12:Generated_Source\PSoC5/Row_1.c **** * You may use this file only in accordance with the license, terms, conditions, 
  13:Generated_Source\PSoC5/Row_1.c **** * disclaimers, and limitations in the end user license agreement accompanying 
  14:Generated_Source\PSoC5/Row_1.c **** * the software package with which this file was provided.
  15:Generated_Source\PSoC5/Row_1.c **** *******************************************************************************/
  16:Generated_Source\PSoC5/Row_1.c **** 
  17:Generated_Source\PSoC5/Row_1.c **** #include "cytypes.h"
  18:Generated_Source\PSoC5/Row_1.c **** #include "Row_1.h"
  19:Generated_Source\PSoC5/Row_1.c **** 
  20:Generated_Source\PSoC5/Row_1.c **** /* APIs are not generated for P15[7:6] on PSoC 5 */
  21:Generated_Source\PSoC5/Row_1.c **** #if !(CY_PSOC5A &&\
  22:Generated_Source\PSoC5/Row_1.c **** 	 Row_1__PORT == 15 && ((Row_1__MASK & 0xC0) != 0))
  23:Generated_Source\PSoC5/Row_1.c **** 
  24:Generated_Source\PSoC5/Row_1.c **** 
  25:Generated_Source\PSoC5/Row_1.c **** /*******************************************************************************
  26:Generated_Source\PSoC5/Row_1.c **** * Function Name: Row_1_Write
  27:Generated_Source\PSoC5/Row_1.c **** ****************************************************************************//**
  28:Generated_Source\PSoC5/Row_1.c **** *
  29:Generated_Source\PSoC5/Row_1.c **** * \brief Writes the value to the physical port (data output register), masking
  30:Generated_Source\PSoC5/Row_1.c **** *  and shifting the bits appropriately. 
  31:Generated_Source\PSoC5/Row_1.c **** *
  32:Generated_Source\PSoC5/Row_1.c **** * The data output register controls the signal applied to the physical pin in 
  33:Generated_Source\PSoC5/Row_1.c **** * conjunction with the drive mode parameter. This function avoids changing 
  34:Generated_Source\PSoC5/Row_1.c **** * other bits in the port by using the appropriate method (read-modify-write or
  35:Generated_Source\PSoC5/Row_1.c **** * bit banding).
  36:Generated_Source\PSoC5/Row_1.c **** *
  37:Generated_Source\PSoC5/Row_1.c **** * <b>Note</b> This function should not be used on a hardware digital output pin 
  38:Generated_Source\PSoC5/Row_1.c **** * as it is driven by the hardware signal attached to it.
  39:Generated_Source\PSoC5/Row_1.c **** *
  40:Generated_Source\PSoC5/Row_1.c **** * \param value
  41:Generated_Source\PSoC5/Row_1.c **** *  Value to write to the component instance.
  42:Generated_Source\PSoC5/Row_1.c **** *
  43:Generated_Source\PSoC5/Row_1.c **** * \return 
  44:Generated_Source\PSoC5/Row_1.c **** *  None 
  45:Generated_Source\PSoC5/Row_1.c **** *
  46:Generated_Source\PSoC5/Row_1.c **** * \sideeffect
  47:Generated_Source\PSoC5/Row_1.c **** *  If you use read-modify-write operations that are not atomic; the Interrupt 
  48:Generated_Source\PSoC5/Row_1.c **** *  Service Routines (ISR) can cause corruption of this function. An ISR that 
  49:Generated_Source\PSoC5/Row_1.c **** *  interrupts this function and performs writes to the Pins component data 
  50:Generated_Source\PSoC5/Row_1.c **** *  register can cause corrupted port data. To avoid this issue, you should 
  51:Generated_Source\PSoC5/Row_1.c **** *  either use the Per-Pin APIs (primary method) or disable interrupts around 
  52:Generated_Source\PSoC5/Row_1.c **** *  this function.
  53:Generated_Source\PSoC5/Row_1.c **** *
  54:Generated_Source\PSoC5/Row_1.c **** * \funcusage
  55:Generated_Source\PSoC5/Row_1.c **** *  \snippet Row_1_SUT.c usage_Row_1_Write
  56:Generated_Source\PSoC5/Row_1.c **** *******************************************************************************/
  57:Generated_Source\PSoC5/Row_1.c **** void Row_1_Write(uint8 value)
  58:Generated_Source\PSoC5/Row_1.c **** {
 232              		.loc 1 58 0
 233              		.cfi_startproc
 234              		@ args = 0, pretend = 0, frame = 0
 235              		@ frame_needed = 0, uses_anonymous_args = 0
ARM GAS  C:\Users\info\AppData\Local\Temp\ccJ9Kg8W.s 			page 16


 236              		@ link register save eliminated.
 237              	.LVL0:
  59:Generated_Source\PSoC5/Row_1.c ****     uint8 staticBits = (Row_1_DR & (uint8)(~Row_1_MASK));
 238              		.loc 1 59 0
 239 0000 044A     		ldr	r2, .L2
 240 0002 1378     		ldrb	r3, [r2]	@ zero_extendqisi2
 241              	.LVL1:
  60:Generated_Source\PSoC5/Row_1.c ****     Row_1_DR = staticBits | ((uint8)(value << Row_1_SHIFT) & Row_1_MASK);
 242              		.loc 1 60 0
 243 0004 03F07F03 		and	r3, r3, #127
 244              	.LVL2:
 245 0008 43EAC010 		orr	r0, r3, r0, lsl #7
 246              	.LVL3:
 247 000c C0B2     		uxtb	r0, r0
 248 000e 1070     		strb	r0, [r2]
 249 0010 7047     		bx	lr
 250              	.L3:
 251 0012 00BF     		.align	2
 252              	.L2:
 253 0014 30510040 		.word	1073762608
 254              		.cfi_endproc
 255              	.LFE0:
 256              		.size	Row_1_Write, .-Row_1_Write
 257              		.section	.text.Row_1_SetDriveMode,"ax",%progbits
 258              		.align	1
 259              		.global	Row_1_SetDriveMode
 260              		.thumb
 261              		.thumb_func
 262              		.type	Row_1_SetDriveMode, %function
 263              	Row_1_SetDriveMode:
 264              	.LFB1:
  61:Generated_Source\PSoC5/Row_1.c **** }
  62:Generated_Source\PSoC5/Row_1.c **** 
  63:Generated_Source\PSoC5/Row_1.c **** 
  64:Generated_Source\PSoC5/Row_1.c **** /*******************************************************************************
  65:Generated_Source\PSoC5/Row_1.c **** * Function Name: Row_1_SetDriveMode
  66:Generated_Source\PSoC5/Row_1.c **** ****************************************************************************//**
  67:Generated_Source\PSoC5/Row_1.c **** *
  68:Generated_Source\PSoC5/Row_1.c **** * \brief Sets the drive mode for each of the Pins component's pins.
  69:Generated_Source\PSoC5/Row_1.c **** * 
  70:Generated_Source\PSoC5/Row_1.c **** * <b>Note</b> This affects all pins in the Pins component instance. Use the
  71:Generated_Source\PSoC5/Row_1.c **** * Per-Pin APIs if you wish to control individual pin's drive modes.
  72:Generated_Source\PSoC5/Row_1.c **** *
  73:Generated_Source\PSoC5/Row_1.c **** * \param mode
  74:Generated_Source\PSoC5/Row_1.c **** *  Mode for the selected signals. Valid options are documented in 
  75:Generated_Source\PSoC5/Row_1.c **** *  \ref driveMode.
  76:Generated_Source\PSoC5/Row_1.c **** *
  77:Generated_Source\PSoC5/Row_1.c **** * \return
  78:Generated_Source\PSoC5/Row_1.c **** *  None
  79:Generated_Source\PSoC5/Row_1.c **** *
  80:Generated_Source\PSoC5/Row_1.c **** * \sideeffect
  81:Generated_Source\PSoC5/Row_1.c **** *  If you use read-modify-write operations that are not atomic, the ISR can
  82:Generated_Source\PSoC5/Row_1.c **** *  cause corruption of this function. An ISR that interrupts this function 
  83:Generated_Source\PSoC5/Row_1.c **** *  and performs writes to the Pins component Drive Mode registers can cause 
  84:Generated_Source\PSoC5/Row_1.c **** *  corrupted port data. To avoid this issue, you should either use the Per-Pin
  85:Generated_Source\PSoC5/Row_1.c **** *  APIs (primary method) or disable interrupts around this function.
  86:Generated_Source\PSoC5/Row_1.c **** *
ARM GAS  C:\Users\info\AppData\Local\Temp\ccJ9Kg8W.s 			page 17


  87:Generated_Source\PSoC5/Row_1.c **** * \funcusage
  88:Generated_Source\PSoC5/Row_1.c **** *  \snippet Row_1_SUT.c usage_Row_1_SetDriveMode
  89:Generated_Source\PSoC5/Row_1.c **** *******************************************************************************/
  90:Generated_Source\PSoC5/Row_1.c **** void Row_1_SetDriveMode(uint8 mode)
  91:Generated_Source\PSoC5/Row_1.c **** {
 265              		.loc 1 91 0
 266              		.cfi_startproc
 267              		@ args = 0, pretend = 0, frame = 0
 268              		@ frame_needed = 0, uses_anonymous_args = 0
 269              		@ link register save eliminated.
 270              	.LVL4:
  92:Generated_Source\PSoC5/Row_1.c **** 	CyPins_SetPinDriveMode(Row_1_0, mode);
 271              		.loc 1 92 0
 272 0000 044A     		ldr	r2, .L5
 273 0002 00F00E00 		and	r0, r0, #14
 274              	.LVL5:
 275 0006 1378     		ldrb	r3, [r2]	@ zero_extendqisi2
 276 0008 03F0F103 		and	r3, r3, #241
 277 000c 1843     		orrs	r0, r0, r3
 278 000e 1070     		strb	r0, [r2]
 279 0010 7047     		bx	lr
 280              	.L6:
 281 0012 00BF     		.align	2
 282              	.L5:
 283 0014 1F500040 		.word	1073762335
 284              		.cfi_endproc
 285              	.LFE1:
 286              		.size	Row_1_SetDriveMode, .-Row_1_SetDriveMode
 287              		.section	.text.Row_1_Read,"ax",%progbits
 288              		.align	1
 289              		.global	Row_1_Read
 290              		.thumb
 291              		.thumb_func
 292              		.type	Row_1_Read, %function
 293              	Row_1_Read:
 294              	.LFB2:
  93:Generated_Source\PSoC5/Row_1.c **** }
  94:Generated_Source\PSoC5/Row_1.c **** 
  95:Generated_Source\PSoC5/Row_1.c **** 
  96:Generated_Source\PSoC5/Row_1.c **** /*******************************************************************************
  97:Generated_Source\PSoC5/Row_1.c **** * Function Name: Row_1_Read
  98:Generated_Source\PSoC5/Row_1.c **** ****************************************************************************//**
  99:Generated_Source\PSoC5/Row_1.c **** *
 100:Generated_Source\PSoC5/Row_1.c **** * \brief Reads the associated physical port (pin status register) and masks 
 101:Generated_Source\PSoC5/Row_1.c **** *  the required bits according to the width and bit position of the component
 102:Generated_Source\PSoC5/Row_1.c **** *  instance. 
 103:Generated_Source\PSoC5/Row_1.c **** *
 104:Generated_Source\PSoC5/Row_1.c **** * The pin's status register returns the current logic level present on the 
 105:Generated_Source\PSoC5/Row_1.c **** * physical pin.
 106:Generated_Source\PSoC5/Row_1.c **** *
 107:Generated_Source\PSoC5/Row_1.c **** * \return 
 108:Generated_Source\PSoC5/Row_1.c **** *  The current value for the pins in the component as a right justified number.
 109:Generated_Source\PSoC5/Row_1.c **** *
 110:Generated_Source\PSoC5/Row_1.c **** * \funcusage
 111:Generated_Source\PSoC5/Row_1.c **** *  \snippet Row_1_SUT.c usage_Row_1_Read  
 112:Generated_Source\PSoC5/Row_1.c **** *******************************************************************************/
 113:Generated_Source\PSoC5/Row_1.c **** uint8 Row_1_Read(void)
ARM GAS  C:\Users\info\AppData\Local\Temp\ccJ9Kg8W.s 			page 18


 114:Generated_Source\PSoC5/Row_1.c **** {
 295              		.loc 1 114 0
 296              		.cfi_startproc
 297              		@ args = 0, pretend = 0, frame = 0
 298              		@ frame_needed = 0, uses_anonymous_args = 0
 299              		@ link register save eliminated.
 115:Generated_Source\PSoC5/Row_1.c ****     return (Row_1_PS & Row_1_MASK) >> Row_1_SHIFT;
 300              		.loc 1 115 0
 301 0000 014B     		ldr	r3, .L8
 302 0002 1878     		ldrb	r0, [r3]	@ zero_extendqisi2
 116:Generated_Source\PSoC5/Row_1.c **** }
 303              		.loc 1 116 0
 304 0004 C009     		lsrs	r0, r0, #7
 305 0006 7047     		bx	lr
 306              	.L9:
 307              		.align	2
 308              	.L8:
 309 0008 31510040 		.word	1073762609
 310              		.cfi_endproc
 311              	.LFE2:
 312              		.size	Row_1_Read, .-Row_1_Read
 313              		.section	.text.Row_1_ReadDataReg,"ax",%progbits
 314              		.align	1
 315              		.global	Row_1_ReadDataReg
 316              		.thumb
 317              		.thumb_func
 318              		.type	Row_1_ReadDataReg, %function
 319              	Row_1_ReadDataReg:
 320              	.LFB3:
 117:Generated_Source\PSoC5/Row_1.c **** 
 118:Generated_Source\PSoC5/Row_1.c **** 
 119:Generated_Source\PSoC5/Row_1.c **** /*******************************************************************************
 120:Generated_Source\PSoC5/Row_1.c **** * Function Name: Row_1_ReadDataReg
 121:Generated_Source\PSoC5/Row_1.c **** ****************************************************************************//**
 122:Generated_Source\PSoC5/Row_1.c **** *
 123:Generated_Source\PSoC5/Row_1.c **** * \brief Reads the associated physical port's data output register and masks 
 124:Generated_Source\PSoC5/Row_1.c **** *  the correct bits according to the width and bit position of the component 
 125:Generated_Source\PSoC5/Row_1.c **** *  instance. 
 126:Generated_Source\PSoC5/Row_1.c **** *
 127:Generated_Source\PSoC5/Row_1.c **** * The data output register controls the signal applied to the physical pin in 
 128:Generated_Source\PSoC5/Row_1.c **** * conjunction with the drive mode parameter. This is not the same as the 
 129:Generated_Source\PSoC5/Row_1.c **** * preferred Row_1_Read() API because the 
 130:Generated_Source\PSoC5/Row_1.c **** * Row_1_ReadDataReg() reads the data register instead of the status 
 131:Generated_Source\PSoC5/Row_1.c **** * register. For output pins this is a useful function to determine the value 
 132:Generated_Source\PSoC5/Row_1.c **** * just written to the pin.
 133:Generated_Source\PSoC5/Row_1.c **** *
 134:Generated_Source\PSoC5/Row_1.c **** * \return 
 135:Generated_Source\PSoC5/Row_1.c **** *  The current value of the data register masked and shifted into a right 
 136:Generated_Source\PSoC5/Row_1.c **** *  justified number for the component instance.
 137:Generated_Source\PSoC5/Row_1.c **** *
 138:Generated_Source\PSoC5/Row_1.c **** * \funcusage
 139:Generated_Source\PSoC5/Row_1.c **** *  \snippet Row_1_SUT.c usage_Row_1_ReadDataReg 
 140:Generated_Source\PSoC5/Row_1.c **** *******************************************************************************/
 141:Generated_Source\PSoC5/Row_1.c **** uint8 Row_1_ReadDataReg(void)
 142:Generated_Source\PSoC5/Row_1.c **** {
 321              		.loc 1 142 0
 322              		.cfi_startproc
ARM GAS  C:\Users\info\AppData\Local\Temp\ccJ9Kg8W.s 			page 19


 323              		@ args = 0, pretend = 0, frame = 0
 324              		@ frame_needed = 0, uses_anonymous_args = 0
 325              		@ link register save eliminated.
 143:Generated_Source\PSoC5/Row_1.c ****     return (Row_1_DR & Row_1_MASK) >> Row_1_SHIFT;
 326              		.loc 1 143 0
 327 0000 014B     		ldr	r3, .L11
 328 0002 1878     		ldrb	r0, [r3]	@ zero_extendqisi2
 144:Generated_Source\PSoC5/Row_1.c **** }
 329              		.loc 1 144 0
 330 0004 C009     		lsrs	r0, r0, #7
 331 0006 7047     		bx	lr
 332              	.L12:
 333              		.align	2
 334              	.L11:
 335 0008 30510040 		.word	1073762608
 336              		.cfi_endproc
 337              	.LFE3:
 338              		.size	Row_1_ReadDataReg, .-Row_1_ReadDataReg
 339              		.text
 340              	.Letext0:
 341              		.file 2 "Generated_Source\\PSoC5\\cytypes.h"