ARM GAS  C:\Users\info\AppData\Local\Temp\ccal9hE5.s 			page 1


   1              		.syntax unified
   2              		.cpu cortex-m3
   3              		.fpu softvfp
   4              		.eabi_attribute 20, 1
   5              		.eabi_attribute 21, 1
   6              		.eabi_attribute 23, 3
   7              		.eabi_attribute 24, 1
   8              		.eabi_attribute 25, 1
   9              		.eabi_attribute 26, 1
  10              		.eabi_attribute 30, 2
  11              		.eabi_attribute 34, 1
  12              		.eabi_attribute 18, 4
  13              		.thumb
  14              		.syntax unified
  15              		.file	"u8g2_bitmap.c"
  16              		.text
  17              	.Ltext0:
  18              		.cfi_sections	.debug_frame
  19              		.section	.text.u8g2_SetBitmapMode,"ax",%progbits
  20              		.align	2
  21              		.global	u8g2_SetBitmapMode
  22              		.thumb
  23              		.thumb_func
  24              		.type	u8g2_SetBitmapMode, %function
  25              	u8g2_SetBitmapMode:
  26              	.LFB0:
  27              		.file 1 "..\\u8g2-master\\csrc\\u8g2_bitmap.c"
   1:..\u8g2-master\csrc/u8g2_bitmap.c **** /*
   2:..\u8g2-master\csrc/u8g2_bitmap.c **** 
   3:..\u8g2-master\csrc/u8g2_bitmap.c ****   u8g2_bitmap.c
   4:..\u8g2-master\csrc/u8g2_bitmap.c **** 
   5:..\u8g2-master\csrc/u8g2_bitmap.c ****   Universal 8bit Graphics Library (https://github.com/olikraus/u8g2/)
   6:..\u8g2-master\csrc/u8g2_bitmap.c **** 
   7:..\u8g2-master\csrc/u8g2_bitmap.c ****   Copyright (c) 2016, olikraus@gmail.com
   8:..\u8g2-master\csrc/u8g2_bitmap.c ****   All rights reserved.
   9:..\u8g2-master\csrc/u8g2_bitmap.c **** 
  10:..\u8g2-master\csrc/u8g2_bitmap.c ****   Redistribution and use in source and binary forms, with or without modification, 
  11:..\u8g2-master\csrc/u8g2_bitmap.c ****   are permitted provided that the following conditions are met:
  12:..\u8g2-master\csrc/u8g2_bitmap.c **** 
  13:..\u8g2-master\csrc/u8g2_bitmap.c ****   * Redistributions of source code must retain the above copyright notice, this list 
  14:..\u8g2-master\csrc/u8g2_bitmap.c ****     of conditions and the following disclaimer.
  15:..\u8g2-master\csrc/u8g2_bitmap.c ****     
  16:..\u8g2-master\csrc/u8g2_bitmap.c ****   * Redistributions in binary form must reproduce the above copyright notice, this 
  17:..\u8g2-master\csrc/u8g2_bitmap.c ****     list of conditions and the following disclaimer in the documentation and/or other 
  18:..\u8g2-master\csrc/u8g2_bitmap.c ****     materials provided with the distribution.
  19:..\u8g2-master\csrc/u8g2_bitmap.c **** 
  20:..\u8g2-master\csrc/u8g2_bitmap.c ****   THIS SOFTWARE IS PROVIDED BY THE COPYRIGHT HOLDERS AND 
  21:..\u8g2-master\csrc/u8g2_bitmap.c ****   CONTRIBUTORS "AS IS" AND ANY EXPRESS OR IMPLIED WARRANTIES, 
  22:..\u8g2-master\csrc/u8g2_bitmap.c ****   INCLUDING, BUT NOT LIMITED TO, THE IMPLIED WARRANTIES OF 
  23:..\u8g2-master\csrc/u8g2_bitmap.c ****   MERCHANTABILITY AND FITNESS FOR A PARTICULAR PURPOSE ARE 
  24:..\u8g2-master\csrc/u8g2_bitmap.c ****   DISCLAIMED. IN NO EVENT SHALL THE COPYRIGHT HOLDER OR 
  25:..\u8g2-master\csrc/u8g2_bitmap.c ****   CONTRIBUTORS BE LIABLE FOR ANY DIRECT, INDIRECT, INCIDENTAL, 
  26:..\u8g2-master\csrc/u8g2_bitmap.c ****   SPECIAL, EXEMPLARY, OR CONSEQUENTIAL DAMAGES (INCLUDING, BUT 
  27:..\u8g2-master\csrc/u8g2_bitmap.c ****   NOT LIMITED TO, PROCUREMENT OF SUBSTITUTE GOODS OR SERVICES; 
  28:..\u8g2-master\csrc/u8g2_bitmap.c ****   LOSS OF USE, DATA, OR PROFITS; OR BUSINESS INTERRUPTION) HOWEVER 
  29:..\u8g2-master\csrc/u8g2_bitmap.c ****   CAUSED AND ON ANY THEORY OF LIABILITY, WHETHER IN CONTRACT, 
  30:..\u8g2-master\csrc/u8g2_bitmap.c ****   STRICT LIABILITY, OR TORT (INCLUDING NEGLIGENCE OR OTHERWISE) 
ARM GAS  C:\Users\info\AppData\Local\Temp\ccal9hE5.s 			page 2


  31:..\u8g2-master\csrc/u8g2_bitmap.c ****   ARISING IN ANY WAY OUT OF THE USE OF THIS SOFTWARE, EVEN IF 
  32:..\u8g2-master\csrc/u8g2_bitmap.c ****   ADVISED OF THE POSSIBILITY OF SUCH DAMAGE.  
  33:..\u8g2-master\csrc/u8g2_bitmap.c **** 
  34:..\u8g2-master\csrc/u8g2_bitmap.c **** */
  35:..\u8g2-master\csrc/u8g2_bitmap.c **** 
  36:..\u8g2-master\csrc/u8g2_bitmap.c **** #include "u8g2.h"
  37:..\u8g2-master\csrc/u8g2_bitmap.c **** 
  38:..\u8g2-master\csrc/u8g2_bitmap.c **** 
  39:..\u8g2-master\csrc/u8g2_bitmap.c **** void u8g2_SetBitmapMode(u8g2_t *u8g2, uint8_t is_transparent) {
  28              		.loc 1 39 0
  29              		.cfi_startproc
  30              		@ args = 0, pretend = 0, frame = 0
  31              		@ frame_needed = 0, uses_anonymous_args = 0
  32              		@ link register save eliminated.
  33              	.LVL0:
  40:..\u8g2-master\csrc/u8g2_bitmap.c ****   u8g2->bitmap_transparency = is_transparent;
  34              		.loc 1 40 0
  35 0000 80F88510 		strb	r1, [r0, #133]
  36 0004 7047     		bx	lr
  37              		.cfi_endproc
  38              	.LFE0:
  39              		.size	u8g2_SetBitmapMode, .-u8g2_SetBitmapMode
  40 0006 00BF     		.section	.text.u8g2_DrawHorizontalBitmap,"ax",%progbits
  41              		.align	2
  42              		.global	u8g2_DrawHorizontalBitmap
  43              		.thumb
  44              		.thumb_func
  45              		.type	u8g2_DrawHorizontalBitmap, %function
  46              	u8g2_DrawHorizontalBitmap:
  47              	.LFB1:
  41:..\u8g2-master\csrc/u8g2_bitmap.c **** }
  42:..\u8g2-master\csrc/u8g2_bitmap.c **** 
  43:..\u8g2-master\csrc/u8g2_bitmap.c **** /*
  44:..\u8g2-master\csrc/u8g2_bitmap.c ****   x,y 	Position on the display
  45:..\u8g2-master\csrc/u8g2_bitmap.c ****   len		Length of bitmap line in pixel. Note: This differs from u8glib which had a bytecount here.
  46:..\u8g2-master\csrc/u8g2_bitmap.c ****   b		Pointer to the bitmap line.
  47:..\u8g2-master\csrc/u8g2_bitmap.c ****   Only draw pixels which are set.
  48:..\u8g2-master\csrc/u8g2_bitmap.c **** */
  49:..\u8g2-master\csrc/u8g2_bitmap.c **** 
  50:..\u8g2-master\csrc/u8g2_bitmap.c **** void u8g2_DrawHorizontalBitmap(u8g2_t *u8g2, u8g2_uint_t x, u8g2_uint_t y, u8g2_uint_t len, const u
  51:..\u8g2-master\csrc/u8g2_bitmap.c **** {
  48              		.loc 1 51 0
  49              		.cfi_startproc
  50              		@ args = 4, pretend = 0, frame = 0
  51              		@ frame_needed = 0, uses_anonymous_args = 0
  52              	.LVL1:
  53 0000 2DE9F04F 		push	{r4, r5, r6, r7, r8, r9, r10, fp, lr}
  54              		.cfi_def_cfa_offset 36
  55              		.cfi_offset 4, -36
  56              		.cfi_offset 5, -32
  57              		.cfi_offset 6, -28
  58              		.cfi_offset 7, -24
  59              		.cfi_offset 8, -20
  60              		.cfi_offset 9, -16
  61              		.cfi_offset 10, -12
  62              		.cfi_offset 11, -8
  63              		.cfi_offset 14, -4
ARM GAS  C:\Users\info\AppData\Local\Temp\ccal9hE5.s 			page 3


  52:..\u8g2-master\csrc/u8g2_bitmap.c ****   uint8_t mask;
  53:..\u8g2-master\csrc/u8g2_bitmap.c ****   uint8_t color = u8g2->draw_color;
  54:..\u8g2-master\csrc/u8g2_bitmap.c ****   uint8_t ncolor = (color == 0 ? 1 : 0);
  55:..\u8g2-master\csrc/u8g2_bitmap.c **** 
  56:..\u8g2-master\csrc/u8g2_bitmap.c **** #ifdef U8G2_WITH_INTERSECTION
  57:..\u8g2-master\csrc/u8g2_bitmap.c ****   if ( u8g2_IsIntersection(u8g2, x, y, x+len, y+1) == 0 ) 
  64              		.loc 1 57 0
  65 0004 551C     		adds	r5, r2, #1
  51:..\u8g2-master\csrc/u8g2_bitmap.c ****   uint8_t mask;
  66              		.loc 1 51 0
  67 0006 83B0     		sub	sp, sp, #12
  68              		.cfi_def_cfa_offset 48
  51:..\u8g2-master\csrc/u8g2_bitmap.c ****   uint8_t mask;
  69              		.loc 1 51 0
  70 0008 9B46     		mov	fp, r3
  71              		.loc 1 57 0
  72 000a EDB2     		uxtb	r5, r5
  73 000c CB18     		adds	r3, r1, r3
  74              	.LVL2:
  75 000e 0095     		str	r5, [sp]
  76 0010 DBB2     		uxtb	r3, r3
  51:..\u8g2-master\csrc/u8g2_bitmap.c ****   uint8_t mask;
  77              		.loc 1 51 0
  78 0012 9046     		mov	r8, r2
  79 0014 0C46     		mov	r4, r1
  80 0016 0746     		mov	r7, r0
  53:..\u8g2-master\csrc/u8g2_bitmap.c ****   uint8_t ncolor = (color == 0 ? 1 : 0);
  81              		.loc 1 53 0
  82 0018 90F88690 		ldrb	r9, [r0, #134]	@ zero_extendqisi2
  83              	.LVL3:
  51:..\u8g2-master\csrc/u8g2_bitmap.c ****   uint8_t mask;
  84              		.loc 1 51 0
  85 001c 0C9E     		ldr	r6, [sp, #48]
  86              		.loc 1 57 0
  87 001e FFF7FEFF 		bl	u8g2_IsIntersection
  88              	.LVL4:
  89 0022 60B3     		cbz	r0, .L2
  90              	.LVL5:
  58:..\u8g2-master\csrc/u8g2_bitmap.c ****     return;
  59:..\u8g2-master\csrc/u8g2_bitmap.c **** #endif /* U8G2_WITH_INTERSECTION */
  60:..\u8g2-master\csrc/u8g2_bitmap.c ****   
  61:..\u8g2-master\csrc/u8g2_bitmap.c ****   mask = 128;
  62:..\u8g2-master\csrc/u8g2_bitmap.c ****   while(len > 0)
  91              		.loc 1 62 0
  92 0024 BBF1000F 		cmp	fp, #0
  93 0028 27D0     		beq	.L9
  94 002a 8025     		movs	r5, #128
  63:..\u8g2-master\csrc/u8g2_bitmap.c ****   {
  64:..\u8g2-master\csrc/u8g2_bitmap.c ****     if ( *b & mask ) {
  65:..\u8g2-master\csrc/u8g2_bitmap.c ****       u8g2->draw_color = color;
  66:..\u8g2-master\csrc/u8g2_bitmap.c ****       u8g2_DrawHVLine(u8g2, x, y, 1, 0);
  95              		.loc 1 66 0
  96 002c 4FF0000A 		mov	r10, #0
  97 0030 0EE0     		b	.L8
  98              	.LVL6:
  99              	.L5:
  67:..\u8g2-master\csrc/u8g2_bitmap.c ****     } else if ( u8g2->bitmap_transparency == 0 ) {
ARM GAS  C:\Users\info\AppData\Local\Temp\ccal9hE5.s 			page 4


 100              		.loc 1 67 0
 101 0032 97F88530 		ldrb	r3, [r7, #133]	@ zero_extendqisi2
 102 0036 CBB1     		cbz	r3, .L17
 103              	.L6:
 104              	.LVL7:
  68:..\u8g2-master\csrc/u8g2_bitmap.c ****       u8g2->draw_color = ncolor;
  69:..\u8g2-master\csrc/u8g2_bitmap.c ****       u8g2_DrawHVLine(u8g2, x, y, 1, 0);
  70:..\u8g2-master\csrc/u8g2_bitmap.c ****     }
  71:..\u8g2-master\csrc/u8g2_bitmap.c **** 
  72:..\u8g2-master\csrc/u8g2_bitmap.c ****     x++;
  73:..\u8g2-master\csrc/u8g2_bitmap.c ****     mask >>= 1;
  74:..\u8g2-master\csrc/u8g2_bitmap.c ****     if ( mask == 0 )
 105              		.loc 1 74 0
 106 0038 6D08     		lsrs	r5, r5, #1
  75:..\u8g2-master\csrc/u8g2_bitmap.c ****     {
  76:..\u8g2-master\csrc/u8g2_bitmap.c ****       mask = 128;
  77:..\u8g2-master\csrc/u8g2_bitmap.c ****       b++;
  78:..\u8g2-master\csrc/u8g2_bitmap.c ****     }
  79:..\u8g2-master\csrc/u8g2_bitmap.c ****     len--;
 107              		.loc 1 79 0
 108 003a 0BF1FF33 		add	r3, fp, #-1
  72:..\u8g2-master\csrc/u8g2_bitmap.c ****     mask >>= 1;
 109              		.loc 1 72 0
 110 003e 04F10104 		add	r4, r4, #1
 111              	.LVL8:
  77:..\u8g2-master\csrc/u8g2_bitmap.c ****     }
 112              		.loc 1 77 0
 113 0042 04BF     		itt	eq
 114 0044 0136     		addeq	r6, r6, #1
 115              	.LVL9:
  76:..\u8g2-master\csrc/u8g2_bitmap.c ****       b++;
 116              		.loc 1 76 0
 117 0046 8025     		moveq	r5, #128
  62:..\u8g2-master\csrc/u8g2_bitmap.c ****   {
 118              		.loc 1 62 0
 119 0048 13F0FF0B 		ands	fp, r3, #255
 120              	.LVL10:
  72:..\u8g2-master\csrc/u8g2_bitmap.c ****     mask >>= 1;
 121              		.loc 1 72 0
 122 004c E4B2     		uxtb	r4, r4
 123              	.LVL11:
  62:..\u8g2-master\csrc/u8g2_bitmap.c ****   {
 124              		.loc 1 62 0
 125 004e 14D0     		beq	.L9
 126              	.LVL12:
 127              	.L8:
  64:..\u8g2-master\csrc/u8g2_bitmap.c ****       u8g2->draw_color = color;
 128              		.loc 1 64 0
 129 0050 3378     		ldrb	r3, [r6]	@ zero_extendqisi2
 130 0052 1D42     		tst	r5, r3
 131 0054 EDD0     		beq	.L5
  65:..\u8g2-master\csrc/u8g2_bitmap.c ****       u8g2_DrawHVLine(u8g2, x, y, 1, 0);
 132              		.loc 1 65 0
 133 0056 87F88690 		strb	r9, [r7, #134]
  66:..\u8g2-master\csrc/u8g2_bitmap.c ****     } else if ( u8g2->bitmap_transparency == 0 ) {
 134              		.loc 1 66 0
 135 005a CDF800A0 		str	r10, [sp]
ARM GAS  C:\Users\info\AppData\Local\Temp\ccal9hE5.s 			page 5


 136              	.L15:
  69:..\u8g2-master\csrc/u8g2_bitmap.c ****     }
 137              		.loc 1 69 0
 138 005e 0123     		movs	r3, #1
 139 0060 4246     		mov	r2, r8
 140 0062 2146     		mov	r1, r4
 141 0064 3846     		mov	r0, r7
 142 0066 FFF7FEFF 		bl	u8g2_DrawHVLine
 143              	.LVL13:
 144 006a E5E7     		b	.L6
 145              	.L17:
  68:..\u8g2-master\csrc/u8g2_bitmap.c ****       u8g2_DrawHVLine(u8g2, x, y, 1, 0);
 146              		.loc 1 68 0
 147 006c B9FA89F2 		clz	r2, r9
 148 0070 5209     		lsrs	r2, r2, #5
  69:..\u8g2-master\csrc/u8g2_bitmap.c ****     }
 149              		.loc 1 69 0
 150 0072 0093     		str	r3, [sp]
  68:..\u8g2-master\csrc/u8g2_bitmap.c ****       u8g2_DrawHVLine(u8g2, x, y, 1, 0);
 151              		.loc 1 68 0
 152 0074 87F88620 		strb	r2, [r7, #134]
 153 0078 F1E7     		b	.L15
 154              	.LVL14:
 155              	.L9:
  80:..\u8g2-master\csrc/u8g2_bitmap.c ****   }
  81:..\u8g2-master\csrc/u8g2_bitmap.c ****   u8g2->draw_color = color;
 156              		.loc 1 81 0
 157 007a 87F88690 		strb	r9, [r7, #134]
 158              	.LVL15:
 159              	.L2:
  82:..\u8g2-master\csrc/u8g2_bitmap.c **** }
 160              		.loc 1 82 0
 161 007e 03B0     		add	sp, sp, #12
 162              		.cfi_def_cfa_offset 36
 163              		@ sp needed
 164 0080 BDE8F08F 		pop	{r4, r5, r6, r7, r8, r9, r10, fp, pc}
 165              		.cfi_endproc
 166              	.LFE1:
 167              		.size	u8g2_DrawHorizontalBitmap, .-u8g2_DrawHorizontalBitmap
 168              		.section	.text.u8g2_DrawBitmap,"ax",%progbits
 169              		.align	2
 170              		.global	u8g2_DrawBitmap
 171              		.thumb
 172              		.thumb_func
 173              		.type	u8g2_DrawBitmap, %function
 174              	u8g2_DrawBitmap:
 175              	.LFB2:
  83:..\u8g2-master\csrc/u8g2_bitmap.c **** 
  84:..\u8g2-master\csrc/u8g2_bitmap.c **** 
  85:..\u8g2-master\csrc/u8g2_bitmap.c **** /* u8glib compatible bitmap draw function */
  86:..\u8g2-master\csrc/u8g2_bitmap.c **** void u8g2_DrawBitmap(u8g2_t *u8g2, u8g2_uint_t x, u8g2_uint_t y, u8g2_uint_t cnt, u8g2_uint_t h, co
  87:..\u8g2-master\csrc/u8g2_bitmap.c **** {
 176              		.loc 1 87 0
 177              		.cfi_startproc
 178              		@ args = 8, pretend = 0, frame = 24
 179              		@ frame_needed = 0, uses_anonymous_args = 0
 180              	.LVL16:
ARM GAS  C:\Users\info\AppData\Local\Temp\ccal9hE5.s 			page 6


 181 0000 2DE9F04F 		push	{r4, r5, r6, r7, r8, r9, r10, fp, lr}
 182              		.cfi_def_cfa_offset 36
 183              		.cfi_offset 4, -36
 184              		.cfi_offset 5, -32
 185              		.cfi_offset 6, -28
 186              		.cfi_offset 7, -24
 187              		.cfi_offset 8, -20
 188              		.cfi_offset 9, -16
 189              		.cfi_offset 10, -12
 190              		.cfi_offset 11, -8
 191              		.cfi_offset 14, -4
 192 0004 89B0     		sub	sp, sp, #36
 193              		.cfi_def_cfa_offset 72
 194              		.loc 1 87 0
 195 0006 9DF84840 		ldrb	r4, [sp, #72]	@ zero_extendqisi2
 196 000a 0793     		str	r3, [sp, #28]
 197              	.LVL17:
  88:..\u8g2-master\csrc/u8g2_bitmap.c ****   u8g2_uint_t w;
  89:..\u8g2-master\csrc/u8g2_bitmap.c ****   w = cnt;
  90:..\u8g2-master\csrc/u8g2_bitmap.c ****   w *= 8;
 198              		.loc 1 90 0
 199 000c DB00     		lsls	r3, r3, #3
 200              	.LVL18:
 201 000e DBB2     		uxtb	r3, r3
  87:..\u8g2-master\csrc/u8g2_bitmap.c ****   u8g2_uint_t w;
 202              		.loc 1 87 0
 203 0010 0394     		str	r4, [sp, #12]
  91:..\u8g2-master\csrc/u8g2_bitmap.c **** #ifdef U8G2_WITH_INTERSECTION
  92:..\u8g2-master\csrc/u8g2_bitmap.c ****   if ( u8g2_IsIntersection(u8g2, x, y, x+w, y+h) == 0 ) 
 204              		.loc 1 92 0
 205 0012 2546     		mov	r5, r4
 206 0014 1419     		adds	r4, r2, r4
  90:..\u8g2-master\csrc/u8g2_bitmap.c **** #ifdef U8G2_WITH_INTERSECTION
 207              		.loc 1 90 0
 208 0016 0593     		str	r3, [sp, #20]
 209              	.LVL19:
 210              		.loc 1 92 0
 211 0018 E4B2     		uxtb	r4, r4
 212 001a 0B44     		add	r3, r3, r1
 213              	.LVL20:
 214 001c DBB2     		uxtb	r3, r3
 215 001e 0094     		str	r4, [sp]
  87:..\u8g2-master\csrc/u8g2_bitmap.c ****   u8g2_uint_t w;
 216              		.loc 1 87 0
 217 0020 0491     		str	r1, [sp, #16]
 218 0022 9346     		mov	fp, r2
 219              		.loc 1 92 0
 220 0024 0693     		str	r3, [sp, #24]
  87:..\u8g2-master\csrc/u8g2_bitmap.c ****   u8g2_uint_t w;
 221              		.loc 1 87 0
 222 0026 0746     		mov	r7, r0
 223              		.loc 1 92 0
 224 0028 FFF7FEFF 		bl	u8g2_IsIntersection
 225              	.LVL21:
 226 002c 0028     		cmp	r0, #0
 227 002e 4BD0     		beq	.L18
 228              	.LVL22:
ARM GAS  C:\Users\info\AppData\Local\Temp\ccal9hE5.s 			page 7


  93:..\u8g2-master\csrc/u8g2_bitmap.c ****     return;
  94:..\u8g2-master\csrc/u8g2_bitmap.c **** #endif /* U8G2_WITH_INTERSECTION */
  95:..\u8g2-master\csrc/u8g2_bitmap.c ****   
  96:..\u8g2-master\csrc/u8g2_bitmap.c ****   while( h > 0 )
 229              		.loc 1 96 0
 230 0030 002D     		cmp	r5, #0
 231 0032 49D0     		beq	.L18
 232              	.LVL23:
 233              	.L28:
 234              	.LBB4:
 235              	.LBB5:
  57:..\u8g2-master\csrc/u8g2_bitmap.c ****     return;
 236              		.loc 1 57 0
 237 0034 0BF10109 		add	r9, fp, #1
 238 0038 5FFA89F9 		uxtb	r9, r9
 239 003c CDF80090 		str	r9, [sp]
 240 0040 069B     		ldr	r3, [sp, #24]
 241 0042 5A46     		mov	r2, fp
 242 0044 0499     		ldr	r1, [sp, #16]
 243 0046 3846     		mov	r0, r7
  53:..\u8g2-master\csrc/u8g2_bitmap.c ****   uint8_t ncolor = (color == 0 ? 1 : 0);
 244              		.loc 1 53 0
 245 0048 97F886A0 		ldrb	r10, [r7, #134]	@ zero_extendqisi2
 246              	.LVL24:
  57:..\u8g2-master\csrc/u8g2_bitmap.c ****     return;
 247              		.loc 1 57 0
 248 004c FFF7FEFF 		bl	u8g2_IsIntersection
 249              	.LVL25:
 250 0050 78B3     		cbz	r0, .L21
 251              	.LVL26:
  62:..\u8g2-master\csrc/u8g2_bitmap.c ****   {
 252              		.loc 1 62 0
 253 0052 059B     		ldr	r3, [sp, #20]
 254 0054 5BB3     		cbz	r3, .L27
 255 0056 1C46     		mov	r4, r3
 256 0058 049E     		ldr	r6, [sp, #16]
 257 005a DDF84C80 		ldr	r8, [sp, #76]
 258 005e 8025     		movs	r5, #128
 259 0060 0FE0     		b	.L26
 260              	.LVL27:
 261              	.L23:
  67:..\u8g2-master\csrc/u8g2_bitmap.c ****       u8g2->draw_color = ncolor;
 262              		.loc 1 67 0
 263 0062 97F88530 		ldrb	r3, [r7, #133]	@ zero_extendqisi2
 264 0066 DBB1     		cbz	r3, .L39
 265              	.L24:
 266              	.LVL28:
  74:..\u8g2-master\csrc/u8g2_bitmap.c ****     {
 267              		.loc 1 74 0
 268 0068 6D08     		lsrs	r5, r5, #1
  79:..\u8g2-master\csrc/u8g2_bitmap.c ****   }
 269              		.loc 1 79 0
 270 006a 04F1FF34 		add	r4, r4, #-1
 271              	.LVL29:
  72:..\u8g2-master\csrc/u8g2_bitmap.c ****     mask >>= 1;
 272              		.loc 1 72 0
 273 006e 06F10106 		add	r6, r6, #1
ARM GAS  C:\Users\info\AppData\Local\Temp\ccal9hE5.s 			page 8


 274              	.LVL30:
  77:..\u8g2-master\csrc/u8g2_bitmap.c ****     }
 275              		.loc 1 77 0
 276 0072 04BF     		itt	eq
 277 0074 08F10108 		addeq	r8, r8, #1
 278              	.LVL31:
  76:..\u8g2-master\csrc/u8g2_bitmap.c ****       b++;
 279              		.loc 1 76 0
 280 0078 8025     		moveq	r5, #128
  62:..\u8g2-master\csrc/u8g2_bitmap.c ****   {
 281              		.loc 1 62 0
 282 007a 14F0FF04 		ands	r4, r4, #255
  72:..\u8g2-master\csrc/u8g2_bitmap.c ****     mask >>= 1;
 283              		.loc 1 72 0
 284 007e F6B2     		uxtb	r6, r6
 285              	.LVL32:
  62:..\u8g2-master\csrc/u8g2_bitmap.c ****   {
 286              		.loc 1 62 0
 287 0080 15D0     		beq	.L27
 288              	.LVL33:
 289              	.L26:
  64:..\u8g2-master\csrc/u8g2_bitmap.c ****       u8g2->draw_color = color;
 290              		.loc 1 64 0
 291 0082 98F80030 		ldrb	r3, [r8]	@ zero_extendqisi2
 292 0086 1D42     		tst	r5, r3
 293 0088 EBD0     		beq	.L23
  66:..\u8g2-master\csrc/u8g2_bitmap.c ****     } else if ( u8g2->bitmap_transparency == 0 ) {
 294              		.loc 1 66 0
 295 008a 0023     		movs	r3, #0
  65:..\u8g2-master\csrc/u8g2_bitmap.c ****       u8g2_DrawHVLine(u8g2, x, y, 1, 0);
 296              		.loc 1 65 0
 297 008c 87F886A0 		strb	r10, [r7, #134]
  66:..\u8g2-master\csrc/u8g2_bitmap.c ****     } else if ( u8g2->bitmap_transparency == 0 ) {
 298              		.loc 1 66 0
 299 0090 0093     		str	r3, [sp]
 300              	.L38:
  69:..\u8g2-master\csrc/u8g2_bitmap.c ****     }
 301              		.loc 1 69 0
 302 0092 0123     		movs	r3, #1
 303 0094 5A46     		mov	r2, fp
 304 0096 3146     		mov	r1, r6
 305 0098 3846     		mov	r0, r7
 306 009a FFF7FEFF 		bl	u8g2_DrawHVLine
 307              	.LVL34:
 308 009e E3E7     		b	.L24
 309              	.L39:
  68:..\u8g2-master\csrc/u8g2_bitmap.c ****       u8g2_DrawHVLine(u8g2, x, y, 1, 0);
 310              		.loc 1 68 0
 311 00a0 BAFA8AF2 		clz	r2, r10
 312 00a4 5209     		lsrs	r2, r2, #5
  69:..\u8g2-master\csrc/u8g2_bitmap.c ****     }
 313              		.loc 1 69 0
 314 00a6 0093     		str	r3, [sp]
  68:..\u8g2-master\csrc/u8g2_bitmap.c ****       u8g2_DrawHVLine(u8g2, x, y, 1, 0);
 315              		.loc 1 68 0
 316 00a8 87F88620 		strb	r2, [r7, #134]
 317 00ac F1E7     		b	.L38
ARM GAS  C:\Users\info\AppData\Local\Temp\ccal9hE5.s 			page 9


 318              	.LVL35:
 319              	.L27:
  81:..\u8g2-master\csrc/u8g2_bitmap.c **** }
 320              		.loc 1 81 0
 321 00ae 87F886A0 		strb	r10, [r7, #134]
 322              	.L21:
 323              	.LVL36:
 324              	.LBE5:
 325              	.LBE4:
  97:..\u8g2-master\csrc/u8g2_bitmap.c ****   {
  98:..\u8g2-master\csrc/u8g2_bitmap.c ****     u8g2_DrawHorizontalBitmap(u8g2, x, y, w, bitmap);
  99:..\u8g2-master\csrc/u8g2_bitmap.c ****     bitmap += cnt;
 100:..\u8g2-master\csrc/u8g2_bitmap.c ****     y++;
 101:..\u8g2-master\csrc/u8g2_bitmap.c ****     h--;
 326              		.loc 1 101 0
 327 00b2 039B     		ldr	r3, [sp, #12]
  99:..\u8g2-master\csrc/u8g2_bitmap.c ****     y++;
 328              		.loc 1 99 0
 329 00b4 139A     		ldr	r2, [sp, #76]
 330 00b6 0799     		ldr	r1, [sp, #28]
 331              		.loc 1 101 0
 332 00b8 013B     		subs	r3, r3, #1
  99:..\u8g2-master\csrc/u8g2_bitmap.c ****     y++;
 333              		.loc 1 99 0
 334 00ba 0A44     		add	r2, r2, r1
  96:..\u8g2-master\csrc/u8g2_bitmap.c ****   {
 335              		.loc 1 96 0
 336 00bc 13F0FF03 		ands	r3, r3, #255
  99:..\u8g2-master\csrc/u8g2_bitmap.c ****     y++;
 337              		.loc 1 99 0
 338 00c0 1392     		str	r2, [sp, #76]
 339              	.LVL37:
 100:..\u8g2-master\csrc/u8g2_bitmap.c ****     h--;
 340              		.loc 1 100 0
 341 00c2 CB46     		mov	fp, r9
  96:..\u8g2-master\csrc/u8g2_bitmap.c ****   {
 342              		.loc 1 96 0
 343 00c4 0393     		str	r3, [sp, #12]
 344 00c6 B5D1     		bne	.L28
 345              	.LVL38:
 346              	.L18:
 102:..\u8g2-master\csrc/u8g2_bitmap.c ****   }
 103:..\u8g2-master\csrc/u8g2_bitmap.c **** }
 347              		.loc 1 103 0
 348 00c8 09B0     		add	sp, sp, #36
 349              		.cfi_def_cfa_offset 36
 350              		@ sp needed
 351 00ca BDE8F08F 		pop	{r4, r5, r6, r7, r8, r9, r10, fp, pc}
 352              		.cfi_endproc
 353              	.LFE2:
 354              		.size	u8g2_DrawBitmap, .-u8g2_DrawBitmap
 355 00ce 00BF     		.section	.text.u8g2_DrawHXBM,"ax",%progbits
 356              		.align	2
 357              		.global	u8g2_DrawHXBM
 358              		.thumb
 359              		.thumb_func
 360              		.type	u8g2_DrawHXBM, %function
ARM GAS  C:\Users\info\AppData\Local\Temp\ccal9hE5.s 			page 10


 361              	u8g2_DrawHXBM:
 362              	.LFB10:
 363              		.cfi_startproc
 364              		@ args = 4, pretend = 0, frame = 0
 365              		@ frame_needed = 0, uses_anonymous_args = 0
 366 0000 2DE9F04F 		push	{r4, r5, r6, r7, r8, r9, r10, fp, lr}
 367              		.cfi_def_cfa_offset 36
 368              		.cfi_offset 4, -36
 369              		.cfi_offset 5, -32
 370              		.cfi_offset 6, -28
 371              		.cfi_offset 7, -24
 372              		.cfi_offset 8, -20
 373              		.cfi_offset 9, -16
 374              		.cfi_offset 10, -12
 375              		.cfi_offset 11, -8
 376              		.cfi_offset 14, -4
 377 0004 541C     		adds	r4, r2, #1
 378 0006 83B0     		sub	sp, sp, #12
 379              		.cfi_def_cfa_offset 48
 380 0008 9B46     		mov	fp, r3
 381 000a E4B2     		uxtb	r4, r4
 382 000c CB18     		adds	r3, r1, r3
 383 000e 0094     		str	r4, [sp]
 384 0010 DBB2     		uxtb	r3, r3
 385 0012 9046     		mov	r8, r2
 386 0014 0D46     		mov	r5, r1
 387 0016 0746     		mov	r7, r0
 388 0018 90F88690 		ldrb	r9, [r0, #134]	@ zero_extendqisi2
 389 001c 0C9E     		ldr	r6, [sp, #48]
 390 001e FFF7FEFF 		bl	u8g2_IsIntersection
 391 0022 70B3     		cbz	r0, .L40
 392 0024 BBF1000F 		cmp	fp, #0
 393 0028 29D0     		beq	.L47
 394 002a 0124     		movs	r4, #1
 395 002c 4FF0000A 		mov	r10, #0
 396 0030 10E0     		b	.L46
 397              	.L43:
 398 0032 97F88530 		ldrb	r3, [r7, #133]	@ zero_extendqisi2
 399 0036 DBB1     		cbz	r3, .L54
 400              	.L44:
 401 0038 6400     		lsls	r4, r4, #1
 402 003a 14F0FF04 		ands	r4, r4, #255
 403 003e 0BF1FF33 		add	r3, fp, #-1
 404 0042 05F10105 		add	r5, r5, #1
 405 0046 04BF     		itt	eq
 406 0048 0136     		addeq	r6, r6, #1
 407 004a 0124     		moveq	r4, #1
 408 004c 13F0FF0B 		ands	fp, r3, #255
 409 0050 EDB2     		uxtb	r5, r5
 410 0052 14D0     		beq	.L47
 411              	.L46:
 412 0054 3378     		ldrb	r3, [r6]	@ zero_extendqisi2
 413 0056 1C42     		tst	r4, r3
 414 0058 EBD0     		beq	.L43
 415 005a 87F88690 		strb	r9, [r7, #134]
 416 005e CDF800A0 		str	r10, [sp]
 417              	.L53:
ARM GAS  C:\Users\info\AppData\Local\Temp\ccal9hE5.s 			page 11


 418 0062 0123     		movs	r3, #1
 419 0064 4246     		mov	r2, r8
 420 0066 2946     		mov	r1, r5
 421 0068 3846     		mov	r0, r7
 422 006a FFF7FEFF 		bl	u8g2_DrawHVLine
 423 006e E3E7     		b	.L44
 424              	.L54:
 425 0070 B9FA89F2 		clz	r2, r9
 426 0074 5209     		lsrs	r2, r2, #5
 427 0076 0093     		str	r3, [sp]
 428 0078 87F88620 		strb	r2, [r7, #134]
 429 007c F1E7     		b	.L53
 430              	.L47:
 431 007e 87F88690 		strb	r9, [r7, #134]
 432              	.L40:
 433 0082 03B0     		add	sp, sp, #12
 434              		.cfi_def_cfa_offset 36
 435              		@ sp needed
 436 0084 BDE8F08F 		pop	{r4, r5, r6, r7, r8, r9, r10, fp, pc}
 437              		.cfi_endproc
 438              	.LFE10:
 439              		.size	u8g2_DrawHXBM, .-u8g2_DrawHXBM
 440              		.section	.text.u8g2_DrawXBM,"ax",%progbits
 441              		.align	2
 442              		.global	u8g2_DrawXBM
 443              		.thumb
 444              		.thumb_func
 445              		.type	u8g2_DrawXBM, %function
 446              	u8g2_DrawXBM:
 447              	.LFB8:
 448              		.cfi_startproc
 449              		@ args = 8, pretend = 0, frame = 24
 450              		@ frame_needed = 0, uses_anonymous_args = 0
 451 0000 2DE9F04F 		push	{r4, r5, r6, r7, r8, r9, r10, fp, lr}
 452              		.cfi_def_cfa_offset 36
 453              		.cfi_offset 4, -36
 454              		.cfi_offset 5, -32
 455              		.cfi_offset 6, -28
 456              		.cfi_offset 7, -24
 457              		.cfi_offset 8, -20
 458              		.cfi_offset 9, -16
 459              		.cfi_offset 10, -12
 460              		.cfi_offset 11, -8
 461              		.cfi_offset 14, -4
 462 0004 89B0     		sub	sp, sp, #36
 463              		.cfi_def_cfa_offset 72
 464 0006 9DF84840 		ldrb	r4, [sp, #72]	@ zero_extendqisi2
 465 000a 0593     		str	r3, [sp, #20]
 466 000c 2646     		mov	r6, r4
 467 000e CB18     		adds	r3, r1, r3
 468 0010 0394     		str	r4, [sp, #12]
 469 0012 1419     		adds	r4, r2, r4
 470 0014 DDB2     		uxtb	r5, r3
 471 0016 E4B2     		uxtb	r4, r4
 472 0018 2B46     		mov	r3, r5
 473 001a 0094     		str	r4, [sp]
 474 001c 0491     		str	r1, [sp, #16]
ARM GAS  C:\Users\info\AppData\Local\Temp\ccal9hE5.s 			page 12


 475 001e 9346     		mov	fp, r2
 476 0020 0695     		str	r5, [sp, #24]
 477 0022 0746     		mov	r7, r0
 478 0024 FFF7FEFF 		bl	u8g2_IsIntersection
 479 0028 0028     		cmp	r0, #0
 480 002a 52D0     		beq	.L55
 481 002c 002E     		cmp	r6, #0
 482 002e 50D0     		beq	.L55
 483 0030 059B     		ldr	r3, [sp, #20]
 484 0032 0733     		adds	r3, r3, #7
 485 0034 C3F3C403 		ubfx	r3, r3, #3, #5
 486 0038 0793     		str	r3, [sp, #28]
 487              	.L65:
 488 003a 0BF10109 		add	r9, fp, #1
 489 003e 5FFA89F9 		uxtb	r9, r9
 490 0042 CDF80090 		str	r9, [sp]
 491 0046 069B     		ldr	r3, [sp, #24]
 492 0048 5A46     		mov	r2, fp
 493 004a 0499     		ldr	r1, [sp, #16]
 494 004c 3846     		mov	r0, r7
 495 004e 97F886A0 		ldrb	r10, [r7, #134]	@ zero_extendqisi2
 496 0052 FFF7FEFF 		bl	u8g2_IsIntersection
 497 0056 88B3     		cbz	r0, .L58
 498 0058 059B     		ldr	r3, [sp, #20]
 499 005a 6BB3     		cbz	r3, .L64
 500 005c 1D46     		mov	r5, r3
 501 005e 049E     		ldr	r6, [sp, #16]
 502 0060 DDF84C80 		ldr	r8, [sp, #76]
 503 0064 0124     		movs	r4, #1
 504 0066 11E0     		b	.L63
 505              	.L60:
 506 0068 97F88530 		ldrb	r3, [r7, #133]	@ zero_extendqisi2
 507 006c EBB1     		cbz	r3, .L76
 508              	.L61:
 509 006e 6400     		lsls	r4, r4, #1
 510 0070 14F0FF04 		ands	r4, r4, #255
 511 0074 05F1FF35 		add	r5, r5, #-1
 512 0078 06F10106 		add	r6, r6, #1
 513 007c 04BF     		itt	eq
 514 007e 08F10108 		addeq	r8, r8, #1
 515 0082 0124     		moveq	r4, #1
 516 0084 15F0FF05 		ands	r5, r5, #255
 517 0088 F6B2     		uxtb	r6, r6
 518 008a 15D0     		beq	.L64
 519              	.L63:
 520 008c 98F80030 		ldrb	r3, [r8]	@ zero_extendqisi2
 521 0090 1C42     		tst	r4, r3
 522 0092 E9D0     		beq	.L60
 523 0094 0023     		movs	r3, #0
 524 0096 87F886A0 		strb	r10, [r7, #134]
 525 009a 0093     		str	r3, [sp]
 526              	.L75:
 527 009c 0123     		movs	r3, #1
 528 009e 5A46     		mov	r2, fp
 529 00a0 3146     		mov	r1, r6
 530 00a2 3846     		mov	r0, r7
 531 00a4 FFF7FEFF 		bl	u8g2_DrawHVLine
ARM GAS  C:\Users\info\AppData\Local\Temp\ccal9hE5.s 			page 13


 532 00a8 E1E7     		b	.L61
 533              	.L76:
 534 00aa BAFA8AF2 		clz	r2, r10
 535 00ae 5209     		lsrs	r2, r2, #5
 536 00b0 0093     		str	r3, [sp]
 537 00b2 87F88620 		strb	r2, [r7, #134]
 538 00b6 F1E7     		b	.L75
 539              	.L64:
 540 00b8 87F886A0 		strb	r10, [r7, #134]
 541              	.L58:
 542 00bc 039B     		ldr	r3, [sp, #12]
 543 00be 139A     		ldr	r2, [sp, #76]
 544 00c0 0799     		ldr	r1, [sp, #28]
 545 00c2 013B     		subs	r3, r3, #1
 546 00c4 0A44     		add	r2, r2, r1
 547 00c6 13F0FF03 		ands	r3, r3, #255
 548 00ca 1392     		str	r2, [sp, #76]
 549 00cc CB46     		mov	fp, r9
 550 00ce 0393     		str	r3, [sp, #12]
 551 00d0 B3D1     		bne	.L65
 552              	.L55:
 553 00d2 09B0     		add	sp, sp, #36
 554              		.cfi_def_cfa_offset 36
 555              		@ sp needed
 556 00d4 BDE8F08F 		pop	{r4, r5, r6, r7, r8, r9, r10, fp, pc}
 557              		.cfi_endproc
 558              	.LFE8:
 559              		.size	u8g2_DrawXBM, .-u8g2_DrawXBM
 560              		.section	.text.u8g2_DrawHXBMP,"ax",%progbits
 561              		.align	2
 562              		.global	u8g2_DrawHXBMP
 563              		.thumb
 564              		.thumb_func
 565              		.type	u8g2_DrawHXBMP, %function
 566              	u8g2_DrawHXBMP:
 567              	.LFB5:
 104:..\u8g2-master\csrc/u8g2_bitmap.c **** 
 105:..\u8g2-master\csrc/u8g2_bitmap.c **** 
 106:..\u8g2-master\csrc/u8g2_bitmap.c **** 
 107:..\u8g2-master\csrc/u8g2_bitmap.c **** void u8g2_DrawHXBM(u8g2_t *u8g2, u8g2_uint_t x, u8g2_uint_t y, u8g2_uint_t len, const uint8_t *b)
 108:..\u8g2-master\csrc/u8g2_bitmap.c **** {
 109:..\u8g2-master\csrc/u8g2_bitmap.c ****   uint8_t mask;
 110:..\u8g2-master\csrc/u8g2_bitmap.c ****   uint8_t color = u8g2->draw_color;
 111:..\u8g2-master\csrc/u8g2_bitmap.c ****   uint8_t ncolor = (color == 0 ? 1 : 0);
 112:..\u8g2-master\csrc/u8g2_bitmap.c **** #ifdef U8G2_WITH_INTERSECTION
 113:..\u8g2-master\csrc/u8g2_bitmap.c ****   if ( u8g2_IsIntersection(u8g2, x, y, x+len, y+1) == 0 ) 
 114:..\u8g2-master\csrc/u8g2_bitmap.c ****     return;
 115:..\u8g2-master\csrc/u8g2_bitmap.c **** #endif /* U8G2_WITH_INTERSECTION */
 116:..\u8g2-master\csrc/u8g2_bitmap.c ****   
 117:..\u8g2-master\csrc/u8g2_bitmap.c ****   mask = 1;
 118:..\u8g2-master\csrc/u8g2_bitmap.c ****   while(len > 0) {
 119:..\u8g2-master\csrc/u8g2_bitmap.c ****     if ( *b & mask ) {
 120:..\u8g2-master\csrc/u8g2_bitmap.c ****       u8g2->draw_color = color;
 121:..\u8g2-master\csrc/u8g2_bitmap.c ****       u8g2_DrawHVLine(u8g2, x, y, 1, 0);
 122:..\u8g2-master\csrc/u8g2_bitmap.c ****     } else if ( u8g2->bitmap_transparency == 0 ) {
 123:..\u8g2-master\csrc/u8g2_bitmap.c ****       u8g2->draw_color = ncolor;
 124:..\u8g2-master\csrc/u8g2_bitmap.c ****       u8g2_DrawHVLine(u8g2, x, y, 1, 0);
ARM GAS  C:\Users\info\AppData\Local\Temp\ccal9hE5.s 			page 14


 125:..\u8g2-master\csrc/u8g2_bitmap.c ****     }
 126:..\u8g2-master\csrc/u8g2_bitmap.c ****     x++;
 127:..\u8g2-master\csrc/u8g2_bitmap.c ****     mask <<= 1;
 128:..\u8g2-master\csrc/u8g2_bitmap.c ****     if ( mask == 0 )
 129:..\u8g2-master\csrc/u8g2_bitmap.c ****     {
 130:..\u8g2-master\csrc/u8g2_bitmap.c ****       mask = 1;
 131:..\u8g2-master\csrc/u8g2_bitmap.c ****       b++;
 132:..\u8g2-master\csrc/u8g2_bitmap.c ****     }
 133:..\u8g2-master\csrc/u8g2_bitmap.c ****     len--;
 134:..\u8g2-master\csrc/u8g2_bitmap.c ****   }
 135:..\u8g2-master\csrc/u8g2_bitmap.c ****   u8g2->draw_color = color;
 136:..\u8g2-master\csrc/u8g2_bitmap.c **** }
 137:..\u8g2-master\csrc/u8g2_bitmap.c **** 
 138:..\u8g2-master\csrc/u8g2_bitmap.c **** 
 139:..\u8g2-master\csrc/u8g2_bitmap.c **** void u8g2_DrawXBM(u8g2_t *u8g2, u8g2_uint_t x, u8g2_uint_t y, u8g2_uint_t w, u8g2_uint_t h, const u
 140:..\u8g2-master\csrc/u8g2_bitmap.c **** {
 141:..\u8g2-master\csrc/u8g2_bitmap.c ****   u8g2_uint_t blen;
 142:..\u8g2-master\csrc/u8g2_bitmap.c ****   blen = w;
 143:..\u8g2-master\csrc/u8g2_bitmap.c ****   blen += 7;
 144:..\u8g2-master\csrc/u8g2_bitmap.c ****   blen >>= 3;
 145:..\u8g2-master\csrc/u8g2_bitmap.c **** #ifdef U8G2_WITH_INTERSECTION
 146:..\u8g2-master\csrc/u8g2_bitmap.c ****   if ( u8g2_IsIntersection(u8g2, x, y, x+w, y+h) == 0 ) 
 147:..\u8g2-master\csrc/u8g2_bitmap.c ****     return;
 148:..\u8g2-master\csrc/u8g2_bitmap.c **** #endif /* U8G2_WITH_INTERSECTION */
 149:..\u8g2-master\csrc/u8g2_bitmap.c ****   
 150:..\u8g2-master\csrc/u8g2_bitmap.c ****   while( h > 0 )
 151:..\u8g2-master\csrc/u8g2_bitmap.c ****   {
 152:..\u8g2-master\csrc/u8g2_bitmap.c ****     u8g2_DrawHXBM(u8g2, x, y, w, bitmap);
 153:..\u8g2-master\csrc/u8g2_bitmap.c ****     bitmap += blen;
 154:..\u8g2-master\csrc/u8g2_bitmap.c ****     y++;
 155:..\u8g2-master\csrc/u8g2_bitmap.c ****     h--;
 156:..\u8g2-master\csrc/u8g2_bitmap.c ****   }
 157:..\u8g2-master\csrc/u8g2_bitmap.c **** }
 158:..\u8g2-master\csrc/u8g2_bitmap.c **** 
 159:..\u8g2-master\csrc/u8g2_bitmap.c **** 
 160:..\u8g2-master\csrc/u8g2_bitmap.c **** 
 161:..\u8g2-master\csrc/u8g2_bitmap.c **** 
 162:..\u8g2-master\csrc/u8g2_bitmap.c **** 
 163:..\u8g2-master\csrc/u8g2_bitmap.c **** 
 164:..\u8g2-master\csrc/u8g2_bitmap.c **** void u8g2_DrawHXBMP(u8g2_t *u8g2, u8g2_uint_t x, u8g2_uint_t y, u8g2_uint_t len, const uint8_t *b)
 165:..\u8g2-master\csrc/u8g2_bitmap.c **** {
 568              		.loc 1 165 0
 569              		.cfi_startproc
 570              		@ args = 4, pretend = 0, frame = 0
 571              		@ frame_needed = 0, uses_anonymous_args = 0
 572              	.LVL39:
 573              		.loc 1 165 0
 574 0000 2DE9F04F 		push	{r4, r5, r6, r7, r8, r9, r10, fp, lr}
 575              		.cfi_def_cfa_offset 36
 576              		.cfi_offset 4, -36
 577              		.cfi_offset 5, -32
 578              		.cfi_offset 6, -28
 579              		.cfi_offset 7, -24
 580              		.cfi_offset 8, -20
 581              		.cfi_offset 9, -16
 582              		.cfi_offset 10, -12
 583              		.cfi_offset 11, -8
ARM GAS  C:\Users\info\AppData\Local\Temp\ccal9hE5.s 			page 15


 584              		.cfi_offset 14, -4
 166:..\u8g2-master\csrc/u8g2_bitmap.c ****   uint8_t mask;
 167:..\u8g2-master\csrc/u8g2_bitmap.c ****   uint8_t color = u8g2->draw_color;
 168:..\u8g2-master\csrc/u8g2_bitmap.c ****   uint8_t ncolor = (color == 0 ? 1 : 0);
 169:..\u8g2-master\csrc/u8g2_bitmap.c **** #ifdef U8G2_WITH_INTERSECTION
 170:..\u8g2-master\csrc/u8g2_bitmap.c ****   if ( u8g2_IsIntersection(u8g2, x, y, x+len, y+1) == 0 ) 
 585              		.loc 1 170 0
 586 0004 541C     		adds	r4, r2, #1
 165:..\u8g2-master\csrc/u8g2_bitmap.c ****   uint8_t mask;
 587              		.loc 1 165 0
 588 0006 83B0     		sub	sp, sp, #12
 589              		.cfi_def_cfa_offset 48
 165:..\u8g2-master\csrc/u8g2_bitmap.c ****   uint8_t mask;
 590              		.loc 1 165 0
 591 0008 9B46     		mov	fp, r3
 592              		.loc 1 170 0
 593 000a E4B2     		uxtb	r4, r4
 594 000c CB18     		adds	r3, r1, r3
 595              	.LVL40:
 596 000e 0094     		str	r4, [sp]
 597 0010 DBB2     		uxtb	r3, r3
 165:..\u8g2-master\csrc/u8g2_bitmap.c ****   uint8_t mask;
 598              		.loc 1 165 0
 599 0012 9046     		mov	r8, r2
 600 0014 0D46     		mov	r5, r1
 601 0016 0746     		mov	r7, r0
 167:..\u8g2-master\csrc/u8g2_bitmap.c ****   uint8_t ncolor = (color == 0 ? 1 : 0);
 602              		.loc 1 167 0
 603 0018 90F88690 		ldrb	r9, [r0, #134]	@ zero_extendqisi2
 604              	.LVL41:
 165:..\u8g2-master\csrc/u8g2_bitmap.c ****   uint8_t mask;
 605              		.loc 1 165 0
 606 001c 0C9E     		ldr	r6, [sp, #48]
 607              		.loc 1 170 0
 608 001e FFF7FEFF 		bl	u8g2_IsIntersection
 609              	.LVL42:
 610 0022 70B3     		cbz	r0, .L77
 611              	.LVL43:
 171:..\u8g2-master\csrc/u8g2_bitmap.c ****     return;
 172:..\u8g2-master\csrc/u8g2_bitmap.c **** #endif /* U8G2_WITH_INTERSECTION */
 173:..\u8g2-master\csrc/u8g2_bitmap.c ****   
 174:..\u8g2-master\csrc/u8g2_bitmap.c ****   mask = 1;
 175:..\u8g2-master\csrc/u8g2_bitmap.c ****   while(len > 0)
 612              		.loc 1 175 0
 613 0024 BBF1000F 		cmp	fp, #0
 614 0028 29D0     		beq	.L84
 615 002a 0124     		movs	r4, #1
 176:..\u8g2-master\csrc/u8g2_bitmap.c ****   {
 177:..\u8g2-master\csrc/u8g2_bitmap.c ****     if( u8x8_pgm_read(b) & mask ) {
 178:..\u8g2-master\csrc/u8g2_bitmap.c ****       u8g2->draw_color = color;
 179:..\u8g2-master\csrc/u8g2_bitmap.c ****       u8g2_DrawHVLine(u8g2, x, y, 1, 0);
 616              		.loc 1 179 0
 617 002c 4FF0000A 		mov	r10, #0
 618 0030 10E0     		b	.L83
 619              	.LVL44:
 620              	.L80:
 180:..\u8g2-master\csrc/u8g2_bitmap.c ****     } else if( u8g2->bitmap_transparency == 0 ) {
ARM GAS  C:\Users\info\AppData\Local\Temp\ccal9hE5.s 			page 16


 621              		.loc 1 180 0
 622 0032 97F88530 		ldrb	r3, [r7, #133]	@ zero_extendqisi2
 623 0036 DBB1     		cbz	r3, .L91
 624              	.L81:
 625              	.LVL45:
 181:..\u8g2-master\csrc/u8g2_bitmap.c ****       u8g2->draw_color = ncolor;
 182:..\u8g2-master\csrc/u8g2_bitmap.c ****       u8g2_DrawHVLine(u8g2, x, y, 1, 0);
 183:..\u8g2-master\csrc/u8g2_bitmap.c ****     }
 184:..\u8g2-master\csrc/u8g2_bitmap.c ****    
 185:..\u8g2-master\csrc/u8g2_bitmap.c ****     x++;
 186:..\u8g2-master\csrc/u8g2_bitmap.c ****     mask <<= 1;
 626              		.loc 1 186 0
 627 0038 6400     		lsls	r4, r4, #1
 187:..\u8g2-master\csrc/u8g2_bitmap.c ****     if ( mask == 0 )
 628              		.loc 1 187 0
 629 003a 14F0FF04 		ands	r4, r4, #255
 188:..\u8g2-master\csrc/u8g2_bitmap.c ****     {
 189:..\u8g2-master\csrc/u8g2_bitmap.c ****       mask = 1;
 190:..\u8g2-master\csrc/u8g2_bitmap.c ****       b++;
 191:..\u8g2-master\csrc/u8g2_bitmap.c ****     }
 192:..\u8g2-master\csrc/u8g2_bitmap.c ****     len--;
 630              		.loc 1 192 0
 631 003e 0BF1FF33 		add	r3, fp, #-1
 185:..\u8g2-master\csrc/u8g2_bitmap.c ****     mask <<= 1;
 632              		.loc 1 185 0
 633 0042 05F10105 		add	r5, r5, #1
 634              	.LVL46:
 190:..\u8g2-master\csrc/u8g2_bitmap.c ****     }
 635              		.loc 1 190 0
 636 0046 04BF     		itt	eq
 637 0048 0136     		addeq	r6, r6, #1
 638              	.LVL47:
 189:..\u8g2-master\csrc/u8g2_bitmap.c ****       b++;
 639              		.loc 1 189 0
 640 004a 0124     		moveq	r4, #1
 175:..\u8g2-master\csrc/u8g2_bitmap.c ****   {
 641              		.loc 1 175 0
 642 004c 13F0FF0B 		ands	fp, r3, #255
 643              	.LVL48:
 185:..\u8g2-master\csrc/u8g2_bitmap.c ****     mask <<= 1;
 644              		.loc 1 185 0
 645 0050 EDB2     		uxtb	r5, r5
 646              	.LVL49:
 175:..\u8g2-master\csrc/u8g2_bitmap.c ****   {
 647              		.loc 1 175 0
 648 0052 14D0     		beq	.L84
 649              	.LVL50:
 650              	.L83:
 177:..\u8g2-master\csrc/u8g2_bitmap.c ****       u8g2->draw_color = color;
 651              		.loc 1 177 0
 652 0054 3378     		ldrb	r3, [r6]	@ zero_extendqisi2
 653 0056 1C42     		tst	r4, r3
 654 0058 EBD0     		beq	.L80
 178:..\u8g2-master\csrc/u8g2_bitmap.c ****       u8g2_DrawHVLine(u8g2, x, y, 1, 0);
 655              		.loc 1 178 0
 656 005a 87F88690 		strb	r9, [r7, #134]
 179:..\u8g2-master\csrc/u8g2_bitmap.c ****     } else if( u8g2->bitmap_transparency == 0 ) {
ARM GAS  C:\Users\info\AppData\Local\Temp\ccal9hE5.s 			page 17


 657              		.loc 1 179 0
 658 005e CDF800A0 		str	r10, [sp]
 659              	.L90:
 182:..\u8g2-master\csrc/u8g2_bitmap.c ****     }
 660              		.loc 1 182 0
 661 0062 0123     		movs	r3, #1
 662 0064 4246     		mov	r2, r8
 663 0066 2946     		mov	r1, r5
 664 0068 3846     		mov	r0, r7
 665 006a FFF7FEFF 		bl	u8g2_DrawHVLine
 666              	.LVL51:
 667 006e E3E7     		b	.L81
 668              	.L91:
 181:..\u8g2-master\csrc/u8g2_bitmap.c ****       u8g2_DrawHVLine(u8g2, x, y, 1, 0);
 669              		.loc 1 181 0
 670 0070 B9FA89F2 		clz	r2, r9
 671 0074 5209     		lsrs	r2, r2, #5
 182:..\u8g2-master\csrc/u8g2_bitmap.c ****     }
 672              		.loc 1 182 0
 673 0076 0093     		str	r3, [sp]
 181:..\u8g2-master\csrc/u8g2_bitmap.c ****       u8g2_DrawHVLine(u8g2, x, y, 1, 0);
 674              		.loc 1 181 0
 675 0078 87F88620 		strb	r2, [r7, #134]
 676 007c F1E7     		b	.L90
 677              	.LVL52:
 678              	.L84:
 193:..\u8g2-master\csrc/u8g2_bitmap.c ****   }
 194:..\u8g2-master\csrc/u8g2_bitmap.c ****   u8g2->draw_color = color;
 679              		.loc 1 194 0
 680 007e 87F88690 		strb	r9, [r7, #134]
 681              	.LVL53:
 682              	.L77:
 195:..\u8g2-master\csrc/u8g2_bitmap.c **** }
 683              		.loc 1 195 0
 684 0082 03B0     		add	sp, sp, #12
 685              		.cfi_def_cfa_offset 36
 686              		@ sp needed
 687 0084 BDE8F08F 		pop	{r4, r5, r6, r7, r8, r9, r10, fp, pc}
 688              		.cfi_endproc
 689              	.LFE5:
 690              		.size	u8g2_DrawHXBMP, .-u8g2_DrawHXBMP
 691              		.section	.text.u8g2_DrawXBMP,"ax",%progbits
 692              		.align	2
 693              		.global	u8g2_DrawXBMP
 694              		.thumb
 695              		.thumb_func
 696              		.type	u8g2_DrawXBMP, %function
 697              	u8g2_DrawXBMP:
 698              	.LFB6:
 196:..\u8g2-master\csrc/u8g2_bitmap.c **** 
 197:..\u8g2-master\csrc/u8g2_bitmap.c **** 
 198:..\u8g2-master\csrc/u8g2_bitmap.c **** void u8g2_DrawXBMP(u8g2_t *u8g2, u8g2_uint_t x, u8g2_uint_t y, u8g2_uint_t w, u8g2_uint_t h, const 
 199:..\u8g2-master\csrc/u8g2_bitmap.c **** {
 699              		.loc 1 199 0
 700              		.cfi_startproc
 701              		@ args = 8, pretend = 0, frame = 24
 702              		@ frame_needed = 0, uses_anonymous_args = 0
ARM GAS  C:\Users\info\AppData\Local\Temp\ccal9hE5.s 			page 18


 703              	.LVL54:
 704 0000 2DE9F04F 		push	{r4, r5, r6, r7, r8, r9, r10, fp, lr}
 705              		.cfi_def_cfa_offset 36
 706              		.cfi_offset 4, -36
 707              		.cfi_offset 5, -32
 708              		.cfi_offset 6, -28
 709              		.cfi_offset 7, -24
 710              		.cfi_offset 8, -20
 711              		.cfi_offset 9, -16
 712              		.cfi_offset 10, -12
 713              		.cfi_offset 11, -8
 714              		.cfi_offset 14, -4
 715 0004 89B0     		sub	sp, sp, #36
 716              		.cfi_def_cfa_offset 72
 717              		.loc 1 199 0
 718 0006 9DF84840 		ldrb	r4, [sp, #72]	@ zero_extendqisi2
 200:..\u8g2-master\csrc/u8g2_bitmap.c ****   u8g2_uint_t blen;
 201:..\u8g2-master\csrc/u8g2_bitmap.c ****   blen = w;
 202:..\u8g2-master\csrc/u8g2_bitmap.c ****   blen += 7;
 203:..\u8g2-master\csrc/u8g2_bitmap.c ****   blen >>= 3;
 204:..\u8g2-master\csrc/u8g2_bitmap.c **** #ifdef U8G2_WITH_INTERSECTION
 205:..\u8g2-master\csrc/u8g2_bitmap.c ****   if ( u8g2_IsIntersection(u8g2, x, y, x+w, y+h) == 0 ) 
 719              		.loc 1 205 0
 720 000a 0593     		str	r3, [sp, #20]
 199:..\u8g2-master\csrc/u8g2_bitmap.c ****   u8g2_uint_t blen;
 721              		.loc 1 199 0
 722 000c 2646     		mov	r6, r4
 723              		.loc 1 205 0
 724 000e 0B44     		add	r3, r3, r1
 725              	.LVL55:
 199:..\u8g2-master\csrc/u8g2_bitmap.c ****   u8g2_uint_t blen;
 726              		.loc 1 199 0
 727 0010 0394     		str	r4, [sp, #12]
 728              		.loc 1 205 0
 729 0012 1419     		adds	r4, r2, r4
 730 0014 DDB2     		uxtb	r5, r3
 731 0016 E4B2     		uxtb	r4, r4
 732 0018 2B46     		mov	r3, r5
 733 001a 0094     		str	r4, [sp]
 199:..\u8g2-master\csrc/u8g2_bitmap.c ****   u8g2_uint_t blen;
 734              		.loc 1 199 0
 735 001c 0491     		str	r1, [sp, #16]
 736 001e 9346     		mov	fp, r2
 737              		.loc 1 205 0
 738 0020 0695     		str	r5, [sp, #24]
 199:..\u8g2-master\csrc/u8g2_bitmap.c ****   u8g2_uint_t blen;
 739              		.loc 1 199 0
 740 0022 0746     		mov	r7, r0
 741              		.loc 1 205 0
 742 0024 FFF7FEFF 		bl	u8g2_IsIntersection
 743              	.LVL56:
 744 0028 0028     		cmp	r0, #0
 745 002a 52D0     		beq	.L92
 746              	.LVL57:
 206:..\u8g2-master\csrc/u8g2_bitmap.c ****     return;
 207:..\u8g2-master\csrc/u8g2_bitmap.c **** #endif /* U8G2_WITH_INTERSECTION */
 208:..\u8g2-master\csrc/u8g2_bitmap.c ****   
ARM GAS  C:\Users\info\AppData\Local\Temp\ccal9hE5.s 			page 19


 209:..\u8g2-master\csrc/u8g2_bitmap.c ****   while( h > 0 )
 747              		.loc 1 209 0
 748 002c 002E     		cmp	r6, #0
 749 002e 50D0     		beq	.L92
 202:..\u8g2-master\csrc/u8g2_bitmap.c ****   blen >>= 3;
 750              		.loc 1 202 0
 751 0030 059B     		ldr	r3, [sp, #20]
 752 0032 0733     		adds	r3, r3, #7
 753 0034 C3F3C403 		ubfx	r3, r3, #3, #5
 754 0038 0793     		str	r3, [sp, #28]
 755              	.LVL58:
 756              	.L102:
 757              	.LBB8:
 758              	.LBB9:
 170:..\u8g2-master\csrc/u8g2_bitmap.c ****     return;
 759              		.loc 1 170 0
 760 003a 0BF10109 		add	r9, fp, #1
 761 003e 5FFA89F9 		uxtb	r9, r9
 762 0042 CDF80090 		str	r9, [sp]
 763 0046 069B     		ldr	r3, [sp, #24]
 764 0048 5A46     		mov	r2, fp
 765 004a 0499     		ldr	r1, [sp, #16]
 766 004c 3846     		mov	r0, r7
 167:..\u8g2-master\csrc/u8g2_bitmap.c ****   uint8_t ncolor = (color == 0 ? 1 : 0);
 767              		.loc 1 167 0
 768 004e 97F886A0 		ldrb	r10, [r7, #134]	@ zero_extendqisi2
 769              	.LVL59:
 170:..\u8g2-master\csrc/u8g2_bitmap.c ****     return;
 770              		.loc 1 170 0
 771 0052 FFF7FEFF 		bl	u8g2_IsIntersection
 772              	.LVL60:
 773 0056 88B3     		cbz	r0, .L95
 774              	.LVL61:
 175:..\u8g2-master\csrc/u8g2_bitmap.c ****   {
 775              		.loc 1 175 0
 776 0058 059B     		ldr	r3, [sp, #20]
 777 005a 6BB3     		cbz	r3, .L101
 778 005c 1D46     		mov	r5, r3
 779 005e 049E     		ldr	r6, [sp, #16]
 780 0060 DDF84C80 		ldr	r8, [sp, #76]
 781 0064 0124     		movs	r4, #1
 782 0066 11E0     		b	.L100
 783              	.LVL62:
 784              	.L97:
 180:..\u8g2-master\csrc/u8g2_bitmap.c ****       u8g2->draw_color = ncolor;
 785              		.loc 1 180 0
 786 0068 97F88530 		ldrb	r3, [r7, #133]	@ zero_extendqisi2
 787 006c EBB1     		cbz	r3, .L113
 788              	.L98:
 789              	.LVL63:
 186:..\u8g2-master\csrc/u8g2_bitmap.c ****     if ( mask == 0 )
 790              		.loc 1 186 0
 791 006e 6400     		lsls	r4, r4, #1
 187:..\u8g2-master\csrc/u8g2_bitmap.c ****     {
 792              		.loc 1 187 0
 793 0070 14F0FF04 		ands	r4, r4, #255
 192:..\u8g2-master\csrc/u8g2_bitmap.c ****   }
ARM GAS  C:\Users\info\AppData\Local\Temp\ccal9hE5.s 			page 20


 794              		.loc 1 192 0
 795 0074 05F1FF35 		add	r5, r5, #-1
 796              	.LVL64:
 185:..\u8g2-master\csrc/u8g2_bitmap.c ****     mask <<= 1;
 797              		.loc 1 185 0
 798 0078 06F10106 		add	r6, r6, #1
 799              	.LVL65:
 190:..\u8g2-master\csrc/u8g2_bitmap.c ****     }
 800              		.loc 1 190 0
 801 007c 04BF     		itt	eq
 802 007e 08F10108 		addeq	r8, r8, #1
 803              	.LVL66:
 189:..\u8g2-master\csrc/u8g2_bitmap.c ****       b++;
 804              		.loc 1 189 0
 805 0082 0124     		moveq	r4, #1
 175:..\u8g2-master\csrc/u8g2_bitmap.c ****   {
 806              		.loc 1 175 0
 807 0084 15F0FF05 		ands	r5, r5, #255
 185:..\u8g2-master\csrc/u8g2_bitmap.c ****     mask <<= 1;
 808              		.loc 1 185 0
 809 0088 F6B2     		uxtb	r6, r6
 810              	.LVL67:
 175:..\u8g2-master\csrc/u8g2_bitmap.c ****   {
 811              		.loc 1 175 0
 812 008a 15D0     		beq	.L101
 813              	.LVL68:
 814              	.L100:
 177:..\u8g2-master\csrc/u8g2_bitmap.c ****       u8g2->draw_color = color;
 815              		.loc 1 177 0
 816 008c 98F80030 		ldrb	r3, [r8]	@ zero_extendqisi2
 817 0090 1C42     		tst	r4, r3
 818 0092 E9D0     		beq	.L97
 179:..\u8g2-master\csrc/u8g2_bitmap.c ****     } else if( u8g2->bitmap_transparency == 0 ) {
 819              		.loc 1 179 0
 820 0094 0023     		movs	r3, #0
 178:..\u8g2-master\csrc/u8g2_bitmap.c ****       u8g2_DrawHVLine(u8g2, x, y, 1, 0);
 821              		.loc 1 178 0
 822 0096 87F886A0 		strb	r10, [r7, #134]
 179:..\u8g2-master\csrc/u8g2_bitmap.c ****     } else if( u8g2->bitmap_transparency == 0 ) {
 823              		.loc 1 179 0
 824 009a 0093     		str	r3, [sp]
 825              	.L112:
 182:..\u8g2-master\csrc/u8g2_bitmap.c ****     }
 826              		.loc 1 182 0
 827 009c 0123     		movs	r3, #1
 828 009e 5A46     		mov	r2, fp
 829 00a0 3146     		mov	r1, r6
 830 00a2 3846     		mov	r0, r7
 831 00a4 FFF7FEFF 		bl	u8g2_DrawHVLine
 832              	.LVL69:
 833 00a8 E1E7     		b	.L98
 834              	.L113:
 181:..\u8g2-master\csrc/u8g2_bitmap.c ****       u8g2_DrawHVLine(u8g2, x, y, 1, 0);
 835              		.loc 1 181 0
 836 00aa BAFA8AF2 		clz	r2, r10
 837 00ae 5209     		lsrs	r2, r2, #5
 182:..\u8g2-master\csrc/u8g2_bitmap.c ****     }
ARM GAS  C:\Users\info\AppData\Local\Temp\ccal9hE5.s 			page 21


 838              		.loc 1 182 0
 839 00b0 0093     		str	r3, [sp]
 181:..\u8g2-master\csrc/u8g2_bitmap.c ****       u8g2_DrawHVLine(u8g2, x, y, 1, 0);
 840              		.loc 1 181 0
 841 00b2 87F88620 		strb	r2, [r7, #134]
 842 00b6 F1E7     		b	.L112
 843              	.LVL70:
 844              	.L101:
 194:..\u8g2-master\csrc/u8g2_bitmap.c **** }
 845              		.loc 1 194 0
 846 00b8 87F886A0 		strb	r10, [r7, #134]
 847              	.L95:
 848              	.LVL71:
 849              	.LBE9:
 850              	.LBE8:
 210:..\u8g2-master\csrc/u8g2_bitmap.c ****   {
 211:..\u8g2-master\csrc/u8g2_bitmap.c ****     u8g2_DrawHXBMP(u8g2, x, y, w, bitmap);
 212:..\u8g2-master\csrc/u8g2_bitmap.c ****     bitmap += blen;
 213:..\u8g2-master\csrc/u8g2_bitmap.c ****     y++;
 214:..\u8g2-master\csrc/u8g2_bitmap.c ****     h--;
 851              		.loc 1 214 0
 852 00bc 039B     		ldr	r3, [sp, #12]
 212:..\u8g2-master\csrc/u8g2_bitmap.c ****     y++;
 853              		.loc 1 212 0
 854 00be 139A     		ldr	r2, [sp, #76]
 855 00c0 0799     		ldr	r1, [sp, #28]
 856              		.loc 1 214 0
 857 00c2 013B     		subs	r3, r3, #1
 212:..\u8g2-master\csrc/u8g2_bitmap.c ****     y++;
 858              		.loc 1 212 0
 859 00c4 0A44     		add	r2, r2, r1
 209:..\u8g2-master\csrc/u8g2_bitmap.c ****   {
 860              		.loc 1 209 0
 861 00c6 13F0FF03 		ands	r3, r3, #255
 212:..\u8g2-master\csrc/u8g2_bitmap.c ****     y++;
 862              		.loc 1 212 0
 863 00ca 1392     		str	r2, [sp, #76]
 864              	.LVL72:
 213:..\u8g2-master\csrc/u8g2_bitmap.c ****     h--;
 865              		.loc 1 213 0
 866 00cc CB46     		mov	fp, r9
 209:..\u8g2-master\csrc/u8g2_bitmap.c ****   {
 867              		.loc 1 209 0
 868 00ce 0393     		str	r3, [sp, #12]
 869 00d0 B3D1     		bne	.L102
 870              	.LVL73:
 871              	.L92:
 215:..\u8g2-master\csrc/u8g2_bitmap.c ****   }
 216:..\u8g2-master\csrc/u8g2_bitmap.c **** }
 872              		.loc 1 216 0
 873 00d2 09B0     		add	sp, sp, #36
 874              		.cfi_def_cfa_offset 36
 875              		@ sp needed
 876 00d4 BDE8F08F 		pop	{r4, r5, r6, r7, r8, r9, r10, fp, pc}
 877              		.cfi_endproc
 878              	.LFE6:
 879              		.size	u8g2_DrawXBMP, .-u8g2_DrawXBMP
ARM GAS  C:\Users\info\AppData\Local\Temp\ccal9hE5.s 			page 22


 880              		.text
 881              	.Letext0:
 882              		.file 2 "c:\\program files (x86)\\cypress\\psoc creator\\4.2\\psoc creator\\import\\gnu\\arm\\5.4.
 883              		.file 3 "c:\\program files (x86)\\cypress\\psoc creator\\4.2\\psoc creator\\import\\gnu\\arm\\5.4.
 884              		.file 4 "..\\u8g2-master\\csrc\\u8x8.h"
 885              		.file 5 "..\\u8g2-master\\csrc\\u8g2.h"