ARM GAS  C:\Users\info\AppData\Local\Temp\cceazTri.s 			page 1


   1              		.syntax unified
   2              		.cpu cortex-m3
   3              		.fpu softvfp
   4              		.eabi_attribute 20, 1
   5              		.eabi_attribute 21, 1
   6              		.eabi_attribute 23, 3
   7              		.eabi_attribute 24, 1
   8              		.eabi_attribute 25, 1
   9              		.eabi_attribute 26, 1
  10              		.eabi_attribute 30, 2
  11              		.eabi_attribute 34, 1
  12              		.eabi_attribute 18, 4
  13              		.thumb
  14              		.syntax unified
  15              		.file	"u8g2_kerning.c"
  16              		.text
  17              	.Ltext0:
  18              		.cfi_sections	.debug_frame
  19              		.section	.text.u8g2_GetKerning,"ax",%progbits
  20              		.align	2
  21              		.global	u8g2_GetKerning
  22              		.thumb
  23              		.thumb_func
  24              		.type	u8g2_GetKerning, %function
  25              	u8g2_GetKerning:
  26              	.LFB0:
  27              		.file 1 "..\\u8g2-master\\csrc\\u8g2_kerning.c"
   1:..\u8g2-master\csrc/u8g2_kerning.c **** /*
   2:..\u8g2-master\csrc/u8g2_kerning.c **** 
   3:..\u8g2-master\csrc/u8g2_kerning.c ****   u8g2_kerning.c
   4:..\u8g2-master\csrc/u8g2_kerning.c **** 
   5:..\u8g2-master\csrc/u8g2_kerning.c ****   Universal 8bit Graphics Library (https://github.com/olikraus/u8g2/)
   6:..\u8g2-master\csrc/u8g2_kerning.c **** 
   7:..\u8g2-master\csrc/u8g2_kerning.c ****   Copyright (c) 2016, olikraus@gmail.com
   8:..\u8g2-master\csrc/u8g2_kerning.c ****   All rights reserved.
   9:..\u8g2-master\csrc/u8g2_kerning.c **** 
  10:..\u8g2-master\csrc/u8g2_kerning.c ****   Redistribution and use in source and binary forms, with or without modification, 
  11:..\u8g2-master\csrc/u8g2_kerning.c ****   are permitted provided that the following conditions are met:
  12:..\u8g2-master\csrc/u8g2_kerning.c **** 
  13:..\u8g2-master\csrc/u8g2_kerning.c ****   * Redistributions of source code must retain the above copyright notice, this list 
  14:..\u8g2-master\csrc/u8g2_kerning.c ****     of conditions and the following disclaimer.
  15:..\u8g2-master\csrc/u8g2_kerning.c ****     
  16:..\u8g2-master\csrc/u8g2_kerning.c ****   * Redistributions in binary form must reproduce the above copyright notice, this 
  17:..\u8g2-master\csrc/u8g2_kerning.c ****     list of conditions and the following disclaimer in the documentation and/or other 
  18:..\u8g2-master\csrc/u8g2_kerning.c ****     materials provided with the distribution.
  19:..\u8g2-master\csrc/u8g2_kerning.c **** 
  20:..\u8g2-master\csrc/u8g2_kerning.c ****   THIS SOFTWARE IS PROVIDED BY THE COPYRIGHT HOLDERS AND 
  21:..\u8g2-master\csrc/u8g2_kerning.c ****   CONTRIBUTORS "AS IS" AND ANY EXPRESS OR IMPLIED WARRANTIES, 
  22:..\u8g2-master\csrc/u8g2_kerning.c ****   INCLUDING, BUT NOT LIMITED TO, THE IMPLIED WARRANTIES OF 
  23:..\u8g2-master\csrc/u8g2_kerning.c ****   MERCHANTABILITY AND FITNESS FOR A PARTICULAR PURPOSE ARE 
  24:..\u8g2-master\csrc/u8g2_kerning.c ****   DISCLAIMED. IN NO EVENT SHALL THE COPYRIGHT HOLDER OR 
  25:..\u8g2-master\csrc/u8g2_kerning.c ****   CONTRIBUTORS BE LIABLE FOR ANY DIRECT, INDIRECT, INCIDENTAL, 
  26:..\u8g2-master\csrc/u8g2_kerning.c ****   SPECIAL, EXEMPLARY, OR CONSEQUENTIAL DAMAGES (INCLUDING, BUT 
  27:..\u8g2-master\csrc/u8g2_kerning.c ****   NOT LIMITED TO, PROCUREMENT OF SUBSTITUTE GOODS OR SERVICES; 
  28:..\u8g2-master\csrc/u8g2_kerning.c ****   LOSS OF USE, DATA, OR PROFITS; OR BUSINESS INTERRUPTION) HOWEVER 
  29:..\u8g2-master\csrc/u8g2_kerning.c ****   CAUSED AND ON ANY THEORY OF LIABILITY, WHETHER IN CONTRACT, 
  30:..\u8g2-master\csrc/u8g2_kerning.c ****   STRICT LIABILITY, OR TORT (INCLUDING NEGLIGENCE OR OTHERWISE) 
ARM GAS  C:\Users\info\AppData\Local\Temp\cceazTri.s 			page 2


  31:..\u8g2-master\csrc/u8g2_kerning.c ****   ARISING IN ANY WAY OUT OF THE USE OF THIS SOFTWARE, EVEN IF 
  32:..\u8g2-master\csrc/u8g2_kerning.c ****   ADVISED OF THE POSSIBILITY OF SUCH DAMAGE.  
  33:..\u8g2-master\csrc/u8g2_kerning.c **** 
  34:..\u8g2-master\csrc/u8g2_kerning.c **** */
  35:..\u8g2-master\csrc/u8g2_kerning.c **** 
  36:..\u8g2-master\csrc/u8g2_kerning.c **** #include "u8g2.h"
  37:..\u8g2-master\csrc/u8g2_kerning.c **** 
  38:..\u8g2-master\csrc/u8g2_kerning.c **** /* this function is used as "u8g2_get_kerning_cb" */
  39:..\u8g2-master\csrc/u8g2_kerning.c **** /*
  40:..\u8g2-master\csrc/u8g2_kerning.c **** uint8_t u8g2_GetNullKerning(u8g2_t *u8g2, uint16_t e1, uint16_t e2)
  41:..\u8g2-master\csrc/u8g2_kerning.c **** {
  42:..\u8g2-master\csrc/u8g2_kerning.c ****   return 0;
  43:..\u8g2-master\csrc/u8g2_kerning.c **** }
  44:..\u8g2-master\csrc/u8g2_kerning.c **** */
  45:..\u8g2-master\csrc/u8g2_kerning.c **** 
  46:..\u8g2-master\csrc/u8g2_kerning.c **** /* this function is used as "u8g2_get_kerning_cb" */
  47:..\u8g2-master\csrc/u8g2_kerning.c **** uint8_t u8g2_GetKerning(U8X8_UNUSED u8g2_t *u8g2, u8g2_kerning_t *kerning, uint16_t e1, uint16_t e2
  48:..\u8g2-master\csrc/u8g2_kerning.c **** {
  28              		.loc 1 48 0
  29              		.cfi_startproc
  30              		@ args = 0, pretend = 0, frame = 0
  31              		@ frame_needed = 0, uses_anonymous_args = 0
  32              		@ link register save eliminated.
  33              	.LVL0:
  49:..\u8g2-master\csrc/u8g2_kerning.c ****   uint16_t i1, i2, cnt, end;
  50:..\u8g2-master\csrc/u8g2_kerning.c ****   if ( kerning == NULL )
  34              		.loc 1 50 0
  35 0000 0029     		cmp	r1, #0
  36 0002 32D0     		beq	.L11
  48:..\u8g2-master\csrc/u8g2_kerning.c ****   uint16_t i1, i2, cnt, end;
  37              		.loc 1 48 0
  38 0004 F0B4     		push	{r4, r5, r6, r7}
  39              		.cfi_def_cfa_offset 16
  40              		.cfi_offset 4, -16
  41              		.cfi_offset 5, -12
  42              		.cfi_offset 6, -8
  43              		.cfi_offset 7, -4
  51:..\u8g2-master\csrc/u8g2_kerning.c ****     return 0;
  52:..\u8g2-master\csrc/u8g2_kerning.c ****   
  53:..\u8g2-master\csrc/u8g2_kerning.c ****   /* search for the encoding in the first table */
  54:..\u8g2-master\csrc/u8g2_kerning.c ****   cnt = kerning->first_table_cnt;
  44              		.loc 1 54 0
  45 0006 0F88     		ldrh	r7, [r1]
  46              	.LVL1:
  55:..\u8g2-master\csrc/u8g2_kerning.c ****   cnt--;	/* ignore the last element of the table, which is 0x0ffff */
  47              		.loc 1 55 0
  48 0008 013F     		subs	r7, r7, #1
  49              	.LVL2:
  50 000a BFB2     		uxth	r7, r7
  51              	.LVL3:
  56:..\u8g2-master\csrc/u8g2_kerning.c ****   for( i1 = 0; i1 < cnt; i1++ )
  52              		.loc 1 56 0
  53 000c 8FB1     		cbz	r7, .L15
  57:..\u8g2-master\csrc/u8g2_kerning.c ****   {
  58:..\u8g2-master\csrc/u8g2_kerning.c ****     if ( kerning->first_encoding_table[i1] == e1 )
  54              		.loc 1 58 0
  55 000e 4D68     		ldr	r5, [r1, #4]
ARM GAS  C:\Users\info\AppData\Local\Temp\cceazTri.s 			page 3


  56 0010 2888     		ldrh	r0, [r5]
  57              	.LVL4:
  58 0012 9042     		cmp	r0, r2
  59 0014 18BF     		it	ne
  60 0016 0124     		movne	r4, #1
  61 0018 04D1     		bne	.L5
  62 001a 28E0     		b	.L23
  63              	.LVL5:
  64              	.L6:
  65 001c 35F8026F 		ldrh	r6, [r5, #2]!
  66              	.LVL6:
  67 0020 9642     		cmp	r6, r2
  68 0022 09D0     		beq	.L24
  69              	.L5:
  70              	.LVL7:
  56:..\u8g2-master\csrc/u8g2_kerning.c ****   for( i1 = 0; i1 < cnt; i1++ )
  71              		.loc 1 56 0 discriminator 2
  72 0024 A6B2     		uxth	r6, r4
  73 0026 B742     		cmp	r7, r6
  74              		.loc 1 58 0 discriminator 2
  75 0028 4FEA4400 		lsl	r0, r4, #1
  76 002c 04F10104 		add	r4, r4, #1
  77              	.LVL8:
  56:..\u8g2-master\csrc/u8g2_kerning.c ****   for( i1 = 0; i1 < cnt; i1++ )
  78              		.loc 1 56 0 discriminator 2
  79 0030 F4D8     		bhi	.L6
  80              	.LVL9:
  81              	.L15:
  51:..\u8g2-master\csrc/u8g2_kerning.c ****   
  82              		.loc 1 51 0
  83 0032 0020     		movs	r0, #0
  59:..\u8g2-master\csrc/u8g2_kerning.c ****       break;
  60:..\u8g2-master\csrc/u8g2_kerning.c ****   }
  61:..\u8g2-master\csrc/u8g2_kerning.c ****   if ( i1 >= cnt )
  62:..\u8g2-master\csrc/u8g2_kerning.c ****     return 0;	/* e1 not part of the kerning table, return 0 */
  63:..\u8g2-master\csrc/u8g2_kerning.c **** 
  64:..\u8g2-master\csrc/u8g2_kerning.c ****   /* get the upper index for i2 */
  65:..\u8g2-master\csrc/u8g2_kerning.c ****   end = kerning->index_to_second_table[i1+1];
  66:..\u8g2-master\csrc/u8g2_kerning.c ****   for( i2 = kerning->index_to_second_table[i1]; i2 < end; i2++ )
  67:..\u8g2-master\csrc/u8g2_kerning.c ****   {
  68:..\u8g2-master\csrc/u8g2_kerning.c ****     if ( kerning->second_encoding_table[i2] == e2 )
  69:..\u8g2-master\csrc/u8g2_kerning.c ****       break;
  70:..\u8g2-master\csrc/u8g2_kerning.c ****   }
  71:..\u8g2-master\csrc/u8g2_kerning.c ****   
  72:..\u8g2-master\csrc/u8g2_kerning.c ****   if ( i2 >= end )
  73:..\u8g2-master\csrc/u8g2_kerning.c ****     return 0;	/* e2 not part of any pair with e1, return 0 */
  74:..\u8g2-master\csrc/u8g2_kerning.c ****   
  75:..\u8g2-master\csrc/u8g2_kerning.c ****   return kerning->kerning_values[i2];
  76:..\u8g2-master\csrc/u8g2_kerning.c **** }
  84              		.loc 1 76 0
  85 0034 F0BC     		pop	{r4, r5, r6, r7}
  86              		.cfi_remember_state
  87              		.cfi_restore 7
  88              		.cfi_restore 6
  89              		.cfi_restore 5
  90              		.cfi_restore 4
  91              		.cfi_def_cfa_offset 0
ARM GAS  C:\Users\info\AppData\Local\Temp\cceazTri.s 			page 4


  92              	.LVL10:
  93 0036 7047     		bx	lr
  94              	.LVL11:
  95              	.L24:
  96              		.cfi_restore_state
  97 0038 6400     		lsls	r4, r4, #1
  98              	.L3:
  65:..\u8g2-master\csrc/u8g2_kerning.c ****   for( i2 = kerning->index_to_second_table[i1]; i2 < end; i2++ )
  99              		.loc 1 65 0
 100 003a 8A68     		ldr	r2, [r1, #8]
 101              	.LVL12:
 102 003c 145B     		ldrh	r4, [r2, r4]
 103              	.LVL13:
  66:..\u8g2-master\csrc/u8g2_kerning.c ****   {
 104              		.loc 1 66 0
 105 003e 125A     		ldrh	r2, [r2, r0]
 106              	.LVL14:
 107 0040 9442     		cmp	r4, r2
 108 0042 F6D9     		bls	.L15
  68:..\u8g2-master\csrc/u8g2_kerning.c ****       break;
 109              		.loc 1 68 0
 110 0044 CD68     		ldr	r5, [r1, #12]
 111 0046 35F81200 		ldrh	r0, [r5, r2, lsl #1]
 112 004a 9842     		cmp	r0, r3
 113 004c 04D1     		bne	.L9
 114 004e 08E0     		b	.L7
 115              	.L10:
 116 0050 35F81200 		ldrh	r0, [r5, r2, lsl #1]
 117 0054 9842     		cmp	r0, r3
 118 0056 04D0     		beq	.L7
 119              	.L9:
  66:..\u8g2-master\csrc/u8g2_kerning.c ****   {
 120              		.loc 1 66 0 discriminator 2
 121 0058 0132     		adds	r2, r2, #1
 122              	.LVL15:
 123 005a 92B2     		uxth	r2, r2
 124              	.LVL16:
 125 005c 9442     		cmp	r4, r2
 126 005e F7D8     		bhi	.L10
 127 0060 E7E7     		b	.L15
 128              	.L7:
  75:..\u8g2-master\csrc/u8g2_kerning.c **** }
 129              		.loc 1 75 0
 130 0062 0B69     		ldr	r3, [r1, #16]
 131              	.LVL17:
 132              		.loc 1 76 0
 133 0064 F0BC     		pop	{r4, r5, r6, r7}
 134              		.cfi_restore 4
 135              		.cfi_restore 5
 136              		.cfi_restore 6
 137              		.cfi_restore 7
 138              		.cfi_def_cfa_offset 0
 139              	.LVL18:
  75:..\u8g2-master\csrc/u8g2_kerning.c **** }
 140              		.loc 1 75 0
 141 0066 985C     		ldrb	r0, [r3, r2]	@ zero_extendqisi2
 142              		.loc 1 76 0
ARM GAS  C:\Users\info\AppData\Local\Temp\cceazTri.s 			page 5


 143 0068 7047     		bx	lr
 144              	.LVL19:
 145              	.L11:
  51:..\u8g2-master\csrc/u8g2_kerning.c ****   
 146              		.loc 1 51 0
 147 006a 0846     		mov	r0, r1
 148              	.LVL20:
 149              		.loc 1 76 0
 150 006c 7047     		bx	lr
 151              	.LVL21:
 152              	.L23:
 153              		.cfi_def_cfa_offset 16
 154              		.cfi_offset 4, -16
 155              		.cfi_offset 5, -12
 156              		.cfi_offset 6, -8
 157              		.cfi_offset 7, -4
  58:..\u8g2-master\csrc/u8g2_kerning.c ****       break;
 158              		.loc 1 58 0
 159 006e 0020     		movs	r0, #0
 160 0070 0224     		movs	r4, #2
 161 0072 E2E7     		b	.L3
 162              		.cfi_endproc
 163              	.LFE0:
 164              		.size	u8g2_GetKerning, .-u8g2_GetKerning
 165              		.section	.text.u8g2_GetKerningByTable,"ax",%progbits
 166              		.align	2
 167              		.global	u8g2_GetKerningByTable
 168              		.thumb
 169              		.thumb_func
 170              		.type	u8g2_GetKerningByTable, %function
 171              	u8g2_GetKerningByTable:
 172              	.LFB1:
  77:..\u8g2-master\csrc/u8g2_kerning.c **** 
  78:..\u8g2-master\csrc/u8g2_kerning.c **** uint8_t u8g2_GetKerningByTable(U8X8_UNUSED u8g2_t *u8g2, const uint16_t *kt, uint16_t e1, uint16_t 
  79:..\u8g2-master\csrc/u8g2_kerning.c **** {
 173              		.loc 1 79 0
 174              		.cfi_startproc
 175              		@ args = 0, pretend = 0, frame = 0
 176              		@ frame_needed = 0, uses_anonymous_args = 0
 177              		@ link register save eliminated.
 178              	.LVL22:
  80:..\u8g2-master\csrc/u8g2_kerning.c ****   uint16_t i;
  81:..\u8g2-master\csrc/u8g2_kerning.c ****   i = 0;
  82:..\u8g2-master\csrc/u8g2_kerning.c ****   if ( kt == NULL )
 179              		.loc 1 82 0
 180 0000 F1B1     		cbz	r1, .L29
  79:..\u8g2-master\csrc/u8g2_kerning.c ****   uint16_t i;
 181              		.loc 1 79 0
 182 0002 70B4     		push	{r4, r5, r6}
 183              		.cfi_def_cfa_offset 12
 184              		.cfi_offset 4, -12
 185              		.cfi_offset 5, -8
 186              		.cfi_offset 6, -4
  83:..\u8g2-master\csrc/u8g2_kerning.c ****     return 0;
  84:..\u8g2-master\csrc/u8g2_kerning.c ****   for(;;)
  85:..\u8g2-master\csrc/u8g2_kerning.c ****   {
  86:..\u8g2-master\csrc/u8g2_kerning.c ****     if ( kt[i] == 0x0ffff )
ARM GAS  C:\Users\info\AppData\Local\Temp\cceazTri.s 			page 6


 187              		.loc 1 86 0
 188 0004 4FF6FF76 		movw	r6, #65535
 189 0008 0D88     		ldrh	r5, [r1]
  83:..\u8g2-master\csrc/u8g2_kerning.c ****     return 0;
 190              		.loc 1 83 0
 191 000a 0020     		movs	r0, #0
 192              	.LVL23:
 193              		.loc 1 86 0
 194 000c B542     		cmp	r5, r6
 195 000e 12D0     		beq	.L26
 196 0010 0446     		mov	r4, r0
 197 0012 04E0     		b	.L28
 198              	.LVL24:
 199              	.L27:
 200 0014 31F81450 		ldrh	r5, [r1, r4, lsl #1]
 201 0018 2046     		mov	r0, r4
 202 001a B542     		cmp	r5, r6
 203 001c 0DD0     		beq	.L33
 204              	.LVL25:
 205              	.L28:
  87:..\u8g2-master\csrc/u8g2_kerning.c ****       break;
  88:..\u8g2-master\csrc/u8g2_kerning.c ****     if ( kt[i] == e1 && kt[i+1] == e2 )
  89:..\u8g2-master\csrc/u8g2_kerning.c ****       return kt[i+2];
  90:..\u8g2-master\csrc/u8g2_kerning.c ****     i+=3;
 206              		.loc 1 90 0
 207 001e 0334     		adds	r4, r4, #3
 208              	.LVL26:
  88:..\u8g2-master\csrc/u8g2_kerning.c ****       return kt[i+2];
 209              		.loc 1 88 0
 210 0020 AA42     		cmp	r2, r5
 211              		.loc 1 90 0
 212 0022 A4B2     		uxth	r4, r4
 213              	.LVL27:
  88:..\u8g2-master\csrc/u8g2_kerning.c ****       return kt[i+2];
 214              		.loc 1 88 0
 215 0024 F6D1     		bne	.L27
  88:..\u8g2-master\csrc/u8g2_kerning.c ****       return kt[i+2];
 216              		.loc 1 88 0 is_stmt 0 discriminator 1
 217 0026 451C     		adds	r5, r0, #1
 218 0028 31F81550 		ldrh	r5, [r1, r5, lsl #1]
 219 002c 9D42     		cmp	r5, r3
 220 002e F1D1     		bne	.L27
  89:..\u8g2-master\csrc/u8g2_kerning.c ****     i+=3;
 221              		.loc 1 89 0 is_stmt 1
 222 0030 0230     		adds	r0, r0, #2
 223 0032 11F81000 		ldrb	r0, [r1, r0, lsl #1]	@ zero_extendqisi2
 224              	.LVL28:
 225              	.L26:
  91:..\u8g2-master\csrc/u8g2_kerning.c ****   }
  92:..\u8g2-master\csrc/u8g2_kerning.c ****   return 0;
  93:..\u8g2-master\csrc/u8g2_kerning.c **** }
 226              		.loc 1 93 0
 227 0036 70BC     		pop	{r4, r5, r6}
 228              		.cfi_remember_state
 229              		.cfi_restore 6
 230              		.cfi_restore 5
 231              		.cfi_restore 4
ARM GAS  C:\Users\info\AppData\Local\Temp\cceazTri.s 			page 7


 232              		.cfi_def_cfa_offset 0
 233 0038 7047     		bx	lr
 234              	.LVL29:
 235              	.L33:
 236              		.cfi_restore_state
  83:..\u8g2-master\csrc/u8g2_kerning.c ****   for(;;)
 237              		.loc 1 83 0
 238 003a 0020     		movs	r0, #0
 239              		.loc 1 93 0
 240 003c 70BC     		pop	{r4, r5, r6}
 241              		.cfi_restore 4
 242              		.cfi_restore 5
 243              		.cfi_restore 6
 244              		.cfi_def_cfa_offset 0
 245              	.LVL30:
 246 003e 7047     		bx	lr
 247              	.LVL31:
 248              	.L29:
  83:..\u8g2-master\csrc/u8g2_kerning.c ****   for(;;)
 249              		.loc 1 83 0
 250 0040 0846     		mov	r0, r1
 251              	.LVL32:
 252              		.loc 1 93 0
 253 0042 7047     		bx	lr
 254              		.cfi_endproc
 255              	.LFE1:
 256              		.size	u8g2_GetKerningByTable, .-u8g2_GetKerningByTable
 257              		.text
 258              	.Letext0:
 259              		.file 2 "c:\\program files (x86)\\cypress\\psoc creator\\4.2\\psoc creator\\import\\gnu\\arm\\5.4.
 260              		.file 3 "c:\\program files (x86)\\cypress\\psoc creator\\4.2\\psoc creator\\import\\gnu\\arm\\5.4.
 261              		.file 4 "..\\u8g2-master\\csrc\\u8x8.h"
 262              		.file 5 "..\\u8g2-master\\csrc\\u8g2.h"