ARM GAS  C:\Users\info\AppData\Local\Temp\ccaerJSn.s 			page 1


   1              		.syntax unified
   2              		.cpu cortex-m3
   3              		.fpu softvfp
   4              		.eabi_attribute 20, 1
   5              		.eabi_attribute 21, 1
   6              		.eabi_attribute 23, 3
   7              		.eabi_attribute 24, 1
   8              		.eabi_attribute 25, 1
   9              		.eabi_attribute 26, 1
  10              		.eabi_attribute 30, 4
  11              		.eabi_attribute 34, 1
  12              		.eabi_attribute 18, 4
  13              		.thumb
  14              		.syntax unified
  15              		.file	"u8g2_line.c"
  16              		.text
  17              	.Ltext0:
  18              		.section	.gnu.lto_.profile.bf14cc60,"",%progbits
  19 0000 789C6361 		.ascii	"x\234ca`d`a`\000\222\026\252\000\000\377\000h"
  19      60646061 
  19      60009216 
  19      AA0000FF 
  19      0068
  20              		.text
  21              		.section	.gnu.lto_.icf.bf14cc60,"",%progbits
  22 0000 789C6361 		.ascii	"x\234ca`d\000\001\016\006\004`d\370\260\371\374{n\006"
  22      60640001 
  22      0E060460 
  22      64F8B0F9 
  22      FC7B6E06 
  23 0014 00108C03 		.ascii	"\000\020\214\003{"
  23      7B
  24              		.text
  25              		.section	.gnu.lto_.jmpfuncs.bf14cc60,"",%progbits
  26 0000 789C6361 		.ascii	"x\234ca`d\000\001M\006\004`d`e\004\001y\246z `c\252"
  26      60640001 
  26      4D060460 
  26      64606504 
  26      0179A67A 
  27 0018 4448A170 		.ascii	"DH\241p\030\000]\023\003Y"
  27      18005D13 
  27      0359
  28              		.text
  29              		.section	.gnu.lto_.inline.bf14cc60,"",%progbits
  30 0000 789C6361 		.ascii	"x\234ca`d\000\001o\006\004\000\212\250\277edda\344\000"
  30      60640001 
  30      6F060400 
  30      8AA8BF65 
  30      646461E4 
  31 0015 B2984104 		.ascii	"\262\230A\004\023\210`\001\023\032;\276r3\260-\220g"
  31      13886001 
  31      131A3BBE 
  31      7233B02D 
  31      9067
  32 0027 62E0F8A0 		.ascii	"b\340\370\240\307\003\"\014@zXx\031\031\230w\361O\360"
  32      C703220C 
  32      407A5878 
ARM GAS  C:\Users\info\AppData\Local\Temp\ccaerJSn.s 			page 2


  32      19199877 
  32      F14FF0
  33 003a 9BE087C4 		.ascii	"\233\340\207\304d\000\000o\024\014\001"
  33      6400006F 
  33      140C01
  34              		.text
  35              		.section	.gnu.lto_.pureconst.bf14cc60,"",%progbits
  36 0000 789C6361 		.ascii	"x\234ca`d`f`\000\222\026\000\000\220\000B"
  36      60646066 
  36      60009216 
  36      00009000 
  36      42
  37              		.text
  38              		.section	.gnu.lto_u8g2_DrawLine.bf14cc60,"",%progbits
  39 0000 789C7D56 		.ascii	"x\234}V\177lTU\026\276\347\3367\357\275\371=\355Lg\006"
  39      7F6C5455 
  39      16BEE7DE 
  39      37EFBDF9 
  39      3DED4C67 
  40 0015 18B00D62 		.ascii	"\030\260\015bi\241Dpw\203\373\307\306M6f\223\375\217"
  40      69A14470 
  40      7783FBC7 
  40      C64D3666 
  40      93FD8F
  41 0028 C4FF24C6 		.ascii	"\304\377$\306\0001&j\0200\333\306?\372\350\353\264D"
  41      0031266A 
  41      1030DBC6 
  41      3FFAE8EB 
  41      B444
  42 003a AB22BB0A 		.ascii	"\253\"\273\012\255\206\340\022#\270\3052\324RJ[; \016"
  42      AD86E012 
  42      23B8C532 
  42      D4524A5B 
  42      3B200E
  43 004d A805624C 		.ascii	"\250\005bL\360W6(*\032\004\002\243h\324b=\347\3347\235"
  43      F0573628 
  43      2A1A0402 
  43      A368D462 
  43      3DE7DC37 
  44 0062 0734FB92 		.ascii	"\0074\373\222w{\357w\317w\317w\277{\336\355\030\002"
  44      777BEF77 
  44      CF77CF77 
  44      BF7BDEED 
  44      1802
  45 0074 043DAB22 		.ascii	"\004=\253\"B\374\003\377\266\340\020\346\010\220[O\011"
  45      42FC03FF 
  45      B6E010E6 
  45      08905B4F 
  45      09
  46 0085 B1D99652 		.ascii	"\261\331\226Rmi\024N\310\2406\242 \240a\243\322\011"
  46      6D69144E 
  46      C8A036A2 
  46      20A061A3 
  46      D209
  47 0097 4893E72D 		.ascii	"H\223\347-\2367\301\326\260U\351\3302\310\363!\236\017"
  47      9E37C1D6 
  47      B055E9D8 
ARM GAS  C:\Users\info\AppData\Local\Temp\ccaerJSn.s 			page 3


  47      32C8F321 
  47      9E0F
  48 00a9 4248C321 		.ascii	"BH\303!\031f8\302p\030\"\032\216\310\030\303Q\206\243"
  48      196638C2 
  48      7018221A 
  48      8EC818C3 
  48      5186A3
  49 00bc 10D3704C 		.ascii	"\020\323pL\306\257\324!\234\330\265\022\3418$4\234\200"
  49      C6AFD421 
  49      9CD8B512 
  49      E1382434 
  49      9C80
  50 00ce 8CEED4C8 		.ascii	"\214\356\324\310Z\246%\231V\013)\015'+\235\224\254\353"
  50      5AA62599 
  50      560B290D 
  50      272B9D94 
  50      ACEB
  51 00e0 217EBAF3 		.ascii	"!~\272\363n\234\257\203\264\206\323\232\177\304\316"
  51      6E9CAF83 
  51      B486D39A 
  51      7FC4CE
  52 00ef C89A9EE3 		.ascii	"\310\232\236\343\002\003\262\235\026\006d\001\010wl"
  52      0203B29D 
  52      16066401 
  52      08776C
  53 00fe 10ED5219 		.ascii	"\020\355R\031\001\323\262\203\241p$\032\213'jj\223\251"
  53      01D3B283 
  53      A170241A 
  53      8B276A6A 
  53      93A9
  54 0110 BA74260B 		.ascii	"\272t&\013\3552#\364sM^\227p\264\373\374\210lz\315\301"
  54      ED3223F4 
  54      734D5E97 
  54      70B4FBFC 
  54      886C7ACD 
  55 0125 E7F3AFFF 		.ascii	"\347\363\257\377\245\234=E\310+!\246\245\216\201\327"
  55      A59C3D45 
  55      C82B21A6 
  55      A58E81D7 
  56 0135 A009A33E 		.ascii	"\240\011\243>\350\334\377\262\372A\346\025\200\201\303"
  56      E8DCFFB2 
  56      FA41E615 
  56      8081C3
  57 0144 AB27FBBE 		.ascii	"\253'\373\276\214\321PB=\0167\227\276\331\034W9\020"
  57      8CD15042 
  57      3D0E3797 
  57      BED91C57 
  57      3910
  58 0156 D81F2A0D 		.ascii	"\330\037*\015\355\2145\276\3528\035\216\363\363Z'\230"
  58      ED8C35BE 
  58      EA381D8E 
  58      F3F35A27 
  58      98
  59 0167 570A5E07 		.ascii	"W\012^\007\205\353\301^\310\301\036\310\011\204\004"
  59      85EBC15E 
  59      C8C11EC8 
  59      098404
ARM GAS  C:\Users\info\AppData\Local\Temp\ccaerJSn.s 			page 4


  60 0176 FC171A31 		.ascii	"\374\027\0321\372l\337\363'C\252A3\007{\257(\2179\276"
  60      FA6CDFF3 
  60      2743AA41 
  60      33077BAF 
  60      288F39BE 
  61 018a DA517965 		.ascii	"\332Qye@\277f\336\225\203;\211g\010\330\307\274\023"
  61      40BF66DE 
  61      95833B89 
  61      6708D8C7 
  61      BC13
  62 019c 5B2F3DA9 		.ascii	"[/=\251ng\332\257\337\017\277\016\036\355\272G{\343"
  62      6E67DAAF 
  62      DF0FBF0E 
  62      1EEDBA47 
  62      7BE3
  63 01ae 16DA00D3 		.ascii	"\026\332\000\323\306\267\357\\\245\032\231v\3209\364"
  63      C6B7EF5C 
  63      A51A9976 
  63      D039F4
  64 01bd 6C45E778 		.ascii	"lE\347x)\354\334I\274\375\267\360\012\314;p\370\354"
  64      29ECDC49 
  64      BCFDB7F0 
  64      0ACC3B70 
  64      F8EC
  65 01cf 7361D5CC 		.ascii	"sa\325\314\304\003/]j\255\244\253\360\016\334\302\033"
  65      C4032F5D 
  65      6AADA4AB 
  65      F00EDCC2 
  65      1B
  66 01e0 84460A7E 		.ascii	"\204F\012~\367\343_~\224\252\205\211\257t_\270l/\332"
  66      F7E35F7E 
  66      94AA8589 
  66      AF745FB8 
  66      6C2FDA
  67 01f3 4DCCE2C4 		.ascii	"M\314\342\304\243\333\235\342\346\372\274\012\300\233"
  67      A3DB9DE2 
  67      E6FABC0A 
  67      C09B
  68 0201 7E2E3D18 		.ascii	"~.=\030\272s\274\377\231\270\372\003\323.\017\016\374"
  68      BA73BCFF 
  68      99B8FA03 
  68      D32E0F0E 
  68      FC
  69 0212 2F4834C7 		.ascii	"/H4\307)\216\266y4\023\016\316B+\355:\376\236\245\376"
  69      298EB679 
  69      34130ECE 
  69      422BED3A 
  69      FE9EA5FE 
  70 0226 CCB41DE5 		.ascii	"\314\264\035\345\177o\013{\264C\253\035\367\036\"\035"
  70      7F6F0B7B 
  70      B443AB1D 
  70      F71E221D 
  71 0236 9A8574EE 		.ascii	"\232\205t\356\354\256\016K\375\205I\373>x\372?\246'"
  71      ECAE0E4B 
  71      FD8549FB 
  71      3E78FA3F 
  71      A627
ARM GAS  C:\Users\info\AppData\Local\Temp\ccaerJSn.s 			page 5


  72 0248 71781F78 		.ascii	"qx\037x\311\0148<\013\357\353\335\327\322\352\257L\333"
  72      C90C383C 
  72      0BEFEBDD 
  72      D7D2EAAF 
  72      4CDB
  73 025a DF7D625B 		.ascii	"\337}b[L\323\234\211\3739\227\001c\263p\306\236z\177"
  73      4CD39C89 
  73      FB399701 
  73      63B370C6 
  73      9E7A7F
  74 026d CA567F63 		.ascii	"\312V\177c\322\263\357lMz\251\206^\255\246zk\026Z\337"
  74      D2B3EF6C 
  74      4D7AA986 
  74      5EADA67A 
  74      6B165ADF 
  75 0281 E1EE8E90 		.ascii	"\341\356\216\220\272\227i\356\241\217F\3437\347*\316"
  75      BA9769EE 
  75      A18F46E3 
  75      37E72ACE 
  76 0291 42BAF0E9 		.ascii	"B\272\360\351g\007\303\352\357L\352?\261\355!/\327\201"
  76      6707C3EA 
  76      EF4CEA3F 
  76      B1ED212F 
  76      D781
  77 02a3 D51EE7E8 		.ascii	"\325\036\347\350l^\024~{!jv\222i\365\3606,\202#\370"
  77      6C5E147E 
  77      7B216A76 
  77      9269F5F0 
  77      362C8223 
  78 02b8 4EE03B8E 		.ascii	"N\340;\216\357(\276#\370\016\343;\004\213\364'\002\307"
  78      EF28BE23 
  78      F80EE33B 
  78      048BF427 
  78      02C7
  79 02ca C0C47BC7 		.ascii	"\300\304{\307\270yv`U\321\231\236v\235b!p)\272\014\270"
  79      B8797660 
  79      55D1999E 
  79      769D6221 
  79      7029BA0C 
  80 02df 6E25B78A 		.ascii	"n%\267\212\213Q\227d\200\013\314\344\326\342\326\346"
  80      8B519764 
  80      800BCCE4 
  80      D6E2D6E6 
  81 02ef D209721B 		.ascii	"\322\011r\033\342\3700GF\270\215\012\312\023\3436\316"
  81      E2F83047 
  81      46B88D0A 
  81      CA13E336 
  81      CE
  82 0300 6D82DB1A 		.ascii	"m\202\333\032A\271k\271M\012\322\220\022\244\"\003\264"
  82      41B96BB9 
  82      4D0AD290 
  82      12A42203 
  82      B4
  83 0311 02DE0AB8 		.ascii	"\002\336\012\270\362\034\216\234\313\355<\240\325r@"
  83      F21C8E9C 
  83      CBED3CA0 
  83      D57240
ARM GAS  C:\Users\info\AppData\Local\Temp\ccaerJSn.s 			page 6


  84 0320 59E633B2 		.ascii	"Y\3463\262\200\333\333\260x\255z^\246\201\345,\004\372"
  84      80DBDBB0 
  84      78AD7A5E 
  84      A681E52C 
  84      04FA
  85 0332 50EF40D8 		.ascii	"P\357@\330n\244f1\3175QX3+ZB\350RF[X\256\020W\320\027"
  85      6EA46631 
  85      CF355158 
  85      332B5A42 
  85      E852465B 
  86 034c BC8DAE4A 		.ascii	"\274\215\256J\211\177\3249\350\300jg\233P\020z\374b"
  86      897FD439 
  86      E8C06A67 
  86      9B50107A 
  86      FC62
  87 035e FEE8698B 		.ascii	"\376\350i\213\356\216\000\272\362\016^\007_@\347\307"
  87      EE8E00BA 
  87      F20E5E07 
  87      5F40E7C7 
  88 036e EEC05D14 		.ascii	"\356\300]\024\342\252\214\253\262|\032W\245\022G\225"
  88      E2AA8CAB 
  88      B27C1A57 
  88      A5124795 
  89 037e 3A0FEE8E 		.ascii	":\017\356\216\256\213RO\316\361\346\317\001\003t*\010"
  89      AE8B524F 
  89      CEF1E6CF 
  89      0103742A 
  89      08
  90 038f 72B03113 		.ascii	"r\2601\023\374\203\241\203\347b$\306\337\030<\227\203"
  90      FC83A183 
  90      E76224C6 
  90      DF183C97 
  90      83
  91 03a0 039E3034 		.ascii	"\003\23604\217\321\250\3260\350i\230\347*\256\2102D"
  91      8FD1A8D6 
  91      30E86998 
  91      E72AAE88 
  91      3244
  92 03b2 717935B6 		.ascii	"qy5\266/\214D\343\333 2\315\2314\347\317\004t\364|\217"
  92      2F8C44E3 
  92      DB2032CD 
  92      9934E7CF 
  92      0474F47C 
  93 03c7 50C9334A 		.ascii	"P\3113J+\316\347<\326-\242\026`$\306\337\030\274\200"
  93      2BCEE73C 
  93      D62DA216 
  93      6024C6DF 
  93      18BC80
  94 03da 83EDAA28 		.ascii	"\203\355\252(F\343$\352\224;\352\211\212\022\302\242"
  94      46E324EA 
  94      943BEA89 
  94      8A12C2A2 
  95 03ea E2B8BC39 		.ascii	"\342\270\2749I\242\026X,*Hi\310\347\253\217\373|\036"
  95      49A21658 
  95      2C2A4869 
  95      C8E7AB8F 
  95      FB7C1E
ARM GAS  C:\Users\info\AppData\Local\Temp\ccaerJSn.s 			page 7


  96 03fd EA9E2C84 		.ascii	"\352\236,\204\264\317\000% \201\035\305\357\327q\304"
  96      B4CF0025 
  96      20811DC5 
  96      EFD771C4 
  97 040d DB7AD788 		.ascii	"\333z\327\2108\367U\315\2113\360DU\030G\024\257\371"
  97      38F755CD 
  97      8933F044 
  97      55184714 
  97      AFF9
  98 041f 38191F07 		.ascii	"8\031\037\007\017[o\245\302\031 \200#\212?\3718Y\037"
  98      0F5B6FA5 
  98      C2192080 
  98      238A3FF9 
  98      38591F
  99 0432 A7402139 		.ascii	"\247@!9\037g\220\200,\033\020\252\0320D\274\224\360"
  99      1F679080 
  99      2C1B10AA 
  99      1A3044BC 
  99      94F0
 100 0444 B99110BE 		.ascii	"\271\221\020\276\363\212y\003&\333\336\200\227\016x"
 100      F38A7903 
 100      26DBDE80 
 100      970E78
 101 0453 0396A2BC 		.ascii	"\003\226\242\274\001\013\005}\306?yv\002\305\262\235"
 101      010B057D 
 101      C63F7976 
 101      02C5B29D 
 102 0463 D8CBD8D8 		.ascii	"\330\313\330\330\314\013\366\237\016\225Aa\217\206\231"
 102      CC0BF69F 
 102      0E954161 
 102      8F8699
 103 0472 E01EAB0C 		.ascii	"\340\036\253\014\001\024G\243\\p\214&m\354\3210\313"
 103      011447A3 
 103      5C708C26 
 103      6DECD130 
 103      CB
 104 0483 93317488 		.ascii	"\2231t\210F\361\340\3134\231\300\036\015\243<\231\242"
 104      46F1E0CB 
 104      3499C01E 
 104      0DA33C99 
 104      A2
 105 0494 DAB6A7BE 		.ascii	"\332\266\247\2763\311\373`\317s\364A\204+\0075\355\263"
 105      33C9FB60 
 105      CF73F441 
 105      842B0735 
 105      EDB3
 106 04a6 076EB634 		.ascii	"\007n\2664\340\263\247\240\245\023\347\371R\244JR>\322"
 106      E0B3A7A0 
 106      A513E7F9 
 106      52A44A52 
 106      3ED2
 107 04b8 C08C0B7E 		.ascii	"\300\214\013~O\025{\032\251z\312h\320o\226\3517\313"
 107      4F157B1A 
 107      A97ACA68 
 107      D06F96E9 
 107      37CB
 108 04ca F09B2505 		.ascii	"\360\233%\005Vm\271\353\314\216\230v\3536\364\034\226"
ARM GAS  C:\Users\info\AppData\Local\Temp\ccaerJSn.s 			page 8


 108      566DB9EB 
 108      CC8E9876 
 108      EB36F41C 
 108      96
 109 04db E410ED28 		.ascii	"\344\020\355([\032\252Gt\246\214GHS\275.\330\201\036"
 109      5B1AAA47 
 109      74A68C47 
 109      4853BD2E 
 109      D8811E
 110 04ee 53471894 		.ascii	"SG\030\224\216-\226\270\207\0209\036\236\"\243pB\321"
 110      8E2D96B8 
 110      8710391E 
 110      9E22A370 
 110      42D1
 111 0500 D00E772E 		.ascii	"\320\016w./Sd\200F\200\223\2612\004\021\247\241\302"
 111      2F536480 
 111      468093B1 
 111      320411A7 
 111      A1C2
 112 0512 49DC40B4 		.ascii	"I\334@\264b\331\366\256\245\234j\230\213{z\357\345\303"
 112      62D9F6AE 
 112      A59C6A98 
 112      8B7B7AEF 
 112      E5C3
 113 0524 2615B709 		.ascii	"&\025\267\011\355p\034r\274\331Xu\263\303$(\311\276"
 113      ED701C72 
 113      BCD95875 
 113      B3C32428 
 113      C9BE
 114 0536 F596B4C6 		.ascii	"\365\226\264\306\011\202\014\322\370\251;Q\321h\342"
 114      09820CD2 
 114      F8A93B51 
 114      D168E2
 115 0545 5A03F9AF 		.ascii	"Z\003\371\257\366\332\264\226\005\323\000'\300\373\366"
 115      F6DAB496 
 115      05D30027 
 115      C0FBF6
 116 0554 93FE6FC8 		.ascii	"\223\376o\310\304o\350]\310E\306\012\237\003\345\213"
 116      C46FE85D 
 116      C845C60A 
 116      9F03E58B 
 117 0564 6E0963C2 		.ascii	"n\011c\302\270\230\002\372\276_\354*\365zN5\3505?t\217"
 117      B89802FA 
 117      BE5FEC2A 
 117      F57A4E35 
 117      E8353F74 
 118 0579 9DE6DF4B 		.ascii	"\235\346\337K\006\255\371\036T\257\007v\276\201\365"
 118      06ADF91E 
 118      54AF0776 
 118      BE81F5
 119 0588 26AA7A19 		.ascii	"&\252z\031\265X\357xW\224\003\217\220^IJ,\\3\206\226"
 119      B558EF78 
 119      5794038F 
 119      905E494A 
 119      2C5C3386 
 120 059d 34C47B06 		.ascii	"4\304{\006s\310\253\021\370\233O\361Fv?\223\325yS\264"
 120      73C8AB11 
ARM GAS  C:\Users\info\AppData\Local\Temp\ccaerJSn.s 			page 9


 120      F89B4FF1 
 120      46763F93 
 120      D57953B4 
 121 05b1 918B233F 		.ascii	"\221\213#?G\365F\004\274\257\367\201\341\265\242\264"
 121      47F54604 
 121      BCAFF781 
 121      E1B5A2B4 
 122 05c1 507D0B5D 		.ascii	"P}\013]\305\017K\212\202\351\037\335\310\310\305\317"
 122      C50F4B8A 
 122      82E91FDD 
 122      C8C8C5CF 
 123 05d1 ACF6EBCE 		.ascii	"\254\366\353\316\026\307I\344UpZ\322o\347Ih\027\256"
 123      16C749E4 
 123      55705AD2 
 123      6FE74968 
 123      17AE
 124 05e3 5AE8AA90 		.ascii	"Z\350\252\220\253\"y\025bv\262\302>c\376_\362\311\012"
 124      AB227915 
 124      6276B2C2 
 124      3E63FE5F 
 124      F2C90A
 125 05f6 3982FC0A 		.ascii	"9\202\374\0129\305J\251j\272\317\367\255\320J\357pU"
 125      39C54AA9 
 125      6ABACFF7 
 125      ADD04AEF 
 125      7055
 126 0608 2D95D70E 		.ascii	"-\225\327\016\357\010\032\031J\370kk1\2427\326\326b"
 126      EF081A19 
 126      4AF86B6B 
 126      31A237D6 
 126      D662
 127 061a 5D5BC395 		.ascii	"][\303\225\355.\366o7\214\333=5\263\335:\321\233\324"
 127      ED2EF66F 
 127      378CDB3D 
 127      35B3DD3A 
 127      D19BD4
 128 062d 297FEB5B 		.ascii	")\177\353[\251\243\233\250\026\370\234&A#\315\254\263"
 128      A9A39BA8 
 128      16F89C26 
 128      4123CDAC 
 128      B3
 129 063e 69260917 		.ascii	"i&\011\027G\263\216)\275\364'\035\264\004\253\236\224"
 129      47B38E29 
 129      BDF4271D 
 129      B404AB9E 
 129      94
 130 064f F8942D45 		.ascii	"\370\224-E\364FeK9i\2327\252\317\222\341\032\357s\342"
 130      F446654B 
 130      39699A37 
 130      AACF92E1 
 130      1AEF73E2 
 131 0663 85C37AE1 		.ascii	"\205\303z\341\037{7\351UZ\320\"\177u\031X]\247}5\302"
 131      1F7B37E9 
 131      555AD022 
 131      7F751958 
 131      5DA77D35 
 132 0678 47DF4247 		.ascii	"G\337BG\217\227|$\205G\337\\75\264\266\0145\270\363"
ARM GAS  C:\Users\info\AppData\Local\Temp\ccaerJSn.s 			page 10


 132      8F977C24 
 132      8547DF5C 
 132      3735B4B6 
 132      0C35B8F3 
 133 068c D4B13F62 		.ascii	"\324\261?b\326\272\236\341G0oF\340\357}\177\336Z\177"
 133      D6BA9EE1 
 133      47306F46 
 133      E0EF7D7F 
 133      DE5A7F
 134 069f DE8837E0 		.ascii	"\336\2107\340\365Bd\341'\356\257=J\213\260\\>$L\202"
 134      F54264E1 
 134      27EEAF3D 
 134      4A8BB05C 
 134      3E244C82 
 135 06b3 C72D137B 		.ascii	"\307-\023{\360\342kI\323\315\205\306\030\211\311B\012"
 135      F0E26B49 
 135      D3CD85C6 
 135      1889C942 
 135      0A
 136 06c4 75A7A10C 		.ascii	"u\247\241\014\265\370e'\372\013\370o\253&\015\2302K"
 136      B5F86527 
 136      FA0BF86F 
 136      AB260D98 
 136      324B
 137 06d6 557B81EE 		.ascii	"U{\201\356\370{\271 \350\271\202%\320ia\261\316Y\266"
 137      F87BB920 
 137      E8B98225 
 137      D06961B1 
 137      CE59B6
 138 06e9 ECFE2756 		.ascii	"\354\376'V>\264\342\2015\0337\254\321\275G\036~l\335"
 138      3EB4E281 
 138      351B37AC 
 138      D1BD471E 
 138      7E6CDD
 139 06fc B235C2A0 		.ascii	"\2625\302\240\201l].\333\226\313\326\025\262m\205\271"
 139      816C5D2E 
 139      DB96CBD6 
 139      15B26D85 
 139      B9
 140 070d F19F0FAE 		.ascii	"\361\237\017\256om\013\264m\334\264n\275Z\267a\203\\"
 140      6F6D0BB4 
 140      6DDCB46E 
 140      BD5AB761 
 140      835C
 141 071f DB26D7B6 		.ascii	"\333&\327\266B\033\264\252M\217\256\377\035n\013\265"
 141      421BB4AA 
 141      4D8FAEFF 
 141      1D6E0BB5 
 142 072f F2       		.ascii	"\362"
 143              		.text
 144              		.section	.gnu.lto_.symbol_nodes.bf14cc60,"",%progbits
 145 0000 789C6361 		.ascii	"x\234ca`d0e\000\002&\206z\006\206\011\347\030@\324\256"
 145      60643065 
 145      00022686 
 145      7A068609 
 145      E71840D4 
 146 0015 06450606 		.ascii	"\006E\006\006F\306zF\260\000\003CC\203\002\003\0033"
ARM GAS  C:\Users\info\AppData\Local\Temp\ccaerJSn.s 			page 11


 146      46C67A46 
 146      B0000343 
 146      43830203 
 146      0333
 147 0027 50E593C7 		.ascii	"P\345\223\307?\336\033\203\030-\317\200\014\006\000"
 147      3FDE1B83 
 147      182DCF80 
 147      0C0600
 148 0036 46D30E61 		.ascii	"F\323\016a"
 149              		.text
 150              		.section	.gnu.lto_.refs.bf14cc60,"",%progbits
 151 0000 789C6361 		.ascii	"x\234ca`\004B \000\000\0009\000\007"
 151      60044220 
 151      00000039 
 151      0007
 152              		.text
 153              		.section	.gnu.lto_.decls.bf14cc60,"",%progbits
 154 0000 789CCD5A 		.ascii	"x\234\315Z{PTKz\237\236\036`\030\006\360\242W\335\024"
 154      7B50544B 
 154      7A9F9E1E 
 154      601806F0 
 154      A257DD14 
 155 0014 D93537C6 		.ascii	"\33157\306\313Ve\275z\357fc\362\337&\251$\225J%\251"
 155      CB5665BD 
 155      7AEF6663 
 155      F2DF26A9 
 155      24954A25 
 156 0029 4AEDFE45 		.ascii	"J\355\376E\325\3540\214J\026\201\314\014W\274\377\354"
 156      D5EC308C 
 156      4A1681CC 
 156      0C57BCFF 
 156      EC
 157 003a C8431414 		.ascii	"\310C\024\024\024\005\005_\010\002>Py\212\274\204\353"
 157      1405055F 
 157      08023E50 
 157      798ABC84 
 157      EB
 158 004b 0341E50D 		.ascii	"\003A\345\015\"\227\247/@\257\017D\024\021\220|\335"
 158      2297A72F 
 158      40AF0F44 
 158      1411907C 
 158      DD
 159 005c DF99737A 		.ascii	"\337\231sz\340p7U\311\2462\305\3079\277\356\337\351"
 159      E0703755 
 159      C9A632C5 
 159      C739BFEE 
 159      DFE9
 160 006e EFEBAFBB 		.ascii	"\357\353\257\273\277\376\372\314\3504D\303>#_h4qz\215"
 160      BFFEFACC 
 160      E83444C3 
 160      3E235F68 
 160      34717A8D 
 161 0082 261EEEE7 		.ascii	"&\036\356\347\341\243\205\353\2575\312\207\341@\370"
 161      E1A385EB 
 161      AF35CA87 
 161      E140F8
 162 0091 F79956B3 		.ascii	"\367\231V\263\350\303\312\215\022?\000d\005\310Sh\266"
ARM GAS  C:\Users\info\AppData\Local\Temp\ccaerJSn.s 			page 12


 162      E8C3CA8D 
 162      123F0064 
 162      05C85368 
 162      B6
 163 00a2 0CAEC520 		.ascii	"\014\256\305 k\241>\020\256\353\340\372S\220?\001Y\365"
 163      6BA13E10 
 163      AEEBE0FA 
 163      53903F01 
 163      59F5
 164 00b4 DF68774E 		.ascii	"\337hwNK\256$\035y\347\337Gz\211\226H\206j\010\301\377"
 164      4BAE241D 
 164      79E7DF47 
 164      7A899648 
 164      866A08C1 
 165 00c9 848B0685 		.ascii	"\204\213\006\205C\270\321\362\377\032\271H\276hd\212"
 165      43B8D1F2 
 165      FF1AB948 
 165      BE68648A 
 166 00d9 74AB34C6 		.ascii	"t\2534\306\377\\\327y\327\2077\242\264N\244\207\210"
 166      FF5CD779 
 166      D78737A2 
 166      B44EA487 
 166      88
 167 00ea 6C8174CF 		.ascii	"l\201t\317\353\265\212\002\202\320\365\200\320\036\232"
 167      EBB58A02 
 167      82D0F580 
 167      D01E9A
 168 00f9 2BD844DC 		.ascii	"+\330D\334\373D\\\235\356\315;\330c\244\320c\270\037"
 168      FB445C9D 
 168      EECD3BD8 
 168      63A4D063 
 168      B81F
 169 010b 9A3EF3F7 		.ascii	"\232>\363\367\353\013\235\360\331\357tj\203\024\317"
 169      EB0B9DF0 
 169      D9EF746A 
 169      8314CF
 170 011a 5C4A787C 		.ascii	"\\Jx|V?\251%\201\0062O\030~^9\355\213\230U\227\325\277"
 170      563FA925 
 170      8106324F 
 170      187E5E39 
 170      ED8B9855 
 171 0131 B9A0A33F 		.ascii	"\271\240\243?b\367\332\366\322\336\233\336$\310\220"
 171      62F7DAF6 
 171      D2DE9BDE 
 171      24C890
 172 0140 CF9A193E 		.ascii	"\317\232\031>\374\366\227qN'!\027\211\201\024\022J\316"
 172      FCF69771 
 172      4E272117 
 172      89811412 
 172      4ACE
 173 0152 92F54C79 		.ascii	"\222\365Ly\240\001\376\357v:c\235\3439N\317\325\032"
 173      A001FEEF 
 173      763A639D 
 173      E3394ECF 
 173      D51A
 174 0164 F25520D9 		.ascii	"\362U \331\020\250!\027H\020k\223\261\310y\022H\316"
 174      10A82117 
ARM GAS  C:\Users\info\AppData\Local\Temp\ccaerJSn.s 			page 13


 174      48106B93 
 174      B1C87912 
 174      48CE
 175 0176 9140D6FE 		.ascii	"\221@\326\376\331\223gn\370\322|\302\025\2748\364\375"
 175      D993676E 
 175      F8D27CC2 
 175      15BC38F4 
 175      FD
 176 0187 6E2A2BA8 		.ascii	"n*+\250M\016<\357t.#\305\240\340\222\242\000\364\251"
 176      4D0E3CEF 
 176      742E23C5 
 176      A0E092A2 
 176      00F4A9
 177 019a 6B2852D7 		.ascii	"k(R\327\360\266\345u\212\221\346q7ho\316\316=\323\312"
 177      F0B6E575 
 177      8A91E671 
 177      37686FCE 
 177      CE3DD3CA 
 178 01ae 1A3A0F46 		.ascii	"\032:\017F\244%\200;H\031\250(QT\024/\245\242T]\305"
 178      A425803B 
 178      4819A828 
 178      5154142F 
 178      A5A2545D 
 179 01c3 FCD458B9 		.ascii	"\374\324X\271A\0073\2177\024\242ce-3#\311\036rY9\341"
 179      4107338F 
 179      3714A263 
 179      652D3323 
 179      C91E7259 
 180 01d9 85F9C7BB 		.ascii	"\205\371\307\273^\370\312\205\227\261\360\346\307\214"
 180      5EF8CA85 
 180      97B1F0E6 
 180      C78C
 181 01e7 11A35C58 		.ascii	"\021\243\\X\201\205\355\361E\307(\014C\200\201\350\000"
 181      8185EDF1 
 181      45C7280C 
 181      438081E8 
 181      00
 182 01f8 BE6ECE7A 		.ascii	"\276n\316z\344\007p\205\201\254\001xf\344X\212\021\341"
 182      E4077085 
 182      81AC0178 
 182      66E4588A 
 182      11E1
 183 020a 26809747 		.ascii	"&\200\227G\232\032\014Hv\2621\254\256\250i\360\300\352"
 183      9A1A0C48 
 183      76B231AC 
 183      AEA869F0 
 183      C0EA
 184 021c 0D00ABC6 		.ascii	"\015\000\253\306[\367\371\320\006\234\010G\337\014<"
 184      5BF7F9D0 
 184      069C0847 
 184      DF0C3C
 185 022b F5C6BA20 		.ascii	"\365\306\272 \200u\343\247vy\322v\254\333[U|\301\227"
 185      8075E3A7 
 185      7679D276 
 185      ACDB5B55 
 185      7CC197
 186 023e 3E41702E 		.ascii	">Ap.w\370\004#\256\202\211\301p]\347\3601\003b\347\357"
ARM GAS  C:\Users\info\AppData\Local\Temp\ccaerJSn.s 			page 14


 186      77F80423 
 186      AE8289C1 
 186      705DE7F0 
 186      310362E7 
 187 0253 00A7B71C 		.ascii	"\000\247\267\034\353\3223\023\231_od]\213\365P\246\306"
 187      EBD23313 
 187      995F6F64 
 187      5D8BF550 
 187      A6C6
 188 0265 8B1DB16C 		.ascii	"\213\035\261lj4@\177n(n]%y\325\271\300\2537\301\253"
 188      6A34407F 
 188      6E286E5D 
 188      2579D5B9 
 188      C0AB37C1 
 189 027a AB24AF5E 		.ascii	"\253$\257^\007\257^C\257v\366\177\250\327\3239TP\320"
 189      07AF5E43 
 189      AF76F67F 
 189      A8D7D339 
 189      5450D0
 190 028d F4E18A27 		.ascii	"\364\341\212'1\004\251<\336\244\362\270k\006\255<\307"
 190      3104A93C 
 190      DEA4F2B8 
 190      6B06AD3C 
 190      C7
 191 029e 665023D8 		.ascii	"fP#\330qK\261\243\201\017/4\3742\376\311\260\017\372"
 191      714BB1A3 
 191      810F2F34 
 191      FC32FEC9 
 191      B00FFA
 192 02b1 6235C084 		.ascii	"b5\300\204\266\244\213>4\236\362\356w\214\337=.\325"
 192      B6A48B3E 
 192      349EF2EE 
 192      778CDF3D 
 192      2ED5
 193 02c3 2D03F86C 		.ascii	"-\003\370l\367P\257\017M\307\272\306\353\003\377N\363"
 193      F750AF0F 
 193      4DC7BAC6 
 193      EB03FF4E 
 193      F3
 194 02d4 F0FEDDD0 		.ascii	"\360\376\335\320\376A\035\275\214\240?\347P\236\016"
 194      FE411DBD 
 194      8CA03FE7 
 194      509E0E
 195 02e3 07624C54 		.ascii	"\007bLT\020\200\012\212j\342_H\243X\317\306)6\263\363"
 195      10800A8A 
 195      6AE25F48 
 195      A358CFC6 
 195      2936B3F3 
 196 02f7 20A53DEE 		.ascii	" \245=\356\012\003P\341\315\371\251z\177\204Z\200\263"
 196      0A0350E1 
 196      CDF9A97A 
 196      7F845A80 
 196      B3
 197 0308 432F9B75 		.ascii	"C/\233u\364\001R\363>\314\2143\317\257\203\241\231\247"
 197      F40152F3 
 197      3ECC8C33 
 197      CFAF83A1 
ARM GAS  C:\Users\info\AppData\Local\Temp\ccaerJSn.s 			page 15


 197      99A7
 198 031a C2A25D87 		.ascii	"\302\242]\207\213\266\356NS\276\221\276\341d\355\351"
 198      8BB6EE4E 
 198      53BE91BE 
 198      E164EDE9 
 199 032a FAD80482 		.ascii	"\372\330\004\202\236\203A\211s\032\316\370i\310]\360"
 199      9E834189 
 199      731ACEF8 
 199      69C85DF0 
 200 033a 5337F889 		.ascii	"S7\370\211\364\201\363\326I\316\273\017\205=\262\363"
 200      F481F3D6 
 200      49CEBB0F 
 200      853DB2F3 
 201 034a 0EBFF827 		.ascii	"\016\277\370'\276\276\277\003\347\365*\316['\371\356"
 201      BEBEBF03 
 201      E7F52ACE 
 201      5B27F9EE 
 202 035a EA81BE11 		.ascii	"\352\201\276\021\003\375\210:\316\216\337-\364_R\307"
 202      03FD883A 
 202      CE8EDF2D 
 202      F45F52C7 
 203 036a E0923A6A 		.ascii	"\340\222:j\223\327\025\262\001\032\000\035\375\212\216"
 203      93D715B2 
 203      011A001D 
 203      FD8A8E
 204 0379 EF5C03F4 		.ascii	"\357\\\003\3648\351\322M_\232\250\343\275zz\2423\301"
 204      38E9D24D 
 204      5F9AA8E3 
 204      BD7A7AA2 
 204      33C1
 205 038b 8F6622C8 		.ascii	"\217f\"\310\252\236\274\355\201\356\321\003<\371 s\336"
 205      AA9EBCED 
 205      81EED103 
 205      3CF92073 
 205      DE
 206 039c 8BE6635D 		.ascii	"\213\346c]\352\370\211CzZ\202\340\300tf\243'\255APu"
 206      EAF88943 
 206      7A5A82E0 
 206      C07466A3 
 206      27AD4150 
 207 03b1 2B2EDF8B 		.ascii	"+.\337\213\336D\260\263\366z\251/mA\360\262\261\304"
 207      DE44B0B3 
 207      F67AA92F 
 207      6D41F0B2 
 207      B1C4
 208 03c3 407BF0BE 		.ascii	"@{\360\276vt\1775\245\243\010r\363\356L\351\350;\004"
 208      76747F35 
 208      A5A30872 
 208      F3EE4CE9 
 208      E83B04
 209 03d6 D3CEACA7 		.ascii	"\323\316\254\247z\232\350\301\301\363\212W\207\265\364"
 209      7A9AE8C1 
 209      C1F38A57 
 209      87B5F4
 210 03e5 3082FE57 		.ascii	"0\202\376W\3433\336\264\000A]\316\275\217\336\264\006"
 210      E333DEB4 
 210      00415DCE 
ARM GAS  C:\Users\info\AppData\Local\Temp\ccaerJSn.s 			page 16


 210      BD8FDEB4 
 210      06
 211 03f6 414ACBB9 		.ascii	"AJ\313\271&\037\332\206\240\264\276\261\325@\373\020"
 211      261FDA86 
 211      A0B4BEB1 
 211      D540FB10 
 212 0406 9CCFFF70 		.ascii	"\234\317\377p\321@G\020\214\016\215\316\372\323W\010"
 212      D1404710 
 212      8C0E8DCE 
 212      FAD35708 
 213 0416 F20A6273 		.ascii	"\362\012bs\364t\032A\316\371\275\215~4\331\223\201\225"
 213      F4741A41 
 213      CEF9BD8D 
 213      7E34D993 
 213      8195
 214 0428 B79FB577 		.ascii	"\267\237\265w\372\220\265\356\237 \376\177y\216\024"
 214      FA90B5EE 
 214      9F20FE7F 
 214      798E14
 215 0437 D4FE35F7 		.ascii	"\324\3765\367Q\202\263\3507|\332\217\201W\367h\227\273"
 215      5182B3E8 
 215      377CDA8F 
 215      8157F768 
 215      97BB
 216 0449 D6CA0370 		.ascii	"\326\312\003p=[8\340\336\0346V\365\025-\276\207\235"
 216      3D5B38E0 
 216      DE1C3656 
 216      F5152DBE 
 216      879D
 217 045b F53B298F 		.ascii	"\365;)\217\262O\325\310\033%\262\323Y_\227\"\221Y\313"
 217      B24FD5C8 
 217      1B25B2D3 
 217      595F9722 
 217      9159CB
 218 046e A36AE4BB 		.ascii	"\243j\344\273Di\372\244\330\364\013w\366\027\214\\%"
 218      4469FAA4 
 218      D8F40B77 
 218      F6178C5C 
 218      25
 219 047f 904B5A7C 		.ascii	"\220KZ|\230\311\214\372\275\012\265\226(V|\207Tf\303"
 219      98C98CFA 
 219      BD0AB596 
 219      28567C87 
 219      5466C3
 220 0492 23351B44 		.ascii	"#5\033D\356}\205\373X\215['p;\305\336=Qc\213\006g\212"
 220      EE7D85FB 
 220      588D5B27 
 220      703BC5DE 
 220      3D51638B 
 221 04a9 BD7BA962 		.ascii	"\275{\251b\362m\241\351v\261\351\021\265\246o\013M\317"
 221      F26DA1E9 
 221      76B1E911 
 221      B5A66F0B 
 221      4DCF
 222 04bb A7F81D71 		.ascii	"\247\370\035q\326\307R\276,\336Hly5u\271w\022\370\223"
 222      D6C752BE 
 222      2CDE486C 
ARM GAS  C:\Users\info\AppData\Local\Temp\ccaerJSn.s 			page 17


 222      793575B9 
 222      7712F893 
 223 04cf 294667DB 		.ascii	")Fg\333o8{H\235-\016K\272h\370\270\212\341_)v\367+\356"
 223      6F387B48 
 223      9D2D0E4B 
 223      BA68F8B8 
 223      8AE15F29 
 224 04e7 7BA86675 		.ascii	"{\250fu\265\320n\2212\202\317UZEO\363e_?\227lt:\365"
 224      B5D06E91 
 224      3282CF55 
 224      5A454FF3 
 224      655F3F97 
 225 04ff 8CA29196 		.ascii	"\214\242\221\226\274Fn\346\240h\336k\225\2066**3\024"
 225      BC466EE6 
 225      A068DE6B 
 225      9586362A 
 225      2A3314
 226 0512 95AF5498 		.ascii	"\225\257T\230b\257\247D\237\336S\367\2228\274\345\242"
 226      62AFA744 
 226      9FDE53F7 
 226      9238BCE5 
 226      A2
 227 0523 19CF541A 		.ascii	"\031\317T\032\257\026\206wPq\323\260;\265KYB\007\244"
 227      AF168677 
 227      5071D3B0 
 227      3BB54B59 
 227      4207A4
 228 0536 E4CB496C 		.ascii	"\344\313Il\032\322\001\232\333\231\346\011\211\017n"
 228      1AD2019A 
 228      DB99E609 
 228      890F6E
 229 0545 2071DA20 		.ascii	" q\332 \022\257]K\234 \011 \263d-\231\002\211\205\373"
 229      12AF5D4B 
 229      9C200920 
 229      B3642D99 
 229      028985FB 
 230 0559 F7704D84 		.ascii	"\367pM\204\353[\270N\202\274\003\231\003\231\001\371"
 230      EB5BB84E 
 230      82BC0399 
 230      039901F9 
 231 0569 00320DB2 		.ascii	"\0002\015\262\023\352w\203\314\303\375.\270~$k]Y\336"
 231      13EA7783 
 231      CCC3FD2E 
 231      B87E246B 
 231      5D59DE
 232 057c 5BE7B1DB 		.ascii	"[\347\261\333\224\036\3471D\373\360jm\247\027Y\036\244"
 232      941EE731 
 232      44FBF06A 
 232      6DA71759 
 232      1EA4
 233 058e 6ED15EB0 		.ascii	"n\321^\260\342\017m\021N\203\364\324?c\323 \031\224"
 233      E20F6D11 
 233      4E83F4D4 
 233      3F63D320 
 233      1994
 234 05a0 2569E5E0 		.ascii	"%i\345\340\317f\005\267\271\342Az\2357\206\370\373\032"
 234      CF6605B7 
ARM GAS  C:\Users\info\AppData\Local\Temp\ccaerJSn.s 			page 18


 234      B9E2417A 
 234      9D3786F8 
 234      FB1A
 235 05b2 21CB5921 		.ascii	"!\313Y!e9e\331]u^\364\"\357\023\251t&\036\320\323*\004"
 235      653965D9 
 235      5D755EF4 
 235      22EF13A9 
 235      74261ED0 
 236 05c9 CDDF8F97 		.ascii	"\315\337\217\227\353\351u\004S\003\231)>\364.\202\371"
 236      EBE97504 
 236      53039929 
 236      3EF42E82 
 236      F9
 237 05da 99DD5B69 		.ascii	"\231\335[i\037\336O4WLR\372\014\301\310\325WSF:\205"
 237      1FDE4F34 
 237      574C52FA 
 237      0CC1C8D5 
 237      5753463A 
 238 05ef A026E9CE 		.ascii	"\240&\351\316\254\236\306y\341NS\225\030k\240\011\010"
 238      AC9EC679 
 238      E14E5395 
 238      186BA009 
 238      08
 239 0600 12CB6BF3 		.ascii	"\022\313k\363=i\"\202\312\307IMz\272\037\301\364\313"
 239      3D692282 
 239      CAC7494D 
 239      7ABA1FC1 
 239      F4CB
 240 0612 86240F9A 		.ascii	"\206$\017\232\211\340x\367\303\375\336\006)\201\334"
 240      89E078F7 
 240      C3FDDE06 
 240      2981DC
 241 0621 FFFB73D4 		.ascii	"\377\373s\324\247\375\025\263Fc\022\343\357\217s\006"
 241      A7FD15B3 
 241      466312E3 
 241      EF8F7306 
 242 0631 34FA91A3 		.ascii	"4\372\221\243Z\003\233\217\244\222O\240cZ\2434\220M"
 242      5A039B8F 
 242      A4924FA0 
 242      635AA334 
 242      904D
 243 0643 AD4D7F49 		.ascii	"\255M\177IOK\372\217\237\230\362\245W8\360+K=[\346-"
 243      4F4BFA8F 
 243      9F98F2A5 
 243      5738F02B 
 243      4B3D5BE6 
 244 0658 6D0CCBA5 		.ascii	"m\014\313\245\035A\212\332\251B\3609\004\216\316\373"
 244      1D418ADA 
 244      A942F039 
 244      048ECEFB 
 245 0668 81FDA0B7 		.ascii	"\201\375\240\267U\230\367\373\325\310u\342*i\365G6\313"
 245      5598F7FB 
 245      D5C875E2 
 245      2A69F547 
 245      36CB
 246 067a 5C8FB8B3 		.ascii	"\\\217\270\263\277\010\\\020_\253E;2T\310b4\031\020"
 246      BF085C10 
ARM GAS  C:\Users\info\AppData\Local\Temp\ccaerJSn.s 			page 19


 246      5FAB453B 
 246      3254C862 
 246      341910
 247 068d ED38A166 		.ascii	"\3558\241f\207\030\001;Z\345@pP\215\213\221@\231\357"
 247      8718013B 
 247      5AE54070 
 247      508D8B91 
 247      4099EF
 248 06a0 0E0D49D1 		.ascii	"\016\015I\321\006\362\325I\216K\017\260\371^\000\363"
 248      06F2D549 
 248      8E4B0FB0 
 248      F95E00F3 
 249 06b0 FD1CCCD3 		.ascii	"\375\034\314\323\363 \247@\362Ar@\316\200\234\0049\015"
 249      F320A740 
 249      F2417240 
 249      CE809C04 
 249      390D
 250 06c2 7216A410 		.ascii	"r\026\244\020$\033$W\273\326\025\272\240\203\225b\007"
 250      241B2457 
 250      BBD615BA 
 250      A0839562 
 250      07
 251 06d3 0FAB74B0 		.ascii	"\017\253t\260V\210\201GSy\014\314[\024\003\241\256V"
 251      56888147 
 251      53790CCC 
 251      5B1403A1 
 251      AE56
 252 06e5 6C285DAD 		.ascii	"l(]\255CB\020\354\026=\225\246F\026\367\226\223\251"
 252      434210EC 
 252      163D95A6 
 252      4616F796 
 252      93A9
 253 06f7 9F663AEB 		.ascii	"\237f:\353!\307\205)E\262$\266k\242-\012\260\245\342"
 253      21C78529 
 253      45B224B6 
 253      6BA22D0A 
 253      B0A5E2
 254 070a F866AAF4 		.ascii	"\370f\252\364H\014\231=\242!\007\324\014A6\314\334\333"
 254      480C993D 
 254      A22107D4 
 254      0C4136CC 
 254      DCDB
 255 071c A5AD3FA1 		.ascii	"\245\255?\2415|\342j\237M\357I\363$A\313\321-oR\327"
 255      357CE26A 
 255      9F4DEF49 
 255      F32441CB 
 255      D12D6F52 
 256 0731 31B75C82 		.ascii	"1\267\\\202G/(1!\217\307\004\365\361\273\010c\366?\035"
 256      472F2831 
 256      218FC704 
 256      F5F1BB08 
 256      63F63F1D 
 257 0745 3F76DA18 		.ascii	"?v\332\0309\025o\304h\323\306W\372\310-8\014\264\342"
 257      39156FC4 
 257      68D3C657 
 257      FAC82D38 
 257      0CB4E2
ARM GAS  C:\Users\info\AppData\Local\Temp\ccaerJSn.s 			page 20


 258 0758 4A9B9CDF 		.ascii	"J\233\234\337S\255\247\203\010F\222\316\2766\322\367"
 258      53ADA783 
 258      084692CE 
 258      BE36D2F7 
 259 0768 08926F96 		.ascii	"\010\222o\2267H\347\264F~j\272X\221\343I\347\260\262"
 259      3748E7B4 
 259      467E6ABA 
 259      5891E349 
 259      E7B0B2
 260 077b E7C9D312 		.ascii	"\347\311\323\022J\023\364\034\304\227\036\273b\240\373"
 260      4A13F41C 
 260      C4971EBB 
 260      62A0FB
 261 078a 10DCAF6E 		.ascii	"\020\334\257n\231\364\240\351\010\276-\235\201@v\034"
 261      99F4A0E9 
 261      08BE2D9D 
 261      8140761C 
 262 079a 41C5CBF3 		.ascii	"A\305\313\363\025\276\330`=\303\327w\216B2\233\207\225"
 262      15BED860 
 262      3DC3D777 
 262      8E42329B 
 262      8795
 263 07ac 25493545 		.ascii	"%I5E:z\001A\376\223\3448\003-G\320X0\221Dh-\202\302"
 263      3A7A0141 
 263      FE93E438 
 263      032D47D0 
 263      58309144 
 264 07c4 23AF2E12 		.ascii	"#\257.\022z\003\301p}i\267\216"
 264      7A03C170 
 264      7D69B78E 
 265 07d0 DE46D03C 		.ascii	"\336F\320<\332\323\251\243\355\010\216\215\316Mj\351"
 265      DAD3A9A3 
 265      ED088E8D 
 265      CE4D6AE9 
 266 07e0 7D04AE23 		.ascii	"}\004\256#e\000\036)\263\323&\037C\016\214uis\247\213"
 266      65001E29 
 266      B3D3261F 
 266      430E8C75 
 266      6973A78B 
 267 07f4 B5F43D82 		.ascii	"\265\364=\202[\347\342\207\265t\2677\007\203\225\247"
 267      5BE7E287 
 267      B574B737 
 267      078395A7 
 268 0804 1BBD6806 		.ascii	"\033\275h\006\202\252\023]\355:\232\217\340\320\330"
 268      82AA135D 
 268      ED3A9A8F 
 268      E0D0D8
 269 0813 2D6FB788 		.ascii	"-o\267\210\306f\205\022\321\232\344\210\346:\254\006"
 269      C6668512 
 269      D19AE488 
 269      E63AAC06 
 270 0823 E061F55A 		.ascii	"\340a\365Z\333\236\014\177Z\212\215\014|lO\324\323\313"
 270      DB9E0C7F 
 270      5A8A8D0C 
 270      7C6C4FD4 
 270      D3CB
 271 0835 0886076B 		.ascii	"\010\206\007kf\265\264\001\301\374\330\300k\037:\210"
ARM GAS  C:\Users\info\AppData\Local\Temp\ccaerJSn.s 			page 21


 271      66B5B401 
 271      C1FCD8C0 
 271      6B1F3A88 
 272 0845 E0E1CE23 		.ascii	"\340\341\316#\243Z\372\012\301\276\347\227\016{\323"
 272      A35AFA0A 
 272      C1BEE797 
 272      0E7BD3
 273 0854 DD78129A 		.ascii	"\335x\022\232\031;\324K\260q#;pU\367\036\360\307-d\230"
 273      193BD44B 
 273      B071233B 
 273      7055F71E 
 273      F0C72D64 
 274 0869 777AB0A4 		.ascii	"wz\260\244\330@\017#\367\301\253\332L/~\016/\226O\361"
 274      D8400F23 
 274      F7C1ABDA 
 274      4C2F7E0E 
 274      2F964FF1 
 275 087d 17F35B53 		.ascii	"\027\363[Su\362\331\274K\313\013\207\347\313+\225\243"
 275      75F2D9BC 
 275      4BCB0B87 
 275      E7CB2B95 
 275      A3
 276 088e 7D37165E 		.ascii	"}7\026^*\230\237\366\226\013\357a\341d\311\336<O\232"
 276      2A989FF6 
 276      960BEF61 
 276      E164C9DE 
 276      3C4F9A
 277 08a1 6D9032FC 		.ascii	"m\2202\374\276\022B\213\021\034\232h\317\361\242\325"
 277      BE12428B 
 277      111C9A68 
 277      CFF1A2D5 
 278 08b1 081AB246 		.ascii	"\010\032\262Fa\341\336\224\336\270\324\276\316\223\016"
 278      61E1DE94 
 278      DEB8D4BE 
 278      CE930E
 279 08c0 E84E76B6 		.ascii	"\350Nv\266\313\356\312\355\367\244\375\006\267\323{"
 279      CBEECAED 
 279      F7A4FD06 
 279      B7D37B
 280 08cf 009EDE9D 		.ascii	"\000\236\336\235c\361'\265\364\201t\352\033;P\247\247"
 280      63F127B5 
 280      F48174EA 
 280      1B3B50A7 
 280      A7
 281 08e0 E308DA0A 		.ascii	"\343\010\332\012^\364\370\321\335>\034\214e\327\225"
 281      5EF4F8D1 
 281      DD3E1C8C 
 281      65D795
 282 08ef E8692E02 		.ascii	"\350i.\002\327\253\204\000|\225\220^\2376k\240\227\260"
 282      D7AB8400 
 282      7C95905E 
 282      9F366BA0 
 282      97B0
 283 0901 AEA9F2E1 		.ascii	"\256\251\362\341\006Z\205\367\357\356t\015P\332\204"
 283      065A85F7 
 283      EFEE740D 
 283      50DA84
ARM GAS  C:\Users\info\AppData\Local\Temp\ccaerJSn.s 			page 22


 284 0910 20F55AED 		.ascii	" \365Z\355u=\355F\320\320\377\035\314\250\007\010\346"
 284      753DED46 
 284      D0D0FF1D 
 284      CCA80708 
 284      E6
 285 0921 4A4BAF13 		.ascii	"JK\257\023\372\016A\374\263\\H\364\347\021\0144\236"
 285      FA0E41FC 
 285      B35C48F4 
 285      E7110C34 
 285      9E
 286 0932 3DCF96C6 		.ascii	"=\317\226\306\347\354\224:?\357/\234S?G#;R'N{\321=F"
 286      E7EC943A 
 286      3FEF2F9C 
 286      533F4723 
 286      3B52274E 
 287 094a 1E071AF6 		.ascii	"\036\007\032\366\225\226\370(\257\020\362\214\225\354"
 287      9596F828 
 287      AF10F28C 
 287      95EC
 288 0958 64F80AF6 		.ascii	"d\370\012\366\301\027J \370\\~1\203\263J\243\304\256"
 288      C1174A20 
 288      F85C7E31 
 288      83B34AA3 
 288      C4AE
 289 096a 97B0F63F 		.ascii	"\227\260\366?\227\266\326\347\020\034\276\327\342\013"
 289      97B6D6E7 
 289      101CBED7 
 289      E20B
 290 0978 A6D30760 		.ascii	"\246\323\007`A\036B\035\231e\347\246\014\302\013\246"
 290      411E421D 
 290      9965E7A6 
 290      0CC20BA6 
 291 0988 9FF3D3E7 		.ascii	"\237\363\323\347\004\350\030Wt\200\312%\225\274VW\362"
 291      04E81857 
 291      7480CA25 
 291      95BC5657 
 291      F2
 292 0999 B078EAB9 		.ascii	"\260x\352\271\236\036\347J\310\305\302\231\"|\033\364"
 292      9E1EE74A 
 292      C8C5C299 
 292      227C1BF4 
 293 09a9 2BA3348D 		.ascii	"+\2434\215\372v\025\334\361\221\247\326$N\216\356\373"
 293      FA7615DC 
 293      F191A7D6 
 293      244E8EEE 
 293      FB
 294 09ba 83DDDE72 		.ascii	"\203\335\336r\341[,L\234\037\270\241\247\227\260\245"
 294      E15B2C4C 
 294      9C1FB8A1 
 294      A797B0A5 
 295 09ca F8827D47 		.ascii	"\370\202}G}i5\202\224\314\211j/z\035Ag}\366Qoz\033\301"
 295      7D693582 
 295      94CC896A 
 295      2F7A1D41 
 295      677DF651 
 296 09e2 A3B2A9D3 		.ascii	"\243\262\251\323\276\264\333\270\344,.\35789\344E\007"
 296      BEB4DBB8 
ARM GAS  C:\Users\info\AppData\Local\Temp\ccaerJSn.s 			page 23


 296      E42C2EEF 
 296      3839E445 
 296      07
 297 09f3 90F0A175 		.ascii	"\220\360\241u\246\212\320g\010\366v^\376\212N\341}a"
 297      A68AD067 
 297      08F6765E 
 297      FE8A4EE1 
 297      7D61
 298 0a05 F7FD3942 		.ascii	"\367\3759B\343|1P|\034\277Ji:\202\013\303\273:=h>\202"
 298      E37C3150 
 298      7C1CBF4A 
 298      693A820B 
 298      C3BB3A3D 
 299 0a1c FCD95365 		.ascii	"\374\331SeFZ\202\240a\2526\327\203\326\"HJ>w\312\217"
 299      465A82A0 
 299      61AA36D7 
 299      83D62248 
 299      4A3E77CA 
 300 0a31 762048D8 		.ascii	"v H\330{\276\206\322'\010\332\206J\336z\322\017\010"
 300      7BBE86D2 
 300      2708DA86 
 300      4ADE7AD2 
 300      0F08
 301 0a43 86060FFC 		.ascii	"\206\006\017\374\007\215\363\343\367\337wu\034\360\240"
 301      078DF3E3 
 301      F7DF7775 
 301      1CF0A0
 302 0a52 FB11CC95 		.ascii	"\373\021\314\225$V\353h.\202\321\306\351I\037Z\216\340"
 302      2456EB68 
 302      2E82D1C6 
 302      E9491F5A 
 302      8EE0
 303 0a64 C3B5D84A 		.ascii	"\303\265\330JB\033\021\\\2766}\327\203\016 x\031{\376"
 303      421B115C 
 303      BE367DD7 
 303      830E2078 
 303      197BFE
 304 0a77 344C3F04 		.ascii	"4L?\004m\351/ \257H\365\347`v\346\340N\017\232\203\240"
 304      6DE92F20 
 304      AF48F5E7 
 304      6076E6E0 
 304      4E0F9A83 
 305 0a8c AE7FACD0 		.ascii	"\256\177\254\320\207\226!8\263o\374\272\2016s\360\351"
 305      87962138 
 305      B36FFCBA 
 305      813673F0 
 305      E9
 306 0a9d CEBAE65B 		.ascii	"\316\272\346[^DJ\233\334\217\324|[\033~\373\361?k/\367"
 306      5E444A9B 
 306      DC8FD47C 
 306      5B1B7EFB 
 306      F13F6B2F 
 307 0ab2 3B9DBB8C 		.ascii	";\235\273\214\334\243I\224\222#t\211\323)\354\2025\035"
 307      DCA34994 
 307      92237489 
 307      D329EC82 
 307      351D
ARM GAS  C:\Users\info\AppData\Local\Temp\ccaerJSn.s 			page 24


 308 0ac4 722A12EB 		.ascii	"r*\022\353N\355Z\230k\035Q\262\226\024\225V\305\343"
 308      4EED5A98 
 308      6B1D51B2 
 308      96149556 
 308      C5E3
 309 0ad6 4B9742DD 		.ascii	"K\227B\335\243B\0253\247C\0125U\205\372\325\242LH\316"
 309      A3421533 
 309      A7430A35 
 309      5585FAD5 
 309      A24C48CE 
 310 0aea FC0F4874 		.ascii	"\374\017Ht\266\223\236\246A$\213\256%\207A\322A\216"
 310      B6939EA6 
 310      41248BAE 
 310      258741D2 
 310      418E
 311 0afc 821C03C9 		.ascii	"\202\034\003\311\0039\010\222\001r\022$\007$\033\344"
 311      03390892 
 311      01721224 
 311      07241BE4 
 312 0b0c 38482E48 		.ascii	"8H.H\001\310!\220\023 \231 \247@\362\251\234%\261\\"
 312      01C82190 
 312      13209920 
 312      A740F2A9 
 312      9C25B15C 
 313 0b20 4D719053 		.ascii	"Mq\220S\315Ab\266\222\246\364e\277J_\204L%Ka\356Sa\212"
 313      CD4162B6 
 313      92A6F465 
 313      BF4A5F84 
 313      4C254B61 
 314 0b38 8D1E53A8 		.ascii	"\215\036S\250{U\250bJS\244\330\232\340N]\234\203\266"
 314      7B55A862 
 314      4A53A4D8 
 314      9AE04E5D 
 314      9C83B6
 315 0b4b 29DC9D6A 		.ascii	")\334\235j\375\022\207\263/\325\017\2630\026zvKl9\310"
 315      FD1287B3 
 315      2FD50FB3 
 315      30167A76 
 315      4B6C39C8 
 316 0b5f 2C4AF1D2 		.ascii	",J\361\322;\204\314j\227\232!bR\376&M8\352\316k\221"
 316      3B84CC6A 
 316      979A2162 
 316      52FE264D 
 316      38EACE6B 
 317 0b74 FD0347DD 		.ascii	"\375\003G\335y1oKTk]d\227)\335\214W\343V\0139\356L\012"
 317      79316F4B 
 317      546B5D64 
 317      9729DD8C 
 317      57E3560B 
 318 0b8c CF7181B3 		.ascii	"\317q\201\263\370\234\177R\324\232\2542\016b\227\336"
 318      F89C7F52 
 318      D49AAC32 
 318      0E6297DE 
 319 0b9c 8A5D4AA3 		.ascii	"\212]J\243\252]\022\307\242ZtX\234\332hl\2242\321\336"
 319      AA5D12C7 
 319      A25A7458 
 319      9CDA686C 
ARM GAS  C:\Users\info\AppData\Local\Temp\ccaerJSn.s 			page 25


 319      9432D1DE 
 320 0bb0 D4A399FE 		.ascii	"\324\243\231\376\364\025\217\005\332\346\307Yu~n\007"
 320      F4158F05 
 320      DAE6C759 
 320      757E6E07 
 321 0bc0 6371799C 		.ascii	"cqy\234\203%\361\207\\\036\350\263\314\226?g>;\013\212"
 321      8325F187 
 321      5C1EE8B3 
 321      CC963F67 
 321      3E3B0B8A 
 322 0bd4 CE50794F 		.ascii	"\316PyOb.\344\366\236:S\260\217,\227\014\254_\322@\315"
 322      622EE4F6 
 322      9E3A53B0 
 322      8F2C970C 
 322      AC5FD240 
 323 0be9 FFBA75A0 		.ascii	"\377\272u\240{W\322\233\235\304-\247;/L[\015)\244\256"
 323      7B57D29B 
 323      9DC42DA7 
 323      3B2F4C5B 
 323      0D29A4AE 
 324 0bfd 9C6EEAC2 		.ascii	"\234n\352\302h\277\007\215[\206\331\307\223\243\015"
 324      68BF078D 
 324      5B86D9C7 
 324      93A30D
 325 0c0c 069A8AA0 		.ascii	"\006\232\212\240\256\363\322]\177\232\313\301\237\236"
 325      AEF3D25D 
 325      7F9ACBC1 
 325      9F9E
 326 0c1a 7B397DD2 		.ascii	"{9}\322@t\306\345n\241\027>F\343j]\220t\023\2646(\210"
 326      4074C6E5 
 326      6EA1173E 
 326      46E36A5D 
 326      907413B4 
 327 0c31 6F67D448 		.ascii	"og\324Hfa\223\024\365\227\270\351/F\375n\243\327\017"
 327      66619314 
 327      F597B8E9 
 327      2F46FD6E 
 327      A3D70F
 328 0c44 9BF46DD8 		.ascii	"\233\364m\330\244I\0078\247L\032\275v\270o\203\276\335"
 328      A4490738 
 328      A74C1ABD 
 328      76B86F83 
 328      BEDD
 329 0c56 01B90DD2 		.ascii	"\001\271\015\322\004\322\010r\015\344[\220z\220:\220"
 329      04D20872 
 329      0DE45B90 
 329      7A903A90 
 330 0c66 AB20B520 		.ascii	"\253 \265 5 \325 U \225 W@*@.\203\224\203\224\272\005"
 330      3520D520 
 330      55209520 
 330      57402A40 
 330      2E839483 
 331 0c7d B8997BC2 		.ascii	"\270\231{\302\344\273\010cX\246L\276A\255\262\236\324"
 331      E4BB0863 
 331      58A64CBE 
 331      41ADB29E 
 331      D4
ARM GAS  C:\Users\info\AppData\Local\Temp\ccaerJSn.s 			page 26


 332 0c8e EDBC203D 		.ascii	"\355\274 =\360\207\267\363\375=y%\017iU\254\024c\346"
 332      F087B7F3 
 332      FD3D7925 
 332      0F6955AC 
 332      1463E6
 333 0ca1 3B853BAC 		.ascii	";\205;\254\306\025\203\333\244\302}\240\306\025v\300"
 333      C61583DB 
 333      A4C27DA0 
 333      C61576C0 
 334 0cb1 0985FA50 		.ascii	"\011\205\372P\215*\304\300q\205\372\330\235\372H\273"
 334      8D2AC4C0 
 334      7185FAD8 
 334      9DFA48BB 
 335 0cc1 700B1C54 		.ascii	"p\013\034T\270O\324\270b\250\350W\270#j\\1\014\335S"
 335      B84FD4B8 
 335      62A8E857 
 335      B8236A5C 
 335      310CDD53 
 336 0cd5 B8A36A5C 		.ascii	"\270\243j\\1Nv)\33415\256\350\335\016\301\006\242\302"
 336      314E7629 
 336      DC3135AE 
 336      E8DD0EC1 
 336      06A2C2
 337 0ce8 15BDDB9E 		.ascii	"\025\275\333\236!\204\302\247R\313r(|\264\320mu\031"
 337      2184C2A7 
 337      52CB7228 
 337      7CB4D06D 
 337      7519
 338 0cfa C279BF54 		.ascii	"\302y\277T\242\313;M\373\242\360^\233!\354L\317\324"
 338      A2CB3B4D 
 338      FBA2F05E 
 338      9B21EC4C 
 338      CFD4
 339 0d0c F942F3D5 		.ascii	"\371B\363\325\367\374\221~\035V\347\233\205tq\257\021"
 339      F7FC917E 
 339      1D56E79B 
 339      857471AF 
 339      11
 340 0d1d 97ED4DBA 		.ascii	"\227\355M\272Z!\335\202I~\003\236\306H\267\024M#p2\330"
 340      5A21DD82 
 340      497E039E 
 340      C648B714 
 340      4D237032 
 341 0d32 C271C639 		.ascii	"\302q\3069\327h\271\313\\\235\327\260\007\330\327{T"
 341      D768B9CB 
 341      5C9DD7B0 
 341      07D8D77B 
 341      54
 342 0d43 A7E13F08 		.ascii	"\247\341?\010\340!\343\035\204\014\214\254'[>e\221\225"
 342      E021E31D 
 342      840C8CAC 
 342      275B3E65 
 342      9195
 343 0d55 593AA564 		.ascii	"Y:\245d\3737x\320\300\336T\212\275y\257\336\033\241"
 343      FB3778D0 
 343      C0DE548A 
 343      BD79AFDE 
ARM GAS  C:\Users\info\AppData\Local\Temp\ccaerJSn.s 			page 27


 343      1BA1
 344 0d67 F397EF19 		.ascii	"\363\227\357\031\235\373\315\234<\275\220\254\262q*"
 344      9DFBCD9C 
 344      3CBD90AC 
 344      B2712A
 345 0d76 EC0FEA6C 		.ascii	"\354\017\352l\361\305K\306\012\264\344.\320g\026\322"
 345      F1C54BC6 
 345      0AB4E42E 
 345      D06716D2 
 346 0d86 BF50776B 		.ascii	"\277Pwk\213\350\326Vpk\263\252[[\334\334\332\254\346"
 346      8BE8D656 
 346      706BB3AA 
 346      5B5BDCDC 
 346      DAACE6
 347 0d99 D60137B7 		.ascii	"\326\0017\267\266p\267\026q\267\242+\213SV2W2\343\346"
 347      B670B716 
 347      71B7A22B 
 347      8B535632 
 347      5732E3E6 
 348 0dad 1457360B 		.ascii	"\024W6\013\256,\316\370\011v\0006\005\362Q\265\003\033"
 348      AE2CCEF8 
 348      09760036 
 348      05F251B5 
 348      031B
 349 0dbf 9544E178 		.ascii	"\225D\341x\006O\024\312\334\023\005\254;\234\362cV\307"
 349      064F14CA 
 349      DC1305AC 
 349      3B9CF263 
 349      56C7
 350 0dd1 42FD2565 		.ascii	"B\375%eC,sm\210Em\345\261\276\364\034\356.\205\315\267"
 350      432C736D 
 350      88456DE5 
 350      B1BEF41C 
 350      EE2E85CD 
 351 0de6 FAA5B731 		.ascii	"\372\245\2671\273\331+\342\3023\003#^\322\027\256\354"
 351      BBD92BE2 
 351      C2330323 
 351      5ED217AE 
 351      EC
 352 0df7 6BC2C1EE 		.ascii	"k\302\301\356\023#~\3642\222\333\337\217\355\"\264\211"
 352      13237EF4 
 352      3292DBDF 
 352      8FED22B4 
 352      89
 353 0e08 83BF39F8 		.ascii	"\203\2779\370\340E\267\037q\333\207\330&d\\\2601a\005"
 353      E045B71F 
 353      71DB87D8 
 353      26645CB0 
 353      316105
 354 0e1b DBAF708B 		.ascii	"\333\257p\2132\006\005\361\233 (`\033U\020\236\031:"
 354      320605F1 
 354      9B202860 
 354      1B55109E 
 354      193A
 355 0e2d 0F06DFC8 		.ascii	"\017\006\337\310\335\305\206\273\011\226]#t\277W\354"
 355      DDC586BB 
 355      09965D23 
ARM GAS  C:\Users\info\AppData\Local\Temp\ccaerJSn.s 			page 28


 355      74BF57EC 
 356 0e3d FE756595 		.ascii	"\376ue\225\272m\002\3354\220tQ tR|\202m\002\207uA$C"
 356      BA6D02DD 
 356      34907451 
 356      2074527C 
 356      826D0287 
 357 0e55 071B37C8 		.ascii	"\007\0337\310\034\004\361\373 \263 3 \037@\246A\336"
 357      1C04F1FB 
 357      20B32033 
 357      201F40A6 
 357      41DE
 358 0e67 834C81BC 		.ascii	"\203L\201\274\003y\0132\011\362\006d\002\3445\3108\310"
 358      03790B32 
 358      09F20664 
 358      02E435C8 
 358      38C8
 359 0e79 2B909720 		.ascii	"+\220\227 /@\236\203|\017\362\030\344\021\310C\220\007"
 359      2F409E83 
 359      7C0FF218 
 359      E411C843 
 359      9007
 360 0e8b 20C32043 		.ascii	" \303 C \203 \003 \375 } \337\271m\034C\342\006wO2U"
 360      20832003 
 360      20FD207D 
 360      20DFB96D 
 360      1C43E206 
 361 0ea3 0A58358B 		.ascii	"\012X5\213\276\027\022\202\346U\242\302\255U\017\204"
 361      BE171282 
 361      E655A2C2 
 361      AD550F84 
 362 0eb3 F56A5CF1 		.ascii	"\365j\\\361ur]\206\360\222\364[5v\225\300\256\272'\177"
 362      75725D86 
 362      F092F45B 
 362      357695C0 
 362      AEBA277F 
 363 0ec7 4573478D 		.ascii	"EsG\215+~[wE\3416\253q\305p\\!\372\242E\215-lwEJ\367"
 363      2B7E5B77 
 363      45E136AB 
 363      71C5705C 
 363      21FAA245 
 364 0ee2 5AD5A8C2 		.ascii	"Z\325\250\302W\255\231\031+w\3620\317\276\035\351\224"
 364      57AD9919 
 364      2B77F230 
 364      CFBE1DE9 
 364      94
 365 0ef3 C872A6D7 		.ascii	"\310r\246\327\266\220~8c\325N\276\334\330\213\323Ti"
 365      B6907E38 
 365      63D54EBE 
 365      DCD88BD3 
 365      5469
 366 0f05 BEC9AF48 		.ascii	"\276\311\257H\367-\334\025\322\357\375\030W\347\023"
 366      F72DDC15 
 366      D2EFFD18 
 366      57E713
 367 0f14 589DC50B 		.ascii	"X\235\305\013\247g\221V=\276\214\212\361%\023\246\345"
 367      A7679156 
 367      3DBE8C8A 
ARM GAS  C:\Users\info\AppData\Local\Temp\ccaerJSn.s 			page 29


 367      F12513A6 
 367      E5
 368 0f25 886A7C19 		.ascii	"\210j|\031u\213/#j\361\245\314-\276\214\362\3702&\207"
 368      758B2F23 
 368      6AF1A5CC 
 368      2DBE8CF2 
 368      F8322687 
 369 0f39 EDA794BF 		.ascii	"\355\247\224\2777\021\333|\346\226\350=UI\364\344\265"
 369      3711DB7C 
 369      E696E83D 
 369      5549F4E4 
 369      B5
 370 0f4a 73040CFB 		.ascii	"s\004\014\373\377\273v\346\016.\330\217U</\014\324\233"
 370      FFBB76E6 
 370      0E2ED88F 
 370      553C2F0C 
 370      D49B
 371 0f5c 4EE1057C 		.ascii	"N\341\005|\271\326m\316\224-\3129\306;\371\374\342\277"
 371      B9D66DCE 
 371      942DCA39 
 371      C63BF9FC 
 371      E2BF
 372 0f6e 2D52E38A 		.ascii	"-R\343\2129\307\240\302\255P\343\212\223\274_\341^Q"
 372      39C7A0C2 
 372      AD50E38A 
 372      93BC5FE1 
 372      5E51
 373 0f80 E30A53BC 		.ascii	"\343\012S\274K\241V\252Q\205\276u(\324jwj\325\242\214"
 373      4BA156AA 
 373      5185BE75 
 373      28D46A77 
 373      6AD5A28C 
 374 0f94 AE4DE1D6 		.ascii	"\256M\341\326\250q\305 rU\341\326"
 374      A871C520 
 374      7255E1D6 
 375 0fa0 AA71C58C 		.ascii	"\252q\305\214\256L\341^U\343\272\375DA\341\326\251q"
 375      AE4CE15E 
 375      55E3BAFD 
 375      4441E1D6 
 375      A971
 376 0fb2 DDDE3128 		.ascii	"\335\3361(\334z5\256\350\335,\205\373\255\032W\360\356"
 376      DC7A35AE 
 376      E8DD2C85 
 376      FBAD1A57 
 376      F0EE
 377 0fc4 C70E997A 		.ascii	"\307\016\231zM\215*xwV\241\336p\247^_\344\335\017\012"
 377      4D8D2A78 
 377      7756A1DE 
 377      70A75E5F 
 377      E4DD0F0A 
 378 0fd8 F7A61A57 		.ascii	"\367\246\032W\364\356[\361h\335\240\306\026\375;\241"
 378      F4EE5BF1 
 378      68DDA0C6 
 378      16FD3BA1 
 379 0fe8 BC2DB8A5 		.ascii	"\274-\270\245\306\025\375\333\227\266\022\227\306GX"
 379      C615FDDB 
 379      97B61297 
ARM GAS  C:\Users\info\AppData\Local\Temp\ccaerJSn.s 			page 30


 379      C64758
 380 0ff7 FF77162E 		.ascii	"\377w\026.\215\333K\004\245"
 380      8DDB4B04 
 380      A5
 381 1000 79B7C8F0 		.ascii	"y\267\310\360\321-2H\347c\010\203\355\354hu\000\242"
 381      D12D3248 
 381      E7630883 
 381      EDEC6875 
 381      00A2
 382 1012 C14E9D74 		.ascii	"\301N\235t>\336\015!!\026\304\251\023\227\347\345\016"
 382      3EDE0D21 
 382      2116C4A9 
 382      1397E7E5 
 382      0E
 383 1023 9EA4EDD5 		.ascii	"\236\244\355\325\031I'X\300\330jI\232\373\013\002W\373"
 383      19492758 
 383      C0D86A49 
 383      9AFB0B02 
 383      57FB
 384 1035 6DD2132C 		.ascii	"m\322\023,\362$\203.u\025\345\035\177\214\335\214\003"
 384      F224832E 
 384      7515E51D 
 384      7F8CDD8C 
 384      03
 385 1046 2577172A 		.ascii	"%w\027*Y\"\265K\320\011\2417\021\332\216\327\251\205"
 385      5922B54B 
 385      D009A137 
 385      11DA8ED7 
 385      A985
 386 1058 5E91A611 		.ascii	"^\221\246\0218B\350\375\365J!\362\002\037\376\357\322"
 386      3842E8FD 
 386      F54A21F2 
 386      021FFEEF 
 386      D2
 387 1069 2D88BC98 		.ascii	"-\210\274\230x\015$\257`\211\0273\263YI\362\240Q%KM"
 387      780D24AF 
 387      60891733 
 387      B35949F2 
 387      A051254B 
 388 107e 93B6913D 		.ascii	"\223\266\221=\300iQ\355\312\306\037\354I\222[OPm\037"
 388      C06951ED 
 388      CAC61FEC 
 388      49925B4F 
 388      506D1F
 389 1091 AA654DB6 		.ascii	"\252eM\266.T+%\362i<[\004eb\266(*I\021\225\354\007%"
 389      2E542B25 
 389      F2693C5B 
 389      046562B6 
 389      282A4911 
 390 10a9 FB54DD95 		.ascii	"\373T\335\225\342\346\256}\277\327])\334]\251n\356\352"
 390      E2E6AE7D 
 390      BFD75D29 
 390      DC5DA96E 
 390      EEEA
 391 10bb 91CF1743 		.ascii	"\221\317\027Ch8\233;\367\025\303\367\011\206\367\334"
 391      68389B3B 
 391      F715C3F7 
ARM GAS  C:\Users\info\AppData\Local\Temp\ccaerJSn.s 			page 31


 391      0986F7DC 
 392 10cb F90963A4 		.ascii	"\371\011c\244\201\227z\025\006\353\307RSJ\230\262?0"
 392      81977A15 
 392      06EBC752 
 392      534A98B2 
 392      3F30
 393 10dd A57AD3A4 		.ascii	"\245z\323\244)u\010t\177\247\276r\026\015\204\233\217"
 393      29750874 
 393      7FA7BE72 
 393      160D849B 
 393      8F
 394 10ee D2DD7C84 		.ascii	"\322\335|\204\326\276\306\376\2606\373\026\366\007\263"
 394      D6BEC6FE 
 394      B036FB16 
 394      F607B3
 395 10fd 8E9E345F 		.ascii	"\216\2364_\314:Xr> \351\225\337d,L\362;q\330z\325\222"
 395      CC3A5872 
 395      3E20E995 
 395      DF642C4C 
 395      F23B71D8 
 396 1114 FCEE649E 		.ascii	"\374\356d\236\344\263m\276GI\362{y\222\217\214\332\216"
 396      E4B36DBE 
 396      4749F27B 
 396      79928F8C 
 396      DA8E
 397 1126 558CC112 		.ascii	"U\214\301\022\226\022\305\232\021\276\336\3317{C#\257"
 397      9612C59A 
 397      11BEDED9 
 397      377B4323 
 397      AF
 398 1137 F0CB1436 		.ascii	"\360\313\0246(W\360G\264\3035qM\272\325K\215\346Q>\232"
 398      2857F047 
 398      B4C33571 
 398      4DBAD54B 
 398      8DE6513E 
 399 114c 597C3481 		.ascii	"Y|4\201\3748k\270\330\343\263lgv\221s\270=\377\233\307"
 399      FC386BB8 
 399      D8E3B36C 
 399      67769173 
 399      B83DFF9B 
 400 1161 254E6702 		.ascii	"%Ng\002<\247c<rF\371q\"\334\262K\001\351#\032rL\367"
 400      3CA7633C 
 400      7246F971 
 400      22DCB24B 
 400      01E9231A 
 401 1178 193C9A93 		.ascii	"\031<\232\223\334z\305\227>\303c\305\357\3771\360\011"
 401      DC7AC597 
 401      3EC363C5 
 401      EFFF31F0 
 401      09
 402 1189 1D16F614 		.ascii	"\035\026\366\024\336\362\227M>)\025\336h\236X\332\344"
 402      DEF2974D 
 402      3E2915DE 
 402      689E58DA 
 402      E4
 403 119a 53DCE46C 		.ascii	"S\334\344l\227\311I\331\325\025>`\362\260\3239\334q"
 403      97C949D9 
ARM GAS  C:\Users\info\AppData\Local\Temp\ccaerJSn.s 			page 32


 403      D5153E60 
 403      F2B0D339 
 403      DC71
 404 11ac 30E26C89 		.ascii	"0\342l\2113\336\203q\310q\235l.\334r?\223\034n\352\233"
 404      33DE8371 
 404      C8719D6C 
 404      2EDC723F 
 404      931C6EEA 
 405 11c1 89892242 		.ascii	"\211\211\"B\247\271\251\332\201\271\204b_\365\037\325"
 405      A7B9A9DA 
 405      81B98462 
 405      5FF51FD5 
 406 11d1 E6E996F8 		.ascii	"\346\351\226\370Qm}5N\213\323:\003\311U\3244\362\237"
 406      516D7D35 
 406      4E8BD33A 
 406      03C955D4 
 406      34F29F
 407 11e4 6CB25238 		.ascii	"l\262R8\020f'\336{\344G\014\201\004\036$\370+\230X\241"
 407      106627DE 
 407      7BE4470C 
 407      81041E24 
 407      F82B9858 
 408 11f9 710DC9D7 		.ascii	"q\015\311\327\031\230'u\201\244@\027\250\311r\002g\374"
 408      19982775 
 408      81A44017 
 408      A8C97202 
 408      67FC
 409 120b 77BC340B 		.ascii	"w\2744\013\232fW\366\217}q\226\021\177D\357\366\312"
 409      9A6657F6 
 409      8F7D7196 
 409      117F44EF 
 409      F6CA
 410 121d F194DB9A 		.ascii	"\361\224\333\232=\313g#^}\2437m\371\322\364w6\363\366"
 410      3DCB6723 
 410      5E7DA337 
 410      6DF9D2F4 
 410      7736F3F6 
 411 1231 7F0E8BB0 		.ascii	"\177\016\213\260\352\377\341_~\265\346o7n\324x\233L"
 411      EAFFE15F 
 411      7EB5E66F 
 411      376ED478 
 411      9B4C
 412 1243 D161118E 		.ascii	"\321a\021\216M&\307Nb\371\353\340([\344\026\233y\333"
 412      4D26C74E 
 412      62F9EBE0 
 412      285BE416 
 412      9B79DB
 413 1256 9ACD61E1 		.ascii	"\232\315a\341V\373\232\240\230M\277\370i\260eG\224\315"
 413      56FB9AA0 
 413      984DBFF8 
 413      69B06547 
 413      94CD
 414 1268 6AB70747 		.ascii	"j\267\007G\331#-k,6\253\331\021i\013\376\371\372/\335"
 414      D9232D6B 
 414      2C36ABD9 
 414      11690BFE 
 414      F9FA2FDD 
ARM GAS  C:\Users\info\AppData\Local\Temp\ccaerJSn.s 			page 33


 415 127c 0BC2B645 		.ascii	"\013\302\266EE\332\034\301[\"\242\203\315\266m\301\177"
 415      45DA1CC1 
 415      5B22A283 
 415      CDB66DC1 
 415      7F
 416 128d B1FEE7EB 		.ascii	"\261\376\347\3537\262\273\237EDFX\177f5\207\204\005"
 416      37B2BB9F 
 416      45444658 
 416      7F663587 
 416      8405
 417 129f 874558C2 		.ascii	"\207EX\302\243C\255\301\333\314\226\255`C\260)\324\272"
 417      A343ADC1 
 417      DBCC96AD 
 417      6043B029 
 417      D4BA
 418 12b1 D91C1DEE 		.ascii	"\331\034\035\35609vDY\355\353\267j\274$S\276\376\277"
 418      30397644 
 418      59EDEBB7 
 418      6ABC2453 
 418      BEFEBF
 419 12c4 B2C4BEC3 		.ascii	"\262\304\276\303\036l\262;BA-\250\367\341.b6\230\034"
 419      1E6CB23B 
 419      42412DA8 
 419      F7E12E62 
 419      36981C
 420 12d7 2BD6AF0F 		.ascii	"+\326\257\017\346\320b\267Y\370\035\020\014\241\340"
 420      E6D062B7 
 420      59F81D10 
 420      0CA1E0
 421 12e6 3E932532 		.ascii	">\223%2<\322\266<$\314\261\315\034er\330\314\021\366"
 421      3CD2B63C 
 421      24CCB1CD 
 421      1C6572D8 
 421      CC11F6
 422 12f9 28B3CD1A 		.ascii	"(\263\315\032a\331\341\267%|G\324VS\214)r\363f\273\325"
 422      61D9E1B7 
 422      257C47D4 
 422      56538C29 
 422      72F366BB 
 423 130e A13799B0 		.ascii	"\2417\231\260;\236xY\2669\022Z\266Y7C\277\355\026k\204"
 423      3B9E7859 
 423      B639125A 
 423      B6593743 
 423      BFED166B 
 424 1323 C35F2E30 		.ascii	"\303_.0s\214\204\255\326\260-[\035\246m\221\241\326"
 424      738C84AD 
 424      D6B02D5B 
 424      1DA66D91 
 424      A1D6
 425 1335 35617653 		.ascii	"5avS\224y\213\325d\011\017\2132m\017\213\010\215\334"
 425      94798BD5 
 425      64090F8B 
 425      326D0F8B 
 425      088DDC
 426 1348 CEDAB4DA 		.ascii	"\316\332\264\332\354V\213#,2\302\233?\021\026\2619\362"
 426      EC568B23 
 426      2C32C29B 
ARM GAS  C:\Users\info\AppData\Local\Temp\ccaerJSn.s 			page 34


 426      3F1116B1 
 426      39F2
 427 135a 13BBC36C 		.ascii	"\023\273\303ls\230\242\"\355\246\360\310\355V\233\311"
 427      7398A222 
 427      EDA6F0C8 
 427      ED569BC9 
 428 136a 6CC091DD 		.ascii	"l\300\221\335\370\013\223C\357\272\021X\321QQ\300\372"
 428      F80B9343 
 428      EFBA1158 
 428      D15151C0 
 428      FA
 429 137b A551B205 		.ascii	"\245Q\262\005\364\330\314>f\345\336\333U\261E/\225\376"
 429      F4D8CC3E 
 429      66E5DEDB 
 429      55B1452F 
 429      95FE
 430 138d 52BFC3D5 		.ascii	"R\277\303\3253W\027\375\267\231cL\226\255f\233d\265"
 430      335717FD 
 430      B799634C 
 430      96AD669B 
 430      64B5
 431 139f 9F8CB787 		.ascii	"\237\214\267\207\205:\266.\003'A\017@O\2505\334a6\305"
 431      853AB62E 
 431      0327410F 
 431      404FA835 
 431      DC6136C5 
 432 13b3 F8CB059C 		.ascii	"\370\313\005\234\264c\001\216Y\341\216\261\321\345\356"
 432      B463018E 
 432      59E18EB1 
 432      D1E5EE
 433 13c2 85BC6583 		.ascii	"\205\274e\203\\\266Q\271\335\240\017\011\211\341\216"
 433      5CB651B9 
 433      DDA00F09 
 433      89E18E
 434 13d1 F3C691B0 		.ascii	"\363\306\221\260D8>1\361Q\224\375\344\356\203\2100\013"
 434      44383E31 
 434      F15194FD 
 434      E4EE8388 
 434      300B
 435 13e3 B0972DA4 		.ascii	"\260\227-\244\370\360\373P+\253\324\207l\301\021\327"
 435      F8F0FB50 
 435      2BABD487 
 435      6CC111D7 
 436 13f3 6F966EFC 		.ascii	"o\226n\374`T\224aw\370!\317\004f\260F\215\250\032M\367"
 436      60549461 
 436      77F821CF 
 436      0466B046 
 436      8DA81A4D 
 437 1408 41C04D26 		.ascii	"A\300M&;H\214\036To\261:L;\\71\006\351\351(\207m\271"
 437      3B488C1E 
 437      546FB13A 
 437      4C3B5C37 
 437      3106E9E9 
 438 1420 60AA54EA 		.ascii	"`\252T\352\240\241a\266\200\305\305~\034Y\314\341\026"
 438      A0A161B6 
 438      80C5C57E 
 438      1C59CCE1 
ARM GAS  C:\Users\info\AppData\Local\Temp\ccaerJSn.s 			page 35


 438      16
 439 1431 D3D7307F 		.ascii	"\323\3270\177~\2440\3442\323\346\010hS\307\012\275\370"
 439      7EA430E4 
 439      32D3E608 
 439      6853C70A 
 439      BDF8
 440 1443 F4D9B151 		.ascii	"\364\331\261Q\272n\300k\214\204c6xE\333\301{P\217W\011"
 440      BA6EC06B 
 440      8C846336 
 440      7845DBC1 
 440      7B508F57 
 441 1458 C7483866 		.ascii	"\307H8f\203'v\306\203w\3033$z3p\361\262\301/*,\306\032"
 441      832776C6 
 441      8377C333 
 441      247A3370 
 441      F1B2C12F 
 442 1470 6EB244DB 		.ascii	"n\262D\333l&[\344\366e\010Y\035>\343\257\024\360\247"
 442      6C265BE4 
 442      F6650859 
 442      1D3EE3AF 
 442      14F0A7
 443 1483 7D1DB09C 		.ascii	"}\035\260\234e\272?G\012\333(c0]k\011\361\217\216\012"
 443      65BA3F47 
 443      0ADB2863 
 443      305D6B09 
 443      F18F8E0A 
 444 1497 353BACB8 		.ascii	"5;\254\270\006`\372\257\302\005\352^h\262\204,\223\212"
 444      0660FAAF 
 444      C205EA5E 
 444      68B2842C 
 444      938A
 445 14a9 42C3B659 		.ascii	"B\303\266Y#\354\260.V\213D\271\024\230~\270\246C`\321"
 445      23ECB02E 
 445      568B44B9 
 445      14987EB8 
 445      A64360D1 
 446 14bd DBA22D0E 		.ascii	"\333\242-\016=_\320\341\177\265\001\247\200\013\001"
 446      3D5FD0E1 
 446      7FB501A7 
 446      800B01
 447 14cc C1DB4574 		.ascii	"\301\333Etx\207\207\233\266~\035\016\001k\245@r\225"
 447      7887879B 
 447      B67E1D0E 
 447      016BA540 
 447      7295
 448 14de 014517BD 		.ascii	"\001E\027\275)f\023\314\202\220\310\350\010\213\025"
 448      296613CC 
 448      8290C8E8 
 448      088B15
 449 14ed 5A06A5AB 		.ascii	"Z\006\245\253d\030n\266\303\274\0003y\371\037\311\345"
 449      64186EB6 
 449      C3BC0033 
 449      79F91FC9 
 449      E5
 450 14fe AED82757 		.ascii	"\256\330'W\371l\211\012\213\204h`\207RC\264c\363&,\206"
 450      F96C890A 
 450      8B846860 
ARM GAS  C:\Users\info\AppData\Local\Temp\ccaerJSn.s 			page 36


 450      875243B4 
 450      63F3262C 
 451 1513 86BF0E03 		.ascii	"\206\277\016\003\27694\224\305>\237\260/-&>\203\255"
 451      BE393494 
 451      C53E9FB0 
 451      2F2D263E 
 451      83AD
 452 1525 A1FC5E2A 		.ascii	"\241\374^*_\001\223R\232\301_\263\360\300\227\201\036"
 452      5F019352 
 452      9AC15FB3 
 452      F0C09781 
 452      1E
 453 1536 A2522404 		.ascii	"\242R$\004\267-\336!\321v\010\"\221\226\337JQ\341\253"
 453      B72DDE21 
 453      D1760822 
 453      9196DF4A 
 453      51E1AB
 454 1549 2FA5A8C0 		.ascii	"/\245\250\300n>\341\232\315\021\241l\231\232w@\227|"
 454      6E3EE19A 
 454      CD11A16C 
 454      999A7740 
 454      977C
 455 155b 58974CDB 		.ascii	"X\227L\333\3540\343C\274Bv8X7=-\346P\270\030B\303\354"
 455      EC30E343 
 455      BC427638 
 455      58373D2D 
 455      E650B818 
 456 1572 51C8F28A 		.ascii	"Q\310\362\212\260\306\300\214\0131r6_\234\000\\\365"
 456      B0C6C08C 
 456      0B317236 
 456      5F9C005C 
 456      F5
 457 1583 6C29F9E0 		.ascii	"l)\371\340\360\363\241\377d3\3146f\225\034 \227\271"
 457      F0F3A1FF 
 457      6433CC36 
 457      66951C20 
 457      97B9
 458 1595 7CE02AF0 		.ascii	"|\340*\360\341\343\217s\301\300\357\371\223+\266\333"
 458      E1E38F73 
 458      C1C0EFF9 
 458      932BB6DB 
 459 15a5 C2D88047 		.ascii	"\302\330\200G\207\333\245\022S\204=\000\306\326l\202"
 459      87DBA512 
 459      53843D00 
 459      C6D66C82 
 460 15b5 87A22108 		.ascii	"\207\242!\010\303\010C\321\012\346\017\271\247\246\215"
 460      C30843D1 
 460      0AE60FB9 
 460      A7A68D
 461 15c4 1B36FCF6 		.ascii	"\0336\374\366\037\277\321\333\243\302\2703\214v(\303"
 461      1FBFD1DB 
 461      A3C2B833 
 461      8C7628C3 
 462 15d4 9AADDF04 		.ascii	"\232\255\337\0040\340\336\340'\366\320\005\355\005\300"
 462      30E0DEE0 
 462      27F6D005 
 462      ED05C0
ARM GAS  C:\Users\info\AppData\Local\Temp\ccaerJSn.s 			page 37


 463 15e3 7266F119 		.ascii	"rf\361\031\012M\333\315\260\274\267\331W \022\237\334"
 463      0A4DDBCD 
 463      B0BCB7D9 
 463      5720129F 
 463      DC
 464 15f4 665F0DBB 		.ascii	"f_\015\273\022t\037\326\022\364\335\034\302\314f\354"
 464      12741FD6 
 464      12F4DD1C 
 464      C2CC66EC 
 465 1604 08A8600D 		.ascii	"\010\250`\015\360\032k\204X\021\340\306\016\267~m\015"
 465      F01A6B84 
 465      5811E0C6 
 465      0EB77E6D 
 465      0D
 466 1615 FF44A4F1 		.ascii	"\377D\244\361\222\325\334\255\242;\245YkD\257\242\237"
 466      92D5DCAD 
 466      A23BA559 
 466      6B44AFA2 
 466      9F
 467 1626 166E5431 		.ascii	"\026nT1\233`\243Z\276\370Q\007\216)\266\260\\\236\206"
 467      9B60A35A 
 467      BEF85107 
 467      8E29B6B0 
 467      5C9E86
 468 1639 38DFD850 		.ascii	"8\337\330P{\362z\007n\202H\013\200Ie\216vD\2726!\253"
 468      7BF27A07 
 468      6E82480B 
 468      8049658E 
 468      7644BA36 
 469 164f D9E6C9AB 		.ascii	"\331\346\311\253\035?Z\264=\232\330jXo\321\370\311y"
 469      1D3F5AB4 
 469      3D9AD86A 
 469      586FD1F8 
 469      C979
 470 1661 C6BF312B 		.ascii	"\306\2771+\015\034\362-\365\277\000f\216b\301"
 470      0D1CF22D 
 470      F5BF0066 
 470      8E62C1
 471              		.text
 472              		.section	.gnu.lto_.symtab.bf14cc60,"",%progbits
 473 0000 75386732 		.ascii	"u8g2_DrawLine\000"
 473      5F447261 
 473      774C696E 
 473      6500
 474 000e 00       		.ascii	"\000"
 475 000f 00       		.ascii	"\000"
 476 0010 00       		.ascii	"\000"
 477 0011 00000000 		.ascii	"\000\000\000\000\000\000\000\000"
 477      00000000 
 478 0019 1C020000 		.ascii	"\034\002\000\000"
 479 001d 75386732 		.ascii	"u8g2_DrawPixel\000"
 479      5F447261 
 479      77506978 
 479      656C00
 480 002c 00       		.ascii	"\000"
 481 002d 02       		.ascii	"\002"
 482 002e 00       		.ascii	"\000"
ARM GAS  C:\Users\info\AppData\Local\Temp\ccaerJSn.s 			page 38


 483 002f 00000000 		.ascii	"\000\000\000\000\000\000\000\000"
 483      00000000 
 484 0037 22020000 		.ascii	"\"\002\000\000"
 485              		.text
 486              		.section	.gnu.lto_.opts,"",%progbits
 487 0000 272D666D 		.ascii	"'-fmath-errno' '-fsigned-zeros' '-ftrapping-math' '"
 487      6174682D 
 487      6572726E 
 487      6F272027 
 487      2D667369 
 488 0033 2D666E6F 		.ascii	"-fno-trapv' '-fno-openmp' '-fno-openacc' '-mcpu=cor"
 488      2D747261 
 488      70762720 
 488      272D666E 
 488      6F2D6F70 
 489 0066 7465782D 		.ascii	"tex-m3' '-mthumb' '-g' '-Os' '-ffunction-sections' "
 489      6D332720 
 489      272D6D74 
 489      68756D62 
 489      2720272D 
 490 0099 272D6666 		.ascii	"'-ffat-lto-objects' '-flto'\000"
 490      61742D6C 
 490      746F2D6F 
 490      626A6563 
 490      74732720 
 491              		.text
 492              		.cfi_sections	.debug_frame
 493              		.section	.text.u8g2_DrawLine,"ax",%progbits
 494              		.align	1
 495              		.global	u8g2_DrawLine
 496              		.thumb
 497              		.thumb_func
 498              		.type	u8g2_DrawLine, %function
 499              	u8g2_DrawLine:
 500              	.LFB0:
 501              		.file 1 "..\\u8g2_csrc\\u8g2_line.c"
   1:..\u8g2_csrc/u8g2_line.c **** /*
   2:..\u8g2_csrc/u8g2_line.c **** 
   3:..\u8g2_csrc/u8g2_line.c ****   u8g2_box.c
   4:..\u8g2_csrc/u8g2_line.c **** 
   5:..\u8g2_csrc/u8g2_line.c ****   Universal 8bit Graphics Library (https://github.com/olikraus/u8g2/)
   6:..\u8g2_csrc/u8g2_line.c **** 
   7:..\u8g2_csrc/u8g2_line.c ****   Copyright (c) 2016, olikraus@gmail.com
   8:..\u8g2_csrc/u8g2_line.c ****   All rights reserved.
   9:..\u8g2_csrc/u8g2_line.c **** 
  10:..\u8g2_csrc/u8g2_line.c ****   Redistribution and use in source and binary forms, with or without modification, 
  11:..\u8g2_csrc/u8g2_line.c ****   are permitted provided that the following conditions are met:
  12:..\u8g2_csrc/u8g2_line.c **** 
  13:..\u8g2_csrc/u8g2_line.c ****   * Redistributions of source code must retain the above copyright notice, this list 
  14:..\u8g2_csrc/u8g2_line.c ****     of conditions and the following disclaimer.
  15:..\u8g2_csrc/u8g2_line.c ****     
  16:..\u8g2_csrc/u8g2_line.c ****   * Redistributions in binary form must reproduce the above copyright notice, this 
  17:..\u8g2_csrc/u8g2_line.c ****     list of conditions and the following disclaimer in the documentation and/or other 
  18:..\u8g2_csrc/u8g2_line.c ****     materials provided with the distribution.
  19:..\u8g2_csrc/u8g2_line.c **** 
  20:..\u8g2_csrc/u8g2_line.c ****   THIS SOFTWARE IS PROVIDED BY THE COPYRIGHT HOLDERS AND 
  21:..\u8g2_csrc/u8g2_line.c ****   CONTRIBUTORS "AS IS" AND ANY EXPRESS OR IMPLIED WARRANTIES, 
ARM GAS  C:\Users\info\AppData\Local\Temp\ccaerJSn.s 			page 39


  22:..\u8g2_csrc/u8g2_line.c ****   INCLUDING, BUT NOT LIMITED TO, THE IMPLIED WARRANTIES OF 
  23:..\u8g2_csrc/u8g2_line.c ****   MERCHANTABILITY AND FITNESS FOR A PARTICULAR PURPOSE ARE 
  24:..\u8g2_csrc/u8g2_line.c ****   DISCLAIMED. IN NO EVENT SHALL THE COPYRIGHT HOLDER OR 
  25:..\u8g2_csrc/u8g2_line.c ****   CONTRIBUTORS BE LIABLE FOR ANY DIRECT, INDIRECT, INCIDENTAL, 
  26:..\u8g2_csrc/u8g2_line.c ****   SPECIAL, EXEMPLARY, OR CONSEQUENTIAL DAMAGES (INCLUDING, BUT 
  27:..\u8g2_csrc/u8g2_line.c ****   NOT LIMITED TO, PROCUREMENT OF SUBSTITUTE GOODS OR SERVICES; 
  28:..\u8g2_csrc/u8g2_line.c ****   LOSS OF USE, DATA, OR PROFITS; OR BUSINESS INTERRUPTION) HOWEVER 
  29:..\u8g2_csrc/u8g2_line.c ****   CAUSED AND ON ANY THEORY OF LIABILITY, WHETHER IN CONTRACT, 
  30:..\u8g2_csrc/u8g2_line.c ****   STRICT LIABILITY, OR TORT (INCLUDING NEGLIGENCE OR OTHERWISE) 
  31:..\u8g2_csrc/u8g2_line.c ****   ARISING IN ANY WAY OUT OF THE USE OF THIS SOFTWARE, EVEN IF 
  32:..\u8g2_csrc/u8g2_line.c ****   ADVISED OF THE POSSIBILITY OF SUCH DAMAGE.  
  33:..\u8g2_csrc/u8g2_line.c **** 
  34:..\u8g2_csrc/u8g2_line.c **** */
  35:..\u8g2_csrc/u8g2_line.c **** 
  36:..\u8g2_csrc/u8g2_line.c **** #include "u8g2.h"
  37:..\u8g2_csrc/u8g2_line.c **** 
  38:..\u8g2_csrc/u8g2_line.c **** 
  39:..\u8g2_csrc/u8g2_line.c **** void u8g2_DrawLine(u8g2_t *u8g2, u8g2_uint_t x1, u8g2_uint_t y1, u8g2_uint_t x2, u8g2_uint_t y2)
  40:..\u8g2_csrc/u8g2_line.c **** {
 502              		.loc 1 40 0
 503              		.cfi_startproc
 504              		@ args = 4, pretend = 0, frame = 8
 505              		@ frame_needed = 0, uses_anonymous_args = 0
 506              	.LVL0:
 507 0000 2DE9F74F 		push	{r0, r1, r2, r4, r5, r6, r7, r8, r9, r10, fp, lr}
 508              		.cfi_def_cfa_offset 48
 509              		.cfi_offset 4, -36
 510              		.cfi_offset 5, -32
 511              		.cfi_offset 6, -28
 512              		.cfi_offset 7, -24
 513              		.cfi_offset 8, -20
 514              		.cfi_offset 9, -16
 515              		.cfi_offset 10, -12
 516              		.cfi_offset 11, -8
 517              		.cfi_offset 14, -4
 518              		.loc 1 40 0
 519 0004 1D46     		mov	r5, r3
 520 0006 9DF83030 		ldrb	r3, [sp, #48]	@ zero_extendqisi2
 521              	.LVL1:
  41:..\u8g2_csrc/u8g2_line.c ****   u8g2_uint_t tmp;
  42:..\u8g2_csrc/u8g2_line.c ****   u8g2_uint_t x,y;
  43:..\u8g2_csrc/u8g2_line.c ****   u8g2_uint_t dx, dy;
  44:..\u8g2_csrc/u8g2_line.c ****   u8g2_int_t err;
  45:..\u8g2_csrc/u8g2_line.c ****   u8g2_int_t ystep;
  46:..\u8g2_csrc/u8g2_line.c **** 
  47:..\u8g2_csrc/u8g2_line.c ****   uint8_t swapxy = 0;
  48:..\u8g2_csrc/u8g2_line.c ****   
  49:..\u8g2_csrc/u8g2_line.c ****   /* no intersection check at the moment, should be added... */
  50:..\u8g2_csrc/u8g2_line.c **** 
  51:..\u8g2_csrc/u8g2_line.c ****   if ( x1 > x2 ) dx = x1-x2; else dx = x2-x1;
 522              		.loc 1 51 0
 523 000a A942     		cmp	r1, r5
 524 000c 8CBF     		ite	hi
 525 000e 4F1B     		subhi	r7, r1, r5
 526 0010 6F1A     		subls	r7, r5, r1
  52:..\u8g2_csrc/u8g2_line.c ****   if ( y1 > y2 ) dy = y1-y2; else dy = y2-y1;
 527              		.loc 1 52 0
ARM GAS  C:\Users\info\AppData\Local\Temp\ccaerJSn.s 			page 40


 528 0012 9A42     		cmp	r2, r3
  40:..\u8g2_csrc/u8g2_line.c ****   u8g2_uint_t tmp;
 529              		.loc 1 40 0
 530 0014 0190     		str	r0, [sp, #4]
 531 0016 0C46     		mov	r4, r1
 532              	.LVL2:
 533 0018 1646     		mov	r6, r2
  51:..\u8g2_csrc/u8g2_line.c ****   if ( y1 > y2 ) dy = y1-y2; else dy = y2-y1;
 534              		.loc 1 51 0
 535 001a FFB2     		uxtb	r7, r7
 536              	.LVL3:
 537              		.loc 1 52 0
 538 001c 0ED9     		bls	.L4
 539              		.loc 1 52 0 is_stmt 0 discriminator 1
 540 001e C3EB0208 		rsb	r8, r3, r2
 541 0022 5FFA88F8 		uxtb	r8, r8
 542              	.LVL4:
  53:..\u8g2_csrc/u8g2_line.c **** 
  54:..\u8g2_csrc/u8g2_line.c ****   if ( dy > dx ) 
 543              		.loc 1 54 0 is_stmt 1 discriminator 1
 544 0026 4745     		cmp	r7, r8
 545 0028 44D2     		bcs	.L27
 546              		.loc 1 54 0 is_stmt 0
 547 002a 3A46     		mov	r2, r7
 548              	.LVL5:
 549 002c 4746     		mov	r7, r8
 550              	.LVL6:
 551 002e 9046     		mov	r8, r2
 552              	.LVL7:
 553 0030 3246     		mov	r2, r6
 554              	.LVL8:
 555 0032 1C46     		mov	r4, r3
 556 0034 2E46     		mov	r6, r5
 557 0036 0B46     		mov	r3, r1
 558 0038 1546     		mov	r5, r2
 559 003a 0DE0     		b	.L24
 560              	.LVL9:
 561              	.L4:
  52:..\u8g2_csrc/u8g2_line.c **** 
 562              		.loc 1 52 0 is_stmt 1 discriminator 2
 563 003c C2EB0308 		rsb	r8, r2, r3
 564 0040 5FFA88F8 		uxtb	r8, r8
 565              	.LVL10:
 566              		.loc 1 54 0 discriminator 2
 567 0044 4745     		cmp	r7, r8
 568 0046 42D2     		bcs	.L7
 569              		.loc 1 54 0 is_stmt 0
 570 0048 3A46     		mov	r2, r7
 571              	.LVL11:
 572 004a 4746     		mov	r7, r8
 573              	.LVL12:
 574 004c 9046     		mov	r8, r2
 575              	.LVL13:
 576 004e 2A46     		mov	r2, r5
 577              	.LVL14:
 578 0050 3446     		mov	r4, r6
 579 0052 1D46     		mov	r5, r3
ARM GAS  C:\Users\info\AppData\Local\Temp\ccaerJSn.s 			page 41


 580 0054 0E46     		mov	r6, r1
 581 0056 1346     		mov	r3, r2
 582              	.LVL15:
 583              	.L24:
  55:..\u8g2_csrc/u8g2_line.c ****   {
  56:..\u8g2_csrc/u8g2_line.c ****     swapxy = 1;
 584              		.loc 1 56 0 is_stmt 1
 585 0058 4FF00109 		mov	r9, #1
 586              	.LVL16:
 587              	.L5:
  57:..\u8g2_csrc/u8g2_line.c ****     tmp = dx; dx =dy; dy = tmp;
  58:..\u8g2_csrc/u8g2_line.c ****     tmp = x1; x1 =y1; y1 = tmp;
  59:..\u8g2_csrc/u8g2_line.c ****     tmp = x2; x2 =y2; y2 = tmp;
  60:..\u8g2_csrc/u8g2_line.c ****   }
  61:..\u8g2_csrc/u8g2_line.c ****   if ( x1 > x2 ) 
  62:..\u8g2_csrc/u8g2_line.c ****   {
  63:..\u8g2_csrc/u8g2_line.c ****     tmp = x1; x1 =x2; x2 = tmp;
  64:..\u8g2_csrc/u8g2_line.c ****     tmp = y1; y1 =y2; y2 = tmp;
  65:..\u8g2_csrc/u8g2_line.c ****   }
  66:..\u8g2_csrc/u8g2_line.c ****   err = dx >> 1;
  67:..\u8g2_csrc/u8g2_line.c ****   if ( y2 > y1 ) ystep = 1; else ystep = -1;
 588              		.loc 1 67 0
 589 005c 9E42     		cmp	r6, r3
 590 005e 34BF     		ite	cc
 591 0060 4FF0010A 		movcc	r10, #1
 592 0064 4FF0FF3A 		movcs	r10, #-1
  66:..\u8g2_csrc/u8g2_line.c ****   if ( y2 > y1 ) ystep = 1; else ystep = -1;
 593              		.loc 1 66 0
 594 0068 47F3470B 		sbfx	fp, r7, #1, #8
 595              	.LVL17:
 596              	.L8:
  68:..\u8g2_csrc/u8g2_line.c ****   y = y1;
  69:..\u8g2_csrc/u8g2_line.c **** 
  70:..\u8g2_csrc/u8g2_line.c **** #ifndef  U8G2_16BIT
  71:..\u8g2_csrc/u8g2_line.c ****   if ( x2 == 255 )
  72:..\u8g2_csrc/u8g2_line.c ****     x2--;
 597              		.loc 1 72 0
 598 006c FF2D     		cmp	r5, #255
 599 006e 08BF     		it	eq
 600 0070 FE25     		moveq	r5, #254
 601              	.LVL18:
 602              	.L10:
  73:..\u8g2_csrc/u8g2_line.c **** #else
  74:..\u8g2_csrc/u8g2_line.c ****   if ( x2 == 0xffff )
  75:..\u8g2_csrc/u8g2_line.c ****     x2--;
  76:..\u8g2_csrc/u8g2_line.c **** #endif
  77:..\u8g2_csrc/u8g2_line.c **** 
  78:..\u8g2_csrc/u8g2_line.c ****   for( x = x1; x <= x2; x++ )
 603              		.loc 1 78 0 discriminator 1
 604 0072 A542     		cmp	r5, r4
 605 0074 3BD3     		bcc	.L28
  79:..\u8g2_csrc/u8g2_line.c ****   {
  80:..\u8g2_csrc/u8g2_line.c ****     if ( swapxy == 0 ) 
 606              		.loc 1 80 0
 607 0076 B9F1000F 		cmp	r9, #0
 608 007a 02D1     		bne	.L11
  81:..\u8g2_csrc/u8g2_line.c ****       u8g2_DrawPixel(u8g2, x, y); 
ARM GAS  C:\Users\info\AppData\Local\Temp\ccaerJSn.s 			page 42


 609              		.loc 1 81 0
 610 007c 3246     		mov	r2, r6
 611 007e 2146     		mov	r1, r4
 612 0080 01E0     		b	.L25
 613              	.L11:
  82:..\u8g2_csrc/u8g2_line.c ****     else 
  83:..\u8g2_csrc/u8g2_line.c ****       u8g2_DrawPixel(u8g2, y, x); 
 614              		.loc 1 83 0
 615 0082 2246     		mov	r2, r4
 616 0084 3146     		mov	r1, r6
 617              	.L25:
  84:..\u8g2_csrc/u8g2_line.c ****     err -= (uint8_t)dy;
 618              		.loc 1 84 0
 619 0086 C8EB0B0B 		rsb	fp, r8, fp
 620              	.LVL19:
  83:..\u8g2_csrc/u8g2_line.c ****     err -= (uint8_t)dy;
 621              		.loc 1 83 0
 622 008a 0198     		ldr	r0, [sp, #4]
 623 008c FFF7FEFF 		bl	u8g2_DrawPixel
 624              	.LVL20:
 625              		.loc 1 84 0
 626 0090 5FFA8BF2 		uxtb	r2, fp
 627 0094 4FFA82FB 		sxtb	fp, r2
 628              	.LVL21:
  85:..\u8g2_csrc/u8g2_line.c ****     if ( err < 0 ) 
 629              		.loc 1 85 0
 630 0098 BBF1000F 		cmp	fp, #0
  86:..\u8g2_csrc/u8g2_line.c ****     {
  87:..\u8g2_csrc/u8g2_line.c ****       y += (u8g2_uint_t)ystep;
 631              		.loc 1 87 0
 632 009c BCBF     		itt	lt
 633 009e 5644     		addlt	r6, r6, r10
 634              	.LVL22:
  88:..\u8g2_csrc/u8g2_line.c ****       err += (u8g2_uint_t)dx;
 635              		.loc 1 88 0
 636 00a0 02EB070B 		addlt	fp, r2, r7
 637              	.LVL23:
  78:..\u8g2_csrc/u8g2_line.c ****   {
 638              		.loc 1 78 0
 639 00a4 04F10104 		add	r4, r4, #1
 640              	.LVL24:
  87:..\u8g2_csrc/u8g2_line.c ****       err += (u8g2_uint_t)dx;
 641              		.loc 1 87 0
 642 00a8 BCBF     		itt	lt
 643 00aa F6B2     		uxtblt	r6, r6
 644              	.LVL25:
 645              		.loc 1 88 0
 646 00ac 4FFA8BFB 		sxtblt	fp, fp
 647              	.LVL26:
  78:..\u8g2_csrc/u8g2_line.c ****   {
 648              		.loc 1 78 0
 649 00b0 E4B2     		uxtb	r4, r4
 650              	.LVL27:
 651 00b2 DEE7     		b	.L10
 652              	.LVL28:
 653              	.L27:
  61:..\u8g2_csrc/u8g2_line.c ****   {
ARM GAS  C:\Users\info\AppData\Local\Temp\ccaerJSn.s 			page 43


 654              		.loc 1 61 0
 655 00b4 A942     		cmp	r1, r5
 656 00b6 17D9     		bls	.L23
 657              	.LVL29:
  66:..\u8g2_csrc/u8g2_line.c ****   if ( y2 > y1 ) ystep = 1; else ystep = -1;
 658              		.loc 1 66 0
 659 00b8 1E46     		mov	r6, r3
 660 00ba 2346     		mov	r3, r4
 661              	.LVL30:
 662 00bc 47F3470B 		sbfx	fp, r7, #1, #8
 663              	.LVL31:
 664 00c0 2C46     		mov	r4, r5
 665              	.LVL32:
 666 00c2 4FF00009 		mov	r9, #0
 667 00c6 1D46     		mov	r5, r3
 668              	.LVL33:
  67:..\u8g2_csrc/u8g2_line.c ****   y = y1;
 669              		.loc 1 67 0
 670 00c8 4FF0010A 		mov	r10, #1
 671 00cc CEE7     		b	.L8
 672              	.LVL34:
 673              	.L7:
  61:..\u8g2_csrc/u8g2_line.c ****   {
 674              		.loc 1 61 0
 675 00ce A942     		cmp	r1, r5
 676 00d0 0AD9     		bls	.L23
 677              	.LVL35:
  66:..\u8g2_csrc/u8g2_line.c ****   if ( y2 > y1 ) ystep = 1; else ystep = -1;
 678              		.loc 1 66 0
 679 00d2 1E46     		mov	r6, r3
 680 00d4 2346     		mov	r3, r4
 681              	.LVL36:
 682 00d6 47F3470B 		sbfx	fp, r7, #1, #8
 683              	.LVL37:
 684 00da 2C46     		mov	r4, r5
 685              	.LVL38:
 686 00dc 4FF00009 		mov	r9, #0
 687 00e0 1D46     		mov	r5, r3
 688              	.LVL39:
  67:..\u8g2_csrc/u8g2_line.c ****   y = y1;
 689              		.loc 1 67 0
 690 00e2 4FF0FF3A 		mov	r10, #-1
 691 00e6 C1E7     		b	.L8
 692              	.LVL40:
 693              	.L23:
  61:..\u8g2_csrc/u8g2_line.c ****   {
 694              		.loc 1 61 0
 695 00e8 4FF00009 		mov	r9, #0
 696 00ec B6E7     		b	.L5
 697              	.LVL41:
 698              	.L28:
  89:..\u8g2_csrc/u8g2_line.c ****     }
  90:..\u8g2_csrc/u8g2_line.c ****   }
  91:..\u8g2_csrc/u8g2_line.c **** }
 699              		.loc 1 91 0
 700 00ee 03B0     		add	sp, sp, #12
 701              		.cfi_def_cfa_offset 36
ARM GAS  C:\Users\info\AppData\Local\Temp\ccaerJSn.s 			page 44


 702              		@ sp needed
 703 00f0 BDE8F08F 		pop	{r4, r5, r6, r7, r8, r9, r10, fp, pc}
 704              		.cfi_endproc
 705              	.LFE0:
 706              		.size	u8g2_DrawLine, .-u8g2_DrawLine
 707              		.text
 708              	.Letext0:
 709              		.file 2 "c:\\program files (x86)\\cypress\\psoc creator\\4.2\\psoc creator\\import\\gnu\\arm\\5.4.
 710              		.file 3 "c:\\program files (x86)\\cypress\\psoc creator\\4.2\\psoc creator\\import\\gnu\\arm\\5.4.
 711              		.file 4 "..\\u8g2_csrc\\u8x8.h"
 712              		.file 5 "..\\u8g2_csrc\\u8g2.h"