ARM GAS  C:\Users\info\AppData\Local\Temp\ccdlpvfJ.s 			page 1


   1              		.syntax unified
   2              		.cpu cortex-m3
   3              		.fpu softvfp
   4              		.eabi_attribute 20, 1
   5              		.eabi_attribute 21, 1
   6              		.eabi_attribute 23, 3
   7              		.eabi_attribute 24, 1
   8              		.eabi_attribute 25, 1
   9              		.eabi_attribute 26, 1
  10              		.eabi_attribute 30, 2
  11              		.eabi_attribute 34, 1
  12              		.eabi_attribute 18, 4
  13              		.thumb
  14              		.syntax unified
  15              		.file	"u8g2_polygon.c"
  16              		.text
  17              	.Ltext0:
  18              		.cfi_sections	.debug_frame
  19              		.section	.text.pg_inc,"ax",%progbits
  20              		.align	2
  21              		.thumb
  22              		.thumb_func
  23              		.type	pg_inc, %function
  24              	pg_inc:
  25              	.LFB2:
  26              		.file 1 "..\\u8g2-master\\csrc\\u8g2_polygon.c"
   1:..\u8g2-master\csrc/u8g2_polygon.c **** /*
   2:..\u8g2-master\csrc/u8g2_polygon.c **** 
   3:..\u8g2-master\csrc/u8g2_polygon.c ****   u8g22_polygon.c
   4:..\u8g2-master\csrc/u8g2_polygon.c **** 
   5:..\u8g2-master\csrc/u8g2_polygon.c **** */	
   6:..\u8g2-master\csrc/u8g2_polygon.c **** 
   7:..\u8g2-master\csrc/u8g2_polygon.c **** 
   8:..\u8g2-master\csrc/u8g2_polygon.c **** #include "u8g2.h"
   9:..\u8g2-master\csrc/u8g2_polygon.c **** 
  10:..\u8g2-master\csrc/u8g2_polygon.c **** 
  11:..\u8g2-master\csrc/u8g2_polygon.c **** 
  12:..\u8g2-master\csrc/u8g2_polygon.c **** 
  13:..\u8g2-master\csrc/u8g2_polygon.c **** /*===========================================*/
  14:..\u8g2-master\csrc/u8g2_polygon.c **** /* local definitions */
  15:..\u8g2-master\csrc/u8g2_polygon.c **** 
  16:..\u8g2-master\csrc/u8g2_polygon.c **** typedef int16_t pg_word_t;
  17:..\u8g2-master\csrc/u8g2_polygon.c **** 
  18:..\u8g2-master\csrc/u8g2_polygon.c **** 
  19:..\u8g2-master\csrc/u8g2_polygon.c **** struct pg_point_struct
  20:..\u8g2-master\csrc/u8g2_polygon.c **** {
  21:..\u8g2-master\csrc/u8g2_polygon.c ****   pg_word_t x;
  22:..\u8g2-master\csrc/u8g2_polygon.c ****   pg_word_t y;
  23:..\u8g2-master\csrc/u8g2_polygon.c **** };
  24:..\u8g2-master\csrc/u8g2_polygon.c **** 
  25:..\u8g2-master\csrc/u8g2_polygon.c **** typedef struct _pg_struct pg_struct;	/* forward declaration */
  26:..\u8g2-master\csrc/u8g2_polygon.c **** 
  27:..\u8g2-master\csrc/u8g2_polygon.c **** struct pg_edge_struct
  28:..\u8g2-master\csrc/u8g2_polygon.c **** {
  29:..\u8g2-master\csrc/u8g2_polygon.c ****   pg_word_t x_direction;	/* 1, if x2 is greater than x1, -1 otherwise */
  30:..\u8g2-master\csrc/u8g2_polygon.c ****   pg_word_t height;
  31:..\u8g2-master\csrc/u8g2_polygon.c ****   pg_word_t current_x_offset;
ARM GAS  C:\Users\info\AppData\Local\Temp\ccdlpvfJ.s 			page 2


  32:..\u8g2-master\csrc/u8g2_polygon.c ****   pg_word_t error_offset;
  33:..\u8g2-master\csrc/u8g2_polygon.c ****   
  34:..\u8g2-master\csrc/u8g2_polygon.c ****   /* --- line loop --- */
  35:..\u8g2-master\csrc/u8g2_polygon.c ****   pg_word_t current_y;
  36:..\u8g2-master\csrc/u8g2_polygon.c ****   pg_word_t max_y;
  37:..\u8g2-master\csrc/u8g2_polygon.c ****   pg_word_t current_x;
  38:..\u8g2-master\csrc/u8g2_polygon.c ****   pg_word_t error;
  39:..\u8g2-master\csrc/u8g2_polygon.c **** 
  40:..\u8g2-master\csrc/u8g2_polygon.c ****   /* --- outer loop --- */
  41:..\u8g2-master\csrc/u8g2_polygon.c ****   uint8_t (*next_idx_fn)(pg_struct *pg, uint8_t i);
  42:..\u8g2-master\csrc/u8g2_polygon.c ****   uint8_t curr_idx;
  43:..\u8g2-master\csrc/u8g2_polygon.c **** };
  44:..\u8g2-master\csrc/u8g2_polygon.c **** 
  45:..\u8g2-master\csrc/u8g2_polygon.c **** /* maximum number of points in the polygon */
  46:..\u8g2-master\csrc/u8g2_polygon.c **** /* can be redefined, but highest possible value is 254 */
  47:..\u8g2-master\csrc/u8g2_polygon.c **** #define PG_MAX_POINTS 6
  48:..\u8g2-master\csrc/u8g2_polygon.c **** 
  49:..\u8g2-master\csrc/u8g2_polygon.c **** /* index numbers for the pge structures below */
  50:..\u8g2-master\csrc/u8g2_polygon.c **** #define PG_LEFT 0
  51:..\u8g2-master\csrc/u8g2_polygon.c **** #define PG_RIGHT 1
  52:..\u8g2-master\csrc/u8g2_polygon.c **** 
  53:..\u8g2-master\csrc/u8g2_polygon.c **** 
  54:..\u8g2-master\csrc/u8g2_polygon.c **** struct _pg_struct
  55:..\u8g2-master\csrc/u8g2_polygon.c **** {
  56:..\u8g2-master\csrc/u8g2_polygon.c ****   struct pg_point_struct list[PG_MAX_POINTS];
  57:..\u8g2-master\csrc/u8g2_polygon.c ****   uint8_t cnt;
  58:..\u8g2-master\csrc/u8g2_polygon.c ****   uint8_t is_min_y_not_flat;
  59:..\u8g2-master\csrc/u8g2_polygon.c ****   pg_word_t total_scan_line_cnt;
  60:..\u8g2-master\csrc/u8g2_polygon.c ****   struct pg_edge_struct pge[2];	/* left and right line draw structures */
  61:..\u8g2-master\csrc/u8g2_polygon.c **** };
  62:..\u8g2-master\csrc/u8g2_polygon.c **** 
  63:..\u8g2-master\csrc/u8g2_polygon.c **** 
  64:..\u8g2-master\csrc/u8g2_polygon.c **** /*===========================================*/
  65:..\u8g2-master\csrc/u8g2_polygon.c **** /* procedures, which should not be inlined (save as much flash ROM as possible */
  66:..\u8g2-master\csrc/u8g2_polygon.c **** 
  67:..\u8g2-master\csrc/u8g2_polygon.c **** #define PG_NOINLINE U8G2_NOINLINE
  68:..\u8g2-master\csrc/u8g2_polygon.c **** 
  69:..\u8g2-master\csrc/u8g2_polygon.c **** static uint8_t pge_Next(struct pg_edge_struct *pge) PG_NOINLINE;
  70:..\u8g2-master\csrc/u8g2_polygon.c **** static uint8_t pg_inc(pg_struct *pg, uint8_t i) PG_NOINLINE;
  71:..\u8g2-master\csrc/u8g2_polygon.c **** static uint8_t pg_dec(pg_struct *pg, uint8_t i) PG_NOINLINE;
  72:..\u8g2-master\csrc/u8g2_polygon.c **** static void pg_expand_min_y(pg_struct *pg, pg_word_t min_y, uint8_t pge_idx) PG_NOINLINE;
  73:..\u8g2-master\csrc/u8g2_polygon.c **** static void pg_line_init(pg_struct * const pg, uint8_t pge_index) PG_NOINLINE;
  74:..\u8g2-master\csrc/u8g2_polygon.c **** 
  75:..\u8g2-master\csrc/u8g2_polygon.c **** /*===========================================*/
  76:..\u8g2-master\csrc/u8g2_polygon.c **** /* line draw algorithm */
  77:..\u8g2-master\csrc/u8g2_polygon.c **** 
  78:..\u8g2-master\csrc/u8g2_polygon.c **** static uint8_t pge_Next(struct pg_edge_struct *pge)
  79:..\u8g2-master\csrc/u8g2_polygon.c **** {
  80:..\u8g2-master\csrc/u8g2_polygon.c ****   if ( pge->current_y >= pge->max_y )
  81:..\u8g2-master\csrc/u8g2_polygon.c ****     return 0;
  82:..\u8g2-master\csrc/u8g2_polygon.c ****   
  83:..\u8g2-master\csrc/u8g2_polygon.c ****   pge->current_x += pge->current_x_offset;
  84:..\u8g2-master\csrc/u8g2_polygon.c ****   pge->error += pge->error_offset;
  85:..\u8g2-master\csrc/u8g2_polygon.c ****   if ( pge->error > 0 )
  86:..\u8g2-master\csrc/u8g2_polygon.c ****   {
  87:..\u8g2-master\csrc/u8g2_polygon.c ****     pge->current_x += pge->x_direction;
  88:..\u8g2-master\csrc/u8g2_polygon.c ****     pge->error -= pge->height;
ARM GAS  C:\Users\info\AppData\Local\Temp\ccdlpvfJ.s 			page 3


  89:..\u8g2-master\csrc/u8g2_polygon.c ****   }  
  90:..\u8g2-master\csrc/u8g2_polygon.c ****   
  91:..\u8g2-master\csrc/u8g2_polygon.c ****   pge->current_y++;
  92:..\u8g2-master\csrc/u8g2_polygon.c ****   return 1;
  93:..\u8g2-master\csrc/u8g2_polygon.c **** }
  94:..\u8g2-master\csrc/u8g2_polygon.c **** 
  95:..\u8g2-master\csrc/u8g2_polygon.c **** /* assumes y2 > y1 */
  96:..\u8g2-master\csrc/u8g2_polygon.c **** static void pge_Init(struct pg_edge_struct *pge, pg_word_t x1, pg_word_t y1, pg_word_t x2, pg_word_
  97:..\u8g2-master\csrc/u8g2_polygon.c **** {
  98:..\u8g2-master\csrc/u8g2_polygon.c ****   pg_word_t dx = x2 - x1;
  99:..\u8g2-master\csrc/u8g2_polygon.c ****   pg_word_t width;
 100:..\u8g2-master\csrc/u8g2_polygon.c **** 
 101:..\u8g2-master\csrc/u8g2_polygon.c ****   pge->height = y2 - y1;
 102:..\u8g2-master\csrc/u8g2_polygon.c ****   pge->max_y = y2;
 103:..\u8g2-master\csrc/u8g2_polygon.c ****   pge->current_y = y1;
 104:..\u8g2-master\csrc/u8g2_polygon.c ****   pge->current_x = x1;
 105:..\u8g2-master\csrc/u8g2_polygon.c **** 
 106:..\u8g2-master\csrc/u8g2_polygon.c ****   if ( dx >= 0 )
 107:..\u8g2-master\csrc/u8g2_polygon.c ****   {
 108:..\u8g2-master\csrc/u8g2_polygon.c ****     pge->x_direction = 1;
 109:..\u8g2-master\csrc/u8g2_polygon.c ****     width = dx;
 110:..\u8g2-master\csrc/u8g2_polygon.c ****     pge->error = 0;
 111:..\u8g2-master\csrc/u8g2_polygon.c ****   }
 112:..\u8g2-master\csrc/u8g2_polygon.c ****   else
 113:..\u8g2-master\csrc/u8g2_polygon.c ****   {
 114:..\u8g2-master\csrc/u8g2_polygon.c ****     pge->x_direction = -1;
 115:..\u8g2-master\csrc/u8g2_polygon.c ****     width = -dx;
 116:..\u8g2-master\csrc/u8g2_polygon.c ****     pge->error = 1 - pge->height;
 117:..\u8g2-master\csrc/u8g2_polygon.c ****   }
 118:..\u8g2-master\csrc/u8g2_polygon.c ****   
 119:..\u8g2-master\csrc/u8g2_polygon.c ****   pge->current_x_offset = dx / pge->height;
 120:..\u8g2-master\csrc/u8g2_polygon.c ****   pge->error_offset = width % pge->height;
 121:..\u8g2-master\csrc/u8g2_polygon.c **** }
 122:..\u8g2-master\csrc/u8g2_polygon.c **** 
 123:..\u8g2-master\csrc/u8g2_polygon.c **** /*===========================================*/
 124:..\u8g2-master\csrc/u8g2_polygon.c **** /* convex polygon algorithm */
 125:..\u8g2-master\csrc/u8g2_polygon.c **** 
 126:..\u8g2-master\csrc/u8g2_polygon.c **** static uint8_t pg_inc(pg_struct *pg, uint8_t i)
 127:..\u8g2-master\csrc/u8g2_polygon.c **** {
  27              		.loc 1 127 0
  28              		.cfi_startproc
  29              		@ args = 0, pretend = 0, frame = 0
  30              		@ frame_needed = 0, uses_anonymous_args = 0
  31              		@ link register save eliminated.
  32              	.LVL0:
 128:..\u8g2-master\csrc/u8g2_polygon.c ****     i++;
 129:..\u8g2-master\csrc/u8g2_polygon.c ****     if ( i >= pg->cnt )
  33              		.loc 1 129 0
  34 0000 037E     		ldrb	r3, [r0, #24]	@ zero_extendqisi2
 128:..\u8g2-master\csrc/u8g2_polygon.c ****     i++;
  35              		.loc 1 128 0
  36 0002 0131     		adds	r1, r1, #1
  37              	.LVL1:
  38 0004 C8B2     		uxtb	r0, r1
  39              	.LVL2:
 130:..\u8g2-master\csrc/u8g2_polygon.c ****       i = 0;
 131:..\u8g2-master\csrc/u8g2_polygon.c ****     return i;
ARM GAS  C:\Users\info\AppData\Local\Temp\ccdlpvfJ.s 			page 4


 132:..\u8g2-master\csrc/u8g2_polygon.c **** }
  40              		.loc 1 132 0
  41 0006 8342     		cmp	r3, r0
  42 0008 98BF     		it	ls
  43 000a 0020     		movls	r0, #0
  44              	.LVL3:
  45 000c 7047     		bx	lr
  46              		.cfi_endproc
  47              	.LFE2:
  48              		.size	pg_inc, .-pg_inc
  49 000e 00BF     		.section	.text.pg_dec,"ax",%progbits
  50              		.align	2
  51              		.thumb
  52              		.thumb_func
  53              		.type	pg_dec, %function
  54              	pg_dec:
  55              	.LFB3:
 133:..\u8g2-master\csrc/u8g2_polygon.c **** 
 134:..\u8g2-master\csrc/u8g2_polygon.c **** static uint8_t pg_dec(pg_struct *pg, uint8_t i)
 135:..\u8g2-master\csrc/u8g2_polygon.c **** {
  56              		.loc 1 135 0
  57              		.cfi_startproc
  58              		@ args = 0, pretend = 0, frame = 0
  59              		@ frame_needed = 0, uses_anonymous_args = 0
  60              		@ link register save eliminated.
  61              	.LVL4:
 136:..\u8g2-master\csrc/u8g2_polygon.c ****     i--;
 137:..\u8g2-master\csrc/u8g2_polygon.c ****     if ( i >= pg->cnt )
  62              		.loc 1 137 0
  63 0000 037E     		ldrb	r3, [r0, #24]	@ zero_extendqisi2
 136:..\u8g2-master\csrc/u8g2_polygon.c ****     i--;
  64              		.loc 1 136 0
  65 0002 0139     		subs	r1, r1, #1
  66              	.LVL5:
  67 0004 C8B2     		uxtb	r0, r1
  68              	.LVL6:
  69              		.loc 1 137 0
  70 0006 9842     		cmp	r0, r3
 138:..\u8g2-master\csrc/u8g2_polygon.c ****       i = pg->cnt-1;
  71              		.loc 1 138 0
  72 0008 24BF     		itt	cs
  73 000a 03F1FF30 		addcs	r0, r3, #-1
  74              	.LVL7:
  75 000e C0B2     		uxtbcs	r0, r0
  76              	.LVL8:
 139:..\u8g2-master\csrc/u8g2_polygon.c ****     return i;
 140:..\u8g2-master\csrc/u8g2_polygon.c **** }
  77              		.loc 1 140 0
  78 0010 7047     		bx	lr
  79              		.cfi_endproc
  80              	.LFE3:
  81              		.size	pg_dec, .-pg_dec
  82 0012 00BF     		.section	.text.pg_line_init.constprop.4,"ax",%progbits
  83              		.align	2
  84              		.thumb
  85              		.thumb_func
  86              		.type	pg_line_init.constprop.4, %function
ARM GAS  C:\Users\info\AppData\Local\Temp\ccdlpvfJ.s 			page 5


  87              	pg_line_init.constprop.4:
  88              	.LFB24:
 141:..\u8g2-master\csrc/u8g2_polygon.c **** 
 142:..\u8g2-master\csrc/u8g2_polygon.c **** static void pg_expand_min_y(pg_struct *pg, pg_word_t min_y, uint8_t pge_idx)
 143:..\u8g2-master\csrc/u8g2_polygon.c **** {
 144:..\u8g2-master\csrc/u8g2_polygon.c ****   uint8_t i = pg->pge[pge_idx].curr_idx;
 145:..\u8g2-master\csrc/u8g2_polygon.c ****   for(;;)
 146:..\u8g2-master\csrc/u8g2_polygon.c ****   {
 147:..\u8g2-master\csrc/u8g2_polygon.c ****     i = pg->pge[pge_idx].next_idx_fn(pg, i);
 148:..\u8g2-master\csrc/u8g2_polygon.c ****     if ( pg->list[i].y != min_y )
 149:..\u8g2-master\csrc/u8g2_polygon.c ****       break;	
 150:..\u8g2-master\csrc/u8g2_polygon.c ****     pg->pge[pge_idx].curr_idx = i;
 151:..\u8g2-master\csrc/u8g2_polygon.c ****   }
 152:..\u8g2-master\csrc/u8g2_polygon.c **** }
 153:..\u8g2-master\csrc/u8g2_polygon.c **** 
 154:..\u8g2-master\csrc/u8g2_polygon.c **** static uint8_t pg_prepare(pg_struct *pg)
 155:..\u8g2-master\csrc/u8g2_polygon.c **** {
 156:..\u8g2-master\csrc/u8g2_polygon.c ****   pg_word_t max_y;
 157:..\u8g2-master\csrc/u8g2_polygon.c ****   pg_word_t min_y;
 158:..\u8g2-master\csrc/u8g2_polygon.c ****   uint8_t i;
 159:..\u8g2-master\csrc/u8g2_polygon.c **** 
 160:..\u8g2-master\csrc/u8g2_polygon.c ****   /* setup the next index procedures */
 161:..\u8g2-master\csrc/u8g2_polygon.c ****   pg->pge[PG_RIGHT].next_idx_fn = pg_inc;
 162:..\u8g2-master\csrc/u8g2_polygon.c ****   pg->pge[PG_LEFT].next_idx_fn = pg_dec;
 163:..\u8g2-master\csrc/u8g2_polygon.c ****   
 164:..\u8g2-master\csrc/u8g2_polygon.c ****   /* search for highest and lowest point */
 165:..\u8g2-master\csrc/u8g2_polygon.c ****   max_y = pg->list[0].y;
 166:..\u8g2-master\csrc/u8g2_polygon.c ****   min_y = pg->list[0].y;
 167:..\u8g2-master\csrc/u8g2_polygon.c ****   pg->pge[PG_LEFT].curr_idx = 0;
 168:..\u8g2-master\csrc/u8g2_polygon.c ****   for( i = 1; i < pg->cnt; i++ )
 169:..\u8g2-master\csrc/u8g2_polygon.c ****   {
 170:..\u8g2-master\csrc/u8g2_polygon.c ****     if ( max_y < pg->list[i].y )
 171:..\u8g2-master\csrc/u8g2_polygon.c ****     {
 172:..\u8g2-master\csrc/u8g2_polygon.c ****       max_y = pg->list[i].y;
 173:..\u8g2-master\csrc/u8g2_polygon.c ****     }
 174:..\u8g2-master\csrc/u8g2_polygon.c ****     if ( min_y > pg->list[i].y )
 175:..\u8g2-master\csrc/u8g2_polygon.c ****     {
 176:..\u8g2-master\csrc/u8g2_polygon.c ****       pg->pge[PG_LEFT].curr_idx = i;
 177:..\u8g2-master\csrc/u8g2_polygon.c ****       min_y = pg->list[i].y;
 178:..\u8g2-master\csrc/u8g2_polygon.c ****     }
 179:..\u8g2-master\csrc/u8g2_polygon.c ****   }
 180:..\u8g2-master\csrc/u8g2_polygon.c **** 
 181:..\u8g2-master\csrc/u8g2_polygon.c ****   /* calculate total number of scan lines */
 182:..\u8g2-master\csrc/u8g2_polygon.c ****   pg->total_scan_line_cnt = max_y;
 183:..\u8g2-master\csrc/u8g2_polygon.c ****   pg->total_scan_line_cnt -= min_y;
 184:..\u8g2-master\csrc/u8g2_polygon.c ****   
 185:..\u8g2-master\csrc/u8g2_polygon.c ****   /* exit if polygon height is zero */
 186:..\u8g2-master\csrc/u8g2_polygon.c ****   if ( pg->total_scan_line_cnt == 0 )
 187:..\u8g2-master\csrc/u8g2_polygon.c ****     return 0;
 188:..\u8g2-master\csrc/u8g2_polygon.c ****   
 189:..\u8g2-master\csrc/u8g2_polygon.c ****   /* if the minimum y side is flat, try to find the lowest and highest x points */
 190:..\u8g2-master\csrc/u8g2_polygon.c ****   pg->pge[PG_RIGHT].curr_idx = pg->pge[PG_LEFT].curr_idx;  
 191:..\u8g2-master\csrc/u8g2_polygon.c ****   pg_expand_min_y(pg, min_y, PG_RIGHT);
 192:..\u8g2-master\csrc/u8g2_polygon.c ****   pg_expand_min_y(pg, min_y, PG_LEFT);
 193:..\u8g2-master\csrc/u8g2_polygon.c ****   
 194:..\u8g2-master\csrc/u8g2_polygon.c ****   /* check if the min side is really flat (depends on the x values) */
 195:..\u8g2-master\csrc/u8g2_polygon.c ****   pg->is_min_y_not_flat = 1;
ARM GAS  C:\Users\info\AppData\Local\Temp\ccdlpvfJ.s 			page 6


 196:..\u8g2-master\csrc/u8g2_polygon.c ****   if ( pg->list[pg->pge[PG_LEFT].curr_idx].x != pg->list[pg->pge[PG_RIGHT].curr_idx].x )
 197:..\u8g2-master\csrc/u8g2_polygon.c ****   {
 198:..\u8g2-master\csrc/u8g2_polygon.c ****     pg->is_min_y_not_flat = 0;
 199:..\u8g2-master\csrc/u8g2_polygon.c ****   }
 200:..\u8g2-master\csrc/u8g2_polygon.c ****   else
 201:..\u8g2-master\csrc/u8g2_polygon.c ****   {
 202:..\u8g2-master\csrc/u8g2_polygon.c ****     pg->total_scan_line_cnt--;
 203:..\u8g2-master\csrc/u8g2_polygon.c ****     if ( pg->total_scan_line_cnt == 0 )
 204:..\u8g2-master\csrc/u8g2_polygon.c ****       return 0;
 205:..\u8g2-master\csrc/u8g2_polygon.c ****   }
 206:..\u8g2-master\csrc/u8g2_polygon.c **** 
 207:..\u8g2-master\csrc/u8g2_polygon.c ****   return 1;
 208:..\u8g2-master\csrc/u8g2_polygon.c **** }
 209:..\u8g2-master\csrc/u8g2_polygon.c **** 
 210:..\u8g2-master\csrc/u8g2_polygon.c **** static void pg_hline(pg_struct *pg, u8g2_t *u8g2)
 211:..\u8g2-master\csrc/u8g2_polygon.c **** {
 212:..\u8g2-master\csrc/u8g2_polygon.c ****   pg_word_t x1, x2, y;
 213:..\u8g2-master\csrc/u8g2_polygon.c ****   x1 = pg->pge[PG_LEFT].current_x;
 214:..\u8g2-master\csrc/u8g2_polygon.c ****   x2 = pg->pge[PG_RIGHT].current_x;
 215:..\u8g2-master\csrc/u8g2_polygon.c ****   y = pg->pge[PG_RIGHT].current_y;
 216:..\u8g2-master\csrc/u8g2_polygon.c ****   
 217:..\u8g2-master\csrc/u8g2_polygon.c ****   if ( y < 0 )
 218:..\u8g2-master\csrc/u8g2_polygon.c ****     return;
 219:..\u8g2-master\csrc/u8g2_polygon.c ****   if ( y >= u8g2_GetDisplayHeight(u8g2) )  // does not work for 256x64 display???
 220:..\u8g2-master\csrc/u8g2_polygon.c ****     return;
 221:..\u8g2-master\csrc/u8g2_polygon.c ****   if ( x1 < x2 )
 222:..\u8g2-master\csrc/u8g2_polygon.c ****   {
 223:..\u8g2-master\csrc/u8g2_polygon.c ****     if ( x2 < 0 )
 224:..\u8g2-master\csrc/u8g2_polygon.c ****       return;
 225:..\u8g2-master\csrc/u8g2_polygon.c ****     if ( x1 >= u8g2_GetDisplayWidth(u8g2) )
 226:..\u8g2-master\csrc/u8g2_polygon.c ****       return;
 227:..\u8g2-master\csrc/u8g2_polygon.c ****     if ( x1 < 0 )
 228:..\u8g2-master\csrc/u8g2_polygon.c ****       x1 = 0;
 229:..\u8g2-master\csrc/u8g2_polygon.c ****     if ( x2 >= u8g2_GetDisplayWidth(u8g2) )
 230:..\u8g2-master\csrc/u8g2_polygon.c ****       x2 = u8g2_GetDisplayWidth(u8g2);
 231:..\u8g2-master\csrc/u8g2_polygon.c ****     u8g2_DrawHLine(u8g2, x1, y, x2 - x1);
 232:..\u8g2-master\csrc/u8g2_polygon.c ****   }
 233:..\u8g2-master\csrc/u8g2_polygon.c ****   else
 234:..\u8g2-master\csrc/u8g2_polygon.c ****   {
 235:..\u8g2-master\csrc/u8g2_polygon.c ****     if ( x1 < 0 )
 236:..\u8g2-master\csrc/u8g2_polygon.c ****       return;
 237:..\u8g2-master\csrc/u8g2_polygon.c ****     if ( x2 >= u8g2_GetDisplayWidth(u8g2) )
 238:..\u8g2-master\csrc/u8g2_polygon.c ****       return;
 239:..\u8g2-master\csrc/u8g2_polygon.c ****     if ( x2 < 0 )
 240:..\u8g2-master\csrc/u8g2_polygon.c ****       x1 = 0;
 241:..\u8g2-master\csrc/u8g2_polygon.c ****     if ( x1 >= u8g2_GetDisplayWidth(u8g2) )
 242:..\u8g2-master\csrc/u8g2_polygon.c ****       x1 = u8g2_GetDisplayWidth(u8g2);
 243:..\u8g2-master\csrc/u8g2_polygon.c ****     u8g2_DrawHLine(u8g2, x2, y, x1 - x2);
 244:..\u8g2-master\csrc/u8g2_polygon.c ****   }
 245:..\u8g2-master\csrc/u8g2_polygon.c **** }
 246:..\u8g2-master\csrc/u8g2_polygon.c **** 
 247:..\u8g2-master\csrc/u8g2_polygon.c **** static void pg_line_init(pg_struct * const pg, uint8_t pge_index)
  89              		.loc 1 247 0
  90              		.cfi_startproc
  91              		@ args = 0, pretend = 0, frame = 0
  92              		@ frame_needed = 0, uses_anonymous_args = 0
  93              	.LVL9:
ARM GAS  C:\Users\info\AppData\Local\Temp\ccdlpvfJ.s 			page 7


  94 0000 F8B5     		push	{r3, r4, r5, r6, r7, lr}
  95              		.cfi_def_cfa_offset 24
  96              		.cfi_offset 3, -24
  97              		.cfi_offset 4, -20
  98              		.cfi_offset 5, -16
  99              		.cfi_offset 6, -12
 100              		.cfi_offset 7, -8
 101              		.cfi_offset 14, -4
 248:..\u8g2-master\csrc/u8g2_polygon.c **** {
 249:..\u8g2-master\csrc/u8g2_polygon.c ****   struct pg_edge_struct  *pge = pg->pge+pge_index;
 250:..\u8g2-master\csrc/u8g2_polygon.c ****   uint8_t idx;  
 251:..\u8g2-master\csrc/u8g2_polygon.c ****   pg_word_t x1;
 252:..\u8g2-master\csrc/u8g2_polygon.c ****   pg_word_t y1;
 253:..\u8g2-master\csrc/u8g2_polygon.c ****   pg_word_t x2;
 254:..\u8g2-master\csrc/u8g2_polygon.c ****   pg_word_t y2;
 255:..\u8g2-master\csrc/u8g2_polygon.c **** 
 256:..\u8g2-master\csrc/u8g2_polygon.c ****   idx = pge->curr_idx;  
 102              		.loc 1 256 0
 103 0002 1B4C     		ldr	r4, .L11
 104 0004 94F83030 		ldrb	r3, [r4, #48]	@ zero_extendqisi2
 105              	.LVL10:
 257:..\u8g2-master\csrc/u8g2_polygon.c ****   y1 = pg->list[idx].y;
 258:..\u8g2-master\csrc/u8g2_polygon.c ****   x1 = pg->list[idx].x;
 259:..\u8g2-master\csrc/u8g2_polygon.c ****   idx = pge->next_idx_fn(pg, idx);
 106              		.loc 1 259 0
 107 0008 E26A     		ldr	r2, [r4, #44]
 257:..\u8g2-master\csrc/u8g2_polygon.c ****   y1 = pg->list[idx].y;
 108              		.loc 1 257 0
 109 000a 04EB8305 		add	r5, r4, r3, lsl #2
 110              		.loc 1 259 0
 111 000e 1946     		mov	r1, r3
 112 0010 2046     		mov	r0, r4
 257:..\u8g2-master\csrc/u8g2_polygon.c ****   y1 = pg->list[idx].y;
 113              		.loc 1 257 0
 114 0012 B5F90250 		ldrsh	r5, [r5, #2]
 115              	.LVL11:
 258:..\u8g2-master\csrc/u8g2_polygon.c ****   idx = pge->next_idx_fn(pg, idx);
 116              		.loc 1 258 0
 117 0016 34F92370 		ldrsh	r7, [r4, r3, lsl #2]
 118              	.LVL12:
 119              		.loc 1 259 0
 120 001a 9047     		blx	r2
 121              	.LVL13:
 260:..\u8g2-master\csrc/u8g2_polygon.c ****   y2 = pg->list[idx].y;
 122              		.loc 1 260 0
 123 001c 04EB8003 		add	r3, r4, r0, lsl #2
 261:..\u8g2-master\csrc/u8g2_polygon.c ****   x2 = pg->list[idx].x; 
 124              		.loc 1 261 0
 125 0020 34F92020 		ldrsh	r2, [r4, r0, lsl #2]
 260:..\u8g2-master\csrc/u8g2_polygon.c ****   y2 = pg->list[idx].y;
 126              		.loc 1 260 0
 127 0024 B3F90230 		ldrsh	r3, [r3, #2]
 128              	.LVL14:
 129              	.LBB30:
 130              	.LBB31:
  98:..\u8g2-master\csrc/u8g2_polygon.c ****   pg_word_t width;
 131              		.loc 1 98 0
ARM GAS  C:\Users\info\AppData\Local\Temp\ccdlpvfJ.s 			page 8


 132 0028 D21B     		subs	r2, r2, r7
 133              	.LVL15:
 101:..\u8g2-master\csrc/u8g2_polygon.c ****   pge->max_y = y2;
 134              		.loc 1 101 0
 135 002a 591B     		subs	r1, r3, r5
  98:..\u8g2-master\csrc/u8g2_polygon.c ****   pg_word_t width;
 136              		.loc 1 98 0
 137 002c 92B2     		uxth	r2, r2
 101:..\u8g2-master\csrc/u8g2_polygon.c ****   pge->max_y = y2;
 138              		.loc 1 101 0
 139 002e 89B2     		uxth	r1, r1
 103:..\u8g2-master\csrc/u8g2_polygon.c ****   pge->current_x = x1;
 140              		.loc 1 103 0
 141 0030 A584     		strh	r5, [r4, #36]	@ movhi
  98:..\u8g2-master\csrc/u8g2_polygon.c ****   pg_word_t width;
 142              		.loc 1 98 0
 143 0032 15B2     		sxth	r5, r2
 144              	.LVL16:
 101:..\u8g2-master\csrc/u8g2_polygon.c ****   pge->max_y = y2;
 145              		.loc 1 101 0
 146 0034 0EB2     		sxth	r6, r1
 106:..\u8g2-master\csrc/u8g2_polygon.c ****   {
 147              		.loc 1 106 0
 148 0036 002D     		cmp	r5, #0
 104:..\u8g2-master\csrc/u8g2_polygon.c **** 
 149              		.loc 1 104 0
 150 0038 2785     		strh	r7, [r4, #40]	@ movhi
 151              	.LBE31:
 152              	.LBE30:
 262:..\u8g2-master\csrc/u8g2_polygon.c ****   pge->curr_idx = idx;
 153              		.loc 1 262 0
 154 003a 84F83000 		strb	r0, [r4, #48]
 155              	.LVL17:
 156              	.LBB33:
 157              	.LBB32:
 102:..\u8g2-master\csrc/u8g2_polygon.c ****   pge->current_y = y1;
 158              		.loc 1 102 0
 159 003e E384     		strh	r3, [r4, #38]	@ movhi
 101:..\u8g2-master\csrc/u8g2_polygon.c ****   pge->max_y = y2;
 160              		.loc 1 101 0
 161 0040 E683     		strh	r6, [r4, #30]	@ movhi
 106:..\u8g2-master\csrc/u8g2_polygon.c ****   {
 162              		.loc 1 106 0
 163 0042 0DDB     		blt	.L10
 164 0044 2B46     		mov	r3, r5
 165              	.LVL18:
 110:..\u8g2-master\csrc/u8g2_polygon.c ****   }
 166              		.loc 1 110 0
 167 0046 0021     		movs	r1, #0
 108:..\u8g2-master\csrc/u8g2_polygon.c ****     width = dx;
 168              		.loc 1 108 0
 169 0048 0120     		movs	r0, #1
 170              	.LVL19:
 171              	.L7:
 120:..\u8g2-master\csrc/u8g2_polygon.c **** }
 172              		.loc 1 120 0
 173 004a 93FBF6F2 		sdiv	r2, r3, r6
ARM GAS  C:\Users\info\AppData\Local\Temp\ccdlpvfJ.s 			page 9


 119:..\u8g2-master\csrc/u8g2_polygon.c ****   pge->error_offset = width % pge->height;
 174              		.loc 1 119 0
 175 004e 95FBF6F5 		sdiv	r5, r5, r6
 176              	.LVL20:
 120:..\u8g2-master\csrc/u8g2_polygon.c **** }
 177              		.loc 1 120 0
 178 0052 06FB1233 		mls	r3, r6, r2, r3
 119:..\u8g2-master\csrc/u8g2_polygon.c ****   pge->error_offset = width % pge->height;
 179              		.loc 1 119 0
 180 0056 2584     		strh	r5, [r4, #32]	@ movhi
 181 0058 6185     		strh	r1, [r4, #42]	@ movhi
 182 005a A083     		strh	r0, [r4, #28]	@ movhi
 183              	.LVL21:
 120:..\u8g2-master\csrc/u8g2_polygon.c **** }
 184              		.loc 1 120 0
 185 005c 6384     		strh	r3, [r4, #34]	@ movhi
 186              	.LVL22:
 187 005e F8BD     		pop	{r3, r4, r5, r6, r7, pc}
 188              	.LVL23:
 189              	.L10:
 115:..\u8g2-master\csrc/u8g2_polygon.c ****     pge->error = 1 - pge->height;
 190              		.loc 1 115 0
 191 0060 5242     		negs	r2, r2
 116:..\u8g2-master\csrc/u8g2_polygon.c ****   }
 192              		.loc 1 116 0
 193 0062 C1F10101 		rsb	r1, r1, #1
 115:..\u8g2-master\csrc/u8g2_polygon.c ****     pge->error = 1 - pge->height;
 194              		.loc 1 115 0
 195 0066 13B2     		sxth	r3, r2
 196              	.LVL24:
 116:..\u8g2-master\csrc/u8g2_polygon.c ****   }
 197              		.loc 1 116 0
 198 0068 09B2     		sxth	r1, r1
 114:..\u8g2-master\csrc/u8g2_polygon.c ****     width = -dx;
 199              		.loc 1 114 0
 200 006a 4FF0FF30 		mov	r0, #-1
 201              	.LVL25:
 202 006e ECE7     		b	.L7
 203              	.L12:
 204              		.align	2
 205              	.L11:
 206 0070 00000000 		.word	u8g2_pg
 207              	.LBE32:
 208              	.LBE33:
 209              		.cfi_endproc
 210              	.LFE24:
 211              		.size	pg_line_init.constprop.4, .-pg_line_init.constprop.4
 212              		.section	.text.pg_line_init.constprop.5,"ax",%progbits
 213              		.align	2
 214              		.thumb
 215              		.thumb_func
 216              		.type	pg_line_init.constprop.5, %function
 217              	pg_line_init.constprop.5:
 218              	.LFB23:
 247:..\u8g2-master\csrc/u8g2_polygon.c **** {
 219              		.loc 1 247 0
 220              		.cfi_startproc
ARM GAS  C:\Users\info\AppData\Local\Temp\ccdlpvfJ.s 			page 10


 221              		@ args = 0, pretend = 0, frame = 0
 222              		@ frame_needed = 0, uses_anonymous_args = 0
 223              	.LVL26:
 224 0000 F8B5     		push	{r3, r4, r5, r6, r7, lr}
 225              		.cfi_def_cfa_offset 24
 226              		.cfi_offset 3, -24
 227              		.cfi_offset 4, -20
 228              		.cfi_offset 5, -16
 229              		.cfi_offset 6, -12
 230              		.cfi_offset 7, -8
 231              		.cfi_offset 14, -4
 256:..\u8g2-master\csrc/u8g2_polygon.c ****   y1 = pg->list[idx].y;
 232              		.loc 1 256 0
 233 0002 1C4C     		ldr	r4, .L18
 234 0004 94F84830 		ldrb	r3, [r4, #72]	@ zero_extendqisi2
 235              	.LVL27:
 259:..\u8g2-master\csrc/u8g2_polygon.c ****   y2 = pg->list[idx].y;
 236              		.loc 1 259 0
 237 0008 626C     		ldr	r2, [r4, #68]
 257:..\u8g2-master\csrc/u8g2_polygon.c ****   x1 = pg->list[idx].x;
 238              		.loc 1 257 0
 239 000a 04EB8305 		add	r5, r4, r3, lsl #2
 259:..\u8g2-master\csrc/u8g2_polygon.c ****   y2 = pg->list[idx].y;
 240              		.loc 1 259 0
 241 000e 1946     		mov	r1, r3
 242 0010 2046     		mov	r0, r4
 257:..\u8g2-master\csrc/u8g2_polygon.c ****   x1 = pg->list[idx].x;
 243              		.loc 1 257 0
 244 0012 B5F90250 		ldrsh	r5, [r5, #2]
 245              	.LVL28:
 258:..\u8g2-master\csrc/u8g2_polygon.c ****   idx = pge->next_idx_fn(pg, idx);
 246              		.loc 1 258 0
 247 0016 34F92370 		ldrsh	r7, [r4, r3, lsl #2]
 248              	.LVL29:
 259:..\u8g2-master\csrc/u8g2_polygon.c ****   y2 = pg->list[idx].y;
 249              		.loc 1 259 0
 250 001a 9047     		blx	r2
 251              	.LVL30:
 260:..\u8g2-master\csrc/u8g2_polygon.c ****   x2 = pg->list[idx].x; 
 252              		.loc 1 260 0
 253 001c 04EB8003 		add	r3, r4, r0, lsl #2
 261:..\u8g2-master\csrc/u8g2_polygon.c ****   pge->curr_idx = idx;
 254              		.loc 1 261 0
 255 0020 34F92020 		ldrsh	r2, [r4, r0, lsl #2]
 260:..\u8g2-master\csrc/u8g2_polygon.c ****   x2 = pg->list[idx].x; 
 256              		.loc 1 260 0
 257 0024 B3F90230 		ldrsh	r3, [r3, #2]
 258              	.LVL31:
 259              	.LBB34:
 260              	.LBB35:
  98:..\u8g2-master\csrc/u8g2_polygon.c ****   pg_word_t width;
 261              		.loc 1 98 0
 262 0028 D21B     		subs	r2, r2, r7
 263              	.LVL32:
 101:..\u8g2-master\csrc/u8g2_polygon.c ****   pge->max_y = y2;
 264              		.loc 1 101 0
 265 002a 591B     		subs	r1, r3, r5
ARM GAS  C:\Users\info\AppData\Local\Temp\ccdlpvfJ.s 			page 11


  98:..\u8g2-master\csrc/u8g2_polygon.c ****   pg_word_t width;
 266              		.loc 1 98 0
 267 002c 92B2     		uxth	r2, r2
 101:..\u8g2-master\csrc/u8g2_polygon.c ****   pge->max_y = y2;
 268              		.loc 1 101 0
 269 002e 89B2     		uxth	r1, r1
 103:..\u8g2-master\csrc/u8g2_polygon.c ****   pge->current_x = x1;
 270              		.loc 1 103 0
 271 0030 A587     		strh	r5, [r4, #60]	@ movhi
  98:..\u8g2-master\csrc/u8g2_polygon.c ****   pg_word_t width;
 272              		.loc 1 98 0
 273 0032 15B2     		sxth	r5, r2
 274              	.LVL33:
 101:..\u8g2-master\csrc/u8g2_polygon.c ****   pge->max_y = y2;
 275              		.loc 1 101 0
 276 0034 0EB2     		sxth	r6, r1
 106:..\u8g2-master\csrc/u8g2_polygon.c ****   {
 277              		.loc 1 106 0
 278 0036 002D     		cmp	r5, #0
 104:..\u8g2-master\csrc/u8g2_polygon.c **** 
 279              		.loc 1 104 0
 280 0038 A4F84070 		strh	r7, [r4, #64]	@ movhi
 281              	.LBE35:
 282              	.LBE34:
 283              		.loc 1 262 0
 284 003c 84F84800 		strb	r0, [r4, #72]
 285              	.LVL34:
 286              	.LBB37:
 287              	.LBB36:
 102:..\u8g2-master\csrc/u8g2_polygon.c ****   pge->current_y = y1;
 288              		.loc 1 102 0
 289 0040 E387     		strh	r3, [r4, #62]	@ movhi
 101:..\u8g2-master\csrc/u8g2_polygon.c ****   pge->max_y = y2;
 290              		.loc 1 101 0
 291 0042 E686     		strh	r6, [r4, #54]	@ movhi
 106:..\u8g2-master\csrc/u8g2_polygon.c ****   {
 292              		.loc 1 106 0
 293 0044 0EDB     		blt	.L17
 294 0046 2B46     		mov	r3, r5
 295              	.LVL35:
 110:..\u8g2-master\csrc/u8g2_polygon.c ****   }
 296              		.loc 1 110 0
 297 0048 0021     		movs	r1, #0
 108:..\u8g2-master\csrc/u8g2_polygon.c ****     width = dx;
 298              		.loc 1 108 0
 299 004a 0120     		movs	r0, #1
 300              	.LVL36:
 301              	.L14:
 120:..\u8g2-master\csrc/u8g2_polygon.c **** }
 302              		.loc 1 120 0
 303 004c 93FBF6F2 		sdiv	r2, r3, r6
 119:..\u8g2-master\csrc/u8g2_polygon.c ****   pge->error_offset = width % pge->height;
 304              		.loc 1 119 0
 305 0050 95FBF6F5 		sdiv	r5, r5, r6
 306              	.LVL37:
 120:..\u8g2-master\csrc/u8g2_polygon.c **** }
 307              		.loc 1 120 0
ARM GAS  C:\Users\info\AppData\Local\Temp\ccdlpvfJ.s 			page 12


 308 0054 06FB1233 		mls	r3, r6, r2, r3
 119:..\u8g2-master\csrc/u8g2_polygon.c ****   pge->error_offset = width % pge->height;
 309              		.loc 1 119 0
 310 0058 2587     		strh	r5, [r4, #56]	@ movhi
 311 005a A4F84210 		strh	r1, [r4, #66]	@ movhi
 312 005e A086     		strh	r0, [r4, #52]	@ movhi
 313              	.LVL38:
 120:..\u8g2-master\csrc/u8g2_polygon.c **** }
 314              		.loc 1 120 0
 315 0060 6387     		strh	r3, [r4, #58]	@ movhi
 316              	.LVL39:
 317 0062 F8BD     		pop	{r3, r4, r5, r6, r7, pc}
 318              	.LVL40:
 319              	.L17:
 115:..\u8g2-master\csrc/u8g2_polygon.c ****     pge->error = 1 - pge->height;
 320              		.loc 1 115 0
 321 0064 5242     		negs	r2, r2
 116:..\u8g2-master\csrc/u8g2_polygon.c ****   }
 322              		.loc 1 116 0
 323 0066 C1F10101 		rsb	r1, r1, #1
 115:..\u8g2-master\csrc/u8g2_polygon.c ****     pge->error = 1 - pge->height;
 324              		.loc 1 115 0
 325 006a 13B2     		sxth	r3, r2
 326              	.LVL41:
 116:..\u8g2-master\csrc/u8g2_polygon.c ****   }
 327              		.loc 1 116 0
 328 006c 09B2     		sxth	r1, r1
 114:..\u8g2-master\csrc/u8g2_polygon.c ****     width = -dx;
 329              		.loc 1 114 0
 330 006e 4FF0FF30 		mov	r0, #-1
 331              	.LVL42:
 332 0072 EBE7     		b	.L14
 333              	.L19:
 334              		.align	2
 335              	.L18:
 336 0074 00000000 		.word	u8g2_pg
 337              	.LBE36:
 338              	.LBE37:
 339              		.cfi_endproc
 340              	.LFE23:
 341              		.size	pg_line_init.constprop.5, .-pg_line_init.constprop.5
 342              		.section	.text.pg_expand_min_y.constprop.8,"ax",%progbits
 343              		.align	2
 344              		.thumb
 345              		.thumb_func
 346              		.type	pg_expand_min_y.constprop.8, %function
 347              	pg_expand_min_y.constprop.8:
 348              	.LFB21:
 142:..\u8g2-master\csrc/u8g2_polygon.c **** {
 349              		.loc 1 142 0
 350              		.cfi_startproc
 351              		@ args = 0, pretend = 0, frame = 0
 352              		@ frame_needed = 0, uses_anonymous_args = 0
 353              	.LVL43:
 354 0000 70B5     		push	{r4, r5, r6, lr}
 355              		.cfi_def_cfa_offset 16
 356              		.cfi_offset 4, -16
ARM GAS  C:\Users\info\AppData\Local\Temp\ccdlpvfJ.s 			page 13


 357              		.cfi_offset 5, -12
 358              		.cfi_offset 6, -8
 359              		.cfi_offset 14, -4
 144:..\u8g2-master\csrc/u8g2_polygon.c ****   for(;;)
 360              		.loc 1 144 0
 361 0002 094C     		ldr	r4, .L25
 142:..\u8g2-master\csrc/u8g2_polygon.c **** {
 362              		.loc 1 142 0
 363 0004 0546     		mov	r5, r0
 147:..\u8g2-master\csrc/u8g2_polygon.c ****     if ( pg->list[i].y != min_y )
 364              		.loc 1 147 0
 365 0006 2646     		mov	r6, r4
 144:..\u8g2-master\csrc/u8g2_polygon.c ****   for(;;)
 366              		.loc 1 144 0
 367 0008 94F84810 		ldrb	r1, [r4, #72]	@ zero_extendqisi2
 368              	.LVL44:
 369 000c 01E0     		b	.L22
 370              	.LVL45:
 371              	.L24:
 150:..\u8g2-master\csrc/u8g2_polygon.c ****   }
 372              		.loc 1 150 0
 373 000e 86F84800 		strb	r0, [r6, #72]
 374              	.LVL46:
 375              	.L22:
 147:..\u8g2-master\csrc/u8g2_polygon.c ****     if ( pg->list[i].y != min_y )
 376              		.loc 1 147 0
 377 0012 636C     		ldr	r3, [r4, #68]
 378 0014 0448     		ldr	r0, .L25
 379 0016 9847     		blx	r3
 380              	.LVL47:
 148:..\u8g2-master\csrc/u8g2_polygon.c ****       break;	
 381              		.loc 1 148 0
 382 0018 04EB8003 		add	r3, r4, r0, lsl #2
 383 001c B3F90230 		ldrsh	r3, [r3, #2]
 147:..\u8g2-master\csrc/u8g2_polygon.c ****     if ( pg->list[i].y != min_y )
 384              		.loc 1 147 0
 385 0020 0146     		mov	r1, r0
 386              	.LVL48:
 148:..\u8g2-master\csrc/u8g2_polygon.c ****       break;	
 387              		.loc 1 148 0
 388 0022 AB42     		cmp	r3, r5
 389 0024 F3D0     		beq	.L24
 390 0026 70BD     		pop	{r4, r5, r6, pc}
 391              	.L26:
 392              		.align	2
 393              	.L25:
 394 0028 00000000 		.word	u8g2_pg
 395              		.cfi_endproc
 396              	.LFE21:
 397              		.size	pg_expand_min_y.constprop.8, .-pg_expand_min_y.constprop.8
 398              		.section	.text.pg_expand_min_y.constprop.9,"ax",%progbits
 399              		.align	2
 400              		.thumb
 401              		.thumb_func
 402              		.type	pg_expand_min_y.constprop.9, %function
 403              	pg_expand_min_y.constprop.9:
 404              	.LFB20:
ARM GAS  C:\Users\info\AppData\Local\Temp\ccdlpvfJ.s 			page 14


 142:..\u8g2-master\csrc/u8g2_polygon.c **** {
 405              		.loc 1 142 0
 406              		.cfi_startproc
 407              		@ args = 0, pretend = 0, frame = 0
 408              		@ frame_needed = 0, uses_anonymous_args = 0
 409              	.LVL49:
 410 0000 70B5     		push	{r4, r5, r6, lr}
 411              		.cfi_def_cfa_offset 16
 412              		.cfi_offset 4, -16
 413              		.cfi_offset 5, -12
 414              		.cfi_offset 6, -8
 415              		.cfi_offset 14, -4
 144:..\u8g2-master\csrc/u8g2_polygon.c ****   for(;;)
 416              		.loc 1 144 0
 417 0002 094C     		ldr	r4, .L32
 142:..\u8g2-master\csrc/u8g2_polygon.c **** {
 418              		.loc 1 142 0
 419 0004 0546     		mov	r5, r0
 147:..\u8g2-master\csrc/u8g2_polygon.c ****     if ( pg->list[i].y != min_y )
 420              		.loc 1 147 0
 421 0006 2646     		mov	r6, r4
 144:..\u8g2-master\csrc/u8g2_polygon.c ****   for(;;)
 422              		.loc 1 144 0
 423 0008 94F83010 		ldrb	r1, [r4, #48]	@ zero_extendqisi2
 424              	.LVL50:
 425 000c 01E0     		b	.L29
 426              	.LVL51:
 427              	.L31:
 150:..\u8g2-master\csrc/u8g2_polygon.c ****   }
 428              		.loc 1 150 0
 429 000e 86F83000 		strb	r0, [r6, #48]
 430              	.LVL52:
 431              	.L29:
 147:..\u8g2-master\csrc/u8g2_polygon.c ****     if ( pg->list[i].y != min_y )
 432              		.loc 1 147 0
 433 0012 E36A     		ldr	r3, [r4, #44]
 434 0014 0448     		ldr	r0, .L32
 435 0016 9847     		blx	r3
 436              	.LVL53:
 148:..\u8g2-master\csrc/u8g2_polygon.c ****       break;	
 437              		.loc 1 148 0
 438 0018 04EB8003 		add	r3, r4, r0, lsl #2
 439 001c B3F90230 		ldrsh	r3, [r3, #2]
 147:..\u8g2-master\csrc/u8g2_polygon.c ****     if ( pg->list[i].y != min_y )
 440              		.loc 1 147 0
 441 0020 0146     		mov	r1, r0
 442              	.LVL54:
 148:..\u8g2-master\csrc/u8g2_polygon.c ****       break;	
 443              		.loc 1 148 0
 444 0022 AB42     		cmp	r3, r5
 445 0024 F3D0     		beq	.L31
 446 0026 70BD     		pop	{r4, r5, r6, pc}
 447              	.L33:
 448              		.align	2
 449              	.L32:
 450 0028 00000000 		.word	u8g2_pg
 451              		.cfi_endproc
ARM GAS  C:\Users\info\AppData\Local\Temp\ccdlpvfJ.s 			page 15


 452              	.LFE20:
 453              		.size	pg_expand_min_y.constprop.9, .-pg_expand_min_y.constprop.9
 454              		.section	.text.pge_Next.constprop.11,"ax",%progbits
 455              		.align	2
 456              		.thumb
 457              		.thumb_func
 458              		.type	pge_Next.constprop.11, %function
 459              	pge_Next.constprop.11:
 460              	.LFB19:
  78:..\u8g2-master\csrc/u8g2_polygon.c **** {
 461              		.loc 1 78 0
 462              		.cfi_startproc
 463              		@ args = 0, pretend = 0, frame = 0
 464              		@ frame_needed = 0, uses_anonymous_args = 0
 465              		@ link register save eliminated.
 466              	.LVL55:
  80:..\u8g2-master\csrc/u8g2_polygon.c ****     return 0;
 467              		.loc 1 80 0
 468 0000 104B     		ldr	r3, .L40
 469 0002 B3F92400 		ldrsh	r0, [r3, #36]
 470 0006 B3F92620 		ldrsh	r2, [r3, #38]
 471 000a 8242     		cmp	r2, r0
 472 000c 18DD     		ble	.L37
  78:..\u8g2-master\csrc/u8g2_polygon.c **** {
 473              		.loc 1 78 0
 474 000e 30B4     		push	{r4, r5}
 475              		.cfi_def_cfa_offset 8
 476              		.cfi_offset 4, -8
 477              		.cfi_offset 5, -4
  84:..\u8g2-master\csrc/u8g2_polygon.c ****   if ( pge->error > 0 )
 478              		.loc 1 84 0
 479 0010 5A8C     		ldrh	r2, [r3, #34]
 480 0012 5D8D     		ldrh	r5, [r3, #42]
  83:..\u8g2-master\csrc/u8g2_polygon.c ****   pge->error += pge->error_offset;
 481              		.loc 1 83 0
 482 0014 1C8D     		ldrh	r4, [r3, #40]
 483 0016 198C     		ldrh	r1, [r3, #32]
  84:..\u8g2-master\csrc/u8g2_polygon.c ****   if ( pge->error > 0 )
 484              		.loc 1 84 0
 485 0018 2A44     		add	r2, r2, r5
 486 001a 92B2     		uxth	r2, r2
  83:..\u8g2-master\csrc/u8g2_polygon.c ****   pge->error += pge->error_offset;
 487              		.loc 1 83 0
 488 001c 2144     		add	r1, r1, r4
  84:..\u8g2-master\csrc/u8g2_polygon.c ****   if ( pge->error > 0 )
 489              		.loc 1 84 0
 490 001e 14B2     		sxth	r4, r2
  83:..\u8g2-master\csrc/u8g2_polygon.c ****   pge->error += pge->error_offset;
 491              		.loc 1 83 0
 492 0020 89B2     		uxth	r1, r1
  85:..\u8g2-master\csrc/u8g2_polygon.c ****   {
 493              		.loc 1 85 0
 494 0022 002C     		cmp	r4, #0
  84:..\u8g2-master\csrc/u8g2_polygon.c ****   if ( pge->error > 0 )
 495              		.loc 1 84 0
 496 0024 5C85     		strh	r4, [r3, #42]	@ movhi
  83:..\u8g2-master\csrc/u8g2_polygon.c ****   pge->error += pge->error_offset;
ARM GAS  C:\Users\info\AppData\Local\Temp\ccdlpvfJ.s 			page 16


 497              		.loc 1 83 0
 498 0026 1985     		strh	r1, [r3, #40]	@ movhi
  85:..\u8g2-master\csrc/u8g2_polygon.c ****   {
 499              		.loc 1 85 0
 500 0028 05DD     		ble	.L36
  87:..\u8g2-master\csrc/u8g2_polygon.c ****     pge->error -= pge->height;
 501              		.loc 1 87 0
 502 002a 9C8B     		ldrh	r4, [r3, #28]
  88:..\u8g2-master\csrc/u8g2_polygon.c ****   }  
 503              		.loc 1 88 0
 504 002c DD8B     		ldrh	r5, [r3, #30]
  87:..\u8g2-master\csrc/u8g2_polygon.c ****     pge->error -= pge->height;
 505              		.loc 1 87 0
 506 002e 2144     		add	r1, r1, r4
  88:..\u8g2-master\csrc/u8g2_polygon.c ****   }  
 507              		.loc 1 88 0
 508 0030 521B     		subs	r2, r2, r5
  87:..\u8g2-master\csrc/u8g2_polygon.c ****     pge->error -= pge->height;
 509              		.loc 1 87 0
 510 0032 1985     		strh	r1, [r3, #40]	@ movhi
  88:..\u8g2-master\csrc/u8g2_polygon.c ****   }  
 511              		.loc 1 88 0
 512 0034 5A85     		strh	r2, [r3, #42]	@ movhi
 513              	.L36:
  91:..\u8g2-master\csrc/u8g2_polygon.c ****   return 1;
 514              		.loc 1 91 0
 515 0036 0130     		adds	r0, r0, #1
 516 0038 9884     		strh	r0, [r3, #36]	@ movhi
  93:..\u8g2-master\csrc/u8g2_polygon.c **** 
 517              		.loc 1 93 0
 518 003a 30BC     		pop	{r4, r5}
 519              		.cfi_restore 5
 520              		.cfi_restore 4
 521              		.cfi_def_cfa_offset 0
  92:..\u8g2-master\csrc/u8g2_polygon.c **** }
 522              		.loc 1 92 0
 523 003c 0120     		movs	r0, #1
  93:..\u8g2-master\csrc/u8g2_polygon.c **** 
 524              		.loc 1 93 0
 525 003e 7047     		bx	lr
 526              	.L37:
  81:..\u8g2-master\csrc/u8g2_polygon.c ****   
 527              		.loc 1 81 0
 528 0040 0020     		movs	r0, #0
 529 0042 7047     		bx	lr
 530              	.L41:
 531              		.align	2
 532              	.L40:
 533 0044 00000000 		.word	u8g2_pg
 534              		.cfi_endproc
 535              	.LFE19:
 536              		.size	pge_Next.constprop.11, .-pge_Next.constprop.11
 537              		.section	.text.pge_Next.constprop.12,"ax",%progbits
 538              		.align	2
 539              		.thumb
 540              		.thumb_func
 541              		.type	pge_Next.constprop.12, %function
ARM GAS  C:\Users\info\AppData\Local\Temp\ccdlpvfJ.s 			page 17


 542              	pge_Next.constprop.12:
 543              	.LFB18:
  78:..\u8g2-master\csrc/u8g2_polygon.c **** {
 544              		.loc 1 78 0
 545              		.cfi_startproc
 546              		@ args = 0, pretend = 0, frame = 0
 547              		@ frame_needed = 0, uses_anonymous_args = 0
 548              		@ link register save eliminated.
 549              	.LVL56:
  80:..\u8g2-master\csrc/u8g2_polygon.c ****     return 0;
 550              		.loc 1 80 0
 551 0000 134B     		ldr	r3, .L48
 552 0002 B3F93C00 		ldrsh	r0, [r3, #60]
 553 0006 B3F93E20 		ldrsh	r2, [r3, #62]
 554 000a 8242     		cmp	r2, r0
 555 000c 1EDD     		ble	.L45
  78:..\u8g2-master\csrc/u8g2_polygon.c **** {
 556              		.loc 1 78 0
 557 000e 30B4     		push	{r4, r5}
 558              		.cfi_def_cfa_offset 8
 559              		.cfi_offset 4, -8
 560              		.cfi_offset 5, -4
  84:..\u8g2-master\csrc/u8g2_polygon.c ****   if ( pge->error > 0 )
 561              		.loc 1 84 0
 562 0010 5A8F     		ldrh	r2, [r3, #58]
 563 0012 B3F84250 		ldrh	r5, [r3, #66]
  83:..\u8g2-master\csrc/u8g2_polygon.c ****   pge->error += pge->error_offset;
 564              		.loc 1 83 0
 565 0016 B3F84040 		ldrh	r4, [r3, #64]
 566 001a 198F     		ldrh	r1, [r3, #56]
  84:..\u8g2-master\csrc/u8g2_polygon.c ****   if ( pge->error > 0 )
 567              		.loc 1 84 0
 568 001c 2A44     		add	r2, r2, r5
 569 001e 92B2     		uxth	r2, r2
  83:..\u8g2-master\csrc/u8g2_polygon.c ****   pge->error += pge->error_offset;
 570              		.loc 1 83 0
 571 0020 2144     		add	r1, r1, r4
  84:..\u8g2-master\csrc/u8g2_polygon.c ****   if ( pge->error > 0 )
 572              		.loc 1 84 0
 573 0022 14B2     		sxth	r4, r2
  83:..\u8g2-master\csrc/u8g2_polygon.c ****   pge->error += pge->error_offset;
 574              		.loc 1 83 0
 575 0024 89B2     		uxth	r1, r1
  85:..\u8g2-master\csrc/u8g2_polygon.c ****   {
 576              		.loc 1 85 0
 577 0026 002C     		cmp	r4, #0
  84:..\u8g2-master\csrc/u8g2_polygon.c ****   if ( pge->error > 0 )
 578              		.loc 1 84 0
 579 0028 A3F84240 		strh	r4, [r3, #66]	@ movhi
  83:..\u8g2-master\csrc/u8g2_polygon.c ****   pge->error += pge->error_offset;
 580              		.loc 1 83 0
 581 002c A3F84010 		strh	r1, [r3, #64]	@ movhi
  85:..\u8g2-master\csrc/u8g2_polygon.c ****   {
 582              		.loc 1 85 0
 583 0030 07DD     		ble	.L44
  87:..\u8g2-master\csrc/u8g2_polygon.c ****     pge->error -= pge->height;
 584              		.loc 1 87 0
ARM GAS  C:\Users\info\AppData\Local\Temp\ccdlpvfJ.s 			page 18


 585 0032 9C8E     		ldrh	r4, [r3, #52]
  88:..\u8g2-master\csrc/u8g2_polygon.c ****   }  
 586              		.loc 1 88 0
 587 0034 DD8E     		ldrh	r5, [r3, #54]
  87:..\u8g2-master\csrc/u8g2_polygon.c ****     pge->error -= pge->height;
 588              		.loc 1 87 0
 589 0036 2144     		add	r1, r1, r4
  88:..\u8g2-master\csrc/u8g2_polygon.c ****   }  
 590              		.loc 1 88 0
 591 0038 521B     		subs	r2, r2, r5
  87:..\u8g2-master\csrc/u8g2_polygon.c ****     pge->error -= pge->height;
 592              		.loc 1 87 0
 593 003a A3F84010 		strh	r1, [r3, #64]	@ movhi
  88:..\u8g2-master\csrc/u8g2_polygon.c ****   }  
 594              		.loc 1 88 0
 595 003e A3F84220 		strh	r2, [r3, #66]	@ movhi
 596              	.L44:
  91:..\u8g2-master\csrc/u8g2_polygon.c ****   return 1;
 597              		.loc 1 91 0
 598 0042 0130     		adds	r0, r0, #1
 599 0044 9887     		strh	r0, [r3, #60]	@ movhi
  93:..\u8g2-master\csrc/u8g2_polygon.c **** 
 600              		.loc 1 93 0
 601 0046 30BC     		pop	{r4, r5}
 602              		.cfi_restore 5
 603              		.cfi_restore 4
 604              		.cfi_def_cfa_offset 0
  92:..\u8g2-master\csrc/u8g2_polygon.c **** }
 605              		.loc 1 92 0
 606 0048 0120     		movs	r0, #1
  93:..\u8g2-master\csrc/u8g2_polygon.c **** 
 607              		.loc 1 93 0
 608 004a 7047     		bx	lr
 609              	.L45:
  81:..\u8g2-master\csrc/u8g2_polygon.c ****   
 610              		.loc 1 81 0
 611 004c 0020     		movs	r0, #0
 612 004e 7047     		bx	lr
 613              	.L49:
 614              		.align	2
 615              	.L48:
 616 0050 00000000 		.word	u8g2_pg
 617              		.cfi_endproc
 618              	.LFE18:
 619              		.size	pge_Next.constprop.12, .-pge_Next.constprop.12
 620              		.section	.text.pg_exec.constprop.3,"ax",%progbits
 621              		.align	2
 622              		.thumb
 623              		.thumb_func
 624              		.type	pg_exec.constprop.3, %function
 625              	pg_exec.constprop.3:
 626              	.LFB25:
 263:..\u8g2-master\csrc/u8g2_polygon.c ****   
 264:..\u8g2-master\csrc/u8g2_polygon.c ****   pge_Init(pge, x1, y1, x2, y2);
 265:..\u8g2-master\csrc/u8g2_polygon.c **** }
 266:..\u8g2-master\csrc/u8g2_polygon.c **** 
 267:..\u8g2-master\csrc/u8g2_polygon.c **** static void pg_exec(pg_struct *pg, u8g2_t *u8g2)
ARM GAS  C:\Users\info\AppData\Local\Temp\ccdlpvfJ.s 			page 19


 627              		.loc 1 267 0
 628              		.cfi_startproc
 629              		@ args = 0, pretend = 0, frame = 0
 630              		@ frame_needed = 0, uses_anonymous_args = 0
 631              	.LVL57:
 632 0000 F8B5     		push	{r3, r4, r5, r6, r7, lr}
 633              		.cfi_def_cfa_offset 24
 634              		.cfi_offset 3, -24
 635              		.cfi_offset 4, -20
 636              		.cfi_offset 5, -16
 637              		.cfi_offset 6, -12
 638              		.cfi_offset 7, -8
 639              		.cfi_offset 14, -4
 268:..\u8g2-master\csrc/u8g2_polygon.c **** {
 269:..\u8g2-master\csrc/u8g2_polygon.c ****   pg_word_t i = pg->total_scan_line_cnt;
 640              		.loc 1 269 0
 641 0002 2E4E     		ldr	r6, .L70
 267:..\u8g2-master\csrc/u8g2_polygon.c **** {
 642              		.loc 1 267 0
 643 0004 0546     		mov	r5, r0
 644              		.loc 1 269 0
 645 0006 B6F91A40 		ldrsh	r4, [r6, #26]
 646              	.LVL58:
 270:..\u8g2-master\csrc/u8g2_polygon.c **** 
 271:..\u8g2-master\csrc/u8g2_polygon.c ****   /* first line is skipped if the min y line is not flat */
 272:..\u8g2-master\csrc/u8g2_polygon.c ****   pg_line_init(pg, PG_LEFT);		
 647              		.loc 1 272 0
 648 000a FFF7FEFF 		bl	pg_line_init.constprop.4
 649              	.LVL59:
 273:..\u8g2-master\csrc/u8g2_polygon.c ****   pg_line_init(pg, PG_RIGHT);
 650              		.loc 1 273 0
 651 000e FFF7FEFF 		bl	pg_line_init.constprop.5
 652              	.LVL60:
 274:..\u8g2-master\csrc/u8g2_polygon.c ****   
 275:..\u8g2-master\csrc/u8g2_polygon.c ****   if ( pg->is_min_y_not_flat != 0 )
 653              		.loc 1 275 0
 654 0012 737E     		ldrb	r3, [r6, #25]	@ zero_extendqisi2
 655 0014 002B     		cmp	r3, #0
 656 0016 4CD1     		bne	.L68
 657              	.L51:
 658 0018 284F     		ldr	r7, .L70
 659              	.L61:
 660 001a B6F93C20 		ldrsh	r2, [r6, #60]
 661              	.LVL61:
 662              	.LBB40:
 663              	.LBB41:
 217:..\u8g2-master\csrc/u8g2_polygon.c ****     return;
 664              		.loc 1 217 0
 665 001e 002A     		cmp	r2, #0
 666 0020 1EDB     		blt	.L57
 219:..\u8g2-master\csrc/u8g2_polygon.c ****     return;
 667              		.loc 1 219 0
 668 0022 95F84430 		ldrb	r3, [r5, #68]	@ zero_extendqisi2
 669 0026 9A42     		cmp	r2, r3
 670 0028 1ADA     		bge	.L57
 671 002a B7F92830 		ldrsh	r3, [r7, #40]
 672 002e B7F94000 		ldrsh	r0, [r7, #64]
ARM GAS  C:\Users\info\AppData\Local\Temp\ccdlpvfJ.s 			page 20


 221:..\u8g2-master\csrc/u8g2_polygon.c ****   {
 673              		.loc 1 221 0
 674 0032 8342     		cmp	r3, r0
 675 0034 26DA     		bge	.L53
 223:..\u8g2-master\csrc/u8g2_polygon.c ****       return;
 676              		.loc 1 223 0
 677 0036 0028     		cmp	r0, #0
 678 0038 12DB     		blt	.L57
 225:..\u8g2-master\csrc/u8g2_polygon.c ****       return;
 679              		.loc 1 225 0
 680 003a 95F84310 		ldrb	r1, [r5, #67]	@ zero_extendqisi2
 681 003e 8B42     		cmp	r3, r1
 682 0040 0EDA     		bge	.L57
 229:..\u8g2-master\csrc/u8g2_polygon.c ****       x2 = u8g2_GetDisplayWidth(u8g2);
 683              		.loc 1 229 0
 684 0042 8142     		cmp	r1, r0
 685 0044 23EAE373 		bic	r3, r3, r3, asr #31
 686              	.LVL62:
 230:..\u8g2-master\csrc/u8g2_polygon.c ****     u8g2_DrawHLine(u8g2, x1, y, x2 - x1);
 687              		.loc 1 230 0
 688 0048 D8BF     		it	le
 689 004a 08B2     		sxthle	r0, r1
 690              	.LVL63:
 231:..\u8g2-master\csrc/u8g2_polygon.c ****   }
 691              		.loc 1 231 0
 692 004c D9B2     		uxtb	r1, r3
 693 004e 431A     		subs	r3, r0, r1
 694              	.LVL64:
 695 0050 DBB2     		uxtb	r3, r3
 696 0052 D2B2     		uxtb	r2, r2
 697              	.LVL65:
 698 0054 2846     		mov	r0, r5
 699              	.LVL66:
 700 0056 FFF7FEFF 		bl	u8g2_DrawHLine
 701              	.LVL67:
 702 005a 01E0     		b	.L57
 703              	.L58:
 704              	.LBE41:
 705              	.LBE40:
 276:..\u8g2-master\csrc/u8g2_polygon.c ****   {
 277:..\u8g2-master\csrc/u8g2_polygon.c ****     pge_Next(&(pg->pge[PG_LEFT])); 
 278:..\u8g2-master\csrc/u8g2_polygon.c ****     pge_Next(&(pg->pge[PG_RIGHT]));
 279:..\u8g2-master\csrc/u8g2_polygon.c ****   }
 280:..\u8g2-master\csrc/u8g2_polygon.c **** 
 281:..\u8g2-master\csrc/u8g2_polygon.c ****   do
 282:..\u8g2-master\csrc/u8g2_polygon.c ****   {
 283:..\u8g2-master\csrc/u8g2_polygon.c ****     pg_hline(pg, u8g2);
 284:..\u8g2-master\csrc/u8g2_polygon.c ****     while ( pge_Next(&(pg->pge[PG_LEFT])) == 0 )
 285:..\u8g2-master\csrc/u8g2_polygon.c ****     {
 286:..\u8g2-master\csrc/u8g2_polygon.c ****       pg_line_init(pg, PG_LEFT);
 706              		.loc 1 286 0
 707 005c FFF7FEFF 		bl	pg_line_init.constprop.4
 708              	.LVL68:
 709              	.L57:
 284:..\u8g2-master\csrc/u8g2_polygon.c ****     {
 710              		.loc 1 284 0
 711 0060 FFF7FEFF 		bl	pge_Next.constprop.11
ARM GAS  C:\Users\info\AppData\Local\Temp\ccdlpvfJ.s 			page 21


 712              	.LVL69:
 713 0064 0028     		cmp	r0, #0
 714 0066 F9D0     		beq	.L58
 287:..\u8g2-master\csrc/u8g2_polygon.c ****     }
 288:..\u8g2-master\csrc/u8g2_polygon.c ****     while ( pge_Next(&(pg->pge[PG_RIGHT])) == 0 )
 715              		.loc 1 288 0
 716 0068 FFF7FEFF 		bl	pge_Next.constprop.12
 717              	.LVL70:
 718 006c 28B9     		cbnz	r0, .L69
 719              	.L60:
 289:..\u8g2-master\csrc/u8g2_polygon.c ****     {
 290:..\u8g2-master\csrc/u8g2_polygon.c ****       pg_line_init(pg, PG_RIGHT);
 720              		.loc 1 290 0
 721 006e FFF7FEFF 		bl	pg_line_init.constprop.5
 722              	.LVL71:
 288:..\u8g2-master\csrc/u8g2_polygon.c ****     {
 723              		.loc 1 288 0
 724 0072 FFF7FEFF 		bl	pge_Next.constprop.12
 725              	.LVL72:
 726 0076 0028     		cmp	r0, #0
 727 0078 F9D0     		beq	.L60
 728              	.L69:
 729 007a 013C     		subs	r4, r4, #1
 730              	.LVL73:
 731 007c 24B2     		sxth	r4, r4
 732              	.LVL74:
 291:..\u8g2-master\csrc/u8g2_polygon.c ****     }
 292:..\u8g2-master\csrc/u8g2_polygon.c ****     i--;
 293:..\u8g2-master\csrc/u8g2_polygon.c ****   } while( i > 0 );
 733              		.loc 1 293 0
 734 007e 002C     		cmp	r4, #0
 735 0080 CBDC     		bgt	.L61
 294:..\u8g2-master\csrc/u8g2_polygon.c **** }
 736              		.loc 1 294 0
 737 0082 F8BD     		pop	{r3, r4, r5, r6, r7, pc}
 738              	.LVL75:
 739              	.L53:
 740              	.LBB43:
 741              	.LBB42:
 235:..\u8g2-master\csrc/u8g2_polygon.c ****       return;
 742              		.loc 1 235 0
 743 0084 002B     		cmp	r3, #0
 744 0086 EBDB     		blt	.L57
 237:..\u8g2-master\csrc/u8g2_polygon.c ****       return;
 745              		.loc 1 237 0
 746 0088 95F84310 		ldrb	r1, [r5, #67]	@ zero_extendqisi2
 747 008c 8842     		cmp	r0, r1
 748 008e E7DA     		bge	.L57
 239:..\u8g2-master\csrc/u8g2_polygon.c ****       x1 = 0;
 749              		.loc 1 239 0
 750 0090 0028     		cmp	r0, #0
 751 0092 AEBF     		itee	ge
 752 0094 9E46     		movge	lr, r3
 753 0096 4FF0000E 		movlt	lr, #0
 240:..\u8g2-master\csrc/u8g2_polygon.c ****     if ( x1 >= u8g2_GetDisplayWidth(u8g2) )
 754              		.loc 1 240 0
 755 009a 7346     		movlt	r3, lr
ARM GAS  C:\Users\info\AppData\Local\Temp\ccdlpvfJ.s 			page 22


 756              	.LVL76:
 241:..\u8g2-master\csrc/u8g2_polygon.c ****       x1 = u8g2_GetDisplayWidth(u8g2);
 757              		.loc 1 241 0
 758 009c 7145     		cmp	r1, lr
 242:..\u8g2-master\csrc/u8g2_polygon.c ****     u8g2_DrawHLine(u8g2, x2, y, x1 - x2);
 759              		.loc 1 242 0
 760 009e D8BF     		it	le
 761 00a0 0BB2     		sxthle	r3, r1
 762              	.LVL77:
 243:..\u8g2-master\csrc/u8g2_polygon.c ****   }
 763              		.loc 1 243 0
 764 00a2 C1B2     		uxtb	r1, r0
 765 00a4 5B1A     		subs	r3, r3, r1
 766              	.LVL78:
 767 00a6 DBB2     		uxtb	r3, r3
 768 00a8 D2B2     		uxtb	r2, r2
 769              	.LVL79:
 770 00aa 2846     		mov	r0, r5
 771              	.LVL80:
 772 00ac FFF7FEFF 		bl	u8g2_DrawHLine
 773              	.LVL81:
 774 00b0 D6E7     		b	.L57
 775              	.LVL82:
 776              	.L68:
 777              	.LBE42:
 778              	.LBE43:
 277:..\u8g2-master\csrc/u8g2_polygon.c ****     pge_Next(&(pg->pge[PG_RIGHT]));
 779              		.loc 1 277 0
 780 00b2 FFF7FEFF 		bl	pge_Next.constprop.11
 781              	.LVL83:
 278:..\u8g2-master\csrc/u8g2_polygon.c ****   }
 782              		.loc 1 278 0
 783 00b6 FFF7FEFF 		bl	pge_Next.constprop.12
 784              	.LVL84:
 785 00ba ADE7     		b	.L51
 786              	.L71:
 787              		.align	2
 788              	.L70:
 789 00bc 00000000 		.word	u8g2_pg
 790              		.cfi_endproc
 791              	.LFE25:
 792              		.size	pg_exec.constprop.3, .-pg_exec.constprop.3
 793              		.section	.text.u8g2_ClearPolygonXY,"ax",%progbits
 794              		.align	2
 795              		.global	u8g2_ClearPolygonXY
 796              		.thumb
 797              		.thumb_func
 798              		.type	u8g2_ClearPolygonXY, %function
 799              	u8g2_ClearPolygonXY:
 800              	.LFB12:
 295:..\u8g2-master\csrc/u8g2_polygon.c **** 
 296:..\u8g2-master\csrc/u8g2_polygon.c **** /*===========================================*/
 297:..\u8g2-master\csrc/u8g2_polygon.c **** /* API procedures */
 298:..\u8g2-master\csrc/u8g2_polygon.c **** 
 299:..\u8g2-master\csrc/u8g2_polygon.c **** static void pg_ClearPolygonXY(pg_struct *pg)
 300:..\u8g2-master\csrc/u8g2_polygon.c **** {
 301:..\u8g2-master\csrc/u8g2_polygon.c ****   pg->cnt = 0;
ARM GAS  C:\Users\info\AppData\Local\Temp\ccdlpvfJ.s 			page 23


 302:..\u8g2-master\csrc/u8g2_polygon.c **** }
 303:..\u8g2-master\csrc/u8g2_polygon.c **** 
 304:..\u8g2-master\csrc/u8g2_polygon.c **** static void pg_AddPolygonXY(pg_struct *pg, int16_t x, int16_t y)
 305:..\u8g2-master\csrc/u8g2_polygon.c **** {
 306:..\u8g2-master\csrc/u8g2_polygon.c ****   if ( pg->cnt < PG_MAX_POINTS )
 307:..\u8g2-master\csrc/u8g2_polygon.c ****   {
 308:..\u8g2-master\csrc/u8g2_polygon.c ****     pg->list[pg->cnt].x = x;
 309:..\u8g2-master\csrc/u8g2_polygon.c ****     pg->list[pg->cnt].y = y;
 310:..\u8g2-master\csrc/u8g2_polygon.c ****     pg->cnt++;
 311:..\u8g2-master\csrc/u8g2_polygon.c ****   }
 312:..\u8g2-master\csrc/u8g2_polygon.c **** }
 313:..\u8g2-master\csrc/u8g2_polygon.c **** 
 314:..\u8g2-master\csrc/u8g2_polygon.c **** static void pg_DrawPolygon(pg_struct *pg, u8g2_t *u8g2)
 315:..\u8g2-master\csrc/u8g2_polygon.c **** {
 316:..\u8g2-master\csrc/u8g2_polygon.c ****   if ( pg_prepare(pg) == 0 )
 317:..\u8g2-master\csrc/u8g2_polygon.c ****     return;
 318:..\u8g2-master\csrc/u8g2_polygon.c ****   pg_exec(pg, u8g2);
 319:..\u8g2-master\csrc/u8g2_polygon.c **** }
 320:..\u8g2-master\csrc/u8g2_polygon.c **** 
 321:..\u8g2-master\csrc/u8g2_polygon.c **** pg_struct u8g2_pg;
 322:..\u8g2-master\csrc/u8g2_polygon.c **** 
 323:..\u8g2-master\csrc/u8g2_polygon.c **** void u8g2_ClearPolygonXY(void)
 324:..\u8g2-master\csrc/u8g2_polygon.c **** {
 801              		.loc 1 324 0
 802              		.cfi_startproc
 803              		@ args = 0, pretend = 0, frame = 0
 804              		@ frame_needed = 0, uses_anonymous_args = 0
 805              		@ link register save eliminated.
 806              	.LVL85:
 807              	.LBB44:
 808              	.LBB45:
 301:..\u8g2-master\csrc/u8g2_polygon.c **** }
 809              		.loc 1 301 0
 810 0000 014B     		ldr	r3, .L73
 811 0002 0022     		movs	r2, #0
 812 0004 1A76     		strb	r2, [r3, #24]
 813 0006 7047     		bx	lr
 814              	.L74:
 815              		.align	2
 816              	.L73:
 817 0008 00000000 		.word	u8g2_pg
 818              	.LBE45:
 819              	.LBE44:
 820              		.cfi_endproc
 821              	.LFE12:
 822              		.size	u8g2_ClearPolygonXY, .-u8g2_ClearPolygonXY
 823              		.section	.text.u8g2_AddPolygonXY,"ax",%progbits
 824              		.align	2
 825              		.global	u8g2_AddPolygonXY
 826              		.thumb
 827              		.thumb_func
 828              		.type	u8g2_AddPolygonXY, %function
 829              	u8g2_AddPolygonXY:
 830              	.LFB13:
 325:..\u8g2-master\csrc/u8g2_polygon.c ****   pg_ClearPolygonXY(&u8g2_pg);
 326:..\u8g2-master\csrc/u8g2_polygon.c **** }
 327:..\u8g2-master\csrc/u8g2_polygon.c **** 
ARM GAS  C:\Users\info\AppData\Local\Temp\ccdlpvfJ.s 			page 24


 328:..\u8g2-master\csrc/u8g2_polygon.c **** void u8g2_AddPolygonXY(U8X8_UNUSED u8g2_t *u8g2, int16_t x, int16_t y)
 329:..\u8g2-master\csrc/u8g2_polygon.c **** {
 831              		.loc 1 329 0
 832              		.cfi_startproc
 833              		@ args = 0, pretend = 0, frame = 0
 834              		@ frame_needed = 0, uses_anonymous_args = 0
 835              		@ link register save eliminated.
 836              	.LVL86:
 837              	.LBB46:
 838              	.LBB47:
 306:..\u8g2-master\csrc/u8g2_polygon.c ****   {
 839              		.loc 1 306 0
 840 0000 064B     		ldr	r3, .L80
 841              	.LVL87:
 842 0002 187E     		ldrb	r0, [r3, #24]	@ zero_extendqisi2
 843              	.LVL88:
 844 0004 0528     		cmp	r0, #5
 845 0006 08D8     		bhi	.L79
 846              	.LBE47:
 847              	.LBE46:
 848              		.loc 1 329 0
 849 0008 30B4     		push	{r4, r5}
 850              		.cfi_def_cfa_offset 8
 851              		.cfi_offset 4, -8
 852              		.cfi_offset 5, -4
 853              	.LBB49:
 854              	.LBB48:
 310:..\u8g2-master\csrc/u8g2_polygon.c ****   }
 855              		.loc 1 310 0
 856 000a 441C     		adds	r4, r0, #1
 309:..\u8g2-master\csrc/u8g2_polygon.c ****     pg->cnt++;
 857              		.loc 1 309 0
 858 000c 03EB8005 		add	r5, r3, r0, lsl #2
 310:..\u8g2-master\csrc/u8g2_polygon.c ****   }
 859              		.loc 1 310 0
 860 0010 1C76     		strb	r4, [r3, #24]
 861              	.LVL89:
 308:..\u8g2-master\csrc/u8g2_polygon.c ****     pg->list[pg->cnt].y = y;
 862              		.loc 1 308 0
 863 0012 23F82010 		strh	r1, [r3, r0, lsl #2]	@ movhi
 309:..\u8g2-master\csrc/u8g2_polygon.c ****     pg->cnt++;
 864              		.loc 1 309 0
 865 0016 6A80     		strh	r2, [r5, #2]	@ movhi
 866              	.LBE48:
 867              	.LBE49:
 330:..\u8g2-master\csrc/u8g2_polygon.c ****   pg_AddPolygonXY(&u8g2_pg, x, y);
 331:..\u8g2-master\csrc/u8g2_polygon.c **** }
 868              		.loc 1 331 0
 869 0018 30BC     		pop	{r4, r5}
 870              		.cfi_restore 5
 871              		.cfi_restore 4
 872              		.cfi_def_cfa_offset 0
 873              	.L79:
 874 001a 7047     		bx	lr
 875              	.L81:
 876              		.align	2
 877              	.L80:
ARM GAS  C:\Users\info\AppData\Local\Temp\ccdlpvfJ.s 			page 25


 878 001c 00000000 		.word	u8g2_pg
 879              		.cfi_endproc
 880              	.LFE13:
 881              		.size	u8g2_AddPolygonXY, .-u8g2_AddPolygonXY
 882              		.section	.text.u8g2_DrawPolygon,"ax",%progbits
 883              		.align	2
 884              		.global	u8g2_DrawPolygon
 885              		.thumb
 886              		.thumb_func
 887              		.type	u8g2_DrawPolygon, %function
 888              	u8g2_DrawPolygon:
 889              	.LFB14:
 332:..\u8g2-master\csrc/u8g2_polygon.c **** 
 333:..\u8g2-master\csrc/u8g2_polygon.c **** void u8g2_DrawPolygon(u8g2_t *u8g2)
 334:..\u8g2-master\csrc/u8g2_polygon.c **** {
 890              		.loc 1 334 0
 891              		.cfi_startproc
 892              		@ args = 0, pretend = 0, frame = 0
 893              		@ frame_needed = 0, uses_anonymous_args = 0
 894              	.LVL90:
 895 0000 F8B5     		push	{r3, r4, r5, r6, r7, lr}
 896              		.cfi_def_cfa_offset 24
 897              		.cfi_offset 3, -24
 898              		.cfi_offset 4, -20
 899              		.cfi_offset 5, -16
 900              		.cfi_offset 6, -12
 901              		.cfi_offset 7, -8
 902              		.cfi_offset 14, -4
 903              	.LBB54:
 904              	.LBB55:
 905              	.LBB56:
 906              	.LBB57:
 161:..\u8g2-master\csrc/u8g2_polygon.c ****   pg->pge[PG_LEFT].next_idx_fn = pg_dec;
 907              		.loc 1 161 0
 908 0002 4E4A     		ldr	r2, .L131
 909 0004 4E49     		ldr	r1, .L131+4
 168:..\u8g2-master\csrc/u8g2_polygon.c ****   {
 910              		.loc 1 168 0
 911 0006 167E     		ldrb	r6, [r2, #24]	@ zero_extendqisi2
 162:..\u8g2-master\csrc/u8g2_polygon.c ****   
 912              		.loc 1 162 0
 913 0008 4E4B     		ldr	r3, .L131+8
 167:..\u8g2-master\csrc/u8g2_polygon.c ****   for( i = 1; i < pg->cnt; i++ )
 914              		.loc 1 167 0
 915 000a 0025     		movs	r5, #0
 916              	.LVL91:
 168:..\u8g2-master\csrc/u8g2_polygon.c ****   {
 917              		.loc 1 168 0
 918 000c 012E     		cmp	r6, #1
 161:..\u8g2-master\csrc/u8g2_polygon.c ****   pg->pge[PG_LEFT].next_idx_fn = pg_dec;
 919              		.loc 1 161 0
 920 000e 5164     		str	r1, [r2, #68]
 162:..\u8g2-master\csrc/u8g2_polygon.c ****   
 921              		.loc 1 162 0
 922 0010 D362     		str	r3, [r2, #44]
 165:..\u8g2-master\csrc/u8g2_polygon.c ****   min_y = pg->list[0].y;
 923              		.loc 1 165 0
ARM GAS  C:\Users\info\AppData\Local\Temp\ccdlpvfJ.s 			page 26


 924 0012 B2F90240 		ldrsh	r4, [r2, #2]
 925              	.LVL92:
 167:..\u8g2-master\csrc/u8g2_polygon.c ****   for( i = 1; i < pg->cnt; i++ )
 926              		.loc 1 167 0
 927 0016 82F83050 		strb	r5, [r2, #48]
 928              	.LVL93:
 168:..\u8g2-master\csrc/u8g2_polygon.c ****   {
 929              		.loc 1 168 0
 930 001a 40F28880 		bls	.L83
 170:..\u8g2-master\csrc/u8g2_polygon.c ****     {
 931              		.loc 1 170 0
 932 001e B2F90610 		ldrsh	r1, [r2, #6]
 933 0022 2346     		mov	r3, r4
 934 0024 8C42     		cmp	r4, r1
 935 0026 B8BF     		it	lt
 936 0028 0B46     		movlt	r3, r1
 937              	.LVL94:
 174:..\u8g2-master\csrc/u8g2_polygon.c ****     {
 938              		.loc 1 174 0
 939 002a 8C42     		cmp	r4, r1
 940 002c 36DC     		bgt	.L84
 941              	.LVL95:
 168:..\u8g2-master\csrc/u8g2_polygon.c ****   {
 942              		.loc 1 168 0
 943 002e 022E     		cmp	r6, #2
 944 0030 2ED0     		beq	.L91
 945 0032 2146     		mov	r1, r4
 946              	.LVL96:
 170:..\u8g2-master\csrc/u8g2_polygon.c ****     {
 947              		.loc 1 170 0
 948 0034 B2F90A40 		ldrsh	r4, [r2, #10]
 168:..\u8g2-master\csrc/u8g2_polygon.c ****   {
 949              		.loc 1 168 0
 950 0038 AE46     		mov	lr, r5
 951 003a A342     		cmp	r3, r4
 952 003c B8BF     		it	lt
 953 003e 2346     		movlt	r3, r4
 954              	.LVL97:
 174:..\u8g2-master\csrc/u8g2_polygon.c ****     {
 955              		.loc 1 174 0
 956 0040 A142     		cmp	r1, r4
 957 0042 37DC     		bgt	.L86
 958              	.L127:
 959              	.LVL98:
 168:..\u8g2-master\csrc/u8g2_polygon.c ****   {
 960              		.loc 1 168 0
 961 0044 032E     		cmp	r6, #3
 962 0046 0C46     		mov	r4, r1
 963 0048 48D0     		beq	.L87
 964              	.LVL99:
 170:..\u8g2-master\csrc/u8g2_polygon.c ****     {
 965              		.loc 1 170 0
 966 004a B2F90E10 		ldrsh	r1, [r2, #14]
 967 004e 8B42     		cmp	r3, r1
 968 0050 B8BF     		it	lt
 969 0052 0B46     		movlt	r3, r1
 970              	.LVL100:
ARM GAS  C:\Users\info\AppData\Local\Temp\ccdlpvfJ.s 			page 27


 174:..\u8g2-master\csrc/u8g2_polygon.c ****     {
 971              		.loc 1 174 0
 972 0054 A142     		cmp	r1, r4
 973 0056 3ADB     		blt	.L88
 974              	.L129:
 975              	.LVL101:
 168:..\u8g2-master\csrc/u8g2_polygon.c ****   {
 976              		.loc 1 168 0
 977 0058 042E     		cmp	r6, #4
 978 005a 3FD0     		beq	.L87
 979 005c 2146     		mov	r1, r4
 980              	.LVL102:
 981              	.L99:
 170:..\u8g2-master\csrc/u8g2_polygon.c ****     {
 982              		.loc 1 170 0
 983 005e B2F91270 		ldrsh	r7, [r2, #18]
 984 0062 BB42     		cmp	r3, r7
 985 0064 B8BF     		it	lt
 986 0066 3B46     		movlt	r3, r7
 987              	.LVL103:
 174:..\u8g2-master\csrc/u8g2_polygon.c ****     {
 988              		.loc 1 174 0
 989 0068 8F42     		cmp	r7, r1
 990 006a AEBF     		itee	ge
 991 006c 0F46     		movge	r7, r1
 992 006e 4FF0010E 		movlt	lr, #1
 168:..\u8g2-master\csrc/u8g2_polygon.c ****   {
 993              		.loc 1 168 0
 994 0072 0425     		movlt	r5, #4
 995              	.LVL104:
 996 0074 052E     		cmp	r6, #5
 997 0076 30D0     		beq	.L102
 170:..\u8g2-master\csrc/u8g2_polygon.c ****     {
 998              		.loc 1 170 0
 999 0078 B2F91640 		ldrsh	r4, [r2, #22]
 1000 007c A342     		cmp	r3, r4
 1001 007e B8BF     		it	lt
 1002 0080 2346     		movlt	r3, r4
 1003              	.LVL105:
 174:..\u8g2-master\csrc/u8g2_polygon.c ****     {
 1004              		.loc 1 174 0
 1005 0082 BC42     		cmp	r4, r7
 1006 0084 29DA     		bge	.L102
 168:..\u8g2-master\csrc/u8g2_polygon.c ****   {
 1007              		.loc 1 168 0
 1008 0086 0525     		movs	r5, #5
 1009              	.LVL106:
 1010              	.L121:
 1011 0088 2146     		mov	r1, r4
 1012              	.L97:
 1013 008a 0C46     		mov	r4, r1
 1014 008c 82F83050 		strb	r5, [r2, #48]
 1015              	.L91:
 1016 0090 1B1B     		subs	r3, r3, r4
 1017              	.LVL107:
 1018 0092 1BB2     		sxth	r3, r3
 183:..\u8g2-master\csrc/u8g2_polygon.c ****   
ARM GAS  C:\Users\info\AppData\Local\Temp\ccdlpvfJ.s 			page 28


 1019              		.loc 1 183 0
 1020 0094 5383     		strh	r3, [r2, #26]	@ movhi
 1021 0096 294D     		ldr	r5, .L131
 186:..\u8g2-master\csrc/u8g2_polygon.c ****     return 0;
 1022              		.loc 1 186 0
 1023 0098 23BB     		cbnz	r3, .L126
 1024              	.LVL108:
 1025              	.L82:
 1026 009a F8BD     		pop	{r3, r4, r5, r6, r7, pc}
 1027              	.LVL109:
 1028              	.L84:
 168:..\u8g2-master\csrc/u8g2_polygon.c ****   {
 1029              		.loc 1 168 0
 1030 009c 022E     		cmp	r6, #2
 1031 009e 4FF00105 		mov	r5, #1
 1032 00a2 F2D0     		beq	.L97
 170:..\u8g2-master\csrc/u8g2_polygon.c ****     {
 1033              		.loc 1 170 0
 1034 00a4 B2F90A40 		ldrsh	r4, [r2, #10]
 168:..\u8g2-master\csrc/u8g2_polygon.c ****   {
 1035              		.loc 1 168 0
 1036 00a8 AE46     		mov	lr, r5
 1037 00aa A342     		cmp	r3, r4
 1038 00ac B8BF     		it	lt
 1039 00ae 2346     		movlt	r3, r4
 1040              	.LVL110:
 174:..\u8g2-master\csrc/u8g2_polygon.c ****     {
 1041              		.loc 1 174 0
 1042 00b0 A142     		cmp	r1, r4
 1043 00b2 C7DD     		ble	.L127
 1044              	.L86:
 1045              	.LVL111:
 168:..\u8g2-master\csrc/u8g2_polygon.c ****   {
 1046              		.loc 1 168 0
 1047 00b4 032E     		cmp	r6, #3
 1048 00b6 3CD0     		beq	.L128
 170:..\u8g2-master\csrc/u8g2_polygon.c ****     {
 1049              		.loc 1 170 0
 1050 00b8 B2F90E10 		ldrsh	r1, [r2, #14]
 168:..\u8g2-master\csrc/u8g2_polygon.c ****   {
 1051              		.loc 1 168 0
 1052 00bc 4FF0010E 		mov	lr, #1
 1053 00c0 8B42     		cmp	r3, r1
 1054 00c2 B8BF     		it	lt
 1055 00c4 0B46     		movlt	r3, r1
 1056              	.LVL112:
 174:..\u8g2-master\csrc/u8g2_polygon.c ****     {
 1057              		.loc 1 174 0
 1058 00c6 A142     		cmp	r1, r4
 168:..\u8g2-master\csrc/u8g2_polygon.c ****   {
 1059              		.loc 1 168 0
 1060 00c8 4FF00205 		mov	r5, #2
 1061              	.LVL113:
 174:..\u8g2-master\csrc/u8g2_polygon.c ****     {
 1062              		.loc 1 174 0
 1063 00cc C4DA     		bge	.L129
 1064              	.L88:
ARM GAS  C:\Users\info\AppData\Local\Temp\ccdlpvfJ.s 			page 29


 1065              	.LVL114:
 168:..\u8g2-master\csrc/u8g2_polygon.c ****   {
 1066              		.loc 1 168 0
 1067 00ce 042E     		cmp	r6, #4
 1068 00d0 32D0     		beq	.L130
 1069 00d2 4FF0010E 		mov	lr, #1
 1070 00d6 0325     		movs	r5, #3
 1071 00d8 C1E7     		b	.L99
 1072              	.LVL115:
 1073              	.L102:
 1074 00da 3C46     		mov	r4, r7
 1075              	.LVL116:
 1076              	.L87:
 1077 00dc BEF1000F 		cmp	lr, #0
 1078 00e0 D6D0     		beq	.L91
 1079 00e2 D1E7     		b	.L121
 1080              	.LVL117:
 1081              	.L126:
 190:..\u8g2-master\csrc/u8g2_polygon.c ****   pg_expand_min_y(pg, min_y, PG_RIGHT);
 1082              		.loc 1 190 0
 1083 00e4 95F83030 		ldrb	r3, [r5, #48]	@ zero_extendqisi2
 1084 00e8 0646     		mov	r6, r0
 1085 00ea 85F84830 		strb	r3, [r5, #72]
 191:..\u8g2-master\csrc/u8g2_polygon.c ****   pg_expand_min_y(pg, min_y, PG_LEFT);
 1086              		.loc 1 191 0
 1087 00ee 2046     		mov	r0, r4
 1088              	.LVL118:
 1089 00f0 FFF7FEFF 		bl	pg_expand_min_y.constprop.8
 1090              	.LVL119:
 192:..\u8g2-master\csrc/u8g2_polygon.c ****   
 1091              		.loc 1 192 0
 1092 00f4 2046     		mov	r0, r4
 1093 00f6 FFF7FEFF 		bl	pg_expand_min_y.constprop.9
 1094              	.LVL120:
 196:..\u8g2-master\csrc/u8g2_polygon.c ****   {
 1095              		.loc 1 196 0
 1096 00fa 95F83020 		ldrb	r2, [r5, #48]	@ zero_extendqisi2
 1097 00fe 95F84830 		ldrb	r3, [r5, #72]	@ zero_extendqisi2
 1098 0102 35F92220 		ldrsh	r2, [r5, r2, lsl #2]
 1099 0106 35F92330 		ldrsh	r3, [r5, r3, lsl #2]
 195:..\u8g2-master\csrc/u8g2_polygon.c ****   if ( pg->list[pg->pge[PG_LEFT].curr_idx].x != pg->list[pg->pge[PG_RIGHT].curr_idx].x )
 1100              		.loc 1 195 0
 1101 010a 0121     		movs	r1, #1
 196:..\u8g2-master\csrc/u8g2_polygon.c ****   {
 1102              		.loc 1 196 0
 1103 010c 9A42     		cmp	r2, r3
 195:..\u8g2-master\csrc/u8g2_polygon.c ****   if ( pg->list[pg->pge[PG_LEFT].curr_idx].x != pg->list[pg->pge[PG_RIGHT].curr_idx].x )
 1104              		.loc 1 195 0
 1105 010e 6976     		strb	r1, [r5, #25]
 196:..\u8g2-master\csrc/u8g2_polygon.c ****   {
 1106              		.loc 1 196 0
 1107 0110 06D0     		beq	.L93
 198:..\u8g2-master\csrc/u8g2_polygon.c ****   }
 1108              		.loc 1 198 0
 1109 0112 0023     		movs	r3, #0
 1110 0114 6B76     		strb	r3, [r5, #25]
 1111              	.L94:
ARM GAS  C:\Users\info\AppData\Local\Temp\ccdlpvfJ.s 			page 30


 1112              	.LVL121:
 1113              	.LBE57:
 1114              	.LBE56:
 318:..\u8g2-master\csrc/u8g2_polygon.c **** }
 1115              		.loc 1 318 0
 1116 0116 3046     		mov	r0, r6
 1117              	.LBE55:
 1118              	.LBE54:
 335:..\u8g2-master\csrc/u8g2_polygon.c ****   pg_DrawPolygon(&u8g2_pg, u8g2);
 336:..\u8g2-master\csrc/u8g2_polygon.c **** }
 1119              		.loc 1 336 0
 1120 0118 BDE8F840 		pop	{r3, r4, r5, r6, r7, lr}
 1121              		.cfi_remember_state
 1122              		.cfi_restore 14
 1123              		.cfi_restore 7
 1124              		.cfi_restore 6
 1125              		.cfi_restore 5
 1126              		.cfi_restore 4
 1127              		.cfi_restore 3
 1128              		.cfi_def_cfa_offset 0
 1129              	.LVL122:
 1130              	.LBB61:
 1131              	.LBB60:
 318:..\u8g2-master\csrc/u8g2_polygon.c **** }
 1132              		.loc 1 318 0
 1133 011c FFF7FEBF 		b	pg_exec.constprop.3
 1134              	.LVL123:
 1135              	.L93:
 1136              		.cfi_restore_state
 1137              	.LBB59:
 1138              	.LBB58:
 202:..\u8g2-master\csrc/u8g2_polygon.c ****     if ( pg->total_scan_line_cnt == 0 )
 1139              		.loc 1 202 0
 1140 0120 6B8B     		ldrh	r3, [r5, #26]
 1141 0122 013B     		subs	r3, r3, #1
 1142 0124 1BB2     		sxth	r3, r3
 1143 0126 6B83     		strh	r3, [r5, #26]	@ movhi
 203:..\u8g2-master\csrc/u8g2_polygon.c ****       return 0;
 1144              		.loc 1 203 0
 1145 0128 002B     		cmp	r3, #0
 1146 012a F4D1     		bne	.L94
 1147 012c B5E7     		b	.L82
 1148              	.LVL124:
 1149              	.L83:
 183:..\u8g2-master\csrc/u8g2_polygon.c ****   
 1150              		.loc 1 183 0
 1151 012e 5583     		strh	r5, [r2, #26]	@ movhi
 1152 0130 F8BD     		pop	{r3, r4, r5, r6, r7, pc}
 1153              	.LVL125:
 1154              	.L128:
 168:..\u8g2-master\csrc/u8g2_polygon.c ****   {
 1155              		.loc 1 168 0
 1156 0132 2146     		mov	r1, r4
 1157 0134 0225     		movs	r5, #2
 1158 0136 A8E7     		b	.L97
 1159              	.LVL126:
 1160              	.L130:
ARM GAS  C:\Users\info\AppData\Local\Temp\ccdlpvfJ.s 			page 31


 1161 0138 0325     		movs	r5, #3
 1162 013a A6E7     		b	.L97
 1163              	.L132:
 1164              		.align	2
 1165              	.L131:
 1166 013c 00000000 		.word	u8g2_pg
 1167 0140 00000000 		.word	pg_inc
 1168 0144 00000000 		.word	pg_dec
 1169              	.LBE58:
 1170              	.LBE59:
 1171              	.LBE60:
 1172              	.LBE61:
 1173              		.cfi_endproc
 1174              	.LFE14:
 1175              		.size	u8g2_DrawPolygon, .-u8g2_DrawPolygon
 1176              		.section	.text.u8g2_DrawTriangle,"ax",%progbits
 1177              		.align	2
 1178              		.global	u8g2_DrawTriangle
 1179              		.thumb
 1180              		.thumb_func
 1181              		.type	u8g2_DrawTriangle, %function
 1182              	u8g2_DrawTriangle:
 1183              	.LFB15:
 337:..\u8g2-master\csrc/u8g2_polygon.c **** 
 338:..\u8g2-master\csrc/u8g2_polygon.c **** void u8g2_DrawTriangle(u8g2_t *u8g2, int16_t x0, int16_t y0, int16_t x1, int16_t y1, int16_t x2, in
 339:..\u8g2-master\csrc/u8g2_polygon.c **** {
 1184              		.loc 1 339 0
 1185              		.cfi_startproc
 1186              		@ args = 12, pretend = 0, frame = 0
 1187              		@ frame_needed = 0, uses_anonymous_args = 0
 1188              	.LVL127:
 1189 0000 F8B5     		push	{r3, r4, r5, r6, r7, lr}
 1190              		.cfi_def_cfa_offset 24
 1191              		.cfi_offset 3, -24
 1192              		.cfi_offset 4, -20
 1193              		.cfi_offset 5, -16
 1194              		.cfi_offset 6, -12
 1195              		.cfi_offset 7, -8
 1196              		.cfi_offset 14, -4
 1197 0002 0025     		movs	r5, #0
 1198 0004 2C46     		mov	r4, r5
 1199              		.loc 1 339 0
 1200 0006 BDF91CE0 		ldrsh	lr, [sp, #28]
 1201 000a BDF91870 		ldrsh	r7, [sp, #24]
 1202 000e 63F30F05 		bfi	r5, r3, #0, #16
 1203 0012 BDF92060 		ldrsh	r6, [sp, #32]
 1204 0016 0023     		movs	r3, #0
 1205              	.LVL128:
 1206 0018 61F30F03 		bfi	r3, r1, #0, #16
 1207 001c 6EF30F04 		bfi	r4, lr, #0, #16
 1208              	.LBB80:
 1209              	.LBB81:
 1210              	.LBB82:
 308:..\u8g2-master\csrc/u8g2_polygon.c ****     pg->list[pg->cnt].y = y;
 1211              		.loc 1 308 0
 1212 0020 2C49     		ldr	r1, .L155
 1213              	.LVL129:
ARM GAS  C:\Users\info\AppData\Local\Temp\ccdlpvfJ.s 			page 32


 1214 0022 67F31F45 		bfi	r5, r7, #16, #16
 1215 0026 66F31F44 		bfi	r4, r6, #16, #16
 1216 002a 62F31F43 		bfi	r3, r2, #16, #16
 1217              	.LBE82:
 1218              	.LBE81:
 1219              	.LBE80:
 1220              	.LBB87:
 1221              	.LBB88:
 1222              	.LBB89:
 1223              	.LBB90:
 1224              	.LBB91:
 161:..\u8g2-master\csrc/u8g2_polygon.c ****   pg->pge[PG_LEFT].next_idx_fn = pg_dec;
 1225              		.loc 1 161 0
 1226 002e 2A4F     		ldr	r7, .L155+4
 1227              	.LVL130:
 162:..\u8g2-master\csrc/u8g2_polygon.c ****   
 1228              		.loc 1 162 0
 1229 0030 2A4E     		ldr	r6, .L155+8
 1230              	.LVL131:
 1231              	.LBE91:
 1232              	.LBE90:
 1233              	.LBE89:
 1234              	.LBE88:
 1235              	.LBE87:
 1236              	.LBB108:
 1237              	.LBB85:
 1238              	.LBB83:
 308:..\u8g2-master\csrc/u8g2_polygon.c ****     pg->list[pg->cnt].y = y;
 1239              		.loc 1 308 0
 1240 0032 8C60     		str	r4, [r1, #8]
 1241 0034 0B60     		str	r3, [r1]
 1242              	.LBE83:
 1243              	.LBE85:
 1244              	.LBE108:
 1245              	.LBB109:
 1246              	.LBB110:
 1247              	.LBB111:
 310:..\u8g2-master\csrc/u8g2_polygon.c ****   }
 1248              		.loc 1 310 0
 1249 0036 0324     		movs	r4, #3
 1250              	.LBE111:
 1251              	.LBE110:
 1252              	.LBE109:
 1253              	.LBB114:
 1254              	.LBB104:
 1255              	.LBB100:
 1256              	.LBB96:
 1257              	.LBB92:
 170:..\u8g2-master\csrc/u8g2_polygon.c ****     {
 1258              		.loc 1 170 0
 1259 0038 2B14     		asrs	r3, r5, #16
 1260              	.LBE92:
 1261              	.LBE96:
 1262              	.LBE100:
 1263              	.LBE104:
 1264              	.LBE114:
 1265              	.LBB115:
ARM GAS  C:\Users\info\AppData\Local\Temp\ccdlpvfJ.s 			page 33


 1266              	.LBB113:
 1267              	.LBB112:
 310:..\u8g2-master\csrc/u8g2_polygon.c ****   }
 1268              		.loc 1 310 0
 1269 003a 0C76     		strb	r4, [r1, #24]
 1270              	.LVL132:
 1271              	.LBE112:
 1272              	.LBE113:
 1273              	.LBE115:
 1274              	.LBB116:
 1275              	.LBB105:
 1276              	.LBB101:
 1277              	.LBB97:
 1278              	.LBB93:
 174:..\u8g2-master\csrc/u8g2_polygon.c ****     {
 1279              		.loc 1 174 0
 1280 003c 9A42     		cmp	r2, r3
 167:..\u8g2-master\csrc/u8g2_polygon.c ****   for( i = 1; i < pg->cnt; i++ )
 1281              		.loc 1 167 0
 1282 003e 4FF00004 		mov	r4, #0
 161:..\u8g2-master\csrc/u8g2_polygon.c ****   pg->pge[PG_LEFT].next_idx_fn = pg_dec;
 1283              		.loc 1 161 0
 1284 0042 4F64     		str	r7, [r1, #68]
 162:..\u8g2-master\csrc/u8g2_polygon.c ****   
 1285              		.loc 1 162 0
 1286 0044 CE62     		str	r6, [r1, #44]
 1287              	.LVL133:
 1288              	.LBE93:
 1289              	.LBE97:
 1290              	.LBE101:
 1291              	.LBE105:
 1292              	.LBE116:
 1293              	.LBB117:
 1294              	.LBB86:
 1295              	.LBB84:
 308:..\u8g2-master\csrc/u8g2_polygon.c ****     pg->list[pg->cnt].y = y;
 1296              		.loc 1 308 0
 1297 0046 4D60     		str	r5, [r1, #4]
 1298              	.LBE84:
 1299              	.LBE86:
 1300              	.LBE117:
 1301              	.LBB118:
 1302              	.LBB106:
 1303              	.LBB102:
 1304              	.LBB98:
 1305              	.LBB94:
 167:..\u8g2-master\csrc/u8g2_polygon.c ****   for( i = 1; i < pg->cnt; i++ )
 1306              		.loc 1 167 0
 1307 0048 81F83040 		strb	r4, [r1, #48]
 1308              	.LVL134:
 174:..\u8g2-master\csrc/u8g2_polygon.c ****     {
 1309              		.loc 1 174 0
 1310 004c 12DC     		bgt	.L141
 1311 004e 1546     		mov	r5, r2
 1312 0050 2746     		mov	r7, r4
 1313              	.L134:
 1314              	.LVL135:
ARM GAS  C:\Users\info\AppData\Local\Temp\ccdlpvfJ.s 			page 34


 170:..\u8g2-master\csrc/u8g2_polygon.c ****     {
 1315              		.loc 1 170 0
 1316 0052 B1F90A60 		ldrsh	r6, [r1, #10]
 1317 0056 B342     		cmp	r3, r6
 1318 0058 B8BF     		it	lt
 1319 005a 3346     		movlt	r3, r6
 1320              	.LVL136:
 1321 005c 9342     		cmp	r3, r2
 1322 005e B8BF     		it	lt
 1323 0060 1346     		movlt	r3, r2
 1324              	.LVL137:
 174:..\u8g2-master\csrc/u8g2_polygon.c ****     {
 1325              		.loc 1 174 0
 1326 0062 AE42     		cmp	r6, r5
 1327 0064 0ADB     		blt	.L142
 1328              	.LVL138:
 1329 0066 9CBB     		cbnz	r4, .L153
 1330              	.LVL139:
 1331              	.L136:
 183:..\u8g2-master\csrc/u8g2_polygon.c ****   
 1332              		.loc 1 183 0
 1333 0068 5B1B     		subs	r3, r3, r5
 1334              	.LVL140:
 1335 006a 1BB2     		sxth	r3, r3
 1336 006c 4B83     		strh	r3, [r1, #26]	@ movhi
 1337 006e 194C     		ldr	r4, .L155
 186:..\u8g2-master\csrc/u8g2_polygon.c ****     return 0;
 1338              		.loc 1 186 0
 1339 0070 4BB9     		cbnz	r3, .L154
 1340              	.LVL141:
 1341              	.L133:
 1342 0072 F8BD     		pop	{r3, r4, r5, r6, r7, pc}
 1343              	.LVL142:
 1344              	.L141:
 174:..\u8g2-master\csrc/u8g2_polygon.c ****     {
 1345              		.loc 1 174 0
 1346 0074 0124     		movs	r4, #1
 168:..\u8g2-master\csrc/u8g2_polygon.c ****   {
 1347              		.loc 1 168 0
 1348 0076 2746     		mov	r7, r4
 174:..\u8g2-master\csrc/u8g2_polygon.c ****     {
 1349              		.loc 1 174 0
 1350 0078 1D46     		mov	r5, r3
 1351 007a EAE7     		b	.L134
 1352              	.LVL143:
 1353              	.L142:
 168:..\u8g2-master\csrc/u8g2_polygon.c ****   {
 1354              		.loc 1 168 0
 1355 007c 0227     		movs	r7, #2
 1356              	.LVL144:
 1357              	.L135:
 1358 007e 3546     		mov	r5, r6
 1359 0080 81F83070 		strb	r7, [r1, #48]
 1360 0084 F0E7     		b	.L136
 1361              	.LVL145:
 1362              	.L154:
 190:..\u8g2-master\csrc/u8g2_polygon.c ****   pg_expand_min_y(pg, min_y, PG_RIGHT);
ARM GAS  C:\Users\info\AppData\Local\Temp\ccdlpvfJ.s 			page 35


 1363              		.loc 1 190 0
 1364 0086 94F83030 		ldrb	r3, [r4, #48]	@ zero_extendqisi2
 1365 008a 0646     		mov	r6, r0
 1366 008c 84F84830 		strb	r3, [r4, #72]
 191:..\u8g2-master\csrc/u8g2_polygon.c ****   pg_expand_min_y(pg, min_y, PG_LEFT);
 1367              		.loc 1 191 0
 1368 0090 2846     		mov	r0, r5
 1369              	.LVL146:
 1370 0092 FFF7FEFF 		bl	pg_expand_min_y.constprop.8
 1371              	.LVL147:
 192:..\u8g2-master\csrc/u8g2_polygon.c ****   
 1372              		.loc 1 192 0
 1373 0096 2846     		mov	r0, r5
 1374 0098 FFF7FEFF 		bl	pg_expand_min_y.constprop.9
 1375              	.LVL148:
 196:..\u8g2-master\csrc/u8g2_polygon.c ****   {
 1376              		.loc 1 196 0
 1377 009c 94F83020 		ldrb	r2, [r4, #48]	@ zero_extendqisi2
 1378 00a0 94F84830 		ldrb	r3, [r4, #72]	@ zero_extendqisi2
 1379 00a4 34F92220 		ldrsh	r2, [r4, r2, lsl #2]
 1380 00a8 34F92330 		ldrsh	r3, [r4, r3, lsl #2]
 195:..\u8g2-master\csrc/u8g2_polygon.c ****   if ( pg->list[pg->pge[PG_LEFT].curr_idx].x != pg->list[pg->pge[PG_RIGHT].curr_idx].x )
 1381              		.loc 1 195 0
 1382 00ac 0121     		movs	r1, #1
 196:..\u8g2-master\csrc/u8g2_polygon.c ****   {
 1383              		.loc 1 196 0
 1384 00ae 9A42     		cmp	r2, r3
 195:..\u8g2-master\csrc/u8g2_polygon.c ****   if ( pg->list[pg->pge[PG_LEFT].curr_idx].x != pg->list[pg->pge[PG_RIGHT].curr_idx].x )
 1385              		.loc 1 195 0
 1386 00b0 6176     		strb	r1, [r4, #25]
 196:..\u8g2-master\csrc/u8g2_polygon.c ****   {
 1387              		.loc 1 196 0
 1388 00b2 06D0     		beq	.L138
 198:..\u8g2-master\csrc/u8g2_polygon.c ****   }
 1389              		.loc 1 198 0
 1390 00b4 0023     		movs	r3, #0
 1391 00b6 6376     		strb	r3, [r4, #25]
 1392              	.L139:
 1393              	.LVL149:
 1394              	.LBE94:
 1395              	.LBE98:
 318:..\u8g2-master\csrc/u8g2_polygon.c **** }
 1396              		.loc 1 318 0
 1397 00b8 3046     		mov	r0, r6
 1398              	.LBE102:
 1399              	.LBE106:
 1400              	.LBE118:
 340:..\u8g2-master\csrc/u8g2_polygon.c ****   u8g2_ClearPolygonXY();
 341:..\u8g2-master\csrc/u8g2_polygon.c ****   u8g2_AddPolygonXY(u8g2, x0, y0);
 342:..\u8g2-master\csrc/u8g2_polygon.c ****   u8g2_AddPolygonXY(u8g2, x1, y1);
 343:..\u8g2-master\csrc/u8g2_polygon.c ****   u8g2_AddPolygonXY(u8g2, x2, y2);
 344:..\u8g2-master\csrc/u8g2_polygon.c ****   u8g2_DrawPolygon(u8g2);
 345:..\u8g2-master\csrc/u8g2_polygon.c **** }
 1401              		.loc 1 345 0
 1402 00ba BDE8F840 		pop	{r3, r4, r5, r6, r7, lr}
 1403              		.cfi_remember_state
 1404              		.cfi_restore 14
ARM GAS  C:\Users\info\AppData\Local\Temp\ccdlpvfJ.s 			page 36


 1405              		.cfi_restore 7
 1406              		.cfi_restore 6
 1407              		.cfi_restore 5
 1408              		.cfi_restore 4
 1409              		.cfi_restore 3
 1410              		.cfi_def_cfa_offset 0
 1411              	.LVL150:
 1412              	.LBB119:
 1413              	.LBB107:
 1414              	.LBB103:
 318:..\u8g2-master\csrc/u8g2_polygon.c **** }
 1415              		.loc 1 318 0
 1416 00be FFF7FEBF 		b	pg_exec.constprop.3
 1417              	.LVL151:
 1418              	.L138:
 1419              		.cfi_restore_state
 1420              	.LBB99:
 1421              	.LBB95:
 202:..\u8g2-master\csrc/u8g2_polygon.c ****     if ( pg->total_scan_line_cnt == 0 )
 1422              		.loc 1 202 0
 1423 00c2 638B     		ldrh	r3, [r4, #26]
 1424 00c4 013B     		subs	r3, r3, #1
 1425 00c6 1BB2     		sxth	r3, r3
 1426 00c8 6383     		strh	r3, [r4, #26]	@ movhi
 203:..\u8g2-master\csrc/u8g2_polygon.c ****       return 0;
 1427              		.loc 1 203 0
 1428 00ca 002B     		cmp	r3, #0
 1429 00cc F4D1     		bne	.L139
 1430 00ce D0E7     		b	.L133
 1431              	.LVL152:
 1432              	.L153:
 174:..\u8g2-master\csrc/u8g2_polygon.c ****     {
 1433              		.loc 1 174 0
 1434 00d0 2E46     		mov	r6, r5
 1435 00d2 D4E7     		b	.L135
 1436              	.L156:
 1437              		.align	2
 1438              	.L155:
 1439 00d4 00000000 		.word	u8g2_pg
 1440 00d8 00000000 		.word	pg_inc
 1441 00dc 00000000 		.word	pg_dec
 1442              	.LBE95:
 1443              	.LBE99:
 1444              	.LBE103:
 1445              	.LBE107:
 1446              	.LBE119:
 1447              		.cfi_endproc
 1448              	.LFE15:
 1449              		.size	u8g2_DrawTriangle, .-u8g2_DrawTriangle
 1450              		.comm	u8g2_pg,76,4
 1451              		.text
 1452              	.Letext0:
 1453              		.file 2 "c:\\program files (x86)\\cypress\\psoc creator\\4.2\\psoc creator\\import\\gnu\\arm\\5.4.
 1454              		.file 3 "c:\\program files (x86)\\cypress\\psoc creator\\4.2\\psoc creator\\import\\gnu\\arm\\5.4.
 1455              		.file 4 "..\\u8g2-master\\csrc\\u8x8.h"
 1456              		.file 5 "..\\u8g2-master\\csrc\\u8g2.h"