ARM GAS  C:\Users\info\AppData\Local\Temp\cccZP76i.s 			page 1


   1              		.syntax unified
   2              		.cpu cortex-m3
   3              		.fpu softvfp
   4              		.eabi_attribute 20, 1
   5              		.eabi_attribute 21, 1
   6              		.eabi_attribute 23, 3
   7              		.eabi_attribute 24, 1
   8              		.eabi_attribute 25, 1
   9              		.eabi_attribute 26, 1
  10              		.eabi_attribute 30, 4
  11              		.eabi_attribute 34, 1
  12              		.eabi_attribute 18, 4
  13              		.thumb
  14              		.syntax unified
  15              		.file	"u8g2_cleardisplay.c"
  16              		.text
  17              	.Ltext0:
  18              		.section	.gnu.lto_.profile.bf148920,"",%progbits
  19 0000 789C6361 		.ascii	"x\234ca`d`a`\000\222\352\334\000\000\303\000="
  19      60646061 
  19      600092EA 
  19      DC0000C3 
  19      003D
  20              		.text
  21              		.section	.gnu.lto_.icf.bf148920,"",%progbits
  22 0000 789C6361 		.ascii	"x\234ca`d\000\001\016\006\004`d\330\365\246a-/\003\000"
  22      60640001 
  22      0E060460 
  22      64D8F5A6 
  22      612D2F03 
  23 0015 0E6702EF 		.ascii	"\016g\002\357"
  24              		.text
  25              		.section	.gnu.lto_.jmpfuncs.bf148920,"",%progbits
  26 0000 789C6361 		.ascii	"x\234ca`d\000\001#\006\004`d`dddfa\252\004s\37621Nk"
  26      60640001 
  26      23060460 
  26      64606464 
  26      646661AA 
  27 001b 3D749EFD 		.ascii	"=t\236\375\013S+3Hj9\243\014\003\003\023D\022D\201\364"
  27      0B532B33 
  27      486A39A3 
  27      0C030313 
  27      44124481 
  28 0030 0300DDD3 		.ascii	"\003\000\335\323\007\261"
  28      07B1
  29              		.text
  30              		.section	.gnu.lto_.inline.bf148920,"",%progbits
  31 0000 789C6361 		.ascii	"x\234ca`d\000\001]\006\004\000\212\360nedd`b\231s\233"
  31      60640001 
  31      5D060400 
  31      8AF06E65 
  31      64646062 
  32 0017 89816D81 		.ascii	"\211\201m\201<\023H\224\231\207\201\201i\202\037\220"
  32      3C134894 
  32      99878181 
  32      69821F90 
  33 0027 6664606C 		.ascii	"fd`lag\342\006*\004r\001\217\241\005\265"
ARM GAS  C:\Users\info\AppData\Local\Temp\cccZP76i.s 			page 2


  33      6167E206 
  33      2A047201 
  33      8FA105B5 
  34              		.text
  35              		.section	.gnu.lto_.pureconst.bf148920,"",%progbits
  36 0000 789C6361 		.ascii	"x\234ca`d`f`\000\222\026\000\000\220\000B"
  36      60646066 
  36      60009216 
  36      00009000 
  36      42
  37              		.text
  38              		.section	.gnu.lto_u8g2_ClearDisplay.bf148920,"",%progbits
  39 0000 789C6D51 		.ascii	"x\234mQ=K#Q\024\275\347\3357\223\250\233\350\017H\241"
  39      3D4B2351 
  39      14BDE7DD 
  39      3793A89B 
  39      E80F48A1 
  40 0014 20A84D8A 		.ascii	" \250M\212\255l\267\361\007X\013\"1\210\220B\024\013"
  40      AD6CB7F1 
  40      07580B22 
  40      31889042 
  40      140B
  41 0026 ABBC9819 		.ascii	"\253\274\230\031\334\302\302e\321B\304N\3746\006\011"
  41      DCC2C265 
  41      D142C44E 
  41      FC360609 
  42 0036 126C060B 		.ascii	"\022l\006\013\255T\354\2044~\240.\213\205\001-,t\274"
  42      AD54EC84 
  42      347EA02E 
  42      8B85012D 
  42      2C74BC
  43 0049 CF512CF4 		.ascii	"\317Q,\364\302\314\375x\347\234{\337}\232@\326\366\304"
  43      C2CCFD78 
  43      E79C7BDF 
  43      7D9A40D6 
  43      F6C4
  44 005b 758AEF91 		.ascii	"u\212\357\221\017.A\315\034\023\025\342\012\034\005"
  44      0F2E41CD 
  44      1C1315E2 
  44      0A1C05
  45 006a AC9CE943 		.ascii	"\254\234\351C\"\323\250\275\030\231\037NT\377\245\001"
  45      22D3A8BD 
  45      18991F4E 
  45      54FFA501 
  46 007a EB4D1C94 		.ascii	"\353M\034\224W\354h\310\237\"{T\317\012\373S7U\325\265"
  46      57EC68C8 
  46      9F227B54 
  46      CF0AFB53 
  46      3755D5B5 
  47 008e 6CC4CEAF 		.ascii	"l\304\316\257\377\262Y\011\340\013 T\021\006\313\350"
  47      FFB25909 
  47      E00B2054 
  47      1106CBE8 
  48 009e 12D4A9B7 		.ascii	"\022\324\251\267\275\300\017\312g@KZ?\232\277J\332T"
  48      BDC00FCA 
  48      67404B5A 
  48      3F9ABF4A 
ARM GAS  C:\Users\info\AppData\Local\Temp\cccZP76i.s 			page 3


  48      DA54
  49 00b0 A155D2C2 		.ascii	"\241U\322\302\301m\241\231\333A\022W\016*\213\311\216"
  49      C16DA199 
  49      DB411257 
  49      0E2A8BC9 
  49      8E
  50 00c1 2563268D 		.ascii	"%c&\215\371\2235\015>3\326\300\242\207U\244\260\202"
  50      F993350D 
  50      3E33D6C0 
  50      A28755A4 
  50      B082
  51 00d3 144989B0 		.ascii	"\024I\211\260\216\016\013\277,\277\314&\\\317\266o\215"
  51      8E0E0BBF 
  51      2CBFCC26 
  51      5CCFB66F 
  51      8D
  52 00e4 9A6203AE 		.ascii	"\232b\003\256\275q\25170aX4A\331\251p\\\032\013\303"
  52      BD71A937 
  52      30615834 
  52      41D9A970 
  52      5C1A0BC3 
  53 00f8 15AE26BA 		.ascii	"\025\256&\272\027\234\\\262\256\2248\376\007/\330IX"
  53      179C5CB2 
  53      AE9438FE 
  53      072FD849 
  53      58
  54 0109 9A15AC56 		.ascii	"\232\025\254V\357j\261\374\263\371mL\213\317N\250D\013"
  54      EF6AB1FC 
  54      B3F96D4C 
  54      8BCF4EA8 
  54      440B
  55 011b 9BC85391 		.ascii	"\233\310S\221\331gW\204\353\262\000Y\311\033ow\334\362"
  55      D9675784 
  55      EBB20059 
  55      C91B6F77 
  55      DCF2
  56 012d 8AEC7E61 		.ascii	"\212\354~a\306BQ'l}0\343t\001\257VL~\342Kw\325\247\204"
  56      C6425127 
  56      6C7D30E3 
  56      7401AF56 
  56      4C7EE24B 
  57 0145 5D8206A1 		.ascii	"]\202\006\241$\367\262v\257\034\222g@]\351h6?8\303\367"
  57      24F7B276 
  57      AF1C9267 
  57      405DE968 
  57      363F38C3 
  58 015a B33584F6 		.ascii	"\2635\204\366%\260\035u\220\3439\177\377$f\005\033E"
  58      25B01D75 
  58      90E3397F 
  58      FF246605 
  58      1B45
  59 016c B08C94CF 		.ascii	"\260\214\224\317M\364\037\223A\315y\023\210\344!\262"
  59      4DF41F93 
  59      41CD7913 
  59      88E421B2 
  60 017c 32585B3A 		.ascii	"2X[:\3357\336=\364\263?36\232y\217r\331\201\321\301"
  60      DD37DE3D 
ARM GAS  C:\Users\info\AppData\Local\Temp\cccZP76i.s 			page 4


  60      F4B33F33 
  60      369A798F 
  60      72D981D1 
  61 0191 E1B191DC 		.ascii	"\341\261\221\334\300D:C\332\026_\001\347x\244v"
  61      C0443A43 
  61      DA165F01 
  61      E778A476 
  62              		.text
  63              		.section	.gnu.lto_.symbol_nodes.bf148920,"",%progbits
  64 0000 789C6361 		.ascii	"x\234ca`d\210f\000\002&\206z\006\206\011\347\030@\324"
  64      60648866 
  64      00022686 
  64      7A068609 
  64      E71840D4 
  65 0014 AE064506 		.ascii	"\256\006E\006\006F\346zF\260\000\003CC\203\002\220\317"
  65      0646E67A 
  65      46B00003 
  65      43438302 
  65      90CF
  66 0026 54CF84C2 		.ascii	"T\317\204\302g\254gF\3463\003\341\222\007\377\030\231"
  66      67AC6746 
  66      E63303E1 
  66      9207FF18 
  66      99
  67 0037 81461DD9 		.ascii	"\201F\035\331\363N\227\031hr\313\303\177\214\014\000"
  67      F34E9719 
  67      6872CBC3 
  67      7F8C0C00 
  68 0047 70DC14B1 		.ascii	"p\334\024\261"
  69              		.text
  70              		.section	.gnu.lto_.refs.bf148920,"",%progbits
  71 0000 789C6361 		.ascii	"x\234ca`\004B \000\000\0009\000\007"
  71      60044220 
  71      00000039 
  71      0007
  72              		.text
  73              		.section	.gnu.lto_.decls.bf148920,"",%progbits
  74 0000 789CCD5A 		.ascii	"x\234\315ZkTT\331\225\256[\247\200\242(@\301\2503\313"
  74      6B5454D9 
  74      95AE5BA7 
  74      80A22840 
  74      C1A833CB 
  75 0014 242631DD 		.ascii	"$&1\335\314Z\023[\272{2\316\374\232$\2632I~d\315\232"
  75      CC5A135B 
  75      BA7B32CE 
  75      FC9A24B3 
  75      32497E64 
  76 002a 4CF2CBB5 		.ascii	"L\362\313\265*EQhM\020\230\252\242\205\3763\005\242"
  76      2A455168 
  76      4D1098AA 
  76      A285FE33 
  76      05A2
  77 003c 282A080A 		.ascii	"(*\010\012\012\242 \"\370@E\236\002\"\325>\020T\336"
  77      0AA22022 
  77      F840459E 
  77      0222D53E 
  77      1054DE
ARM GAS  C:\Users\info\AppData\Local\Temp\cccZP76i.s 			page 5


  78 004f 0FA5798A 		.ascii	"\017\245y\212\"\370BD\224\226\207\314>g\337\252{.\\"
  78      22F84244 
  78      949687CC 
  78      3E67DFAA 
  78      7B2E5C
  79 0062 3A3F6632 		.ascii	":?f2kj\271\251\373\235\373\335\263\367\331g\237}\366"
  79      6B6AB9A9 
  79      FB9DFBDD 
  79      B3F7D967 
  79      9F7DF6
  80 0075 B9A54625 		.ascii	"\271\245F%\250\350'\377\023\225\252\\\253R\035\205\353"
  80      A8E827FF 
  80      1395AA5C 
  80      AB521D85 
  80      EB
  81 0086 05F8A8E1 		.ascii	"\005\370\250\341\373\017 \364\356%\025~4 \253\341\306"
  81      FB0F20F4 
  81      EE25157E 
  81      3420ABE1 
  81      C6
  82 0097 77417E00 		.ascii	"wA~\000\362#\265j\311\207\336\327\213\317\006\200\254"
  82      F223B56A 
  82      C987DED7 
  82      8BCF0680 
  82      AC
  83 00a8 0219814E 		.ascii	"\002\031\201N\326\321\233pO\000\331\000\262\036\344"
  83      D6D19B70 
  83      4F00D900 
  83      B21EE4
  84 00b7 C76AEC7B 		.ascii	"\307j\354{\235Z\336\377\217\304\376\277\253\320\377"
  84      9D5ADEFF 
  84      8FC4FEBF 
  84      ABD0FF
  85 00c6 BC5AB8B4 		.ascii	"\274Z\270\264\353\361Y\355\224ZX\247\023\026\004\212"
  85      EBF159ED 
  85      945A58A7 
  85      1316048A 
  86 00d6 5F54BDF7 		.ascii	"_T\275\367ELo\017\276?\363\313\215E\016\370\034t8\324"
  86      454C6F0F 
  86      BE3FF3CB 
  86      8D450EF8 
  86      1C7438D4 
  87 00ea 6AE9B932 		.ascii	"j\351\2712\347\233\013\032\342CI\352\266\322\236[\336"
  87      E79B0B1A 
  87      E24349EA 
  87      B6D29E5B 
  87      DE
  88 00fb 4290AE80 		.ascii	"B\220\256\200\362\206z\247~\266\323\341\020\204\"A'"
  88      F2867AA7 
  88      7EB6D3E1 
  88      10842241 
  88      27
  89 010c 9C138870 		.ascii	"\234\023\210pV\330H\207\276N\007\177\3678\034\361\216"
  89      56D84887 
  89      BE4E077F 
  89      F7381CF1 
  89      8E
ARM GAS  C:\Users\info\AppData\Local\Temp\cccZP76i.s 			page 6


  90 011d 893C87E7 		.ascii	"\211<\207\347Z\225\360\331:a\323:\225p^\010\242\312"
  90      5A95F0D9 
  90      3A61D33A 
  90      95705E08 
  90      A2CA
  91 012f 284B3823 		.ascii	"(K8#\254\023\012\205u\264\377\2639gn\372\222\243\002"
  91      AC130A85 
  91      75B4FFB3 
  91      39676EFA 
  91      92A302
  92 0142 53F0F2F0 		.ascii	"S\360\362\360\363=\304\255 u\337\272\363\016\307\012"
  92      F33DC4AD 
  92      2075DFBA 
  92      F30EC70A 
  93 0152 E11228B8 		.ascii	"\341\022(\270 )\000}\312\032.*h\240\017\203\226+IG\337"
  93      2029007D 
  93      CA1A2E2A 
  93      68A00F83 
  93      962B4947 
  94 0167 F9F70A3D 		.ascii	"\371\367\012=\202Z\020\247N%\010\370W`\242Ba\220\371"
  94      825A10A7 
  94      4E2508F8 
  94      5760A242 
  94      6190F9
  95 017a 5BC05914 		.ascii	"[\300Y\024\233\334_*7E\274\224:c\377\\\337\013\256\017"
  95      9BDC5F2A 
  95      3745BC94 
  95      3A63FF5C 
  95      DF0BAE0F 
  96 018e EB44EA5D 		.ascii	"\353D\352]\020\037\022\334\026\210\327\354\276ZR  t"
  96      101F12DC 
  96      1688D7EC 
  96      BE5A5220 
  96      2074
  97 01a0 3DC0F587 		.ascii	"=\300\365\207\346r6\011\3621\011\256\251\033\033)\033"
  97      E6723609 
  97      F23109AE 
  97      A91B1B29 
  97      1B
  98 01b1 17C81135 		.ascii	"\027\310\0215\233\340\266\204\342l\002\363\035\240\023"
  98      9BE0B684 
  98      E26C02F3 
  98      1DA013
  99 01c0 34005F37 		.ascii	"4\000_7e=\362\003\270J'\254\007x\346Iv\262\036\341f"
  99      653DF203 
  99      B84A27AC 
  99      0778E649 
  99      76B21EE1 
 100 01d5 80154F1A 		.ascii	"\200\025O\032\353uHv\320`\251\251\274Z\357\201\2677"
 100      EB754876 
 100      D060A9A9 
 100      BC5AEF81 
 100      B737
 101 01e7 01AC9E68 		.ascii	"\001\254\236h9\340C\316b\307\307\336\364?\365\306{A"
 101      39E043CE 
 101      62C7C7DE 
 101      F43FF5C6 
ARM GAS  C:\Users\info\AppData\Local\Temp\cccZP76i.s 			page 7


 101      7B41
 102 01f9 00EB264E 		.ascii	"\000\353&N\356\366$exo\177\365\345\013\276\244\001\301"
 102      EEF62465 
 102      786F7FF5 
 102      E50BBEA4 
 102      01C1
 103 020b B9534327 		.ascii	"\271SC'(q\015D \305u\035C\331:\304\216\377\002\234\336"
 103      28710D44 
 103      20C5751D 
 103      43D93AC4 
 103      8EFF029C 
 104 0220 9CDDA925 		.ascii	"\234\335\251%\367\031Y}3\353z\274\207\024j/b\343i\250"
 104      F719597D 
 104      33EB7ABC 
 104      87146A2F 
 104      62E369A8 
 105 0234 D54124D4 		.ascii	"\325A$\324J\221\260F\014\004\307\242@\270\006\201\260"
 105      4A91B046 
 105      0C04C7A2 
 105      40B80681 
 105      B0
 106 0245 460C84AB 		.ascii	"F\014\204\253\020\0105\030j\035}3N-\031B\005\205\215"
 106      10083518 
 106      6A1D7D33 
 106      4E2D1942 
 106      05858D
 107 0258 33573C05 		.ascii	"3W<\005]\220\302\343\327\025\036wE\344\352s4\"\277\002"
 107      5D90C2E3 
 107      D7151E77 
 107      45E4EA73 
 107      3422BF02 
 108 026c 3B9C921D 		.ascii	";\234\222\035u,\"A\303x\302\310\220\017\372b-\300]\255"
 108      752C2241 
 108      C378C2C8 
 108      900FFA62 
 108      2DC05DAD 
 109 0280 49177DC8 		.ascii	"I\027}\310(\016\277}\342\336q\361\336\012\200\317\366"
 109      280EBF7D 
 109      E2DE71F1 
 109      DE0A80CF 
 109      F6
 110 0291 0CF6F890 		.ascii	"\014\366\370\220o\360^\303\215\376\337\021\210|z\375"
 110      6FF05EC3 
 110      8DFEDF11 
 110      887C7AFD 
 111 02a1 6EF0E080 		.ascii	"n\360\340\200\206d\"\350\313;|Z\203\0231\306+\010@\005"
 111      866422E8 
 111      CB3B7C5A 
 111      831331C6 
 111      2B084005 
 112 02b5 C557135E 		.ascii	"\305W\023^\212\263\350\244\363\024\237\331q\210\220"
 112      8AB3E8A4 
 112      F3149FD9 
 112      718890
 113 02c4 6A225318 		.ascii	"j\"S\030\200\012o-L;\375\021\252\001\316\015\2167i\310"
 113      800A6F2D 
 113      4C3BFD11 
ARM GAS  C:\Users\info\AppData\Local\Temp\cccZP76i.s 			page 8


 113      AA01CE0D 
 113      8E3769C8 
 114 02d8 4DA49E9E 		.ascii	"M\244\236\236\231\235\240\301\361\021L\315\002\341\262"
 114      999DA0C1 
 114      F1114CCD 
 114      02E1B2
 115 02e7 C347981D 		.ascii	"\303G\230\035\352\3566\026\350I7#\253\363\235\361\273"
 115      EAEE3616 
 115      E8493723 
 115      ABF39DF1 
 115      BB
 116 02f8 04F41C4C 		.ascii	"\004\364\034L\312N\207\356\214\237J\270\005~j\246\353"
 116      CA4E87EE 
 116      8C9F4AB8 
 116      057E6AA6 
 116      EB
 117 0309 AD139CF7 		.ascii	"\255\023\234\367\221\350\2746hlu;\257\367\305oX\276"
 117      91E8BC36 
 117      686C753B 
 117      AFF7C56F 
 117      58BE
 118 031b E800E7B5 		.ascii	"\350\000\347\265K\316\373H\364\335\265\324\336':\362"
 118      4BCEFB48 
 118      F4DDB5D4 
 118      DE273AF2 
 119 032b 10759C9D 		.ascii	"\020u\234\235\270W\344\277\254\216\373\313\352H\335"
 119      B857E4BF 
 119      AC8EFBCB 
 119      EA48DD
 120 033a F751119D 		.ascii	"\367Q\021\235\240n\320\321%\351\350pM\320\343\244K\267"
 120      A06ED0D1 
 120      25E9E870 
 120      4DD0E3A4 
 120      4BB7
 121 034c 7CC9331C 		.ascii	"|\3113\034\365\323\023\035\273\374\310\034\202\254\232"
 121      F5D3131D 
 121      BBFCC81C 
 121      82AC9A
 122 035b A93B1EE8 		.ascii	"\251;\036\350\036-\300\234\207\231\013^d\257\206\335"
 122      1E2DC09C 
 122      87990B5E 
 122      64AF86DD 
 123 036b 4B993871 		.ascii	"K\2318qXK\322\021\244\276\317l\360$9\010\252o\357,\360"
 123      584BD211 
 123      A4BECF6C 
 123      F0243908 
 123      AA6FEF2C 
 124 0380 226710C4 		.ascii	"\"g\020\304\325\336(\365%\227\021\2147\224\350H5^\327"
 124      D5DE28F5 
 124      2597118C 
 124      3794E848 
 124      355ED7
 125 0393 8E1EAC21 		.ascii	"\216\036\254!\344\016\202S\247\357NkH\017\202\367\216"
 125      E40E8253 
 125      A7EF4E6B 
 125      480F82F7 
 125      8E
ARM GAS  C:\Users\info\AppData\Local\Temp\cccZP76i.s 			page 9


 126 03a4 ACA75AF2 		.ascii	"\254\247Z\362\014\301\213\312WG\324d\006A\337\253\211"
 126      0CC18BCA 
 126      5747D464 
 126      0641DFAB 
 126      89
 127 03b5 596F92E4 		.ascii	"Yo\222\344\201\376\317\353\376\340Mr\020$7\237k\364"
 127      81FECFEB 
 127      FEE04D72 
 127      1024379F 
 127      6BF4
 128 03c7 21A5084A 		.ascii	"!\245\010J\235\015-:r\015\301\371\202\231\213:\322\210"
 128      9D0D2D3A 
 128      720DC1F9 
 128      82998B3A 
 128      D288
 129 03d9 60747074 		.ascii	"`tpt\316\237\264#8]\030\237\247%}\010\362\316\357o\360"
 129      CE9FB423 
 129      385D189F 
 129      A7257D08 
 129      F2CEEF6F 
 130 03ee 23E30CAC 		.ascii	"#\343\014\254\276\363\254\255\303G\330 \377\004\261"
 130      BEF3ACAD 
 130      C347D820 
 130      FF04B1
 131 03fd BF8179E8 		.ascii	"\277\201y\350\323\311\250\252\262>\207c\267\236\305"
 131      D3C9A8AA 
 131      B23E8763 
 131      B79EC5
 132 040c FD43706B 		.ascii	"\375Cpk\274:\320\265X\276\006\337\323\225\003\376\315"
 132      BC3AD0B5 
 132      58BE06DF 
 132      D39503FE 
 132      CD
 133 041d A393E5AC 		.ascii	"\243\223\345\254l\366=\342p\306\021\226\266\207\225"
 133      6CF63DE2 
 133      70C61196 
 133      B68795
 134 042c C8C122D9 		.ascii	"\310\301\"\331\341p\326%\213d\332\363\220\022\371\226"
 134      E170D625 
 134      8B64DAF3 
 134      9012F996 
 135 043c 20759DC3 		.ascii	" u\235\303w\375D\316\376\204\222K9rI\263\217\243\370"
 135      77FD44CE 
 135      FE84924B 
 135      397249B3 
 135      8FA3F8
 136 044f 8F8CFA58 		.ascii	"\217\214\372X\201Z!HV|\215TjC\237\222\015<\367\201\304"
 136      815A2148 
 136      567C8D54 
 136      6A439F92 
 136      0D3CF781 
 137 0464 ED57E25E 		.ascii	"\355W\342^\341\270\035\374\350\006\224\330\274\301\231"
 137      E1B81DFC 
 137      E80694D8 
 137      BCC199
 138 0473 FCE84615 		.ascii	"\374\350F\025L\276\301u\335\306w=\250\324\365\015\256"
 138      4CBEC175 
ARM GAS  C:\Users\info\AppData\Local\Temp\cccZP76i.s 			page 10


 138      DDC6773D 
 138      A8D4F50D 
 138      AE
 139 0484 EB8564BF 		.ascii	"\353\205d\277\243\016g<a\353\342\205\310v/\247&\371"
 139      A30E673C 
 139      61EBE285 
 139      C8762FA7 
 139      26F9
 140 0496 20813F95 		.ascii	" \201?\225\254w\264\376\221\261\037(\263\371iI\347\015"
 140      AC77B4FE 
 140      91B11F28 
 140      B3F96949 
 140      E70D
 141 04a8 7FAA60F8 		.ascii	"\177\252`\370g\222\335}\222\373z\225\254.\343\372-\226"
 141      6792DD7D 
 141      92FB7A95 
 141      AC2EE3FA 
 141      2D96
 142 04ba 667044A1 		.ascii	"fpD\241W\3644[\367\316\371}z\207CK)*q\315\253\334\335"
 142      57F4345B 
 142      F7CEF97D 
 142      7A87434B 
 142      292A71CD 
 143 04d1 1CE2CD7B 		.ascii	"\034\342\315{\246\320Q\260\2442CR9\246\300\344G=\315"
 143      A6D051B0 
 143      A4324352 
 143      39A6C0E4 
 143      473DCD
 144 04e4 FBB445D9 		.ascii	"\373\264E\331K\374\364\226\363f<R\350\274\214\233\336"
 144      4BFCF496 
 144      F3663C52 
 144      E8BC8C9B 
 144      DE
 145 04f5 01C94D3D 		.ascii	"\001\311M=rj\223\264\204R\305r\315!XU\302]\320|\207"
 145      726A93B4 
 145      8452C572 
 145      CD215855 
 145      C25DD07C 
 146 050a 6A7E2EF2 		.ascii	"j~.\362\301\015\302\034$\312ya\203\360\036\344\003\310"
 146      C10DC21C 
 146      24CA7961 
 146      83F01EE4 
 146      03C8
 147 051c 5B900990 		.ascii	"[\220\011\220Y\220\327 \016\365\006a\034\276_\202\274"
 147      5990D720 
 147      0EF50661 
 147      1CBE5F82 
 147      BC
 148 052d 02790732 		.ascii	"\002y\0072\005\362\006d\022d\006$\0168\337\300\367\002"
 148      05F20664 
 148      12640624 
 148      0E38DFC0 
 148      F702
 149 053f C8B4B0C1 		.ascii	"\310\264\260\301U\\\274ud\337!$\335\223\245\353\341"
 149      555CBC75 
 149      64DF2124 
 149      DD93A5EB 
ARM GAS  C:\Users\info\AppData\Local\Temp\cccZP76i.s 			page 11


 149      E1
 150 0550 6BB51D5E 		.ascii	"k\265\035^B`\220\262E\273\324A\177q\2130\014\322S~L"
 150      426090B2 
 150      45BBD441 
 150      7F718B30 
 150      0CD2537E 
 151 0565 C3200194 		.ascii	"\303 \001\224\355T\273\263?\215\012fs\345\303\364:o"
 151      ED54BBB3 
 151      3F8D0A66 
 151      73E5C3F4 
 151      3A6F
 152 0577 CCF10F54 		.ascii	"\314\361\017T\\\231\263J,s\312r;\353\274H\001\033\223"
 152      5C99B34A 
 152      2C73CA72 
 152      3BEBBC48 
 152      011B93
 153 058a 50E5484C 		.ascii	"P\345HL\325\222\022\004M\317'\312\265\244\006\301t\177"
 153      D5921204 
 153      4DCF27CA 
 153      B5A406C1 
 153      747F
 154 059c 66B20FB9 		.ascii	"f\262\017\271\211`av\3176\322\201\327\223M\225S\204"
 154      89606176 
 154      CF36D281 
 154      D7934D95 
 154      5384
 155 05ae 0C237872 		.ascii	"\014#xr\355\325\264\236\274Bp5\351\356\234\226\314\""
 155      EDD5B49E 
 155      BC427035 
 155      E9EE9C96 
 155      CC22
 156 05c0 C8AA4E8C 		.ascii	"\310\252N\214\327\221y\004\211\345\265\005\236d\001"
 156      D7917904 
 156      89E5B505 
 156      9E6401
 157 05cf C1DBE6D7 		.ascii	"\301\333\346\327\311z\262\307\2139\365\326\334\3743"
 157      C97AB2C7 
 157      8B39F5D6 
 157      DCFC33
 158 05de B5AB0472 		.ascii	"\265\253\004rV\335]E\207vX\255\023\322\244\241]Z\256"
 158      56DD5D45 
 158      877658AD 
 158      13D2A4A1 
 158      5D5AAE
 159 05f1 163EA456 		.ascii	"\026>\244V\254\266\253\036'5j\311a/\334|\306\353\223"
 159      ACB6AB1E 
 159      27356AC9 
 159      612FDC7C 
 159      C6EB93
 160 0604 3CC87104 		.ascii	"<\310q\004\307\273\206\017z\353\304\236\016\376\231"
 160      C7BB860F 
 160      7AEBC49E 
 160      0EFE99
 161 0613 AA9A6E9E 		.ascii	"\252\232n\236}\225sz}\022\345\037\334\351\010h\360\023"
 161      7D95737A 
 161      7D12E51F 
 161      DCE90868 
ARM GAS  C:\Users\info\AppData\Local\Temp\cccZP76i.s 			page 12


 161      F013
 162 0625 8E806910 		.ascii	"\216\200i\020\360B\011\213\320\243j\275\030)\215-\215"
 162      F042098B 
 162      D0A36ABD 
 162      18298D2D 
 162      8D
 163 0636 7F4FCEA0 		.ascii	"\177O\316\240\226\252\343'\246}\311U\006\374\312R\316"
 163      96AAE327 
 163      A67DC955 
 163      06FCCA52 
 163      CE
 164 0647 96798B5B 		.ascii	"\226y\213[O\240\270\347\210\333B\012\227\335\016\300"
 164      4FA0B8E7 
 164      88DB420A 
 164      97DD0EC0 
 165 0657 704F7ECB 		.ascii	"pO~\313\206\323\323\302-\254\275J\344+\3742l\361G6\365"
 165      86D3D3C2 
 165      2DACBD4A 
 165      E42BFC32 
 165      6CF14736 
 166 066c 64AA9CFD 		.ascii	"d\252\234\375\311\272E\011\274\206\267#E\201\314\247"
 166      C9BA4509 
 166      BC86B723 
 166      4581CCA7 
 167 067c AB7EDE8E 		.ascii	"\253~\336\216,%;\370\024\333\336\342\3164\373\225\270"
 167      2C253BF8 
 167      14DBDEE2 
 167      CE34FB95 
 167      B8
 168 068d 986AA405 		.ascii	"\230j\244\005eW\011\211\352ul\371\013\231\342\003tA"
 168      65570989 
 168      EA756CF9 
 168      0B99E203 
 168      7441
 169 069f 9D82892E 		.ascii	"\235\202\211.\200\005Q\010r\034$\017\344\004H>\3101"
 169      80055108 
 169      721C240F 
 169      E404483E 
 169      C831
 170 06b1 905C90D3 		.ascii	"\220\\\220\323 g@\262Ar\324\033\\\271\221F\025?\300"
 170      206740B2 
 170      4172D41B 
 170      5CB99146 
 170      153FC0
 171 06c4 830A03AC 		.ascii	"\203\012\003\254\340\222\354\261\024\226dO.I\262p\257"
 171      E092ECB1 
 171      1496644F 
 171      2E49B270 
 171      AF
 172 06d5 96EF2859 		.ascii	"\226\357(Yi@\\\226\355\342=\265O\211\314o^9)\337\311"
 172      69405C96 
 172      EDE23DB5 
 172      4F89CC6F 
 172      5E3929DF 
 173 06ea 74381308 		.ascii	"t8\023\010\015)!Cd\273\002mI\006/\345\3477]aD|N\276"
 173      0D292143 
 173      64BB026D 
ARM GAS  C:\Users\info\AppData\Local\Temp\cccZP76i.s 			page 13


 173      49062FE5 
 173      E7375D61 
 174 0702 CF1B92A4 		.ascii	"\317\033\222\244d\010\262!r\357\224\266|\2378qe>{\277"
 174      6408B221 
 174      72EF94B6 
 174      7C9F3871 
 174      653E7BBF 
 175 0716 37CD5308 		.ascii	"7\315S\010\012D\267\274I\371\210\272\345<\235\020ie"
 175      0A44B7BC 
 175      49F988BA 
 175      E53C9D10 
 175      6965
 176 0728 9E644947 		.ascii	"\236dIGy\376\316\301\234\375O\347\217\236g\236\234L"
 176      79FECEC1 
 176      9CFD4FE7 
 176      8F9E679E 
 176      9C4C
 177 073a D0633A6B 		.ascii	"\320c:ke\251\344\311m8nt\340J\233Z\330[\243%\303\010"
 177      65A9E4C9 
 177      6D386E74 
 177      E04A9B5A 
 177      D85BA325 
 178 0750 9E249D7D 		.ascii	"\236$\235}\255's\010\366\335*\257\027O\202\015\354\\"
 178      AD277308 
 178      F6DD2AAF 
 178      174F820D 
 178      EC5C
 179 0762 76B132CF 		.ascii	"v\2612\317\223\304i\331\315\373#OK\010\331\213 \241"
 179      93C469D9 
 179      CDFB234F 
 179      4B08D98B 
 179      20A1
 180 0774 34FB8A8E 		.ascii	"4\373\212\216\244\"xP\323<\345A2\021|U:\013\231\362"
 180      A4227850 
 180      D33CE541 
 180      32117C55 
 180      3A0B99F2 
 181 0788 2482CAF1 		.ascii	"$\202\312\361\363\225\276\330\241\223\342\033q\243P"
 181      F395BED8 
 181      A193E21B 
 181      71A350
 182 0797 2E9FC59B 		.ascii	".\237\305\233%IW\2135\3442\202\202\221};u\244\012AC"
 182      2549578B 
 182      35E43282 
 182      82917D3B 
 182      75A40A41 
 183 07ac E1649240 		.ascii	"\341d\222@\276BPt\364\325E\2014 \030r\226viH3\202\246"
 183      BE425074 
 183      F4D54581 
 183      34201872 
 183      96766948 
 184 07c3 D1FB1D1A 		.ascii	"\321\373\035\032\322\205 {t~JM\372"
 184      D285207B 
 184      747E4A4D 
 184      FA
 185 07d0 10B80EAD 		.ascii	"\020\270\016\255\001xh\315M\233zL\310s\274\2276\237"
 185      017868CD 
ARM GAS  C:\Users\info\AppData\Local\Temp\cccZP76i.s 			page 14


 185      4D9B7A4C 
 185      C873BC97 
 185      369F
 186 07e2 7F594DE6 		.ascii	"\177YM\346\020\334>\2270\244&\373\275\031\030\250\312"
 186      10DC3E97 
 186      30A426FB 
 186      BD1918A8 
 186      CA
 187 07f3 6FF02259 		.ascii	"o\360\"Y\010\252Ot\266i\3109\004\207\307n{\3132\032"
 187      08AA4F74 
 187      B669C839 
 187      0487C76E 
 187      7BCB321A 
 188 0807 8D0A29A3 		.ascii	"\215\012)\243\335rg4\327q8\000\217\303\327[\367f\370"
 188      DD726734 
 188      D7713800 
 188      8FC3D75B 
 188      F766F8
 189 081a 934AECA4 		.ascii	"\223J\354\244\377C[\242\226T#\030\032\270:\247&w\020"
 189      FF435BA2 
 189      96542318 
 189      1AB83AA7 
 189      267710
 190 082d 2C8CF5BF 		.ascii	",\214\365\277\366!\303\010\206\343\216\216\252\311\033"
 190      F621C308 
 190      86E38E8E 
 190      AAC91B
 191 083c 04075E5C 		.ascii	"\004\007^\\:\342M\366\343Ykv\354p\217\200\235\353\351"
 191      3AE24DF6 
 191      E3596B76 
 191      EC708F80 
 191      9DEBE9
 192 084f 91AEA627 		.ascii	"\221\256\246'\325\037\367\250!6\350\201\222\313:r\014"
 192      D51FF7A8 
 192      2136E881 
 192      92CB3A72 
 192      0C
 193 0860 B90F5FD5 		.ascii	"\271\017_\325fzi\324\270\021\010!\032\332v\261\240%"
 193      667A69D4 
 193      B8110821 
 193      1ADA76B1 
 193      A025
 194 0872 45C3DAE8 		.ascii	"E\303\332\350\012hU\263\306\241\205\362*\017wc\0336"
 194      0A6855B3 
 194      C6A185F2 
 194      2A0F7763 
 194      1B36
 195 0884 5E2A5C78 		.ascii	"^*\\x\357\355nl\307\306\251\222\375\247=I\276N<C\364"
 195      EFED6E6C 
 195      C7C6A992 
 195      FDA73D49 
 195      BE4E3C43 
 196 0899 9608A41C 		.ascii	"\226\010\244\034\301\341\311\266</R\207\240>k\024\266"
 196      C1E1C9B6 
 196      3C2F5287 
 196      A03E6B14 
 196      B6
ARM GAS  C:\Users\info\AppData\Local\Temp\cccZP76i.s 			page 15


 197 08aa A1460465 		.ascii	"\241F\004e\265\257O\213\257\000\034\364\364\230\333"
 197      B5AF4F8B 
 197      AF001CF4 
 197      F498DB
 198 08b9 79AACF93 		.ascii	"y\252\317\223\014\351d\357\007\002\360\375\200c,!GM"
 198      0CE964EF 
 198      0702F0FD 
 198      80632C21 
 198      474D
 199 08cb 46C473E5 		.ascii	"F\304s\345Xj\235\226L!h-|y\337\217\354g\257\232\204"
 199      586A9D96 
 199      4C21682D 
 199      7C79DF8F 
 199      EC67AF9A 
 200 08e0 B1DCBA12 		.ascii	"\261\334\272\022-)D\340zY\021\200/+\322\235is:R\212"
 200      2D2944E0 
 200      7A591180 
 200      2F2BD29D 
 200      69733A52 
 201 08f5 F71AAB86 		.ascii	"\367\032\253\2067\221kx\375\356ng?!M\010R\256\327\336"
 201      37916B78 
 201      FDEE6E67 
 201      3F214D08 
 201      52AED7DE 
 202 0909 D0921E04 		.ascii	"\320\222\036\004\365}_CD\215 \230/-\275!\220\031\004"
 202      F57D5F43 
 202      448D2098 
 202      2F2DBD21 
 202      901904
 203 091c 09CF4EBD 		.ascii	"\011\317N\275\024\310N=N^\303\331\363ti|L\317\301\013"
 203      14C84E3D 
 203      4E5EC3D9 
 203      F374697C 
 203      4CCFC10B 
 204 0930 0BFEDC49 		.ascii	"\013\376\334I\370c4\262=e2\337\213\034`tu\375\201\322"
 204      F86334B2 
 204      3D6532DF 
 204      8B1C6074 
 204      75FD81D2 
 205 0944 121FE925 		.ascii	"\022\037\351%E\276\276\212\236=\237\2033\237J\211\340"
 205      45BEBE8A 
 205      9E3D9F83 
 205      339F4A89 
 205      E0
 206 0955 63F70E8D 		.ascii	"c\367\016\215Q\245\222r\3273X\373\037\213[\353\030$"
 206      51A59272 
 206      D73358FB 
 206      1F8B5BEB 
 206      1824
 207 0967 875135BE 		.ascii	"\207Q5\276\022\313O\205\005y\024ud\226\235\233\326q"
 207      12CB4F85 
 207      05791475 
 207      64969D9B 
 207      D671
 208 0979 AFC43E67 		.ascii	"\257\304>g\347\333q\320\361B\322\001*\227U\362RY\311"
 208      E7DB71D0 
 208      F142D201 
ARM GAS  C:\Users\info\AppData\Local\Temp\cccZP76i.s 			page 16


 208      2A9755F2 
 208      5259C9
 209 098c F0E5E917 		.ascii	"\360\345\351\027Zr\022\307}\261h\266X\307\"\341\367"
 209      5A7212C7 
 209      7DB168B6 
 209      58C722E1 
 209      F7
 210 099d 7A318C7A 		.ascii	"z1\214zw\027\336\365q\207\326\004\006G\327\203\201."
 210      7717DEF5 
 210      7187D604 
 210      0647D783 
 210      812E
 211 09af 6F77E36B 		.ascii	"ow\343klL\\\350\277\251%\245\330SB\341\201c\276\244"
 211      6C4C5CE8 
 211      BFA925A5 
 211      D85342E1 
 211      8163BEA4 
 212 09c3 0E4172E6 		.ascii	"\016Ar\346d\215\027\271\215\240\303\231{\314\2334#x"
 212      648D17B9 
 212      8DA0C399 
 212      7BCC9B34 
 212      2378
 213 09d5 54369DEF 		.ascii	"T6\235\357Kz\364\313Fqy{\316\240\027y\210\204\231\226"
 213      4B7AF4CB 
 213      4671797B 
 213      CEA01779 
 213      88849996 
 214 09e9 D96A818C 		.ascii	"\331j\201\214#\330\337Q\361\031\231\305\353\242\256"
 214      23D8DF51 
 214      F11999C5 
 214      EBA2AE
 215 09f8 07F30249 		.ascii	"\007\363\002I\364\305D\361a\342\032!\231\010.\014\355"
 215      F4C544F1 
 215      61E21A21 
 215      99082E0C 
 215      ED
 216 0a09 EEF020E7 		.ascii	"\356\360 \347\020\024\314\235,\323\223\012\004\365\323"
 216      1014CC9D 
 216      2CD3930A 
 216      04F5D3
 217 0a18 B5A73CC8 		.ascii	"\265\247<\310W\010\222\366\235;\351G\272\021\354\332"
 217      570892F6 
 217      9D3BE947 
 217      BA11ECDA 
 218 0a28 7FFE2A21 		.ascii	"\177\376*!O\021\264\016\226\274\365$\037\020\014\016"
 218      4F11B40E 
 218      96BCF524 
 218      1F100C0E 
 219 0a38 A4FE0749 		.ascii	"\244\376\007I\364c\327\317;\333S=\310a\004\363%\211"
 219      F463D7CF 
 219      3BDB533D 
 219      C86104F3 
 219      2589
 220 0a4a 351A5288 		.ascii	"5\032R\210`\264\341\375\224\017\251B0s=\276J \367\020"
 220      60B4E1FD 
 220      940FA942 
 220      30733DBE 
ARM GAS  C:\Users\info\AppData\Local\Temp\cccZP76i.s 			page 17


 220      4A20F710 
 221 0a5e 545C7F7F 		.ascii	"T\\\177\177\317\203<D0\036\177>\037\302\017Ak\372K\330"
 221      CF833C44 
 221      301E7F3E 
 221      1FC20F41 
 221      6BFA4BD8 
 222 0a72 D20EF933 		.ascii	"\322\016\371307{(\316\203\024 \250\353\033+\362!W\020"
 222      30377B28 
 222      CE831420 
 222      A8EB1B2B 
 222      F2215710 
 223 0a86 9C393071 		.ascii	"\23490qCG\332\030\370N\\]\323m/A,\233\344\207v\266\255"
 223      4347DA18 
 223      F84E5C5D 
 223      D36D2F41 
 223      2C9BE487 
 224 0a9d 0DCD7FF8 		.ascii	"\015\315\177\370\317\332\012<\261S\217\356&\260\033"
 224      CFDA0A3C 
 224      B1538FEE 
 224      26B01B
 225 0aac 92658EBF 		.ascii	"\222e\216\277\260\013^mw\227\"\037\3242j\323\342Z\353"
 225      B00B5E6D 
 225      7797221F 
 225      D4326AD3 
 225      E25AEB
 226 0abf A854B524 		.ascii	"\250T\265$)\364\312\237\217:%\352.\005*_9\035\226\250"
 226      29F4CA9F 
 226      8F3A25EA 
 226      2E052A5F 
 226      391D96A8 
 227 0ad3 FB14A89F 		.ascii	"\373\024\250\237-\251\204\334G\213\003\"\235\356\244"
 227      2DA984DC 
 227      478B0322 
 227      9DEEA4
 228 0ae2 B92448C8 		.ascii	"\271$H\310 \033\204C \251 G@\216\202\234\004I\001I\003"
 228      201B8443 
 228      20A92047 
 228      408E829C 
 228      04490149 
 229 0af7 39067202 		.ascii	"9\006r\002$\033$\023$\007\344\024\310A\220,\220t\220"
 229      241B2413 
 229      2407E414 
 229      C841902C 
 229      907490
 230 0b0a E32079C4 		.ascii	"\343 y\304]%\321ZMr\320\234\222\203\370j%\215\253\353"
 230      5D25D15A 
 230      4D72D09C 
 230      9283F86A 
 230      258DABEB 
 231 0b1e 14C6C255 		.ascii	"\024\306\302U*Y\022s\257\002\223\3574[\242\356Q\240"
 231      2A591273 
 231      AF0293EF 
 231      345BA2EE 
 231      51A0
 232 0b30 F2254DB1 		.ascii	"\362%M\261dk\234\234\272\264\006m\225\270\363J\343\342"
 232      646B9C9C 
 232      BAB4066D 
ARM GAS  C:\Users\info\AppData\Local\Temp\cccZP76i.s 			page 18


 232      95B8F34A 
 232      E3E2
 233 0b42 A7B337C5 		.ascii	"\247\2637\305\017\2530\232z\022\304\236\335IfI\211\227"
 233      0FAB309A 
 233      7A12C49E 
 233      DD496649 
 233      8997
 234 0b54 DECE5556 		.ascii	"\336\316UV\361J\206\360E\371\2334\356,=+\232\362-g\351"
 234      F14A86F0 
 234      45F99B34 
 234      EE2C3D2B 
 234      9AF22D67 
 235 0b69 05BE6EDB 		.ascii	"\005\276n\333\251\324;\317.\223\206\351P\342\226q5\356"
 235      A9D43BCF 
 235      2E9386E9 
 235      50E29671 
 235      35EE
 236 0b7b 6C32AB71 		.ascii	"l2\253q\201\263\364EB\016\2575Qa\036\370!\275\345\207"
 236      81B3F445 
 236      420EAF35 
 236      51611EF8 
 236      21BDE587 
 237 0b8f 944C1487 		.ascii	"\224L\024\207\304\317E\015\357\260\005\245\331\010\026"
 237      C4CF450D 
 237      EFB005A5 
 237      D90816
 238 0b9e 2BD19E94 		.ascii	"+\321\236\224c\231\376\344\015\313\005\352\246\307Y"
 238      6399FEE4 
 238      0DCB05EA 
 238      A6C759
 239 0bad 757EB293 		.ascii	"u~\262\2237\277<\012`I\374%\227\007\372,\263\371o\251"
 239      37BF3C0A 
 239      6049FC25 
 239      9707FA2C 
 239      B3F96FA9 
 240 0bc1 CF4E83A2 		.ascii	"\317N\203\242|\342\336\223\250\013\231\275'\317\024"
 240      7CE2DE93 
 240      A80B99BD 
 240      27CF14
 241 0bd0 1E100245 		.ascii	"\036\020\002E\003\235\313\032\250\372_\267\016t\357"
 241      039DCB1A 
 241      A8FA5FB7 
 241      0E74EF
 242 0bdf 4E7A1327 		.ascii	"Nz\023'\310j\272B.l\341@K\\5\335\364\205\321>\017\222"
 242      C86ABA42 
 242      2E6CE140 
 242      4B5C35DD 
 242      F485D13E 
 243 0bf5 B802AB8F 		.ascii	"\270\002\253\217\221c\365:r\010A]\307\245{\376\244\220"
 243      9163F53A 
 243      7208415D 
 243      C7A57BFE 
 243      A490
 244 0c07 811F9D1B 		.ascii	"\201\037\235\033\177\237\243\0234\372@Y\352\205\217"
 244      7F9FA313 
 244      34FA4059 
 244      EA858F
ARM GAS  C:\Users\info\AppData\Local\Temp\cccZP76i.s 			page 19


 245 0c16 5EBF5613 		.ascii	"^\277V\023$^\004m\010\012\242\333\331\005\242\027\276"
 245      245E046D 
 245      080AA2DB 
 245      D905A217 
 245      BE
 246 0c27 814D92D7 		.ascii	"\201M\222\327\177Q\246\377\002\352\227\315\336\003\330"
 246      7F51A6FF 
 246      02EA97CD 
 246      DE03D8
 247 0c36 A4EB6193 		.ascii	"\244\353a\223\026\232\3019\305\342\3545\301\365=\030"
 247      169AC139 
 247      C5E2EC35 
 247      C1F53D18 
 248 0c46 DB6D907A 		.ascii	"\333m\220z\220[ 7A\256\201\324\202\\\005\251\001\251"
 248      905B2037 
 248      41AE81D4 
 248      825C05A9 
 248      01A9
 249 0c58 06A902B9 		.ascii	"\006\251\002\271\002R\011R\001R\016R\006R\012R\002r"
 249      02520952 
 249      01520E52 
 249      06520A52 
 249      0272
 250 0c6a 19E4922C 		.ascii	"\031\344\222,\301\315vs\301w\016\346\260\230[#ji=)\333"
 250      C1CD7673 
 250      C1770EE6 
 250      B0985B23 
 250      6A693D29 
 251 0c7f 79567CE0 		.ascii	"yV|\340/o\3477\335\356\225\334\253V\260\222\317\231"
 251      2F6FE737 
 251      DDEE95DC 
 251      AB56B092 
 251      CF99
 252 0c91 EF246E9F 		.ascii	"\357$n\237\022\227OnS\022\267_\211\313\355\200\223\022"
 252      12974F6E 
 252      5312B75F 
 252      89CBED80 
 252      9312
 253 0ca3 754089CA 		.ascii	"u@\211\312\345\300\011\211:$\247\016\252\027o\201\003"
 253      E5C00989 
 253      3A24A70E 
 253      AA176F81 
 253      03
 254 0cb4 12F7A112 		.ascii	"\022\367\241\022\227O\025}\022wX\211\313\247\241n\211"
 254      974F157D 
 254      12775889 
 254      CBA7A16E 
 254      89
 255 0cc5 FB4889CB 		.ascii	"\373H\211\313\347\311N\211\373X\211\313{\267]\342\322"
 255      E7C94E89 
 255      FB5889CB 
 255      7BB75DE2 
 255      D2
 256 0cd6 B7CF4BB8 		.ascii	"\267\317K\270\274w\3332\270T8\"\366\354N\205\203\213"
 256      BC77DB32 
 256      B8543822 
 256      F6EC4E85 
ARM GAS  C:\Users\info\AppData\Local\Temp\cccZP76i.s 			page 20


 256      838B
 257 0ce8 DD5697C1 		.ascii	"\335V\227\301\235\367/\211t\367NsgIz\257\315\340v\246"
 257      9DF72F89 
 257      74F74E73 
 257      67497AAF 
 257      CDE076A6 
 258 0cfc 27CA7CAE 		.ascii	"'\312|\256\373\232n\177\244\327\301\352|\265\230\316"
 258      FB9A6E7F 
 258      A4D7C1EA 
 258      7CB598CE 
 259 0d0c EF35FCB2 		.ascii	"\3575\374\262\375\212\254\225H7 \310\235\3604f\272\345"
 259      FD8AAC95 
 259      483720C8 
 259      9DF03466 
 259      BAE5
 260 0d1e 682A8E93 		.ascii	"h*\216\223A\027\216c\247c\275\232\271\3145x\025}\000"
 260      41178E63 
 260      A763BD9A 
 260      B9CC3578 
 260      157D00
 261 0d31 FE5E27F4 		.ascii	"\376^'\364W|W\312\230\204\224\201\2315\247\371;4\263"
 261      577C57CA 
 261      98849481 
 261      9935A7F9 
 261      3B34B3
 262 0d44 524BDF48 		.ascii	"RK\337H\325\276\223%\015\034M\025?\232)\345\321p\203"
 262      D5BE9325 
 262      0D1C4D15 
 262      3F9A29E5 
 262      D17083
 263 0d57 AFE8D63B 		.ascii	"\257\350\326;\016\032\031\371\355b\262\302\306)\261"
 263      0E1A19F9 
 263      ED62B2C2 
 263      C629B1
 264 0d66 DF29B3F9 		.ascii	"\337)\263\371\027/\031\253\320\222\006\240O/\246\177"
 264      172F19AB 
 264      D09206A0 
 264      4F2FA67F 
 265 0d76 A2ECD63B 		.ascii	"\242\354\326;\274[\357\202[\033\025\335zG\346\326F%"
 265      BC5BEF82 
 265      5B1B15DD 
 265      7A47E6D6 
 265      4625
 266 0d88 B776CBDC 		.ascii	"\267v\313\334z\207\271\265\210\271\025]y9y5u%5\356\275"
 266      7A87B9B5 
 266      88B9155D 
 266      79397935 
 266      752535EE 
 267 0d9d E4CA46CE 		.ascii	"\344\312F\316\225\2273\276\217\003\200MA\230Q\034@\260"
 267      959733BE 
 267      8F03804D 
 267      4198511C 
 267      40B0
 268 0daf 54281CCF 		.ascii	"T(\034\317`\205B\261\274P\300{G\222\277G\357\321T\177"
 268      608542B1 
 268      BC50C07B 
 268      4792BF47 
ARM GAS  C:\Users\info\AppData\Local\Temp\cccZP76i.s 			page 21


 268      EFD1547F 
 269 0dc3 5EDA108B 		.ascii	"^\332\020\213]\033bqky\274/\271\210\273KQ\323\355>\361"
 269      5D1B6271 
 269      6B79BC2F 
 269      B988BB4B 
 269      51D3ED3E 
 270 0dd8 6DCC1EFA 		.ascii	"m\314\036\372\016\272\350L\377\023/\361']\372C\344@"
 270      0EBAE84C 
 270      FF132FF1 
 270      275DFA43 
 270      E440
 271 0dea D789277E 		.ascii	"\327\211'~\244\032\311m\337\214\355\026H\023\003??\364"
 271      A41AC96D 
 271      DF8CED16 
 271      4813033F 
 271      3FF4
 272 0dfc F065979F 		.ascii	"\360e\227\237 \333\207\350&\244_\2641\341\015\272_\341"
 272      20DB87E8 
 272      26A45FB4 
 272      31E10DBA 
 272      5FE1
 273 0e0e 16A50F0A 		.ascii	"\026\245\017\012b\027A\320@7\252 <3\244N\376\323\335"
 273      621741D0 
 273      4037AA20 
 273      3C33A44E 
 273      FED3DD
 274 0e21 2B8F1D8E 		.ascii	"+\217\035\2164=}\321!\334\204\361w\361\343\257\223\226"
 274      343D7DD1 
 274      21DC84F1 
 274      77F1E3AF 
 274      9396
 275 0e33 A96C1768 		.ascii	"\251l\027h#\353\204V\002\204\026\202O\320]\340\220&"
 275      23EB8456 
 275      02841682 
 275      4FD05DE0 
 275      9026
 276 0e45 4848D3C0 		.ascii	"HH\323\300\316\015\362\036\262x'\3107 \323 \357@\336"
 276      CE0DF21E 
 276      B27827C8 
 276      3720D320 
 276      EF40DE
 277 0e58 824C81BC 		.ascii	"\202L\201\274\001\231\004y\0152\001\362\012d\034\344"
 277      01990479 
 277      0D3201F2 
 277      0A641CE4 
 278 0e68 25C80B90 		.ascii	"%\310\013\220\347 \317@\236\202\214\201\214\202\014"
 278      E720CF40 
 278      9E828C81 
 278      8C820C
 279 0e77 810C820C 		.ascii	"\201\014\202\014\200\364\203\364\201\364\202|\015\322"
 279      80F483F4 
 279      81F4827C 
 279      0DD2
 280 0e85 03F200E4 		.ascii	"\003\362\000\344>H\267l\347\030\344w\270v\321T1c\225"
 280      3E48B76C 
 280      E718E477 
 280      B876D154 
ARM GAS  C:\Users\info\AppData\Local\Temp\cccZP76i.s 			page 22


 280      316395
 281 0e98 2FF9E589 		.ascii	"/\371\345\211\313\232\225\202\002\267B9\023V)q\371\367"
 281      CB9A9582 
 281      02B74239 
 281      13562971 
 281      F9F7
 282 0eaa C97519DC 		.ascii	"\311u\031\334[\322j%v)\307\256\356v\377\010tS\211\313"
 282      5BD26A25 
 282      7629C7AE 
 282      EE76FF08 
 282      745389CB 
 283 0ebe FF1E7845 		.ascii	"\377\036xE\342\326+q\371|\\\311\373\342\266\022\233"
 283      E2D62B71 
 283      F97C5CC9 
 283      FBE2B612 
 283      9B
 284 0ecf DBEF8AA5 		.ascii	"\333\357\212\245\3415(Q\271\037s33V\307\261<O\177\177"
 284      E1352851 
 284      B91F7333 
 284      3356C7B1 
 284      3C4F7F7F 
 285 0ee3 B92792DD 		.ascii	"\271'\222\335\245^\343b\372\221\2145ql\275\3217\247"
 285      A55EE362 
 285      FA918C35 
 285      716CBDD1 
 285      37A7
 286 0ef5 7BC47873 		.ascii	"{\304xs\277#\335\275x[H\357\376\036.\317\207\260</,"
 286      BF23DDBD 
 286      785B48EF 
 286      FE1E2ECF 
 286      87B03C2F 
 287 0f0a 0ECF22B5 		.ascii	"\016\317\"\265r\202y\304'\230t\010\313a\305\004\363"
 287      728279C4 
 287      27987408 
 287      CB61C504 
 287      F3
 288 0f1b 48966086 		.ascii	"H\226`\206\225\022\014}G&%\230G,\301<v\347\355\021\302"
 288      95120C7D 
 288      47262598 
 288      472CC13C 
 288      76E7ED11 
 289 0f30 5E9CF07D 		.ascii	"^\234\360}>\221Uz#\012\225\236{\355\034\006\303\376"
 289      3E91557A 
 289      230A959E 
 289      7BED1C06 
 289      C3FE
 290 0f42 FFAE9DF9 		.ascii	"\377\256\235\371C\2136d\005\317s\023\365\246\203{\003"
 290      438B3664 
 290      05CF7313 
 290      F5A6837B 
 290      03
 291 0f53 7F592D8B 		.ascii	"\177Y-\213\231\342%E\307D\007\213/\312-Q\342\362E\307"
 291      99E22545 
 291      C744078B 
 291      2FCA2D51 
 291      E2F245C7 
 292 0f67 80C42D55 		.ascii	"\200\304-U\342\362A\336'q\313\224\270\\\210wJ\324r%"
ARM GAS  C:\Users\info\AppData\Local\Temp\cccZP76i.s 			page 23


 292      E2F241DE 
 292      2771CB94 
 292      B85C8877 
 292      4AD47225 
 293 0f7b 2A37B676 		.ascii	"*7\266v\211Z)\247V,)\351Z%\356\025%.\237D\256I\334*"
 293      895A29A7 
 293      562C29E9 
 293      5A25EE15 
 293      252E9F44 
 294 0f93 252E5FD2 		.ascii	"%._\322\225I\334j%\256\354?A"
 294      9549DC6A 
 294      25AEEC3F 
 294      41
 295 0fa0 48DC1A25 		.ascii	"H\334\032%\256\354%\203\304\275\252\304\345\275\233"
 295      AEEC2583 
 295      C4BDAAC4 
 295      E5BD9B
 296 0faf 25716B95 		.ascii	"%qk\225\270\234w?\264\273\251\327\224\250\234w\347$"
 296      B89C773F 
 296      B4BBA9D7 
 296      94A89C77 
 296      E724
 297 0fc1 AA534EAD 		.ascii	"\252SN\255[\342\335\031\211\373\225\022\227\367\356"
 297      5BE2DD19 
 297      89FB9512 
 297      97F7EE
 298 0fd0 5BFE6C7D 		.ascii	"[\376l}]\211\315\373wRz]pC\211\313\373\2677m5.\215\031"
 298      5D89CDFB 
 298      77527A5D 
 298      704389CB 
 298      FBB7376D 
 299 0fe8 58FFB717 		.ascii	"X\377\267\027/\215\372e\222\322\254,3\314\3102\003\036"
 299      2F8DFA65 
 299      92D2AC2C 
 299      33CCC832 
 299      031E
 300 0ffa 909B691A 		.ascii	"\220\233i\032\244g"
 300      A467
 301 1000 AB03900D 		.ascii	"\253\003\220\015\346]\007\344\004H\011\037`y\316\311"
 301      E65D07E4 
 301      0448091F 
 301      6079CEC9 
 302 1010 9667453B 		.ascii	"\226gE;\253\322\366h\364B\013X0\277L\225&\313<\356\376"
 302      ABD2F668 
 302      F4420B58 
 302      30BF4C95 
 302      26CB3CEE 
 303 1025 EF894FD0 		.ascii	"\357\211O\320\314\223\010\272\224U\224\267\177\027\207"
 303      CC9308BA 
 303      945594B7 
 303      7F1787
 304 1034 B900C36C 		.ascii	"\271\000\303lX\254d\231\332.N\303\245\336\235\320\267"
 304      58AC6499 
 304      DA2E4EC3 
 304      A5DE9DD0 
 304      B7
 305 1045 43A3947A 		.ascii	"C\243\224zy\232\212\343p\251\367\017\253\271\314\013"
ARM GAS  C:\Users\info\AppData\Local\Temp\cccZP76i.s 			page 24


 305      799A8AE3 
 305      70A9F70F 
 305      ABB9CC0B 
 306 1055 7CFA9BBE 		.ascii	"|\372\233\276fQ\346\305\312\253\177\037\373\225\234"
 306      6651E6C5 
 306      CAAB7F1F 
 306      FB959C
 307 1064 9AD92855 		.ascii	"\232\331(Uy\320\251T\246\246\211\333\310.\320tGq(\301"
 307      79D0A954 
 307      A6A689DB 
 307      C82ED074 
 307      477128C1 
 308 1078 DF3A92DD 		.ascii	"\337:\222\335\262\221\240\332^TK\273\274\273X\255X\311"
 308      B291A0DA 
 308      5E544BBB 
 308      BCBB58AD 
 308      58C9
 309 108a A7B17271 		.ascii	"\247\261rq^^.\362J\222x%\373A\311^Ew%\311\334\265\367"
 309      5E5E2EF2 
 309      4A927825 
 309      FB41C95E 
 309      457725C9 
 310 10a1 CFBA2B89 		.ascii	"\317\272+\211\271k\237\314]\035\356\003\306 \032Nc\247"
 310      B96B9FCC 
 310      5D1DEE03 
 310      C6201A4E 
 310      63A7
 311 10b3 53327C2F 		.ascii	"S2|/g\370\375\273\337\247\214dM\240\320%1\346\311\222"
 311      67F8FDBB 
 311      DFA78C64 
 311      4DA0D025 
 311      31E6C992 
 312 10c7 5F379542 		.ascii	"_7\225B\366[B\252'M\014\251\203\240\273[y\345,\231\010"
 312      F65B42AA 
 312      274D0CA9 
 312      83A0BB5B 
 312      79E52C99 
 313 10dc 998F5265 		.ascii	"\231\217Re>Bk_\343xh\237\367\027\217\007\253\216\373"
 313      3E426B5F 
 313      E378689F 
 313      F7178F07 
 313      AB8EFB
 314 10ef 69BE5875 		.ascii	"i\276Xu\320\352\274G\324\353~\225\261\270\312\357\300"
 314      D0EABC47 
 314      D4EB7E95 
 314      B1B8CAEF 
 314      C0
 315 1100 69EB52AA 		.ascii	"i\353R\252\362\273\366\261*\237n\363\035R\225\337\305"
 315      F2BBF6B1 
 315      2A9F6EF3 
 315      1D5295DF 
 315      C5
 316 1111 3C838CDA 		.ascii	"<\203\214\332\3665\224A\013\226\213\2225\303l\275C5"
 316      F6359441 
 316      0B968B92 
 316      35C36CBD 
 316      4335
ARM GAS  C:\Users\info\AppData\Local\Temp\cccZP76i.s 			page 25


 317 1123 3F723139 		.ascii	"?r19\315\377\207\271\216\334b\307PO\301\227\217K\034"
 317      CDFF87B9 
 317      8EDC62C7 
 317      504FC197 
 317      8F4B1C
 318 1136 8E5DF098 		.ascii	"\216]\360\230\206\305\333e\351\177/\302%;?\010\275\202"
 318      86C5DB65 
 318      E97F2FC2 
 318      253B3F08 
 318      BD82
 319 1148 4AC8D0FC 		.ascii	"J\310\320\374\220\376\210q%%\321\207\274\303S\301\316"
 319      90FE8871 
 319      2525D187 
 319      BCC353C1 
 319      CE
 320 1159 82A1560F 		.ascii	"\202\241V\017rp%\003\031u\316l\177\215Z%\034\325\020"
 320      72702503 
 320      1975CE6C 
 320      7F8D5A25 
 320      1CD510
 321 116c 54A3F4F3 		.ascii	"T\243\364\363\312\241\363c\207\3754\256x\310\322\260"
 321      CAA1F363 
 321      87FD34AE 
 321      78C8D2B0 
 322 117c C6B6AB67 		.ascii	"\306\266\253g+<\326.\027H\331,\220\216\261@\002r\351"
 322      2B3CD62E 
 322      1748D92C 
 322      908EB140 
 322      0272E9
 323 118f D88B720F 		.ascii	"\330\213r\0170~\310\341\030:8\371\253\243\247w;[\035"
 323      307EC8E1 
 323      183A38F9 
 323      ABA3A777 
 323      3B5B1D
 324 11a2 8E158C27 		.ascii	"\216\025\214'\034\321\210\306\013\231\032\015E\314m"
 324      1CD188C6 
 324      0B991A0D 
 324      45CC6D
 325 11b1 C271667B 		.ascii	"\302qf{\313\303]\271\336$\023\315\235\274?\347\241\341"
 325      CBC35DB9 
 325      DE2413CD 
 325      9DBC3FE7 
 325      A1E1
 326 11c3 96313475 		.ascii	"\22614u\226\026\325i\326.{b\316ev\344\270\354\250\372"
 326      9616D569 
 326      D62E7B62 
 326      CE6576E4 
 326      B8ECA8FA 
 327 11d7 903C42D0 		.ascii	"\220<B\320\016gf\301\257Sw\346\006Q\212pB\343\366\337"
 327      0E6766C1 
 327      AF5377E6 
 327      06518A70 
 327      42E3F6DF 
 328 11eb 0997FE93 		.ascii	"\011\227\376\223L\377\276\201\214b/R\210\372\207oU\376"
 328      4CFFBE81 
 328      8C622F52 
 328      88FA876F 
ARM GAS  C:\Users\info\AppData\Local\Temp\cccZP76i.s 			page 26


 328      55FE
 329 11fd 5A7CFA48 		.ascii	"Z|\372HAp\246\343\272\232y?Oz:\317\365\364)\366\364"
 329      4170A6E3 
 329      BA9A793F 
 329      4F7A3ACF 
 329      F5F429F6 
 330 1212 89A749A3 		.ascii	"\211\247I\243Z\331\033\305\\\331\212\314g\261\306\276"
 330      5AD91BC5 
 330      5CD98ACC 
 330      67B1C6BE 
 331 1222 819DB9A7 		.ascii	"\201\235\271\247\373\215\3747\345l\031\373\264\310\246"
 331      FB8DFC37 
 331      E56C19FB 
 331      B4C8A6
 332 1231 DFDA7FF9 		.ascii	"\337\332\177\371\355\357\327\377\"8X\345m0D[\"\354\233"
 332      EDEFD7FF 
 332      223858E5 
 332      6D30445B 
 332      22EC9B
 333 1244 0DF638C1 		.ascii	"\015\3668\301\364\217[\242\254\221[\255\306\355\353"
 333      F48F5BA2 
 333      AC915BAD 
 333      C6EDEB
 334 1253 C32CE166 		.ascii	"\303,\341f\333\372\240\230\315?\375\233-\246\330(\253"
 334      DBFAA098 
 334      CD3FFD9B 
 334      2DA6D828 
 334      AB
 335 1264 D966DB12 		.ascii	"\331f\333\022e\2134\2557Y\315F{\244u\313\347\033?\225"
 335      658B34AD 
 335      3759CD46 
 335      7BA475CB 
 335      E71B3F95 
 336 1278 3758B647 		.ascii	"7X\266GEZ\355[\266FDo1Z\267o\371\273\215\237o\014\246"
 336      455AED5B 
 336      B646446F 
 336      315AB76F 
 336      F9BB8D9F 
 337 128f 573F8988 		.ascii	"W?\211\210\2140\377\304l\014\261l\261D\230\302\243C"
 337      8C30FFC4 
 337      6C0CB16C 
 337      B14498C2 
 337      A343
 338 12a1 CD5BB61B 		.ascii	"\315[\266\033M\333,\021\346-\206Ps\2301:\334n\260\307"
 338      4DDB2C11 
 338      E62D8650 
 338      7398313A 
 338      DC6EB0C7 
 339 12b5 46996D1B 		.ascii	"F\231m\033\267\251\274DS\276\370\277\262\304\026k\333"
 339      B7A9BC44 
 339      53BEF8BF 
 339      B2C4166B 
 339      DB
 340 12c6 62B0D943 		.ascii	"b\260\331CA-\250_\031\275y\353\247\206_\204\233\215"
 340      412DA85F 
 340      19BD79EB 
 340      A7865F84 
ARM GAS  C:\Users\info\AppData\Local\Temp\cccZP76i.s 			page 27


 340      9B8D
 341 12d8 D67FB6D8 		.ascii	"\326\177\266\330\242\302\215\261\272P\253q\207\301\024"
 341      A2C28DB1 
 341      BA50AB71 
 341      87C114
 342 12e7 191E690D 		.ascii	"\031\036i\015\014\261\330\267\033\243\014v\2531\302"
 342      0CB1D8B7 
 342      1BA30C76 
 342      AB31C2
 343 12f6 1665B49A 		.ascii	"\026e\264\232#L\261~[\303c\243\266\031b\014\221aa6\263"
 343      234CB17E 
 343      5BC363A3 
 343      B619620C 
 343      91616136 
 344 130b 5D6B30A0 		.ascii	"]k0\240\375\236\370\265\",2\302n\260\232\303`\2406\223"
 344      FD9EF8B5 
 344      222C32C2 
 344      6EB09AC3 
 344      60A03693 
 345 131f 39C2EEEF 		.ascii	"9\302\356\357n02\214\204mf\313\326mv\303\366\310P\363"
 345      6E30328C 
 345      846D66CB 
 345      D66D76C3 
 345      F6C850F3 
 346 1333 7A8BCD10 		.ascii	"z\213\315\020e\334j6\230\302-Q\206\035\226\210\320\310"
 346      65DC6A36 
 346      98C22D51 
 346      861D9688 
 346      D0C8
 347 1345 1DB44FB3 		.ascii	"\035\264O\263\325f6\331-\221\021\336\354\011KDX\344"
 347      D56636D9 
 347      2D9111DE 
 347      EC094B44 
 347      58E4
 348 1357 4A9BDD68 		.ascii	"J\233\335h\265\033\242\"m\206\360\310\035f\253\301\250"
 348      B51BA222 
 348      6D86F0C8 
 348      1D66ABC1 
 348      A8
 349 1368 C3A90CFE 		.ascii	"\303\251\014\376\251\301\256u]p\254\350\250(`\375L/"
 349      A9C1AE75 
 349      5D70ACE8 
 349      A82860FD 
 349      4C2F
 350 137a DA027AAC 		.ascii	"\332\002z\254F\037\243t\355\355\272\261U+\266\376L\033"
 350      461FA374 
 350      EDEDBAB1 
 350      552BB6FE 
 350      4C1B
 351 138c EB1A996B 		.ascii	"\353\032\231k\210\376\333\2151\006\3236\243U\264\332"
 351      88FEDB8D 
 351      3106D336 
 351      A355B4DA 
 352 139c CF8D7758 		.ascii	"\317\215wXB\355\333V\200\223`\004\240'\324\034n7\032"
 352      42EDDB56 
 352      80936004 
 352      A027D41C 
ARM GAS  C:\Users\info\AppData\Local\Temp\cccZP76i.s 			page 28


 352      6E371A
 353 13af 62FCDD0D 		.ascii	"b\374\335\015\214\024\273\010\307\254\222c\3544P\336"
 353      8C14BB08 
 353      C7AC9263 
 353      EC3450DE 
 354 13bf C87AD6B9 		.ascii	"\310z\326\271\333\202\245\313M\332\220\220\030\3468"
 354      DB82A5CB 
 354      4DDA9090 
 354      18E638
 355 13ce 6F9C0953 		.ascii	"o\234\011S\204}\245\201\315\242\333Or\037DXL\300^\265"
 355      847DA581 
 355      CDA2DB4F 
 355      721F4458 
 355      4CC05EB5 
 356 13e2 71E316C6 		.ascii	"q\343\026\3062\331\254&v\005\263\277b\361s>\354:\324"
 356      32D9AC26 
 356      7605B3BF 
 356      62F1733E 
 356      EC3AD4
 357 13f5 4C9FD086 		.ascii	"L\237\320\206l\3050\320\206\211\027~0UR,\330\375\220"
 357      6CC530D0 
 357      8689177E 
 357      3055522C 
 357      D8FD90
 358 1408 6700DBA8 		.ascii	"g\000\333\250&=\332\203\343\361A\300\306!\304\0121Z"
 358      263DDA83 
 358      E3F141C0 
 358      C621C40A 
 358      315A
 359 141a B067ABD9 		.ascii	"\260g\253\331n\210\365a*\351\\\301\224\211\2151:\261"
 359      6E88F561 
 359      2AE95CC1 
 359      94898D31 
 359      3AB1
 360 142c A728BB35 		.ascii	"\247(\2735\220\033\213\330j'\241\026k\300\322f?\206"
 360      901B8BD8 
 360      6A27A116 
 360      6BC0D266 
 360      3F86
 361 143e 4CC67093 		.ascii	"L\306p\223\341\013\010\260\277\222\030\3566CX\004\364"
 361      E10B08B0 
 361      BF9218EE 
 361      36435804 
 361      F4
 362 144f A9A18D5E 		.ascii	"\251\241\215^,\276b\203\305\357M\370\035#\342\230M^"
 362      2CBE6283 
 362      C5EF4DF8 
 362      1D23E298 
 362      4D5E
 363 1461 D136702F 		.ascii	"\3216p/\334\307o\021\307\2108f\223'\016\314\203\015"
 363      DCC76F11 
 363      C7883866 
 363      93270ECC 
 363      830D
 364 1473 C933243A 		.ascii	"\3113$:\014\270\370\265\311/\312\022c\0167\230\242\255"
 364      0CB8F8B5 
 364      C92FCA12 
ARM GAS  C:\Users\info\AppData\Local\Temp\cccZP76i.s 			page 29


 364      630E3798 
 364      A2AD
 365 1485 56833572 		.ascii	"V\2035r\307\012\204\364\036>\343/5\260\247}\355\260"
 365      C70A84F4 
 365      1E3EE32F 
 365      35B0A77D 
 365      EDB0
 366 1497 C0DD747F 		.ascii	"\300\335t\177\206$\266\336\215\301t\265)\304?:*\324"
 366      8624B6DE 
 366      8DC174B5 
 366      29C43F3A 
 366      2AD4
 367 14a9 6837E322 		.ascii	"h7\343\"\201\365\261\006=(o4\230BV\210M\241\226\355"
 367      81F5B106 
 367      3D286F34 
 367      98425688 
 367      4DA196ED 
 368 14bd E6081B2C 		.ascii	"\346\010\033,\234\265<\321\335\012L?\014\204\020H\003"
 368      9CB53CD1 
 368      DD0A4C3F 
 368      0C841048 
 368      03
 369 14ce D668935D 		.ascii	"\326h\223]\313V|\370?l\302pp! x\273\210v\357\360p\303"
 369      CB567CF8 
 369      3F6CC270 
 369      70212078 
 369      BB8876EF 
 370 14e5 B62FC221 		.ascii	"\266/\302!\205\255\346H\2566\240h\2427\307l\206\210"
 370      85ADE648 
 370      AE36A068 
 370      A237C76C 
 370      8688
 371 14f7 08898C8E 		.ascii	"\010\211\214\2160\231\241gP\272\306\015\303\2156\210"
 371      3099A167 
 371      50BAC60D 
 371      C38D3688 
 372 1507 113093B5 		.ascii	"\0210\223\265\377\265\273\335\225\015\335\267|\266F"
 372      FFB5BBDD 
 372      950DDDB7 
 372      7CB646
 373 1516 5922215D 		.ascii	"Y\"!]\330\240U\027m\017\333\214\315\320\361\027\026"
 373      D8A05517 
 373      6D0FDB8C 
 373      CDD0F117 
 373      16
 374 1527 E01B4343 		.ascii	"\340\033CCi6\364\261|j2\260\0207\207\262k\261}\025\004"
 374      6936F4B1 
 374      7C6A32B0 
 374      103787B2 
 374      6BB17D15 
 375 153c A818CD5F 		.ascii	"\250\030\315_\320\374\301\326\211\026\322V$\244\273"
 375      D0FCC1D6 
 375      8916D256 
 375      24A4BB
 376 154b ADDE21D1 		.ascii	"\255\336!\3216\3102\221\246?\211i\343\263O\305\264A"
 376      36C83291 
 376      A63F8969 
ARM GAS  C:\Users\info\AppData\Local\Temp\cccZP76i.s 			page 30


 376      E3B34FC5 
 376      B441
 377 155d 2F5632CD 		.ascii	"/V2\315\306\210P\272\216\215\2610$\037:$\303v\033D\177"
 377      C68850BA 
 377      8E8DB130 
 377      241F3A24 
 377      C3761B44 
 378 1572 885748AC 		.ascii	"\210WH\254\235\016\323\323d\014\205/](&Kz'\302\034\003"
 378      9D0ED3D3 
 378      640C852F 
 378      5D28264B 
 378      7A27C21C 
 379 1587 1117A267 		.ascii	"\021\027\242gl\266z\001\270\356\323e\345\203\323\317"
 379      6CB67A01 
 379      B8EED365 
 379      E583D3CF 
 380 1597 A67E6518 		.ascii	"\246~e\030D\033\265\312\235AW\270|\340j\360a\363\217"
 380      441BB5CA 
 380      9D4157B8 
 380      7CE06AF0 
 380      61F38F
 381 15aa B1A063D7 		.ascii	"\261\240c\327\354\311U;\254\026:\341\321\3416\261\305"
 381      ECC9553B 
 381      AC163AE1 
 381      D1E136B1 
 381      C5
 382 15bb 10610B80 		.ascii	"\020a\013\200\2715\032\340\241h\310\3220\303\320\264"
 382      B9351AE0 
 382      A168C8D2 
 382      30C3D0B4 
 383 15cb 8AFAC33D 		.ascii	"\212\372\303=RC\360\246M\177\372\325\227Z[\224\2059"
 383      5243F0A6 
 383      4D7FFAD5 
 383      975A5B94 
 383      8539
 384 15dd 436F8336 		.ascii	"Co\2036\274\263\355\313\000\012\344\035\256\264\205"
 384      BCB3EDCB 
 384      000AE41D 
 384      AEB485
 385 15ec 2EEA2F00 		.ascii	".\352/\000\2266M\340\320h\330a\204\245\276\335\266\012"
 385      96364DE0 
 385      D068D861 
 385      84A5BEDD 
 385      B60A
 386 15fe 11FFE476 		.ascii	"\021\377\344v\333Z\330\247`\370\260\226`\354\306\020"
 386      DB5AD8A7 
 386      60F8B096 
 386      60ECC610 
 387 160e 6A366547 		.ascii	"j6eG\300\015\332\001\273c\216\340o\004\310\330\341\346"
 387      C00DDA01 
 387      BB638EE0 
 387      6F04C8D8 
 387      E1E6
 388 1620 2FCCE12B 		.ascii	"/\314\341+y\032kY\313\334\312\273S\214Z=z\025\375\264"
 388      791A6B59 
 388      CBDCCABB 
 388      538C5A3D 
ARM GAS  C:\Users\info\AppData\Local\Temp\cccZP76i.s 			page 31


 388      7A15FDB4 
 389 1634 38BBC56C 		.ascii	"8\273\305l\206\354\026\270\364Q;\316)\366\020\350\016"
 389      86EC16B8 
 389      F4513BCE 
 389      29F610E8 
 389      0E
 390 1645 438C373A 		.ascii	"C\2147:\325\236\354\276\035\263\024\322\002 \250\214"
 390      D59EECBE 
 390      1DB314D2 
 390      0220A88C 
 391 1655 D1F648D7 		.ascii	"\321\366H\327.\005[\245'\273m\377\301\222\234\212\267"
 391      2E055BA5 
 391      27BB6DFF 
 391      C1929C8A 
 391      B7
 392 1666 45951B4D 		.ascii	"E\225\033M*\314I\2773\333\177\036\035\026f\266\376\002"
 392      2ACC49BF 
 392      33DB7F1E 
 392      1D1666B6 
 392      FE02
 393 1678 96FCBFC3 		.ascii	"\226\374\277\303\214\376[\344\016mD\244%\202\256\035"
 393      8CFE5BE4 
 393      0E6D44A4 
 393      2582AE1D 
 394 1688 5F46F92D 		.ascii	"_F\371-\004\321\277B\377\2704\177i\261\332\030\374o"
 394      04D1BF42 
 394      FFB8347F 
 394      69B1DA18 
 394      FC6F
 395 169a C49A6411 		.ascii	"\304\232d\021"
 396              		.text
 397              		.section	.gnu.lto_.symtab.bf148920,"",%progbits
 398 0000 75386732 		.ascii	"u8g2_ClearDisplay\000"
 398      5F436C65 
 398      61724469 
 398      73706C61 
 398      7900
 399 0012 00       		.ascii	"\000"
 400 0013 00       		.ascii	"\000"
 401 0014 00       		.ascii	"\000"
 402 0015 00000000 		.ascii	"\000\000\000\000\000\000\000\000"
 402      00000000 
 403 001d 16020000 		.ascii	"\026\002\000\000"
 404 0021 75386732 		.ascii	"u8g2_SetBufferCurrTileRow\000"
 404      5F536574 
 404      42756666 
 404      65724375 
 404      72725469 
 405 003b 00       		.ascii	"\000"
 406 003c 02       		.ascii	"\002"
 407 003d 00       		.ascii	"\000"
 408 003e 00000000 		.ascii	"\000\000\000\000\000\000\000\000"
 408      00000000 
 409 0046 1D020000 		.ascii	"\035\002\000\000"
 410 004a 75386732 		.ascii	"u8g2_NextPage\000"
 410      5F4E6578 
 410      74506167 
ARM GAS  C:\Users\info\AppData\Local\Temp\cccZP76i.s 			page 32


 410      6500
 411 0058 00       		.ascii	"\000"
 412 0059 02       		.ascii	"\002"
 413 005a 00       		.ascii	"\000"
 414 005b 00000000 		.ascii	"\000\000\000\000\000\000\000\000"
 414      00000000 
 415 0063 21020000 		.ascii	"!\002\000\000"
 416 0067 75386732 		.ascii	"u8g2_FirstPage\000"
 416      5F466972 
 416      73745061 
 416      676500
 417 0076 00       		.ascii	"\000"
 418 0077 02       		.ascii	"\002"
 419 0078 00       		.ascii	"\000"
 420 0079 00000000 		.ascii	"\000\000\000\000\000\000\000\000"
 420      00000000 
 421 0081 23020000 		.ascii	"#\002\000\000"
 422              		.text
 423              		.section	.gnu.lto_.opts,"",%progbits
 424 0000 272D666D 		.ascii	"'-fmath-errno' '-fsigned-zeros' '-ftrapping-math' '"
 424      6174682D 
 424      6572726E 
 424      6F272027 
 424      2D667369 
 425 0033 2D666E6F 		.ascii	"-fno-trapv' '-fno-openmp' '-fno-openacc' '-mcpu=cor"
 425      2D747261 
 425      70762720 
 425      272D666E 
 425      6F2D6F70 
 426 0066 7465782D 		.ascii	"tex-m3' '-mthumb' '-g' '-Os' '-ffunction-sections' "
 426      6D332720 
 426      272D6D74 
 426      68756D62 
 426      2720272D 
 427 0099 272D6666 		.ascii	"'-ffat-lto-objects' '-flto'\000"
 427      61742D6C 
 427      746F2D6F 
 427      626A6563 
 427      74732720 
 428              		.text
 429              		.cfi_sections	.debug_frame
 430              		.section	.text.u8g2_ClearDisplay,"ax",%progbits
 431              		.align	1
 432              		.global	u8g2_ClearDisplay
 433              		.thumb
 434              		.thumb_func
 435              		.type	u8g2_ClearDisplay, %function
 436              	u8g2_ClearDisplay:
 437              	.LFB0:
 438              		.file 1 "..\\u8g2_csrc\\u8g2_cleardisplay.c"
   1:..\u8g2_csrc/u8g2_cleardisplay.c **** /*
   2:..\u8g2_csrc/u8g2_cleardisplay.c **** 
   3:..\u8g2_csrc/u8g2_cleardisplay.c ****   u8g2_cleardisplay.c
   4:..\u8g2_csrc/u8g2_cleardisplay.c **** 
   5:..\u8g2_csrc/u8g2_cleardisplay.c ****   Universal 8bit Graphics Library (https://github.com/olikraus/u8g2/)
   6:..\u8g2_csrc/u8g2_cleardisplay.c **** 
   7:..\u8g2_csrc/u8g2_cleardisplay.c ****   Copyright (c) 2016, olikraus@gmail.com
ARM GAS  C:\Users\info\AppData\Local\Temp\cccZP76i.s 			page 33


   8:..\u8g2_csrc/u8g2_cleardisplay.c ****   All rights reserved.
   9:..\u8g2_csrc/u8g2_cleardisplay.c **** 
  10:..\u8g2_csrc/u8g2_cleardisplay.c ****   Redistribution and use in source and binary forms, with or without modification, 
  11:..\u8g2_csrc/u8g2_cleardisplay.c ****   are permitted provided that the following conditions are met:
  12:..\u8g2_csrc/u8g2_cleardisplay.c **** 
  13:..\u8g2_csrc/u8g2_cleardisplay.c ****   * Redistributions of source code must retain the above copyright notice, this list 
  14:..\u8g2_csrc/u8g2_cleardisplay.c ****     of conditions and the following disclaimer.
  15:..\u8g2_csrc/u8g2_cleardisplay.c ****     
  16:..\u8g2_csrc/u8g2_cleardisplay.c ****   * Redistributions in binary form must reproduce the above copyright notice, this 
  17:..\u8g2_csrc/u8g2_cleardisplay.c ****     list of conditions and the following disclaimer in the documentation and/or other 
  18:..\u8g2_csrc/u8g2_cleardisplay.c ****     materials provided with the distribution.
  19:..\u8g2_csrc/u8g2_cleardisplay.c **** 
  20:..\u8g2_csrc/u8g2_cleardisplay.c ****   THIS SOFTWARE IS PROVIDED BY THE COPYRIGHT HOLDERS AND 
  21:..\u8g2_csrc/u8g2_cleardisplay.c ****   CONTRIBUTORS "AS IS" AND ANY EXPRESS OR IMPLIED WARRANTIES, 
  22:..\u8g2_csrc/u8g2_cleardisplay.c ****   INCLUDING, BUT NOT LIMITED TO, THE IMPLIED WARRANTIES OF 
  23:..\u8g2_csrc/u8g2_cleardisplay.c ****   MERCHANTABILITY AND FITNESS FOR A PARTICULAR PURPOSE ARE 
  24:..\u8g2_csrc/u8g2_cleardisplay.c ****   DISCLAIMED. IN NO EVENT SHALL THE COPYRIGHT HOLDER OR 
  25:..\u8g2_csrc/u8g2_cleardisplay.c ****   CONTRIBUTORS BE LIABLE FOR ANY DIRECT, INDIRECT, INCIDENTAL, 
  26:..\u8g2_csrc/u8g2_cleardisplay.c ****   SPECIAL, EXEMPLARY, OR CONSEQUENTIAL DAMAGES (INCLUDING, BUT 
  27:..\u8g2_csrc/u8g2_cleardisplay.c ****   NOT LIMITED TO, PROCUREMENT OF SUBSTITUTE GOODS OR SERVICES; 
  28:..\u8g2_csrc/u8g2_cleardisplay.c ****   LOSS OF USE, DATA, OR PROFITS; OR BUSINESS INTERRUPTION) HOWEVER 
  29:..\u8g2_csrc/u8g2_cleardisplay.c ****   CAUSED AND ON ANY THEORY OF LIABILITY, WHETHER IN CONTRACT, 
  30:..\u8g2_csrc/u8g2_cleardisplay.c ****   STRICT LIABILITY, OR TORT (INCLUDING NEGLIGENCE OR OTHERWISE) 
  31:..\u8g2_csrc/u8g2_cleardisplay.c ****   ARISING IN ANY WAY OUT OF THE USE OF THIS SOFTWARE, EVEN IF 
  32:..\u8g2_csrc/u8g2_cleardisplay.c ****   ADVISED OF THE POSSIBILITY OF SUCH DAMAGE.  
  33:..\u8g2_csrc/u8g2_cleardisplay.c **** 
  34:..\u8g2_csrc/u8g2_cleardisplay.c **** */
  35:..\u8g2_csrc/u8g2_cleardisplay.c **** #include "u8g2.h"
  36:..\u8g2_csrc/u8g2_cleardisplay.c **** 
  37:..\u8g2_csrc/u8g2_cleardisplay.c **** /* Clear screen buffer & display reliable for all u8g2 displays. */
  38:..\u8g2_csrc/u8g2_cleardisplay.c **** /* This is done with u8g2 picture loop, because we can not use the u8x8 function in all cases */
  39:..\u8g2_csrc/u8g2_cleardisplay.c **** void u8g2_ClearDisplay(u8g2_t *u8g2)
  40:..\u8g2_csrc/u8g2_cleardisplay.c **** {
 439              		.loc 1 40 0
 440              		.cfi_startproc
 441              		@ args = 0, pretend = 0, frame = 0
 442              		@ frame_needed = 0, uses_anonymous_args = 0
 443              	.LVL0:
 444 0000 10B5     		push	{r4, lr}
 445              		.cfi_def_cfa_offset 8
 446              		.cfi_offset 4, -8
 447              		.cfi_offset 14, -4
 448              		.loc 1 40 0
 449 0002 0446     		mov	r4, r0
  41:..\u8g2_csrc/u8g2_cleardisplay.c ****   u8g2_FirstPage(u8g2);
 450              		.loc 1 41 0
 451 0004 FFF7FEFF 		bl	u8g2_FirstPage
 452              	.LVL1:
 453              	.L2:
  42:..\u8g2_csrc/u8g2_cleardisplay.c ****   do {
  43:..\u8g2_csrc/u8g2_cleardisplay.c ****   } while ( u8g2_NextPage(u8g2) );
 454              		.loc 1 43 0 discriminator 1
 455 0008 2046     		mov	r0, r4
 456 000a FFF7FEFF 		bl	u8g2_NextPage
 457              	.LVL2:
 458 000e 0146     		mov	r1, r0
 459 0010 0028     		cmp	r0, #0
ARM GAS  C:\Users\info\AppData\Local\Temp\cccZP76i.s 			page 34


 460 0012 F9D1     		bne	.L2
  44:..\u8g2_csrc/u8g2_cleardisplay.c ****   /* 
  45:..\u8g2_csrc/u8g2_cleardisplay.c ****     This function is usually called during startup (u8g2.begin()).
  46:..\u8g2_csrc/u8g2_cleardisplay.c ****     However the user might want to use full buffer mode with clear and 
  47:..\u8g2_csrc/u8g2_cleardisplay.c ****     send commands.
  48:..\u8g2_csrc/u8g2_cleardisplay.c ****     This will not work because the current tile row is modified by the picture 
  49:..\u8g2_csrc/u8g2_cleardisplay.c ****     loop above. To fix this, reset the tile row to 0, issue #370
  50:..\u8g2_csrc/u8g2_cleardisplay.c ****     A workaround would be, that the user sets the current tile row to 0 manually.
  51:..\u8g2_csrc/u8g2_cleardisplay.c ****   */
  52:..\u8g2_csrc/u8g2_cleardisplay.c ****   u8g2_SetBufferCurrTileRow(u8g2, 0);  
 461              		.loc 1 52 0
 462 0014 2046     		mov	r0, r4
  53:..\u8g2_csrc/u8g2_cleardisplay.c **** }
 463              		.loc 1 53 0
 464 0016 BDE81040 		pop	{r4, lr}
 465              		.cfi_restore 14
 466              		.cfi_restore 4
 467              		.cfi_def_cfa_offset 0
 468              	.LVL3:
  52:..\u8g2_csrc/u8g2_cleardisplay.c **** }
 469              		.loc 1 52 0
 470 001a FFF7FEBF 		b	u8g2_SetBufferCurrTileRow
 471              	.LVL4:
 472              		.cfi_endproc
 473              	.LFE0:
 474              		.size	u8g2_ClearDisplay, .-u8g2_ClearDisplay
 475              		.text
 476              	.Letext0:
 477              		.file 2 "c:\\program files (x86)\\cypress\\psoc creator\\4.2\\psoc creator\\import\\gnu\\arm\\5.4.
 478              		.file 3 "c:\\program files (x86)\\cypress\\psoc creator\\4.2\\psoc creator\\import\\gnu\\arm\\5.4.
 479              		.file 4 "..\\u8g2_csrc\\u8x8.h"
 480              		.file 5 "..\\u8g2_csrc\\u8g2.h"