ARM GAS  C:\Users\info\AppData\Local\Temp\ccTL7qDq.s 			page 1


   1              		.syntax unified
   2              		.cpu cortex-m3
   3              		.fpu softvfp
   4              		.eabi_attribute 20, 1
   5              		.eabi_attribute 21, 1
   6              		.eabi_attribute 23, 3
   7              		.eabi_attribute 24, 1
   8              		.eabi_attribute 25, 1
   9              		.eabi_attribute 26, 1
  10              		.eabi_attribute 30, 2
  11              		.eabi_attribute 34, 1
  12              		.eabi_attribute 18, 4
  13              		.thumb
  14              		.syntax unified
  15              		.file	"u8g2_circle.c"
  16              		.text
  17              	.Ltext0:
  18              		.cfi_sections	.debug_frame
  19              		.section	.text.u8g2_draw_circle_section,"ax",%progbits
  20              		.align	2
  21              		.thumb
  22              		.thumb_func
  23              		.type	u8g2_draw_circle_section, %function
  24              	u8g2_draw_circle_section:
  25              	.LFB0:
  26              		.file 1 "..\\u8g2-master\\csrc\\u8g2_circle.c"
   1:..\u8g2-master\csrc/u8g2_circle.c **** /*
   2:..\u8g2-master\csrc/u8g2_circle.c **** 
   3:..\u8g2-master\csrc/u8g2_circle.c ****   u8g2_box.c
   4:..\u8g2-master\csrc/u8g2_circle.c **** 
   5:..\u8g2-master\csrc/u8g2_circle.c ****   Universal 8bit Graphics Library (https://github.com/olikraus/u8g2/)
   6:..\u8g2-master\csrc/u8g2_circle.c **** 
   7:..\u8g2-master\csrc/u8g2_circle.c ****   Copyright (c) 2016, olikraus@gmail.com
   8:..\u8g2-master\csrc/u8g2_circle.c ****   All rights reserved.
   9:..\u8g2-master\csrc/u8g2_circle.c **** 
  10:..\u8g2-master\csrc/u8g2_circle.c ****   Redistribution and use in source and binary forms, with or without modification, 
  11:..\u8g2-master\csrc/u8g2_circle.c ****   are permitted provided that the following conditions are met:
  12:..\u8g2-master\csrc/u8g2_circle.c **** 
  13:..\u8g2-master\csrc/u8g2_circle.c ****   * Redistributions of source code must retain the above copyright notice, this list 
  14:..\u8g2-master\csrc/u8g2_circle.c ****     of conditions and the following disclaimer.
  15:..\u8g2-master\csrc/u8g2_circle.c ****     
  16:..\u8g2-master\csrc/u8g2_circle.c ****   * Redistributions in binary form must reproduce the above copyright notice, this 
  17:..\u8g2-master\csrc/u8g2_circle.c ****     list of conditions and the following disclaimer in the documentation and/or other 
  18:..\u8g2-master\csrc/u8g2_circle.c ****     materials provided with the distribution.
  19:..\u8g2-master\csrc/u8g2_circle.c **** 
  20:..\u8g2-master\csrc/u8g2_circle.c ****   THIS SOFTWARE IS PROVIDED BY THE COPYRIGHT HOLDERS AND 
  21:..\u8g2-master\csrc/u8g2_circle.c ****   CONTRIBUTORS "AS IS" AND ANY EXPRESS OR IMPLIED WARRANTIES, 
  22:..\u8g2-master\csrc/u8g2_circle.c ****   INCLUDING, BUT NOT LIMITED TO, THE IMPLIED WARRANTIES OF 
  23:..\u8g2-master\csrc/u8g2_circle.c ****   MERCHANTABILITY AND FITNESS FOR A PARTICULAR PURPOSE ARE 
  24:..\u8g2-master\csrc/u8g2_circle.c ****   DISCLAIMED. IN NO EVENT SHALL THE COPYRIGHT HOLDER OR 
  25:..\u8g2-master\csrc/u8g2_circle.c ****   CONTRIBUTORS BE LIABLE FOR ANY DIRECT, INDIRECT, INCIDENTAL, 
  26:..\u8g2-master\csrc/u8g2_circle.c ****   SPECIAL, EXEMPLARY, OR CONSEQUENTIAL DAMAGES (INCLUDING, BUT 
  27:..\u8g2-master\csrc/u8g2_circle.c ****   NOT LIMITED TO, PROCUREMENT OF SUBSTITUTE GOODS OR SERVICES; 
  28:..\u8g2-master\csrc/u8g2_circle.c ****   LOSS OF USE, DATA, OR PROFITS; OR BUSINESS INTERRUPTION) HOWEVER 
  29:..\u8g2-master\csrc/u8g2_circle.c ****   CAUSED AND ON ANY THEORY OF LIABILITY, WHETHER IN CONTRACT, 
  30:..\u8g2-master\csrc/u8g2_circle.c ****   STRICT LIABILITY, OR TORT (INCLUDING NEGLIGENCE OR OTHERWISE) 
  31:..\u8g2-master\csrc/u8g2_circle.c ****   ARISING IN ANY WAY OUT OF THE USE OF THIS SOFTWARE, EVEN IF 
ARM GAS  C:\Users\info\AppData\Local\Temp\ccTL7qDq.s 			page 2


  32:..\u8g2-master\csrc/u8g2_circle.c ****   ADVISED OF THE POSSIBILITY OF SUCH DAMAGE.  
  33:..\u8g2-master\csrc/u8g2_circle.c **** 
  34:..\u8g2-master\csrc/u8g2_circle.c **** */
  35:..\u8g2-master\csrc/u8g2_circle.c **** 
  36:..\u8g2-master\csrc/u8g2_circle.c **** #include "u8g2.h"
  37:..\u8g2-master\csrc/u8g2_circle.c **** 
  38:..\u8g2-master\csrc/u8g2_circle.c **** /*==============================================*/
  39:..\u8g2-master\csrc/u8g2_circle.c **** /* Circle */
  40:..\u8g2-master\csrc/u8g2_circle.c **** 
  41:..\u8g2-master\csrc/u8g2_circle.c **** static void u8g2_draw_circle_section(u8g2_t *u8g2, u8g2_uint_t x, u8g2_uint_t y, u8g2_uint_t x0, u8
  42:..\u8g2-master\csrc/u8g2_circle.c **** 
  43:..\u8g2-master\csrc/u8g2_circle.c **** static void u8g2_draw_circle_section(u8g2_t *u8g2, u8g2_uint_t x, u8g2_uint_t y, u8g2_uint_t x0, u8
  44:..\u8g2-master\csrc/u8g2_circle.c **** {
  27              		.loc 1 44 0
  28              		.cfi_startproc
  29              		@ args = 8, pretend = 0, frame = 0
  30              		@ frame_needed = 0, uses_anonymous_args = 0
  31              	.LVL0:
  32 0000 2DE9F843 		push	{r3, r4, r5, r6, r7, r8, r9, lr}
  33              		.cfi_def_cfa_offset 32
  34              		.cfi_offset 3, -32
  35              		.cfi_offset 4, -28
  36              		.cfi_offset 5, -24
  37              		.cfi_offset 6, -20
  38              		.cfi_offset 7, -16
  39              		.cfi_offset 8, -12
  40              		.cfi_offset 9, -8
  41              		.cfi_offset 14, -4
  42              		.loc 1 44 0
  43 0004 9DF82440 		ldrb	r4, [sp, #36]	@ zero_extendqisi2
  44 0008 1D46     		mov	r5, r3
  45:..\u8g2-master\csrc/u8g2_circle.c ****     /* upper right */
  46:..\u8g2-master\csrc/u8g2_circle.c ****     if ( option & U8G2_DRAW_UPPER_RIGHT )
  45              		.loc 1 46 0
  46 000a E307     		lsls	r3, r4, #31
  47              	.LVL1:
  44:..\u8g2-master\csrc/u8g2_circle.c ****     /* upper right */
  48              		.loc 1 44 0
  49 000c 8846     		mov	r8, r1
  50 000e 1746     		mov	r7, r2
  51 0010 8146     		mov	r9, r0
  52 0012 9DF82060 		ldrb	r6, [sp, #32]	@ zero_extendqisi2
  53              		.loc 1 46 0
  54 0016 3BD4     		bmi	.L17
  55              	.LVL2:
  56              	.L2:
  47:..\u8g2-master\csrc/u8g2_circle.c ****     {
  48:..\u8g2-master\csrc/u8g2_circle.c ****       u8g2_DrawPixel(u8g2, x0 + x, y0 - y);
  49:..\u8g2-master\csrc/u8g2_circle.c ****       u8g2_DrawPixel(u8g2, x0 + y, y0 - x);
  50:..\u8g2-master\csrc/u8g2_circle.c ****     }
  51:..\u8g2-master\csrc/u8g2_circle.c ****     
  52:..\u8g2-master\csrc/u8g2_circle.c ****     /* upper left */
  53:..\u8g2-master\csrc/u8g2_circle.c ****     if ( option & U8G2_DRAW_UPPER_LEFT )
  57              		.loc 1 53 0
  58 0018 A107     		lsls	r1, r4, #30
  59 001a 28D4     		bmi	.L18
  60              	.L3:
ARM GAS  C:\Users\info\AppData\Local\Temp\ccTL7qDq.s 			page 3


  54:..\u8g2-master\csrc/u8g2_circle.c ****     {
  55:..\u8g2-master\csrc/u8g2_circle.c ****       u8g2_DrawPixel(u8g2, x0 - x, y0 - y);
  56:..\u8g2-master\csrc/u8g2_circle.c ****       u8g2_DrawPixel(u8g2, x0 - y, y0 - x);
  57:..\u8g2-master\csrc/u8g2_circle.c ****     }
  58:..\u8g2-master\csrc/u8g2_circle.c ****     
  59:..\u8g2-master\csrc/u8g2_circle.c ****     /* lower right */
  60:..\u8g2-master\csrc/u8g2_circle.c ****     if ( option & U8G2_DRAW_LOWER_RIGHT )
  61              		.loc 1 60 0
  62 001c 2207     		lsls	r2, r4, #28
  63 001e 15D4     		bmi	.L19
  64              	.L4:
  61:..\u8g2-master\csrc/u8g2_circle.c ****     {
  62:..\u8g2-master\csrc/u8g2_circle.c ****       u8g2_DrawPixel(u8g2, x0 + x, y0 + y);
  63:..\u8g2-master\csrc/u8g2_circle.c ****       u8g2_DrawPixel(u8g2, x0 + y, y0 + x);
  64:..\u8g2-master\csrc/u8g2_circle.c ****     }
  65:..\u8g2-master\csrc/u8g2_circle.c ****     
  66:..\u8g2-master\csrc/u8g2_circle.c ****     /* lower left */
  67:..\u8g2-master\csrc/u8g2_circle.c ****     if ( option & U8G2_DRAW_LOWER_LEFT )
  65              		.loc 1 67 0
  66 0020 6307     		lsls	r3, r4, #29
  67 0022 01D4     		bmi	.L20
  68 0024 BDE8F883 		pop	{r3, r4, r5, r6, r7, r8, r9, pc}
  69              	.LVL3:
  70              	.L20:
  68:..\u8g2-master\csrc/u8g2_circle.c ****     {
  69:..\u8g2-master\csrc/u8g2_circle.c ****       u8g2_DrawPixel(u8g2, x0 - x, y0 + y);
  71              		.loc 1 69 0
  72 0028 F219     		adds	r2, r6, r7
  73 002a C8EB0501 		rsb	r1, r8, r5
  74 002e 4846     		mov	r0, r9
  75 0030 D2B2     		uxtb	r2, r2
  76 0032 C9B2     		uxtb	r1, r1
  77 0034 FFF7FEFF 		bl	u8g2_DrawPixel
  78              	.LVL4:
  70:..\u8g2-master\csrc/u8g2_circle.c ****       u8g2_DrawPixel(u8g2, x0 - y, y0 + x);
  79              		.loc 1 70 0
  80 0038 08EB0602 		add	r2, r8, r6
  81 003c E91B     		subs	r1, r5, r7
  82 003e 4846     		mov	r0, r9
  71:..\u8g2-master\csrc/u8g2_circle.c ****     }
  72:..\u8g2-master\csrc/u8g2_circle.c **** }
  83              		.loc 1 72 0
  84 0040 BDE8F843 		pop	{r3, r4, r5, r6, r7, r8, r9, lr}
  85              		.cfi_remember_state
  86              		.cfi_restore 14
  87              		.cfi_restore 9
  88              		.cfi_restore 8
  89              		.cfi_restore 7
  90              		.cfi_restore 6
  91              		.cfi_restore 5
  92              		.cfi_restore 4
  93              		.cfi_restore 3
  94              		.cfi_def_cfa_offset 0
  95              	.LVL5:
  70:..\u8g2-master\csrc/u8g2_circle.c ****       u8g2_DrawPixel(u8g2, x0 - y, y0 + x);
  96              		.loc 1 70 0
  97 0044 D2B2     		uxtb	r2, r2
ARM GAS  C:\Users\info\AppData\Local\Temp\ccTL7qDq.s 			page 4


  98 0046 C9B2     		uxtb	r1, r1
  99 0048 FFF7FEBF 		b	u8g2_DrawPixel
 100              	.LVL6:
 101              	.L19:
 102              		.cfi_restore_state
  62:..\u8g2-master\csrc/u8g2_circle.c ****       u8g2_DrawPixel(u8g2, x0 + y, y0 + x);
 103              		.loc 1 62 0
 104 004c F219     		adds	r2, r6, r7
 105 004e 05EB0801 		add	r1, r5, r8
 106 0052 4846     		mov	r0, r9
 107 0054 D2B2     		uxtb	r2, r2
 108 0056 C9B2     		uxtb	r1, r1
 109 0058 FFF7FEFF 		bl	u8g2_DrawPixel
 110              	.LVL7:
  63:..\u8g2-master\csrc/u8g2_circle.c ****     }
 111              		.loc 1 63 0
 112 005c 08EB0602 		add	r2, r8, r6
 113 0060 E919     		adds	r1, r5, r7
 114 0062 D2B2     		uxtb	r2, r2
 115 0064 C9B2     		uxtb	r1, r1
 116 0066 4846     		mov	r0, r9
 117 0068 FFF7FEFF 		bl	u8g2_DrawPixel
 118              	.LVL8:
 119 006c D8E7     		b	.L4
 120              	.L18:
  55:..\u8g2-master\csrc/u8g2_circle.c ****       u8g2_DrawPixel(u8g2, x0 - y, y0 - x);
 121              		.loc 1 55 0
 122 006e F21B     		subs	r2, r6, r7
 123 0070 C8EB0501 		rsb	r1, r8, r5
 124 0074 4846     		mov	r0, r9
 125 0076 D2B2     		uxtb	r2, r2
 126 0078 C9B2     		uxtb	r1, r1
 127 007a FFF7FEFF 		bl	u8g2_DrawPixel
 128              	.LVL9:
  56:..\u8g2-master\csrc/u8g2_circle.c ****     }
 129              		.loc 1 56 0
 130 007e C8EB0602 		rsb	r2, r8, r6
 131 0082 E91B     		subs	r1, r5, r7
 132 0084 D2B2     		uxtb	r2, r2
 133 0086 C9B2     		uxtb	r1, r1
 134 0088 4846     		mov	r0, r9
 135 008a FFF7FEFF 		bl	u8g2_DrawPixel
 136              	.LVL10:
 137 008e C5E7     		b	.L3
 138              	.LVL11:
 139              	.L17:
  48:..\u8g2-master\csrc/u8g2_circle.c ****       u8g2_DrawPixel(u8g2, x0 + y, y0 - x);
 140              		.loc 1 48 0
 141 0090 B21A     		subs	r2, r6, r2
 142              	.LVL12:
 143 0092 6918     		adds	r1, r5, r1
 144              	.LVL13:
 145 0094 D2B2     		uxtb	r2, r2
 146 0096 C9B2     		uxtb	r1, r1
 147 0098 FFF7FEFF 		bl	u8g2_DrawPixel
 148              	.LVL14:
  49:..\u8g2-master\csrc/u8g2_circle.c ****     }
ARM GAS  C:\Users\info\AppData\Local\Temp\ccTL7qDq.s 			page 5


 149              		.loc 1 49 0
 150 009c C8EB0602 		rsb	r2, r8, r6
 151 00a0 E919     		adds	r1, r5, r7
 152 00a2 D2B2     		uxtb	r2, r2
 153 00a4 C9B2     		uxtb	r1, r1
 154 00a6 4846     		mov	r0, r9
 155 00a8 FFF7FEFF 		bl	u8g2_DrawPixel
 156              	.LVL15:
 157 00ac B4E7     		b	.L2
 158              		.cfi_endproc
 159              	.LFE0:
 160              		.size	u8g2_draw_circle_section, .-u8g2_draw_circle_section
 161 00ae 00BF     		.section	.text.u8g2_draw_ellipse_section,"ax",%progbits
 162              		.align	2
 163              		.thumb
 164              		.thumb_func
 165              		.type	u8g2_draw_ellipse_section, %function
 166              	u8g2_draw_ellipse_section:
 167              	.LFB6:
  73:..\u8g2-master\csrc/u8g2_circle.c **** 
  74:..\u8g2-master\csrc/u8g2_circle.c **** static void u8g2_draw_circle(u8g2_t *u8g2, u8g2_uint_t x0, u8g2_uint_t y0, u8g2_uint_t rad, uint8_t
  75:..\u8g2-master\csrc/u8g2_circle.c **** {
  76:..\u8g2-master\csrc/u8g2_circle.c ****     u8g2_int_t f;
  77:..\u8g2-master\csrc/u8g2_circle.c ****     u8g2_int_t ddF_x;
  78:..\u8g2-master\csrc/u8g2_circle.c ****     u8g2_int_t ddF_y;
  79:..\u8g2-master\csrc/u8g2_circle.c ****     u8g2_uint_t x;
  80:..\u8g2-master\csrc/u8g2_circle.c ****     u8g2_uint_t y;
  81:..\u8g2-master\csrc/u8g2_circle.c **** 
  82:..\u8g2-master\csrc/u8g2_circle.c ****     f = 1;
  83:..\u8g2-master\csrc/u8g2_circle.c ****     f -= rad;
  84:..\u8g2-master\csrc/u8g2_circle.c ****     ddF_x = 1;
  85:..\u8g2-master\csrc/u8g2_circle.c ****     ddF_y = 0;
  86:..\u8g2-master\csrc/u8g2_circle.c ****     ddF_y -= rad;
  87:..\u8g2-master\csrc/u8g2_circle.c ****     ddF_y *= 2;
  88:..\u8g2-master\csrc/u8g2_circle.c ****     x = 0;
  89:..\u8g2-master\csrc/u8g2_circle.c ****     y = rad;
  90:..\u8g2-master\csrc/u8g2_circle.c **** 
  91:..\u8g2-master\csrc/u8g2_circle.c ****     u8g2_draw_circle_section(u8g2, x, y, x0, y0, option);
  92:..\u8g2-master\csrc/u8g2_circle.c ****     
  93:..\u8g2-master\csrc/u8g2_circle.c ****     while ( x < y )
  94:..\u8g2-master\csrc/u8g2_circle.c ****     {
  95:..\u8g2-master\csrc/u8g2_circle.c ****       if (f >= 0) 
  96:..\u8g2-master\csrc/u8g2_circle.c ****       {
  97:..\u8g2-master\csrc/u8g2_circle.c ****         y--;
  98:..\u8g2-master\csrc/u8g2_circle.c ****         ddF_y += 2;
  99:..\u8g2-master\csrc/u8g2_circle.c ****         f += ddF_y;
 100:..\u8g2-master\csrc/u8g2_circle.c ****       }
 101:..\u8g2-master\csrc/u8g2_circle.c ****       x++;
 102:..\u8g2-master\csrc/u8g2_circle.c ****       ddF_x += 2;
 103:..\u8g2-master\csrc/u8g2_circle.c ****       f += ddF_x;
 104:..\u8g2-master\csrc/u8g2_circle.c **** 
 105:..\u8g2-master\csrc/u8g2_circle.c ****       u8g2_draw_circle_section(u8g2, x, y, x0, y0, option);    
 106:..\u8g2-master\csrc/u8g2_circle.c ****     }
 107:..\u8g2-master\csrc/u8g2_circle.c **** }
 108:..\u8g2-master\csrc/u8g2_circle.c **** 
 109:..\u8g2-master\csrc/u8g2_circle.c **** void u8g2_DrawCircle(u8g2_t *u8g2, u8g2_uint_t x0, u8g2_uint_t y0, u8g2_uint_t rad, uint8_t option)
 110:..\u8g2-master\csrc/u8g2_circle.c **** {
ARM GAS  C:\Users\info\AppData\Local\Temp\ccTL7qDq.s 			page 6


 111:..\u8g2-master\csrc/u8g2_circle.c ****   /* check for bounding box */
 112:..\u8g2-master\csrc/u8g2_circle.c **** #ifdef U8G2_WITH_INTERSECTION
 113:..\u8g2-master\csrc/u8g2_circle.c ****   {
 114:..\u8g2-master\csrc/u8g2_circle.c ****     if ( u8g2_IsIntersection(u8g2, x0-rad, y0-rad, x0+rad+1, y0+rad+1) == 0 ) 
 115:..\u8g2-master\csrc/u8g2_circle.c ****       return;
 116:..\u8g2-master\csrc/u8g2_circle.c ****   }
 117:..\u8g2-master\csrc/u8g2_circle.c **** #endif /* U8G2_WITH_INTERSECTION */
 118:..\u8g2-master\csrc/u8g2_circle.c ****   
 119:..\u8g2-master\csrc/u8g2_circle.c ****   
 120:..\u8g2-master\csrc/u8g2_circle.c ****   /* draw circle */
 121:..\u8g2-master\csrc/u8g2_circle.c ****   u8g2_draw_circle(u8g2, x0, y0, rad, option);
 122:..\u8g2-master\csrc/u8g2_circle.c **** }
 123:..\u8g2-master\csrc/u8g2_circle.c **** 
 124:..\u8g2-master\csrc/u8g2_circle.c **** /*==============================================*/
 125:..\u8g2-master\csrc/u8g2_circle.c **** /* Disk */
 126:..\u8g2-master\csrc/u8g2_circle.c **** 
 127:..\u8g2-master\csrc/u8g2_circle.c **** static void u8g2_draw_disc_section(u8g2_t *u8g2, u8g2_uint_t x, u8g2_uint_t y, u8g2_uint_t x0, u8g2
 128:..\u8g2-master\csrc/u8g2_circle.c **** 
 129:..\u8g2-master\csrc/u8g2_circle.c **** static void u8g2_draw_disc_section(u8g2_t *u8g2, u8g2_uint_t x, u8g2_uint_t y, u8g2_uint_t x0, u8g2
 130:..\u8g2-master\csrc/u8g2_circle.c **** {
 131:..\u8g2-master\csrc/u8g2_circle.c ****     /* upper right */
 132:..\u8g2-master\csrc/u8g2_circle.c ****     if ( option & U8G2_DRAW_UPPER_RIGHT )
 133:..\u8g2-master\csrc/u8g2_circle.c ****     {
 134:..\u8g2-master\csrc/u8g2_circle.c ****       u8g2_DrawVLine(u8g2, x0+x, y0-y, y+1);
 135:..\u8g2-master\csrc/u8g2_circle.c ****       u8g2_DrawVLine(u8g2, x0+y, y0-x, x+1);
 136:..\u8g2-master\csrc/u8g2_circle.c ****     }
 137:..\u8g2-master\csrc/u8g2_circle.c ****     
 138:..\u8g2-master\csrc/u8g2_circle.c ****     /* upper left */
 139:..\u8g2-master\csrc/u8g2_circle.c ****     if ( option & U8G2_DRAW_UPPER_LEFT )
 140:..\u8g2-master\csrc/u8g2_circle.c ****     {
 141:..\u8g2-master\csrc/u8g2_circle.c ****       u8g2_DrawVLine(u8g2, x0-x, y0-y, y+1);
 142:..\u8g2-master\csrc/u8g2_circle.c ****       u8g2_DrawVLine(u8g2, x0-y, y0-x, x+1);
 143:..\u8g2-master\csrc/u8g2_circle.c ****     }
 144:..\u8g2-master\csrc/u8g2_circle.c ****     
 145:..\u8g2-master\csrc/u8g2_circle.c ****     /* lower right */
 146:..\u8g2-master\csrc/u8g2_circle.c ****     if ( option & U8G2_DRAW_LOWER_RIGHT )
 147:..\u8g2-master\csrc/u8g2_circle.c ****     {
 148:..\u8g2-master\csrc/u8g2_circle.c ****       u8g2_DrawVLine(u8g2, x0+x, y0, y+1);
 149:..\u8g2-master\csrc/u8g2_circle.c ****       u8g2_DrawVLine(u8g2, x0+y, y0, x+1);
 150:..\u8g2-master\csrc/u8g2_circle.c ****     }
 151:..\u8g2-master\csrc/u8g2_circle.c ****     
 152:..\u8g2-master\csrc/u8g2_circle.c ****     /* lower left */
 153:..\u8g2-master\csrc/u8g2_circle.c ****     if ( option & U8G2_DRAW_LOWER_LEFT )
 154:..\u8g2-master\csrc/u8g2_circle.c ****     {
 155:..\u8g2-master\csrc/u8g2_circle.c ****       u8g2_DrawVLine(u8g2, x0-x, y0, y+1);
 156:..\u8g2-master\csrc/u8g2_circle.c ****       u8g2_DrawVLine(u8g2, x0-y, y0, x+1);
 157:..\u8g2-master\csrc/u8g2_circle.c ****     }
 158:..\u8g2-master\csrc/u8g2_circle.c **** }
 159:..\u8g2-master\csrc/u8g2_circle.c **** 
 160:..\u8g2-master\csrc/u8g2_circle.c **** static void u8g2_draw_disc(u8g2_t *u8g2, u8g2_uint_t x0, u8g2_uint_t y0, u8g2_uint_t rad, uint8_t o
 161:..\u8g2-master\csrc/u8g2_circle.c **** {
 162:..\u8g2-master\csrc/u8g2_circle.c ****   u8g2_int_t f;
 163:..\u8g2-master\csrc/u8g2_circle.c ****   u8g2_int_t ddF_x;
 164:..\u8g2-master\csrc/u8g2_circle.c ****   u8g2_int_t ddF_y;
 165:..\u8g2-master\csrc/u8g2_circle.c ****   u8g2_uint_t x;
 166:..\u8g2-master\csrc/u8g2_circle.c ****   u8g2_uint_t y;
 167:..\u8g2-master\csrc/u8g2_circle.c **** 
ARM GAS  C:\Users\info\AppData\Local\Temp\ccTL7qDq.s 			page 7


 168:..\u8g2-master\csrc/u8g2_circle.c ****   f = 1;
 169:..\u8g2-master\csrc/u8g2_circle.c ****   f -= rad;
 170:..\u8g2-master\csrc/u8g2_circle.c ****   ddF_x = 1;
 171:..\u8g2-master\csrc/u8g2_circle.c ****   ddF_y = 0;
 172:..\u8g2-master\csrc/u8g2_circle.c ****   ddF_y -= rad;
 173:..\u8g2-master\csrc/u8g2_circle.c ****   ddF_y *= 2;
 174:..\u8g2-master\csrc/u8g2_circle.c ****   x = 0;
 175:..\u8g2-master\csrc/u8g2_circle.c ****   y = rad;
 176:..\u8g2-master\csrc/u8g2_circle.c **** 
 177:..\u8g2-master\csrc/u8g2_circle.c ****   u8g2_draw_disc_section(u8g2, x, y, x0, y0, option);
 178:..\u8g2-master\csrc/u8g2_circle.c ****   
 179:..\u8g2-master\csrc/u8g2_circle.c ****   while ( x < y )
 180:..\u8g2-master\csrc/u8g2_circle.c ****   {
 181:..\u8g2-master\csrc/u8g2_circle.c ****     if (f >= 0) 
 182:..\u8g2-master\csrc/u8g2_circle.c ****     {
 183:..\u8g2-master\csrc/u8g2_circle.c ****       y--;
 184:..\u8g2-master\csrc/u8g2_circle.c ****       ddF_y += 2;
 185:..\u8g2-master\csrc/u8g2_circle.c ****       f += ddF_y;
 186:..\u8g2-master\csrc/u8g2_circle.c ****     }
 187:..\u8g2-master\csrc/u8g2_circle.c ****     x++;
 188:..\u8g2-master\csrc/u8g2_circle.c ****     ddF_x += 2;
 189:..\u8g2-master\csrc/u8g2_circle.c ****     f += ddF_x;
 190:..\u8g2-master\csrc/u8g2_circle.c **** 
 191:..\u8g2-master\csrc/u8g2_circle.c ****     u8g2_draw_disc_section(u8g2, x, y, x0, y0, option);    
 192:..\u8g2-master\csrc/u8g2_circle.c ****   }
 193:..\u8g2-master\csrc/u8g2_circle.c **** }
 194:..\u8g2-master\csrc/u8g2_circle.c **** 
 195:..\u8g2-master\csrc/u8g2_circle.c **** void u8g2_DrawDisc(u8g2_t *u8g2, u8g2_uint_t x0, u8g2_uint_t y0, u8g2_uint_t rad, uint8_t option)
 196:..\u8g2-master\csrc/u8g2_circle.c **** {
 197:..\u8g2-master\csrc/u8g2_circle.c ****   /* check for bounding box */
 198:..\u8g2-master\csrc/u8g2_circle.c **** #ifdef U8G2_WITH_INTERSECTION
 199:..\u8g2-master\csrc/u8g2_circle.c ****   {
 200:..\u8g2-master\csrc/u8g2_circle.c ****     if ( u8g2_IsIntersection(u8g2, x0-rad, y0-rad, x0+rad+1, y0+rad+1) == 0 ) 
 201:..\u8g2-master\csrc/u8g2_circle.c ****       return;
 202:..\u8g2-master\csrc/u8g2_circle.c ****   }
 203:..\u8g2-master\csrc/u8g2_circle.c **** #endif /* U8G2_WITH_INTERSECTION */
 204:..\u8g2-master\csrc/u8g2_circle.c ****   
 205:..\u8g2-master\csrc/u8g2_circle.c ****   /* draw disc */
 206:..\u8g2-master\csrc/u8g2_circle.c ****   u8g2_draw_disc(u8g2, x0, y0, rad, option);
 207:..\u8g2-master\csrc/u8g2_circle.c **** }
 208:..\u8g2-master\csrc/u8g2_circle.c **** 
 209:..\u8g2-master\csrc/u8g2_circle.c **** /*==============================================*/
 210:..\u8g2-master\csrc/u8g2_circle.c **** /* Ellipse */
 211:..\u8g2-master\csrc/u8g2_circle.c **** 
 212:..\u8g2-master\csrc/u8g2_circle.c **** /*
 213:..\u8g2-master\csrc/u8g2_circle.c ****   Source: 
 214:..\u8g2-master\csrc/u8g2_circle.c ****     Foley, Computer Graphics, p 90
 215:..\u8g2-master\csrc/u8g2_circle.c **** */
 216:..\u8g2-master\csrc/u8g2_circle.c **** static void u8g2_draw_ellipse_section(u8g2_t *u8g2, u8g2_uint_t x, u8g2_uint_t y, u8g2_uint_t x0, u
 217:..\u8g2-master\csrc/u8g2_circle.c **** static void u8g2_draw_ellipse_section(u8g2_t *u8g2, u8g2_uint_t x, u8g2_uint_t y, u8g2_uint_t x0, u
 218:..\u8g2-master\csrc/u8g2_circle.c **** {
 168              		.loc 1 218 0
 169              		.cfi_startproc
 170              		@ args = 8, pretend = 0, frame = 0
 171              		@ frame_needed = 0, uses_anonymous_args = 0
 172              	.LVL16:
 173 0000 2DE9F843 		push	{r3, r4, r5, r6, r7, r8, r9, lr}
ARM GAS  C:\Users\info\AppData\Local\Temp\ccTL7qDq.s 			page 8


 174              		.cfi_def_cfa_offset 32
 175              		.cfi_offset 3, -32
 176              		.cfi_offset 4, -28
 177              		.cfi_offset 5, -24
 178              		.cfi_offset 6, -20
 179              		.cfi_offset 7, -16
 180              		.cfi_offset 8, -12
 181              		.cfi_offset 9, -8
 182              		.cfi_offset 14, -4
 183              		.loc 1 218 0
 184 0004 9DF82440 		ldrb	r4, [sp, #36]	@ zero_extendqisi2
 185 0008 1D46     		mov	r5, r3
 219:..\u8g2-master\csrc/u8g2_circle.c ****     /* upper right */
 220:..\u8g2-master\csrc/u8g2_circle.c ****     if ( option & U8G2_DRAW_UPPER_RIGHT )
 186              		.loc 1 220 0
 187 000a E307     		lsls	r3, r4, #31
 188              	.LVL17:
 218:..\u8g2-master\csrc/u8g2_circle.c ****     /* upper right */
 189              		.loc 1 218 0
 190 000c 0F46     		mov	r7, r1
 191 000e 1646     		mov	r6, r2
 192 0010 8146     		mov	r9, r0
 193 0012 9DF82080 		ldrb	r8, [sp, #32]	@ zero_extendqisi2
 194              		.loc 1 220 0
 195 0016 23D4     		bmi	.L36
 196              	.LVL18:
 197              	.L22:
 221:..\u8g2-master\csrc/u8g2_circle.c ****     {
 222:..\u8g2-master\csrc/u8g2_circle.c ****       u8g2_DrawPixel(u8g2, x0 + x, y0 - y);
 223:..\u8g2-master\csrc/u8g2_circle.c ****     }
 224:..\u8g2-master\csrc/u8g2_circle.c ****     
 225:..\u8g2-master\csrc/u8g2_circle.c ****     /* upper left */
 226:..\u8g2-master\csrc/u8g2_circle.c ****     if ( option & U8G2_DRAW_UPPER_LEFT )
 198              		.loc 1 226 0
 199 0018 A107     		lsls	r1, r4, #30
 200 001a 18D4     		bmi	.L37
 201              	.L23:
 227:..\u8g2-master\csrc/u8g2_circle.c ****     {
 228:..\u8g2-master\csrc/u8g2_circle.c ****       u8g2_DrawPixel(u8g2, x0 - x, y0 - y);
 229:..\u8g2-master\csrc/u8g2_circle.c ****     }
 230:..\u8g2-master\csrc/u8g2_circle.c ****     
 231:..\u8g2-master\csrc/u8g2_circle.c ****     /* lower right */
 232:..\u8g2-master\csrc/u8g2_circle.c ****     if ( option & U8G2_DRAW_LOWER_RIGHT )
 202              		.loc 1 232 0
 203 001c 2207     		lsls	r2, r4, #28
 204 001e 0DD4     		bmi	.L38
 205              	.L24:
 233:..\u8g2-master\csrc/u8g2_circle.c ****     {
 234:..\u8g2-master\csrc/u8g2_circle.c ****       u8g2_DrawPixel(u8g2, x0 + x, y0 + y);
 235:..\u8g2-master\csrc/u8g2_circle.c ****     }
 236:..\u8g2-master\csrc/u8g2_circle.c ****     
 237:..\u8g2-master\csrc/u8g2_circle.c ****     /* lower left */
 238:..\u8g2-master\csrc/u8g2_circle.c ****     if ( option & U8G2_DRAW_LOWER_LEFT )
 206              		.loc 1 238 0
 207 0020 6307     		lsls	r3, r4, #29
 208 0022 01D4     		bmi	.L39
 209 0024 BDE8F883 		pop	{r3, r4, r5, r6, r7, r8, r9, pc}
ARM GAS  C:\Users\info\AppData\Local\Temp\ccTL7qDq.s 			page 9


 210              	.LVL19:
 211              	.L39:
 239:..\u8g2-master\csrc/u8g2_circle.c ****     {
 240:..\u8g2-master\csrc/u8g2_circle.c ****       u8g2_DrawPixel(u8g2, x0 - x, y0 + y);
 212              		.loc 1 240 0
 213 0028 08EB0602 		add	r2, r8, r6
 214 002c E91B     		subs	r1, r5, r7
 215 002e 4846     		mov	r0, r9
 241:..\u8g2-master\csrc/u8g2_circle.c ****     }
 242:..\u8g2-master\csrc/u8g2_circle.c **** }
 216              		.loc 1 242 0
 217 0030 BDE8F843 		pop	{r3, r4, r5, r6, r7, r8, r9, lr}
 218              		.cfi_remember_state
 219              		.cfi_restore 14
 220              		.cfi_restore 9
 221              		.cfi_restore 8
 222              		.cfi_restore 7
 223              		.cfi_restore 6
 224              		.cfi_restore 5
 225              		.cfi_restore 4
 226              		.cfi_restore 3
 227              		.cfi_def_cfa_offset 0
 228              	.LVL20:
 240:..\u8g2-master\csrc/u8g2_circle.c ****     }
 229              		.loc 1 240 0
 230 0034 D2B2     		uxtb	r2, r2
 231 0036 C9B2     		uxtb	r1, r1
 232 0038 FFF7FEBF 		b	u8g2_DrawPixel
 233              	.LVL21:
 234              	.L38:
 235              		.cfi_restore_state
 234:..\u8g2-master\csrc/u8g2_circle.c ****     }
 236              		.loc 1 234 0
 237 003c 08EB0602 		add	r2, r8, r6
 238 0040 E919     		adds	r1, r5, r7
 239 0042 D2B2     		uxtb	r2, r2
 240 0044 C9B2     		uxtb	r1, r1
 241 0046 4846     		mov	r0, r9
 242 0048 FFF7FEFF 		bl	u8g2_DrawPixel
 243              	.LVL22:
 244 004c E8E7     		b	.L24
 245              	.L37:
 228:..\u8g2-master\csrc/u8g2_circle.c ****     }
 246              		.loc 1 228 0
 247 004e C6EB0802 		rsb	r2, r6, r8
 248 0052 E91B     		subs	r1, r5, r7
 249 0054 D2B2     		uxtb	r2, r2
 250 0056 C9B2     		uxtb	r1, r1
 251 0058 4846     		mov	r0, r9
 252 005a FFF7FEFF 		bl	u8g2_DrawPixel
 253              	.LVL23:
 254 005e DDE7     		b	.L23
 255              	.LVL24:
 256              	.L36:
 222:..\u8g2-master\csrc/u8g2_circle.c ****     }
 257              		.loc 1 222 0
 258 0060 C2EB0802 		rsb	r2, r2, r8
ARM GAS  C:\Users\info\AppData\Local\Temp\ccTL7qDq.s 			page 10


 259              	.LVL25:
 260 0064 6918     		adds	r1, r5, r1
 261              	.LVL26:
 262 0066 D2B2     		uxtb	r2, r2
 263 0068 C9B2     		uxtb	r1, r1
 264 006a FFF7FEFF 		bl	u8g2_DrawPixel
 265              	.LVL27:
 266 006e D3E7     		b	.L22
 267              		.cfi_endproc
 268              	.LFE6:
 269              		.size	u8g2_draw_ellipse_section, .-u8g2_draw_ellipse_section
 270              		.section	.text.u8g2_draw_disc_section,"ax",%progbits
 271              		.align	2
 272              		.thumb
 273              		.thumb_func
 274              		.type	u8g2_draw_disc_section, %function
 275              	u8g2_draw_disc_section:
 276              	.LFB3:
 130:..\u8g2-master\csrc/u8g2_circle.c ****     /* upper right */
 277              		.loc 1 130 0
 278              		.cfi_startproc
 279              		@ args = 8, pretend = 0, frame = 0
 280              		@ frame_needed = 0, uses_anonymous_args = 0
 281              	.LVL28:
 282 0000 2DE9F047 		push	{r4, r5, r6, r7, r8, r9, r10, lr}
 283              		.cfi_def_cfa_offset 32
 284              		.cfi_offset 4, -32
 285              		.cfi_offset 5, -28
 286              		.cfi_offset 6, -24
 287              		.cfi_offset 7, -20
 288              		.cfi_offset 8, -16
 289              		.cfi_offset 9, -12
 290              		.cfi_offset 10, -8
 291              		.cfi_offset 14, -4
 130:..\u8g2-master\csrc/u8g2_circle.c ****     /* upper right */
 292              		.loc 1 130 0
 293 0004 9DF82440 		ldrb	r4, [sp, #36]	@ zero_extendqisi2
 294 0008 1E46     		mov	r6, r3
 132:..\u8g2-master\csrc/u8g2_circle.c ****     {
 295              		.loc 1 132 0
 296 000a E307     		lsls	r3, r4, #31
 297              	.LVL29:
 130:..\u8g2-master\csrc/u8g2_circle.c ****     /* upper right */
 298              		.loc 1 130 0
 299 000c 0D46     		mov	r5, r1
 300 000e 1746     		mov	r7, r2
 301 0010 8146     		mov	r9, r0
 302 0012 9DF82080 		ldrb	r8, [sp, #32]	@ zero_extendqisi2
 132:..\u8g2-master\csrc/u8g2_circle.c ****     {
 303              		.loc 1 132 0
 304 0016 3FD4     		bmi	.L55
 305              	.LVL30:
 306              	.L41:
 139:..\u8g2-master\csrc/u8g2_circle.c ****     {
 307              		.loc 1 139 0
 308 0018 A107     		lsls	r1, r4, #30
 309 001a 28D4     		bmi	.L56
ARM GAS  C:\Users\info\AppData\Local\Temp\ccTL7qDq.s 			page 11


 310              	.L42:
 146:..\u8g2-master\csrc/u8g2_circle.c ****     {
 311              		.loc 1 146 0
 312 001c 2207     		lsls	r2, r4, #28
 313 001e 15D4     		bmi	.L57
 314              	.L43:
 153:..\u8g2-master\csrc/u8g2_circle.c ****     {
 315              		.loc 1 153 0
 316 0020 6307     		lsls	r3, r4, #29
 317 0022 01D4     		bmi	.L58
 318 0024 BDE8F087 		pop	{r4, r5, r6, r7, r8, r9, r10, pc}
 319              	.LVL31:
 320              	.L58:
 155:..\u8g2-master\csrc/u8g2_circle.c ****       u8g2_DrawVLine(u8g2, x0-y, y0, x+1);
 321              		.loc 1 155 0
 322 0028 7B1C     		adds	r3, r7, #1
 323 002a 711B     		subs	r1, r6, r5
 324 002c 4246     		mov	r2, r8
 325 002e 4846     		mov	r0, r9
 326 0030 DBB2     		uxtb	r3, r3
 327 0032 C9B2     		uxtb	r1, r1
 328 0034 FFF7FEFF 		bl	u8g2_DrawVLine
 329              	.LVL32:
 156:..\u8g2-master\csrc/u8g2_circle.c ****     }
 330              		.loc 1 156 0
 331 0038 6B1C     		adds	r3, r5, #1
 332 003a F11B     		subs	r1, r6, r7
 333 003c 4246     		mov	r2, r8
 334 003e 4846     		mov	r0, r9
 158:..\u8g2-master\csrc/u8g2_circle.c **** 
 335              		.loc 1 158 0
 336 0040 BDE8F047 		pop	{r4, r5, r6, r7, r8, r9, r10, lr}
 337              		.cfi_remember_state
 338              		.cfi_restore 14
 339              		.cfi_restore 10
 340              		.cfi_restore 9
 341              		.cfi_restore 8
 342              		.cfi_restore 7
 343              		.cfi_restore 6
 344              		.cfi_restore 5
 345              		.cfi_restore 4
 346              		.cfi_def_cfa_offset 0
 347              	.LVL33:
 156:..\u8g2-master\csrc/u8g2_circle.c ****     }
 348              		.loc 1 156 0
 349 0044 DBB2     		uxtb	r3, r3
 350 0046 C9B2     		uxtb	r1, r1
 351 0048 FFF7FEBF 		b	u8g2_DrawVLine
 352              	.LVL34:
 353              	.L57:
 354              		.cfi_restore_state
 148:..\u8g2-master\csrc/u8g2_circle.c ****       u8g2_DrawVLine(u8g2, x0+y, y0, x+1);
 355              		.loc 1 148 0
 356 004c 7B1C     		adds	r3, r7, #1
 357 004e 7119     		adds	r1, r6, r5
 358 0050 4246     		mov	r2, r8
 359 0052 4846     		mov	r0, r9
ARM GAS  C:\Users\info\AppData\Local\Temp\ccTL7qDq.s 			page 12


 360 0054 DBB2     		uxtb	r3, r3
 361 0056 C9B2     		uxtb	r1, r1
 362 0058 FFF7FEFF 		bl	u8g2_DrawVLine
 363              	.LVL35:
 149:..\u8g2-master\csrc/u8g2_circle.c ****     }
 364              		.loc 1 149 0
 365 005c 6B1C     		adds	r3, r5, #1
 366 005e F119     		adds	r1, r6, r7
 367 0060 DBB2     		uxtb	r3, r3
 368 0062 C9B2     		uxtb	r1, r1
 369 0064 4246     		mov	r2, r8
 370 0066 4846     		mov	r0, r9
 371 0068 FFF7FEFF 		bl	u8g2_DrawVLine
 372              	.LVL36:
 373 006c D8E7     		b	.L43
 374              	.L56:
 141:..\u8g2-master\csrc/u8g2_circle.c ****       u8g2_DrawVLine(u8g2, x0-y, y0-x, x+1);
 375              		.loc 1 141 0
 376 006e 7B1C     		adds	r3, r7, #1
 377 0070 C7EB0802 		rsb	r2, r7, r8
 378 0074 711B     		subs	r1, r6, r5
 379 0076 4846     		mov	r0, r9
 380 0078 DBB2     		uxtb	r3, r3
 381 007a D2B2     		uxtb	r2, r2
 382 007c C9B2     		uxtb	r1, r1
 383 007e FFF7FEFF 		bl	u8g2_DrawVLine
 384              	.LVL37:
 142:..\u8g2-master\csrc/u8g2_circle.c ****     }
 385              		.loc 1 142 0
 386 0082 6B1C     		adds	r3, r5, #1
 387 0084 C5EB0802 		rsb	r2, r5, r8
 388 0088 F11B     		subs	r1, r6, r7
 389 008a DBB2     		uxtb	r3, r3
 390 008c D2B2     		uxtb	r2, r2
 391 008e C9B2     		uxtb	r1, r1
 392 0090 4846     		mov	r0, r9
 393 0092 FFF7FEFF 		bl	u8g2_DrawVLine
 394              	.LVL38:
 395 0096 C1E7     		b	.L42
 396              	.LVL39:
 397              	.L55:
 134:..\u8g2-master\csrc/u8g2_circle.c ****       u8g2_DrawVLine(u8g2, x0+y, y0-x, x+1);
 398              		.loc 1 134 0
 399 0098 531C     		adds	r3, r2, #1
 400 009a 7118     		adds	r1, r6, r1
 401              	.LVL40:
 402 009c C2EB0802 		rsb	r2, r2, r8
 403              	.LVL41:
 404 00a0 DBB2     		uxtb	r3, r3
 405 00a2 D2B2     		uxtb	r2, r2
 406 00a4 C9B2     		uxtb	r1, r1
 407 00a6 FFF7FEFF 		bl	u8g2_DrawVLine
 408              	.LVL42:
 135:..\u8g2-master\csrc/u8g2_circle.c ****     }
 409              		.loc 1 135 0
 410 00aa 6B1C     		adds	r3, r5, #1
 411 00ac C5EB0802 		rsb	r2, r5, r8
ARM GAS  C:\Users\info\AppData\Local\Temp\ccTL7qDq.s 			page 13


 412 00b0 F119     		adds	r1, r6, r7
 413 00b2 DBB2     		uxtb	r3, r3
 414 00b4 D2B2     		uxtb	r2, r2
 415 00b6 C9B2     		uxtb	r1, r1
 416 00b8 4846     		mov	r0, r9
 417 00ba FFF7FEFF 		bl	u8g2_DrawVLine
 418              	.LVL43:
 419 00be ABE7     		b	.L41
 420              		.cfi_endproc
 421              	.LFE3:
 422              		.size	u8g2_draw_disc_section, .-u8g2_draw_disc_section
 423              		.section	.text.u8g2_draw_filled_ellipse_section,"ax",%progbits
 424              		.align	2
 425              		.thumb
 426              		.thumb_func
 427              		.type	u8g2_draw_filled_ellipse_section, %function
 428              	u8g2_draw_filled_ellipse_section:
 429              	.LFB9:
 243:..\u8g2-master\csrc/u8g2_circle.c **** 
 244:..\u8g2-master\csrc/u8g2_circle.c **** static void u8g2_draw_ellipse(u8g2_t *u8g2, u8g2_uint_t x0, u8g2_uint_t y0, u8g2_uint_t rx, u8g2_ui
 245:..\u8g2-master\csrc/u8g2_circle.c **** {
 246:..\u8g2-master\csrc/u8g2_circle.c ****   u8g2_uint_t x, y;
 247:..\u8g2-master\csrc/u8g2_circle.c ****   u8g2_long_t xchg, ychg;
 248:..\u8g2-master\csrc/u8g2_circle.c ****   u8g2_long_t err;
 249:..\u8g2-master\csrc/u8g2_circle.c ****   u8g2_long_t rxrx2;
 250:..\u8g2-master\csrc/u8g2_circle.c ****   u8g2_long_t ryry2;
 251:..\u8g2-master\csrc/u8g2_circle.c ****   u8g2_long_t stopx, stopy;
 252:..\u8g2-master\csrc/u8g2_circle.c ****   
 253:..\u8g2-master\csrc/u8g2_circle.c ****   rxrx2 = rx;
 254:..\u8g2-master\csrc/u8g2_circle.c ****   rxrx2 *= rx;
 255:..\u8g2-master\csrc/u8g2_circle.c ****   rxrx2 *= 2;
 256:..\u8g2-master\csrc/u8g2_circle.c ****   
 257:..\u8g2-master\csrc/u8g2_circle.c ****   ryry2 = ry;
 258:..\u8g2-master\csrc/u8g2_circle.c ****   ryry2 *= ry;
 259:..\u8g2-master\csrc/u8g2_circle.c ****   ryry2 *= 2;
 260:..\u8g2-master\csrc/u8g2_circle.c ****   
 261:..\u8g2-master\csrc/u8g2_circle.c ****   x = rx;
 262:..\u8g2-master\csrc/u8g2_circle.c ****   y = 0;
 263:..\u8g2-master\csrc/u8g2_circle.c ****   
 264:..\u8g2-master\csrc/u8g2_circle.c ****   xchg = 1;
 265:..\u8g2-master\csrc/u8g2_circle.c ****   xchg -= rx;
 266:..\u8g2-master\csrc/u8g2_circle.c ****   xchg -= rx;
 267:..\u8g2-master\csrc/u8g2_circle.c ****   xchg *= ry;
 268:..\u8g2-master\csrc/u8g2_circle.c ****   xchg *= ry;
 269:..\u8g2-master\csrc/u8g2_circle.c ****   
 270:..\u8g2-master\csrc/u8g2_circle.c ****   ychg = rx;
 271:..\u8g2-master\csrc/u8g2_circle.c ****   ychg *= rx;
 272:..\u8g2-master\csrc/u8g2_circle.c ****   
 273:..\u8g2-master\csrc/u8g2_circle.c ****   err = 0;
 274:..\u8g2-master\csrc/u8g2_circle.c ****   
 275:..\u8g2-master\csrc/u8g2_circle.c ****   stopx = ryry2;
 276:..\u8g2-master\csrc/u8g2_circle.c ****   stopx *= rx;
 277:..\u8g2-master\csrc/u8g2_circle.c ****   stopy = 0;
 278:..\u8g2-master\csrc/u8g2_circle.c ****   
 279:..\u8g2-master\csrc/u8g2_circle.c ****   while( stopx >= stopy )
 280:..\u8g2-master\csrc/u8g2_circle.c ****   {
 281:..\u8g2-master\csrc/u8g2_circle.c ****     u8g2_draw_ellipse_section(u8g2, x, y, x0, y0, option);
ARM GAS  C:\Users\info\AppData\Local\Temp\ccTL7qDq.s 			page 14


 282:..\u8g2-master\csrc/u8g2_circle.c ****     y++;
 283:..\u8g2-master\csrc/u8g2_circle.c ****     stopy += rxrx2;
 284:..\u8g2-master\csrc/u8g2_circle.c ****     err += ychg;
 285:..\u8g2-master\csrc/u8g2_circle.c ****     ychg += rxrx2;
 286:..\u8g2-master\csrc/u8g2_circle.c ****     if ( 2*err+xchg > 0 )
 287:..\u8g2-master\csrc/u8g2_circle.c ****     {
 288:..\u8g2-master\csrc/u8g2_circle.c ****       x--;
 289:..\u8g2-master\csrc/u8g2_circle.c ****       stopx -= ryry2;
 290:..\u8g2-master\csrc/u8g2_circle.c ****       err += xchg;
 291:..\u8g2-master\csrc/u8g2_circle.c ****       xchg += ryry2;      
 292:..\u8g2-master\csrc/u8g2_circle.c ****     }
 293:..\u8g2-master\csrc/u8g2_circle.c ****   }
 294:..\u8g2-master\csrc/u8g2_circle.c **** 
 295:..\u8g2-master\csrc/u8g2_circle.c ****   x = 0;
 296:..\u8g2-master\csrc/u8g2_circle.c ****   y = ry;
 297:..\u8g2-master\csrc/u8g2_circle.c ****   
 298:..\u8g2-master\csrc/u8g2_circle.c ****   xchg = ry;
 299:..\u8g2-master\csrc/u8g2_circle.c ****   xchg *= ry;
 300:..\u8g2-master\csrc/u8g2_circle.c ****   
 301:..\u8g2-master\csrc/u8g2_circle.c ****   ychg = 1;
 302:..\u8g2-master\csrc/u8g2_circle.c ****   ychg -= ry;
 303:..\u8g2-master\csrc/u8g2_circle.c ****   ychg -= ry;
 304:..\u8g2-master\csrc/u8g2_circle.c ****   ychg *= rx;
 305:..\u8g2-master\csrc/u8g2_circle.c ****   ychg *= rx;
 306:..\u8g2-master\csrc/u8g2_circle.c ****   
 307:..\u8g2-master\csrc/u8g2_circle.c ****   err = 0;
 308:..\u8g2-master\csrc/u8g2_circle.c ****   
 309:..\u8g2-master\csrc/u8g2_circle.c ****   stopx = 0;
 310:..\u8g2-master\csrc/u8g2_circle.c **** 
 311:..\u8g2-master\csrc/u8g2_circle.c ****   stopy = rxrx2;
 312:..\u8g2-master\csrc/u8g2_circle.c ****   stopy *= ry;
 313:..\u8g2-master\csrc/u8g2_circle.c ****   
 314:..\u8g2-master\csrc/u8g2_circle.c **** 
 315:..\u8g2-master\csrc/u8g2_circle.c ****   while( stopx <= stopy )
 316:..\u8g2-master\csrc/u8g2_circle.c ****   {
 317:..\u8g2-master\csrc/u8g2_circle.c ****     u8g2_draw_ellipse_section(u8g2, x, y, x0, y0, option);
 318:..\u8g2-master\csrc/u8g2_circle.c ****     x++;
 319:..\u8g2-master\csrc/u8g2_circle.c ****     stopx += ryry2;
 320:..\u8g2-master\csrc/u8g2_circle.c ****     err += xchg;
 321:..\u8g2-master\csrc/u8g2_circle.c ****     xchg += ryry2;
 322:..\u8g2-master\csrc/u8g2_circle.c ****     if ( 2*err+ychg > 0 )
 323:..\u8g2-master\csrc/u8g2_circle.c ****     {
 324:..\u8g2-master\csrc/u8g2_circle.c ****       y--;
 325:..\u8g2-master\csrc/u8g2_circle.c ****       stopy -= rxrx2;
 326:..\u8g2-master\csrc/u8g2_circle.c ****       err += ychg;
 327:..\u8g2-master\csrc/u8g2_circle.c ****       ychg += rxrx2;
 328:..\u8g2-master\csrc/u8g2_circle.c ****     }
 329:..\u8g2-master\csrc/u8g2_circle.c ****   }
 330:..\u8g2-master\csrc/u8g2_circle.c ****   
 331:..\u8g2-master\csrc/u8g2_circle.c **** }
 332:..\u8g2-master\csrc/u8g2_circle.c **** 
 333:..\u8g2-master\csrc/u8g2_circle.c **** void u8g2_DrawEllipse(u8g2_t *u8g2, u8g2_uint_t x0, u8g2_uint_t y0, u8g2_uint_t rx, u8g2_uint_t ry,
 334:..\u8g2-master\csrc/u8g2_circle.c **** {
 335:..\u8g2-master\csrc/u8g2_circle.c ****   /* check for bounding box */
 336:..\u8g2-master\csrc/u8g2_circle.c **** #ifdef U8G2_WITH_INTERSECTION
 337:..\u8g2-master\csrc/u8g2_circle.c ****   {
 338:..\u8g2-master\csrc/u8g2_circle.c ****     if ( u8g2_IsIntersection(u8g2, x0-rx, y0-ry, x0+rx+1, y0+ry+1) == 0 ) 
ARM GAS  C:\Users\info\AppData\Local\Temp\ccTL7qDq.s 			page 15


 339:..\u8g2-master\csrc/u8g2_circle.c ****       return;
 340:..\u8g2-master\csrc/u8g2_circle.c ****   }
 341:..\u8g2-master\csrc/u8g2_circle.c **** #endif /* U8G2_WITH_INTERSECTION */
 342:..\u8g2-master\csrc/u8g2_circle.c ****   
 343:..\u8g2-master\csrc/u8g2_circle.c ****   u8g2_draw_ellipse(u8g2, x0, y0, rx, ry, option);
 344:..\u8g2-master\csrc/u8g2_circle.c **** }
 345:..\u8g2-master\csrc/u8g2_circle.c **** 
 346:..\u8g2-master\csrc/u8g2_circle.c **** /*==============================================*/
 347:..\u8g2-master\csrc/u8g2_circle.c **** /* Filled Ellipse */
 348:..\u8g2-master\csrc/u8g2_circle.c **** 
 349:..\u8g2-master\csrc/u8g2_circle.c **** static void u8g2_draw_filled_ellipse_section(u8g2_t *u8g2, u8g2_uint_t x, u8g2_uint_t y, u8g2_uint_
 350:..\u8g2-master\csrc/u8g2_circle.c **** static void u8g2_draw_filled_ellipse_section(u8g2_t *u8g2, u8g2_uint_t x, u8g2_uint_t y, u8g2_uint_
 351:..\u8g2-master\csrc/u8g2_circle.c **** {
 430              		.loc 1 351 0
 431              		.cfi_startproc
 432              		@ args = 8, pretend = 0, frame = 0
 433              		@ frame_needed = 0, uses_anonymous_args = 0
 434              	.LVL44:
 435 0000 2DE9F047 		push	{r4, r5, r6, r7, r8, r9, r10, lr}
 436              		.cfi_def_cfa_offset 32
 437              		.cfi_offset 4, -32
 438              		.cfi_offset 5, -28
 439              		.cfi_offset 6, -24
 440              		.cfi_offset 7, -20
 441              		.cfi_offset 8, -16
 442              		.cfi_offset 9, -12
 443              		.cfi_offset 10, -8
 444              		.cfi_offset 14, -4
 445              		.loc 1 351 0
 446 0004 9DF82440 		ldrb	r4, [sp, #36]	@ zero_extendqisi2
 447 0008 1E46     		mov	r6, r3
 352:..\u8g2-master\csrc/u8g2_circle.c ****     /* upper right */
 353:..\u8g2-master\csrc/u8g2_circle.c ****     if ( option & U8G2_DRAW_UPPER_RIGHT )
 448              		.loc 1 353 0
 449 000a E307     		lsls	r3, r4, #31
 450              	.LVL45:
 351:..\u8g2-master\csrc/u8g2_circle.c ****     /* upper right */
 451              		.loc 1 351 0
 452 000c 8846     		mov	r8, r1
 453 000e 1546     		mov	r5, r2
 454 0010 8146     		mov	r9, r0
 455 0012 9DF82070 		ldrb	r7, [sp, #32]	@ zero_extendqisi2
 456              		.loc 1 353 0
 457 0016 27D4     		bmi	.L74
 458              	.LVL46:
 459              	.L60:
 354:..\u8g2-master\csrc/u8g2_circle.c ****     {
 355:..\u8g2-master\csrc/u8g2_circle.c ****       u8g2_DrawVLine(u8g2, x0+x, y0-y, y+1);
 356:..\u8g2-master\csrc/u8g2_circle.c ****     }
 357:..\u8g2-master\csrc/u8g2_circle.c ****     
 358:..\u8g2-master\csrc/u8g2_circle.c ****     /* upper left */
 359:..\u8g2-master\csrc/u8g2_circle.c ****     if ( option & U8G2_DRAW_UPPER_LEFT )
 460              		.loc 1 359 0
 461 0018 A107     		lsls	r1, r4, #30
 462 001a 1AD4     		bmi	.L75
 463              	.L61:
 360:..\u8g2-master\csrc/u8g2_circle.c ****     {
ARM GAS  C:\Users\info\AppData\Local\Temp\ccTL7qDq.s 			page 16


 361:..\u8g2-master\csrc/u8g2_circle.c ****       u8g2_DrawVLine(u8g2, x0-x, y0-y, y+1);
 362:..\u8g2-master\csrc/u8g2_circle.c ****     }
 363:..\u8g2-master\csrc/u8g2_circle.c ****     
 364:..\u8g2-master\csrc/u8g2_circle.c ****     /* lower right */
 365:..\u8g2-master\csrc/u8g2_circle.c ****     if ( option & U8G2_DRAW_LOWER_RIGHT )
 464              		.loc 1 365 0
 465 001c 2207     		lsls	r2, r4, #28
 466 001e 0ED4     		bmi	.L76
 467              	.L62:
 366:..\u8g2-master\csrc/u8g2_circle.c ****     {
 367:..\u8g2-master\csrc/u8g2_circle.c ****       u8g2_DrawVLine(u8g2, x0+x, y0, y+1);
 368:..\u8g2-master\csrc/u8g2_circle.c ****     }
 369:..\u8g2-master\csrc/u8g2_circle.c ****     
 370:..\u8g2-master\csrc/u8g2_circle.c ****     /* lower left */
 371:..\u8g2-master\csrc/u8g2_circle.c ****     if ( option & U8G2_DRAW_LOWER_LEFT )
 468              		.loc 1 371 0
 469 0020 6307     		lsls	r3, r4, #29
 470 0022 01D4     		bmi	.L77
 471 0024 BDE8F087 		pop	{r4, r5, r6, r7, r8, r9, r10, pc}
 472              	.LVL47:
 473              	.L77:
 372:..\u8g2-master\csrc/u8g2_circle.c ****     {
 373:..\u8g2-master\csrc/u8g2_circle.c ****       u8g2_DrawVLine(u8g2, x0-x, y0, y+1);
 474              		.loc 1 373 0
 475 0028 6B1C     		adds	r3, r5, #1
 476 002a C8EB0601 		rsb	r1, r8, r6
 477 002e 3A46     		mov	r2, r7
 478 0030 4846     		mov	r0, r9
 374:..\u8g2-master\csrc/u8g2_circle.c ****     }
 375:..\u8g2-master\csrc/u8g2_circle.c **** }
 479              		.loc 1 375 0
 480 0032 BDE8F047 		pop	{r4, r5, r6, r7, r8, r9, r10, lr}
 481              		.cfi_remember_state
 482              		.cfi_restore 14
 483              		.cfi_restore 10
 484              		.cfi_restore 9
 485              		.cfi_restore 8
 486              		.cfi_restore 7
 487              		.cfi_restore 6
 488              		.cfi_restore 5
 489              		.cfi_restore 4
 490              		.cfi_def_cfa_offset 0
 491              	.LVL48:
 373:..\u8g2-master\csrc/u8g2_circle.c ****     }
 492              		.loc 1 373 0
 493 0036 DBB2     		uxtb	r3, r3
 494 0038 C9B2     		uxtb	r1, r1
 495 003a FFF7FEBF 		b	u8g2_DrawVLine
 496              	.LVL49:
 497              	.L76:
 498              		.cfi_restore_state
 367:..\u8g2-master\csrc/u8g2_circle.c ****     }
 499              		.loc 1 367 0
 500 003e 6B1C     		adds	r3, r5, #1
 501 0040 06EB0801 		add	r1, r6, r8
 502 0044 DBB2     		uxtb	r3, r3
 503 0046 C9B2     		uxtb	r1, r1
ARM GAS  C:\Users\info\AppData\Local\Temp\ccTL7qDq.s 			page 17


 504 0048 3A46     		mov	r2, r7
 505 004a 4846     		mov	r0, r9
 506 004c FFF7FEFF 		bl	u8g2_DrawVLine
 507              	.LVL50:
 508 0050 E6E7     		b	.L62
 509              	.L75:
 361:..\u8g2-master\csrc/u8g2_circle.c ****     }
 510              		.loc 1 361 0
 511 0052 6B1C     		adds	r3, r5, #1
 512 0054 7A1B     		subs	r2, r7, r5
 513 0056 C8EB0601 		rsb	r1, r8, r6
 514 005a DBB2     		uxtb	r3, r3
 515 005c D2B2     		uxtb	r2, r2
 516 005e C9B2     		uxtb	r1, r1
 517 0060 4846     		mov	r0, r9
 518 0062 FFF7FEFF 		bl	u8g2_DrawVLine
 519              	.LVL51:
 520 0066 D9E7     		b	.L61
 521              	.LVL52:
 522              	.L74:
 355:..\u8g2-master\csrc/u8g2_circle.c ****     }
 523              		.loc 1 355 0
 524 0068 531C     		adds	r3, r2, #1
 525 006a 7118     		adds	r1, r6, r1
 526              	.LVL53:
 527 006c BA1A     		subs	r2, r7, r2
 528              	.LVL54:
 529 006e DBB2     		uxtb	r3, r3
 530 0070 D2B2     		uxtb	r2, r2
 531 0072 C9B2     		uxtb	r1, r1
 532 0074 FFF7FEFF 		bl	u8g2_DrawVLine
 533              	.LVL55:
 534 0078 CEE7     		b	.L60
 535              		.cfi_endproc
 536              	.LFE9:
 537              		.size	u8g2_draw_filled_ellipse_section, .-u8g2_draw_filled_ellipse_section
 538 007a 00BF     		.section	.text.u8g2_DrawCircle,"ax",%progbits
 539              		.align	2
 540              		.global	u8g2_DrawCircle
 541              		.thumb
 542              		.thumb_func
 543              		.type	u8g2_DrawCircle, %function
 544              	u8g2_DrawCircle:
 545              	.LFB2:
 110:..\u8g2-master\csrc/u8g2_circle.c ****   /* check for bounding box */
 546              		.loc 1 110 0
 547              		.cfi_startproc
 548              		@ args = 4, pretend = 0, frame = 0
 549              		@ frame_needed = 0, uses_anonymous_args = 0
 550              	.LVL56:
 551 0000 2DE9F04F 		push	{r4, r5, r6, r7, r8, r9, r10, fp, lr}
 552              		.cfi_def_cfa_offset 36
 553              		.cfi_offset 4, -36
 554              		.cfi_offset 5, -32
 555              		.cfi_offset 6, -28
 556              		.cfi_offset 7, -24
 557              		.cfi_offset 8, -20
ARM GAS  C:\Users\info\AppData\Local\Temp\ccTL7qDq.s 			page 18


 558              		.cfi_offset 9, -16
 559              		.cfi_offset 10, -12
 560              		.cfi_offset 11, -8
 561              		.cfi_offset 14, -4
 562 0004 1E46     		mov	r6, r3
 114:..\u8g2-master\csrc/u8g2_circle.c ****       return;
 563              		.loc 1 114 0
 564 0006 541C     		adds	r4, r2, #1
 565 0008 1C44     		add	r4, r4, r3
 566 000a 0133     		adds	r3, r3, #1
 567              	.LVL57:
 110:..\u8g2-master\csrc/u8g2_circle.c ****   /* check for bounding box */
 568              		.loc 1 110 0
 569 000c 83B0     		sub	sp, sp, #12
 570              		.cfi_def_cfa_offset 48
 114:..\u8g2-master\csrc/u8g2_circle.c ****       return;
 571              		.loc 1 114 0
 572 000e 0B44     		add	r3, r3, r1
 110:..\u8g2-master\csrc/u8g2_circle.c ****   /* check for bounding box */
 573              		.loc 1 110 0
 574 0010 9146     		mov	r9, r2
 575 0012 8846     		mov	r8, r1
 114:..\u8g2-master\csrc/u8g2_circle.c ****       return;
 576              		.loc 1 114 0
 577 0014 E4B2     		uxtb	r4, r4
 578 0016 921B     		subs	r2, r2, r6
 579              	.LVL58:
 580 0018 891B     		subs	r1, r1, r6
 581              	.LVL59:
 582 001a 0094     		str	r4, [sp]
 583 001c DBB2     		uxtb	r3, r3
 584 001e D2B2     		uxtb	r2, r2
 585 0020 C9B2     		uxtb	r1, r1
 110:..\u8g2-master\csrc/u8g2_circle.c ****   /* check for bounding box */
 586              		.loc 1 110 0
 587 0022 8246     		mov	r10, r0
 588 0024 9DF830B0 		ldrb	fp, [sp, #48]	@ zero_extendqisi2
 114:..\u8g2-master\csrc/u8g2_circle.c ****       return;
 589              		.loc 1 114 0
 590 0028 FFF7FEFF 		bl	u8g2_IsIntersection
 591              	.LVL60:
 592 002c 10B9     		cbnz	r0, .L88
 593              	.L78:
 122:..\u8g2-master\csrc/u8g2_circle.c **** 
 594              		.loc 1 122 0
 595 002e 03B0     		add	sp, sp, #12
 596              		.cfi_remember_state
 597              		.cfi_def_cfa_offset 36
 598              		@ sp needed
 599 0030 BDE8F08F 		pop	{r4, r5, r6, r7, r8, r9, r10, fp, pc}
 600              	.LVL61:
 601              	.L88:
 602              		.cfi_restore_state
 603              	.LBB4:
 604              	.LBB5:
  87:..\u8g2-master\csrc/u8g2_circle.c ****     x = 0;
 605              		.loc 1 87 0
ARM GAS  C:\Users\info\AppData\Local\Temp\ccTL7qDq.s 			page 19


 606 0034 7742     		negs	r7, r6
 607 0036 7F00     		lsls	r7, r7, #1
  83:..\u8g2-master\csrc/u8g2_circle.c ****     ddF_x = 1;
 608              		.loc 1 83 0
 609 0038 C6F10104 		rsb	r4, r6, #1
  91:..\u8g2-master\csrc/u8g2_circle.c ****     
 610              		.loc 1 91 0
 611 003c 8DE8000A 		stmia	sp, {r9, fp}
 612 0040 4346     		mov	r3, r8
 613 0042 3246     		mov	r2, r6
 614 0044 0021     		movs	r1, #0
 615 0046 5046     		mov	r0, r10
  87:..\u8g2-master\csrc/u8g2_circle.c ****     x = 0;
 616              		.loc 1 87 0
 617 0048 7FB2     		sxtb	r7, r7
  83:..\u8g2-master\csrc/u8g2_circle.c ****     ddF_x = 1;
 618              		.loc 1 83 0
 619 004a 64B2     		sxtb	r4, r4
 620              	.LVL62:
  91:..\u8g2-master\csrc/u8g2_circle.c ****     
 621              		.loc 1 91 0
 622 004c FFF7FEFF 		bl	u8g2_draw_circle_section
 623              	.LVL63:
  93:..\u8g2-master\csrc/u8g2_circle.c ****     {
 624              		.loc 1 93 0
 625 0050 002E     		cmp	r6, #0
 626 0052 ECD0     		beq	.L78
 627 0054 0025     		movs	r5, #0
 628              	.LVL64:
 629              	.L82:
 101:..\u8g2-master\csrc/u8g2_circle.c ****       ddF_x += 2;
 630              		.loc 1 101 0
 631 0056 0135     		adds	r5, r5, #1
 632              	.LVL65:
 633 0058 EDB2     		uxtb	r5, r5
  95:..\u8g2-master\csrc/u8g2_circle.c ****       {
 634              		.loc 1 95 0
 635 005a 002C     		cmp	r4, #0
 105:..\u8g2-master\csrc/u8g2_circle.c ****     }
 636              		.loc 1 105 0
 637 005c 4346     		mov	r3, r8
 638 005e 2946     		mov	r1, r5
 639 0060 5046     		mov	r0, r10
  95:..\u8g2-master\csrc/u8g2_circle.c ****       {
 640              		.loc 1 95 0
 641 0062 06DB     		blt	.L81
 642              	.LVL66:
  98:..\u8g2-master\csrc/u8g2_circle.c ****         f += ddF_y;
 643              		.loc 1 98 0
 644 0064 0237     		adds	r7, r7, #2
 645              	.LVL67:
 646 0066 FFB2     		uxtb	r7, r7
  99:..\u8g2-master\csrc/u8g2_circle.c ****       }
 647              		.loc 1 99 0
 648 0068 3C44     		add	r4, r4, r7
 649              	.LVL68:
  97:..\u8g2-master\csrc/u8g2_circle.c ****         ddF_y += 2;
ARM GAS  C:\Users\info\AppData\Local\Temp\ccTL7qDq.s 			page 20


 650              		.loc 1 97 0
 651 006a 013E     		subs	r6, r6, #1
 652              	.LVL69:
  99:..\u8g2-master\csrc/u8g2_circle.c ****       }
 653              		.loc 1 99 0
 654 006c 64B2     		sxtb	r4, r4
  98:..\u8g2-master\csrc/u8g2_circle.c ****         f += ddF_y;
 655              		.loc 1 98 0
 656 006e 7FB2     		sxtb	r7, r7
  97:..\u8g2-master\csrc/u8g2_circle.c ****         ddF_y += 2;
 657              		.loc 1 97 0
 658 0070 F6B2     		uxtb	r6, r6
 659              	.LVL70:
 660              	.L81:
 103:..\u8g2-master\csrc/u8g2_circle.c **** 
 661              		.loc 1 103 0
 662 0072 04EB4504 		add	r4, r4, r5, lsl #1
 663              	.LVL71:
 105:..\u8g2-master\csrc/u8g2_circle.c ****     }
 664              		.loc 1 105 0
 665 0076 8DE8000A 		stmia	sp, {r9, fp}
 666 007a 3246     		mov	r2, r6
 103:..\u8g2-master\csrc/u8g2_circle.c **** 
 667              		.loc 1 103 0
 668 007c 0134     		adds	r4, r4, #1
 105:..\u8g2-master\csrc/u8g2_circle.c ****     }
 669              		.loc 1 105 0
 670 007e FFF7FEFF 		bl	u8g2_draw_circle_section
 671              	.LVL72:
  93:..\u8g2-master\csrc/u8g2_circle.c ****     {
 672              		.loc 1 93 0
 673 0082 B542     		cmp	r5, r6
 103:..\u8g2-master\csrc/u8g2_circle.c **** 
 674              		.loc 1 103 0
 675 0084 64B2     		sxtb	r4, r4
 676              	.LVL73:
  93:..\u8g2-master\csrc/u8g2_circle.c ****     {
 677              		.loc 1 93 0
 678 0086 E6D3     		bcc	.L82
 679              	.LBE5:
 680              	.LBE4:
 122:..\u8g2-master\csrc/u8g2_circle.c **** 
 681              		.loc 1 122 0
 682 0088 03B0     		add	sp, sp, #12
 683              		.cfi_def_cfa_offset 36
 684              		@ sp needed
 685 008a BDE8F08F 		pop	{r4, r5, r6, r7, r8, r9, r10, fp, pc}
 686              		.cfi_endproc
 687              	.LFE2:
 688              		.size	u8g2_DrawCircle, .-u8g2_DrawCircle
 689 008e 00BF     		.section	.text.u8g2_DrawDisc,"ax",%progbits
 690              		.align	2
 691              		.global	u8g2_DrawDisc
 692              		.thumb
 693              		.thumb_func
 694              		.type	u8g2_DrawDisc, %function
 695              	u8g2_DrawDisc:
ARM GAS  C:\Users\info\AppData\Local\Temp\ccTL7qDq.s 			page 21


 696              	.LFB5:
 196:..\u8g2-master\csrc/u8g2_circle.c ****   /* check for bounding box */
 697              		.loc 1 196 0
 698              		.cfi_startproc
 699              		@ args = 4, pretend = 0, frame = 0
 700              		@ frame_needed = 0, uses_anonymous_args = 0
 701              	.LVL74:
 702 0000 2DE9F04F 		push	{r4, r5, r6, r7, r8, r9, r10, fp, lr}
 703              		.cfi_def_cfa_offset 36
 704              		.cfi_offset 4, -36
 705              		.cfi_offset 5, -32
 706              		.cfi_offset 6, -28
 707              		.cfi_offset 7, -24
 708              		.cfi_offset 8, -20
 709              		.cfi_offset 9, -16
 710              		.cfi_offset 10, -12
 711              		.cfi_offset 11, -8
 712              		.cfi_offset 14, -4
 713 0004 1E46     		mov	r6, r3
 200:..\u8g2-master\csrc/u8g2_circle.c ****       return;
 714              		.loc 1 200 0
 715 0006 541C     		adds	r4, r2, #1
 716 0008 1C44     		add	r4, r4, r3
 717 000a 0133     		adds	r3, r3, #1
 718              	.LVL75:
 196:..\u8g2-master\csrc/u8g2_circle.c ****   /* check for bounding box */
 719              		.loc 1 196 0
 720 000c 83B0     		sub	sp, sp, #12
 721              		.cfi_def_cfa_offset 48
 200:..\u8g2-master\csrc/u8g2_circle.c ****       return;
 722              		.loc 1 200 0
 723 000e 0B44     		add	r3, r3, r1
 196:..\u8g2-master\csrc/u8g2_circle.c ****   /* check for bounding box */
 724              		.loc 1 196 0
 725 0010 9146     		mov	r9, r2
 726 0012 8846     		mov	r8, r1
 200:..\u8g2-master\csrc/u8g2_circle.c ****       return;
 727              		.loc 1 200 0
 728 0014 E4B2     		uxtb	r4, r4
 729 0016 921B     		subs	r2, r2, r6
 730              	.LVL76:
 731 0018 891B     		subs	r1, r1, r6
 732              	.LVL77:
 733 001a 0094     		str	r4, [sp]
 734 001c DBB2     		uxtb	r3, r3
 735 001e D2B2     		uxtb	r2, r2
 736 0020 C9B2     		uxtb	r1, r1
 196:..\u8g2-master\csrc/u8g2_circle.c ****   /* check for bounding box */
 737              		.loc 1 196 0
 738 0022 8246     		mov	r10, r0
 739 0024 9DF830B0 		ldrb	fp, [sp, #48]	@ zero_extendqisi2
 200:..\u8g2-master\csrc/u8g2_circle.c ****       return;
 740              		.loc 1 200 0
 741 0028 FFF7FEFF 		bl	u8g2_IsIntersection
 742              	.LVL78:
 743 002c 10B9     		cbnz	r0, .L99
 744              	.L89:
ARM GAS  C:\Users\info\AppData\Local\Temp\ccTL7qDq.s 			page 22


 207:..\u8g2-master\csrc/u8g2_circle.c **** 
 745              		.loc 1 207 0
 746 002e 03B0     		add	sp, sp, #12
 747              		.cfi_remember_state
 748              		.cfi_def_cfa_offset 36
 749              		@ sp needed
 750 0030 BDE8F08F 		pop	{r4, r5, r6, r7, r8, r9, r10, fp, pc}
 751              	.LVL79:
 752              	.L99:
 753              		.cfi_restore_state
 754              	.LBB8:
 755              	.LBB9:
 173:..\u8g2-master\csrc/u8g2_circle.c ****   x = 0;
 756              		.loc 1 173 0
 757 0034 7742     		negs	r7, r6
 758 0036 7F00     		lsls	r7, r7, #1
 169:..\u8g2-master\csrc/u8g2_circle.c ****   ddF_x = 1;
 759              		.loc 1 169 0
 760 0038 C6F10104 		rsb	r4, r6, #1
 177:..\u8g2-master\csrc/u8g2_circle.c ****   
 761              		.loc 1 177 0
 762 003c 8DE8000A 		stmia	sp, {r9, fp}
 763 0040 4346     		mov	r3, r8
 764 0042 3246     		mov	r2, r6
 765 0044 0021     		movs	r1, #0
 766 0046 5046     		mov	r0, r10
 173:..\u8g2-master\csrc/u8g2_circle.c ****   x = 0;
 767              		.loc 1 173 0
 768 0048 7FB2     		sxtb	r7, r7
 169:..\u8g2-master\csrc/u8g2_circle.c ****   ddF_x = 1;
 769              		.loc 1 169 0
 770 004a 64B2     		sxtb	r4, r4
 771              	.LVL80:
 177:..\u8g2-master\csrc/u8g2_circle.c ****   
 772              		.loc 1 177 0
 773 004c FFF7FEFF 		bl	u8g2_draw_disc_section
 774              	.LVL81:
 179:..\u8g2-master\csrc/u8g2_circle.c ****   {
 775              		.loc 1 179 0
 776 0050 002E     		cmp	r6, #0
 777 0052 ECD0     		beq	.L89
 778 0054 0025     		movs	r5, #0
 779              	.LVL82:
 780              	.L93:
 187:..\u8g2-master\csrc/u8g2_circle.c ****     ddF_x += 2;
 781              		.loc 1 187 0
 782 0056 0135     		adds	r5, r5, #1
 783              	.LVL83:
 784 0058 EDB2     		uxtb	r5, r5
 181:..\u8g2-master\csrc/u8g2_circle.c ****     {
 785              		.loc 1 181 0
 786 005a 002C     		cmp	r4, #0
 191:..\u8g2-master\csrc/u8g2_circle.c ****   }
 787              		.loc 1 191 0
 788 005c 4346     		mov	r3, r8
 789 005e 2946     		mov	r1, r5
 790 0060 5046     		mov	r0, r10
ARM GAS  C:\Users\info\AppData\Local\Temp\ccTL7qDq.s 			page 23


 181:..\u8g2-master\csrc/u8g2_circle.c ****     {
 791              		.loc 1 181 0
 792 0062 06DB     		blt	.L92
 793              	.LVL84:
 184:..\u8g2-master\csrc/u8g2_circle.c ****       f += ddF_y;
 794              		.loc 1 184 0
 795 0064 0237     		adds	r7, r7, #2
 796              	.LVL85:
 797 0066 FFB2     		uxtb	r7, r7
 185:..\u8g2-master\csrc/u8g2_circle.c ****     }
 798              		.loc 1 185 0
 799 0068 3C44     		add	r4, r4, r7
 800              	.LVL86:
 183:..\u8g2-master\csrc/u8g2_circle.c ****       ddF_y += 2;
 801              		.loc 1 183 0
 802 006a 013E     		subs	r6, r6, #1
 803              	.LVL87:
 185:..\u8g2-master\csrc/u8g2_circle.c ****     }
 804              		.loc 1 185 0
 805 006c 64B2     		sxtb	r4, r4
 184:..\u8g2-master\csrc/u8g2_circle.c ****       f += ddF_y;
 806              		.loc 1 184 0
 807 006e 7FB2     		sxtb	r7, r7
 183:..\u8g2-master\csrc/u8g2_circle.c ****       ddF_y += 2;
 808              		.loc 1 183 0
 809 0070 F6B2     		uxtb	r6, r6
 810              	.LVL88:
 811              	.L92:
 189:..\u8g2-master\csrc/u8g2_circle.c **** 
 812              		.loc 1 189 0
 813 0072 04EB4504 		add	r4, r4, r5, lsl #1
 814              	.LVL89:
 191:..\u8g2-master\csrc/u8g2_circle.c ****   }
 815              		.loc 1 191 0
 816 0076 8DE8000A 		stmia	sp, {r9, fp}
 817 007a 3246     		mov	r2, r6
 189:..\u8g2-master\csrc/u8g2_circle.c **** 
 818              		.loc 1 189 0
 819 007c 0134     		adds	r4, r4, #1
 191:..\u8g2-master\csrc/u8g2_circle.c ****   }
 820              		.loc 1 191 0
 821 007e FFF7FEFF 		bl	u8g2_draw_disc_section
 822              	.LVL90:
 179:..\u8g2-master\csrc/u8g2_circle.c ****   {
 823              		.loc 1 179 0
 824 0082 B542     		cmp	r5, r6
 189:..\u8g2-master\csrc/u8g2_circle.c **** 
 825              		.loc 1 189 0
 826 0084 64B2     		sxtb	r4, r4
 827              	.LVL91:
 179:..\u8g2-master\csrc/u8g2_circle.c ****   {
 828              		.loc 1 179 0
 829 0086 E6D3     		bcc	.L93
 830              	.LBE9:
 831              	.LBE8:
 207:..\u8g2-master\csrc/u8g2_circle.c **** 
 832              		.loc 1 207 0
ARM GAS  C:\Users\info\AppData\Local\Temp\ccTL7qDq.s 			page 24


 833 0088 03B0     		add	sp, sp, #12
 834              		.cfi_def_cfa_offset 36
 835              		@ sp needed
 836 008a BDE8F08F 		pop	{r4, r5, r6, r7, r8, r9, r10, fp, pc}
 837              		.cfi_endproc
 838              	.LFE5:
 839              		.size	u8g2_DrawDisc, .-u8g2_DrawDisc
 840 008e 00BF     		.section	.text.u8g2_DrawEllipse,"ax",%progbits
 841              		.align	2
 842              		.global	u8g2_DrawEllipse
 843              		.thumb
 844              		.thumb_func
 845              		.type	u8g2_DrawEllipse, %function
 846              	u8g2_DrawEllipse:
 847              	.LFB8:
 334:..\u8g2-master\csrc/u8g2_circle.c ****   /* check for bounding box */
 848              		.loc 1 334 0
 849              		.cfi_startproc
 850              		@ args = 8, pretend = 0, frame = 40
 851              		@ frame_needed = 0, uses_anonymous_args = 0
 852              	.LVL92:
 853 0000 2DE9F04F 		push	{r4, r5, r6, r7, r8, r9, r10, fp, lr}
 854              		.cfi_def_cfa_offset 36
 855              		.cfi_offset 4, -36
 856              		.cfi_offset 5, -32
 857              		.cfi_offset 6, -28
 858              		.cfi_offset 7, -24
 859              		.cfi_offset 8, -20
 860              		.cfi_offset 9, -16
 861              		.cfi_offset 10, -12
 862              		.cfi_offset 11, -8
 863              		.cfi_offset 14, -4
 864 0004 9946     		mov	r9, r3
 865 0006 8DB0     		sub	sp, sp, #52
 866              		.cfi_def_cfa_offset 88
 334:..\u8g2-master\csrc/u8g2_circle.c ****   /* check for bounding box */
 867              		.loc 1 334 0
 868 0008 9DF85870 		ldrb	r7, [sp, #88]	@ zero_extendqisi2
 338:..\u8g2-master\csrc/u8g2_circle.c ****       return;
 869              		.loc 1 338 0
 870 000c 0133     		adds	r3, r3, #1
 871              	.LVL93:
 872 000e 7C1C     		adds	r4, r7, #1
 873 0010 1444     		add	r4, r4, r2
 874 0012 E4B2     		uxtb	r4, r4
 875 0014 0B44     		add	r3, r3, r1
 334:..\u8g2-master\csrc/u8g2_circle.c ****   /* check for bounding box */
 876              		.loc 1 334 0
 877 0016 0392     		str	r2, [sp, #12]
 878 0018 8846     		mov	r8, r1
 338:..\u8g2-master\csrc/u8g2_circle.c ****       return;
 879              		.loc 1 338 0
 880 001a D21B     		subs	r2, r2, r7
 881              	.LVL94:
 882 001c C9EB0101 		rsb	r1, r9, r1
 883              	.LVL95:
 884 0020 0094     		str	r4, [sp]
ARM GAS  C:\Users\info\AppData\Local\Temp\ccTL7qDq.s 			page 25


 334:..\u8g2-master\csrc/u8g2_circle.c ****   /* check for bounding box */
 885              		.loc 1 334 0
 886 0022 9DF85C40 		ldrb	r4, [sp, #92]	@ zero_extendqisi2
 338:..\u8g2-master\csrc/u8g2_circle.c ****       return;
 887              		.loc 1 338 0
 888 0026 DBB2     		uxtb	r3, r3
 889 0028 D2B2     		uxtb	r2, r2
 890 002a C9B2     		uxtb	r1, r1
 334:..\u8g2-master\csrc/u8g2_circle.c ****   /* check for bounding box */
 891              		.loc 1 334 0
 892 002c 0290     		str	r0, [sp, #8]
 893 002e 0494     		str	r4, [sp, #16]
 338:..\u8g2-master\csrc/u8g2_circle.c ****       return;
 894              		.loc 1 338 0
 895 0030 FFF7FEFF 		bl	u8g2_IsIntersection
 896              	.LVL96:
 897 0034 10B9     		cbnz	r0, .L113
 898              	.L100:
 344:..\u8g2-master\csrc/u8g2_circle.c **** 
 899              		.loc 1 344 0
 900 0036 0DB0     		add	sp, sp, #52
 901              		.cfi_remember_state
 902              		.cfi_def_cfa_offset 36
 903              		@ sp needed
 904 0038 BDE8F08F 		pop	{r4, r5, r6, r7, r8, r9, r10, fp, pc}
 905              	.LVL97:
 906              	.L113:
 907              		.cfi_restore_state
 908              	.LBB12:
 909              	.LBB13:
 258:..\u8g2-master\csrc/u8g2_circle.c ****   ryry2 *= 2;
 910              		.loc 1 258 0
 911 003c BBB2     		uxth	r3, r7
 912 003e 0993     		str	r3, [sp, #36]
 913 0040 03FB03F3 		mul	r3, r3, r3
 914 0044 1A46     		mov	r2, r3
 915 0046 0A93     		str	r3, [sp, #40]
 259:..\u8g2-master\csrc/u8g2_circle.c ****   
 916              		.loc 1 259 0
 917 0048 5B00     		lsls	r3, r3, #1
 918 004a 9BB2     		uxth	r3, r3
 919 004c 1946     		mov	r1, r3
 254:..\u8g2-master\csrc/u8g2_circle.c ****   rxrx2 *= 2;
 920              		.loc 1 254 0
 921 004e 1FFA89F6 		uxth	r6, r9
 276:..\u8g2-master\csrc/u8g2_circle.c ****   stopy = 0;
 922              		.loc 1 276 0
 923 0052 01FB06FA 		mul	r10, r1, r6
 259:..\u8g2-master\csrc/u8g2_circle.c ****   
 924              		.loc 1 259 0
 925 0056 0693     		str	r3, [sp, #24]
 254:..\u8g2-master\csrc/u8g2_circle.c ****   rxrx2 *= 2;
 926              		.loc 1 254 0
 927 0058 06FB06F1 		mul	r1, r6, r6
 268:..\u8g2-master\csrc/u8g2_circle.c ****   
 928              		.loc 1 268 0
 929 005c C6F10103 		rsb	r3, r6, #1
ARM GAS  C:\Users\info\AppData\Local\Temp\ccTL7qDq.s 			page 26


 930 0060 9B1B     		subs	r3, r3, r6
 931 0062 03FB02F6 		mul	r6, r3, r2
 276:..\u8g2-master\csrc/u8g2_circle.c ****   stopy = 0;
 932              		.loc 1 276 0
 933 0066 0FFA8AFA 		sxth	r10, r10
 255:..\u8g2-master\csrc/u8g2_circle.c ****   
 934              		.loc 1 255 0
 935 006a 4B00     		lsls	r3, r1, #1
 936 006c 9BB2     		uxth	r3, r3
 279:..\u8g2-master\csrc/u8g2_circle.c ****   {
 937              		.loc 1 279 0
 938 006e BAF1000F 		cmp	r10, #0
 254:..\u8g2-master\csrc/u8g2_circle.c ****   rxrx2 *= 2;
 939              		.loc 1 254 0
 940 0072 0891     		str	r1, [sp, #32]
 941              	.LVL98:
 268:..\u8g2-master\csrc/u8g2_circle.c ****   
 942              		.loc 1 268 0
 943 0074 36B2     		sxth	r6, r6
 255:..\u8g2-master\csrc/u8g2_circle.c ****   
 944              		.loc 1 255 0
 945 0076 0593     		str	r3, [sp, #20]
 946              	.LVL99:
 279:..\u8g2-master\csrc/u8g2_circle.c ****   {
 947              		.loc 1 279 0
 948 0078 32DB     		blt	.L107
 949 007a 4FF0000B 		mov	fp, #0
 950 007e 5C46     		mov	r4, fp
 951 0080 5D46     		mov	r5, fp
 952 0082 059A     		ldr	r2, [sp, #20]
 953 0084 0B97     		str	r7, [sp, #44]
 954 0086 8B1A     		subs	r3, r1, r2
 955 0088 069F     		ldr	r7, [sp, #24]
 956              	.LVL100:
 957 008a 0793     		str	r3, [sp, #28]
 958              	.LVL101:
 959              	.L106:
 281:..\u8g2-master\csrc/u8g2_circle.c ****     y++;
 960              		.loc 1 281 0
 961 008c 049B     		ldr	r3, [sp, #16]
 962 008e 5FFA8BF2 		uxtb	r2, fp
 963 0092 0193     		str	r3, [sp, #4]
 964 0094 039B     		ldr	r3, [sp, #12]
 965 0096 4946     		mov	r1, r9
 966 0098 0093     		str	r3, [sp]
 967 009a 0298     		ldr	r0, [sp, #8]
 968 009c 4346     		mov	r3, r8
 969 009e FFF7FEFF 		bl	u8g2_draw_ellipse_section
 970              	.LVL102:
 971 00a2 059B     		ldr	r3, [sp, #20]
 972 00a4 0BF1010B 		add	fp, fp, #1
 973              	.LVL103:
 974 00a8 1D44     		add	r5, r5, r3
 975              	.LVL104:
 284:..\u8g2-master\csrc/u8g2_circle.c ****     ychg += rxrx2;
 976              		.loc 1 284 0
 977 00aa 079B     		ldr	r3, [sp, #28]
ARM GAS  C:\Users\info\AppData\Local\Temp\ccTL7qDq.s 			page 27


 978 00ac ADB2     		uxth	r5, r5
 979 00ae EB18     		adds	r3, r5, r3
 980 00b0 1C44     		add	r4, r4, r3
 981              	.LVL105:
 982 00b2 A3B2     		uxth	r3, r4
 983 00b4 1CB2     		sxth	r4, r3
 286:..\u8g2-master\csrc/u8g2_circle.c ****     {
 984              		.loc 1 286 0
 985 00b6 06EB4402 		add	r2, r6, r4, lsl #1
 986 00ba 002A     		cmp	r2, #0
 987 00bc 2DB2     		sxth	r5, r5
 988              	.LVL106:
 989 00be 0CDD     		ble	.L105
 290:..\u8g2-master\csrc/u8g2_circle.c ****       xchg += ryry2;      
 990              		.loc 1 290 0
 991 00c0 B6B2     		uxth	r6, r6
 992 00c2 9C19     		adds	r4, r3, r6
 993              	.LVL107:
 288:..\u8g2-master\csrc/u8g2_circle.c ****       stopx -= ryry2;
 994              		.loc 1 288 0
 995 00c4 09F1FF39 		add	r9, r9, #-1
 996              	.LVL108:
 291:..\u8g2-master\csrc/u8g2_circle.c ****     }
 997              		.loc 1 291 0
 998 00c8 3E44     		add	r6, r6, r7
 999              	.LVL109:
 289:..\u8g2-master\csrc/u8g2_circle.c ****       err += xchg;
 1000              		.loc 1 289 0
 1001 00ca C7EB0A0A 		rsb	r10, r7, r10
 1002              	.LVL110:
 290:..\u8g2-master\csrc/u8g2_circle.c ****       xchg += ryry2;      
 1003              		.loc 1 290 0
 1004 00ce 24B2     		sxth	r4, r4
 291:..\u8g2-master\csrc/u8g2_circle.c ****     }
 1005              		.loc 1 291 0
 1006 00d0 36B2     		sxth	r6, r6
 288:..\u8g2-master\csrc/u8g2_circle.c ****       stopx -= ryry2;
 1007              		.loc 1 288 0
 1008 00d2 5FFA89F9 		uxtb	r9, r9
 1009              	.LVL111:
 289:..\u8g2-master\csrc/u8g2_circle.c ****       err += xchg;
 1010              		.loc 1 289 0
 1011 00d6 0FFA8AFA 		sxth	r10, r10
 1012              	.LVL112:
 1013              	.L105:
 279:..\u8g2-master\csrc/u8g2_circle.c ****   {
 1014              		.loc 1 279 0
 1015 00da AA45     		cmp	r10, r5
 1016 00dc D6DA     		bge	.L106
 1017 00de 0B9F     		ldr	r7, [sp, #44]
 1018              	.LVL113:
 1019              	.L107:
 305:..\u8g2-master\csrc/u8g2_circle.c ****   
 1020              		.loc 1 305 0
 1021 00e0 099A     		ldr	r2, [sp, #36]
 1022 00e2 1346     		mov	r3, r2
 1023 00e4 C2F10106 		rsb	r6, r2, #1
ARM GAS  C:\Users\info\AppData\Local\Temp\ccTL7qDq.s 			page 28


 1024 00e8 B61A     		subs	r6, r6, r2
 312:..\u8g2-master\csrc/u8g2_circle.c ****   
 1025              		.loc 1 312 0
 1026 00ea 059A     		ldr	r2, [sp, #20]
 1027 00ec 03FB02F9 		mul	r9, r3, r2
 305:..\u8g2-master\csrc/u8g2_circle.c ****   
 1028              		.loc 1 305 0
 1029 00f0 089B     		ldr	r3, [sp, #32]
 312:..\u8g2-master\csrc/u8g2_circle.c ****   
 1030              		.loc 1 312 0
 1031 00f2 0FFA89F9 		sxth	r9, r9
 305:..\u8g2-master\csrc/u8g2_circle.c ****   
 1032              		.loc 1 305 0
 1033 00f6 06FB03F6 		mul	r6, r6, r3
 315:..\u8g2-master\csrc/u8g2_circle.c ****   {
 1034              		.loc 1 315 0
 1035 00fa B9F1000F 		cmp	r9, #0
 305:..\u8g2-master\csrc/u8g2_circle.c ****   
 1036              		.loc 1 305 0
 1037 00fe 36B2     		sxth	r6, r6
 1038              	.LVL114:
 315:..\u8g2-master\csrc/u8g2_circle.c ****   {
 1039              		.loc 1 315 0
 1040 0100 99DB     		blt	.L100
 1041 0102 4FF0000A 		mov	r10, #0
 1042 0106 5446     		mov	r4, r10
 1043 0108 5546     		mov	r5, r10
 1044 010a 0A9B     		ldr	r3, [sp, #40]
 1045 010c 069A     		ldr	r2, [sp, #24]
 1046 010e CDF81C80 		str	r8, [sp, #28]
 1047 0112 DDF81480 		ldr	r8, [sp, #20]
 1048              	.LVL115:
 1049 0116 C2EB030B 		rsb	fp, r2, r3
 1050              	.LVL116:
 1051              	.L109:
 317:..\u8g2-master\csrc/u8g2_circle.c ****     x++;
 1052              		.loc 1 317 0
 1053 011a 049B     		ldr	r3, [sp, #16]
 1054 011c 3A46     		mov	r2, r7
 1055 011e 0193     		str	r3, [sp, #4]
 1056 0120 039B     		ldr	r3, [sp, #12]
 1057 0122 5FFA8AF1 		uxtb	r1, r10
 1058 0126 0093     		str	r3, [sp]
 1059 0128 0298     		ldr	r0, [sp, #8]
 1060 012a 079B     		ldr	r3, [sp, #28]
 1061 012c FFF7FEFF 		bl	u8g2_draw_ellipse_section
 1062              	.LVL117:
 1063 0130 069B     		ldr	r3, [sp, #24]
 1064 0132 0AF1010A 		add	r10, r10, #1
 1065              	.LVL118:
 1066 0136 1D44     		add	r5, r5, r3
 1067              	.LVL119:
 1068 0138 ADB2     		uxth	r5, r5
 320:..\u8g2-master\csrc/u8g2_circle.c ****     xchg += ryry2;
 1069              		.loc 1 320 0
 1070 013a 05EB0B03 		add	r3, r5, fp
 1071 013e 1C44     		add	r4, r4, r3
ARM GAS  C:\Users\info\AppData\Local\Temp\ccTL7qDq.s 			page 29


 1072              	.LVL120:
 1073 0140 A3B2     		uxth	r3, r4
 1074 0142 1CB2     		sxth	r4, r3
 322:..\u8g2-master\csrc/u8g2_circle.c ****     {
 1075              		.loc 1 322 0
 1076 0144 06EB4402 		add	r2, r6, r4, lsl #1
 1077 0148 002A     		cmp	r2, #0
 1078 014a 2DB2     		sxth	r5, r5
 1079              	.LVL121:
 1080 014c 0ADD     		ble	.L108
 326:..\u8g2-master\csrc/u8g2_circle.c ****       ychg += rxrx2;
 1081              		.loc 1 326 0
 1082 014e B6B2     		uxth	r6, r6
 1083 0150 9C19     		adds	r4, r3, r6
 1084              	.LVL122:
 324:..\u8g2-master\csrc/u8g2_circle.c ****       stopy -= rxrx2;
 1085              		.loc 1 324 0
 1086 0152 013F     		subs	r7, r7, #1
 1087              	.LVL123:
 327:..\u8g2-master\csrc/u8g2_circle.c ****     }
 1088              		.loc 1 327 0
 1089 0154 4644     		add	r6, r6, r8
 1090              	.LVL124:
 325:..\u8g2-master\csrc/u8g2_circle.c ****       err += ychg;
 1091              		.loc 1 325 0
 1092 0156 C8EB0909 		rsb	r9, r8, r9
 1093              	.LVL125:
 326:..\u8g2-master\csrc/u8g2_circle.c ****       ychg += rxrx2;
 1094              		.loc 1 326 0
 1095 015a 24B2     		sxth	r4, r4
 327:..\u8g2-master\csrc/u8g2_circle.c ****     }
 1096              		.loc 1 327 0
 1097 015c 36B2     		sxth	r6, r6
 324:..\u8g2-master\csrc/u8g2_circle.c ****       stopy -= rxrx2;
 1098              		.loc 1 324 0
 1099 015e FFB2     		uxtb	r7, r7
 1100              	.LVL126:
 325:..\u8g2-master\csrc/u8g2_circle.c ****       err += ychg;
 1101              		.loc 1 325 0
 1102 0160 0FFA89F9 		sxth	r9, r9
 1103              	.LVL127:
 1104              	.L108:
 315:..\u8g2-master\csrc/u8g2_circle.c ****   {
 1105              		.loc 1 315 0
 1106 0164 A945     		cmp	r9, r5
 1107 0166 D8DA     		bge	.L109
 1108              	.LBE13:
 1109              	.LBE12:
 344:..\u8g2-master\csrc/u8g2_circle.c **** 
 1110              		.loc 1 344 0
 1111 0168 0DB0     		add	sp, sp, #52
 1112              		.cfi_def_cfa_offset 36
 1113              		@ sp needed
 1114 016a BDE8F08F 		pop	{r4, r5, r6, r7, r8, r9, r10, fp, pc}
 1115              		.cfi_endproc
 1116              	.LFE8:
 1117              		.size	u8g2_DrawEllipse, .-u8g2_DrawEllipse
ARM GAS  C:\Users\info\AppData\Local\Temp\ccTL7qDq.s 			page 30


 1118 016e 00BF     		.section	.text.u8g2_DrawFilledEllipse,"ax",%progbits
 1119              		.align	2
 1120              		.global	u8g2_DrawFilledEllipse
 1121              		.thumb
 1122              		.thumb_func
 1123              		.type	u8g2_DrawFilledEllipse, %function
 1124              	u8g2_DrawFilledEllipse:
 1125              	.LFB11:
 376:..\u8g2-master\csrc/u8g2_circle.c **** 
 377:..\u8g2-master\csrc/u8g2_circle.c **** static void u8g2_draw_filled_ellipse(u8g2_t *u8g2, u8g2_uint_t x0, u8g2_uint_t y0, u8g2_uint_t rx, 
 378:..\u8g2-master\csrc/u8g2_circle.c **** {
 379:..\u8g2-master\csrc/u8g2_circle.c ****   u8g2_uint_t x, y;
 380:..\u8g2-master\csrc/u8g2_circle.c ****   u8g2_long_t xchg, ychg;
 381:..\u8g2-master\csrc/u8g2_circle.c ****   u8g2_long_t err;
 382:..\u8g2-master\csrc/u8g2_circle.c ****   u8g2_long_t rxrx2;
 383:..\u8g2-master\csrc/u8g2_circle.c ****   u8g2_long_t ryry2;
 384:..\u8g2-master\csrc/u8g2_circle.c ****   u8g2_long_t stopx, stopy;
 385:..\u8g2-master\csrc/u8g2_circle.c ****   
 386:..\u8g2-master\csrc/u8g2_circle.c ****   rxrx2 = rx;
 387:..\u8g2-master\csrc/u8g2_circle.c ****   rxrx2 *= rx;
 388:..\u8g2-master\csrc/u8g2_circle.c ****   rxrx2 *= 2;
 389:..\u8g2-master\csrc/u8g2_circle.c ****   
 390:..\u8g2-master\csrc/u8g2_circle.c ****   ryry2 = ry;
 391:..\u8g2-master\csrc/u8g2_circle.c ****   ryry2 *= ry;
 392:..\u8g2-master\csrc/u8g2_circle.c ****   ryry2 *= 2;
 393:..\u8g2-master\csrc/u8g2_circle.c ****   
 394:..\u8g2-master\csrc/u8g2_circle.c ****   x = rx;
 395:..\u8g2-master\csrc/u8g2_circle.c ****   y = 0;
 396:..\u8g2-master\csrc/u8g2_circle.c ****   
 397:..\u8g2-master\csrc/u8g2_circle.c ****   xchg = 1;
 398:..\u8g2-master\csrc/u8g2_circle.c ****   xchg -= rx;
 399:..\u8g2-master\csrc/u8g2_circle.c ****   xchg -= rx;
 400:..\u8g2-master\csrc/u8g2_circle.c ****   xchg *= ry;
 401:..\u8g2-master\csrc/u8g2_circle.c ****   xchg *= ry;
 402:..\u8g2-master\csrc/u8g2_circle.c ****   
 403:..\u8g2-master\csrc/u8g2_circle.c ****   ychg = rx;
 404:..\u8g2-master\csrc/u8g2_circle.c ****   ychg *= rx;
 405:..\u8g2-master\csrc/u8g2_circle.c ****   
 406:..\u8g2-master\csrc/u8g2_circle.c ****   err = 0;
 407:..\u8g2-master\csrc/u8g2_circle.c ****   
 408:..\u8g2-master\csrc/u8g2_circle.c ****   stopx = ryry2;
 409:..\u8g2-master\csrc/u8g2_circle.c ****   stopx *= rx;
 410:..\u8g2-master\csrc/u8g2_circle.c ****   stopy = 0;
 411:..\u8g2-master\csrc/u8g2_circle.c ****   
 412:..\u8g2-master\csrc/u8g2_circle.c ****   while( stopx >= stopy )
 413:..\u8g2-master\csrc/u8g2_circle.c ****   {
 414:..\u8g2-master\csrc/u8g2_circle.c ****     u8g2_draw_filled_ellipse_section(u8g2, x, y, x0, y0, option);
 415:..\u8g2-master\csrc/u8g2_circle.c ****     y++;
 416:..\u8g2-master\csrc/u8g2_circle.c ****     stopy += rxrx2;
 417:..\u8g2-master\csrc/u8g2_circle.c ****     err += ychg;
 418:..\u8g2-master\csrc/u8g2_circle.c ****     ychg += rxrx2;
 419:..\u8g2-master\csrc/u8g2_circle.c ****     if ( 2*err+xchg > 0 )
 420:..\u8g2-master\csrc/u8g2_circle.c ****     {
 421:..\u8g2-master\csrc/u8g2_circle.c ****       x--;
 422:..\u8g2-master\csrc/u8g2_circle.c ****       stopx -= ryry2;
 423:..\u8g2-master\csrc/u8g2_circle.c ****       err += xchg;
 424:..\u8g2-master\csrc/u8g2_circle.c ****       xchg += ryry2;      
ARM GAS  C:\Users\info\AppData\Local\Temp\ccTL7qDq.s 			page 31


 425:..\u8g2-master\csrc/u8g2_circle.c ****     }
 426:..\u8g2-master\csrc/u8g2_circle.c ****   }
 427:..\u8g2-master\csrc/u8g2_circle.c **** 
 428:..\u8g2-master\csrc/u8g2_circle.c ****   x = 0;
 429:..\u8g2-master\csrc/u8g2_circle.c ****   y = ry;
 430:..\u8g2-master\csrc/u8g2_circle.c ****   
 431:..\u8g2-master\csrc/u8g2_circle.c ****   xchg = ry;
 432:..\u8g2-master\csrc/u8g2_circle.c ****   xchg *= ry;
 433:..\u8g2-master\csrc/u8g2_circle.c ****   
 434:..\u8g2-master\csrc/u8g2_circle.c ****   ychg = 1;
 435:..\u8g2-master\csrc/u8g2_circle.c ****   ychg -= ry;
 436:..\u8g2-master\csrc/u8g2_circle.c ****   ychg -= ry;
 437:..\u8g2-master\csrc/u8g2_circle.c ****   ychg *= rx;
 438:..\u8g2-master\csrc/u8g2_circle.c ****   ychg *= rx;
 439:..\u8g2-master\csrc/u8g2_circle.c ****   
 440:..\u8g2-master\csrc/u8g2_circle.c ****   err = 0;
 441:..\u8g2-master\csrc/u8g2_circle.c ****   
 442:..\u8g2-master\csrc/u8g2_circle.c ****   stopx = 0;
 443:..\u8g2-master\csrc/u8g2_circle.c **** 
 444:..\u8g2-master\csrc/u8g2_circle.c ****   stopy = rxrx2;
 445:..\u8g2-master\csrc/u8g2_circle.c ****   stopy *= ry;
 446:..\u8g2-master\csrc/u8g2_circle.c ****   
 447:..\u8g2-master\csrc/u8g2_circle.c **** 
 448:..\u8g2-master\csrc/u8g2_circle.c ****   while( stopx <= stopy )
 449:..\u8g2-master\csrc/u8g2_circle.c ****   {
 450:..\u8g2-master\csrc/u8g2_circle.c ****     u8g2_draw_filled_ellipse_section(u8g2, x, y, x0, y0, option);
 451:..\u8g2-master\csrc/u8g2_circle.c ****     x++;
 452:..\u8g2-master\csrc/u8g2_circle.c ****     stopx += ryry2;
 453:..\u8g2-master\csrc/u8g2_circle.c ****     err += xchg;
 454:..\u8g2-master\csrc/u8g2_circle.c ****     xchg += ryry2;
 455:..\u8g2-master\csrc/u8g2_circle.c ****     if ( 2*err+ychg > 0 )
 456:..\u8g2-master\csrc/u8g2_circle.c ****     {
 457:..\u8g2-master\csrc/u8g2_circle.c ****       y--;
 458:..\u8g2-master\csrc/u8g2_circle.c ****       stopy -= rxrx2;
 459:..\u8g2-master\csrc/u8g2_circle.c ****       err += ychg;
 460:..\u8g2-master\csrc/u8g2_circle.c ****       ychg += rxrx2;
 461:..\u8g2-master\csrc/u8g2_circle.c ****     }
 462:..\u8g2-master\csrc/u8g2_circle.c ****   }
 463:..\u8g2-master\csrc/u8g2_circle.c ****   
 464:..\u8g2-master\csrc/u8g2_circle.c **** }
 465:..\u8g2-master\csrc/u8g2_circle.c **** 
 466:..\u8g2-master\csrc/u8g2_circle.c **** void u8g2_DrawFilledEllipse(u8g2_t *u8g2, u8g2_uint_t x0, u8g2_uint_t y0, u8g2_uint_t rx, u8g2_uint
 467:..\u8g2-master\csrc/u8g2_circle.c **** {
 1126              		.loc 1 467 0
 1127              		.cfi_startproc
 1128              		@ args = 8, pretend = 0, frame = 40
 1129              		@ frame_needed = 0, uses_anonymous_args = 0
 1130              	.LVL128:
 1131 0000 2DE9F04F 		push	{r4, r5, r6, r7, r8, r9, r10, fp, lr}
 1132              		.cfi_def_cfa_offset 36
 1133              		.cfi_offset 4, -36
 1134              		.cfi_offset 5, -32
 1135              		.cfi_offset 6, -28
 1136              		.cfi_offset 7, -24
 1137              		.cfi_offset 8, -20
 1138              		.cfi_offset 9, -16
 1139              		.cfi_offset 10, -12
ARM GAS  C:\Users\info\AppData\Local\Temp\ccTL7qDq.s 			page 32


 1140              		.cfi_offset 11, -8
 1141              		.cfi_offset 14, -4
 1142 0004 9946     		mov	r9, r3
 1143 0006 8DB0     		sub	sp, sp, #52
 1144              		.cfi_def_cfa_offset 88
 1145              		.loc 1 467 0
 1146 0008 9DF85870 		ldrb	r7, [sp, #88]	@ zero_extendqisi2
 468:..\u8g2-master\csrc/u8g2_circle.c ****   /* check for bounding box */
 469:..\u8g2-master\csrc/u8g2_circle.c **** #ifdef U8G2_WITH_INTERSECTION
 470:..\u8g2-master\csrc/u8g2_circle.c ****   {
 471:..\u8g2-master\csrc/u8g2_circle.c ****     if ( u8g2_IsIntersection(u8g2, x0-rx, y0-ry, x0+rx+1, y0+ry+1) == 0 ) 
 1147              		.loc 1 471 0
 1148 000c 0133     		adds	r3, r3, #1
 1149              	.LVL129:
 1150 000e 7C1C     		adds	r4, r7, #1
 1151 0010 1444     		add	r4, r4, r2
 1152 0012 E4B2     		uxtb	r4, r4
 1153 0014 0B44     		add	r3, r3, r1
 467:..\u8g2-master\csrc/u8g2_circle.c ****   /* check for bounding box */
 1154              		.loc 1 467 0
 1155 0016 0392     		str	r2, [sp, #12]
 1156 0018 8846     		mov	r8, r1
 1157              		.loc 1 471 0
 1158 001a D21B     		subs	r2, r2, r7
 1159              	.LVL130:
 1160 001c C9EB0101 		rsb	r1, r9, r1
 1161              	.LVL131:
 1162 0020 0094     		str	r4, [sp]
 467:..\u8g2-master\csrc/u8g2_circle.c ****   /* check for bounding box */
 1163              		.loc 1 467 0
 1164 0022 9DF85C40 		ldrb	r4, [sp, #92]	@ zero_extendqisi2
 1165              		.loc 1 471 0
 1166 0026 DBB2     		uxtb	r3, r3
 1167 0028 D2B2     		uxtb	r2, r2
 1168 002a C9B2     		uxtb	r1, r1
 467:..\u8g2-master\csrc/u8g2_circle.c ****   /* check for bounding box */
 1169              		.loc 1 467 0
 1170 002c 0290     		str	r0, [sp, #8]
 1171 002e 0494     		str	r4, [sp, #16]
 1172              		.loc 1 471 0
 1173 0030 FFF7FEFF 		bl	u8g2_IsIntersection
 1174              	.LVL132:
 1175 0034 10B9     		cbnz	r0, .L127
 1176              	.L114:
 472:..\u8g2-master\csrc/u8g2_circle.c ****       return;
 473:..\u8g2-master\csrc/u8g2_circle.c ****   }
 474:..\u8g2-master\csrc/u8g2_circle.c **** #endif /* U8G2_WITH_INTERSECTION */
 475:..\u8g2-master\csrc/u8g2_circle.c ****   
 476:..\u8g2-master\csrc/u8g2_circle.c ****   u8g2_draw_filled_ellipse(u8g2, x0, y0, rx, ry, option);
 477:..\u8g2-master\csrc/u8g2_circle.c **** }
 1177              		.loc 1 477 0
 1178 0036 0DB0     		add	sp, sp, #52
 1179              		.cfi_remember_state
 1180              		.cfi_def_cfa_offset 36
 1181              		@ sp needed
 1182 0038 BDE8F08F 		pop	{r4, r5, r6, r7, r8, r9, r10, fp, pc}
 1183              	.LVL133:
ARM GAS  C:\Users\info\AppData\Local\Temp\ccTL7qDq.s 			page 33


 1184              	.L127:
 1185              		.cfi_restore_state
 1186              	.LBB16:
 1187              	.LBB17:
 391:..\u8g2-master\csrc/u8g2_circle.c ****   ryry2 *= 2;
 1188              		.loc 1 391 0
 1189 003c BBB2     		uxth	r3, r7
 1190 003e 0993     		str	r3, [sp, #36]
 1191 0040 03FB03F3 		mul	r3, r3, r3
 1192 0044 1A46     		mov	r2, r3
 1193 0046 0A93     		str	r3, [sp, #40]
 392:..\u8g2-master\csrc/u8g2_circle.c ****   
 1194              		.loc 1 392 0
 1195 0048 5B00     		lsls	r3, r3, #1
 1196 004a 9BB2     		uxth	r3, r3
 1197 004c 1946     		mov	r1, r3
 387:..\u8g2-master\csrc/u8g2_circle.c ****   rxrx2 *= 2;
 1198              		.loc 1 387 0
 1199 004e 1FFA89F6 		uxth	r6, r9
 409:..\u8g2-master\csrc/u8g2_circle.c ****   stopy = 0;
 1200              		.loc 1 409 0
 1201 0052 01FB06FA 		mul	r10, r1, r6
 392:..\u8g2-master\csrc/u8g2_circle.c ****   
 1202              		.loc 1 392 0
 1203 0056 0693     		str	r3, [sp, #24]
 387:..\u8g2-master\csrc/u8g2_circle.c ****   rxrx2 *= 2;
 1204              		.loc 1 387 0
 1205 0058 06FB06F1 		mul	r1, r6, r6
 401:..\u8g2-master\csrc/u8g2_circle.c ****   
 1206              		.loc 1 401 0
 1207 005c C6F10103 		rsb	r3, r6, #1
 1208 0060 9B1B     		subs	r3, r3, r6
 1209 0062 03FB02F6 		mul	r6, r3, r2
 409:..\u8g2-master\csrc/u8g2_circle.c ****   stopy = 0;
 1210              		.loc 1 409 0
 1211 0066 0FFA8AFA 		sxth	r10, r10
 388:..\u8g2-master\csrc/u8g2_circle.c ****   
 1212              		.loc 1 388 0
 1213 006a 4B00     		lsls	r3, r1, #1
 1214 006c 9BB2     		uxth	r3, r3
 412:..\u8g2-master\csrc/u8g2_circle.c ****   {
 1215              		.loc 1 412 0
 1216 006e BAF1000F 		cmp	r10, #0
 387:..\u8g2-master\csrc/u8g2_circle.c ****   rxrx2 *= 2;
 1217              		.loc 1 387 0
 1218 0072 0891     		str	r1, [sp, #32]
 1219              	.LVL134:
 401:..\u8g2-master\csrc/u8g2_circle.c ****   
 1220              		.loc 1 401 0
 1221 0074 36B2     		sxth	r6, r6
 388:..\u8g2-master\csrc/u8g2_circle.c ****   
 1222              		.loc 1 388 0
 1223 0076 0593     		str	r3, [sp, #20]
 1224              	.LVL135:
 412:..\u8g2-master\csrc/u8g2_circle.c ****   {
 1225              		.loc 1 412 0
 1226 0078 32DB     		blt	.L121
ARM GAS  C:\Users\info\AppData\Local\Temp\ccTL7qDq.s 			page 34


 1227 007a 4FF0000B 		mov	fp, #0
 1228 007e 5C46     		mov	r4, fp
 1229 0080 5D46     		mov	r5, fp
 1230 0082 059A     		ldr	r2, [sp, #20]
 1231 0084 0B97     		str	r7, [sp, #44]
 1232 0086 8B1A     		subs	r3, r1, r2
 1233 0088 069F     		ldr	r7, [sp, #24]
 1234              	.LVL136:
 1235 008a 0793     		str	r3, [sp, #28]
 1236              	.LVL137:
 1237              	.L120:
 414:..\u8g2-master\csrc/u8g2_circle.c ****     y++;
 1238              		.loc 1 414 0
 1239 008c 049B     		ldr	r3, [sp, #16]
 1240 008e 5FFA8BF2 		uxtb	r2, fp
 1241 0092 0193     		str	r3, [sp, #4]
 1242 0094 039B     		ldr	r3, [sp, #12]
 1243 0096 4946     		mov	r1, r9
 1244 0098 0093     		str	r3, [sp]
 1245 009a 0298     		ldr	r0, [sp, #8]
 1246 009c 4346     		mov	r3, r8
 1247 009e FFF7FEFF 		bl	u8g2_draw_filled_ellipse_section
 1248              	.LVL138:
 1249 00a2 059B     		ldr	r3, [sp, #20]
 1250 00a4 0BF1010B 		add	fp, fp, #1
 1251              	.LVL139:
 1252 00a8 1D44     		add	r5, r5, r3
 1253              	.LVL140:
 417:..\u8g2-master\csrc/u8g2_circle.c ****     ychg += rxrx2;
 1254              		.loc 1 417 0
 1255 00aa 079B     		ldr	r3, [sp, #28]
 1256 00ac ADB2     		uxth	r5, r5
 1257 00ae EB18     		adds	r3, r5, r3
 1258 00b0 1C44     		add	r4, r4, r3
 1259              	.LVL141:
 1260 00b2 A3B2     		uxth	r3, r4
 1261 00b4 1CB2     		sxth	r4, r3
 419:..\u8g2-master\csrc/u8g2_circle.c ****     {
 1262              		.loc 1 419 0
 1263 00b6 06EB4402 		add	r2, r6, r4, lsl #1
 1264 00ba 002A     		cmp	r2, #0
 1265 00bc 2DB2     		sxth	r5, r5
 1266              	.LVL142:
 1267 00be 0CDD     		ble	.L119
 423:..\u8g2-master\csrc/u8g2_circle.c ****       xchg += ryry2;      
 1268              		.loc 1 423 0
 1269 00c0 B6B2     		uxth	r6, r6
 1270 00c2 9C19     		adds	r4, r3, r6
 1271              	.LVL143:
 421:..\u8g2-master\csrc/u8g2_circle.c ****       stopx -= ryry2;
 1272              		.loc 1 421 0
 1273 00c4 09F1FF39 		add	r9, r9, #-1
 1274              	.LVL144:
 424:..\u8g2-master\csrc/u8g2_circle.c ****     }
 1275              		.loc 1 424 0
 1276 00c8 3E44     		add	r6, r6, r7
 1277              	.LVL145:
ARM GAS  C:\Users\info\AppData\Local\Temp\ccTL7qDq.s 			page 35


 422:..\u8g2-master\csrc/u8g2_circle.c ****       err += xchg;
 1278              		.loc 1 422 0
 1279 00ca C7EB0A0A 		rsb	r10, r7, r10
 1280              	.LVL146:
 423:..\u8g2-master\csrc/u8g2_circle.c ****       xchg += ryry2;      
 1281              		.loc 1 423 0
 1282 00ce 24B2     		sxth	r4, r4
 424:..\u8g2-master\csrc/u8g2_circle.c ****     }
 1283              		.loc 1 424 0
 1284 00d0 36B2     		sxth	r6, r6
 421:..\u8g2-master\csrc/u8g2_circle.c ****       stopx -= ryry2;
 1285              		.loc 1 421 0
 1286 00d2 5FFA89F9 		uxtb	r9, r9
 1287              	.LVL147:
 422:..\u8g2-master\csrc/u8g2_circle.c ****       err += xchg;
 1288              		.loc 1 422 0
 1289 00d6 0FFA8AFA 		sxth	r10, r10
 1290              	.LVL148:
 1291              	.L119:
 412:..\u8g2-master\csrc/u8g2_circle.c ****   {
 1292              		.loc 1 412 0
 1293 00da AA45     		cmp	r10, r5
 1294 00dc D6DA     		bge	.L120
 1295 00de 0B9F     		ldr	r7, [sp, #44]
 1296              	.LVL149:
 1297              	.L121:
 438:..\u8g2-master\csrc/u8g2_circle.c ****   
 1298              		.loc 1 438 0
 1299 00e0 099A     		ldr	r2, [sp, #36]
 1300 00e2 1346     		mov	r3, r2
 1301 00e4 C2F10106 		rsb	r6, r2, #1
 1302 00e8 B61A     		subs	r6, r6, r2
 445:..\u8g2-master\csrc/u8g2_circle.c ****   
 1303              		.loc 1 445 0
 1304 00ea 059A     		ldr	r2, [sp, #20]
 1305 00ec 03FB02F9 		mul	r9, r3, r2
 438:..\u8g2-master\csrc/u8g2_circle.c ****   
 1306              		.loc 1 438 0
 1307 00f0 089B     		ldr	r3, [sp, #32]
 445:..\u8g2-master\csrc/u8g2_circle.c ****   
 1308              		.loc 1 445 0
 1309 00f2 0FFA89F9 		sxth	r9, r9
 438:..\u8g2-master\csrc/u8g2_circle.c ****   
 1310              		.loc 1 438 0
 1311 00f6 06FB03F6 		mul	r6, r6, r3
 448:..\u8g2-master\csrc/u8g2_circle.c ****   {
 1312              		.loc 1 448 0
 1313 00fa B9F1000F 		cmp	r9, #0
 438:..\u8g2-master\csrc/u8g2_circle.c ****   
 1314              		.loc 1 438 0
 1315 00fe 36B2     		sxth	r6, r6
 1316              	.LVL150:
 448:..\u8g2-master\csrc/u8g2_circle.c ****   {
 1317              		.loc 1 448 0
 1318 0100 99DB     		blt	.L114
 1319 0102 4FF0000A 		mov	r10, #0
 1320 0106 5446     		mov	r4, r10
ARM GAS  C:\Users\info\AppData\Local\Temp\ccTL7qDq.s 			page 36


 1321 0108 5546     		mov	r5, r10
 1322 010a 0A9B     		ldr	r3, [sp, #40]
 1323 010c 069A     		ldr	r2, [sp, #24]
 1324 010e CDF81C80 		str	r8, [sp, #28]
 1325 0112 DDF81480 		ldr	r8, [sp, #20]
 1326              	.LVL151:
 1327 0116 C2EB030B 		rsb	fp, r2, r3
 1328              	.LVL152:
 1329              	.L123:
 450:..\u8g2-master\csrc/u8g2_circle.c ****     x++;
 1330              		.loc 1 450 0
 1331 011a 049B     		ldr	r3, [sp, #16]
 1332 011c 3A46     		mov	r2, r7
 1333 011e 0193     		str	r3, [sp, #4]
 1334 0120 039B     		ldr	r3, [sp, #12]
 1335 0122 5FFA8AF1 		uxtb	r1, r10
 1336 0126 0093     		str	r3, [sp]
 1337 0128 0298     		ldr	r0, [sp, #8]
 1338 012a 079B     		ldr	r3, [sp, #28]
 1339 012c FFF7FEFF 		bl	u8g2_draw_filled_ellipse_section
 1340              	.LVL153:
 1341 0130 069B     		ldr	r3, [sp, #24]
 1342 0132 0AF1010A 		add	r10, r10, #1
 1343              	.LVL154:
 1344 0136 1D44     		add	r5, r5, r3
 1345              	.LVL155:
 1346 0138 ADB2     		uxth	r5, r5
 453:..\u8g2-master\csrc/u8g2_circle.c ****     xchg += ryry2;
 1347              		.loc 1 453 0
 1348 013a 05EB0B03 		add	r3, r5, fp
 1349 013e 1C44     		add	r4, r4, r3
 1350              	.LVL156:
 1351 0140 A3B2     		uxth	r3, r4
 1352 0142 1CB2     		sxth	r4, r3
 455:..\u8g2-master\csrc/u8g2_circle.c ****     {
 1353              		.loc 1 455 0
 1354 0144 06EB4402 		add	r2, r6, r4, lsl #1
 1355 0148 002A     		cmp	r2, #0
 1356 014a 2DB2     		sxth	r5, r5
 1357              	.LVL157:
 1358 014c 0ADD     		ble	.L122
 459:..\u8g2-master\csrc/u8g2_circle.c ****       ychg += rxrx2;
 1359              		.loc 1 459 0
 1360 014e B6B2     		uxth	r6, r6
 1361 0150 9C19     		adds	r4, r3, r6
 1362              	.LVL158:
 457:..\u8g2-master\csrc/u8g2_circle.c ****       stopy -= rxrx2;
 1363              		.loc 1 457 0
 1364 0152 013F     		subs	r7, r7, #1
 1365              	.LVL159:
 460:..\u8g2-master\csrc/u8g2_circle.c ****     }
 1366              		.loc 1 460 0
 1367 0154 4644     		add	r6, r6, r8
 1368              	.LVL160:
 458:..\u8g2-master\csrc/u8g2_circle.c ****       err += ychg;
 1369              		.loc 1 458 0
 1370 0156 C8EB0909 		rsb	r9, r8, r9
ARM GAS  C:\Users\info\AppData\Local\Temp\ccTL7qDq.s 			page 37


 1371              	.LVL161:
 459:..\u8g2-master\csrc/u8g2_circle.c ****       ychg += rxrx2;
 1372              		.loc 1 459 0
 1373 015a 24B2     		sxth	r4, r4
 460:..\u8g2-master\csrc/u8g2_circle.c ****     }
 1374              		.loc 1 460 0
 1375 015c 36B2     		sxth	r6, r6
 457:..\u8g2-master\csrc/u8g2_circle.c ****       stopy -= rxrx2;
 1376              		.loc 1 457 0
 1377 015e FFB2     		uxtb	r7, r7
 1378              	.LVL162:
 458:..\u8g2-master\csrc/u8g2_circle.c ****       err += ychg;
 1379              		.loc 1 458 0
 1380 0160 0FFA89F9 		sxth	r9, r9
 1381              	.LVL163:
 1382              	.L122:
 448:..\u8g2-master\csrc/u8g2_circle.c ****   {
 1383              		.loc 1 448 0
 1384 0164 A945     		cmp	r9, r5
 1385 0166 D8DA     		bge	.L123
 1386              	.LBE17:
 1387              	.LBE16:
 1388              		.loc 1 477 0
 1389 0168 0DB0     		add	sp, sp, #52
 1390              		.cfi_def_cfa_offset 36
 1391              		@ sp needed
 1392 016a BDE8F08F 		pop	{r4, r5, r6, r7, r8, r9, r10, fp, pc}
 1393              		.cfi_endproc
 1394              	.LFE11:
 1395              		.size	u8g2_DrawFilledEllipse, .-u8g2_DrawFilledEllipse
 1396 016e 00BF     		.text
 1397              	.Letext0:
 1398              		.file 2 "c:\\program files (x86)\\cypress\\psoc creator\\4.2\\psoc creator\\import\\gnu\\arm\\5.4.
 1399              		.file 3 "c:\\program files (x86)\\cypress\\psoc creator\\4.2\\psoc creator\\import\\gnu\\arm\\5.4.
 1400              		.file 4 "..\\u8g2-master\\csrc\\u8x8.h"
 1401              		.file 5 "..\\u8g2-master\\csrc\\u8g2.h"