ARM GAS  C:\Users\info\AppData\Local\Temp\ccwPnKy7.s 			page 1


   1              		.syntax unified
   2              		.cpu cortex-m3
   3              		.fpu softvfp
   4              		.eabi_attribute 20, 1
   5              		.eabi_attribute 21, 1
   6              		.eabi_attribute 23, 3
   7              		.eabi_attribute 24, 1
   8              		.eabi_attribute 25, 1
   9              		.eabi_attribute 26, 1
  10              		.eabi_attribute 30, 2
  11              		.eabi_attribute 34, 1
  12              		.eabi_attribute 18, 4
  13              		.thumb
  14              		.syntax unified
  15              		.file	"u8g2_intersection.c"
  16              		.text
  17              	.Ltext0:
  18              		.cfi_sections	.debug_frame
  19              		.section	.text.u8g2_is_intersection_decision_tree,"ax",%progbits
  20              		.align	2
  21              		.global	u8g2_is_intersection_decision_tree
  22              		.thumb
  23              		.thumb_func
  24              		.type	u8g2_is_intersection_decision_tree, %function
  25              	u8g2_is_intersection_decision_tree:
  26              	.LFB0:
  27              		.file 1 "..\\u8g2-master\\csrc\\u8g2_intersection.c"
   1:..\u8g2-master\csrc/u8g2_intersection.c **** /*
   2:..\u8g2-master\csrc/u8g2_intersection.c **** 
   3:..\u8g2-master\csrc/u8g2_intersection.c ****   u8g2_intersection.c 
   4:..\u8g2-master\csrc/u8g2_intersection.c ****   
   5:..\u8g2-master\csrc/u8g2_intersection.c ****   Intersection calculation, code taken from u8g_clip.c
   6:..\u8g2-master\csrc/u8g2_intersection.c **** 
   7:..\u8g2-master\csrc/u8g2_intersection.c ****   Universal 8bit Graphics Library (https://github.com/olikraus/u8g2/)
   8:..\u8g2-master\csrc/u8g2_intersection.c **** 
   9:..\u8g2-master\csrc/u8g2_intersection.c ****   Copyright (c) 2016, olikraus@gmail.com
  10:..\u8g2-master\csrc/u8g2_intersection.c ****   All rights reserved.
  11:..\u8g2-master\csrc/u8g2_intersection.c **** 
  12:..\u8g2-master\csrc/u8g2_intersection.c ****   Redistribution and use in source and binary forms, with or without modification, 
  13:..\u8g2-master\csrc/u8g2_intersection.c ****   are permitted provided that the following conditions are met:
  14:..\u8g2-master\csrc/u8g2_intersection.c **** 
  15:..\u8g2-master\csrc/u8g2_intersection.c ****   * Redistributions of source code must retain the above copyright notice, this list 
  16:..\u8g2-master\csrc/u8g2_intersection.c ****     of conditions and the following disclaimer.
  17:..\u8g2-master\csrc/u8g2_intersection.c ****     
  18:..\u8g2-master\csrc/u8g2_intersection.c ****   * Redistributions in binary form must reproduce the above copyright notice, this 
  19:..\u8g2-master\csrc/u8g2_intersection.c ****     list of conditions and the following disclaimer in the documentation and/or other 
  20:..\u8g2-master\csrc/u8g2_intersection.c ****     materials provided with the distribution.
  21:..\u8g2-master\csrc/u8g2_intersection.c **** 
  22:..\u8g2-master\csrc/u8g2_intersection.c ****   THIS SOFTWARE IS PROVIDED BY THE COPYRIGHT HOLDERS AND 
  23:..\u8g2-master\csrc/u8g2_intersection.c ****   CONTRIBUTORS "AS IS" AND ANY EXPRESS OR IMPLIED WARRANTIES, 
  24:..\u8g2-master\csrc/u8g2_intersection.c ****   INCLUDING, BUT NOT LIMITED TO, THE IMPLIED WARRANTIES OF 
  25:..\u8g2-master\csrc/u8g2_intersection.c ****   MERCHANTABILITY AND FITNESS FOR A PARTICULAR PURPOSE ARE 
  26:..\u8g2-master\csrc/u8g2_intersection.c ****   DISCLAIMED. IN NO EVENT SHALL THE COPYRIGHT HOLDER OR 
  27:..\u8g2-master\csrc/u8g2_intersection.c ****   CONTRIBUTORS BE LIABLE FOR ANY DIRECT, INDIRECT, INCIDENTAL, 
  28:..\u8g2-master\csrc/u8g2_intersection.c ****   SPECIAL, EXEMPLARY, OR CONSEQUENTIAL DAMAGES (INCLUDING, BUT 
  29:..\u8g2-master\csrc/u8g2_intersection.c ****   NOT LIMITED TO, PROCUREMENT OF SUBSTITUTE GOODS OR SERVICES; 
  30:..\u8g2-master\csrc/u8g2_intersection.c ****   LOSS OF USE, DATA, OR PROFITS; OR BUSINESS INTERRUPTION) HOWEVER 
ARM GAS  C:\Users\info\AppData\Local\Temp\ccwPnKy7.s 			page 2


  31:..\u8g2-master\csrc/u8g2_intersection.c ****   CAUSED AND ON ANY THEORY OF LIABILITY, WHETHER IN CONTRACT, 
  32:..\u8g2-master\csrc/u8g2_intersection.c ****   STRICT LIABILITY, OR TORT (INCLUDING NEGLIGENCE OR OTHERWISE) 
  33:..\u8g2-master\csrc/u8g2_intersection.c ****   ARISING IN ANY WAY OUT OF THE USE OF THIS SOFTWARE, EVEN IF 
  34:..\u8g2-master\csrc/u8g2_intersection.c ****   ADVISED OF THE POSSIBILITY OF SUCH DAMAGE.  
  35:..\u8g2-master\csrc/u8g2_intersection.c **** 
  36:..\u8g2-master\csrc/u8g2_intersection.c **** */
  37:..\u8g2-master\csrc/u8g2_intersection.c **** 
  38:..\u8g2-master\csrc/u8g2_intersection.c **** #include "u8g2.h"
  39:..\u8g2-master\csrc/u8g2_intersection.c **** 
  40:..\u8g2-master\csrc/u8g2_intersection.c **** #ifdef __GNUC__
  41:..\u8g2-master\csrc/u8g2_intersection.c **** #define U8G2_ALWAYS_INLINE __inline__ __attribute__((always_inline))
  42:..\u8g2-master\csrc/u8g2_intersection.c **** #else
  43:..\u8g2-master\csrc/u8g2_intersection.c **** #define U8G2_ALWAYS_INLINE
  44:..\u8g2-master\csrc/u8g2_intersection.c **** #endif 
  45:..\u8g2-master\csrc/u8g2_intersection.c **** 
  46:..\u8g2-master\csrc/u8g2_intersection.c **** 
  47:..\u8g2-master\csrc/u8g2_intersection.c **** #if defined(U8G2_WITH_INTERSECTION) || defined(U8G2_WITH_CLIP_WINDOW_SUPPORT)
  48:..\u8g2-master\csrc/u8g2_intersection.c **** 
  49:..\u8g2-master\csrc/u8g2_intersection.c **** #ifdef OLD_VERSION_WITH_SYMETRIC_BOUNDARIES
  50:..\u8g2-master\csrc/u8g2_intersection.c **** 
  51:..\u8g2-master\csrc/u8g2_intersection.c **** /*
  52:..\u8g2-master\csrc/u8g2_intersection.c ****   intersection assumptions:
  53:..\u8g2-master\csrc/u8g2_intersection.c ****     a1 <= a2 is always true    
  54:..\u8g2-master\csrc/u8g2_intersection.c ****     
  55:..\u8g2-master\csrc/u8g2_intersection.c ****     minimized version
  56:..\u8g2-master\csrc/u8g2_intersection.c ****     ---1----0 1             b1 <= a2 && b1 > b2
  57:..\u8g2-master\csrc/u8g2_intersection.c ****     -----1--0 1             b2 >= a1 && b1 > b2
  58:..\u8g2-master\csrc/u8g2_intersection.c ****     ---1-1--- 1             b1 <= a2 && b2 >= a1
  59:..\u8g2-master\csrc/u8g2_intersection.c ****   */
  60:..\u8g2-master\csrc/u8g2_intersection.c **** 
  61:..\u8g2-master\csrc/u8g2_intersection.c **** 
  62:..\u8g2-master\csrc/u8g2_intersection.c **** /*
  63:..\u8g2-master\csrc/u8g2_intersection.c ****   calculate the intersection between a0/a1 and v0/v1
  64:..\u8g2-master\csrc/u8g2_intersection.c ****   The intersection check returns one if the range of a0/a1 has an intersection with v0/v1.
  65:..\u8g2-master\csrc/u8g2_intersection.c ****   The intersection check includes the boundary values v1 and a1.
  66:..\u8g2-master\csrc/u8g2_intersection.c **** 
  67:..\u8g2-master\csrc/u8g2_intersection.c ****   The following asserts will succeed:
  68:..\u8g2-master\csrc/u8g2_intersection.c ****     assert( u8g2_is_intersection_decision_tree(4, 6, 7, 9) == 0 );
  69:..\u8g2-master\csrc/u8g2_intersection.c ****     assert( u8g2_is_intersection_decision_tree(4, 6, 6, 9) != 0 );
  70:..\u8g2-master\csrc/u8g2_intersection.c ****     assert( u8g2_is_intersection_decision_tree(6, 9, 4, 6) != 0 );
  71:..\u8g2-master\csrc/u8g2_intersection.c ****     assert( u8g2_is_intersection_decision_tree(7, 9, 4, 6) == 0 );  
  72:..\u8g2-master\csrc/u8g2_intersection.c **** */
  73:..\u8g2-master\csrc/u8g2_intersection.c **** 
  74:..\u8g2-master\csrc/u8g2_intersection.c **** //static uint8_t U8G2_ALWAYS_INLINE u8g2_is_intersection_decision_tree(u8g_uint_t a0, u8g_uint_t a1
  75:..\u8g2-master\csrc/u8g2_intersection.c **** static uint8_t u8g2_is_intersection_decision_tree(u8g2_uint_t a0, u8g2_uint_t a1, u8g2_uint_t v0, u
  76:..\u8g2-master\csrc/u8g2_intersection.c **** {
  77:..\u8g2-master\csrc/u8g2_intersection.c ****   if ( v0 <= a1 )
  78:..\u8g2-master\csrc/u8g2_intersection.c ****   {
  79:..\u8g2-master\csrc/u8g2_intersection.c ****     if ( v1 >= a0 )
  80:..\u8g2-master\csrc/u8g2_intersection.c ****     {
  81:..\u8g2-master\csrc/u8g2_intersection.c ****       return 1;
  82:..\u8g2-master\csrc/u8g2_intersection.c ****     }
  83:..\u8g2-master\csrc/u8g2_intersection.c ****     else
  84:..\u8g2-master\csrc/u8g2_intersection.c ****     {
  85:..\u8g2-master\csrc/u8g2_intersection.c ****       if ( v0 > v1 )
  86:..\u8g2-master\csrc/u8g2_intersection.c ****       {
  87:..\u8g2-master\csrc/u8g2_intersection.c **** 	return 1;
ARM GAS  C:\Users\info\AppData\Local\Temp\ccwPnKy7.s 			page 3


  88:..\u8g2-master\csrc/u8g2_intersection.c ****       }
  89:..\u8g2-master\csrc/u8g2_intersection.c ****       else
  90:..\u8g2-master\csrc/u8g2_intersection.c ****       {
  91:..\u8g2-master\csrc/u8g2_intersection.c **** 	return 0;
  92:..\u8g2-master\csrc/u8g2_intersection.c ****       }
  93:..\u8g2-master\csrc/u8g2_intersection.c ****     }
  94:..\u8g2-master\csrc/u8g2_intersection.c ****   }
  95:..\u8g2-master\csrc/u8g2_intersection.c ****   else
  96:..\u8g2-master\csrc/u8g2_intersection.c ****   {
  97:..\u8g2-master\csrc/u8g2_intersection.c ****     if ( v1 >= a0 )
  98:..\u8g2-master\csrc/u8g2_intersection.c ****     {
  99:..\u8g2-master\csrc/u8g2_intersection.c ****       if ( v0 > v1 )
 100:..\u8g2-master\csrc/u8g2_intersection.c ****       {
 101:..\u8g2-master\csrc/u8g2_intersection.c **** 	return 1;
 102:..\u8g2-master\csrc/u8g2_intersection.c ****       }
 103:..\u8g2-master\csrc/u8g2_intersection.c ****       else
 104:..\u8g2-master\csrc/u8g2_intersection.c ****       {
 105:..\u8g2-master\csrc/u8g2_intersection.c **** 	return 0;
 106:..\u8g2-master\csrc/u8g2_intersection.c ****       }
 107:..\u8g2-master\csrc/u8g2_intersection.c ****     }
 108:..\u8g2-master\csrc/u8g2_intersection.c ****     else
 109:..\u8g2-master\csrc/u8g2_intersection.c ****     {
 110:..\u8g2-master\csrc/u8g2_intersection.c ****       return 0;
 111:..\u8g2-master\csrc/u8g2_intersection.c ****     }
 112:..\u8g2-master\csrc/u8g2_intersection.c ****   }
 113:..\u8g2-master\csrc/u8g2_intersection.c **** }
 114:..\u8g2-master\csrc/u8g2_intersection.c **** 
 115:..\u8g2-master\csrc/u8g2_intersection.c **** #endif	/* OLD_VERSION_WITH_SYMETRIC_BOUNDARIES */
 116:..\u8g2-master\csrc/u8g2_intersection.c **** 
 117:..\u8g2-master\csrc/u8g2_intersection.c **** 
 118:..\u8g2-master\csrc/u8g2_intersection.c **** /*
 119:..\u8g2-master\csrc/u8g2_intersection.c ****   version with asymetric boundaries.
 120:..\u8g2-master\csrc/u8g2_intersection.c ****   a1 and v1 are excluded
 121:..\u8g2-master\csrc/u8g2_intersection.c ****   v0 == v1 is not support end return 1
 122:..\u8g2-master\csrc/u8g2_intersection.c **** */
 123:..\u8g2-master\csrc/u8g2_intersection.c **** uint8_t u8g2_is_intersection_decision_tree(u8g2_uint_t a0, u8g2_uint_t a1, u8g2_uint_t v0, u8g2_uin
 124:..\u8g2-master\csrc/u8g2_intersection.c **** {
  28              		.loc 1 124 0
  29              		.cfi_startproc
  30              		@ args = 0, pretend = 0, frame = 0
  31              		@ frame_needed = 0, uses_anonymous_args = 0
  32              		@ link register save eliminated.
  33              	.LVL0:
 125:..\u8g2-master\csrc/u8g2_intersection.c ****   if ( v0 < a1 )		// v0 <= a1
  34              		.loc 1 125 0
  35 0000 8A42     		cmp	r2, r1
  36 0002 06D2     		bcs	.L2
 126:..\u8g2-master\csrc/u8g2_intersection.c ****   {
 127:..\u8g2-master\csrc/u8g2_intersection.c ****     if ( v1 > a0 )	// v1 >= a0
  37              		.loc 1 127 0
  38 0004 8342     		cmp	r3, r0
  39 0006 08D8     		bhi	.L5
  40              	.L4:
 128:..\u8g2-master\csrc/u8g2_intersection.c ****     {
 129:..\u8g2-master\csrc/u8g2_intersection.c ****       return 1;
  41              		.loc 1 129 0
  42 0008 9A42     		cmp	r2, r3
ARM GAS  C:\Users\info\AppData\Local\Temp\ccwPnKy7.s 			page 4


  43 000a 94BF     		ite	ls
  44 000c 0020     		movls	r0, #0
  45              	.LVL1:
  46 000e 0120     		movhi	r0, #1
  47 0010 7047     		bx	lr
  48              	.LVL2:
  49              	.L2:
 130:..\u8g2-master\csrc/u8g2_intersection.c ****     }
 131:..\u8g2-master\csrc/u8g2_intersection.c ****     else
 132:..\u8g2-master\csrc/u8g2_intersection.c ****     {
 133:..\u8g2-master\csrc/u8g2_intersection.c ****       if ( v0 > v1 )	// v0 > v1
 134:..\u8g2-master\csrc/u8g2_intersection.c ****       {
 135:..\u8g2-master\csrc/u8g2_intersection.c **** 	return 1;
 136:..\u8g2-master\csrc/u8g2_intersection.c ****       }
 137:..\u8g2-master\csrc/u8g2_intersection.c ****       else
 138:..\u8g2-master\csrc/u8g2_intersection.c ****       {
 139:..\u8g2-master\csrc/u8g2_intersection.c **** 	return 0;
 140:..\u8g2-master\csrc/u8g2_intersection.c ****       }
 141:..\u8g2-master\csrc/u8g2_intersection.c ****     }
 142:..\u8g2-master\csrc/u8g2_intersection.c ****   }
 143:..\u8g2-master\csrc/u8g2_intersection.c ****   else
 144:..\u8g2-master\csrc/u8g2_intersection.c ****   {
 145:..\u8g2-master\csrc/u8g2_intersection.c ****     if ( v1 > a0 )	// v1 >= a0
  50              		.loc 1 145 0
  51 0012 8342     		cmp	r3, r0
  52 0014 F8D8     		bhi	.L4
 146:..\u8g2-master\csrc/u8g2_intersection.c ****     {
 147:..\u8g2-master\csrc/u8g2_intersection.c ****       if ( v0 > v1 )	// v0 > v1
 148:..\u8g2-master\csrc/u8g2_intersection.c ****       {
 149:..\u8g2-master\csrc/u8g2_intersection.c **** 	return 1;
 150:..\u8g2-master\csrc/u8g2_intersection.c ****       }
 151:..\u8g2-master\csrc/u8g2_intersection.c ****       else
 152:..\u8g2-master\csrc/u8g2_intersection.c ****       {
 153:..\u8g2-master\csrc/u8g2_intersection.c **** 	return 0;
 154:..\u8g2-master\csrc/u8g2_intersection.c ****       }
 155:..\u8g2-master\csrc/u8g2_intersection.c ****     }
 156:..\u8g2-master\csrc/u8g2_intersection.c ****     else
 157:..\u8g2-master\csrc/u8g2_intersection.c ****     {
 158:..\u8g2-master\csrc/u8g2_intersection.c ****       return 0;
  53              		.loc 1 158 0
  54 0016 0020     		movs	r0, #0
  55              	.LVL3:
  56 0018 7047     		bx	lr
  57              	.LVL4:
  58              	.L5:
 129:..\u8g2-master\csrc/u8g2_intersection.c ****     }
  59              		.loc 1 129 0
  60 001a 0120     		movs	r0, #1
  61              	.LVL5:
 159:..\u8g2-master\csrc/u8g2_intersection.c ****     }
 160:..\u8g2-master\csrc/u8g2_intersection.c ****   }
 161:..\u8g2-master\csrc/u8g2_intersection.c **** }
  62              		.loc 1 161 0
  63 001c 7047     		bx	lr
  64              		.cfi_endproc
  65              	.LFE0:
  66              		.size	u8g2_is_intersection_decision_tree, .-u8g2_is_intersection_decision_tree
ARM GAS  C:\Users\info\AppData\Local\Temp\ccwPnKy7.s 			page 5


  67 001e 00BF     		.section	.text.u8g2_IsIntersection,"ax",%progbits
  68              		.align	2
  69              		.global	u8g2_IsIntersection
  70              		.thumb
  71              		.thumb_func
  72              		.type	u8g2_IsIntersection, %function
  73              	u8g2_IsIntersection:
  74              	.LFB1:
 162:..\u8g2-master\csrc/u8g2_intersection.c **** 
 163:..\u8g2-master\csrc/u8g2_intersection.c **** 
 164:..\u8g2-master\csrc/u8g2_intersection.c **** 
 165:..\u8g2-master\csrc/u8g2_intersection.c **** /* upper limits are not included (asymetric boundaries) */
 166:..\u8g2-master\csrc/u8g2_intersection.c **** uint8_t u8g2_IsIntersection(u8g2_t *u8g2, u8g2_uint_t x0, u8g2_uint_t y0, u8g2_uint_t x1, u8g2_uint
 167:..\u8g2-master\csrc/u8g2_intersection.c **** {
  75              		.loc 1 167 0
  76              		.cfi_startproc
  77              		@ args = 4, pretend = 0, frame = 0
  78              		@ frame_needed = 0, uses_anonymous_args = 0
  79              		@ link register save eliminated.
  80              	.LVL6:
  81 0000 70B4     		push	{r4, r5, r6}
  82              		.cfi_def_cfa_offset 12
  83              		.cfi_offset 4, -12
  84              		.cfi_offset 5, -8
  85              		.cfi_offset 6, -4
  86              	.LBB6:
  87              	.LBB7:
 125:..\u8g2-master\csrc/u8g2_intersection.c ****   {
  88              		.loc 1 125 0
  89 0002 90F84860 		ldrb	r6, [r0, #72]	@ zero_extendqisi2
  90              	.LBE7:
  91              	.LBE6:
 168:..\u8g2-master\csrc/u8g2_intersection.c ****   if ( u8g2_is_intersection_decision_tree(u8g2->user_y0, u8g2->user_y1, y0, y1) == 0 )
  92              		.loc 1 168 0
  93 0006 90F84750 		ldrb	r5, [r0, #71]	@ zero_extendqisi2
  94              	.LVL7:
  95              	.LBB11:
  96              	.LBB8:
 125:..\u8g2-master\csrc/u8g2_intersection.c ****   {
  97              		.loc 1 125 0
  98 000a 9642     		cmp	r6, r2
  99              	.LBE8:
 100              	.LBE11:
 167:..\u8g2-master\csrc/u8g2_intersection.c ****   if ( u8g2_is_intersection_decision_tree(u8g2->user_y0, u8g2->user_y1, y0, y1) == 0 )
 101              		.loc 1 167 0
 102 000c 9DF80C40 		ldrb	r4, [sp, #12]	@ zero_extendqisi2
 103              	.LVL8:
 104              	.LBB12:
 105              	.LBB9:
 125:..\u8g2-master\csrc/u8g2_intersection.c ****   {
 106              		.loc 1 125 0
 107 0010 0CD9     		bls	.L8
 127:..\u8g2-master\csrc/u8g2_intersection.c ****     {
 108              		.loc 1 127 0
 109 0012 A542     		cmp	r5, r4
 110 0014 0CD2     		bcs	.L11
 111              	.L9:
ARM GAS  C:\Users\info\AppData\Local\Temp\ccwPnKy7.s 			page 6


 112              	.LVL9:
 113              	.LBE9:
 114              	.LBE12:
 115              	.LBB13:
 116              	.LBB14:
 125:..\u8g2-master\csrc/u8g2_intersection.c ****   {
 117              		.loc 1 125 0
 118 0016 90F84640 		ldrb	r4, [r0, #70]	@ zero_extendqisi2
 119              	.LBE14:
 120              	.LBE13:
 169:..\u8g2-master\csrc/u8g2_intersection.c ****     return 0; 
 170:..\u8g2-master\csrc/u8g2_intersection.c ****   
 171:..\u8g2-master\csrc/u8g2_intersection.c ****   return u8g2_is_intersection_decision_tree(u8g2->user_x0, u8g2->user_x1, x0, x1);
 121              		.loc 1 171 0
 122 001a 90F84520 		ldrb	r2, [r0, #69]	@ zero_extendqisi2
 123              	.LVL10:
 124              	.LBB18:
 125              	.LBB15:
 125:..\u8g2-master\csrc/u8g2_intersection.c ****   {
 126              		.loc 1 125 0
 127 001e 8C42     		cmp	r4, r1
 128 0020 0BD9     		bls	.L21
 127:..\u8g2-master\csrc/u8g2_intersection.c ****     {
 129              		.loc 1 127 0
 130 0022 9A42     		cmp	r2, r3
 131 0024 0BD2     		bcs	.L12
 132              	.LBE15:
 133              	.LBE18:
 172:..\u8g2-master\csrc/u8g2_intersection.c **** }
 134              		.loc 1 172 0
 135 0026 70BC     		pop	{r4, r5, r6}
 136              		.cfi_remember_state
 137              		.cfi_restore 4
 138              		.cfi_restore 5
 139              		.cfi_restore 6
 140              		.cfi_def_cfa_offset 0
 141              	.LVL11:
 142              	.LBB19:
 143              	.LBB16:
 129:..\u8g2-master\csrc/u8g2_intersection.c ****     }
 144              		.loc 1 129 0
 145 0028 0120     		movs	r0, #1
 146              	.LVL12:
 147              	.LBE16:
 148              	.LBE19:
 149              		.loc 1 172 0
 150 002a 7047     		bx	lr
 151              	.LVL13:
 152              	.L8:
 153              		.cfi_restore_state
 154              	.LBB20:
 155              	.LBB10:
 145:..\u8g2-master\csrc/u8g2_intersection.c ****     {
 156              		.loc 1 145 0
 157 002c A542     		cmp	r5, r4
 158 002e 01D2     		bcs	.L19
 159              	.L11:
ARM GAS  C:\Users\info\AppData\Local\Temp\ccwPnKy7.s 			page 7


 133:..\u8g2-master\csrc/u8g2_intersection.c ****       {
 160              		.loc 1 133 0
 161 0030 A242     		cmp	r2, r4
 162 0032 F0D8     		bhi	.L9
 163              	.LVL14:
 164              	.L19:
 165              	.LBE10:
 166              	.LBE20:
 169:..\u8g2-master\csrc/u8g2_intersection.c ****   
 167              		.loc 1 169 0
 168 0034 0020     		movs	r0, #0
 169              	.LVL15:
 170              		.loc 1 172 0
 171 0036 70BC     		pop	{r4, r5, r6}
 172              		.cfi_remember_state
 173              		.cfi_restore 6
 174              		.cfi_restore 5
 175              		.cfi_restore 4
 176              		.cfi_def_cfa_offset 0
 177              	.LVL16:
 178 0038 7047     		bx	lr
 179              	.LVL17:
 180              	.L21:
 181              		.cfi_restore_state
 182              	.LBB21:
 183              	.LBB17:
 145:..\u8g2-master\csrc/u8g2_intersection.c ****     {
 184              		.loc 1 145 0
 185 003a 9A42     		cmp	r2, r3
 186 003c FAD2     		bcs	.L19
 187              	.L12:
 188              	.LBE17:
 189              	.LBE21:
 190              		.loc 1 172 0
 191 003e 70BC     		pop	{r4, r5, r6}
 192              		.cfi_restore 4
 193              		.cfi_restore 5
 194              		.cfi_restore 6
 195              		.cfi_def_cfa_offset 0
 196              	.LVL18:
 169:..\u8g2-master\csrc/u8g2_intersection.c ****   
 197              		.loc 1 169 0
 198 0040 9942     		cmp	r1, r3
 199 0042 94BF     		ite	ls
 200 0044 0020     		movls	r0, #0
 201              	.LVL19:
 202 0046 0120     		movhi	r0, #1
 203              		.loc 1 172 0
 204 0048 7047     		bx	lr
 205              		.cfi_endproc
 206              	.LFE1:
 207              		.size	u8g2_IsIntersection, .-u8g2_IsIntersection
 208 004a 00BF     		.text
 209              	.Letext0:
 210              		.file 2 "c:\\program files (x86)\\cypress\\psoc creator\\4.2\\psoc creator\\import\\gnu\\arm\\5.4.
 211              		.file 3 "c:\\program files (x86)\\cypress\\psoc creator\\4.2\\psoc creator\\import\\gnu\\arm\\5.4.
 212              		.file 4 "..\\u8g2-master\\csrc\\u8x8.h"
ARM GAS  C:\Users\info\AppData\Local\Temp\ccwPnKy7.s 			page 8


 213              		.file 5 "..\\u8g2-master\\csrc\\u8g2.h"