ARM GAS  C:\Users\info\AppData\Local\Temp\ccfHjuLM.s 			page 1


   1              		.syntax unified
   2              		.cpu cortex-m3
   3              		.fpu softvfp
   4              		.eabi_attribute 20, 1
   5              		.eabi_attribute 21, 1
   6              		.eabi_attribute 23, 3
   7              		.eabi_attribute 24, 1
   8              		.eabi_attribute 25, 1
   9              		.eabi_attribute 26, 1
  10              		.eabi_attribute 30, 2
  11              		.eabi_attribute 34, 1
  12              		.eabi_attribute 18, 4
  13              		.thumb
  14              		.syntax unified
  15              		.file	"u8g2_d_memory.c"
  16              		.text
  17              	.Ltext0:
  18              		.cfi_sections	.debug_frame
  19              		.section	.text.u8g2_m_16_4_1,"ax",%progbits
  20              		.align	2
  21              		.global	u8g2_m_16_4_1
  22              		.thumb
  23              		.thumb_func
  24              		.type	u8g2_m_16_4_1, %function
  25              	u8g2_m_16_4_1:
  26              	.LFB0:
  27              		.file 1 "..\\u8g2-master\\csrc\\u8g2_d_memory.c"
   1:..\u8g2-master\csrc/u8g2_d_memory.c **** /* u8g2_d_memory.c */
   2:..\u8g2-master\csrc/u8g2_d_memory.c **** /* generated code, codebuild, u8g2 project */
   3:..\u8g2-master\csrc/u8g2_d_memory.c **** 
   4:..\u8g2-master\csrc/u8g2_d_memory.c **** #include "u8g2.h"
   5:..\u8g2-master\csrc/u8g2_d_memory.c **** 
   6:..\u8g2-master\csrc/u8g2_d_memory.c **** uint8_t *u8g2_m_16_4_1(uint8_t *page_cnt)
   7:..\u8g2-master\csrc/u8g2_d_memory.c **** {
  28              		.loc 1 7 0
  29              		.cfi_startproc
  30              		@ args = 0, pretend = 0, frame = 0
  31              		@ frame_needed = 0, uses_anonymous_args = 0
  32              		@ link register save eliminated.
  33              	.LVL0:
   8:..\u8g2-master\csrc/u8g2_d_memory.c ****   static uint8_t buf[128];
   9:..\u8g2-master\csrc/u8g2_d_memory.c ****   *page_cnt = 1;
  34              		.loc 1 9 0
  35 0000 0123     		movs	r3, #1
  36 0002 0370     		strb	r3, [r0]
  10:..\u8g2-master\csrc/u8g2_d_memory.c ****   return buf;
  11:..\u8g2-master\csrc/u8g2_d_memory.c **** }
  37              		.loc 1 11 0
  38 0004 0048     		ldr	r0, .L2
  39              	.LVL1:
  40 0006 7047     		bx	lr
  41              	.L3:
  42              		.align	2
  43              	.L2:
  44 0008 00000000 		.word	.LANCHOR0
  45              		.cfi_endproc
  46              	.LFE0:
ARM GAS  C:\Users\info\AppData\Local\Temp\ccfHjuLM.s 			page 2


  47              		.size	u8g2_m_16_4_1, .-u8g2_m_16_4_1
  48              		.section	.text.u8g2_m_16_4_2,"ax",%progbits
  49              		.align	2
  50              		.global	u8g2_m_16_4_2
  51              		.thumb
  52              		.thumb_func
  53              		.type	u8g2_m_16_4_2, %function
  54              	u8g2_m_16_4_2:
  55              	.LFB1:
  12:..\u8g2-master\csrc/u8g2_d_memory.c **** uint8_t *u8g2_m_16_4_2(uint8_t *page_cnt)
  13:..\u8g2-master\csrc/u8g2_d_memory.c **** {
  56              		.loc 1 13 0
  57              		.cfi_startproc
  58              		@ args = 0, pretend = 0, frame = 0
  59              		@ frame_needed = 0, uses_anonymous_args = 0
  60              		@ link register save eliminated.
  61              	.LVL2:
  14:..\u8g2-master\csrc/u8g2_d_memory.c ****   static uint8_t buf[256];
  15:..\u8g2-master\csrc/u8g2_d_memory.c ****   *page_cnt = 2;
  62              		.loc 1 15 0
  63 0000 0223     		movs	r3, #2
  64 0002 0370     		strb	r3, [r0]
  16:..\u8g2-master\csrc/u8g2_d_memory.c ****   return buf;
  17:..\u8g2-master\csrc/u8g2_d_memory.c **** }
  65              		.loc 1 17 0
  66 0004 0048     		ldr	r0, .L5
  67              	.LVL3:
  68 0006 7047     		bx	lr
  69              	.L6:
  70              		.align	2
  71              	.L5:
  72 0008 80000000 		.word	.LANCHOR0+128
  73              		.cfi_endproc
  74              	.LFE1:
  75              		.size	u8g2_m_16_4_2, .-u8g2_m_16_4_2
  76              		.section	.text.u8g2_m_16_4_f,"ax",%progbits
  77              		.align	2
  78              		.global	u8g2_m_16_4_f
  79              		.thumb
  80              		.thumb_func
  81              		.type	u8g2_m_16_4_f, %function
  82              	u8g2_m_16_4_f:
  83              	.LFB2:
  18:..\u8g2-master\csrc/u8g2_d_memory.c **** uint8_t *u8g2_m_16_4_f(uint8_t *page_cnt)
  19:..\u8g2-master\csrc/u8g2_d_memory.c **** {
  84              		.loc 1 19 0
  85              		.cfi_startproc
  86              		@ args = 0, pretend = 0, frame = 0
  87              		@ frame_needed = 0, uses_anonymous_args = 0
  88              		@ link register save eliminated.
  89              	.LVL4:
  20:..\u8g2-master\csrc/u8g2_d_memory.c ****   static uint8_t buf[512];
  21:..\u8g2-master\csrc/u8g2_d_memory.c ****   *page_cnt = 4;
  90              		.loc 1 21 0
  91 0000 0423     		movs	r3, #4
  92 0002 0370     		strb	r3, [r0]
  22:..\u8g2-master\csrc/u8g2_d_memory.c ****   return buf;
ARM GAS  C:\Users\info\AppData\Local\Temp\ccfHjuLM.s 			page 3


  23:..\u8g2-master\csrc/u8g2_d_memory.c **** }
  93              		.loc 1 23 0
  94 0004 0048     		ldr	r0, .L8
  95              	.LVL5:
  96 0006 7047     		bx	lr
  97              	.L9:
  98              		.align	2
  99              	.L8:
 100 0008 80010000 		.word	.LANCHOR0+384
 101              		.cfi_endproc
 102              	.LFE2:
 103              		.size	u8g2_m_16_4_f, .-u8g2_m_16_4_f
 104              		.section	.text.u8g2_m_16_8_1,"ax",%progbits
 105              		.align	2
 106              		.global	u8g2_m_16_8_1
 107              		.thumb
 108              		.thumb_func
 109              		.type	u8g2_m_16_8_1, %function
 110              	u8g2_m_16_8_1:
 111              	.LFB3:
  24:..\u8g2-master\csrc/u8g2_d_memory.c **** uint8_t *u8g2_m_16_8_1(uint8_t *page_cnt)
  25:..\u8g2-master\csrc/u8g2_d_memory.c **** {
 112              		.loc 1 25 0
 113              		.cfi_startproc
 114              		@ args = 0, pretend = 0, frame = 0
 115              		@ frame_needed = 0, uses_anonymous_args = 0
 116              		@ link register save eliminated.
 117              	.LVL6:
  26:..\u8g2-master\csrc/u8g2_d_memory.c ****   static uint8_t buf[128];
  27:..\u8g2-master\csrc/u8g2_d_memory.c ****   *page_cnt = 1;
 118              		.loc 1 27 0
 119 0000 0123     		movs	r3, #1
 120 0002 0370     		strb	r3, [r0]
  28:..\u8g2-master\csrc/u8g2_d_memory.c ****   return buf;
  29:..\u8g2-master\csrc/u8g2_d_memory.c **** }
 121              		.loc 1 29 0
 122 0004 0048     		ldr	r0, .L11
 123              	.LVL7:
 124 0006 7047     		bx	lr
 125              	.L12:
 126              		.align	2
 127              	.L11:
 128 0008 80030000 		.word	.LANCHOR0+896
 129              		.cfi_endproc
 130              	.LFE3:
 131              		.size	u8g2_m_16_8_1, .-u8g2_m_16_8_1
 132              		.section	.text.u8g2_m_16_8_2,"ax",%progbits
 133              		.align	2
 134              		.global	u8g2_m_16_8_2
 135              		.thumb
 136              		.thumb_func
 137              		.type	u8g2_m_16_8_2, %function
 138              	u8g2_m_16_8_2:
 139              	.LFB4:
  30:..\u8g2-master\csrc/u8g2_d_memory.c **** uint8_t *u8g2_m_16_8_2(uint8_t *page_cnt)
  31:..\u8g2-master\csrc/u8g2_d_memory.c **** {
 140              		.loc 1 31 0
ARM GAS  C:\Users\info\AppData\Local\Temp\ccfHjuLM.s 			page 4


 141              		.cfi_startproc
 142              		@ args = 0, pretend = 0, frame = 0
 143              		@ frame_needed = 0, uses_anonymous_args = 0
 144              		@ link register save eliminated.
 145              	.LVL8:
  32:..\u8g2-master\csrc/u8g2_d_memory.c ****   static uint8_t buf[256];
  33:..\u8g2-master\csrc/u8g2_d_memory.c ****   *page_cnt = 2;
 146              		.loc 1 33 0
 147 0000 0223     		movs	r3, #2
 148 0002 0370     		strb	r3, [r0]
  34:..\u8g2-master\csrc/u8g2_d_memory.c ****   return buf;
  35:..\u8g2-master\csrc/u8g2_d_memory.c **** }
 149              		.loc 1 35 0
 150 0004 0048     		ldr	r0, .L14
 151              	.LVL9:
 152 0006 7047     		bx	lr
 153              	.L15:
 154              		.align	2
 155              	.L14:
 156 0008 00040000 		.word	.LANCHOR0+1024
 157              		.cfi_endproc
 158              	.LFE4:
 159              		.size	u8g2_m_16_8_2, .-u8g2_m_16_8_2
 160              		.section	.text.u8g2_m_16_8_f,"ax",%progbits
 161              		.align	2
 162              		.global	u8g2_m_16_8_f
 163              		.thumb
 164              		.thumb_func
 165              		.type	u8g2_m_16_8_f, %function
 166              	u8g2_m_16_8_f:
 167              	.LFB5:
  36:..\u8g2-master\csrc/u8g2_d_memory.c **** uint8_t *u8g2_m_16_8_f(uint8_t *page_cnt)
  37:..\u8g2-master\csrc/u8g2_d_memory.c **** {
 168              		.loc 1 37 0
 169              		.cfi_startproc
 170              		@ args = 0, pretend = 0, frame = 0
 171              		@ frame_needed = 0, uses_anonymous_args = 0
 172              		@ link register save eliminated.
 173              	.LVL10:
  38:..\u8g2-master\csrc/u8g2_d_memory.c ****   static uint8_t buf[1024];
  39:..\u8g2-master\csrc/u8g2_d_memory.c ****   *page_cnt = 8;
 174              		.loc 1 39 0
 175 0000 0823     		movs	r3, #8
 176 0002 0370     		strb	r3, [r0]
  40:..\u8g2-master\csrc/u8g2_d_memory.c ****   return buf;
  41:..\u8g2-master\csrc/u8g2_d_memory.c **** }
 177              		.loc 1 41 0
 178 0004 0048     		ldr	r0, .L17
 179              	.LVL11:
 180 0006 7047     		bx	lr
 181              	.L18:
 182              		.align	2
 183              	.L17:
 184 0008 00050000 		.word	.LANCHOR0+1280
 185              		.cfi_endproc
 186              	.LFE5:
 187              		.size	u8g2_m_16_8_f, .-u8g2_m_16_8_f
ARM GAS  C:\Users\info\AppData\Local\Temp\ccfHjuLM.s 			page 5


 188              		.section	.text.u8g2_m_9_5_1,"ax",%progbits
 189              		.align	2
 190              		.global	u8g2_m_9_5_1
 191              		.thumb
 192              		.thumb_func
 193              		.type	u8g2_m_9_5_1, %function
 194              	u8g2_m_9_5_1:
 195              	.LFB6:
  42:..\u8g2-master\csrc/u8g2_d_memory.c **** uint8_t *u8g2_m_9_5_1(uint8_t *page_cnt)
  43:..\u8g2-master\csrc/u8g2_d_memory.c **** {
 196              		.loc 1 43 0
 197              		.cfi_startproc
 198              		@ args = 0, pretend = 0, frame = 0
 199              		@ frame_needed = 0, uses_anonymous_args = 0
 200              		@ link register save eliminated.
 201              	.LVL12:
  44:..\u8g2-master\csrc/u8g2_d_memory.c ****   static uint8_t buf[72];
  45:..\u8g2-master\csrc/u8g2_d_memory.c ****   *page_cnt = 1;
 202              		.loc 1 45 0
 203 0000 0123     		movs	r3, #1
 204 0002 0370     		strb	r3, [r0]
  46:..\u8g2-master\csrc/u8g2_d_memory.c ****   return buf;
  47:..\u8g2-master\csrc/u8g2_d_memory.c **** }
 205              		.loc 1 47 0
 206 0004 0048     		ldr	r0, .L20
 207              	.LVL13:
 208 0006 7047     		bx	lr
 209              	.L21:
 210              		.align	2
 211              	.L20:
 212 0008 00090000 		.word	.LANCHOR0+2304
 213              		.cfi_endproc
 214              	.LFE6:
 215              		.size	u8g2_m_9_5_1, .-u8g2_m_9_5_1
 216              		.section	.text.u8g2_m_9_5_2,"ax",%progbits
 217              		.align	2
 218              		.global	u8g2_m_9_5_2
 219              		.thumb
 220              		.thumb_func
 221              		.type	u8g2_m_9_5_2, %function
 222              	u8g2_m_9_5_2:
 223              	.LFB7:
  48:..\u8g2-master\csrc/u8g2_d_memory.c **** uint8_t *u8g2_m_9_5_2(uint8_t *page_cnt)
  49:..\u8g2-master\csrc/u8g2_d_memory.c **** {
 224              		.loc 1 49 0
 225              		.cfi_startproc
 226              		@ args = 0, pretend = 0, frame = 0
 227              		@ frame_needed = 0, uses_anonymous_args = 0
 228              		@ link register save eliminated.
 229              	.LVL14:
  50:..\u8g2-master\csrc/u8g2_d_memory.c ****   static uint8_t buf[144];
  51:..\u8g2-master\csrc/u8g2_d_memory.c ****   *page_cnt = 2;
 230              		.loc 1 51 0
 231 0000 0223     		movs	r3, #2
 232 0002 0370     		strb	r3, [r0]
  52:..\u8g2-master\csrc/u8g2_d_memory.c ****   return buf;
  53:..\u8g2-master\csrc/u8g2_d_memory.c **** }
ARM GAS  C:\Users\info\AppData\Local\Temp\ccfHjuLM.s 			page 6


 233              		.loc 1 53 0
 234 0004 0048     		ldr	r0, .L23
 235              	.LVL15:
 236 0006 7047     		bx	lr
 237              	.L24:
 238              		.align	2
 239              	.L23:
 240 0008 48090000 		.word	.LANCHOR0+2376
 241              		.cfi_endproc
 242              	.LFE7:
 243              		.size	u8g2_m_9_5_2, .-u8g2_m_9_5_2
 244              		.section	.text.u8g2_m_9_5_f,"ax",%progbits
 245              		.align	2
 246              		.global	u8g2_m_9_5_f
 247              		.thumb
 248              		.thumb_func
 249              		.type	u8g2_m_9_5_f, %function
 250              	u8g2_m_9_5_f:
 251              	.LFB8:
  54:..\u8g2-master\csrc/u8g2_d_memory.c **** uint8_t *u8g2_m_9_5_f(uint8_t *page_cnt)
  55:..\u8g2-master\csrc/u8g2_d_memory.c **** {
 252              		.loc 1 55 0
 253              		.cfi_startproc
 254              		@ args = 0, pretend = 0, frame = 0
 255              		@ frame_needed = 0, uses_anonymous_args = 0
 256              		@ link register save eliminated.
 257              	.LVL16:
  56:..\u8g2-master\csrc/u8g2_d_memory.c ****   static uint8_t buf[360];
  57:..\u8g2-master\csrc/u8g2_d_memory.c ****   *page_cnt = 5;
 258              		.loc 1 57 0
 259 0000 0523     		movs	r3, #5
 260 0002 0370     		strb	r3, [r0]
  58:..\u8g2-master\csrc/u8g2_d_memory.c ****   return buf;
  59:..\u8g2-master\csrc/u8g2_d_memory.c **** }
 261              		.loc 1 59 0
 262 0004 0048     		ldr	r0, .L26
 263              	.LVL17:
 264 0006 7047     		bx	lr
 265              	.L27:
 266              		.align	2
 267              	.L26:
 268 0008 D8090000 		.word	.LANCHOR0+2520
 269              		.cfi_endproc
 270              	.LFE8:
 271              		.size	u8g2_m_9_5_f, .-u8g2_m_9_5_f
 272              		.section	.text.u8g2_m_8_4_1,"ax",%progbits
 273              		.align	2
 274              		.global	u8g2_m_8_4_1
 275              		.thumb
 276              		.thumb_func
 277              		.type	u8g2_m_8_4_1, %function
 278              	u8g2_m_8_4_1:
 279              	.LFB9:
  60:..\u8g2-master\csrc/u8g2_d_memory.c **** uint8_t *u8g2_m_8_4_1(uint8_t *page_cnt)
  61:..\u8g2-master\csrc/u8g2_d_memory.c **** {
 280              		.loc 1 61 0
 281              		.cfi_startproc
ARM GAS  C:\Users\info\AppData\Local\Temp\ccfHjuLM.s 			page 7


 282              		@ args = 0, pretend = 0, frame = 0
 283              		@ frame_needed = 0, uses_anonymous_args = 0
 284              		@ link register save eliminated.
 285              	.LVL18:
  62:..\u8g2-master\csrc/u8g2_d_memory.c ****   static uint8_t buf[64];
  63:..\u8g2-master\csrc/u8g2_d_memory.c ****   *page_cnt = 1;
 286              		.loc 1 63 0
 287 0000 0123     		movs	r3, #1
 288 0002 0370     		strb	r3, [r0]
  64:..\u8g2-master\csrc/u8g2_d_memory.c ****   return buf;
  65:..\u8g2-master\csrc/u8g2_d_memory.c **** }
 289              		.loc 1 65 0
 290 0004 0048     		ldr	r0, .L29
 291              	.LVL19:
 292 0006 7047     		bx	lr
 293              	.L30:
 294              		.align	2
 295              	.L29:
 296 0008 400B0000 		.word	.LANCHOR0+2880
 297              		.cfi_endproc
 298              	.LFE9:
 299              		.size	u8g2_m_8_4_1, .-u8g2_m_8_4_1
 300              		.section	.text.u8g2_m_8_4_2,"ax",%progbits
 301              		.align	2
 302              		.global	u8g2_m_8_4_2
 303              		.thumb
 304              		.thumb_func
 305              		.type	u8g2_m_8_4_2, %function
 306              	u8g2_m_8_4_2:
 307              	.LFB10:
  66:..\u8g2-master\csrc/u8g2_d_memory.c **** uint8_t *u8g2_m_8_4_2(uint8_t *page_cnt)
  67:..\u8g2-master\csrc/u8g2_d_memory.c **** {
 308              		.loc 1 67 0
 309              		.cfi_startproc
 310              		@ args = 0, pretend = 0, frame = 0
 311              		@ frame_needed = 0, uses_anonymous_args = 0
 312              		@ link register save eliminated.
 313              	.LVL20:
  68:..\u8g2-master\csrc/u8g2_d_memory.c ****   static uint8_t buf[128];
  69:..\u8g2-master\csrc/u8g2_d_memory.c ****   *page_cnt = 2;
 314              		.loc 1 69 0
 315 0000 0223     		movs	r3, #2
 316 0002 0370     		strb	r3, [r0]
  70:..\u8g2-master\csrc/u8g2_d_memory.c ****   return buf;
  71:..\u8g2-master\csrc/u8g2_d_memory.c **** }
 317              		.loc 1 71 0
 318 0004 0048     		ldr	r0, .L32
 319              	.LVL21:
 320 0006 7047     		bx	lr
 321              	.L33:
 322              		.align	2
 323              	.L32:
 324 0008 800B0000 		.word	.LANCHOR0+2944
 325              		.cfi_endproc
 326              	.LFE10:
 327              		.size	u8g2_m_8_4_2, .-u8g2_m_8_4_2
 328              		.section	.text.u8g2_m_8_4_f,"ax",%progbits
ARM GAS  C:\Users\info\AppData\Local\Temp\ccfHjuLM.s 			page 8


 329              		.align	2
 330              		.global	u8g2_m_8_4_f
 331              		.thumb
 332              		.thumb_func
 333              		.type	u8g2_m_8_4_f, %function
 334              	u8g2_m_8_4_f:
 335              	.LFB11:
  72:..\u8g2-master\csrc/u8g2_d_memory.c **** uint8_t *u8g2_m_8_4_f(uint8_t *page_cnt)
  73:..\u8g2-master\csrc/u8g2_d_memory.c **** {
 336              		.loc 1 73 0
 337              		.cfi_startproc
 338              		@ args = 0, pretend = 0, frame = 0
 339              		@ frame_needed = 0, uses_anonymous_args = 0
 340              		@ link register save eliminated.
 341              	.LVL22:
  74:..\u8g2-master\csrc/u8g2_d_memory.c ****   static uint8_t buf[256];
  75:..\u8g2-master\csrc/u8g2_d_memory.c ****   *page_cnt = 4;
 342              		.loc 1 75 0
 343 0000 0423     		movs	r3, #4
 344 0002 0370     		strb	r3, [r0]
  76:..\u8g2-master\csrc/u8g2_d_memory.c ****   return buf;
  77:..\u8g2-master\csrc/u8g2_d_memory.c **** }
 345              		.loc 1 77 0
 346 0004 0048     		ldr	r0, .L35
 347              	.LVL23:
 348 0006 7047     		bx	lr
 349              	.L36:
 350              		.align	2
 351              	.L35:
 352 0008 000C0000 		.word	.LANCHOR0+3072
 353              		.cfi_endproc
 354              	.LFE11:
 355              		.size	u8g2_m_8_4_f, .-u8g2_m_8_4_f
 356              		.section	.text.u8g2_m_8_16_1,"ax",%progbits
 357              		.align	2
 358              		.global	u8g2_m_8_16_1
 359              		.thumb
 360              		.thumb_func
 361              		.type	u8g2_m_8_16_1, %function
 362              	u8g2_m_8_16_1:
 363              	.LFB12:
  78:..\u8g2-master\csrc/u8g2_d_memory.c **** uint8_t *u8g2_m_8_16_1(uint8_t *page_cnt)
  79:..\u8g2-master\csrc/u8g2_d_memory.c **** {
 364              		.loc 1 79 0
 365              		.cfi_startproc
 366              		@ args = 0, pretend = 0, frame = 0
 367              		@ frame_needed = 0, uses_anonymous_args = 0
 368              		@ link register save eliminated.
 369              	.LVL24:
  80:..\u8g2-master\csrc/u8g2_d_memory.c ****   static uint8_t buf[64];
  81:..\u8g2-master\csrc/u8g2_d_memory.c ****   *page_cnt = 1;
 370              		.loc 1 81 0
 371 0000 0123     		movs	r3, #1
 372 0002 0370     		strb	r3, [r0]
  82:..\u8g2-master\csrc/u8g2_d_memory.c ****   return buf;
  83:..\u8g2-master\csrc/u8g2_d_memory.c **** }
 373              		.loc 1 83 0
ARM GAS  C:\Users\info\AppData\Local\Temp\ccfHjuLM.s 			page 9


 374 0004 0048     		ldr	r0, .L38
 375              	.LVL25:
 376 0006 7047     		bx	lr
 377              	.L39:
 378              		.align	2
 379              	.L38:
 380 0008 000D0000 		.word	.LANCHOR0+3328
 381              		.cfi_endproc
 382              	.LFE12:
 383              		.size	u8g2_m_8_16_1, .-u8g2_m_8_16_1
 384              		.section	.text.u8g2_m_8_16_2,"ax",%progbits
 385              		.align	2
 386              		.global	u8g2_m_8_16_2
 387              		.thumb
 388              		.thumb_func
 389              		.type	u8g2_m_8_16_2, %function
 390              	u8g2_m_8_16_2:
 391              	.LFB13:
  84:..\u8g2-master\csrc/u8g2_d_memory.c **** uint8_t *u8g2_m_8_16_2(uint8_t *page_cnt)
  85:..\u8g2-master\csrc/u8g2_d_memory.c **** {
 392              		.loc 1 85 0
 393              		.cfi_startproc
 394              		@ args = 0, pretend = 0, frame = 0
 395              		@ frame_needed = 0, uses_anonymous_args = 0
 396              		@ link register save eliminated.
 397              	.LVL26:
  86:..\u8g2-master\csrc/u8g2_d_memory.c ****   static uint8_t buf[128];
  87:..\u8g2-master\csrc/u8g2_d_memory.c ****   *page_cnt = 2;
 398              		.loc 1 87 0
 399 0000 0223     		movs	r3, #2
 400 0002 0370     		strb	r3, [r0]
  88:..\u8g2-master\csrc/u8g2_d_memory.c ****   return buf;
  89:..\u8g2-master\csrc/u8g2_d_memory.c **** }
 401              		.loc 1 89 0
 402 0004 0048     		ldr	r0, .L41
 403              	.LVL27:
 404 0006 7047     		bx	lr
 405              	.L42:
 406              		.align	2
 407              	.L41:
 408 0008 400D0000 		.word	.LANCHOR0+3392
 409              		.cfi_endproc
 410              	.LFE13:
 411              		.size	u8g2_m_8_16_2, .-u8g2_m_8_16_2
 412              		.section	.text.u8g2_m_8_16_f,"ax",%progbits
 413              		.align	2
 414              		.global	u8g2_m_8_16_f
 415              		.thumb
 416              		.thumb_func
 417              		.type	u8g2_m_8_16_f, %function
 418              	u8g2_m_8_16_f:
 419              	.LFB14:
  90:..\u8g2-master\csrc/u8g2_d_memory.c **** uint8_t *u8g2_m_8_16_f(uint8_t *page_cnt)
  91:..\u8g2-master\csrc/u8g2_d_memory.c **** {
 420              		.loc 1 91 0
 421              		.cfi_startproc
 422              		@ args = 0, pretend = 0, frame = 0
ARM GAS  C:\Users\info\AppData\Local\Temp\ccfHjuLM.s 			page 10


 423              		@ frame_needed = 0, uses_anonymous_args = 0
 424              		@ link register save eliminated.
 425              	.LVL28:
  92:..\u8g2-master\csrc/u8g2_d_memory.c ****   static uint8_t buf[1024];
  93:..\u8g2-master\csrc/u8g2_d_memory.c ****   *page_cnt = 16;
 426              		.loc 1 93 0
 427 0000 1023     		movs	r3, #16
 428 0002 0370     		strb	r3, [r0]
  94:..\u8g2-master\csrc/u8g2_d_memory.c ****   return buf;
  95:..\u8g2-master\csrc/u8g2_d_memory.c **** }
 429              		.loc 1 95 0
 430 0004 0048     		ldr	r0, .L44
 431              	.LVL29:
 432 0006 7047     		bx	lr
 433              	.L45:
 434              		.align	2
 435              	.L44:
 436 0008 C00D0000 		.word	.LANCHOR0+3520
 437              		.cfi_endproc
 438              	.LFE14:
 439              		.size	u8g2_m_8_16_f, .-u8g2_m_8_16_f
 440              		.section	.text.u8g2_m_12_12_1,"ax",%progbits
 441              		.align	2
 442              		.global	u8g2_m_12_12_1
 443              		.thumb
 444              		.thumb_func
 445              		.type	u8g2_m_12_12_1, %function
 446              	u8g2_m_12_12_1:
 447              	.LFB15:
  96:..\u8g2-master\csrc/u8g2_d_memory.c **** uint8_t *u8g2_m_12_12_1(uint8_t *page_cnt)
  97:..\u8g2-master\csrc/u8g2_d_memory.c **** {
 448              		.loc 1 97 0
 449              		.cfi_startproc
 450              		@ args = 0, pretend = 0, frame = 0
 451              		@ frame_needed = 0, uses_anonymous_args = 0
 452              		@ link register save eliminated.
 453              	.LVL30:
  98:..\u8g2-master\csrc/u8g2_d_memory.c ****   static uint8_t buf[96];
  99:..\u8g2-master\csrc/u8g2_d_memory.c ****   *page_cnt = 1;
 454              		.loc 1 99 0
 455 0000 0123     		movs	r3, #1
 456 0002 0370     		strb	r3, [r0]
 100:..\u8g2-master\csrc/u8g2_d_memory.c ****   return buf;
 101:..\u8g2-master\csrc/u8g2_d_memory.c **** }
 457              		.loc 1 101 0
 458 0004 0048     		ldr	r0, .L47
 459              	.LVL31:
 460 0006 7047     		bx	lr
 461              	.L48:
 462              		.align	2
 463              	.L47:
 464 0008 C0110000 		.word	.LANCHOR1+200
 465              		.cfi_endproc
 466              	.LFE15:
 467              		.size	u8g2_m_12_12_1, .-u8g2_m_12_12_1
 468              		.section	.text.u8g2_m_12_12_2,"ax",%progbits
 469              		.align	2
ARM GAS  C:\Users\info\AppData\Local\Temp\ccfHjuLM.s 			page 11


 470              		.global	u8g2_m_12_12_2
 471              		.thumb
 472              		.thumb_func
 473              		.type	u8g2_m_12_12_2, %function
 474              	u8g2_m_12_12_2:
 475              	.LFB16:
 102:..\u8g2-master\csrc/u8g2_d_memory.c **** uint8_t *u8g2_m_12_12_2(uint8_t *page_cnt)
 103:..\u8g2-master\csrc/u8g2_d_memory.c **** {
 476              		.loc 1 103 0
 477              		.cfi_startproc
 478              		@ args = 0, pretend = 0, frame = 0
 479              		@ frame_needed = 0, uses_anonymous_args = 0
 480              		@ link register save eliminated.
 481              	.LVL32:
 104:..\u8g2-master\csrc/u8g2_d_memory.c ****   static uint8_t buf[192];
 105:..\u8g2-master\csrc/u8g2_d_memory.c ****   *page_cnt = 2;
 482              		.loc 1 105 0
 483 0000 0223     		movs	r3, #2
 484 0002 0370     		strb	r3, [r0]
 106:..\u8g2-master\csrc/u8g2_d_memory.c ****   return buf;
 107:..\u8g2-master\csrc/u8g2_d_memory.c **** }
 485              		.loc 1 107 0
 486 0004 0048     		ldr	r0, .L50
 487              	.LVL33:
 488 0006 7047     		bx	lr
 489              	.L51:
 490              		.align	2
 491              	.L50:
 492 0008 20120000 		.word	.LANCHOR1+296
 493              		.cfi_endproc
 494              	.LFE16:
 495              		.size	u8g2_m_12_12_2, .-u8g2_m_12_12_2
 496              		.section	.text.u8g2_m_12_12_f,"ax",%progbits
 497              		.align	2
 498              		.global	u8g2_m_12_12_f
 499              		.thumb
 500              		.thumb_func
 501              		.type	u8g2_m_12_12_f, %function
 502              	u8g2_m_12_12_f:
 503              	.LFB17:
 108:..\u8g2-master\csrc/u8g2_d_memory.c **** uint8_t *u8g2_m_12_12_f(uint8_t *page_cnt)
 109:..\u8g2-master\csrc/u8g2_d_memory.c **** {
 504              		.loc 1 109 0
 505              		.cfi_startproc
 506              		@ args = 0, pretend = 0, frame = 0
 507              		@ frame_needed = 0, uses_anonymous_args = 0
 508              		@ link register save eliminated.
 509              	.LVL34:
 110:..\u8g2-master\csrc/u8g2_d_memory.c ****   static uint8_t buf[1152];
 111:..\u8g2-master\csrc/u8g2_d_memory.c ****   *page_cnt = 12;
 510              		.loc 1 111 0
 511 0000 0C23     		movs	r3, #12
 512 0002 0370     		strb	r3, [r0]
 112:..\u8g2-master\csrc/u8g2_d_memory.c ****   return buf;
 113:..\u8g2-master\csrc/u8g2_d_memory.c **** }
 513              		.loc 1 113 0
 514 0004 0048     		ldr	r0, .L53
ARM GAS  C:\Users\info\AppData\Local\Temp\ccfHjuLM.s 			page 12


 515              	.LVL35:
 516 0006 7047     		bx	lr
 517              	.L54:
 518              		.align	2
 519              	.L53:
 520 0008 E0120000 		.word	.LANCHOR1+488
 521              		.cfi_endproc
 522              	.LFE17:
 523              		.size	u8g2_m_12_12_f, .-u8g2_m_12_12_f
 524              		.section	.text.u8g2_m_16_16_1,"ax",%progbits
 525              		.align	2
 526              		.global	u8g2_m_16_16_1
 527              		.thumb
 528              		.thumb_func
 529              		.type	u8g2_m_16_16_1, %function
 530              	u8g2_m_16_16_1:
 531              	.LFB18:
 114:..\u8g2-master\csrc/u8g2_d_memory.c **** uint8_t *u8g2_m_16_16_1(uint8_t *page_cnt)
 115:..\u8g2-master\csrc/u8g2_d_memory.c **** {
 532              		.loc 1 115 0
 533              		.cfi_startproc
 534              		@ args = 0, pretend = 0, frame = 0
 535              		@ frame_needed = 0, uses_anonymous_args = 0
 536              		@ link register save eliminated.
 537              	.LVL36:
 116:..\u8g2-master\csrc/u8g2_d_memory.c ****   static uint8_t buf[128];
 117:..\u8g2-master\csrc/u8g2_d_memory.c ****   *page_cnt = 1;
 538              		.loc 1 117 0
 539 0000 0123     		movs	r3, #1
 540 0002 0370     		strb	r3, [r0]
 118:..\u8g2-master\csrc/u8g2_d_memory.c ****   return buf;
 119:..\u8g2-master\csrc/u8g2_d_memory.c **** }
 541              		.loc 1 119 0
 542 0004 0048     		ldr	r0, .L56
 543              	.LVL37:
 544 0006 7047     		bx	lr
 545              	.L57:
 546              		.align	2
 547              	.L56:
 548 0008 60170000 		.word	.LANCHOR1+1640
 549              		.cfi_endproc
 550              	.LFE18:
 551              		.size	u8g2_m_16_16_1, .-u8g2_m_16_16_1
 552              		.section	.text.u8g2_m_16_16_2,"ax",%progbits
 553              		.align	2
 554              		.global	u8g2_m_16_16_2
 555              		.thumb
 556              		.thumb_func
 557              		.type	u8g2_m_16_16_2, %function
 558              	u8g2_m_16_16_2:
 559              	.LFB19:
 120:..\u8g2-master\csrc/u8g2_d_memory.c **** uint8_t *u8g2_m_16_16_2(uint8_t *page_cnt)
 121:..\u8g2-master\csrc/u8g2_d_memory.c **** {
 560              		.loc 1 121 0
 561              		.cfi_startproc
 562              		@ args = 0, pretend = 0, frame = 0
 563              		@ frame_needed = 0, uses_anonymous_args = 0
ARM GAS  C:\Users\info\AppData\Local\Temp\ccfHjuLM.s 			page 13


 564              		@ link register save eliminated.
 565              	.LVL38:
 122:..\u8g2-master\csrc/u8g2_d_memory.c ****   static uint8_t buf[256];
 123:..\u8g2-master\csrc/u8g2_d_memory.c ****   *page_cnt = 2;
 566              		.loc 1 123 0
 567 0000 0223     		movs	r3, #2
 568 0002 0370     		strb	r3, [r0]
 124:..\u8g2-master\csrc/u8g2_d_memory.c ****   return buf;
 125:..\u8g2-master\csrc/u8g2_d_memory.c **** }
 569              		.loc 1 125 0
 570 0004 0048     		ldr	r0, .L59
 571              	.LVL39:
 572 0006 7047     		bx	lr
 573              	.L60:
 574              		.align	2
 575              	.L59:
 576 0008 E0170000 		.word	.LANCHOR1+1768
 577              		.cfi_endproc
 578              	.LFE19:
 579              		.size	u8g2_m_16_16_2, .-u8g2_m_16_16_2
 580              		.section	.text.u8g2_m_16_16_f,"ax",%progbits
 581              		.align	2
 582              		.global	u8g2_m_16_16_f
 583              		.thumb
 584              		.thumb_func
 585              		.type	u8g2_m_16_16_f, %function
 586              	u8g2_m_16_16_f:
 587              	.LFB20:
 126:..\u8g2-master\csrc/u8g2_d_memory.c **** uint8_t *u8g2_m_16_16_f(uint8_t *page_cnt)
 127:..\u8g2-master\csrc/u8g2_d_memory.c **** {
 588              		.loc 1 127 0
 589              		.cfi_startproc
 590              		@ args = 0, pretend = 0, frame = 0
 591              		@ frame_needed = 0, uses_anonymous_args = 0
 592              		@ link register save eliminated.
 593              	.LVL40:
 128:..\u8g2-master\csrc/u8g2_d_memory.c ****   static uint8_t buf[2048];
 129:..\u8g2-master\csrc/u8g2_d_memory.c ****   *page_cnt = 16;
 594              		.loc 1 129 0
 595 0000 1023     		movs	r3, #16
 596 0002 0370     		strb	r3, [r0]
 130:..\u8g2-master\csrc/u8g2_d_memory.c ****   return buf;
 131:..\u8g2-master\csrc/u8g2_d_memory.c **** }
 597              		.loc 1 131 0
 598 0004 0048     		ldr	r0, .L62
 599              	.LVL41:
 600 0006 7047     		bx	lr
 601              	.L63:
 602              		.align	2
 603              	.L62:
 604 0008 E0180000 		.word	.LANCHOR1+2024
 605              		.cfi_endproc
 606              	.LFE20:
 607              		.size	u8g2_m_16_16_f, .-u8g2_m_16_16_f
 608              		.section	.text.u8g2_m_20_20_1,"ax",%progbits
 609              		.align	2
 610              		.global	u8g2_m_20_20_1
ARM GAS  C:\Users\info\AppData\Local\Temp\ccfHjuLM.s 			page 14


 611              		.thumb
 612              		.thumb_func
 613              		.type	u8g2_m_20_20_1, %function
 614              	u8g2_m_20_20_1:
 615              	.LFB21:
 132:..\u8g2-master\csrc/u8g2_d_memory.c **** uint8_t *u8g2_m_20_20_1(uint8_t *page_cnt)
 133:..\u8g2-master\csrc/u8g2_d_memory.c **** {
 616              		.loc 1 133 0
 617              		.cfi_startproc
 618              		@ args = 0, pretend = 0, frame = 0
 619              		@ frame_needed = 0, uses_anonymous_args = 0
 620              		@ link register save eliminated.
 621              	.LVL42:
 134:..\u8g2-master\csrc/u8g2_d_memory.c ****   static uint8_t buf[160];
 135:..\u8g2-master\csrc/u8g2_d_memory.c ****   *page_cnt = 1;
 622              		.loc 1 135 0
 623 0000 0123     		movs	r3, #1
 624 0002 0370     		strb	r3, [r0]
 136:..\u8g2-master\csrc/u8g2_d_memory.c ****   return buf;
 137:..\u8g2-master\csrc/u8g2_d_memory.c **** }
 625              		.loc 1 137 0
 626 0004 0048     		ldr	r0, .L65
 627              	.LVL43:
 628 0006 7047     		bx	lr
 629              	.L66:
 630              		.align	2
 631              	.L65:
 632 0008 E0200000 		.word	.LANCHOR1+4072
 633              		.cfi_endproc
 634              	.LFE21:
 635              		.size	u8g2_m_20_20_1, .-u8g2_m_20_20_1
 636              		.section	.text.u8g2_m_20_20_2,"ax",%progbits
 637              		.align	2
 638              		.global	u8g2_m_20_20_2
 639              		.thumb
 640              		.thumb_func
 641              		.type	u8g2_m_20_20_2, %function
 642              	u8g2_m_20_20_2:
 643              	.LFB22:
 138:..\u8g2-master\csrc/u8g2_d_memory.c **** uint8_t *u8g2_m_20_20_2(uint8_t *page_cnt)
 139:..\u8g2-master\csrc/u8g2_d_memory.c **** {
 644              		.loc 1 139 0
 645              		.cfi_startproc
 646              		@ args = 0, pretend = 0, frame = 0
 647              		@ frame_needed = 0, uses_anonymous_args = 0
 648              		@ link register save eliminated.
 649              	.LVL44:
 140:..\u8g2-master\csrc/u8g2_d_memory.c ****   static uint8_t buf[320];
 141:..\u8g2-master\csrc/u8g2_d_memory.c ****   *page_cnt = 2;
 650              		.loc 1 141 0
 651 0000 0223     		movs	r3, #2
 652 0002 0370     		strb	r3, [r0]
 142:..\u8g2-master\csrc/u8g2_d_memory.c ****   return buf;
 143:..\u8g2-master\csrc/u8g2_d_memory.c **** }
 653              		.loc 1 143 0
 654 0004 0048     		ldr	r0, .L68
 655              	.LVL45:
ARM GAS  C:\Users\info\AppData\Local\Temp\ccfHjuLM.s 			page 15


 656 0006 7047     		bx	lr
 657              	.L69:
 658              		.align	2
 659              	.L68:
 660 0008 80210000 		.word	.LANCHOR2-112
 661              		.cfi_endproc
 662              	.LFE22:
 663              		.size	u8g2_m_20_20_2, .-u8g2_m_20_20_2
 664              		.section	.text.u8g2_m_20_20_f,"ax",%progbits
 665              		.align	2
 666              		.global	u8g2_m_20_20_f
 667              		.thumb
 668              		.thumb_func
 669              		.type	u8g2_m_20_20_f, %function
 670              	u8g2_m_20_20_f:
 671              	.LFB23:
 144:..\u8g2-master\csrc/u8g2_d_memory.c **** uint8_t *u8g2_m_20_20_f(uint8_t *page_cnt)
 145:..\u8g2-master\csrc/u8g2_d_memory.c **** {
 672              		.loc 1 145 0
 673              		.cfi_startproc
 674              		@ args = 0, pretend = 0, frame = 0
 675              		@ frame_needed = 0, uses_anonymous_args = 0
 676              		@ link register save eliminated.
 677              	.LVL46:
 146:..\u8g2-master\csrc/u8g2_d_memory.c ****   static uint8_t buf[3200];
 147:..\u8g2-master\csrc/u8g2_d_memory.c ****   *page_cnt = 20;
 678              		.loc 1 147 0
 679 0000 1423     		movs	r3, #20
 680 0002 0370     		strb	r3, [r0]
 148:..\u8g2-master\csrc/u8g2_d_memory.c ****   return buf;
 149:..\u8g2-master\csrc/u8g2_d_memory.c **** }
 681              		.loc 1 149 0
 682 0004 0048     		ldr	r0, .L71
 683              	.LVL47:
 684 0006 7047     		bx	lr
 685              	.L72:
 686              		.align	2
 687              	.L71:
 688 0008 C0220000 		.word	.LANCHOR2+208
 689              		.cfi_endproc
 690              	.LFE23:
 691              		.size	u8g2_m_20_20_f, .-u8g2_m_20_20_f
 692              		.section	.text.u8g2_m_32_8_1,"ax",%progbits
 693              		.align	2
 694              		.global	u8g2_m_32_8_1
 695              		.thumb
 696              		.thumb_func
 697              		.type	u8g2_m_32_8_1, %function
 698              	u8g2_m_32_8_1:
 699              	.LFB24:
 150:..\u8g2-master\csrc/u8g2_d_memory.c **** uint8_t *u8g2_m_32_8_1(uint8_t *page_cnt)
 151:..\u8g2-master\csrc/u8g2_d_memory.c **** {
 700              		.loc 1 151 0
 701              		.cfi_startproc
 702              		@ args = 0, pretend = 0, frame = 0
 703              		@ frame_needed = 0, uses_anonymous_args = 0
 704              		@ link register save eliminated.
ARM GAS  C:\Users\info\AppData\Local\Temp\ccfHjuLM.s 			page 16


 705              	.LVL48:
 152:..\u8g2-master\csrc/u8g2_d_memory.c ****   static uint8_t buf[256];
 153:..\u8g2-master\csrc/u8g2_d_memory.c ****   *page_cnt = 1;
 706              		.loc 1 153 0
 707 0000 0123     		movs	r3, #1
 708 0002 0370     		strb	r3, [r0]
 154:..\u8g2-master\csrc/u8g2_d_memory.c ****   return buf;
 155:..\u8g2-master\csrc/u8g2_d_memory.c **** }
 709              		.loc 1 155 0
 710 0004 0048     		ldr	r0, .L74
 711              	.LVL49:
 712 0006 7047     		bx	lr
 713              	.L75:
 714              		.align	2
 715              	.L74:
 716 0008 402F0000 		.word	.LANCHOR2+3408
 717              		.cfi_endproc
 718              	.LFE24:
 719              		.size	u8g2_m_32_8_1, .-u8g2_m_32_8_1
 720              		.section	.text.u8g2_m_32_8_2,"ax",%progbits
 721              		.align	2
 722              		.global	u8g2_m_32_8_2
 723              		.thumb
 724              		.thumb_func
 725              		.type	u8g2_m_32_8_2, %function
 726              	u8g2_m_32_8_2:
 727              	.LFB25:
 156:..\u8g2-master\csrc/u8g2_d_memory.c **** uint8_t *u8g2_m_32_8_2(uint8_t *page_cnt)
 157:..\u8g2-master\csrc/u8g2_d_memory.c **** {
 728              		.loc 1 157 0
 729              		.cfi_startproc
 730              		@ args = 0, pretend = 0, frame = 0
 731              		@ frame_needed = 0, uses_anonymous_args = 0
 732              		@ link register save eliminated.
 733              	.LVL50:
 158:..\u8g2-master\csrc/u8g2_d_memory.c ****   static uint8_t buf[512];
 159:..\u8g2-master\csrc/u8g2_d_memory.c ****   *page_cnt = 2;
 734              		.loc 1 159 0
 735 0000 0223     		movs	r3, #2
 736 0002 0370     		strb	r3, [r0]
 160:..\u8g2-master\csrc/u8g2_d_memory.c ****   return buf;
 161:..\u8g2-master\csrc/u8g2_d_memory.c **** }
 737              		.loc 1 161 0
 738 0004 0048     		ldr	r0, .L77
 739              	.LVL51:
 740 0006 7047     		bx	lr
 741              	.L78:
 742              		.align	2
 743              	.L77:
 744 0008 40300000 		.word	.LANCHOR2+3664
 745              		.cfi_endproc
 746              	.LFE25:
 747              		.size	u8g2_m_32_8_2, .-u8g2_m_32_8_2
 748              		.section	.text.u8g2_m_32_8_f,"ax",%progbits
 749              		.align	2
 750              		.global	u8g2_m_32_8_f
 751              		.thumb
ARM GAS  C:\Users\info\AppData\Local\Temp\ccfHjuLM.s 			page 17


 752              		.thumb_func
 753              		.type	u8g2_m_32_8_f, %function
 754              	u8g2_m_32_8_f:
 755              	.LFB26:
 162:..\u8g2-master\csrc/u8g2_d_memory.c **** uint8_t *u8g2_m_32_8_f(uint8_t *page_cnt)
 163:..\u8g2-master\csrc/u8g2_d_memory.c **** {
 756              		.loc 1 163 0
 757              		.cfi_startproc
 758              		@ args = 0, pretend = 0, frame = 0
 759              		@ frame_needed = 0, uses_anonymous_args = 0
 760              		@ link register save eliminated.
 761              	.LVL52:
 164:..\u8g2-master\csrc/u8g2_d_memory.c ****   static uint8_t buf[2048];
 165:..\u8g2-master\csrc/u8g2_d_memory.c ****   *page_cnt = 8;
 762              		.loc 1 165 0
 763 0000 0823     		movs	r3, #8
 764 0002 0370     		strb	r3, [r0]
 166:..\u8g2-master\csrc/u8g2_d_memory.c ****   return buf;
 167:..\u8g2-master\csrc/u8g2_d_memory.c **** }
 765              		.loc 1 167 0
 766 0004 0048     		ldr	r0, .L80
 767              	.LVL53:
 768 0006 7047     		bx	lr
 769              	.L81:
 770              		.align	2
 771              	.L80:
 772 0008 40320000 		.word	.LANCHOR3-168
 773              		.cfi_endproc
 774              	.LFE26:
 775              		.size	u8g2_m_32_8_f, .-u8g2_m_32_8_f
 776              		.section	.text.u8g2_m_8_6_1,"ax",%progbits
 777              		.align	2
 778              		.global	u8g2_m_8_6_1
 779              		.thumb
 780              		.thumb_func
 781              		.type	u8g2_m_8_6_1, %function
 782              	u8g2_m_8_6_1:
 783              	.LFB27:
 168:..\u8g2-master\csrc/u8g2_d_memory.c **** uint8_t *u8g2_m_8_6_1(uint8_t *page_cnt)
 169:..\u8g2-master\csrc/u8g2_d_memory.c **** {
 784              		.loc 1 169 0
 785              		.cfi_startproc
 786              		@ args = 0, pretend = 0, frame = 0
 787              		@ frame_needed = 0, uses_anonymous_args = 0
 788              		@ link register save eliminated.
 789              	.LVL54:
 170:..\u8g2-master\csrc/u8g2_d_memory.c ****   static uint8_t buf[64];
 171:..\u8g2-master\csrc/u8g2_d_memory.c ****   *page_cnt = 1;
 790              		.loc 1 171 0
 791 0000 0123     		movs	r3, #1
 792 0002 0370     		strb	r3, [r0]
 172:..\u8g2-master\csrc/u8g2_d_memory.c ****   return buf;
 173:..\u8g2-master\csrc/u8g2_d_memory.c **** }
 793              		.loc 1 173 0
 794 0004 0048     		ldr	r0, .L83
 795              	.LVL55:
 796 0006 7047     		bx	lr
ARM GAS  C:\Users\info\AppData\Local\Temp\ccfHjuLM.s 			page 18


 797              	.L84:
 798              		.align	2
 799              	.L83:
 800 0008 403A0000 		.word	.LANCHOR3+1880
 801              		.cfi_endproc
 802              	.LFE27:
 803              		.size	u8g2_m_8_6_1, .-u8g2_m_8_6_1
 804              		.section	.text.u8g2_m_8_6_2,"ax",%progbits
 805              		.align	2
 806              		.global	u8g2_m_8_6_2
 807              		.thumb
 808              		.thumb_func
 809              		.type	u8g2_m_8_6_2, %function
 810              	u8g2_m_8_6_2:
 811              	.LFB28:
 174:..\u8g2-master\csrc/u8g2_d_memory.c **** uint8_t *u8g2_m_8_6_2(uint8_t *page_cnt)
 175:..\u8g2-master\csrc/u8g2_d_memory.c **** {
 812              		.loc 1 175 0
 813              		.cfi_startproc
 814              		@ args = 0, pretend = 0, frame = 0
 815              		@ frame_needed = 0, uses_anonymous_args = 0
 816              		@ link register save eliminated.
 817              	.LVL56:
 176:..\u8g2-master\csrc/u8g2_d_memory.c ****   static uint8_t buf[128];
 177:..\u8g2-master\csrc/u8g2_d_memory.c ****   *page_cnt = 2;
 818              		.loc 1 177 0
 819 0000 0223     		movs	r3, #2
 820 0002 0370     		strb	r3, [r0]
 178:..\u8g2-master\csrc/u8g2_d_memory.c ****   return buf;
 179:..\u8g2-master\csrc/u8g2_d_memory.c **** }
 821              		.loc 1 179 0
 822 0004 0048     		ldr	r0, .L86
 823              	.LVL57:
 824 0006 7047     		bx	lr
 825              	.L87:
 826              		.align	2
 827              	.L86:
 828 0008 803A0000 		.word	.LANCHOR3+1944
 829              		.cfi_endproc
 830              	.LFE28:
 831              		.size	u8g2_m_8_6_2, .-u8g2_m_8_6_2
 832              		.section	.text.u8g2_m_8_6_f,"ax",%progbits
 833              		.align	2
 834              		.global	u8g2_m_8_6_f
 835              		.thumb
 836              		.thumb_func
 837              		.type	u8g2_m_8_6_f, %function
 838              	u8g2_m_8_6_f:
 839              	.LFB29:
 180:..\u8g2-master\csrc/u8g2_d_memory.c **** uint8_t *u8g2_m_8_6_f(uint8_t *page_cnt)
 181:..\u8g2-master\csrc/u8g2_d_memory.c **** {
 840              		.loc 1 181 0
 841              		.cfi_startproc
 842              		@ args = 0, pretend = 0, frame = 0
 843              		@ frame_needed = 0, uses_anonymous_args = 0
 844              		@ link register save eliminated.
 845              	.LVL58:
ARM GAS  C:\Users\info\AppData\Local\Temp\ccfHjuLM.s 			page 19


 182:..\u8g2-master\csrc/u8g2_d_memory.c ****   static uint8_t buf[384];
 183:..\u8g2-master\csrc/u8g2_d_memory.c ****   *page_cnt = 6;
 846              		.loc 1 183 0
 847 0000 0623     		movs	r3, #6
 848 0002 0370     		strb	r3, [r0]
 184:..\u8g2-master\csrc/u8g2_d_memory.c ****   return buf;
 185:..\u8g2-master\csrc/u8g2_d_memory.c **** }
 849              		.loc 1 185 0
 850 0004 0048     		ldr	r0, .L89
 851              	.LVL59:
 852 0006 7047     		bx	lr
 853              	.L90:
 854              		.align	2
 855              	.L89:
 856 0008 003B0000 		.word	.LANCHOR3+2072
 857              		.cfi_endproc
 858              	.LFE29:
 859              		.size	u8g2_m_8_6_f, .-u8g2_m_8_6_f
 860              		.section	.text.u8g2_m_6_8_1,"ax",%progbits
 861              		.align	2
 862              		.global	u8g2_m_6_8_1
 863              		.thumb
 864              		.thumb_func
 865              		.type	u8g2_m_6_8_1, %function
 866              	u8g2_m_6_8_1:
 867              	.LFB30:
 186:..\u8g2-master\csrc/u8g2_d_memory.c **** uint8_t *u8g2_m_6_8_1(uint8_t *page_cnt)
 187:..\u8g2-master\csrc/u8g2_d_memory.c **** {
 868              		.loc 1 187 0
 869              		.cfi_startproc
 870              		@ args = 0, pretend = 0, frame = 0
 871              		@ frame_needed = 0, uses_anonymous_args = 0
 872              		@ link register save eliminated.
 873              	.LVL60:
 188:..\u8g2-master\csrc/u8g2_d_memory.c ****   static uint8_t buf[48];
 189:..\u8g2-master\csrc/u8g2_d_memory.c ****   *page_cnt = 1;
 874              		.loc 1 189 0
 875 0000 0123     		movs	r3, #1
 876 0002 0370     		strb	r3, [r0]
 190:..\u8g2-master\csrc/u8g2_d_memory.c ****   return buf;
 191:..\u8g2-master\csrc/u8g2_d_memory.c **** }
 877              		.loc 1 191 0
 878 0004 0048     		ldr	r0, .L92
 879              	.LVL61:
 880 0006 7047     		bx	lr
 881              	.L93:
 882              		.align	2
 883              	.L92:
 884 0008 803C0000 		.word	.LANCHOR3+2456
 885              		.cfi_endproc
 886              	.LFE30:
 887              		.size	u8g2_m_6_8_1, .-u8g2_m_6_8_1
 888              		.section	.text.u8g2_m_6_8_2,"ax",%progbits
 889              		.align	2
 890              		.global	u8g2_m_6_8_2
 891              		.thumb
 892              		.thumb_func
ARM GAS  C:\Users\info\AppData\Local\Temp\ccfHjuLM.s 			page 20


 893              		.type	u8g2_m_6_8_2, %function
 894              	u8g2_m_6_8_2:
 895              	.LFB31:
 192:..\u8g2-master\csrc/u8g2_d_memory.c **** uint8_t *u8g2_m_6_8_2(uint8_t *page_cnt)
 193:..\u8g2-master\csrc/u8g2_d_memory.c **** {
 896              		.loc 1 193 0
 897              		.cfi_startproc
 898              		@ args = 0, pretend = 0, frame = 0
 899              		@ frame_needed = 0, uses_anonymous_args = 0
 900              		@ link register save eliminated.
 901              	.LVL62:
 194:..\u8g2-master\csrc/u8g2_d_memory.c ****   static uint8_t buf[96];
 195:..\u8g2-master\csrc/u8g2_d_memory.c ****   *page_cnt = 2;
 902              		.loc 1 195 0
 903 0000 0223     		movs	r3, #2
 904 0002 0370     		strb	r3, [r0]
 196:..\u8g2-master\csrc/u8g2_d_memory.c ****   return buf;
 197:..\u8g2-master\csrc/u8g2_d_memory.c **** }
 905              		.loc 1 197 0
 906 0004 0048     		ldr	r0, .L95
 907              	.LVL63:
 908 0006 7047     		bx	lr
 909              	.L96:
 910              		.align	2
 911              	.L95:
 912 0008 B03C0000 		.word	.LANCHOR3+2504
 913              		.cfi_endproc
 914              	.LFE31:
 915              		.size	u8g2_m_6_8_2, .-u8g2_m_6_8_2
 916              		.section	.text.u8g2_m_6_8_f,"ax",%progbits
 917              		.align	2
 918              		.global	u8g2_m_6_8_f
 919              		.thumb
 920              		.thumb_func
 921              		.type	u8g2_m_6_8_f, %function
 922              	u8g2_m_6_8_f:
 923              	.LFB32:
 198:..\u8g2-master\csrc/u8g2_d_memory.c **** uint8_t *u8g2_m_6_8_f(uint8_t *page_cnt)
 199:..\u8g2-master\csrc/u8g2_d_memory.c **** {
 924              		.loc 1 199 0
 925              		.cfi_startproc
 926              		@ args = 0, pretend = 0, frame = 0
 927              		@ frame_needed = 0, uses_anonymous_args = 0
 928              		@ link register save eliminated.
 929              	.LVL64:
 200:..\u8g2-master\csrc/u8g2_d_memory.c ****   static uint8_t buf[384];
 201:..\u8g2-master\csrc/u8g2_d_memory.c ****   *page_cnt = 8;
 930              		.loc 1 201 0
 931 0000 0823     		movs	r3, #8
 932 0002 0370     		strb	r3, [r0]
 202:..\u8g2-master\csrc/u8g2_d_memory.c ****   return buf;
 203:..\u8g2-master\csrc/u8g2_d_memory.c **** }
 933              		.loc 1 203 0
 934 0004 0048     		ldr	r0, .L98
 935              	.LVL65:
 936 0006 7047     		bx	lr
 937              	.L99:
ARM GAS  C:\Users\info\AppData\Local\Temp\ccfHjuLM.s 			page 21


 938              		.align	2
 939              	.L98:
 940 0008 103D0000 		.word	.LANCHOR3+2600
 941              		.cfi_endproc
 942              	.LFE32:
 943              		.size	u8g2_m_6_8_f, .-u8g2_m_6_8_f
 944              		.section	.text.u8g2_m_12_2_1,"ax",%progbits
 945              		.align	2
 946              		.global	u8g2_m_12_2_1
 947              		.thumb
 948              		.thumb_func
 949              		.type	u8g2_m_12_2_1, %function
 950              	u8g2_m_12_2_1:
 951              	.LFB33:
 204:..\u8g2-master\csrc/u8g2_d_memory.c **** uint8_t *u8g2_m_12_2_1(uint8_t *page_cnt)
 205:..\u8g2-master\csrc/u8g2_d_memory.c **** {
 952              		.loc 1 205 0
 953              		.cfi_startproc
 954              		@ args = 0, pretend = 0, frame = 0
 955              		@ frame_needed = 0, uses_anonymous_args = 0
 956              		@ link register save eliminated.
 957              	.LVL66:
 206:..\u8g2-master\csrc/u8g2_d_memory.c ****   static uint8_t buf[96];
 207:..\u8g2-master\csrc/u8g2_d_memory.c ****   *page_cnt = 1;
 958              		.loc 1 207 0
 959 0000 0123     		movs	r3, #1
 960 0002 0370     		strb	r3, [r0]
 208:..\u8g2-master\csrc/u8g2_d_memory.c ****   return buf;
 209:..\u8g2-master\csrc/u8g2_d_memory.c **** }
 961              		.loc 1 209 0
 962 0004 0048     		ldr	r0, .L101
 963              	.LVL67:
 964 0006 7047     		bx	lr
 965              	.L102:
 966              		.align	2
 967              	.L101:
 968 0008 903E0000 		.word	.LANCHOR3+2984
 969              		.cfi_endproc
 970              	.LFE33:
 971              		.size	u8g2_m_12_2_1, .-u8g2_m_12_2_1
 972              		.section	.text.u8g2_m_12_2_2,"ax",%progbits
 973              		.align	2
 974              		.global	u8g2_m_12_2_2
 975              		.thumb
 976              		.thumb_func
 977              		.type	u8g2_m_12_2_2, %function
 978              	u8g2_m_12_2_2:
 979              	.LFB34:
 210:..\u8g2-master\csrc/u8g2_d_memory.c **** uint8_t *u8g2_m_12_2_2(uint8_t *page_cnt)
 211:..\u8g2-master\csrc/u8g2_d_memory.c **** {
 980              		.loc 1 211 0
 981              		.cfi_startproc
 982              		@ args = 0, pretend = 0, frame = 0
 983              		@ frame_needed = 0, uses_anonymous_args = 0
 984              		@ link register save eliminated.
 985              	.LVL68:
 212:..\u8g2-master\csrc/u8g2_d_memory.c ****   static uint8_t buf[192];
ARM GAS  C:\Users\info\AppData\Local\Temp\ccfHjuLM.s 			page 22


 213:..\u8g2-master\csrc/u8g2_d_memory.c ****   *page_cnt = 2;
 986              		.loc 1 213 0
 987 0000 0223     		movs	r3, #2
 988 0002 0370     		strb	r3, [r0]
 214:..\u8g2-master\csrc/u8g2_d_memory.c ****   return buf;
 215:..\u8g2-master\csrc/u8g2_d_memory.c **** }
 989              		.loc 1 215 0
 990 0004 0048     		ldr	r0, .L104
 991              	.LVL69:
 992 0006 7047     		bx	lr
 993              	.L105:
 994              		.align	2
 995              	.L104:
 996 0008 F03E0000 		.word	.LANCHOR3+3080
 997              		.cfi_endproc
 998              	.LFE34:
 999              		.size	u8g2_m_12_2_2, .-u8g2_m_12_2_2
 1000              		.section	.text.u8g2_m_12_2_f,"ax",%progbits
 1001              		.align	2
 1002              		.global	u8g2_m_12_2_f
 1003              		.thumb
 1004              		.thumb_func
 1005              		.type	u8g2_m_12_2_f, %function
 1006              	u8g2_m_12_2_f:
 1007              	.LFB35:
 216:..\u8g2-master\csrc/u8g2_d_memory.c **** uint8_t *u8g2_m_12_2_f(uint8_t *page_cnt)
 217:..\u8g2-master\csrc/u8g2_d_memory.c **** {
 1008              		.loc 1 217 0
 1009              		.cfi_startproc
 1010              		@ args = 0, pretend = 0, frame = 0
 1011              		@ frame_needed = 0, uses_anonymous_args = 0
 1012              		@ link register save eliminated.
 1013              	.LVL70:
 218:..\u8g2-master\csrc/u8g2_d_memory.c ****   static uint8_t buf[192];
 219:..\u8g2-master\csrc/u8g2_d_memory.c ****   *page_cnt = 2;
 1014              		.loc 1 219 0
 1015 0000 0223     		movs	r3, #2
 1016 0002 0370     		strb	r3, [r0]
 220:..\u8g2-master\csrc/u8g2_d_memory.c ****   return buf;
 221:..\u8g2-master\csrc/u8g2_d_memory.c **** }
 1017              		.loc 1 221 0
 1018 0004 0048     		ldr	r0, .L107
 1019              	.LVL71:
 1020 0006 7047     		bx	lr
 1021              	.L108:
 1022              		.align	2
 1023              	.L107:
 1024 0008 B03F0000 		.word	.LANCHOR3+3272
 1025              		.cfi_endproc
 1026              	.LFE35:
 1027              		.size	u8g2_m_12_2_f, .-u8g2_m_12_2_f
 1028              		.section	.text.u8g2_m_16_12_1,"ax",%progbits
 1029              		.align	2
 1030              		.global	u8g2_m_16_12_1
 1031              		.thumb
 1032              		.thumb_func
 1033              		.type	u8g2_m_16_12_1, %function
ARM GAS  C:\Users\info\AppData\Local\Temp\ccfHjuLM.s 			page 23


 1034              	u8g2_m_16_12_1:
 1035              	.LFB36:
 222:..\u8g2-master\csrc/u8g2_d_memory.c **** uint8_t *u8g2_m_16_12_1(uint8_t *page_cnt)
 223:..\u8g2-master\csrc/u8g2_d_memory.c **** {
 1036              		.loc 1 223 0
 1037              		.cfi_startproc
 1038              		@ args = 0, pretend = 0, frame = 0
 1039              		@ frame_needed = 0, uses_anonymous_args = 0
 1040              		@ link register save eliminated.
 1041              	.LVL72:
 224:..\u8g2-master\csrc/u8g2_d_memory.c ****   static uint8_t buf[128];
 225:..\u8g2-master\csrc/u8g2_d_memory.c ****   *page_cnt = 1;
 1042              		.loc 1 225 0
 1043 0000 0123     		movs	r3, #1
 1044 0002 0370     		strb	r3, [r0]
 226:..\u8g2-master\csrc/u8g2_d_memory.c ****   return buf;
 227:..\u8g2-master\csrc/u8g2_d_memory.c **** }
 1045              		.loc 1 227 0
 1046 0004 0048     		ldr	r0, .L110
 1047              	.LVL73:
 1048 0006 7047     		bx	lr
 1049              	.L111:
 1050              		.align	2
 1051              	.L110:
 1052 0008 70400000 		.word	.LANCHOR3+3464
 1053              		.cfi_endproc
 1054              	.LFE36:
 1055              		.size	u8g2_m_16_12_1, .-u8g2_m_16_12_1
 1056              		.section	.text.u8g2_m_16_12_2,"ax",%progbits
 1057              		.align	2
 1058              		.global	u8g2_m_16_12_2
 1059              		.thumb
 1060              		.thumb_func
 1061              		.type	u8g2_m_16_12_2, %function
 1062              	u8g2_m_16_12_2:
 1063              	.LFB37:
 228:..\u8g2-master\csrc/u8g2_d_memory.c **** uint8_t *u8g2_m_16_12_2(uint8_t *page_cnt)
 229:..\u8g2-master\csrc/u8g2_d_memory.c **** {
 1064              		.loc 1 229 0
 1065              		.cfi_startproc
 1066              		@ args = 0, pretend = 0, frame = 0
 1067              		@ frame_needed = 0, uses_anonymous_args = 0
 1068              		@ link register save eliminated.
 1069              	.LVL74:
 230:..\u8g2-master\csrc/u8g2_d_memory.c ****   static uint8_t buf[256];
 231:..\u8g2-master\csrc/u8g2_d_memory.c ****   *page_cnt = 2;
 1070              		.loc 1 231 0
 1071 0000 0223     		movs	r3, #2
 1072 0002 0370     		strb	r3, [r0]
 232:..\u8g2-master\csrc/u8g2_d_memory.c ****   return buf;
 233:..\u8g2-master\csrc/u8g2_d_memory.c **** }
 1073              		.loc 1 233 0
 1074 0004 0048     		ldr	r0, .L113
 1075              	.LVL75:
 1076 0006 7047     		bx	lr
 1077              	.L114:
 1078              		.align	2
ARM GAS  C:\Users\info\AppData\Local\Temp\ccfHjuLM.s 			page 24


 1079              	.L113:
 1080 0008 F0400000 		.word	.LANCHOR3+3592
 1081              		.cfi_endproc
 1082              	.LFE37:
 1083              		.size	u8g2_m_16_12_2, .-u8g2_m_16_12_2
 1084              		.section	.text.u8g2_m_16_12_f,"ax",%progbits
 1085              		.align	2
 1086              		.global	u8g2_m_16_12_f
 1087              		.thumb
 1088              		.thumb_func
 1089              		.type	u8g2_m_16_12_f, %function
 1090              	u8g2_m_16_12_f:
 1091              	.LFB38:
 234:..\u8g2-master\csrc/u8g2_d_memory.c **** uint8_t *u8g2_m_16_12_f(uint8_t *page_cnt)
 235:..\u8g2-master\csrc/u8g2_d_memory.c **** {
 1092              		.loc 1 235 0
 1093              		.cfi_startproc
 1094              		@ args = 0, pretend = 0, frame = 0
 1095              		@ frame_needed = 0, uses_anonymous_args = 0
 1096              		@ link register save eliminated.
 1097              	.LVL76:
 236:..\u8g2-master\csrc/u8g2_d_memory.c ****   static uint8_t buf[1536];
 237:..\u8g2-master\csrc/u8g2_d_memory.c ****   *page_cnt = 12;
 1098              		.loc 1 237 0
 1099 0000 0C23     		movs	r3, #12
 1100 0002 0370     		strb	r3, [r0]
 238:..\u8g2-master\csrc/u8g2_d_memory.c ****   return buf;
 239:..\u8g2-master\csrc/u8g2_d_memory.c **** }
 1101              		.loc 1 239 0
 1102 0004 0048     		ldr	r0, .L116
 1103              	.LVL77:
 1104 0006 7047     		bx	lr
 1105              	.L117:
 1106              		.align	2
 1107              	.L116:
 1108 0008 F0410000 		.word	.LANCHOR3+3848
 1109              		.cfi_endproc
 1110              	.LFE38:
 1111              		.size	u8g2_m_16_12_f, .-u8g2_m_16_12_f
 1112              		.section	.text.u8g2_m_32_4_1,"ax",%progbits
 1113              		.align	2
 1114              		.global	u8g2_m_32_4_1
 1115              		.thumb
 1116              		.thumb_func
 1117              		.type	u8g2_m_32_4_1, %function
 1118              	u8g2_m_32_4_1:
 1119              	.LFB39:
 240:..\u8g2-master\csrc/u8g2_d_memory.c **** uint8_t *u8g2_m_32_4_1(uint8_t *page_cnt)
 241:..\u8g2-master\csrc/u8g2_d_memory.c **** {
 1120              		.loc 1 241 0
 1121              		.cfi_startproc
 1122              		@ args = 0, pretend = 0, frame = 0
 1123              		@ frame_needed = 0, uses_anonymous_args = 0
 1124              		@ link register save eliminated.
 1125              	.LVL78:
 242:..\u8g2-master\csrc/u8g2_d_memory.c ****   static uint8_t buf[256];
 243:..\u8g2-master\csrc/u8g2_d_memory.c ****   *page_cnt = 1;
ARM GAS  C:\Users\info\AppData\Local\Temp\ccfHjuLM.s 			page 25


 1126              		.loc 1 243 0
 1127 0000 0123     		movs	r3, #1
 1128 0002 0370     		strb	r3, [r0]
 244:..\u8g2-master\csrc/u8g2_d_memory.c ****   return buf;
 245:..\u8g2-master\csrc/u8g2_d_memory.c **** }
 1129              		.loc 1 245 0
 1130 0004 0048     		ldr	r0, .L119
 1131              	.LVL79:
 1132 0006 7047     		bx	lr
 1133              	.L120:
 1134              		.align	2
 1135              	.L119:
 1136 0008 F0470000 		.word	.LANCHOR4+1040
 1137              		.cfi_endproc
 1138              	.LFE39:
 1139              		.size	u8g2_m_32_4_1, .-u8g2_m_32_4_1
 1140              		.section	.text.u8g2_m_32_4_2,"ax",%progbits
 1141              		.align	2
 1142              		.global	u8g2_m_32_4_2
 1143              		.thumb
 1144              		.thumb_func
 1145              		.type	u8g2_m_32_4_2, %function
 1146              	u8g2_m_32_4_2:
 1147              	.LFB40:
 246:..\u8g2-master\csrc/u8g2_d_memory.c **** uint8_t *u8g2_m_32_4_2(uint8_t *page_cnt)
 247:..\u8g2-master\csrc/u8g2_d_memory.c **** {
 1148              		.loc 1 247 0
 1149              		.cfi_startproc
 1150              		@ args = 0, pretend = 0, frame = 0
 1151              		@ frame_needed = 0, uses_anonymous_args = 0
 1152              		@ link register save eliminated.
 1153              	.LVL80:
 248:..\u8g2-master\csrc/u8g2_d_memory.c ****   static uint8_t buf[512];
 249:..\u8g2-master\csrc/u8g2_d_memory.c ****   *page_cnt = 2;
 1154              		.loc 1 249 0
 1155 0000 0223     		movs	r3, #2
 1156 0002 0370     		strb	r3, [r0]
 250:..\u8g2-master\csrc/u8g2_d_memory.c ****   return buf;
 251:..\u8g2-master\csrc/u8g2_d_memory.c **** }
 1157              		.loc 1 251 0
 1158 0004 0048     		ldr	r0, .L122
 1159              	.LVL81:
 1160 0006 7047     		bx	lr
 1161              	.L123:
 1162              		.align	2
 1163              	.L122:
 1164 0008 F0480000 		.word	.LANCHOR4+1296
 1165              		.cfi_endproc
 1166              	.LFE40:
 1167              		.size	u8g2_m_32_4_2, .-u8g2_m_32_4_2
 1168              		.section	.text.u8g2_m_32_4_f,"ax",%progbits
 1169              		.align	2
 1170              		.global	u8g2_m_32_4_f
 1171              		.thumb
 1172              		.thumb_func
 1173              		.type	u8g2_m_32_4_f, %function
 1174              	u8g2_m_32_4_f:
ARM GAS  C:\Users\info\AppData\Local\Temp\ccfHjuLM.s 			page 26


 1175              	.LFB41:
 252:..\u8g2-master\csrc/u8g2_d_memory.c **** uint8_t *u8g2_m_32_4_f(uint8_t *page_cnt)
 253:..\u8g2-master\csrc/u8g2_d_memory.c **** {
 1176              		.loc 1 253 0
 1177              		.cfi_startproc
 1178              		@ args = 0, pretend = 0, frame = 0
 1179              		@ frame_needed = 0, uses_anonymous_args = 0
 1180              		@ link register save eliminated.
 1181              	.LVL82:
 254:..\u8g2-master\csrc/u8g2_d_memory.c ****   static uint8_t buf[1024];
 255:..\u8g2-master\csrc/u8g2_d_memory.c ****   *page_cnt = 4;
 1182              		.loc 1 255 0
 1183 0000 0423     		movs	r3, #4
 1184 0002 0370     		strb	r3, [r0]
 256:..\u8g2-master\csrc/u8g2_d_memory.c ****   return buf;
 257:..\u8g2-master\csrc/u8g2_d_memory.c **** }
 1185              		.loc 1 257 0
 1186 0004 0048     		ldr	r0, .L125
 1187              	.LVL83:
 1188 0006 7047     		bx	lr
 1189              	.L126:
 1190              		.align	2
 1191              	.L125:
 1192 0008 F04A0000 		.word	.LANCHOR4+1808
 1193              		.cfi_endproc
 1194              	.LFE41:
 1195              		.size	u8g2_m_32_4_f, .-u8g2_m_32_4_f
 1196              		.section	.text.u8g2_m_24_4_1,"ax",%progbits
 1197              		.align	2
 1198              		.global	u8g2_m_24_4_1
 1199              		.thumb
 1200              		.thumb_func
 1201              		.type	u8g2_m_24_4_1, %function
 1202              	u8g2_m_24_4_1:
 1203              	.LFB42:
 258:..\u8g2-master\csrc/u8g2_d_memory.c **** uint8_t *u8g2_m_24_4_1(uint8_t *page_cnt)
 259:..\u8g2-master\csrc/u8g2_d_memory.c **** {
 1204              		.loc 1 259 0
 1205              		.cfi_startproc
 1206              		@ args = 0, pretend = 0, frame = 0
 1207              		@ frame_needed = 0, uses_anonymous_args = 0
 1208              		@ link register save eliminated.
 1209              	.LVL84:
 260:..\u8g2-master\csrc/u8g2_d_memory.c ****   static uint8_t buf[192];
 261:..\u8g2-master\csrc/u8g2_d_memory.c ****   *page_cnt = 1;
 1210              		.loc 1 261 0
 1211 0000 0123     		movs	r3, #1
 1212 0002 0370     		strb	r3, [r0]
 262:..\u8g2-master\csrc/u8g2_d_memory.c ****   return buf;
 263:..\u8g2-master\csrc/u8g2_d_memory.c **** }
 1213              		.loc 1 263 0
 1214 0004 0048     		ldr	r0, .L128
 1215              	.LVL85:
 1216 0006 7047     		bx	lr
 1217              	.L129:
 1218              		.align	2
 1219              	.L128:
ARM GAS  C:\Users\info\AppData\Local\Temp\ccfHjuLM.s 			page 27


 1220 0008 F04E0000 		.word	.LANCHOR4+2832
 1221              		.cfi_endproc
 1222              	.LFE42:
 1223              		.size	u8g2_m_24_4_1, .-u8g2_m_24_4_1
 1224              		.section	.text.u8g2_m_24_4_2,"ax",%progbits
 1225              		.align	2
 1226              		.global	u8g2_m_24_4_2
 1227              		.thumb
 1228              		.thumb_func
 1229              		.type	u8g2_m_24_4_2, %function
 1230              	u8g2_m_24_4_2:
 1231              	.LFB43:
 264:..\u8g2-master\csrc/u8g2_d_memory.c **** uint8_t *u8g2_m_24_4_2(uint8_t *page_cnt)
 265:..\u8g2-master\csrc/u8g2_d_memory.c **** {
 1232              		.loc 1 265 0
 1233              		.cfi_startproc
 1234              		@ args = 0, pretend = 0, frame = 0
 1235              		@ frame_needed = 0, uses_anonymous_args = 0
 1236              		@ link register save eliminated.
 1237              	.LVL86:
 266:..\u8g2-master\csrc/u8g2_d_memory.c ****   static uint8_t buf[384];
 267:..\u8g2-master\csrc/u8g2_d_memory.c ****   *page_cnt = 2;
 1238              		.loc 1 267 0
 1239 0000 0223     		movs	r3, #2
 1240 0002 0370     		strb	r3, [r0]
 268:..\u8g2-master\csrc/u8g2_d_memory.c ****   return buf;
 269:..\u8g2-master\csrc/u8g2_d_memory.c **** }
 1241              		.loc 1 269 0
 1242 0004 0048     		ldr	r0, .L131
 1243              	.LVL87:
 1244 0006 7047     		bx	lr
 1245              	.L132:
 1246              		.align	2
 1247              	.L131:
 1248 0008 B04F0000 		.word	.LANCHOR4+3024
 1249              		.cfi_endproc
 1250              	.LFE43:
 1251              		.size	u8g2_m_24_4_2, .-u8g2_m_24_4_2
 1252              		.section	.text.u8g2_m_24_4_f,"ax",%progbits
 1253              		.align	2
 1254              		.global	u8g2_m_24_4_f
 1255              		.thumb
 1256              		.thumb_func
 1257              		.type	u8g2_m_24_4_f, %function
 1258              	u8g2_m_24_4_f:
 1259              	.LFB44:
 270:..\u8g2-master\csrc/u8g2_d_memory.c **** uint8_t *u8g2_m_24_4_f(uint8_t *page_cnt)
 271:..\u8g2-master\csrc/u8g2_d_memory.c **** {
 1260              		.loc 1 271 0
 1261              		.cfi_startproc
 1262              		@ args = 0, pretend = 0, frame = 0
 1263              		@ frame_needed = 0, uses_anonymous_args = 0
 1264              		@ link register save eliminated.
 1265              	.LVL88:
 272:..\u8g2-master\csrc/u8g2_d_memory.c ****   static uint8_t buf[768];
 273:..\u8g2-master\csrc/u8g2_d_memory.c ****   *page_cnt = 4;
 1266              		.loc 1 273 0
ARM GAS  C:\Users\info\AppData\Local\Temp\ccfHjuLM.s 			page 28


 1267 0000 0423     		movs	r3, #4
 1268 0002 0370     		strb	r3, [r0]
 274:..\u8g2-master\csrc/u8g2_d_memory.c ****   return buf;
 275:..\u8g2-master\csrc/u8g2_d_memory.c **** }
 1269              		.loc 1 275 0
 1270 0004 0048     		ldr	r0, .L134
 1271              	.LVL89:
 1272 0006 7047     		bx	lr
 1273              	.L135:
 1274              		.align	2
 1275              	.L134:
 1276 0008 30510000 		.word	.LANCHOR4+3408
 1277              		.cfi_endproc
 1278              	.LFE44:
 1279              		.size	u8g2_m_24_4_f, .-u8g2_m_24_4_f
 1280              		.section	.text.u8g2_m_50_30_1,"ax",%progbits
 1281              		.align	2
 1282              		.global	u8g2_m_50_30_1
 1283              		.thumb
 1284              		.thumb_func
 1285              		.type	u8g2_m_50_30_1, %function
 1286              	u8g2_m_50_30_1:
 1287              	.LFB45:
 276:..\u8g2-master\csrc/u8g2_d_memory.c **** uint8_t *u8g2_m_50_30_1(uint8_t *page_cnt)
 277:..\u8g2-master\csrc/u8g2_d_memory.c **** {
 1288              		.loc 1 277 0
 1289              		.cfi_startproc
 1290              		@ args = 0, pretend = 0, frame = 0
 1291              		@ frame_needed = 0, uses_anonymous_args = 0
 1292              		@ link register save eliminated.
 1293              	.LVL90:
 278:..\u8g2-master\csrc/u8g2_d_memory.c ****   static uint8_t buf[400];
 279:..\u8g2-master\csrc/u8g2_d_memory.c ****   *page_cnt = 1;
 1294              		.loc 1 279 0
 1295 0000 0123     		movs	r3, #1
 1296 0002 0370     		strb	r3, [r0]
 280:..\u8g2-master\csrc/u8g2_d_memory.c ****   return buf;
 281:..\u8g2-master\csrc/u8g2_d_memory.c **** }
 1297              		.loc 1 281 0
 1298 0004 0048     		ldr	r0, .L137
 1299              	.LVL91:
 1300 0006 7047     		bx	lr
 1301              	.L138:
 1302              		.align	2
 1303              	.L137:
 1304 0008 30540000 		.word	.LANCHOR5-168
 1305              		.cfi_endproc
 1306              	.LFE45:
 1307              		.size	u8g2_m_50_30_1, .-u8g2_m_50_30_1
 1308              		.section	.text.u8g2_m_50_30_2,"ax",%progbits
 1309              		.align	2
 1310              		.global	u8g2_m_50_30_2
 1311              		.thumb
 1312              		.thumb_func
 1313              		.type	u8g2_m_50_30_2, %function
 1314              	u8g2_m_50_30_2:
 1315              	.LFB46:
ARM GAS  C:\Users\info\AppData\Local\Temp\ccfHjuLM.s 			page 29


 282:..\u8g2-master\csrc/u8g2_d_memory.c **** uint8_t *u8g2_m_50_30_2(uint8_t *page_cnt)
 283:..\u8g2-master\csrc/u8g2_d_memory.c **** {
 1316              		.loc 1 283 0
 1317              		.cfi_startproc
 1318              		@ args = 0, pretend = 0, frame = 0
 1319              		@ frame_needed = 0, uses_anonymous_args = 0
 1320              		@ link register save eliminated.
 1321              	.LVL92:
 284:..\u8g2-master\csrc/u8g2_d_memory.c ****   static uint8_t buf[800];
 285:..\u8g2-master\csrc/u8g2_d_memory.c ****   *page_cnt = 2;
 1322              		.loc 1 285 0
 1323 0000 0223     		movs	r3, #2
 1324 0002 0370     		strb	r3, [r0]
 286:..\u8g2-master\csrc/u8g2_d_memory.c ****   return buf;
 287:..\u8g2-master\csrc/u8g2_d_memory.c **** }
 1325              		.loc 1 287 0
 1326 0004 0048     		ldr	r0, .L140
 1327              	.LVL93:
 1328 0006 7047     		bx	lr
 1329              	.L141:
 1330              		.align	2
 1331              	.L140:
 1332 0008 C0550000 		.word	.LANCHOR5+232
 1333              		.cfi_endproc
 1334              	.LFE46:
 1335              		.size	u8g2_m_50_30_2, .-u8g2_m_50_30_2
 1336              		.section	.text.u8g2_m_50_30_f,"ax",%progbits
 1337              		.align	2
 1338              		.global	u8g2_m_50_30_f
 1339              		.thumb
 1340              		.thumb_func
 1341              		.type	u8g2_m_50_30_f, %function
 1342              	u8g2_m_50_30_f:
 1343              	.LFB47:
 288:..\u8g2-master\csrc/u8g2_d_memory.c **** uint8_t *u8g2_m_50_30_f(uint8_t *page_cnt)
 289:..\u8g2-master\csrc/u8g2_d_memory.c **** {
 1344              		.loc 1 289 0
 1345              		.cfi_startproc
 1346              		@ args = 0, pretend = 0, frame = 0
 1347              		@ frame_needed = 0, uses_anonymous_args = 0
 1348              		@ link register save eliminated.
 1349              	.LVL94:
 290:..\u8g2-master\csrc/u8g2_d_memory.c ****   static uint8_t buf[12000];
 291:..\u8g2-master\csrc/u8g2_d_memory.c ****   *page_cnt = 30;
 1350              		.loc 1 291 0
 1351 0000 1E23     		movs	r3, #30
 1352 0002 0370     		strb	r3, [r0]
 292:..\u8g2-master\csrc/u8g2_d_memory.c ****   return buf;
 293:..\u8g2-master\csrc/u8g2_d_memory.c **** }
 1353              		.loc 1 293 0
 1354 0004 0048     		ldr	r0, .L143
 1355              	.LVL95:
 1356 0006 7047     		bx	lr
 1357              	.L144:
 1358              		.align	2
 1359              	.L143:
 1360 0008 E0580000 		.word	.LANCHOR5+1032
ARM GAS  C:\Users\info\AppData\Local\Temp\ccfHjuLM.s 			page 30


 1361              		.cfi_endproc
 1362              	.LFE47:
 1363              		.size	u8g2_m_50_30_f, .-u8g2_m_50_30_f
 1364              		.section	.text.u8g2_m_18_21_1,"ax",%progbits
 1365              		.align	2
 1366              		.global	u8g2_m_18_21_1
 1367              		.thumb
 1368              		.thumb_func
 1369              		.type	u8g2_m_18_21_1, %function
 1370              	u8g2_m_18_21_1:
 1371              	.LFB48:
 294:..\u8g2-master\csrc/u8g2_d_memory.c **** uint8_t *u8g2_m_18_21_1(uint8_t *page_cnt)
 295:..\u8g2-master\csrc/u8g2_d_memory.c **** {
 1372              		.loc 1 295 0
 1373              		.cfi_startproc
 1374              		@ args = 0, pretend = 0, frame = 0
 1375              		@ frame_needed = 0, uses_anonymous_args = 0
 1376              		@ link register save eliminated.
 1377              	.LVL96:
 296:..\u8g2-master\csrc/u8g2_d_memory.c ****   static uint8_t buf[144];
 297:..\u8g2-master\csrc/u8g2_d_memory.c ****   *page_cnt = 1;
 1378              		.loc 1 297 0
 1379 0000 0123     		movs	r3, #1
 1380 0002 0370     		strb	r3, [r0]
 298:..\u8g2-master\csrc/u8g2_d_memory.c ****   return buf;
 299:..\u8g2-master\csrc/u8g2_d_memory.c **** }
 1381              		.loc 1 299 0
 1382 0004 0048     		ldr	r0, .L146
 1383              	.LVL97:
 1384 0006 7047     		bx	lr
 1385              	.L147:
 1386              		.align	2
 1387              	.L146:
 1388 0008 C0870000 		.word	.LANCHOR6
 1389              		.cfi_endproc
 1390              	.LFE48:
 1391              		.size	u8g2_m_18_21_1, .-u8g2_m_18_21_1
 1392              		.section	.text.u8g2_m_18_21_2,"ax",%progbits
 1393              		.align	2
 1394              		.global	u8g2_m_18_21_2
 1395              		.thumb
 1396              		.thumb_func
 1397              		.type	u8g2_m_18_21_2, %function
 1398              	u8g2_m_18_21_2:
 1399              	.LFB49:
 300:..\u8g2-master\csrc/u8g2_d_memory.c **** uint8_t *u8g2_m_18_21_2(uint8_t *page_cnt)
 301:..\u8g2-master\csrc/u8g2_d_memory.c **** {
 1400              		.loc 1 301 0
 1401              		.cfi_startproc
 1402              		@ args = 0, pretend = 0, frame = 0
 1403              		@ frame_needed = 0, uses_anonymous_args = 0
 1404              		@ link register save eliminated.
 1405              	.LVL98:
 302:..\u8g2-master\csrc/u8g2_d_memory.c ****   static uint8_t buf[288];
 303:..\u8g2-master\csrc/u8g2_d_memory.c ****   *page_cnt = 2;
 1406              		.loc 1 303 0
 1407 0000 0223     		movs	r3, #2
ARM GAS  C:\Users\info\AppData\Local\Temp\ccfHjuLM.s 			page 31


 1408 0002 0370     		strb	r3, [r0]
 304:..\u8g2-master\csrc/u8g2_d_memory.c ****   return buf;
 305:..\u8g2-master\csrc/u8g2_d_memory.c **** }
 1409              		.loc 1 305 0
 1410 0004 0048     		ldr	r0, .L149
 1411              	.LVL99:
 1412 0006 7047     		bx	lr
 1413              	.L150:
 1414              		.align	2
 1415              	.L149:
 1416 0008 50880000 		.word	.LANCHOR6+144
 1417              		.cfi_endproc
 1418              	.LFE49:
 1419              		.size	u8g2_m_18_21_2, .-u8g2_m_18_21_2
 1420              		.section	.text.u8g2_m_18_21_f,"ax",%progbits
 1421              		.align	2
 1422              		.global	u8g2_m_18_21_f
 1423              		.thumb
 1424              		.thumb_func
 1425              		.type	u8g2_m_18_21_f, %function
 1426              	u8g2_m_18_21_f:
 1427              	.LFB50:
 306:..\u8g2-master\csrc/u8g2_d_memory.c **** uint8_t *u8g2_m_18_21_f(uint8_t *page_cnt)
 307:..\u8g2-master\csrc/u8g2_d_memory.c **** {
 1428              		.loc 1 307 0
 1429              		.cfi_startproc
 1430              		@ args = 0, pretend = 0, frame = 0
 1431              		@ frame_needed = 0, uses_anonymous_args = 0
 1432              		@ link register save eliminated.
 1433              	.LVL100:
 308:..\u8g2-master\csrc/u8g2_d_memory.c ****   static uint8_t buf[3024];
 309:..\u8g2-master\csrc/u8g2_d_memory.c ****   *page_cnt = 21;
 1434              		.loc 1 309 0
 1435 0000 1523     		movs	r3, #21
 1436 0002 0370     		strb	r3, [r0]
 310:..\u8g2-master\csrc/u8g2_d_memory.c ****   return buf;
 311:..\u8g2-master\csrc/u8g2_d_memory.c **** }
 1437              		.loc 1 311 0
 1438 0004 0048     		ldr	r0, .L152
 1439              	.LVL101:
 1440 0006 7047     		bx	lr
 1441              	.L153:
 1442              		.align	2
 1443              	.L152:
 1444 0008 70890000 		.word	.LANCHOR6+432
 1445              		.cfi_endproc
 1446              	.LFE50:
 1447              		.size	u8g2_m_18_21_f, .-u8g2_m_18_21_f
 1448              		.section	.text.u8g2_m_13_8_1,"ax",%progbits
 1449              		.align	2
 1450              		.global	u8g2_m_13_8_1
 1451              		.thumb
 1452              		.thumb_func
 1453              		.type	u8g2_m_13_8_1, %function
 1454              	u8g2_m_13_8_1:
 1455              	.LFB51:
 312:..\u8g2-master\csrc/u8g2_d_memory.c **** uint8_t *u8g2_m_13_8_1(uint8_t *page_cnt)
ARM GAS  C:\Users\info\AppData\Local\Temp\ccfHjuLM.s 			page 32


 313:..\u8g2-master\csrc/u8g2_d_memory.c **** {
 1456              		.loc 1 313 0
 1457              		.cfi_startproc
 1458              		@ args = 0, pretend = 0, frame = 0
 1459              		@ frame_needed = 0, uses_anonymous_args = 0
 1460              		@ link register save eliminated.
 1461              	.LVL102:
 314:..\u8g2-master\csrc/u8g2_d_memory.c ****   static uint8_t buf[104];
 315:..\u8g2-master\csrc/u8g2_d_memory.c ****   *page_cnt = 1;
 1462              		.loc 1 315 0
 1463 0000 0123     		movs	r3, #1
 1464 0002 0370     		strb	r3, [r0]
 316:..\u8g2-master\csrc/u8g2_d_memory.c ****   return buf;
 317:..\u8g2-master\csrc/u8g2_d_memory.c **** }
 1465              		.loc 1 317 0
 1466 0004 0048     		ldr	r0, .L155
 1467              	.LVL103:
 1468 0006 7047     		bx	lr
 1469              	.L156:
 1470              		.align	2
 1471              	.L155:
 1472 0008 40950000 		.word	.LANCHOR6+3456
 1473              		.cfi_endproc
 1474              	.LFE51:
 1475              		.size	u8g2_m_13_8_1, .-u8g2_m_13_8_1
 1476              		.section	.text.u8g2_m_13_8_2,"ax",%progbits
 1477              		.align	2
 1478              		.global	u8g2_m_13_8_2
 1479              		.thumb
 1480              		.thumb_func
 1481              		.type	u8g2_m_13_8_2, %function
 1482              	u8g2_m_13_8_2:
 1483              	.LFB52:
 318:..\u8g2-master\csrc/u8g2_d_memory.c **** uint8_t *u8g2_m_13_8_2(uint8_t *page_cnt)
 319:..\u8g2-master\csrc/u8g2_d_memory.c **** {
 1484              		.loc 1 319 0
 1485              		.cfi_startproc
 1486              		@ args = 0, pretend = 0, frame = 0
 1487              		@ frame_needed = 0, uses_anonymous_args = 0
 1488              		@ link register save eliminated.
 1489              	.LVL104:
 320:..\u8g2-master\csrc/u8g2_d_memory.c ****   static uint8_t buf[208];
 321:..\u8g2-master\csrc/u8g2_d_memory.c ****   *page_cnt = 2;
 1490              		.loc 1 321 0
 1491 0000 0223     		movs	r3, #2
 1492 0002 0370     		strb	r3, [r0]
 322:..\u8g2-master\csrc/u8g2_d_memory.c ****   return buf;
 323:..\u8g2-master\csrc/u8g2_d_memory.c **** }
 1493              		.loc 1 323 0
 1494 0004 0048     		ldr	r0, .L158
 1495              	.LVL105:
 1496 0006 7047     		bx	lr
 1497              	.L159:
 1498              		.align	2
 1499              	.L158:
 1500 0008 A8950000 		.word	.LANCHOR6+3560
 1501              		.cfi_endproc
ARM GAS  C:\Users\info\AppData\Local\Temp\ccfHjuLM.s 			page 33


 1502              	.LFE52:
 1503              		.size	u8g2_m_13_8_2, .-u8g2_m_13_8_2
 1504              		.section	.text.u8g2_m_13_8_f,"ax",%progbits
 1505              		.align	2
 1506              		.global	u8g2_m_13_8_f
 1507              		.thumb
 1508              		.thumb_func
 1509              		.type	u8g2_m_13_8_f, %function
 1510              	u8g2_m_13_8_f:
 1511              	.LFB53:
 324:..\u8g2-master\csrc/u8g2_d_memory.c **** uint8_t *u8g2_m_13_8_f(uint8_t *page_cnt)
 325:..\u8g2-master\csrc/u8g2_d_memory.c **** {
 1512              		.loc 1 325 0
 1513              		.cfi_startproc
 1514              		@ args = 0, pretend = 0, frame = 0
 1515              		@ frame_needed = 0, uses_anonymous_args = 0
 1516              		@ link register save eliminated.
 1517              	.LVL106:
 326:..\u8g2-master\csrc/u8g2_d_memory.c ****   static uint8_t buf[832];
 327:..\u8g2-master\csrc/u8g2_d_memory.c ****   *page_cnt = 8;
 1518              		.loc 1 327 0
 1519 0000 0823     		movs	r3, #8
 1520 0002 0370     		strb	r3, [r0]
 328:..\u8g2-master\csrc/u8g2_d_memory.c ****   return buf;
 329:..\u8g2-master\csrc/u8g2_d_memory.c **** }
 1521              		.loc 1 329 0
 1522 0004 0048     		ldr	r0, .L161
 1523              	.LVL107:
 1524 0006 7047     		bx	lr
 1525              	.L162:
 1526              		.align	2
 1527              	.L161:
 1528 0008 78960000 		.word	.LANCHOR6+3768
 1529              		.cfi_endproc
 1530              	.LFE53:
 1531              		.size	u8g2_m_13_8_f, .-u8g2_m_13_8_f
 1532              		.section	.text.u8g2_m_11_6_1,"ax",%progbits
 1533              		.align	2
 1534              		.global	u8g2_m_11_6_1
 1535              		.thumb
 1536              		.thumb_func
 1537              		.type	u8g2_m_11_6_1, %function
 1538              	u8g2_m_11_6_1:
 1539              	.LFB54:
 330:..\u8g2-master\csrc/u8g2_d_memory.c **** uint8_t *u8g2_m_11_6_1(uint8_t *page_cnt)
 331:..\u8g2-master\csrc/u8g2_d_memory.c **** {
 1540              		.loc 1 331 0
 1541              		.cfi_startproc
 1542              		@ args = 0, pretend = 0, frame = 0
 1543              		@ frame_needed = 0, uses_anonymous_args = 0
 1544              		@ link register save eliminated.
 1545              	.LVL108:
 332:..\u8g2-master\csrc/u8g2_d_memory.c ****   static uint8_t buf[88];
 333:..\u8g2-master\csrc/u8g2_d_memory.c ****   *page_cnt = 1;
 1546              		.loc 1 333 0
 1547 0000 0123     		movs	r3, #1
 1548 0002 0370     		strb	r3, [r0]
ARM GAS  C:\Users\info\AppData\Local\Temp\ccfHjuLM.s 			page 34


 334:..\u8g2-master\csrc/u8g2_d_memory.c ****   return buf;
 335:..\u8g2-master\csrc/u8g2_d_memory.c **** }
 1549              		.loc 1 335 0
 1550 0004 0048     		ldr	r0, .L164
 1551              	.LVL109:
 1552 0006 7047     		bx	lr
 1553              	.L165:
 1554              		.align	2
 1555              	.L164:
 1556 0008 B8990000 		.word	.LANCHOR7+256
 1557              		.cfi_endproc
 1558              	.LFE54:
 1559              		.size	u8g2_m_11_6_1, .-u8g2_m_11_6_1
 1560              		.section	.text.u8g2_m_11_6_2,"ax",%progbits
 1561              		.align	2
 1562              		.global	u8g2_m_11_6_2
 1563              		.thumb
 1564              		.thumb_func
 1565              		.type	u8g2_m_11_6_2, %function
 1566              	u8g2_m_11_6_2:
 1567              	.LFB55:
 336:..\u8g2-master\csrc/u8g2_d_memory.c **** uint8_t *u8g2_m_11_6_2(uint8_t *page_cnt)
 337:..\u8g2-master\csrc/u8g2_d_memory.c **** {
 1568              		.loc 1 337 0
 1569              		.cfi_startproc
 1570              		@ args = 0, pretend = 0, frame = 0
 1571              		@ frame_needed = 0, uses_anonymous_args = 0
 1572              		@ link register save eliminated.
 1573              	.LVL110:
 338:..\u8g2-master\csrc/u8g2_d_memory.c ****   static uint8_t buf[176];
 339:..\u8g2-master\csrc/u8g2_d_memory.c ****   *page_cnt = 2;
 1574              		.loc 1 339 0
 1575 0000 0223     		movs	r3, #2
 1576 0002 0370     		strb	r3, [r0]
 340:..\u8g2-master\csrc/u8g2_d_memory.c ****   return buf;
 341:..\u8g2-master\csrc/u8g2_d_memory.c **** }
 1577              		.loc 1 341 0
 1578 0004 0048     		ldr	r0, .L167
 1579              	.LVL111:
 1580 0006 7047     		bx	lr
 1581              	.L168:
 1582              		.align	2
 1583              	.L167:
 1584 0008 109A0000 		.word	.LANCHOR7+344
 1585              		.cfi_endproc
 1586              	.LFE55:
 1587              		.size	u8g2_m_11_6_2, .-u8g2_m_11_6_2
 1588              		.section	.text.u8g2_m_11_6_f,"ax",%progbits
 1589              		.align	2
 1590              		.global	u8g2_m_11_6_f
 1591              		.thumb
 1592              		.thumb_func
 1593              		.type	u8g2_m_11_6_f, %function
 1594              	u8g2_m_11_6_f:
 1595              	.LFB56:
 342:..\u8g2-master\csrc/u8g2_d_memory.c **** uint8_t *u8g2_m_11_6_f(uint8_t *page_cnt)
 343:..\u8g2-master\csrc/u8g2_d_memory.c **** {
ARM GAS  C:\Users\info\AppData\Local\Temp\ccfHjuLM.s 			page 35


 1596              		.loc 1 343 0
 1597              		.cfi_startproc
 1598              		@ args = 0, pretend = 0, frame = 0
 1599              		@ frame_needed = 0, uses_anonymous_args = 0
 1600              		@ link register save eliminated.
 1601              	.LVL112:
 344:..\u8g2-master\csrc/u8g2_d_memory.c ****   static uint8_t buf[528];
 345:..\u8g2-master\csrc/u8g2_d_memory.c ****   *page_cnt = 6;
 1602              		.loc 1 345 0
 1603 0000 0623     		movs	r3, #6
 1604 0002 0370     		strb	r3, [r0]
 346:..\u8g2-master\csrc/u8g2_d_memory.c ****   return buf;
 347:..\u8g2-master\csrc/u8g2_d_memory.c **** }
 1605              		.loc 1 347 0
 1606 0004 0048     		ldr	r0, .L170
 1607              	.LVL113:
 1608 0006 7047     		bx	lr
 1609              	.L171:
 1610              		.align	2
 1611              	.L170:
 1612 0008 C09A0000 		.word	.LANCHOR7+520
 1613              		.cfi_endproc
 1614              	.LFE56:
 1615              		.size	u8g2_m_11_6_f, .-u8g2_m_11_6_f
 1616              		.section	.text.u8g2_m_12_9_1,"ax",%progbits
 1617              		.align	2
 1618              		.global	u8g2_m_12_9_1
 1619              		.thumb
 1620              		.thumb_func
 1621              		.type	u8g2_m_12_9_1, %function
 1622              	u8g2_m_12_9_1:
 1623              	.LFB57:
 348:..\u8g2-master\csrc/u8g2_d_memory.c **** uint8_t *u8g2_m_12_9_1(uint8_t *page_cnt)
 349:..\u8g2-master\csrc/u8g2_d_memory.c **** {
 1624              		.loc 1 349 0
 1625              		.cfi_startproc
 1626              		@ args = 0, pretend = 0, frame = 0
 1627              		@ frame_needed = 0, uses_anonymous_args = 0
 1628              		@ link register save eliminated.
 1629              	.LVL114:
 350:..\u8g2-master\csrc/u8g2_d_memory.c ****   static uint8_t buf[96];
 351:..\u8g2-master\csrc/u8g2_d_memory.c ****   *page_cnt = 1;
 1630              		.loc 1 351 0
 1631 0000 0123     		movs	r3, #1
 1632 0002 0370     		strb	r3, [r0]
 352:..\u8g2-master\csrc/u8g2_d_memory.c ****   return buf;
 353:..\u8g2-master\csrc/u8g2_d_memory.c **** }
 1633              		.loc 1 353 0
 1634 0004 0048     		ldr	r0, .L173
 1635              	.LVL115:
 1636 0006 7047     		bx	lr
 1637              	.L174:
 1638              		.align	2
 1639              	.L173:
 1640 0008 D09C0000 		.word	.LANCHOR7+1048
 1641              		.cfi_endproc
 1642              	.LFE57:
ARM GAS  C:\Users\info\AppData\Local\Temp\ccfHjuLM.s 			page 36


 1643              		.size	u8g2_m_12_9_1, .-u8g2_m_12_9_1
 1644              		.section	.text.u8g2_m_12_9_2,"ax",%progbits
 1645              		.align	2
 1646              		.global	u8g2_m_12_9_2
 1647              		.thumb
 1648              		.thumb_func
 1649              		.type	u8g2_m_12_9_2, %function
 1650              	u8g2_m_12_9_2:
 1651              	.LFB58:
 354:..\u8g2-master\csrc/u8g2_d_memory.c **** uint8_t *u8g2_m_12_9_2(uint8_t *page_cnt)
 355:..\u8g2-master\csrc/u8g2_d_memory.c **** {
 1652              		.loc 1 355 0
 1653              		.cfi_startproc
 1654              		@ args = 0, pretend = 0, frame = 0
 1655              		@ frame_needed = 0, uses_anonymous_args = 0
 1656              		@ link register save eliminated.
 1657              	.LVL116:
 356:..\u8g2-master\csrc/u8g2_d_memory.c ****   static uint8_t buf[192];
 357:..\u8g2-master\csrc/u8g2_d_memory.c ****   *page_cnt = 2;
 1658              		.loc 1 357 0
 1659 0000 0223     		movs	r3, #2
 1660 0002 0370     		strb	r3, [r0]
 358:..\u8g2-master\csrc/u8g2_d_memory.c ****   return buf;
 359:..\u8g2-master\csrc/u8g2_d_memory.c **** }
 1661              		.loc 1 359 0
 1662 0004 0048     		ldr	r0, .L176
 1663              	.LVL117:
 1664 0006 7047     		bx	lr
 1665              	.L177:
 1666              		.align	2
 1667              	.L176:
 1668 0008 309D0000 		.word	.LANCHOR7+1144
 1669              		.cfi_endproc
 1670              	.LFE58:
 1671              		.size	u8g2_m_12_9_2, .-u8g2_m_12_9_2
 1672              		.section	.text.u8g2_m_12_9_f,"ax",%progbits
 1673              		.align	2
 1674              		.global	u8g2_m_12_9_f
 1675              		.thumb
 1676              		.thumb_func
 1677              		.type	u8g2_m_12_9_f, %function
 1678              	u8g2_m_12_9_f:
 1679              	.LFB59:
 360:..\u8g2-master\csrc/u8g2_d_memory.c **** uint8_t *u8g2_m_12_9_f(uint8_t *page_cnt)
 361:..\u8g2-master\csrc/u8g2_d_memory.c **** {
 1680              		.loc 1 361 0
 1681              		.cfi_startproc
 1682              		@ args = 0, pretend = 0, frame = 0
 1683              		@ frame_needed = 0, uses_anonymous_args = 0
 1684              		@ link register save eliminated.
 1685              	.LVL118:
 362:..\u8g2-master\csrc/u8g2_d_memory.c ****   static uint8_t buf[864];
 363:..\u8g2-master\csrc/u8g2_d_memory.c ****   *page_cnt = 9;
 1686              		.loc 1 363 0
 1687 0000 0923     		movs	r3, #9
 1688 0002 0370     		strb	r3, [r0]
 364:..\u8g2-master\csrc/u8g2_d_memory.c ****   return buf;
ARM GAS  C:\Users\info\AppData\Local\Temp\ccfHjuLM.s 			page 37


 365:..\u8g2-master\csrc/u8g2_d_memory.c **** }
 1689              		.loc 1 365 0
 1690 0004 0048     		ldr	r0, .L179
 1691              	.LVL119:
 1692 0006 7047     		bx	lr
 1693              	.L180:
 1694              		.align	2
 1695              	.L179:
 1696 0008 F09D0000 		.word	.LANCHOR7+1336
 1697              		.cfi_endproc
 1698              	.LFE59:
 1699              		.size	u8g2_m_12_9_f, .-u8g2_m_12_9_f
 1700              		.section	.text.u8g2_m_24_8_1,"ax",%progbits
 1701              		.align	2
 1702              		.global	u8g2_m_24_8_1
 1703              		.thumb
 1704              		.thumb_func
 1705              		.type	u8g2_m_24_8_1, %function
 1706              	u8g2_m_24_8_1:
 1707              	.LFB60:
 366:..\u8g2-master\csrc/u8g2_d_memory.c **** uint8_t *u8g2_m_24_8_1(uint8_t *page_cnt)
 367:..\u8g2-master\csrc/u8g2_d_memory.c **** {
 1708              		.loc 1 367 0
 1709              		.cfi_startproc
 1710              		@ args = 0, pretend = 0, frame = 0
 1711              		@ frame_needed = 0, uses_anonymous_args = 0
 1712              		@ link register save eliminated.
 1713              	.LVL120:
 368:..\u8g2-master\csrc/u8g2_d_memory.c ****   static uint8_t buf[192];
 369:..\u8g2-master\csrc/u8g2_d_memory.c ****   *page_cnt = 1;
 1714              		.loc 1 369 0
 1715 0000 0123     		movs	r3, #1
 1716 0002 0370     		strb	r3, [r0]
 370:..\u8g2-master\csrc/u8g2_d_memory.c ****   return buf;
 371:..\u8g2-master\csrc/u8g2_d_memory.c **** }
 1717              		.loc 1 371 0
 1718 0004 0048     		ldr	r0, .L182
 1719              	.LVL121:
 1720 0006 7047     		bx	lr
 1721              	.L183:
 1722              		.align	2
 1723              	.L182:
 1724 0008 50A10000 		.word	.LANCHOR7+2200
 1725              		.cfi_endproc
 1726              	.LFE60:
 1727              		.size	u8g2_m_24_8_1, .-u8g2_m_24_8_1
 1728              		.section	.text.u8g2_m_24_8_2,"ax",%progbits
 1729              		.align	2
 1730              		.global	u8g2_m_24_8_2
 1731              		.thumb
 1732              		.thumb_func
 1733              		.type	u8g2_m_24_8_2, %function
 1734              	u8g2_m_24_8_2:
 1735              	.LFB61:
 372:..\u8g2-master\csrc/u8g2_d_memory.c **** uint8_t *u8g2_m_24_8_2(uint8_t *page_cnt)
 373:..\u8g2-master\csrc/u8g2_d_memory.c **** {
 1736              		.loc 1 373 0
ARM GAS  C:\Users\info\AppData\Local\Temp\ccfHjuLM.s 			page 38


 1737              		.cfi_startproc
 1738              		@ args = 0, pretend = 0, frame = 0
 1739              		@ frame_needed = 0, uses_anonymous_args = 0
 1740              		@ link register save eliminated.
 1741              	.LVL122:
 374:..\u8g2-master\csrc/u8g2_d_memory.c ****   static uint8_t buf[384];
 375:..\u8g2-master\csrc/u8g2_d_memory.c ****   *page_cnt = 2;
 1742              		.loc 1 375 0
 1743 0000 0223     		movs	r3, #2
 1744 0002 0370     		strb	r3, [r0]
 376:..\u8g2-master\csrc/u8g2_d_memory.c ****   return buf;
 377:..\u8g2-master\csrc/u8g2_d_memory.c **** }
 1745              		.loc 1 377 0
 1746 0004 0048     		ldr	r0, .L185
 1747              	.LVL123:
 1748 0006 7047     		bx	lr
 1749              	.L186:
 1750              		.align	2
 1751              	.L185:
 1752 0008 10A20000 		.word	.LANCHOR7+2392
 1753              		.cfi_endproc
 1754              	.LFE61:
 1755              		.size	u8g2_m_24_8_2, .-u8g2_m_24_8_2
 1756              		.section	.text.u8g2_m_24_8_f,"ax",%progbits
 1757              		.align	2
 1758              		.global	u8g2_m_24_8_f
 1759              		.thumb
 1760              		.thumb_func
 1761              		.type	u8g2_m_24_8_f, %function
 1762              	u8g2_m_24_8_f:
 1763              	.LFB62:
 378:..\u8g2-master\csrc/u8g2_d_memory.c **** uint8_t *u8g2_m_24_8_f(uint8_t *page_cnt)
 379:..\u8g2-master\csrc/u8g2_d_memory.c **** {
 1764              		.loc 1 379 0
 1765              		.cfi_startproc
 1766              		@ args = 0, pretend = 0, frame = 0
 1767              		@ frame_needed = 0, uses_anonymous_args = 0
 1768              		@ link register save eliminated.
 1769              	.LVL124:
 380:..\u8g2-master\csrc/u8g2_d_memory.c ****   static uint8_t buf[1536];
 381:..\u8g2-master\csrc/u8g2_d_memory.c ****   *page_cnt = 8;
 1770              		.loc 1 381 0
 1771 0000 0823     		movs	r3, #8
 1772 0002 0370     		strb	r3, [r0]
 382:..\u8g2-master\csrc/u8g2_d_memory.c ****   return buf;
 383:..\u8g2-master\csrc/u8g2_d_memory.c **** }
 1773              		.loc 1 383 0
 1774 0004 0048     		ldr	r0, .L188
 1775              	.LVL125:
 1776 0006 7047     		bx	lr
 1777              	.L189:
 1778              		.align	2
 1779              	.L188:
 1780 0008 90A30000 		.word	.LANCHOR7+2776
 1781              		.cfi_endproc
 1782              	.LFE62:
 1783              		.size	u8g2_m_24_8_f, .-u8g2_m_24_8_f
ARM GAS  C:\Users\info\AppData\Local\Temp\ccfHjuLM.s 			page 39


 1784              		.section	.text.u8g2_m_30_8_1,"ax",%progbits
 1785              		.align	2
 1786              		.global	u8g2_m_30_8_1
 1787              		.thumb
 1788              		.thumb_func
 1789              		.type	u8g2_m_30_8_1, %function
 1790              	u8g2_m_30_8_1:
 1791              	.LFB63:
 384:..\u8g2-master\csrc/u8g2_d_memory.c **** uint8_t *u8g2_m_30_8_1(uint8_t *page_cnt)
 385:..\u8g2-master\csrc/u8g2_d_memory.c **** {
 1792              		.loc 1 385 0
 1793              		.cfi_startproc
 1794              		@ args = 0, pretend = 0, frame = 0
 1795              		@ frame_needed = 0, uses_anonymous_args = 0
 1796              		@ link register save eliminated.
 1797              	.LVL126:
 386:..\u8g2-master\csrc/u8g2_d_memory.c ****   static uint8_t buf[240];
 387:..\u8g2-master\csrc/u8g2_d_memory.c ****   *page_cnt = 1;
 1798              		.loc 1 387 0
 1799 0000 0123     		movs	r3, #1
 1800 0002 0370     		strb	r3, [r0]
 388:..\u8g2-master\csrc/u8g2_d_memory.c ****   return buf;
 389:..\u8g2-master\csrc/u8g2_d_memory.c **** }
 1801              		.loc 1 389 0
 1802 0004 0048     		ldr	r0, .L191
 1803              	.LVL127:
 1804 0006 7047     		bx	lr
 1805              	.L192:
 1806              		.align	2
 1807              	.L191:
 1808 0008 90A90000 		.word	.LANCHOR8-32
 1809              		.cfi_endproc
 1810              	.LFE63:
 1811              		.size	u8g2_m_30_8_1, .-u8g2_m_30_8_1
 1812              		.section	.text.u8g2_m_30_8_2,"ax",%progbits
 1813              		.align	2
 1814              		.global	u8g2_m_30_8_2
 1815              		.thumb
 1816              		.thumb_func
 1817              		.type	u8g2_m_30_8_2, %function
 1818              	u8g2_m_30_8_2:
 1819              	.LFB64:
 390:..\u8g2-master\csrc/u8g2_d_memory.c **** uint8_t *u8g2_m_30_8_2(uint8_t *page_cnt)
 391:..\u8g2-master\csrc/u8g2_d_memory.c **** {
 1820              		.loc 1 391 0
 1821              		.cfi_startproc
 1822              		@ args = 0, pretend = 0, frame = 0
 1823              		@ frame_needed = 0, uses_anonymous_args = 0
 1824              		@ link register save eliminated.
 1825              	.LVL128:
 392:..\u8g2-master\csrc/u8g2_d_memory.c ****   static uint8_t buf[480];
 393:..\u8g2-master\csrc/u8g2_d_memory.c ****   *page_cnt = 2;
 1826              		.loc 1 393 0
 1827 0000 0223     		movs	r3, #2
 1828 0002 0370     		strb	r3, [r0]
 394:..\u8g2-master\csrc/u8g2_d_memory.c ****   return buf;
 395:..\u8g2-master\csrc/u8g2_d_memory.c **** }
ARM GAS  C:\Users\info\AppData\Local\Temp\ccfHjuLM.s 			page 40


 1829              		.loc 1 395 0
 1830 0004 0048     		ldr	r0, .L194
 1831              	.LVL129:
 1832 0006 7047     		bx	lr
 1833              	.L195:
 1834              		.align	2
 1835              	.L194:
 1836 0008 80AA0000 		.word	.LANCHOR8+208
 1837              		.cfi_endproc
 1838              	.LFE64:
 1839              		.size	u8g2_m_30_8_2, .-u8g2_m_30_8_2
 1840              		.section	.text.u8g2_m_30_8_f,"ax",%progbits
 1841              		.align	2
 1842              		.global	u8g2_m_30_8_f
 1843              		.thumb
 1844              		.thumb_func
 1845              		.type	u8g2_m_30_8_f, %function
 1846              	u8g2_m_30_8_f:
 1847              	.LFB65:
 396:..\u8g2-master\csrc/u8g2_d_memory.c **** uint8_t *u8g2_m_30_8_f(uint8_t *page_cnt)
 397:..\u8g2-master\csrc/u8g2_d_memory.c **** {
 1848              		.loc 1 397 0
 1849              		.cfi_startproc
 1850              		@ args = 0, pretend = 0, frame = 0
 1851              		@ frame_needed = 0, uses_anonymous_args = 0
 1852              		@ link register save eliminated.
 1853              	.LVL130:
 398:..\u8g2-master\csrc/u8g2_d_memory.c ****   static uint8_t buf[1920];
 399:..\u8g2-master\csrc/u8g2_d_memory.c ****   *page_cnt = 8;
 1854              		.loc 1 399 0
 1855 0000 0823     		movs	r3, #8
 1856 0002 0370     		strb	r3, [r0]
 400:..\u8g2-master\csrc/u8g2_d_memory.c ****   return buf;
 401:..\u8g2-master\csrc/u8g2_d_memory.c **** }
 1857              		.loc 1 401 0
 1858 0004 0048     		ldr	r0, .L197
 1859              	.LVL131:
 1860 0006 7047     		bx	lr
 1861              	.L198:
 1862              		.align	2
 1863              	.L197:
 1864 0008 60AC0000 		.word	.LANCHOR8+688
 1865              		.cfi_endproc
 1866              	.LFE65:
 1867              		.size	u8g2_m_30_8_f, .-u8g2_m_30_8_f
 1868              		.section	.text.u8g2_m_30_15_1,"ax",%progbits
 1869              		.align	2
 1870              		.global	u8g2_m_30_15_1
 1871              		.thumb
 1872              		.thumb_func
 1873              		.type	u8g2_m_30_15_1, %function
 1874              	u8g2_m_30_15_1:
 1875              	.LFB66:
 402:..\u8g2-master\csrc/u8g2_d_memory.c **** uint8_t *u8g2_m_30_15_1(uint8_t *page_cnt)
 403:..\u8g2-master\csrc/u8g2_d_memory.c **** {
 1876              		.loc 1 403 0
 1877              		.cfi_startproc
ARM GAS  C:\Users\info\AppData\Local\Temp\ccfHjuLM.s 			page 41


 1878              		@ args = 0, pretend = 0, frame = 0
 1879              		@ frame_needed = 0, uses_anonymous_args = 0
 1880              		@ link register save eliminated.
 1881              	.LVL132:
 404:..\u8g2-master\csrc/u8g2_d_memory.c ****   static uint8_t buf[240];
 405:..\u8g2-master\csrc/u8g2_d_memory.c ****   *page_cnt = 1;
 1882              		.loc 1 405 0
 1883 0000 0123     		movs	r3, #1
 1884 0002 0370     		strb	r3, [r0]
 406:..\u8g2-master\csrc/u8g2_d_memory.c ****   return buf;
 407:..\u8g2-master\csrc/u8g2_d_memory.c **** }
 1885              		.loc 1 407 0
 1886 0004 0048     		ldr	r0, .L200
 1887              	.LVL133:
 1888 0006 7047     		bx	lr
 1889              	.L201:
 1890              		.align	2
 1891              	.L200:
 1892 0008 E0B30000 		.word	.LANCHOR8+2608
 1893              		.cfi_endproc
 1894              	.LFE66:
 1895              		.size	u8g2_m_30_15_1, .-u8g2_m_30_15_1
 1896              		.section	.text.u8g2_m_30_15_2,"ax",%progbits
 1897              		.align	2
 1898              		.global	u8g2_m_30_15_2
 1899              		.thumb
 1900              		.thumb_func
 1901              		.type	u8g2_m_30_15_2, %function
 1902              	u8g2_m_30_15_2:
 1903              	.LFB67:
 408:..\u8g2-master\csrc/u8g2_d_memory.c **** uint8_t *u8g2_m_30_15_2(uint8_t *page_cnt)
 409:..\u8g2-master\csrc/u8g2_d_memory.c **** {
 1904              		.loc 1 409 0
 1905              		.cfi_startproc
 1906              		@ args = 0, pretend = 0, frame = 0
 1907              		@ frame_needed = 0, uses_anonymous_args = 0
 1908              		@ link register save eliminated.
 1909              	.LVL134:
 410:..\u8g2-master\csrc/u8g2_d_memory.c ****   static uint8_t buf[480];
 411:..\u8g2-master\csrc/u8g2_d_memory.c ****   *page_cnt = 2;
 1910              		.loc 1 411 0
 1911 0000 0223     		movs	r3, #2
 1912 0002 0370     		strb	r3, [r0]
 412:..\u8g2-master\csrc/u8g2_d_memory.c ****   return buf;
 413:..\u8g2-master\csrc/u8g2_d_memory.c **** }
 1913              		.loc 1 413 0
 1914 0004 0048     		ldr	r0, .L203
 1915              	.LVL135:
 1916 0006 7047     		bx	lr
 1917              	.L204:
 1918              		.align	2
 1919              	.L203:
 1920 0008 D0B40000 		.word	.LANCHOR8+2848
 1921              		.cfi_endproc
 1922              	.LFE67:
 1923              		.size	u8g2_m_30_15_2, .-u8g2_m_30_15_2
 1924              		.section	.text.u8g2_m_30_15_f,"ax",%progbits
ARM GAS  C:\Users\info\AppData\Local\Temp\ccfHjuLM.s 			page 42


 1925              		.align	2
 1926              		.global	u8g2_m_30_15_f
 1927              		.thumb
 1928              		.thumb_func
 1929              		.type	u8g2_m_30_15_f, %function
 1930              	u8g2_m_30_15_f:
 1931              	.LFB68:
 414:..\u8g2-master\csrc/u8g2_d_memory.c **** uint8_t *u8g2_m_30_15_f(uint8_t *page_cnt)
 415:..\u8g2-master\csrc/u8g2_d_memory.c **** {
 1932              		.loc 1 415 0
 1933              		.cfi_startproc
 1934              		@ args = 0, pretend = 0, frame = 0
 1935              		@ frame_needed = 0, uses_anonymous_args = 0
 1936              		@ link register save eliminated.
 1937              	.LVL136:
 416:..\u8g2-master\csrc/u8g2_d_memory.c ****   static uint8_t buf[3600];
 417:..\u8g2-master\csrc/u8g2_d_memory.c ****   *page_cnt = 15;
 1938              		.loc 1 417 0
 1939 0000 0F23     		movs	r3, #15
 1940 0002 0370     		strb	r3, [r0]
 418:..\u8g2-master\csrc/u8g2_d_memory.c ****   return buf;
 419:..\u8g2-master\csrc/u8g2_d_memory.c **** }
 1941              		.loc 1 419 0
 1942 0004 0048     		ldr	r0, .L206
 1943              	.LVL137:
 1944 0006 7047     		bx	lr
 1945              	.L207:
 1946              		.align	2
 1947              	.L206:
 1948 0008 B0B60000 		.word	.LANCHOR8+3328
 1949              		.cfi_endproc
 1950              	.LFE68:
 1951              		.size	u8g2_m_30_15_f, .-u8g2_m_30_15_f
 1952              		.section	.text.u8g2_m_30_16_1,"ax",%progbits
 1953              		.align	2
 1954              		.global	u8g2_m_30_16_1
 1955              		.thumb
 1956              		.thumb_func
 1957              		.type	u8g2_m_30_16_1, %function
 1958              	u8g2_m_30_16_1:
 1959              	.LFB69:
 420:..\u8g2-master\csrc/u8g2_d_memory.c **** uint8_t *u8g2_m_30_16_1(uint8_t *page_cnt)
 421:..\u8g2-master\csrc/u8g2_d_memory.c **** {
 1960              		.loc 1 421 0
 1961              		.cfi_startproc
 1962              		@ args = 0, pretend = 0, frame = 0
 1963              		@ frame_needed = 0, uses_anonymous_args = 0
 1964              		@ link register save eliminated.
 1965              	.LVL138:
 422:..\u8g2-master\csrc/u8g2_d_memory.c ****   static uint8_t buf[240];
 423:..\u8g2-master\csrc/u8g2_d_memory.c ****   *page_cnt = 1;
 1966              		.loc 1 423 0
 1967 0000 0123     		movs	r3, #1
 1968 0002 0370     		strb	r3, [r0]
 424:..\u8g2-master\csrc/u8g2_d_memory.c ****   return buf;
 425:..\u8g2-master\csrc/u8g2_d_memory.c **** }
 1969              		.loc 1 425 0
ARM GAS  C:\Users\info\AppData\Local\Temp\ccfHjuLM.s 			page 43


 1970 0004 0048     		ldr	r0, .L209
 1971              	.LVL139:
 1972 0006 7047     		bx	lr
 1973              	.L210:
 1974              		.align	2
 1975              	.L209:
 1976 0008 C0C40000 		.word	.LANCHOR9+2584
 1977              		.cfi_endproc
 1978              	.LFE69:
 1979              		.size	u8g2_m_30_16_1, .-u8g2_m_30_16_1
 1980              		.section	.text.u8g2_m_30_16_2,"ax",%progbits
 1981              		.align	2
 1982              		.global	u8g2_m_30_16_2
 1983              		.thumb
 1984              		.thumb_func
 1985              		.type	u8g2_m_30_16_2, %function
 1986              	u8g2_m_30_16_2:
 1987              	.LFB70:
 426:..\u8g2-master\csrc/u8g2_d_memory.c **** uint8_t *u8g2_m_30_16_2(uint8_t *page_cnt)
 427:..\u8g2-master\csrc/u8g2_d_memory.c **** {
 1988              		.loc 1 427 0
 1989              		.cfi_startproc
 1990              		@ args = 0, pretend = 0, frame = 0
 1991              		@ frame_needed = 0, uses_anonymous_args = 0
 1992              		@ link register save eliminated.
 1993              	.LVL140:
 428:..\u8g2-master\csrc/u8g2_d_memory.c ****   static uint8_t buf[480];
 429:..\u8g2-master\csrc/u8g2_d_memory.c ****   *page_cnt = 2;
 1994              		.loc 1 429 0
 1995 0000 0223     		movs	r3, #2
 1996 0002 0370     		strb	r3, [r0]
 430:..\u8g2-master\csrc/u8g2_d_memory.c ****   return buf;
 431:..\u8g2-master\csrc/u8g2_d_memory.c **** }
 1997              		.loc 1 431 0
 1998 0004 0048     		ldr	r0, .L212
 1999              	.LVL141:
 2000 0006 7047     		bx	lr
 2001              	.L213:
 2002              		.align	2
 2003              	.L212:
 2004 0008 B0C50000 		.word	.LANCHOR9+2824
 2005              		.cfi_endproc
 2006              	.LFE70:
 2007              		.size	u8g2_m_30_16_2, .-u8g2_m_30_16_2
 2008              		.section	.text.u8g2_m_30_16_f,"ax",%progbits
 2009              		.align	2
 2010              		.global	u8g2_m_30_16_f
 2011              		.thumb
 2012              		.thumb_func
 2013              		.type	u8g2_m_30_16_f, %function
 2014              	u8g2_m_30_16_f:
 2015              	.LFB71:
 432:..\u8g2-master\csrc/u8g2_d_memory.c **** uint8_t *u8g2_m_30_16_f(uint8_t *page_cnt)
 433:..\u8g2-master\csrc/u8g2_d_memory.c **** {
 2016              		.loc 1 433 0
 2017              		.cfi_startproc
 2018              		@ args = 0, pretend = 0, frame = 0
ARM GAS  C:\Users\info\AppData\Local\Temp\ccfHjuLM.s 			page 44


 2019              		@ frame_needed = 0, uses_anonymous_args = 0
 2020              		@ link register save eliminated.
 2021              	.LVL142:
 434:..\u8g2-master\csrc/u8g2_d_memory.c ****   static uint8_t buf[3840];
 435:..\u8g2-master\csrc/u8g2_d_memory.c ****   *page_cnt = 16;
 2022              		.loc 1 435 0
 2023 0000 1023     		movs	r3, #16
 2024 0002 0370     		strb	r3, [r0]
 436:..\u8g2-master\csrc/u8g2_d_memory.c ****   return buf;
 437:..\u8g2-master\csrc/u8g2_d_memory.c **** }
 2025              		.loc 1 437 0
 2026 0004 0048     		ldr	r0, .L215
 2027              	.LVL143:
 2028 0006 7047     		bx	lr
 2029              	.L216:
 2030              		.align	2
 2031              	.L215:
 2032 0008 90C70000 		.word	.LANCHOR9+3304
 2033              		.cfi_endproc
 2034              	.LFE71:
 2035              		.size	u8g2_m_30_16_f, .-u8g2_m_30_16_f
 2036              		.section	.text.u8g2_m_20_16_1,"ax",%progbits
 2037              		.align	2
 2038              		.global	u8g2_m_20_16_1
 2039              		.thumb
 2040              		.thumb_func
 2041              		.type	u8g2_m_20_16_1, %function
 2042              	u8g2_m_20_16_1:
 2043              	.LFB72:
 438:..\u8g2-master\csrc/u8g2_d_memory.c **** uint8_t *u8g2_m_20_16_1(uint8_t *page_cnt)
 439:..\u8g2-master\csrc/u8g2_d_memory.c **** {
 2044              		.loc 1 439 0
 2045              		.cfi_startproc
 2046              		@ args = 0, pretend = 0, frame = 0
 2047              		@ frame_needed = 0, uses_anonymous_args = 0
 2048              		@ link register save eliminated.
 2049              	.LVL144:
 440:..\u8g2-master\csrc/u8g2_d_memory.c ****   static uint8_t buf[160];
 441:..\u8g2-master\csrc/u8g2_d_memory.c ****   *page_cnt = 1;
 2050              		.loc 1 441 0
 2051 0000 0123     		movs	r3, #1
 2052 0002 0370     		strb	r3, [r0]
 442:..\u8g2-master\csrc/u8g2_d_memory.c ****   return buf;
 443:..\u8g2-master\csrc/u8g2_d_memory.c **** }
 2053              		.loc 1 443 0
 2054 0004 0048     		ldr	r0, .L218
 2055              	.LVL145:
 2056 0006 7047     		bx	lr
 2057              	.L219:
 2058              		.align	2
 2059              	.L218:
 2060 0008 90D60000 		.word	.LANCHOR10+2800
 2061              		.cfi_endproc
 2062              	.LFE72:
 2063              		.size	u8g2_m_20_16_1, .-u8g2_m_20_16_1
 2064              		.section	.text.u8g2_m_20_16_2,"ax",%progbits
 2065              		.align	2
ARM GAS  C:\Users\info\AppData\Local\Temp\ccfHjuLM.s 			page 45


 2066              		.global	u8g2_m_20_16_2
 2067              		.thumb
 2068              		.thumb_func
 2069              		.type	u8g2_m_20_16_2, %function
 2070              	u8g2_m_20_16_2:
 2071              	.LFB73:
 444:..\u8g2-master\csrc/u8g2_d_memory.c **** uint8_t *u8g2_m_20_16_2(uint8_t *page_cnt)
 445:..\u8g2-master\csrc/u8g2_d_memory.c **** {
 2072              		.loc 1 445 0
 2073              		.cfi_startproc
 2074              		@ args = 0, pretend = 0, frame = 0
 2075              		@ frame_needed = 0, uses_anonymous_args = 0
 2076              		@ link register save eliminated.
 2077              	.LVL146:
 446:..\u8g2-master\csrc/u8g2_d_memory.c ****   static uint8_t buf[320];
 447:..\u8g2-master\csrc/u8g2_d_memory.c ****   *page_cnt = 2;
 2078              		.loc 1 447 0
 2079 0000 0223     		movs	r3, #2
 2080 0002 0370     		strb	r3, [r0]
 448:..\u8g2-master\csrc/u8g2_d_memory.c ****   return buf;
 449:..\u8g2-master\csrc/u8g2_d_memory.c **** }
 2081              		.loc 1 449 0
 2082 0004 0048     		ldr	r0, .L221
 2083              	.LVL147:
 2084 0006 7047     		bx	lr
 2085              	.L222:
 2086              		.align	2
 2087              	.L221:
 2088 0008 30D70000 		.word	.LANCHOR10+2960
 2089              		.cfi_endproc
 2090              	.LFE73:
 2091              		.size	u8g2_m_20_16_2, .-u8g2_m_20_16_2
 2092              		.section	.text.u8g2_m_20_16_f,"ax",%progbits
 2093              		.align	2
 2094              		.global	u8g2_m_20_16_f
 2095              		.thumb
 2096              		.thumb_func
 2097              		.type	u8g2_m_20_16_f, %function
 2098              	u8g2_m_20_16_f:
 2099              	.LFB74:
 450:..\u8g2-master\csrc/u8g2_d_memory.c **** uint8_t *u8g2_m_20_16_f(uint8_t *page_cnt)
 451:..\u8g2-master\csrc/u8g2_d_memory.c **** {
 2100              		.loc 1 451 0
 2101              		.cfi_startproc
 2102              		@ args = 0, pretend = 0, frame = 0
 2103              		@ frame_needed = 0, uses_anonymous_args = 0
 2104              		@ link register save eliminated.
 2105              	.LVL148:
 452:..\u8g2-master\csrc/u8g2_d_memory.c ****   static uint8_t buf[2560];
 453:..\u8g2-master\csrc/u8g2_d_memory.c ****   *page_cnt = 16;
 2106              		.loc 1 453 0
 2107 0000 1023     		movs	r3, #16
 2108 0002 0370     		strb	r3, [r0]
 454:..\u8g2-master\csrc/u8g2_d_memory.c ****   return buf;
 455:..\u8g2-master\csrc/u8g2_d_memory.c **** }
 2109              		.loc 1 455 0
 2110 0004 0048     		ldr	r0, .L224
ARM GAS  C:\Users\info\AppData\Local\Temp\ccfHjuLM.s 			page 46


 2111              	.LVL149:
 2112 0006 7047     		bx	lr
 2113              	.L225:
 2114              		.align	2
 2115              	.L224:
 2116 0008 70D80000 		.word	.LANCHOR10+3280
 2117              		.cfi_endproc
 2118              	.LFE74:
 2119              		.size	u8g2_m_20_16_f, .-u8g2_m_20_16_f
 2120              		.section	.text.u8g2_m_20_13_1,"ax",%progbits
 2121              		.align	2
 2122              		.global	u8g2_m_20_13_1
 2123              		.thumb
 2124              		.thumb_func
 2125              		.type	u8g2_m_20_13_1, %function
 2126              	u8g2_m_20_13_1:
 2127              	.LFB75:
 456:..\u8g2-master\csrc/u8g2_d_memory.c **** uint8_t *u8g2_m_20_13_1(uint8_t *page_cnt)
 457:..\u8g2-master\csrc/u8g2_d_memory.c **** {
 2128              		.loc 1 457 0
 2129              		.cfi_startproc
 2130              		@ args = 0, pretend = 0, frame = 0
 2131              		@ frame_needed = 0, uses_anonymous_args = 0
 2132              		@ link register save eliminated.
 2133              	.LVL150:
 458:..\u8g2-master\csrc/u8g2_d_memory.c ****   static uint8_t buf[160];
 459:..\u8g2-master\csrc/u8g2_d_memory.c ****   *page_cnt = 1;
 2134              		.loc 1 459 0
 2135 0000 0123     		movs	r3, #1
 2136 0002 0370     		strb	r3, [r0]
 460:..\u8g2-master\csrc/u8g2_d_memory.c ****   return buf;
 461:..\u8g2-master\csrc/u8g2_d_memory.c **** }
 2137              		.loc 1 461 0
 2138 0004 0048     		ldr	r0, .L227
 2139              	.LVL151:
 2140 0006 7047     		bx	lr
 2141              	.L228:
 2142              		.align	2
 2143              	.L227:
 2144 0008 70E20000 		.word	.LANCHOR11+1496
 2145              		.cfi_endproc
 2146              	.LFE75:
 2147              		.size	u8g2_m_20_13_1, .-u8g2_m_20_13_1
 2148              		.section	.text.u8g2_m_20_13_2,"ax",%progbits
 2149              		.align	2
 2150              		.global	u8g2_m_20_13_2
 2151              		.thumb
 2152              		.thumb_func
 2153              		.type	u8g2_m_20_13_2, %function
 2154              	u8g2_m_20_13_2:
 2155              	.LFB76:
 462:..\u8g2-master\csrc/u8g2_d_memory.c **** uint8_t *u8g2_m_20_13_2(uint8_t *page_cnt)
 463:..\u8g2-master\csrc/u8g2_d_memory.c **** {
 2156              		.loc 1 463 0
 2157              		.cfi_startproc
 2158              		@ args = 0, pretend = 0, frame = 0
 2159              		@ frame_needed = 0, uses_anonymous_args = 0
ARM GAS  C:\Users\info\AppData\Local\Temp\ccfHjuLM.s 			page 47


 2160              		@ link register save eliminated.
 2161              	.LVL152:
 464:..\u8g2-master\csrc/u8g2_d_memory.c ****   static uint8_t buf[320];
 465:..\u8g2-master\csrc/u8g2_d_memory.c ****   *page_cnt = 2;
 2162              		.loc 1 465 0
 2163 0000 0223     		movs	r3, #2
 2164 0002 0370     		strb	r3, [r0]
 466:..\u8g2-master\csrc/u8g2_d_memory.c ****   return buf;
 467:..\u8g2-master\csrc/u8g2_d_memory.c **** }
 2165              		.loc 1 467 0
 2166 0004 0048     		ldr	r0, .L230
 2167              	.LVL153:
 2168 0006 7047     		bx	lr
 2169              	.L231:
 2170              		.align	2
 2171              	.L230:
 2172 0008 10E30000 		.word	.LANCHOR11+1656
 2173              		.cfi_endproc
 2174              	.LFE76:
 2175              		.size	u8g2_m_20_13_2, .-u8g2_m_20_13_2
 2176              		.section	.text.u8g2_m_20_13_f,"ax",%progbits
 2177              		.align	2
 2178              		.global	u8g2_m_20_13_f
 2179              		.thumb
 2180              		.thumb_func
 2181              		.type	u8g2_m_20_13_f, %function
 2182              	u8g2_m_20_13_f:
 2183              	.LFB77:
 468:..\u8g2-master\csrc/u8g2_d_memory.c **** uint8_t *u8g2_m_20_13_f(uint8_t *page_cnt)
 469:..\u8g2-master\csrc/u8g2_d_memory.c **** {
 2184              		.loc 1 469 0
 2185              		.cfi_startproc
 2186              		@ args = 0, pretend = 0, frame = 0
 2187              		@ frame_needed = 0, uses_anonymous_args = 0
 2188              		@ link register save eliminated.
 2189              	.LVL154:
 470:..\u8g2-master\csrc/u8g2_d_memory.c ****   static uint8_t buf[2080];
 471:..\u8g2-master\csrc/u8g2_d_memory.c ****   *page_cnt = 13;
 2190              		.loc 1 471 0
 2191 0000 0D23     		movs	r3, #13
 2192 0002 0370     		strb	r3, [r0]
 472:..\u8g2-master\csrc/u8g2_d_memory.c ****   return buf;
 473:..\u8g2-master\csrc/u8g2_d_memory.c **** }
 2193              		.loc 1 473 0
 2194 0004 0048     		ldr	r0, .L233
 2195              	.LVL155:
 2196 0006 7047     		bx	lr
 2197              	.L234:
 2198              		.align	2
 2199              	.L233:
 2200 0008 50E40000 		.word	.LANCHOR11+1976
 2201              		.cfi_endproc
 2202              	.LFE77:
 2203              		.size	u8g2_m_20_13_f, .-u8g2_m_20_13_f
 2204              		.section	.text.u8g2_m_30_20_1,"ax",%progbits
 2205              		.align	2
 2206              		.global	u8g2_m_30_20_1
ARM GAS  C:\Users\info\AppData\Local\Temp\ccfHjuLM.s 			page 48


 2207              		.thumb
 2208              		.thumb_func
 2209              		.type	u8g2_m_30_20_1, %function
 2210              	u8g2_m_30_20_1:
 2211              	.LFB78:
 474:..\u8g2-master\csrc/u8g2_d_memory.c **** uint8_t *u8g2_m_30_20_1(uint8_t *page_cnt)
 475:..\u8g2-master\csrc/u8g2_d_memory.c **** {
 2212              		.loc 1 475 0
 2213              		.cfi_startproc
 2214              		@ args = 0, pretend = 0, frame = 0
 2215              		@ frame_needed = 0, uses_anonymous_args = 0
 2216              		@ link register save eliminated.
 2217              	.LVL156:
 476:..\u8g2-master\csrc/u8g2_d_memory.c ****   static uint8_t buf[240];
 477:..\u8g2-master\csrc/u8g2_d_memory.c ****   *page_cnt = 1;
 2218              		.loc 1 477 0
 2219 0000 0123     		movs	r3, #1
 2220 0002 0370     		strb	r3, [r0]
 478:..\u8g2-master\csrc/u8g2_d_memory.c ****   return buf;
 479:..\u8g2-master\csrc/u8g2_d_memory.c **** }
 2221              		.loc 1 479 0
 2222 0004 0048     		ldr	r0, .L236
 2223              	.LVL157:
 2224 0006 7047     		bx	lr
 2225              	.L237:
 2226              		.align	2
 2227              	.L236:
 2228 0008 70EC0000 		.word	.LANCHOR11+4056
 2229              		.cfi_endproc
 2230              	.LFE78:
 2231              		.size	u8g2_m_30_20_1, .-u8g2_m_30_20_1
 2232              		.section	.text.u8g2_m_30_20_2,"ax",%progbits
 2233              		.align	2
 2234              		.global	u8g2_m_30_20_2
 2235              		.thumb
 2236              		.thumb_func
 2237              		.type	u8g2_m_30_20_2, %function
 2238              	u8g2_m_30_20_2:
 2239              	.LFB79:
 480:..\u8g2-master\csrc/u8g2_d_memory.c **** uint8_t *u8g2_m_30_20_2(uint8_t *page_cnt)
 481:..\u8g2-master\csrc/u8g2_d_memory.c **** {
 2240              		.loc 1 481 0
 2241              		.cfi_startproc
 2242              		@ args = 0, pretend = 0, frame = 0
 2243              		@ frame_needed = 0, uses_anonymous_args = 0
 2244              		@ link register save eliminated.
 2245              	.LVL158:
 482:..\u8g2-master\csrc/u8g2_d_memory.c ****   static uint8_t buf[480];
 483:..\u8g2-master\csrc/u8g2_d_memory.c ****   *page_cnt = 2;
 2246              		.loc 1 483 0
 2247 0000 0223     		movs	r3, #2
 2248 0002 0370     		strb	r3, [r0]
 484:..\u8g2-master\csrc/u8g2_d_memory.c ****   return buf;
 485:..\u8g2-master\csrc/u8g2_d_memory.c **** }
 2249              		.loc 1 485 0
 2250 0004 0048     		ldr	r0, .L239
 2251              	.LVL159:
ARM GAS  C:\Users\info\AppData\Local\Temp\ccfHjuLM.s 			page 49


 2252 0006 7047     		bx	lr
 2253              	.L240:
 2254              		.align	2
 2255              	.L239:
 2256 0008 60ED0000 		.word	.LANCHOR12-48
 2257              		.cfi_endproc
 2258              	.LFE79:
 2259              		.size	u8g2_m_30_20_2, .-u8g2_m_30_20_2
 2260              		.section	.text.u8g2_m_30_20_f,"ax",%progbits
 2261              		.align	2
 2262              		.global	u8g2_m_30_20_f
 2263              		.thumb
 2264              		.thumb_func
 2265              		.type	u8g2_m_30_20_f, %function
 2266              	u8g2_m_30_20_f:
 2267              	.LFB80:
 486:..\u8g2-master\csrc/u8g2_d_memory.c **** uint8_t *u8g2_m_30_20_f(uint8_t *page_cnt)
 487:..\u8g2-master\csrc/u8g2_d_memory.c **** {
 2268              		.loc 1 487 0
 2269              		.cfi_startproc
 2270              		@ args = 0, pretend = 0, frame = 0
 2271              		@ frame_needed = 0, uses_anonymous_args = 0
 2272              		@ link register save eliminated.
 2273              	.LVL160:
 488:..\u8g2-master\csrc/u8g2_d_memory.c ****   static uint8_t buf[4800];
 489:..\u8g2-master\csrc/u8g2_d_memory.c ****   *page_cnt = 20;
 2274              		.loc 1 489 0
 2275 0000 1423     		movs	r3, #20
 2276 0002 0370     		strb	r3, [r0]
 490:..\u8g2-master\csrc/u8g2_d_memory.c ****   return buf;
 491:..\u8g2-master\csrc/u8g2_d_memory.c **** }
 2277              		.loc 1 491 0
 2278 0004 0048     		ldr	r0, .L242
 2279              	.LVL161:
 2280 0006 7047     		bx	lr
 2281              	.L243:
 2282              		.align	2
 2283              	.L242:
 2284 0008 40EF0000 		.word	.LANCHOR12+432
 2285              		.cfi_endproc
 2286              	.LFE80:
 2287              		.size	u8g2_m_30_20_f, .-u8g2_m_30_20_f
 2288              		.section	.text.u8g2_m_40_30_1,"ax",%progbits
 2289              		.align	2
 2290              		.global	u8g2_m_40_30_1
 2291              		.thumb
 2292              		.thumb_func
 2293              		.type	u8g2_m_40_30_1, %function
 2294              	u8g2_m_40_30_1:
 2295              	.LFB81:
 492:..\u8g2-master\csrc/u8g2_d_memory.c **** uint8_t *u8g2_m_40_30_1(uint8_t *page_cnt)
 493:..\u8g2-master\csrc/u8g2_d_memory.c **** {
 2296              		.loc 1 493 0
 2297              		.cfi_startproc
 2298              		@ args = 0, pretend = 0, frame = 0
 2299              		@ frame_needed = 0, uses_anonymous_args = 0
 2300              		@ link register save eliminated.
ARM GAS  C:\Users\info\AppData\Local\Temp\ccfHjuLM.s 			page 50


 2301              	.LVL162:
 494:..\u8g2-master\csrc/u8g2_d_memory.c ****   static uint8_t buf[320];
 495:..\u8g2-master\csrc/u8g2_d_memory.c ****   *page_cnt = 1;
 2302              		.loc 1 495 0
 2303 0000 0123     		movs	r3, #1
 2304 0002 0370     		strb	r3, [r0]
 496:..\u8g2-master\csrc/u8g2_d_memory.c ****   return buf;
 497:..\u8g2-master\csrc/u8g2_d_memory.c **** }
 2305              		.loc 1 497 0
 2306 0004 0048     		ldr	r0, .L245
 2307              	.LVL163:
 2308 0006 7047     		bx	lr
 2309              	.L246:
 2310              		.align	2
 2311              	.L245:
 2312 0008 00020100 		.word	.LANCHOR13+888
 2313              		.cfi_endproc
 2314              	.LFE81:
 2315              		.size	u8g2_m_40_30_1, .-u8g2_m_40_30_1
 2316              		.section	.text.u8g2_m_40_30_2,"ax",%progbits
 2317              		.align	2
 2318              		.global	u8g2_m_40_30_2
 2319              		.thumb
 2320              		.thumb_func
 2321              		.type	u8g2_m_40_30_2, %function
 2322              	u8g2_m_40_30_2:
 2323              	.LFB82:
 498:..\u8g2-master\csrc/u8g2_d_memory.c **** uint8_t *u8g2_m_40_30_2(uint8_t *page_cnt)
 499:..\u8g2-master\csrc/u8g2_d_memory.c **** {
 2324              		.loc 1 499 0
 2325              		.cfi_startproc
 2326              		@ args = 0, pretend = 0, frame = 0
 2327              		@ frame_needed = 0, uses_anonymous_args = 0
 2328              		@ link register save eliminated.
 2329              	.LVL164:
 500:..\u8g2-master\csrc/u8g2_d_memory.c ****   static uint8_t buf[640];
 501:..\u8g2-master\csrc/u8g2_d_memory.c ****   *page_cnt = 2;
 2330              		.loc 1 501 0
 2331 0000 0223     		movs	r3, #2
 2332 0002 0370     		strb	r3, [r0]
 502:..\u8g2-master\csrc/u8g2_d_memory.c ****   return buf;
 503:..\u8g2-master\csrc/u8g2_d_memory.c **** }
 2333              		.loc 1 503 0
 2334 0004 0048     		ldr	r0, .L248
 2335              	.LVL165:
 2336 0006 7047     		bx	lr
 2337              	.L249:
 2338              		.align	2
 2339              	.L248:
 2340 0008 40030100 		.word	.LANCHOR13+1208
 2341              		.cfi_endproc
 2342              	.LFE82:
 2343              		.size	u8g2_m_40_30_2, .-u8g2_m_40_30_2
 2344              		.section	.text.u8g2_m_40_30_f,"ax",%progbits
 2345              		.align	2
 2346              		.global	u8g2_m_40_30_f
 2347              		.thumb
ARM GAS  C:\Users\info\AppData\Local\Temp\ccfHjuLM.s 			page 51


 2348              		.thumb_func
 2349              		.type	u8g2_m_40_30_f, %function
 2350              	u8g2_m_40_30_f:
 2351              	.LFB83:
 504:..\u8g2-master\csrc/u8g2_d_memory.c **** uint8_t *u8g2_m_40_30_f(uint8_t *page_cnt)
 505:..\u8g2-master\csrc/u8g2_d_memory.c **** {
 2352              		.loc 1 505 0
 2353              		.cfi_startproc
 2354              		@ args = 0, pretend = 0, frame = 0
 2355              		@ frame_needed = 0, uses_anonymous_args = 0
 2356              		@ link register save eliminated.
 2357              	.LVL166:
 506:..\u8g2-master\csrc/u8g2_d_memory.c ****   static uint8_t buf[9600];
 507:..\u8g2-master\csrc/u8g2_d_memory.c ****   *page_cnt = 30;
 2358              		.loc 1 507 0
 2359 0000 1E23     		movs	r3, #30
 2360 0002 0370     		strb	r3, [r0]
 508:..\u8g2-master\csrc/u8g2_d_memory.c ****   return buf;
 509:..\u8g2-master\csrc/u8g2_d_memory.c **** }
 2361              		.loc 1 509 0
 2362 0004 0048     		ldr	r0, .L251
 2363              	.LVL167:
 2364 0006 7047     		bx	lr
 2365              	.L252:
 2366              		.align	2
 2367              	.L251:
 2368 0008 C0050100 		.word	.LANCHOR13+1848
 2369              		.cfi_endproc
 2370              	.LFE83:
 2371              		.size	u8g2_m_40_30_f, .-u8g2_m_40_30_f
 2372              		.section	.text.u8g2_m_17_4_1,"ax",%progbits
 2373              		.align	2
 2374              		.global	u8g2_m_17_4_1
 2375              		.thumb
 2376              		.thumb_func
 2377              		.type	u8g2_m_17_4_1, %function
 2378              	u8g2_m_17_4_1:
 2379              	.LFB84:
 510:..\u8g2-master\csrc/u8g2_d_memory.c **** uint8_t *u8g2_m_17_4_1(uint8_t *page_cnt)
 511:..\u8g2-master\csrc/u8g2_d_memory.c **** {
 2380              		.loc 1 511 0
 2381              		.cfi_startproc
 2382              		@ args = 0, pretend = 0, frame = 0
 2383              		@ frame_needed = 0, uses_anonymous_args = 0
 2384              		@ link register save eliminated.
 2385              	.LVL168:
 512:..\u8g2-master\csrc/u8g2_d_memory.c ****   static uint8_t buf[136];
 513:..\u8g2-master\csrc/u8g2_d_memory.c ****   *page_cnt = 1;
 2386              		.loc 1 513 0
 2387 0000 0123     		movs	r3, #1
 2388 0002 0370     		strb	r3, [r0]
 514:..\u8g2-master\csrc/u8g2_d_memory.c ****   return buf;
 515:..\u8g2-master\csrc/u8g2_d_memory.c **** }
 2389              		.loc 1 515 0
 2390 0004 0048     		ldr	r0, .L254
 2391              	.LVL169:
 2392 0006 7047     		bx	lr
ARM GAS  C:\Users\info\AppData\Local\Temp\ccfHjuLM.s 			page 52


 2393              	.L255:
 2394              		.align	2
 2395              	.L254:
 2396 0008 402B0100 		.word	.LANCHOR14+2760
 2397              		.cfi_endproc
 2398              	.LFE84:
 2399              		.size	u8g2_m_17_4_1, .-u8g2_m_17_4_1
 2400              		.section	.text.u8g2_m_17_4_2,"ax",%progbits
 2401              		.align	2
 2402              		.global	u8g2_m_17_4_2
 2403              		.thumb
 2404              		.thumb_func
 2405              		.type	u8g2_m_17_4_2, %function
 2406              	u8g2_m_17_4_2:
 2407              	.LFB85:
 516:..\u8g2-master\csrc/u8g2_d_memory.c **** uint8_t *u8g2_m_17_4_2(uint8_t *page_cnt)
 517:..\u8g2-master\csrc/u8g2_d_memory.c **** {
 2408              		.loc 1 517 0
 2409              		.cfi_startproc
 2410              		@ args = 0, pretend = 0, frame = 0
 2411              		@ frame_needed = 0, uses_anonymous_args = 0
 2412              		@ link register save eliminated.
 2413              	.LVL170:
 518:..\u8g2-master\csrc/u8g2_d_memory.c ****   static uint8_t buf[272];
 519:..\u8g2-master\csrc/u8g2_d_memory.c ****   *page_cnt = 2;
 2414              		.loc 1 519 0
 2415 0000 0223     		movs	r3, #2
 2416 0002 0370     		strb	r3, [r0]
 520:..\u8g2-master\csrc/u8g2_d_memory.c ****   return buf;
 521:..\u8g2-master\csrc/u8g2_d_memory.c **** }
 2417              		.loc 1 521 0
 2418 0004 0048     		ldr	r0, .L257
 2419              	.LVL171:
 2420 0006 7047     		bx	lr
 2421              	.L258:
 2422              		.align	2
 2423              	.L257:
 2424 0008 C82B0100 		.word	.LANCHOR14+2896
 2425              		.cfi_endproc
 2426              	.LFE85:
 2427              		.size	u8g2_m_17_4_2, .-u8g2_m_17_4_2
 2428              		.section	.text.u8g2_m_17_4_f,"ax",%progbits
 2429              		.align	2
 2430              		.global	u8g2_m_17_4_f
 2431              		.thumb
 2432              		.thumb_func
 2433              		.type	u8g2_m_17_4_f, %function
 2434              	u8g2_m_17_4_f:
 2435              	.LFB86:
 522:..\u8g2-master\csrc/u8g2_d_memory.c **** uint8_t *u8g2_m_17_4_f(uint8_t *page_cnt)
 523:..\u8g2-master\csrc/u8g2_d_memory.c **** {
 2436              		.loc 1 523 0
 2437              		.cfi_startproc
 2438              		@ args = 0, pretend = 0, frame = 0
 2439              		@ frame_needed = 0, uses_anonymous_args = 0
 2440              		@ link register save eliminated.
 2441              	.LVL172:
ARM GAS  C:\Users\info\AppData\Local\Temp\ccfHjuLM.s 			page 53


 524:..\u8g2-master\csrc/u8g2_d_memory.c ****   static uint8_t buf[544];
 525:..\u8g2-master\csrc/u8g2_d_memory.c ****   *page_cnt = 4;
 2442              		.loc 1 525 0
 2443 0000 0423     		movs	r3, #4
 2444 0002 0370     		strb	r3, [r0]
 526:..\u8g2-master\csrc/u8g2_d_memory.c ****   return buf;
 527:..\u8g2-master\csrc/u8g2_d_memory.c **** }
 2445              		.loc 1 527 0
 2446 0004 0048     		ldr	r0, .L260
 2447              	.LVL173:
 2448 0006 7047     		bx	lr
 2449              	.L261:
 2450              		.align	2
 2451              	.L260:
 2452 0008 D82C0100 		.word	.LANCHOR14+3168
 2453              		.cfi_endproc
 2454              	.LFE86:
 2455              		.size	u8g2_m_17_4_f, .-u8g2_m_17_4_f
 2456              		.section	.text.u8g2_m_17_8_1,"ax",%progbits
 2457              		.align	2
 2458              		.global	u8g2_m_17_8_1
 2459              		.thumb
 2460              		.thumb_func
 2461              		.type	u8g2_m_17_8_1, %function
 2462              	u8g2_m_17_8_1:
 2463              	.LFB87:
 528:..\u8g2-master\csrc/u8g2_d_memory.c **** uint8_t *u8g2_m_17_8_1(uint8_t *page_cnt)
 529:..\u8g2-master\csrc/u8g2_d_memory.c **** {
 2464              		.loc 1 529 0
 2465              		.cfi_startproc
 2466              		@ args = 0, pretend = 0, frame = 0
 2467              		@ frame_needed = 0, uses_anonymous_args = 0
 2468              		@ link register save eliminated.
 2469              	.LVL174:
 530:..\u8g2-master\csrc/u8g2_d_memory.c ****   static uint8_t buf[136];
 531:..\u8g2-master\csrc/u8g2_d_memory.c ****   *page_cnt = 1;
 2470              		.loc 1 531 0
 2471 0000 0123     		movs	r3, #1
 2472 0002 0370     		strb	r3, [r0]
 532:..\u8g2-master\csrc/u8g2_d_memory.c ****   return buf;
 533:..\u8g2-master\csrc/u8g2_d_memory.c **** }
 2473              		.loc 1 533 0
 2474 0004 0048     		ldr	r0, .L263
 2475              	.LVL175:
 2476 0006 7047     		bx	lr
 2477              	.L264:
 2478              		.align	2
 2479              	.L263:
 2480 0008 F82E0100 		.word	.LANCHOR14+3712
 2481              		.cfi_endproc
 2482              	.LFE87:
 2483              		.size	u8g2_m_17_8_1, .-u8g2_m_17_8_1
 2484              		.section	.text.u8g2_m_17_8_2,"ax",%progbits
 2485              		.align	2
 2486              		.global	u8g2_m_17_8_2
 2487              		.thumb
 2488              		.thumb_func
ARM GAS  C:\Users\info\AppData\Local\Temp\ccfHjuLM.s 			page 54


 2489              		.type	u8g2_m_17_8_2, %function
 2490              	u8g2_m_17_8_2:
 2491              	.LFB88:
 534:..\u8g2-master\csrc/u8g2_d_memory.c **** uint8_t *u8g2_m_17_8_2(uint8_t *page_cnt)
 535:..\u8g2-master\csrc/u8g2_d_memory.c **** {
 2492              		.loc 1 535 0
 2493              		.cfi_startproc
 2494              		@ args = 0, pretend = 0, frame = 0
 2495              		@ frame_needed = 0, uses_anonymous_args = 0
 2496              		@ link register save eliminated.
 2497              	.LVL176:
 536:..\u8g2-master\csrc/u8g2_d_memory.c ****   static uint8_t buf[272];
 537:..\u8g2-master\csrc/u8g2_d_memory.c ****   *page_cnt = 2;
 2498              		.loc 1 537 0
 2499 0000 0223     		movs	r3, #2
 2500 0002 0370     		strb	r3, [r0]
 538:..\u8g2-master\csrc/u8g2_d_memory.c ****   return buf;
 539:..\u8g2-master\csrc/u8g2_d_memory.c **** }
 2501              		.loc 1 539 0
 2502 0004 0048     		ldr	r0, .L266
 2503              	.LVL177:
 2504 0006 7047     		bx	lr
 2505              	.L267:
 2506              		.align	2
 2507              	.L266:
 2508 0008 802F0100 		.word	.LANCHOR14+3848
 2509              		.cfi_endproc
 2510              	.LFE88:
 2511              		.size	u8g2_m_17_8_2, .-u8g2_m_17_8_2
 2512              		.section	.text.u8g2_m_17_8_f,"ax",%progbits
 2513              		.align	2
 2514              		.global	u8g2_m_17_8_f
 2515              		.thumb
 2516              		.thumb_func
 2517              		.type	u8g2_m_17_8_f, %function
 2518              	u8g2_m_17_8_f:
 2519              	.LFB89:
 540:..\u8g2-master\csrc/u8g2_d_memory.c **** uint8_t *u8g2_m_17_8_f(uint8_t *page_cnt)
 541:..\u8g2-master\csrc/u8g2_d_memory.c **** {
 2520              		.loc 1 541 0
 2521              		.cfi_startproc
 2522              		@ args = 0, pretend = 0, frame = 0
 2523              		@ frame_needed = 0, uses_anonymous_args = 0
 2524              		@ link register save eliminated.
 2525              	.LVL178:
 542:..\u8g2-master\csrc/u8g2_d_memory.c ****   static uint8_t buf[1088];
 543:..\u8g2-master\csrc/u8g2_d_memory.c ****   *page_cnt = 8;
 2526              		.loc 1 543 0
 2527 0000 0823     		movs	r3, #8
 2528 0002 0370     		strb	r3, [r0]
 544:..\u8g2-master\csrc/u8g2_d_memory.c ****   return buf;
 545:..\u8g2-master\csrc/u8g2_d_memory.c **** }
 2529              		.loc 1 545 0
 2530 0004 0048     		ldr	r0, .L269
 2531              	.LVL179:
 2532 0006 7047     		bx	lr
 2533              	.L270:
ARM GAS  C:\Users\info\AppData\Local\Temp\ccfHjuLM.s 			page 55


 2534              		.align	2
 2535              	.L269:
 2536 0008 90300100 		.word	.LANCHOR15-224
 2537              		.cfi_endproc
 2538              	.LFE89:
 2539              		.size	u8g2_m_17_8_f, .-u8g2_m_17_8_f
 2540              		.section	.text.u8g2_m_48_17_1,"ax",%progbits
 2541              		.align	2
 2542              		.global	u8g2_m_48_17_1
 2543              		.thumb
 2544              		.thumb_func
 2545              		.type	u8g2_m_48_17_1, %function
 2546              	u8g2_m_48_17_1:
 2547              	.LFB90:
 546:..\u8g2-master\csrc/u8g2_d_memory.c **** uint8_t *u8g2_m_48_17_1(uint8_t *page_cnt)
 547:..\u8g2-master\csrc/u8g2_d_memory.c **** {
 2548              		.loc 1 547 0
 2549              		.cfi_startproc
 2550              		@ args = 0, pretend = 0, frame = 0
 2551              		@ frame_needed = 0, uses_anonymous_args = 0
 2552              		@ link register save eliminated.
 2553              	.LVL180:
 548:..\u8g2-master\csrc/u8g2_d_memory.c ****   static uint8_t buf[384];
 549:..\u8g2-master\csrc/u8g2_d_memory.c ****   *page_cnt = 1;
 2554              		.loc 1 549 0
 2555 0000 0123     		movs	r3, #1
 2556 0002 0370     		strb	r3, [r0]
 550:..\u8g2-master\csrc/u8g2_d_memory.c ****   return buf;
 551:..\u8g2-master\csrc/u8g2_d_memory.c **** }
 2557              		.loc 1 551 0
 2558 0004 0048     		ldr	r0, .L272
 2559              	.LVL181:
 2560 0006 7047     		bx	lr
 2561              	.L273:
 2562              		.align	2
 2563              	.L272:
 2564 0008 D0340100 		.word	.LANCHOR15+864
 2565              		.cfi_endproc
 2566              	.LFE90:
 2567              		.size	u8g2_m_48_17_1, .-u8g2_m_48_17_1
 2568              		.section	.text.u8g2_m_48_17_2,"ax",%progbits
 2569              		.align	2
 2570              		.global	u8g2_m_48_17_2
 2571              		.thumb
 2572              		.thumb_func
 2573              		.type	u8g2_m_48_17_2, %function
 2574              	u8g2_m_48_17_2:
 2575              	.LFB91:
 552:..\u8g2-master\csrc/u8g2_d_memory.c **** uint8_t *u8g2_m_48_17_2(uint8_t *page_cnt)
 553:..\u8g2-master\csrc/u8g2_d_memory.c **** {
 2576              		.loc 1 553 0
 2577              		.cfi_startproc
 2578              		@ args = 0, pretend = 0, frame = 0
 2579              		@ frame_needed = 0, uses_anonymous_args = 0
 2580              		@ link register save eliminated.
 2581              	.LVL182:
 554:..\u8g2-master\csrc/u8g2_d_memory.c ****   static uint8_t buf[768];
ARM GAS  C:\Users\info\AppData\Local\Temp\ccfHjuLM.s 			page 56


 555:..\u8g2-master\csrc/u8g2_d_memory.c ****   *page_cnt = 2;
 2582              		.loc 1 555 0
 2583 0000 0223     		movs	r3, #2
 2584 0002 0370     		strb	r3, [r0]
 556:..\u8g2-master\csrc/u8g2_d_memory.c ****   return buf;
 557:..\u8g2-master\csrc/u8g2_d_memory.c **** }
 2585              		.loc 1 557 0
 2586 0004 0048     		ldr	r0, .L275
 2587              	.LVL183:
 2588 0006 7047     		bx	lr
 2589              	.L276:
 2590              		.align	2
 2591              	.L275:
 2592 0008 50360100 		.word	.LANCHOR15+1248
 2593              		.cfi_endproc
 2594              	.LFE91:
 2595              		.size	u8g2_m_48_17_2, .-u8g2_m_48_17_2
 2596              		.section	.text.u8g2_m_48_17_f,"ax",%progbits
 2597              		.align	2
 2598              		.global	u8g2_m_48_17_f
 2599              		.thumb
 2600              		.thumb_func
 2601              		.type	u8g2_m_48_17_f, %function
 2602              	u8g2_m_48_17_f:
 2603              	.LFB92:
 558:..\u8g2-master\csrc/u8g2_d_memory.c **** uint8_t *u8g2_m_48_17_f(uint8_t *page_cnt)
 559:..\u8g2-master\csrc/u8g2_d_memory.c **** {
 2604              		.loc 1 559 0
 2605              		.cfi_startproc
 2606              		@ args = 0, pretend = 0, frame = 0
 2607              		@ frame_needed = 0, uses_anonymous_args = 0
 2608              		@ link register save eliminated.
 2609              	.LVL184:
 560:..\u8g2-master\csrc/u8g2_d_memory.c ****   static uint8_t buf[6528];
 561:..\u8g2-master\csrc/u8g2_d_memory.c ****   *page_cnt = 17;
 2610              		.loc 1 561 0
 2611 0000 1123     		movs	r3, #17
 2612 0002 0370     		strb	r3, [r0]
 562:..\u8g2-master\csrc/u8g2_d_memory.c ****   return buf;
 563:..\u8g2-master\csrc/u8g2_d_memory.c **** }
 2613              		.loc 1 563 0
 2614 0004 0048     		ldr	r0, .L278
 2615              	.LVL185:
 2616 0006 7047     		bx	lr
 2617              	.L279:
 2618              		.align	2
 2619              	.L278:
 2620 0008 50390100 		.word	.LANCHOR15+2016
 2621              		.cfi_endproc
 2622              	.LFE92:
 2623              		.size	u8g2_m_48_17_f, .-u8g2_m_48_17_f
 2624              		.section	.text.u8g2_m_32_16_1,"ax",%progbits
 2625              		.align	2
 2626              		.global	u8g2_m_32_16_1
 2627              		.thumb
 2628              		.thumb_func
 2629              		.type	u8g2_m_32_16_1, %function
ARM GAS  C:\Users\info\AppData\Local\Temp\ccfHjuLM.s 			page 57


 2630              	u8g2_m_32_16_1:
 2631              	.LFB93:
 564:..\u8g2-master\csrc/u8g2_d_memory.c **** uint8_t *u8g2_m_32_16_1(uint8_t *page_cnt)
 565:..\u8g2-master\csrc/u8g2_d_memory.c **** {
 2632              		.loc 1 565 0
 2633              		.cfi_startproc
 2634              		@ args = 0, pretend = 0, frame = 0
 2635              		@ frame_needed = 0, uses_anonymous_args = 0
 2636              		@ link register save eliminated.
 2637              	.LVL186:
 566:..\u8g2-master\csrc/u8g2_d_memory.c ****   static uint8_t buf[256];
 567:..\u8g2-master\csrc/u8g2_d_memory.c ****   *page_cnt = 1;
 2638              		.loc 1 567 0
 2639 0000 0123     		movs	r3, #1
 2640 0002 0370     		strb	r3, [r0]
 568:..\u8g2-master\csrc/u8g2_d_memory.c ****   return buf;
 569:..\u8g2-master\csrc/u8g2_d_memory.c **** }
 2641              		.loc 1 569 0
 2642 0004 0048     		ldr	r0, .L281
 2643              	.LVL187:
 2644 0006 7047     		bx	lr
 2645              	.L282:
 2646              		.align	2
 2647              	.L281:
 2648 0008 D0520100 		.word	.LANCHOR16-144
 2649              		.cfi_endproc
 2650              	.LFE93:
 2651              		.size	u8g2_m_32_16_1, .-u8g2_m_32_16_1
 2652              		.section	.text.u8g2_m_32_16_2,"ax",%progbits
 2653              		.align	2
 2654              		.global	u8g2_m_32_16_2
 2655              		.thumb
 2656              		.thumb_func
 2657              		.type	u8g2_m_32_16_2, %function
 2658              	u8g2_m_32_16_2:
 2659              	.LFB94:
 570:..\u8g2-master\csrc/u8g2_d_memory.c **** uint8_t *u8g2_m_32_16_2(uint8_t *page_cnt)
 571:..\u8g2-master\csrc/u8g2_d_memory.c **** {
 2660              		.loc 1 571 0
 2661              		.cfi_startproc
 2662              		@ args = 0, pretend = 0, frame = 0
 2663              		@ frame_needed = 0, uses_anonymous_args = 0
 2664              		@ link register save eliminated.
 2665              	.LVL188:
 572:..\u8g2-master\csrc/u8g2_d_memory.c ****   static uint8_t buf[512];
 573:..\u8g2-master\csrc/u8g2_d_memory.c ****   *page_cnt = 2;
 2666              		.loc 1 573 0
 2667 0000 0223     		movs	r3, #2
 2668 0002 0370     		strb	r3, [r0]
 574:..\u8g2-master\csrc/u8g2_d_memory.c ****   return buf;
 575:..\u8g2-master\csrc/u8g2_d_memory.c **** }
 2669              		.loc 1 575 0
 2670 0004 0048     		ldr	r0, .L284
 2671              	.LVL189:
 2672 0006 7047     		bx	lr
 2673              	.L285:
 2674              		.align	2
ARM GAS  C:\Users\info\AppData\Local\Temp\ccfHjuLM.s 			page 58


 2675              	.L284:
 2676 0008 D0530100 		.word	.LANCHOR16+112
 2677              		.cfi_endproc
 2678              	.LFE94:
 2679              		.size	u8g2_m_32_16_2, .-u8g2_m_32_16_2
 2680              		.section	.text.u8g2_m_32_16_f,"ax",%progbits
 2681              		.align	2
 2682              		.global	u8g2_m_32_16_f
 2683              		.thumb
 2684              		.thumb_func
 2685              		.type	u8g2_m_32_16_f, %function
 2686              	u8g2_m_32_16_f:
 2687              	.LFB95:
 576:..\u8g2-master\csrc/u8g2_d_memory.c **** uint8_t *u8g2_m_32_16_f(uint8_t *page_cnt)
 577:..\u8g2-master\csrc/u8g2_d_memory.c **** {
 2688              		.loc 1 577 0
 2689              		.cfi_startproc
 2690              		@ args = 0, pretend = 0, frame = 0
 2691              		@ frame_needed = 0, uses_anonymous_args = 0
 2692              		@ link register save eliminated.
 2693              	.LVL190:
 578:..\u8g2-master\csrc/u8g2_d_memory.c ****   static uint8_t buf[4096];
 579:..\u8g2-master\csrc/u8g2_d_memory.c ****   *page_cnt = 16;
 2694              		.loc 1 579 0
 2695 0000 1023     		movs	r3, #16
 2696 0002 0370     		strb	r3, [r0]
 580:..\u8g2-master\csrc/u8g2_d_memory.c ****   return buf;
 581:..\u8g2-master\csrc/u8g2_d_memory.c **** }
 2697              		.loc 1 581 0
 2698 0004 0048     		ldr	r0, .L287
 2699              	.LVL191:
 2700 0006 7047     		bx	lr
 2701              	.L288:
 2702              		.align	2
 2703              	.L287:
 2704 0008 D0550100 		.word	.LANCHOR16+624
 2705              		.cfi_endproc
 2706              	.LFE95:
 2707              		.size	u8g2_m_32_16_f, .-u8g2_m_32_16_f
 2708              		.section	.text.u8g2_m_32_20_1,"ax",%progbits
 2709              		.align	2
 2710              		.global	u8g2_m_32_20_1
 2711              		.thumb
 2712              		.thumb_func
 2713              		.type	u8g2_m_32_20_1, %function
 2714              	u8g2_m_32_20_1:
 2715              	.LFB96:
 582:..\u8g2-master\csrc/u8g2_d_memory.c **** uint8_t *u8g2_m_32_20_1(uint8_t *page_cnt)
 583:..\u8g2-master\csrc/u8g2_d_memory.c **** {
 2716              		.loc 1 583 0
 2717              		.cfi_startproc
 2718              		@ args = 0, pretend = 0, frame = 0
 2719              		@ frame_needed = 0, uses_anonymous_args = 0
 2720              		@ link register save eliminated.
 2721              	.LVL192:
 584:..\u8g2-master\csrc/u8g2_d_memory.c ****   static uint8_t buf[256];
 585:..\u8g2-master\csrc/u8g2_d_memory.c ****   *page_cnt = 1;
ARM GAS  C:\Users\info\AppData\Local\Temp\ccfHjuLM.s 			page 59


 2722              		.loc 1 585 0
 2723 0000 0123     		movs	r3, #1
 2724 0002 0370     		strb	r3, [r0]
 586:..\u8g2-master\csrc/u8g2_d_memory.c ****   return buf;
 587:..\u8g2-master\csrc/u8g2_d_memory.c **** }
 2725              		.loc 1 587 0
 2726 0004 0048     		ldr	r0, .L290
 2727              	.LVL193:
 2728 0006 7047     		bx	lr
 2729              	.L291:
 2730              		.align	2
 2731              	.L290:
 2732 0008 D0650100 		.word	.LANCHOR17+376
 2733              		.cfi_endproc
 2734              	.LFE96:
 2735              		.size	u8g2_m_32_20_1, .-u8g2_m_32_20_1
 2736              		.section	.text.u8g2_m_32_20_2,"ax",%progbits
 2737              		.align	2
 2738              		.global	u8g2_m_32_20_2
 2739              		.thumb
 2740              		.thumb_func
 2741              		.type	u8g2_m_32_20_2, %function
 2742              	u8g2_m_32_20_2:
 2743              	.LFB97:
 588:..\u8g2-master\csrc/u8g2_d_memory.c **** uint8_t *u8g2_m_32_20_2(uint8_t *page_cnt)
 589:..\u8g2-master\csrc/u8g2_d_memory.c **** {
 2744              		.loc 1 589 0
 2745              		.cfi_startproc
 2746              		@ args = 0, pretend = 0, frame = 0
 2747              		@ frame_needed = 0, uses_anonymous_args = 0
 2748              		@ link register save eliminated.
 2749              	.LVL194:
 590:..\u8g2-master\csrc/u8g2_d_memory.c ****   static uint8_t buf[512];
 591:..\u8g2-master\csrc/u8g2_d_memory.c ****   *page_cnt = 2;
 2750              		.loc 1 591 0
 2751 0000 0223     		movs	r3, #2
 2752 0002 0370     		strb	r3, [r0]
 592:..\u8g2-master\csrc/u8g2_d_memory.c ****   return buf;
 593:..\u8g2-master\csrc/u8g2_d_memory.c **** }
 2753              		.loc 1 593 0
 2754 0004 0048     		ldr	r0, .L293
 2755              	.LVL195:
 2756 0006 7047     		bx	lr
 2757              	.L294:
 2758              		.align	2
 2759              	.L293:
 2760 0008 D0660100 		.word	.LANCHOR17+632
 2761              		.cfi_endproc
 2762              	.LFE97:
 2763              		.size	u8g2_m_32_20_2, .-u8g2_m_32_20_2
 2764              		.section	.text.u8g2_m_32_20_f,"ax",%progbits
 2765              		.align	2
 2766              		.global	u8g2_m_32_20_f
 2767              		.thumb
 2768              		.thumb_func
 2769              		.type	u8g2_m_32_20_f, %function
 2770              	u8g2_m_32_20_f:
ARM GAS  C:\Users\info\AppData\Local\Temp\ccfHjuLM.s 			page 60


 2771              	.LFB98:
 594:..\u8g2-master\csrc/u8g2_d_memory.c **** uint8_t *u8g2_m_32_20_f(uint8_t *page_cnt)
 595:..\u8g2-master\csrc/u8g2_d_memory.c **** {
 2772              		.loc 1 595 0
 2773              		.cfi_startproc
 2774              		@ args = 0, pretend = 0, frame = 0
 2775              		@ frame_needed = 0, uses_anonymous_args = 0
 2776              		@ link register save eliminated.
 2777              	.LVL196:
 596:..\u8g2-master\csrc/u8g2_d_memory.c ****   static uint8_t buf[5120];
 597:..\u8g2-master\csrc/u8g2_d_memory.c ****   *page_cnt = 20;
 2778              		.loc 1 597 0
 2779 0000 1423     		movs	r3, #20
 2780 0002 0370     		strb	r3, [r0]
 598:..\u8g2-master\csrc/u8g2_d_memory.c ****   return buf;
 599:..\u8g2-master\csrc/u8g2_d_memory.c **** }
 2781              		.loc 1 599 0
 2782 0004 0048     		ldr	r0, .L296
 2783              	.LVL197:
 2784 0006 7047     		bx	lr
 2785              	.L297:
 2786              		.align	2
 2787              	.L296:
 2788 0008 D0680100 		.word	.LANCHOR17+1144
 2789              		.cfi_endproc
 2790              	.LFE98:
 2791              		.size	u8g2_m_32_20_f, .-u8g2_m_32_20_f
 2792              		.section	.text.u8g2_m_22_13_1,"ax",%progbits
 2793              		.align	2
 2794              		.global	u8g2_m_22_13_1
 2795              		.thumb
 2796              		.thumb_func
 2797              		.type	u8g2_m_22_13_1, %function
 2798              	u8g2_m_22_13_1:
 2799              	.LFB99:
 600:..\u8g2-master\csrc/u8g2_d_memory.c **** uint8_t *u8g2_m_22_13_1(uint8_t *page_cnt)
 601:..\u8g2-master\csrc/u8g2_d_memory.c **** {
 2800              		.loc 1 601 0
 2801              		.cfi_startproc
 2802              		@ args = 0, pretend = 0, frame = 0
 2803              		@ frame_needed = 0, uses_anonymous_args = 0
 2804              		@ link register save eliminated.
 2805              	.LVL198:
 602:..\u8g2-master\csrc/u8g2_d_memory.c ****   static uint8_t buf[176];
 603:..\u8g2-master\csrc/u8g2_d_memory.c ****   *page_cnt = 1;
 2806              		.loc 1 603 0
 2807 0000 0123     		movs	r3, #1
 2808 0002 0370     		strb	r3, [r0]
 604:..\u8g2-master\csrc/u8g2_d_memory.c ****   return buf;
 605:..\u8g2-master\csrc/u8g2_d_memory.c **** }
 2809              		.loc 1 605 0
 2810 0004 0048     		ldr	r0, .L299
 2811              	.LVL199:
 2812 0006 7047     		bx	lr
 2813              	.L300:
 2814              		.align	2
 2815              	.L299:
ARM GAS  C:\Users\info\AppData\Local\Temp\ccfHjuLM.s 			page 61


 2816 0008 D07C0100 		.word	.LANCHOR18+1920
 2817              		.cfi_endproc
 2818              	.LFE99:
 2819              		.size	u8g2_m_22_13_1, .-u8g2_m_22_13_1
 2820              		.section	.text.u8g2_m_22_13_2,"ax",%progbits
 2821              		.align	2
 2822              		.global	u8g2_m_22_13_2
 2823              		.thumb
 2824              		.thumb_func
 2825              		.type	u8g2_m_22_13_2, %function
 2826              	u8g2_m_22_13_2:
 2827              	.LFB100:
 606:..\u8g2-master\csrc/u8g2_d_memory.c **** uint8_t *u8g2_m_22_13_2(uint8_t *page_cnt)
 607:..\u8g2-master\csrc/u8g2_d_memory.c **** {
 2828              		.loc 1 607 0
 2829              		.cfi_startproc
 2830              		@ args = 0, pretend = 0, frame = 0
 2831              		@ frame_needed = 0, uses_anonymous_args = 0
 2832              		@ link register save eliminated.
 2833              	.LVL200:
 608:..\u8g2-master\csrc/u8g2_d_memory.c ****   static uint8_t buf[352];
 609:..\u8g2-master\csrc/u8g2_d_memory.c ****   *page_cnt = 2;
 2834              		.loc 1 609 0
 2835 0000 0223     		movs	r3, #2
 2836 0002 0370     		strb	r3, [r0]
 610:..\u8g2-master\csrc/u8g2_d_memory.c ****   return buf;
 611:..\u8g2-master\csrc/u8g2_d_memory.c **** }
 2837              		.loc 1 611 0
 2838 0004 0048     		ldr	r0, .L302
 2839              	.LVL201:
 2840 0006 7047     		bx	lr
 2841              	.L303:
 2842              		.align	2
 2843              	.L302:
 2844 0008 807D0100 		.word	.LANCHOR18+2096
 2845              		.cfi_endproc
 2846              	.LFE100:
 2847              		.size	u8g2_m_22_13_2, .-u8g2_m_22_13_2
 2848              		.section	.text.u8g2_m_22_13_f,"ax",%progbits
 2849              		.align	2
 2850              		.global	u8g2_m_22_13_f
 2851              		.thumb
 2852              		.thumb_func
 2853              		.type	u8g2_m_22_13_f, %function
 2854              	u8g2_m_22_13_f:
 2855              	.LFB101:
 612:..\u8g2-master\csrc/u8g2_d_memory.c **** uint8_t *u8g2_m_22_13_f(uint8_t *page_cnt)
 613:..\u8g2-master\csrc/u8g2_d_memory.c **** {
 2856              		.loc 1 613 0
 2857              		.cfi_startproc
 2858              		@ args = 0, pretend = 0, frame = 0
 2859              		@ frame_needed = 0, uses_anonymous_args = 0
 2860              		@ link register save eliminated.
 2861              	.LVL202:
 614:..\u8g2-master\csrc/u8g2_d_memory.c ****   static uint8_t buf[2288];
 615:..\u8g2-master\csrc/u8g2_d_memory.c ****   *page_cnt = 13;
 2862              		.loc 1 615 0
ARM GAS  C:\Users\info\AppData\Local\Temp\ccfHjuLM.s 			page 62


 2863 0000 0D23     		movs	r3, #13
 2864 0002 0370     		strb	r3, [r0]
 616:..\u8g2-master\csrc/u8g2_d_memory.c ****   return buf;
 617:..\u8g2-master\csrc/u8g2_d_memory.c **** }
 2865              		.loc 1 617 0
 2866 0004 0048     		ldr	r0, .L305
 2867              	.LVL203:
 2868 0006 7047     		bx	lr
 2869              	.L306:
 2870              		.align	2
 2871              	.L305:
 2872 0008 E07E0100 		.word	.LANCHOR18+2448
 2873              		.cfi_endproc
 2874              	.LFE101:
 2875              		.size	u8g2_m_22_13_f, .-u8g2_m_22_13_f
 2876              		.section	.text.u8g2_m_24_12_1,"ax",%progbits
 2877              		.align	2
 2878              		.global	u8g2_m_24_12_1
 2879              		.thumb
 2880              		.thumb_func
 2881              		.type	u8g2_m_24_12_1, %function
 2882              	u8g2_m_24_12_1:
 2883              	.LFB102:
 618:..\u8g2-master\csrc/u8g2_d_memory.c **** uint8_t *u8g2_m_24_12_1(uint8_t *page_cnt)
 619:..\u8g2-master\csrc/u8g2_d_memory.c **** {
 2884              		.loc 1 619 0
 2885              		.cfi_startproc
 2886              		@ args = 0, pretend = 0, frame = 0
 2887              		@ frame_needed = 0, uses_anonymous_args = 0
 2888              		@ link register save eliminated.
 2889              	.LVL204:
 620:..\u8g2-master\csrc/u8g2_d_memory.c ****   static uint8_t buf[192];
 621:..\u8g2-master\csrc/u8g2_d_memory.c ****   *page_cnt = 1;
 2890              		.loc 1 621 0
 2891 0000 0123     		movs	r3, #1
 2892 0002 0370     		strb	r3, [r0]
 622:..\u8g2-master\csrc/u8g2_d_memory.c ****   return buf;
 623:..\u8g2-master\csrc/u8g2_d_memory.c **** }
 2893              		.loc 1 623 0
 2894 0004 0048     		ldr	r0, .L308
 2895              	.LVL205:
 2896 0006 7047     		bx	lr
 2897              	.L309:
 2898              		.align	2
 2899              	.L308:
 2900 0008 D0870100 		.word	.LANCHOR19+392
 2901              		.cfi_endproc
 2902              	.LFE102:
 2903              		.size	u8g2_m_24_12_1, .-u8g2_m_24_12_1
 2904              		.section	.text.u8g2_m_24_12_2,"ax",%progbits
 2905              		.align	2
 2906              		.global	u8g2_m_24_12_2
 2907              		.thumb
 2908              		.thumb_func
 2909              		.type	u8g2_m_24_12_2, %function
 2910              	u8g2_m_24_12_2:
 2911              	.LFB103:
ARM GAS  C:\Users\info\AppData\Local\Temp\ccfHjuLM.s 			page 63


 624:..\u8g2-master\csrc/u8g2_d_memory.c **** uint8_t *u8g2_m_24_12_2(uint8_t *page_cnt)
 625:..\u8g2-master\csrc/u8g2_d_memory.c **** {
 2912              		.loc 1 625 0
 2913              		.cfi_startproc
 2914              		@ args = 0, pretend = 0, frame = 0
 2915              		@ frame_needed = 0, uses_anonymous_args = 0
 2916              		@ link register save eliminated.
 2917              	.LVL206:
 626:..\u8g2-master\csrc/u8g2_d_memory.c ****   static uint8_t buf[384];
 627:..\u8g2-master\csrc/u8g2_d_memory.c ****   *page_cnt = 2;
 2918              		.loc 1 627 0
 2919 0000 0223     		movs	r3, #2
 2920 0002 0370     		strb	r3, [r0]
 628:..\u8g2-master\csrc/u8g2_d_memory.c ****   return buf;
 629:..\u8g2-master\csrc/u8g2_d_memory.c **** }
 2921              		.loc 1 629 0
 2922 0004 0048     		ldr	r0, .L311
 2923              	.LVL207:
 2924 0006 7047     		bx	lr
 2925              	.L312:
 2926              		.align	2
 2927              	.L311:
 2928 0008 90880100 		.word	.LANCHOR19+584
 2929              		.cfi_endproc
 2930              	.LFE103:
 2931              		.size	u8g2_m_24_12_2, .-u8g2_m_24_12_2
 2932              		.section	.text.u8g2_m_24_12_f,"ax",%progbits
 2933              		.align	2
 2934              		.global	u8g2_m_24_12_f
 2935              		.thumb
 2936              		.thumb_func
 2937              		.type	u8g2_m_24_12_f, %function
 2938              	u8g2_m_24_12_f:
 2939              	.LFB104:
 630:..\u8g2-master\csrc/u8g2_d_memory.c **** uint8_t *u8g2_m_24_12_f(uint8_t *page_cnt)
 631:..\u8g2-master\csrc/u8g2_d_memory.c **** {
 2940              		.loc 1 631 0
 2941              		.cfi_startproc
 2942              		@ args = 0, pretend = 0, frame = 0
 2943              		@ frame_needed = 0, uses_anonymous_args = 0
 2944              		@ link register save eliminated.
 2945              	.LVL208:
 632:..\u8g2-master\csrc/u8g2_d_memory.c ****   static uint8_t buf[2304];
 633:..\u8g2-master\csrc/u8g2_d_memory.c ****   *page_cnt = 12;
 2946              		.loc 1 633 0
 2947 0000 0C23     		movs	r3, #12
 2948 0002 0370     		strb	r3, [r0]
 634:..\u8g2-master\csrc/u8g2_d_memory.c ****   return buf;
 635:..\u8g2-master\csrc/u8g2_d_memory.c **** }
 2949              		.loc 1 635 0
 2950 0004 0048     		ldr	r0, .L314
 2951              	.LVL209:
 2952 0006 7047     		bx	lr
 2953              	.L315:
 2954              		.align	2
 2955              	.L314:
 2956 0008 108A0100 		.word	.LANCHOR19+968
ARM GAS  C:\Users\info\AppData\Local\Temp\ccfHjuLM.s 			page 64


 2957              		.cfi_endproc
 2958              	.LFE104:
 2959              		.size	u8g2_m_24_12_f, .-u8g2_m_24_12_f
 2960              		.section	.text.u8g2_m_20_10_1,"ax",%progbits
 2961              		.align	2
 2962              		.global	u8g2_m_20_10_1
 2963              		.thumb
 2964              		.thumb_func
 2965              		.type	u8g2_m_20_10_1, %function
 2966              	u8g2_m_20_10_1:
 2967              	.LFB105:
 636:..\u8g2-master\csrc/u8g2_d_memory.c **** uint8_t *u8g2_m_20_10_1(uint8_t *page_cnt)
 637:..\u8g2-master\csrc/u8g2_d_memory.c **** {
 2968              		.loc 1 637 0
 2969              		.cfi_startproc
 2970              		@ args = 0, pretend = 0, frame = 0
 2971              		@ frame_needed = 0, uses_anonymous_args = 0
 2972              		@ link register save eliminated.
 2973              	.LVL210:
 638:..\u8g2-master\csrc/u8g2_d_memory.c ****   static uint8_t buf[160];
 639:..\u8g2-master\csrc/u8g2_d_memory.c ****   *page_cnt = 1;
 2974              		.loc 1 639 0
 2975 0000 0123     		movs	r3, #1
 2976 0002 0370     		strb	r3, [r0]
 640:..\u8g2-master\csrc/u8g2_d_memory.c ****   return buf;
 641:..\u8g2-master\csrc/u8g2_d_memory.c **** }
 2977              		.loc 1 641 0
 2978 0004 0048     		ldr	r0, .L317
 2979              	.LVL211:
 2980 0006 7047     		bx	lr
 2981              	.L318:
 2982              		.align	2
 2983              	.L317:
 2984 0008 10930100 		.word	.LANCHOR19+3272
 2985              		.cfi_endproc
 2986              	.LFE105:
 2987              		.size	u8g2_m_20_10_1, .-u8g2_m_20_10_1
 2988              		.section	.text.u8g2_m_20_10_2,"ax",%progbits
 2989              		.align	2
 2990              		.global	u8g2_m_20_10_2
 2991              		.thumb
 2992              		.thumb_func
 2993              		.type	u8g2_m_20_10_2, %function
 2994              	u8g2_m_20_10_2:
 2995              	.LFB106:
 642:..\u8g2-master\csrc/u8g2_d_memory.c **** uint8_t *u8g2_m_20_10_2(uint8_t *page_cnt)
 643:..\u8g2-master\csrc/u8g2_d_memory.c **** {
 2996              		.loc 1 643 0
 2997              		.cfi_startproc
 2998              		@ args = 0, pretend = 0, frame = 0
 2999              		@ frame_needed = 0, uses_anonymous_args = 0
 3000              		@ link register save eliminated.
 3001              	.LVL212:
 644:..\u8g2-master\csrc/u8g2_d_memory.c ****   static uint8_t buf[320];
 645:..\u8g2-master\csrc/u8g2_d_memory.c ****   *page_cnt = 2;
 3002              		.loc 1 645 0
 3003 0000 0223     		movs	r3, #2
ARM GAS  C:\Users\info\AppData\Local\Temp\ccfHjuLM.s 			page 65


 3004 0002 0370     		strb	r3, [r0]
 646:..\u8g2-master\csrc/u8g2_d_memory.c ****   return buf;
 647:..\u8g2-master\csrc/u8g2_d_memory.c **** }
 3005              		.loc 1 647 0
 3006 0004 0048     		ldr	r0, .L320
 3007              	.LVL213:
 3008 0006 7047     		bx	lr
 3009              	.L321:
 3010              		.align	2
 3011              	.L320:
 3012 0008 B0930100 		.word	.LANCHOR19+3432
 3013              		.cfi_endproc
 3014              	.LFE106:
 3015              		.size	u8g2_m_20_10_2, .-u8g2_m_20_10_2
 3016              		.section	.text.u8g2_m_20_10_f,"ax",%progbits
 3017              		.align	2
 3018              		.global	u8g2_m_20_10_f
 3019              		.thumb
 3020              		.thumb_func
 3021              		.type	u8g2_m_20_10_f, %function
 3022              	u8g2_m_20_10_f:
 3023              	.LFB107:
 648:..\u8g2-master\csrc/u8g2_d_memory.c **** uint8_t *u8g2_m_20_10_f(uint8_t *page_cnt)
 649:..\u8g2-master\csrc/u8g2_d_memory.c **** {
 3024              		.loc 1 649 0
 3025              		.cfi_startproc
 3026              		@ args = 0, pretend = 0, frame = 0
 3027              		@ frame_needed = 0, uses_anonymous_args = 0
 3028              		@ link register save eliminated.
 3029              	.LVL214:
 650:..\u8g2-master\csrc/u8g2_d_memory.c ****   static uint8_t buf[1600];
 651:..\u8g2-master\csrc/u8g2_d_memory.c ****   *page_cnt = 10;
 3030              		.loc 1 651 0
 3031 0000 0A23     		movs	r3, #10
 3032 0002 0370     		strb	r3, [r0]
 652:..\u8g2-master\csrc/u8g2_d_memory.c ****   return buf;
 653:..\u8g2-master\csrc/u8g2_d_memory.c **** }
 3033              		.loc 1 653 0
 3034 0004 0048     		ldr	r0, .L323
 3035              	.LVL215:
 3036 0006 7047     		bx	lr
 3037              	.L324:
 3038              		.align	2
 3039              	.L323:
 3040 0008 F0940100 		.word	.LANCHOR19+3752
 3041              		.cfi_endproc
 3042              	.LFE107:
 3043              		.size	u8g2_m_20_10_f, .-u8g2_m_20_10_f
 3044              		.section	.text.u8g2_m_22_9_1,"ax",%progbits
 3045              		.align	2
 3046              		.global	u8g2_m_22_9_1
 3047              		.thumb
 3048              		.thumb_func
 3049              		.type	u8g2_m_22_9_1, %function
 3050              	u8g2_m_22_9_1:
 3051              	.LFB108:
 654:..\u8g2-master\csrc/u8g2_d_memory.c **** uint8_t *u8g2_m_22_9_1(uint8_t *page_cnt)
ARM GAS  C:\Users\info\AppData\Local\Temp\ccfHjuLM.s 			page 66


 655:..\u8g2-master\csrc/u8g2_d_memory.c **** {
 3052              		.loc 1 655 0
 3053              		.cfi_startproc
 3054              		@ args = 0, pretend = 0, frame = 0
 3055              		@ frame_needed = 0, uses_anonymous_args = 0
 3056              		@ link register save eliminated.
 3057              	.LVL216:
 656:..\u8g2-master\csrc/u8g2_d_memory.c ****   static uint8_t buf[176];
 657:..\u8g2-master\csrc/u8g2_d_memory.c ****   *page_cnt = 1;
 3058              		.loc 1 657 0
 3059 0000 0123     		movs	r3, #1
 3060 0002 0370     		strb	r3, [r0]
 658:..\u8g2-master\csrc/u8g2_d_memory.c ****   return buf;
 659:..\u8g2-master\csrc/u8g2_d_memory.c **** }
 3061              		.loc 1 659 0
 3062 0004 0048     		ldr	r0, .L326
 3063              	.LVL217:
 3064 0006 7047     		bx	lr
 3065              	.L327:
 3066              		.align	2
 3067              	.L326:
 3068 0008 309B0100 		.word	.LANCHOR20+1008
 3069              		.cfi_endproc
 3070              	.LFE108:
 3071              		.size	u8g2_m_22_9_1, .-u8g2_m_22_9_1
 3072              		.section	.text.u8g2_m_22_9_2,"ax",%progbits
 3073              		.align	2
 3074              		.global	u8g2_m_22_9_2
 3075              		.thumb
 3076              		.thumb_func
 3077              		.type	u8g2_m_22_9_2, %function
 3078              	u8g2_m_22_9_2:
 3079              	.LFB109:
 660:..\u8g2-master\csrc/u8g2_d_memory.c **** uint8_t *u8g2_m_22_9_2(uint8_t *page_cnt)
 661:..\u8g2-master\csrc/u8g2_d_memory.c **** {
 3080              		.loc 1 661 0
 3081              		.cfi_startproc
 3082              		@ args = 0, pretend = 0, frame = 0
 3083              		@ frame_needed = 0, uses_anonymous_args = 0
 3084              		@ link register save eliminated.
 3085              	.LVL218:
 662:..\u8g2-master\csrc/u8g2_d_memory.c ****   static uint8_t buf[352];
 663:..\u8g2-master\csrc/u8g2_d_memory.c ****   *page_cnt = 2;
 3086              		.loc 1 663 0
 3087 0000 0223     		movs	r3, #2
 3088 0002 0370     		strb	r3, [r0]
 664:..\u8g2-master\csrc/u8g2_d_memory.c ****   return buf;
 665:..\u8g2-master\csrc/u8g2_d_memory.c **** }
 3089              		.loc 1 665 0
 3090 0004 0048     		ldr	r0, .L329
 3091              	.LVL219:
 3092 0006 7047     		bx	lr
 3093              	.L330:
 3094              		.align	2
 3095              	.L329:
 3096 0008 E09B0100 		.word	.LANCHOR20+1184
 3097              		.cfi_endproc
ARM GAS  C:\Users\info\AppData\Local\Temp\ccfHjuLM.s 			page 67


 3098              	.LFE109:
 3099              		.size	u8g2_m_22_9_2, .-u8g2_m_22_9_2
 3100              		.section	.text.u8g2_m_22_9_f,"ax",%progbits
 3101              		.align	2
 3102              		.global	u8g2_m_22_9_f
 3103              		.thumb
 3104              		.thumb_func
 3105              		.type	u8g2_m_22_9_f, %function
 3106              	u8g2_m_22_9_f:
 3107              	.LFB110:
 666:..\u8g2-master\csrc/u8g2_d_memory.c **** uint8_t *u8g2_m_22_9_f(uint8_t *page_cnt)
 667:..\u8g2-master\csrc/u8g2_d_memory.c **** {
 3108              		.loc 1 667 0
 3109              		.cfi_startproc
 3110              		@ args = 0, pretend = 0, frame = 0
 3111              		@ frame_needed = 0, uses_anonymous_args = 0
 3112              		@ link register save eliminated.
 3113              	.LVL220:
 668:..\u8g2-master\csrc/u8g2_d_memory.c ****   static uint8_t buf[1584];
 669:..\u8g2-master\csrc/u8g2_d_memory.c ****   *page_cnt = 9;
 3114              		.loc 1 669 0
 3115 0000 0923     		movs	r3, #9
 3116 0002 0370     		strb	r3, [r0]
 670:..\u8g2-master\csrc/u8g2_d_memory.c ****   return buf;
 671:..\u8g2-master\csrc/u8g2_d_memory.c **** }
 3117              		.loc 1 671 0
 3118 0004 0048     		ldr	r0, .L332
 3119              	.LVL221:
 3120 0006 7047     		bx	lr
 3121              	.L333:
 3122              		.align	2
 3123              	.L332:
 3124 0008 409D0100 		.word	.LANCHOR20+1536
 3125              		.cfi_endproc
 3126              	.LFE110:
 3127              		.size	u8g2_m_22_9_f, .-u8g2_m_22_9_f
 3128              		.section	.text.u8g2_m_25_25_1,"ax",%progbits
 3129              		.align	2
 3130              		.global	u8g2_m_25_25_1
 3131              		.thumb
 3132              		.thumb_func
 3133              		.type	u8g2_m_25_25_1, %function
 3134              	u8g2_m_25_25_1:
 3135              	.LFB111:
 672:..\u8g2-master\csrc/u8g2_d_memory.c **** uint8_t *u8g2_m_25_25_1(uint8_t *page_cnt)
 673:..\u8g2-master\csrc/u8g2_d_memory.c **** {
 3136              		.loc 1 673 0
 3137              		.cfi_startproc
 3138              		@ args = 0, pretend = 0, frame = 0
 3139              		@ frame_needed = 0, uses_anonymous_args = 0
 3140              		@ link register save eliminated.
 3141              	.LVL222:
 674:..\u8g2-master\csrc/u8g2_d_memory.c ****   static uint8_t buf[200];
 675:..\u8g2-master\csrc/u8g2_d_memory.c ****   *page_cnt = 1;
 3142              		.loc 1 675 0
 3143 0000 0123     		movs	r3, #1
 3144 0002 0370     		strb	r3, [r0]
ARM GAS  C:\Users\info\AppData\Local\Temp\ccfHjuLM.s 			page 68


 676:..\u8g2-master\csrc/u8g2_d_memory.c ****   return buf;
 677:..\u8g2-master\csrc/u8g2_d_memory.c **** }
 3145              		.loc 1 677 0
 3146 0004 0048     		ldr	r0, .L335
 3147              	.LVL223:
 3148 0006 7047     		bx	lr
 3149              	.L336:
 3150              		.align	2
 3151              	.L335:
 3152 0008 70A30100 		.word	.LANCHOR20+3120
 3153              		.cfi_endproc
 3154              	.LFE111:
 3155              		.size	u8g2_m_25_25_1, .-u8g2_m_25_25_1
 3156              		.section	.text.u8g2_m_25_25_2,"ax",%progbits
 3157              		.align	2
 3158              		.global	u8g2_m_25_25_2
 3159              		.thumb
 3160              		.thumb_func
 3161              		.type	u8g2_m_25_25_2, %function
 3162              	u8g2_m_25_25_2:
 3163              	.LFB112:
 678:..\u8g2-master\csrc/u8g2_d_memory.c **** uint8_t *u8g2_m_25_25_2(uint8_t *page_cnt)
 679:..\u8g2-master\csrc/u8g2_d_memory.c **** {
 3164              		.loc 1 679 0
 3165              		.cfi_startproc
 3166              		@ args = 0, pretend = 0, frame = 0
 3167              		@ frame_needed = 0, uses_anonymous_args = 0
 3168              		@ link register save eliminated.
 3169              	.LVL224:
 680:..\u8g2-master\csrc/u8g2_d_memory.c ****   static uint8_t buf[400];
 681:..\u8g2-master\csrc/u8g2_d_memory.c ****   *page_cnt = 2;
 3170              		.loc 1 681 0
 3171 0000 0223     		movs	r3, #2
 3172 0002 0370     		strb	r3, [r0]
 682:..\u8g2-master\csrc/u8g2_d_memory.c ****   return buf;
 683:..\u8g2-master\csrc/u8g2_d_memory.c **** }
 3173              		.loc 1 683 0
 3174 0004 0048     		ldr	r0, .L338
 3175              	.LVL225:
 3176 0006 7047     		bx	lr
 3177              	.L339:
 3178              		.align	2
 3179              	.L338:
 3180 0008 38A40100 		.word	.LANCHOR20+3320
 3181              		.cfi_endproc
 3182              	.LFE112:
 3183              		.size	u8g2_m_25_25_2, .-u8g2_m_25_25_2
 3184              		.section	.text.u8g2_m_25_25_f,"ax",%progbits
 3185              		.align	2
 3186              		.global	u8g2_m_25_25_f
 3187              		.thumb
 3188              		.thumb_func
 3189              		.type	u8g2_m_25_25_f, %function
 3190              	u8g2_m_25_25_f:
 3191              	.LFB113:
 684:..\u8g2-master\csrc/u8g2_d_memory.c **** uint8_t *u8g2_m_25_25_f(uint8_t *page_cnt)
 685:..\u8g2-master\csrc/u8g2_d_memory.c **** {
ARM GAS  C:\Users\info\AppData\Local\Temp\ccfHjuLM.s 			page 69


 3192              		.loc 1 685 0
 3193              		.cfi_startproc
 3194              		@ args = 0, pretend = 0, frame = 0
 3195              		@ frame_needed = 0, uses_anonymous_args = 0
 3196              		@ link register save eliminated.
 3197              	.LVL226:
 686:..\u8g2-master\csrc/u8g2_d_memory.c ****   static uint8_t buf[5000];
 687:..\u8g2-master\csrc/u8g2_d_memory.c ****   *page_cnt = 25;
 3198              		.loc 1 687 0
 3199 0000 1923     		movs	r3, #25
 3200 0002 0370     		strb	r3, [r0]
 688:..\u8g2-master\csrc/u8g2_d_memory.c ****   return buf;
 689:..\u8g2-master\csrc/u8g2_d_memory.c **** }
 3201              		.loc 1 689 0
 3202 0004 0048     		ldr	r0, .L341
 3203              	.LVL227:
 3204 0006 7047     		bx	lr
 3205              	.L342:
 3206              		.align	2
 3207              	.L341:
 3208 0008 C8A50100 		.word	.LANCHOR20+3720
 3209              		.cfi_endproc
 3210              	.LFE113:
 3211              		.size	u8g2_m_25_25_f, .-u8g2_m_25_25_f
 3212              		.section	.text.u8g2_m_37_16_1,"ax",%progbits
 3213              		.align	2
 3214              		.global	u8g2_m_37_16_1
 3215              		.thumb
 3216              		.thumb_func
 3217              		.type	u8g2_m_37_16_1, %function
 3218              	u8g2_m_37_16_1:
 3219              	.LFB114:
 690:..\u8g2-master\csrc/u8g2_d_memory.c **** uint8_t *u8g2_m_37_16_1(uint8_t *page_cnt)
 691:..\u8g2-master\csrc/u8g2_d_memory.c **** {
 3220              		.loc 1 691 0
 3221              		.cfi_startproc
 3222              		@ args = 0, pretend = 0, frame = 0
 3223              		@ frame_needed = 0, uses_anonymous_args = 0
 3224              		@ link register save eliminated.
 3225              	.LVL228:
 692:..\u8g2-master\csrc/u8g2_d_memory.c ****   static uint8_t buf[296];
 693:..\u8g2-master\csrc/u8g2_d_memory.c ****   *page_cnt = 1;
 3226              		.loc 1 693 0
 3227 0000 0123     		movs	r3, #1
 3228 0002 0370     		strb	r3, [r0]
 694:..\u8g2-master\csrc/u8g2_d_memory.c ****   return buf;
 695:..\u8g2-master\csrc/u8g2_d_memory.c **** }
 3229              		.loc 1 695 0
 3230 0004 0048     		ldr	r0, .L344
 3231              	.LVL229:
 3232 0006 7047     		bx	lr
 3233              	.L345:
 3234              		.align	2
 3235              	.L344:
 3236 0008 50B90100 		.word	.LANCHOR21+32
 3237              		.cfi_endproc
 3238              	.LFE114:
ARM GAS  C:\Users\info\AppData\Local\Temp\ccfHjuLM.s 			page 70


 3239              		.size	u8g2_m_37_16_1, .-u8g2_m_37_16_1
 3240              		.section	.text.u8g2_m_37_16_2,"ax",%progbits
 3241              		.align	2
 3242              		.global	u8g2_m_37_16_2
 3243              		.thumb
 3244              		.thumb_func
 3245              		.type	u8g2_m_37_16_2, %function
 3246              	u8g2_m_37_16_2:
 3247              	.LFB115:
 696:..\u8g2-master\csrc/u8g2_d_memory.c **** uint8_t *u8g2_m_37_16_2(uint8_t *page_cnt)
 697:..\u8g2-master\csrc/u8g2_d_memory.c **** {
 3248              		.loc 1 697 0
 3249              		.cfi_startproc
 3250              		@ args = 0, pretend = 0, frame = 0
 3251              		@ frame_needed = 0, uses_anonymous_args = 0
 3252              		@ link register save eliminated.
 3253              	.LVL230:
 698:..\u8g2-master\csrc/u8g2_d_memory.c ****   static uint8_t buf[592];
 699:..\u8g2-master\csrc/u8g2_d_memory.c ****   *page_cnt = 2;
 3254              		.loc 1 699 0
 3255 0000 0223     		movs	r3, #2
 3256 0002 0370     		strb	r3, [r0]
 700:..\u8g2-master\csrc/u8g2_d_memory.c ****   return buf;
 701:..\u8g2-master\csrc/u8g2_d_memory.c **** }
 3257              		.loc 1 701 0
 3258 0004 0048     		ldr	r0, .L347
 3259              	.LVL231:
 3260 0006 7047     		bx	lr
 3261              	.L348:
 3262              		.align	2
 3263              	.L347:
 3264 0008 78BA0100 		.word	.LANCHOR21+328
 3265              		.cfi_endproc
 3266              	.LFE115:
 3267              		.size	u8g2_m_37_16_2, .-u8g2_m_37_16_2
 3268              		.section	.text.u8g2_m_37_16_f,"ax",%progbits
 3269              		.align	2
 3270              		.global	u8g2_m_37_16_f
 3271              		.thumb
 3272              		.thumb_func
 3273              		.type	u8g2_m_37_16_f, %function
 3274              	u8g2_m_37_16_f:
 3275              	.LFB116:
 702:..\u8g2-master\csrc/u8g2_d_memory.c **** uint8_t *u8g2_m_37_16_f(uint8_t *page_cnt)
 703:..\u8g2-master\csrc/u8g2_d_memory.c **** {
 3276              		.loc 1 703 0
 3277              		.cfi_startproc
 3278              		@ args = 0, pretend = 0, frame = 0
 3279              		@ frame_needed = 0, uses_anonymous_args = 0
 3280              		@ link register save eliminated.
 3281              	.LVL232:
 704:..\u8g2-master\csrc/u8g2_d_memory.c ****   static uint8_t buf[4736];
 705:..\u8g2-master\csrc/u8g2_d_memory.c ****   *page_cnt = 16;
 3282              		.loc 1 705 0
 3283 0000 1023     		movs	r3, #16
 3284 0002 0370     		strb	r3, [r0]
 706:..\u8g2-master\csrc/u8g2_d_memory.c ****   return buf;
ARM GAS  C:\Users\info\AppData\Local\Temp\ccfHjuLM.s 			page 71


 707:..\u8g2-master\csrc/u8g2_d_memory.c **** }
 3285              		.loc 1 707 0
 3286 0004 0048     		ldr	r0, .L350
 3287              	.LVL233:
 3288 0006 7047     		bx	lr
 3289              	.L351:
 3290              		.align	2
 3291              	.L350:
 3292 0008 C8BC0100 		.word	.LANCHOR21+920
 3293              		.cfi_endproc
 3294              	.LFE116:
 3295              		.size	u8g2_m_37_16_f, .-u8g2_m_37_16_f
 3296              		.section	.text.u8g2_m_8_1_1,"ax",%progbits
 3297              		.align	2
 3298              		.global	u8g2_m_8_1_1
 3299              		.thumb
 3300              		.thumb_func
 3301              		.type	u8g2_m_8_1_1, %function
 3302              	u8g2_m_8_1_1:
 3303              	.LFB117:
 708:..\u8g2-master\csrc/u8g2_d_memory.c **** uint8_t *u8g2_m_8_1_1(uint8_t *page_cnt)
 709:..\u8g2-master\csrc/u8g2_d_memory.c **** {
 3304              		.loc 1 709 0
 3305              		.cfi_startproc
 3306              		@ args = 0, pretend = 0, frame = 0
 3307              		@ frame_needed = 0, uses_anonymous_args = 0
 3308              		@ link register save eliminated.
 3309              	.LVL234:
 710:..\u8g2-master\csrc/u8g2_d_memory.c ****   static uint8_t buf[64];
 711:..\u8g2-master\csrc/u8g2_d_memory.c ****   *page_cnt = 1;
 3310              		.loc 1 711 0
 3311 0000 0123     		movs	r3, #1
 3312 0002 0370     		strb	r3, [r0]
 712:..\u8g2-master\csrc/u8g2_d_memory.c ****   return buf;
 713:..\u8g2-master\csrc/u8g2_d_memory.c **** }
 3313              		.loc 1 713 0
 3314 0004 0048     		ldr	r0, .L353
 3315              	.LVL235:
 3316 0006 7047     		bx	lr
 3317              	.L354:
 3318              		.align	2
 3319              	.L353:
 3320 0008 48CF0100 		.word	.LANCHOR22+1312
 3321              		.cfi_endproc
 3322              	.LFE117:
 3323              		.size	u8g2_m_8_1_1, .-u8g2_m_8_1_1
 3324              		.section	.text.u8g2_m_8_1_2,"ax",%progbits
 3325              		.align	2
 3326              		.global	u8g2_m_8_1_2
 3327              		.thumb
 3328              		.thumb_func
 3329              		.type	u8g2_m_8_1_2, %function
 3330              	u8g2_m_8_1_2:
 3331              	.LFB118:
 714:..\u8g2-master\csrc/u8g2_d_memory.c **** uint8_t *u8g2_m_8_1_2(uint8_t *page_cnt)
 715:..\u8g2-master\csrc/u8g2_d_memory.c **** {
 3332              		.loc 1 715 0
ARM GAS  C:\Users\info\AppData\Local\Temp\ccfHjuLM.s 			page 72


 3333              		.cfi_startproc
 3334              		@ args = 0, pretend = 0, frame = 0
 3335              		@ frame_needed = 0, uses_anonymous_args = 0
 3336              		@ link register save eliminated.
 3337              	.LVL236:
 716:..\u8g2-master\csrc/u8g2_d_memory.c ****   static uint8_t buf[128];
 717:..\u8g2-master\csrc/u8g2_d_memory.c ****   *page_cnt = 2;
 3338              		.loc 1 717 0
 3339 0000 0223     		movs	r3, #2
 3340 0002 0370     		strb	r3, [r0]
 718:..\u8g2-master\csrc/u8g2_d_memory.c ****   return buf;
 719:..\u8g2-master\csrc/u8g2_d_memory.c **** }
 3341              		.loc 1 719 0
 3342 0004 0048     		ldr	r0, .L356
 3343              	.LVL237:
 3344 0006 7047     		bx	lr
 3345              	.L357:
 3346              		.align	2
 3347              	.L356:
 3348 0008 88CF0100 		.word	.LANCHOR22+1376
 3349              		.cfi_endproc
 3350              	.LFE118:
 3351              		.size	u8g2_m_8_1_2, .-u8g2_m_8_1_2
 3352              		.section	.text.u8g2_m_8_1_f,"ax",%progbits
 3353              		.align	2
 3354              		.global	u8g2_m_8_1_f
 3355              		.thumb
 3356              		.thumb_func
 3357              		.type	u8g2_m_8_1_f, %function
 3358              	u8g2_m_8_1_f:
 3359              	.LFB119:
 720:..\u8g2-master\csrc/u8g2_d_memory.c **** uint8_t *u8g2_m_8_1_f(uint8_t *page_cnt)
 721:..\u8g2-master\csrc/u8g2_d_memory.c **** {
 3360              		.loc 1 721 0
 3361              		.cfi_startproc
 3362              		@ args = 0, pretend = 0, frame = 0
 3363              		@ frame_needed = 0, uses_anonymous_args = 0
 3364              		@ link register save eliminated.
 3365              	.LVL238:
 722:..\u8g2-master\csrc/u8g2_d_memory.c ****   static uint8_t buf[64];
 723:..\u8g2-master\csrc/u8g2_d_memory.c ****   *page_cnt = 1;
 3366              		.loc 1 723 0
 3367 0000 0123     		movs	r3, #1
 3368 0002 0370     		strb	r3, [r0]
 724:..\u8g2-master\csrc/u8g2_d_memory.c ****   return buf;
 725:..\u8g2-master\csrc/u8g2_d_memory.c **** }
 3369              		.loc 1 725 0
 3370 0004 0048     		ldr	r0, .L359
 3371              	.LVL239:
 3372 0006 7047     		bx	lr
 3373              	.L360:
 3374              		.align	2
 3375              	.L359:
 3376 0008 08D00100 		.word	.LANCHOR22+1504
 3377              		.cfi_endproc
 3378              	.LFE119:
 3379              		.size	u8g2_m_8_1_f, .-u8g2_m_8_1_f
ARM GAS  C:\Users\info\AppData\Local\Temp\ccfHjuLM.s 			page 73


 3380              		.section	.text.u8g2_m_4_1_1,"ax",%progbits
 3381              		.align	2
 3382              		.global	u8g2_m_4_1_1
 3383              		.thumb
 3384              		.thumb_func
 3385              		.type	u8g2_m_4_1_1, %function
 3386              	u8g2_m_4_1_1:
 3387              	.LFB120:
 726:..\u8g2-master\csrc/u8g2_d_memory.c **** uint8_t *u8g2_m_4_1_1(uint8_t *page_cnt)
 727:..\u8g2-master\csrc/u8g2_d_memory.c **** {
 3388              		.loc 1 727 0
 3389              		.cfi_startproc
 3390              		@ args = 0, pretend = 0, frame = 0
 3391              		@ frame_needed = 0, uses_anonymous_args = 0
 3392              		@ link register save eliminated.
 3393              	.LVL240:
 728:..\u8g2-master\csrc/u8g2_d_memory.c ****   static uint8_t buf[32];
 729:..\u8g2-master\csrc/u8g2_d_memory.c ****   *page_cnt = 1;
 3394              		.loc 1 729 0
 3395 0000 0123     		movs	r3, #1
 3396 0002 0370     		strb	r3, [r0]
 730:..\u8g2-master\csrc/u8g2_d_memory.c ****   return buf;
 731:..\u8g2-master\csrc/u8g2_d_memory.c **** }
 3397              		.loc 1 731 0
 3398 0004 0048     		ldr	r0, .L362
 3399              	.LVL241:
 3400 0006 7047     		bx	lr
 3401              	.L363:
 3402              		.align	2
 3403              	.L362:
 3404 0008 48D00100 		.word	.LANCHOR22+1568
 3405              		.cfi_endproc
 3406              	.LFE120:
 3407              		.size	u8g2_m_4_1_1, .-u8g2_m_4_1_1
 3408              		.section	.text.u8g2_m_4_1_2,"ax",%progbits
 3409              		.align	2
 3410              		.global	u8g2_m_4_1_2
 3411              		.thumb
 3412              		.thumb_func
 3413              		.type	u8g2_m_4_1_2, %function
 3414              	u8g2_m_4_1_2:
 3415              	.LFB121:
 732:..\u8g2-master\csrc/u8g2_d_memory.c **** uint8_t *u8g2_m_4_1_2(uint8_t *page_cnt)
 733:..\u8g2-master\csrc/u8g2_d_memory.c **** {
 3416              		.loc 1 733 0
 3417              		.cfi_startproc
 3418              		@ args = 0, pretend = 0, frame = 0
 3419              		@ frame_needed = 0, uses_anonymous_args = 0
 3420              		@ link register save eliminated.
 3421              	.LVL242:
 734:..\u8g2-master\csrc/u8g2_d_memory.c ****   static uint8_t buf[64];
 735:..\u8g2-master\csrc/u8g2_d_memory.c ****   *page_cnt = 2;
 3422              		.loc 1 735 0
 3423 0000 0223     		movs	r3, #2
 3424 0002 0370     		strb	r3, [r0]
 736:..\u8g2-master\csrc/u8g2_d_memory.c ****   return buf;
 737:..\u8g2-master\csrc/u8g2_d_memory.c **** }
ARM GAS  C:\Users\info\AppData\Local\Temp\ccfHjuLM.s 			page 74


 3425              		.loc 1 737 0
 3426 0004 0048     		ldr	r0, .L365
 3427              	.LVL243:
 3428 0006 7047     		bx	lr
 3429              	.L366:
 3430              		.align	2
 3431              	.L365:
 3432 0008 68D00100 		.word	.LANCHOR22+1600
 3433              		.cfi_endproc
 3434              	.LFE121:
 3435              		.size	u8g2_m_4_1_2, .-u8g2_m_4_1_2
 3436              		.section	.text.u8g2_m_4_1_f,"ax",%progbits
 3437              		.align	2
 3438              		.global	u8g2_m_4_1_f
 3439              		.thumb
 3440              		.thumb_func
 3441              		.type	u8g2_m_4_1_f, %function
 3442              	u8g2_m_4_1_f:
 3443              	.LFB122:
 738:..\u8g2-master\csrc/u8g2_d_memory.c **** uint8_t *u8g2_m_4_1_f(uint8_t *page_cnt)
 739:..\u8g2-master\csrc/u8g2_d_memory.c **** {
 3444              		.loc 1 739 0
 3445              		.cfi_startproc
 3446              		@ args = 0, pretend = 0, frame = 0
 3447              		@ frame_needed = 0, uses_anonymous_args = 0
 3448              		@ link register save eliminated.
 3449              	.LVL244:
 740:..\u8g2-master\csrc/u8g2_d_memory.c ****   static uint8_t buf[32];
 741:..\u8g2-master\csrc/u8g2_d_memory.c ****   *page_cnt = 1;
 3450              		.loc 1 741 0
 3451 0000 0123     		movs	r3, #1
 3452 0002 0370     		strb	r3, [r0]
 742:..\u8g2-master\csrc/u8g2_d_memory.c ****   return buf;
 743:..\u8g2-master\csrc/u8g2_d_memory.c **** }
 3453              		.loc 1 743 0
 3454 0004 0048     		ldr	r0, .L368
 3455              	.LVL245:
 3456 0006 7047     		bx	lr
 3457              	.L369:
 3458              		.align	2
 3459              	.L368:
 3460 0008 A8D00100 		.word	.LANCHOR22+1664
 3461              		.cfi_endproc
 3462              	.LFE122:
 3463              		.size	u8g2_m_4_1_f, .-u8g2_m_4_1_f
 3464              		.section	.text.u8g2_m_1_1_1,"ax",%progbits
 3465              		.align	2
 3466              		.global	u8g2_m_1_1_1
 3467              		.thumb
 3468              		.thumb_func
 3469              		.type	u8g2_m_1_1_1, %function
 3470              	u8g2_m_1_1_1:
 3471              	.LFB123:
 744:..\u8g2-master\csrc/u8g2_d_memory.c **** uint8_t *u8g2_m_1_1_1(uint8_t *page_cnt)
 745:..\u8g2-master\csrc/u8g2_d_memory.c **** {
 3472              		.loc 1 745 0
 3473              		.cfi_startproc
ARM GAS  C:\Users\info\AppData\Local\Temp\ccfHjuLM.s 			page 75


 3474              		@ args = 0, pretend = 0, frame = 0
 3475              		@ frame_needed = 0, uses_anonymous_args = 0
 3476              		@ link register save eliminated.
 3477              	.LVL246:
 746:..\u8g2-master\csrc/u8g2_d_memory.c ****   static uint8_t buf[8];
 747:..\u8g2-master\csrc/u8g2_d_memory.c ****   *page_cnt = 1;
 3478              		.loc 1 747 0
 3479 0000 0123     		movs	r3, #1
 3480 0002 0370     		strb	r3, [r0]
 748:..\u8g2-master\csrc/u8g2_d_memory.c ****   return buf;
 749:..\u8g2-master\csrc/u8g2_d_memory.c **** }
 3481              		.loc 1 749 0
 3482 0004 0048     		ldr	r0, .L371
 3483              	.LVL247:
 3484 0006 7047     		bx	lr
 3485              	.L372:
 3486              		.align	2
 3487              	.L371:
 3488 0008 C8D00100 		.word	.LANCHOR22+1696
 3489              		.cfi_endproc
 3490              	.LFE123:
 3491              		.size	u8g2_m_1_1_1, .-u8g2_m_1_1_1
 3492              		.section	.text.u8g2_m_1_1_2,"ax",%progbits
 3493              		.align	2
 3494              		.global	u8g2_m_1_1_2
 3495              		.thumb
 3496              		.thumb_func
 3497              		.type	u8g2_m_1_1_2, %function
 3498              	u8g2_m_1_1_2:
 3499              	.LFB124:
 750:..\u8g2-master\csrc/u8g2_d_memory.c **** uint8_t *u8g2_m_1_1_2(uint8_t *page_cnt)
 751:..\u8g2-master\csrc/u8g2_d_memory.c **** {
 3500              		.loc 1 751 0
 3501              		.cfi_startproc
 3502              		@ args = 0, pretend = 0, frame = 0
 3503              		@ frame_needed = 0, uses_anonymous_args = 0
 3504              		@ link register save eliminated.
 3505              	.LVL248:
 752:..\u8g2-master\csrc/u8g2_d_memory.c ****   static uint8_t buf[16];
 753:..\u8g2-master\csrc/u8g2_d_memory.c ****   *page_cnt = 2;
 3506              		.loc 1 753 0
 3507 0000 0223     		movs	r3, #2
 3508 0002 0370     		strb	r3, [r0]
 754:..\u8g2-master\csrc/u8g2_d_memory.c ****   return buf;
 755:..\u8g2-master\csrc/u8g2_d_memory.c **** }
 3509              		.loc 1 755 0
 3510 0004 0048     		ldr	r0, .L374
 3511              	.LVL249:
 3512 0006 7047     		bx	lr
 3513              	.L375:
 3514              		.align	2
 3515              	.L374:
 3516 0008 D0D00100 		.word	.LANCHOR22+1704
 3517              		.cfi_endproc
 3518              	.LFE124:
 3519              		.size	u8g2_m_1_1_2, .-u8g2_m_1_1_2
 3520              		.section	.text.u8g2_m_1_1_f,"ax",%progbits
ARM GAS  C:\Users\info\AppData\Local\Temp\ccfHjuLM.s 			page 76


 3521              		.align	2
 3522              		.global	u8g2_m_1_1_f
 3523              		.thumb
 3524              		.thumb_func
 3525              		.type	u8g2_m_1_1_f, %function
 3526              	u8g2_m_1_1_f:
 3527              	.LFB125:
 756:..\u8g2-master\csrc/u8g2_d_memory.c **** uint8_t *u8g2_m_1_1_f(uint8_t *page_cnt)
 757:..\u8g2-master\csrc/u8g2_d_memory.c **** {
 3528              		.loc 1 757 0
 3529              		.cfi_startproc
 3530              		@ args = 0, pretend = 0, frame = 0
 3531              		@ frame_needed = 0, uses_anonymous_args = 0
 3532              		@ link register save eliminated.
 3533              	.LVL250:
 758:..\u8g2-master\csrc/u8g2_d_memory.c ****   static uint8_t buf[8];
 759:..\u8g2-master\csrc/u8g2_d_memory.c ****   *page_cnt = 1;
 3534              		.loc 1 759 0
 3535 0000 0123     		movs	r3, #1
 3536 0002 0370     		strb	r3, [r0]
 760:..\u8g2-master\csrc/u8g2_d_memory.c ****   return buf;
 761:..\u8g2-master\csrc/u8g2_d_memory.c **** }
 3537              		.loc 1 761 0
 3538 0004 0048     		ldr	r0, .L377
 3539              	.LVL251:
 3540 0006 7047     		bx	lr
 3541              	.L378:
 3542              		.align	2
 3543              	.L377:
 3544 0008 E0D00100 		.word	.LANCHOR22+1720
 3545              		.cfi_endproc
 3546              	.LFE125:
 3547              		.size	u8g2_m_1_1_f, .-u8g2_m_1_1_f
 3548              		.section	.text.u8g2_m_48_30_1,"ax",%progbits
 3549              		.align	2
 3550              		.global	u8g2_m_48_30_1
 3551              		.thumb
 3552              		.thumb_func
 3553              		.type	u8g2_m_48_30_1, %function
 3554              	u8g2_m_48_30_1:
 3555              	.LFB126:
 762:..\u8g2-master\csrc/u8g2_d_memory.c **** uint8_t *u8g2_m_48_30_1(uint8_t *page_cnt)
 763:..\u8g2-master\csrc/u8g2_d_memory.c **** {
 3556              		.loc 1 763 0
 3557              		.cfi_startproc
 3558              		@ args = 0, pretend = 0, frame = 0
 3559              		@ frame_needed = 0, uses_anonymous_args = 0
 3560              		@ link register save eliminated.
 3561              	.LVL252:
 764:..\u8g2-master\csrc/u8g2_d_memory.c ****   static uint8_t buf[384];
 765:..\u8g2-master\csrc/u8g2_d_memory.c ****   *page_cnt = 1;
 3562              		.loc 1 765 0
 3563 0000 0123     		movs	r3, #1
 3564 0002 0370     		strb	r3, [r0]
 766:..\u8g2-master\csrc/u8g2_d_memory.c ****   return buf;
 767:..\u8g2-master\csrc/u8g2_d_memory.c **** }
 3565              		.loc 1 767 0
ARM GAS  C:\Users\info\AppData\Local\Temp\ccfHjuLM.s 			page 77


 3566 0004 0048     		ldr	r0, .L380
 3567              	.LVL253:
 3568 0006 7047     		bx	lr
 3569              	.L381:
 3570              		.align	2
 3571              	.L380:
 3572 0008 E8D00100 		.word	.LANCHOR22+1728
 3573              		.cfi_endproc
 3574              	.LFE126:
 3575              		.size	u8g2_m_48_30_1, .-u8g2_m_48_30_1
 3576              		.section	.text.u8g2_m_48_30_2,"ax",%progbits
 3577              		.align	2
 3578              		.global	u8g2_m_48_30_2
 3579              		.thumb
 3580              		.thumb_func
 3581              		.type	u8g2_m_48_30_2, %function
 3582              	u8g2_m_48_30_2:
 3583              	.LFB127:
 768:..\u8g2-master\csrc/u8g2_d_memory.c **** uint8_t *u8g2_m_48_30_2(uint8_t *page_cnt)
 769:..\u8g2-master\csrc/u8g2_d_memory.c **** {
 3584              		.loc 1 769 0
 3585              		.cfi_startproc
 3586              		@ args = 0, pretend = 0, frame = 0
 3587              		@ frame_needed = 0, uses_anonymous_args = 0
 3588              		@ link register save eliminated.
 3589              	.LVL254:
 770:..\u8g2-master\csrc/u8g2_d_memory.c ****   static uint8_t buf[768];
 771:..\u8g2-master\csrc/u8g2_d_memory.c ****   *page_cnt = 2;
 3590              		.loc 1 771 0
 3591 0000 0223     		movs	r3, #2
 3592 0002 0370     		strb	r3, [r0]
 772:..\u8g2-master\csrc/u8g2_d_memory.c ****   return buf;
 773:..\u8g2-master\csrc/u8g2_d_memory.c **** }
 3593              		.loc 1 773 0
 3594 0004 0048     		ldr	r0, .L383
 3595              	.LVL255:
 3596 0006 7047     		bx	lr
 3597              	.L384:
 3598              		.align	2
 3599              	.L383:
 3600 0008 68D20100 		.word	.LANCHOR22+2112
 3601              		.cfi_endproc
 3602              	.LFE127:
 3603              		.size	u8g2_m_48_30_2, .-u8g2_m_48_30_2
 3604              		.section	.text.u8g2_m_48_30_f,"ax",%progbits
 3605              		.align	2
 3606              		.global	u8g2_m_48_30_f
 3607              		.thumb
 3608              		.thumb_func
 3609              		.type	u8g2_m_48_30_f, %function
 3610              	u8g2_m_48_30_f:
 3611              	.LFB128:
 774:..\u8g2-master\csrc/u8g2_d_memory.c **** uint8_t *u8g2_m_48_30_f(uint8_t *page_cnt)
 775:..\u8g2-master\csrc/u8g2_d_memory.c **** {
 3612              		.loc 1 775 0
 3613              		.cfi_startproc
 3614              		@ args = 0, pretend = 0, frame = 0
ARM GAS  C:\Users\info\AppData\Local\Temp\ccfHjuLM.s 			page 78


 3615              		@ frame_needed = 0, uses_anonymous_args = 0
 3616              		@ link register save eliminated.
 3617              	.LVL256:
 776:..\u8g2-master\csrc/u8g2_d_memory.c ****   static uint8_t buf[11520];
 777:..\u8g2-master\csrc/u8g2_d_memory.c ****   *page_cnt = 30;
 3618              		.loc 1 777 0
 3619 0000 1E23     		movs	r3, #30
 3620 0002 0370     		strb	r3, [r0]
 778:..\u8g2-master\csrc/u8g2_d_memory.c ****   return buf;
 779:..\u8g2-master\csrc/u8g2_d_memory.c **** }
 3621              		.loc 1 779 0
 3622 0004 0048     		ldr	r0, .L386
 3623              	.LVL257:
 3624 0006 7047     		bx	lr
 3625              	.L387:
 3626              		.align	2
 3627              	.L386:
 3628 0008 68D50100 		.word	.LANCHOR22+2880
 3629              		.cfi_endproc
 3630              	.LFE128:
 3631              		.size	u8g2_m_48_30_f, .-u8g2_m_48_30_f
 3632              		.bss
 3633              		.align	2
 3634              		.set	.LANCHOR0,. + 0
 3635              		.set	.LANCHOR1,. + 4344
 3636              		.set	.LANCHOR2,. + 8688
 3637              		.set	.LANCHOR3,. + 13032
 3638              		.set	.LANCHOR4,. + 17376
 3639              		.set	.LANCHOR5,. + 21720
 3640              		.set	.LANCHOR6,. + 34752
 3641              		.set	.LANCHOR7,. + 39096
 3642              		.set	.LANCHOR8,. + 43440
 3643              		.set	.LANCHOR9,. + 47784
 3644              		.set	.LANCHOR10,. + 52128
 3645              		.set	.LANCHOR11,. + 56472
 3646              		.set	.LANCHOR12,. + 60816
 3647              		.set	.LANCHOR13,. + 65160
 3648              		.set	.LANCHOR14,. + 73848
 3649              		.set	.LANCHOR15,. + 78192
 3650              		.set	.LANCHOR16,. + 86880
 3651              		.set	.LANCHOR17,. + 91224
 3652              		.set	.LANCHOR18,. + 95568
 3653              		.set	.LANCHOR19,. + 99912
 3654              		.set	.LANCHOR20,. + 104256
 3655              		.set	.LANCHOR21,. + 112944
 3656              		.set	.LANCHOR22,. + 117288
 3657              		.type	buf.10141, %object
 3658              		.size	buf.10141, 128
 3659              	buf.10141:
 3660 0000 00000000 		.space	128
 3660      00000000 
 3660      00000000 
 3660      00000000 
 3660      00000000 
 3661              		.type	buf.10145, %object
 3662              		.size	buf.10145, 256
 3663              	buf.10145:
ARM GAS  C:\Users\info\AppData\Local\Temp\ccfHjuLM.s 			page 79


 3664 0080 00000000 		.space	256
 3664      00000000 
 3664      00000000 
 3664      00000000 
 3664      00000000 
 3665              		.type	buf.10149, %object
 3666              		.size	buf.10149, 512
 3667              	buf.10149:
 3668 0180 00000000 		.space	512
 3668      00000000 
 3668      00000000 
 3668      00000000 
 3668      00000000 
 3669              		.type	buf.10153, %object
 3670              		.size	buf.10153, 128
 3671              	buf.10153:
 3672 0380 00000000 		.space	128
 3672      00000000 
 3672      00000000 
 3672      00000000 
 3672      00000000 
 3673              		.type	buf.10157, %object
 3674              		.size	buf.10157, 256
 3675              	buf.10157:
 3676 0400 00000000 		.space	256
 3676      00000000 
 3676      00000000 
 3676      00000000 
 3676      00000000 
 3677              		.type	buf.10161, %object
 3678              		.size	buf.10161, 1024
 3679              	buf.10161:
 3680 0500 00000000 		.space	1024
 3680      00000000 
 3680      00000000 
 3680      00000000 
 3680      00000000 
 3681              		.type	buf.10165, %object
 3682              		.size	buf.10165, 72
 3683              	buf.10165:
 3684 0900 00000000 		.space	72
 3684      00000000 
 3684      00000000 
 3684      00000000 
 3684      00000000 
 3685              		.type	buf.10169, %object
 3686              		.size	buf.10169, 144
 3687              	buf.10169:
 3688 0948 00000000 		.space	144
 3688      00000000 
 3688      00000000 
 3688      00000000 
 3688      00000000 
 3689              		.type	buf.10173, %object
 3690              		.size	buf.10173, 360
 3691              	buf.10173:
 3692 09d8 00000000 		.space	360
ARM GAS  C:\Users\info\AppData\Local\Temp\ccfHjuLM.s 			page 80


 3692      00000000 
 3692      00000000 
 3692      00000000 
 3692      00000000 
 3693              		.type	buf.10177, %object
 3694              		.size	buf.10177, 64
 3695              	buf.10177:
 3696 0b40 00000000 		.space	64
 3696      00000000 
 3696      00000000 
 3696      00000000 
 3696      00000000 
 3697              		.type	buf.10181, %object
 3698              		.size	buf.10181, 128
 3699              	buf.10181:
 3700 0b80 00000000 		.space	128
 3700      00000000 
 3700      00000000 
 3700      00000000 
 3700      00000000 
 3701              		.type	buf.10185, %object
 3702              		.size	buf.10185, 256
 3703              	buf.10185:
 3704 0c00 00000000 		.space	256
 3704      00000000 
 3704      00000000 
 3704      00000000 
 3704      00000000 
 3705              		.type	buf.10189, %object
 3706              		.size	buf.10189, 64
 3707              	buf.10189:
 3708 0d00 00000000 		.space	64
 3708      00000000 
 3708      00000000 
 3708      00000000 
 3708      00000000 
 3709              		.type	buf.10193, %object
 3710              		.size	buf.10193, 128
 3711              	buf.10193:
 3712 0d40 00000000 		.space	128
 3712      00000000 
 3712      00000000 
 3712      00000000 
 3712      00000000 
 3713              		.type	buf.10197, %object
 3714              		.size	buf.10197, 1024
 3715              	buf.10197:
 3716 0dc0 00000000 		.space	1024
 3716      00000000 
 3716      00000000 
 3716      00000000 
 3716      00000000 
 3717              		.type	buf.10201, %object
 3718              		.size	buf.10201, 96
 3719              	buf.10201:
 3720 11c0 00000000 		.space	96
 3720      00000000 
ARM GAS  C:\Users\info\AppData\Local\Temp\ccfHjuLM.s 			page 81


 3720      00000000 
 3720      00000000 
 3720      00000000 
 3721              		.type	buf.10205, %object
 3722              		.size	buf.10205, 192
 3723              	buf.10205:
 3724 1220 00000000 		.space	192
 3724      00000000 
 3724      00000000 
 3724      00000000 
 3724      00000000 
 3725              		.type	buf.10209, %object
 3726              		.size	buf.10209, 1152
 3727              	buf.10209:
 3728 12e0 00000000 		.space	1152
 3728      00000000 
 3728      00000000 
 3728      00000000 
 3728      00000000 
 3729              		.type	buf.10213, %object
 3730              		.size	buf.10213, 128
 3731              	buf.10213:
 3732 1760 00000000 		.space	128
 3732      00000000 
 3732      00000000 
 3732      00000000 
 3732      00000000 
 3733              		.type	buf.10217, %object
 3734              		.size	buf.10217, 256
 3735              	buf.10217:
 3736 17e0 00000000 		.space	256
 3736      00000000 
 3736      00000000 
 3736      00000000 
 3736      00000000 
 3737              		.type	buf.10221, %object
 3738              		.size	buf.10221, 2048
 3739              	buf.10221:
 3740 18e0 00000000 		.space	2048
 3740      00000000 
 3740      00000000 
 3740      00000000 
 3740      00000000 
 3741              		.type	buf.10225, %object
 3742              		.size	buf.10225, 160
 3743              	buf.10225:
 3744 20e0 00000000 		.space	160
 3744      00000000 
 3744      00000000 
 3744      00000000 
 3744      00000000 
 3745              		.type	buf.10229, %object
 3746              		.size	buf.10229, 320
 3747              	buf.10229:
 3748 2180 00000000 		.space	320
 3748      00000000 
 3748      00000000 
ARM GAS  C:\Users\info\AppData\Local\Temp\ccfHjuLM.s 			page 82


 3748      00000000 
 3748      00000000 
 3749              		.type	buf.10233, %object
 3750              		.size	buf.10233, 3200
 3751              	buf.10233:
 3752 22c0 00000000 		.space	3200
 3752      00000000 
 3752      00000000 
 3752      00000000 
 3752      00000000 
 3753              		.type	buf.10237, %object
 3754              		.size	buf.10237, 256
 3755              	buf.10237:
 3756 2f40 00000000 		.space	256
 3756      00000000 
 3756      00000000 
 3756      00000000 
 3756      00000000 
 3757              		.type	buf.10241, %object
 3758              		.size	buf.10241, 512
 3759              	buf.10241:
 3760 3040 00000000 		.space	512
 3760      00000000 
 3760      00000000 
 3760      00000000 
 3760      00000000 
 3761              		.type	buf.10245, %object
 3762              		.size	buf.10245, 2048
 3763              	buf.10245:
 3764 3240 00000000 		.space	2048
 3764      00000000 
 3764      00000000 
 3764      00000000 
 3764      00000000 
 3765              		.type	buf.10249, %object
 3766              		.size	buf.10249, 64
 3767              	buf.10249:
 3768 3a40 00000000 		.space	64
 3768      00000000 
 3768      00000000 
 3768      00000000 
 3768      00000000 
 3769              		.type	buf.10253, %object
 3770              		.size	buf.10253, 128
 3771              	buf.10253:
 3772 3a80 00000000 		.space	128
 3772      00000000 
 3772      00000000 
 3772      00000000 
 3772      00000000 
 3773              		.type	buf.10257, %object
 3774              		.size	buf.10257, 384
 3775              	buf.10257:
 3776 3b00 00000000 		.space	384
 3776      00000000 
 3776      00000000 
 3776      00000000 
ARM GAS  C:\Users\info\AppData\Local\Temp\ccfHjuLM.s 			page 83


 3776      00000000 
 3777              		.type	buf.10261, %object
 3778              		.size	buf.10261, 48
 3779              	buf.10261:
 3780 3c80 00000000 		.space	48
 3780      00000000 
 3780      00000000 
 3780      00000000 
 3780      00000000 
 3781              		.type	buf.10265, %object
 3782              		.size	buf.10265, 96
 3783              	buf.10265:
 3784 3cb0 00000000 		.space	96
 3784      00000000 
 3784      00000000 
 3784      00000000 
 3784      00000000 
 3785              		.type	buf.10269, %object
 3786              		.size	buf.10269, 384
 3787              	buf.10269:
 3788 3d10 00000000 		.space	384
 3788      00000000 
 3788      00000000 
 3788      00000000 
 3788      00000000 
 3789              		.type	buf.10273, %object
 3790              		.size	buf.10273, 96
 3791              	buf.10273:
 3792 3e90 00000000 		.space	96
 3792      00000000 
 3792      00000000 
 3792      00000000 
 3792      00000000 
 3793              		.type	buf.10277, %object
 3794              		.size	buf.10277, 192
 3795              	buf.10277:
 3796 3ef0 00000000 		.space	192
 3796      00000000 
 3796      00000000 
 3796      00000000 
 3796      00000000 
 3797              		.type	buf.10281, %object
 3798              		.size	buf.10281, 192
 3799              	buf.10281:
 3800 3fb0 00000000 		.space	192
 3800      00000000 
 3800      00000000 
 3800      00000000 
 3800      00000000 
 3801              		.type	buf.10285, %object
 3802              		.size	buf.10285, 128
 3803              	buf.10285:
 3804 4070 00000000 		.space	128
 3804      00000000 
 3804      00000000 
 3804      00000000 
 3804      00000000 
ARM GAS  C:\Users\info\AppData\Local\Temp\ccfHjuLM.s 			page 84


 3805              		.type	buf.10289, %object
 3806              		.size	buf.10289, 256
 3807              	buf.10289:
 3808 40f0 00000000 		.space	256
 3808      00000000 
 3808      00000000 
 3808      00000000 
 3808      00000000 
 3809              		.type	buf.10293, %object
 3810              		.size	buf.10293, 1536
 3811              	buf.10293:
 3812 41f0 00000000 		.space	1536
 3812      00000000 
 3812      00000000 
 3812      00000000 
 3812      00000000 
 3813              		.type	buf.10297, %object
 3814              		.size	buf.10297, 256
 3815              	buf.10297:
 3816 47f0 00000000 		.space	256
 3816      00000000 
 3816      00000000 
 3816      00000000 
 3816      00000000 
 3817              		.type	buf.10301, %object
 3818              		.size	buf.10301, 512
 3819              	buf.10301:
 3820 48f0 00000000 		.space	512
 3820      00000000 
 3820      00000000 
 3820      00000000 
 3820      00000000 
 3821              		.type	buf.10305, %object
 3822              		.size	buf.10305, 1024
 3823              	buf.10305:
 3824 4af0 00000000 		.space	1024
 3824      00000000 
 3824      00000000 
 3824      00000000 
 3824      00000000 
 3825              		.type	buf.10309, %object
 3826              		.size	buf.10309, 192
 3827              	buf.10309:
 3828 4ef0 00000000 		.space	192
 3828      00000000 
 3828      00000000 
 3828      00000000 
 3828      00000000 
 3829              		.type	buf.10313, %object
 3830              		.size	buf.10313, 384
 3831              	buf.10313:
 3832 4fb0 00000000 		.space	384
 3832      00000000 
 3832      00000000 
 3832      00000000 
 3832      00000000 
 3833              		.type	buf.10317, %object
ARM GAS  C:\Users\info\AppData\Local\Temp\ccfHjuLM.s 			page 85


 3834              		.size	buf.10317, 768
 3835              	buf.10317:
 3836 5130 00000000 		.space	768
 3836      00000000 
 3836      00000000 
 3836      00000000 
 3836      00000000 
 3837              		.type	buf.10321, %object
 3838              		.size	buf.10321, 400
 3839              	buf.10321:
 3840 5430 00000000 		.space	400
 3840      00000000 
 3840      00000000 
 3840      00000000 
 3840      00000000 
 3841              		.type	buf.10325, %object
 3842              		.size	buf.10325, 800
 3843              	buf.10325:
 3844 55c0 00000000 		.space	800
 3844      00000000 
 3844      00000000 
 3844      00000000 
 3844      00000000 
 3845              		.type	buf.10329, %object
 3846              		.size	buf.10329, 12000
 3847              	buf.10329:
 3848 58e0 00000000 		.space	12000
 3848      00000000 
 3848      00000000 
 3848      00000000 
 3848      00000000 
 3849              		.type	buf.10333, %object
 3850              		.size	buf.10333, 144
 3851              	buf.10333:
 3852 87c0 00000000 		.space	144
 3852      00000000 
 3852      00000000 
 3852      00000000 
 3852      00000000 
 3853              		.type	buf.10337, %object
 3854              		.size	buf.10337, 288
 3855              	buf.10337:
 3856 8850 00000000 		.space	288
 3856      00000000 
 3856      00000000 
 3856      00000000 
 3856      00000000 
 3857              		.type	buf.10341, %object
 3858              		.size	buf.10341, 3024
 3859              	buf.10341:
 3860 8970 00000000 		.space	3024
 3860      00000000 
 3860      00000000 
 3860      00000000 
 3860      00000000 
 3861              		.type	buf.10345, %object
 3862              		.size	buf.10345, 104
ARM GAS  C:\Users\info\AppData\Local\Temp\ccfHjuLM.s 			page 86


 3863              	buf.10345:
 3864 9540 00000000 		.space	104
 3864      00000000 
 3864      00000000 
 3864      00000000 
 3864      00000000 
 3865              		.type	buf.10349, %object
 3866              		.size	buf.10349, 208
 3867              	buf.10349:
 3868 95a8 00000000 		.space	208
 3868      00000000 
 3868      00000000 
 3868      00000000 
 3868      00000000 
 3869              		.type	buf.10353, %object
 3870              		.size	buf.10353, 832
 3871              	buf.10353:
 3872 9678 00000000 		.space	832
 3872      00000000 
 3872      00000000 
 3872      00000000 
 3872      00000000 
 3873              		.type	buf.10357, %object
 3874              		.size	buf.10357, 88
 3875              	buf.10357:
 3876 99b8 00000000 		.space	88
 3876      00000000 
 3876      00000000 
 3876      00000000 
 3876      00000000 
 3877              		.type	buf.10361, %object
 3878              		.size	buf.10361, 176
 3879              	buf.10361:
 3880 9a10 00000000 		.space	176
 3880      00000000 
 3880      00000000 
 3880      00000000 
 3880      00000000 
 3881              		.type	buf.10365, %object
 3882              		.size	buf.10365, 528
 3883              	buf.10365:
 3884 9ac0 00000000 		.space	528
 3884      00000000 
 3884      00000000 
 3884      00000000 
 3884      00000000 
 3885              		.type	buf.10369, %object
 3886              		.size	buf.10369, 96
 3887              	buf.10369:
 3888 9cd0 00000000 		.space	96
 3888      00000000 
 3888      00000000 
 3888      00000000 
 3888      00000000 
 3889              		.type	buf.10373, %object
 3890              		.size	buf.10373, 192
 3891              	buf.10373:
ARM GAS  C:\Users\info\AppData\Local\Temp\ccfHjuLM.s 			page 87


 3892 9d30 00000000 		.space	192
 3892      00000000 
 3892      00000000 
 3892      00000000 
 3892      00000000 
 3893              		.type	buf.10377, %object
 3894              		.size	buf.10377, 864
 3895              	buf.10377:
 3896 9df0 00000000 		.space	864
 3896      00000000 
 3896      00000000 
 3896      00000000 
 3896      00000000 
 3897              		.type	buf.10381, %object
 3898              		.size	buf.10381, 192
 3899              	buf.10381:
 3900 a150 00000000 		.space	192
 3900      00000000 
 3900      00000000 
 3900      00000000 
 3900      00000000 
 3901              		.type	buf.10385, %object
 3902              		.size	buf.10385, 384
 3903              	buf.10385:
 3904 a210 00000000 		.space	384
 3904      00000000 
 3904      00000000 
 3904      00000000 
 3904      00000000 
 3905              		.type	buf.10389, %object
 3906              		.size	buf.10389, 1536
 3907              	buf.10389:
 3908 a390 00000000 		.space	1536
 3908      00000000 
 3908      00000000 
 3908      00000000 
 3908      00000000 
 3909              		.type	buf.10393, %object
 3910              		.size	buf.10393, 240
 3911              	buf.10393:
 3912 a990 00000000 		.space	240
 3912      00000000 
 3912      00000000 
 3912      00000000 
 3912      00000000 
 3913              		.type	buf.10397, %object
 3914              		.size	buf.10397, 480
 3915              	buf.10397:
 3916 aa80 00000000 		.space	480
 3916      00000000 
 3916      00000000 
 3916      00000000 
 3916      00000000 
 3917              		.type	buf.10401, %object
 3918              		.size	buf.10401, 1920
 3919              	buf.10401:
 3920 ac60 00000000 		.space	1920
ARM GAS  C:\Users\info\AppData\Local\Temp\ccfHjuLM.s 			page 88


 3920      00000000 
 3920      00000000 
 3920      00000000 
 3920      00000000 
 3921              		.type	buf.10405, %object
 3922              		.size	buf.10405, 240
 3923              	buf.10405:
 3924 b3e0 00000000 		.space	240
 3924      00000000 
 3924      00000000 
 3924      00000000 
 3924      00000000 
 3925              		.type	buf.10409, %object
 3926              		.size	buf.10409, 480
 3927              	buf.10409:
 3928 b4d0 00000000 		.space	480
 3928      00000000 
 3928      00000000 
 3928      00000000 
 3928      00000000 
 3929              		.type	buf.10413, %object
 3930              		.size	buf.10413, 3600
 3931              	buf.10413:
 3932 b6b0 00000000 		.space	3600
 3932      00000000 
 3932      00000000 
 3932      00000000 
 3932      00000000 
 3933              		.type	buf.10417, %object
 3934              		.size	buf.10417, 240
 3935              	buf.10417:
 3936 c4c0 00000000 		.space	240
 3936      00000000 
 3936      00000000 
 3936      00000000 
 3936      00000000 
 3937              		.type	buf.10421, %object
 3938              		.size	buf.10421, 480
 3939              	buf.10421:
 3940 c5b0 00000000 		.space	480
 3940      00000000 
 3940      00000000 
 3940      00000000 
 3940      00000000 
 3941              		.type	buf.10425, %object
 3942              		.size	buf.10425, 3840
 3943              	buf.10425:
 3944 c790 00000000 		.space	3840
 3944      00000000 
 3944      00000000 
 3944      00000000 
 3944      00000000 
 3945              		.type	buf.10429, %object
 3946              		.size	buf.10429, 160
 3947              	buf.10429:
 3948 d690 00000000 		.space	160
 3948      00000000 
ARM GAS  C:\Users\info\AppData\Local\Temp\ccfHjuLM.s 			page 89


 3948      00000000 
 3948      00000000 
 3948      00000000 
 3949              		.type	buf.10433, %object
 3950              		.size	buf.10433, 320
 3951              	buf.10433:
 3952 d730 00000000 		.space	320
 3952      00000000 
 3952      00000000 
 3952      00000000 
 3952      00000000 
 3953              		.type	buf.10437, %object
 3954              		.size	buf.10437, 2560
 3955              	buf.10437:
 3956 d870 00000000 		.space	2560
 3956      00000000 
 3956      00000000 
 3956      00000000 
 3956      00000000 
 3957              		.type	buf.10441, %object
 3958              		.size	buf.10441, 160
 3959              	buf.10441:
 3960 e270 00000000 		.space	160
 3960      00000000 
 3960      00000000 
 3960      00000000 
 3960      00000000 
 3961              		.type	buf.10445, %object
 3962              		.size	buf.10445, 320
 3963              	buf.10445:
 3964 e310 00000000 		.space	320
 3964      00000000 
 3964      00000000 
 3964      00000000 
 3964      00000000 
 3965              		.type	buf.10449, %object
 3966              		.size	buf.10449, 2080
 3967              	buf.10449:
 3968 e450 00000000 		.space	2080
 3968      00000000 
 3968      00000000 
 3968      00000000 
 3968      00000000 
 3969              		.type	buf.10453, %object
 3970              		.size	buf.10453, 240
 3971              	buf.10453:
 3972 ec70 00000000 		.space	240
 3972      00000000 
 3972      00000000 
 3972      00000000 
 3972      00000000 
 3973              		.type	buf.10457, %object
 3974              		.size	buf.10457, 480
 3975              	buf.10457:
 3976 ed60 00000000 		.space	480
 3976      00000000 
 3976      00000000 
ARM GAS  C:\Users\info\AppData\Local\Temp\ccfHjuLM.s 			page 90


 3976      00000000 
 3976      00000000 
 3977              		.type	buf.10461, %object
 3978              		.size	buf.10461, 4800
 3979              	buf.10461:
 3980 ef40 00000000 		.space	4800
 3980      00000000 
 3980      00000000 
 3980      00000000 
 3980      00000000 
 3981              		.type	buf.10465, %object
 3982              		.size	buf.10465, 320
 3983              	buf.10465:
 3984 10200 00000000 		.space	320
 3984      00000000 
 3984      00000000 
 3984      00000000 
 3984      00000000 
 3985              		.type	buf.10469, %object
 3986              		.size	buf.10469, 640
 3987              	buf.10469:
 3988 10340 00000000 		.space	640
 3988      00000000 
 3988      00000000 
 3988      00000000 
 3988      00000000 
 3989              		.type	buf.10473, %object
 3990              		.size	buf.10473, 9600
 3991              	buf.10473:
 3992 105c0 00000000 		.space	9600
 3992      00000000 
 3992      00000000 
 3992      00000000 
 3992      00000000 
 3993              		.type	buf.10477, %object
 3994              		.size	buf.10477, 136
 3995              	buf.10477:
 3996 12b40 00000000 		.space	136
 3996      00000000 
 3996      00000000 
 3996      00000000 
 3996      00000000 
 3997              		.type	buf.10481, %object
 3998              		.size	buf.10481, 272
 3999              	buf.10481:
 4000 12bc8 00000000 		.space	272
 4000      00000000 
 4000      00000000 
 4000      00000000 
 4000      00000000 
 4001              		.type	buf.10485, %object
 4002              		.size	buf.10485, 544
 4003              	buf.10485:
 4004 12cd8 00000000 		.space	544
 4004      00000000 
 4004      00000000 
 4004      00000000 
ARM GAS  C:\Users\info\AppData\Local\Temp\ccfHjuLM.s 			page 91


 4004      00000000 
 4005              		.type	buf.10489, %object
 4006              		.size	buf.10489, 136
 4007              	buf.10489:
 4008 12ef8 00000000 		.space	136
 4008      00000000 
 4008      00000000 
 4008      00000000 
 4008      00000000 
 4009              		.type	buf.10493, %object
 4010              		.size	buf.10493, 272
 4011              	buf.10493:
 4012 12f80 00000000 		.space	272
 4012      00000000 
 4012      00000000 
 4012      00000000 
 4012      00000000 
 4013              		.type	buf.10497, %object
 4014              		.size	buf.10497, 1088
 4015              	buf.10497:
 4016 13090 00000000 		.space	1088
 4016      00000000 
 4016      00000000 
 4016      00000000 
 4016      00000000 
 4017              		.type	buf.10501, %object
 4018              		.size	buf.10501, 384
 4019              	buf.10501:
 4020 134d0 00000000 		.space	384
 4020      00000000 
 4020      00000000 
 4020      00000000 
 4020      00000000 
 4021              		.type	buf.10505, %object
 4022              		.size	buf.10505, 768
 4023              	buf.10505:
 4024 13650 00000000 		.space	768
 4024      00000000 
 4024      00000000 
 4024      00000000 
 4024      00000000 
 4025              		.type	buf.10509, %object
 4026              		.size	buf.10509, 6528
 4027              	buf.10509:
 4028 13950 00000000 		.space	6528
 4028      00000000 
 4028      00000000 
 4028      00000000 
 4028      00000000 
 4029              		.type	buf.10513, %object
 4030              		.size	buf.10513, 256
 4031              	buf.10513:
 4032 152d0 00000000 		.space	256
 4032      00000000 
 4032      00000000 
 4032      00000000 
 4032      00000000 
ARM GAS  C:\Users\info\AppData\Local\Temp\ccfHjuLM.s 			page 92


 4033              		.type	buf.10517, %object
 4034              		.size	buf.10517, 512
 4035              	buf.10517:
 4036 153d0 00000000 		.space	512
 4036      00000000 
 4036      00000000 
 4036      00000000 
 4036      00000000 
 4037              		.type	buf.10521, %object
 4038              		.size	buf.10521, 4096
 4039              	buf.10521:
 4040 155d0 00000000 		.space	4096
 4040      00000000 
 4040      00000000 
 4040      00000000 
 4040      00000000 
 4041              		.type	buf.10525, %object
 4042              		.size	buf.10525, 256
 4043              	buf.10525:
 4044 165d0 00000000 		.space	256
 4044      00000000 
 4044      00000000 
 4044      00000000 
 4044      00000000 
 4045              		.type	buf.10529, %object
 4046              		.size	buf.10529, 512
 4047              	buf.10529:
 4048 166d0 00000000 		.space	512
 4048      00000000 
 4048      00000000 
 4048      00000000 
 4048      00000000 
 4049              		.type	buf.10533, %object
 4050              		.size	buf.10533, 5120
 4051              	buf.10533:
 4052 168d0 00000000 		.space	5120
 4052      00000000 
 4052      00000000 
 4052      00000000 
 4052      00000000 
 4053              		.type	buf.10537, %object
 4054              		.size	buf.10537, 176
 4055              	buf.10537:
 4056 17cd0 00000000 		.space	176
 4056      00000000 
 4056      00000000 
 4056      00000000 
 4056      00000000 
 4057              		.type	buf.10541, %object
 4058              		.size	buf.10541, 352
 4059              	buf.10541:
 4060 17d80 00000000 		.space	352
 4060      00000000 
 4060      00000000 
 4060      00000000 
 4060      00000000 
 4061              		.type	buf.10545, %object
ARM GAS  C:\Users\info\AppData\Local\Temp\ccfHjuLM.s 			page 93


 4062              		.size	buf.10545, 2288
 4063              	buf.10545:
 4064 17ee0 00000000 		.space	2288
 4064      00000000 
 4064      00000000 
 4064      00000000 
 4064      00000000 
 4065              		.type	buf.10549, %object
 4066              		.size	buf.10549, 192
 4067              	buf.10549:
 4068 187d0 00000000 		.space	192
 4068      00000000 
 4068      00000000 
 4068      00000000 
 4068      00000000 
 4069              		.type	buf.10553, %object
 4070              		.size	buf.10553, 384
 4071              	buf.10553:
 4072 18890 00000000 		.space	384
 4072      00000000 
 4072      00000000 
 4072      00000000 
 4072      00000000 
 4073              		.type	buf.10557, %object
 4074              		.size	buf.10557, 2304
 4075              	buf.10557:
 4076 18a10 00000000 		.space	2304
 4076      00000000 
 4076      00000000 
 4076      00000000 
 4076      00000000 
 4077              		.type	buf.10561, %object
 4078              		.size	buf.10561, 160
 4079              	buf.10561:
 4080 19310 00000000 		.space	160
 4080      00000000 
 4080      00000000 
 4080      00000000 
 4080      00000000 
 4081              		.type	buf.10565, %object
 4082              		.size	buf.10565, 320
 4083              	buf.10565:
 4084 193b0 00000000 		.space	320
 4084      00000000 
 4084      00000000 
 4084      00000000 
 4084      00000000 
 4085              		.type	buf.10569, %object
 4086              		.size	buf.10569, 1600
 4087              	buf.10569:
 4088 194f0 00000000 		.space	1600
 4088      00000000 
 4088      00000000 
 4088      00000000 
 4088      00000000 
 4089              		.type	buf.10573, %object
 4090              		.size	buf.10573, 176
ARM GAS  C:\Users\info\AppData\Local\Temp\ccfHjuLM.s 			page 94


 4091              	buf.10573:
 4092 19b30 00000000 		.space	176
 4092      00000000 
 4092      00000000 
 4092      00000000 
 4092      00000000 
 4093              		.type	buf.10577, %object
 4094              		.size	buf.10577, 352
 4095              	buf.10577:
 4096 19be0 00000000 		.space	352
 4096      00000000 
 4096      00000000 
 4096      00000000 
 4096      00000000 
 4097              		.type	buf.10581, %object
 4098              		.size	buf.10581, 1584
 4099              	buf.10581:
 4100 19d40 00000000 		.space	1584
 4100      00000000 
 4100      00000000 
 4100      00000000 
 4100      00000000 
 4101              		.type	buf.10585, %object
 4102              		.size	buf.10585, 200
 4103              	buf.10585:
 4104 1a370 00000000 		.space	200
 4104      00000000 
 4104      00000000 
 4104      00000000 
 4104      00000000 
 4105              		.type	buf.10589, %object
 4106              		.size	buf.10589, 400
 4107              	buf.10589:
 4108 1a438 00000000 		.space	400
 4108      00000000 
 4108      00000000 
 4108      00000000 
 4108      00000000 
 4109              		.type	buf.10593, %object
 4110              		.size	buf.10593, 5000
 4111              	buf.10593:
 4112 1a5c8 00000000 		.space	5000
 4112      00000000 
 4112      00000000 
 4112      00000000 
 4112      00000000 
 4113              		.type	buf.10597, %object
 4114              		.size	buf.10597, 296
 4115              	buf.10597:
 4116 1b950 00000000 		.space	296
 4116      00000000 
 4116      00000000 
 4116      00000000 
 4116      00000000 
 4117              		.type	buf.10601, %object
 4118              		.size	buf.10601, 592
 4119              	buf.10601:
ARM GAS  C:\Users\info\AppData\Local\Temp\ccfHjuLM.s 			page 95


 4120 1ba78 00000000 		.space	592
 4120      00000000 
 4120      00000000 
 4120      00000000 
 4120      00000000 
 4121              		.type	buf.10605, %object
 4122              		.size	buf.10605, 4736
 4123              	buf.10605:
 4124 1bcc8 00000000 		.space	4736
 4124      00000000 
 4124      00000000 
 4124      00000000 
 4124      00000000 
 4125              		.type	buf.10609, %object
 4126              		.size	buf.10609, 64
 4127              	buf.10609:
 4128 1cf48 00000000 		.space	64
 4128      00000000 
 4128      00000000 
 4128      00000000 
 4128      00000000 
 4129              		.type	buf.10613, %object
 4130              		.size	buf.10613, 128
 4131              	buf.10613:
 4132 1cf88 00000000 		.space	128
 4132      00000000 
 4132      00000000 
 4132      00000000 
 4132      00000000 
 4133              		.type	buf.10617, %object
 4134              		.size	buf.10617, 64
 4135              	buf.10617:
 4136 1d008 00000000 		.space	64
 4136      00000000 
 4136      00000000 
 4136      00000000 
 4136      00000000 
 4137              		.type	buf.10621, %object
 4138              		.size	buf.10621, 32
 4139              	buf.10621:
 4140 1d048 00000000 		.space	32
 4140      00000000 
 4140      00000000 
 4140      00000000 
 4140      00000000 
 4141              		.type	buf.10625, %object
 4142              		.size	buf.10625, 64
 4143              	buf.10625:
 4144 1d068 00000000 		.space	64
 4144      00000000 
 4144      00000000 
 4144      00000000 
 4144      00000000 
 4145              		.type	buf.10629, %object
 4146              		.size	buf.10629, 32
 4147              	buf.10629:
 4148 1d0a8 00000000 		.space	32
ARM GAS  C:\Users\info\AppData\Local\Temp\ccfHjuLM.s 			page 96


 4148      00000000 
 4148      00000000 
 4148      00000000 
 4148      00000000 
 4149              		.type	buf.10633, %object
 4150              		.size	buf.10633, 8
 4151              	buf.10633:
 4152 1d0c8 00000000 		.space	8
 4152      00000000 
 4153              		.type	buf.10637, %object
 4154              		.size	buf.10637, 16
 4155              	buf.10637:
 4156 1d0d0 00000000 		.space	16
 4156      00000000 
 4156      00000000 
 4156      00000000 
 4157              		.type	buf.10641, %object
 4158              		.size	buf.10641, 8
 4159              	buf.10641:
 4160 1d0e0 00000000 		.space	8
 4160      00000000 
 4161              		.type	buf.10645, %object
 4162              		.size	buf.10645, 384
 4163              	buf.10645:
 4164 1d0e8 00000000 		.space	384
 4164      00000000 
 4164      00000000 
 4164      00000000 
 4164      00000000 
 4165              		.type	buf.10649, %object
 4166              		.size	buf.10649, 768
 4167              	buf.10649:
 4168 1d268 00000000 		.space	768
 4168      00000000 
 4168      00000000 
 4168      00000000 
 4168      00000000 
 4169              		.type	buf.10653, %object
 4170              		.size	buf.10653, 11520
 4171              	buf.10653:
 4172 1d568 00000000 		.space	11520
 4172      00000000 
 4172      00000000 
 4172      00000000 
 4172      00000000 
 4173              		.text
 4174              	.Letext0:
 4175              		.file 2 "c:\\program files (x86)\\cypress\\psoc creator\\4.2\\psoc creator\\import\\gnu\\arm\\5.4.
 4176              		.file 3 "c:\\program files (x86)\\cypress\\psoc creator\\4.2\\psoc creator\\import\\gnu\\arm\\5.4.