ARM GAS  C:\Users\info\AppData\Local\Temp\ccfHjuLM.s 			page 1


   1              		.syntax unified
   2              		.cpu cortex-m3
   3              		.fpu softvfp
   4              		.eabi_attribute 20, 1
   5              		.eabi_attribute 21, 1
   6              		.eabi_attribute 23, 3
   7              		.eabi_attribute 24, 1
   8              		.eabi_attribute 25, 1
   9              		.eabi_attribute 26, 1
  10              		.eabi_attribute 30, 2
  11              		.eabi_attribute 34, 1
  12              		.eabi_attribute 18, 4
  13              		.thumb
  14              		.syntax unified
  15              		.file	"u8g2_d_memory.c"
  16              		.text
  17              	.Ltext0:
  18              		.cfi_sections	.debug_frame
  19              		.section	.text.u8g2_m_16_4_1,"ax",%progbits
  20              		.align	2
  21              		.global	u8g2_m_16_4_1
  22              		.thumb
  23              		.thumb_func
  24              		.type	u8g2_m_16_4_1, %function
  25              	u8g2_m_16_4_1:
  26              	.LFB0:
  27              		.file 1 "..\\u8g2-master\\csrc\\u8g2_d_memory.c"
   1:..\u8g2-master\csrc/u8g2_d_memory.c **** /* u8g2_d_memory.c */
   2:..\u8g2-master\csrc/u8g2_d_memory.c **** /* generated code, codebuild, u8g2 project */
   3:..\u8g2-master\csrc/u8g2_d_memory.c **** 
   4:..\u8g2-master\csrc/u8g2_d_memory.c **** #include "u8g2.h"
   5:..\u8g2-master\csrc/u8g2_d_memory.c **** 
   6:..\u8g2-master\csrc/u8g2_d_memory.c **** uint8_t *u8g2_m_16_4_1(uint8_t *page_cnt)
   7:..\u8g2-master\csrc/u8g2_d_memory.c **** {
  28              		.loc 1 7 0
  29              		.cfi_startproc
  30              		@ args = 0, pretend = 0, frame = 0
  31              		@ frame_needed = 0, uses_anonymous_args = 0
  32              		@ link register save eliminated.
  33              	.LVL0:
   8:..\u8g2-master\csrc/u8g2_d_memory.c ****   static uint8_t buf[128];
   9:..\u8g2-master\csrc/u8g2_d_memory.c ****   *page_cnt = 1;
  34              		.loc 1 9 0
  35 0000 0123     		movs	r3, #1
  36 0002 0370     		strb	r3, [r0]
  10:..\u8g2-master\csrc/u8g2_d_memory.c ****   return buf;
  11:..\u8g2-master\csrc/u8g2_d_memory.c **** }
  37              		.loc 1 11 0
  38 0004 0048     		ldr	r0, .L2
  39              	.LVL1:
  40 0006 7047     		bx	lr
  41              	.L3:
  42              		.align	2
  43              	.L2:
  44 0008 00000000 		.word	.LANCHOR0
  45              		.cfi_endproc
  46              	.LFE0:
ARM GAS  C:\Users\info\AppData\Local\Temp\ccfHjuLM.s 			page 2


  47              		.size	u8g2_m_16_4_1, .-u8g2_m_16_4_1
  48              		.section	.text.u8g2_m_16_4_2,"ax",%progbits
  49              		.align	2
  50              		.global	u8g2_m_16_4_2
  51              		.thumb
  52              		.thumb_func
  53              		.type	u8g2_m_16_4_2, %function
  54              	u8g2_m_16_4_2:
  55              	.LFB1:
  12:..\u8g2-master\csrc/u8g2_d_memory.c **** uint8_t *u8g2_m_16_4_2(uint8_t *page_cnt)
  13:..\u8g2-master\csrc/u8g2_d_memory.c **** {
  56              		.loc 1 13 0
  57              		.cfi_startproc
  58              		@ args = 0, pretend = 0, frame = 0
  59              		@ frame_needed = 0, uses_anonymous_args = 0
  60              		@ link register save eliminated.
  61              	.LVL2:
  14:..\u8g2-master\csrc/u8g2_d_memory.c ****   static uint8_t buf[256];
  15:..\u8g2-master\csrc/u8g2_d_memory.c ****   *page_cnt = 2;
  62              		.loc 1 15 0
  63 0000 0223     		movs	r3, #2
  64 0002 0370     		strb	r3, [r0]
  16:..\u8g2-master\csrc/u8g2_d_memory.c ****   return buf;
  17:..\u8g2-master\csrc/u8g2_d_memory.c **** }
  65              		.loc 1 17 0
  66 0004 0048     		ldr	r0, .L5
  67              	.LVL3:
  68 0006 7047     		bx	lr
  69              	.L6:
  70              		.align	2
  71              	.L5:
  72 0008 80000000 		.word	.LANCHOR0+128
  73              		.cfi_endproc
  74              	.LFE1:
  75              		.size	u8g2_m_16_4_2, .-u8g2_m_16_4_2
  76              		.section	.text.u8g2_m_16_4_f,"ax",%progbits
  77              		.align	2
  78              		.global	u8g2_m_16_4_f
  79              		.thumb
  80              		.thumb_func
  81              		.type	u8g2_m_16_4_f, %function
  82              	u8g2_m_16_4_f:
  83              	.LFB2:
  18:..\u8g2-master\csrc/u8g2_d_memory.c **** uint8_t *u8g2_m_16_4_f(uint8_t *page_cnt)
  19:..\u8g2-master\csrc/u8g2_d_memory.c **** {
  84              		.loc 1 19 0
  85              		.cfi_startproc
  86              		@ args = 0, pretend = 0, frame = 0
  87              		@ frame_needed = 0, uses_anonymous_args = 0
  88              		@ link register save eliminated.
  89              	.LVL4:
  20:..\u8g2-master\csrc/u8g2_d_memory.c ****   static uint8_t buf[512];
  21:..\u8g2-master\csrc/u8g2_d_memory.c ****   *page_cnt = 4;
  90              		.loc 1 21 0
  91 0000 0423     		movs	r3, #4
  92 0002 0370     		strb	r3, [r0]
  22:..\u8g2-master\csrc/u8g2_d_memory.c ****   return buf;
ARM GAS  C:\Users\info\AppData\Local\Temp\ccfHjuLM.s 			page 3


  23:..\u8g2-master\csrc/u8g2_d_memory.c **** }
  93              		.loc 1 23 0
  94 0004 0048     		ldr	r0, .L8
  95              	.LVL5:
  96 0006 7047     		bx	lr
  97              	.L9:
  98              		.align	2
  99              	.L8:
 100 0008 80010000 		.word	.LANCHOR0+384
 101              		.cfi_endproc
 102              	.LFE2:
 103              		.size	u8g2_m_16_4_f, .-u8g2_m_16_4_f
 104              		.section	.text.u8g2_m_16_8_1,"ax",%progbits
 105              		.align	2
 106              		.global	u8g2_m_16_8_1
 107              		.thumb
 108              		.thumb_func
 109              		.type	u8g2_m_16_8_1, %function
 110              	u8g2_m_16_8_1:
 111              	.LFB3:
  24:..\u8g2-master\csrc/u8g2_d_memory.c **** uint8_t *u8g2_m_16_8_1(uint8_t *page_cnt)
  25:..\u8g2-master\csrc/u8g2_d_memory.c **** {
 112              		.loc 1 25 0
 113              		.cfi_startproc
 114              		@ args = 0, pretend = 0, frame = 0
 115              		@ frame_needed = 0, uses_anonymous_args = 0
 116              		@ link register save eliminated.
 117              	.LVL6:
  26:..\u8g2-master\csrc/u8g2_d_memory.c ****   static uint8_t buf[128];
  27:..\u8g2-master\csrc/u8g2_d_memory.c ****   *page_cnt = 1;
 118              		.loc 1 27 0
 119 0000 0123     		movs	r3, #1
 120 0002 0370     		strb	r3, [r0]
  28:..\u8g2-master\csrc/u8g2_d_memory.c ****   return buf;
  29:..\u8g2-master\csrc/u8g2_d_memory.c **** }
 121              		.loc 1 29 0
 122 0004 0048     		ldr	r0, .L11
 123              	.LVL7:
 124 0006 7047     		bx	lr
 125              	.L12:
 126              		.align	2
 127              	.L11:
 128 0008 80030000 		.word	.LANCHOR0+896
 129              		.cfi_endproc
 130              	.LFE3:
 131              		.size	u8g2_m_16_8_1, .-u8g2_m_16_8_1
 132              		.section	.text.u8g2_m_16_8_2,"ax",%progbits
 133              		.align	2
 134              		.global	u8g2_m_16_8_2
 135              		.thumb
 136              		.thumb_func
 137              		.type	u8g2_m_16_8_2, %function
 138              	u8g2_m_16_8_2:
 139              	.LFB4:
  30:..\u8g2-master\csrc/u8g2_d_memory.c **** uint8_t *u8g2_m_16_8_2(uint8_t *page_cnt)
  31:..\u8g2-master\csrc/u8g2_d_memory.c **** {
 140              		.loc 1 31 0
ARM GAS  C:\Users\info\AppData\Local\Temp\ccfHjuLM.s 			page 4


 141              		.cfi_startproc
 142              		@ args = 0, pretend = 0, frame = 0
 143              		@ frame_needed = 0, uses_anonymous_args = 0
 144              		@ link register save eliminated.
 145              	.LVL8:
  32:..\u8g2-master\csrc/u8g2_d_memory.c ****   static uint8_t buf[256];
  33:..\u8g2-master\csrc/u8g2_d_memory.c ****   *page_cnt = 2;
 146              		.loc 1 33 0
 147 0000 0223     		movs	r3, #2
 148 0002 0370     		strb	r3, [r0]
  34:..\u8g2-master\csrc/u8g2_d_memory.c ****   return buf;
  35:..\u8g2-master\csrc/u8g2_d_memory.c **** }
 149              		.loc 1 35 0
 150 0004 0048     		ldr	r0, .L14
 151              	.LVL9:
 152 0006 7047     		bx	lr
 153              	.L15:
 154              		.align	2
 155              	.L14:
 156 0008 00040000 		.word	.LANCHOR0+1024
 157              		.cfi_endproc
 158              	.LFE4:
 159              		.size	u8g2_m_16_8_2, .-u8g2_m_16_8_2
 160              		.section	.text.u8g2_m_16_8_f,"ax",%progbits
 161              		.align	2
 162              		.global	u8g2_m_16_8_f
 163              		.thumb
 164              		.thumb_func
 165              		.type	u8g2_m_16_8_f, %function
 166              	u8g2_m_16_8_f:
 167              	.LFB5:
  36:..\u8g2-master\csrc/u8g2_d_memory.c **** uint8_t *u8g2_m_16_8_f(uint8_t *page_cnt)
  37:..\u8g2-master\csrc/u8g2_d_memory.c **** {
 168              		.loc 1 37 0
 169              		.cfi_startproc
 170              		@ args = 0, pretend = 0, frame = 0
 171              		@ frame_needed = 0, uses_anonymous_args = 0
 172              		@ link register save eliminated.
 173              	.LVL10:
  38:..\u8g2-master\csrc/u8g2_d_memory.c ****   static uint8_t buf[1024];
  39:..\u8g2-master\csrc/u8g2_d_memory.c ****   *page_cnt = 8;
 174              		.loc 1 39 0
 175 0000 0823     		movs	r3, #8
 176 0002 0370     		strb	r3, [r0]
  40:..\u8g2-master\csrc/u8g2_d_memory.c ****   return buf;
  41:..\u8g2-master\csrc/u8g2_d_memory.c **** }
 177              		.loc 1 41 0
 178 0004 0048     		ldr	r0, .L17
 179              	.LVL11:
 180 0006 7047     		bx	lr
 181              	.L18:
 182              		.align	2
 183              	.L17:
 184 0008 00050000 		.word	.LANCHOR0+1280
 185              		.cfi_endproc
 186              	.LFE5:
 187              		.size	u8g2_m_16_8_f, .-u8g2_m_16_8_f
ARM GAS  C:\Users\info\AppData\Local\Temp\ccfHjuLM.s 			page 5


 188              		.section	.text.u8g2_m_9_5_1,"ax",%progbits
 189              		.align	2
 190              		.global	u8g2_m_9_5_1
 191              		.thumb
 192              		.thumb_func
 193              		.type	u8g2_m_9_5_1, %function
 194              	u8g2_m_9_5_1:
 195              	.LFB6:
  42:..\u8g2-master\csrc/u8g2_d_memory.c **** uint8_t *u8g2_m_9_5_1(uint8_t *page_cnt)
  43:..\u8g2-master\csrc/u8g2_d_memory.c **** {
 196              		.loc 1 43 0
 197              		.cfi_startproc
 198              		@ args = 0, pretend = 0, frame = 0
 199              		@ frame_needed = 0, uses_anonymous_args = 0
 200              		@ link register save eliminated.
 201              	.LVL12:
  44:..\u8g2-master\csrc/u8g2_d_memory.c ****   static uint8_t buf[72];
  45:..\u8g2-master\csrc/u8g2_d_memory.c ****   *page_cnt = 1;
 202              		.loc 1 45 0
 203 0000 0123     		movs	r3, #1
 204 0002 0370     		strb	r3, [r0]
  46:..\u8g2-master\csrc/u8g2_d_memory.c ****   return buf;
  47:..\u8g2-master\csrc/u8g2_d_memory.c **** }
 205              		.loc 1 47 0
 206 0004 0048     		ldr	r0, .L20
 207              	.LVL13:
 208 0006 7047     		bx	lr
 209              	.L21:
 210              		.align	2
 211              	.L20:
 212 0008 00090000 		.word	.LANCHOR0+2304
 213              		.cfi_endproc
 214              	.LFE6:
 215              		.size	u8g2_m_9_5_1, .-u8g2_m_9_5_1
 216              		.section	.text.u8g2_m_9_5_2,"ax",%progbits
 217              		.align	2
 218              		.global	u8g2_m_9_5_2
 219              		.thumb
 220              		.thumb_func
 221              		.type	u8g2_m_9_5_2, %function
 222              	u8g2_m_9_5_2:
 223              	.LFB7:
  48:..\u8g2-master\csrc/u8g2_d_memory.c **** uint8_t *u8g2_m_9_5_2(uint8_t *page_cnt)
  49:..\u8g2-master\csrc/u8g2_d_memory.c **** {
 224              		.loc 1 49 0
 225              		.cfi_startproc
 226              		@ args = 0, pretend = 0, frame = 0
 227              		@ frame_needed = 0, uses_anonymous_args = 0
 228              		@ link register save eliminated.
 229              	.LVL14:
  50:..\u8g2-master\csrc/u8g2_d_memory.c ****   static uint8_t buf[144];
  51:..\u8g2-master\csrc/u8g2_d_memory.c ****   *page_cnt = 2;
 230              		.loc 1 51 0
 231 0000 0223     		movs	r3, #2
 232 0002 0370     		strb	r3, [r0]
  52:..\u8g2-master\csrc/u8g2_d_memory.c ****   return buf;
  53:..\u8g2-master\csrc/u8g2_d_memory.c **** }
ARM GAS  C:\Users\info\AppData\Local\Temp\ccfHjuLM.s 			page 6


 233              		.loc 1 53 0
 234 0004 0048     		ldr	r0, .L23
 235              	.LVL15:
 236 0006 7047     		bx	lr
 237              	.L24:
 238              		.align	2
 239              	.L23:
 240 0008 48090000 		.word	.LANCHOR0+2376
 241              		.cfi_endproc
 242              	.LFE7:
 243              		.size	u8g2_m_9_5_2, .-u8g2_m_9_5_2
 244              		.section	.text.u8g2_m_9_5_f,"ax",%progbits
 245              		.align	2
 246              		.global	u8g2_m_9_5_f
 247              		.thumb
 248              		.thumb_func
 249              		.type	u8g2_m_9_5_f, %function
 250              	u8g2_m_9_5_f:
 251              	.LFB8:
  54:..\u8g2-master\csrc/u8g2_d_memory.c **** uint8_t *u8g2_m_9_5_f(uint8_t *page_cnt)
  55:..\u8g2-master\csrc/u8g2_d_memory.c **** {
 252              		.loc 1 55 0
 253              		.cfi_startproc
 254              		@ args = 0, pretend = 0, frame = 0
 255              		@ frame_needed = 0, uses_anonymous_args = 0
 256              		@ link register save eliminated.
 257              	.LVL16:
  56:..\u8g2-master\csrc/u8g2_d_memory.c ****   static uint8_t buf[360];
  57:..\u8g2-master\csrc/u8g2_d_memory.c ****   *page_cnt = 5;
 258              		.loc 1 57 0
 259 0000 0523     		movs	r3, #5
 260 0002 0370     		strb	r3, [r0]
  58:..\u8g2-master\csrc/u8g2_d_memory.c ****   return buf;
  59:..\u8g2-master\csrc/u8g2_d_memory.c **** }
 261              		.loc 1 59 0
 262 0004 0048     		ldr	r0, .L26
 263              	.LVL17:
 264 0006 7047     		bx	lr
 265              	.L27:
 266              		.align	2
 267              	.L26:
 268 0008 D8090000 		.word	.LANCHOR0+2520
 269              		.cfi_endproc
 270              	.LFE8:
 271              		.size	u8g2_m_9_5_f, .-u8g2_m_9_5_f
 272              		.section	.text.u8g2_m_8_4_1,"ax",%progbits
 273              		.align	2
 274              		.global	u8g2_m_8_4_1
 275              		.thumb
 276              		.thumb_func
 277              		.type	u8g2_m_8_4_1, %function
 278              	u8g2_m_8_4_1:
 279              	.LFB9:
  60:..\u8g2-master\csrc/u8g2_d_memory.c **** uint8_t *u8g2_m_8_4_1(uint8_t *page_cnt)
  61:..\u8g2-master\csrc/u8g2_d_memory.c **** {
 280              		.loc 1 61 0
 281              		.cfi_startproc
ARM GAS  C:\Users\info\AppData\Local\Temp\ccfHjuLM.s 			page 7


 282              		@ args = 0, pretend = 0, frame = 0
 283              		@ frame_needed = 0, uses_anonymous_args = 0
 284              		@ link register save eliminated.
 285              	.LVL18:
  62:..\u8g2-master\csrc/u8g2_d_memory.c ****   static uint8_t buf[64];
  63:..\u8g2-master\csrc/u8g2_d_memory.c ****   *page_cnt = 1;
 286              		.loc 1 63 0
 287 0000 0123     		movs	r3, #1
 288 0002 0370     		strb	r3, [r0]
  64:..\u8g2-master\csrc/u8g2_d_memory.c ****   return buf;
  65:..\u8g2-master\csrc/u8g2_d_memory.c **** }
 289              		.loc 1 65 0
 290 0004 0048     		ldr	r0, .L29
 291              	.LVL19:
 292 0006 7047     		bx	lr
 293              	.L30:
 294              		.align	2
 295              	.L29:
 296 0008 400B0000 		.word	.LANCHOR0+2880
 297              		.cfi_endproc
 298              	.LFE9:
 299              		.size	u8g2_m_8_4_1, .-u8g2_m_8_4_1
 300              		.section	.text.u8g2_m_8_4_2,"ax",%progbits
 301              		.align	2
 302              		.global	u8g2_m_8_4_2
 303              		.thumb
 304              		.thumb_func
 305              		.type	u8g2_m_8_4_2, %function
 306              	u8g2_m_8_4_2:
 307              	.LFB10:
  66:..\u8g2-master\csrc/u8g2_d_memory.c **** uint8_t *u8g2_m_8_4_2(uint8_t *page_cnt)
  67:..\u8g2-master\csrc/u8g2_d_memory.c **** {
 308              		.loc 1 67 0
 309              		.cfi_startproc
 310              		@ args = 0, pretend = 0, frame = 0
 311              		@ frame_needed = 0, uses_anonymous_args = 0
 312              		@ link register save eliminated.
 313              	.LVL20:
  68:..\u8g2-master\csrc/u8g2_d_memory.c ****   static uint8_t buf[128];
  69:..\u8g2-master\csrc/u8g2_d_memory.c ****   *page_cnt = 2;
 314              		.loc 1 69 0
 315 0000 0223     		movs	r3, #2
 316 0002 0370     		strb	r3, [r0]
  70:..\u8g2-master\csrc/u8g2_d_memory.c ****   return buf;
  71:..\u8g2-master\csrc/u8g2_d_memory.c **** }
 317              		.loc 1 71 0
 318 0004 0048     		ldr	r0, .L32
 319              	.LVL21:
 320 0006 7047     		bx	lr
 321              	.L33:
 322              		.align	2
 323              	.L32:
 324 0008 800B0000 		.word	.LANCHOR0+2944
 325              		.cfi_endproc
 326              	.LFE10:
 327              		.size	u8g2_m_8_4_2, .-u8g2_m_8_4_2
 328              		.section	.text.u8g2_m_8_4_f,"ax",%progbits
ARM GAS  C:\Users\info\AppData\Local\Temp\ccfHjuLM.s 			page 8


 329              		.align	2
 330              		.global	u8g2_m_8_4_f
 331              		.thumb
 332              		.thumb_func
 333              		.type	u8g2_m_8_4_f, %function
 334              	u8g2_m_8_4_f:
 335              	.LFB11:
  72:..\u8g2-master\csrc/u8g2_d_memory.c **** uint8_t *u8g2_m_8_4_f(uint8_t *page_cnt)
  73:..\u8g2-master\csrc/u8g2_d_memory.c **** {
 336              		.loc 1 73 0
 337              		.cfi_startproc
 338              		@ args = 0, pretend = 0, frame = 0
 339              		@ frame_needed = 0, uses_anonymous_args = 0
 340              		@ link register save eliminated.
 341              	.LVL22:
  74:..\u8g2-master\csrc/u8g2_d_memory.c ****   static uint8_t buf[256];
  75:..\u8g2-master\csrc/u8g2_d_memory.c ****   *page_cnt = 4;
 342              		.loc 1 75 0
 343 0000 0423     		movs	r3, #4
 344 0002 0370     		strb	r3, [r0]
  76:..\u8g2-master\csrc/u8g2_d_memory.c ****   return buf;
  77:..\u8g2-master\csrc/u8g2_d_memory.c **** }
 345              		.loc 1 77 0
 346 0004 0048     		ldr	r0, .L35
 347              	.LVL23:
 348 0006 7047     		bx	lr
 349              	.L36:
 350              		.align	2
 351              	.L35:
 352 0008 000C0000 		.word	.LANCHOR0+3072
 353              		.cfi_endproc
 354              	.LFE11:
 355              		.size	u8g2_m_8_4_f, .-u8g2_m_8_4_f
 356              		.section	.text.u8g2_m_8_16_1,"ax",%progbits
 357              		.align	2
 358              		.global	u8g2_m_8_16_1
 359              		.thumb
 360              		.thumb_func
 361              		.type	u8g2_m_8_16_1, %function
 362              	u8g2_m_8_16_1:
 363              	.LFB12:
  78:..\u8g2-master\csrc/u8g2_d_memory.c **** uint8_t *u8g2_m_8_16_1(uint8_t *page_cnt)
  79:..\u8g2-master\csrc/u8g2_d_memory.c **** {
 364              		.loc 1 79 0
 365              		.cfi_startproc
 366              		@ args = 0, pretend = 0, frame = 0
 367              		@ frame_needed = 0, uses_anonymous_args = 0
 368              		@ link register save eliminated.
 369              	.LVL24:
  80:..\u8g2-master\csrc/u8g2_d_memory.c ****   static uint8_t buf[64];
  81:..\u8g2-master\csrc/u8g2_d_memory.c ****   *page_cnt = 1;
 370              		.loc 1 81 0
 371 0000 0123     		movs	r3, #1
 372 0002 0370     		strb	r3, [r0]
  82:..\u8g2-master\csrc/u8g2_d_memory.c ****   return buf;
  83:..\u8g2-master\csrc/u8g2_d_memory.c **** }
 373              		.loc 1 83 0
ARM GAS  C:\Users\info\AppData\Local\Temp\ccfHjuLM.s 			page 9


 374 0004 0048     		ldr	r0, .L38
 375              	.LVL25:
 376 0006 7047     		bx	lr
 377              	.L39:
 378              		.align	2
 379              	.L38:
 380 0008 000D0000 		.word	.LANCHOR0+3328
 381              		.cfi_endproc
 382              	.LFE12:
 383              		.size	u8g2_m_8_16_1, .-u8g2_m_8_16_1
 384              		.section	.text.u8g2_m_8_16_2,"ax",%progbits
 385              		.align	2
 386              		.global	u8g2_m_8_16_2
 387              		.thumb
 388              		.thumb_func
 389              		.type	u8g2_m_8_16_2, %function
 390              	u8g2_m_8_16_2:
 391              	.LFB13:
  84:..\u8g2-master\csrc/u8g2_d_memory.c **** uint8_t *u8g2_m_8_16_2(uint8_t *page_cnt)
  85:..\u8g2-master\csrc/u8g2_d_memory.c **** {
 392              		.loc 1 85 0
 393              		.cfi_startproc
 394              		@ args = 0, pretend = 0, frame = 0
 395              		@ frame_needed = 0, uses_anonymous_args = 0
 396              		@ link register save eliminated.
 397              	.LVL26:
  86:..\u8g2-master\csrc/u8g2_d_memory.c ****   static uint8_t buf[128];
  87:..\u8g2-master\csrc/u8g2_d_memory.c ****   *page_cnt = 2;
 398              		.loc 1 87 0
 399 0000 0223     		movs	r3, #2
 400 0002 0370     		strb	r3, [r0]
  88:..\u8g2-master\csrc/u8g2_d_memory.c ****   return buf;
  89:..\u8g2-master\csrc/u8g2_d_memory.c **** }
 401              		.loc 1 89 0
 402 0004 0048     		ldr	r0, .L41
 403              	.LVL27:
 404 0006 7047     		bx	lr
 405              	.L42:
 406              		.align	2
 407              	.L41:
 408 0008 400D0000 		.word	.LANCHOR0+3392
 409              		.cfi_endproc
 410              	.LFE13:
 411              		.size	u8g2_m_8_16_2, .-u8g2_m_8_16_2
 412              		.section	.text.u8g2_m_8_16_f,"ax",%progbits
 413              		.align	2
 414              		.global	u8g2_m_8_16_f
 415              		.thumb
 416              		.thumb_func
 417              		.type	u8g2_m_8_16_f, %function
 418              	u8g2_m_8_16_f:
 419              	.LFB14:
  90:..\u8g2-master\csrc/u8g2_d_memory.c **** uint8_t *u8g2_m_8_16_f(uint8_t *page_cnt)
  91:..\u8g2-master\csrc/u8g2_d_memory.c **** {
 420              		.loc 1 91 0
 421              		.cfi_startproc
 422              		@ args = 0, pretend = 0, frame = 0
ARM GAS  C:\Users\info\AppData\Local\Temp\ccfHjuLM.s 			page 10


 423              		@ frame_needed = 0, uses_anonymous_args = 0
 424              		@ link register save eliminated.
 425              	.LVL28:
  92:..\u8g2-master\csrc/u8g2_d_memory.c ****   static uint8_t buf[1024];
  93:..\u8g2-master\csrc/u8g2_d_memory.c ****   *page_cnt = 16;
 426              		.loc 1 93 0
 427 0000 1023     		movs	r3, #16
 428 0002 0370     		strb	r3, [r0]
  94:..\u8g2-master\csrc/u8g2_d_memory.c ****   return buf;
  95:..\u8g2-master\csrc/u8g2_d_memory.c **** }
 429              		.loc 1 95 0
 430 0004 0048     		ldr	r0, .L44
 431              	.LVL29:
 432 0006 7047     		bx	lr
 433              	.L45:
 434              		.align	2
 435              	.L44:
 436 0008 C00D0000 		.word	.LANCHOR0+3520
 437              		.cfi_endproc
 438              	.LFE14:
 439              		.size	u8g2_m_8_16_f, .-u8g2_m_8_16_f
 440              		.section	.text.u8g2_m_12_12_1,"ax",%progbits
 441              		.align	2
 442              		.global	u8g2_m_12_12_1
 443              		.thumb
 444              		.thumb_func
 445              		.type	u8g2_m_12_12_1, %function
 446              	u8g2_m_12_12_1:
 447              	.LFB15:
  96:..\u8g2-master\csrc/u8g2_d_memory.c **** uint8_t *u8g2_m_12_12_1(uint8_t *page_cnt)
  97:..\u8g2-master\csrc/u8g2_d_memory.c **** {
 448              		.loc 1 97 0
 449              		.cfi_startproc
 450              		@ args = 0, pretend = 0, frame = 0
 451              		@ frame_needed = 0, uses_anonymous_args = 0
 452              		@ link register save eliminated.
 453              	.LVL30:
  98:..\u8g2-master\csrc/u8g2_d_memory.c ****   static uint8_t buf[96];
  99:..\u8g2-master\csrc/u8g2_d_memory.c ****   *page_cnt = 1;
 454              		.loc 1 99 0
 455 0000 0123     		movs	r3, #1
 456 0002 0370     		strb	r3, [r0]
 100:..\u8g2-master\csrc/u8g2_d_memory.c ****   return buf;
 101:..\u8g2-master\csrc/u8g2_d_memory.c **** }
 457              		.loc 1 101 0
 458 0004 0048     		ldr	r0, .L47
 459              	.LVL31:
 460 0006 7047     		bx	lr
 461              	.L48:
 462              		.align	2
 463              	.L47:
 464 0008 C0110000 		.word	.LANCHOR1+200
 465              		.cfi_endproc
 466              	.LFE15:
 467              		.size	u8g2_m_12_12_1, .-u8g2_m_12_12_1
 468              		.section	.text.u8g2_m_12_12_2,"ax",%progbits
 469              		.align	2
ARM GAS  C:\Users\info\AppData\Local\Temp\ccfHjuLM.s 			page 11


 470              		.global	u8g2_m_12_12_2
 471              		.thumb
 472              		.thumb_func
 473              		.type	u8g2_m_12_12_2, %function
 474              	u8g2_m_12_12_2:
 475              	.LFB16:
 102:..\u8g2-master\csrc/u8g2_d_memory.c **** uint8_t *u8g2_m_12_12_2(uint8_t *page_cnt)
 103:..\u8g2-master\csrc/u8g2_d_memory.c **** {
 476              		.loc 1 103 0
 477              		.cfi_startproc
 478              		@ args = 0, pretend = 0, frame = 0
 479              		@ frame_needed = 0, uses_anonymous_args = 0
 480              		@ link register save eliminated.
 481              	.LVL32:
 104:..\u8g2-master\csrc/u8g2_d_memory.c ****   static uint8_t buf[192];
 105:..\u8g2-master\csrc/u8g2_d_memory.c ****   *page_cnt = 2;
 482              		.loc 1 105 0
 483 0000 0223     		movs	r3, #2
 484 0002 0370     		strb	r3, [r0]
 106:..\u8g2-master\csrc/u8g2_d_memory.c ****   return buf;
 107:..\u8g2-master\csrc/u8g2_d_memory.c **** }
 485              		.loc 1 107 0
 486 0004 0048     		ldr	r0, .L50
 487              	.LVL33:
 488 0006 7047     		bx	lr
 489              	.L51:
 490              		.align	2
 491              	.L50:
 492 0008 20120000 		.word	.LANCHOR1+296
 493              		.cfi_endproc
 494              	.LFE16:
 495              		.size	u8g2_m_12_12_2, .-u8g2_m_12_12_2
 496              		.section	.text.u8g2_m_12_12_f,"ax",%progbits
 497              		.align	2
 498              		.global	u8g2_m_12_12_f
 499              		.thumb
 500              		.thumb_func
 501              		.type	u8g2_m_12_12_f, %function
 502              	u8g2_m_12_12_f:
 503              	.LFB17:
 108:..\u8g2-master\csrc/u8g2_d_memory.c **** uint8_t *u8g2_m_12_12_f(uint8_t *page_cnt)
 109:..\u8g2-master\csrc/u8g2_d_memory.c **** {
 504              		.loc 1 109 0
 505              		.cfi_startproc
 506              		@ args = 0, pretend = 0, frame = 0
 507              		@ frame_needed = 0, uses_anonymous_args = 0
 508              		@ link register save eliminated.
 509              	.LVL34:
 110:..\u8g2-master\csrc/u8g2_d_memory.c ****   static uint8_t buf[1152];
 111:..\u8g2-master\csrc/u8g2_d_memory.c ****   *page_cnt = 12;
 510              		.loc 1 111 0
 511 0000 0C23     		movs	r3, #12
 512 0002 0370     		strb	r3, [r0]
 112:..\u8g2-master\csrc/u8g2_d_memory.c ****   return buf;
 113:..\u8g2-master\csrc/u8g2_d_memory.c **** }
 513              		.loc 1 113 0
 514 0004 0048     		ldr	r0, .L53
ARM GAS  C:\Users\info\AppData\Local\Temp\ccfHjuLM.s 			page 12


 515              	.LVL35:
 516 0006 7047     		bx	lr
 517              	.L54:
 518              		.align	2
 519              	.L53:
 520 0008 E0120000 		.word	.LANCHOR1+488
 521              		.cfi_endproc
 522              	.LFE17:
 523              		.size	u8g2_m_12_12_f, .-u8g2_m_12_12_f
 524              		.section	.text.u8g2_m_16_16_1,"ax",%progbits
 525              		.align	2
 526              		.global	u8g2_m_16_16_1
 527              		.thumb
 528              		.thumb_func
 529              		.type	u8g2_m_16_16_1, %function
 530              	u8g2_m_16_16_1:
 531              	.LFB18:
 114:..\u8g2-master\csrc/u8g2_d_memory.c **** uint8_t *u8g2_m_16_16_1(uint8_t *page_cnt)
 115:..\u8g2-master\csrc/u8g2_d_memory.c **** {
 532              		.loc 1 115 0
 533              		.cfi_startproc
 534              		@ args = 0, pretend = 0, frame = 0
 535              		@ frame_needed = 0, uses_anonymous_args = 0
 536              		@ link register save eliminated.
 537              	.LVL36:
 116:..\u8g2-master\csrc/u8g2_d_memory.c ****   static uint8_t buf[128];
 117:..\u8g2-master\csrc/u8g2_d_memory.c ****   *page_cnt = 1;
 538              		.loc 1 117 0
 539 0000 0123     		movs	r3, #1
 540 0002 0370     		strb	r3, [r0]
 118:..\u8g2-master\csrc/u8g2_d_memory.c ****   return buf;
 119:..\u8g2-master\csrc/u8g2_d_memory.c **** }
 541              		.loc 1 119 0
 542 0004 0048     		ldr	r0, .L56
 543              	.LVL37:
 544 0006 7047     		bx	lr
 545              	.L57:
 546              		.align	2
 547              	.L56:
 548 0008 60170000 		.word	.LANCHOR1+1640
 549              		.cfi_endproc
 550              	.LFE18:
 551              		.size	u8g2_m_16_16_1, .-u8g2_m_16_16_1
 552              		.section	.text.u8g2_m_16_16_2,"ax",%progbits
 553              		.align	2
 554              		.global	u8g2_m_16_16_2
 555              		.thumb
 556              		.thumb_func
 557              		.type	u8g2_m_16_16_2, %function
 558              	u8g2_m_16_16_2:
 559              	.LFB19:
 120:..\u8g2-master\csrc/u8g2_d_memory.c **** uint8_t *u8g2_m_16_16_2(uint8_t *page_cnt)
 121:..\u8g2-master\csrc/u8g2_d_memory.c **** {
 560              		.loc 1 121 0
 561              		.cfi_startproc
 562              		@ args = 0, pretend = 0, frame = 0
 563              		@ frame_needed = 0, uses_anonymous_args = 0
ARM GAS  C:\Users\info\AppData\Local\Temp\ccfHjuLM.s 			page 13


 564              		@ link register save eliminated.
 565              	.LVL38:
 122:..\u8g2-master\csrc/u8g2_d_memory.c ****   static uint8_t buf[256];
 123:..\u8g2-master\csrc/u8g2_d_memory.c ****   *page_cnt = 2;
 566              		.loc 1 123 0
 567 0000 0223     		movs	r3, #2
 568 0002 0370     		strb	r3, [r0]
 124:..\u8g2-master\csrc/u8g2_d_memory.c ****   return buf;
 125:..\u8g2-master\csrc/u8g2_d_memory.c **** }
 569              		.loc 1 125 0
 570 0004 0048     		ldr	r0, .L59
 571              	.LVL39:
 572 0006 7047     		bx	lr
 573              	.L60:
 574              		.align	2
 575              	.L59:
 576 0008 E0170000 		.word	.LANCHOR1+1768
 577              		.cfi_endproc
 578              	.LFE19:
 579              		.size	u8g2_m_16_16_2, .-u8g2_m_16_16_2
 580              		.section	.text.u8g2_m_16_16_f,"ax",%progbits
 581              		.align	2
 582              		.global	u8g2_m_16_16_f
 583              		.thumb
 584              		.thumb_func
 585              		.type	u8g2_m_16_16_f, %function
 586              	u8g2_m_16_16_f:
 587              	.LFB20:
 126:..\u8g2-master\csrc/u8g2_d_memory.c **** uint8_t *u8g2_m_16_16_f(uint8_t *page_cnt)
 127:..\u8g2-master\csrc/u8g2_d_memory.c **** {
 588              		.loc 1 127 0
 589              		.cfi_startproc
 590              		@ args = 0, pretend = 0, frame = 0
 591              		@ frame_needed = 0, uses_anonymous_args = 0
 592              		@ link register save eliminated.
 593              	.LVL40:
 128:..\u8g2-master\csrc/u8g2_d_memory.c ****   static uint8_t buf[2048];
 129:..\u8g2-master\csrc/u8g2_d_memory.c ****   *page_cnt = 16;
 594              		.loc 1 129 0
 595 0000 1023     		movs	r3, #16
 596 0002 0370     		strb	r3, [r0]
 130:..\u8g2-master\csrc/u8g2_d_memory.c ****   return buf;
 131:..\u8g2-master\csrc/u8g2_d_memory.c **** }
 597              		.loc 1 131 0
 598 0004 0048     		ldr	r0, .L62
 599              	.LVL41:
 600 0006 7047     		bx	lr
 601              	.L63:
 602              		.align	2
 603              	.L62:
 604 0008 E0180000 		.word	.LANCHOR1+2024
 605              		.cfi_endproc
 606              	.LFE20:
 607              		.size	u8g2_m_16_16_f, .-u8g2_m_16_16_f
 608              		.section	.text.u8g2_m_20_20_1,"ax",%progbits
 609              		.align	2
 610              		.global	u8g2_m_20_20_1
ARM GAS  C:\Users\info\AppData\Local\Temp\ccfHjuLM.s 			page 14


 611              		.thumb
 612              		.thumb_func
 613              		.type	u8g2_m_20_20_1, %function
 614              	u8g2_m_20_20_1:
 615              	.LFB21:
 132:..\u8g2-master\csrc/u8g2_d_memory.c **** uint8_t *u8g2_m_20_20_1(uint8_t *page_cnt)
 133:..\u8g2-master\csrc/u8g2_d_memory.c **** {
 616              		.loc 1 133 0
 617              		.cfi_startproc
 618              		@ args = 0, pretend = 0, frame = 0
 619              		@ frame_needed = 0, uses_anonymous_args = 0
 620              		@ link register save eliminated.
 621              	.LVL42:
 134:..\u8g2-master\csrc/u8g2_d_memory.c ****   static uint8_t buf[160];
 135:..\u8g2-master\csrc/u8g2_d_memory.c ****   *page_cnt = 1;
 622              		.loc 1 135 0
 623 0000 0123     		movs	r3, #1
 624 0002 0370     		strb	r3, [r0]
 136:..\u8g2-master\csrc/u8g2_d_memory.c ****   return buf;
 137:..\u8g2-master\csrc/u8g2_d_memory.c **** }
 625              		.loc 1 137 0
 626 0004 0048     		ldr	r0, .L65
 627              	.LVL43:
 628 0006 7047     		bx	lr
 629              	.L66:
 630              		.align	2
 631              	.L65:
 632 0008 E0200000 		.word	.LANCHOR1+4072
 633              		.cfi_endproc
 634              	.LFE21:
 635              		.size	u8g2_m_20_20_1, .-u8g2_m_20_20_1
 636              		.section	.text.u8g2_m_20_20_2,"ax",%progbits
 637              		.align	2
 638              		.global	u8g2_m_20_20_2
 639              		.thumb
 640              		.thumb_func
 641              		.type	u8g2_m_20_20_2, %function
 642              	u8g2_m_20_20_2:
 643              	.LFB22:
 138:..\u8g2-master\csrc/u8g2_d_memory.c **** uint8_t *u8g2_m_20_20_2(uint8_t *page_cnt)
 139:..\u8g2-master\csrc/u8g2_d_memory.c **** {
 644              		.loc 1 139 0
 645              		.cfi_startproc
 646              		@ args = 0, pretend = 0, frame = 0
 647              		@ frame_needed = 0, uses_anonymous_args = 0
 648              		@ link register save eliminated.
 649              	.LVL44:
 140:..\u8g2-master\csrc/u8g2_d_memory.c ****   static uint8_t buf[320];
 141:..\u8g2-master\csrc/u8g2_d_memory.c ****   *page_cnt = 2;
 650              		.loc 1 141 0
 651 0000 0223     		movs	r3, #2
 652 0002 0370     		strb	r3, [r0]
 142:..\u8g2-master\csrc/u8g2_d_memory.c ****   return buf;
 143:..\u8g2-master\csrc/u8g2_d_memory.c **** }
 653              		.loc 1 143 0
 654 0004 0048     		ldr	r0, .L68
 655              	.LVL45:
ARM GAS  C:\Users\info\AppData\Local\Temp\ccfHjuLM.s 			page 15


 656 0006 7047     		bx	lr
 657              	.L69:
 658              		.align	2
 659              	.L68:
 660 0008 80210000 		.word	.LANCHOR2-112
 661              		.cfi_endproc
 662              	.LFE22:
 663              		.size	u8g2_m_20_20_2, .-u8g2_m_20_20_2
 664              		.section	.text.u8g2_m_20_20_f,"ax",%progbits
 665              		.align	2
 666              		.global	u8g2_m_20_20_f
 667              		.thumb
 668              		.thumb_func
 669              		.type	u8g2_m_20_20_f, %function
 670              	u8g2_m_20_20_f:
 671              	.LFB23:
 144:..\u8g2-master\csrc/u8g2_d_memory.c **** uint8_t *u8g2_m_20_20_f(uint8_t *page_cnt)
 145:..\u8g2-master\csrc/u8g2_d_memory.c **** {
 672              		.loc 1 145 0
 673              		.cfi_startproc
 674              		@ args = 0, pretend = 0, frame = 0
 675              		@ frame_needed = 0, uses_anonymous_args = 0
 676              		@ link register save eliminated.
 677              	.LVL46:
 146:..\u8g2-master\csrc/u8g2_d_memory.c ****   static uint8_t buf[3200];
 147:..\u8g2-master\csrc/u8g2_d_memory.c ****   *page_cnt = 20;
 678              		.loc 1 147 0
 679 0000 1423     		movs	r3, #20
 680 0002 0370     		strb	r3, [r0]
 148:..\u8g2-master\csrc/u8g2_d_memory.c ****   return buf;
 149:..\u8g2-master\csrc/u8g2_d_memory.c **** }
 681              		.loc 1 149 0
 682 0004 0048     		ldr	r0, .L71
 683              	.LVL47:
 684 0006 7047     		bx	lr
 685              	.L72:
 686              		.align	2
 687              	.L71:
 688 0008 C0220000 		.word	.LANCHOR2+208
 689              		.cfi_endproc
 690              	.LFE23:
 691              		.size	u8g2_m_20_20_f, .-u8g2_m_20_20_f
 692              		.section	.text.u8g2_m_32_8_1,"ax",%progbits
 693              		.align	2
 694              		.global	u8g2_m_32_8_1
 695              		.thumb
 696              		.thumb_func
 697              		.type	u8g2_m_32_8_1, %function
 698              	u8g2_m_32_8_1:
 699              	.LFB24:
 150:..\u8g2-master\csrc/u8g2_d_memory.c **** uint8_t *u8g2_m_32_8_1(uint8_t *page_cnt)
 151:..\u8g2-master\csrc/u8g2_d_memory.c **** {
 700              		.loc 1 151 0
 701              		.cfi_startproc
 702              		@ args = 0, pretend = 0, frame = 0
 703              		@ frame_needed = 0, uses_anonymous_args = 0
 704              		@ link register save eliminated.
ARM GAS  C:\Users\info\AppData\Local\Temp\ccfHjuLM.s 			page 16


 705              	.LVL48:
 152:..\u8g2-master\csrc/u8g2_d_memory.c ****   static uint8_t buf[256];
 153:..\u8g2-master\csrc/u8g2_d_memory.c ****   *page_cnt = 1;
 706              		.loc 1 153 0
 707 0000 0123     		movs	r3, #1
 708 0002 0370     		strb	r3, [r0]
 154:..\u8g2-master\csrc/u8g2_d_memory.c ****   return buf;
 155:..\u8g2-master\csrc/u8g2_d_memory.c **** }
 709              		.loc 1 155 0
 710 0004 0048     		ldr	r0, .L74
 711              	.LVL49:
 712 0006 7047     		bx	lr
 713              	.L75:
 714              		.align	2
 715              	.L74:
 716 0008 402F0000 		.word	.LANCHOR2+3408
 717              		.cfi_endproc
 718              	.LFE24:
 719              		.size	u8g2_m_32_8_1, .-u8g2_m_32_8_1
 720              		.section	.text.u8g2_m_32_8_2,"ax",%progbits
 721              		.align	2
 722              		.global	u8g2_m_32_8_2
 723              		.thumb
 724              		.thumb_func
 725              		.type	u8g2_m_32_8_2, %function
 726              	u8g2_m_32_8_2:
 727              	.LFB25:
 156:..\u8g2-master\csrc/u8g2_d_memory.c **** uint8_t *u8g2_m_32_8_2(uint8_t *page_cnt)
 157:..\u8g2-master\csrc/u8g2_d_memory.c **** {
 728              		.loc 1 157 0
 729              		.cfi_startproc
 730              		@ args = 0, pretend = 0, frame = 0
 731              		@ frame_needed = 0, uses_anonymous_args = 0
 732              		@ link register save eliminated.
 733              	.LVL50:
 158:..\u8g2-master\csrc/u8g2_d_memory.c ****   static uint8_t buf[512];
 159:..\u8g2-master\csrc/u8g2_d_memory.c ****   *page_cnt = 2;
 734              		.loc 1 159 0
 735 0000 0223     		movs	r3, #2
 736 0002 0370     		strb	r3, [r0]
 160:..\u8g2-master\csrc/u8g2_d_memory.c ****   return buf;
 161:..\u8g2-master\csrc/u8g2_d_memory.c **** }
 737              		.loc 1 161 0
 738 0004 0048     		ldr	r0, .L77
 739              	.LVL51:
 740 0006 7047     		bx	lr
 741              	.L78:
 742              		.align	2
 743              	.L77:
 744 0008 40300000 		.word	.LANCHOR2+3664
 745              		.cfi_endproc
 746              	.LFE25:
 747              		.size	u8g2_m_32_8_2, .-u8g2_m_32_8_2
 748              		.section	.text.u8g2_m_32_8_f,"ax",%progbits
 749              		.align	2
 750              		.global	u8g2_m_32_8_f
 751              		.thumb
ARM GAS  C:\Users\info\AppData\Local\Temp\ccfHjuLM.s 			page 17


 752              		.thumb_func
 753              		.type	u8g2_m_32_8_f, %function
 754              	u8g2_m_32_8_f:
 755              	.LFB26:
 162:..\u8g2-master\csrc/u8g2_d_memory.c **** uint8_t *u8g2_m_32_8_f(uint8_t *page_cnt)
 163:..\u8g2-master\csrc/u8g2_d_memory.c **** {
 756              		.loc 1 163 0
 757              		.cfi_startproc
 758              		@ args = 0, pretend = 0, frame = 0
 759              		@ frame_needed = 0, uses_anonymous_args = 0
 760              		@ link register save eliminated.
 761              	.LVL52:
 164:..\u8g2-master\csrc/u8g2_d_memory.c ****   static uint8_t buf[2048];
 165:..\u8g2-master\csrc/u8g2_d_memory.c ****   *page_cnt = 8;
 762              		.loc 1 165 0
 763 0000 0823     		movs	r3, #8
 764 0002 0370     		strb	r3, [r0]
 166:..\u8g2-master\csrc/u8g2_d_memory.c ****   return buf;
 167:..\u8g2-master\csrc/u8g2_d_memory.c **** }
 765              		.loc 1 167 0
 766 0004 0048     		ldr	r0, .L80
 767              	.LVL53:
 768 0006 7047     		bx	lr
 769              	.L81:
 770              		.align	2
 771              	.L80:
 772 0008 40320000 		.word	.LANCHOR3-168
 773              		.cfi_endproc
 774              	.LFE26:
 775              		.size	u8g2_m_32_8_f, .-u8g2_m_32_8_f
 776              		.section	.text.u8g2_m_8_6_1,"ax",%progbits
 777              		.align	2
 778              		.global	u8g2_m_8_6_1
 779              		.thumb
 780              		.thumb_func
 781              		.type	u8g2_m_8_6_1, %function
 782              	u8g2_m_8_6_1:
 783              	.LFB27:
 168:..\u8g2-master\csrc/u8g2_d_memory.c **** uint8_t *u8g2_m_8_6_1(uint8_t *page_cnt)
 169:..\u8g2-master\csrc/u8g2_d_memory.c **** {
 784              		.loc 1 169 0
 785              		.cfi_startproc
 786              		@ args = 0, pretend = 0, frame = 0
 787              		@ frame_needed = 0, uses_anonymous_args = 0
 788              		@ link register save eliminated.
 789              	.LVL54:
 170:..\u8g2-master\csrc/u8g2_d_memory.c ****   static uint8_t buf[64];
 171:..\u8g2-master\csrc/u8g2_d_memory.c ****   *page_cnt = 1;
 790              		.loc 1 171 0
 791 0000 0123     		movs	r3, #1
 792 0002 0370     		strb	r3, [r0]
 172:..\u8g2-master\csrc/u8g2_d_memory.c ****   return buf;
 173:..\u8g2-master\csrc/u8g2_d_memory.c **** }
 793              		.loc 1 173 0
 794 0004 0048     		ldr	r0, .L83
 795              	.LVL55:
 796 0006 7047     		bx	lr
ARM GAS  C:\Users\info\AppData\Local\Temp\ccfHjuLM.s 			page 18


 797              	.L84:
 798              		.align	2
 799              	.L83:
 800 0008 403A0000 		.word	.LANCHOR3+1880
 801              		.cfi_endproc
 802              	.LFE27:
 803              		.size	u8g2_m_8_6_1, .-u8g2_m_8_6_1
 804              		.section	.text.u8g2_m_8_6_2,"ax",%progbits
 805              		.align	2
 806              		.global	u8g2_m_8_6_2
 807              		.thumb
 808              		.thumb_func
 809              		.type	u8g2_m_8_6_2, %function
 810              	u8g2_m_8_6_2:
 811              	.LFB28:
 174:..\u8g2-master\csrc/u8g2_d_memory.c **** uint8_t *u8g2_m_8_6_2(uint8_t *page_cnt)
 175:..\u8g2-master\csrc/u8g2_d_memory.c **** {
 812              		.loc 1 175 0
 813              		.cfi_startproc
 814              		@ args = 0, pretend = 0, frame = 0
 815              		@ frame_needed = 0, uses_anonymous_args = 0
 816              		@ link register save eliminated.
 817              	.LVL56:
 176:..\u8g2-master\csrc/u8g2_d_memory.c ****   static uint8_t buf[128];
 177:..\u8g2-master\csrc/u8g2_d_memory.c ****   *page_cnt = 2;
 818              		.loc 1 177 0
 819 0000 0223     		movs	r3, #2
 820 0002 0370     		strb	r3, [r0]
 178:..\u8g2-master\csrc/u8g2_d_memory.c ****   return buf;
 179:..\u8g2-master\csrc/u8g2_d_memory.c **** }
 821              		.loc 1 179 0
 822 0004 0048     		ldr	r0, .L86
 823              	.LVL57:
 824 0006 7047     		bx	lr
 825              	.L87:
 826              		.align	2
 827              	.L86:
 828 0008 803A0000 		.word	.LANCHOR3+1944
 829              		.cfi_endproc
 830              	.LFE28:
 831              		.size	u8g2_m_8_6_2, .-u8g2_m_8_6_2
 832              		.section	.text.u8g2_m_8_6_f,"ax",%progbits
 833              		.align	2
 834              		.global	u8g2_m_8_6_f
 835              		.thumb
 836              		.thumb_func
 837              		.type	u8g2_m_8_6_f, %function
 838              	u8g2_m_8_6_f:
 839              	.LFB29:
 180:..\u8g2-master\csrc/u8g2_d_memory.c **** uint8_t *u8g2_m_8_6_f(uint8_t *page_cnt)
 181:..\u8g2-master\csrc/u8g2_d_memory.c **** {
 840              		.loc 1 181 0
 841              		.cfi_startproc
 842              		@ args = 0, pretend = 0, frame = 0
 843              		@ frame_needed = 0, uses_anonymous_args = 0
 844              		@ link register save eliminated.
 845              	.LVL58:
ARM GAS  C:\Users\info\AppData\Local\Temp\ccfHjuLM.s 			page 19


 182:..\u8g2-master\csrc/u8g2_d_memory.c ****   static uint8_t buf[384];
 183:..\u8g2-master\csrc/u8g2_d_memory.c ****   *page_cnt = 6;
 846              		.loc 1 183 0
 847 0000 0623     		movs	r3, #6
 848 0002 0370     		strb	r3, [r0]
 184:..\u8g2-master\csrc/u8g2_d_memory.c ****   return buf;
 185:..\u8g2-master\csrc/u8g2_d_memory.c **** }
 849              		.loc 1 185 0
 850 0004 0048     		ldr	r0, .L89
 851              	.LVL59:
 852 0006 7047     		bx	lr
 853              	.L90:
 854              		.align	2
 855              	.L89:
 856 0008 003B0000 		.word	.LANCHOR3+2072
 857              		.cfi_endproc
 858              	.LFE29:
 859              		.size	u8g2_m_8_6_f, .-u8g2_m_8_6_f
 860              		.section	.text.u8g2_m_6_8_1,"ax",%progbits
 861              		.align	2
 862              		.global	u8g2_m_6_8_1
 863              		.thumb
 864              		.thumb_func
 865              		.type	u8g2_m_6_8_1, %function
 866              	u8g2_m_6_8_1:
 867              	.LFB30:
 186:..\u8g2-master\csrc/u8g2_d_memory.c **** uint8_t *u8g2_m_6_8_1(uint8_t *page_cnt)
 187:..\u8g2-master\csrc/u8g2_d_memory.c **** {
 868              		.loc 1 187 0
 869              		.cfi_startproc
 870              		@ args = 0, pretend = 0, frame = 0
 871              		@ frame_needed = 0, uses_anonymous_args = 0
 872              		@ link register save eliminated.
 873              	.LVL60:
 188:..\u8g2-master\csrc/u8g2_d_memory.c ****   static uint8_t buf[48];
 189:..\u8g2-master\csrc/u8g2_d_memory.c ****   *page_cnt = 1;
 874              		.loc 1 189 0
 875 0000 0123     		movs	r3, #1
 876 0002 0370     		strb	r3, [r0]
 190:..\u8g2-master\csrc/u8g2_d_memory.c ****   return buf;
 191:..\u8g2-master\csrc/u8g2_d_memory.c **** }
 877              		.loc 1 191 0
 878 0004 0048     		ldr	r0, .L92
 879              	.LVL61:
 880 0006 7047     		bx	lr
 881              	.L93:
 882              		.align	2
 883              	.L92:
 884 0008 803C0000 		.word	.LANCHOR3+2456
 885              		.cfi_endproc
 886              	.LFE30:
 887              		.size	u8g2_m_6_8_1, .-u8g2_m_6_8_1
 888              		.section	.text.u8g2_m_6_8_2,"ax",%progbits
 889              		.align	2
 890              		.global	u8g2_m_6_8_2
 891              		.thumb
 892              		.thumb_func
ARM GAS  C:\Users\info\AppData\Local\Temp\ccfHjuLM.s 			page 20


 893              		.type	u8g2_m_6_8_2, %function
 894              	u8g2_m_6_8_2:
 895              	.LFB31:
 192:..\u8g2-master\csrc/u8g2_d_memory.c **** uint8_t *u8g2_m_6_8_2(uint8_t *page_cnt)
 193:..\u8g2-master\csrc/u8g2_d_memory.c **** {
 896              		.loc 1 193 0
 897              		.cfi_startproc
 898              		@ args = 0, pretend = 0, frame = 0
 899              		@ frame_needed = 0, uses_anonymous_args = 0
 900              		@ link register save eliminated.
 901              	.LVL62:
 194:..\u8g2-master\csrc/u8g2_d_memory.c ****   static uint8_t buf[96];
 195:..\u8g2-master\csrc/u8g2_d_memory.c ****   *page_cnt = 2;
 902              		.loc 1 195 0
 903 0000 0223     		movs	r3, #2
 904 0002 0370     		strb	r3, [r0]
 196:..\u8g2-master\csrc/u8g2_d_memory.c ****   return buf;
 197:..\u8g2-master\csrc/u8g2_d_memory.c **** }
 905              		.loc 1 197 0
 906 0004 0048     		ldr	r0, .L95
 907              	.LVL63:
 908 0006 7047     		bx	lr
 909              	.L96:
 910              		.align	2
 911              	.L95:
 912 0008 B03C0000 		.word	.LANCHOR3+2504
 913              		.cfi_endproc
 914              	.LFE31:
 915              		.size	u8g2_m_6_8_2, .-u8g2_m_6_8_2
 916              		.section	.text.u8g2_m_6_8_f,"ax",%progbits
 917              		.align	2
 918              		.global	u8g2_m_6_8_f
 919              		.thumb
 920              		.thumb_func
 921              		.type	u8g2_m_6_8_f, %function
 922              	u8g2_m_6_8_f:
 923              	.LFB32:
 198:..\u8g2-master\csrc/u8g2_d_memory.c **** uint8_t *u8g2_m_6_8_f(uint8_t *page_cnt)
 199:..\u8g2-master\csrc/u8g2_d_memory.c **** {
 924              		.loc 1 199 0
 925              		.cfi_startproc
 926              		@ args = 0, pretend = 0, frame = 0
 927              		@ frame_needed = 0, uses_anonymous_args = 0
 928              		@ link register save eliminated.
 929              	.LVL64:
 200:..\u8g2-master\csrc/u8g2_d_memory.c ****   static uint8_t buf[384];
 201:..\u8g2-master\csrc/u8g2_d_memory.c ****   *page_cnt = 8;
 930              		.loc 1 201 0
 931 0000 0823     		movs	r3, #8
 932 0002 0370     		strb	r3, [r0]
 202:..\u8g2-master\csrc/u8g2_d_memory.c ****   return buf;
 203:..\u8g2-master\csrc/u8g2_d_memory.c **** }
 933              		.loc 1 203 0
 934 0004 0048     		ldr	r0, .L98
 935              	.LVL65:
 936 0006 7047     		bx	lr
 937              	.L99:
ARM GAS  C:\Users\info\AppData\Local\Temp\ccfHjuLM.s 			page 21


 938              		.align	2
 939              	.L98:
 940 0008 103D0000 		.word	.LANCHOR3+2600
 941              		.cfi_endproc
 942              	.LFE32:
 943              		.size	u8g2_m_6_8_f, .-u8g2_m_6_8_f
 944              		.section	.text.u8g2_m_12_2_1,"ax",%progbits
 945              		.align	2
 946              		.global	u8g2_m_12_2_1
 947              		.thumb
 948              		.thumb_func
 949              		.type	u8g2_m_12_2_1, %function
 950              	u8g2_m_12_2_1:
 951              	.LFB33:
 204:..\u8g2-master\csrc/u8g2_d_memory.c **** uint8_t *u8g2_m_12_2_1(uint8_t *page_cnt)
 205:..\u8g2-master\csrc/u8g2_d_memory.c **** {
 952              		.loc 1 205 0
 953              		.cfi_startproc
 954              		@ args = 0, pretend = 0, frame = 0
 955              		@ frame_needed = 0, uses_anonymous_args = 0
 956              		@ link register save eliminated.
 957              	.LVL66:
 206:..\u8g2-master\csrc/u8g2_d_memory.c ****   static uint8_t buf[96];
 207:..\u8g2-master\csrc/u8g2_d_memory.c ****   *page_cnt = 1;
 958              		.loc 1 207 0
 959 0000 0123     		movs	r3, #1
 960 0002 0370     		strb	r3, [r0]
 208:..\u8g2-master\csrc/u8g2_d_memory.c ****   return buf;
 209:..\u8g2-master\csrc/u8g2_d_memory.c **** }
 961              		.loc 1 209 0
 962 0004 0048     		ldr	r0, .L101
 963              	.LVL67:
 964 0006 7047     		bx	lr
 965              	.L102:
 966              		.align	2
 967              	.L101:
 968 0008 903E0000 		.word	.LANCHOR3+2984
 969              		.cfi_endproc
 970              	.LFE33:
 971              		.size	u8g2_m_12_2_1, .-u8g2_m_12_2_1
 972              		.section	.text.u8g2_m_12_2_2,"ax",%progbits
 973              		.align	2
 974              		.global	u8g2_m_12_2_2
 975              		.thumb
 976              		.thumb_func
 977              		.type	u8g2_m_12_2_2, %function
 978              	u8g2_m_12_2_2:
 979              	.LFB34:
 210:..\u8g2-master\csrc/u8g2_d_memory.c **** uint8_t *u8g2_m_12_2_2(uint8_t *page_cnt)
 211:..\u8g2-master\csrc/u8g2_d_memory.c **** {
 980              		.loc 1 211 0
 981              		.cfi_startproc
 982              		@ args = 0, pretend = 0, frame = 0
 983              		@ frame_needed = 0, uses_anonymous_args = 0
 984              		@ link register save eliminated.
 985              	.LVL68:
 212:..\u8g2-master\csrc/u8g2_d_memory.c ****   static uint8_t buf[192];
ARM GAS  C:\Users\info\AppData\Local\Temp\ccfHjuLM.s 			page 22


 213:..\u8g2-master\csrc/u8g2_d_memory.c ****   *page_cnt = 2;
 986              		.loc 1 213 0
 987 0000 0223     		movs	r3, #2
 988 0002 0370     		strb	r3, [r0]
 214:..\u8g2-master\csrc/u8g2_d_memory.c ****   return buf;
 215:..\u8g2-master\csrc/u8g2_d_memory.c **** }
 989              		.loc 1 215 0
 990 0004 0048     		ldr	r0, .L104
 991              	.LVL69:
 992 0006 7047     		bx	lr
 993              	.L105:
 994              		.align	2
 995              	.L104:
 996 0008 F03E0000 		.word	.LANCHOR3+3080
 997              		.cfi_endproc
 998              	.LFE34:
 999              		.size	u8g2_m_12_2_2, .-u8g2_m_12_2_2
 1000              		.section	.text.u8g2_m_12_2_f,"ax",%progbits
 1001              		.align	2
 1002              		.global	u8g2_m_12_2_f
 1003              		.thumb
 1004              		.thumb_func
 1005              		.type	u8g2_m_12_2_f, %function
 1006              	u8g2_m_12_2_f:
 1007              	.LFB35:
 216:..\u8g2-master\csrc/u8g2_d_memory.c **** uint8_t *u8g2_m_12_2_f(uint8_t *page_cnt)
 217:..\u8g2-master\csrc/u8g2_d_memory.c **** {
 1008              		.loc 1 217 0
 1009              		.cfi_startproc
 1010              		@ args = 0, pretend = 0, frame = 0
 1011              		@ frame_needed = 0, uses_anonymous_args = 0
 1012              		@ link register save eliminated.
 1013              	.LVL70:
 218:..\u8g2-master\csrc/u8g2_d_memory.c ****   static uint8_t buf[192];
 219:..\u8g2-master\csrc/u8g2_d_memory.c ****   *page_cnt = 2;
 1014              		.loc 1 219 0
 1015 0000 0223     		movs	r3, #2
 1016 0002 0370     		strb	r3, [r0]
 220:..\u8g2-master\csrc/u8g2_d_memory.c ****   return buf;
 221:..\u8g2-master\csrc/u8g2_d_memory.c **** }
 1017              		.loc 1 221 0
 1018 0004 0048     		ldr	r0, .L107
 1019              	.LVL71:
 1020 0006 7047     		bx	lr
 1021              	.L108:
 1022              		.align	2
 1023              	.L107:
 1024 0008 B03F0000 		.word	.LANCHOR3+3272
 1025              		.cfi_endproc
 1026              	.LFE35:
 1027              		.size	u8g2_m_12_2_f, .-u8g2_m_12_2_f
 1028              		.section	.text.u8g2_m_16_12_1,"ax",%progbits
 1029              		.align	2
 1030              		.global	u8g2_m_16_12_1
 1031              		.thumb
 1032              		.thumb_func
 1033              		.type	u8g2_m_16_12_1, %function
ARM GAS  C:\Users\info\AppData\Local\Temp\ccfHjuLM.s 			page 23


 1034              	u8g2_m_16_12_1:
 1035              	.LFB36:
 222:..\u8g2-master\csrc/u8g2_d_memory.c **** uint8_t *u8g2_m_16_12_1(uint8_t *page_cnt)
 223:..\u8g2-master\csrc/u8g2_d_memory.c **** {
 1036              		.loc 1 223 0
 1037              		.cfi_startproc
 1038              		@ args = 0, pretend = 0, frame = 0
 1039              		@ frame_needed = 0, uses_anonymous_args = 0
 1040              		@ link register save eliminated.
 1041              	.LVL72:
 224:..\u8g2-master\csrc/u8g2_d_memory.c ****   static uint8_t buf[128];
 225:..\u8g2-master\csrc/u8g2_d_memory.c ****   *page_cnt = 1;
 1042              		.loc 1 225 0
 1043 0000 0123     		movs	r3, #1
 1044 0002 0370     		strb	r3, [r0]
 226:..\u8g2-master\csrc/u8g2_d_memory.c ****   return buf;
 227:..\u8g2-master\csrc/u8g2_d_memory.c **** }
 1045              		.loc 1 227 0
 1046 0004 0048     		ldr	r0, .L110
 1047              	.LVL73:
 1048 0006 7047     		bx	lr
 1049              	.L111:
 1050              		.align	2
 1051              	.L110:
 1052 0008 70400000 		.word	.LANCHOR3+3464
 1053              		.cfi_endproc
 1054              	.LFE36:
 1055              		.size	u8g2_m_16_12_1, .-u8g2_m_16_12_1
 1056              		.section	.text.u8g2_m_16_12_2,"ax",%progbits
 1057              		.align	2
 1058              		.global	u8g2_m_16_12_2
 1059              		.thumb
 1060              		.thumb_func
 1061              		.type	u8g2_m_16_12_2, %function
 1062              	u8g2_m_16_12_2:
 1063              	.LFB37:
 228:..\u8g2-master\csrc/u8g2_d_memory.c **** uint8_t *u8g2_m_16_12_2(uint8_t *page_cnt)
 229:..\u8g2-master\csrc/u8g2_d_memory.c **** {
 1064              		.loc 1 229 0
 1065              		.cfi_startproc
 1066              		@ args = 0, pretend = 0, frame = 0
 1067              		@ frame_needed = 0, uses_anonymous_args = 0
 1068              		@ link register save eliminated.
 1069              	.LVL74:
 230:..\u8g2-master\csrc/u8g2_d_memory.c ****   static uint8_t buf[256];
 231:..\u8g2-master\csrc/u8g2_d_memory.c ****   *page_cnt = 2;
 1070              		.loc 1 231 0
 1071 0000 0223     		movs	r3, #2
 1072 0002 0370     		strb	r3, [r0]
 232:..\u8g2-master\csrc/u8g2_d_memory.c ****   return buf;
 233:..\u8g2-master\csrc/u8g2_d_memory.c **** }
 1073              		.loc 1 233 0
 1074 0004 0048     		ldr	r0, .L113
 1075              	.LVL75:
 1076 0006 7047     		bx	lr
 1077              	.L114:
 1078              		.align	2
ARM GAS  C:\Users\info\AppData\Local\Temp\ccfHjuLM.s 			page 24


 1079              	.L113:
 1080 0008 F0400000 		.word	.LANCHOR3+3592
 1081              		.cfi_endproc
 1082              	.LFE37:
 1083              		.size	u8g2_m_16_12_2, .-u8g2_m_16_12_2
 1084              		.section	.text.u8g2_m_16_12_f,"ax",%progbits
 1085              		.align	2
 1086              		.global	u8g2_m_16_12_f
 1087              		.thumb
 1088              		.thumb_func
 1089              		.type	u8g2_m_16_12_f, %function
 1090              	u8g2_m_16_12_f:
 1091              	.LFB38:
 234:..\u8g2-master\csrc/u8g2_d_memory.c **** uint8_t *u8g2_m_16_12_f(uint8_t *page_cnt)
 235:..\u8g2-master\csrc/u8g2_d_memory.c **** {
 1092              		.loc 1 235 0
 1093              		.cfi_startproc
 1094              		@ args = 0, pretend = 0, frame = 0
 1095              		@ frame_needed = 0, uses_anonymous_args = 0
 1096              		@ link register save eliminated.
 1097              	.LVL76:
 236:..\u8g2-master\csrc/u8g2_d_memory.c ****   static uint8_t buf[1536];
 237:..\u8g2-master\csrc/u8g2_d_memory.c ****   *page_cnt = 12;
 1098              		.loc 1 237 0
 1099 0000 0C23     		movs	r3, #12
 1100 0002 0370     		strb	r3, [r0]
 238:..\u8g2-master\csrc/u8g2_d_memory.c ****   return buf;
 239:..\u8g2-master\csrc/u8g2_d_memory.c **** }
 1101              		.loc 1 239 0
 1102 0004 0048     		ldr	r0, .L116
 1103              	.LVL77:
 1104 0006 7047     		bx	lr
 1105              	.L117:
 1106              		.align	2
 1107              	.L116:
 1108 0008 F0410000 		.word	.LANCHOR3+3848
 1109              		.cfi_endproc
 1110              	.LFE38:
 1111              		.size	u8g2_m_16_12_f, .-u8g2_m_16_12_f
 1112              		.section	.text.u8g2_m_32_4_1,"ax",%progbits
 1113              		.align	2
 1114              		.global	u8g2_m_32_4_1
 1115              		.thumb
 1116              		.thumb_func
 1117              		.type	u8g2_m_32_4_1, %function
 1118              	u8g2_m_32_4_1:
 1119              	.LFB39:
 240:..\u8g2-master\csrc/u8g2_d_memory.c **** uint8_t *u8g2_m_32_4_1(uint8_t *page_cnt)
 241:..\u8g2-master\csrc/u8g2_d_memory.c **** {
 1120              		.loc 1 241 0
 1121              		.cfi_startproc
 1122              		@ args = 0, pretend = 0, frame = 0
 1123              		@ frame_needed = 0, uses_anonymous_args = 0
 1124              		@ link register save eliminated.
 1125              	.LVL78:
 242:..\u8g2-master\csrc/u8g2_d_memory.c ****   static uint8_t buf[256];
 243:..\u8g2-master\csrc/u8g2_d_memory.c ****   *page_cnt = 1;
ARM GAS  C:\Users\info\AppData\Local\Temp\ccfHjuLM.s 			page 25


 1126              		.loc 1 243 0
 1127 0000 0123     		movs	r3, #1
 1128 0002 0370     		strb	r3, [r0]
 244:..\u8g2-master\csrc/u8g2_d_memory.c ****   return buf;
 245:..\u8g2-master\csrc/u8g2_d_memory.c **** }
 1129              		.loc 1 245 0
 1130 0004 0048     		ldr	r0, .L119
 1131              	.LVL79:
 1132 0006 7047     		bx	lr
 1133              	.L120:
 1134              		.align	2
 1135              	.L119:
 1136 0008 F0470000 		.word	.LANCHOR4+1040
 1137              		.cfi_endproc
 1138              	.LFE39:
 1139              		.size	u8g2_m_32_4_1, .-u8g2_m_32_4_1
 1140              		.section	.text.u8g2_m_32_4_2,"ax",%progbits
 1141              		.align	2
 1142              		.global	u8g2_m_32_4_2
 1143              		.thumb
 1144              		.thumb_func
 1145              		.type	u8g2_m_32_4_2, %function
 1146              	u8g2_m_32_4_2:
 1147              	.LFB40:
 246:..\u8g2-master\csrc/u8g2_d_memory.c **** uint8_t *u8g2_m_32_4_2(uint8_t *page_cnt)
 247:..\u8g2-master\csrc/u8g2_d_memory.c **** {
 1148              		.loc 1 247 0
 1149              		.cfi_startproc
 1150              		@ args = 0, pretend = 0, frame = 0
 1151              		@ frame_needed = 0, uses_anonymous_args = 0
 1152              		@ link register save eliminated.
 1153              	.LVL80:
 248:..\u8g2-master\csrc/u8g2_d_memory.c ****   static uint8_t buf[512];
 249:..\u8g2-master\csrc/u8g2_d_memory.c ****   *page_cnt = 2;
 1154              		.loc 1 249 0
 1155 0000 0223     		movs	r3, #2
 1156 0002 0370     		strb	r3, [r0]
 250:..\u8g2-master\csrc/u8g2_d_memory.c ****   return buf;
 251:..\u8g2-master\csrc/u8g2_d_memory.c **** }
 1157              		.loc 1 251 0
 1158 0004 0048     		ldr	r0, .L122
 1159              	.LVL81:
 1160 0006 7047     		bx	lr
 1161              	.L123:
 1162              		.align	2
 1163              	.L122:
 1164 0008 F0480000 		.word	.LANCHOR4+1296
 1165              		.cfi_endproc
 1166              	.LFE40:
 1167              		.size	u8g2_m_32_4_2, .-u8g2_m_32_4_2
 1168              		.section	.text.u8g2_m_32_4_f,"ax",%progbits
 1169              		.align	2
 1170              		.global	u8g2_m_32_4_f
 1171              		.thumb
 1172              		.thumb_func
 1173              		.type	u8g2_m_32_4_f, %function
 1174              	u8g2_m_32_4_f:
ARM GAS  C:\Users\info\AppData\Local\Temp\ccfHjuLM.s 			page 26


 1175              	.LFB41:
 252:..\u8g2-master\csrc/u8g2_d_memory.c **** uint8_t *u8g2_m_32_4_f(uint8_t *page_cnt)
 253:..\u8g2-master\csrc/u8g2_d_memory.c **** {
 1176              		.loc 1 253 0
 1177              		.cfi_startproc
 1178              		@ args = 0, pretend = 0, frame = 0
 1179              		@ frame_needed = 0, uses_anonymous_args = 0
 1180              		@ link register save eliminated.
 1181              	.LVL82:
 254:..\u8g2-master\csrc/u8g2_d_memory.c ****   static uint8_t buf[1024];
 255:..\u8g2-master\csrc/u8g2_d_memory.c ****   *page_cnt = 4;
 1182              		.loc 1 255 0
 1183 0000 0423     		movs	r3, #4
 1184 0002 0370     		strb	r3, [r0]
 256:..\u8g2-master\csrc/u8g2_d_memory.c ****   return buf;
 257:..\u8g2-master\csrc/u8g2_d_memory.c **** }
 1185              		.loc 1 257 0
 1186 0004 0048     		ldr	r0, .L125
 1187              	.LVL83:
 1188 0006 7047     		bx	lr
 1189              	.L126:
 1190              		.align	2
 1191              	.L125:
 1192 0008 F04A0000 		.word	.LANCHOR4+1808
 1193              		.cfi_endproc
 1194              	.LFE41:
 1195              		.size	u8g2_m_32_4_f, .-u8g2_m_32_4_f
 1196              		.section	.text.u8g2_m_24_4_1,"ax",%progbits
 1197              		.align	2
 1198              		.global	u8g2_m_24_4_1
 1199              		.thumb
 1200              		.thumb_func
 1201              		.type	u8g2_m_24_4_1, %function
 1202              	u8g2_m_24_4_1:
 1203              	.LFB42:
 258:..\u8g2-master\csrc/u8g2_d_memory.c **** uint8_t *u8g2_m_24_4_1(uint8_t *page_cnt)
 259:..\u8g2-master\csrc/u8g2_d_memory.c **** {
 1204              		.loc 1 259 0
 1205              		.cfi_startproc
 1206              		@ args = 0, pretend = 0, frame = 0
 1207              		@ frame_needed = 0, uses_anonymous_args = 0
 1208              		@ link register save eliminated.
 1209              	.LVL84:
 260:..\u8g2-master\csrc/u8g2_d_memory.c ****   static uint8_t buf[192];
 261:..\u8g2-master\csrc/u8g2_d_memory.c ****   *page_cnt = 1;
 1210              		.loc 1 261 0
 1211 0000 0123     		movs	r3, #1
 1212 0002 0370     		strb	r3, [r0]
 262:..\u8g2-master\csrc/u8g2_d_memory.c ****   return buf;
 263:..\u8g2-master\csrc/u8g2_d_memory.c **** }
 1213              		.loc 1 263 0
 1214 0004 0048     		ldr	r0, .L128
 1215              	.LVL85:
 1216 0006 7047     		bx	lr
 1217              	.L129:
 1218              		.align	2
 1219              	.L128:
ARM GAS  C:\Users\info\AppData\Local\Temp\ccfHjuLM.s 			page 27


 1220 0008 F04E0000 		.word	.LANCHOR4+2832
 1221              		.cfi_endproc
 1222              	.LFE42:
 1223              		.size	u8g2_m_24_4_1, .-u8g2_m_24_4_1
 1224              		.section	.text.u8g2_m_24_4_2,"ax",%progbits
 1225              		.align	2
 1226              		.global	u8g2_m_24_4_2
 1227              		.thumb
 1228              		.thumb_func
 1229              		.type	u8g2_m_24_4_2, %function
 1230              	u8g2_m_24_4_2:
 1231              	.LFB43:
 264:..\u8g2-master\csrc/u8g2_d_memory.c **** uint8_t *u8g2_m_24_4_2(uint8_t *page_cnt)
 265:..\u8g2-master\csrc/u8g2_d_memory.c **** {
 1232              		.loc 1 265 0
 1233              		.cfi_startproc
 1234              		@ args = 0, pretend = 0, frame = 0
 1235              		@ frame_needed = 0, uses_anonymous_args = 0
 1236              		@ link register save eliminated.
 1237              	.LVL86:
 266:..\u8g2-master\csrc/u8g2_d_memory.c ****   static uint8_t buf[384];
 267:..\u8g2-master\csrc/u8g2_d_memory.c ****   *page_cnt = 2;
 1238              		.loc 1 267 0
 1239 0000 0223     		movs	r3, #2
 1240 0002 0370     		strb	r3, [r0]
 268:..\u8g2-master\csrc/u8g2_d_memory.c ****   return buf;
 269:..\u8g2-master\csrc/u8g2_d_memory.c **** }
 1241              		.loc 1 269 0
 1242 0004 0048     		ldr	r0, .L131
 1243              	.LVL87:
 1244 0006 7047     		bx	lr
 1245              	.L132:
 1246              		.align	2
 1247              	.L131:
 1248 0008 B04F0000 		.word	.LANCHOR4+3024
 1249              		.cfi_endproc
 1250              	.LFE43:
 1251              		.size	u8g2_m_24_4_2, .-u8g2_m_24_4_2
 1252              		.section	.text.u8g2_m_24_4_f,"ax",%progbits
 1253              		.align	2
 1254              		.global	u8g2_m_24_4_f
 1255              		.thumb
 1256              		.thumb_func
 1257              		.type	u8g2_m_24_4_f, %function
 1258              	u8g2_m_24_4_f:
 1259              	.LFB44:
 270:..\u8g2-master\csrc/u8g2_d_memory.c **** uint8_t *u8g2_m_24_4_f(uint8_t *page_cnt)
 271:..\u8g2-master\csrc/u8g2_d_memory.c **** {
 1260              		.loc 1 271 0
 1261              		.cfi_startproc
 1262              		@ args = 0, pretend = 0, frame = 0
 1263              		@ frame_needed = 0, uses_anonymous_args = 0
 1264              		@ link register save eliminated.
 1265              	.LVL88:
 272:..\u8g2-master\csrc/u8g2_d_memory.c ****   static uint8_t buf[768];
 273:..\u8g2-master\csrc/u8g2_d_memory.c ****   *page_cnt = 4;
 1266              		.loc 1 273 0
ARM GAS  C:\Users\info\AppData\Local\Temp\ccfHjuLM.s 			page 28


 1267 0000 0423     		movs	r3, #4
 1268 0002 0370     		strb	r3, [r0]
 274:..\u8g2-master\csrc/u8g2_d_memory.c ****   return buf;
 275:..\u8g2-master\csrc/u8g2_d_memory.c **** }
 1269              		.loc 1 275 0
 1270 0004 0048     		ldr	r0, .L134
 1271              	.LVL89:
 1272 0006 7047     		bx	lr
 1273              	.L135:
 1274              		.align	2
 1275              	.L134:
 1276 0008 30510000 		.word	.LANCHOR4+3408
 1277              		.cfi_endproc
 1278              	.LFE44:
 1279              		.size	u8g2_m_24_4_f, .-u8g2_m_24_4_f
 1280              		.section	.text.u8g2_m_50_30_1,"ax",%progbits
 1281              		.align	2
 1282              		.global	u8g2_m_50_30_1
 1283              		.thumb
 1284              		.thumb_func
 1285              		.type	u8g2_m_50_30_1, %function
 1286              	u8g2_m_50_30_1:
 1287              	.LFB45:
 276:..\u8g2-master\csrc/u8g2_d_memory.c **** uint8_t *u8g2_m_50_30_1(uint8_t *page_cnt)
 277:..\u8g2-master\csrc/u8g2_d_memory.c **** {
 1288              		.loc 1 277 0
 1289              		.cfi_startproc
 1290              		@ args = 0, pretend = 0, frame = 0
 1291              		@ frame_needed = 0, uses_anonymous_args = 0
 1292              		@ link register save eliminated.
 1293              	.LVL90:
 278:..\u8g2-master\csrc/u8g2_d_memory.c ****   static uint8_t buf[400];
 279:..\u8g2-master\csrc/u8g2_d_memory.c ****   *page_cnt = 1;
 1294              		.loc 1 279 0
 1295 0000 0123     		movs	r3, #1
 1296 0002 0370     		strb	r3, [r0]
 280:..\u8g2-master\csrc/u8g2_d_memory.c ****   return buf;
 281:..\u8g2-master\csrc/u8g2_d_memory.c **** }
 1297              		.loc 1 281 0
 1298 0004 0048     		ldr	r0, .L137
 1299              	.LVL91:
 1300 0006 7047     		bx	lr
 1301              	.L138:
 1302              		.align	2
 1303              	.L137:
 1304 0008 30540000 		.word	.LANCHOR5-168
 1305              		.cfi_endproc
 1306              	.LFE45:
 1307              		.size	u8g2_m_50_30_1, .-u8g2_m_50_30_1
 1308              		.section	.text.u8g2_m_50_30_2,"ax",%progbits
 1309              		.align	2
 1310              		.global	u8g2_m_50_30_2
 1311              		.thumb
 1312              		.thumb_func
 1313              		.type	u8g2_m_50_30_2, %function
 1314              	u8g2_m_50_30_2:
 1315              	.LFB46:
ARM GAS  C:\Users\info\AppData\Local\Temp\ccfHjuLM.s 			page 29


 282:..\u8g2-master\csrc/u8g2_d_memory.c **** uint8_t *u8g2_m_50_30_2(uint8_t *page_cnt)
 283:..\u8g2-master\csrc/u8g2_d_memory.c **** {
 1316              		.loc 1 283 0
 1317              		.cfi_startproc
 1318              		@ args = 0, pretend = 0, frame = 0
 1319              		@ frame_needed = 0, uses_anonymous_args = 0
 1320              		@ link register save eliminated.
 1321              	.LVL92:
 284:..\u8g2-master\csrc/u8g2_d_memory.c ****   static uint8_t buf[800];
 285:..\u8g2-master\csrc/u8g2_d_memory.c ****   *page_cnt = 2;
 1322              		.loc 1 285 0
 1323 0000 0223     		movs	r3, #2
 1324 0002 0370     		strb	r3, [r0]
 286:..\u8g2-master\csrc/u8g2_d_memory.c ****   return buf;
 287:..\u8g2-master\csrc/u8g2_d_memory.c **** }
 1325              		.loc 1 287 0
 1326 0004 0048     		ldr	r0, .L140
 1327              	.LVL93:
 1328 0006 7047     		bx	lr
 1329              	.L141:
 1330              		.align	2
 1331              	.L140:
 1332 0008 C0550000 		.word	.LANCHOR5+232
 1333              		.cfi_endproc
 1334              	.LFE46:
 1335              		.size	u8g2_m_50_30_2, .-u8g2_m_50_30_2
 1336              		.section	.text.u8g2_m_50_30_f,"ax",%progbits
 1337              		.align	2
 1338              		.global	u8g2_m_50_30_f
 1339              		.thumb
 1340              		.thumb_func
 1341              		.type	u8g2_m_50_30_f, %function
 1342              	u8g2_m_50_30_f:
 1343              	.LFB47:
 288:..\u8g2-master\csrc/u8g2_d_memory.c **** uint8_t *u8g2_m_50_30_f(uint8_t *page_cnt)
 289:..\u8g2-master\csrc/u8g2_d_memory.c **** {
 1344              		.loc 1 289 0
 1345              		.cfi_startproc
 1346              		@ args = 0, pretend = 0, frame = 0
 1347              		@ frame_needed = 0, uses_anonymous_args = 0
 1348              		@ link register save eliminated.
 1349              	.LVL94:
 290:..\u8g2-master\csrc/u8g2_d_memory.c ****   static uint8_t buf[12000];
 291:..\u8g2-master\csrc/u8g2_d_memory.c ****   *page_cnt = 30;
 1350              		.loc 1 291 0
 1351 0000 1E23     		movs	r3, #30
 1352 0002 0370     		strb	r3, [r0]
 292:..\u8g2-master\csrc/u8g2_d_memory.c ****   return buf;
 293:..\u8g2-master\csrc/u8g2_d_memory.c **** }
 1353              		.loc 1 293 0
 1354 0004 0048     		ldr	r0, .L143
 1355              	.LVL95:
 1356 0006 7047     		bx	lr
 1357              	.L144:
 1358              		.align	2
 1359              	.L143:
 1360 0008 E0580000 		.word	.LANCHOR5+1032
ARM GAS  C:\Users\info\AppData\Local\Temp\ccfHjuLM.s 			page 30


 1361              		.cfi_endproc
 1362              	.LFE47:
 1363              		.size	u8g2_m_50_30_f, .-u8g2_m_50_30_f
 1364              		.section	.text.u8g2_m_18_21_1,"ax",%progbits
 1365              		.align	2
 1366              		.global	u8g2_m_18_21_1
 1367              		.thumb
 1368              		.thumb_func
 1369              		.type	u8g2_m_18_21_1, %function
 1370              	u8g2_m_18_21_1:
 1371              	.LFB48:
 294:..\u8g2-master\csrc/u8g2_d_memory.c **** uint8_t *u8g2_m_18_21_1(uint8_t *page_cnt)
 295:..\u8g2-master\csrc/u8g2_d_memory.c **** {
 1372              		.loc 1 295 0
 1373              		.cfi_startproc
 1374              		@ args = 0, pretend = 0, frame = 0
 1375              		@ frame_needed = 0, uses_anonymous_args = 0
 1376              		@ link register save eliminated.
 1377              	.LVL96:
 296:..\u8g2-master\csrc/u8g2_d_memory.c ****   static uint8_t buf[144];
 297:..\u8g2-master\csrc/u8g2_d_memory.c ****   *page_cnt = 1;
 1378              		.loc 1 297 0
 1379 0000 0123     		movs	r3, #1
 1380 0002 0370     		strb	r3, [r0]
 298:..\u8g2-master\csrc/u8g2_d_memory.c ****   return buf;
 299:..\u8g2-master\csrc/u8g2_d_memory.c **** }
 1381              		.loc 1 299 0
 1382 0004 0048     		ldr	r0, .L146
 1383              	.LVL97:
 1384 0006 7047     		bx	lr
 1385              	.L147:
 1386              		.align	2
 1387              	.L146:
 1388 0008 C0870000 		.word	.LANCHOR6
 1389              		.cfi_endproc
 1390              	.LFE48:
 1391              		.size	u8g2_m_18_21_1, .-u8g2_m_18_21_1
 1392              		.section	.text.u8g2_m_18_21_2,"ax",%progbits
 1393              		.align	2
 1394              		.global	u8g2_m_18_21_2
 1395              		.thumb
 1396              		.thumb_func
 1397              		.type	u8g2_m_18_21_2, %function
 1398              	u8g2_m_18_21_2:
 1399              	.LFB49:
 300:..\u8g2-master\csrc/u8g2_d_memory.c **** uint8_t *u8g2_m_18_21_2(uint8_t *page_cnt)
 301:..\u8g2-master\csrc/u8g2_d_memory.c **** {
 1400              		.loc 1 301 0
 1401              		.cfi_startproc
 1402              		@ args = 0, pretend = 0, frame = 0
 1403              		@ frame_needed = 0, uses_anonymous_args = 0
 1404              		@ link register save eliminated.
 1405              	.LVL98:
 302:..\u8g2-master\csrc/u8g2_d_memory.c ****   static uint8_t buf[288];
 303:..\u8g2-master\csrc/u8g2_d_memory.c ****   *page_cnt = 2;
 1406              		.loc 1 303 0
 1407 0000 0223     		movs	r3, #2
ARM GAS  C:\Users\info\AppData\Local\Temp\ccfHjuLM.s 			page 31


 1408 0002 0370     		strb	r3, [r0]
 304:..\u8g2-master\csrc/u8g2_d_memory.c ****   return buf;
 305:..\u8g2-master\csrc/u8g2_d_memory.c **** }
 1409              		.loc 1 305 0
 1410 0004 0048     		ldr	r0, .L149
 1411              	.LVL99:
 1412 0006 7047     		bx	lr
 1413              	.L150:
 1414              		.align	2
 1415              	.L149:
 1416 0008 50880000 		.word	.LANCHOR6+144
 1417              		.cfi_endproc
 1418              	.LFE49:
 1419              		.size	u8g2_m_18_21_2, .-u8g2_m_18_21_2
 1420              		.section	.text.u8g2_m_18_21_f,"ax",%progbits
 1421              		.align	2
 1422              		.global	u8g2_m_18_21_f
 1423              		.thumb
 1424              		.thumb_func
 1425              		.type	u8g2_m_18_21_f, %function
 1426              	u8g2_m_18_21_f:
 1427              	.LFB50:
 306:..\u8g2-master\csrc/u8g2_d_memory.c **** uint8_t *u8g2_m_18_21_f(uint8_t *page_cnt)
 307:..\u8g2-master\csrc/u8g2_d_memory.c **** {
 1428              		.loc 1 307 0
 1429              		.cfi_startproc
 1430              		@ args = 0, pretend = 0, frame = 0
 1431              		@ frame_needed = 0, uses_anonymous_args = 0
 1432              		@ link register save eliminated.
 1433              	.LVL100:
 308:..\u8g2-master\csrc/u8g2_d_memory.c ****   static uint8_t buf[3024];
 309:..\u8g2-master\csrc/u8g2_d_memory.c ****   *page_cnt = 21;
 1434              		.loc 1 309 0
 1435 0000 1523     		movs	r3, #21
 1436 0002 0370     		strb	r3, [r0]
 310:..\u8g2-master\csrc/u8g2_d_memory.c ****   return buf;
 311:..\u8g2-master\csrc/u8g2_d_memory.c **** }
 1437              		.loc 1 311 0
 1438 0004 0048     		ldr	r0, .L152
 1439              	.LVL101:
 1440 0006 7047     		bx	lr
 1441              	.L153:
 1442              		.align	2
 1443              	.L152:
 1444 0008 70890000 		.word	.LANCHOR6+432
 1445              		.cfi_endproc
 1446              	.LFE50:
 1447              		.size	u8g2_m_18_21_f, .-u8g2_m_18_21_f
 1448              		.section	.text.u8g2_m_13_8_1,"ax",%progbits
 1449              		.align	2
 1450              		.global	u8g2_m_13_8_1
 1451              		.thumb
 1452              		.thumb_func
 1453              		.type	u8g2_m_13_8_1, %function
 1454              	u8g2_m_13_8_1:
 1455              	.LFB51:
 312:..\u8g2-master\csrc/u8g2_d_memory.c **** uint8_t *u8g2_m_13_8_1(uint8_t *page_cnt)
ARM GAS  C:\Users\info\AppData\Local\Temp\ccfHjuLM.s 			page 32


 313:..\u8g2-master\csrc/u8g2_d_memory.c **** {
 1456              		.loc 1 313 0
 1457              		.cfi_startproc
 1458              		@ args = 0, pretend = 0, frame = 0
 1459              		@ frame_needed = 0, uses_anonymous_args = 0
 1460              		@ link register save eliminated.
 1461              	.LVL102:
 314:..\u8g2-master\csrc/u8g2_d_memory.c ****   static uint8_t buf[104];
 315:..\u8g2-master\csrc/u8g2_d_memory.c ****   *page_cnt = 1;
 1462              		.loc 1 315 0
 1463 0000 0123     		movs	r3, #1
 1464 0002 0370     		strb	r3, [r0]
 316:..\u8g2-master\csrc/u8g2_d_memory.c ****   return buf;
 317:..\u8g2-master\csrc/u8g2_d_memory.c **** }
 1465              		.loc 1 317 0
 1466 0004 0048     		ldr	r0, .L155
 1467              	.LVL103:
 1468 0006 7047     		bx	lr
 1469              	.L156:
 1470              		.align	2
 1471              	.L155:
 1472 0008 40950000 		.word	.LANCHOR6+3456
 1473              		.cfi_endproc
 1474              	.LFE51:
 1475              		.size	u8g2_m_13_8_1, .-u8g2_m_13_8_1
 1476              		.section	.text.u8g2_m_13_8_2,"ax",%progbits
 1477              		.align	2
 1478              		.global	u8g2_m_13_8_2
 1479              		.thumb
 1480              		.thumb_func
 1481              		.type	u8g2_m_13_8_2, %function
 1482              	u8g2_m_13_8_2:
 1483              	.LFB52:
 318:..\u8g2-master\csrc/u8g2_d_memory.c **** uint8_t *u8g2_m_13_8_2(uint8_t *page_cnt)
 319:..\u8g2-master\csrc/u8g2_d_memory.c **** {
 1484              		.loc 1 319 0
 1485              		.cfi_startproc
 1486              		@ args = 0, pretend = 0, frame = 0
 1487              		@ frame_needed = 0, uses_anonymous_args = 0
 1488              		@ link register save eliminated.
 1489              	.LVL104:
 320:..\u8g2-master\csrc/u8g2_d_memory.c ****   static uint8_t buf[208];
 321:..\u8g2-master\csrc/u8g2_d_memory.c ****   *page_cnt = 2;
 1490              		.loc 1 321 0
 1491 0000 0223     		movs	r3, #2
 1492 0002 0370     		strb	r3, [r0]
 322:..\u8g2-master\csrc/u8g2_d_memory.c ****   return buf;
 323:..\u8g2-master\csrc/u8g2_d_memory.c **** }
 1493              		.loc 1 323 0
 1494 0004 0048     		ldr	r0, .L158
 1495              	.LVL105:
 1496 0006 7047     		bx	lr
 1497              	.L159:
 1498              		.align	2
 1499              	.L158:
 1500 0008 A8950000 		.word	.LANCHOR6+3560
 1501              		.cfi_endproc
ARM GAS  C:\Users\info\AppData\Local\Temp\ccfHjuLM.s 			page 33


 1502              	.LFE52:
 1503              		.size	u8g2_m_13_8_2, .-u8g2_m_13_8_2
 1504              		.section	.text.u8g2_m_13_8_f,"ax",%progbits
 1505              		.align	2
 1506              		.global	u8g2_m_13_8_f
 1507              		.thumb
 1508              		.thumb_func
 1509              		.type	u8g2_m_13_8_f, %function
 1510              	u8g2_m_13_8_f:
 1511              	.LFB53:
 324:..\u8g2-master\csrc/u8g2_d_memory.c **** uint8_t *u8g2_m_13_8_f(uint8_t *page_cnt)
 325:..\u8g2-master\csrc/u8g2_d_memory.c **** {
 1512              		.loc 1 325 0
 1513              		.cfi_startproc
 1514              		@ args = 0, pretend = 0, frame = 0
 1515              		@ frame_needed = 0, uses_anonymous_args = 0
 1516              		@ link register save eliminated.
 1517              	.LVL106:
 326:..\u8g2-master\csrc/u8g2_d_memory.c ****   static uint8_t buf[832];
 327:..\u8g2-master\csrc/u8g2_d_memory.c ****   *page_cnt = 8;
 1518              		.loc 1 327 0
 1519 0000 0823     		movs	r3, #8
 1520 0002 0370     		strb	r3, [r0]
 328:..\u8g2-master\csrc/u8g2_d_memory.c ****   return buf;
 329:..\u8g2-master\csrc/u8g2_d_memory.c **** }
 1521              		.loc 1 329 0
 1522 0004 0048     		ldr	r0, .L161
 1523              	.LVL107:
 1524 0006 7047     		bx	lr
 1525              	.L162:
 1526              		.align	2
 1527              	.L161:
 1528 0008 78960000 		.word	.LANCHOR6+3768
 1529              		.cfi_endproc
 1530              	.LFE53:
 1531              		.size	u8g2_m_13_8_f, .-u8g2_m_13_8_f
 1532              		.section	.text.u8g2_m_11_6_1,"ax",%progbits
 1533              		.align	2
 1534              		.global	u8g2_m_11_6_1
 1535              		.thumb
 1536              		.thumb_func
 1537              		.type	u8g2_m_11_6_1, %function
 1538              	u8g2_m_11_6_1:
 1539              	.LFB54:
 330:..\u8g2-master\csrc/u8g2_d_memory.c **** uint8_t *u8g2_m_11_6_1(uint8_t *page_cnt)
 331:..\u8g2-master\csrc/u8g2_d_memory.c **** {
 1540              		.loc 1 331 0
 1541              		.cfi_startproc
 1542              		@ args = 0, pretend = 0, frame = 0
 1543              		@ frame_needed = 0, uses_anonymous_args = 0
 1544              		@ link register save eliminated.
 1545              	.LVL108:
 332:..\u8g2-master\csrc/u8g2_d_memory.c ****   static uint8_t buf[88];
 333:..\u8g2-master\csrc/u8g2_d_memory.c ****   *page_cnt = 1;
 1546              		.loc 1 333 0
 1547 0000 0123     		movs	r3, #1
 1548 0002 0370     		strb	r3, [r0]
ARM GAS  C:\Users\info\AppData\Local\Temp\ccfHjuLM.s 			page 34


 334:..\u8g2-master\csrc/u8g2_d_memory.c ****   return buf;
 335:..\u8g2-master\csrc/u8g2_d_memory.c **** }
 1549              		.loc 1 335 0
 1550 0004 0048     		ldr	r0, .L164
 1551              	.LVL109:
 1552 0006 7047     		bx	lr
 1553              	.L165:
 1554              		.align	2
 1555              	.L164:
 1556 0008 B8990000 		.word	.LANCHOR7+256
 1557              		.cfi_endproc
 1558              	.LFE54:
 1559              		.size	u8g2_m_11_6_1, .-u8g2_m_11_6_1
 1560              		.section	.text.u8g2_m_11_6_2,"ax",%progbits
 1561              		.align	2
 1562              		.global	u8g2_m_11_6_2
 1563              		.thumb
 1564              		.thumb_func
 1565              		.type	u8g2_m_11_6_2, %function
 1566              	u8g2_m_11_6_2:
 1567              	.LFB55:
 336:..\u8g2-master\csrc/u8g2_d_memory.c **** uint8_t *u8g2_m_11_6_2(uint8_t *page_cnt)
 337:..\u8g2-master\csrc/u8g2_d_memory.c **** {
 1568              		.loc 1 337 0
 1569              		.cfi_startproc
 1570              		@ args = 0, pretend = 0, frame = 0
 1571              		@ frame_needed = 0, uses_anonymous_args = 0
 1572              		@ link register save eliminated.
 1573              	.LVL110:
 338:..\u8g2-master\csrc/u8g2_d_memory.c ****   static uint8_t buf[176];
 339:..\u8g2-master\csrc/u8g2_d_memory.c ****   *page_cnt = 2;
 1574              		.loc 1 339 0
 1575 0000 0223     		movs	r3, #2
 1576 0002 0370     		strb	r3, [r0]
 340:..\u8g2-master\csrc/u8g2_d_memory.c ****   return buf;
 341:..\u8g2-master\csrc/u8g2_d_memory.c **** }
 1577              		.loc 1 341 0
 1578 0004 0048     		ldr	r0, .L167
 1579              	.LVL111:
 1580 0006 7047     		bx	lr
 1581              	.L168:
 1582              		.align	2
 1583              	.L167:
 1584 0008 109A0000 		.word	.LANCHOR7+344
 1585              		.cfi_endproc
 1586              	.LFE55:
 1587              		.size	u8g2_m_11_6_2, .-u8g2_m_11_6_2
 1588              		.section	.text.u8g2_m_11_6_f,"ax",%progbits
 1589              		.align	2
 1590              		.global	u8g2_m_11_6_f
 1591              		.thumb
 1592              		.thumb_func
 1593              		.type	u8g2_m_11_6_f, %function
 1594              	u8g2_m_11_6_f:
 1595              	.LFB56:
 342:..\u8g2-master\csrc/u8g2_d_memory.c **** uint8_t *u8g2_m_11_6_f(uint8_t *page_cnt)
 343:..\u8g2-master\csrc/u8g2_d_memory.c **** {
ARM GAS  C:\Users\info\AppData\Local\Temp\ccfHjuLM.s 			page 35


 1596              		.loc 1 343 0
 1597              		.cfi_startproc
 1598              		@ args = 0, pretend = 0, frame = 0
 1599              		@ frame_needed = 0, uses_anonymous_args = 0
 1600              		@ link register save eliminated.
 1601              	.LVL112:
 344:..\u8g2-master\csrc/u8g2_d_memory.c ****   static uint8_t buf[528];
 345:..\u8g2-master\csrc/u8g2_d_memory.c ****   *page_cnt = 6;
 1602              		.loc 1 345 0
 1603 0000 0623     		movs	r3, #6
 1604 0002 0370     		strb	r3, [r0]
 346:..\u8g2-master\csrc/u8g2_d_memory.c ****   return buf;
 347:..\u8g2-master\csrc/u8g2_d_memory.c **** }
 1605              		.loc 1 347 0
 1606 0004 0048     		ldr	r0, .L170
 1607              	.LVL113:
 1608 0006 7047     		bx	lr
 1609              	.L171:
 1610              		.align	2
 1611              	.L170:
 1612 0008 C09A0000 		.word	.LANCHOR7+520
 1613              		.cfi_endproc
 1614              	.LFE56:
 1615              		.size	u8g2_m_11_6_f, .-u8g2_m_11_6_f
 1616              		.section	.text.u8g2_m_12_9_1,"ax",%progbits
 1617              		.align	2
 1618              		.global	u8g2_m_12_9_1
 1619              		.thumb
 1620              		.thumb_func
 1621              		.type	u8g2_m_12_9_1, %function
 1622              	u8g2_m_12_9_1:
 1623              	.LFB57:
 348:..\u8g2-master\csrc/u8g2_d_memory.c **** uint8_t *u8g2_m_12_9_1(uint8_t *page_cnt)
 349:..\u8g2-master\csrc/u8g2_d_memory.c **** {
 1624              		.loc 1 349 0
 1625              		.cfi_startproc
 1626              		@ args = 0, pretend = 0, frame = 0
 1627              		@ frame_needed = 0, uses_anonymous_args = 0
 1628              		@ link register save eliminated.
 1629              	.LVL114:
 350:..\u8g2-master\csrc/u8g2_d_memory.c ****   static uint8_t buf[96];
 351:..\u8g2-master\csrc/u8g2_d_memory.c ****   *page_cnt = 1;
 1630              		.loc 1 351 0
 1631 0000 0123     		movs	r3, #1
 1632 0002 0370     		strb	r3, [r0]
 352:..\u8g2-master\csrc/u8g2_d_memory.c ****   return buf;
 353:..\u8g2-master\csrc/u8g2_d_memory.c **** }
 1633              		.loc 1 353 0
 1634 0004 0048     		ldr	r0, .L173
 1635              	.LVL115:
 1636 0006 7047     		bx	lr
 1637              	.L174:
 1638              		.align	2
 1639              	.L173:
 1640 0008 D09C0000 		.word	.LANCHOR7+1048
 1641              		.cfi_endproc
 1642              	.LFE57:
ARM GAS  C:\Users\info\AppData\Local\Temp\ccfHjuLM.s 			page 36


 1643              		.size	u8g2_m_12_9_1, .-u8g2_m_12_9_1
 1644              		.section	.text.u8g2_m_12_9_2,"ax",%progbits
 1645              		.align	2
 1646              		.global	u8g2_m_12_9_2
 1647              		.thumb
 1648              		.thumb_func
 1649              		.type	u8g2_m_12_9_2, %function
 1650              	u8g2_m_12_9_2:
 1651              	.LFB58:
 354:..\u8g2-master\csrc/u8g2_d_memory.c **** uint8_t *u8g2_m_12_9_2(uint8_t *page_cnt)
 355:..\u8g2-master\csrc/u8g2_d_memory.c **** {
 1652              		.loc 1 355 0
 1653              		.cfi_startproc
 1654              		@ args = 0, pretend = 0, frame = 0
 1655              		@ frame_needed = 0, uses_anonymous_args = 0
 1656              		@ link register save eliminated.
 1657              	.LVL116:
 356:..\u8g2-master\csrc/u8g2_d_memory.c ****   static uint8_t buf[192];
 357:..\u8g2-master\csrc/u8g2_d_memory.c ****   *page_cnt = 2;
 1658              		.loc 1 357 0
 1659 0000 0223     		movs	r3, #2
 1660 0002 0370     		strb	r3, [r0]
 358:..\u8g2-master\csrc/u8g2_d_memory.c ****   return buf;
 359:..\u8g2-master\csrc/u8g2_d_memory.c **** }
 1661              		.loc 1 359 0
 1662 0004 0048     		ldr	r0, .L176
 1663              	.LVL117:
 1664 0006 7047     		bx	lr
 1665              	.L177:
 1666              		.align	2
 1667              	.L176:
 1668 0008 309D0000 		.word	.LANCHOR7+1144
 1669              		.cfi_endproc
 1670              	.LFE58:
 1671              		.size	u8g2_m_12_9_2, .-u8g2_m_12_9_2
 1672              		.section	.text.u8g2_m_12_9_f,"ax",%progbits
 1673              		.align	2
 1674              		.global	u8g2_m_12_9_f
 1675              		.thumb
 1676              		.thumb_func
 1677              		.type	u8g2_m_12_9_f, %function
 1678              	u8g2_m_12_9_f:
 1679              	.LFB59:
 360:..\u8g2-master\csrc/u8g2_d_memory.c **** uint8_t *u8g2_m_12_9_f(uint8_t *page_cnt)
 361:..\u8g2-master\csrc/u8g2_d_memory.c **** {
 1680              		.loc 1 361 0
 1681              		.cfi_startproc
 1682              		@ args = 0, pretend = 0, frame = 0
 1683              		@ frame_needed = 0, uses_anonymous_args = 0
 1684              		@ link register save eliminated.
 1685              	.LVL118:
 362:..\u8g2-master\csrc/u8g2_d_memory.c ****   static uint8_t buf[864];
 363:..\u8g2-master\csrc/u8g2_d_memory.c ****   *page_cnt = 9;
 1686              		.loc 1 363 0
 1687 0000 0923     		movs	r3, #9
 1688 0002 0370     		strb	r3, [r0]
 364:..\u8g2-master\csrc/u8g2_d_memory.c ****   return buf;
ARM GAS  C:\Users\info\AppData\Local\Temp\ccfHjuLM.s 			page 37


 365:..\u8g2-master\csrc/u8g2_d_memory.c **** }
 1689              		.loc 1 365 0
 1690 0004 0048     		ldr	r0, .L179
 1691              	.LVL119:
 1692 0006 7047     		bx	lr
 1693              	.L180:
 1694              		.align	2
 1695              	.L179:
 1696 0008 F09D0000 		.word	.LANCHOR7+1336
 1697              		.cfi_endproc
 1698              	.LFE59:
 1699              		.size	u8g2_m_12_9_f, .-u8g2_m_12_9_f
 1700              		.section	.text.u8g2_m_24_8_1,"ax",%progbits
 1701              		.align	2
 1702              		.global	u8g2_m_24_8_1
 1703              		.thumb
 1704              		.thumb_func
 1705              		.type	u8g2_m_24_8_1, %function
 1706              	u8g2_m_24_8_1:
 1707              	.LFB60:
 366:..\u8g2-master\csrc/u8g2_d_memory.c **** uint8_t *u8g2_m_24_8_1(uint8_t *page_cnt)
 367:..\u8g2-master\csrc/u8g2_d_memory.c **** {
 1708              		.loc 1 367 0
 1709              		.cfi_startproc
 1710              		@ args = 0, pretend = 0, frame = 0
 1711              		@ frame_needed = 0, uses_anonymous_args = 0
 1712              		@ link register save eliminated.
 1713              	.LVL120:
 368:..\u8g2-master\csrc/u8g2_d_memory.c ****   static uint8_t buf[192];
 369:..\u8g2-master\csrc/u8g2_d_memory.c ****   *page_cnt = 1;
 1714              		.loc 1 369 0
 1715 0000 0123     		movs	r3, #1
 1716 0002 0370     		strb	r3, [r0]
 370:..\u8g2-master\csrc/u8g2_d_memory.c ****   return buf;
 371:..\u8g2-master\csrc/u8g2_d_memory.c **** }
 1717              		.loc 1 371 0
 1718 0004 0048     		ldr	r0, .L182
 1719              	.LVL121:
 1720 0006 7047     		bx	lr
 1721              	.L183:
 1722              		.align	2
 1723              	.L182:
 1724 0008 50A10000 		.word	.LANCHOR7+2200
 1725              		.cfi_endproc
 1726              	.LFE60:
 1727              		.size	u8g2_m_24_8_1, .-u8g2_m_24_8_1
 1728              		.section	.text.u8g2_m_24_8_2,"ax",%progbits
 1729              		.align	2
 1730              		.global	u8g2_m_24_8_2
 1731              		.thumb
 1732              		.thumb_func
 1733              		.type	u8g2_m_24_8_2, %function
 1734              	u8g2_m_24_8_2:
 1735              	.LFB61:
 372:..\u8g2-master\csrc/u8g2_d_memory.c **** uint8_t *u8g2_m_24_8_2(uint8_t *page_cnt)
 373:..\u8g2-master\csrc/u8g2_d_memory.c **** {
 1736              		.loc 1 373 0
ARM GAS  C:\Users\info\AppData\Local\Temp\ccfHjuLM.s 			page 38


 1737              		.cfi_startproc
 1738              		@ args = 0, pretend = 0, frame = 0
 1739              		@ frame_needed = 0, uses_anonymous_args = 0
 1740              		@ link register save eliminated.
 1741              	.LVL122:
 374:..\u8g2-master\csrc/u8g2_d_memory.c ****   static uint8_t buf[384];
 375:..\u8g2-master\csrc/u8g2_d_memory.c ****   *page_cnt = 2;
 1742              		.loc 1 375 0
 1743 0000 0223     		movs	r3, #2
 1744 0002 0370     		strb	r3, [r0]
 376:..\u8g2-master\csrc/u8g2_d_memory.c ****   return buf;
 377:..\u8g2-master\csrc/u8g2_d_memory.c **** }
 1745              		.loc 1 377 0
 1746 0004 0048     		ldr	r0, .L185
 1747              	.LVL123:
 1748 0006 7047     		bx	lr
 1749              	.L186:
 1750              		.align	2
 1751              	.L185:
 1752 0008 10A20000 		.word	.LANCHOR7+2392
 1753              		.cfi_endproc
 1754              	.LFE61:
 1755              		.size	u8g2_m_24_8_2, .-u8g2_m_24_8_2
 1756              		.section	.text.u8g2_m_24_8_f,"ax",%progbits
 1757              		.align	2
 1758              		.global	u8g2_m_24_8_f
 1759              		.thumb
 1760              		.thumb_func
 1761              		.type	u8g2_m_24_8_f, %function
 1762              	u8g2_m_24_8_f:
 1763              	.LFB62:
 378:..\u8g2-master\csrc/u8g2_d_memory.c **** uint8_t *u8g2_m_24_8_f(uint8_t *page_cnt)
 379:..\u8g2-master\csrc/u8g2_d_memory.c **** {
 1764              		.loc 1 379 0
 1765              		.cfi_startproc
 1766              		@ args = 0, pretend = 0, frame = 0
 1767              		@ frame_needed = 0, uses_anonymous_args = 0
 1768              		@ link register save eliminated.
 1769              	.LVL124:
 380:..\u8g2-master\csrc/u8g2_d_memory.c ****   static uint8_t buf[1536];
 381:..\u8g2-master\csrc/u8g2_d_memory.c ****   *page_cnt = 8;
 1770              		.loc 1 381 0
 1771 0000 0823     		movs	r3, #8
 1772 0002 0370     		strb	r3, [r0]
 382:..\u8g2-master\csrc/u8g2_d_memory.c ****   return buf;
 383:..\u8g2-master\csrc/u8g2_d_memory.c **** }
 1773              		.loc 1 383 0
 1774 0004 0048     		ldr	r0, .L188
 1775              	.LVL125:
 1776 0006 7047     		bx	lr
 1777              	.L189:
 1778              		.align	2
 1779              	.L188:
 1780 0008 90A30000 		.word	.LANCHOR7+2776
 1781              		.cfi_endproc
 1782              	.LFE62:
 1783              		.size	u8g2_m_24_8_f, .-u8g2_m_24_8_f
ARM GAS  C:\Users\info\AppData\Local\Temp\ccfHjuLM.s 			page 39


 1784              		.section	.text.u8g2_m_30_8_1,"ax",%progbits
 1785              		.align	2
 1786              		.global	u8g2_m_30_8_1
 1787              		.thumb
 1788              		.thumb_func
 1789              		.type	u8g2_m_30_8_1, %function
 1790              	u8g2_m_30_8_1:
 1791              	.LFB63:
 384:..\u8g2-master\csrc/u8g2_d_memory.c **** uint8_t *u8g2_m_30_8_1(uint8_t *page_cnt)
 385:..\u8g2-master\csrc/u8g2_d_memory.c **** {
 1792              		.loc 1 385 0
 1793              		.cfi_startproc
 1794              		@ args = 0, pretend = 0, frame = 0
 1795              		@ frame_needed = 0, uses_anonymous_args = 0
 1796              		@ link register save eliminated.
 1797              	.LVL126:
 386:..\u8g2-master\csrc/u8g2_d_memory.c ****   static uint8_t buf[240];
 387:..\u8g2-master\csrc/u8g2_d_memory.c ****   *page_cnt = 1;
 1798              		.loc 1 387 0
 1799 0000 0123     		movs	r3, #1
 1800 0002 0370     		strb	r3, [r0]
 388:..\u8g2-master\csrc/u8g2_d_memory.c ****   return buf;
 389:..\u8g2-master\csrc/u8g2_d_memory.c **** }
 1801              		.loc 1 389 0
 1802 0004 0048     		ldr	r0, .L191
 1803              	.LVL127:
 1804 0006 7047     		bx	lr
 1805              	.L192:
 1806              		.align	2
 1807              	.L191:
 1808 0008 90A90000 		.word	.LANCHOR8-32
 1809              		.cfi_endproc
 1810              	.LFE63:
 1811              		.size	u8g2_m_30_8_1, .-u8g2_m_30_8_1
 1812              		.section	.text.u8g2_m_30_8_2,"ax",%progbits
 1813              		.align	2
 1814              		.global	u8g2_m_30_8_2
 1815              		.thumb
 1816              		.thumb_func
 1817              		.type	u8g2_m_30_8_2, %function
 1818              	u8g2_m_30_8_2:
 1819              	.LFB64:
 390:..\u8g2-master\csrc/u8g2_d_memory.c **** uint8_t *u8g2_m_30_8_2(uint8_t *page_cnt)
 391:..\u8g2-master\csrc/u8g2_d_memory.c **** {
 1820              		.loc 1 391 0
 1821              		.cfi_startproc
 1822              		@ args = 0, pretend = 0, frame = 0
 1823              		@ frame_needed = 0, uses_anonymous_args = 0
 1824              		@ link register save eliminated.
 1825              	.LVL128:
 392:..\u8g2-master\csrc/u8g2_d_memory.c ****   static uint8_t buf[480];
 393:..\u8g2-master\csrc/u8g2_d_memory.c ****   *page_cnt = 2;
 1826              		.loc 1 393 0
 1827 0000 0223     		movs	r3, #2
 1828 0002 0370     		strb	r3, [r0]
 394:..\u8g2-master\csrc/u8g2_d_memory.c ****   return buf;
 395:..\u8g2-master\csrc/u8g2_d_memory.c **** }
ARM GAS  C:\Users\info\AppData\Local\Temp\ccfHjuLM.s 			page 40


 1829              		.loc 1 395 0
 1830 0004 0048     		ldr	r0, .L194
 1831              	.LVL129:
 1832 0006 7047     		bx	lr
 1833              	.L195:
 1834              		.align	2
 1835              	.L194:
 1836 0008 80AA0000 		.word	.LANCHOR8+208
 1837              		.cfi_endproc
 1838              	.LFE64:
 1839              		.size	u8g2_m_30_8_2, .-u8g2_m_30_8_2
 1840              		.section	.text.u8g2_m_30_8_f,"ax",%progbits
 1841              		.align	2
 1842              		.global	u8g2_m_30_8_f
 1843              		.thumb
 1844              		.thumb_func
 1845              		.type	u8g2_m_30_8_f, %function
 1846              	u8g2_m_30_8_f:
 1847              	.LFB65:
 396:..\u8g2-master\csrc/u8g2_d_memory.c **** uint8_t *u8g2_m_30_8_f(uint8_t *page_cnt)
 397:..\u8g2-master\csrc/u8g2_d_memory.c **** {
 1848              		.loc 1 397 0
 1849              		.cfi_startproc
 1850              		@ args = 0, pretend = 0, frame = 0
 1851              		@ frame_needed = 0, uses_anonymous_args = 0
 1852              		@ link register save eliminated.
 1853              	.LVL130:
 398:..\u8g2-master\csrc/u8g2_d_memory.c ****   static uint8_t buf[1920];
 399:..\u8g2-master\csrc/u8g2_d_memory.c ****   *page_cnt = 8;
 1854              		.loc 1 399 0
 1855 0000 0823     		movs	r3, #8
 1856 0002 0370     		strb	r3, [r0]
 400:..\u8g2-master\csrc/u8g2_d_memory.c ****   return buf;
 401:..\u8g2-master\csrc/u8g2_d_memory.c **** }
 1857              		.loc 1 401 0
 1858 0004 0048     		ldr	r0, .L197
 1859              	.LVL131:
 1860 0006 7047     		bx	lr
 1861              	.L198:
 1862              		.align	2
 1863              	.L197:
 1864 0008 60AC0000 		.word	.LANCHOR8+688
 1865              		.cfi_endproc
 1866              	.LFE65:
 1867              		.size	u8g2_m_30_8_f, .-u8g2_m_30_8_f
 1868              		.section	.text.u8g2_m_30_15_1,"ax",%progbits
 1869              		.align	2
 1870              		.global	u8g2_m_30_15_1
 1871              		.thumb
 1872              		.thumb_func
 1873              		.type	u8g2_m_30_15_1, %function
 1874              	u8g2_m_30_15_1:
 1875              	.LFB66:
 402:..\u8g2-master\csrc/u8g2_d_memory.c **** uint8_t *u8g2_m_30_15_1(uint8_t *page_cnt)
 403:..\u8g2-master\csrc/u8g2_d_memory.c **** {
 1876              		.loc 1 403 0
 1877              		.cfi_startproc
ARM GAS  C:\Users\info\AppData\Local\Temp\ccfHjuLM.s 			page 41


 1878              		@ args = 0, pretend = 0, frame = 0
 1879              		@ frame_needed = 0, uses_anonymous_args = 0
 1880              		@ link register save eliminated.
 1881              	.LVL132:
 404:..\u8g2-master\csrc/u8g2_d_memory.c ****   static uint8_t buf[240];
 405:..\u8g2-master\csrc/u8g2_d_memory.c ****   *page_cnt = 1;
 1882              		.loc 1 405 0
 1883 0000 0123     		movs	r3, #1
 1884 0002 0370     		strb	r3, [r0]
 406:..\u8g2-master\csrc/u8g2_d_memory.c ****   return buf;
 407:..\u8g2-master\csrc/u8g2_d_memory.c **** }
 1885              		.loc 1 407 0
 1886 0004 0048     		ldr	r0, .L200
 1887              	.LVL133:
 1888 0006 7047     		bx	lr
 1889              	.L201:
 1890              		.align	2
 1891              	.L200:
 1892 0008 E0B30000 		.word	.LANCHOR8+2608
 1893              		.cfi_endproc
 1894              	.LFE66:
 1895              		.size	u8g2_m_30_15_1, .-u8g2_m_30_15_1
 1896              		.section	.text.u8g2_m_30_15_2,"ax",%progbits
 1897              		.align	2
 1898              		.global	u8g2_m_30_15_2
 1899              		.thumb
 1900              		.thumb_func
 1901              		.type	u8g2_m_30_15_2, %function
 1902              	u8g2_m_30_15_2:
 1903              	.LFB67:
 408:..\u8g2-master\csrc/u8g2_d_memory.c **** uint8_t *u8g2_m_30_15_2(uint8_t *page_cnt)
 409:..\u8g2-master\csrc/u8g2_d_memory.c **** {
 1904              		.loc 1 409 0
 1905              		.cfi_startproc
 1906              		@ args = 0, pretend = 0, frame = 0
 1907              		@ frame_needed = 0, uses_anonymous_args = 0
 1908              		@ link register save eliminated.
 1909              	.LVL134:
 410:..\u8g2-master\csrc/u8g2_d_memory.c ****   static uint8_t buf[480];
 411:..\u8g2-master\csrc/u8g2_d_memory.c ****   *page_cnt = 2;
 1910              		.loc 1 411 0
 1911 0000 0223     		movs	r3, #2
 1912 0002 0370     		strb	r3, [r0]
 412:..\u8g2-master\csrc/u8g2_d_memory.c ****   return buf;
 413:..\u8g2-master\csrc/u8g2_d_memory.c **** }
 1913              		.loc 1 413 0
 1914 0004 0048     		ldr	r0, .L203
 1915              	.LVL135:
 1916 0006 7047     		bx	lr
 1917              	.L204:
 1918              		.align	2
 1919              	.L203:
 1920 0008 D0B40000 		.word	.LANCHOR8+2848
 1921              		.cfi_endproc
 1922              	.LFE67:
 1923              		.size	u8g2_m_30_15_2, .-u8g2_m_30_15_2
 1924              		.section	.text.u8g2_m_30_15_f,"ax",%progbits
ARM GAS  C:\Users\info\AppData\Local\Temp\ccfHjuLM.s 			page 42


 1925              		.align	2
 1926              		.global	u8g2_m_30_15_f
 1927              		.thumb
 1928              		.thumb_func
 1929              		.type	u8g2_m_30_15_f, %function
 1930              	u8g2_m_30_15_f:
 1931              	.LFB68:
 414:..\u8g2-master\csrc/u8g2_d_memory.c **** uint8_t *u8g2_m_30_15_f(uint8_t *page_cnt)
 415:..\u8g2-master\csrc/u8g2_d_memory.c **** {
 1932              		.loc 1 415 0
 1933              		.cfi_startproc
 1934              		@ args = 0, pretend = 0, frame = 0
 1935              		@ frame_needed = 0, uses_anonymous_args = 0
 1936              		@ link register save eliminated.
 1937              	.LVL136:
 416:..\u8g2-master\csrc/u8g2_d_memory.c ****   static uint8_t buf[3600];
 417:..\u8g2-master\csrc/u8g2_d_memory.c ****   *page_cnt = 15;
 1938              		.loc 1 417 0
 1939 0000 0F23     		movs	r3, #15
 1940 0002 0370     		strb	r3, [r0]
 418:..\u8g2-master\csrc/u8g2_d_memory.c ****   return buf;
 419:..\u8g2-master\csrc/u8g2_d_memory.c **** }
 1941              		.loc 1 419 0
 1942 0004 0048     		ldr	r0, .L206
 1943              	.LVL137:
 1944 0006 7047     		bx	lr
 1945              	.L207:
 1946              		.align	2
 1947              	.L206:
 1948 0008 B0B60000 		.word	.LANCHOR8+3328
 1949              		.cfi_endproc
 1950              	.LFE68:
 1951              		.size	u8g2_m_30_15_f, .-u8g2_m_30_15_f
 1952              		.section	.text.u8g2_m_30_16_1,"ax",%progbits
 1953              		.align	2
 1954              		.global	u8g2_m_30_16_1
 1955              		.thumb
 1956              		.thumb_func
 1957              		.type	u8g2_m_30_16_1, %function
 1958              	u8g2_m_30_16_1:
 1959              	.LFB69:
 420:..\u8g2-master\csrc/u8g2_d_memory.c **** uint8_t *u8g2_m_30_16_1(uint8_t *page_cnt)
 421:..\u8g2-master\csrc/u8g2_d_memory.c **** {
 1960              		.loc 1 421 0
 1961              		.cfi_startproc
 1962              		@ args = 0, pretend = 0, frame = 0
 1963              		@ frame_needed = 0, uses_anonymous_args = 0
 1964              		@ link register save eliminated.
 1965              	.LVL138:
 422:..\u8g2-master\csrc/u8g2_d_memory.c ****   static uint8_t buf[240];
 423:..\u8g2-master\csrc/u8g2_d_memory.c ****   *page_cnt = 1;
 1966              		.loc 1 423 0
 1967 0000 0123     		movs	r3, #1
 1968 0002 0370     		strb	r3, [r0]
 424:..\u8g2-master\csrc/u8g2_d_memory.c ****   return buf;
 425:..\u8g2-master\csrc/u8g2_d_memory.c **** }
 1969              		.loc 1 425 0
ARM GAS  C:\Users\info\AppData\Local\Temp\ccfHjuLM.s 			page 43


 1970 0004 0048     		ldr	r0, .L209
 1971              	.LVL139:
 1972 0006 7047     		bx	lr
 1973              	.L210:
 1974              		.align	2
 1975              	.L209:
 1976 0008 C0C40000 		.word	.LANCHOR9+2584
 1977              		.cfi_endproc
 1978              	.LFE69:
 1979              		.size	u8g2_m_30_16_1, .-u8g2_m_30_16_1
 1980              		.section	.text.u8g2_m_30_16_2,"ax",%progbits
 1981              		.align	2
 1982              		.global	u8g2_m_30_16_2
 1983              		.thumb
 1984              		.thumb_func
 1985              		.type	u8g2_m_30_16_2, %function
 1986              	u8g2_m_30_16_2:
 1987              	.LFB70:
 426:..\u8g2-master\csrc/u8g2_d_memory.c **** uint8_t *u8g2_m_30_16_2(uint8_t *page_cnt)
 427:..\u8g2-master\csrc/u8g2_d_memory.c **** {
 1988              		.loc 1 427 0
 1989              		.cfi_startproc
 1990              		@ args = 0, pretend = 0, frame = 0
 1991              		@ frame_needed = 0, uses_anonymous_args = 0
 1992              		@ link register save eliminated.
 1993              	.LVL140:
 428:..\u8g2-master\csrc/u8g2_d_memory.c ****   static uint8_t buf[480];
 429:..\u8g2-master\csrc/u8g2_d_memory.c ****   *page_cnt = 2;
 1994              		.loc 1 429 0
 1995 0000 0223     		movs	r3, #2
 1996 0002 0370     		strb	r3, [r0]
 430:..\u8g2-master\csrc/u8g2_d_memory.c ****   return buf;
 431:..\u8g2-master\csrc/u8g2_d_memory.c **** }
 1997              		.loc 1 431 0
 1998 0004 0048     		ldr	r0, .L212
 1999              	.LVL141:
 2000 0006 7047     		bx	lr
 2001              	.L213:
 2002              		.align	2
 2003              	.L212:
 2004 0008 B0C50000 		.word	.LANCHOR9+2824
 2005              		.cfi_endproc
 2006              	.LFE70:
 2007              		.size	u8g2_m_30_16_2, .-u8g2_m_30_16_2
 2008              		.section	.text.u8g2_m_30_16_f,"ax",%progbits
 2009              		.align	2
 2010              		.global	u8g2_m_30_16_f
 2011              		.thumb
 2012              		.thumb_func
 2013              		.type	u8g2_m_30_16_f, %function
 2014              	u8g2_m_30_16_f:
 2015              	.LFB71:
 432:..\u8g2-master\csrc/u8g2_d_memory.c **** uint8_t *u8g2_m_30_16_f(uint8_t *page_cnt)
 433:..\u8g2-master\csrc/u8g2_d_memory.c **** {
 2016              		.loc 1 433 0
 2017              		.cfi_startproc
 2018              		@ args = 0, pretend = 0, frame = 0
ARM GAS  C:\Users\info\AppData\Local\Temp\ccfHjuLM.s 			page 44


 2019              		@ frame_needed = 0, uses_anonymous_args = 0
 2020              		@ link register save eliminated.
 2021              	.LVL142:
 434:..\u8g2-master\csrc/u8g2_d_memory.c ****   static uint8_t buf[3840];
 435:..\u8g2-master\csrc/u8g2_d_memory.c ****   *page_cnt = 16;
 2022              		.loc 1 435 0
 2023 0000 1023     		movs	r3, #16
 2024 0002 0370     		strb	r3, [r0]
 436:..\u8g2-master\csrc/u8g2_d_memory.c ****   return buf;
 437:..\u8g2-master\csrc/u8g2_d_memory.c **** }
 2025              		.loc 1 437 0
 2026 0004 0048     		ldr	r0, .L215
 2027              	.LVL143:
 2028 0006 7047     		bx	lr
 2029              	.L216:
 2030              		.align	2
 2031              	.L215:
 2032 0008 90C70000 		.word	.LANCHOR9+3304
 2033              		.cfi_endproc
 2034              	.LFE71:
 2035              		.size	u8g2_m_30_16_f, .-u8g2_m_30_16_f
 2036              		.section	.text.u8g2_m_20_16_1,"ax",%progbits
 2037              		.align	2
 2038              		.global	u8g2_m_20_16_1
 2039              		.thumb
 2040              		.thumb_func
 2041              		.type	u8g2_m_20_16_1, %function
 2042              	u8g2_m_20_16_1:
 2043              	.LFB72:
 438:..\u8g2-master\csrc/u8g2_d_memory.c **** uint8_t *u8g2_m_20_16_1(uint8_t *page_cnt)
 439:..\u8g2-master\csrc/u8g2_d_memory.c **** {
 2044              		.loc 1 439 0
 2045              		.cfi_startproc
 2046              		@ args = 0, pretend = 0, frame = 0
 2047              		@ frame_needed = 0, uses_anonymous_args = 0
 2048              		@ link register save eliminated.
 2049              	.LVL144:
 440:..\u8g2-master\csrc/u8g2_d_memory.c ****   static uint8_t buf[160];
 441:..\u8g2-master\csrc/u8g2_d_memory.c ****   *page_cnt = 1;
 2050              		.loc 1 441 0
 2051 0000 0123     		movs	r3, #1
 2052 0002 0370     		strb	r3, [r0]
 442:..\u8g2-master\csrc/u8g2_d_memory.c ****   return buf;
 443:..\u8g2-master\csrc/u8g2_d_memory.c **** }
 2053              		.loc 1 443 0
 2054 0004 0048     		ldr	r0, .L218
 2055              	.LVL145:
 2056 0006 7047     		bx	lr
 2057              	.L219:
 2058              		.align	2
 2059              	.L218:
 2060 0008 90D60000 		.word	.LANCHOR10+2800
 2061              		.cfi_endproc
 2062              	.LFE72:
 2063              		.size	u8g2_m_20_16_1, .-u8g2_m_20_16_1
 2064              		.section	.text.u8g2_m_20_16_2,"ax",%progbits
 2065              		.align	2
ARM GAS  C:\Users\info\AppData\Local\Temp\ccfHjuLM.s 			page 45


 2066              		.global	u8g2_m_20_16_2
 2067              		.thumb
 2068              		.thumb_func
 2069              		.type	u8g2_m_20_16_2, %function
 2070              	u8g2_m_20_16_2:
 2071              	.LFB73:
 444:..\u8g2-master\csrc/u8g2_d_memory.c **** uint8_t *u8g2_m_20_16_2(uint8_t *page_cnt)
 445:..\u8g2-master\csrc/u8g2_d_memory.c **** {
 2072              		.loc 1 445 0
 2073              		.cfi_startproc
 2074              		@ args = 0, pretend = 0, frame = 0
 2075              		@ frame_needed = 0, uses_anonymous_args = 0
 2076              		@ link register save eliminated.
 2077              	.LVL146:
 446:..\u8g2-master\csrc/u8g2_d_memory.c ****   static uint8_t buf[320];
 447:..\u8g2-master\csrc/u8g2_d_memory.c ****   *page_cnt = 2;
 2078              		.loc 1 447 0
 2079 0000 0223     		movs	r3, #2
 2080 0002 0370     		strb	r3, [r0]
 448:..\u8g2-master\csrc/u8g2_d_memory.c ****   return buf;
 449:..\u8g2-master\csrc/u8g2_d_memory.c **** }
 2081              		.loc 1 449 0
 2082 0004 0048     		ldr	r0, .L221
 2083              	.LVL147:
 2084 0006 7047     		bx	lr
 2085              	.L222:
 2086              		.align	2
 2087              	.L221:
 2088 0008 30D70000 		.word	.LANCHOR10+2960
 2089              		.cfi_endproc
 2090              	.LFE73:
 2091              		.size	u8g2_m_20_16_2, .-u8g2_m_20_16_2
 2092              		.section	.text.u8g2_m_20_16_f,"ax",%progbits
 2093              		.align	2
 2094              		.global	u8g2_m_20_16_f
 2095              		.thumb
 2096              		.thumb_func
 2097              		.type	u8g2_m_20_16_f, %function
 2098              	u8g2_m_20_16_f:
 2099              	.LFB74:
 450:..\u8g2-master\csrc/u8g2_d_memory.c **** uint8_t *u8g2_m_20_16_f(uint8_t *page_cnt)
 451:..\u8g2-master\csrc/u8g2_d_memory.c **** {
 2100              		.loc 1 451 0
 2101              		.cfi_startproc
 2102              		@ args = 0, pretend = 0, frame = 0
 2103              		@ frame_needed = 0, uses_anonymous_args = 0
 2104              		@ link register save eliminated.
 2105              	.LVL148:
 452:..\u8g2-master\csrc/u8g2_d_memory.c ****   static uint8_t buf[2560];
 453:..\u8g2-master\csrc/u8g2_d_memory.c ****   *page_cnt = 16;
 2106              		.loc 1 453 0
 2107 0000 1023     		movs	r3, #16
 2108 0002 0370     		strb	r3, [r0]
 454:..\u8g2-master\csrc/u8g2_d_memory.c ****   return buf;
 455:..\u8g2-master\csrc/u8g2_d_memory.c **** }
 2109              		.loc 1 455 0
 2110 0004 0048     		ldr	r0, .L224
ARM GAS  C:\Users\info\AppData\Local\Temp\ccfHjuLM.s 			page 46


 2111              	.LVL149:
 2112 0006 7047     		bx	lr
 2113              	.L225:
 2114              		.align	2
 2115              	.L224:
 2116 0008 70D80000 		.word	.LANCHOR10+3280
 2117              		.cfi_endproc
 2118              	.LFE74:
 2119              		.size	u8g2_m_20_16_f, .-u8g2_m_20_16_f
 2120              		.section	.text.u8g2_m_20_13_1,"ax",%progbits
 2121              		.align	2
 2122              		.global	u8g2_m_20_13_1
 2123              		.thumb
 2124              		.thumb_func
 2125              		.type	u8g2_m_20_13_1, %function
 2126              	u8g2_m_20_13_1:
 2127              	.LFB75:
 456:..\u8g2-master\csrc/u8g2_d_memory.c **** uint8_t *u8g2_m_20_13_1(uint8_t *page_cnt)
 457:..\u8g2-master\csrc/u8g2_d_memory.c **** {
 2128              		.loc 1 457 0
 2129              		.cfi_startproc
 2130              		@ args = 0, pretend = 0, frame = 0
 2131              		@ frame_needed = 0, uses_anonymous_args = 0
 2132              		@ link register save eliminated.
 2133              	.LVL150:
 458:..\u8g2-master\csrc/u8g2_d_memory.c ****   static uint8_t buf[160];
 459:..\u8g2-master\csrc/u8g2_d_memory.c ****   *page_cnt = 1;
 2134              		.loc 1 459 0
 2135 0000 0123     		movs	r3, #1
 2136 0002 0370     		strb	r3, [r0]
 460:..\u8g2-master\csrc/u8g2_d_memory.c ****   return buf;
 461:..\u8g2-master\csrc/u8g2_d_memory.c **** }
 2137              		.loc 1 461 0
 2138 0004 0048     		ldr	r0, .L227
 2139              	.LVL151:
 2140 0006 7047     		bx	lr
 2141              	.L228:
 2142              		.align	2
 2143              	.L227:
 2144 0008 70E20000 		.word	.LANCHOR11+1496
 2145              		.cfi_endproc
 2146              	.LFE75:
 2147              		.size	u8g2_m_20_13_1, .-u8g2_m_20_13_1
 2148              		.section	.text.u8g2_m_20_13_2,"ax",%progbits
 2149              		.align	2
 2150              		.global	u8g2_m_20_13_2
 2151              		.thumb
 2152              		.thumb_func
 2153              		.type	u8g2_m_20_13_2, %function
 2154              	u8g2_m_20_13_2:
 2155              	.LFB76:
 462:..\u8g2-master\csrc/u8g2_d_memory.c **** uint8_t *u8g2_m_20_13_2(uint8_t *page_cnt)
 463:..\u8g2-master\csrc/u8g2_d_memory.c **** {
 2156              		.loc 1 463 0
 2157              		.cfi_startproc
 2158              		@ args = 0, pretend = 0, frame = 0
 2159              		@ frame_needed = 0, uses_anonymous_args = 0
ARM GAS  C:\Users\info\AppData\Local\Temp\ccfHjuLM.s 			page 47


 2160              		@ link register save eliminated.
 2161              	.LVL152:
 464:..\u8g2-master\csrc/u8g2_d_memory.c ****   static uint8_t buf[320];
 465:..\u8g2-master\csrc/u8g2_d_memory.c ****   *page_cnt = 2;
 2162              		.loc 1 465 0
 2163 0000 0223     		movs	r3, #2
 2164 0002 0370     		strb	r3, [r0]
 466:..\u8g2-master\csrc/u8g2_d_memory.c ****   return buf;
 467:..\u8g2-master\csrc/u8g2_d_memory.c **** }
 2165              		.loc 1 467 0
 2166 0004 0048     		ldr	r0, .L230
 2167              	.LVL153:
 2168 0006 7047     		bx	lr
 2169              	.L231:
 2170              		.align	2
 2171              	.L230:
 2172 0008 10E30000 		.word	.LANCHOR11+1656
 2173              		.cfi_endproc
 2174              	.LFE76:
 2175              		.size	u8g2_m_20_13_2, .-u8g2_m_20_13_2
 2176              		.section	.text.u8g2_m_20_13_f,"ax",%progbits
 2177              		.align	2
 2178              		.global	u8g2_m_20_13_f
 2179              		.thumb
 2180              		.thumb_func
 2181              		.type	u8g2_m_20_13_f, %function
 2182              	u8g2_m_20_13_f:
 2183              	.LFB77:
 468:..\u8g2-master\csrc/u8g2_d_memory.c **** uint8_t *u8g2_m_20_13_f(uint8_t *page_cnt)
 469:..\u8g2-master\csrc/u8g2_d_memory.c **** {
 2184              		.loc 1 469 0
 2185              		.cfi_startproc
 2186              		@ args = 0, pretend = 0, frame = 0
 2187              		@ frame_needed = 0, uses_anonymous_args = 0
 2188              		@ link register save eliminated.
 2189              	.LVL154:
 470:..\u8g2-master\csrc/u8g2_d_memory.c ****   static uint8_t buf[2080];
 471:..\u8g2-master\csrc/u8g2_d_memory.c ****   *page_cnt = 13;
 2190              		.loc 1 471 0
 2191 0000 0D23     		movs	r3, #13
 2192 0002 0370     		strb	r3, [r0]
 472:..\u8g2-master\csrc/u8g2_d_memory.c ****   return buf;
 473:..\u8g2-master\csrc/u8g2_d_memory.c **** }
 2193              		.loc 1 473 0
 2194 0004 0048     		ldr	r0, .L233
 2195              	.LVL155:
 2196 0006 7047     		bx	lr
 2197              	.L234:
 2198              		.align	2
 2199              	.L233:
 2200 0008 50E40000 		.word	.LANCHOR11+1976
 2201              		.cfi_endproc
 2202              	.LFE77:
 2203              		.size	u8g2_m_20_13_f, .-u8g2_m_20_13_f
 2204              		.section	.text.u8g2_m_30_20_1,"ax",%progbits
 2205              		.align	2
 2206              		.global	u8g2_m_30_20_1
ARM GAS  C:\Users\info\AppData\Local\Temp\ccfHjuLM.s 			page 48


 2207              		.thumb
 2208              		.thumb_func
 2209              		.type	u8g2_m_30_20_1, %function
 2210              	u8g2_m_30_20_1:
 2211              	.LFB78:
 474:..\u8g2-master\csrc/u8g2_d_memory.c **** uint8_t *u8g2_m_30_20_1(uint8_t *page_cnt)
 475:..\u8g2-master\csrc/u8g2_d_memory.c **** {
 2212              		.loc 1 475 0
 2213              		.cfi_startproc
 2214              		@ args = 0, pretend = 0, frame = 0
 2215              		@ frame_needed = 0, uses_anonymous_args = 0
 2216              		@ link register save eliminated.
 2217              	.LVL156:
 476:..\u8g2-master\csrc/u8g2_d_memory.c ****   static uint8_t buf[240];
 477:..\u8g2-master\csrc/u8g2_d_memory.c ****   *page_cnt = 1;
 2218              		.loc 1 477 0
 2219 0000 0123     		movs	r3, #1
 2220 0002 0370     		strb	r3, [r0]
 478:..\u8g2-master\csrc/u8g2_d_memory.c ****   return buf;
 479:..\u8g2-master\csrc/u8g2_d_memory.c **** }
 2221              		.loc 1 479 0
 2222 0004 0048     		ldr	r0, .L236
 2223              	.LVL157:
 2224 0006 7047     		bx	lr
 2225              	.L237:
 2226              		.align	2
 2227              	.L236:
 2228 0008 70EC0000 		.word	.LANCHOR11+4056
 2229              		.cfi_endproc
 2230              	.LFE78:
 2231              		.size	u8g2_m_30_20_1, .-u8g2_m_30_20_1
 2232              		.section	.text.u8g2_m_30_20_2,"ax",%progbits
 2233              		.align	2
 2234              		.global	u8g2_m_30_20_2
 2235              		.thumb
 2236              		.thumb_func
 2237              		.type	u8g2_m_30_20_2, %function
 2238              	u8g2_m_30_20_2:
 2239              	.LFB79:
 480:..\u8g2-master\csrc/u8g2_d_memory.c **** uint8_t *u8g2_m_30_20_2(uint8_t *page_cnt)
 481:..\u8g2-master\csrc/u8g2_d_memory.c **** {
 2240              		.loc 1 481 0
 2241              		.cfi_startproc
 2242              		@ args = 0, pretend = 0, frame = 0
 2243              		@ frame_needed = 0, uses_anonymous_args = 0
 2244              		@ link register save eliminated.
 2245              	.LVL158:
 482:..\u8g2-master\csrc/u8g2_d_memory.c ****   static uint8_t buf[480];
 483:..\u8g2-master\csrc/u8g2_d_memory.c ****   *page_cnt = 2;
 2246              		.loc 1 483 0
 2247 0000 0223     		movs	r3, #2
 2248 0002 0370     		strb	r3, [r0]
 484:..\u8g2-master\csrc/u8g2_d_memory.c ****   return buf;
 485:..\u8g2-master\csrc/u8g2_d_memory.c **** }
 2249              		.loc 1 485 0
 2250 0004 0048     		ldr	r0, .L239
 2251              	.LVL159:
ARM GAS  C:\Users\info\AppData\Local\Temp\ccfHjuLM.s 			page 49


 2252 0006 7047     		bx	lr
 2253              	.L240:
 2254              		.align	2
 2255              	.L239:
 2256 0008 60ED0000 		.word	.LANCHOR12-48
 2257              		.cfi_endproc
 2258              	.LFE79:
 2259              		.size	u8g2_m_30_20_2, .-u8g2_m_30_20_2
 2260              		.section	.text.u8g2_m_30_20_f,"ax",%progbits
 2261              		.align	2
 2262              		.global	u8g2_m_30_20_f
 2263              		.thumb
 2264              		.thumb_func
 2265              		.type	u8g2_m_30_20_f, %function
 2266              	u8g2_m_30_20_f:
 2267              	.LFB80:
 486:..\u8g2-master\csrc/u8g2_d_memory.c **** uint8_t *u8g2_m_30_20_f(uint8_t *page_cnt)
 487:..\u8g2-master\csrc/u8g2_d_memory.c **** {
 2268              		.loc 1 487 0
 2269              		.cfi_startproc
 2270              		@ args = 0, pretend = 0, frame = 0
 2271              		@ frame_needed = 0, uses_anonymous_args = 0
 2272              		@ link register save eliminated.
 2273              	.LVL160:
 488:..\u8g2-master\csrc/u8g2_d_memory.c ****   static uint8_t buf[4800];
 489:..\u8g2-master\csrc/u8g2_d_memory.c ****   *page_cnt = 20;
 2274              		.loc 1 489 0
 2275 0000 1423     		movs	r3, #20
 2276 0002 0370     		strb	r3, [r0]
 490:..\u8g2-master\csrc/u8g2_d_memory.c ****   return buf;
 491:..\u8g2-master\csrc/u8g2_d_memory.c **** }
 2277              		.loc 1 491 0
 2278 0004 0048     		ldr	r0, .L242
 2279              	.LVL161:
 2280 0006 7047     		bx	lr
 2281              	.L243:
 2282              		.align	2
 2283              	.L242:
 2284 0008 40EF0000 		.word	.LANCHOR12+432
 2285              		.cfi_endproc
 2286              	.LFE80:
 2287              		.size	u8g2_m_30_20_f, .-u8g2_m_30_20_f
 2288              		.section	.text.u8g2_m_40_30_1,"ax",%progbits
 2289              		.align	2
 2290              		.global	u8g2_m_40_30_1
 2291              		.thumb
 2292              		.thumb_func
 2293              		.type	u8g2_m_40_30_1, %function
 2294              	u8g2_m_40_30_1:
 2295              	.LFB81:
 492:..\u8g2-master\csrc/u8g2_d_memory.c **** uint8_t *u8g2_m_40_30_1(uint8_t *page_cnt)
 493:..\u8g2-master\csrc/u8g2_d_memory.c **** {
 2296              		.loc 1 493 0
 2297              		.cfi_startproc
 2298              		@ args = 0, pretend = 0, frame = 0
 2299              		@ frame_needed = 0, uses_anonymous_args = 0
 2300              		@ link register save eliminated.
ARM GAS  C:\Users\info\AppData\Local\Temp\ccfHjuLM.s 			page 50


 2301              	.LVL162:
 494:..\u8g2-master\csrc/u8g2_d_memory.c ****   static uint8_t buf[320];
 495:..\u8g2-master\csrc/u8g2_d_memory.c ****   *page_cnt = 1;
 2302              		.loc 1 495 0
 2303 0000 0123     		movs	r3, #1
 2304 0002 0370     		strb	r3, [r0]
 496:..\u8g2-master\csrc/u8g2_d_memory.c ****   return buf;
 497:..\u8g2-master\csrc/u8g2_d_memory.c **** }
 2305              		.loc 1 497 0
 2306 0004 0048     		ldr	r0, .L245
 2307              	.LVL163:
 2308 0006 7047     		bx	lr
 2309              	.L246:
 2310              		.align	2
 2311              	.L245:
 2312 0008 00020100 		.word	.LANCHOR13+888
 2313              		.cfi_endproc
 2314              	.LFE81:
 2315              		.size	u8g2_m_40_30_1, .-u8g2_m_40_30_1
 2316              		.section	.text.u8g2_m_40_30_2,"ax",%progbits
 2317              		.align	2
 2318              		.global	u8g2_m_40_30_2
 2319              		.thumb
 2320              		.thumb_func
 2321              		.type	u8g2_m_40_30_2, %function
 2322              	u8g2_m_40_30_2:
 2323              	.LFB82:
 498:..\u8g2-master\csrc/u8g2_d_memory.c **** uint8_t *u8g2_m_40_30_2(uint8_t *page_cnt)
 499:..\u8g2-master\csrc/u8g2_d_memory.c **** {
 2324              		.loc 1 499 0
 2325              		.cfi_startproc
 2326              		@ args = 0, pretend = 0, frame = 0
 2327              		@ frame_needed = 0, uses_anonymous_args = 0
 2328              		@ link register save eliminated.
 2329              	.LVL164:
 500:..\u8g2-master\csrc/u8g2_d_memory.c ****   static uint8_t buf[640];
 501:..\u8g2-master\csrc/u8g2_d_memory.c ****   *page_cnt = 2;
 2330              		.loc 1 501 0
 2331 0000 0223     		movs	r3, #2
 2332 0002 0370     		strb	r3, [r0]
 502:..\u8g2-master\csrc/u8g2_d_memory.c ****   return buf;
 503:..\u8g2-master\csrc/u8g2_d_memory.c **** }
 2333              		.loc 1 503 0
 2334 0004 0048     		ldr	r0, .L248
 2335              	.LVL165:
 2336 0006 7047     		bx	lr
 2337              	.L249:
 2338              		.align	2
 2339              	.L248:
 2340 0008 40030100 		.word	.LANCHOR13+1208
 2341              		.cfi_endproc
 2342              	.LFE82:
 2343              		.size	u8g2_m_40_30_2, .-u8g2_m_40_30_2
 2344              		.section	.text.u8g2_m_40_30_f,"ax",%progbits
 2345              		.align	2
 2346              		.global	u8g2_m_40_30_f
 2347              		.thumb
ARM GAS  C:\Users\info\AppData\Local\Temp\ccfHjuLM.s 			page 51


 2348              		.thumb_func
 2349              		.type	u8g2_m_40_30_f, %function
 2350              	u8g2_m_40_30_f:
 2351              	.LFB83:
 504:..\u8g2-master\csrc/u8g2_d_memory.c **** uint8_t *u8g2_m_40_30_f(uint8_t *page_cnt)
 505:..\u8g2-master\csrc/u8g2_d_memory.c **** {
 2352              		.loc 1 505 0
 2353              		.cfi_startproc
 2354              		@ args = 0, pretend = 0, frame = 0
 2355              		@ frame_needed = 0, uses_anonymous_args = 0
 2356              		@ link register save eliminated.
 2357              	.LVL166:
 506:..\u8g2-master\csrc/u8g2_d_memory.c ****   static uint8_t buf[9600];
 507:..\u8g2-master\csrc/u8g2_d_memory.c ****   *page_cnt = 30;
 2358              		.loc 1 507 0
 2359 0000 1E23     		movs	r3, #30
 2360 0002 0370     		strb	r3, [r0]
 508:..\u8g2-master\csrc/u8g2_d_memory.c ****   return buf;
 509:..\u8g2-master\csrc/u8g2_d_memory.c **** }
 2361              		.loc 1 509 0
 2362 0004 0048     		ldr	r0, .L251
 2363              	.LVL167:
 2364 0006 7047     		bx	lr
 2365              	.L252:
 2366              		.align	2
 2367              	.L251:
 2368 0008 C0050100 		.word	.LANCHOR13+1848
 2369              		.cfi_endproc
 2370              	.LFE83:
 2371              		.size	u8g2_m_40_30_f, .-u8g2_m_40_30_f
 2372              		.section	.text.u8g2_m_17_4_1,"ax",%progbits
 2373              		.align	2
 2374              		.global	u8g2_m_17_4_1
 2375              		.thumb
 2376              		.thumb_func
 2377              		.type	u8g2_m_17_4_1, %function
 2378              	u8g2_m_17_4_1:
 2379              	.LFB84:
 510:..\u8g2-master\csrc/u8g2_d_memory.c **** uint8_t *u8g2_m_17_4_1(uint8_t *page_cnt)
 511:..\u8g2-master\csrc/u8g2_d_memory.c **** {
 2380              		.loc 1 511 0
 2381              		.cfi_startproc
 2382              		@ args = 0, pretend = 0, frame = 0
 2383              		@ frame_needed = 0, uses_anonymous_args = 0
 2384              		@ link register save eliminated.
 2385              	.LVL168:
 512:..\u8g2-master\csrc/u8g2_d_memory.c ****   static uint8_t buf[136];
 513:..\u8g2-master\csrc/u8g2_d_memory.c ****   *page_cnt = 1;
 2386              		.loc 1 513 0
 2387 0000 0123     		movs	r3, #1
 2388 0002 0370     		strb	r3, [r0]
 514:..\u8g2-master\csrc/u8g2_d_memory.c ****   return buf;
 515:..\u8g2-master\csrc/u8g2_d_memory.c **** }
 2389              		.loc 1 515 0
 2390 0004 0048     		ldr	r0, .L254
 2391              	.LVL169:
 2392 0006 7047     		bx	lr
ARM GAS  C:\Users\info\AppData\Local\Temp\ccfHjuLM.s 			page 52


 2393              	.L255:
 2394              		.align	2
 2395              	.L254:
 2396 0008 402B0100 		.word	.LANCHOR14+2760
 2397              		.cfi_endproc
 2398              	.LFE84:
 2399              		.size	u8g2_m_17_4_1, .-u8g2_m_17_4_1
 2400              		.section	.text.u8g2_m_17_4_2,"ax",%progbits
 2401              		.align	2
 2402              		.global	u8g2_m_17_4_2
 2403              		.thumb
 2404              		.thumb_func
 2405              		.type	u8g2_m_17_4_2, %function
 2406              	u8g2_m_17_4_2:
 2407              	.LFB85:
 516:..\u8g2-master\csrc/u8g2_d_memory.c **** uint8_t *u8g2_m_17_4_2(uint8_t *page_cnt)
 517:..\u8g2-master\csrc/u8g2_d_memory.c **** {
 2408              		.loc 1 517 0
 2409              		.cfi_startproc
 2410              		@ args = 0, pretend = 0, frame = 0
 2411              		@ frame_needed = 0, uses_anonymous_args = 0
 2412              		@ link register save eliminated.
 2413              	.LVL170:
 518:..\u8g2-master\csrc/u8g2_d_memory.c ****   static uint8_t buf[272];
 519:..\u8g2-master\csrc/u8g2_d_memory.c ****   *page_cnt = 2;
 2414              		.loc 1 519 0
 2415 0000 0223     		movs	r3, #2
 2416 0002 0370     		strb	r3, [r0]
 520:..\u8g2-master\csrc/u8g2_d_memory.c ****   return buf;
 521:..\u8g2-master\csrc/u8g2_d_memory.c **** }
 2417              		.loc 1 521 0
 2418 0004 0048     		ldr	r0, .L257
 2419              	.LVL171:
 2420 0006 7047     		bx	lr
 2421              	.L258:
 2422              		.align	2
 2423              	.L257:
 2424 0008 C82B0100 		.word	.LANCHOR14+2896
 2425              		.cfi_endproc
 2426              	.LFE85:
 2427              		.size	u8g2_m_17_4_2, .-u8g2_m_17_4_2
 2428              		.section	.text.u8g2_m_17_4_f,"ax",%progbits
 2429              		.align	2
 2430              		.global	u8g2_m_17_4_f
 2431              		.thumb
 2432              		.thumb_func
 2433              		.type	u8g2_m_17_4_f, %function
 2434              	u8g2_m_17_4_f:
 2435              	.LFB86:
 522:..\u8g2-master\csrc/u8g2_d_memory.c **** uint8_t *u8g2_m_17_4_f(uint8_t *page_cnt)
 523:..\u8g2-master\csrc/u8g2_d_memory.c **** {
 2436              		.loc 1 523 0
 2437              		.cfi_startproc
 2438              		@ args = 0, pretend = 0, frame = 0
 2439              		@ frame_needed = 0, uses_anonymous_args = 0
 2440              		@ link register save eliminated.
 2441              	.LVL172:
ARM GAS  C:\Users\info\AppData\Local\Temp\ccfHjuLM.s 			page 53


 524:..\u8g2-master\csrc/u8g2_d_memory.c ****   static uint8_t buf[544];
 525:..\u8g2-master\csrc/u8g2_d_memory.c ****   *page_cnt = 4;
 2442              		.loc 1 525 0
 2443 0000 0423     		movs	r3, #4
 2444 0002 0370     		strb	r3, [r0]
 526:..\u8g2-master\csrc/u8g2_d_memory.c ****   return buf;
 527:..\u8g2-master\csrc/u8g2_d_memory.c **** }
 2445              		.loc 1 527 0
 2446 0004 0048     		ldr	r0, .L260
 2447              	.LVL173:
 2448 0006 7047     		bx	lr
 2449              	.L261:
 2450              		.align	2
 2451              	.L260:
 2452 0008 D82C0100 		.word	.LANCHOR14+3168
 2453              		.cfi_endproc
 2454              	.LFE86:
 2455              		.size	u8g2_m_17_4_f, .-u8g2_m_17_4_f
 2456              		.section	.text.u8g2_m_17_8_1,"ax",%progbits
 2457              		.align	2
 2458              		.global	u8g2_m_17_8_1
 2459              		.thumb
 2460              		.thumb_func
 2461              		.type	u8g2_m_17_8_1, %function
 2462              	u8g2_m_17_8_1:
 2463              	.LFB87:
 528:..\u8g2-master\csrc/u8g2_d_memory.c **** uint8_t *u8g2_m_17_8_1(uint8_t *page_cnt)
 529:..\u8g2-master\csrc/u8g2_d_memory.c **** {
 2464              		.loc 1 529 0
 2465              		.cfi_startproc
 2466              		@ args = 0, pretend = 0, frame = 0
 2467              		@ frame_needed = 0, uses_anonymous_args = 0
 2468              		@ link register save eliminated.
 2469              	.LVL174:
 530:..\u8g2-master\csrc/u8g2_d_memory.c ****   static uint8_t buf[136];
 531:..\u8g2-master\csrc/u8g2_d_memory.c ****   *page_cnt = 1;
 2470              		.loc 1 531 0
 2471 0000 0123     		movs	r3, #1
 2472 0002 0370     		strb	r3, [r0]
 532:..\u8g2-master\csrc/u8g2_d_memory.c ****   return buf;
 533:..\u8g2-master\csrc/u8g2_d_memory.c **** }
 2473              		.loc 1 533 0
 2474 0004 0048     		ldr	r0, .L263
 2475              	.LVL175:
 2476 0006 7047     		bx	lr
 2477              	.L264:
 2478              		.align	2
 2479              	.L263:
 2480 0008 F82E0100 		.word	.LANCHOR14+3712
 2481              		.cfi_endproc
 2482              	.LFE87:
 2483              		.size	u8g2_m_17_8_1, .-u8g2_m_17_8_1
 2484              		.section	.text.u8g2_m_17_8_2,"ax",%progbits
 2485              		.align	2
 2486              		.global	u8g2_m_17_8_2
 2487              		.thumb
 2488              		.thumb_func
ARM GAS  C:\Users\info\AppData\Local\Temp\ccfHjuLM.s 			page 54


 2489              		.type	u8g2_m_17_8_2, %function
 2490              	u8g2_m_17_8_2:
 2491              	.LFB88:
 534:..\u8g2-master\csrc/u8g2_d_memory.c **** uint8_t *u8g2_m_17_8_2(uint8_t *page_cnt)
 535:..\u8g2-master\csrc/u8g2_d_memory.c **** {
 2492              		.loc 1 535 0
 2493              		.cfi_startproc
 2494              		@ args = 0, pretend = 0, frame = 0
 2495              		@ frame_needed = 0, uses_anonymous_args = 0
 2496              		@ link register save eliminated.
 2497              	.LVL176:
 536:..\u8g2-master\csrc/u8g2_d_memory.c ****   static uint8_t buf[272];
 537:..\u8g2-master\csrc/u8g2_d_memory.c ****   *page_cnt = 2;
 2498              		.loc 1 537 0
 2499 0000 0223     		movs	r3, #2
 2500 0002 0370     		strb	r3, [r0]
 538:..\u8g2-master\csrc/u8g2_d_memory.c ****   return buf;
 539:..\u8g2-master\csrc/u8g2_d_memory.c **** }
 2501              		.loc 1 539 0
 2502 0004 0048     		ldr	r0, .L266
 2503              	.LVL177:
 2504 0006 7047     		bx	lr
 2505              	.L267:
 2506              		.align	2
 2507              	.L266:
 2508 0008 802F0100 		.word	.LANCHOR14+3848
 2509              		.cfi_endproc
 2510              	.LFE88:
 2511              		.size	u8g2_m_17_8_2, .-u8g2_m_17_8_2
 2512              		.section	.text.u8g2_m_17_8_f,"ax",%progbits
 2513              		.align	2
 2514              		.global	u8g2_m_17_8_f
 2515              		.thumb
 2516              		.thumb_func
 2517              		.type	u8g2_m_17_8_f, %function
 2518              	u8g2_m_17_8_f:
 2519              	.LFB89:
 540:..\u8g2-master\csrc/u8g2_d_memory.c **** uint8_t *u8g2_m_17_8_f(uint8_t *page_cnt)
 541:..\u8g2-master\csrc/u8g2_d_memory.c **** {
 2520              		.loc 1 541 0
 2521              		.cfi_startproc
 2522              		@ args = 0, pretend = 0, frame = 0
 2523              		@ frame_needed = 0, uses_anonymous_args = 0
 2524              		@ link register save eliminated.
 2525              	.LVL178:
 542:..\u8g2-master\csrc/u8g2_d_memory.c ****   static uint8_t buf[1088];
 543:..\u8g2-master\csrc/u8g2_d_memory.c ****   *page_cnt = 8;
 2526              		.loc 1 543 0
 2527 0000 0823     		movs	r3, #8
 2528 0002 0370     		strb	r3, [r0]
 544:..\u8g2-master\csrc/u8g2_d_memory.c ****   return buf;
 545:..\u8g2-master\csrc/u8g2_d_memory.c **** }
 2529              		.loc 1 545 0
 2530 0004 0048     		ldr	r0, .L269
 2531              	.LVL179:
 2532 0006 7047     		bx	lr
 2533              	.L270:
ARM GAS  C:\Users\info\AppData\Local\Temp\ccfHjuLM.s 			page 55


 2534              		.align	2
 2535              	.L269:
 2536 0008 90300100 		.word	.LANCHOR15-224
 2537              		.cfi_endproc
 2538              	.LFE89:
 2539              		.size	u8g2_m_17_8_f, .-u8g2_m_17_8_f
 2540              		.section	.text.u8g2_m_48_17_1,"ax",%progbits
 2541              		.align	2
 2542              		.global	u8g2_m_48_17_1
 2543              		.thumb
 2544              		.thumb_func
 2545              		.type	u8g2_m_48_17_1, %function
 2546              	u8g2_m_48_17_1:
 2547              	.LFB90:
 546:..\u8g2-master\csrc/u8g2_d_memory.c **** uint8_t *u8g2_m_48_17_1(uint8_t *page_cnt)
 547:..\u8g2-master\csrc/u8g2_d_memory.c **** {
 2548              		.loc 1 547 0
 2549              		.cfi_startproc
 2550              		@ args = 0, pretend = 0, frame = 0
 2551              		@ frame_needed = 0, uses_anonymous_args = 0
 2552              		@ link register save eliminated.
 2553              	.LVL180:
 548:..\u8g2-master\csrc/u8g2_d_memory.c ****   static uint8_t buf[384];
 549:..\u8g2-master\csrc/u8g2_d_memory.c ****   *page_cnt = 1;
 2554              		.loc 1 549 0
 2555 0000 0123     		movs	r3, #1
 2556 0002 0370     		strb	r3, [r0]
 550:..\u8g2-master\csrc/u8g2_d_memory.c ****   return buf;
 551:..\u8g2-master\csrc/u8g2_d_memory.c **** }
 2557              		.loc 1 551 0
 2558 0004 0048     		ldr	r0, .L272
 2559              	.LVL181:
 2560 0006 7047     		bx	lr
 2561              	.L273:
 2562              		.align	2
 2563              	.L272:
 2564 0008 D0340100 		.word	.LANCHOR15+864
 2565              		.cfi_endproc
 2566              	.LFE90:
 2567              		.size	u8g2_m_48_17_1, .-u8g2_m_48_17_1
 2568              		.section	.text.u8g2_m_48_17_2,"ax",%progbits
 2569              		.align	2
 2570              		.global	u8g2_m_48_17_2
 2571              		.thumb
 2572              		.thumb_func
 2573              		.type	u8g2_m_48_17_2, %function
 2574              	u8g2_m_48_17_2:
 2575              	.LFB91:
 552:..\u8g2-master\csrc/u8g2_d_memory.c **** uint8_t *u8g2_m_48_17_2(uint8_t *page_cnt)
 553:..\u8g2-master\csrc/u8g2_d_memory.c **** {
 2576              		.loc 1 553 0
 2577              		.cfi_startproc
 2578              		@ args = 0, pretend = 0, frame = 0
 2579              		@ frame_needed = 0, uses_anonymous_args = 0
 2580              		@ link register save eliminated.
 2581              	.LVL182:
 554:..\u8g2-master\csrc/u8g2_d_memory.c ****   static uint8_t buf[768];
ARM GAS  C:\Users\info\AppData\Local\Temp\ccfHjuLM.s 			page 56


 555:..\u8g2-master\csrc/u8g2_d_memory.c ****   *page_cnt = 2;
 2582              		.loc 1 555 0
 2583 0000 0223     		movs	r3, #2
 2584 0002 0370     		strb	r3, [r0]
 556:..\u8g2-master\csrc/u8g2_d_memory.c ****   return buf;
 557:..\u8g2-master\csrc/u8g2_d_memory.c **** }
 2585              		.loc 1 557 0
 2586 0004 0048     		ldr	r0, .L275
 2587              	.LVL183:
 2588 0006 7047     		bx	lr
 2589              	.L276:
 2590              		.align	2
 2591              	.L275:
 2592 0008 50360100 		.word	.LANCHOR15+1248
 2593              		.cfi_endproc
 2594              	.LFE91:
 2595              		.size	u8g2_m_48_17_2, .-u8g2_m_48_17_2
 2596              		.section	.text.u8g2_m_48_17_f,"ax",%progbits
 2597              		.align	2
 2598              		.global	u8g2_m_48_17_f
 2599              		.thumb
 2600              		.thumb_func
 2601              		.type	u8g2_m_48_17_f, %function
 2602              	u8g2_m_48_17_f:
 2603              	.LFB92:
 558:..\u8g2-master\csrc/u8g2_d_memory.c **** uint8_t *u8g2_m_48_17_f(uint8_t *page_cnt)
 559:..\u8g2-master\csrc/u8g2_d_memory.c **** {
 2604              		.loc 1 559 0
 2605              		.cfi_startproc
 2606              		@ args = 0, pretend = 0, frame = 0
 2607              		@ frame_needed = 0, uses_anonymous_args = 0
 2608              		@ link register save eliminated.
 2609              	.LVL184:
 560:..\u8g2-master\csrc/u8g2_d_memory.c ****   static uint8_t buf[6528];
 561:..\u8g2-master\csrc/u8g2_d_memory.c ****   *page_cnt = 17;
 2610              		.loc 1 561 0
 2611 0000 1123     		movs	r3, #17
 2612 0002 0370     		strb	r3, [r0]
 562:..\u8g2-master\csrc/u8g2_d_memory.c ****   return buf;
 563:..\u8g2-master\csrc/u8g2_d_memory.c **** }
 2613              		.loc 1 563 0
 2614 0004 0048     		ldr	r0, .L278
 2615              	.LVL185:
 2616 0006 7047     		bx	lr
 2617              	.L279:
 2618              		.align	2
 2619              	.L278:
 2620 0008 50390100 		.word	.LANCHOR15+2016
 2621              		.cfi_endproc
 2622              	.LFE92:
 2623              		.size	u8g2_m_48_17_f, .-u8g2_m_48_17_f
 2624              		.section	.text.u8g2_m_32_16_1,"ax",%progbits
 2625              		.align	2
 2626              		.global	u8g2_m_32_16_1
 2627              		.thumb
 2628              		.thumb_func
 2629              		.type	u8g2_m_32_16_1, %function
ARM GAS  C:\Users\info\AppData\Local\Temp\ccfHjuLM.s 			page 57


 2630              	u8g2_m_32_16_1:
 2631              	.LFB93:
 564:..\u8g2-master\csrc/u8g2_d_memory.c **** uint8_t *u8g2_m_32_16_1(uint8_t *page_cnt)
 565:..\u8g2-master\csrc/u8g2_d_memory.c **** {
 2632              		.loc 1 565 0
 2633              		.cfi_startproc
 2634              		@ args = 0, pretend = 0, frame = 0
 2635              		@ frame_needed = 0, uses_anonymous_args = 0
 2636              		@ link register save eliminated.
 2637              	.LVL186:
 566:..\u8g2-master\csrc/u8g2_d_memory.c ****   static uint8_t buf[256];
 567:..\u8g2-master\csrc/u8g2_d_memory.c ****   *page_cnt = 1;
 2638              		.loc 1 567 0
 2639 0000 0123     		movs	r3, #1
 2640 0002 0370     		strb	r3, [r0]
 568:..\u8g2-master\csrc/u8g2_d_memory.c ****   return buf;
 569:..\u8g2-master\csrc/u8g2_d_memory.c **** }
 2641              		.loc 1 569 0
 2642 0004 0048     		ldr	r0, .L281
 2643              	.LVL187:
 2644 0006 7047     		bx	lr
 2645              	.L282:
 2646              		.align	2
 2647              	.L281:
 2648 0008 D0520100 		.word	.LANCHOR16-144
 2649              		.cfi_endproc
 2650              	.LFE93:
 2651              		.size	u8g2_m_32_16_1, .-u8g2_m_32_16_1
 2652              		.section	.text.u8g2_m_32_16_2,"ax",%progbits
 2653              		.align	2
 2654              		.global	u8g2_m_32_16_2
 2655              		.thumb
 2656              		.thumb_func
 2657              		.type	u8g2_m_32_16_2, %function
 2658              	u8g2_m_32_16_2:
 2659              	.LFB94:
 570:..\u8g2-master\csrc/u8g2_d_memory.c **** uint8_t *u8g2_m_32_16_2(uint8_t *page_cnt)
 571:..\u8g2-master\csrc/u8g2_d_memory.c **** {
 2660              		.loc 1 571 0
 2661              		.cfi_startproc
 2662              		@ args = 0, pretend = 0, frame = 0
 2663              		@ frame_needed = 0, uses_anonymous_args = 0
 2664              		@ link register save eliminated.
 2665              	.LVL188:
 572:..\u8g2-master\csrc/u8g2_d_memory.c ****   static uint8_t buf[512];
 573:..\u8g2-master\csrc/u8g2_d_memory.c ****   *page_cnt = 2;
 2666              		.loc 1 573 0
 2667 0000 0223     		movs	r3, #2
 2668 0002 0370     		strb	r3, [r0]
 574:..\u8g2-master\csrc/u8g2_d_memory.c ****   return buf;
 575:..\u8g2-master\csrc/u8g2_d_memory.c **** }
 2669              		.loc 1 575 0
 2670 0004 0048     		ldr	r0, .L284
 2671              	.LVL189:
 2672 0006 7047     		bx	lr
 2673              	.L285:
 2674              		.align	2
ARM GAS  C:\Users\info\AppData\Local\Temp\ccfHjuLM.s 			page 58


 2675              	.L284:
 2676 0008 D0530100 		.word	.LANCHOR16+112
 2677              		.cfi_endproc
 2678              	.LFE94:
 2679              		.size	u8g2_m_32_16_2, .-u8g2_m_32_16_2
 2680              		.section	.text.u8g2_m_32_16_f,"ax",%progbits
 2681              		.align	2
 2682              		.global	u8g2_m_32_16_f
 2683              		.thumb
 2684              		.thumb_func
 2685              		.type	u8g2_m_32_16_f, %function
 2686              	u8g2_m_32_16_f:
 2687              	.LFB95:
 576:..\u8g2-master\csrc/u8g2_d_memory.c **** uint8_t *u8g2_m_32_16_f(uint8_t *page_cnt)
 577:..\u8g2-master\csrc/u8g2_d_memory.c **** {
 2688              		.loc 1 577 0
 2689              		.cfi_startproc
 2690              		@ args = 0, pretend = 0, frame = 0
 2691              		@ frame_needed = 0, uses_anonymous_args = 0
 2692              		@ link register save eliminated.
 2693              	.LVL190:
 578:..\u8g2-master\csrc/u8g2_d_memory.c ****   static uint8_t buf[4096];
 579:..\u8g2-master\csrc/u8g2_d_memory.c ****   *page_cnt = 16;
 2694              		.loc 1 579 0
 2695 0000 1023     		movs	r3, #16
 2696 0002 0370     		strb	r3, [r0]
 580:..\u8g2-master\csrc/u8g2_d_memory.c ****   return buf;
 581:..\u8g2-master\csrc/u8g2_d_memory.c **** }
 2697              		.loc 1 581 0
 2698 0004 0048     		ldr	r0, .L287
 2699              	.LVL191:
 2700 0006 7047     		bx	lr
 2701              	.L288:
 2702              		.align	2
 2703              	.L287:
 2704 0008 D0550100 		.word	.LANCHOR16+624
 2705              		.cfi_endproc
 2706              	.LFE95:
 2707              		.size	u8g2_m_32_16_f, .-u8g2_m_32_16_f
 2708              		.section	.text.u8g2_m_32_20_1,"ax",%progbits
 2709              		.align	2
 2710              		.global	u8g2_m_32_20_1
 2711              		.thumb
 2712              		.thumb_func
 2713              		.type	u8g2_m_32_20_1, %function
 2714              	u8g2_m_32_20_1:
 2715              	.LFB96:
 582:..\u8g2-master\csrc/u8g2_d_memory.c **** uint8_t *u8g2_m_32_20_1(uint8_t *page_cnt)
 583:..\u8g2-master\csrc/u8g2_d_memory.c **** {
 2716              		.loc 1 583 0
 2717              		.cfi_startproc
 2718              		@ args = 0, pretend = 0, frame = 0
 2719              		@ frame_needed = 0, uses_anonymous_args = 0
 2720              		@ link register save eliminated.
 2721              	.LVL192:
 584:..\u8g2-master\csrc/u8g2_d_memory.c ****   static uint8_t buf[256];
 585:..\u8g2-master\csrc/u8g2_d_memory.c ****   *page_cnt = 1;
ARM GAS  C:\Users\info\AppData\Local\Temp\ccfHjuLM.s 			page 59


 2722              		.loc 1 585 0
 2723 0000 0123     		movs	r3, #1
 2724 0002 0370     		strb	r3, [r0]
 586:..\u8g2-master\csrc/u8g2_d_memory.c ****   return buf;
 587:..\u8g2-master\csrc/u8g2_d_memory.c **** }
 2725              		.loc 1 587 0
 2726 0004 0048     		ldr	r0, .L290
 2727              	.LVL193:
 2728 0006 7047     		bx	lr
 2729              	.L291:
 2730              		.align	2
 2731              	.L290:
 2732 0008 D0650100 		.word	.LANCHOR17+376
 2733              		.cfi_endproc
 2734              	.LFE96:
 2735              		.size	u8g2_m_32_20_1, .-u8g2_m_32_20_1
 2736              		.section	.text.u8g2_m_32_20_2,"ax",%progbits
 2737              		.align	2
 2738              		.global	u8g2_m_32_20_2
 2739              		.thumb
 2740              		.thumb_func
 2741              		.type	u8g2_m_32_20_2, %function
 2742              	u8g2_m_32_20_2:
 2743              	.LFB97:
 588:..\u8g2-master\csrc/u8g2_d_memory.c **** uint8_t *u8g2_m_32_20_2(uint8_t *page_cnt)
 589:..\u8g2-master\csrc/u8g2_d_memory.c **** {
 2744              		.loc 1 589 0
 2745              		.cfi_startproc
 2746              		@ args = 0, pretend = 0, frame = 0
 2747              		@ frame_needed = 0, uses_anonymous_args = 0
 2748              		@ link register save eliminated.
 2749              	.LVL194:
 590:..\u8g2-master\csrc/u8g2_d_memory.c ****   static uint8_t buf[512];
 591:..\u8g2-master\csrc/u8g2_d_memory.c ****   *page_cnt = 2;
 2750              		.loc 1 591 0
 2751 0000 0223     		movs	r3, #2
 2752 0002 0370     		strb	r3, [r0]
 592:..\u8g2-master\csrc/u8g2_d_memory.c ****   return buf;
 593:..\u8g2-master\csrc/u8g2_d_memory.c **** }
 2753              		.loc 1 593 0
 2754 0004 0048     		ldr	r0, .L293
 2755              	.LVL195:
 2756 0006 7047     		bx	lr
 2757              	.L294:
 2758              		.align	2
 2759              	.L293:
 2760 0008 D0660100 		.word	.LANCHOR17+632
 2761              		.cfi_endproc
 2762              	.LFE97:
 2763              		.size	u8g2_m_32_20_2, .-u8g2_m_32_20_2
 2764              		.section	.text.u8g2_m_32_20_f,"ax",%progbits
 2765              		.align	2
 2766              		.global	u8g2_m_32_20_f
 2767              		.thumb
 2768              		.thumb_func
 2769              		.type	u8g2_m_32_20_f, %function
 2770              	u8g2_m_32_20_f:
ARM GAS  C:\Users\info\AppData\Local\Temp\ccfHjuLM.s 			page 60


 2771              	.LFB98:
 594:..\u8g2-master\csrc/u8g2_d_memory.c **** uint8_t *u8g2_m_32_20_f(uint8_t *page_cnt)
 595:..\u8g2-master\csrc/u8g2_d_memory.c **** {
 2772              		.loc 1 595 0
 2773              		.cfi_startproc
 2774              		@ args = 0, pretend = 0, frame = 0
 2775              		@ frame_needed = 0, uses_anonymous_args = 0
 2776              		@ link register save eliminated.
 2777              	.LVL196:
 596:..\u8g2-master\csrc/u8g2_d_memory.c ****   static uint8_t buf[5120];
 597:..\u8g2-master\csrc/u8g2_d_memory.c ****   *page_cnt = 20;
 2778              		.loc 1 597 0
 2779 0000 1423     		movs	r3, #20
 2780 0002 0370     		strb	r3, [r0]
 598:..\u8g2-master\csrc/u8g2_d_memory.c ****   return buf;
 599:..\u8g2-master\csrc/u8g2_d_memory.c **** }
 2781              		.loc 1 599 0
 2782 0004 0048     		ldr	r0, .L296
 2783              	.LVL197:
 2784 0006 7047     		bx	lr
 2785              	.L297:
 2786              		.align	2
 2787              	.L296:
 2788 0008 D0680100 		.word	.LANCHOR17+1144
 2789              		.cfi_endproc
 2790              	.LFE98:
 2791              		.size	u8g2_m_32_20_f, .-u8g2_m_32_20_f
 2792              		.section	.text.u8g2_m_22_13_1,"ax",%progbits
 2793              		.align	2
 2794              		.global	u8g2_m_22_13_1
 2795              		.thumb
 2796              		.thumb_func
 2797              		.type	u8g2_m_22_13_1, %function
 2798              	u8g2_m_22_13_1:
 2799              	.LFB99:
 600:..\u8g2-master\csrc/u8g2_d_memory.c **** uint8_t *u8g2_m_22_13_1(uint8_t *page_cnt)
 601:..\u8g2-master\csrc/u8g2_d_memory.c **** {
 2800              		.loc 1 601 0
 2801              		.cfi_startproc
 2802              		@ args = 0, pretend = 0, frame = 0
 2803              		@ frame_needed = 0, uses_anonymous_args = 0
 2804              		@ link register save eliminated.
 2805              	.LVL198:
 602:..\u8g2-master\csrc/u8g2_d_memory.c ****   static uint8_t buf[176];
 603:..\u8g2-master\csrc/u8g2_d_memory.c ****   *page_cnt = 1;
 2806              		.loc 1 603 0
 2807 0000 0123     		movs	r3, #1
 2808 0002 0370     		strb	r3, [r0]
 604:..\u8g2-master\csrc/u8g2_d_memory.c ****   return buf;
 605:..\u8g2-master\csrc/u8g2_d_memory.c **** }
 2809              		.loc 1 605 0
 2810 0004 0048     		ldr	r0, .L299
 2811              	.LVL199:
 2812 0006 7047     		bx	lr
 2813              	.L300:
 2814              		.align	2
 2815              	.L299:
ARM GAS  C:\Users\info\AppData\Local\Temp\ccfHjuLM.s 			page 61


 2816 0008 D07C0100 		.word	.LANCHOR18+1920
 2817              		.cfi_endproc
 2818              	.LFE99:
 2819              		.size	u8g2_m_22_13_1, .-u8g2_m_22_13_1
 2820              		.section	.text.u8g2_m_22_13_2,"ax",%progbits
 2821              		.align	2
 2822              		.global	u8g2_m_22_13_2
 2823              		.thumb
 2824              		.thumb_func
 2825              		.type	u8g2_m_22_13_2, %function
 2826              	u8g2_m_22_13_2:
 2827              	.LFB100:
 606:..\u8g2-master\csrc/u8g2_d_memory.c **** uint8_t *u8g2_m_22_13_2(uint8_t *page_cnt)
 607:..\u8g2-master\csrc/u8g2_d_memory.c **** {
 2828              		.loc 1 607 0
 2829              		.cfi_startproc
 2830              		@ args = 0, pretend = 0, frame = 0
 2831              		@ frame_needed = 0, uses_anonymous_args = 0
 2832              		@ link register save eliminated.
 2833              	.LVL200:
 608:..\u8g2-master\csrc/u8g2_d_memory.c ****   static uint8_t buf[352];
 609:..\u8g2-master\csrc/u8g2_d_memory.c ****   *page_cnt = 2;
 2834              		.loc 1 609 0
 2835 0000 0223     		movs	r3, #2
 2836 0002 0370     		strb	r3, [r0]
 610:..\u8g2-master\csrc/u8g2_d_memory.c ****   return buf;
 611:..\u8g2-master\csrc/u8g2_d_memory.c **** }
 2837              		.loc 1 611 0
 2838 0004 0048     		ldr	r0, .L302
 2839              	.LVL201:
 2840 0006 7047     		bx	lr
 2841              	.L303:
 2842              		.align	2
 2843              	.L302:
 2844 0008 807D0100 		.word	.LANCHOR18+2096
 2845              		.cfi_endproc
 2846              	.LFE100:
 2847              		.size	u8g2_m_22_13_2, .-u8g2_m_22_13_2
 2848              		.section	.text.u8g2_m_22_13_f,"ax",%progbits
 2849              		.align	2
 2850              		.global	u8g2_m_22_13_f
 2851              		.thumb
 2852              		.thumb_func
 2853              		.type	u8g2_m_22_13_f, %function
 2854              	u8g2_m_22_13_f:
 2855              	.LFB101:
 612:..\u8g2-master\csrc/u8g2_d_memory.c **** uint8_t *u8g2_m_22_13_f(uint8_t *page_cnt)
 613:..\u8g2-master\csrc/u8g2_d_memory.c **** {
 2856              		.loc 1 613 0
 2857              		.cfi_startproc
 2858              		@ args = 0, pretend = 0, frame = 0
 2859              		@ frame_needed = 0, uses_anonymous_args = 0
 2860              		@ link register save eliminated.
 2861              	.LVL202:
 614:..\u8g2-master\csrc/u8g2_d_memory.c ****   static uint8_t buf[2288];
 615:..\u8g2-master\csrc/u8g2_d_memory.c ****   *page_cnt = 13;
 2862              		.loc 1 615 0
ARM GAS  C:\Users\info\AppData\Local\Temp\ccfHjuLM.s 			page 62


 2863 0000 0D23     		movs	r3, #13
 2864 0002 0370     		strb	r3, [r0]
 616:..\u8g2-master\csrc/u8g2_d_memory.c ****   return buf;
 617:..\u8g2-master\csrc/u8g2_d_memory.c **** }
 2865              		.loc 1 617 0
 2866 0004 0048     		ldr	r0, .L305
 2867              	.LVL203:
 2868 0006 7047     		bx	lr
 2869              	.L306:
 2870              		.align	2
 2871              	.L305:
 2872 0008 E07E0100 		.word	.LANCHOR18+2448
 2873              		.cfi_endproc
 2874              	.LFE101:
 2875              		.size	u8g2_m_22_13_f, .-u8g2_m_22_13_f
 2876              		.section	.text.u8g2_m_24_12_1,"ax",%progbits
 2877              		.align	2
 2878              		.global	u8g2_m_24_12_1
 2879              		.thumb
 2880              		.thumb_func
 2881              		.type	u8g2_m_24_12_1, %function
 2882              	u8g2_m_24_12_1:
 2883              	.LFB102:
 618:..\u8g2-master\csrc/u8g2_d_memory.c **** uint8_t *u8g2_m_24_12_1(uint8_t *page_cnt)
 619:..\u8g2-master\csrc/u8g2_d_memory.c **** {
 2884              		.loc 1 619 0
 2885              		.cfi_startproc
 2886              		@ args = 0, pretend = 0, frame = 0
 2887              		@ frame_needed = 0, uses_anonymous_args = 0
 2888              		@ link register save eliminated.
 2889              	.LVL204:
 620:..\u8g2-master\csrc/u8g2_d_memory.c ****   static uint8_t buf[192];
 621:..\u8g2-master\csrc/u8g2_d_memory.c ****   *page_cnt = 1;
 2890              		.loc 1 621 0
 2891 0000 0123     		movs	r3, #1
 2892 0002 0370     		strb	r3, [r0]
 622:..\u8g2-master\csrc/u8g2_d_memory.c ****   return buf;
 623:..\u8g2-master\csrc/u8g2_d_memory.c **** }
 2893              		.loc 1 623 0
 2894 0004 0048     		ldr	r0, .L308
 2895              	.LVL205:
 2896 0006 7047     		bx	lr
 2897              	.L309:
 2898              		.align	2
 2899              	.L308:
 2900 0008 D0870100 		.word	.LANCHOR19+392
 2901              		.cfi_endproc
 2902              	.LFE102:
 2903              		.size	u8g2_m_24_12_1, .-u8g2_m_24_12_1
 2904              		.section	.text.u8g2_m_24_12_2,"ax",%progbits
 2905              		.align	2
 2906              		.global	u8g2_m_24_12_2
 2907              		.thumb
 2908              		.thumb_func
 2909              		.type	u8g2_m_24_12_2, %function
 2910              	u8g2_m_24_12_2:
 2911              	.LFB103:
ARM GAS  C:\Users\info\AppData\Local\Temp\ccfHjuLM.s 			page 63


 624:..\u8g2-master\csrc/u8g2_d_memory.c **** uint8_t *u8g2_m_24_12_2(uint8_t *page_cnt)
 625:..\u8g2-master\csrc/u8g2_d_memory.c **** {
 2912              		.loc 1 625 0
 2913              		.cfi_startproc
 2914              		@ args = 0, pretend = 0, frame = 0
 2915              		@ frame_needed = 0, uses_anonymous_args = 0
 2916              		@ link register save eliminated.
 2917              	.LVL206:
 626:..\u8g2-master\csrc/u8g2_d_memory.c ****   static uint8_t buf[384];
 627:..\u8g2-master\csrc/u8g2_d_memory.c ****   *page_cnt = 2;
 2918              		.loc 1 627 0
 2919 0000 0223     		movs	r3, #2
 2920 0002 0370     		strb	r3, [r0]
 628:..\u8g2-master\csrc/u8g2_d_memory.c ****   return buf;
 629:..\u8g2-master\csrc/u8g2_d_memory.c **** }
 2921              		.loc 1 629 0
 2922 0004 0048     		ldr	r0, .L311
 2923              	.LVL207:
 2924 0006 7047     		bx	lr
 2925              	.L312:
 2926              		.align	2
 2927              	.L311:
 2928 0008 90880100 		.word	.LANCHOR19+584
 2929              		.cfi_endproc
 2930              	.LFE103:
 2931              		.size	u8g2_m_24_12_2, .-u8g2_m_24_12_2
 2932              		.section	.text.u8g2_m_24_12_f,"ax",%progbits
 2933              		.align	2
 2934              		.global	u8g2_m_24_12_f
 2935              		.thumb
 2936              		.thumb_func
 2937              		.type	u8g2_m_24_12_f, %function
 2938              	u8g2_m_24_12_f:
 2939              	.LFB104:
 630:..\u8g2-master\csrc/u8g2_d_memory.c **** uint8_t *u8g2_m_24_12_f(uint8_t *page_cnt)
 631:..\u8g2-master\csrc/u8g2_d_memory.c **** {
 2940              		.loc 1 631 0
 2941              		.cfi_startproc
 2942              		@ args = 0, pretend = 0, frame = 0
 2943              		@ frame_needed = 0, uses_anonymous_args = 0
 2944              		@ link register save eliminated.
 2945              	.LVL208:
 632:..\u8g2-master\csrc/u8g2_d_memory.c ****   static uint8_t buf[2304];
 633:..\u8g2-master\csrc/u8g2_d_memory.c ****   *page_cnt = 12;
 2946              		.loc 1 633 0
 2947 0000 0C23     		movs	r3, #12
 2948 0002 0370     		strb	r3, [r0]
 634:..\u8g2-master\csrc/u8g2_d_memory.c ****   return buf;
 635:..\u8g2-master\csrc/u8g2_d_memory.c **** }
 2949              		.loc 1 635 0
 2950 0004 0048     		ldr	r0, .L314
 2951              	.LVL209:
 2952 0006 7047     		bx	lr
 2953              	.L315:
 2954              		.align	2
 2955              	.L314:
 2956 0008 108A0100 		.word	.LANCHOR19+968
ARM GAS  C:\Users\info\AppData\Local\Temp\ccfHjuLM.s 			page 64


 2957              		.cfi_endproc
 2958              	.LFE104:
 2959              		.size	u8g2_m_24_12_f, .-u8g2_m_24_12_f
 2960              		.section	.text.u8g2_m_20_10_1,"ax",%progbits
 2961              		.align	2
 2962              		.global	u8g2_m_20_10_1
 2963              		.thumb
 2964              		.thumb_func
 2965              		.type	u8g2_m_20_10_1, %function
 2966              	u8g2_m_20_10_1:
 2967              	.LFB105:
 636:..\u8g2-master\csrc/u8g2_d_memory.c **** uint8_t *u8g2_m_20_10_1(uint8_t *page_cnt)
 637:..\u8g2-master\csrc/u8g2_d_memory.c **** {
 2968              		.loc 1 637 0
 2969              		.cfi_startproc
 2970              		@ args = 0, pretend = 0, frame = 0
 2971              		@ frame_needed = 0, uses_anonymous_args = 0
 2972              		@ link register save eliminated.
 2973              	.LVL210:
 638:..\u8g2-master\csrc/u8g2_d_memory.c ****   static uint8_t buf[160];
 639:..\u8g2-master\csrc/u8g2_d_memory.c ****   *page_cnt = 1;
 2974              		.loc 1 639 0
 2975 0000 0123     		movs	r3, #1
 2976 0002 0370     		strb	r3, [r0]
 640:..\u8g2-master\csrc/u8g2_d_memory.c ****   return buf;
 641:..\u8g2-master\csrc/u8g2_d_memory.c **** }
 2977              		.loc 1 641 0
 2978 0004 0048     		ldr	r0, .L317
 2979              	.LVL211:
 2980 0006 7047     		bx	lr
 2981              	.L318:
 2982              		.align	2
 2983              	.L317:
 2984 0008 10930100 		.word	.LANCHOR19+3272
 2985              		.cfi_endproc
 2986              	.LFE105:
 2987              		.size	u8g2_m_20_10_1, .-u8g2_m_20_10_1
 2988              		.section	.text.u8g2_m_20_10_2,"ax",%progbits
 2989              		.align	2
 2990              		.global	u8g2_m_20_10_2
 2991              		.thumb
 2992              		.thumb_func
 2993              		.type	u8g2_m_20_10_2, %function
 2994              	u8g2_m_20_10_2:
 2995              	.LFB106:
 642:..\u8g2-master\csrc/u8g2_d_memory.c **** uint8_t *u8g2_m_20_10_2(uint8_t *page_cnt)
 643:..\u8g2-master\csrc/u8g2_d_memory.c **** {
 2996              		.loc 1 643 0
 2997              		.cfi_startproc
 2998              		@ args = 0, pretend = 0, frame = 0
 2999              		@ frame_needed = 0, uses_anonymous_args = 0
 3000              		@ link register save eliminated.
 3001              	.LVL212:
 644:..\u8g2-master\csrc/u8g2_d_memory.c ****   static uint8_t buf[320];
 645:..\u8g2-master\csrc/u8g2_d_memory.c ****   *page_cnt = 2;
 3002              		.loc 1 645 0
 3003 0000 0223     		movs	r3, #2
ARM GAS  C:\Users\info\AppData\Local\Temp\ccfHjuLM.s 			page 65


 3004 0002 0370     		strb	r3, [r0]
 646:..\u8g2-master\csrc/u8g2_d_memory.c ****   return buf;
 647:..\u8g2-master\csrc/u8g2_d_memory.c **** }
 3005              		.loc 1 647 0
 3006 0004 0048     		ldr	r0, .L320
 3007              	.LVL213:
 3008 0006 7047     		bx	lr
 3009              	.L321:
 3010              		.align	2
 3011              	.L320:
 3012 0008 B0930100 		.word	.LANCHOR19+3432
 3013              		.cfi_endproc
 3014              	.LFE106:
 3015              		.size	u8g2_m_20_10_2, .-u8g2_m_20_10_2
 3016              		.section	.text.u8g2_m_20_10_f,"ax",%progbits
 3017              		.align	2
 3018              		.global	u8g2_m_20_10_f
 3019              		.thumb
 3020              		.thumb_func
 3021              		.type	u8g2_m_20_10_f, %function
 3022              	u8g2_m_20_10_f:
 3023              	.LFB107:
 648:..\u8g2-master\csrc/u8g2_d_memory.c **** uint8_t *u8g2_m_20_10_f(uint8_t *page_cnt)
 649:..\u8g2-master\csrc/u8g2_d_memory.c **** {
 3024              		.loc 1 649 0
 3025              		.cfi_startproc
 3026              		@ args = 0, pretend = 0, frame = 0
 3027              		@ frame_needed = 0, uses_anonymous_args = 0
 3028              		@ link register save eliminated.
 3029              	.LVL214:
 650:..\u8g2-master\csrc/u8g2_d_memory.c ****   static uint8_t buf[1600];
 651:..\u8g2-master\csrc/u8g2_d_memory.c ****   *page_cnt = 10;
 3030              		.loc 1 651 0
 3031 0000 0A23     		movs	r3, #10
 3032 0002 0370     		strb	r3, [r0]
 652:..\u8g2-master\csrc/u8g2_d_memory.c ****   return buf;
 653:..\u8g2-master\csrc/u8g2_d_memory.c **** }
 3033              		.loc 1 653 0
 3034 0004 0048     		ldr	r0, .L323
 3035              	.LVL215:
 3036 0006 7047     		bx	lr
 3037              	.L324:
 3038              		.align	2
 3039              	.L323:
 3040 0008 F0940100 		.word	.LANCHOR19+3752
 3041              		.cfi_endproc
 3042              	.LFE107:
 3043              		.size	u8g2_m_20_10_f, .-u8g2_m_20_10_f
 3044              		.section	.text.u8g2_m_22_9_1,"ax",%progbits
 3045              		.align	2
 3046              		.global	u8g2_m_22_9_1
 3047              		.thumb
 3048              		.thumb_func
 3049              		.type	u8g2_m_22_9_1, %function
 3050              	u8g2_m_22_9_1:
 3051              	.LFB108:
 654:..\u8g2-master\csrc/u8g2_d_memory.c **** uint8_t *u8g2_m_22_9_1(uint8_t *page_cnt)
ARM GAS  C:\Users\info\AppData\Local\Temp\ccfHjuLM.s 			page 66


 655:..\u8g2-master\csrc/u8g2_d_memory.c **** {
 3052              		.loc 1 655 0
 3053              		.cfi_startproc
 3054              		@ args = 0, pretend = 0, frame = 0
 3055              		@ frame_needed = 0, uses_anonymous_args = 0
 3056              		@ link register save eliminated.
 3057              	.LVL216:
 656:..\u8g2-master\csrc/u8g2_d_memory.c ****   static uint8_t buf[176];
 657:..\u8g2-master\csrc/u8g2_d_memory.c ****   *page_cnt = 1;
 3058              		.loc 1 657 0
 3059 0000 0123     		movs	r3, #1
 3060 0002 0370     		strb	r3, [r0]
 658:..\u8g2-master\csrc/u8g2_d_memory.c ****   return buf;
 659:..\u8g2-master\csrc/u8g2_d_memory.c **** }
 3061              		.loc 1 659 0
 3062 0004 0048     		ldr	r0, .L326
 3063              	.LVL217:
 3064 0006 7047     		bx	lr
 3065              	.L327:
 3066              		.align	2
 3067              	.L326:
 3068 0008 309B0100 		.word	.LANCHOR20+1008
 3069              		.cfi_endproc
 3070              	.LFE108:
 3071              		.size	u8g2_m_22_9_1, .-u8g2_m_22_9_1
 3072              		.section	.text.u8g2_m_22_9_2,"ax",%progbits
 3073              		.align	2
 3074              		.global	u8g2_m_22_9_2
 3075              		.thumb
 3076              		.thumb_func
 3077              		.type	u8g2_m_22_9_2, %function
 3078              	u8g2_m_22_9_2:
 3079              	.LFB109:
 660:..\u8g2-master\csrc/u8g2_d_memory.c **** uint8_t *u8g2_m_22_9_2(uint8_t *page_cnt)
 661:..\u8g2-master\csrc/u8g2_d_memory.c **** {
 3080              		.loc 1 661 0
 3081              		.cfi_startproc
 3082              		@ args = 0, pretend = 0, frame = 0
 3083              		@ frame_needed = 0, uses_anonymous_args = 0
 3084              		@ link register save eliminated.
 3085              	.LVL218:
 662:..\u8g2-master\csrc/u8g2_d_memory.c ****   static uint8_t buf[352];
 663:..\u8g2-master\csrc/u8g2_d_memory.c ****   *page_cnt = 2;
 3086              		.loc 1 663 0
 3087 0000 0223     		movs	r3, #2
 3088 0002 0370     		strb	r3, [r0]
 664:..\u8g2-master\csrc/u8g2_d_memory.c ****   return buf;
 665:..\u8g2-master\csrc/u8g2_d_memory.c **** }
 3089              		.loc 1 665 0
 3090 0004 0048     		ldr	r0, .L329
 3091              	.LVL219:
 3092 0006 7047     		bx	lr
 3093              	.L330:
 3094              		.align	2
 3095              	.L329:
 3096 0008 E09B0100 		.word	.LANCHOR20+1184
 3097              		.cfi_endproc
ARM GAS  C:\Users\info\AppData\Local\Temp\ccfHjuLM.s 			page 67


 3098              	.LFE109:
 3099              		.size	u8g2_m_22_9_2, .-u8g2_m_22_9_2
 3100              		.section	.text.u8g2_m_22_9_f,"ax",%progbits
 3101              		.align	2
 3102              		.global	u8g2_m_22_9_f
 3103              		.thumb
 3104              		.thumb_func
 3105              		.type	u8g2_m_22_9_f, %function
 3106              	u8g2_m_22_9_f:
 3107              	.LFB110:
 666:..\u8g2-master\csrc/u8g2_d_memory.c **** uint8_t *u8g2_m_22_9_f(uint8_t *page_cnt)
 667:..\u8g2-master\csrc/u8g2_d_memory.c **** {
 3108              		.loc 1 667 0
 3109              		.cfi_startproc
 3110              		@ args = 0, pretend = 0, frame = 0
 3111              		@ frame_needed = 0, uses_anonymous_args = 0
 3112              		@ link register save eliminated.
 3113              	.LVL220:
 668:..\u8g2-master\csrc/u8g2_d_memory.c ****   static uint8_t buf[1584];
 669:..\u8g2-master\csrc/u8g2_d_memory.c ****   *page_cnt = 9;
 3114              		.loc 1 669 0
 3115 0000 0923     		movs	r3, #9
 3116 0002 0370     		strb	r3, [r0]
 670:..\u8g2-master\csrc/u8g2_d_memory.c ****   return buf;
 671:..\u8g2-master\csrc/u8g2_d_memory.c **** }
 3117              		.loc 1 671 0
 3118 0004 0048     		ldr	r0, .L332
 3119              	.LVL221:
 3120 0006 7047     		bx	lr
 3121              	.L333:
 3122              		.align	2
 3123              	.L332:
 3124 0008 409D0100 		.word	.LANCHOR20+1536
 3125              		.cfi_endproc
 3126              	.LFE110:
 3127              		.size	u8g2_m_22_9_f, .-u8g2_m_22_9_f
 3128              		.section	.text.u8g2_m_25_25_1,"ax",%progbits
 3129              		.align	2
 3130              		.global	u8g2_m_25_25_1
 3131              		.thumb
 3132              		.thumb_func
 3133              		.type	u8g2_m_25_25_1, %function
 3134              	u8g2_m_25_25_1:
 3135              	.LFB111:
 672:..\u8g2-master\csrc/u8g2_d_memory.c **** uint8_t *u8g2_m_25_25_1(uint8_t *page_cnt)
 673:..\u8g2-master\csrc/u8g2_d_memory.c **** {
 3136              		.loc 1 673 0
 3137              		.cfi_startproc
 3138              		@ args = 0, pretend = 0, frame = 0
 3139              		@ frame_needed = 0, uses_anonymous_args = 0
 3140              		@ link register save eliminated.
 3141              	.LVL222:
 674:..\u8g2-master\csrc/u8g2_d_memory.c ****   static uint8_t buf[200];
 675:..\u8g2-master\csrc/u8g2_d_memory.c ****   *page_cnt = 1;
 3142              		.loc 1 675 0
 3143 0000 0123     		movs	r3, #1
 3144 0002 0370     		strb	r3, [r0]
ARM GAS  C:\Users\info\AppData\Local\Temp\ccfHjuLM.s 			page 68


 676:..\u8g2-master\csrc/u8g2_d_memory.c ****   return buf;
 677:..\u8g2-master\csrc/u8g2_d_memory.c **** }
 3145              		.loc 1 677 0
 3146 0004 0048     		ldr	r0, .L335
 3147              	.LVL223:
 3148 0006 7047     		bx	lr
 3149              	.L336:
 3150              		.align	2
 3151              	.L335:
 3152 0008 70A30100 		.word	.LANCHOR20+3120
 3153              		.cfi_endproc
 3154              	.LFE111:
 3155              		.size	u8g2_m_25_25_1, .-u8g2_m_25_25_1
 3156              		.section	.text.u8g2_m_25_25_2,"ax",%progbits
 3157              		.align	2
 3158              		.global	u8g2_m_25_25_2
 3159              		.thumb
 3160              		.thumb_func
 3161              		.type	u8g2_m_25_25_2, %function
 3162              	u8g2_m_25_25_2:
 3163              	.LFB112:
 678:..\u8g2-master\csrc/u8g2_d_memory.c **** uint8_t *u8g2_m_25_25_2(uint8_t *page_cnt)
 679:..\u8g2-master\csrc/u8g2_d_memory.c **** {
 3164              		.loc 1 679 0
 3165              		.cfi_startproc
 3166              		@ args = 0, pretend = 0, frame = 0
 3167              		@ frame_needed = 0, uses_anonymous_args = 0
 3168              		@ link register save eliminated.
 3169              	.LVL224:
 680:..\u8g2-master\csrc/u8g2_d_memory.c ****   static uint8_t buf[400];
 681:..\u8g2-master\csrc/u8g2_d_memory.c ****   *page_cnt = 2;
 3170              		.loc 1 681 0
 3171 0000 0223     		movs	r3, #2
 3172 0002 0370     		strb	r3, [r0]
 682:..\u8g2-master\csrc/u8g2_d_memory.c ****   return buf;
 683:..\u8g2-master\csrc/u8g2_d_memory.c **** }
 3173              		.loc 1 683 0
 3174 0004 0048     		ldr	r0, .L338
 3175              	.LVL225:
 3176 0006 7047     		bx	lr
 3177              	.L339:
 3178              		.align	2
 3179              	.L338:
 3180 0008 38A40100 		.word	.LANCHOR20+3320
 3181              		.cfi_endproc
 3182              	.LFE112:
 3183              		.size	u8g2_m_25_25_2, .-u8g2_m_25_25_2
 3184              		.section	.text.u8g2_m_25_25_f,"ax",%progbits
 3185              		.align	2
 3186              		.global	u8g2_m_25_25_f
 3187              		.thumb
 3188              		.thumb_func
 3189              		.type	u8g2_m_25_25_f, %function
 3190              	u8g2_m_25_25_f:
 3191              	.LFB113:
 684:..\u8g2-master\csrc/u8g2_d_memory.c **** uint8_t *u8g2_m_25_25_f(uint8_t *page_cnt)
 685:..\u8g2-master\csrc/u8g2_d_memory.c **** {
ARM GAS  C:\Users\info\AppData\Local\Temp\ccfHjuLM.s 			page 69


 3192              		.loc 1 685 0
 3193              		.cfi_startproc
 3194              		@ args = 0, pretend = 0, frame = 0
 3195              		@ frame_needed = 0, uses_anonymous_args = 0
 3196              		@ link register save eliminated.
 3197              	.LVL226:
 686:..\u8g2-master\csrc/u8g2_d_memory.c ****   static uint8_t buf[5000];
 687:..\u8g2-master\csrc/u8g2_d_memory.c ****   *page_cnt = 25;
 3198              		.loc 1 687 0
 3199 0000 1923     		movs	r3, #25
 3200 0002 0370     		strb	r3, [r0]
 688:..\u8g2-master\csrc/u8g2_d_memory.c ****   return buf;
 689:..\u8g2-master\csrc/u8g2_d_memory.c **** }
 3201              		.loc 1 689 0
 3202 0004 0048     		ldr	r0, .L341
 3203              	.LVL227:
 3204 0006 7047     		bx	lr
 3205              	.L342:
 3206              		.align	2
 3207              	.L341:
 3208 0008 C8A50100 		.word	.LANCHOR20+3720
 3209              		.cfi_endproc
 3210              	.LFE113:
 3211              		.size	u8g2_m_25_25_f, .-u8g2_m_25_25_f
 3212              		.section	.text.u8g2_m_37_16_1,"ax",%progbits
 3213              		.align	2
 3214              		.global	u8g2_m_37_16_1
 3215              		.thumb
 3216              		.thumb_func
 3217              		.type	u8g2_m_37_16_1, %function
 3218              	u8g2_m_37_16_1:
 3219              	.LFB114:
 690:..\u8g2-master\csrc/u8g2_d_memory.c **** uint8_t *u8g2_m_37_16_1(uint8_t *page_cnt)
 691:..\u8g2-master\csrc/u8g2_d_memory.c **** {
 3220              		.loc 1 691 0
 3221              		.cfi_startproc
 3222              		@ args = 0, pretend = 0, frame = 0
 3223              		@ frame_needed = 0, uses_anonymous_args = 0
 3224              		@ link register save eliminated.
 3225              	.LVL228:
 692:..\u8g2-master\csrc/u8g2_d_memory.c ****   static uint8_t buf[296];
 693:..\u8g2-master\csrc/u8g2_d_memory.c ****   *page_cnt = 1;
 3226              		.loc 1 693 0
 3227 0000 0123     		movs	r3, #1
 3228 0002 0370     		strb	r3, [r0]
 694:..\u8g2-master\csrc/u8g2_d_memory.c ****   return buf;
 695:..\u8g2-master\csrc/u8g2_d_memory.c **** }
 3229              		.loc 1 695 0
 3230 0004 0048     		ldr	r0, .L344
 3231              	.LVL229:
 3232 0006 7047     		bx	lr
 3233              	.L345:
 3234              		.align	2
 3235              	.L344:
 3236 0008 50B90100 		.word	.LANCHOR21+32
 3237              		.cfi_endproc
 3238              	.LFE114:
ARM GAS  C:\Users\info\AppData\Local\Temp\ccfHjuLM.s 			page 70


 3239              		.size	u8g2_m_37_16_1, .-u8g2_m_37_16_1
 3240              		.section	.text.u8g2_m_37_16_2,"ax",%progbits
 3241              		.align	2
 3242              		.global	u8g2_m_37_16_2
 3243              		.thumb
 3244              		.thumb_func
 3245              		.type	u8g2_m_37_16_2, %function
 3246              	u8g2_m_37_16_2:
 3247              	.LFB115:
 696:..\u8g2-master\csrc/u8g2_d_memory.c **** uint8_t *u8g2_m_37_16_2(uint8_t *page_cnt)
 697:..\u8g2-master\csrc/u8g2_d_memory.c **** {
 3248              		.loc 1 697 0
 3249              		.cfi_startproc
 3250              		@ args = 0, pretend = 0, frame = 0
 3251              		@ frame_needed = 0, uses_anonymous_args = 0
 3252              		@ link register save eliminated.
 3253              	.LVL230:
 698:..\u8g2-master\csrc/u8g2_d_memory.c ****   static uint8_t buf[592];
 699:..\u8g2-master\csrc/u8g2_d_memory.c ****   *page_cnt = 2;
 3254              		.loc 1 699 0
 3255 0000 0223     		movs	r3, #2
 3256 0002 0370     		strb	r3, [r0]
 700:..\u8g2-master\csrc/u8g2_d_memory.c ****   return buf;
 701:..\u8g2-master\csrc/u8g2_d_memory.c **** }
 3257              		.loc 1 701 0
 3258 0004 0048     		ldr	r0, .L347
 3259              	.LVL231:
 3260 0006 7047     		bx	lr
 3261              	.L348:
 3262              		.align	2
 3263              	.L347:
 3264 0008 78BA0100 		.word	.LANCHOR21+328
 3265              		.cfi_endproc
 3266              	.LFE115:
 3267              		.size	u8g2_m_37_16_2, .-u8g2_m_37_16_2
 3268              		.section	.text.u8g2_m_37_16_f,"ax",%progbits
 3269              		.align	2
 3270              		.global	u8g2_m_37_16_f
 3271              		.thumb
 3272              		.thumb_func
 3273              		.type	u8g2_m_37_16_f, %function
 3274              	u8g2_m_37_16_f:
 3275              	.LFB116:
 702:..\u8g2-master\csrc/u8g2_d_memory.c **** uint8_t *u8g2_m_37_16_f(uint8_t *page_cnt)
 703:..\u8g2-master\csrc/u8g2_d_memory.c **** {
 3276              		.loc 1 703 0
 3277              		.cfi_startproc
 3278              		@ args = 0, pretend = 0, frame = 0
 3279              		@ frame_needed = 0, uses_anonymous_args = 0
 3280              		@ link register save eliminated.
 3281              	.LVL232:
 704:..\u8g2-master\csrc/u8g2_d_memory.c ****   static uint8_t buf[4736];
 705:..\u8g2-master\csrc/u8g2_d_memory.c ****   *page_cnt = 16;
 3282              		.loc 1 705 0
 3283 0000 1023     		movs	r3, #16
 3284 0002 0370     		strb	r3, [r0]
 706:..\u8g2-master\csrc/u8g2_d_memory.c ****   return buf;
ARM GAS  C:\Users\info\AppData\Local\Temp\ccfHjuLM.s 			page 71


 707:..\u8g2-master\csrc/u8g2_d_memory.c **** }
 3285              		.loc 1 707 0
 3286 0004 0048     		ldr	r0, .L350
 3287              	.LVL233:
 3288 0006 7047     		bx	lr
 3289              	.L351:
 3290              		.align	2
 3291              	.L350:
 3292 0008 C8BC0100 		.word	.LANCHOR21+920
 3293              		.cfi_endproc
 3294              	.LFE116:
 3295              		.size	u8g2_m_37_16_f, .-u8g2_m_37_16_f
 3296              		.section	.text.u8g2_m_8_1_1,"ax",%progbits
 3297              		.align	2
 3298              		.global	u8g2_m_8_1_1
 3299              		.thumb
 3300              		.thumb_func
 3301              		.type	u8g2_m_8_1_1, %function
 3302              	u8g2_m_8_1_1:
 3303              	.LFB117:
 708:..\u8g2-master\csrc/u8g2_d_memory.c **** uint8_t *u8g2_m_8_1_1(uint8_t *page_cnt)
 709:..\u8g2-master\csrc/u8g2_d_memory.c **** {
 3304              		.loc 1 709 0
 3305              		.cfi_startproc
 3306              		@ args = 0, pretend = 0, frame = 0
 3307              		@ frame_needed = 0, uses_anonymous_args = 0
 3308              		@ link register save eliminated.
 3309              	.LVL234:
 710:..\u8g2-master\csrc/u8g2_d_memory.c ****   static uint8_t buf[64];
 711:..\u8g2-master\csrc/u8g2_d_memory.c ****   *page_cnt = 1;
 3310              		.loc 1 711 0
 3311 0000 0123     		movs	r3, #1
 3312 0002 0370     		strb	r3, [r0]
 712:..\u8g2-master\csrc/u8g2_d_memory.c ****   return buf;
 713:..\u8g2-master\csrc/u8g2_d_memory.c **** }
 3313              		.loc 1 713 0
 3314 0004 0048     		ldr	r0, .L353
 3315              	.LVL235:
 3316 0006 7047     		bx	lr
 3317              	.L354:
 3318              		.align	2
 3319              	.L353:
 3320 0008 48CF0100 		.word	.LANCHOR22+1312
 3321              		.cfi_endproc
 3322              	.LFE117:
 3323              		.size	u8g2_m_8_1_1, .-u8g2_m_8_1_1
 3324              		.section	.text.u8g2_m_8_1_2,"ax",%progbits
 3325              		.align	2
 3326              		.global	u8g2_m_8_1_2
 3327              		.thumb
 3328              		.thumb_func
 3329              		.type	u8g2_m_8_1_2, %function
 3330              	u8g2_m_8_1_2:
 3331              	.LFB118:
 714:..\u8g2-master\csrc/u8g2_d_memory.c **** uint8_t *u8g2_m_8_1_2(uint8_t *page_cnt)
 715:..\u8g2-master\csrc/u8g2_d_memory.c **** {
 3332              		.loc 1 715 0
ARM GAS  C:\Users\info\AppData\Local\Temp\ccfHjuLM.s 			page 72


 3333              		.cfi_startproc
 3334              		@ args = 0, pretend = 0, frame = 0
 3335              		@ frame_needed = 0, uses_anonymous_args = 0
 3336              		@ link register save eliminated.
 3337              	.LVL236:
 716:..\u8g2-master\csrc/u8g2_d_memory.c ****   static uint8_t buf[128];
 717:..\u8g2-master\csrc/u8g2_d_memory.c ****   *page_cnt = 2;
 3338              		.loc 1 717 0
 3339 0000 0223     		movs	r3, #2
 3340 0002 0370     		strb	r3, [r0]
 718:..\u8g2-master\csrc/u8g2_d_memory.c ****   return buf;
 719:..\u8g2-master\csrc/u8g2_d_memory.c **** }
 3341              		.loc 1 719 0
 3342 0004 0048     		ldr	r0, .L356
 3343              	.LVL237:
 3344 0006 7047     		bx	lr
 3345              	.L357:
 3346              		.align	2
 3347              	.L356:
 3348 0008 88CF0100 		.word	.LANCHOR22+1376
 3349              		.cfi_endproc
 3350              	.LFE118:
 3351              		.size	u8g2_m_8_1_2, .-u8g2_m_8_1_2
 3352              		.section	.text.u8g2_m_8_1_f,"ax",%progbits
 3353              		.align	2
 3354              		.global	u8g2_m_8_1_f
 3355              		.thumb
 3356              		.thumb_func
 3357              		.type	u8g2_m_8_1_f, %function
 3358              	u8g2_m_8_1_f:
 3359              	.LFB119:
 720:..\u8g2-master\csrc/u8g2_d_memory.c **** uint8_t *u8g2_m_8_1_f(uint8_t *page_cnt)
 721:..\u8g2-master\csrc/u8g2_d_memory.c **** {
 3360              		.loc 1 721 0
 3361              		.cfi_startproc
 3362              		@ args = 0, pretend = 0, frame = 0
 3363              		@ frame_needed = 0, uses_anonymous_args = 0
 3364              		@ link register save eliminated.
 3365              	.LVL238:
 722:..\u8g2-master\csrc/u8g2_d_memory.c ****   static uint8_t buf[64];
 723:..\u8g2-master\csrc/u8g2_d_memory.c ****   *page_cnt = 1;
 3366              		.loc 1 723 0
 3367 0000 0123     		movs	r3, #1
 3368 0002 0370     		strb	r3, [r0]
 724:..\u8g2-master\csrc/u8g2_d_memory.c ****   return buf;
 725:..\u8g2-master\csrc/u8g2_d_memory.c **** }
 3369              		.loc 1 725 0
 3370 0004 0048     		ldr	r0, .L359
 3371              	.LVL239:
 3372 0006 7047     		bx	lr
 3373              	.L360:
 3374              		.align	2
 3375              	.L359:
 3376 0008 08D00100 		.word	.LANCHOR22+1504
 3377              		.cfi_endproc
 3378              	.LFE119:
 3379              		.size	u8g2_m_8_1_f, .-u8g2_m_8_1_f
ARM GAS  C:\Users\info\AppData\Local\Temp\ccfHjuLM.s 			page 73


 3380              		.section	.text.u8g2_m_4_1_1,"ax",%progbits
 3381              		.align	2
 3382              		.global	u8g2_m_4_1_1
 3383              		.thumb
 3384              		.thumb_func
 3385              		.type	u8g2_m_4_1_1, %function
 3386              	u8g2_m_4_1_1:
 3387              	.LFB120:
 726:..\u8g2-master\csrc/u8g2_d_memory.c **** uint8_t *u8g2_m_4_1_1(uint8_t *page_cnt)
 727:..\u8g2-master\csrc/u8g2_d_memory.c **** {
 3388              		.loc 1 727 0
 3389              		.cfi_startproc
 3390              		@ args = 0, pretend = 0, frame = 0
 3391              		@ frame_needed = 0, uses_anonymous_args = 0
 3392              		@ link register save eliminated.
 3393              	.LVL240:
 728:..\u8g2-master\csrc/u8g2_d_memory.c ****   static uint8_t buf[32];
 729:..\u8g2-master\csrc/u8g2_d_memory.c ****   *page_cnt = 1;
 3394              		.loc 1 729 0
 3395 0000 0123     		movs	r3, #1
 3396 0002 0370     		strb	r3, [r0]
 730:..\u8g2-master\csrc/u8g2_d_memory.c ****   return buf;
 731:..\u8g2-master\csrc/u8g2_d_memory.c **** }
 3397              		.loc 1 731 0
 3398 0004 0048     		ldr	r0, .L362
 3399              	.LVL241:
 3400 0006 7047     		bx	lr
 3401              	.L363:
 3402              		.align	2
 3403              	.L362:
 3404 0008 48D00100 		.word	.LANCHOR22+1568
 3405              		.cfi_endproc
 3406              	.LFE120:
 3407              		.size	u8g2_m_4_1_1, .-u8g2_m_4_1_1
 3408              		.section	.text.u8g2_m_4_1_2,"ax",%progbits
 3409              		.align	2
 3410              		.global	u8g2_m_4_1_2
 3411              		.thumb
 3412              		.thumb_func
 3413              		.type	u8g2_m_4_1_2, %function
 3414              	u8g2_m_4_1_2:
 3415              	.LFB121:
 732:..\u8g2-master\csrc/u8g2_d_memory.c **** uint8_t *u8g2_m_4_1_2(uint8_t *page_cnt)
 733:..\u8g2-master\csrc/u8g2_d_memory.c **** {
 3416              		.loc 1 733 0
 3417              		.cfi_startproc
 3418              		@ args = 0, pretend = 0, frame = 0
 3419              		@ frame_needed = 0, uses_anonymous_args = 0
 3420              		@ link register save eliminated.
 3421              	.LVL242:
 734:..\u8g2-master\csrc/u8g2_d_memory.c ****   static uint8_t buf[64];
 735:..\u8g2-master\csrc/u8g2_d_memory.c ****   *page_cnt = 2;
 3422              		.loc 1 735 0
 3423 0000 0223     		movs	r3, #2
 3424 0002 0370     		strb	r3, [r0]
 736:..\u8g2-master\csrc/u8g2_d_memory.c ****   return buf;
 737:..\u8g2-master\csrc/u8g2_d_memory.c **** }
ARM GAS  C:\Users\info\AppData\Local\Temp\ccfHjuLM.s 			page 74


 3425              		.loc 1 737 0
 3426 0004 0048     		ldr	r0, .L365
 3427              	.LVL243:
 3428 0006 7047     		bx	lr
 3429              	.L366:
 3430              		.align	2
 3431              	.L365:
 3432 0008 68D00100 		.word	.LANCHOR22+1600
 3433              		.cfi_endproc
 3434              	.LFE121:
 3435              		.size	u8g2_m_4_1_2, .-u8g2_m_4_1_2
 3436              		.section	.text.u8g2_m_4_1_f,"ax",%progbits
 3437              		.align	2
 3438              		.global	u8g2_m_4_1_f
 3439              		.thumb
 3440              		.thumb_func
 3441              		.type	u8g2_m_4_1_f, %function
 3442              	u8g2_m_4_1_f:
 3443              	.LFB122:
 738:..\u8g2-master\csrc/u8g2_d_memory.c **** uint8_t *u8g2_m_4_1_f(uint8_t *page_cnt)
 739:..\u8g2-master\csrc/u8g2_d_memory.c **** {
 3444              		.loc 1 739 0
 3445              		.cfi_startproc
 3446              		@ args = 0, pretend = 0, frame = 0
 3447              		@ frame_needed = 0, uses_anonymous_args = 0
 3448              		@ link register save eliminated.
 3449              	.LVL244:
 740:..\u8g2-master\csrc/u8g2_d_memory.c ****   static uint8_t buf[32];
 741:..\u8g2-master\csrc/u8g2_d_memory.c ****   *page_cnt = 1;
 3450              		.loc 1 741 0
 3451 0000 0123     		movs	r3, #1
 3452 0002 0370     		strb	r3, [r0]
 742:..\u8g2-master\csrc/u8g2_d_memory.c ****   return buf;
 743:..\u8g2-master\csrc/u8g2_d_memory.c **** }
 3453              		.loc 1 743 0
 3454 0004 0048     		ldr	r0, .L368
 3455              	.LVL245:
 3456 0006 7047     		bx	lr
 3457              	.L369:
 3458              		.align	2
 3459              	.L368:
 3460 0008 A8D00100 		.word	.LANCHOR22+1664
 3461              		.cfi_endproc
 3462              	.LFE122:
 3463              		.size	u8g2_m_4_1_f, .-u8g2_m_4_1_f
 3464              		.section	.text.u8g2_m_1_1_1,"ax",%progbits
 3465              		.align	2
 3466              		.global	u8g2_m_1_1_1
 3467              		.thumb
 3468              		.thumb_func
 3469              		.type	u8g2_m_1_1_1, %function
 3470              	u8g2_m_1_1_1:
 3471              	.LFB123:
 744:..\u8g2-master\csrc/u8g2_d_memory.c **** uint8_t *u8g2_m_1_1_1(uint8_t *page_cnt)
 745:..\u8g2-master\csrc/u8g2_d_memory.c **** {
 3472              		.loc 1 745 0
 3473              		.cfi_startproc
ARM GAS  C:\Users\info\AppData\Local\Temp\ccfHjuLM.s 			page 75


 3474              		@ args = 0, pretend = 0, frame = 0
 3475              		@ frame_needed = 0, uses_anonymous_args = 0
 3476              		@ link register save eliminated.
 3477              	.LVL246:
 746:..\u8g2-master\csrc/u8g2_d_memory.c ****   static uint8_t buf[8];
 747:..\u8g2-master\csrc/u8g2_d_memory.c ****   *page_cnt = 1;
 3478              		.loc 1 747 0
 3479 0000 0123     		movs	r3, #1
 3480 0002 0370     		strb	r3, [r0]
 748:..\u8g2-master\csrc/u8g2_d_memory.c ****   return buf;
 749:..\u8g2-master\csrc/u8g2_d_memory.c **** }
 3481              		.loc 1 749 0
 3482 0004 0048     		ldr	r0, .L371
 3483              	.LVL247:
 3484 0006 7047     		bx	lr
 3485              	.L372:
 3486              		.align	2
 3487              	.L371:
 3488 0008 C8D00100 		.word	.LANCHOR22+1696
 3489              		.cfi_endproc
 3490              	.LFE123:
 3491              		.size	u8g2_m_1_1_1, .-u8g2_m_1_1_1
 3492              		.section	.text.u8g2_m_1_1_2,"ax",%progbits
 3493              		.align	2
 3494              		.global	u8g2_m_1_1_2
 3495              		.thumb
 3496              		.thumb_func
 3497              		.type	u8g2_m_1_1_2, %function
 3498              	u8g2_m_1_1_2:
 3499              	.LFB124:
 750:..\u8g2-master\csrc/u8g2_d_memory.c **** uint8_t *u8g2_m_1_1_2(uint8_t *page_cnt)
 751:..\u8g2-master\csrc/u8g2_d_memory.c **** {
 3500              		.loc 1 751 0
 3501              		.cfi_startproc
 3502              		@ args = 0, pretend = 0, frame = 0
 3503              		@ frame_needed = 0, uses_anonymous_args = 0
 3504              		@ link register save eliminated.
 3505              	.LVL248:
 752:..\u8g2-master\csrc/u8g2_d_memory.c ****   static uint8_t buf[16];
 753:..\u8g2-master\csrc/u8g2_d_memory.c ****   *page_cnt = 2;
 3506              		.loc 1 753 0
 3507 0000 0223     		movs	r3, #2
 3508 0002 0370     		strb	r3, [r0]
 754:..\u8g2-master\csrc/u8g2_d_memory.c ****   return buf;
 755:..\u8g2-master\csrc/u8g2_d_memory.c **** }
 3509              		.loc 1 755 0
 3510 0004 0048     		ldr	r0, .L374
 3511              	.LVL249:
 3512 0006 7047     		bx	lr
 3513              	.L375:
 3514              		.align	2
 3515              	.L374:
 3516 0008 D0D00100 		.word	.LANCHOR22+1704
 3517              		.cfi_endproc
 3518              	.LFE124:
 3519              		.size	u8g2_m_1_1_2, .-u8g2_m_1_1_2
 3520              		.section	.text.u8g2_m_1_1_f,"ax",%progbits
ARM GAS  C:\Users\info\AppData\Local\Temp\ccfHjuLM.s 			page 76


 3521              		.align	2
 3522              		.global	u8g2_m_1_1_f
 3523              		.thumb
 3524              		.thumb_func
 3525              		.type	u8g2_m_1_1_f, %function
 3526              	u8g2_m_1_1_f:
 3527              	.LFB125:
 756:..\u8g2-master\csrc/u8g2_d_memory.c **** uint8_t *u8g2_m_1_1_f(uint8_t *page_cnt)
 757:..\u8g2-master\csrc/u8g2_d_memory.c **** {
 3528              		.loc 1 757 0
 3529              		.cfi_startproc
 3530              		@ args = 0, pretend = 0, frame = 0
 3531              		@ frame_needed = 0, uses_anonymous_args = 0
 3532              		@ link register save eliminated.
 3533              	.LVL250:
 758:..\u8g2-master\csrc/u8g2_d_memory.c ****   static uint8_t buf[8];
 759:..\u8g2-master\csrc/u8g2_d_memory.c ****   *page_cnt = 1;
 3534              		.loc 1 759 0
 3535 0000 0123     		movs	r3, #1
 3536 0002 0370     		strb	r3, [r0]
 760:..\u8g2-master\csrc/u8g2_d_memory.c ****   return buf;
 761:..\u8g2-master\csrc/u8g2_d_memory.c **** }
 3537              		.loc 1 761 0
 3538 0004 0048     		ldr	r0, .L377
 3539              	.LVL251:
 3540 0006 7047     		bx	lr
 3541              	.L378:
 3542              		.align	2
 3543              	.L377:
 3544 0008 E0D00100 		.word	.LANCHOR22+1720
 3545              		.cfi_endproc
 3546              	.LFE125:
 3547              		.size	u8g2_m_1_1_f, .-u8g2_m_1_1_f
 3548              		.section	.text.u8g2_m_48_30_1,"ax",%progbits
 3549              		.align	2
 3550              		.global	u8g2_m_48_30_1
 3551              		.thumb
 3552              		.thumb_func
 3553              		.type	u8g2_m_48_30_1, %function
 3554              	u8g2_m_48_30_1:
 3555              	.LFB126:
 762:..\u8g2-master\csrc/u8g2_d_memory.c **** uint8_t *u8g2_m_48_30_1(uint8_t *page_cnt)
 763:..\u8g2-master\csrc/u8g2_d_memory.c **** {
 3556              		.loc 1 763 0
 3557              		.cfi_startproc
 3558              		@ args = 0, pretend = 0, frame = 0
 3559              		@ frame_needed = 0, uses_anonymous_args = 0
 3560              		@ link register save eliminated.
 3561              	.LVL252:
 764:..\u8g2-master\csrc/u8g2_d_memory.c ****   static uint8_t buf[384];
 765:..\u8g2-master\csrc/u8g2_d_memory.c ****   *page_cnt = 1;
 3562              		.loc 1 765 0
 3563 0000 0123     		movs	r3, #1
 3564 0002 0370     		strb	r3, [r0]
 766:..\u8g2-master\csrc/u8g2_d_memory.c ****   return buf;
 767:..\u8g2-master\csrc/u8g2_d_memory.c **** }
 3565              		.loc 1 767 0
ARM GAS  C:\Users\info\AppData\Local\Temp\ccfHjuLM.s 			page 77


 3566 0004 0048     		ldr	r0, .L380
 3567              	.LVL253:
 3568 0006 7047     		bx	lr
 3569              	.L381:
 3570              		.align	2
 3571              	.L380:
 3572 0008 E8D00100 		.word	.LANCHOR22+1728
 3573              		.cfi_endproc
 3574              	.LFE126:
 3575              		.size	u8g2_m_48_30_1, .-u8g2_m_48_30_1
 3576              		.section	.text.u8g2_m_48_30_2,"ax",%progbits
 3577              		.align	2
 3578              		.global	u8g2_m_48_30_2
 3579              		.thumb
 3580              		.thumb_func
 3581              		.type	u8g2_m_48_30_2, %function
 3582              	u8g2_m_48_30_2:
 3583              	.LFB127:
 768:..\u8g2-master\csrc/u8g2_d_memory.c **** uint8_t *u8g2_m_48_30_2(uint8_t *page_cnt)
 769:..\u8g2-master\csrc/u8g2_d_memory.c **** {
 3584              		.loc 1 769 0
 3585              		.cfi_startproc
 3586              		@ args = 0, pretend = 0, frame = 0
 3587              		@ frame_needed = 0, uses_anonymous_args = 0
 3588              		@ link register save eliminated.
 3589              	.LVL254:
 770:..\u8g2-master\csrc/u8g2_d_memory.c ****   static uint8_t buf[768];
 771:..\u8g2-master\csrc/u8g2_d_memory.c ****   *page_cnt = 2;
 3590              		.loc 1 771 0
 3591 0000 0223     		movs	r3, #2
 3592 0002 0370     		strb	r3, [r0]
 772:..\u8g2-master\csrc/u8g2_d_memory.c ****   return buf;
 773:..\u8g2-master\csrc/u8g2_d_memory.c **** }
 3593              		.loc 1 773 0
 3594 0004 0048     		ldr	r0, .L383
 3595              	.LVL255:
 3596 0006 7047     		bx	lr
 3597              	.L384:
 3598              		.align	2
 3599              	.L383:
 3600 0008 68D20100 		.word	.LANCHOR22+2112
 3601              		.cfi_endproc
 3602              	.LFE127:
 3603              		.size	u8g2_m_48_30_2, .-u8g2_m_48_30_2
 3604              		.section	.text.u8g2_m_48_30_f,"ax",%progbits
 3605              		.align	2
 3606              		.global	u8g2_m_48_30_f
 3607              		.thumb
 3608              		.thumb_func
 3609              		.type	u8g2_m_48_30_f, %function
 3610              	u8g2_m_48_30_f:
 3611              	.LFB128:
 774:..\u8g2-master\csrc/u8g2_d_memory.c **** uint8_t *u8g2_m_48_30_f(uint8_t *page_cnt)
 775:..\u8g2-master\csrc/u8g2_d_memory.c **** {
 3612              		.loc 1 775 0
 3613              		.cfi_startproc
 3614              		@ args = 0, pretend = 0, frame = 0
ARM GAS  C:\Users\info\AppData\Local\Temp\ccfHjuLM.s 			page 78


 3615              		@ frame_needed = 0, uses_anonymous_args = 0
 3616              		@ link register save eliminated.
 3617              	.LVL256:
 776:..\u8g2-master\csrc/u8g2_d_memory.c ****   static uint8_t buf[11520];
 777:..\u8g2-master\csrc/u8g2_d_memory.c ****   *page_cnt = 30;
 3618              		.loc 1 777 0
 3619 0000 1E23     		movs	r3, #30
 3620 0002 0370     		strb	r3, [r0]
 778:..\u8g2-master\csrc/u8g2_d_memory.c ****   return buf;
 779:..\u8g2-master\csrc/u8g2_d_memory.c **** }
 3621              		.loc 1 779 0
 3622 0004 0048     		ldr	r0, .L386
 3623              	.LVL257:
 3624 0006 7047     		bx	lr
 3625              	.L387:
 3626              		.align	2
 3627              	.L386:
 3628 0008 68D50100 		.word	.LANCHOR22+2880
 3629              		.cfi_endproc
 3630              	.LFE128:
 3631              		.size	u8g2_m_48_30_f, .-u8g2_m_48_30_f
 3632              		.bss
 3633              		.align	2
 3634              		.set	.LANCHOR0,. + 0
 3635              		.set	.LANCHOR1,. + 4344
 3636              		.set	.LANCHOR2,. + 8688
 3637              		.set	.LANCHOR3,. + 13032
 3638              		.set	.LANCHOR4,. + 17376
 3639              		.set	.LANCHOR5,. + 21720
 3640              		.set	.LANCHOR6,. + 34752
 3641              		.set	.LANCHOR7,. + 39096
 3642              		.set	.LANCHOR8,. + 43440
 3643              		.set	.LANCHOR9,. + 47784
 3644              		.set	.LANCHOR10,. + 52128
 3645              		.set	.LANCHOR11,. + 56472
 3646              		.set	.LANCHOR12,. + 60816
 3647              		.set	.LANCHOR13,. + 65160
 3648              		.set	.LANCHOR14,. + 73848
 3649              		.set	.LANCHOR15,. + 78192
 3650              		.set	.LANCHOR16,. + 86880
 3651              		.set	.LANCHOR17,. + 91224
 3652              		.set	.LANCHOR18,. + 95568
 3653              		.set	.LANCHOR19,. + 99912
 3654              		.set	.LANCHOR20,. + 104256
 3655              		.set	.LANCHOR21,. + 112944
 3656              		.set	.LANCHOR22,. + 117288
 3657              		.type	buf.10141, %object
 3658              		.size	buf.10141, 128
 3659              	buf.10141:
 3660 0000 00000000 		.space	128
 3660      00000000 
 3660      00000000 
 3660      00000000 
 3660      00000000 
 3661              		.type	buf.10145, %object
 3662              		.size	buf.10145, 256
 3663              	buf.10145:
ARM GAS  C:\Users\info\AppData\Local\Temp\ccfHjuLM.s 			page 79


 3664 0080 00000000 		.space	256
 3664      00000000 
 3664      00000000 
 3664      00000000 
 3664      00000000 
 3665              		.type	buf.10149, %object
 3666              		.size	buf.10149, 512
 3667              	buf.10149:
 3668 0180 00000000 		.space	512
 3668      00000000 
 3668      00000000 
 3668      00000000 
 3668      00000000 
 3669              		.type	buf.10153, %object
 3670              		.size	buf.10153, 128
 3671              	buf.10153:
 3672 0380 00000000 		.space	128
 3672      00000000 
 3672      00000000 
 3672      00000000 
 3672      00000000 
 3673              		.type	buf.10157, %object
 3674              		.size	buf.10157, 256
 3675              	buf.10157:
 3676 0400 00000000 		.space	256
 3676      00000000 
 3676      00000000 
 3676      00000000 
 3676      00000000 
 3677              		.type	buf.10161, %object
 3678              		.size	buf.10161, 1024
 3679              	buf.10161:
 3680 0500 00000000 		.space	1024
 3680      00000000 
 3680      00000000 
 3680      00000000 
 3680      00000000 
 3681              		.type	buf.10165, %object
 3682              		.size	buf.10165, 72
 3683              	buf.10165:
 3684 0900 00000000 		.space	72
 3684      00000000 
 3684      00000000 
 3684      00000000 
 3684      00000000 
 3685              		.type	buf.10169, %object
 3686              		.size	buf.10169, 144
 3687              	buf.10169:
 3688 0948 00000000 		.space	144
 3688      00000000 
 3688      00000000 
 3688      00000000 
 3688      00000000 
 3689              		.type	buf.10173, %object
 3690              		.size	buf.10173, 360
 3691              	buf.10173:
 3692 09d8 00000000 		.space	360
ARM GAS  C:\Users\info\AppData\Local\Temp\ccfHjuLM.s 			page 80


 3692      00000000 
 3692      00000000 
 3692      00000000 
 3692      00000000 
 3693              		.type	buf.10177, %object
 3694              		.size	buf.10177, 64
 3695              	buf.10177:
 3696 0b40 00000000 		.space	64
 3696      00000000 
 3696      00000000 
 3696      00000000 
 3696      00000000 
 3697              		.type	buf.10181, %object
 3698              		.size	buf.10181, 128
 3699              	buf.10181:
 3700 0b80 00000000 		.space	128
 3700      00000000 
 3700      00000000 
 3700      00000000 
 3700      00000000 
 3701              		.type	buf.10185, %object
 3702              		.size	buf.10185, 256
 3703              	buf.10185:
 3704 0c00 00000000 		.space	256
 3704      00000000 
 3704      00000000 
 3704      00000000 
 3704      00000000 
 3705              		.type	buf.10189, %object
 3706              		.size	buf.10189, 64
 3707              	buf.10189:
 3708 0d00 00000000 		.space	64
 3708      00000000 
 3708      00000000 
 3708      00000000 
 3708      00000000 
 3709              		.type	buf.10193, %object
 3710              		.size	buf.10193, 128
 3711              	buf.10193:
 3712 0d40 00000000 		.space	128
 3712      00000000 
 3712      00000000 
 3712      00000000 
 3712      00000000 
 3713              		.type	buf.10197, %object
 3714              		.size	buf.10197, 1024
 3715              	buf.10197:
 3716 0dc0 00000000 		.space	1024
 3716      00000000 
 3716      00000000 
 3716      00000000 
 3716      00000000 
 3717              		.type	buf.10201, %object
 3718              		.size	buf.10201, 96
 3719              	buf.10201:
 3720 11c0 00000000 		.space	96
 3720      00000000 
ARM GAS  C:\Users\info\AppData\Local\Temp\ccfHjuLM.s 			page 81


 3720      00000000 
 3720      00000000 
 3720      00000000 
 3721              		.type	buf.10205, %object
 3722              		.size	buf.10205, 192
 3723              	buf.10205:
 3724 1220 00000000 		.space	192
 3724      00000000 
 3724      00000000 
 3724      00000000 
 3724      00000000 
 3725              		.type	buf.10209, %object
 3726              		.size	buf.10209, 1152
 3727              	buf.10209:
 3728 12e0 00000000 		.space	1152
 3728      00000000 
 3728      00000000 
 3728      00000000 
 3728      00000000 
 3729              		.type	buf.10213, %object
 3730              		.size	buf.10213, 128
 3731              	buf.10213:
 3732 1760 00000000 		.space	128
 3732      00000000 
 3732      00000000 
 3732      00000000 
 3732      00000000 
 3733              		.type	buf.10217, %object
 3734              		.size	buf.10217, 256
 3735              	buf.10217:
 3736 17e0 00000000 		.space	256
 3736      00000000 
 3736      00000000 
 3736      00000000 
 3736      00000000 
 3737              		.type	buf.10221, %object
 3738              		.size	buf.10221, 2048
 3739              	buf.10221:
 3740 18e0 00000000 		.space	2048
 3740      00000000 
 3740      00000000 
 3740      00000000 
 3740      00000000 
 3741              		.type	buf.10225, %object
 3742              		.size	buf.10225, 160
 3743              	buf.10225:
 3744 20e0 00000000 		.space	160
 3744      00000000 
 3744      00000000 
 3744      00000000 
 3744      00000000 
 3745              		.type	buf.10229, %object
 3746              		.size	buf.10229, 320
 3747              	buf.10229:
 3748 2180 00000000 		.space	320
 3748      00000000 
 3748      00000000 
ARM GAS  C:\Users\info\AppData\Local\Temp\ccfHjuLM.s 			page 82


 3748      00000000 
 3748      00000000 
 3749              		.type	buf.10233, %object
 3750              		.size	buf.10233, 3200
 3751              	buf.10233:
 3752 22c0 00000000 		.space	3200
 3752      00000000 
 3752      00000000 
 3752      00000000 
 3752      00000000 
 3753              		.type	buf.10237, %object
 3754              		.size	buf.10237, 256
 3755              	buf.10237:
 3756 2f40 00000000 		.space	256
 3756      00000000 
 3756      00000000 
 3756      00000000 
 3756      00000000 
 3757              		.type	buf.10241, %object
 3758              		.size	buf.10241, 512
 3759              	buf.10241:
 3760 3040 00000000 		.space	512
 3760      00000000 
 3760      00000000 
 3760      00000000 
 3760      00000000 
 3761              		.type	buf.10245, %object
 3762              		.size	buf.10245, 2048
 3763              	buf.10245:
 3764 3240 00000000 		.space	2048
 3764      00000000 
 3764      00000000 
 3764      00000000 
 3764      00000000 
 3765              		.type	buf.10249, %object
 3766              		.size	buf.10249, 64
 3767              	buf.10249:
 3768 3a40 00000000 		.space	64
 3768      00000000 
 3768      00000000 
 3768      00000000 
 3768      00000000 
 3769              		.type	buf.10253, %object
 3770              		.size	buf.10253, 128
 3771              	buf.10253:
 3772 3a80 00000000 		.space	128
 3772      00000000 
 3772      00000000 
 3772      00000000 
 3772      00000000 
 3773              		.type	buf.10257, %object
 3774              		.size	buf.10257, 384
 3775              	buf.10257:
 3776 3b00 00000000 		.space	384
 3776      00000000 
 3776      00000000 
 3776      00000000 
ARM GAS  C:\Users\info\AppData\Local\Temp\ccfHjuLM.s 			page 83


 3776      00000000 
 3777              		.type	buf.10261, %object
 3778              		.size	buf.10261, 48
 3779              	buf.10261:
 3780 3c80 00000000 		.space	48
 3780      00000000 
 3780      00000000 
 3780      00000000 
 3780      00000000 
 3781              		.type	buf.10265, %object
 3782              		.size	buf.10265, 96
 3783              	buf.10265:
 3784 3cb0 00000000 		.space	96
 3784      00000000 
 3784      00000000 
 3784      00000000 
 3784      00000000 
 3785              		.type	buf.10269, %object
 3786              		.size	buf.10269, 384
 3787              	buf.10269:
 3788 3d10 00000000 		.space	384
 3788      00000000 
 3788      00000000 
 3788      00000000 
 3788      00000000 
 3789              		.type	buf.10273, %object
 3790              		.size	buf.10273, 96
 3791              	buf.10273:
 3792 3e90 00000000 		.space	96
 3792      00000000 
 3792      00000000 
 3792      00000000 
 3792      00000000 
 3793              		.type	buf.10277, %object
 3794              		.size	buf.10277, 192
 3795              	buf.10277:
 3796 3ef0 00000000 		.space	192
 3796      00000000 
 3796      00000000 
 3796      00000000 
 3796      00000000 
 3797              		.type	buf.10281, %object
 3798              		.size	buf.10281, 192
 3799              	buf.10281:
 3800 3fb0 00000000 		.space	192
 3800      00000000 
 3800      00000000 
 3800      00000000 
 3800      00000000 
 3801              		.type	buf.10285, %object
 3802              		.size	buf.10285, 128
 3803              	buf.10285:
 3804 4070 00000000 		.space	128
 3804      00000000 
 3804      00000000 
 3804      00000000 
 3804      00000000 
ARM GAS  C:\Users\info\AppData\Local\Temp\ccfHjuLM.s 			page 84


 3805              		.type	buf.10289, %object
 3806              		.size	buf.10289, 256
 3807              	buf.10289:
 3808 40f0 00000000 		.space	256
 3808      00000000 
 3808      00000000 
 3808      00000000 
 3808      00000000 
 3809              		.type	buf.10293, %object
 3810              		.size	buf.10293, 1536
 3811              	buf.10293:
 3812 41f0 00000000 		.space	1536
 3812      00000000 
 3812      00000000 
 3812      00000000 
 3812      00000000 
 3813              		.type	buf.10297, %object
 3814              		.size	buf.10297, 256
 3815              	buf.10297:
 3816 47f0 00000000 		.space	256
 3816      00000000 
 3816      00000000 
 3816      00000000 
 3816      00000000 
 3817              		.type	buf.10301, %object
 3818              		.size	buf.10301, 512
 3819              	buf.10301:
 3820 48f0 00000000 		.space	512
 3820      00000000 
 3820      00000000 
 3820      00000000 
 3820      00000000 
 3821              		.type	buf.10305, %object
 3822              		.size	buf.10305, 1024
 3823              	buf.10305:
 3824 4af0 00000000 		.space	1024
 3824      00000000 
 3824      00000000 
 3824      00000000 
 3824      00000000 
 3825              		.type	buf.10309, %object
 3826              		.size	buf.10309, 192
 3827              	buf.10309:
 3828 4ef0 00000000 		.space	192
 3828      00000000 
 3828      00000000 
 3828      00000000 
 3828      00000000 
 3829              		.type	buf.10313, %object
 3830              		.size	buf.10313, 384
 3831              	buf.10313:
 3832 4fb0 00000000 		.space	384
 3832      00000000 
 3832      00000000 
 3832      00000000 
 3832      00000000 
 3833              		.type	buf.10317, %object
ARM GAS  C:\Users\info\AppData\Local\Temp\ccfHjuLM.s 			page 85


 3834              		.size	buf.10317, 768
 3835              	buf.10317:
 3836 5130 00000000 		.space	768
 3836      00000000 
 3836      00000000 
 3836      00000000 
 3836      00000000 
 3837              		.type	buf.10321, %object
 3838              		.size	buf.10321, 400
 3839              	buf.10321:
 3840 5430 00000000 		.space	400
 3840      00000000 
 3840      00000000 
 3840      00000000 
 3840      00000000 
 3841              		.type	buf.10325, %object
 3842              		.size	buf.10325, 800
 3843              	buf.10325:
 3844 55c0 00000000 		.space	800
 3844      00000000 
 3844      00000000 
 3844      00000000 
 3844      00000000 
 3845              		.type	buf.10329, %object
 3846              		.size	buf.10329, 12000
 3847              	buf.10329:
 3848 58e0 00000000 		.space	12000
 3848      00000000 
 3848      00000000 
 3848      00000000 
 3848      00000000 
 3849              		.type	buf.10333, %object
 3850              		.size	buf.10333, 144
 3851              	buf.10333:
 3852 87c0 00000000 		.space	144
 3852      00000000 
 3852      00000000 
 3852      00000000 
 3852      00000000 
 3853              		.type	buf.10337, %object
 3854              		.size	buf.10337, 288
 3855              	buf.10337:
 3856 8850 00000000 		.space	288
 3856      00000000 
 3856      00000000 
 3856      00000000 
 3856      00000000 
 3857              		.type	buf.10341, %object
 3858              		.size	buf.10341, 3024
 3859              	buf.10341:
 3860 8970 00000000 		.space	3024
 3860      00000000 
 3860      00000000 
 3860      00000000 
 3860      00000000 
 3861              		.type	buf.10345, %object
 3862              		.size	buf.10345, 104
ARM GAS  C:\Users\info\AppData\Local\Temp\ccfHjuLM.s 			page 86


 3863              	buf.10345:
 3864 9540 00000000 		.space	104
 3864      00000000 
 3864      00000000 
 3864      00000000 
 3864      00000000 
 3865              		.type	buf.10349, %object
 3866              		.size	buf.10349, 208
 3867              	buf.10349:
 3868 95a8 00000000 		.space	208
 3868      00000000 
 3868      00000000 
 3868      00000000 
 3868      00000000 
 3869              		.type	buf.10353, %object
 3870              		.size	buf.10353, 832
 3871              	buf.10353:
 3872 9678 00000000 		.space	832
 3872      00000000 
 3872      00000000 
 3872      00000000 
 3872      00000000 
 3873              		.type	buf.10357, %object
 3874              		.size	buf.10357, 88
 3875              	buf.10357:
 3876 99b8 00000000 		.space	88
 3876      00000000 
 3876      00000000 
 3876      00000000 
 3876      00000000 
 3877              		.type	buf.10361, %object
 3878              		.size	buf.10361, 176
 3879              	buf.10361:
 3880 9a10 00000000 		.space	176
 3880      00000000 
 3880      00000000 
 3880      00000000 
 3880      00000000 
 3881              		.type	buf.10365, %object
 3882              		.size	buf.10365, 528
 3883              	buf.10365:
 3884 9ac0 00000000 		.space	528
 3884      00000000 
 3884      00000000 
 3884      00000000 
 3884      00000000 
 3885              		.type	buf.10369, %object
 3886              		.size	buf.10369, 96
 3887              	buf.10369:
 3888 9cd0 00000000 		.space	96
 3888      00000000 
 3888      00000000 
 3888      00000000 
 3888      00000000 
 3889              		.type	buf.10373, %object
 3890              		.size	buf.10373, 192
 3891              	buf.10373:
ARM GAS  C:\Users\info\AppData\Local\Temp\ccfHjuLM.s 			page 87


 3892 9d30 00000000 		.space	192
 3892      00000000 
 3892      00000000 
 3892      00000000 
 3892      00000000 
 3893              		.type	buf.10377, %object
 3894              		.size	buf.10377, 864
 3895              	buf.10377:
 3896 9df0 00000000 		.space	864
 3896      00000000 
 3896      00000000 
 3896      00000000 
 3896      00000000 
 3897              		.type	buf.10381, %object
 3898              		.size	buf.10381, 192
 3899              	buf.10381:
 3900 a150 00000000 		.space	192
 3900      00000000 
 3900      00000000 
 3900      00000000 
 3900      00000000 
 3901              		.type	buf.10385, %object
 3902              		.size	buf.10385, 384
 3903              	buf.10385:
 3904 a210 00000000 		.space	384
 3904      00000000 
 3904      00000000 
 3904      00000000 
 3904      00000000 
 3905              		.type	buf.10389, %object
 3906              		.size	buf.10389, 1536
 3907              	buf.10389:
 3908 a390 00000000 		.space	1536
 3908      00000000 
 3908      00000000 
 3908      00000000 
 3908      00000000 
 3909              		.type	buf.10393, %object
 3910              		.size	buf.10393, 240
 3911              	buf.10393:
 3912 a990 00000000 		.space	240
 3912      00000000 
 3912      00000000 
 3912      00000000 
 3912      00000000 
 3913              		.type	buf.10397, %object
 3914              		.size	buf.10397, 480
 3915              	buf.10397:
 3916 aa80 00000000 		.space	480
 3916      00000000 
 3916      00000000 
 3916      00000000 
 3916      00000000 
 3917              		.type	buf.10401, %object
 3918              		.size	buf.10401, 1920
 3919              	buf.10401:
 3920 ac60 00000000 		.space	1920
ARM GAS  C:\Users\info\AppData\Local\Temp\ccfHjuLM.s 			page 88


 3920      00000000 
 3920      00000000 
 3920      00000000 
 3920      00000000 
 3921              		.type	buf.10405, %object
 3922              		.size	buf.10405, 240
 3923              	buf.10405:
 3924 b3e0 00000000 		.space	240
 3924      00000000 
 3924      00000000 
 3924      00000000 
 3924      00000000 
 3925              		.type	buf.10409, %object
 3926              		.size	buf.10409, 480
 3927              	buf.10409:
 3928 b4d0 00000000 		.space	480
 3928      00000000 
 3928      00000000 
 3928      00000000 
 3928      00000000 
 3929              		.type	buf.10413, %object
 3930              		.size	buf.10413, 3600
 3931              	buf.10413:
 3932 b6b0 00000000 		.space	3600
 3932      00000000 
 3932      00000000 
 3932      00000000 
 3932      00000000 
 3933              		.type	buf.10417, %object
 3934              		.size	buf.10417, 240
 3935              	buf.10417:
 3936 c4c0 00000000 		.space	240
 3936      00000000 
 3936      00000000 
 3936      00000000 
 3936      00000000 
 3937              		.type	buf.10421, %object
 3938              		.size	buf.10421, 480
 3939              	buf.10421:
 3940 c5b0 00000000 		.space	480
 3940      00000000 
 3940      00000000 
 3940      00000000 
 3940      00000000 
 3941              		.type	buf.10425, %object
 3942              		.size	buf.10425, 3840
 3943              	buf.10425:
 3944 c790 00000000 		.space	3840
 3944      00000000 
 3944      00000000 
 3944      00000000 
 3944      00000000 
 3945              		.type	buf.10429, %object
 3946              		.size	buf.10429, 160
 3947              	buf.10429:
 3948 d690 00000000 		.space	160
 3948      00000000 
ARM GAS  C:\Users\info\AppData\Local\Temp\ccfHjuLM.s 			page 89


 3948      00000000 
 3948      00000000 
 3948      00000000 
 3949              		.type	buf.10433, %object
 3950              		.size	buf.10433, 320
 3951              	buf.10433:
 3952 d730 00000000 		.space	320
 3952      00000000 
 3952      00000000 
 3952      00000000 
 3952      00000000 
 3953              		.type	buf.10437, %object
 3954              		.size	buf.10437, 2560
 3955              	buf.10437:
 3956 d870 00000000 		.space	2560
 3956      00000000 
 3956      00000000 
 3956      00000000 
 3956      00000000 
 3957              		.type	buf.10441, %object
 3958              		.size	buf.10441, 160
 3959              	buf.10441:
 3960 e270 00000000 		.space	160
 3960      00000000 
 3960      00000000 
 3960      00000000 
 3960      00000000 
 3961              		.type	buf.10445, %object
 3962              		.size	buf.10445, 320
 3963              	buf.10445:
 3964 e310 00000000 		.space	320
 3964      00000000 
 3964      00000000 
 3964      00000000 
 3964      00000000 
 3965              		.type	buf.10449, %object
 3966              		.size	buf.10449, 2080
 3967              	buf.10449:
 3968 e450 00000000 		.space	2080
 3968      00000000 
 3968      00000000 
 3968      00000000 
 3968      00000000 
 3969              		.type	buf.10453, %object
 3970              		.size	buf.10453, 240
 3971              	buf.10453:
 3972 ec70 00000000 		.space	240
 3972      00000000 
 3972      00000000 
 3972      00000000 
 3972      00000000 
 3973              		.type	buf.10457, %object
 3974              		.size	buf.10457, 480
 3975              	buf.10457:
 3976 ed60 00000000 		.space	480
 3976      00000000 
 3976      00000000 
ARM GAS  C:\Users\info\AppData\Local\Temp\ccfHjuLM.s 			page 90


 3976      00000000 
 3976      00000000 
 3977              		.type	buf.10461, %object
 3978              		.size	buf.10461, 4800
 3979              	buf.10461:
 3980 ef40 00000000 		.space	4800
 3980      00000000 
 3980      00000000 
 3980      00000000 
 3980      00000000 
 3981              		.type	buf.10465, %object
 3982              		.size	buf.10465, 320
 3983              	buf.10465:
 3984 10200 00000000 		.space	320
 3984      00000000 
 3984      00000000 
 3984      00000000 
 3984      00000000 
 3985              		.type	buf.10469, %object
 3986              		.size	buf.10469, 640
 3987              	buf.10469:
 3988 10340 00000000 		.space	640
 3988      00000000 
 3988      00000000 
 3988      00000000 
 3988      00000000 
 3989              		.type	buf.10473, %object
 3990              		.size	buf.10473, 9600
 3991              	buf.10473:
 3992 105c0 00000000 		.space	9600
 3992      00000000 
 3992      00000000 
 3992      00000000 
 3992      00000000 
 3993              		.type	buf.10477, %object
 3994              		.size	buf.10477, 136
 3995              	buf.10477:
 3996 12b40 00000000 		.space	136
 3996      00000000 
 3996      00000000 
 3996      00000000 
 3996      00000000 
 3997              		.type	buf.10481, %object
 3998              		.size	buf.10481, 272
 3999              	buf.10481:
 4000 12bc8 00000000 		.space	272
 4000      00000000 
 4000      00000000 
 4000      00000000 
 4000      00000000 
 4001              		.type	buf.10485, %object
 4002              		.size	buf.10485, 544
 4003              	buf.10485:
 4004 12cd8 00000000 		.space	544
 4004      00000000 
 4004      00000000 
 4004      00000000 
ARM GAS  C:\Users\info\AppData\Local\Temp\ccfHjuLM.s 			page 91


 4004      00000000 
 4005              		.type	buf.10489, %object
 4006              		.size	buf.10489, 136
 4007              	buf.10489:
 4008 12ef8 00000000 		.space	136
 4008      00000000 
 4008      00000000 
 4008      00000000 
 4008      00000000 
 4009              		.type	buf.10493, %object
 4010              		.size	buf.10493, 272
 4011              	buf.10493:
 4012 12f80 00000000 		.space	272
 4012      00000000 
 4012      00000000 
 4012      00000000 
 4012      00000000 
 4013              		.type	buf.10497, %object
 4014              		.size	buf.10497, 1088
 4015              	buf.10497:
 4016 13090 00000000 		.space	1088
 4016      00000000 
 4016      00000000 
 4016      00000000 
 4016      00000000 
 4017              		.type	buf.10501, %object
 4018              		.size	buf.10501, 384
 4019              	buf.10501:
 4020 134d0 00000000 		.space	384
 4020      00000000 
 4020      00000000 
 4020      00000000 
 4020      00000000 
 4021              		.type	buf.10505, %object
 4022              		.size	buf.10505, 768
 4023              	buf.10505:
 4024 13650 00000000 		.space	768
 4024      00000000 
 4024      00000000 
 4024      00000000 
 4024      00000000 
 4025              		.type	buf.10509, %object
 4026              		.size	buf.10509, 6528
 4027              	buf.10509:
 4028 13950 00000000 		.space	6528
 4028      00000000 
 4028      00000000 
 4028      00000000 
 4028      00000000 
 4029              		.type	buf.10513, %object
 4030              		.size	buf.10513, 256
 4031              	buf.10513:
 4032 152d0 00000000 		.space	256
 4032      00000000 
 4032      00000000 
 4032      00000000 
 4032      00000000 
ARM GAS  C:\Users\info\AppData\Local\Temp\ccfHjuLM.s 			page 92


 4033              		.type	buf.10517, %object
 4034              		.size	buf.10517, 512
 4035              	buf.10517:
 4036 153d0 00000000 		.space	512
 4036      00000000 
 4036      00000000 
 4036      00000000 
 4036      00000000 
 4037              		.type	buf.10521, %object
 4038              		.size	buf.10521, 4096
 4039              	buf.10521:
 4040 155d0 00000000 		.space	4096
 4040      00000000 
 4040      00000000 
 4040      00000000 
 4040      00000000 
 4041              		.type	buf.10525, %object
 4042              		.size	buf.10525, 256
 4043              	buf.10525:
 4044 165d0 00000000 		.space	256
 4044      00000000 
 4044      00000000 
 4044      00000000 
 4044      00000000 
 4045              		.type	buf.10529, %object
 4046              		.size	buf.10529, 512
 4047              	buf.10529:
 4048 166d0 00000000 		.space	512
 4048      00000000 
 4048      00000000 
 4048      00000000 
 4048      00000000 
 4049              		.type	buf.10533, %object
 4050              		.size	buf.10533, 5120
 4051              	buf.10533:
 4052 168d0 00000000 		.space	5120
 4052      00000000 
 4052      00000000 
 4052      00000000 
 4052      00000000 
 4053              		.type	buf.10537, %object
 4054              		.size	buf.10537, 176
 4055              	buf.10537:
 4056 17cd0 00000000 		.space	176
 4056      00000000 
 4056      00000000 
 4056      00000000 
 4056      00000000 
 4057              		.type	buf.10541, %object
 4058              		.size	buf.10541, 352
 4059              	buf.10541:
 4060 17d80 00000000 		.space	352
 4060      00000000 
 4060      00000000 
 4060      00000000 
 4060      00000000 
 4061              		.type	buf.10545, %object
ARM GAS  C:\Users\info\AppData\Local\Temp\ccfHjuLM.s 			page 93


 4062              		.size	buf.10545, 2288
 4063              	buf.10545:
 4064 17ee0 00000000 		.space	2288
 4064      00000000 
 4064      00000000 
 4064      00000000 
 4064      00000000 
 4065              		.type	buf.10549, %object
 4066              		.size	buf.10549, 192
 4067              	buf.10549:
 4068 187d0 00000000 		.space	192
 4068      00000000 
 4068      00000000 
 4068      00000000 
 4068      00000000 
 4069              		.type	buf.10553, %object
 4070              		.size	buf.10553, 384
 4071              	buf.10553:
 4072 18890 00000000 		.space	384
 4072      00000000 
 4072      00000000 
 4072      00000000 
 4072      00000000 
 4073              		.type	buf.10557, %object
 4074              		.size	buf.10557, 2304
 4075              	buf.10557:
 4076 18a10 00000000 		.space	2304
 4076      00000000 
 4076      00000000 
 4076      00000000 
 4076      00000000 
 4077              		.type	buf.10561, %object
 4078              		.size	buf.10561, 160
 4079              	buf.10561:
 4080 19310 00000000 		.space	160
 4080      00000000 
 4080      00000000 
 4080      00000000 
 4080      00000000 
 4081              		.type	buf.10565, %object
 4082              		.size	buf.10565, 320
 4083              	buf.10565:
 4084 193b0 00000000 		.space	320
 4084      00000000 
 4084      00000000 
 4084      00000000 
 4084      00000000 
 4085              		.type	buf.10569, %object
 4086              		.size	buf.10569, 1600
 4087              	buf.10569:
 4088 194f0 00000000 		.space	1600
 4088      00000000 
 4088      00000000 
 4088      00000000 
 4088      00000000 
 4089              		.type	buf.10573, %object
 4090              		.size	buf.10573, 176
ARM GAS  C:\Users\info\AppData\Local\Temp\ccfHjuLM.s 			page 94


 4091              	buf.10573:
 4092 19b30 00000000 		.space	176
 4092      00000000 
 4092      00000000 
 4092      00000000 
 4092      00000000 
 4093              		.type	buf.10577, %object
 4094              		.size	buf.10577, 352
 4095              	buf.10577:
 4096 19be0 00000000 		.space	352
 4096      00000000 
 4096      00000000 
 4096      00000000 
 4096      00000000 
 4097              		.type	buf.10581, %object
 4098              		.size	buf.10581, 1584
 4099              	buf.10581:
 4100 19d40 00000000 		.space	1584
 4100      00000000 
 4100      00000000 
 4100      00000000 
 4100      00000000 
 4101              		.type	buf.10585, %object
 4102              		.size	buf.10585, 200
 4103              	buf.10585:
 4104 1a370 00000000 		.space	200
 4104      00000000 
 4104      00000000 
 4104      00000000 
 4104      00000000 
 4105              		.type	buf.10589, %object
 4106              		.size	buf.10589, 400
 4107              	buf.10589:
 4108 1a438 00000000 		.space	400
 4108      00000000 
 4108      00000000 
 4108      00000000 
 4108      00000000 
 4109              		.type	buf.10593, %object
 4110              		.size	buf.10593, 5000
 4111              	buf.10593:
 4112 1a5c8 00000000 		.space	5000
 4112      00000000 
 4112      00000000 
 4112      00000000 
 4112      00000000 
 4113              		.type	buf.10597, %object
 4114              		.size	buf.10597, 296
 4115              	buf.10597:
 4116 1b950 00000000 		.space	296
 4116      00000000 
 4116      00000000 
 4116      00000000 
 4116      00000000 
 4117              		.type	buf.10601, %object
 4118              		.size	buf.10601, 592
 4119              	buf.10601:
ARM GAS  C:\Users\info\AppData\Local\Temp\ccfHjuLM.s 			page 95


 4120 1ba78 00000000 		.space	592
 4120      00000000 
 4120      00000000 
 4120      00000000 
 4120      00000000 
 4121              		.type	buf.10605, %object
 4122              		.size	buf.10605, 4736
 4123              	buf.10605:
 4124 1bcc8 00000000 		.space	4736
 4124      00000000 
 4124      00000000 
 4124      00000000 
 4124      00000000 
 4125              		.type	buf.10609, %object
 4126              		.size	buf.10609, 64
 4127              	buf.10609:
 4128 1cf48 00000000 		.space	64
 4128      00000000 
 4128      00000000 
 4128      00000000 
 4128      00000000 
 4129              		.type	buf.10613, %object
 4130              		.size	buf.10613, 128
 4131              	buf.10613:
 4132 1cf88 00000000 		.space	128
 4132      00000000 
 4132      00000000 
 4132      00000000 
 4132      00000000 
 4133              		.type	buf.10617, %object
 4134              		.size	buf.10617, 64
 4135              	buf.10617:
 4136 1d008 00000000 		.space	64
 4136      00000000 
 4136      00000000 
 4136      00000000 
 4136      00000000 
 4137              		.type	buf.10621, %object
 4138              		.size	buf.10621, 32
 4139              	buf.10621:
 4140 1d048 00000000 		.space	32
 4140      00000000 
 4140      00000000 
 4140      00000000 
 4140      00000000 
 4141              		.type	buf.10625, %object
 4142              		.size	buf.10625, 64
 4143              	buf.10625:
 4144 1d068 00000000 		.space	64
 4144      00000000 
 4144      00000000 
 4144      00000000 
 4144      00000000 
 4145              		.type	buf.10629, %object
 4146              		.size	buf.10629, 32
 4147              	buf.10629:
 4148 1d0a8 00000000 		.space	32
ARM GAS  C:\Users\info\AppData\Local\Temp\ccfHjuLM.s 			page 96


 4148      00000000 
 4148      00000000 
 4148      00000000 
 4148      00000000 
 4149              		.type	buf.10633, %object
 4150              		.size	buf.10633, 8
 4151              	buf.10633:
 4152 1d0c8 00000000 		.space	8
 4152      00000000 
 4153              		.type	buf.10637, %object
 4154              		.size	buf.10637, 16
 4155              	buf.10637:
 4156 1d0d0 00000000 		.space	16
 4156      00000000 
 4156      00000000 
 4156      00000000 
 4157              		.type	buf.10641, %object
 4158              		.size	buf.10641, 8
 4159              	buf.10641:
 4160 1d0e0 00000000 		.space	8
 4160      00000000 
 4161              		.type	buf.10645, %object
 4162              		.size	buf.10645, 384
 4163              	buf.10645:
 4164 1d0e8 00000000 		.space	384
 4164      00000000 
 4164      00000000 
 4164      00000000 
 4164      00000000 
 4165              		.type	buf.10649, %object
 4166              		.size	buf.10649, 768
 4167              	buf.10649:
 4168 1d268 00000000 		.space	768
 4168      00000000 
 4168      00000000 
 4168      00000000 
 4168      00000000 
 4169              		.type	buf.10653, %object
 4170              		.size	buf.10653, 11520
 4171              	buf.10653:
 4172 1d568 00000000 		.space	11520
 4172      00000000 
 4172      00000000 
 4172      00000000 
 4172      00000000 
 4173              		.text
 4174              	.Letext0:
 4175              		.file 2 "c:\\program files (x86)\\cypress\\psoc creator\\4.2\\psoc creator\\import\\gnu\\arm\\5.4.
 4176              		.file 3 "c:\\program files (x86)\\cypress\\psoc creator\\4.2\\psoc creator\\import\\gnu\\arm\\5.4.
 4177              		.section	.debug_info,"",%progbits
 4178              	.Ldebug_info0:
 4179 0000 D8220000 		.4byte	0x22d8
 4180 0004 0400     		.2byte	0x4
 4181 0006 00000000 		.4byte	.Ldebug_abbrev0
 4182 000a 04       		.byte	0x4
 4183 000b 01       		.uleb128 0x1
 4184 000c 77060000 		.4byte	.LASF143
ARM GAS  C:\Users\info\AppData\Local\Temp\ccfHjuLM.s 			page 97


 4185 0010 0C       		.byte	0xc
 4186 0011 4D070000 		.4byte	.LASF144
 4187 0015 F2050000 		.4byte	.LASF145
 4188 0019 00000000 		.4byte	.Ldebug_ranges0+0
 4189 001d 00000000 		.4byte	0
 4190 0021 00000000 		.4byte	.Ldebug_line0
 4191 0025 02       		.uleb128 0x2
 4192 0026 01       		.byte	0x1
 4193 0027 06       		.byte	0x6
 4194 0028 73010000 		.4byte	.LASF0
 4195 002c 03       		.uleb128 0x3
 4196 002d 7E000000 		.4byte	.LASF9
 4197 0031 02       		.byte	0x2
 4198 0032 1D       		.byte	0x1d
 4199 0033 37000000 		.4byte	0x37
 4200 0037 02       		.uleb128 0x2
 4201 0038 01       		.byte	0x1
 4202 0039 08       		.byte	0x8
 4203 003a BE050000 		.4byte	.LASF1
 4204 003e 02       		.uleb128 0x2
 4205 003f 02       		.byte	0x2
 4206 0040 05       		.byte	0x5
 4207 0041 CC050000 		.4byte	.LASF2
 4208 0045 02       		.uleb128 0x2
 4209 0046 02       		.byte	0x2
 4210 0047 07       		.byte	0x7
 4211 0048 D4030000 		.4byte	.LASF3
 4212 004c 02       		.uleb128 0x2
 4213 004d 04       		.byte	0x4
 4214 004e 05       		.byte	0x5
 4215 004f E6010000 		.4byte	.LASF4
 4216 0053 02       		.uleb128 0x2
 4217 0054 04       		.byte	0x4
 4218 0055 07       		.byte	0x7
 4219 0056 86030000 		.4byte	.LASF5
 4220 005a 02       		.uleb128 0x2
 4221 005b 08       		.byte	0x8
 4222 005c 05       		.byte	0x5
 4223 005d 65010000 		.4byte	.LASF6
 4224 0061 02       		.uleb128 0x2
 4225 0062 08       		.byte	0x8
 4226 0063 07       		.byte	0x7
 4227 0064 B3000000 		.4byte	.LASF7
 4228 0068 04       		.uleb128 0x4
 4229 0069 04       		.byte	0x4
 4230 006a 05       		.byte	0x5
 4231 006b 696E7400 		.ascii	"int\000"
 4232 006f 02       		.uleb128 0x2
 4233 0070 04       		.byte	0x4
 4234 0071 07       		.byte	0x7
 4235 0072 20030000 		.4byte	.LASF8
 4236 0076 03       		.uleb128 0x3
 4237 0077 F5070000 		.4byte	.LASF10
 4238 007b 03       		.byte	0x3
 4239 007c 18       		.byte	0x18
 4240 007d 2C000000 		.4byte	0x2c
 4241 0081 02       		.uleb128 0x2
ARM GAS  C:\Users\info\AppData\Local\Temp\ccfHjuLM.s 			page 98


 4242 0082 08       		.byte	0x8
 4243 0083 04       		.byte	0x4
 4244 0084 F3040000 		.4byte	.LASF11
 4245 0088 05       		.uleb128 0x5
 4246 0089 04       		.byte	0x4
 4247 008a 76000000 		.4byte	0x76
 4248 008e 06       		.uleb128 0x6
 4249 008f EF010000 		.4byte	.LASF13
 4250 0093 01       		.byte	0x1
 4251 0094 06       		.byte	0x6
 4252 0095 88000000 		.4byte	0x88
 4253 0099 00000000 		.4byte	.LFB0
 4254 009d 0C000000 		.4byte	.LFE0-.LFB0
 4255 00a1 01       		.uleb128 0x1
 4256 00a2 9C       		.byte	0x9c
 4257 00a3 C8000000 		.4byte	0xc8
 4258 00a7 07       		.uleb128 0x7
 4259 00a8 38080000 		.4byte	.LASF15
 4260 00ac 01       		.byte	0x1
 4261 00ad 06       		.byte	0x6
 4262 00ae 88000000 		.4byte	0x88
 4263 00b2 00000000 		.4byte	.LLST0
 4264 00b6 08       		.uleb128 0x8
 4265 00b7 62756600 		.ascii	"buf\000"
 4266 00bb 01       		.byte	0x1
 4267 00bc 08       		.byte	0x8
 4268 00bd C8000000 		.4byte	0xc8
 4269 00c1 05       		.uleb128 0x5
 4270 00c2 03       		.byte	0x3
 4271 00c3 00000000 		.4byte	buf.10141
 4272 00c7 00       		.byte	0
 4273 00c8 09       		.uleb128 0x9
 4274 00c9 76000000 		.4byte	0x76
 4275 00cd D8000000 		.4byte	0xd8
 4276 00d1 0A       		.uleb128 0xa
 4277 00d2 D8000000 		.4byte	0xd8
 4278 00d6 7F       		.byte	0x7f
 4279 00d7 00       		.byte	0
 4280 00d8 02       		.uleb128 0x2
 4281 00d9 04       		.byte	0x4
 4282 00da 07       		.byte	0x7
 4283 00db C1040000 		.4byte	.LASF12
 4284 00df 06       		.uleb128 0x6
 4285 00e0 FD010000 		.4byte	.LASF14
 4286 00e4 01       		.byte	0x1
 4287 00e5 0C       		.byte	0xc
 4288 00e6 88000000 		.4byte	0x88
 4289 00ea 00000000 		.4byte	.LFB1
 4290 00ee 0C000000 		.4byte	.LFE1-.LFB1
 4291 00f2 01       		.uleb128 0x1
 4292 00f3 9C       		.byte	0x9c
 4293 00f4 19010000 		.4byte	0x119
 4294 00f8 07       		.uleb128 0x7
 4295 00f9 38080000 		.4byte	.LASF15
 4296 00fd 01       		.byte	0x1
 4297 00fe 0C       		.byte	0xc
 4298 00ff 88000000 		.4byte	0x88
ARM GAS  C:\Users\info\AppData\Local\Temp\ccfHjuLM.s 			page 99


 4299 0103 21000000 		.4byte	.LLST1
 4300 0107 08       		.uleb128 0x8
 4301 0108 62756600 		.ascii	"buf\000"
 4302 010c 01       		.byte	0x1
 4303 010d 0E       		.byte	0xe
 4304 010e 19010000 		.4byte	0x119
 4305 0112 05       		.uleb128 0x5
 4306 0113 03       		.byte	0x3
 4307 0114 80000000 		.4byte	buf.10145
 4308 0118 00       		.byte	0
 4309 0119 09       		.uleb128 0x9
 4310 011a 76000000 		.4byte	0x76
 4311 011e 29010000 		.4byte	0x129
 4312 0122 0A       		.uleb128 0xa
 4313 0123 D8000000 		.4byte	0xd8
 4314 0127 FF       		.byte	0xff
 4315 0128 00       		.byte	0
 4316 0129 06       		.uleb128 0x6
 4317 012a E6020000 		.4byte	.LASF16
 4318 012e 01       		.byte	0x1
 4319 012f 12       		.byte	0x12
 4320 0130 88000000 		.4byte	0x88
 4321 0134 00000000 		.4byte	.LFB2
 4322 0138 0C000000 		.4byte	.LFE2-.LFB2
 4323 013c 01       		.uleb128 0x1
 4324 013d 9C       		.byte	0x9c
 4325 013e 63010000 		.4byte	0x163
 4326 0142 07       		.uleb128 0x7
 4327 0143 38080000 		.4byte	.LASF15
 4328 0147 01       		.byte	0x1
 4329 0148 12       		.byte	0x12
 4330 0149 88000000 		.4byte	0x88
 4331 014d 42000000 		.4byte	.LLST2
 4332 0151 08       		.uleb128 0x8
 4333 0152 62756600 		.ascii	"buf\000"
 4334 0156 01       		.byte	0x1
 4335 0157 14       		.byte	0x14
 4336 0158 63010000 		.4byte	0x163
 4337 015c 05       		.uleb128 0x5
 4338 015d 03       		.byte	0x3
 4339 015e 80010000 		.4byte	buf.10149
 4340 0162 00       		.byte	0
 4341 0163 09       		.uleb128 0x9
 4342 0164 76000000 		.4byte	0x76
 4343 0168 74010000 		.4byte	0x174
 4344 016c 0B       		.uleb128 0xb
 4345 016d D8000000 		.4byte	0xd8
 4346 0171 FF01     		.2byte	0x1ff
 4347 0173 00       		.byte	0
 4348 0174 06       		.uleb128 0x6
 4349 0175 8B040000 		.4byte	.LASF17
 4350 0179 01       		.byte	0x1
 4351 017a 18       		.byte	0x18
 4352 017b 88000000 		.4byte	0x88
 4353 017f 00000000 		.4byte	.LFB3
 4354 0183 0C000000 		.4byte	.LFE3-.LFB3
 4355 0187 01       		.uleb128 0x1
ARM GAS  C:\Users\info\AppData\Local\Temp\ccfHjuLM.s 			page 100


 4356 0188 9C       		.byte	0x9c
 4357 0189 AE010000 		.4byte	0x1ae
 4358 018d 07       		.uleb128 0x7
 4359 018e 38080000 		.4byte	.LASF15
 4360 0192 01       		.byte	0x1
 4361 0193 18       		.byte	0x18
 4362 0194 88000000 		.4byte	0x88
 4363 0198 63000000 		.4byte	.LLST3
 4364 019c 08       		.uleb128 0x8
 4365 019d 62756600 		.ascii	"buf\000"
 4366 01a1 01       		.byte	0x1
 4367 01a2 1A       		.byte	0x1a
 4368 01a3 C8000000 		.4byte	0xc8
 4369 01a7 05       		.uleb128 0x5
 4370 01a8 03       		.byte	0x3
 4371 01a9 80030000 		.4byte	buf.10153
 4372 01ad 00       		.byte	0
 4373 01ae 06       		.uleb128 0x6
 4374 01af 99040000 		.4byte	.LASF18
 4375 01b3 01       		.byte	0x1
 4376 01b4 1E       		.byte	0x1e
 4377 01b5 88000000 		.4byte	0x88
 4378 01b9 00000000 		.4byte	.LFB4
 4379 01bd 0C000000 		.4byte	.LFE4-.LFB4
 4380 01c1 01       		.uleb128 0x1
 4381 01c2 9C       		.byte	0x9c
 4382 01c3 E8010000 		.4byte	0x1e8
 4383 01c7 07       		.uleb128 0x7
 4384 01c8 38080000 		.4byte	.LASF15
 4385 01cc 01       		.byte	0x1
 4386 01cd 1E       		.byte	0x1e
 4387 01ce 88000000 		.4byte	0x88
 4388 01d2 84000000 		.4byte	.LLST4
 4389 01d6 08       		.uleb128 0x8
 4390 01d7 62756600 		.ascii	"buf\000"
 4391 01db 01       		.byte	0x1
 4392 01dc 20       		.byte	0x20
 4393 01dd 19010000 		.4byte	0x119
 4394 01e1 05       		.uleb128 0x5
 4395 01e2 03       		.byte	0x3
 4396 01e3 00040000 		.4byte	buf.10157
 4397 01e7 00       		.byte	0
 4398 01e8 06       		.uleb128 0x6
 4399 01e9 53050000 		.4byte	.LASF19
 4400 01ed 01       		.byte	0x1
 4401 01ee 24       		.byte	0x24
 4402 01ef 88000000 		.4byte	0x88
 4403 01f3 00000000 		.4byte	.LFB5
 4404 01f7 0C000000 		.4byte	.LFE5-.LFB5
 4405 01fb 01       		.uleb128 0x1
 4406 01fc 9C       		.byte	0x9c
 4407 01fd 22020000 		.4byte	0x222
 4408 0201 07       		.uleb128 0x7
 4409 0202 38080000 		.4byte	.LASF15
 4410 0206 01       		.byte	0x1
 4411 0207 24       		.byte	0x24
 4412 0208 88000000 		.4byte	0x88
ARM GAS  C:\Users\info\AppData\Local\Temp\ccfHjuLM.s 			page 101


 4413 020c A5000000 		.4byte	.LLST5
 4414 0210 08       		.uleb128 0x8
 4415 0211 62756600 		.ascii	"buf\000"
 4416 0215 01       		.byte	0x1
 4417 0216 26       		.byte	0x26
 4418 0217 22020000 		.4byte	0x222
 4419 021b 05       		.uleb128 0x5
 4420 021c 03       		.byte	0x3
 4421 021d 00050000 		.4byte	buf.10161
 4422 0221 00       		.byte	0
 4423 0222 09       		.uleb128 0x9
 4424 0223 76000000 		.4byte	0x76
 4425 0227 33020000 		.4byte	0x233
 4426 022b 0B       		.uleb128 0xb
 4427 022c D8000000 		.4byte	0xd8
 4428 0230 FF03     		.2byte	0x3ff
 4429 0232 00       		.byte	0
 4430 0233 06       		.uleb128 0x6
 4431 0234 7A080000 		.4byte	.LASF20
 4432 0238 01       		.byte	0x1
 4433 0239 2A       		.byte	0x2a
 4434 023a 88000000 		.4byte	0x88
 4435 023e 00000000 		.4byte	.LFB6
 4436 0242 0C000000 		.4byte	.LFE6-.LFB6
 4437 0246 01       		.uleb128 0x1
 4438 0247 9C       		.byte	0x9c
 4439 0248 6D020000 		.4byte	0x26d
 4440 024c 07       		.uleb128 0x7
 4441 024d 38080000 		.4byte	.LASF15
 4442 0251 01       		.byte	0x1
 4443 0252 2A       		.byte	0x2a
 4444 0253 88000000 		.4byte	0x88
 4445 0257 C6000000 		.4byte	.LLST6
 4446 025b 08       		.uleb128 0x8
 4447 025c 62756600 		.ascii	"buf\000"
 4448 0260 01       		.byte	0x1
 4449 0261 2C       		.byte	0x2c
 4450 0262 6D020000 		.4byte	0x26d
 4451 0266 05       		.uleb128 0x5
 4452 0267 03       		.byte	0x3
 4453 0268 00090000 		.4byte	buf.10165
 4454 026c 00       		.byte	0
 4455 026d 09       		.uleb128 0x9
 4456 026e 76000000 		.4byte	0x76
 4457 0272 7D020000 		.4byte	0x27d
 4458 0276 0A       		.uleb128 0xa
 4459 0277 D8000000 		.4byte	0xd8
 4460 027b 47       		.byte	0x47
 4461 027c 00       		.byte	0
 4462 027d 06       		.uleb128 0x6
 4463 027e 87080000 		.4byte	.LASF21
 4464 0282 01       		.byte	0x1
 4465 0283 30       		.byte	0x30
 4466 0284 88000000 		.4byte	0x88
 4467 0288 00000000 		.4byte	.LFB7
 4468 028c 0C000000 		.4byte	.LFE7-.LFB7
 4469 0290 01       		.uleb128 0x1
ARM GAS  C:\Users\info\AppData\Local\Temp\ccfHjuLM.s 			page 102


 4470 0291 9C       		.byte	0x9c
 4471 0292 B7020000 		.4byte	0x2b7
 4472 0296 07       		.uleb128 0x7
 4473 0297 38080000 		.4byte	.LASF15
 4474 029b 01       		.byte	0x1
 4475 029c 30       		.byte	0x30
 4476 029d 88000000 		.4byte	0x88
 4477 02a1 E7000000 		.4byte	.LLST7
 4478 02a5 08       		.uleb128 0x8
 4479 02a6 62756600 		.ascii	"buf\000"
 4480 02aa 01       		.byte	0x1
 4481 02ab 32       		.byte	0x32
 4482 02ac B7020000 		.4byte	0x2b7
 4483 02b0 05       		.uleb128 0x5
 4484 02b1 03       		.byte	0x3
 4485 02b2 48090000 		.4byte	buf.10169
 4486 02b6 00       		.byte	0
 4487 02b7 09       		.uleb128 0x9
 4488 02b8 76000000 		.4byte	0x76
 4489 02bc C7020000 		.4byte	0x2c7
 4490 02c0 0A       		.uleb128 0xa
 4491 02c1 D8000000 		.4byte	0xd8
 4492 02c5 8F       		.byte	0x8f
 4493 02c6 00       		.byte	0
 4494 02c7 06       		.uleb128 0x6
 4495 02c8 47000000 		.4byte	.LASF22
 4496 02cc 01       		.byte	0x1
 4497 02cd 36       		.byte	0x36
 4498 02ce 88000000 		.4byte	0x88
 4499 02d2 00000000 		.4byte	.LFB8
 4500 02d6 0C000000 		.4byte	.LFE8-.LFB8
 4501 02da 01       		.uleb128 0x1
 4502 02db 9C       		.byte	0x9c
 4503 02dc 01030000 		.4byte	0x301
 4504 02e0 07       		.uleb128 0x7
 4505 02e1 38080000 		.4byte	.LASF15
 4506 02e5 01       		.byte	0x1
 4507 02e6 36       		.byte	0x36
 4508 02e7 88000000 		.4byte	0x88
 4509 02eb 08010000 		.4byte	.LLST8
 4510 02ef 08       		.uleb128 0x8
 4511 02f0 62756600 		.ascii	"buf\000"
 4512 02f4 01       		.byte	0x1
 4513 02f5 38       		.byte	0x38
 4514 02f6 01030000 		.4byte	0x301
 4515 02fa 05       		.uleb128 0x5
 4516 02fb 03       		.byte	0x3
 4517 02fc D8090000 		.4byte	buf.10173
 4518 0300 00       		.byte	0
 4519 0301 09       		.uleb128 0x9
 4520 0302 76000000 		.4byte	0x76
 4521 0306 12030000 		.4byte	0x312
 4522 030a 0B       		.uleb128 0xb
 4523 030b D8000000 		.4byte	0xd8
 4524 030f 6701     		.2byte	0x167
 4525 0311 00       		.byte	0
 4526 0312 06       		.uleb128 0x6
ARM GAS  C:\Users\info\AppData\Local\Temp\ccfHjuLM.s 			page 103


 4527 0313 A7040000 		.4byte	.LASF23
 4528 0317 01       		.byte	0x1
 4529 0318 3C       		.byte	0x3c
 4530 0319 88000000 		.4byte	0x88
 4531 031d 00000000 		.4byte	.LFB9
 4532 0321 0C000000 		.4byte	.LFE9-.LFB9
 4533 0325 01       		.uleb128 0x1
 4534 0326 9C       		.byte	0x9c
 4535 0327 4C030000 		.4byte	0x34c
 4536 032b 07       		.uleb128 0x7
 4537 032c 38080000 		.4byte	.LASF15
 4538 0330 01       		.byte	0x1
 4539 0331 3C       		.byte	0x3c
 4540 0332 88000000 		.4byte	0x88
 4541 0336 29010000 		.4byte	.LLST9
 4542 033a 08       		.uleb128 0x8
 4543 033b 62756600 		.ascii	"buf\000"
 4544 033f 01       		.byte	0x1
 4545 0340 3E       		.byte	0x3e
 4546 0341 4C030000 		.4byte	0x34c
 4547 0345 05       		.uleb128 0x5
 4548 0346 03       		.byte	0x3
 4549 0347 400B0000 		.4byte	buf.10177
 4550 034b 00       		.byte	0
 4551 034c 09       		.uleb128 0x9
 4552 034d 76000000 		.4byte	0x76
 4553 0351 5C030000 		.4byte	0x35c
 4554 0355 0A       		.uleb128 0xa
 4555 0356 D8000000 		.4byte	0xd8
 4556 035a 3F       		.byte	0x3f
 4557 035b 00       		.byte	0
 4558 035c 06       		.uleb128 0x6
 4559 035d B4040000 		.4byte	.LASF24
 4560 0361 01       		.byte	0x1
 4561 0362 42       		.byte	0x42
 4562 0363 88000000 		.4byte	0x88
 4563 0367 00000000 		.4byte	.LFB10
 4564 036b 0C000000 		.4byte	.LFE10-.LFB10
 4565 036f 01       		.uleb128 0x1
 4566 0370 9C       		.byte	0x9c
 4567 0371 96030000 		.4byte	0x396
 4568 0375 07       		.uleb128 0x7
 4569 0376 38080000 		.4byte	.LASF15
 4570 037a 01       		.byte	0x1
 4571 037b 42       		.byte	0x42
 4572 037c 88000000 		.4byte	0x88
 4573 0380 4A010000 		.4byte	.LLST10
 4574 0384 08       		.uleb128 0x8
 4575 0385 62756600 		.ascii	"buf\000"
 4576 0389 01       		.byte	0x1
 4577 038a 44       		.byte	0x44
 4578 038b C8000000 		.4byte	0xc8
 4579 038f 05       		.uleb128 0x5
 4580 0390 03       		.byte	0x3
 4581 0391 800B0000 		.4byte	buf.10181
 4582 0395 00       		.byte	0
 4583 0396 06       		.uleb128 0x6
ARM GAS  C:\Users\info\AppData\Local\Temp\ccfHjuLM.s 			page 104


 4584 0397 7D050000 		.4byte	.LASF25
 4585 039b 01       		.byte	0x1
 4586 039c 48       		.byte	0x48
 4587 039d 88000000 		.4byte	0x88
 4588 03a1 00000000 		.4byte	.LFB11
 4589 03a5 0C000000 		.4byte	.LFE11-.LFB11
 4590 03a9 01       		.uleb128 0x1
 4591 03aa 9C       		.byte	0x9c
 4592 03ab D0030000 		.4byte	0x3d0
 4593 03af 07       		.uleb128 0x7
 4594 03b0 38080000 		.4byte	.LASF15
 4595 03b4 01       		.byte	0x1
 4596 03b5 48       		.byte	0x48
 4597 03b6 88000000 		.4byte	0x88
 4598 03ba 6B010000 		.4byte	.LLST11
 4599 03be 08       		.uleb128 0x8
 4600 03bf 62756600 		.ascii	"buf\000"
 4601 03c3 01       		.byte	0x1
 4602 03c4 4A       		.byte	0x4a
 4603 03c5 19010000 		.4byte	0x119
 4604 03c9 05       		.uleb128 0x5
 4605 03ca 03       		.byte	0x3
 4606 03cb 000C0000 		.4byte	buf.10185
 4607 03cf 00       		.byte	0
 4608 03d0 06       		.uleb128 0x6
 4609 03d1 2D010000 		.4byte	.LASF26
 4610 03d5 01       		.byte	0x1
 4611 03d6 4E       		.byte	0x4e
 4612 03d7 88000000 		.4byte	0x88
 4613 03db 00000000 		.4byte	.LFB12
 4614 03df 0C000000 		.4byte	.LFE12-.LFB12
 4615 03e3 01       		.uleb128 0x1
 4616 03e4 9C       		.byte	0x9c
 4617 03e5 0A040000 		.4byte	0x40a
 4618 03e9 07       		.uleb128 0x7
 4619 03ea 38080000 		.4byte	.LASF15
 4620 03ee 01       		.byte	0x1
 4621 03ef 4E       		.byte	0x4e
 4622 03f0 88000000 		.4byte	0x88
 4623 03f4 8C010000 		.4byte	.LLST12
 4624 03f8 08       		.uleb128 0x8
 4625 03f9 62756600 		.ascii	"buf\000"
 4626 03fd 01       		.byte	0x1
 4627 03fe 50       		.byte	0x50
 4628 03ff 4C030000 		.4byte	0x34c
 4629 0403 05       		.uleb128 0x5
 4630 0404 03       		.byte	0x3
 4631 0405 000D0000 		.4byte	buf.10189
 4632 0409 00       		.byte	0
 4633 040a 06       		.uleb128 0x6
 4634 040b 3B010000 		.4byte	.LASF27
 4635 040f 01       		.byte	0x1
 4636 0410 54       		.byte	0x54
 4637 0411 88000000 		.4byte	0x88
 4638 0415 00000000 		.4byte	.LFB13
 4639 0419 0C000000 		.4byte	.LFE13-.LFB13
 4640 041d 01       		.uleb128 0x1
ARM GAS  C:\Users\info\AppData\Local\Temp\ccfHjuLM.s 			page 105


 4641 041e 9C       		.byte	0x9c
 4642 041f 44040000 		.4byte	0x444
 4643 0423 07       		.uleb128 0x7
 4644 0424 38080000 		.4byte	.LASF15
 4645 0428 01       		.byte	0x1
 4646 0429 54       		.byte	0x54
 4647 042a 88000000 		.4byte	0x88
 4648 042e AD010000 		.4byte	.LLST13
 4649 0432 08       		.uleb128 0x8
 4650 0433 62756600 		.ascii	"buf\000"
 4651 0437 01       		.byte	0x1
 4652 0438 56       		.byte	0x56
 4653 0439 C8000000 		.4byte	0xc8
 4654 043d 05       		.uleb128 0x5
 4655 043e 03       		.byte	0x3
 4656 043f 400D0000 		.4byte	buf.10193
 4657 0443 00       		.byte	0
 4658 0444 06       		.uleb128 0x6
 4659 0445 6F020000 		.4byte	.LASF28
 4660 0449 01       		.byte	0x1
 4661 044a 5A       		.byte	0x5a
 4662 044b 88000000 		.4byte	0x88
 4663 044f 00000000 		.4byte	.LFB14
 4664 0453 0C000000 		.4byte	.LFE14-.LFB14
 4665 0457 01       		.uleb128 0x1
 4666 0458 9C       		.byte	0x9c
 4667 0459 7E040000 		.4byte	0x47e
 4668 045d 07       		.uleb128 0x7
 4669 045e 38080000 		.4byte	.LASF15
 4670 0462 01       		.byte	0x1
 4671 0463 5A       		.byte	0x5a
 4672 0464 88000000 		.4byte	0x88
 4673 0468 CE010000 		.4byte	.LLST14
 4674 046c 08       		.uleb128 0x8
 4675 046d 62756600 		.ascii	"buf\000"
 4676 0471 01       		.byte	0x1
 4677 0472 5C       		.byte	0x5c
 4678 0473 22020000 		.4byte	0x222
 4679 0477 05       		.uleb128 0x5
 4680 0478 03       		.byte	0x3
 4681 0479 C00D0000 		.4byte	buf.10197
 4682 047d 00       		.byte	0
 4683 047e 06       		.uleb128 0x6
 4684 047f 71070000 		.4byte	.LASF29
 4685 0483 01       		.byte	0x1
 4686 0484 60       		.byte	0x60
 4687 0485 88000000 		.4byte	0x88
 4688 0489 00000000 		.4byte	.LFB15
 4689 048d 0C000000 		.4byte	.LFE15-.LFB15
 4690 0491 01       		.uleb128 0x1
 4691 0492 9C       		.byte	0x9c
 4692 0493 B8040000 		.4byte	0x4b8
 4693 0497 07       		.uleb128 0x7
 4694 0498 38080000 		.4byte	.LASF15
 4695 049c 01       		.byte	0x1
 4696 049d 60       		.byte	0x60
 4697 049e 88000000 		.4byte	0x88
ARM GAS  C:\Users\info\AppData\Local\Temp\ccfHjuLM.s 			page 106


 4698 04a2 EF010000 		.4byte	.LLST15
 4699 04a6 08       		.uleb128 0x8
 4700 04a7 62756600 		.ascii	"buf\000"
 4701 04ab 01       		.byte	0x1
 4702 04ac 62       		.byte	0x62
 4703 04ad B8040000 		.4byte	0x4b8
 4704 04b1 05       		.uleb128 0x5
 4705 04b2 03       		.byte	0x3
 4706 04b3 C0110000 		.4byte	buf.10201
 4707 04b7 00       		.byte	0
 4708 04b8 09       		.uleb128 0x9
 4709 04b9 76000000 		.4byte	0x76
 4710 04bd C8040000 		.4byte	0x4c8
 4711 04c1 0A       		.uleb128 0xa
 4712 04c2 D8000000 		.4byte	0xd8
 4713 04c6 5F       		.byte	0x5f
 4714 04c7 00       		.byte	0
 4715 04c8 06       		.uleb128 0x6
 4716 04c9 80070000 		.4byte	.LASF30
 4717 04cd 01       		.byte	0x1
 4718 04ce 66       		.byte	0x66
 4719 04cf 88000000 		.4byte	0x88
 4720 04d3 00000000 		.4byte	.LFB16
 4721 04d7 0C000000 		.4byte	.LFE16-.LFB16
 4722 04db 01       		.uleb128 0x1
 4723 04dc 9C       		.byte	0x9c
 4724 04dd 02050000 		.4byte	0x502
 4725 04e1 07       		.uleb128 0x7
 4726 04e2 38080000 		.4byte	.LASF15
 4727 04e6 01       		.byte	0x1
 4728 04e7 66       		.byte	0x66
 4729 04e8 88000000 		.4byte	0x88
 4730 04ec 10020000 		.4byte	.LLST16
 4731 04f0 08       		.uleb128 0x8
 4732 04f1 62756600 		.ascii	"buf\000"
 4733 04f5 01       		.byte	0x1
 4734 04f6 68       		.byte	0x68
 4735 04f7 02050000 		.4byte	0x502
 4736 04fb 05       		.uleb128 0x5
 4737 04fc 03       		.byte	0x3
 4738 04fd 20120000 		.4byte	buf.10205
 4739 0501 00       		.byte	0
 4740 0502 09       		.uleb128 0x9
 4741 0503 76000000 		.4byte	0x76
 4742 0507 12050000 		.4byte	0x512
 4743 050b 0A       		.uleb128 0xa
 4744 050c D8000000 		.4byte	0xd8
 4745 0510 BF       		.byte	0xbf
 4746 0511 00       		.byte	0
 4747 0512 06       		.uleb128 0x6
 4748 0513 41080000 		.4byte	.LASF31
 4749 0517 01       		.byte	0x1
 4750 0518 6C       		.byte	0x6c
 4751 0519 88000000 		.4byte	0x88
 4752 051d 00000000 		.4byte	.LFB17
 4753 0521 0C000000 		.4byte	.LFE17-.LFB17
 4754 0525 01       		.uleb128 0x1
ARM GAS  C:\Users\info\AppData\Local\Temp\ccfHjuLM.s 			page 107


 4755 0526 9C       		.byte	0x9c
 4756 0527 4C050000 		.4byte	0x54c
 4757 052b 07       		.uleb128 0x7
 4758 052c 38080000 		.4byte	.LASF15
 4759 0530 01       		.byte	0x1
 4760 0531 6C       		.byte	0x6c
 4761 0532 88000000 		.4byte	0x88
 4762 0536 31020000 		.4byte	.LLST17
 4763 053a 08       		.uleb128 0x8
 4764 053b 62756600 		.ascii	"buf\000"
 4765 053f 01       		.byte	0x1
 4766 0540 6E       		.byte	0x6e
 4767 0541 4C050000 		.4byte	0x54c
 4768 0545 05       		.uleb128 0x5
 4769 0546 03       		.byte	0x3
 4770 0547 E0120000 		.4byte	buf.10209
 4771 054b 00       		.byte	0
 4772 054c 09       		.uleb128 0x9
 4773 054d 76000000 		.4byte	0x76
 4774 0551 5D050000 		.4byte	0x55d
 4775 0555 0B       		.uleb128 0xb
 4776 0556 D8000000 		.4byte	0xd8
 4777 055a 7F04     		.2byte	0x47f
 4778 055c 00       		.byte	0
 4779 055d 06       		.uleb128 0x6
 4780 055e C8010000 		.4byte	.LASF32
 4781 0562 01       		.byte	0x1
 4782 0563 72       		.byte	0x72
 4783 0564 88000000 		.4byte	0x88
 4784 0568 00000000 		.4byte	.LFB18
 4785 056c 0C000000 		.4byte	.LFE18-.LFB18
 4786 0570 01       		.uleb128 0x1
 4787 0571 9C       		.byte	0x9c
 4788 0572 97050000 		.4byte	0x597
 4789 0576 07       		.uleb128 0x7
 4790 0577 38080000 		.4byte	.LASF15
 4791 057b 01       		.byte	0x1
 4792 057c 72       		.byte	0x72
 4793 057d 88000000 		.4byte	0x88
 4794 0581 52020000 		.4byte	.LLST18
 4795 0585 08       		.uleb128 0x8
 4796 0586 62756600 		.ascii	"buf\000"
 4797 058a 01       		.byte	0x1
 4798 058b 74       		.byte	0x74
 4799 058c C8000000 		.4byte	0xc8
 4800 0590 05       		.uleb128 0x5
 4801 0591 03       		.byte	0x3
 4802 0592 60170000 		.4byte	buf.10213
 4803 0596 00       		.byte	0
 4804 0597 06       		.uleb128 0x6
 4805 0598 D7010000 		.4byte	.LASF33
 4806 059c 01       		.byte	0x1
 4807 059d 78       		.byte	0x78
 4808 059e 88000000 		.4byte	0x88
 4809 05a2 00000000 		.4byte	.LFB19
 4810 05a6 0C000000 		.4byte	.LFE19-.LFB19
 4811 05aa 01       		.uleb128 0x1
ARM GAS  C:\Users\info\AppData\Local\Temp\ccfHjuLM.s 			page 108


 4812 05ab 9C       		.byte	0x9c
 4813 05ac D1050000 		.4byte	0x5d1
 4814 05b0 07       		.uleb128 0x7
 4815 05b1 38080000 		.4byte	.LASF15
 4816 05b5 01       		.byte	0x1
 4817 05b6 78       		.byte	0x78
 4818 05b7 88000000 		.4byte	0x88
 4819 05bb 73020000 		.4byte	.LLST19
 4820 05bf 08       		.uleb128 0x8
 4821 05c0 62756600 		.ascii	"buf\000"
 4822 05c4 01       		.byte	0x1
 4823 05c5 7A       		.byte	0x7a
 4824 05c6 19010000 		.4byte	0x119
 4825 05ca 05       		.uleb128 0x5
 4826 05cb 03       		.byte	0x3
 4827 05cc E0170000 		.4byte	buf.10217
 4828 05d0 00       		.byte	0
 4829 05d1 06       		.uleb128 0x6
 4830 05d2 D7020000 		.4byte	.LASF34
 4831 05d6 01       		.byte	0x1
 4832 05d7 7E       		.byte	0x7e
 4833 05d8 88000000 		.4byte	0x88
 4834 05dc 00000000 		.4byte	.LFB20
 4835 05e0 0C000000 		.4byte	.LFE20-.LFB20
 4836 05e4 01       		.uleb128 0x1
 4837 05e5 9C       		.byte	0x9c
 4838 05e6 0B060000 		.4byte	0x60b
 4839 05ea 07       		.uleb128 0x7
 4840 05eb 38080000 		.4byte	.LASF15
 4841 05ef 01       		.byte	0x1
 4842 05f0 7E       		.byte	0x7e
 4843 05f1 88000000 		.4byte	0x88
 4844 05f5 94020000 		.4byte	.LLST20
 4845 05f9 08       		.uleb128 0x8
 4846 05fa 62756600 		.ascii	"buf\000"
 4847 05fe 01       		.byte	0x1
 4848 05ff 80       		.byte	0x80
 4849 0600 0B060000 		.4byte	0x60b
 4850 0604 05       		.uleb128 0x5
 4851 0605 03       		.byte	0x3
 4852 0606 E0180000 		.4byte	buf.10221
 4853 060a 00       		.byte	0
 4854 060b 09       		.uleb128 0x9
 4855 060c 76000000 		.4byte	0x76
 4856 0610 1C060000 		.4byte	0x61c
 4857 0614 0B       		.uleb128 0xb
 4858 0615 D8000000 		.4byte	0xd8
 4859 0619 FF07     		.2byte	0x7ff
 4860 061b 00       		.byte	0
 4861 061c 06       		.uleb128 0x6
 4862 061d 4A030000 		.4byte	.LASF35
 4863 0621 01       		.byte	0x1
 4864 0622 84       		.byte	0x84
 4865 0623 88000000 		.4byte	0x88
 4866 0627 00000000 		.4byte	.LFB21
 4867 062b 0C000000 		.4byte	.LFE21-.LFB21
 4868 062f 01       		.uleb128 0x1
ARM GAS  C:\Users\info\AppData\Local\Temp\ccfHjuLM.s 			page 109


 4869 0630 9C       		.byte	0x9c
 4870 0631 56060000 		.4byte	0x656
 4871 0635 07       		.uleb128 0x7
 4872 0636 38080000 		.4byte	.LASF15
 4873 063a 01       		.byte	0x1
 4874 063b 84       		.byte	0x84
 4875 063c 88000000 		.4byte	0x88
 4876 0640 B5020000 		.4byte	.LLST21
 4877 0644 08       		.uleb128 0x8
 4878 0645 62756600 		.ascii	"buf\000"
 4879 0649 01       		.byte	0x1
 4880 064a 86       		.byte	0x86
 4881 064b 56060000 		.4byte	0x656
 4882 064f 05       		.uleb128 0x5
 4883 0650 03       		.byte	0x3
 4884 0651 E0200000 		.4byte	buf.10225
 4885 0655 00       		.byte	0
 4886 0656 09       		.uleb128 0x9
 4887 0657 76000000 		.4byte	0x76
 4888 065b 66060000 		.4byte	0x666
 4889 065f 0A       		.uleb128 0xa
 4890 0660 D8000000 		.4byte	0xd8
 4891 0664 9F       		.byte	0x9f
 4892 0665 00       		.byte	0
 4893 0666 06       		.uleb128 0x6
 4894 0667 59030000 		.4byte	.LASF36
 4895 066b 01       		.byte	0x1
 4896 066c 8A       		.byte	0x8a
 4897 066d 88000000 		.4byte	0x88
 4898 0671 00000000 		.4byte	.LFB22
 4899 0675 0C000000 		.4byte	.LFE22-.LFB22
 4900 0679 01       		.uleb128 0x1
 4901 067a 9C       		.byte	0x9c
 4902 067b A0060000 		.4byte	0x6a0
 4903 067f 07       		.uleb128 0x7
 4904 0680 38080000 		.4byte	.LASF15
 4905 0684 01       		.byte	0x1
 4906 0685 8A       		.byte	0x8a
 4907 0686 88000000 		.4byte	0x88
 4908 068a D6020000 		.4byte	.LLST22
 4909 068e 08       		.uleb128 0x8
 4910 068f 62756600 		.ascii	"buf\000"
 4911 0693 01       		.byte	0x1
 4912 0694 8C       		.byte	0x8c
 4913 0695 A0060000 		.4byte	0x6a0
 4914 0699 05       		.uleb128 0x5
 4915 069a 03       		.byte	0x3
 4916 069b 80210000 		.4byte	buf.10229
 4917 069f 00       		.byte	0
 4918 06a0 09       		.uleb128 0x9
 4919 06a1 76000000 		.4byte	0x76
 4920 06a5 B1060000 		.4byte	0x6b1
 4921 06a9 0B       		.uleb128 0xb
 4922 06aa D8000000 		.4byte	0xd8
 4923 06ae 3F01     		.2byte	0x13f
 4924 06b0 00       		.byte	0
 4925 06b1 06       		.uleb128 0x6
ARM GAS  C:\Users\info\AppData\Local\Temp\ccfHjuLM.s 			page 110


 4926 06b2 31040000 		.4byte	.LASF37
 4927 06b6 01       		.byte	0x1
 4928 06b7 90       		.byte	0x90
 4929 06b8 88000000 		.4byte	0x88
 4930 06bc 00000000 		.4byte	.LFB23
 4931 06c0 0C000000 		.4byte	.LFE23-.LFB23
 4932 06c4 01       		.uleb128 0x1
 4933 06c5 9C       		.byte	0x9c
 4934 06c6 EB060000 		.4byte	0x6eb
 4935 06ca 07       		.uleb128 0x7
 4936 06cb 38080000 		.4byte	.LASF15
 4937 06cf 01       		.byte	0x1
 4938 06d0 90       		.byte	0x90
 4939 06d1 88000000 		.4byte	0x88
 4940 06d5 F7020000 		.4byte	.LLST23
 4941 06d9 08       		.uleb128 0x8
 4942 06da 62756600 		.ascii	"buf\000"
 4943 06de 01       		.byte	0x1
 4944 06df 92       		.byte	0x92
 4945 06e0 EB060000 		.4byte	0x6eb
 4946 06e4 05       		.uleb128 0x5
 4947 06e5 03       		.byte	0x3
 4948 06e6 C0220000 		.4byte	buf.10233
 4949 06ea 00       		.byte	0
 4950 06eb 09       		.uleb128 0x9
 4951 06ec 76000000 		.4byte	0x76
 4952 06f0 FC060000 		.4byte	0x6fc
 4953 06f4 0B       		.uleb128 0xb
 4954 06f5 D8000000 		.4byte	0xd8
 4955 06f9 7F0C     		.2byte	0xc7f
 4956 06fb 00       		.byte	0
 4957 06fc 06       		.uleb128 0x6
 4958 06fd 1A020000 		.4byte	.LASF38
 4959 0701 01       		.byte	0x1
 4960 0702 96       		.byte	0x96
 4961 0703 88000000 		.4byte	0x88
 4962 0707 00000000 		.4byte	.LFB24
 4963 070b 0C000000 		.4byte	.LFE24-.LFB24
 4964 070f 01       		.uleb128 0x1
 4965 0710 9C       		.byte	0x9c
 4966 0711 36070000 		.4byte	0x736
 4967 0715 07       		.uleb128 0x7
 4968 0716 38080000 		.4byte	.LASF15
 4969 071a 01       		.byte	0x1
 4970 071b 96       		.byte	0x96
 4971 071c 88000000 		.4byte	0x88
 4972 0720 18030000 		.4byte	.LLST24
 4973 0724 08       		.uleb128 0x8
 4974 0725 62756600 		.ascii	"buf\000"
 4975 0729 01       		.byte	0x1
 4976 072a 98       		.byte	0x98
 4977 072b 19010000 		.4byte	0x119
 4978 072f 05       		.uleb128 0x5
 4979 0730 03       		.byte	0x3
 4980 0731 402F0000 		.4byte	buf.10237
 4981 0735 00       		.byte	0
 4982 0736 06       		.uleb128 0x6
ARM GAS  C:\Users\info\AppData\Local\Temp\ccfHjuLM.s 			page 111


 4983 0737 28020000 		.4byte	.LASF39
 4984 073b 01       		.byte	0x1
 4985 073c 9C       		.byte	0x9c
 4986 073d 88000000 		.4byte	0x88
 4987 0741 00000000 		.4byte	.LFB25
 4988 0745 0C000000 		.4byte	.LFE25-.LFB25
 4989 0749 01       		.uleb128 0x1
 4990 074a 9C       		.byte	0x9c
 4991 074b 70070000 		.4byte	0x770
 4992 074f 07       		.uleb128 0x7
 4993 0750 38080000 		.4byte	.LASF15
 4994 0754 01       		.byte	0x1
 4995 0755 9C       		.byte	0x9c
 4996 0756 88000000 		.4byte	0x88
 4997 075a 39030000 		.4byte	.LLST25
 4998 075e 08       		.uleb128 0x8
 4999 075f 62756600 		.ascii	"buf\000"
 5000 0763 01       		.byte	0x1
 5001 0764 9E       		.byte	0x9e
 5002 0765 63010000 		.4byte	0x163
 5003 0769 05       		.uleb128 0x5
 5004 076a 03       		.byte	0x3
 5005 076b 40300000 		.4byte	buf.10241
 5006 076f 00       		.byte	0
 5007 0770 06       		.uleb128 0x6
 5008 0771 03030000 		.4byte	.LASF40
 5009 0775 01       		.byte	0x1
 5010 0776 A2       		.byte	0xa2
 5011 0777 88000000 		.4byte	0x88
 5012 077b 00000000 		.4byte	.LFB26
 5013 077f 0C000000 		.4byte	.LFE26-.LFB26
 5014 0783 01       		.uleb128 0x1
 5015 0784 9C       		.byte	0x9c
 5016 0785 AA070000 		.4byte	0x7aa
 5017 0789 07       		.uleb128 0x7
 5018 078a 38080000 		.4byte	.LASF15
 5019 078e 01       		.byte	0x1
 5020 078f A2       		.byte	0xa2
 5021 0790 88000000 		.4byte	0x88
 5022 0794 5A030000 		.4byte	.LLST26
 5023 0798 08       		.uleb128 0x8
 5024 0799 62756600 		.ascii	"buf\000"
 5025 079d 01       		.byte	0x1
 5026 079e A4       		.byte	0xa4
 5027 079f 0B060000 		.4byte	0x60b
 5028 07a3 05       		.uleb128 0x5
 5029 07a4 03       		.byte	0x3
 5030 07a5 40320000 		.4byte	buf.10245
 5031 07a9 00       		.byte	0
 5032 07aa 06       		.uleb128 0x6
 5033 07ab 13010000 		.4byte	.LASF41
 5034 07af 01       		.byte	0x1
 5035 07b0 A8       		.byte	0xa8
 5036 07b1 88000000 		.4byte	0x88
 5037 07b5 00000000 		.4byte	.LFB27
 5038 07b9 0C000000 		.4byte	.LFE27-.LFB27
 5039 07bd 01       		.uleb128 0x1
ARM GAS  C:\Users\info\AppData\Local\Temp\ccfHjuLM.s 			page 112


 5040 07be 9C       		.byte	0x9c
 5041 07bf E4070000 		.4byte	0x7e4
 5042 07c3 07       		.uleb128 0x7
 5043 07c4 38080000 		.4byte	.LASF15
 5044 07c8 01       		.byte	0x1
 5045 07c9 A8       		.byte	0xa8
 5046 07ca 88000000 		.4byte	0x88
 5047 07ce 7B030000 		.4byte	.LLST27
 5048 07d2 08       		.uleb128 0x8
 5049 07d3 62756600 		.ascii	"buf\000"
 5050 07d7 01       		.byte	0x1
 5051 07d8 AA       		.byte	0xaa
 5052 07d9 4C030000 		.4byte	0x34c
 5053 07dd 05       		.uleb128 0x5
 5054 07de 03       		.byte	0x3
 5055 07df 403A0000 		.4byte	buf.10249
 5056 07e3 00       		.byte	0
 5057 07e4 06       		.uleb128 0x6
 5058 07e5 20010000 		.4byte	.LASF42
 5059 07e9 01       		.byte	0x1
 5060 07ea AE       		.byte	0xae
 5061 07eb 88000000 		.4byte	0x88
 5062 07ef 00000000 		.4byte	.LFB28
 5063 07f3 0C000000 		.4byte	.LFE28-.LFB28
 5064 07f7 01       		.uleb128 0x1
 5065 07f8 9C       		.byte	0x9c
 5066 07f9 1E080000 		.4byte	0x81e
 5067 07fd 07       		.uleb128 0x7
 5068 07fe 38080000 		.4byte	.LASF15
 5069 0802 01       		.byte	0x1
 5070 0803 AE       		.byte	0xae
 5071 0804 88000000 		.4byte	0x88
 5072 0808 9C030000 		.4byte	.LLST28
 5073 080c 08       		.uleb128 0x8
 5074 080d 62756600 		.ascii	"buf\000"
 5075 0811 01       		.byte	0x1
 5076 0812 B0       		.byte	0xb0
 5077 0813 C8000000 		.4byte	0xc8
 5078 0817 05       		.uleb128 0x5
 5079 0818 03       		.byte	0x3
 5080 0819 803A0000 		.4byte	buf.10253
 5081 081d 00       		.byte	0
 5082 081e 06       		.uleb128 0x6
 5083 081f 62020000 		.4byte	.LASF43
 5084 0823 01       		.byte	0x1
 5085 0824 B4       		.byte	0xb4
 5086 0825 88000000 		.4byte	0x88
 5087 0829 00000000 		.4byte	.LFB29
 5088 082d 0C000000 		.4byte	.LFE29-.LFB29
 5089 0831 01       		.uleb128 0x1
 5090 0832 9C       		.byte	0x9c
 5091 0833 58080000 		.4byte	0x858
 5092 0837 07       		.uleb128 0x7
 5093 0838 38080000 		.4byte	.LASF15
 5094 083c 01       		.byte	0x1
 5095 083d B4       		.byte	0xb4
 5096 083e 88000000 		.4byte	0x88
ARM GAS  C:\Users\info\AppData\Local\Temp\ccfHjuLM.s 			page 113


 5097 0842 BD030000 		.4byte	.LLST29
 5098 0846 08       		.uleb128 0x8
 5099 0847 62756600 		.ascii	"buf\000"
 5100 084b 01       		.byte	0x1
 5101 084c B6       		.byte	0xb6
 5102 084d 58080000 		.4byte	0x858
 5103 0851 05       		.uleb128 0x5
 5104 0852 03       		.byte	0x3
 5105 0853 003B0000 		.4byte	buf.10257
 5106 0857 00       		.byte	0
 5107 0858 09       		.uleb128 0x9
 5108 0859 76000000 		.4byte	0x76
 5109 085d 69080000 		.4byte	0x869
 5110 0861 0B       		.uleb128 0xb
 5111 0862 D8000000 		.4byte	0xd8
 5112 0866 7F01     		.2byte	0x17f
 5113 0868 00       		.byte	0
 5114 0869 06       		.uleb128 0x6
 5115 086a D9040000 		.4byte	.LASF44
 5116 086e 01       		.byte	0x1
 5117 086f BA       		.byte	0xba
 5118 0870 88000000 		.4byte	0x88
 5119 0874 00000000 		.4byte	.LFB30
 5120 0878 0C000000 		.4byte	.LFE30-.LFB30
 5121 087c 01       		.uleb128 0x1
 5122 087d 9C       		.byte	0x9c
 5123 087e A3080000 		.4byte	0x8a3
 5124 0882 07       		.uleb128 0x7
 5125 0883 38080000 		.4byte	.LASF15
 5126 0887 01       		.byte	0x1
 5127 0888 BA       		.byte	0xba
 5128 0889 88000000 		.4byte	0x88
 5129 088d DE030000 		.4byte	.LLST30
 5130 0891 08       		.uleb128 0x8
 5131 0892 62756600 		.ascii	"buf\000"
 5132 0896 01       		.byte	0x1
 5133 0897 BC       		.byte	0xbc
 5134 0898 A3080000 		.4byte	0x8a3
 5135 089c 05       		.uleb128 0x5
 5136 089d 03       		.byte	0x3
 5137 089e 803C0000 		.4byte	buf.10261
 5138 08a2 00       		.byte	0
 5139 08a3 09       		.uleb128 0x9
 5140 08a4 76000000 		.4byte	0x76
 5141 08a8 B3080000 		.4byte	0x8b3
 5142 08ac 0A       		.uleb128 0xa
 5143 08ad D8000000 		.4byte	0xd8
 5144 08b1 2F       		.byte	0x2f
 5145 08b2 00       		.byte	0
 5146 08b3 06       		.uleb128 0x6
 5147 08b4 E6040000 		.4byte	.LASF45
 5148 08b8 01       		.byte	0x1
 5149 08b9 C0       		.byte	0xc0
 5150 08ba 88000000 		.4byte	0x88
 5151 08be 00000000 		.4byte	.LFB31
 5152 08c2 0C000000 		.4byte	.LFE31-.LFB31
 5153 08c6 01       		.uleb128 0x1
ARM GAS  C:\Users\info\AppData\Local\Temp\ccfHjuLM.s 			page 114


 5154 08c7 9C       		.byte	0x9c
 5155 08c8 ED080000 		.4byte	0x8ed
 5156 08cc 07       		.uleb128 0x7
 5157 08cd 38080000 		.4byte	.LASF15
 5158 08d1 01       		.byte	0x1
 5159 08d2 C0       		.byte	0xc0
 5160 08d3 88000000 		.4byte	0x88
 5161 08d7 FF030000 		.4byte	.LLST31
 5162 08db 08       		.uleb128 0x8
 5163 08dc 62756600 		.ascii	"buf\000"
 5164 08e0 01       		.byte	0x1
 5165 08e1 C2       		.byte	0xc2
 5166 08e2 B8040000 		.4byte	0x4b8
 5167 08e6 05       		.uleb128 0x5
 5168 08e7 03       		.byte	0x3
 5169 08e8 B03C0000 		.4byte	buf.10265
 5170 08ec 00       		.byte	0
 5171 08ed 06       		.uleb128 0x6
 5172 08ee 8A050000 		.4byte	.LASF46
 5173 08f2 01       		.byte	0x1
 5174 08f3 C6       		.byte	0xc6
 5175 08f4 88000000 		.4byte	0x88
 5176 08f8 00000000 		.4byte	.LFB32
 5177 08fc 0C000000 		.4byte	.LFE32-.LFB32
 5178 0900 01       		.uleb128 0x1
 5179 0901 9C       		.byte	0x9c
 5180 0902 27090000 		.4byte	0x927
 5181 0906 07       		.uleb128 0x7
 5182 0907 38080000 		.4byte	.LASF15
 5183 090b 01       		.byte	0x1
 5184 090c C6       		.byte	0xc6
 5185 090d 88000000 		.4byte	0x88
 5186 0911 20040000 		.4byte	.LLST32
 5187 0915 08       		.uleb128 0x8
 5188 0916 62756600 		.ascii	"buf\000"
 5189 091a 01       		.byte	0x1
 5190 091b C8       		.byte	0xc8
 5191 091c 58080000 		.4byte	0x858
 5192 0920 05       		.uleb128 0x5
 5193 0921 03       		.byte	0x3
 5194 0922 103D0000 		.4byte	buf.10269
 5195 0926 00       		.byte	0
 5196 0927 06       		.uleb128 0x6
 5197 0928 54000000 		.4byte	.LASF47
 5198 092c 01       		.byte	0x1
 5199 092d CC       		.byte	0xcc
 5200 092e 88000000 		.4byte	0x88
 5201 0932 00000000 		.4byte	.LFB33
 5202 0936 0C000000 		.4byte	.LFE33-.LFB33
 5203 093a 01       		.uleb128 0x1
 5204 093b 9C       		.byte	0x9c
 5205 093c 61090000 		.4byte	0x961
 5206 0940 07       		.uleb128 0x7
 5207 0941 38080000 		.4byte	.LASF15
 5208 0945 01       		.byte	0x1
 5209 0946 CC       		.byte	0xcc
 5210 0947 88000000 		.4byte	0x88
ARM GAS  C:\Users\info\AppData\Local\Temp\ccfHjuLM.s 			page 115


 5211 094b 41040000 		.4byte	.LLST33
 5212 094f 08       		.uleb128 0x8
 5213 0950 62756600 		.ascii	"buf\000"
 5214 0954 01       		.byte	0x1
 5215 0955 CE       		.byte	0xce
 5216 0956 B8040000 		.4byte	0x4b8
 5217 095a 05       		.uleb128 0x5
 5218 095b 03       		.byte	0x3
 5219 095c 903E0000 		.4byte	buf.10273
 5220 0960 00       		.byte	0
 5221 0961 06       		.uleb128 0x6
 5222 0962 62000000 		.4byte	.LASF48
 5223 0966 01       		.byte	0x1
 5224 0967 D2       		.byte	0xd2
 5225 0968 88000000 		.4byte	0x88
 5226 096c 00000000 		.4byte	.LFB34
 5227 0970 0C000000 		.4byte	.LFE34-.LFB34
 5228 0974 01       		.uleb128 0x1
 5229 0975 9C       		.byte	0x9c
 5230 0976 9B090000 		.4byte	0x99b
 5231 097a 07       		.uleb128 0x7
 5232 097b 38080000 		.4byte	.LASF15
 5233 097f 01       		.byte	0x1
 5234 0980 D2       		.byte	0xd2
 5235 0981 88000000 		.4byte	0x88
 5236 0985 62040000 		.4byte	.LLST34
 5237 0989 08       		.uleb128 0x8
 5238 098a 62756600 		.ascii	"buf\000"
 5239 098e 01       		.byte	0x1
 5240 098f D4       		.byte	0xd4
 5241 0990 02050000 		.4byte	0x502
 5242 0994 05       		.uleb128 0x5
 5243 0995 03       		.byte	0x3
 5244 0996 F03E0000 		.4byte	buf.10277
 5245 099a 00       		.byte	0
 5246 099b 06       		.uleb128 0x6
 5247 099c 7F010000 		.4byte	.LASF49
 5248 09a0 01       		.byte	0x1
 5249 09a1 D8       		.byte	0xd8
 5250 09a2 88000000 		.4byte	0x88
 5251 09a6 00000000 		.4byte	.LFB35
 5252 09aa 0C000000 		.4byte	.LFE35-.LFB35
 5253 09ae 01       		.uleb128 0x1
 5254 09af 9C       		.byte	0x9c
 5255 09b0 D5090000 		.4byte	0x9d5
 5256 09b4 07       		.uleb128 0x7
 5257 09b5 38080000 		.4byte	.LASF15
 5258 09b9 01       		.byte	0x1
 5259 09ba D8       		.byte	0xd8
 5260 09bb 88000000 		.4byte	0x88
 5261 09bf 83040000 		.4byte	.LLST35
 5262 09c3 08       		.uleb128 0x8
 5263 09c4 62756600 		.ascii	"buf\000"
 5264 09c8 01       		.byte	0x1
 5265 09c9 DA       		.byte	0xda
 5266 09ca 02050000 		.4byte	0x502
 5267 09ce 05       		.uleb128 0x5
ARM GAS  C:\Users\info\AppData\Local\Temp\ccfHjuLM.s 			page 116


 5268 09cf 03       		.byte	0x3
 5269 09d0 B03F0000 		.4byte	buf.10281
 5270 09d4 00       		.byte	0
 5271 09d5 06       		.uleb128 0x6
 5272 09d6 1A080000 		.4byte	.LASF50
 5273 09da 01       		.byte	0x1
 5274 09db DE       		.byte	0xde
 5275 09dc 88000000 		.4byte	0x88
 5276 09e0 00000000 		.4byte	.LFB36
 5277 09e4 0C000000 		.4byte	.LFE36-.LFB36
 5278 09e8 01       		.uleb128 0x1
 5279 09e9 9C       		.byte	0x9c
 5280 09ea 0F0A0000 		.4byte	0xa0f
 5281 09ee 07       		.uleb128 0x7
 5282 09ef 38080000 		.4byte	.LASF15
 5283 09f3 01       		.byte	0x1
 5284 09f4 DE       		.byte	0xde
 5285 09f5 88000000 		.4byte	0x88
 5286 09f9 A4040000 		.4byte	.LLST36
 5287 09fd 08       		.uleb128 0x8
 5288 09fe 62756600 		.ascii	"buf\000"
 5289 0a02 01       		.byte	0x1
 5290 0a03 E0       		.byte	0xe0
 5291 0a04 C8000000 		.4byte	0xc8
 5292 0a08 05       		.uleb128 0x5
 5293 0a09 03       		.byte	0x3
 5294 0a0a 70400000 		.4byte	buf.10285
 5295 0a0e 00       		.byte	0
 5296 0a0f 06       		.uleb128 0x6
 5297 0a10 29080000 		.4byte	.LASF51
 5298 0a14 01       		.byte	0x1
 5299 0a15 E4       		.byte	0xe4
 5300 0a16 88000000 		.4byte	0x88
 5301 0a1a 00000000 		.4byte	.LFB37
 5302 0a1e 0C000000 		.4byte	.LFE37-.LFB37
 5303 0a22 01       		.uleb128 0x1
 5304 0a23 9C       		.byte	0x9c
 5305 0a24 490A0000 		.4byte	0xa49
 5306 0a28 07       		.uleb128 0x7
 5307 0a29 38080000 		.4byte	.LASF15
 5308 0a2d 01       		.byte	0x1
 5309 0a2e E4       		.byte	0xe4
 5310 0a2f 88000000 		.4byte	0x88
 5311 0a33 C5040000 		.4byte	.LLST37
 5312 0a37 08       		.uleb128 0x8
 5313 0a38 62756600 		.ascii	"buf\000"
 5314 0a3c 01       		.byte	0x1
 5315 0a3d E6       		.byte	0xe6
 5316 0a3e 19010000 		.4byte	0x119
 5317 0a42 05       		.uleb128 0x5
 5318 0a43 03       		.byte	0x3
 5319 0a44 F0400000 		.4byte	buf.10289
 5320 0a48 00       		.byte	0
 5321 0a49 06       		.uleb128 0x6
 5322 0a4a 1D000000 		.4byte	.LASF52
 5323 0a4e 01       		.byte	0x1
 5324 0a4f EA       		.byte	0xea
ARM GAS  C:\Users\info\AppData\Local\Temp\ccfHjuLM.s 			page 117


 5325 0a50 88000000 		.4byte	0x88
 5326 0a54 00000000 		.4byte	.LFB38
 5327 0a58 0C000000 		.4byte	.LFE38-.LFB38
 5328 0a5c 01       		.uleb128 0x1
 5329 0a5d 9C       		.byte	0x9c
 5330 0a5e 830A0000 		.4byte	0xa83
 5331 0a62 07       		.uleb128 0x7
 5332 0a63 38080000 		.4byte	.LASF15
 5333 0a67 01       		.byte	0x1
 5334 0a68 EA       		.byte	0xea
 5335 0a69 88000000 		.4byte	0x88
 5336 0a6d E6040000 		.4byte	.LLST38
 5337 0a71 08       		.uleb128 0x8
 5338 0a72 62756600 		.ascii	"buf\000"
 5339 0a76 01       		.byte	0x1
 5340 0a77 EC       		.byte	0xec
 5341 0a78 830A0000 		.4byte	0xa83
 5342 0a7c 05       		.uleb128 0x5
 5343 0a7d 03       		.byte	0x3
 5344 0a7e F0410000 		.4byte	buf.10293
 5345 0a82 00       		.byte	0
 5346 0a83 09       		.uleb128 0x9
 5347 0a84 76000000 		.4byte	0x76
 5348 0a88 940A0000 		.4byte	0xa94
 5349 0a8c 0B       		.uleb128 0xb
 5350 0a8d D8000000 		.4byte	0xd8
 5351 0a91 FF05     		.2byte	0x5ff
 5352 0a93 00       		.byte	0
 5353 0a94 06       		.uleb128 0x6
 5354 0a95 50080000 		.4byte	.LASF53
 5355 0a99 01       		.byte	0x1
 5356 0a9a F0       		.byte	0xf0
 5357 0a9b 88000000 		.4byte	0x88
 5358 0a9f 00000000 		.4byte	.LFB39
 5359 0aa3 0C000000 		.4byte	.LFE39-.LFB39
 5360 0aa7 01       		.uleb128 0x1
 5361 0aa8 9C       		.byte	0x9c
 5362 0aa9 CE0A0000 		.4byte	0xace
 5363 0aad 07       		.uleb128 0x7
 5364 0aae 38080000 		.4byte	.LASF15
 5365 0ab2 01       		.byte	0x1
 5366 0ab3 F0       		.byte	0xf0
 5367 0ab4 88000000 		.4byte	0x88
 5368 0ab8 07050000 		.4byte	.LLST39
 5369 0abc 08       		.uleb128 0x8
 5370 0abd 62756600 		.ascii	"buf\000"
 5371 0ac1 01       		.byte	0x1
 5372 0ac2 F2       		.byte	0xf2
 5373 0ac3 19010000 		.4byte	0x119
 5374 0ac7 05       		.uleb128 0x5
 5375 0ac8 03       		.byte	0x3
 5376 0ac9 F0470000 		.4byte	buf.10297
 5377 0acd 00       		.byte	0
 5378 0ace 06       		.uleb128 0x6
 5379 0acf 5E080000 		.4byte	.LASF54
 5380 0ad3 01       		.byte	0x1
 5381 0ad4 F6       		.byte	0xf6
ARM GAS  C:\Users\info\AppData\Local\Temp\ccfHjuLM.s 			page 118


 5382 0ad5 88000000 		.4byte	0x88
 5383 0ad9 00000000 		.4byte	.LFB40
 5384 0add 0C000000 		.4byte	.LFE40-.LFB40
 5385 0ae1 01       		.uleb128 0x1
 5386 0ae2 9C       		.byte	0x9c
 5387 0ae3 080B0000 		.4byte	0xb08
 5388 0ae7 07       		.uleb128 0x7
 5389 0ae8 38080000 		.4byte	.LASF15
 5390 0aec 01       		.byte	0x1
 5391 0aed F6       		.byte	0xf6
 5392 0aee 88000000 		.4byte	0x88
 5393 0af2 28050000 		.4byte	.LLST40
 5394 0af6 08       		.uleb128 0x8
 5395 0af7 62756600 		.ascii	"buf\000"
 5396 0afb 01       		.byte	0x1
 5397 0afc F8       		.byte	0xf8
 5398 0afd 63010000 		.4byte	0x163
 5399 0b01 05       		.uleb128 0x5
 5400 0b02 03       		.byte	0x3
 5401 0b03 F0480000 		.4byte	buf.10301
 5402 0b07 00       		.byte	0
 5403 0b08 06       		.uleb128 0x6
 5404 0b09 2C000000 		.4byte	.LASF55
 5405 0b0d 01       		.byte	0x1
 5406 0b0e FC       		.byte	0xfc
 5407 0b0f 88000000 		.4byte	0x88
 5408 0b13 00000000 		.4byte	.LFB41
 5409 0b17 0C000000 		.4byte	.LFE41-.LFB41
 5410 0b1b 01       		.uleb128 0x1
 5411 0b1c 9C       		.byte	0x9c
 5412 0b1d 420B0000 		.4byte	0xb42
 5413 0b21 07       		.uleb128 0x7
 5414 0b22 38080000 		.4byte	.LASF15
 5415 0b26 01       		.byte	0x1
 5416 0b27 FC       		.byte	0xfc
 5417 0b28 88000000 		.4byte	0x88
 5418 0b2c 49050000 		.4byte	.LLST41
 5419 0b30 08       		.uleb128 0x8
 5420 0b31 62756600 		.ascii	"buf\000"
 5421 0b35 01       		.byte	0x1
 5422 0b36 FE       		.byte	0xfe
 5423 0b37 22020000 		.4byte	0x222
 5424 0b3b 05       		.uleb128 0x5
 5425 0b3c 03       		.byte	0x3
 5426 0b3d F04A0000 		.4byte	buf.10305
 5427 0b41 00       		.byte	0
 5428 0b42 0C       		.uleb128 0xc
 5429 0b43 88000000 		.4byte	.LASF56
 5430 0b47 01       		.byte	0x1
 5431 0b48 0201     		.2byte	0x102
 5432 0b4a 88000000 		.4byte	0x88
 5433 0b4e 00000000 		.4byte	.LFB42
 5434 0b52 0C000000 		.4byte	.LFE42-.LFB42
 5435 0b56 01       		.uleb128 0x1
 5436 0b57 9C       		.byte	0x9c
 5437 0b58 7F0B0000 		.4byte	0xb7f
 5438 0b5c 0D       		.uleb128 0xd
ARM GAS  C:\Users\info\AppData\Local\Temp\ccfHjuLM.s 			page 119


 5439 0b5d 38080000 		.4byte	.LASF15
 5440 0b61 01       		.byte	0x1
 5441 0b62 0201     		.2byte	0x102
 5442 0b64 88000000 		.4byte	0x88
 5443 0b68 6A050000 		.4byte	.LLST42
 5444 0b6c 0E       		.uleb128 0xe
 5445 0b6d 62756600 		.ascii	"buf\000"
 5446 0b71 01       		.byte	0x1
 5447 0b72 0401     		.2byte	0x104
 5448 0b74 02050000 		.4byte	0x502
 5449 0b78 05       		.uleb128 0x5
 5450 0b79 03       		.byte	0x3
 5451 0b7a F04E0000 		.4byte	buf.10309
 5452 0b7e 00       		.byte	0
 5453 0b7f 0C       		.uleb128 0xc
 5454 0b80 96000000 		.4byte	.LASF57
 5455 0b84 01       		.byte	0x1
 5456 0b85 0801     		.2byte	0x108
 5457 0b87 88000000 		.4byte	0x88
 5458 0b8b 00000000 		.4byte	.LFB43
 5459 0b8f 0C000000 		.4byte	.LFE43-.LFB43
 5460 0b93 01       		.uleb128 0x1
 5461 0b94 9C       		.byte	0x9c
 5462 0b95 BC0B0000 		.4byte	0xbbc
 5463 0b99 0D       		.uleb128 0xd
 5464 0b9a 38080000 		.4byte	.LASF15
 5465 0b9e 01       		.byte	0x1
 5466 0b9f 0801     		.2byte	0x108
 5467 0ba1 88000000 		.4byte	0x88
 5468 0ba5 8B050000 		.4byte	.LLST43
 5469 0ba9 0E       		.uleb128 0xe
 5470 0baa 62756600 		.ascii	"buf\000"
 5471 0bae 01       		.byte	0x1
 5472 0baf 0A01     		.2byte	0x10a
 5473 0bb1 58080000 		.4byte	0x858
 5474 0bb5 05       		.uleb128 0x5
 5475 0bb6 03       		.byte	0x3
 5476 0bb7 B04F0000 		.4byte	buf.10313
 5477 0bbb 00       		.byte	0
 5478 0bbc 0C       		.uleb128 0xc
 5479 0bbd AB010000 		.4byte	.LASF58
 5480 0bc1 01       		.byte	0x1
 5481 0bc2 0E01     		.2byte	0x10e
 5482 0bc4 88000000 		.4byte	0x88
 5483 0bc8 00000000 		.4byte	.LFB44
 5484 0bcc 0C000000 		.4byte	.LFE44-.LFB44
 5485 0bd0 01       		.uleb128 0x1
 5486 0bd1 9C       		.byte	0x9c
 5487 0bd2 F90B0000 		.4byte	0xbf9
 5488 0bd6 0D       		.uleb128 0xd
 5489 0bd7 38080000 		.4byte	.LASF15
 5490 0bdb 01       		.byte	0x1
 5491 0bdc 0E01     		.2byte	0x10e
 5492 0bde 88000000 		.4byte	0x88
 5493 0be2 AC050000 		.4byte	.LLST44
 5494 0be6 0E       		.uleb128 0xe
 5495 0be7 62756600 		.ascii	"buf\000"
ARM GAS  C:\Users\info\AppData\Local\Temp\ccfHjuLM.s 			page 120


 5496 0beb 01       		.byte	0x1
 5497 0bec 1001     		.2byte	0x110
 5498 0bee F90B0000 		.4byte	0xbf9
 5499 0bf2 05       		.uleb128 0x5
 5500 0bf3 03       		.byte	0x3
 5501 0bf4 30510000 		.4byte	buf.10317
 5502 0bf8 00       		.byte	0
 5503 0bf9 09       		.uleb128 0x9
 5504 0bfa 76000000 		.4byte	0x76
 5505 0bfe 0A0C0000 		.4byte	0xc0a
 5506 0c02 0B       		.uleb128 0xb
 5507 0c03 D8000000 		.4byte	0xd8
 5508 0c07 FF02     		.2byte	0x2ff
 5509 0c09 00       		.byte	0
 5510 0c0a 0C       		.uleb128 0xc
 5511 0c0b 05070000 		.4byte	.LASF59
 5512 0c0f 01       		.byte	0x1
 5513 0c10 1401     		.2byte	0x114
 5514 0c12 88000000 		.4byte	0x88
 5515 0c16 00000000 		.4byte	.LFB45
 5516 0c1a 0C000000 		.4byte	.LFE45-.LFB45
 5517 0c1e 01       		.uleb128 0x1
 5518 0c1f 9C       		.byte	0x9c
 5519 0c20 470C0000 		.4byte	0xc47
 5520 0c24 0D       		.uleb128 0xd
 5521 0c25 38080000 		.4byte	.LASF15
 5522 0c29 01       		.byte	0x1
 5523 0c2a 1401     		.2byte	0x114
 5524 0c2c 88000000 		.4byte	0x88
 5525 0c30 CD050000 		.4byte	.LLST45
 5526 0c34 0E       		.uleb128 0xe
 5527 0c35 62756600 		.ascii	"buf\000"
 5528 0c39 01       		.byte	0x1
 5529 0c3a 1601     		.2byte	0x116
 5530 0c3c 470C0000 		.4byte	0xc47
 5531 0c40 05       		.uleb128 0x5
 5532 0c41 03       		.byte	0x3
 5533 0c42 30540000 		.4byte	buf.10321
 5534 0c46 00       		.byte	0
 5535 0c47 09       		.uleb128 0x9
 5536 0c48 76000000 		.4byte	0x76
 5537 0c4c 580C0000 		.4byte	0xc58
 5538 0c50 0B       		.uleb128 0xb
 5539 0c51 D8000000 		.4byte	0xd8
 5540 0c55 8F01     		.2byte	0x18f
 5541 0c57 00       		.byte	0
 5542 0c58 0C       		.uleb128 0xc
 5543 0c59 14070000 		.4byte	.LASF60
 5544 0c5d 01       		.byte	0x1
 5545 0c5e 1A01     		.2byte	0x11a
 5546 0c60 88000000 		.4byte	0x88
 5547 0c64 00000000 		.4byte	.LFB46
 5548 0c68 0C000000 		.4byte	.LFE46-.LFB46
 5549 0c6c 01       		.uleb128 0x1
 5550 0c6d 9C       		.byte	0x9c
 5551 0c6e 950C0000 		.4byte	0xc95
 5552 0c72 0D       		.uleb128 0xd
ARM GAS  C:\Users\info\AppData\Local\Temp\ccfHjuLM.s 			page 121


 5553 0c73 38080000 		.4byte	.LASF15
 5554 0c77 01       		.byte	0x1
 5555 0c78 1A01     		.2byte	0x11a
 5556 0c7a 88000000 		.4byte	0x88
 5557 0c7e EE050000 		.4byte	.LLST46
 5558 0c82 0E       		.uleb128 0xe
 5559 0c83 62756600 		.ascii	"buf\000"
 5560 0c87 01       		.byte	0x1
 5561 0c88 1C01     		.2byte	0x11c
 5562 0c8a 950C0000 		.4byte	0xc95
 5563 0c8e 05       		.uleb128 0x5
 5564 0c8f 03       		.byte	0x3
 5565 0c90 C0550000 		.4byte	buf.10325
 5566 0c94 00       		.byte	0
 5567 0c95 09       		.uleb128 0x9
 5568 0c96 76000000 		.4byte	0x76
 5569 0c9a A60C0000 		.4byte	0xca6
 5570 0c9e 0B       		.uleb128 0xb
 5571 0c9f D8000000 		.4byte	0xd8
 5572 0ca3 1F03     		.2byte	0x31f
 5573 0ca5 00       		.byte	0
 5574 0ca6 0C       		.uleb128 0xc
 5575 0ca7 C9070000 		.4byte	.LASF61
 5576 0cab 01       		.byte	0x1
 5577 0cac 2001     		.2byte	0x120
 5578 0cae 88000000 		.4byte	0x88
 5579 0cb2 00000000 		.4byte	.LFB47
 5580 0cb6 0C000000 		.4byte	.LFE47-.LFB47
 5581 0cba 01       		.uleb128 0x1
 5582 0cbb 9C       		.byte	0x9c
 5583 0cbc E30C0000 		.4byte	0xce3
 5584 0cc0 0D       		.uleb128 0xd
 5585 0cc1 38080000 		.4byte	.LASF15
 5586 0cc5 01       		.byte	0x1
 5587 0cc6 2001     		.2byte	0x120
 5588 0cc8 88000000 		.4byte	0x88
 5589 0ccc 0F060000 		.4byte	.LLST47
 5590 0cd0 0E       		.uleb128 0xe
 5591 0cd1 62756600 		.ascii	"buf\000"
 5592 0cd5 01       		.byte	0x1
 5593 0cd6 2201     		.2byte	0x122
 5594 0cd8 E30C0000 		.4byte	0xce3
 5595 0cdc 05       		.uleb128 0x5
 5596 0cdd 03       		.byte	0x3
 5597 0cde E0580000 		.4byte	buf.10329
 5598 0ce2 00       		.byte	0
 5599 0ce3 09       		.uleb128 0x9
 5600 0ce4 76000000 		.4byte	0x76
 5601 0ce8 F40C0000 		.4byte	0xcf4
 5602 0cec 0B       		.uleb128 0xb
 5603 0ced D8000000 		.4byte	0xd8
 5604 0cf1 DF2E     		.2byte	0x2edf
 5605 0cf3 00       		.byte	0
 5606 0cf4 0C       		.uleb128 0xc
 5607 0cf5 44020000 		.4byte	.LASF62
 5608 0cf9 01       		.byte	0x1
 5609 0cfa 2601     		.2byte	0x126
ARM GAS  C:\Users\info\AppData\Local\Temp\ccfHjuLM.s 			page 122


 5610 0cfc 88000000 		.4byte	0x88
 5611 0d00 00000000 		.4byte	.LFB48
 5612 0d04 0C000000 		.4byte	.LFE48-.LFB48
 5613 0d08 01       		.uleb128 0x1
 5614 0d09 9C       		.byte	0x9c
 5615 0d0a 310D0000 		.4byte	0xd31
 5616 0d0e 0D       		.uleb128 0xd
 5617 0d0f 38080000 		.4byte	.LASF15
 5618 0d13 01       		.byte	0x1
 5619 0d14 2601     		.2byte	0x126
 5620 0d16 88000000 		.4byte	0x88
 5621 0d1a 30060000 		.4byte	.LLST48
 5622 0d1e 0E       		.uleb128 0xe
 5623 0d1f 62756600 		.ascii	"buf\000"
 5624 0d23 01       		.byte	0x1
 5625 0d24 2801     		.2byte	0x128
 5626 0d26 B7020000 		.4byte	0x2b7
 5627 0d2a 05       		.uleb128 0x5
 5628 0d2b 03       		.byte	0x3
 5629 0d2c C0870000 		.4byte	buf.10333
 5630 0d30 00       		.byte	0
 5631 0d31 0C       		.uleb128 0xc
 5632 0d32 53020000 		.4byte	.LASF63
 5633 0d36 01       		.byte	0x1
 5634 0d37 2C01     		.2byte	0x12c
 5635 0d39 88000000 		.4byte	0x88
 5636 0d3d 00000000 		.4byte	.LFB49
 5637 0d41 0C000000 		.4byte	.LFE49-.LFB49
 5638 0d45 01       		.uleb128 0x1
 5639 0d46 9C       		.byte	0x9c
 5640 0d47 6E0D0000 		.4byte	0xd6e
 5641 0d4b 0D       		.uleb128 0xd
 5642 0d4c 38080000 		.4byte	.LASF15
 5643 0d50 01       		.byte	0x1
 5644 0d51 2C01     		.2byte	0x12c
 5645 0d53 88000000 		.4byte	0x88
 5646 0d57 51060000 		.4byte	.LLST49
 5647 0d5b 0E       		.uleb128 0xe
 5648 0d5c 62756600 		.ascii	"buf\000"
 5649 0d60 01       		.byte	0x1
 5650 0d61 2E01     		.2byte	0x12e
 5651 0d63 6E0D0000 		.4byte	0xd6e
 5652 0d67 05       		.uleb128 0x5
 5653 0d68 03       		.byte	0x3
 5654 0d69 50880000 		.4byte	buf.10337
 5655 0d6d 00       		.byte	0
 5656 0d6e 09       		.uleb128 0x9
 5657 0d6f 76000000 		.4byte	0x76
 5658 0d73 7F0D0000 		.4byte	0xd7f
 5659 0d77 0B       		.uleb128 0xb
 5660 0d78 D8000000 		.4byte	0xd8
 5661 0d7c 1F01     		.2byte	0x11f
 5662 0d7e 00       		.byte	0
 5663 0d7f 0C       		.uleb128 0xc
 5664 0d80 2D030000 		.4byte	.LASF64
 5665 0d84 01       		.byte	0x1
 5666 0d85 3201     		.2byte	0x132
ARM GAS  C:\Users\info\AppData\Local\Temp\ccfHjuLM.s 			page 123


 5667 0d87 88000000 		.4byte	0x88
 5668 0d8b 00000000 		.4byte	.LFB50
 5669 0d8f 0C000000 		.4byte	.LFE50-.LFB50
 5670 0d93 01       		.uleb128 0x1
 5671 0d94 9C       		.byte	0x9c
 5672 0d95 BC0D0000 		.4byte	0xdbc
 5673 0d99 0D       		.uleb128 0xd
 5674 0d9a 38080000 		.4byte	.LASF15
 5675 0d9e 01       		.byte	0x1
 5676 0d9f 3201     		.2byte	0x132
 5677 0da1 88000000 		.4byte	0x88
 5678 0da5 72060000 		.4byte	.LLST50
 5679 0da9 0E       		.uleb128 0xe
 5680 0daa 62756600 		.ascii	"buf\000"
 5681 0dae 01       		.byte	0x1
 5682 0daf 3401     		.2byte	0x134
 5683 0db1 BC0D0000 		.4byte	0xdbc
 5684 0db5 05       		.uleb128 0x5
 5685 0db6 03       		.byte	0x3
 5686 0db7 70890000 		.4byte	buf.10341
 5687 0dbb 00       		.byte	0
 5688 0dbc 09       		.uleb128 0x9
 5689 0dbd 76000000 		.4byte	0x76
 5690 0dc1 CD0D0000 		.4byte	0xdcd
 5691 0dc5 0B       		.uleb128 0xb
 5692 0dc6 D8000000 		.4byte	0xd8
 5693 0dca CF0B     		.2byte	0xbcf
 5694 0dcc 00       		.byte	0
 5695 0dcd 0C       		.uleb128 0xc
 5696 0dce 61050000 		.4byte	.LASF65
 5697 0dd2 01       		.byte	0x1
 5698 0dd3 3801     		.2byte	0x138
 5699 0dd5 88000000 		.4byte	0x88
 5700 0dd9 00000000 		.4byte	.LFB51
 5701 0ddd 0C000000 		.4byte	.LFE51-.LFB51
 5702 0de1 01       		.uleb128 0x1
 5703 0de2 9C       		.byte	0x9c
 5704 0de3 0A0E0000 		.4byte	0xe0a
 5705 0de7 0D       		.uleb128 0xd
 5706 0de8 38080000 		.4byte	.LASF15
 5707 0dec 01       		.byte	0x1
 5708 0ded 3801     		.2byte	0x138
 5709 0def 88000000 		.4byte	0x88
 5710 0df3 93060000 		.4byte	.LLST51
 5711 0df7 0E       		.uleb128 0xe
 5712 0df8 62756600 		.ascii	"buf\000"
 5713 0dfc 01       		.byte	0x1
 5714 0dfd 3A01     		.2byte	0x13a
 5715 0dff 0A0E0000 		.4byte	0xe0a
 5716 0e03 05       		.uleb128 0x5
 5717 0e04 03       		.byte	0x3
 5718 0e05 40950000 		.4byte	buf.10345
 5719 0e09 00       		.byte	0
 5720 0e0a 09       		.uleb128 0x9
 5721 0e0b 76000000 		.4byte	0x76
 5722 0e0f 1A0E0000 		.4byte	0xe1a
 5723 0e13 0A       		.uleb128 0xa
ARM GAS  C:\Users\info\AppData\Local\Temp\ccfHjuLM.s 			page 124


 5724 0e14 D8000000 		.4byte	0xd8
 5725 0e18 67       		.byte	0x67
 5726 0e19 00       		.byte	0
 5727 0e1a 0C       		.uleb128 0xc
 5728 0e1b 6F050000 		.4byte	.LASF66
 5729 0e1f 01       		.byte	0x1
 5730 0e20 3E01     		.2byte	0x13e
 5731 0e22 88000000 		.4byte	0x88
 5732 0e26 00000000 		.4byte	.LFB52
 5733 0e2a 0C000000 		.4byte	.LFE52-.LFB52
 5734 0e2e 01       		.uleb128 0x1
 5735 0e2f 9C       		.byte	0x9c
 5736 0e30 570E0000 		.4byte	0xe57
 5737 0e34 0D       		.uleb128 0xd
 5738 0e35 38080000 		.4byte	.LASF15
 5739 0e39 01       		.byte	0x1
 5740 0e3a 3E01     		.2byte	0x13e
 5741 0e3c 88000000 		.4byte	0x88
 5742 0e40 B4060000 		.4byte	.LLST52
 5743 0e44 0E       		.uleb128 0xe
 5744 0e45 62756600 		.ascii	"buf\000"
 5745 0e49 01       		.byte	0x1
 5746 0e4a 4001     		.2byte	0x140
 5747 0e4c 570E0000 		.4byte	0xe57
 5748 0e50 05       		.uleb128 0x5
 5749 0e51 03       		.byte	0x3
 5750 0e52 A8950000 		.4byte	buf.10349
 5751 0e56 00       		.byte	0
 5752 0e57 09       		.uleb128 0x9
 5753 0e58 76000000 		.4byte	0x76
 5754 0e5c 670E0000 		.4byte	0xe67
 5755 0e60 0A       		.uleb128 0xa
 5756 0e61 D8000000 		.4byte	0xd8
 5757 0e65 CF       		.byte	0xcf
 5758 0e66 00       		.byte	0
 5759 0e67 0C       		.uleb128 0xc
 5760 0e68 D6050000 		.4byte	.LASF67
 5761 0e6c 01       		.byte	0x1
 5762 0e6d 4401     		.2byte	0x144
 5763 0e6f 88000000 		.4byte	0x88
 5764 0e73 00000000 		.4byte	.LFB53
 5765 0e77 0C000000 		.4byte	.LFE53-.LFB53
 5766 0e7b 01       		.uleb128 0x1
 5767 0e7c 9C       		.byte	0x9c
 5768 0e7d A40E0000 		.4byte	0xea4
 5769 0e81 0D       		.uleb128 0xd
 5770 0e82 38080000 		.4byte	.LASF15
 5771 0e86 01       		.byte	0x1
 5772 0e87 4401     		.2byte	0x144
 5773 0e89 88000000 		.4byte	0x88
 5774 0e8d D5060000 		.4byte	.LLST53
 5775 0e91 0E       		.uleb128 0xe
 5776 0e92 62756600 		.ascii	"buf\000"
 5777 0e96 01       		.byte	0x1
 5778 0e97 4601     		.2byte	0x146
 5779 0e99 A40E0000 		.4byte	0xea4
 5780 0e9d 05       		.uleb128 0x5
ARM GAS  C:\Users\info\AppData\Local\Temp\ccfHjuLM.s 			page 125


 5781 0e9e 03       		.byte	0x3
 5782 0e9f 78960000 		.4byte	buf.10353
 5783 0ea3 00       		.byte	0
 5784 0ea4 09       		.uleb128 0x9
 5785 0ea5 76000000 		.4byte	0x76
 5786 0ea9 B50E0000 		.4byte	0xeb5
 5787 0ead 0B       		.uleb128 0xb
 5788 0eae D8000000 		.4byte	0xd8
 5789 0eb2 3F03     		.2byte	0x33f
 5790 0eb4 00       		.byte	0
 5791 0eb5 0C       		.uleb128 0xc
 5792 0eb6 19050000 		.4byte	.LASF68
 5793 0eba 01       		.byte	0x1
 5794 0ebb 4A01     		.2byte	0x14a
 5795 0ebd 88000000 		.4byte	0x88
 5796 0ec1 00000000 		.4byte	.LFB54
 5797 0ec5 0C000000 		.4byte	.LFE54-.LFB54
 5798 0ec9 01       		.uleb128 0x1
 5799 0eca 9C       		.byte	0x9c
 5800 0ecb F20E0000 		.4byte	0xef2
 5801 0ecf 0D       		.uleb128 0xd
 5802 0ed0 38080000 		.4byte	.LASF15
 5803 0ed4 01       		.byte	0x1
 5804 0ed5 4A01     		.2byte	0x14a
 5805 0ed7 88000000 		.4byte	0x88
 5806 0edb F6060000 		.4byte	.LLST54
 5807 0edf 0E       		.uleb128 0xe
 5808 0ee0 62756600 		.ascii	"buf\000"
 5809 0ee4 01       		.byte	0x1
 5810 0ee5 4C01     		.2byte	0x14c
 5811 0ee7 F20E0000 		.4byte	0xef2
 5812 0eeb 05       		.uleb128 0x5
 5813 0eec 03       		.byte	0x3
 5814 0eed B8990000 		.4byte	buf.10357
 5815 0ef1 00       		.byte	0
 5816 0ef2 09       		.uleb128 0x9
 5817 0ef3 76000000 		.4byte	0x76
 5818 0ef7 020F0000 		.4byte	0xf02
 5819 0efb 0A       		.uleb128 0xa
 5820 0efc D8000000 		.4byte	0xd8
 5821 0f00 57       		.byte	0x57
 5822 0f01 00       		.byte	0
 5823 0f02 0C       		.uleb128 0xc
 5824 0f03 E4050000 		.4byte	.LASF69
 5825 0f07 01       		.byte	0x1
 5826 0f08 5001     		.2byte	0x150
 5827 0f0a 88000000 		.4byte	0x88
 5828 0f0e 00000000 		.4byte	.LFB55
 5829 0f12 0C000000 		.4byte	.LFE55-.LFB55
 5830 0f16 01       		.uleb128 0x1
 5831 0f17 9C       		.byte	0x9c
 5832 0f18 3F0F0000 		.4byte	0xf3f
 5833 0f1c 0D       		.uleb128 0xd
 5834 0f1d 38080000 		.4byte	.LASF15
 5835 0f21 01       		.byte	0x1
 5836 0f22 5001     		.2byte	0x150
 5837 0f24 88000000 		.4byte	0x88
ARM GAS  C:\Users\info\AppData\Local\Temp\ccfHjuLM.s 			page 126


 5838 0f28 17070000 		.4byte	.LLST55
 5839 0f2c 0E       		.uleb128 0xe
 5840 0f2d 62756600 		.ascii	"buf\000"
 5841 0f31 01       		.byte	0x1
 5842 0f32 5201     		.2byte	0x152
 5843 0f34 3F0F0000 		.4byte	0xf3f
 5844 0f38 05       		.uleb128 0x5
 5845 0f39 03       		.byte	0x3
 5846 0f3a 109A0000 		.4byte	buf.10361
 5847 0f3e 00       		.byte	0
 5848 0f3f 09       		.uleb128 0x9
 5849 0f40 76000000 		.4byte	0x76
 5850 0f44 4F0F0000 		.4byte	0xf4f
 5851 0f48 0A       		.uleb128 0xa
 5852 0f49 D8000000 		.4byte	0xd8
 5853 0f4d AF       		.byte	0xaf
 5854 0f4e 00       		.byte	0
 5855 0f4f 0C       		.uleb128 0xc
 5856 0f50 3F070000 		.4byte	.LASF70
 5857 0f54 01       		.byte	0x1
 5858 0f55 5601     		.2byte	0x156
 5859 0f57 88000000 		.4byte	0x88
 5860 0f5b 00000000 		.4byte	.LFB56
 5861 0f5f 0C000000 		.4byte	.LFE56-.LFB56
 5862 0f63 01       		.uleb128 0x1
 5863 0f64 9C       		.byte	0x9c
 5864 0f65 8C0F0000 		.4byte	0xf8c
 5865 0f69 0D       		.uleb128 0xd
 5866 0f6a 38080000 		.4byte	.LASF15
 5867 0f6e 01       		.byte	0x1
 5868 0f6f 5601     		.2byte	0x156
 5869 0f71 88000000 		.4byte	0x88
 5870 0f75 38070000 		.4byte	.LLST56
 5871 0f79 0E       		.uleb128 0xe
 5872 0f7a 62756600 		.ascii	"buf\000"
 5873 0f7e 01       		.byte	0x1
 5874 0f7f 5801     		.2byte	0x158
 5875 0f81 8C0F0000 		.4byte	0xf8c
 5876 0f85 05       		.uleb128 0x5
 5877 0f86 03       		.byte	0x3
 5878 0f87 C09A0000 		.4byte	buf.10365
 5879 0f8b 00       		.byte	0
 5880 0f8c 09       		.uleb128 0x9
 5881 0f8d 76000000 		.4byte	0x76
 5882 0f91 9D0F0000 		.4byte	0xf9d
 5883 0f95 0B       		.uleb128 0xb
 5884 0f96 D8000000 		.4byte	0xd8
 5885 0f9a 0F02     		.2byte	0x20f
 5886 0f9c 00       		.byte	0
 5887 0f9d 0C       		.uleb128 0xc
 5888 0f9e 23070000 		.4byte	.LASF71
 5889 0fa2 01       		.byte	0x1
 5890 0fa3 5C01     		.2byte	0x15c
 5891 0fa5 88000000 		.4byte	0x88
 5892 0fa9 00000000 		.4byte	.LFB57
 5893 0fad 0C000000 		.4byte	.LFE57-.LFB57
 5894 0fb1 01       		.uleb128 0x1
ARM GAS  C:\Users\info\AppData\Local\Temp\ccfHjuLM.s 			page 127


 5895 0fb2 9C       		.byte	0x9c
 5896 0fb3 DA0F0000 		.4byte	0xfda
 5897 0fb7 0D       		.uleb128 0xd
 5898 0fb8 38080000 		.4byte	.LASF15
 5899 0fbc 01       		.byte	0x1
 5900 0fbd 5C01     		.2byte	0x15c
 5901 0fbf 88000000 		.4byte	0x88
 5902 0fc3 59070000 		.4byte	.LLST57
 5903 0fc7 0E       		.uleb128 0xe
 5904 0fc8 62756600 		.ascii	"buf\000"
 5905 0fcc 01       		.byte	0x1
 5906 0fcd 5E01     		.2byte	0x15e
 5907 0fcf B8040000 		.4byte	0x4b8
 5908 0fd3 05       		.uleb128 0x5
 5909 0fd4 03       		.byte	0x3
 5910 0fd5 D09C0000 		.4byte	buf.10369
 5911 0fd9 00       		.byte	0
 5912 0fda 0C       		.uleb128 0xc
 5913 0fdb 31070000 		.4byte	.LASF72
 5914 0fdf 01       		.byte	0x1
 5915 0fe0 6201     		.2byte	0x162
 5916 0fe2 88000000 		.4byte	0x88
 5917 0fe6 00000000 		.4byte	.LFB58
 5918 0fea 0C000000 		.4byte	.LFE58-.LFB58
 5919 0fee 01       		.uleb128 0x1
 5920 0fef 9C       		.byte	0x9c
 5921 0ff0 17100000 		.4byte	0x1017
 5922 0ff4 0D       		.uleb128 0xd
 5923 0ff5 38080000 		.4byte	.LASF15
 5924 0ff9 01       		.byte	0x1
 5925 0ffa 6201     		.2byte	0x162
 5926 0ffc 88000000 		.4byte	0x88
 5927 1000 7A070000 		.4byte	.LLST58
 5928 1004 0E       		.uleb128 0xe
 5929 1005 62756600 		.ascii	"buf\000"
 5930 1009 01       		.byte	0x1
 5931 100a 6401     		.2byte	0x164
 5932 100c 02050000 		.4byte	0x502
 5933 1010 05       		.uleb128 0x5
 5934 1011 03       		.byte	0x3
 5935 1012 309D0000 		.4byte	buf.10373
 5936 1016 00       		.byte	0
 5937 1017 0C       		.uleb128 0xc
 5938 1018 E7070000 		.4byte	.LASF73
 5939 101c 01       		.byte	0x1
 5940 101d 6801     		.2byte	0x168
 5941 101f 88000000 		.4byte	0x88
 5942 1023 00000000 		.4byte	.LFB59
 5943 1027 0C000000 		.4byte	.LFE59-.LFB59
 5944 102b 01       		.uleb128 0x1
 5945 102c 9C       		.byte	0x9c
 5946 102d 54100000 		.4byte	0x1054
 5947 1031 0D       		.uleb128 0xd
 5948 1032 38080000 		.4byte	.LASF15
 5949 1036 01       		.byte	0x1
 5950 1037 6801     		.2byte	0x168
 5951 1039 88000000 		.4byte	0x88
ARM GAS  C:\Users\info\AppData\Local\Temp\ccfHjuLM.s 			page 128


 5952 103d 9B070000 		.4byte	.LLST59
 5953 1041 0E       		.uleb128 0xe
 5954 1042 62756600 		.ascii	"buf\000"
 5955 1046 01       		.byte	0x1
 5956 1047 6A01     		.2byte	0x16a
 5957 1049 54100000 		.4byte	0x1054
 5958 104d 05       		.uleb128 0x5
 5959 104e 03       		.byte	0x3
 5960 104f F09D0000 		.4byte	buf.10377
 5961 1053 00       		.byte	0
 5962 1054 09       		.uleb128 0x9
 5963 1055 76000000 		.4byte	0x76
 5964 1059 65100000 		.4byte	0x1065
 5965 105d 0B       		.uleb128 0xb
 5966 105e D8000000 		.4byte	0xd8
 5967 1062 5F03     		.2byte	0x35f
 5968 1064 00       		.byte	0
 5969 1065 0C       		.uleb128 0xc
 5970 1066 3C030000 		.4byte	.LASF74
 5971 106a 01       		.byte	0x1
 5972 106b 6E01     		.2byte	0x16e
 5973 106d 88000000 		.4byte	0x88
 5974 1071 00000000 		.4byte	.LFB60
 5975 1075 0C000000 		.4byte	.LFE60-.LFB60
 5976 1079 01       		.uleb128 0x1
 5977 107a 9C       		.byte	0x9c
 5978 107b A2100000 		.4byte	0x10a2
 5979 107f 0D       		.uleb128 0xd
 5980 1080 38080000 		.4byte	.LASF15
 5981 1084 01       		.byte	0x1
 5982 1085 6E01     		.2byte	0x16e
 5983 1087 88000000 		.4byte	0x88
 5984 108b BC070000 		.4byte	.LLST60
 5985 108f 0E       		.uleb128 0xe
 5986 1090 62756600 		.ascii	"buf\000"
 5987 1094 01       		.byte	0x1
 5988 1095 7001     		.2byte	0x170
 5989 1097 02050000 		.4byte	0x502
 5990 109b 05       		.uleb128 0x5
 5991 109c 03       		.byte	0x3
 5992 109d 50A10000 		.4byte	buf.10381
 5993 10a1 00       		.byte	0
 5994 10a2 0C       		.uleb128 0xc
 5995 10a3 27050000 		.4byte	.LASF75
 5996 10a7 01       		.byte	0x1
 5997 10a8 7401     		.2byte	0x174
 5998 10aa 88000000 		.4byte	0x88
 5999 10ae 00000000 		.4byte	.LFB61
 6000 10b2 0C000000 		.4byte	.LFE61-.LFB61
 6001 10b6 01       		.uleb128 0x1
 6002 10b7 9C       		.byte	0x9c
 6003 10b8 DF100000 		.4byte	0x10df
 6004 10bc 0D       		.uleb128 0xd
 6005 10bd 38080000 		.4byte	.LASF15
 6006 10c1 01       		.byte	0x1
 6007 10c2 7401     		.2byte	0x174
 6008 10c4 88000000 		.4byte	0x88
ARM GAS  C:\Users\info\AppData\Local\Temp\ccfHjuLM.s 			page 129


 6009 10c8 DD070000 		.4byte	.LLST61
 6010 10cc 0E       		.uleb128 0xe
 6011 10cd 62756600 		.ascii	"buf\000"
 6012 10d1 01       		.byte	0x1
 6013 10d2 7601     		.2byte	0x176
 6014 10d4 58080000 		.4byte	0x858
 6015 10d8 05       		.uleb128 0x5
 6016 10d9 03       		.byte	0x3
 6017 10da 10A20000 		.4byte	buf.10385
 6018 10de 00       		.byte	0
 6019 10df 0C       		.uleb128 0xc
 6020 10e0 23040000 		.4byte	.LASF76
 6021 10e4 01       		.byte	0x1
 6022 10e5 7A01     		.2byte	0x17a
 6023 10e7 88000000 		.4byte	0x88
 6024 10eb 00000000 		.4byte	.LFB62
 6025 10ef 0C000000 		.4byte	.LFE62-.LFB62
 6026 10f3 01       		.uleb128 0x1
 6027 10f4 9C       		.byte	0x9c
 6028 10f5 1C110000 		.4byte	0x111c
 6029 10f9 0D       		.uleb128 0xd
 6030 10fa 38080000 		.4byte	.LASF15
 6031 10fe 01       		.byte	0x1
 6032 10ff 7A01     		.2byte	0x17a
 6033 1101 88000000 		.4byte	0x88
 6034 1105 FE070000 		.4byte	.LLST62
 6035 1109 0E       		.uleb128 0xe
 6036 110a 62756600 		.ascii	"buf\000"
 6037 110e 01       		.byte	0x1
 6038 110f 7C01     		.2byte	0x17c
 6039 1111 830A0000 		.4byte	0xa83
 6040 1115 05       		.uleb128 0x5
 6041 1116 03       		.byte	0x3
 6042 1117 90A30000 		.4byte	buf.10389
 6043 111b 00       		.byte	0
 6044 111c 0C       		.uleb128 0xc
 6045 111d 94080000 		.4byte	.LASF77
 6046 1121 01       		.byte	0x1
 6047 1122 8001     		.2byte	0x180
 6048 1124 88000000 		.4byte	0x88
 6049 1128 00000000 		.4byte	.LFB63
 6050 112c 0C000000 		.4byte	.LFE63-.LFB63
 6051 1130 01       		.uleb128 0x1
 6052 1131 9C       		.byte	0x9c
 6053 1132 59110000 		.4byte	0x1159
 6054 1136 0D       		.uleb128 0xd
 6055 1137 38080000 		.4byte	.LASF15
 6056 113b 01       		.byte	0x1
 6057 113c 8001     		.2byte	0x180
 6058 113e 88000000 		.4byte	0x88
 6059 1142 1F080000 		.4byte	.LLST63
 6060 1146 0E       		.uleb128 0xe
 6061 1147 62756600 		.ascii	"buf\000"
 6062 114b 01       		.byte	0x1
 6063 114c 8201     		.2byte	0x182
 6064 114e 59110000 		.4byte	0x1159
 6065 1152 05       		.uleb128 0x5
ARM GAS  C:\Users\info\AppData\Local\Temp\ccfHjuLM.s 			page 130


 6066 1153 03       		.byte	0x3
 6067 1154 90A90000 		.4byte	buf.10393
 6068 1158 00       		.byte	0
 6069 1159 09       		.uleb128 0x9
 6070 115a 76000000 		.4byte	0x76
 6071 115e 69110000 		.4byte	0x1169
 6072 1162 0A       		.uleb128 0xa
 6073 1163 D8000000 		.4byte	0xd8
 6074 1167 EF       		.byte	0xef
 6075 1168 00       		.byte	0
 6076 1169 0C       		.uleb128 0xc
 6077 116a A2080000 		.4byte	.LASF78
 6078 116e 01       		.byte	0x1
 6079 116f 8601     		.2byte	0x186
 6080 1171 88000000 		.4byte	0x88
 6081 1175 00000000 		.4byte	.LFB64
 6082 1179 0C000000 		.4byte	.LFE64-.LFB64
 6083 117d 01       		.uleb128 0x1
 6084 117e 9C       		.byte	0x9c
 6085 117f A6110000 		.4byte	0x11a6
 6086 1183 0D       		.uleb128 0xd
 6087 1184 38080000 		.4byte	.LASF15
 6088 1188 01       		.byte	0x1
 6089 1189 8601     		.2byte	0x186
 6090 118b 88000000 		.4byte	0x88
 6091 118f 40080000 		.4byte	.LLST64
 6092 1193 0E       		.uleb128 0xe
 6093 1194 62756600 		.ascii	"buf\000"
 6094 1198 01       		.byte	0x1
 6095 1199 8801     		.2byte	0x188
 6096 119b A6110000 		.4byte	0x11a6
 6097 119f 05       		.uleb128 0x5
 6098 11a0 03       		.byte	0x3
 6099 11a1 80AA0000 		.4byte	buf.10397
 6100 11a5 00       		.byte	0
 6101 11a6 09       		.uleb128 0x9
 6102 11a7 76000000 		.4byte	0x76
 6103 11ab B7110000 		.4byte	0x11b7
 6104 11af 0B       		.uleb128 0xb
 6105 11b0 D8000000 		.4byte	0xd8
 6106 11b4 DF01     		.2byte	0x1df
 6107 11b6 00       		.byte	0
 6108 11b7 0C       		.uleb128 0xc
 6109 11b8 70000000 		.4byte	.LASF79
 6110 11bc 01       		.byte	0x1
 6111 11bd 8C01     		.2byte	0x18c
 6112 11bf 88000000 		.4byte	0x88
 6113 11c3 00000000 		.4byte	.LFB65
 6114 11c7 0C000000 		.4byte	.LFE65-.LFB65
 6115 11cb 01       		.uleb128 0x1
 6116 11cc 9C       		.byte	0x9c
 6117 11cd F4110000 		.4byte	0x11f4
 6118 11d1 0D       		.uleb128 0xd
 6119 11d2 38080000 		.4byte	.LASF15
 6120 11d6 01       		.byte	0x1
 6121 11d7 8C01     		.2byte	0x18c
 6122 11d9 88000000 		.4byte	0x88
ARM GAS  C:\Users\info\AppData\Local\Temp\ccfHjuLM.s 			page 131


 6123 11dd 61080000 		.4byte	.LLST65
 6124 11e1 0E       		.uleb128 0xe
 6125 11e2 62756600 		.ascii	"buf\000"
 6126 11e6 01       		.byte	0x1
 6127 11e7 8E01     		.2byte	0x18e
 6128 11e9 F4110000 		.4byte	0x11f4
 6129 11ed 05       		.uleb128 0x5
 6130 11ee 03       		.byte	0x3
 6131 11ef 60AC0000 		.4byte	buf.10401
 6132 11f3 00       		.byte	0
 6133 11f4 09       		.uleb128 0x9
 6134 11f5 76000000 		.4byte	0x76
 6135 11f9 05120000 		.4byte	0x1205
 6136 11fd 0B       		.uleb128 0xb
 6137 11fe D8000000 		.4byte	0xd8
 6138 1202 7F07     		.2byte	0x77f
 6139 1204 00       		.byte	0
 6140 1205 0C       		.uleb128 0xc
 6141 1206 7D020000 		.4byte	.LASF80
 6142 120a 01       		.byte	0x1
 6143 120b 9201     		.2byte	0x192
 6144 120d 88000000 		.4byte	0x88
 6145 1211 00000000 		.4byte	.LFB66
 6146 1215 0C000000 		.4byte	.LFE66-.LFB66
 6147 1219 01       		.uleb128 0x1
 6148 121a 9C       		.byte	0x9c
 6149 121b 42120000 		.4byte	0x1242
 6150 121f 0D       		.uleb128 0xd
 6151 1220 38080000 		.4byte	.LASF15
 6152 1224 01       		.byte	0x1
 6153 1225 9201     		.2byte	0x192
 6154 1227 88000000 		.4byte	0x88
 6155 122b 82080000 		.4byte	.LLST66
 6156 122f 0E       		.uleb128 0xe
 6157 1230 62756600 		.ascii	"buf\000"
 6158 1234 01       		.byte	0x1
 6159 1235 9401     		.2byte	0x194
 6160 1237 59110000 		.4byte	0x1159
 6161 123b 05       		.uleb128 0x5
 6162 123c 03       		.byte	0x3
 6163 123d E0B30000 		.4byte	buf.10405
 6164 1241 00       		.byte	0
 6165 1242 0C       		.uleb128 0xc
 6166 1243 9B020000 		.4byte	.LASF81
 6167 1247 01       		.byte	0x1
 6168 1248 9801     		.2byte	0x198
 6169 124a 88000000 		.4byte	0x88
 6170 124e 00000000 		.4byte	.LFB67
 6171 1252 0C000000 		.4byte	.LFE67-.LFB67
 6172 1256 01       		.uleb128 0x1
 6173 1257 9C       		.byte	0x9c
 6174 1258 7F120000 		.4byte	0x127f
 6175 125c 0D       		.uleb128 0xd
 6176 125d 38080000 		.4byte	.LASF15
 6177 1261 01       		.byte	0x1
 6178 1262 9801     		.2byte	0x198
 6179 1264 88000000 		.4byte	0x88
ARM GAS  C:\Users\info\AppData\Local\Temp\ccfHjuLM.s 			page 132


 6180 1268 A3080000 		.4byte	.LLST67
 6181 126c 0E       		.uleb128 0xe
 6182 126d 62756600 		.ascii	"buf\000"
 6183 1271 01       		.byte	0x1
 6184 1272 9A01     		.2byte	0x19a
 6185 1274 A6110000 		.4byte	0x11a6
 6186 1278 05       		.uleb128 0x5
 6187 1279 03       		.byte	0x3
 6188 127a D0B40000 		.4byte	buf.10409
 6189 127e 00       		.byte	0
 6190 127f 0C       		.uleb128 0xc
 6191 1280 4F040000 		.4byte	.LASF82
 6192 1284 01       		.byte	0x1
 6193 1285 9E01     		.2byte	0x19e
 6194 1287 88000000 		.4byte	0x88
 6195 128b 00000000 		.4byte	.LFB68
 6196 128f 0C000000 		.4byte	.LFE68-.LFB68
 6197 1293 01       		.uleb128 0x1
 6198 1294 9C       		.byte	0x9c
 6199 1295 BC120000 		.4byte	0x12bc
 6200 1299 0D       		.uleb128 0xd
 6201 129a 38080000 		.4byte	.LASF15
 6202 129e 01       		.byte	0x1
 6203 129f 9E01     		.2byte	0x19e
 6204 12a1 88000000 		.4byte	0x88
 6205 12a5 C4080000 		.4byte	.LLST68
 6206 12a9 0E       		.uleb128 0xe
 6207 12aa 62756600 		.ascii	"buf\000"
 6208 12ae 01       		.byte	0x1
 6209 12af A001     		.2byte	0x1a0
 6210 12b1 BC120000 		.4byte	0x12bc
 6211 12b5 05       		.uleb128 0x5
 6212 12b6 03       		.byte	0x3
 6213 12b7 B0B60000 		.4byte	buf.10413
 6214 12bb 00       		.byte	0
 6215 12bc 09       		.uleb128 0x9
 6216 12bd 76000000 		.4byte	0x76
 6217 12c1 CD120000 		.4byte	0x12cd
 6218 12c5 0B       		.uleb128 0xb
 6219 12c6 D8000000 		.4byte	0xd8
 6220 12ca 0F0E     		.2byte	0xe0f
 6221 12cc 00       		.byte	0
 6222 12cd 0C       		.uleb128 0xc
 6223 12ce D8070000 		.4byte	.LASF83
 6224 12d2 01       		.byte	0x1
 6225 12d3 A401     		.2byte	0x1a4
 6226 12d5 88000000 		.4byte	0x88
 6227 12d9 00000000 		.4byte	.LFB69
 6228 12dd 0C000000 		.4byte	.LFE69-.LFB69
 6229 12e1 01       		.uleb128 0x1
 6230 12e2 9C       		.byte	0x9c
 6231 12e3 0A130000 		.4byte	0x130a
 6232 12e7 0D       		.uleb128 0xd
 6233 12e8 38080000 		.4byte	.LASF15
 6234 12ec 01       		.byte	0x1
 6235 12ed A401     		.2byte	0x1a4
 6236 12ef 88000000 		.4byte	0x88
ARM GAS  C:\Users\info\AppData\Local\Temp\ccfHjuLM.s 			page 133


 6237 12f3 E5080000 		.4byte	.LLST69
 6238 12f7 0E       		.uleb128 0xe
 6239 12f8 62756600 		.ascii	"buf\000"
 6240 12fc 01       		.byte	0x1
 6241 12fd A601     		.2byte	0x1a6
 6242 12ff 59110000 		.4byte	0x1159
 6243 1303 05       		.uleb128 0x5
 6244 1304 03       		.byte	0x3
 6245 1305 C0C40000 		.4byte	buf.10417
 6246 1309 00       		.byte	0
 6247 130a 0C       		.uleb128 0xc
 6248 130b BF080000 		.4byte	.LASF84
 6249 130f 01       		.byte	0x1
 6250 1310 AA01     		.2byte	0x1aa
 6251 1312 88000000 		.4byte	0x88
 6252 1316 00000000 		.4byte	.LFB70
 6253 131a 0C000000 		.4byte	.LFE70-.LFB70
 6254 131e 01       		.uleb128 0x1
 6255 131f 9C       		.byte	0x9c
 6256 1320 47130000 		.4byte	0x1347
 6257 1324 0D       		.uleb128 0xd
 6258 1325 38080000 		.4byte	.LASF15
 6259 1329 01       		.byte	0x1
 6260 132a AA01     		.2byte	0x1aa
 6261 132c 88000000 		.4byte	0x88
 6262 1330 06090000 		.4byte	.LLST70
 6263 1334 0E       		.uleb128 0xe
 6264 1335 62756600 		.ascii	"buf\000"
 6265 1339 01       		.byte	0x1
 6266 133a AC01     		.2byte	0x1ac
 6267 133c A6110000 		.4byte	0x11a6
 6268 1340 05       		.uleb128 0x5
 6269 1341 03       		.byte	0x3
 6270 1342 B0C50000 		.4byte	buf.10421
 6271 1346 00       		.byte	0
 6272 1347 0C       		.uleb128 0xc
 6273 1348 EA080000 		.4byte	.LASF85
 6274 134c 01       		.byte	0x1
 6275 134d B001     		.2byte	0x1b0
 6276 134f 88000000 		.4byte	0x88
 6277 1353 00000000 		.4byte	.LFB71
 6278 1357 0C000000 		.4byte	.LFE71-.LFB71
 6279 135b 01       		.uleb128 0x1
 6280 135c 9C       		.byte	0x9c
 6281 135d 84130000 		.4byte	0x1384
 6282 1361 0D       		.uleb128 0xd
 6283 1362 38080000 		.4byte	.LASF15
 6284 1366 01       		.byte	0x1
 6285 1367 B001     		.2byte	0x1b0
 6286 1369 88000000 		.4byte	0x88
 6287 136d 27090000 		.4byte	.LLST71
 6288 1371 0E       		.uleb128 0xe
 6289 1372 62756600 		.ascii	"buf\000"
 6290 1376 01       		.byte	0x1
 6291 1377 B201     		.2byte	0x1b2
 6292 1379 84130000 		.4byte	0x1384
 6293 137d 05       		.uleb128 0x5
ARM GAS  C:\Users\info\AppData\Local\Temp\ccfHjuLM.s 			page 134


 6294 137e 03       		.byte	0x3
 6295 137f 90C70000 		.4byte	buf.10425
 6296 1383 00       		.byte	0
 6297 1384 09       		.uleb128 0x9
 6298 1385 76000000 		.4byte	0x76
 6299 1389 95130000 		.4byte	0x1395
 6300 138d 0B       		.uleb128 0xb
 6301 138e D8000000 		.4byte	0xd8
 6302 1392 FF0E     		.2byte	0xeff
 6303 1394 00       		.byte	0
 6304 1395 0C       		.uleb128 0xc
 6305 1396 A7030000 		.4byte	.LASF86
 6306 139a 01       		.byte	0x1
 6307 139b B601     		.2byte	0x1b6
 6308 139d 88000000 		.4byte	0x88
 6309 13a1 00000000 		.4byte	.LFB72
 6310 13a5 0C000000 		.4byte	.LFE72-.LFB72
 6311 13a9 01       		.uleb128 0x1
 6312 13aa 9C       		.byte	0x9c
 6313 13ab D2130000 		.4byte	0x13d2
 6314 13af 0D       		.uleb128 0xd
 6315 13b0 38080000 		.4byte	.LASF15
 6316 13b4 01       		.byte	0x1
 6317 13b5 B601     		.2byte	0x1b6
 6318 13b7 88000000 		.4byte	0x88
 6319 13bb 48090000 		.4byte	.LLST72
 6320 13bf 0E       		.uleb128 0xe
 6321 13c0 62756600 		.ascii	"buf\000"
 6322 13c4 01       		.byte	0x1
 6323 13c5 B801     		.2byte	0x1b8
 6324 13c7 56060000 		.4byte	0x656
 6325 13cb 05       		.uleb128 0x5
 6326 13cc 03       		.byte	0x3
 6327 13cd 90D60000 		.4byte	buf.10429
 6328 13d1 00       		.byte	0
 6329 13d2 0C       		.uleb128 0xc
 6330 13d3 B6030000 		.4byte	.LASF87
 6331 13d7 01       		.byte	0x1
 6332 13d8 BC01     		.2byte	0x1bc
 6333 13da 88000000 		.4byte	0x88
 6334 13de 00000000 		.4byte	.LFB73
 6335 13e2 0C000000 		.4byte	.LFE73-.LFB73
 6336 13e6 01       		.uleb128 0x1
 6337 13e7 9C       		.byte	0x9c
 6338 13e8 0F140000 		.4byte	0x140f
 6339 13ec 0D       		.uleb128 0xd
 6340 13ed 38080000 		.4byte	.LASF15
 6341 13f1 01       		.byte	0x1
 6342 13f2 BC01     		.2byte	0x1bc
 6343 13f4 88000000 		.4byte	0x88
 6344 13f8 69090000 		.4byte	.LLST73
 6345 13fc 0E       		.uleb128 0xe
 6346 13fd 62756600 		.ascii	"buf\000"
 6347 1401 01       		.byte	0x1
 6348 1402 BE01     		.2byte	0x1be
 6349 1404 A0060000 		.4byte	0x6a0
 6350 1408 05       		.uleb128 0x5
ARM GAS  C:\Users\info\AppData\Local\Temp\ccfHjuLM.s 			page 135


 6351 1409 03       		.byte	0x3
 6352 140a 30D70000 		.4byte	buf.10433
 6353 140e 00       		.byte	0
 6354 140f 0C       		.uleb128 0xc
 6355 1410 7C040000 		.4byte	.LASF88
 6356 1414 01       		.byte	0x1
 6357 1415 C201     		.2byte	0x1c2
 6358 1417 88000000 		.4byte	0x88
 6359 141b 00000000 		.4byte	.LFB74
 6360 141f 0C000000 		.4byte	.LFE74-.LFB74
 6361 1423 01       		.uleb128 0x1
 6362 1424 9C       		.byte	0x9c
 6363 1425 4C140000 		.4byte	0x144c
 6364 1429 0D       		.uleb128 0xd
 6365 142a 38080000 		.4byte	.LASF15
 6366 142e 01       		.byte	0x1
 6367 142f C201     		.2byte	0x1c2
 6368 1431 88000000 		.4byte	0x88
 6369 1435 8A090000 		.4byte	.LLST74
 6370 1439 0E       		.uleb128 0xe
 6371 143a 62756600 		.ascii	"buf\000"
 6372 143e 01       		.byte	0x1
 6373 143f C401     		.2byte	0x1c4
 6374 1441 4C140000 		.4byte	0x144c
 6375 1445 05       		.uleb128 0x5
 6376 1446 03       		.byte	0x3
 6377 1447 70D80000 		.4byte	buf.10437
 6378 144b 00       		.byte	0
 6379 144c 09       		.uleb128 0x9
 6380 144d 76000000 		.4byte	0x76
 6381 1451 5D140000 		.4byte	0x145d
 6382 1455 0B       		.uleb128 0xb
 6383 1456 D8000000 		.4byte	0xd8
 6384 145a FF09     		.2byte	0x9ff
 6385 145c 00       		.byte	0
 6386 145d 0C       		.uleb128 0xc
 6387 145e 0B080000 		.4byte	.LASF89
 6388 1462 01       		.byte	0x1
 6389 1463 C801     		.2byte	0x1c8
 6390 1465 88000000 		.4byte	0x88
 6391 1469 00000000 		.4byte	.LFB75
 6392 146d 0C000000 		.4byte	.LFE75-.LFB75
 6393 1471 01       		.uleb128 0x1
 6394 1472 9C       		.byte	0x9c
 6395 1473 9A140000 		.4byte	0x149a
 6396 1477 0D       		.uleb128 0xd
 6397 1478 38080000 		.4byte	.LASF15
 6398 147c 01       		.byte	0x1
 6399 147d C801     		.2byte	0x1c8
 6400 147f 88000000 		.4byte	0x88
 6401 1483 AB090000 		.4byte	.LLST75
 6402 1487 0E       		.uleb128 0xe
 6403 1488 62756600 		.ascii	"buf\000"
 6404 148c 01       		.byte	0x1
 6405 148d CA01     		.2byte	0x1ca
 6406 148f 56060000 		.4byte	0x656
 6407 1493 05       		.uleb128 0x5
ARM GAS  C:\Users\info\AppData\Local\Temp\ccfHjuLM.s 			page 136


 6408 1494 03       		.byte	0x3
 6409 1495 70E20000 		.4byte	buf.10441
 6410 1499 00       		.byte	0
 6411 149a 0C       		.uleb128 0xc
 6412 149b 11030000 		.4byte	.LASF90
 6413 149f 01       		.byte	0x1
 6414 14a0 CE01     		.2byte	0x1ce
 6415 14a2 88000000 		.4byte	0x88
 6416 14a6 00000000 		.4byte	.LFB76
 6417 14aa 0C000000 		.4byte	.LFE76-.LFB76
 6418 14ae 01       		.uleb128 0x1
 6419 14af 9C       		.byte	0x9c
 6420 14b0 D7140000 		.4byte	0x14d7
 6421 14b4 0D       		.uleb128 0xd
 6422 14b5 38080000 		.4byte	.LASF15
 6423 14b9 01       		.byte	0x1
 6424 14ba CE01     		.2byte	0x1ce
 6425 14bc 88000000 		.4byte	0x88
 6426 14c0 CC090000 		.4byte	.LLST76
 6427 14c4 0E       		.uleb128 0xe
 6428 14c5 62756600 		.ascii	"buf\000"
 6429 14c9 01       		.byte	0x1
 6430 14ca D001     		.2byte	0x1d0
 6431 14cc A0060000 		.4byte	0x6a0
 6432 14d0 05       		.uleb128 0x5
 6433 14d1 03       		.byte	0x3
 6434 14d2 10E30000 		.4byte	buf.10445
 6435 14d6 00       		.byte	0
 6436 14d7 0C       		.uleb128 0xc
 6437 14d8 0E000000 		.4byte	.LASF91
 6438 14dc 01       		.byte	0x1
 6439 14dd D401     		.2byte	0x1d4
 6440 14df 88000000 		.4byte	0x88
 6441 14e3 00000000 		.4byte	.LFB77
 6442 14e7 0C000000 		.4byte	.LFE77-.LFB77
 6443 14eb 01       		.uleb128 0x1
 6444 14ec 9C       		.byte	0x9c
 6445 14ed 14150000 		.4byte	0x1514
 6446 14f1 0D       		.uleb128 0xd
 6447 14f2 38080000 		.4byte	.LASF15
 6448 14f6 01       		.byte	0x1
 6449 14f7 D401     		.2byte	0x1d4
 6450 14f9 88000000 		.4byte	0x88
 6451 14fd ED090000 		.4byte	.LLST77
 6452 1501 0E       		.uleb128 0xe
 6453 1502 62756600 		.ascii	"buf\000"
 6454 1506 01       		.byte	0x1
 6455 1507 D601     		.2byte	0x1d6
 6456 1509 14150000 		.4byte	0x1514
 6457 150d 05       		.uleb128 0x5
 6458 150e 03       		.byte	0x3
 6459 150f 50E40000 		.4byte	buf.10449
 6460 1513 00       		.byte	0
 6461 1514 09       		.uleb128 0x9
 6462 1515 76000000 		.4byte	0x76
 6463 1519 25150000 		.4byte	0x1525
 6464 151d 0B       		.uleb128 0xb
ARM GAS  C:\Users\info\AppData\Local\Temp\ccfHjuLM.s 			page 137


 6465 151e D8000000 		.4byte	0xd8
 6466 1522 1F08     		.2byte	0x81f
 6467 1524 00       		.byte	0
 6468 1525 0C       		.uleb128 0xc
 6469 1526 AB070000 		.4byte	.LASF92
 6470 152a 01       		.byte	0x1
 6471 152b DA01     		.2byte	0x1da
 6472 152d 88000000 		.4byte	0x88
 6473 1531 00000000 		.4byte	.LFB78
 6474 1535 0C000000 		.4byte	.LFE78-.LFB78
 6475 1539 01       		.uleb128 0x1
 6476 153a 9C       		.byte	0x9c
 6477 153b 62150000 		.4byte	0x1562
 6478 153f 0D       		.uleb128 0xd
 6479 1540 38080000 		.4byte	.LASF15
 6480 1544 01       		.byte	0x1
 6481 1545 DA01     		.2byte	0x1da
 6482 1547 88000000 		.4byte	0x88
 6483 154b 0E0A0000 		.4byte	.LLST78
 6484 154f 0E       		.uleb128 0xe
 6485 1550 62756600 		.ascii	"buf\000"
 6486 1554 01       		.byte	0x1
 6487 1555 DC01     		.2byte	0x1dc
 6488 1557 59110000 		.4byte	0x1159
 6489 155b 05       		.uleb128 0x5
 6490 155c 03       		.byte	0x3
 6491 155d 70EC0000 		.4byte	buf.10453
 6492 1561 00       		.byte	0
 6493 1562 0C       		.uleb128 0xc
 6494 1563 BA070000 		.4byte	.LASF93
 6495 1567 01       		.byte	0x1
 6496 1568 E001     		.2byte	0x1e0
 6497 156a 88000000 		.4byte	0x88
 6498 156e 00000000 		.4byte	.LFB79
 6499 1572 0C000000 		.4byte	.LFE79-.LFB79
 6500 1576 01       		.uleb128 0x1
 6501 1577 9C       		.byte	0x9c
 6502 1578 9F150000 		.4byte	0x159f
 6503 157c 0D       		.uleb128 0xd
 6504 157d 38080000 		.4byte	.LASF15
 6505 1581 01       		.byte	0x1
 6506 1582 E001     		.2byte	0x1e0
 6507 1584 88000000 		.4byte	0x88
 6508 1588 2F0A0000 		.4byte	.LLST79
 6509 158c 0E       		.uleb128 0xe
 6510 158d 62756600 		.ascii	"buf\000"
 6511 1591 01       		.byte	0x1
 6512 1592 E201     		.2byte	0x1e2
 6513 1594 A6110000 		.4byte	0x11a6
 6514 1598 05       		.uleb128 0x5
 6515 1599 03       		.byte	0x3
 6516 159a 60ED0000 		.4byte	buf.10457
 6517 159e 00       		.byte	0
 6518 159f 0C       		.uleb128 0xc
 6519 15a0 B0080000 		.4byte	.LASF94
 6520 15a4 01       		.byte	0x1
 6521 15a5 E601     		.2byte	0x1e6
ARM GAS  C:\Users\info\AppData\Local\Temp\ccfHjuLM.s 			page 138


 6522 15a7 88000000 		.4byte	0x88
 6523 15ab 00000000 		.4byte	.LFB80
 6524 15af 0C000000 		.4byte	.LFE80-.LFB80
 6525 15b3 01       		.uleb128 0x1
 6526 15b4 9C       		.byte	0x9c
 6527 15b5 DC150000 		.4byte	0x15dc
 6528 15b9 0D       		.uleb128 0xd
 6529 15ba 38080000 		.4byte	.LASF15
 6530 15be 01       		.byte	0x1
 6531 15bf E601     		.2byte	0x1e6
 6532 15c1 88000000 		.4byte	0x88
 6533 15c5 500A0000 		.4byte	.LLST80
 6534 15c9 0E       		.uleb128 0xe
 6535 15ca 62756600 		.ascii	"buf\000"
 6536 15ce 01       		.byte	0x1
 6537 15cf E801     		.2byte	0x1e8
 6538 15d1 DC150000 		.4byte	0x15dc
 6539 15d5 05       		.uleb128 0x5
 6540 15d6 03       		.byte	0x3
 6541 15d7 40EF0000 		.4byte	buf.10461
 6542 15db 00       		.byte	0
 6543 15dc 09       		.uleb128 0x9
 6544 15dd 76000000 		.4byte	0x76
 6545 15e1 ED150000 		.4byte	0x15ed
 6546 15e5 0B       		.uleb128 0xb
 6547 15e6 D8000000 		.4byte	0xd8
 6548 15ea BF12     		.2byte	0x12bf
 6549 15ec 00       		.byte	0
 6550 15ed 0C       		.uleb128 0xc
 6551 15ee AA020000 		.4byte	.LASF95
 6552 15f2 01       		.byte	0x1
 6553 15f3 EC01     		.2byte	0x1ec
 6554 15f5 88000000 		.4byte	0x88
 6555 15f9 00000000 		.4byte	.LFB81
 6556 15fd 0C000000 		.4byte	.LFE81-.LFB81
 6557 1601 01       		.uleb128 0x1
 6558 1602 9C       		.byte	0x9c
 6559 1603 2A160000 		.4byte	0x162a
 6560 1607 0D       		.uleb128 0xd
 6561 1608 38080000 		.4byte	.LASF15
 6562 160c 01       		.byte	0x1
 6563 160d EC01     		.2byte	0x1ec
 6564 160f 88000000 		.4byte	0x88
 6565 1613 710A0000 		.4byte	.LLST81
 6566 1617 0E       		.uleb128 0xe
 6567 1618 62756600 		.ascii	"buf\000"
 6568 161c 01       		.byte	0x1
 6569 161d EE01     		.2byte	0x1ee
 6570 161f A0060000 		.4byte	0x6a0
 6571 1623 05       		.uleb128 0x5
 6572 1624 03       		.byte	0x3
 6573 1625 00020100 		.4byte	buf.10465
 6574 1629 00       		.byte	0
 6575 162a 0C       		.uleb128 0xc
 6576 162b B9020000 		.4byte	.LASF96
 6577 162f 01       		.byte	0x1
 6578 1630 F201     		.2byte	0x1f2
ARM GAS  C:\Users\info\AppData\Local\Temp\ccfHjuLM.s 			page 139


 6579 1632 88000000 		.4byte	0x88
 6580 1636 00000000 		.4byte	.LFB82
 6581 163a 0C000000 		.4byte	.LFE82-.LFB82
 6582 163e 01       		.uleb128 0x1
 6583 163f 9C       		.byte	0x9c
 6584 1640 67160000 		.4byte	0x1667
 6585 1644 0D       		.uleb128 0xd
 6586 1645 38080000 		.4byte	.LASF15
 6587 1649 01       		.byte	0x1
 6588 164a F201     		.2byte	0x1f2
 6589 164c 88000000 		.4byte	0x88
 6590 1650 920A0000 		.4byte	.LLST82
 6591 1654 0E       		.uleb128 0xe
 6592 1655 62756600 		.ascii	"buf\000"
 6593 1659 01       		.byte	0x1
 6594 165a F401     		.2byte	0x1f4
 6595 165c 67160000 		.4byte	0x1667
 6596 1660 05       		.uleb128 0x5
 6597 1661 03       		.byte	0x3
 6598 1662 40030100 		.4byte	buf.10469
 6599 1666 00       		.byte	0
 6600 1667 09       		.uleb128 0x9
 6601 1668 76000000 		.4byte	0x76
 6602 166c 78160000 		.4byte	0x1678
 6603 1670 0B       		.uleb128 0xb
 6604 1671 D8000000 		.4byte	0xd8
 6605 1675 7F02     		.2byte	0x27f
 6606 1677 00       		.byte	0
 6607 1678 0C       		.uleb128 0xc
 6608 1679 98030000 		.4byte	.LASF97
 6609 167d 01       		.byte	0x1
 6610 167e F801     		.2byte	0x1f8
 6611 1680 88000000 		.4byte	0x88
 6612 1684 00000000 		.4byte	.LFB83
 6613 1688 0C000000 		.4byte	.LFE83-.LFB83
 6614 168c 01       		.uleb128 0x1
 6615 168d 9C       		.byte	0x9c
 6616 168e B5160000 		.4byte	0x16b5
 6617 1692 0D       		.uleb128 0xd
 6618 1693 38080000 		.4byte	.LASF15
 6619 1697 01       		.byte	0x1
 6620 1698 F801     		.2byte	0x1f8
 6621 169a 88000000 		.4byte	0x88
 6622 169e B30A0000 		.4byte	.LLST83
 6623 16a2 0E       		.uleb128 0xe
 6624 16a3 62756600 		.ascii	"buf\000"
 6625 16a7 01       		.byte	0x1
 6626 16a8 FA01     		.2byte	0x1fa
 6627 16aa B5160000 		.4byte	0x16b5
 6628 16ae 05       		.uleb128 0x5
 6629 16af 03       		.byte	0x3
 6630 16b0 C0050100 		.4byte	buf.10473
 6631 16b4 00       		.byte	0
 6632 16b5 09       		.uleb128 0x9
 6633 16b6 76000000 		.4byte	0x76
 6634 16ba C6160000 		.4byte	0x16c6
 6635 16be 0B       		.uleb128 0xb
ARM GAS  C:\Users\info\AppData\Local\Temp\ccfHjuLM.s 			page 140


 6636 16bf D8000000 		.4byte	0xd8
 6637 16c3 7F25     		.2byte	0x257f
 6638 16c5 00       		.byte	0
 6639 16c6 0C       		.uleb128 0xc
 6640 16c7 8F070000 		.4byte	.LASF98
 6641 16cb 01       		.byte	0x1
 6642 16cc FE01     		.2byte	0x1fe
 6643 16ce 88000000 		.4byte	0x88
 6644 16d2 00000000 		.4byte	.LFB84
 6645 16d6 0C000000 		.4byte	.LFE84-.LFB84
 6646 16da 01       		.uleb128 0x1
 6647 16db 9C       		.byte	0x9c
 6648 16dc 03170000 		.4byte	0x1703
 6649 16e0 0D       		.uleb128 0xd
 6650 16e1 38080000 		.4byte	.LASF15
 6651 16e5 01       		.byte	0x1
 6652 16e6 FE01     		.2byte	0x1fe
 6653 16e8 88000000 		.4byte	0x88
 6654 16ec D40A0000 		.4byte	.LLST84
 6655 16f0 0E       		.uleb128 0xe
 6656 16f1 62756600 		.ascii	"buf\000"
 6657 16f5 01       		.byte	0x1
 6658 16f6 0002     		.2byte	0x200
 6659 16f8 03170000 		.4byte	0x1703
 6660 16fc 05       		.uleb128 0x5
 6661 16fd 03       		.byte	0x3
 6662 16fe 402B0100 		.4byte	buf.10477
 6663 1702 00       		.byte	0
 6664 1703 09       		.uleb128 0x9
 6665 1704 76000000 		.4byte	0x76
 6666 1708 13170000 		.4byte	0x1713
 6667 170c 0A       		.uleb128 0xa
 6668 170d D8000000 		.4byte	0xd8
 6669 1711 87       		.byte	0x87
 6670 1712 00       		.byte	0
 6671 1713 0C       		.uleb128 0xc
 6672 1714 9D070000 		.4byte	.LASF99
 6673 1718 01       		.byte	0x1
 6674 1719 0402     		.2byte	0x204
 6675 171b 88000000 		.4byte	0x88
 6676 171f 00000000 		.4byte	.LFB85
 6677 1723 0C000000 		.4byte	.LFE85-.LFB85
 6678 1727 01       		.uleb128 0x1
 6679 1728 9C       		.byte	0x9c
 6680 1729 50170000 		.4byte	0x1750
 6681 172d 0D       		.uleb128 0xd
 6682 172e 38080000 		.4byte	.LASF15
 6683 1732 01       		.byte	0x1
 6684 1733 0402     		.2byte	0x204
 6685 1735 88000000 		.4byte	0x88
 6686 1739 F50A0000 		.4byte	.LLST85
 6687 173d 0E       		.uleb128 0xe
 6688 173e 62756600 		.ascii	"buf\000"
 6689 1742 01       		.byte	0x1
 6690 1743 0602     		.2byte	0x206
 6691 1745 50170000 		.4byte	0x1750
 6692 1749 05       		.uleb128 0x5
ARM GAS  C:\Users\info\AppData\Local\Temp\ccfHjuLM.s 			page 141


 6693 174a 03       		.byte	0x3
 6694 174b C82B0100 		.4byte	buf.10481
 6695 174f 00       		.byte	0
 6696 1750 09       		.uleb128 0x9
 6697 1751 76000000 		.4byte	0x76
 6698 1755 61170000 		.4byte	0x1761
 6699 1759 0B       		.uleb128 0xb
 6700 175a D8000000 		.4byte	0xd8
 6701 175e 0F01     		.2byte	0x10f
 6702 1760 00       		.byte	0
 6703 1761 0C       		.uleb128 0xc
 6704 1762 6C080000 		.4byte	.LASF100
 6705 1766 01       		.byte	0x1
 6706 1767 0A02     		.2byte	0x20a
 6707 1769 88000000 		.4byte	0x88
 6708 176d 00000000 		.4byte	.LFB86
 6709 1771 0C000000 		.4byte	.LFE86-.LFB86
 6710 1775 01       		.uleb128 0x1
 6711 1776 9C       		.byte	0x9c
 6712 1777 9E170000 		.4byte	0x179e
 6713 177b 0D       		.uleb128 0xd
 6714 177c 38080000 		.4byte	.LASF15
 6715 1780 01       		.byte	0x1
 6716 1781 0A02     		.2byte	0x20a
 6717 1783 88000000 		.4byte	0x88
 6718 1787 160B0000 		.4byte	.LLST86
 6719 178b 0E       		.uleb128 0xe
 6720 178c 62756600 		.ascii	"buf\000"
 6721 1790 01       		.byte	0x1
 6722 1791 0C02     		.2byte	0x20c
 6723 1793 9E170000 		.4byte	0x179e
 6724 1797 05       		.uleb128 0x5
 6725 1798 03       		.byte	0x3
 6726 1799 D82C0100 		.4byte	buf.10485
 6727 179d 00       		.byte	0
 6728 179e 09       		.uleb128 0x9
 6729 179f 76000000 		.4byte	0x76
 6730 17a3 AF170000 		.4byte	0x17af
 6731 17a7 0B       		.uleb128 0xb
 6732 17a8 D8000000 		.4byte	0xd8
 6733 17ac 1F02     		.2byte	0x21f
 6734 17ae 00       		.byte	0
 6735 17af 0C       		.uleb128 0xc
 6736 17b0 E8000000 		.4byte	.LASF101
 6737 17b4 01       		.byte	0x1
 6738 17b5 1002     		.2byte	0x210
 6739 17b7 88000000 		.4byte	0x88
 6740 17bb 00000000 		.4byte	.LFB87
 6741 17bf 0C000000 		.4byte	.LFE87-.LFB87
 6742 17c3 01       		.uleb128 0x1
 6743 17c4 9C       		.byte	0x9c
 6744 17c5 EC170000 		.4byte	0x17ec
 6745 17c9 0D       		.uleb128 0xd
 6746 17ca 38080000 		.4byte	.LASF15
 6747 17ce 01       		.byte	0x1
 6748 17cf 1002     		.2byte	0x210
 6749 17d1 88000000 		.4byte	0x88
ARM GAS  C:\Users\info\AppData\Local\Temp\ccfHjuLM.s 			page 142


 6750 17d5 370B0000 		.4byte	.LLST87
 6751 17d9 0E       		.uleb128 0xe
 6752 17da 62756600 		.ascii	"buf\000"
 6753 17de 01       		.byte	0x1
 6754 17df 1202     		.2byte	0x212
 6755 17e1 03170000 		.4byte	0x1703
 6756 17e5 05       		.uleb128 0x5
 6757 17e6 03       		.byte	0x3
 6758 17e7 F82E0100 		.4byte	buf.10489
 6759 17eb 00       		.byte	0
 6760 17ec 0C       		.uleb128 0xc
 6761 17ed F6000000 		.4byte	.LASF102
 6762 17f1 01       		.byte	0x1
 6763 17f2 1602     		.2byte	0x216
 6764 17f4 88000000 		.4byte	0x88
 6765 17f8 00000000 		.4byte	.LFB88
 6766 17fc 0C000000 		.4byte	.LFE88-.LFB88
 6767 1800 01       		.uleb128 0x1
 6768 1801 9C       		.byte	0x9c
 6769 1802 29180000 		.4byte	0x1829
 6770 1806 0D       		.uleb128 0xd
 6771 1807 38080000 		.4byte	.LASF15
 6772 180b 01       		.byte	0x1
 6773 180c 1602     		.2byte	0x216
 6774 180e 88000000 		.4byte	0x88
 6775 1812 580B0000 		.4byte	.LLST88
 6776 1816 0E       		.uleb128 0xe
 6777 1817 62756600 		.ascii	"buf\000"
 6778 181b 01       		.byte	0x1
 6779 181c 1802     		.2byte	0x218
 6780 181e 50170000 		.4byte	0x1750
 6781 1822 05       		.uleb128 0x5
 6782 1823 03       		.byte	0x3
 6783 1824 802F0100 		.4byte	buf.10493
 6784 1828 00       		.byte	0
 6785 1829 0C       		.uleb128 0xc
 6786 182a 36020000 		.4byte	.LASF103
 6787 182e 01       		.byte	0x1
 6788 182f 1C02     		.2byte	0x21c
 6789 1831 88000000 		.4byte	0x88
 6790 1835 00000000 		.4byte	.LFB89
 6791 1839 0C000000 		.4byte	.LFE89-.LFB89
 6792 183d 01       		.uleb128 0x1
 6793 183e 9C       		.byte	0x9c
 6794 183f 66180000 		.4byte	0x1866
 6795 1843 0D       		.uleb128 0xd
 6796 1844 38080000 		.4byte	.LASF15
 6797 1848 01       		.byte	0x1
 6798 1849 1C02     		.2byte	0x21c
 6799 184b 88000000 		.4byte	0x88
 6800 184f 790B0000 		.4byte	.LLST89
 6801 1853 0E       		.uleb128 0xe
 6802 1854 62756600 		.ascii	"buf\000"
 6803 1858 01       		.byte	0x1
 6804 1859 1E02     		.2byte	0x21e
 6805 185b 66180000 		.4byte	0x1866
 6806 185f 05       		.uleb128 0x5
ARM GAS  C:\Users\info\AppData\Local\Temp\ccfHjuLM.s 			page 143


 6807 1860 03       		.byte	0x3
 6808 1861 90300100 		.4byte	buf.10497
 6809 1865 00       		.byte	0
 6810 1866 09       		.uleb128 0x9
 6811 1867 76000000 		.4byte	0x76
 6812 186b 77180000 		.4byte	0x1877
 6813 186f 0B       		.uleb128 0xb
 6814 1870 D8000000 		.4byte	0xd8
 6815 1874 3F04     		.2byte	0x43f
 6816 1876 00       		.byte	0
 6817 1877 0C       		.uleb128 0xc
 6818 1878 CA000000 		.4byte	.LASF104
 6819 187c 01       		.byte	0x1
 6820 187d 2202     		.2byte	0x222
 6821 187f 88000000 		.4byte	0x88
 6822 1883 00000000 		.4byte	.LFB90
 6823 1887 0C000000 		.4byte	.LFE90-.LFB90
 6824 188b 01       		.uleb128 0x1
 6825 188c 9C       		.byte	0x9c
 6826 188d B4180000 		.4byte	0x18b4
 6827 1891 0D       		.uleb128 0xd
 6828 1892 38080000 		.4byte	.LASF15
 6829 1896 01       		.byte	0x1
 6830 1897 2202     		.2byte	0x222
 6831 1899 88000000 		.4byte	0x88
 6832 189d 9A0B0000 		.4byte	.LLST90
 6833 18a1 0E       		.uleb128 0xe
 6834 18a2 62756600 		.ascii	"buf\000"
 6835 18a6 01       		.byte	0x1
 6836 18a7 2402     		.2byte	0x224
 6837 18a9 58080000 		.4byte	0x858
 6838 18ad 05       		.uleb128 0x5
 6839 18ae 03       		.byte	0x3
 6840 18af D0340100 		.4byte	buf.10501
 6841 18b3 00       		.byte	0
 6842 18b4 0C       		.uleb128 0xc
 6843 18b5 D9000000 		.4byte	.LASF105
 6844 18b9 01       		.byte	0x1
 6845 18ba 2802     		.2byte	0x228
 6846 18bc 88000000 		.4byte	0x88
 6847 18c0 00000000 		.4byte	.LFB91
 6848 18c4 0C000000 		.4byte	.LFE91-.LFB91
 6849 18c8 01       		.uleb128 0x1
 6850 18c9 9C       		.byte	0x9c
 6851 18ca F1180000 		.4byte	0x18f1
 6852 18ce 0D       		.uleb128 0xd
 6853 18cf 38080000 		.4byte	.LASF15
 6854 18d3 01       		.byte	0x1
 6855 18d4 2802     		.2byte	0x228
 6856 18d6 88000000 		.4byte	0x88
 6857 18da BB0B0000 		.4byte	.LLST91
 6858 18de 0E       		.uleb128 0xe
 6859 18df 62756600 		.ascii	"buf\000"
 6860 18e3 01       		.byte	0x1
 6861 18e4 2A02     		.2byte	0x22a
 6862 18e6 F90B0000 		.4byte	0xbf9
 6863 18ea 05       		.uleb128 0x5
ARM GAS  C:\Users\info\AppData\Local\Temp\ccfHjuLM.s 			page 144


 6864 18eb 03       		.byte	0x3
 6865 18ec 50360100 		.4byte	buf.10505
 6866 18f0 00       		.byte	0
 6867 18f1 0C       		.uleb128 0xc
 6868 18f2 0B020000 		.4byte	.LASF106
 6869 18f6 01       		.byte	0x1
 6870 18f7 2E02     		.2byte	0x22e
 6871 18f9 88000000 		.4byte	0x88
 6872 18fd 00000000 		.4byte	.LFB92
 6873 1901 0C000000 		.4byte	.LFE92-.LFB92
 6874 1905 01       		.uleb128 0x1
 6875 1906 9C       		.byte	0x9c
 6876 1907 2E190000 		.4byte	0x192e
 6877 190b 0D       		.uleb128 0xd
 6878 190c 38080000 		.4byte	.LASF15
 6879 1910 01       		.byte	0x1
 6880 1911 2E02     		.2byte	0x22e
 6881 1913 88000000 		.4byte	0x88
 6882 1917 DC0B0000 		.4byte	.LLST92
 6883 191b 0E       		.uleb128 0xe
 6884 191c 62756600 		.ascii	"buf\000"
 6885 1920 01       		.byte	0x1
 6886 1921 3002     		.2byte	0x230
 6887 1923 2E190000 		.4byte	0x192e
 6888 1927 05       		.uleb128 0x5
 6889 1928 03       		.byte	0x3
 6890 1929 50390100 		.4byte	buf.10509
 6891 192d 00       		.byte	0
 6892 192e 09       		.uleb128 0x9
 6893 192f 76000000 		.4byte	0x76
 6894 1933 3F190000 		.4byte	0x193f
 6895 1937 0B       		.uleb128 0xb
 6896 1938 D8000000 		.4byte	0xd8
 6897 193c 7F19     		.2byte	0x197f
 6898 193e 00       		.byte	0
 6899 193f 0C       		.uleb128 0xc
 6900 1940 05040000 		.4byte	.LASF107
 6901 1944 01       		.byte	0x1
 6902 1945 3402     		.2byte	0x234
 6903 1947 88000000 		.4byte	0x88
 6904 194b 00000000 		.4byte	.LFB93
 6905 194f 0C000000 		.4byte	.LFE93-.LFB93
 6906 1953 01       		.uleb128 0x1
 6907 1954 9C       		.byte	0x9c
 6908 1955 7C190000 		.4byte	0x197c
 6909 1959 0D       		.uleb128 0xd
 6910 195a 38080000 		.4byte	.LASF15
 6911 195e 01       		.byte	0x1
 6912 195f 3402     		.2byte	0x234
 6913 1961 88000000 		.4byte	0x88
 6914 1965 FD0B0000 		.4byte	.LLST93
 6915 1969 0E       		.uleb128 0xe
 6916 196a 62756600 		.ascii	"buf\000"
 6917 196e 01       		.byte	0x1
 6918 196f 3602     		.2byte	0x236
 6919 1971 19010000 		.4byte	0x119
 6920 1975 05       		.uleb128 0x5
ARM GAS  C:\Users\info\AppData\Local\Temp\ccfHjuLM.s 			page 145


 6921 1976 03       		.byte	0x3
 6922 1977 D0520100 		.4byte	buf.10513
 6923 197b 00       		.byte	0
 6924 197c 0C       		.uleb128 0xc
 6925 197d 14040000 		.4byte	.LASF108
 6926 1981 01       		.byte	0x1
 6927 1982 3A02     		.2byte	0x23a
 6928 1984 88000000 		.4byte	0x88
 6929 1988 00000000 		.4byte	.LFB94
 6930 198c 0C000000 		.4byte	.LFE94-.LFB94
 6931 1990 01       		.uleb128 0x1
 6932 1991 9C       		.byte	0x9c
 6933 1992 B9190000 		.4byte	0x19b9
 6934 1996 0D       		.uleb128 0xd
 6935 1997 38080000 		.4byte	.LASF15
 6936 199b 01       		.byte	0x1
 6937 199c 3A02     		.2byte	0x23a
 6938 199e 88000000 		.4byte	0x88
 6939 19a2 1E0C0000 		.4byte	.LLST94
 6940 19a6 0E       		.uleb128 0xe
 6941 19a7 62756600 		.ascii	"buf\000"
 6942 19ab 01       		.byte	0x1
 6943 19ac 3C02     		.2byte	0x23c
 6944 19ae 63010000 		.4byte	0x163
 6945 19b2 05       		.uleb128 0x5
 6946 19b3 03       		.byte	0x3
 6947 19b4 D0530100 		.4byte	buf.10517
 6948 19b8 00       		.byte	0
 6949 19b9 0C       		.uleb128 0xc
 6950 19ba A4000000 		.4byte	.LASF109
 6951 19be 01       		.byte	0x1
 6952 19bf 4002     		.2byte	0x240
 6953 19c1 88000000 		.4byte	0x88
 6954 19c5 00000000 		.4byte	.LFB95
 6955 19c9 0C000000 		.4byte	.LFE95-.LFB95
 6956 19cd 01       		.uleb128 0x1
 6957 19ce 9C       		.byte	0x9c
 6958 19cf F6190000 		.4byte	0x19f6
 6959 19d3 0D       		.uleb128 0xd
 6960 19d4 38080000 		.4byte	.LASF15
 6961 19d8 01       		.byte	0x1
 6962 19d9 4002     		.2byte	0x240
 6963 19db 88000000 		.4byte	0x88
 6964 19df 3F0C0000 		.4byte	.LLST95
 6965 19e3 0E       		.uleb128 0xe
 6966 19e4 62756600 		.ascii	"buf\000"
 6967 19e8 01       		.byte	0x1
 6968 19e9 4202     		.2byte	0x242
 6969 19eb F6190000 		.4byte	0x19f6
 6970 19ef 05       		.uleb128 0x5
 6971 19f0 03       		.byte	0x3
 6972 19f1 D0550100 		.4byte	buf.10521
 6973 19f5 00       		.byte	0
 6974 19f6 09       		.uleb128 0x9
 6975 19f7 76000000 		.4byte	0x76
 6976 19fb 071A0000 		.4byte	0x1a07
 6977 19ff 0B       		.uleb128 0xb
ARM GAS  C:\Users\info\AppData\Local\Temp\ccfHjuLM.s 			page 146


 6978 1a00 D8000000 		.4byte	0xd8
 6979 1a04 FF0F     		.2byte	0xfff
 6980 1a06 00       		.byte	0
 6981 1a07 0C       		.uleb128 0xc
 6982 1a08 E7030000 		.4byte	.LASF110
 6983 1a0c 01       		.byte	0x1
 6984 1a0d 4602     		.2byte	0x246
 6985 1a0f 88000000 		.4byte	0x88
 6986 1a13 00000000 		.4byte	.LFB96
 6987 1a17 0C000000 		.4byte	.LFE96-.LFB96
 6988 1a1b 01       		.uleb128 0x1
 6989 1a1c 9C       		.byte	0x9c
 6990 1a1d 441A0000 		.4byte	0x1a44
 6991 1a21 0D       		.uleb128 0xd
 6992 1a22 38080000 		.4byte	.LASF15
 6993 1a26 01       		.byte	0x1
 6994 1a27 4602     		.2byte	0x246
 6995 1a29 88000000 		.4byte	0x88
 6996 1a2d 600C0000 		.4byte	.LLST96
 6997 1a31 0E       		.uleb128 0xe
 6998 1a32 62756600 		.ascii	"buf\000"
 6999 1a36 01       		.byte	0x1
 7000 1a37 4802     		.2byte	0x248
 7001 1a39 19010000 		.4byte	0x119
 7002 1a3d 05       		.uleb128 0x5
 7003 1a3e 03       		.byte	0x3
 7004 1a3f D0650100 		.4byte	buf.10525
 7005 1a43 00       		.byte	0
 7006 1a44 0C       		.uleb128 0xc
 7007 1a45 F6030000 		.4byte	.LASF111
 7008 1a49 01       		.byte	0x1
 7009 1a4a 4C02     		.2byte	0x24c
 7010 1a4c 88000000 		.4byte	0x88
 7011 1a50 00000000 		.4byte	.LFB97
 7012 1a54 0C000000 		.4byte	.LFE97-.LFB97
 7013 1a58 01       		.uleb128 0x1
 7014 1a59 9C       		.byte	0x9c
 7015 1a5a 811A0000 		.4byte	0x1a81
 7016 1a5e 0D       		.uleb128 0xd
 7017 1a5f 38080000 		.4byte	.LASF15
 7018 1a63 01       		.byte	0x1
 7019 1a64 4C02     		.2byte	0x24c
 7020 1a66 88000000 		.4byte	0x88
 7021 1a6a 810C0000 		.4byte	.LLST97
 7022 1a6e 0E       		.uleb128 0xe
 7023 1a6f 62756600 		.ascii	"buf\000"
 7024 1a73 01       		.byte	0x1
 7025 1a74 4E02     		.2byte	0x24e
 7026 1a76 63010000 		.4byte	0x163
 7027 1a7a 05       		.uleb128 0x5
 7028 1a7b 03       		.byte	0x3
 7029 1a7c D0660100 		.4byte	buf.10529
 7030 1a80 00       		.byte	0
 7031 1a81 0C       		.uleb128 0xc
 7032 1a82 CA040000 		.4byte	.LASF112
 7033 1a86 01       		.byte	0x1
 7034 1a87 5202     		.2byte	0x252
ARM GAS  C:\Users\info\AppData\Local\Temp\ccfHjuLM.s 			page 147


 7035 1a89 88000000 		.4byte	0x88
 7036 1a8d 00000000 		.4byte	.LFB98
 7037 1a91 0C000000 		.4byte	.LFE98-.LFB98
 7038 1a95 01       		.uleb128 0x1
 7039 1a96 9C       		.byte	0x9c
 7040 1a97 BE1A0000 		.4byte	0x1abe
 7041 1a9b 0D       		.uleb128 0xd
 7042 1a9c 38080000 		.4byte	.LASF15
 7043 1aa0 01       		.byte	0x1
 7044 1aa1 5202     		.2byte	0x252
 7045 1aa3 88000000 		.4byte	0x88
 7046 1aa7 A20C0000 		.4byte	.LLST98
 7047 1aab 0E       		.uleb128 0xe
 7048 1aac 62756600 		.ascii	"buf\000"
 7049 1ab0 01       		.byte	0x1
 7050 1ab1 5402     		.2byte	0x254
 7051 1ab3 BE1A0000 		.4byte	0x1abe
 7052 1ab7 05       		.uleb128 0x5
 7053 1ab8 03       		.byte	0x3
 7054 1ab9 D0680100 		.4byte	buf.10533
 7055 1abd 00       		.byte	0
 7056 1abe 09       		.uleb128 0x9
 7057 1abf 76000000 		.4byte	0x76
 7058 1ac3 CF1A0000 		.4byte	0x1acf
 7059 1ac7 0B       		.uleb128 0xb
 7060 1ac8 D8000000 		.4byte	0xd8
 7061 1acc FF13     		.2byte	0x13ff
 7062 1ace 00       		.byte	0
 7063 1acf 0C       		.uleb128 0xc
 7064 1ad0 5E040000 		.4byte	.LASF113
 7065 1ad4 01       		.byte	0x1
 7066 1ad5 5802     		.2byte	0x258
 7067 1ad7 88000000 		.4byte	0x88
 7068 1adb 00000000 		.4byte	.LFB99
 7069 1adf 0C000000 		.4byte	.LFE99-.LFB99
 7070 1ae3 01       		.uleb128 0x1
 7071 1ae4 9C       		.byte	0x9c
 7072 1ae5 0C1B0000 		.4byte	0x1b0c
 7073 1ae9 0D       		.uleb128 0xd
 7074 1aea 38080000 		.4byte	.LASF15
 7075 1aee 01       		.byte	0x1
 7076 1aef 5802     		.2byte	0x258
 7077 1af1 88000000 		.4byte	0x88
 7078 1af5 C30C0000 		.4byte	.LLST99
 7079 1af9 0E       		.uleb128 0xe
 7080 1afa 62756600 		.ascii	"buf\000"
 7081 1afe 01       		.byte	0x1
 7082 1aff 5A02     		.2byte	0x25a
 7083 1b01 3F0F0000 		.4byte	0xf3f
 7084 1b05 05       		.uleb128 0x5
 7085 1b06 03       		.byte	0x3
 7086 1b07 D07C0100 		.4byte	buf.10537
 7087 1b0b 00       		.byte	0
 7088 1b0c 0C       		.uleb128 0xc
 7089 1b0d 6D040000 		.4byte	.LASF114
 7090 1b11 01       		.byte	0x1
 7091 1b12 5E02     		.2byte	0x25e
ARM GAS  C:\Users\info\AppData\Local\Temp\ccfHjuLM.s 			page 148


 7092 1b14 88000000 		.4byte	0x88
 7093 1b18 00000000 		.4byte	.LFB100
 7094 1b1c 0C000000 		.4byte	.LFE100-.LFB100
 7095 1b20 01       		.uleb128 0x1
 7096 1b21 9C       		.byte	0x9c
 7097 1b22 491B0000 		.4byte	0x1b49
 7098 1b26 0D       		.uleb128 0xd
 7099 1b27 38080000 		.4byte	.LASF15
 7100 1b2b 01       		.byte	0x1
 7101 1b2c 5E02     		.2byte	0x25e
 7102 1b2e 88000000 		.4byte	0x88
 7103 1b32 E40C0000 		.4byte	.LLST100
 7104 1b36 0E       		.uleb128 0xe
 7105 1b37 62756600 		.ascii	"buf\000"
 7106 1b3b 01       		.byte	0x1
 7107 1b3c 6002     		.2byte	0x260
 7108 1b3e 491B0000 		.4byte	0x1b49
 7109 1b42 05       		.uleb128 0x5
 7110 1b43 03       		.byte	0x3
 7111 1b44 807D0100 		.4byte	buf.10541
 7112 1b48 00       		.byte	0
 7113 1b49 09       		.uleb128 0x9
 7114 1b4a 76000000 		.4byte	0x76
 7115 1b4e 5A1B0000 		.4byte	0x1b5a
 7116 1b52 0B       		.uleb128 0xb
 7117 1b53 D8000000 		.4byte	0xd8
 7118 1b57 5F01     		.2byte	0x15f
 7119 1b59 00       		.byte	0
 7120 1b5a 0C       		.uleb128 0xc
 7121 1b5b 44050000 		.4byte	.LASF115
 7122 1b5f 01       		.byte	0x1
 7123 1b60 6402     		.2byte	0x264
 7124 1b62 88000000 		.4byte	0x88
 7125 1b66 00000000 		.4byte	.LFB101
 7126 1b6a 0C000000 		.4byte	.LFE101-.LFB101
 7127 1b6e 01       		.uleb128 0x1
 7128 1b6f 9C       		.byte	0x9c
 7129 1b70 971B0000 		.4byte	0x1b97
 7130 1b74 0D       		.uleb128 0xd
 7131 1b75 38080000 		.4byte	.LASF15
 7132 1b79 01       		.byte	0x1
 7133 1b7a 6402     		.2byte	0x264
 7134 1b7c 88000000 		.4byte	0x88
 7135 1b80 050D0000 		.4byte	.LLST101
 7136 1b84 0E       		.uleb128 0xe
 7137 1b85 62756600 		.ascii	"buf\000"
 7138 1b89 01       		.byte	0x1
 7139 1b8a 6602     		.2byte	0x266
 7140 1b8c 971B0000 		.4byte	0x1b97
 7141 1b90 05       		.uleb128 0x5
 7142 1b91 03       		.byte	0x3
 7143 1b92 E07E0100 		.4byte	buf.10545
 7144 1b96 00       		.byte	0
 7145 1b97 09       		.uleb128 0x9
 7146 1b98 76000000 		.4byte	0x76
 7147 1b9c A81B0000 		.4byte	0x1ba8
 7148 1ba0 0B       		.uleb128 0xb
ARM GAS  C:\Users\info\AppData\Local\Temp\ccfHjuLM.s 			page 149


 7149 1ba1 D8000000 		.4byte	0xd8
 7150 1ba5 EF08     		.2byte	0x8ef
 7151 1ba7 00       		.byte	0
 7152 1ba8 0C       		.uleb128 0xc
 7153 1ba9 8D010000 		.4byte	.LASF116
 7154 1bad 01       		.byte	0x1
 7155 1bae 6A02     		.2byte	0x26a
 7156 1bb0 88000000 		.4byte	0x88
 7157 1bb4 00000000 		.4byte	.LFB102
 7158 1bb8 0C000000 		.4byte	.LFE102-.LFB102
 7159 1bbc 01       		.uleb128 0x1
 7160 1bbd 9C       		.byte	0x9c
 7161 1bbe E51B0000 		.4byte	0x1be5
 7162 1bc2 0D       		.uleb128 0xd
 7163 1bc3 38080000 		.4byte	.LASF15
 7164 1bc7 01       		.byte	0x1
 7165 1bc8 6A02     		.2byte	0x26a
 7166 1bca 88000000 		.4byte	0x88
 7167 1bce 260D0000 		.4byte	.LLST102
 7168 1bd2 0E       		.uleb128 0xe
 7169 1bd3 62756600 		.ascii	"buf\000"
 7170 1bd7 01       		.byte	0x1
 7171 1bd8 6C02     		.2byte	0x26c
 7172 1bda 02050000 		.4byte	0x502
 7173 1bde 05       		.uleb128 0x5
 7174 1bdf 03       		.byte	0x3
 7175 1be0 D0870100 		.4byte	buf.10549
 7176 1be4 00       		.byte	0
 7177 1be5 0C       		.uleb128 0xc
 7178 1be6 9C010000 		.4byte	.LASF117
 7179 1bea 01       		.byte	0x1
 7180 1beb 7002     		.2byte	0x270
 7181 1bed 88000000 		.4byte	0x88
 7182 1bf1 00000000 		.4byte	.LFB103
 7183 1bf5 0C000000 		.4byte	.LFE103-.LFB103
 7184 1bf9 01       		.uleb128 0x1
 7185 1bfa 9C       		.byte	0x9c
 7186 1bfb 221C0000 		.4byte	0x1c22
 7187 1bff 0D       		.uleb128 0xd
 7188 1c00 38080000 		.4byte	.LASF15
 7189 1c04 01       		.byte	0x1
 7190 1c05 7002     		.2byte	0x270
 7191 1c07 88000000 		.4byte	0x88
 7192 1c0b 470D0000 		.4byte	.LLST103
 7193 1c0f 0E       		.uleb128 0xe
 7194 1c10 62756600 		.ascii	"buf\000"
 7195 1c14 01       		.byte	0x1
 7196 1c15 7202     		.2byte	0x272
 7197 1c17 58080000 		.4byte	0x858
 7198 1c1b 05       		.uleb128 0x5
 7199 1c1c 03       		.byte	0x3
 7200 1c1d 90880100 		.4byte	buf.10553
 7201 1c21 00       		.byte	0
 7202 1c22 0C       		.uleb128 0xc
 7203 1c23 DB080000 		.4byte	.LASF118
 7204 1c27 01       		.byte	0x1
 7205 1c28 7602     		.2byte	0x276
ARM GAS  C:\Users\info\AppData\Local\Temp\ccfHjuLM.s 			page 150


 7206 1c2a 88000000 		.4byte	0x88
 7207 1c2e 00000000 		.4byte	.LFB104
 7208 1c32 0C000000 		.4byte	.LFE104-.LFB104
 7209 1c36 01       		.uleb128 0x1
 7210 1c37 9C       		.byte	0x9c
 7211 1c38 5F1C0000 		.4byte	0x1c5f
 7212 1c3c 0D       		.uleb128 0xd
 7213 1c3d 38080000 		.4byte	.LASF15
 7214 1c41 01       		.byte	0x1
 7215 1c42 7602     		.2byte	0x276
 7216 1c44 88000000 		.4byte	0x88
 7217 1c48 680D0000 		.4byte	.LLST104
 7218 1c4c 0E       		.uleb128 0xe
 7219 1c4d 62756600 		.ascii	"buf\000"
 7220 1c51 01       		.byte	0x1
 7221 1c52 7802     		.2byte	0x278
 7222 1c54 5F1C0000 		.4byte	0x1c5f
 7223 1c58 05       		.uleb128 0x5
 7224 1c59 03       		.byte	0x3
 7225 1c5a 108A0100 		.4byte	buf.10557
 7226 1c5e 00       		.byte	0
 7227 1c5f 09       		.uleb128 0x9
 7228 1c60 76000000 		.4byte	0x76
 7229 1c64 701C0000 		.4byte	0x1c70
 7230 1c68 0B       		.uleb128 0xb
 7231 1c69 D8000000 		.4byte	0xd8
 7232 1c6d FF08     		.2byte	0x8ff
 7233 1c6f 00       		.byte	0
 7234 1c70 0C       		.uleb128 0xc
 7235 1c71 40040000 		.4byte	.LASF119
 7236 1c75 01       		.byte	0x1
 7237 1c76 7C02     		.2byte	0x27c
 7238 1c78 88000000 		.4byte	0x88
 7239 1c7c 00000000 		.4byte	.LFB105
 7240 1c80 0C000000 		.4byte	.LFE105-.LFB105
 7241 1c84 01       		.uleb128 0x1
 7242 1c85 9C       		.byte	0x9c
 7243 1c86 AD1C0000 		.4byte	0x1cad
 7244 1c8a 0D       		.uleb128 0xd
 7245 1c8b 38080000 		.4byte	.LASF15
 7246 1c8f 01       		.byte	0x1
 7247 1c90 7C02     		.2byte	0x27c
 7248 1c92 88000000 		.4byte	0x88
 7249 1c96 890D0000 		.4byte	.LLST105
 7250 1c9a 0E       		.uleb128 0xe
 7251 1c9b 62756600 		.ascii	"buf\000"
 7252 1c9f 01       		.byte	0x1
 7253 1ca0 7E02     		.2byte	0x27e
 7254 1ca2 56060000 		.4byte	0x656
 7255 1ca6 05       		.uleb128 0x5
 7256 1ca7 03       		.byte	0x3
 7257 1ca8 10930100 		.4byte	buf.10561
 7258 1cac 00       		.byte	0
 7259 1cad 0C       		.uleb128 0xc
 7260 1cae F4020000 		.4byte	.LASF120
 7261 1cb2 01       		.byte	0x1
 7262 1cb3 8202     		.2byte	0x282
ARM GAS  C:\Users\info\AppData\Local\Temp\ccfHjuLM.s 			page 151


 7263 1cb5 88000000 		.4byte	0x88
 7264 1cb9 00000000 		.4byte	.LFB106
 7265 1cbd 0C000000 		.4byte	.LFE106-.LFB106
 7266 1cc1 01       		.uleb128 0x1
 7267 1cc2 9C       		.byte	0x9c
 7268 1cc3 EA1C0000 		.4byte	0x1cea
 7269 1cc7 0D       		.uleb128 0xd
 7270 1cc8 38080000 		.4byte	.LASF15
 7271 1ccc 01       		.byte	0x1
 7272 1ccd 8202     		.2byte	0x282
 7273 1ccf 88000000 		.4byte	0x88
 7274 1cd3 AA0D0000 		.4byte	.LLST106
 7275 1cd7 0E       		.uleb128 0xe
 7276 1cd8 62756600 		.ascii	"buf\000"
 7277 1cdc 01       		.byte	0x1
 7278 1cdd 8402     		.2byte	0x284
 7279 1cdf A0060000 		.4byte	0x6a0
 7280 1ce3 05       		.uleb128 0x5
 7281 1ce4 03       		.byte	0x3
 7282 1ce5 B0930100 		.4byte	buf.10565
 7283 1ce9 00       		.byte	0
 7284 1cea 0C       		.uleb128 0xc
 7285 1ceb 35050000 		.4byte	.LASF121
 7286 1cef 01       		.byte	0x1
 7287 1cf0 8802     		.2byte	0x288
 7288 1cf2 88000000 		.4byte	0x88
 7289 1cf6 00000000 		.4byte	.LFB107
 7290 1cfa 0C000000 		.4byte	.LFE107-.LFB107
 7291 1cfe 01       		.uleb128 0x1
 7292 1cff 9C       		.byte	0x9c
 7293 1d00 271D0000 		.4byte	0x1d27
 7294 1d04 0D       		.uleb128 0xd
 7295 1d05 38080000 		.4byte	.LASF15
 7296 1d09 01       		.byte	0x1
 7297 1d0a 8802     		.2byte	0x288
 7298 1d0c 88000000 		.4byte	0x88
 7299 1d10 CB0D0000 		.4byte	.LLST107
 7300 1d14 0E       		.uleb128 0xe
 7301 1d15 62756600 		.ascii	"buf\000"
 7302 1d19 01       		.byte	0x1
 7303 1d1a 8A02     		.2byte	0x28a
 7304 1d1c 271D0000 		.4byte	0x1d27
 7305 1d20 05       		.uleb128 0x5
 7306 1d21 03       		.byte	0x3
 7307 1d22 F0940100 		.4byte	buf.10569
 7308 1d26 00       		.byte	0
 7309 1d27 09       		.uleb128 0x9
 7310 1d28 76000000 		.4byte	0x76
 7311 1d2c 381D0000 		.4byte	0x1d38
 7312 1d30 0B       		.uleb128 0xb
 7313 1d31 D8000000 		.4byte	0xd8
 7314 1d35 3F06     		.2byte	0x63f
 7315 1d37 00       		.byte	0
 7316 1d38 0C       		.uleb128 0xc
 7317 1d39 69060000 		.4byte	.LASF122
 7318 1d3d 01       		.byte	0x1
 7319 1d3e 8E02     		.2byte	0x28e
ARM GAS  C:\Users\info\AppData\Local\Temp\ccfHjuLM.s 			page 152


 7320 1d40 88000000 		.4byte	0x88
 7321 1d44 00000000 		.4byte	.LFB108
 7322 1d48 0C000000 		.4byte	.LFE108-.LFB108
 7323 1d4c 01       		.uleb128 0x1
 7324 1d4d 9C       		.byte	0x9c
 7325 1d4e 751D0000 		.4byte	0x1d75
 7326 1d52 0D       		.uleb128 0xd
 7327 1d53 38080000 		.4byte	.LASF15
 7328 1d57 01       		.byte	0x1
 7329 1d58 8E02     		.2byte	0x28e
 7330 1d5a 88000000 		.4byte	0x88
 7331 1d5e EC0D0000 		.4byte	.LLST108
 7332 1d62 0E       		.uleb128 0xe
 7333 1d63 62756600 		.ascii	"buf\000"
 7334 1d67 01       		.byte	0x1
 7335 1d68 9002     		.2byte	0x290
 7336 1d6a 3F0F0000 		.4byte	0xf3f
 7337 1d6e 05       		.uleb128 0x5
 7338 1d6f 03       		.byte	0x3
 7339 1d70 309B0100 		.4byte	buf.10573
 7340 1d74 00       		.byte	0
 7341 1d75 0C       		.uleb128 0xc
 7342 1d76 FD070000 		.4byte	.LASF123
 7343 1d7a 01       		.byte	0x1
 7344 1d7b 9402     		.2byte	0x294
 7345 1d7d 88000000 		.4byte	0x88
 7346 1d81 00000000 		.4byte	.LFB109
 7347 1d85 0C000000 		.4byte	.LFE109-.LFB109
 7348 1d89 01       		.uleb128 0x1
 7349 1d8a 9C       		.byte	0x9c
 7350 1d8b B21D0000 		.4byte	0x1db2
 7351 1d8f 0D       		.uleb128 0xd
 7352 1d90 38080000 		.4byte	.LASF15
 7353 1d94 01       		.byte	0x1
 7354 1d95 9402     		.2byte	0x294
 7355 1d97 88000000 		.4byte	0x88
 7356 1d9b 0D0E0000 		.4byte	.LLST109
 7357 1d9f 0E       		.uleb128 0xe
 7358 1da0 62756600 		.ascii	"buf\000"
 7359 1da4 01       		.byte	0x1
 7360 1da5 9602     		.2byte	0x296
 7361 1da7 491B0000 		.4byte	0x1b49
 7362 1dab 05       		.uleb128 0x5
 7363 1dac 03       		.byte	0x3
 7364 1dad E09B0100 		.4byte	buf.10577
 7365 1db1 00       		.byte	0
 7366 1db2 0C       		.uleb128 0xc
 7367 1db3 00000000 		.4byte	.LASF124
 7368 1db7 01       		.byte	0x1
 7369 1db8 9A02     		.2byte	0x29a
 7370 1dba 88000000 		.4byte	0x88
 7371 1dbe 00000000 		.4byte	.LFB110
 7372 1dc2 0C000000 		.4byte	.LFE110-.LFB110
 7373 1dc6 01       		.uleb128 0x1
 7374 1dc7 9C       		.byte	0x9c
 7375 1dc8 EF1D0000 		.4byte	0x1def
 7376 1dcc 0D       		.uleb128 0xd
ARM GAS  C:\Users\info\AppData\Local\Temp\ccfHjuLM.s 			page 153


 7377 1dcd 38080000 		.4byte	.LASF15
 7378 1dd1 01       		.byte	0x1
 7379 1dd2 9A02     		.2byte	0x29a
 7380 1dd4 88000000 		.4byte	0x88
 7381 1dd8 2E0E0000 		.4byte	.LLST110
 7382 1ddc 0E       		.uleb128 0xe
 7383 1ddd 62756600 		.ascii	"buf\000"
 7384 1de1 01       		.byte	0x1
 7385 1de2 9C02     		.2byte	0x29c
 7386 1de4 EF1D0000 		.4byte	0x1def
 7387 1de8 05       		.uleb128 0x5
 7388 1de9 03       		.byte	0x3
 7389 1dea 409D0100 		.4byte	buf.10581
 7390 1dee 00       		.byte	0
 7391 1def 09       		.uleb128 0x9
 7392 1df0 76000000 		.4byte	0x76
 7393 1df4 001E0000 		.4byte	0x1e00
 7394 1df8 0B       		.uleb128 0xb
 7395 1df9 D8000000 		.4byte	0xd8
 7396 1dfd 2F06     		.2byte	0x62f
 7397 1dff 00       		.byte	0
 7398 1e00 0C       		.uleb128 0xc
 7399 1e01 68030000 		.4byte	.LASF125
 7400 1e05 01       		.byte	0x1
 7401 1e06 A002     		.2byte	0x2a0
 7402 1e08 88000000 		.4byte	0x88
 7403 1e0c 00000000 		.4byte	.LFB111
 7404 1e10 0C000000 		.4byte	.LFE111-.LFB111
 7405 1e14 01       		.uleb128 0x1
 7406 1e15 9C       		.byte	0x9c
 7407 1e16 3D1E0000 		.4byte	0x1e3d
 7408 1e1a 0D       		.uleb128 0xd
 7409 1e1b 38080000 		.4byte	.LASF15
 7410 1e1f 01       		.byte	0x1
 7411 1e20 A002     		.2byte	0x2a0
 7412 1e22 88000000 		.4byte	0x88
 7413 1e26 4F0E0000 		.4byte	.LLST111
 7414 1e2a 0E       		.uleb128 0xe
 7415 1e2b 62756600 		.ascii	"buf\000"
 7416 1e2f 01       		.byte	0x1
 7417 1e30 A202     		.2byte	0x2a2
 7418 1e32 3D1E0000 		.4byte	0x1e3d
 7419 1e36 05       		.uleb128 0x5
 7420 1e37 03       		.byte	0x3
 7421 1e38 70A30100 		.4byte	buf.10585
 7422 1e3c 00       		.byte	0
 7423 1e3d 09       		.uleb128 0x9
 7424 1e3e 76000000 		.4byte	0x76
 7425 1e42 4D1E0000 		.4byte	0x1e4d
 7426 1e46 0A       		.uleb128 0xa
 7427 1e47 D8000000 		.4byte	0xd8
 7428 1e4b C7       		.byte	0xc7
 7429 1e4c 00       		.byte	0
 7430 1e4d 0C       		.uleb128 0xc
 7431 1e4e 77030000 		.4byte	.LASF126
 7432 1e52 01       		.byte	0x1
 7433 1e53 A602     		.2byte	0x2a6
ARM GAS  C:\Users\info\AppData\Local\Temp\ccfHjuLM.s 			page 154


 7434 1e55 88000000 		.4byte	0x88
 7435 1e59 00000000 		.4byte	.LFB112
 7436 1e5d 0C000000 		.4byte	.LFE112-.LFB112
 7437 1e61 01       		.uleb128 0x1
 7438 1e62 9C       		.byte	0x9c
 7439 1e63 8A1E0000 		.4byte	0x1e8a
 7440 1e67 0D       		.uleb128 0xd
 7441 1e68 38080000 		.4byte	.LASF15
 7442 1e6c 01       		.byte	0x1
 7443 1e6d A602     		.2byte	0x2a6
 7444 1e6f 88000000 		.4byte	0x88
 7445 1e73 700E0000 		.4byte	.LLST112
 7446 1e77 0E       		.uleb128 0xe
 7447 1e78 62756600 		.ascii	"buf\000"
 7448 1e7c 01       		.byte	0x1
 7449 1e7d A802     		.2byte	0x2a8
 7450 1e7f 470C0000 		.4byte	0xc47
 7451 1e83 05       		.uleb128 0x5
 7452 1e84 03       		.byte	0x3
 7453 1e85 38A40100 		.4byte	buf.10589
 7454 1e89 00       		.byte	0
 7455 1e8a 0C       		.uleb128 0xc
 7456 1e8b C8020000 		.4byte	.LASF127
 7457 1e8f 01       		.byte	0x1
 7458 1e90 AC02     		.2byte	0x2ac
 7459 1e92 88000000 		.4byte	0x88
 7460 1e96 00000000 		.4byte	.LFB113
 7461 1e9a 0C000000 		.4byte	.LFE113-.LFB113
 7462 1e9e 01       		.uleb128 0x1
 7463 1e9f 9C       		.byte	0x9c
 7464 1ea0 C71E0000 		.4byte	0x1ec7
 7465 1ea4 0D       		.uleb128 0xd
 7466 1ea5 38080000 		.4byte	.LASF15
 7467 1ea9 01       		.byte	0x1
 7468 1eaa AC02     		.2byte	0x2ac
 7469 1eac 88000000 		.4byte	0x88
 7470 1eb0 910E0000 		.4byte	.LLST113
 7471 1eb4 0E       		.uleb128 0xe
 7472 1eb5 62756600 		.ascii	"buf\000"
 7473 1eb9 01       		.byte	0x1
 7474 1eba AE02     		.2byte	0x2ae
 7475 1ebc C71E0000 		.4byte	0x1ec7
 7476 1ec0 05       		.uleb128 0x5
 7477 1ec1 03       		.byte	0x3
 7478 1ec2 C8A50100 		.4byte	buf.10593
 7479 1ec6 00       		.byte	0
 7480 1ec7 09       		.uleb128 0x9
 7481 1ec8 76000000 		.4byte	0x76
 7482 1ecc D81E0000 		.4byte	0x1ed8
 7483 1ed0 0B       		.uleb128 0xb
 7484 1ed1 D8000000 		.4byte	0xd8
 7485 1ed5 8713     		.2byte	0x1387
 7486 1ed7 00       		.byte	0
 7487 1ed8 0C       		.uleb128 0xc
 7488 1ed9 F9080000 		.4byte	.LASF128
 7489 1edd 01       		.byte	0x1
 7490 1ede B202     		.2byte	0x2b2
ARM GAS  C:\Users\info\AppData\Local\Temp\ccfHjuLM.s 			page 155


 7491 1ee0 88000000 		.4byte	0x88
 7492 1ee4 00000000 		.4byte	.LFB114
 7493 1ee8 0C000000 		.4byte	.LFE114-.LFB114
 7494 1eec 01       		.uleb128 0x1
 7495 1eed 9C       		.byte	0x9c
 7496 1eee 151F0000 		.4byte	0x1f15
 7497 1ef2 0D       		.uleb128 0xd
 7498 1ef3 38080000 		.4byte	.LASF15
 7499 1ef7 01       		.byte	0x1
 7500 1ef8 B202     		.2byte	0x2b2
 7501 1efa 88000000 		.4byte	0x88
 7502 1efe B20E0000 		.4byte	.LLST114
 7503 1f02 0E       		.uleb128 0xe
 7504 1f03 62756600 		.ascii	"buf\000"
 7505 1f07 01       		.byte	0x1
 7506 1f08 B402     		.2byte	0x2b4
 7507 1f0a 151F0000 		.4byte	0x1f15
 7508 1f0e 05       		.uleb128 0x5
 7509 1f0f 03       		.byte	0x3
 7510 1f10 50B90100 		.4byte	buf.10597
 7511 1f14 00       		.byte	0
 7512 1f15 09       		.uleb128 0x9
 7513 1f16 76000000 		.4byte	0x76
 7514 1f1a 261F0000 		.4byte	0x1f26
 7515 1f1e 0B       		.uleb128 0xb
 7516 1f1f D8000000 		.4byte	0xd8
 7517 1f23 2701     		.2byte	0x127
 7518 1f25 00       		.byte	0
 7519 1f26 0C       		.uleb128 0xc
 7520 1f27 B9010000 		.4byte	.LASF129
 7521 1f2b 01       		.byte	0x1
 7522 1f2c B802     		.2byte	0x2b8
 7523 1f2e 88000000 		.4byte	0x88
 7524 1f32 00000000 		.4byte	.LFB115
 7525 1f36 0C000000 		.4byte	.LFE115-.LFB115
 7526 1f3a 01       		.uleb128 0x1
 7527 1f3b 9C       		.byte	0x9c
 7528 1f3c 631F0000 		.4byte	0x1f63
 7529 1f40 0D       		.uleb128 0xd
 7530 1f41 38080000 		.4byte	.LASF15
 7531 1f45 01       		.byte	0x1
 7532 1f46 B802     		.2byte	0x2b8
 7533 1f48 88000000 		.4byte	0x88
 7534 1f4c D30E0000 		.4byte	.LLST115
 7535 1f50 0E       		.uleb128 0xe
 7536 1f51 62756600 		.ascii	"buf\000"
 7537 1f55 01       		.byte	0x1
 7538 1f56 BA02     		.2byte	0x2ba
 7539 1f58 631F0000 		.4byte	0x1f63
 7540 1f5c 05       		.uleb128 0x5
 7541 1f5d 03       		.byte	0x3
 7542 1f5e 78BA0100 		.4byte	buf.10601
 7543 1f62 00       		.byte	0
 7544 1f63 09       		.uleb128 0x9
 7545 1f64 76000000 		.4byte	0x76
 7546 1f68 741F0000 		.4byte	0x1f74
 7547 1f6c 0B       		.uleb128 0xb
ARM GAS  C:\Users\info\AppData\Local\Temp\ccfHjuLM.s 			page 156


 7548 1f6d D8000000 		.4byte	0xd8
 7549 1f71 4F02     		.2byte	0x24f
 7550 1f73 00       		.byte	0
 7551 1f74 0C       		.uleb128 0xc
 7552 1f75 C5030000 		.4byte	.LASF130
 7553 1f79 01       		.byte	0x1
 7554 1f7a BE02     		.2byte	0x2be
 7555 1f7c 88000000 		.4byte	0x88
 7556 1f80 00000000 		.4byte	.LFB116
 7557 1f84 0C000000 		.4byte	.LFE116-.LFB116
 7558 1f88 01       		.uleb128 0x1
 7559 1f89 9C       		.byte	0x9c
 7560 1f8a B11F0000 		.4byte	0x1fb1
 7561 1f8e 0D       		.uleb128 0xd
 7562 1f8f 38080000 		.4byte	.LASF15
 7563 1f93 01       		.byte	0x1
 7564 1f94 BE02     		.2byte	0x2be
 7565 1f96 88000000 		.4byte	0x88
 7566 1f9a F40E0000 		.4byte	.LLST116
 7567 1f9e 0E       		.uleb128 0xe
 7568 1f9f 62756600 		.ascii	"buf\000"
 7569 1fa3 01       		.byte	0x1
 7570 1fa4 C002     		.2byte	0x2c0
 7571 1fa6 B11F0000 		.4byte	0x1fb1
 7572 1faa 05       		.uleb128 0x5
 7573 1fab 03       		.byte	0x3
 7574 1fac C8BC0100 		.4byte	buf.10605
 7575 1fb0 00       		.byte	0
 7576 1fb1 09       		.uleb128 0x9
 7577 1fb2 76000000 		.4byte	0x76
 7578 1fb6 C21F0000 		.4byte	0x1fc2
 7579 1fba 0B       		.uleb128 0xb
 7580 1fbb D8000000 		.4byte	0xd8
 7581 1fbf 7F12     		.2byte	0x127f
 7582 1fc1 00       		.byte	0
 7583 1fc2 0C       		.uleb128 0xc
 7584 1fc3 CE080000 		.4byte	.LASF131
 7585 1fc7 01       		.byte	0x1
 7586 1fc8 C402     		.2byte	0x2c4
 7587 1fca 88000000 		.4byte	0x88
 7588 1fce 00000000 		.4byte	.LFB117
 7589 1fd2 0C000000 		.4byte	.LFE117-.LFB117
 7590 1fd6 01       		.uleb128 0x1
 7591 1fd7 9C       		.byte	0x9c
 7592 1fd8 FF1F0000 		.4byte	0x1fff
 7593 1fdc 0D       		.uleb128 0xd
 7594 1fdd 38080000 		.4byte	.LASF15
 7595 1fe1 01       		.byte	0x1
 7596 1fe2 C402     		.2byte	0x2c4
 7597 1fe4 88000000 		.4byte	0x88
 7598 1fe8 150F0000 		.4byte	.LLST117
 7599 1fec 0E       		.uleb128 0xe
 7600 1fed 62756600 		.ascii	"buf\000"
 7601 1ff1 01       		.byte	0x1
 7602 1ff2 C602     		.2byte	0x2c6
 7603 1ff4 4C030000 		.4byte	0x34c
 7604 1ff8 05       		.uleb128 0x5
ARM GAS  C:\Users\info\AppData\Local\Temp\ccfHjuLM.s 			page 157


 7605 1ff9 03       		.byte	0x3
 7606 1ffa 48CF0100 		.4byte	buf.10609
 7607 1ffe 00       		.byte	0
 7608 1fff 0C       		.uleb128 0xc
 7609 2000 3A000000 		.4byte	.LASF132
 7610 2004 01       		.byte	0x1
 7611 2005 CA02     		.2byte	0x2ca
 7612 2007 88000000 		.4byte	0x88
 7613 200b 00000000 		.4byte	.LFB118
 7614 200f 0C000000 		.4byte	.LFE118-.LFB118
 7615 2013 01       		.uleb128 0x1
 7616 2014 9C       		.byte	0x9c
 7617 2015 3C200000 		.4byte	0x203c
 7618 2019 0D       		.uleb128 0xd
 7619 201a 38080000 		.4byte	.LASF15
 7620 201e 01       		.byte	0x1
 7621 201f CA02     		.2byte	0x2ca
 7622 2021 88000000 		.4byte	0x88
 7623 2025 360F0000 		.4byte	.LLST118
 7624 2029 0E       		.uleb128 0xe
 7625 202a 62756600 		.ascii	"buf\000"
 7626 202e 01       		.byte	0x1
 7627 202f CC02     		.2byte	0x2cc
 7628 2031 C8000000 		.4byte	0xc8
 7629 2035 05       		.uleb128 0x5
 7630 2036 03       		.byte	0x3
 7631 2037 88CF0100 		.4byte	buf.10613
 7632 203b 00       		.byte	0
 7633 203c 0C       		.uleb128 0xc
 7634 203d 49010000 		.4byte	.LASF133
 7635 2041 01       		.byte	0x1
 7636 2042 D002     		.2byte	0x2d0
 7637 2044 88000000 		.4byte	0x88
 7638 2048 00000000 		.4byte	.LFB119
 7639 204c 0C000000 		.4byte	.LFE119-.LFB119
 7640 2050 01       		.uleb128 0x1
 7641 2051 9C       		.byte	0x9c
 7642 2052 79200000 		.4byte	0x2079
 7643 2056 0D       		.uleb128 0xd
 7644 2057 38080000 		.4byte	.LASF15
 7645 205b 01       		.byte	0x1
 7646 205c D002     		.2byte	0x2d0
 7647 205e 88000000 		.4byte	0x88
 7648 2062 570F0000 		.4byte	.LLST119
 7649 2066 0E       		.uleb128 0xe
 7650 2067 62756600 		.ascii	"buf\000"
 7651 206b 01       		.byte	0x1
 7652 206c D202     		.2byte	0x2d2
 7653 206e 4C030000 		.4byte	0x34c
 7654 2072 05       		.uleb128 0x5
 7655 2073 03       		.byte	0x3
 7656 2074 08D00100 		.4byte	buf.10617
 7657 2078 00       		.byte	0
 7658 2079 0C       		.uleb128 0xc
 7659 207a FF040000 		.4byte	.LASF134
 7660 207e 01       		.byte	0x1
 7661 207f D602     		.2byte	0x2d6
ARM GAS  C:\Users\info\AppData\Local\Temp\ccfHjuLM.s 			page 158


 7662 2081 88000000 		.4byte	0x88
 7663 2085 00000000 		.4byte	.LFB120
 7664 2089 0C000000 		.4byte	.LFE120-.LFB120
 7665 208d 01       		.uleb128 0x1
 7666 208e 9C       		.byte	0x9c
 7667 208f B6200000 		.4byte	0x20b6
 7668 2093 0D       		.uleb128 0xd
 7669 2094 38080000 		.4byte	.LASF15
 7670 2098 01       		.byte	0x1
 7671 2099 D602     		.2byte	0x2d6
 7672 209b 88000000 		.4byte	0x88
 7673 209f 780F0000 		.4byte	.LLST120
 7674 20a3 0E       		.uleb128 0xe
 7675 20a4 62756600 		.ascii	"buf\000"
 7676 20a8 01       		.byte	0x1
 7677 20a9 D802     		.2byte	0x2d8
 7678 20ab B6200000 		.4byte	0x20b6
 7679 20af 05       		.uleb128 0x5
 7680 20b0 03       		.byte	0x3
 7681 20b1 48D00100 		.4byte	buf.10621
 7682 20b5 00       		.byte	0
 7683 20b6 09       		.uleb128 0x9
 7684 20b7 76000000 		.4byte	0x76
 7685 20bb C6200000 		.4byte	0x20c6
 7686 20bf 0A       		.uleb128 0xa
 7687 20c0 D8000000 		.4byte	0xd8
 7688 20c4 1F       		.byte	0x1f
 7689 20c5 00       		.byte	0
 7690 20c6 0C       		.uleb128 0xc
 7691 20c7 0C050000 		.4byte	.LASF135
 7692 20cb 01       		.byte	0x1
 7693 20cc DC02     		.2byte	0x2dc
 7694 20ce 88000000 		.4byte	0x88
 7695 20d2 00000000 		.4byte	.LFB121
 7696 20d6 0C000000 		.4byte	.LFE121-.LFB121
 7697 20da 01       		.uleb128 0x1
 7698 20db 9C       		.byte	0x9c
 7699 20dc 03210000 		.4byte	0x2103
 7700 20e0 0D       		.uleb128 0xd
 7701 20e1 38080000 		.4byte	.LASF15
 7702 20e5 01       		.byte	0x1
 7703 20e6 DC02     		.2byte	0x2dc
 7704 20e8 88000000 		.4byte	0x88
 7705 20ec 990F0000 		.4byte	.LLST121
 7706 20f0 0E       		.uleb128 0xe
 7707 20f1 62756600 		.ascii	"buf\000"
 7708 20f5 01       		.byte	0x1
 7709 20f6 DE02     		.2byte	0x2de
 7710 20f8 4C030000 		.4byte	0x34c
 7711 20fc 05       		.uleb128 0x5
 7712 20fd 03       		.byte	0x3
 7713 20fe 68D00100 		.4byte	buf.10625
 7714 2102 00       		.byte	0
 7715 2103 0C       		.uleb128 0xc
 7716 2104 97050000 		.4byte	.LASF136
 7717 2108 01       		.byte	0x1
 7718 2109 E202     		.2byte	0x2e2
ARM GAS  C:\Users\info\AppData\Local\Temp\ccfHjuLM.s 			page 159


 7719 210b 88000000 		.4byte	0x88
 7720 210f 00000000 		.4byte	.LFB122
 7721 2113 0C000000 		.4byte	.LFE122-.LFB122
 7722 2117 01       		.uleb128 0x1
 7723 2118 9C       		.byte	0x9c
 7724 2119 40210000 		.4byte	0x2140
 7725 211d 0D       		.uleb128 0xd
 7726 211e 38080000 		.4byte	.LASF15
 7727 2122 01       		.byte	0x1
 7728 2123 E202     		.2byte	0x2e2
 7729 2125 88000000 		.4byte	0x88
 7730 2129 BA0F0000 		.4byte	.LLST122
 7731 212d 0E       		.uleb128 0xe
 7732 212e 62756600 		.ascii	"buf\000"
 7733 2132 01       		.byte	0x1
 7734 2133 E402     		.2byte	0x2e4
 7735 2135 B6200000 		.4byte	0x20b6
 7736 2139 05       		.uleb128 0x5
 7737 213a 03       		.byte	0x3
 7738 213b A8D00100 		.4byte	buf.10629
 7739 213f 00       		.byte	0
 7740 2140 0C       		.uleb128 0xc
 7741 2141 A4050000 		.4byte	.LASF137
 7742 2145 01       		.byte	0x1
 7743 2146 E802     		.2byte	0x2e8
 7744 2148 88000000 		.4byte	0x88
 7745 214c 00000000 		.4byte	.LFB123
 7746 2150 0C000000 		.4byte	.LFE123-.LFB123
 7747 2154 01       		.uleb128 0x1
 7748 2155 9C       		.byte	0x9c
 7749 2156 7D210000 		.4byte	0x217d
 7750 215a 0D       		.uleb128 0xd
 7751 215b 38080000 		.4byte	.LASF15
 7752 215f 01       		.byte	0x1
 7753 2160 E802     		.2byte	0x2e8
 7754 2162 88000000 		.4byte	0x88
 7755 2166 DB0F0000 		.4byte	.LLST123
 7756 216a 0E       		.uleb128 0xe
 7757 216b 62756600 		.ascii	"buf\000"
 7758 216f 01       		.byte	0x1
 7759 2170 EA02     		.2byte	0x2ea
 7760 2172 7D210000 		.4byte	0x217d
 7761 2176 05       		.uleb128 0x5
 7762 2177 03       		.byte	0x3
 7763 2178 C8D00100 		.4byte	buf.10633
 7764 217c 00       		.byte	0
 7765 217d 09       		.uleb128 0x9
 7766 217e 76000000 		.4byte	0x76
 7767 2182 8D210000 		.4byte	0x218d
 7768 2186 0A       		.uleb128 0xa
 7769 2187 D8000000 		.4byte	0xd8
 7770 218b 07       		.byte	0x7
 7771 218c 00       		.byte	0
 7772 218d 0C       		.uleb128 0xc
 7773 218e B1050000 		.4byte	.LASF138
 7774 2192 01       		.byte	0x1
 7775 2193 EE02     		.2byte	0x2ee
ARM GAS  C:\Users\info\AppData\Local\Temp\ccfHjuLM.s 			page 160


 7776 2195 88000000 		.4byte	0x88
 7777 2199 00000000 		.4byte	.LFB124
 7778 219d 0C000000 		.4byte	.LFE124-.LFB124
 7779 21a1 01       		.uleb128 0x1
 7780 21a2 9C       		.byte	0x9c
 7781 21a3 CA210000 		.4byte	0x21ca
 7782 21a7 0D       		.uleb128 0xd
 7783 21a8 38080000 		.4byte	.LASF15
 7784 21ac 01       		.byte	0x1
 7785 21ad EE02     		.2byte	0x2ee
 7786 21af 88000000 		.4byte	0x88
 7787 21b3 FC0F0000 		.4byte	.LLST124
 7788 21b7 0E       		.uleb128 0xe
 7789 21b8 62756600 		.ascii	"buf\000"
 7790 21bc 01       		.byte	0x1
 7791 21bd F002     		.2byte	0x2f0
 7792 21bf CA210000 		.4byte	0x21ca
 7793 21c3 05       		.uleb128 0x5
 7794 21c4 03       		.byte	0x3
 7795 21c5 D0D00100 		.4byte	buf.10637
 7796 21c9 00       		.byte	0
 7797 21ca 09       		.uleb128 0x9
 7798 21cb 76000000 		.4byte	0x76
 7799 21cf DA210000 		.4byte	0x21da
 7800 21d3 0A       		.uleb128 0xa
 7801 21d4 D8000000 		.4byte	0xd8
 7802 21d8 0F       		.byte	0xf
 7803 21d9 00       		.byte	0
 7804 21da 0C       		.uleb128 0xc
 7805 21db 5C060000 		.4byte	.LASF139
 7806 21df 01       		.byte	0x1
 7807 21e0 F402     		.2byte	0x2f4
 7808 21e2 88000000 		.4byte	0x88
 7809 21e6 00000000 		.4byte	.LFB125
 7810 21ea 0C000000 		.4byte	.LFE125-.LFB125
 7811 21ee 01       		.uleb128 0x1
 7812 21ef 9C       		.byte	0x9c
 7813 21f0 17220000 		.4byte	0x2217
 7814 21f4 0D       		.uleb128 0xd
 7815 21f5 38080000 		.4byte	.LASF15
 7816 21f9 01       		.byte	0x1
 7817 21fa F402     		.2byte	0x2f4
 7818 21fc 88000000 		.4byte	0x88
 7819 2200 1D100000 		.4byte	.LLST125
 7820 2204 0E       		.uleb128 0xe
 7821 2205 62756600 		.ascii	"buf\000"
 7822 2209 01       		.byte	0x1
 7823 220a F602     		.2byte	0x2f6
 7824 220c 7D210000 		.4byte	0x217d
 7825 2210 05       		.uleb128 0x5
 7826 2211 03       		.byte	0x3
 7827 2212 E0D00100 		.4byte	buf.10641
 7828 2216 00       		.byte	0
 7829 2217 0C       		.uleb128 0xc
 7830 2218 56010000 		.4byte	.LASF140
 7831 221c 01       		.byte	0x1
 7832 221d FA02     		.2byte	0x2fa
ARM GAS  C:\Users\info\AppData\Local\Temp\ccfHjuLM.s 			page 161


 7833 221f 88000000 		.4byte	0x88
 7834 2223 00000000 		.4byte	.LFB126
 7835 2227 0C000000 		.4byte	.LFE126-.LFB126
 7836 222b 01       		.uleb128 0x1
 7837 222c 9C       		.byte	0x9c
 7838 222d 54220000 		.4byte	0x2254
 7839 2231 0D       		.uleb128 0xd
 7840 2232 38080000 		.4byte	.LASF15
 7841 2236 01       		.byte	0x1
 7842 2237 FA02     		.2byte	0x2fa
 7843 2239 88000000 		.4byte	0x88
 7844 223d 3E100000 		.4byte	.LLST126
 7845 2241 0E       		.uleb128 0xe
 7846 2242 62756600 		.ascii	"buf\000"
 7847 2246 01       		.byte	0x1
 7848 2247 FC02     		.2byte	0x2fc
 7849 2249 58080000 		.4byte	0x858
 7850 224d 05       		.uleb128 0x5
 7851 224e 03       		.byte	0x3
 7852 224f E8D00100 		.4byte	buf.10645
 7853 2253 00       		.byte	0
 7854 2254 0C       		.uleb128 0xc
 7855 2255 04010000 		.4byte	.LASF141
 7856 2259 01       		.byte	0x1
 7857 225a 0003     		.2byte	0x300
 7858 225c 88000000 		.4byte	0x88
 7859 2260 00000000 		.4byte	.LFB127
 7860 2264 0C000000 		.4byte	.LFE127-.LFB127
 7861 2268 01       		.uleb128 0x1
 7862 2269 9C       		.byte	0x9c
 7863 226a 91220000 		.4byte	0x2291
 7864 226e 0D       		.uleb128 0xd
 7865 226f 38080000 		.4byte	.LASF15
 7866 2273 01       		.byte	0x1
 7867 2274 0003     		.2byte	0x300
 7868 2276 88000000 		.4byte	0x88
 7869 227a 5F100000 		.4byte	.LLST127
 7870 227e 0E       		.uleb128 0xe
 7871 227f 62756600 		.ascii	"buf\000"
 7872 2283 01       		.byte	0x1
 7873 2284 0203     		.2byte	0x302
 7874 2286 F90B0000 		.4byte	0xbf9
 7875 228a 05       		.uleb128 0x5
 7876 228b 03       		.byte	0x3
 7877 228c 68D20100 		.4byte	buf.10649
 7878 2290 00       		.byte	0
 7879 2291 0C       		.uleb128 0xc
 7880 2292 8C020000 		.4byte	.LASF142
 7881 2296 01       		.byte	0x1
 7882 2297 0603     		.2byte	0x306
 7883 2299 88000000 		.4byte	0x88
 7884 229d 00000000 		.4byte	.LFB128
 7885 22a1 0C000000 		.4byte	.LFE128-.LFB128
 7886 22a5 01       		.uleb128 0x1
 7887 22a6 9C       		.byte	0x9c
 7888 22a7 CE220000 		.4byte	0x22ce
 7889 22ab 0D       		.uleb128 0xd
ARM GAS  C:\Users\info\AppData\Local\Temp\ccfHjuLM.s 			page 162


 7890 22ac 38080000 		.4byte	.LASF15
 7891 22b0 01       		.byte	0x1
 7892 22b1 0603     		.2byte	0x306
 7893 22b3 88000000 		.4byte	0x88
 7894 22b7 80100000 		.4byte	.LLST128
 7895 22bb 0E       		.uleb128 0xe
 7896 22bc 62756600 		.ascii	"buf\000"
 7897 22c0 01       		.byte	0x1
 7898 22c1 0803     		.2byte	0x308
 7899 22c3 CE220000 		.4byte	0x22ce
 7900 22c7 05       		.uleb128 0x5
 7901 22c8 03       		.byte	0x3
 7902 22c9 68D50100 		.4byte	buf.10653
 7903 22cd 00       		.byte	0
 7904 22ce 0F       		.uleb128 0xf
 7905 22cf 76000000 		.4byte	0x76
 7906 22d3 0B       		.uleb128 0xb
 7907 22d4 D8000000 		.4byte	0xd8
 7908 22d8 FF2C     		.2byte	0x2cff
 7909 22da 00       		.byte	0
 7910 22db 00       		.byte	0
 7911              		.section	.debug_abbrev,"",%progbits
 7912              	.Ldebug_abbrev0:
 7913 0000 01       		.uleb128 0x1
 7914 0001 11       		.uleb128 0x11
 7915 0002 01       		.byte	0x1
 7916 0003 25       		.uleb128 0x25
 7917 0004 0E       		.uleb128 0xe
 7918 0005 13       		.uleb128 0x13
 7919 0006 0B       		.uleb128 0xb
 7920 0007 03       		.uleb128 0x3
 7921 0008 0E       		.uleb128 0xe
 7922 0009 1B       		.uleb128 0x1b
 7923 000a 0E       		.uleb128 0xe
 7924 000b 55       		.uleb128 0x55
 7925 000c 17       		.uleb128 0x17
 7926 000d 11       		.uleb128 0x11
 7927 000e 01       		.uleb128 0x1
 7928 000f 10       		.uleb128 0x10
 7929 0010 17       		.uleb128 0x17
 7930 0011 00       		.byte	0
 7931 0012 00       		.byte	0
 7932 0013 02       		.uleb128 0x2
 7933 0014 24       		.uleb128 0x24
 7934 0015 00       		.byte	0
 7935 0016 0B       		.uleb128 0xb
 7936 0017 0B       		.uleb128 0xb
 7937 0018 3E       		.uleb128 0x3e
 7938 0019 0B       		.uleb128 0xb
 7939 001a 03       		.uleb128 0x3
 7940 001b 0E       		.uleb128 0xe
 7941 001c 00       		.byte	0
 7942 001d 00       		.byte	0
 7943 001e 03       		.uleb128 0x3
 7944 001f 16       		.uleb128 0x16
 7945 0020 00       		.byte	0
 7946 0021 03       		.uleb128 0x3
ARM GAS  C:\Users\info\AppData\Local\Temp\ccfHjuLM.s 			page 163


 7947 0022 0E       		.uleb128 0xe
 7948 0023 3A       		.uleb128 0x3a
 7949 0024 0B       		.uleb128 0xb
 7950 0025 3B       		.uleb128 0x3b
 7951 0026 0B       		.uleb128 0xb
 7952 0027 49       		.uleb128 0x49
 7953 0028 13       		.uleb128 0x13
 7954 0029 00       		.byte	0
 7955 002a 00       		.byte	0
 7956 002b 04       		.uleb128 0x4
 7957 002c 24       		.uleb128 0x24
 7958 002d 00       		.byte	0
 7959 002e 0B       		.uleb128 0xb
 7960 002f 0B       		.uleb128 0xb
 7961 0030 3E       		.uleb128 0x3e
 7962 0031 0B       		.uleb128 0xb
 7963 0032 03       		.uleb128 0x3
 7964 0033 08       		.uleb128 0x8
 7965 0034 00       		.byte	0
 7966 0035 00       		.byte	0
 7967 0036 05       		.uleb128 0x5
 7968 0037 0F       		.uleb128 0xf
 7969 0038 00       		.byte	0
 7970 0039 0B       		.uleb128 0xb
 7971 003a 0B       		.uleb128 0xb
 7972 003b 49       		.uleb128 0x49
 7973 003c 13       		.uleb128 0x13
 7974 003d 00       		.byte	0
 7975 003e 00       		.byte	0
 7976 003f 06       		.uleb128 0x6
 7977 0040 2E       		.uleb128 0x2e
 7978 0041 01       		.byte	0x1
 7979 0042 3F       		.uleb128 0x3f
 7980 0043 19       		.uleb128 0x19
 7981 0044 03       		.uleb128 0x3
 7982 0045 0E       		.uleb128 0xe
 7983 0046 3A       		.uleb128 0x3a
 7984 0047 0B       		.uleb128 0xb
 7985 0048 3B       		.uleb128 0x3b
 7986 0049 0B       		.uleb128 0xb
 7987 004a 27       		.uleb128 0x27
 7988 004b 19       		.uleb128 0x19
 7989 004c 49       		.uleb128 0x49
 7990 004d 13       		.uleb128 0x13
 7991 004e 11       		.uleb128 0x11
 7992 004f 01       		.uleb128 0x1
 7993 0050 12       		.uleb128 0x12
 7994 0051 06       		.uleb128 0x6
 7995 0052 40       		.uleb128 0x40
 7996 0053 18       		.uleb128 0x18
 7997 0054 9742     		.uleb128 0x2117
 7998 0056 19       		.uleb128 0x19
 7999 0057 01       		.uleb128 0x1
 8000 0058 13       		.uleb128 0x13
 8001 0059 00       		.byte	0
 8002 005a 00       		.byte	0
 8003 005b 07       		.uleb128 0x7
ARM GAS  C:\Users\info\AppData\Local\Temp\ccfHjuLM.s 			page 164


 8004 005c 05       		.uleb128 0x5
 8005 005d 00       		.byte	0
 8006 005e 03       		.uleb128 0x3
 8007 005f 0E       		.uleb128 0xe
 8008 0060 3A       		.uleb128 0x3a
 8009 0061 0B       		.uleb128 0xb
 8010 0062 3B       		.uleb128 0x3b
 8011 0063 0B       		.uleb128 0xb
 8012 0064 49       		.uleb128 0x49
 8013 0065 13       		.uleb128 0x13
 8014 0066 02       		.uleb128 0x2
 8015 0067 17       		.uleb128 0x17
 8016 0068 00       		.byte	0
 8017 0069 00       		.byte	0
 8018 006a 08       		.uleb128 0x8
 8019 006b 34       		.uleb128 0x34
 8020 006c 00       		.byte	0
 8021 006d 03       		.uleb128 0x3
 8022 006e 08       		.uleb128 0x8
 8023 006f 3A       		.uleb128 0x3a
 8024 0070 0B       		.uleb128 0xb
 8025 0071 3B       		.uleb128 0x3b
 8026 0072 0B       		.uleb128 0xb
 8027 0073 49       		.uleb128 0x49
 8028 0074 13       		.uleb128 0x13
 8029 0075 02       		.uleb128 0x2
 8030 0076 18       		.uleb128 0x18
 8031 0077 00       		.byte	0
 8032 0078 00       		.byte	0
 8033 0079 09       		.uleb128 0x9
 8034 007a 01       		.uleb128 0x1
 8035 007b 01       		.byte	0x1
 8036 007c 49       		.uleb128 0x49
 8037 007d 13       		.uleb128 0x13
 8038 007e 01       		.uleb128 0x1
 8039 007f 13       		.uleb128 0x13
 8040 0080 00       		.byte	0
 8041 0081 00       		.byte	0
 8042 0082 0A       		.uleb128 0xa
 8043 0083 21       		.uleb128 0x21
 8044 0084 00       		.byte	0
 8045 0085 49       		.uleb128 0x49
 8046 0086 13       		.uleb128 0x13
 8047 0087 2F       		.uleb128 0x2f
 8048 0088 0B       		.uleb128 0xb
 8049 0089 00       		.byte	0
 8050 008a 00       		.byte	0
 8051 008b 0B       		.uleb128 0xb
 8052 008c 21       		.uleb128 0x21
 8053 008d 00       		.byte	0
 8054 008e 49       		.uleb128 0x49
 8055 008f 13       		.uleb128 0x13
 8056 0090 2F       		.uleb128 0x2f
 8057 0091 05       		.uleb128 0x5
 8058 0092 00       		.byte	0
 8059 0093 00       		.byte	0
 8060 0094 0C       		.uleb128 0xc
ARM GAS  C:\Users\info\AppData\Local\Temp\ccfHjuLM.s 			page 165


 8061 0095 2E       		.uleb128 0x2e
 8062 0096 01       		.byte	0x1
 8063 0097 3F       		.uleb128 0x3f
 8064 0098 19       		.uleb128 0x19
 8065 0099 03       		.uleb128 0x3
 8066 009a 0E       		.uleb128 0xe
 8067 009b 3A       		.uleb128 0x3a
 8068 009c 0B       		.uleb128 0xb
 8069 009d 3B       		.uleb128 0x3b
 8070 009e 05       		.uleb128 0x5
 8071 009f 27       		.uleb128 0x27
 8072 00a0 19       		.uleb128 0x19
 8073 00a1 49       		.uleb128 0x49
 8074 00a2 13       		.uleb128 0x13
 8075 00a3 11       		.uleb128 0x11
 8076 00a4 01       		.uleb128 0x1
 8077 00a5 12       		.uleb128 0x12
 8078 00a6 06       		.uleb128 0x6
 8079 00a7 40       		.uleb128 0x40
 8080 00a8 18       		.uleb128 0x18
 8081 00a9 9742     		.uleb128 0x2117
 8082 00ab 19       		.uleb128 0x19
 8083 00ac 01       		.uleb128 0x1
 8084 00ad 13       		.uleb128 0x13
 8085 00ae 00       		.byte	0
 8086 00af 00       		.byte	0
 8087 00b0 0D       		.uleb128 0xd
 8088 00b1 05       		.uleb128 0x5
 8089 00b2 00       		.byte	0
 8090 00b3 03       		.uleb128 0x3
 8091 00b4 0E       		.uleb128 0xe
 8092 00b5 3A       		.uleb128 0x3a
 8093 00b6 0B       		.uleb128 0xb
 8094 00b7 3B       		.uleb128 0x3b
 8095 00b8 05       		.uleb128 0x5
 8096 00b9 49       		.uleb128 0x49
 8097 00ba 13       		.uleb128 0x13
 8098 00bb 02       		.uleb128 0x2
 8099 00bc 17       		.uleb128 0x17
 8100 00bd 00       		.byte	0
 8101 00be 00       		.byte	0
 8102 00bf 0E       		.uleb128 0xe
 8103 00c0 34       		.uleb128 0x34
 8104 00c1 00       		.byte	0
 8105 00c2 03       		.uleb128 0x3
 8106 00c3 08       		.uleb128 0x8
 8107 00c4 3A       		.uleb128 0x3a
 8108 00c5 0B       		.uleb128 0xb
 8109 00c6 3B       		.uleb128 0x3b
 8110 00c7 05       		.uleb128 0x5
 8111 00c8 49       		.uleb128 0x49
 8112 00c9 13       		.uleb128 0x13
 8113 00ca 02       		.uleb128 0x2
 8114 00cb 18       		.uleb128 0x18
 8115 00cc 00       		.byte	0
 8116 00cd 00       		.byte	0
 8117 00ce 0F       		.uleb128 0xf
ARM GAS  C:\Users\info\AppData\Local\Temp\ccfHjuLM.s 			page 166


 8118 00cf 01       		.uleb128 0x1
 8119 00d0 01       		.byte	0x1
 8120 00d1 49       		.uleb128 0x49
 8121 00d2 13       		.uleb128 0x13
 8122 00d3 00       		.byte	0
 8123 00d4 00       		.byte	0
 8124 00d5 00       		.byte	0
 8125              		.section	.debug_loc,"",%progbits
 8126              	.Ldebug_loc0:
 8127              	.LLST0:
 8128 0000 00000000 		.4byte	.LVL0
 8129 0004 06000000 		.4byte	.LVL1
 8130 0008 0100     		.2byte	0x1
 8131 000a 50       		.byte	0x50
 8132 000b 06000000 		.4byte	.LVL1
 8133 000f 0C000000 		.4byte	.LFE0
 8134 0013 0400     		.2byte	0x4
 8135 0015 F3       		.byte	0xf3
 8136 0016 01       		.uleb128 0x1
 8137 0017 50       		.byte	0x50
 8138 0018 9F       		.byte	0x9f
 8139 0019 00000000 		.4byte	0
 8140 001d 00000000 		.4byte	0
 8141              	.LLST1:
 8142 0021 00000000 		.4byte	.LVL2
 8143 0025 06000000 		.4byte	.LVL3
 8144 0029 0100     		.2byte	0x1
 8145 002b 50       		.byte	0x50
 8146 002c 06000000 		.4byte	.LVL3
 8147 0030 0C000000 		.4byte	.LFE1
 8148 0034 0400     		.2byte	0x4
 8149 0036 F3       		.byte	0xf3
 8150 0037 01       		.uleb128 0x1
 8151 0038 50       		.byte	0x50
 8152 0039 9F       		.byte	0x9f
 8153 003a 00000000 		.4byte	0
 8154 003e 00000000 		.4byte	0
 8155              	.LLST2:
 8156 0042 00000000 		.4byte	.LVL4
 8157 0046 06000000 		.4byte	.LVL5
 8158 004a 0100     		.2byte	0x1
 8159 004c 50       		.byte	0x50
 8160 004d 06000000 		.4byte	.LVL5
 8161 0051 0C000000 		.4byte	.LFE2
 8162 0055 0400     		.2byte	0x4
 8163 0057 F3       		.byte	0xf3
 8164 0058 01       		.uleb128 0x1
 8165 0059 50       		.byte	0x50
 8166 005a 9F       		.byte	0x9f
 8167 005b 00000000 		.4byte	0
 8168 005f 00000000 		.4byte	0
 8169              	.LLST3:
 8170 0063 00000000 		.4byte	.LVL6
 8171 0067 06000000 		.4byte	.LVL7
 8172 006b 0100     		.2byte	0x1
 8173 006d 50       		.byte	0x50
 8174 006e 06000000 		.4byte	.LVL7
ARM GAS  C:\Users\info\AppData\Local\Temp\ccfHjuLM.s 			page 167


 8175 0072 0C000000 		.4byte	.LFE3
 8176 0076 0400     		.2byte	0x4
 8177 0078 F3       		.byte	0xf3
 8178 0079 01       		.uleb128 0x1
 8179 007a 50       		.byte	0x50
 8180 007b 9F       		.byte	0x9f
 8181 007c 00000000 		.4byte	0
 8182 0080 00000000 		.4byte	0
 8183              	.LLST4:
 8184 0084 00000000 		.4byte	.LVL8
 8185 0088 06000000 		.4byte	.LVL9
 8186 008c 0100     		.2byte	0x1
 8187 008e 50       		.byte	0x50
 8188 008f 06000000 		.4byte	.LVL9
 8189 0093 0C000000 		.4byte	.LFE4
 8190 0097 0400     		.2byte	0x4
 8191 0099 F3       		.byte	0xf3
 8192 009a 01       		.uleb128 0x1
 8193 009b 50       		.byte	0x50
 8194 009c 9F       		.byte	0x9f
 8195 009d 00000000 		.4byte	0
 8196 00a1 00000000 		.4byte	0
 8197              	.LLST5:
 8198 00a5 00000000 		.4byte	.LVL10
 8199 00a9 06000000 		.4byte	.LVL11
 8200 00ad 0100     		.2byte	0x1
 8201 00af 50       		.byte	0x50
 8202 00b0 06000000 		.4byte	.LVL11
 8203 00b4 0C000000 		.4byte	.LFE5
 8204 00b8 0400     		.2byte	0x4
 8205 00ba F3       		.byte	0xf3
 8206 00bb 01       		.uleb128 0x1
 8207 00bc 50       		.byte	0x50
 8208 00bd 9F       		.byte	0x9f
 8209 00be 00000000 		.4byte	0
 8210 00c2 00000000 		.4byte	0
 8211              	.LLST6:
 8212 00c6 00000000 		.4byte	.LVL12
 8213 00ca 06000000 		.4byte	.LVL13
 8214 00ce 0100     		.2byte	0x1
 8215 00d0 50       		.byte	0x50
 8216 00d1 06000000 		.4byte	.LVL13
 8217 00d5 0C000000 		.4byte	.LFE6
 8218 00d9 0400     		.2byte	0x4
 8219 00db F3       		.byte	0xf3
 8220 00dc 01       		.uleb128 0x1
 8221 00dd 50       		.byte	0x50
 8222 00de 9F       		.byte	0x9f
 8223 00df 00000000 		.4byte	0
 8224 00e3 00000000 		.4byte	0
 8225              	.LLST7:
 8226 00e7 00000000 		.4byte	.LVL14
 8227 00eb 06000000 		.4byte	.LVL15
 8228 00ef 0100     		.2byte	0x1
 8229 00f1 50       		.byte	0x50
 8230 00f2 06000000 		.4byte	.LVL15
 8231 00f6 0C000000 		.4byte	.LFE7
ARM GAS  C:\Users\info\AppData\Local\Temp\ccfHjuLM.s 			page 168


 8232 00fa 0400     		.2byte	0x4
 8233 00fc F3       		.byte	0xf3
 8234 00fd 01       		.uleb128 0x1
 8235 00fe 50       		.byte	0x50
 8236 00ff 9F       		.byte	0x9f
 8237 0100 00000000 		.4byte	0
 8238 0104 00000000 		.4byte	0
 8239              	.LLST8:
 8240 0108 00000000 		.4byte	.LVL16
 8241 010c 06000000 		.4byte	.LVL17
 8242 0110 0100     		.2byte	0x1
 8243 0112 50       		.byte	0x50
 8244 0113 06000000 		.4byte	.LVL17
 8245 0117 0C000000 		.4byte	.LFE8
 8246 011b 0400     		.2byte	0x4
 8247 011d F3       		.byte	0xf3
 8248 011e 01       		.uleb128 0x1
 8249 011f 50       		.byte	0x50
 8250 0120 9F       		.byte	0x9f
 8251 0121 00000000 		.4byte	0
 8252 0125 00000000 		.4byte	0
 8253              	.LLST9:
 8254 0129 00000000 		.4byte	.LVL18
 8255 012d 06000000 		.4byte	.LVL19
 8256 0131 0100     		.2byte	0x1
 8257 0133 50       		.byte	0x50
 8258 0134 06000000 		.4byte	.LVL19
 8259 0138 0C000000 		.4byte	.LFE9
 8260 013c 0400     		.2byte	0x4
 8261 013e F3       		.byte	0xf3
 8262 013f 01       		.uleb128 0x1
 8263 0140 50       		.byte	0x50
 8264 0141 9F       		.byte	0x9f
 8265 0142 00000000 		.4byte	0
 8266 0146 00000000 		.4byte	0
 8267              	.LLST10:
 8268 014a 00000000 		.4byte	.LVL20
 8269 014e 06000000 		.4byte	.LVL21
 8270 0152 0100     		.2byte	0x1
 8271 0154 50       		.byte	0x50
 8272 0155 06000000 		.4byte	.LVL21
 8273 0159 0C000000 		.4byte	.LFE10
 8274 015d 0400     		.2byte	0x4
 8275 015f F3       		.byte	0xf3
 8276 0160 01       		.uleb128 0x1
 8277 0161 50       		.byte	0x50
 8278 0162 9F       		.byte	0x9f
 8279 0163 00000000 		.4byte	0
 8280 0167 00000000 		.4byte	0
 8281              	.LLST11:
 8282 016b 00000000 		.4byte	.LVL22
 8283 016f 06000000 		.4byte	.LVL23
 8284 0173 0100     		.2byte	0x1
 8285 0175 50       		.byte	0x50
 8286 0176 06000000 		.4byte	.LVL23
 8287 017a 0C000000 		.4byte	.LFE11
 8288 017e 0400     		.2byte	0x4
ARM GAS  C:\Users\info\AppData\Local\Temp\ccfHjuLM.s 			page 169


 8289 0180 F3       		.byte	0xf3
 8290 0181 01       		.uleb128 0x1
 8291 0182 50       		.byte	0x50
 8292 0183 9F       		.byte	0x9f
 8293 0184 00000000 		.4byte	0
 8294 0188 00000000 		.4byte	0
 8295              	.LLST12:
 8296 018c 00000000 		.4byte	.LVL24
 8297 0190 06000000 		.4byte	.LVL25
 8298 0194 0100     		.2byte	0x1
 8299 0196 50       		.byte	0x50
 8300 0197 06000000 		.4byte	.LVL25
 8301 019b 0C000000 		.4byte	.LFE12
 8302 019f 0400     		.2byte	0x4
 8303 01a1 F3       		.byte	0xf3
 8304 01a2 01       		.uleb128 0x1
 8305 01a3 50       		.byte	0x50
 8306 01a4 9F       		.byte	0x9f
 8307 01a5 00000000 		.4byte	0
 8308 01a9 00000000 		.4byte	0
 8309              	.LLST13:
 8310 01ad 00000000 		.4byte	.LVL26
 8311 01b1 06000000 		.4byte	.LVL27
 8312 01b5 0100     		.2byte	0x1
 8313 01b7 50       		.byte	0x50
 8314 01b8 06000000 		.4byte	.LVL27
 8315 01bc 0C000000 		.4byte	.LFE13
 8316 01c0 0400     		.2byte	0x4
 8317 01c2 F3       		.byte	0xf3
 8318 01c3 01       		.uleb128 0x1
 8319 01c4 50       		.byte	0x50
 8320 01c5 9F       		.byte	0x9f
 8321 01c6 00000000 		.4byte	0
 8322 01ca 00000000 		.4byte	0
 8323              	.LLST14:
 8324 01ce 00000000 		.4byte	.LVL28
 8325 01d2 06000000 		.4byte	.LVL29
 8326 01d6 0100     		.2byte	0x1
 8327 01d8 50       		.byte	0x50
 8328 01d9 06000000 		.4byte	.LVL29
 8329 01dd 0C000000 		.4byte	.LFE14
 8330 01e1 0400     		.2byte	0x4
 8331 01e3 F3       		.byte	0xf3
 8332 01e4 01       		.uleb128 0x1
 8333 01e5 50       		.byte	0x50
 8334 01e6 9F       		.byte	0x9f
 8335 01e7 00000000 		.4byte	0
 8336 01eb 00000000 		.4byte	0
 8337              	.LLST15:
 8338 01ef 00000000 		.4byte	.LVL30
 8339 01f3 06000000 		.4byte	.LVL31
 8340 01f7 0100     		.2byte	0x1
 8341 01f9 50       		.byte	0x50
 8342 01fa 06000000 		.4byte	.LVL31
 8343 01fe 0C000000 		.4byte	.LFE15
 8344 0202 0400     		.2byte	0x4
 8345 0204 F3       		.byte	0xf3
ARM GAS  C:\Users\info\AppData\Local\Temp\ccfHjuLM.s 			page 170


 8346 0205 01       		.uleb128 0x1
 8347 0206 50       		.byte	0x50
 8348 0207 9F       		.byte	0x9f
 8349 0208 00000000 		.4byte	0
 8350 020c 00000000 		.4byte	0
 8351              	.LLST16:
 8352 0210 00000000 		.4byte	.LVL32
 8353 0214 06000000 		.4byte	.LVL33
 8354 0218 0100     		.2byte	0x1
 8355 021a 50       		.byte	0x50
 8356 021b 06000000 		.4byte	.LVL33
 8357 021f 0C000000 		.4byte	.LFE16
 8358 0223 0400     		.2byte	0x4
 8359 0225 F3       		.byte	0xf3
 8360 0226 01       		.uleb128 0x1
 8361 0227 50       		.byte	0x50
 8362 0228 9F       		.byte	0x9f
 8363 0229 00000000 		.4byte	0
 8364 022d 00000000 		.4byte	0
 8365              	.LLST17:
 8366 0231 00000000 		.4byte	.LVL34
 8367 0235 06000000 		.4byte	.LVL35
 8368 0239 0100     		.2byte	0x1
 8369 023b 50       		.byte	0x50
 8370 023c 06000000 		.4byte	.LVL35
 8371 0240 0C000000 		.4byte	.LFE17
 8372 0244 0400     		.2byte	0x4
 8373 0246 F3       		.byte	0xf3
 8374 0247 01       		.uleb128 0x1
 8375 0248 50       		.byte	0x50
 8376 0249 9F       		.byte	0x9f
 8377 024a 00000000 		.4byte	0
 8378 024e 00000000 		.4byte	0
 8379              	.LLST18:
 8380 0252 00000000 		.4byte	.LVL36
 8381 0256 06000000 		.4byte	.LVL37
 8382 025a 0100     		.2byte	0x1
 8383 025c 50       		.byte	0x50
 8384 025d 06000000 		.4byte	.LVL37
 8385 0261 0C000000 		.4byte	.LFE18
 8386 0265 0400     		.2byte	0x4
 8387 0267 F3       		.byte	0xf3
 8388 0268 01       		.uleb128 0x1
 8389 0269 50       		.byte	0x50
 8390 026a 9F       		.byte	0x9f
 8391 026b 00000000 		.4byte	0
 8392 026f 00000000 		.4byte	0
 8393              	.LLST19:
 8394 0273 00000000 		.4byte	.LVL38
 8395 0277 06000000 		.4byte	.LVL39
 8396 027b 0100     		.2byte	0x1
 8397 027d 50       		.byte	0x50
 8398 027e 06000000 		.4byte	.LVL39
 8399 0282 0C000000 		.4byte	.LFE19
 8400 0286 0400     		.2byte	0x4
 8401 0288 F3       		.byte	0xf3
 8402 0289 01       		.uleb128 0x1
ARM GAS  C:\Users\info\AppData\Local\Temp\ccfHjuLM.s 			page 171


 8403 028a 50       		.byte	0x50
 8404 028b 9F       		.byte	0x9f
 8405 028c 00000000 		.4byte	0
 8406 0290 00000000 		.4byte	0
 8407              	.LLST20:
 8408 0294 00000000 		.4byte	.LVL40
 8409 0298 06000000 		.4byte	.LVL41
 8410 029c 0100     		.2byte	0x1
 8411 029e 50       		.byte	0x50
 8412 029f 06000000 		.4byte	.LVL41
 8413 02a3 0C000000 		.4byte	.LFE20
 8414 02a7 0400     		.2byte	0x4
 8415 02a9 F3       		.byte	0xf3
 8416 02aa 01       		.uleb128 0x1
 8417 02ab 50       		.byte	0x50
 8418 02ac 9F       		.byte	0x9f
 8419 02ad 00000000 		.4byte	0
 8420 02b1 00000000 		.4byte	0
 8421              	.LLST21:
 8422 02b5 00000000 		.4byte	.LVL42
 8423 02b9 06000000 		.4byte	.LVL43
 8424 02bd 0100     		.2byte	0x1
 8425 02bf 50       		.byte	0x50
 8426 02c0 06000000 		.4byte	.LVL43
 8427 02c4 0C000000 		.4byte	.LFE21
 8428 02c8 0400     		.2byte	0x4
 8429 02ca F3       		.byte	0xf3
 8430 02cb 01       		.uleb128 0x1
 8431 02cc 50       		.byte	0x50
 8432 02cd 9F       		.byte	0x9f
 8433 02ce 00000000 		.4byte	0
 8434 02d2 00000000 		.4byte	0
 8435              	.LLST22:
 8436 02d6 00000000 		.4byte	.LVL44
 8437 02da 06000000 		.4byte	.LVL45
 8438 02de 0100     		.2byte	0x1
 8439 02e0 50       		.byte	0x50
 8440 02e1 06000000 		.4byte	.LVL45
 8441 02e5 0C000000 		.4byte	.LFE22
 8442 02e9 0400     		.2byte	0x4
 8443 02eb F3       		.byte	0xf3
 8444 02ec 01       		.uleb128 0x1
 8445 02ed 50       		.byte	0x50
 8446 02ee 9F       		.byte	0x9f
 8447 02ef 00000000 		.4byte	0
 8448 02f3 00000000 		.4byte	0
 8449              	.LLST23:
 8450 02f7 00000000 		.4byte	.LVL46
 8451 02fb 06000000 		.4byte	.LVL47
 8452 02ff 0100     		.2byte	0x1
 8453 0301 50       		.byte	0x50
 8454 0302 06000000 		.4byte	.LVL47
 8455 0306 0C000000 		.4byte	.LFE23
 8456 030a 0400     		.2byte	0x4
 8457 030c F3       		.byte	0xf3
 8458 030d 01       		.uleb128 0x1
 8459 030e 50       		.byte	0x50
ARM GAS  C:\Users\info\AppData\Local\Temp\ccfHjuLM.s 			page 172


 8460 030f 9F       		.byte	0x9f
 8461 0310 00000000 		.4byte	0
 8462 0314 00000000 		.4byte	0
 8463              	.LLST24:
 8464 0318 00000000 		.4byte	.LVL48
 8465 031c 06000000 		.4byte	.LVL49
 8466 0320 0100     		.2byte	0x1
 8467 0322 50       		.byte	0x50
 8468 0323 06000000 		.4byte	.LVL49
 8469 0327 0C000000 		.4byte	.LFE24
 8470 032b 0400     		.2byte	0x4
 8471 032d F3       		.byte	0xf3
 8472 032e 01       		.uleb128 0x1
 8473 032f 50       		.byte	0x50
 8474 0330 9F       		.byte	0x9f
 8475 0331 00000000 		.4byte	0
 8476 0335 00000000 		.4byte	0
 8477              	.LLST25:
 8478 0339 00000000 		.4byte	.LVL50
 8479 033d 06000000 		.4byte	.LVL51
 8480 0341 0100     		.2byte	0x1
 8481 0343 50       		.byte	0x50
 8482 0344 06000000 		.4byte	.LVL51
 8483 0348 0C000000 		.4byte	.LFE25
 8484 034c 0400     		.2byte	0x4
 8485 034e F3       		.byte	0xf3
 8486 034f 01       		.uleb128 0x1
 8487 0350 50       		.byte	0x50
 8488 0351 9F       		.byte	0x9f
 8489 0352 00000000 		.4byte	0
 8490 0356 00000000 		.4byte	0
 8491              	.LLST26:
 8492 035a 00000000 		.4byte	.LVL52
 8493 035e 06000000 		.4byte	.LVL53
 8494 0362 0100     		.2byte	0x1
 8495 0364 50       		.byte	0x50
 8496 0365 06000000 		.4byte	.LVL53
 8497 0369 0C000000 		.4byte	.LFE26
 8498 036d 0400     		.2byte	0x4
 8499 036f F3       		.byte	0xf3
 8500 0370 01       		.uleb128 0x1
 8501 0371 50       		.byte	0x50
 8502 0372 9F       		.byte	0x9f
 8503 0373 00000000 		.4byte	0
 8504 0377 00000000 		.4byte	0
 8505              	.LLST27:
 8506 037b 00000000 		.4byte	.LVL54
 8507 037f 06000000 		.4byte	.LVL55
 8508 0383 0100     		.2byte	0x1
 8509 0385 50       		.byte	0x50
 8510 0386 06000000 		.4byte	.LVL55
 8511 038a 0C000000 		.4byte	.LFE27
 8512 038e 0400     		.2byte	0x4
 8513 0390 F3       		.byte	0xf3
 8514 0391 01       		.uleb128 0x1
 8515 0392 50       		.byte	0x50
 8516 0393 9F       		.byte	0x9f
ARM GAS  C:\Users\info\AppData\Local\Temp\ccfHjuLM.s 			page 173


 8517 0394 00000000 		.4byte	0
 8518 0398 00000000 		.4byte	0
 8519              	.LLST28:
 8520 039c 00000000 		.4byte	.LVL56
 8521 03a0 06000000 		.4byte	.LVL57
 8522 03a4 0100     		.2byte	0x1
 8523 03a6 50       		.byte	0x50
 8524 03a7 06000000 		.4byte	.LVL57
 8525 03ab 0C000000 		.4byte	.LFE28
 8526 03af 0400     		.2byte	0x4
 8527 03b1 F3       		.byte	0xf3
 8528 03b2 01       		.uleb128 0x1
 8529 03b3 50       		.byte	0x50
 8530 03b4 9F       		.byte	0x9f
 8531 03b5 00000000 		.4byte	0
 8532 03b9 00000000 		.4byte	0
 8533              	.LLST29:
 8534 03bd 00000000 		.4byte	.LVL58
 8535 03c1 06000000 		.4byte	.LVL59
 8536 03c5 0100     		.2byte	0x1
 8537 03c7 50       		.byte	0x50
 8538 03c8 06000000 		.4byte	.LVL59
 8539 03cc 0C000000 		.4byte	.LFE29
 8540 03d0 0400     		.2byte	0x4
 8541 03d2 F3       		.byte	0xf3
 8542 03d3 01       		.uleb128 0x1
 8543 03d4 50       		.byte	0x50
 8544 03d5 9F       		.byte	0x9f
 8545 03d6 00000000 		.4byte	0
 8546 03da 00000000 		.4byte	0
 8547              	.LLST30:
 8548 03de 00000000 		.4byte	.LVL60
 8549 03e2 06000000 		.4byte	.LVL61
 8550 03e6 0100     		.2byte	0x1
 8551 03e8 50       		.byte	0x50
 8552 03e9 06000000 		.4byte	.LVL61
 8553 03ed 0C000000 		.4byte	.LFE30
 8554 03f1 0400     		.2byte	0x4
 8555 03f3 F3       		.byte	0xf3
 8556 03f4 01       		.uleb128 0x1
 8557 03f5 50       		.byte	0x50
 8558 03f6 9F       		.byte	0x9f
 8559 03f7 00000000 		.4byte	0
 8560 03fb 00000000 		.4byte	0
 8561              	.LLST31:
 8562 03ff 00000000 		.4byte	.LVL62
 8563 0403 06000000 		.4byte	.LVL63
 8564 0407 0100     		.2byte	0x1
 8565 0409 50       		.byte	0x50
 8566 040a 06000000 		.4byte	.LVL63
 8567 040e 0C000000 		.4byte	.LFE31
 8568 0412 0400     		.2byte	0x4
 8569 0414 F3       		.byte	0xf3
 8570 0415 01       		.uleb128 0x1
 8571 0416 50       		.byte	0x50
 8572 0417 9F       		.byte	0x9f
 8573 0418 00000000 		.4byte	0
ARM GAS  C:\Users\info\AppData\Local\Temp\ccfHjuLM.s 			page 174


 8574 041c 00000000 		.4byte	0
 8575              	.LLST32:
 8576 0420 00000000 		.4byte	.LVL64
 8577 0424 06000000 		.4byte	.LVL65
 8578 0428 0100     		.2byte	0x1
 8579 042a 50       		.byte	0x50
 8580 042b 06000000 		.4byte	.LVL65
 8581 042f 0C000000 		.4byte	.LFE32
 8582 0433 0400     		.2byte	0x4
 8583 0435 F3       		.byte	0xf3
 8584 0436 01       		.uleb128 0x1
 8585 0437 50       		.byte	0x50
 8586 0438 9F       		.byte	0x9f
 8587 0439 00000000 		.4byte	0
 8588 043d 00000000 		.4byte	0
 8589              	.LLST33:
 8590 0441 00000000 		.4byte	.LVL66
 8591 0445 06000000 		.4byte	.LVL67
 8592 0449 0100     		.2byte	0x1
 8593 044b 50       		.byte	0x50
 8594 044c 06000000 		.4byte	.LVL67
 8595 0450 0C000000 		.4byte	.LFE33
 8596 0454 0400     		.2byte	0x4
 8597 0456 F3       		.byte	0xf3
 8598 0457 01       		.uleb128 0x1
 8599 0458 50       		.byte	0x50
 8600 0459 9F       		.byte	0x9f
 8601 045a 00000000 		.4byte	0
 8602 045e 00000000 		.4byte	0
 8603              	.LLST34:
 8604 0462 00000000 		.4byte	.LVL68
 8605 0466 06000000 		.4byte	.LVL69
 8606 046a 0100     		.2byte	0x1
 8607 046c 50       		.byte	0x50
 8608 046d 06000000 		.4byte	.LVL69
 8609 0471 0C000000 		.4byte	.LFE34
 8610 0475 0400     		.2byte	0x4
 8611 0477 F3       		.byte	0xf3
 8612 0478 01       		.uleb128 0x1
 8613 0479 50       		.byte	0x50
 8614 047a 9F       		.byte	0x9f
 8615 047b 00000000 		.4byte	0
 8616 047f 00000000 		.4byte	0
 8617              	.LLST35:
 8618 0483 00000000 		.4byte	.LVL70
 8619 0487 06000000 		.4byte	.LVL71
 8620 048b 0100     		.2byte	0x1
 8621 048d 50       		.byte	0x50
 8622 048e 06000000 		.4byte	.LVL71
 8623 0492 0C000000 		.4byte	.LFE35
 8624 0496 0400     		.2byte	0x4
 8625 0498 F3       		.byte	0xf3
 8626 0499 01       		.uleb128 0x1
 8627 049a 50       		.byte	0x50
 8628 049b 9F       		.byte	0x9f
 8629 049c 00000000 		.4byte	0
 8630 04a0 00000000 		.4byte	0
ARM GAS  C:\Users\info\AppData\Local\Temp\ccfHjuLM.s 			page 175


 8631              	.LLST36:
 8632 04a4 00000000 		.4byte	.LVL72
 8633 04a8 06000000 		.4byte	.LVL73
 8634 04ac 0100     		.2byte	0x1
 8635 04ae 50       		.byte	0x50
 8636 04af 06000000 		.4byte	.LVL73
 8637 04b3 0C000000 		.4byte	.LFE36
 8638 04b7 0400     		.2byte	0x4
 8639 04b9 F3       		.byte	0xf3
 8640 04ba 01       		.uleb128 0x1
 8641 04bb 50       		.byte	0x50
 8642 04bc 9F       		.byte	0x9f
 8643 04bd 00000000 		.4byte	0
 8644 04c1 00000000 		.4byte	0
 8645              	.LLST37:
 8646 04c5 00000000 		.4byte	.LVL74
 8647 04c9 06000000 		.4byte	.LVL75
 8648 04cd 0100     		.2byte	0x1
 8649 04cf 50       		.byte	0x50
 8650 04d0 06000000 		.4byte	.LVL75
 8651 04d4 0C000000 		.4byte	.LFE37
 8652 04d8 0400     		.2byte	0x4
 8653 04da F3       		.byte	0xf3
 8654 04db 01       		.uleb128 0x1
 8655 04dc 50       		.byte	0x50
 8656 04dd 9F       		.byte	0x9f
 8657 04de 00000000 		.4byte	0
 8658 04e2 00000000 		.4byte	0
 8659              	.LLST38:
 8660 04e6 00000000 		.4byte	.LVL76
 8661 04ea 06000000 		.4byte	.LVL77
 8662 04ee 0100     		.2byte	0x1
 8663 04f0 50       		.byte	0x50
 8664 04f1 06000000 		.4byte	.LVL77
 8665 04f5 0C000000 		.4byte	.LFE38
 8666 04f9 0400     		.2byte	0x4
 8667 04fb F3       		.byte	0xf3
 8668 04fc 01       		.uleb128 0x1
 8669 04fd 50       		.byte	0x50
 8670 04fe 9F       		.byte	0x9f
 8671 04ff 00000000 		.4byte	0
 8672 0503 00000000 		.4byte	0
 8673              	.LLST39:
 8674 0507 00000000 		.4byte	.LVL78
 8675 050b 06000000 		.4byte	.LVL79
 8676 050f 0100     		.2byte	0x1
 8677 0511 50       		.byte	0x50
 8678 0512 06000000 		.4byte	.LVL79
 8679 0516 0C000000 		.4byte	.LFE39
 8680 051a 0400     		.2byte	0x4
 8681 051c F3       		.byte	0xf3
 8682 051d 01       		.uleb128 0x1
 8683 051e 50       		.byte	0x50
 8684 051f 9F       		.byte	0x9f
 8685 0520 00000000 		.4byte	0
 8686 0524 00000000 		.4byte	0
 8687              	.LLST40:
ARM GAS  C:\Users\info\AppData\Local\Temp\ccfHjuLM.s 			page 176


 8688 0528 00000000 		.4byte	.LVL80
 8689 052c 06000000 		.4byte	.LVL81
 8690 0530 0100     		.2byte	0x1
 8691 0532 50       		.byte	0x50
 8692 0533 06000000 		.4byte	.LVL81
 8693 0537 0C000000 		.4byte	.LFE40
 8694 053b 0400     		.2byte	0x4
 8695 053d F3       		.byte	0xf3
 8696 053e 01       		.uleb128 0x1
 8697 053f 50       		.byte	0x50
 8698 0540 9F       		.byte	0x9f
 8699 0541 00000000 		.4byte	0
 8700 0545 00000000 		.4byte	0
 8701              	.LLST41:
 8702 0549 00000000 		.4byte	.LVL82
 8703 054d 06000000 		.4byte	.LVL83
 8704 0551 0100     		.2byte	0x1
 8705 0553 50       		.byte	0x50
 8706 0554 06000000 		.4byte	.LVL83
 8707 0558 0C000000 		.4byte	.LFE41
 8708 055c 0400     		.2byte	0x4
 8709 055e F3       		.byte	0xf3
 8710 055f 01       		.uleb128 0x1
 8711 0560 50       		.byte	0x50
 8712 0561 9F       		.byte	0x9f
 8713 0562 00000000 		.4byte	0
 8714 0566 00000000 		.4byte	0
 8715              	.LLST42:
 8716 056a 00000000 		.4byte	.LVL84
 8717 056e 06000000 		.4byte	.LVL85
 8718 0572 0100     		.2byte	0x1
 8719 0574 50       		.byte	0x50
 8720 0575 06000000 		.4byte	.LVL85
 8721 0579 0C000000 		.4byte	.LFE42
 8722 057d 0400     		.2byte	0x4
 8723 057f F3       		.byte	0xf3
 8724 0580 01       		.uleb128 0x1
 8725 0581 50       		.byte	0x50
 8726 0582 9F       		.byte	0x9f
 8727 0583 00000000 		.4byte	0
 8728 0587 00000000 		.4byte	0
 8729              	.LLST43:
 8730 058b 00000000 		.4byte	.LVL86
 8731 058f 06000000 		.4byte	.LVL87
 8732 0593 0100     		.2byte	0x1
 8733 0595 50       		.byte	0x50
 8734 0596 06000000 		.4byte	.LVL87
 8735 059a 0C000000 		.4byte	.LFE43
 8736 059e 0400     		.2byte	0x4
 8737 05a0 F3       		.byte	0xf3
 8738 05a1 01       		.uleb128 0x1
 8739 05a2 50       		.byte	0x50
 8740 05a3 9F       		.byte	0x9f
 8741 05a4 00000000 		.4byte	0
 8742 05a8 00000000 		.4byte	0
 8743              	.LLST44:
 8744 05ac 00000000 		.4byte	.LVL88
ARM GAS  C:\Users\info\AppData\Local\Temp\ccfHjuLM.s 			page 177


 8745 05b0 06000000 		.4byte	.LVL89
 8746 05b4 0100     		.2byte	0x1
 8747 05b6 50       		.byte	0x50
 8748 05b7 06000000 		.4byte	.LVL89
 8749 05bb 0C000000 		.4byte	.LFE44
 8750 05bf 0400     		.2byte	0x4
 8751 05c1 F3       		.byte	0xf3
 8752 05c2 01       		.uleb128 0x1
 8753 05c3 50       		.byte	0x50
 8754 05c4 9F       		.byte	0x9f
 8755 05c5 00000000 		.4byte	0
 8756 05c9 00000000 		.4byte	0
 8757              	.LLST45:
 8758 05cd 00000000 		.4byte	.LVL90
 8759 05d1 06000000 		.4byte	.LVL91
 8760 05d5 0100     		.2byte	0x1
 8761 05d7 50       		.byte	0x50
 8762 05d8 06000000 		.4byte	.LVL91
 8763 05dc 0C000000 		.4byte	.LFE45
 8764 05e0 0400     		.2byte	0x4
 8765 05e2 F3       		.byte	0xf3
 8766 05e3 01       		.uleb128 0x1
 8767 05e4 50       		.byte	0x50
 8768 05e5 9F       		.byte	0x9f
 8769 05e6 00000000 		.4byte	0
 8770 05ea 00000000 		.4byte	0
 8771              	.LLST46:
 8772 05ee 00000000 		.4byte	.LVL92
 8773 05f2 06000000 		.4byte	.LVL93
 8774 05f6 0100     		.2byte	0x1
 8775 05f8 50       		.byte	0x50
 8776 05f9 06000000 		.4byte	.LVL93
 8777 05fd 0C000000 		.4byte	.LFE46
 8778 0601 0400     		.2byte	0x4
 8779 0603 F3       		.byte	0xf3
 8780 0604 01       		.uleb128 0x1
 8781 0605 50       		.byte	0x50
 8782 0606 9F       		.byte	0x9f
 8783 0607 00000000 		.4byte	0
 8784 060b 00000000 		.4byte	0
 8785              	.LLST47:
 8786 060f 00000000 		.4byte	.LVL94
 8787 0613 06000000 		.4byte	.LVL95
 8788 0617 0100     		.2byte	0x1
 8789 0619 50       		.byte	0x50
 8790 061a 06000000 		.4byte	.LVL95
 8791 061e 0C000000 		.4byte	.LFE47
 8792 0622 0400     		.2byte	0x4
 8793 0624 F3       		.byte	0xf3
 8794 0625 01       		.uleb128 0x1
 8795 0626 50       		.byte	0x50
 8796 0627 9F       		.byte	0x9f
 8797 0628 00000000 		.4byte	0
 8798 062c 00000000 		.4byte	0
 8799              	.LLST48:
 8800 0630 00000000 		.4byte	.LVL96
 8801 0634 06000000 		.4byte	.LVL97
ARM GAS  C:\Users\info\AppData\Local\Temp\ccfHjuLM.s 			page 178


 8802 0638 0100     		.2byte	0x1
 8803 063a 50       		.byte	0x50
 8804 063b 06000000 		.4byte	.LVL97
 8805 063f 0C000000 		.4byte	.LFE48
 8806 0643 0400     		.2byte	0x4
 8807 0645 F3       		.byte	0xf3
 8808 0646 01       		.uleb128 0x1
 8809 0647 50       		.byte	0x50
 8810 0648 9F       		.byte	0x9f
 8811 0649 00000000 		.4byte	0
 8812 064d 00000000 		.4byte	0
 8813              	.LLST49:
 8814 0651 00000000 		.4byte	.LVL98
 8815 0655 06000000 		.4byte	.LVL99
 8816 0659 0100     		.2byte	0x1
 8817 065b 50       		.byte	0x50
 8818 065c 06000000 		.4byte	.LVL99
 8819 0660 0C000000 		.4byte	.LFE49
 8820 0664 0400     		.2byte	0x4
 8821 0666 F3       		.byte	0xf3
 8822 0667 01       		.uleb128 0x1
 8823 0668 50       		.byte	0x50
 8824 0669 9F       		.byte	0x9f
 8825 066a 00000000 		.4byte	0
 8826 066e 00000000 		.4byte	0
 8827              	.LLST50:
 8828 0672 00000000 		.4byte	.LVL100
 8829 0676 06000000 		.4byte	.LVL101
 8830 067a 0100     		.2byte	0x1
 8831 067c 50       		.byte	0x50
 8832 067d 06000000 		.4byte	.LVL101
 8833 0681 0C000000 		.4byte	.LFE50
 8834 0685 0400     		.2byte	0x4
 8835 0687 F3       		.byte	0xf3
 8836 0688 01       		.uleb128 0x1
 8837 0689 50       		.byte	0x50
 8838 068a 9F       		.byte	0x9f
 8839 068b 00000000 		.4byte	0
 8840 068f 00000000 		.4byte	0
 8841              	.LLST51:
 8842 0693 00000000 		.4byte	.LVL102
 8843 0697 06000000 		.4byte	.LVL103
 8844 069b 0100     		.2byte	0x1
 8845 069d 50       		.byte	0x50
 8846 069e 06000000 		.4byte	.LVL103
 8847 06a2 0C000000 		.4byte	.LFE51
 8848 06a6 0400     		.2byte	0x4
 8849 06a8 F3       		.byte	0xf3
 8850 06a9 01       		.uleb128 0x1
 8851 06aa 50       		.byte	0x50
 8852 06ab 9F       		.byte	0x9f
 8853 06ac 00000000 		.4byte	0
 8854 06b0 00000000 		.4byte	0
 8855              	.LLST52:
 8856 06b4 00000000 		.4byte	.LVL104
 8857 06b8 06000000 		.4byte	.LVL105
 8858 06bc 0100     		.2byte	0x1
ARM GAS  C:\Users\info\AppData\Local\Temp\ccfHjuLM.s 			page 179


 8859 06be 50       		.byte	0x50
 8860 06bf 06000000 		.4byte	.LVL105
 8861 06c3 0C000000 		.4byte	.LFE52
 8862 06c7 0400     		.2byte	0x4
 8863 06c9 F3       		.byte	0xf3
 8864 06ca 01       		.uleb128 0x1
 8865 06cb 50       		.byte	0x50
 8866 06cc 9F       		.byte	0x9f
 8867 06cd 00000000 		.4byte	0
 8868 06d1 00000000 		.4byte	0
 8869              	.LLST53:
 8870 06d5 00000000 		.4byte	.LVL106
 8871 06d9 06000000 		.4byte	.LVL107
 8872 06dd 0100     		.2byte	0x1
 8873 06df 50       		.byte	0x50
 8874 06e0 06000000 		.4byte	.LVL107
 8875 06e4 0C000000 		.4byte	.LFE53
 8876 06e8 0400     		.2byte	0x4
 8877 06ea F3       		.byte	0xf3
 8878 06eb 01       		.uleb128 0x1
 8879 06ec 50       		.byte	0x50
 8880 06ed 9F       		.byte	0x9f
 8881 06ee 00000000 		.4byte	0
 8882 06f2 00000000 		.4byte	0
 8883              	.LLST54:
 8884 06f6 00000000 		.4byte	.LVL108
 8885 06fa 06000000 		.4byte	.LVL109
 8886 06fe 0100     		.2byte	0x1
 8887 0700 50       		.byte	0x50
 8888 0701 06000000 		.4byte	.LVL109
 8889 0705 0C000000 		.4byte	.LFE54
 8890 0709 0400     		.2byte	0x4
 8891 070b F3       		.byte	0xf3
 8892 070c 01       		.uleb128 0x1
 8893 070d 50       		.byte	0x50
 8894 070e 9F       		.byte	0x9f
 8895 070f 00000000 		.4byte	0
 8896 0713 00000000 		.4byte	0
 8897              	.LLST55:
 8898 0717 00000000 		.4byte	.LVL110
 8899 071b 06000000 		.4byte	.LVL111
 8900 071f 0100     		.2byte	0x1
 8901 0721 50       		.byte	0x50
 8902 0722 06000000 		.4byte	.LVL111
 8903 0726 0C000000 		.4byte	.LFE55
 8904 072a 0400     		.2byte	0x4
 8905 072c F3       		.byte	0xf3
 8906 072d 01       		.uleb128 0x1
 8907 072e 50       		.byte	0x50
 8908 072f 9F       		.byte	0x9f
 8909 0730 00000000 		.4byte	0
 8910 0734 00000000 		.4byte	0
 8911              	.LLST56:
 8912 0738 00000000 		.4byte	.LVL112
 8913 073c 06000000 		.4byte	.LVL113
 8914 0740 0100     		.2byte	0x1
 8915 0742 50       		.byte	0x50
ARM GAS  C:\Users\info\AppData\Local\Temp\ccfHjuLM.s 			page 180


 8916 0743 06000000 		.4byte	.LVL113
 8917 0747 0C000000 		.4byte	.LFE56
 8918 074b 0400     		.2byte	0x4
 8919 074d F3       		.byte	0xf3
 8920 074e 01       		.uleb128 0x1
 8921 074f 50       		.byte	0x50
 8922 0750 9F       		.byte	0x9f
 8923 0751 00000000 		.4byte	0
 8924 0755 00000000 		.4byte	0
 8925              	.LLST57:
 8926 0759 00000000 		.4byte	.LVL114
 8927 075d 06000000 		.4byte	.LVL115
 8928 0761 0100     		.2byte	0x1
 8929 0763 50       		.byte	0x50
 8930 0764 06000000 		.4byte	.LVL115
 8931 0768 0C000000 		.4byte	.LFE57
 8932 076c 0400     		.2byte	0x4
 8933 076e F3       		.byte	0xf3
 8934 076f 01       		.uleb128 0x1
 8935 0770 50       		.byte	0x50
 8936 0771 9F       		.byte	0x9f
 8937 0772 00000000 		.4byte	0
 8938 0776 00000000 		.4byte	0
 8939              	.LLST58:
 8940 077a 00000000 		.4byte	.LVL116
 8941 077e 06000000 		.4byte	.LVL117
 8942 0782 0100     		.2byte	0x1
 8943 0784 50       		.byte	0x50
 8944 0785 06000000 		.4byte	.LVL117
 8945 0789 0C000000 		.4byte	.LFE58
 8946 078d 0400     		.2byte	0x4
 8947 078f F3       		.byte	0xf3
 8948 0790 01       		.uleb128 0x1
 8949 0791 50       		.byte	0x50
 8950 0792 9F       		.byte	0x9f
 8951 0793 00000000 		.4byte	0
 8952 0797 00000000 		.4byte	0
 8953              	.LLST59:
 8954 079b 00000000 		.4byte	.LVL118
 8955 079f 06000000 		.4byte	.LVL119
 8956 07a3 0100     		.2byte	0x1
 8957 07a5 50       		.byte	0x50
 8958 07a6 06000000 		.4byte	.LVL119
 8959 07aa 0C000000 		.4byte	.LFE59
 8960 07ae 0400     		.2byte	0x4
 8961 07b0 F3       		.byte	0xf3
 8962 07b1 01       		.uleb128 0x1
 8963 07b2 50       		.byte	0x50
 8964 07b3 9F       		.byte	0x9f
 8965 07b4 00000000 		.4byte	0
 8966 07b8 00000000 		.4byte	0
 8967              	.LLST60:
 8968 07bc 00000000 		.4byte	.LVL120
 8969 07c0 06000000 		.4byte	.LVL121
 8970 07c4 0100     		.2byte	0x1
 8971 07c6 50       		.byte	0x50
 8972 07c7 06000000 		.4byte	.LVL121
ARM GAS  C:\Users\info\AppData\Local\Temp\ccfHjuLM.s 			page 181


 8973 07cb 0C000000 		.4byte	.LFE60
 8974 07cf 0400     		.2byte	0x4
 8975 07d1 F3       		.byte	0xf3
 8976 07d2 01       		.uleb128 0x1
 8977 07d3 50       		.byte	0x50
 8978 07d4 9F       		.byte	0x9f
 8979 07d5 00000000 		.4byte	0
 8980 07d9 00000000 		.4byte	0
 8981              	.LLST61:
 8982 07dd 00000000 		.4byte	.LVL122
 8983 07e1 06000000 		.4byte	.LVL123
 8984 07e5 0100     		.2byte	0x1
 8985 07e7 50       		.byte	0x50
 8986 07e8 06000000 		.4byte	.LVL123
 8987 07ec 0C000000 		.4byte	.LFE61
 8988 07f0 0400     		.2byte	0x4
 8989 07f2 F3       		.byte	0xf3
 8990 07f3 01       		.uleb128 0x1
 8991 07f4 50       		.byte	0x50
 8992 07f5 9F       		.byte	0x9f
 8993 07f6 00000000 		.4byte	0
 8994 07fa 00000000 		.4byte	0
 8995              	.LLST62:
 8996 07fe 00000000 		.4byte	.LVL124
 8997 0802 06000000 		.4byte	.LVL125
 8998 0806 0100     		.2byte	0x1
 8999 0808 50       		.byte	0x50
 9000 0809 06000000 		.4byte	.LVL125
 9001 080d 0C000000 		.4byte	.LFE62
 9002 0811 0400     		.2byte	0x4
 9003 0813 F3       		.byte	0xf3
 9004 0814 01       		.uleb128 0x1
 9005 0815 50       		.byte	0x50
 9006 0816 9F       		.byte	0x9f
 9007 0817 00000000 		.4byte	0
 9008 081b 00000000 		.4byte	0
 9009              	.LLST63:
 9010 081f 00000000 		.4byte	.LVL126
 9011 0823 06000000 		.4byte	.LVL127
 9012 0827 0100     		.2byte	0x1
 9013 0829 50       		.byte	0x50
 9014 082a 06000000 		.4byte	.LVL127
 9015 082e 0C000000 		.4byte	.LFE63
 9016 0832 0400     		.2byte	0x4
 9017 0834 F3       		.byte	0xf3
 9018 0835 01       		.uleb128 0x1
 9019 0836 50       		.byte	0x50
 9020 0837 9F       		.byte	0x9f
 9021 0838 00000000 		.4byte	0
 9022 083c 00000000 		.4byte	0
 9023              	.LLST64:
 9024 0840 00000000 		.4byte	.LVL128
 9025 0844 06000000 		.4byte	.LVL129
 9026 0848 0100     		.2byte	0x1
 9027 084a 50       		.byte	0x50
 9028 084b 06000000 		.4byte	.LVL129
 9029 084f 0C000000 		.4byte	.LFE64
ARM GAS  C:\Users\info\AppData\Local\Temp\ccfHjuLM.s 			page 182


 9030 0853 0400     		.2byte	0x4
 9031 0855 F3       		.byte	0xf3
 9032 0856 01       		.uleb128 0x1
 9033 0857 50       		.byte	0x50
 9034 0858 9F       		.byte	0x9f
 9035 0859 00000000 		.4byte	0
 9036 085d 00000000 		.4byte	0
 9037              	.LLST65:
 9038 0861 00000000 		.4byte	.LVL130
 9039 0865 06000000 		.4byte	.LVL131
 9040 0869 0100     		.2byte	0x1
 9041 086b 50       		.byte	0x50
 9042 086c 06000000 		.4byte	.LVL131
 9043 0870 0C000000 		.4byte	.LFE65
 9044 0874 0400     		.2byte	0x4
 9045 0876 F3       		.byte	0xf3
 9046 0877 01       		.uleb128 0x1
 9047 0878 50       		.byte	0x50
 9048 0879 9F       		.byte	0x9f
 9049 087a 00000000 		.4byte	0
 9050 087e 00000000 		.4byte	0
 9051              	.LLST66:
 9052 0882 00000000 		.4byte	.LVL132
 9053 0886 06000000 		.4byte	.LVL133
 9054 088a 0100     		.2byte	0x1
 9055 088c 50       		.byte	0x50
 9056 088d 06000000 		.4byte	.LVL133
 9057 0891 0C000000 		.4byte	.LFE66
 9058 0895 0400     		.2byte	0x4
 9059 0897 F3       		.byte	0xf3
 9060 0898 01       		.uleb128 0x1
 9061 0899 50       		.byte	0x50
 9062 089a 9F       		.byte	0x9f
 9063 089b 00000000 		.4byte	0
 9064 089f 00000000 		.4byte	0
 9065              	.LLST67:
 9066 08a3 00000000 		.4byte	.LVL134
 9067 08a7 06000000 		.4byte	.LVL135
 9068 08ab 0100     		.2byte	0x1
 9069 08ad 50       		.byte	0x50
 9070 08ae 06000000 		.4byte	.LVL135
 9071 08b2 0C000000 		.4byte	.LFE67
 9072 08b6 0400     		.2byte	0x4
 9073 08b8 F3       		.byte	0xf3
 9074 08b9 01       		.uleb128 0x1
 9075 08ba 50       		.byte	0x50
 9076 08bb 9F       		.byte	0x9f
 9077 08bc 00000000 		.4byte	0
 9078 08c0 00000000 		.4byte	0
 9079              	.LLST68:
 9080 08c4 00000000 		.4byte	.LVL136
 9081 08c8 06000000 		.4byte	.LVL137
 9082 08cc 0100     		.2byte	0x1
 9083 08ce 50       		.byte	0x50
 9084 08cf 06000000 		.4byte	.LVL137
 9085 08d3 0C000000 		.4byte	.LFE68
 9086 08d7 0400     		.2byte	0x4
ARM GAS  C:\Users\info\AppData\Local\Temp\ccfHjuLM.s 			page 183


 9087 08d9 F3       		.byte	0xf3
 9088 08da 01       		.uleb128 0x1
 9089 08db 50       		.byte	0x50
 9090 08dc 9F       		.byte	0x9f
 9091 08dd 00000000 		.4byte	0
 9092 08e1 00000000 		.4byte	0
 9093              	.LLST69:
 9094 08e5 00000000 		.4byte	.LVL138
 9095 08e9 06000000 		.4byte	.LVL139
 9096 08ed 0100     		.2byte	0x1
 9097 08ef 50       		.byte	0x50
 9098 08f0 06000000 		.4byte	.LVL139
 9099 08f4 0C000000 		.4byte	.LFE69
 9100 08f8 0400     		.2byte	0x4
 9101 08fa F3       		.byte	0xf3
 9102 08fb 01       		.uleb128 0x1
 9103 08fc 50       		.byte	0x50
 9104 08fd 9F       		.byte	0x9f
 9105 08fe 00000000 		.4byte	0
 9106 0902 00000000 		.4byte	0
 9107              	.LLST70:
 9108 0906 00000000 		.4byte	.LVL140
 9109 090a 06000000 		.4byte	.LVL141
 9110 090e 0100     		.2byte	0x1
 9111 0910 50       		.byte	0x50
 9112 0911 06000000 		.4byte	.LVL141
 9113 0915 0C000000 		.4byte	.LFE70
 9114 0919 0400     		.2byte	0x4
 9115 091b F3       		.byte	0xf3
 9116 091c 01       		.uleb128 0x1
 9117 091d 50       		.byte	0x50
 9118 091e 9F       		.byte	0x9f
 9119 091f 00000000 		.4byte	0
 9120 0923 00000000 		.4byte	0
 9121              	.LLST71:
 9122 0927 00000000 		.4byte	.LVL142
 9123 092b 06000000 		.4byte	.LVL143
 9124 092f 0100     		.2byte	0x1
 9125 0931 50       		.byte	0x50
 9126 0932 06000000 		.4byte	.LVL143
 9127 0936 0C000000 		.4byte	.LFE71
 9128 093a 0400     		.2byte	0x4
 9129 093c F3       		.byte	0xf3
 9130 093d 01       		.uleb128 0x1
 9131 093e 50       		.byte	0x50
 9132 093f 9F       		.byte	0x9f
 9133 0940 00000000 		.4byte	0
 9134 0944 00000000 		.4byte	0
 9135              	.LLST72:
 9136 0948 00000000 		.4byte	.LVL144
 9137 094c 06000000 		.4byte	.LVL145
 9138 0950 0100     		.2byte	0x1
 9139 0952 50       		.byte	0x50
 9140 0953 06000000 		.4byte	.LVL145
 9141 0957 0C000000 		.4byte	.LFE72
 9142 095b 0400     		.2byte	0x4
 9143 095d F3       		.byte	0xf3
ARM GAS  C:\Users\info\AppData\Local\Temp\ccfHjuLM.s 			page 184


 9144 095e 01       		.uleb128 0x1
 9145 095f 50       		.byte	0x50
 9146 0960 9F       		.byte	0x9f
 9147 0961 00000000 		.4byte	0
 9148 0965 00000000 		.4byte	0
 9149              	.LLST73:
 9150 0969 00000000 		.4byte	.LVL146
 9151 096d 06000000 		.4byte	.LVL147
 9152 0971 0100     		.2byte	0x1
 9153 0973 50       		.byte	0x50
 9154 0974 06000000 		.4byte	.LVL147
 9155 0978 0C000000 		.4byte	.LFE73
 9156 097c 0400     		.2byte	0x4
 9157 097e F3       		.byte	0xf3
 9158 097f 01       		.uleb128 0x1
 9159 0980 50       		.byte	0x50
 9160 0981 9F       		.byte	0x9f
 9161 0982 00000000 		.4byte	0
 9162 0986 00000000 		.4byte	0
 9163              	.LLST74:
 9164 098a 00000000 		.4byte	.LVL148
 9165 098e 06000000 		.4byte	.LVL149
 9166 0992 0100     		.2byte	0x1
 9167 0994 50       		.byte	0x50
 9168 0995 06000000 		.4byte	.LVL149
 9169 0999 0C000000 		.4byte	.LFE74
 9170 099d 0400     		.2byte	0x4
 9171 099f F3       		.byte	0xf3
 9172 09a0 01       		.uleb128 0x1
 9173 09a1 50       		.byte	0x50
 9174 09a2 9F       		.byte	0x9f
 9175 09a3 00000000 		.4byte	0
 9176 09a7 00000000 		.4byte	0
 9177              	.LLST75:
 9178 09ab 00000000 		.4byte	.LVL150
 9179 09af 06000000 		.4byte	.LVL151
 9180 09b3 0100     		.2byte	0x1
 9181 09b5 50       		.byte	0x50
 9182 09b6 06000000 		.4byte	.LVL151
 9183 09ba 0C000000 		.4byte	.LFE75
 9184 09be 0400     		.2byte	0x4
 9185 09c0 F3       		.byte	0xf3
 9186 09c1 01       		.uleb128 0x1
 9187 09c2 50       		.byte	0x50
 9188 09c3 9F       		.byte	0x9f
 9189 09c4 00000000 		.4byte	0
 9190 09c8 00000000 		.4byte	0
 9191              	.LLST76:
 9192 09cc 00000000 		.4byte	.LVL152
 9193 09d0 06000000 		.4byte	.LVL153
 9194 09d4 0100     		.2byte	0x1
 9195 09d6 50       		.byte	0x50
 9196 09d7 06000000 		.4byte	.LVL153
 9197 09db 0C000000 		.4byte	.LFE76
 9198 09df 0400     		.2byte	0x4
 9199 09e1 F3       		.byte	0xf3
 9200 09e2 01       		.uleb128 0x1
ARM GAS  C:\Users\info\AppData\Local\Temp\ccfHjuLM.s 			page 185


 9201 09e3 50       		.byte	0x50
 9202 09e4 9F       		.byte	0x9f
 9203 09e5 00000000 		.4byte	0
 9204 09e9 00000000 		.4byte	0
 9205              	.LLST77:
 9206 09ed 00000000 		.4byte	.LVL154
 9207 09f1 06000000 		.4byte	.LVL155
 9208 09f5 0100     		.2byte	0x1
 9209 09f7 50       		.byte	0x50
 9210 09f8 06000000 		.4byte	.LVL155
 9211 09fc 0C000000 		.4byte	.LFE77
 9212 0a00 0400     		.2byte	0x4
 9213 0a02 F3       		.byte	0xf3
 9214 0a03 01       		.uleb128 0x1
 9215 0a04 50       		.byte	0x50
 9216 0a05 9F       		.byte	0x9f
 9217 0a06 00000000 		.4byte	0
 9218 0a0a 00000000 		.4byte	0
 9219              	.LLST78:
 9220 0a0e 00000000 		.4byte	.LVL156
 9221 0a12 06000000 		.4byte	.LVL157
 9222 0a16 0100     		.2byte	0x1
 9223 0a18 50       		.byte	0x50
 9224 0a19 06000000 		.4byte	.LVL157
 9225 0a1d 0C000000 		.4byte	.LFE78
 9226 0a21 0400     		.2byte	0x4
 9227 0a23 F3       		.byte	0xf3
 9228 0a24 01       		.uleb128 0x1
 9229 0a25 50       		.byte	0x50
 9230 0a26 9F       		.byte	0x9f
 9231 0a27 00000000 		.4byte	0
 9232 0a2b 00000000 		.4byte	0
 9233              	.LLST79:
 9234 0a2f 00000000 		.4byte	.LVL158
 9235 0a33 06000000 		.4byte	.LVL159
 9236 0a37 0100     		.2byte	0x1
 9237 0a39 50       		.byte	0x50
 9238 0a3a 06000000 		.4byte	.LVL159
 9239 0a3e 0C000000 		.4byte	.LFE79
 9240 0a42 0400     		.2byte	0x4
 9241 0a44 F3       		.byte	0xf3
 9242 0a45 01       		.uleb128 0x1
 9243 0a46 50       		.byte	0x50
 9244 0a47 9F       		.byte	0x9f
 9245 0a48 00000000 		.4byte	0
 9246 0a4c 00000000 		.4byte	0
 9247              	.LLST80:
 9248 0a50 00000000 		.4byte	.LVL160
 9249 0a54 06000000 		.4byte	.LVL161
 9250 0a58 0100     		.2byte	0x1
 9251 0a5a 50       		.byte	0x50
 9252 0a5b 06000000 		.4byte	.LVL161
 9253 0a5f 0C000000 		.4byte	.LFE80
 9254 0a63 0400     		.2byte	0x4
 9255 0a65 F3       		.byte	0xf3
 9256 0a66 01       		.uleb128 0x1
 9257 0a67 50       		.byte	0x50
ARM GAS  C:\Users\info\AppData\Local\Temp\ccfHjuLM.s 			page 186


 9258 0a68 9F       		.byte	0x9f
 9259 0a69 00000000 		.4byte	0
 9260 0a6d 00000000 		.4byte	0
 9261              	.LLST81:
 9262 0a71 00000000 		.4byte	.LVL162
 9263 0a75 06000000 		.4byte	.LVL163
 9264 0a79 0100     		.2byte	0x1
 9265 0a7b 50       		.byte	0x50
 9266 0a7c 06000000 		.4byte	.LVL163
 9267 0a80 0C000000 		.4byte	.LFE81
 9268 0a84 0400     		.2byte	0x4
 9269 0a86 F3       		.byte	0xf3
 9270 0a87 01       		.uleb128 0x1
 9271 0a88 50       		.byte	0x50
 9272 0a89 9F       		.byte	0x9f
 9273 0a8a 00000000 		.4byte	0
 9274 0a8e 00000000 		.4byte	0
 9275              	.LLST82:
 9276 0a92 00000000 		.4byte	.LVL164
 9277 0a96 06000000 		.4byte	.LVL165
 9278 0a9a 0100     		.2byte	0x1
 9279 0a9c 50       		.byte	0x50
 9280 0a9d 06000000 		.4byte	.LVL165
 9281 0aa1 0C000000 		.4byte	.LFE82
 9282 0aa5 0400     		.2byte	0x4
 9283 0aa7 F3       		.byte	0xf3
 9284 0aa8 01       		.uleb128 0x1
 9285 0aa9 50       		.byte	0x50
 9286 0aaa 9F       		.byte	0x9f
 9287 0aab 00000000 		.4byte	0
 9288 0aaf 00000000 		.4byte	0
 9289              	.LLST83:
 9290 0ab3 00000000 		.4byte	.LVL166
 9291 0ab7 06000000 		.4byte	.LVL167
 9292 0abb 0100     		.2byte	0x1
 9293 0abd 50       		.byte	0x50
 9294 0abe 06000000 		.4byte	.LVL167
 9295 0ac2 0C000000 		.4byte	.LFE83
 9296 0ac6 0400     		.2byte	0x4
 9297 0ac8 F3       		.byte	0xf3
 9298 0ac9 01       		.uleb128 0x1
 9299 0aca 50       		.byte	0x50
 9300 0acb 9F       		.byte	0x9f
 9301 0acc 00000000 		.4byte	0
 9302 0ad0 00000000 		.4byte	0
 9303              	.LLST84:
 9304 0ad4 00000000 		.4byte	.LVL168
 9305 0ad8 06000000 		.4byte	.LVL169
 9306 0adc 0100     		.2byte	0x1
 9307 0ade 50       		.byte	0x50
 9308 0adf 06000000 		.4byte	.LVL169
 9309 0ae3 0C000000 		.4byte	.LFE84
 9310 0ae7 0400     		.2byte	0x4
 9311 0ae9 F3       		.byte	0xf3
 9312 0aea 01       		.uleb128 0x1
 9313 0aeb 50       		.byte	0x50
 9314 0aec 9F       		.byte	0x9f
ARM GAS  C:\Users\info\AppData\Local\Temp\ccfHjuLM.s 			page 187


 9315 0aed 00000000 		.4byte	0
 9316 0af1 00000000 		.4byte	0
 9317              	.LLST85:
 9318 0af5 00000000 		.4byte	.LVL170
 9319 0af9 06000000 		.4byte	.LVL171
 9320 0afd 0100     		.2byte	0x1
 9321 0aff 50       		.byte	0x50
 9322 0b00 06000000 		.4byte	.LVL171
 9323 0b04 0C000000 		.4byte	.LFE85
 9324 0b08 0400     		.2byte	0x4
 9325 0b0a F3       		.byte	0xf3
 9326 0b0b 01       		.uleb128 0x1
 9327 0b0c 50       		.byte	0x50
 9328 0b0d 9F       		.byte	0x9f
 9329 0b0e 00000000 		.4byte	0
 9330 0b12 00000000 		.4byte	0
 9331              	.LLST86:
 9332 0b16 00000000 		.4byte	.LVL172
 9333 0b1a 06000000 		.4byte	.LVL173
 9334 0b1e 0100     		.2byte	0x1
 9335 0b20 50       		.byte	0x50
 9336 0b21 06000000 		.4byte	.LVL173
 9337 0b25 0C000000 		.4byte	.LFE86
 9338 0b29 0400     		.2byte	0x4
 9339 0b2b F3       		.byte	0xf3
 9340 0b2c 01       		.uleb128 0x1
 9341 0b2d 50       		.byte	0x50
 9342 0b2e 9F       		.byte	0x9f
 9343 0b2f 00000000 		.4byte	0
 9344 0b33 00000000 		.4byte	0
 9345              	.LLST87:
 9346 0b37 00000000 		.4byte	.LVL174
 9347 0b3b 06000000 		.4byte	.LVL175
 9348 0b3f 0100     		.2byte	0x1
 9349 0b41 50       		.byte	0x50
 9350 0b42 06000000 		.4byte	.LVL175
 9351 0b46 0C000000 		.4byte	.LFE87
 9352 0b4a 0400     		.2byte	0x4
 9353 0b4c F3       		.byte	0xf3
 9354 0b4d 01       		.uleb128 0x1
 9355 0b4e 50       		.byte	0x50
 9356 0b4f 9F       		.byte	0x9f
 9357 0b50 00000000 		.4byte	0
 9358 0b54 00000000 		.4byte	0
 9359              	.LLST88:
 9360 0b58 00000000 		.4byte	.LVL176
 9361 0b5c 06000000 		.4byte	.LVL177
 9362 0b60 0100     		.2byte	0x1
 9363 0b62 50       		.byte	0x50
 9364 0b63 06000000 		.4byte	.LVL177
 9365 0b67 0C000000 		.4byte	.LFE88
 9366 0b6b 0400     		.2byte	0x4
 9367 0b6d F3       		.byte	0xf3
 9368 0b6e 01       		.uleb128 0x1
 9369 0b6f 50       		.byte	0x50
 9370 0b70 9F       		.byte	0x9f
 9371 0b71 00000000 		.4byte	0
ARM GAS  C:\Users\info\AppData\Local\Temp\ccfHjuLM.s 			page 188


 9372 0b75 00000000 		.4byte	0
 9373              	.LLST89:
 9374 0b79 00000000 		.4byte	.LVL178
 9375 0b7d 06000000 		.4byte	.LVL179
 9376 0b81 0100     		.2byte	0x1
 9377 0b83 50       		.byte	0x50
 9378 0b84 06000000 		.4byte	.LVL179
 9379 0b88 0C000000 		.4byte	.LFE89
 9380 0b8c 0400     		.2byte	0x4
 9381 0b8e F3       		.byte	0xf3
 9382 0b8f 01       		.uleb128 0x1
 9383 0b90 50       		.byte	0x50
 9384 0b91 9F       		.byte	0x9f
 9385 0b92 00000000 		.4byte	0
 9386 0b96 00000000 		.4byte	0
 9387              	.LLST90:
 9388 0b9a 00000000 		.4byte	.LVL180
 9389 0b9e 06000000 		.4byte	.LVL181
 9390 0ba2 0100     		.2byte	0x1
 9391 0ba4 50       		.byte	0x50
 9392 0ba5 06000000 		.4byte	.LVL181
 9393 0ba9 0C000000 		.4byte	.LFE90
 9394 0bad 0400     		.2byte	0x4
 9395 0baf F3       		.byte	0xf3
 9396 0bb0 01       		.uleb128 0x1
 9397 0bb1 50       		.byte	0x50
 9398 0bb2 9F       		.byte	0x9f
 9399 0bb3 00000000 		.4byte	0
 9400 0bb7 00000000 		.4byte	0
 9401              	.LLST91:
 9402 0bbb 00000000 		.4byte	.LVL182
 9403 0bbf 06000000 		.4byte	.LVL183
 9404 0bc3 0100     		.2byte	0x1
 9405 0bc5 50       		.byte	0x50
 9406 0bc6 06000000 		.4byte	.LVL183
 9407 0bca 0C000000 		.4byte	.LFE91
 9408 0bce 0400     		.2byte	0x4
 9409 0bd0 F3       		.byte	0xf3
 9410 0bd1 01       		.uleb128 0x1
 9411 0bd2 50       		.byte	0x50
 9412 0bd3 9F       		.byte	0x9f
 9413 0bd4 00000000 		.4byte	0
 9414 0bd8 00000000 		.4byte	0
 9415              	.LLST92:
 9416 0bdc 00000000 		.4byte	.LVL184
 9417 0be0 06000000 		.4byte	.LVL185
 9418 0be4 0100     		.2byte	0x1
 9419 0be6 50       		.byte	0x50
 9420 0be7 06000000 		.4byte	.LVL185
 9421 0beb 0C000000 		.4byte	.LFE92
 9422 0bef 0400     		.2byte	0x4
 9423 0bf1 F3       		.byte	0xf3
 9424 0bf2 01       		.uleb128 0x1
 9425 0bf3 50       		.byte	0x50
 9426 0bf4 9F       		.byte	0x9f
 9427 0bf5 00000000 		.4byte	0
 9428 0bf9 00000000 		.4byte	0
ARM GAS  C:\Users\info\AppData\Local\Temp\ccfHjuLM.s 			page 189


 9429              	.LLST93:
 9430 0bfd 00000000 		.4byte	.LVL186
 9431 0c01 06000000 		.4byte	.LVL187
 9432 0c05 0100     		.2byte	0x1
 9433 0c07 50       		.byte	0x50
 9434 0c08 06000000 		.4byte	.LVL187
 9435 0c0c 0C000000 		.4byte	.LFE93
 9436 0c10 0400     		.2byte	0x4
 9437 0c12 F3       		.byte	0xf3
 9438 0c13 01       		.uleb128 0x1
 9439 0c14 50       		.byte	0x50
 9440 0c15 9F       		.byte	0x9f
 9441 0c16 00000000 		.4byte	0
 9442 0c1a 00000000 		.4byte	0
 9443              	.LLST94:
 9444 0c1e 00000000 		.4byte	.LVL188
 9445 0c22 06000000 		.4byte	.LVL189
 9446 0c26 0100     		.2byte	0x1
 9447 0c28 50       		.byte	0x50
 9448 0c29 06000000 		.4byte	.LVL189
 9449 0c2d 0C000000 		.4byte	.LFE94
 9450 0c31 0400     		.2byte	0x4
 9451 0c33 F3       		.byte	0xf3
 9452 0c34 01       		.uleb128 0x1
 9453 0c35 50       		.byte	0x50
 9454 0c36 9F       		.byte	0x9f
 9455 0c37 00000000 		.4byte	0
 9456 0c3b 00000000 		.4byte	0
 9457              	.LLST95:
 9458 0c3f 00000000 		.4byte	.LVL190
 9459 0c43 06000000 		.4byte	.LVL191
 9460 0c47 0100     		.2byte	0x1
 9461 0c49 50       		.byte	0x50
 9462 0c4a 06000000 		.4byte	.LVL191
 9463 0c4e 0C000000 		.4byte	.LFE95
 9464 0c52 0400     		.2byte	0x4
 9465 0c54 F3       		.byte	0xf3
 9466 0c55 01       		.uleb128 0x1
 9467 0c56 50       		.byte	0x50
 9468 0c57 9F       		.byte	0x9f
 9469 0c58 00000000 		.4byte	0
 9470 0c5c 00000000 		.4byte	0
 9471              	.LLST96:
 9472 0c60 00000000 		.4byte	.LVL192
 9473 0c64 06000000 		.4byte	.LVL193
 9474 0c68 0100     		.2byte	0x1
 9475 0c6a 50       		.byte	0x50
 9476 0c6b 06000000 		.4byte	.LVL193
 9477 0c6f 0C000000 		.4byte	.LFE96
 9478 0c73 0400     		.2byte	0x4
 9479 0c75 F3       		.byte	0xf3
 9480 0c76 01       		.uleb128 0x1
 9481 0c77 50       		.byte	0x50
 9482 0c78 9F       		.byte	0x9f
 9483 0c79 00000000 		.4byte	0
 9484 0c7d 00000000 		.4byte	0
 9485              	.LLST97:
ARM GAS  C:\Users\info\AppData\Local\Temp\ccfHjuLM.s 			page 190


 9486 0c81 00000000 		.4byte	.LVL194
 9487 0c85 06000000 		.4byte	.LVL195
 9488 0c89 0100     		.2byte	0x1
 9489 0c8b 50       		.byte	0x50
 9490 0c8c 06000000 		.4byte	.LVL195
 9491 0c90 0C000000 		.4byte	.LFE97
 9492 0c94 0400     		.2byte	0x4
 9493 0c96 F3       		.byte	0xf3
 9494 0c97 01       		.uleb128 0x1
 9495 0c98 50       		.byte	0x50
 9496 0c99 9F       		.byte	0x9f
 9497 0c9a 00000000 		.4byte	0
 9498 0c9e 00000000 		.4byte	0
 9499              	.LLST98:
 9500 0ca2 00000000 		.4byte	.LVL196
 9501 0ca6 06000000 		.4byte	.LVL197
 9502 0caa 0100     		.2byte	0x1
 9503 0cac 50       		.byte	0x50
 9504 0cad 06000000 		.4byte	.LVL197
 9505 0cb1 0C000000 		.4byte	.LFE98
 9506 0cb5 0400     		.2byte	0x4
 9507 0cb7 F3       		.byte	0xf3
 9508 0cb8 01       		.uleb128 0x1
 9509 0cb9 50       		.byte	0x50
 9510 0cba 9F       		.byte	0x9f
 9511 0cbb 00000000 		.4byte	0
 9512 0cbf 00000000 		.4byte	0
 9513              	.LLST99:
 9514 0cc3 00000000 		.4byte	.LVL198
 9515 0cc7 06000000 		.4byte	.LVL199
 9516 0ccb 0100     		.2byte	0x1
 9517 0ccd 50       		.byte	0x50
 9518 0cce 06000000 		.4byte	.LVL199
 9519 0cd2 0C000000 		.4byte	.LFE99
 9520 0cd6 0400     		.2byte	0x4
 9521 0cd8 F3       		.byte	0xf3
 9522 0cd9 01       		.uleb128 0x1
 9523 0cda 50       		.byte	0x50
 9524 0cdb 9F       		.byte	0x9f
 9525 0cdc 00000000 		.4byte	0
 9526 0ce0 00000000 		.4byte	0
 9527              	.LLST100:
 9528 0ce4 00000000 		.4byte	.LVL200
 9529 0ce8 06000000 		.4byte	.LVL201
 9530 0cec 0100     		.2byte	0x1
 9531 0cee 50       		.byte	0x50
 9532 0cef 06000000 		.4byte	.LVL201
 9533 0cf3 0C000000 		.4byte	.LFE100
 9534 0cf7 0400     		.2byte	0x4
 9535 0cf9 F3       		.byte	0xf3
 9536 0cfa 01       		.uleb128 0x1
 9537 0cfb 50       		.byte	0x50
 9538 0cfc 9F       		.byte	0x9f
 9539 0cfd 00000000 		.4byte	0
 9540 0d01 00000000 		.4byte	0
 9541              	.LLST101:
 9542 0d05 00000000 		.4byte	.LVL202
ARM GAS  C:\Users\info\AppData\Local\Temp\ccfHjuLM.s 			page 191


 9543 0d09 06000000 		.4byte	.LVL203
 9544 0d0d 0100     		.2byte	0x1
 9545 0d0f 50       		.byte	0x50
 9546 0d10 06000000 		.4byte	.LVL203
 9547 0d14 0C000000 		.4byte	.LFE101
 9548 0d18 0400     		.2byte	0x4
 9549 0d1a F3       		.byte	0xf3
 9550 0d1b 01       		.uleb128 0x1
 9551 0d1c 50       		.byte	0x50
 9552 0d1d 9F       		.byte	0x9f
 9553 0d1e 00000000 		.4byte	0
 9554 0d22 00000000 		.4byte	0
 9555              	.LLST102:
 9556 0d26 00000000 		.4byte	.LVL204
 9557 0d2a 06000000 		.4byte	.LVL205
 9558 0d2e 0100     		.2byte	0x1
 9559 0d30 50       		.byte	0x50
 9560 0d31 06000000 		.4byte	.LVL205
 9561 0d35 0C000000 		.4byte	.LFE102
 9562 0d39 0400     		.2byte	0x4
 9563 0d3b F3       		.byte	0xf3
 9564 0d3c 01       		.uleb128 0x1
 9565 0d3d 50       		.byte	0x50
 9566 0d3e 9F       		.byte	0x9f
 9567 0d3f 00000000 		.4byte	0
 9568 0d43 00000000 		.4byte	0
 9569              	.LLST103:
 9570 0d47 00000000 		.4byte	.LVL206
 9571 0d4b 06000000 		.4byte	.LVL207
 9572 0d4f 0100     		.2byte	0x1
 9573 0d51 50       		.byte	0x50
 9574 0d52 06000000 		.4byte	.LVL207
 9575 0d56 0C000000 		.4byte	.LFE103
 9576 0d5a 0400     		.2byte	0x4
 9577 0d5c F3       		.byte	0xf3
 9578 0d5d 01       		.uleb128 0x1
 9579 0d5e 50       		.byte	0x50
 9580 0d5f 9F       		.byte	0x9f
 9581 0d60 00000000 		.4byte	0
 9582 0d64 00000000 		.4byte	0
 9583              	.LLST104:
 9584 0d68 00000000 		.4byte	.LVL208
 9585 0d6c 06000000 		.4byte	.LVL209
 9586 0d70 0100     		.2byte	0x1
 9587 0d72 50       		.byte	0x50
 9588 0d73 06000000 		.4byte	.LVL209
 9589 0d77 0C000000 		.4byte	.LFE104
 9590 0d7b 0400     		.2byte	0x4
 9591 0d7d F3       		.byte	0xf3
 9592 0d7e 01       		.uleb128 0x1
 9593 0d7f 50       		.byte	0x50
 9594 0d80 9F       		.byte	0x9f
 9595 0d81 00000000 		.4byte	0
 9596 0d85 00000000 		.4byte	0
 9597              	.LLST105:
 9598 0d89 00000000 		.4byte	.LVL210
 9599 0d8d 06000000 		.4byte	.LVL211
ARM GAS  C:\Users\info\AppData\Local\Temp\ccfHjuLM.s 			page 192


 9600 0d91 0100     		.2byte	0x1
 9601 0d93 50       		.byte	0x50
 9602 0d94 06000000 		.4byte	.LVL211
 9603 0d98 0C000000 		.4byte	.LFE105
 9604 0d9c 0400     		.2byte	0x4
 9605 0d9e F3       		.byte	0xf3
 9606 0d9f 01       		.uleb128 0x1
 9607 0da0 50       		.byte	0x50
 9608 0da1 9F       		.byte	0x9f
 9609 0da2 00000000 		.4byte	0
 9610 0da6 00000000 		.4byte	0
 9611              	.LLST106:
 9612 0daa 00000000 		.4byte	.LVL212
 9613 0dae 06000000 		.4byte	.LVL213
 9614 0db2 0100     		.2byte	0x1
 9615 0db4 50       		.byte	0x50
 9616 0db5 06000000 		.4byte	.LVL213
 9617 0db9 0C000000 		.4byte	.LFE106
 9618 0dbd 0400     		.2byte	0x4
 9619 0dbf F3       		.byte	0xf3
 9620 0dc0 01       		.uleb128 0x1
 9621 0dc1 50       		.byte	0x50
 9622 0dc2 9F       		.byte	0x9f
 9623 0dc3 00000000 		.4byte	0
 9624 0dc7 00000000 		.4byte	0
 9625              	.LLST107:
 9626 0dcb 00000000 		.4byte	.LVL214
 9627 0dcf 06000000 		.4byte	.LVL215
 9628 0dd3 0100     		.2byte	0x1
 9629 0dd5 50       		.byte	0x50
 9630 0dd6 06000000 		.4byte	.LVL215
 9631 0dda 0C000000 		.4byte	.LFE107
 9632 0dde 0400     		.2byte	0x4
 9633 0de0 F3       		.byte	0xf3
 9634 0de1 01       		.uleb128 0x1
 9635 0de2 50       		.byte	0x50
 9636 0de3 9F       		.byte	0x9f
 9637 0de4 00000000 		.4byte	0
 9638 0de8 00000000 		.4byte	0
 9639              	.LLST108:
 9640 0dec 00000000 		.4byte	.LVL216
 9641 0df0 06000000 		.4byte	.LVL217
 9642 0df4 0100     		.2byte	0x1
 9643 0df6 50       		.byte	0x50
 9644 0df7 06000000 		.4byte	.LVL217
 9645 0dfb 0C000000 		.4byte	.LFE108
 9646 0dff 0400     		.2byte	0x4
 9647 0e01 F3       		.byte	0xf3
 9648 0e02 01       		.uleb128 0x1
 9649 0e03 50       		.byte	0x50
 9650 0e04 9F       		.byte	0x9f
 9651 0e05 00000000 		.4byte	0
 9652 0e09 00000000 		.4byte	0
 9653              	.LLST109:
 9654 0e0d 00000000 		.4byte	.LVL218
 9655 0e11 06000000 		.4byte	.LVL219
 9656 0e15 0100     		.2byte	0x1
ARM GAS  C:\Users\info\AppData\Local\Temp\ccfHjuLM.s 			page 193


 9657 0e17 50       		.byte	0x50
 9658 0e18 06000000 		.4byte	.LVL219
 9659 0e1c 0C000000 		.4byte	.LFE109
 9660 0e20 0400     		.2byte	0x4
 9661 0e22 F3       		.byte	0xf3
 9662 0e23 01       		.uleb128 0x1
 9663 0e24 50       		.byte	0x50
 9664 0e25 9F       		.byte	0x9f
 9665 0e26 00000000 		.4byte	0
 9666 0e2a 00000000 		.4byte	0
 9667              	.LLST110:
 9668 0e2e 00000000 		.4byte	.LVL220
 9669 0e32 06000000 		.4byte	.LVL221
 9670 0e36 0100     		.2byte	0x1
 9671 0e38 50       		.byte	0x50
 9672 0e39 06000000 		.4byte	.LVL221
 9673 0e3d 0C000000 		.4byte	.LFE110
 9674 0e41 0400     		.2byte	0x4
 9675 0e43 F3       		.byte	0xf3
 9676 0e44 01       		.uleb128 0x1
 9677 0e45 50       		.byte	0x50
 9678 0e46 9F       		.byte	0x9f
 9679 0e47 00000000 		.4byte	0
 9680 0e4b 00000000 		.4byte	0
 9681              	.LLST111:
 9682 0e4f 00000000 		.4byte	.LVL222
 9683 0e53 06000000 		.4byte	.LVL223
 9684 0e57 0100     		.2byte	0x1
 9685 0e59 50       		.byte	0x50
 9686 0e5a 06000000 		.4byte	.LVL223
 9687 0e5e 0C000000 		.4byte	.LFE111
 9688 0e62 0400     		.2byte	0x4
 9689 0e64 F3       		.byte	0xf3
 9690 0e65 01       		.uleb128 0x1
 9691 0e66 50       		.byte	0x50
 9692 0e67 9F       		.byte	0x9f
 9693 0e68 00000000 		.4byte	0
 9694 0e6c 00000000 		.4byte	0
 9695              	.LLST112:
 9696 0e70 00000000 		.4byte	.LVL224
 9697 0e74 06000000 		.4byte	.LVL225
 9698 0e78 0100     		.2byte	0x1
 9699 0e7a 50       		.byte	0x50
 9700 0e7b 06000000 		.4byte	.LVL225
 9701 0e7f 0C000000 		.4byte	.LFE112
 9702 0e83 0400     		.2byte	0x4
 9703 0e85 F3       		.byte	0xf3
 9704 0e86 01       		.uleb128 0x1
 9705 0e87 50       		.byte	0x50
 9706 0e88 9F       		.byte	0x9f
 9707 0e89 00000000 		.4byte	0
 9708 0e8d 00000000 		.4byte	0
 9709              	.LLST113:
 9710 0e91 00000000 		.4byte	.LVL226
 9711 0e95 06000000 		.4byte	.LVL227
 9712 0e99 0100     		.2byte	0x1
 9713 0e9b 50       		.byte	0x50
ARM GAS  C:\Users\info\AppData\Local\Temp\ccfHjuLM.s 			page 194


 9714 0e9c 06000000 		.4byte	.LVL227
 9715 0ea0 0C000000 		.4byte	.LFE113
 9716 0ea4 0400     		.2byte	0x4
 9717 0ea6 F3       		.byte	0xf3
 9718 0ea7 01       		.uleb128 0x1
 9719 0ea8 50       		.byte	0x50
 9720 0ea9 9F       		.byte	0x9f
 9721 0eaa 00000000 		.4byte	0
 9722 0eae 00000000 		.4byte	0
 9723              	.LLST114:
 9724 0eb2 00000000 		.4byte	.LVL228
 9725 0eb6 06000000 		.4byte	.LVL229
 9726 0eba 0100     		.2byte	0x1
 9727 0ebc 50       		.byte	0x50
 9728 0ebd 06000000 		.4byte	.LVL229
 9729 0ec1 0C000000 		.4byte	.LFE114
 9730 0ec5 0400     		.2byte	0x4
 9731 0ec7 F3       		.byte	0xf3
 9732 0ec8 01       		.uleb128 0x1
 9733 0ec9 50       		.byte	0x50
 9734 0eca 9F       		.byte	0x9f
 9735 0ecb 00000000 		.4byte	0
 9736 0ecf 00000000 		.4byte	0
 9737              	.LLST115:
 9738 0ed3 00000000 		.4byte	.LVL230
 9739 0ed7 06000000 		.4byte	.LVL231
 9740 0edb 0100     		.2byte	0x1
 9741 0edd 50       		.byte	0x50
 9742 0ede 06000000 		.4byte	.LVL231
 9743 0ee2 0C000000 		.4byte	.LFE115
 9744 0ee6 0400     		.2byte	0x4
 9745 0ee8 F3       		.byte	0xf3
 9746 0ee9 01       		.uleb128 0x1
 9747 0eea 50       		.byte	0x50
 9748 0eeb 9F       		.byte	0x9f
 9749 0eec 00000000 		.4byte	0
 9750 0ef0 00000000 		.4byte	0
 9751              	.LLST116:
 9752 0ef4 00000000 		.4byte	.LVL232
 9753 0ef8 06000000 		.4byte	.LVL233
 9754 0efc 0100     		.2byte	0x1
 9755 0efe 50       		.byte	0x50
 9756 0eff 06000000 		.4byte	.LVL233
 9757 0f03 0C000000 		.4byte	.LFE116
 9758 0f07 0400     		.2byte	0x4
 9759 0f09 F3       		.byte	0xf3
 9760 0f0a 01       		.uleb128 0x1
 9761 0f0b 50       		.byte	0x50
 9762 0f0c 9F       		.byte	0x9f
 9763 0f0d 00000000 		.4byte	0
 9764 0f11 00000000 		.4byte	0
 9765              	.LLST117:
 9766 0f15 00000000 		.4byte	.LVL234
 9767 0f19 06000000 		.4byte	.LVL235
 9768 0f1d 0100     		.2byte	0x1
 9769 0f1f 50       		.byte	0x50
 9770 0f20 06000000 		.4byte	.LVL235
ARM GAS  C:\Users\info\AppData\Local\Temp\ccfHjuLM.s 			page 195


 9771 0f24 0C000000 		.4byte	.LFE117
 9772 0f28 0400     		.2byte	0x4
 9773 0f2a F3       		.byte	0xf3
 9774 0f2b 01       		.uleb128 0x1
 9775 0f2c 50       		.byte	0x50
 9776 0f2d 9F       		.byte	0x9f
 9777 0f2e 00000000 		.4byte	0
 9778 0f32 00000000 		.4byte	0
 9779              	.LLST118:
 9780 0f36 00000000 		.4byte	.LVL236
 9781 0f3a 06000000 		.4byte	.LVL237
 9782 0f3e 0100     		.2byte	0x1
 9783 0f40 50       		.byte	0x50
 9784 0f41 06000000 		.4byte	.LVL237
 9785 0f45 0C000000 		.4byte	.LFE118
 9786 0f49 0400     		.2byte	0x4
 9787 0f4b F3       		.byte	0xf3
 9788 0f4c 01       		.uleb128 0x1
 9789 0f4d 50       		.byte	0x50
 9790 0f4e 9F       		.byte	0x9f
 9791 0f4f 00000000 		.4byte	0
 9792 0f53 00000000 		.4byte	0
 9793              	.LLST119:
 9794 0f57 00000000 		.4byte	.LVL238
 9795 0f5b 06000000 		.4byte	.LVL239
 9796 0f5f 0100     		.2byte	0x1
 9797 0f61 50       		.byte	0x50
 9798 0f62 06000000 		.4byte	.LVL239
 9799 0f66 0C000000 		.4byte	.LFE119
 9800 0f6a 0400     		.2byte	0x4
 9801 0f6c F3       		.byte	0xf3
 9802 0f6d 01       		.uleb128 0x1
 9803 0f6e 50       		.byte	0x50
 9804 0f6f 9F       		.byte	0x9f
 9805 0f70 00000000 		.4byte	0
 9806 0f74 00000000 		.4byte	0
 9807              	.LLST120:
 9808 0f78 00000000 		.4byte	.LVL240
 9809 0f7c 06000000 		.4byte	.LVL241
 9810 0f80 0100     		.2byte	0x1
 9811 0f82 50       		.byte	0x50
 9812 0f83 06000000 		.4byte	.LVL241
 9813 0f87 0C000000 		.4byte	.LFE120
 9814 0f8b 0400     		.2byte	0x4
 9815 0f8d F3       		.byte	0xf3
 9816 0f8e 01       		.uleb128 0x1
 9817 0f8f 50       		.byte	0x50
 9818 0f90 9F       		.byte	0x9f
 9819 0f91 00000000 		.4byte	0
 9820 0f95 00000000 		.4byte	0
 9821              	.LLST121:
 9822 0f99 00000000 		.4byte	.LVL242
 9823 0f9d 06000000 		.4byte	.LVL243
 9824 0fa1 0100     		.2byte	0x1
 9825 0fa3 50       		.byte	0x50
 9826 0fa4 06000000 		.4byte	.LVL243
 9827 0fa8 0C000000 		.4byte	.LFE121
ARM GAS  C:\Users\info\AppData\Local\Temp\ccfHjuLM.s 			page 196


 9828 0fac 0400     		.2byte	0x4
 9829 0fae F3       		.byte	0xf3
 9830 0faf 01       		.uleb128 0x1
 9831 0fb0 50       		.byte	0x50
 9832 0fb1 9F       		.byte	0x9f
 9833 0fb2 00000000 		.4byte	0
 9834 0fb6 00000000 		.4byte	0
 9835              	.LLST122:
 9836 0fba 00000000 		.4byte	.LVL244
 9837 0fbe 06000000 		.4byte	.LVL245
 9838 0fc2 0100     		.2byte	0x1
 9839 0fc4 50       		.byte	0x50
 9840 0fc5 06000000 		.4byte	.LVL245
 9841 0fc9 0C000000 		.4byte	.LFE122
 9842 0fcd 0400     		.2byte	0x4
 9843 0fcf F3       		.byte	0xf3
 9844 0fd0 01       		.uleb128 0x1
 9845 0fd1 50       		.byte	0x50
 9846 0fd2 9F       		.byte	0x9f
 9847 0fd3 00000000 		.4byte	0
 9848 0fd7 00000000 		.4byte	0
 9849              	.LLST123:
 9850 0fdb 00000000 		.4byte	.LVL246
 9851 0fdf 06000000 		.4byte	.LVL247
 9852 0fe3 0100     		.2byte	0x1
 9853 0fe5 50       		.byte	0x50
 9854 0fe6 06000000 		.4byte	.LVL247
 9855 0fea 0C000000 		.4byte	.LFE123
 9856 0fee 0400     		.2byte	0x4
 9857 0ff0 F3       		.byte	0xf3
 9858 0ff1 01       		.uleb128 0x1
 9859 0ff2 50       		.byte	0x50
 9860 0ff3 9F       		.byte	0x9f
 9861 0ff4 00000000 		.4byte	0
 9862 0ff8 00000000 		.4byte	0
 9863              	.LLST124:
 9864 0ffc 00000000 		.4byte	.LVL248
 9865 1000 06000000 		.4byte	.LVL249
 9866 1004 0100     		.2byte	0x1
 9867 1006 50       		.byte	0x50
 9868 1007 06000000 		.4byte	.LVL249
 9869 100b 0C000000 		.4byte	.LFE124
 9870 100f 0400     		.2byte	0x4
 9871 1011 F3       		.byte	0xf3
 9872 1012 01       		.uleb128 0x1
 9873 1013 50       		.byte	0x50
 9874 1014 9F       		.byte	0x9f
 9875 1015 00000000 		.4byte	0
 9876 1019 00000000 		.4byte	0
 9877              	.LLST125:
 9878 101d 00000000 		.4byte	.LVL250
 9879 1021 06000000 		.4byte	.LVL251
 9880 1025 0100     		.2byte	0x1
 9881 1027 50       		.byte	0x50
 9882 1028 06000000 		.4byte	.LVL251
 9883 102c 0C000000 		.4byte	.LFE125
 9884 1030 0400     		.2byte	0x4
ARM GAS  C:\Users\info\AppData\Local\Temp\ccfHjuLM.s 			page 197


 9885 1032 F3       		.byte	0xf3
 9886 1033 01       		.uleb128 0x1
 9887 1034 50       		.byte	0x50
 9888 1035 9F       		.byte	0x9f
 9889 1036 00000000 		.4byte	0
 9890 103a 00000000 		.4byte	0
 9891              	.LLST126:
 9892 103e 00000000 		.4byte	.LVL252
 9893 1042 06000000 		.4byte	.LVL253
 9894 1046 0100     		.2byte	0x1
 9895 1048 50       		.byte	0x50
 9896 1049 06000000 		.4byte	.LVL253
 9897 104d 0C000000 		.4byte	.LFE126
 9898 1051 0400     		.2byte	0x4
 9899 1053 F3       		.byte	0xf3
 9900 1054 01       		.uleb128 0x1
 9901 1055 50       		.byte	0x50
 9902 1056 9F       		.byte	0x9f
 9903 1057 00000000 		.4byte	0
 9904 105b 00000000 		.4byte	0
 9905              	.LLST127:
 9906 105f 00000000 		.4byte	.LVL254
 9907 1063 06000000 		.4byte	.LVL255
 9908 1067 0100     		.2byte	0x1
 9909 1069 50       		.byte	0x50
 9910 106a 06000000 		.4byte	.LVL255
 9911 106e 0C000000 		.4byte	.LFE127
 9912 1072 0400     		.2byte	0x4
 9913 1074 F3       		.byte	0xf3
 9914 1075 01       		.uleb128 0x1
 9915 1076 50       		.byte	0x50
 9916 1077 9F       		.byte	0x9f
 9917 1078 00000000 		.4byte	0
 9918 107c 00000000 		.4byte	0
 9919              	.LLST128:
 9920 1080 00000000 		.4byte	.LVL256
 9921 1084 06000000 		.4byte	.LVL257
 9922 1088 0100     		.2byte	0x1
 9923 108a 50       		.byte	0x50
 9924 108b 06000000 		.4byte	.LVL257
 9925 108f 0C000000 		.4byte	.LFE128
 9926 1093 0400     		.2byte	0x4
 9927 1095 F3       		.byte	0xf3
 9928 1096 01       		.uleb128 0x1
 9929 1097 50       		.byte	0x50
 9930 1098 9F       		.byte	0x9f
 9931 1099 00000000 		.4byte	0
 9932 109d 00000000 		.4byte	0
 9933              		.section	.debug_aranges,"",%progbits
 9934 0000 1C040000 		.4byte	0x41c
 9935 0004 0200     		.2byte	0x2
 9936 0006 00000000 		.4byte	.Ldebug_info0
 9937 000a 04       		.byte	0x4
 9938 000b 00       		.byte	0
 9939 000c 0000     		.2byte	0
 9940 000e 0000     		.2byte	0
 9941 0010 00000000 		.4byte	.LFB0
ARM GAS  C:\Users\info\AppData\Local\Temp\ccfHjuLM.s 			page 198


 9942 0014 0C000000 		.4byte	.LFE0-.LFB0
 9943 0018 00000000 		.4byte	.LFB1
 9944 001c 0C000000 		.4byte	.LFE1-.LFB1
 9945 0020 00000000 		.4byte	.LFB2
 9946 0024 0C000000 		.4byte	.LFE2-.LFB2
 9947 0028 00000000 		.4byte	.LFB3
 9948 002c 0C000000 		.4byte	.LFE3-.LFB3
 9949 0030 00000000 		.4byte	.LFB4
 9950 0034 0C000000 		.4byte	.LFE4-.LFB4
 9951 0038 00000000 		.4byte	.LFB5
 9952 003c 0C000000 		.4byte	.LFE5-.LFB5
 9953 0040 00000000 		.4byte	.LFB6
 9954 0044 0C000000 		.4byte	.LFE6-.LFB6
 9955 0048 00000000 		.4byte	.LFB7
 9956 004c 0C000000 		.4byte	.LFE7-.LFB7
 9957 0050 00000000 		.4byte	.LFB8
 9958 0054 0C000000 		.4byte	.LFE8-.LFB8
 9959 0058 00000000 		.4byte	.LFB9
 9960 005c 0C000000 		.4byte	.LFE9-.LFB9
 9961 0060 00000000 		.4byte	.LFB10
 9962 0064 0C000000 		.4byte	.LFE10-.LFB10
 9963 0068 00000000 		.4byte	.LFB11
 9964 006c 0C000000 		.4byte	.LFE11-.LFB11
 9965 0070 00000000 		.4byte	.LFB12
 9966 0074 0C000000 		.4byte	.LFE12-.LFB12
 9967 0078 00000000 		.4byte	.LFB13
 9968 007c 0C000000 		.4byte	.LFE13-.LFB13
 9969 0080 00000000 		.4byte	.LFB14
 9970 0084 0C000000 		.4byte	.LFE14-.LFB14
 9971 0088 00000000 		.4byte	.LFB15
 9972 008c 0C000000 		.4byte	.LFE15-.LFB15
 9973 0090 00000000 		.4byte	.LFB16
 9974 0094 0C000000 		.4byte	.LFE16-.LFB16
 9975 0098 00000000 		.4byte	.LFB17
 9976 009c 0C000000 		.4byte	.LFE17-.LFB17
 9977 00a0 00000000 		.4byte	.LFB18
 9978 00a4 0C000000 		.4byte	.LFE18-.LFB18
 9979 00a8 00000000 		.4byte	.LFB19
 9980 00ac 0C000000 		.4byte	.LFE19-.LFB19
 9981 00b0 00000000 		.4byte	.LFB20
 9982 00b4 0C000000 		.4byte	.LFE20-.LFB20
 9983 00b8 00000000 		.4byte	.LFB21
 9984 00bc 0C000000 		.4byte	.LFE21-.LFB21
 9985 00c0 00000000 		.4byte	.LFB22
 9986 00c4 0C000000 		.4byte	.LFE22-.LFB22
 9987 00c8 00000000 		.4byte	.LFB23
 9988 00cc 0C000000 		.4byte	.LFE23-.LFB23
 9989 00d0 00000000 		.4byte	.LFB24
 9990 00d4 0C000000 		.4byte	.LFE24-.LFB24
 9991 00d8 00000000 		.4byte	.LFB25
 9992 00dc 0C000000 		.4byte	.LFE25-.LFB25
 9993 00e0 00000000 		.4byte	.LFB26
 9994 00e4 0C000000 		.4byte	.LFE26-.LFB26
 9995 00e8 00000000 		.4byte	.LFB27
 9996 00ec 0C000000 		.4byte	.LFE27-.LFB27
 9997 00f0 00000000 		.4byte	.LFB28
 9998 00f4 0C000000 		.4byte	.LFE28-.LFB28
ARM GAS  C:\Users\info\AppData\Local\Temp\ccfHjuLM.s 			page 199


 9999 00f8 00000000 		.4byte	.LFB29
 10000 00fc 0C000000 		.4byte	.LFE29-.LFB29
 10001 0100 00000000 		.4byte	.LFB30
 10002 0104 0C000000 		.4byte	.LFE30-.LFB30
 10003 0108 00000000 		.4byte	.LFB31
 10004 010c 0C000000 		.4byte	.LFE31-.LFB31
 10005 0110 00000000 		.4byte	.LFB32
 10006 0114 0C000000 		.4byte	.LFE32-.LFB32
 10007 0118 00000000 		.4byte	.LFB33
 10008 011c 0C000000 		.4byte	.LFE33-.LFB33
 10009 0120 00000000 		.4byte	.LFB34
 10010 0124 0C000000 		.4byte	.LFE34-.LFB34
 10011 0128 00000000 		.4byte	.LFB35
 10012 012c 0C000000 		.4byte	.LFE35-.LFB35
 10013 0130 00000000 		.4byte	.LFB36
 10014 0134 0C000000 		.4byte	.LFE36-.LFB36
 10015 0138 00000000 		.4byte	.LFB37
 10016 013c 0C000000 		.4byte	.LFE37-.LFB37
 10017 0140 00000000 		.4byte	.LFB38
 10018 0144 0C000000 		.4byte	.LFE38-.LFB38
 10019 0148 00000000 		.4byte	.LFB39
 10020 014c 0C000000 		.4byte	.LFE39-.LFB39
 10021 0150 00000000 		.4byte	.LFB40
 10022 0154 0C000000 		.4byte	.LFE40-.LFB40
 10023 0158 00000000 		.4byte	.LFB41
 10024 015c 0C000000 		.4byte	.LFE41-.LFB41
 10025 0160 00000000 		.4byte	.LFB42
 10026 0164 0C000000 		.4byte	.LFE42-.LFB42
 10027 0168 00000000 		.4byte	.LFB43
 10028 016c 0C000000 		.4byte	.LFE43-.LFB43
 10029 0170 00000000 		.4byte	.LFB44
 10030 0174 0C000000 		.4byte	.LFE44-.LFB44
 10031 0178 00000000 		.4byte	.LFB45
 10032 017c 0C000000 		.4byte	.LFE45-.LFB45
 10033 0180 00000000 		.4byte	.LFB46
 10034 0184 0C000000 		.4byte	.LFE46-.LFB46
 10035 0188 00000000 		.4byte	.LFB47
 10036 018c 0C000000 		.4byte	.LFE47-.LFB47
 10037 0190 00000000 		.4byte	.LFB48
 10038 0194 0C000000 		.4byte	.LFE48-.LFB48
 10039 0198 00000000 		.4byte	.LFB49
 10040 019c 0C000000 		.4byte	.LFE49-.LFB49
 10041 01a0 00000000 		.4byte	.LFB50
 10042 01a4 0C000000 		.4byte	.LFE50-.LFB50
 10043 01a8 00000000 		.4byte	.LFB51
 10044 01ac 0C000000 		.4byte	.LFE51-.LFB51
 10045 01b0 00000000 		.4byte	.LFB52
 10046 01b4 0C000000 		.4byte	.LFE52-.LFB52
 10047 01b8 00000000 		.4byte	.LFB53
 10048 01bc 0C000000 		.4byte	.LFE53-.LFB53
 10049 01c0 00000000 		.4byte	.LFB54
 10050 01c4 0C000000 		.4byte	.LFE54-.LFB54
 10051 01c8 00000000 		.4byte	.LFB55
 10052 01cc 0C000000 		.4byte	.LFE55-.LFB55
 10053 01d0 00000000 		.4byte	.LFB56
 10054 01d4 0C000000 		.4byte	.LFE56-.LFB56
 10055 01d8 00000000 		.4byte	.LFB57
ARM GAS  C:\Users\info\AppData\Local\Temp\ccfHjuLM.s 			page 200


 10056 01dc 0C000000 		.4byte	.LFE57-.LFB57
 10057 01e0 00000000 		.4byte	.LFB58
 10058 01e4 0C000000 		.4byte	.LFE58-.LFB58
 10059 01e8 00000000 		.4byte	.LFB59
 10060 01ec 0C000000 		.4byte	.LFE59-.LFB59
 10061 01f0 00000000 		.4byte	.LFB60
 10062 01f4 0C000000 		.4byte	.LFE60-.LFB60
 10063 01f8 00000000 		.4byte	.LFB61
 10064 01fc 0C000000 		.4byte	.LFE61-.LFB61
 10065 0200 00000000 		.4byte	.LFB62
 10066 0204 0C000000 		.4byte	.LFE62-.LFB62
 10067 0208 00000000 		.4byte	.LFB63
 10068 020c 0C000000 		.4byte	.LFE63-.LFB63
 10069 0210 00000000 		.4byte	.LFB64
 10070 0214 0C000000 		.4byte	.LFE64-.LFB64
 10071 0218 00000000 		.4byte	.LFB65
 10072 021c 0C000000 		.4byte	.LFE65-.LFB65
 10073 0220 00000000 		.4byte	.LFB66
 10074 0224 0C000000 		.4byte	.LFE66-.LFB66
 10075 0228 00000000 		.4byte	.LFB67
 10076 022c 0C000000 		.4byte	.LFE67-.LFB67
 10077 0230 00000000 		.4byte	.LFB68
 10078 0234 0C000000 		.4byte	.LFE68-.LFB68
 10079 0238 00000000 		.4byte	.LFB69
 10080 023c 0C000000 		.4byte	.LFE69-.LFB69
 10081 0240 00000000 		.4byte	.LFB70
 10082 0244 0C000000 		.4byte	.LFE70-.LFB70
 10083 0248 00000000 		.4byte	.LFB71
 10084 024c 0C000000 		.4byte	.LFE71-.LFB71
 10085 0250 00000000 		.4byte	.LFB72
 10086 0254 0C000000 		.4byte	.LFE72-.LFB72
 10087 0258 00000000 		.4byte	.LFB73
 10088 025c 0C000000 		.4byte	.LFE73-.LFB73
 10089 0260 00000000 		.4byte	.LFB74
 10090 0264 0C000000 		.4byte	.LFE74-.LFB74
 10091 0268 00000000 		.4byte	.LFB75
 10092 026c 0C000000 		.4byte	.LFE75-.LFB75
 10093 0270 00000000 		.4byte	.LFB76
 10094 0274 0C000000 		.4byte	.LFE76-.LFB76
 10095 0278 00000000 		.4byte	.LFB77
 10096 027c 0C000000 		.4byte	.LFE77-.LFB77
 10097 0280 00000000 		.4byte	.LFB78
 10098 0284 0C000000 		.4byte	.LFE78-.LFB78
 10099 0288 00000000 		.4byte	.LFB79
 10100 028c 0C000000 		.4byte	.LFE79-.LFB79
 10101 0290 00000000 		.4byte	.LFB80
 10102 0294 0C000000 		.4byte	.LFE80-.LFB80
 10103 0298 00000000 		.4byte	.LFB81
 10104 029c 0C000000 		.4byte	.LFE81-.LFB81
 10105 02a0 00000000 		.4byte	.LFB82
 10106 02a4 0C000000 		.4byte	.LFE82-.LFB82
 10107 02a8 00000000 		.4byte	.LFB83
 10108 02ac 0C000000 		.4byte	.LFE83-.LFB83
 10109 02b0 00000000 		.4byte	.LFB84
 10110 02b4 0C000000 		.4byte	.LFE84-.LFB84
 10111 02b8 00000000 		.4byte	.LFB85
 10112 02bc 0C000000 		.4byte	.LFE85-.LFB85
ARM GAS  C:\Users\info\AppData\Local\Temp\ccfHjuLM.s 			page 201


 10113 02c0 00000000 		.4byte	.LFB86
 10114 02c4 0C000000 		.4byte	.LFE86-.LFB86
 10115 02c8 00000000 		.4byte	.LFB87
 10116 02cc 0C000000 		.4byte	.LFE87-.LFB87
 10117 02d0 00000000 		.4byte	.LFB88
 10118 02d4 0C000000 		.4byte	.LFE88-.LFB88
 10119 02d8 00000000 		.4byte	.LFB89
 10120 02dc 0C000000 		.4byte	.LFE89-.LFB89
 10121 02e0 00000000 		.4byte	.LFB90
 10122 02e4 0C000000 		.4byte	.LFE90-.LFB90
 10123 02e8 00000000 		.4byte	.LFB91
 10124 02ec 0C000000 		.4byte	.LFE91-.LFB91
 10125 02f0 00000000 		.4byte	.LFB92
 10126 02f4 0C000000 		.4byte	.LFE92-.LFB92
 10127 02f8 00000000 		.4byte	.LFB93
 10128 02fc 0C000000 		.4byte	.LFE93-.LFB93
 10129 0300 00000000 		.4byte	.LFB94
 10130 0304 0C000000 		.4byte	.LFE94-.LFB94
 10131 0308 00000000 		.4byte	.LFB95
 10132 030c 0C000000 		.4byte	.LFE95-.LFB95
 10133 0310 00000000 		.4byte	.LFB96
 10134 0314 0C000000 		.4byte	.LFE96-.LFB96
 10135 0318 00000000 		.4byte	.LFB97
 10136 031c 0C000000 		.4byte	.LFE97-.LFB97
 10137 0320 00000000 		.4byte	.LFB98
 10138 0324 0C000000 		.4byte	.LFE98-.LFB98
 10139 0328 00000000 		.4byte	.LFB99
 10140 032c 0C000000 		.4byte	.LFE99-.LFB99
 10141 0330 00000000 		.4byte	.LFB100
 10142 0334 0C000000 		.4byte	.LFE100-.LFB100
 10143 0338 00000000 		.4byte	.LFB101
 10144 033c 0C000000 		.4byte	.LFE101-.LFB101
 10145 0340 00000000 		.4byte	.LFB102
 10146 0344 0C000000 		.4byte	.LFE102-.LFB102
 10147 0348 00000000 		.4byte	.LFB103
 10148 034c 0C000000 		.4byte	.LFE103-.LFB103
 10149 0350 00000000 		.4byte	.LFB104
 10150 0354 0C000000 		.4byte	.LFE104-.LFB104
 10151 0358 00000000 		.4byte	.LFB105
 10152 035c 0C000000 		.4byte	.LFE105-.LFB105
 10153 0360 00000000 		.4byte	.LFB106
 10154 0364 0C000000 		.4byte	.LFE106-.LFB106
 10155 0368 00000000 		.4byte	.LFB107
 10156 036c 0C000000 		.4byte	.LFE107-.LFB107
 10157 0370 00000000 		.4byte	.LFB108
 10158 0374 0C000000 		.4byte	.LFE108-.LFB108
 10159 0378 00000000 		.4byte	.LFB109
 10160 037c 0C000000 		.4byte	.LFE109-.LFB109
 10161 0380 00000000 		.4byte	.LFB110
 10162 0384 0C000000 		.4byte	.LFE110-.LFB110
 10163 0388 00000000 		.4byte	.LFB111
 10164 038c 0C000000 		.4byte	.LFE111-.LFB111
 10165 0390 00000000 		.4byte	.LFB112
 10166 0394 0C000000 		.4byte	.LFE112-.LFB112
 10167 0398 00000000 		.4byte	.LFB113
 10168 039c 0C000000 		.4byte	.LFE113-.LFB113
 10169 03a0 00000000 		.4byte	.LFB114
ARM GAS  C:\Users\info\AppData\Local\Temp\ccfHjuLM.s 			page 202


 10170 03a4 0C000000 		.4byte	.LFE114-.LFB114
 10171 03a8 00000000 		.4byte	.LFB115
 10172 03ac 0C000000 		.4byte	.LFE115-.LFB115
 10173 03b0 00000000 		.4byte	.LFB116
 10174 03b4 0C000000 		.4byte	.LFE116-.LFB116
 10175 03b8 00000000 		.4byte	.LFB117
 10176 03bc 0C000000 		.4byte	.LFE117-.LFB117
 10177 03c0 00000000 		.4byte	.LFB118
 10178 03c4 0C000000 		.4byte	.LFE118-.LFB118
 10179 03c8 00000000 		.4byte	.LFB119
 10180 03cc 0C000000 		.4byte	.LFE119-.LFB119
 10181 03d0 00000000 		.4byte	.LFB120
 10182 03d4 0C000000 		.4byte	.LFE120-.LFB120
 10183 03d8 00000000 		.4byte	.LFB121
 10184 03dc 0C000000 		.4byte	.LFE121-.LFB121
 10185 03e0 00000000 		.4byte	.LFB122
 10186 03e4 0C000000 		.4byte	.LFE122-.LFB122
 10187 03e8 00000000 		.4byte	.LFB123
 10188 03ec 0C000000 		.4byte	.LFE123-.LFB123
 10189 03f0 00000000 		.4byte	.LFB124
 10190 03f4 0C000000 		.4byte	.LFE124-.LFB124
 10191 03f8 00000000 		.4byte	.LFB125
 10192 03fc 0C000000 		.4byte	.LFE125-.LFB125
 10193 0400 00000000 		.4byte	.LFB126
 10194 0404 0C000000 		.4byte	.LFE126-.LFB126
 10195 0408 00000000 		.4byte	.LFB127
 10196 040c 0C000000 		.4byte	.LFE127-.LFB127
 10197 0410 00000000 		.4byte	.LFB128
 10198 0414 0C000000 		.4byte	.LFE128-.LFB128
 10199 0418 00000000 		.4byte	0
 10200 041c 00000000 		.4byte	0
 10201              		.section	.debug_ranges,"",%progbits
 10202              	.Ldebug_ranges0:
 10203 0000 00000000 		.4byte	.LFB0
 10204 0004 0C000000 		.4byte	.LFE0
 10205 0008 00000000 		.4byte	.LFB1
 10206 000c 0C000000 		.4byte	.LFE1
 10207 0010 00000000 		.4byte	.LFB2
 10208 0014 0C000000 		.4byte	.LFE2
 10209 0018 00000000 		.4byte	.LFB3
 10210 001c 0C000000 		.4byte	.LFE3
 10211 0020 00000000 		.4byte	.LFB4
 10212 0024 0C000000 		.4byte	.LFE4
 10213 0028 00000000 		.4byte	.LFB5
 10214 002c 0C000000 		.4byte	.LFE5
 10215 0030 00000000 		.4byte	.LFB6
 10216 0034 0C000000 		.4byte	.LFE6
 10217 0038 00000000 		.4byte	.LFB7
 10218 003c 0C000000 		.4byte	.LFE7
 10219 0040 00000000 		.4byte	.LFB8
 10220 0044 0C000000 		.4byte	.LFE8
 10221 0048 00000000 		.4byte	.LFB9
 10222 004c 0C000000 		.4byte	.LFE9
 10223 0050 00000000 		.4byte	.LFB10
 10224 0054 0C000000 		.4byte	.LFE10
 10225 0058 00000000 		.4byte	.LFB11
 10226 005c 0C000000 		.4byte	.LFE11
ARM GAS  C:\Users\info\AppData\Local\Temp\ccfHjuLM.s 			page 203


 10227 0060 00000000 		.4byte	.LFB12
 10228 0064 0C000000 		.4byte	.LFE12
 10229 0068 00000000 		.4byte	.LFB13
 10230 006c 0C000000 		.4byte	.LFE13
 10231 0070 00000000 		.4byte	.LFB14
 10232 0074 0C000000 		.4byte	.LFE14
 10233 0078 00000000 		.4byte	.LFB15
 10234 007c 0C000000 		.4byte	.LFE15
 10235 0080 00000000 		.4byte	.LFB16
 10236 0084 0C000000 		.4byte	.LFE16
 10237 0088 00000000 		.4byte	.LFB17
 10238 008c 0C000000 		.4byte	.LFE17
 10239 0090 00000000 		.4byte	.LFB18
 10240 0094 0C000000 		.4byte	.LFE18
 10241 0098 00000000 		.4byte	.LFB19
 10242 009c 0C000000 		.4byte	.LFE19
 10243 00a0 00000000 		.4byte	.LFB20
 10244 00a4 0C000000 		.4byte	.LFE20
 10245 00a8 00000000 		.4byte	.LFB21
 10246 00ac 0C000000 		.4byte	.LFE21
 10247 00b0 00000000 		.4byte	.LFB22
 10248 00b4 0C000000 		.4byte	.LFE22
 10249 00b8 00000000 		.4byte	.LFB23
 10250 00bc 0C000000 		.4byte	.LFE23
 10251 00c0 00000000 		.4byte	.LFB24
 10252 00c4 0C000000 		.4byte	.LFE24
 10253 00c8 00000000 		.4byte	.LFB25
 10254 00cc 0C000000 		.4byte	.LFE25
 10255 00d0 00000000 		.4byte	.LFB26
 10256 00d4 0C000000 		.4byte	.LFE26
 10257 00d8 00000000 		.4byte	.LFB27
 10258 00dc 0C000000 		.4byte	.LFE27
 10259 00e0 00000000 		.4byte	.LFB28
 10260 00e4 0C000000 		.4byte	.LFE28
 10261 00e8 00000000 		.4byte	.LFB29
 10262 00ec 0C000000 		.4byte	.LFE29
 10263 00f0 00000000 		.4byte	.LFB30
 10264 00f4 0C000000 		.4byte	.LFE30
 10265 00f8 00000000 		.4byte	.LFB31
 10266 00fc 0C000000 		.4byte	.LFE31
 10267 0100 00000000 		.4byte	.LFB32
 10268 0104 0C000000 		.4byte	.LFE32
 10269 0108 00000000 		.4byte	.LFB33
 10270 010c 0C000000 		.4byte	.LFE33
 10271 0110 00000000 		.4byte	.LFB34
 10272 0114 0C000000 		.4byte	.LFE34
 10273 0118 00000000 		.4byte	.LFB35
 10274 011c 0C000000 		.4byte	.LFE35
 10275 0120 00000000 		.4byte	.LFB36
 10276 0124 0C000000 		.4byte	.LFE36
 10277 0128 00000000 		.4byte	.LFB37
 10278 012c 0C000000 		.4byte	.LFE37
 10279 0130 00000000 		.4byte	.LFB38
 10280 0134 0C000000 		.4byte	.LFE38
 10281 0138 00000000 		.4byte	.LFB39
 10282 013c 0C000000 		.4byte	.LFE39
 10283 0140 00000000 		.4byte	.LFB40
ARM GAS  C:\Users\info\AppData\Local\Temp\ccfHjuLM.s 			page 204


 10284 0144 0C000000 		.4byte	.LFE40
 10285 0148 00000000 		.4byte	.LFB41
 10286 014c 0C000000 		.4byte	.LFE41
 10287 0150 00000000 		.4byte	.LFB42
 10288 0154 0C000000 		.4byte	.LFE42
 10289 0158 00000000 		.4byte	.LFB43
 10290 015c 0C000000 		.4byte	.LFE43
 10291 0160 00000000 		.4byte	.LFB44
 10292 0164 0C000000 		.4byte	.LFE44
 10293 0168 00000000 		.4byte	.LFB45
 10294 016c 0C000000 		.4byte	.LFE45
 10295 0170 00000000 		.4byte	.LFB46
 10296 0174 0C000000 		.4byte	.LFE46
 10297 0178 00000000 		.4byte	.LFB47
 10298 017c 0C000000 		.4byte	.LFE47
 10299 0180 00000000 		.4byte	.LFB48
 10300 0184 0C000000 		.4byte	.LFE48
 10301 0188 00000000 		.4byte	.LFB49
 10302 018c 0C000000 		.4byte	.LFE49
 10303 0190 00000000 		.4byte	.LFB50
 10304 0194 0C000000 		.4byte	.LFE50
 10305 0198 00000000 		.4byte	.LFB51
 10306 019c 0C000000 		.4byte	.LFE51
 10307 01a0 00000000 		.4byte	.LFB52
 10308 01a4 0C000000 		.4byte	.LFE52
 10309 01a8 00000000 		.4byte	.LFB53
 10310 01ac 0C000000 		.4byte	.LFE53
 10311 01b0 00000000 		.4byte	.LFB54
 10312 01b4 0C000000 		.4byte	.LFE54
 10313 01b8 00000000 		.4byte	.LFB55
 10314 01bc 0C000000 		.4byte	.LFE55
 10315 01c0 00000000 		.4byte	.LFB56
 10316 01c4 0C000000 		.4byte	.LFE56
 10317 01c8 00000000 		.4byte	.LFB57
 10318 01cc 0C000000 		.4byte	.LFE57
 10319 01d0 00000000 		.4byte	.LFB58
 10320 01d4 0C000000 		.4byte	.LFE58
 10321 01d8 00000000 		.4byte	.LFB59
 10322 01dc 0C000000 		.4byte	.LFE59
 10323 01e0 00000000 		.4byte	.LFB60
 10324 01e4 0C000000 		.4byte	.LFE60
 10325 01e8 00000000 		.4byte	.LFB61
 10326 01ec 0C000000 		.4byte	.LFE61
 10327 01f0 00000000 		.4byte	.LFB62
 10328 01f4 0C000000 		.4byte	.LFE62
 10329 01f8 00000000 		.4byte	.LFB63
 10330 01fc 0C000000 		.4byte	.LFE63
 10331 0200 00000000 		.4byte	.LFB64
 10332 0204 0C000000 		.4byte	.LFE64
 10333 0208 00000000 		.4byte	.LFB65
 10334 020c 0C000000 		.4byte	.LFE65
 10335 0210 00000000 		.4byte	.LFB66
 10336 0214 0C000000 		.4byte	.LFE66
 10337 0218 00000000 		.4byte	.LFB67
 10338 021c 0C000000 		.4byte	.LFE67
 10339 0220 00000000 		.4byte	.LFB68
 10340 0224 0C000000 		.4byte	.LFE68
ARM GAS  C:\Users\info\AppData\Local\Temp\ccfHjuLM.s 			page 205


 10341 0228 00000000 		.4byte	.LFB69
 10342 022c 0C000000 		.4byte	.LFE69
 10343 0230 00000000 		.4byte	.LFB70
 10344 0234 0C000000 		.4byte	.LFE70
 10345 0238 00000000 		.4byte	.LFB71
 10346 023c 0C000000 		.4byte	.LFE71
 10347 0240 00000000 		.4byte	.LFB72
 10348 0244 0C000000 		.4byte	.LFE72
 10349 0248 00000000 		.4byte	.LFB73
 10350 024c 0C000000 		.4byte	.LFE73
 10351 0250 00000000 		.4byte	.LFB74
 10352 0254 0C000000 		.4byte	.LFE74
 10353 0258 00000000 		.4byte	.LFB75
 10354 025c 0C000000 		.4byte	.LFE75
 10355 0260 00000000 		.4byte	.LFB76
 10356 0264 0C000000 		.4byte	.LFE76
 10357 0268 00000000 		.4byte	.LFB77
 10358 026c 0C000000 		.4byte	.LFE77
 10359 0270 00000000 		.4byte	.LFB78
 10360 0274 0C000000 		.4byte	.LFE78
 10361 0278 00000000 		.4byte	.LFB79
 10362 027c 0C000000 		.4byte	.LFE79
 10363 0280 00000000 		.4byte	.LFB80
 10364 0284 0C000000 		.4byte	.LFE80
 10365 0288 00000000 		.4byte	.LFB81
 10366 028c 0C000000 		.4byte	.LFE81
 10367 0290 00000000 		.4byte	.LFB82
 10368 0294 0C000000 		.4byte	.LFE82
 10369 0298 00000000 		.4byte	.LFB83
 10370 029c 0C000000 		.4byte	.LFE83
 10371 02a0 00000000 		.4byte	.LFB84
 10372 02a4 0C000000 		.4byte	.LFE84
 10373 02a8 00000000 		.4byte	.LFB85
 10374 02ac 0C000000 		.4byte	.LFE85
 10375 02b0 00000000 		.4byte	.LFB86
 10376 02b4 0C000000 		.4byte	.LFE86
 10377 02b8 00000000 		.4byte	.LFB87
 10378 02bc 0C000000 		.4byte	.LFE87
 10379 02c0 00000000 		.4byte	.LFB88
 10380 02c4 0C000000 		.4byte	.LFE88
 10381 02c8 00000000 		.4byte	.LFB89
 10382 02cc 0C000000 		.4byte	.LFE89
 10383 02d0 00000000 		.4byte	.LFB90
 10384 02d4 0C000000 		.4byte	.LFE90
 10385 02d8 00000000 		.4byte	.LFB91
 10386 02dc 0C000000 		.4byte	.LFE91
 10387 02e0 00000000 		.4byte	.LFB92
 10388 02e4 0C000000 		.4byte	.LFE92
 10389 02e8 00000000 		.4byte	.LFB93
 10390 02ec 0C000000 		.4byte	.LFE93
 10391 02f0 00000000 		.4byte	.LFB94
 10392 02f4 0C000000 		.4byte	.LFE94
 10393 02f8 00000000 		.4byte	.LFB95
 10394 02fc 0C000000 		.4byte	.LFE95
 10395 0300 00000000 		.4byte	.LFB96
 10396 0304 0C000000 		.4byte	.LFE96
 10397 0308 00000000 		.4byte	.LFB97
ARM GAS  C:\Users\info\AppData\Local\Temp\ccfHjuLM.s 			page 206


 10398 030c 0C000000 		.4byte	.LFE97
 10399 0310 00000000 		.4byte	.LFB98
 10400 0314 0C000000 		.4byte	.LFE98
 10401 0318 00000000 		.4byte	.LFB99
 10402 031c 0C000000 		.4byte	.LFE99
 10403 0320 00000000 		.4byte	.LFB100
 10404 0324 0C000000 		.4byte	.LFE100
 10405 0328 00000000 		.4byte	.LFB101
 10406 032c 0C000000 		.4byte	.LFE101
 10407 0330 00000000 		.4byte	.LFB102
 10408 0334 0C000000 		.4byte	.LFE102
 10409 0338 00000000 		.4byte	.LFB103
 10410 033c 0C000000 		.4byte	.LFE103
 10411 0340 00000000 		.4byte	.LFB104
 10412 0344 0C000000 		.4byte	.LFE104
 10413 0348 00000000 		.4byte	.LFB105
 10414 034c 0C000000 		.4byte	.LFE105
 10415 0350 00000000 		.4byte	.LFB106
 10416 0354 0C000000 		.4byte	.LFE106
 10417 0358 00000000 		.4byte	.LFB107
 10418 035c 0C000000 		.4byte	.LFE107
 10419 0360 00000000 		.4byte	.LFB108
 10420 0364 0C000000 		.4byte	.LFE108
 10421 0368 00000000 		.4byte	.LFB109
 10422 036c 0C000000 		.4byte	.LFE109
 10423 0370 00000000 		.4byte	.LFB110
 10424 0374 0C000000 		.4byte	.LFE110
 10425 0378 00000000 		.4byte	.LFB111
 10426 037c 0C000000 		.4byte	.LFE111
 10427 0380 00000000 		.4byte	.LFB112
 10428 0384 0C000000 		.4byte	.LFE112
 10429 0388 00000000 		.4byte	.LFB113
 10430 038c 0C000000 		.4byte	.LFE113
 10431 0390 00000000 		.4byte	.LFB114
 10432 0394 0C000000 		.4byte	.LFE114
 10433 0398 00000000 		.4byte	.LFB115
 10434 039c 0C000000 		.4byte	.LFE115
 10435 03a0 00000000 		.4byte	.LFB116
 10436 03a4 0C000000 		.4byte	.LFE116
 10437 03a8 00000000 		.4byte	.LFB117
 10438 03ac 0C000000 		.4byte	.LFE117
 10439 03b0 00000000 		.4byte	.LFB118
 10440 03b4 0C000000 		.4byte	.LFE118
 10441 03b8 00000000 		.4byte	.LFB119
 10442 03bc 0C000000 		.4byte	.LFE119
 10443 03c0 00000000 		.4byte	.LFB120
 10444 03c4 0C000000 		.4byte	.LFE120
 10445 03c8 00000000 		.4byte	.LFB121
 10446 03cc 0C000000 		.4byte	.LFE121
 10447 03d0 00000000 		.4byte	.LFB122
 10448 03d4 0C000000 		.4byte	.LFE122
 10449 03d8 00000000 		.4byte	.LFB123
 10450 03dc 0C000000 		.4byte	.LFE123
 10451 03e0 00000000 		.4byte	.LFB124
 10452 03e4 0C000000 		.4byte	.LFE124
 10453 03e8 00000000 		.4byte	.LFB125
 10454 03ec 0C000000 		.4byte	.LFE125
ARM GAS  C:\Users\info\AppData\Local\Temp\ccfHjuLM.s 			page 207


 10455 03f0 00000000 		.4byte	.LFB126
 10456 03f4 0C000000 		.4byte	.LFE126
 10457 03f8 00000000 		.4byte	.LFB127
 10458 03fc 0C000000 		.4byte	.LFE127
 10459 0400 00000000 		.4byte	.LFB128
 10460 0404 0C000000 		.4byte	.LFE128
 10461 0408 00000000 		.4byte	0
 10462 040c 00000000 		.4byte	0
 10463              		.section	.debug_line,"",%progbits
 10464              	.Ldebug_line0:
 10465 0000 430A0000 		.section	.debug_str,"MS",%progbits,1
 10465      02003701 
 10465      00000201 
 10465      FB0E0D00 
 10465      01010101 
 10466              	.LASF124:
 10467 0000 75386732 		.ascii	"u8g2_m_22_9_f\000"
 10467      5F6D5F32 
 10467      325F395F 
 10467      6600
 10468              	.LASF91:
 10469 000e 75386732 		.ascii	"u8g2_m_20_13_f\000"
 10469      5F6D5F32 
 10469      305F3133 
 10469      5F6600
 10470              	.LASF52:
 10471 001d 75386732 		.ascii	"u8g2_m_16_12_f\000"
 10471      5F6D5F31 
 10471      365F3132 
 10471      5F6600
 10472              	.LASF55:
 10473 002c 75386732 		.ascii	"u8g2_m_32_4_f\000"
 10473      5F6D5F33 
 10473      325F345F 
 10473      6600
 10474              	.LASF132:
 10475 003a 75386732 		.ascii	"u8g2_m_8_1_2\000"
 10475      5F6D5F38 
 10475      5F315F32 
 10475      00
 10476              	.LASF22:
 10477 0047 75386732 		.ascii	"u8g2_m_9_5_f\000"
 10477      5F6D5F39 
 10477      5F355F66 
 10477      00
 10478              	.LASF47:
 10479 0054 75386732 		.ascii	"u8g2_m_12_2_1\000"
 10479      5F6D5F31 
 10479      325F325F 
 10479      3100
 10480              	.LASF48:
 10481 0062 75386732 		.ascii	"u8g2_m_12_2_2\000"
 10481      5F6D5F31 
 10481      325F325F 
 10481      3200
 10482              	.LASF79:
 10483 0070 75386732 		.ascii	"u8g2_m_30_8_f\000"
ARM GAS  C:\Users\info\AppData\Local\Temp\ccfHjuLM.s 			page 208


 10483      5F6D5F33 
 10483      305F385F 
 10483      6600
 10484              	.LASF9:
 10485 007e 5F5F7569 		.ascii	"__uint8_t\000"
 10485      6E74385F 
 10485      7400
 10486              	.LASF56:
 10487 0088 75386732 		.ascii	"u8g2_m_24_4_1\000"
 10487      5F6D5F32 
 10487      345F345F 
 10487      3100
 10488              	.LASF57:
 10489 0096 75386732 		.ascii	"u8g2_m_24_4_2\000"
 10489      5F6D5F32 
 10489      345F345F 
 10489      3200
 10490              	.LASF109:
 10491 00a4 75386732 		.ascii	"u8g2_m_32_16_f\000"
 10491      5F6D5F33 
 10491      325F3136 
 10491      5F6600
 10492              	.LASF7:
 10493 00b3 6C6F6E67 		.ascii	"long long unsigned int\000"
 10493      206C6F6E 
 10493      6720756E 
 10493      7369676E 
 10493      65642069 
 10494              	.LASF104:
 10495 00ca 75386732 		.ascii	"u8g2_m_48_17_1\000"
 10495      5F6D5F34 
 10495      385F3137 
 10495      5F3100
 10496              	.LASF105:
 10497 00d9 75386732 		.ascii	"u8g2_m_48_17_2\000"
 10497      5F6D5F34 
 10497      385F3137 
 10497      5F3200
 10498              	.LASF101:
 10499 00e8 75386732 		.ascii	"u8g2_m_17_8_1\000"
 10499      5F6D5F31 
 10499      375F385F 
 10499      3100
 10500              	.LASF102:
 10501 00f6 75386732 		.ascii	"u8g2_m_17_8_2\000"
 10501      5F6D5F31 
 10501      375F385F 
 10501      3200
 10502              	.LASF141:
 10503 0104 75386732 		.ascii	"u8g2_m_48_30_2\000"
 10503      5F6D5F34 
 10503      385F3330 
 10503      5F3200
 10504              	.LASF41:
 10505 0113 75386732 		.ascii	"u8g2_m_8_6_1\000"
 10505      5F6D5F38 
 10505      5F365F31 
ARM GAS  C:\Users\info\AppData\Local\Temp\ccfHjuLM.s 			page 209


 10505      00
 10506              	.LASF42:
 10507 0120 75386732 		.ascii	"u8g2_m_8_6_2\000"
 10507      5F6D5F38 
 10507      5F365F32 
 10507      00
 10508              	.LASF26:
 10509 012d 75386732 		.ascii	"u8g2_m_8_16_1\000"
 10509      5F6D5F38 
 10509      5F31365F 
 10509      3100
 10510              	.LASF27:
 10511 013b 75386732 		.ascii	"u8g2_m_8_16_2\000"
 10511      5F6D5F38 
 10511      5F31365F 
 10511      3200
 10512              	.LASF133:
 10513 0149 75386732 		.ascii	"u8g2_m_8_1_f\000"
 10513      5F6D5F38 
 10513      5F315F66 
 10513      00
 10514              	.LASF140:
 10515 0156 75386732 		.ascii	"u8g2_m_48_30_1\000"
 10515      5F6D5F34 
 10515      385F3330 
 10515      5F3100
 10516              	.LASF6:
 10517 0165 6C6F6E67 		.ascii	"long long int\000"
 10517      206C6F6E 
 10517      6720696E 
 10517      7400
 10518              	.LASF0:
 10519 0173 7369676E 		.ascii	"signed char\000"
 10519      65642063 
 10519      68617200 
 10520              	.LASF49:
 10521 017f 75386732 		.ascii	"u8g2_m_12_2_f\000"
 10521      5F6D5F31 
 10521      325F325F 
 10521      6600
 10522              	.LASF116:
 10523 018d 75386732 		.ascii	"u8g2_m_24_12_1\000"
 10523      5F6D5F32 
 10523      345F3132 
 10523      5F3100
 10524              	.LASF117:
 10525 019c 75386732 		.ascii	"u8g2_m_24_12_2\000"
 10525      5F6D5F32 
 10525      345F3132 
 10525      5F3200
 10526              	.LASF58:
 10527 01ab 75386732 		.ascii	"u8g2_m_24_4_f\000"
 10527      5F6D5F32 
 10527      345F345F 
 10527      6600
 10528              	.LASF129:
 10529 01b9 75386732 		.ascii	"u8g2_m_37_16_2\000"
ARM GAS  C:\Users\info\AppData\Local\Temp\ccfHjuLM.s 			page 210


 10529      5F6D5F33 
 10529      375F3136 
 10529      5F3200
 10530              	.LASF32:
 10531 01c8 75386732 		.ascii	"u8g2_m_16_16_1\000"
 10531      5F6D5F31 
 10531      365F3136 
 10531      5F3100
 10532              	.LASF33:
 10533 01d7 75386732 		.ascii	"u8g2_m_16_16_2\000"
 10533      5F6D5F31 
 10533      365F3136 
 10533      5F3200
 10534              	.LASF4:
 10535 01e6 6C6F6E67 		.ascii	"long int\000"
 10535      20696E74 
 10535      00
 10536              	.LASF13:
 10537 01ef 75386732 		.ascii	"u8g2_m_16_4_1\000"
 10537      5F6D5F31 
 10537      365F345F 
 10537      3100
 10538              	.LASF14:
 10539 01fd 75386732 		.ascii	"u8g2_m_16_4_2\000"
 10539      5F6D5F31 
 10539      365F345F 
 10539      3200
 10540              	.LASF106:
 10541 020b 75386732 		.ascii	"u8g2_m_48_17_f\000"
 10541      5F6D5F34 
 10541      385F3137 
 10541      5F6600
 10542              	.LASF38:
 10543 021a 75386732 		.ascii	"u8g2_m_32_8_1\000"
 10543      5F6D5F33 
 10543      325F385F 
 10543      3100
 10544              	.LASF39:
 10545 0228 75386732 		.ascii	"u8g2_m_32_8_2\000"
 10545      5F6D5F33 
 10545      325F385F 
 10545      3200
 10546              	.LASF103:
 10547 0236 75386732 		.ascii	"u8g2_m_17_8_f\000"
 10547      5F6D5F31 
 10547      375F385F 
 10547      6600
 10548              	.LASF62:
 10549 0244 75386732 		.ascii	"u8g2_m_18_21_1\000"
 10549      5F6D5F31 
 10549      385F3231 
 10549      5F3100
 10550              	.LASF63:
 10551 0253 75386732 		.ascii	"u8g2_m_18_21_2\000"
 10551      5F6D5F31 
 10551      385F3231 
 10551      5F3200
ARM GAS  C:\Users\info\AppData\Local\Temp\ccfHjuLM.s 			page 211


 10552              	.LASF43:
 10553 0262 75386732 		.ascii	"u8g2_m_8_6_f\000"
 10553      5F6D5F38 
 10553      5F365F66 
 10553      00
 10554              	.LASF28:
 10555 026f 75386732 		.ascii	"u8g2_m_8_16_f\000"
 10555      5F6D5F38 
 10555      5F31365F 
 10555      6600
 10556              	.LASF80:
 10557 027d 75386732 		.ascii	"u8g2_m_30_15_1\000"
 10557      5F6D5F33 
 10557      305F3135 
 10557      5F3100
 10558              	.LASF142:
 10559 028c 75386732 		.ascii	"u8g2_m_48_30_f\000"
 10559      5F6D5F34 
 10559      385F3330 
 10559      5F6600
 10560              	.LASF81:
 10561 029b 75386732 		.ascii	"u8g2_m_30_15_2\000"
 10561      5F6D5F33 
 10561      305F3135 
 10561      5F3200
 10562              	.LASF95:
 10563 02aa 75386732 		.ascii	"u8g2_m_40_30_1\000"
 10563      5F6D5F34 
 10563      305F3330 
 10563      5F3100
 10564              	.LASF96:
 10565 02b9 75386732 		.ascii	"u8g2_m_40_30_2\000"
 10565      5F6D5F34 
 10565      305F3330 
 10565      5F3200
 10566              	.LASF127:
 10567 02c8 75386732 		.ascii	"u8g2_m_25_25_f\000"
 10567      5F6D5F32 
 10567      355F3235 
 10567      5F6600
 10568              	.LASF34:
 10569 02d7 75386732 		.ascii	"u8g2_m_16_16_f\000"
 10569      5F6D5F31 
 10569      365F3136 
 10569      5F6600
 10570              	.LASF16:
 10571 02e6 75386732 		.ascii	"u8g2_m_16_4_f\000"
 10571      5F6D5F31 
 10571      365F345F 
 10571      6600
 10572              	.LASF120:
 10573 02f4 75386732 		.ascii	"u8g2_m_20_10_2\000"
 10573      5F6D5F32 
 10573      305F3130 
 10573      5F3200
 10574              	.LASF40:
 10575 0303 75386732 		.ascii	"u8g2_m_32_8_f\000"
ARM GAS  C:\Users\info\AppData\Local\Temp\ccfHjuLM.s 			page 212


 10575      5F6D5F33 
 10575      325F385F 
 10575      6600
 10576              	.LASF90:
 10577 0311 75386732 		.ascii	"u8g2_m_20_13_2\000"
 10577      5F6D5F32 
 10577      305F3133 
 10577      5F3200
 10578              	.LASF8:
 10579 0320 756E7369 		.ascii	"unsigned int\000"
 10579      676E6564 
 10579      20696E74 
 10579      00
 10580              	.LASF64:
 10581 032d 75386732 		.ascii	"u8g2_m_18_21_f\000"
 10581      5F6D5F31 
 10581      385F3231 
 10581      5F6600
 10582              	.LASF74:
 10583 033c 75386732 		.ascii	"u8g2_m_24_8_1\000"
 10583      5F6D5F32 
 10583      345F385F 
 10583      3100
 10584              	.LASF35:
 10585 034a 75386732 		.ascii	"u8g2_m_20_20_1\000"
 10585      5F6D5F32 
 10585      305F3230 
 10585      5F3100
 10586              	.LASF36:
 10587 0359 75386732 		.ascii	"u8g2_m_20_20_2\000"
 10587      5F6D5F32 
 10587      305F3230 
 10587      5F3200
 10588              	.LASF125:
 10589 0368 75386732 		.ascii	"u8g2_m_25_25_1\000"
 10589      5F6D5F32 
 10589      355F3235 
 10589      5F3100
 10590              	.LASF126:
 10591 0377 75386732 		.ascii	"u8g2_m_25_25_2\000"
 10591      5F6D5F32 
 10591      355F3235 
 10591      5F3200
 10592              	.LASF5:
 10593 0386 6C6F6E67 		.ascii	"long unsigned int\000"
 10593      20756E73 
 10593      69676E65 
 10593      6420696E 
 10593      7400
 10594              	.LASF97:
 10595 0398 75386732 		.ascii	"u8g2_m_40_30_f\000"
 10595      5F6D5F34 
 10595      305F3330 
 10595      5F6600
 10596              	.LASF86:
 10597 03a7 75386732 		.ascii	"u8g2_m_20_16_1\000"
 10597      5F6D5F32 
ARM GAS  C:\Users\info\AppData\Local\Temp\ccfHjuLM.s 			page 213


 10597      305F3136 
 10597      5F3100
 10598              	.LASF87:
 10599 03b6 75386732 		.ascii	"u8g2_m_20_16_2\000"
 10599      5F6D5F32 
 10599      305F3136 
 10599      5F3200
 10600              	.LASF130:
 10601 03c5 75386732 		.ascii	"u8g2_m_37_16_f\000"
 10601      5F6D5F33 
 10601      375F3136 
 10601      5F6600
 10602              	.LASF3:
 10603 03d4 73686F72 		.ascii	"short unsigned int\000"
 10603      7420756E 
 10603      7369676E 
 10603      65642069 
 10603      6E7400
 10604              	.LASF110:
 10605 03e7 75386732 		.ascii	"u8g2_m_32_20_1\000"
 10605      5F6D5F33 
 10605      325F3230 
 10605      5F3100
 10606              	.LASF111:
 10607 03f6 75386732 		.ascii	"u8g2_m_32_20_2\000"
 10607      5F6D5F33 
 10607      325F3230 
 10607      5F3200
 10608              	.LASF107:
 10609 0405 75386732 		.ascii	"u8g2_m_32_16_1\000"
 10609      5F6D5F33 
 10609      325F3136 
 10609      5F3100
 10610              	.LASF108:
 10611 0414 75386732 		.ascii	"u8g2_m_32_16_2\000"
 10611      5F6D5F33 
 10611      325F3136 
 10611      5F3200
 10612              	.LASF76:
 10613 0423 75386732 		.ascii	"u8g2_m_24_8_f\000"
 10613      5F6D5F32 
 10613      345F385F 
 10613      6600
 10614              	.LASF37:
 10615 0431 75386732 		.ascii	"u8g2_m_20_20_f\000"
 10615      5F6D5F32 
 10615      305F3230 
 10615      5F6600
 10616              	.LASF119:
 10617 0440 75386732 		.ascii	"u8g2_m_20_10_1\000"
 10617      5F6D5F32 
 10617      305F3130 
 10617      5F3100
 10618              	.LASF82:
 10619 044f 75386732 		.ascii	"u8g2_m_30_15_f\000"
 10619      5F6D5F33 
 10619      305F3135 
ARM GAS  C:\Users\info\AppData\Local\Temp\ccfHjuLM.s 			page 214


 10619      5F6600
 10620              	.LASF113:
 10621 045e 75386732 		.ascii	"u8g2_m_22_13_1\000"
 10621      5F6D5F32 
 10621      325F3133 
 10621      5F3100
 10622              	.LASF114:
 10623 046d 75386732 		.ascii	"u8g2_m_22_13_2\000"
 10623      5F6D5F32 
 10623      325F3133 
 10623      5F3200
 10624              	.LASF88:
 10625 047c 75386732 		.ascii	"u8g2_m_20_16_f\000"
 10625      5F6D5F32 
 10625      305F3136 
 10625      5F6600
 10626              	.LASF17:
 10627 048b 75386732 		.ascii	"u8g2_m_16_8_1\000"
 10627      5F6D5F31 
 10627      365F385F 
 10627      3100
 10628              	.LASF18:
 10629 0499 75386732 		.ascii	"u8g2_m_16_8_2\000"
 10629      5F6D5F31 
 10629      365F385F 
 10629      3200
 10630              	.LASF23:
 10631 04a7 75386732 		.ascii	"u8g2_m_8_4_1\000"
 10631      5F6D5F38 
 10631      5F345F31 
 10631      00
 10632              	.LASF24:
 10633 04b4 75386732 		.ascii	"u8g2_m_8_4_2\000"
 10633      5F6D5F38 
 10633      5F345F32 
 10633      00
 10634              	.LASF12:
 10635 04c1 73697A65 		.ascii	"sizetype\000"
 10635      74797065 
 10635      00
 10636              	.LASF112:
 10637 04ca 75386732 		.ascii	"u8g2_m_32_20_f\000"
 10637      5F6D5F33 
 10637      325F3230 
 10637      5F6600
 10638              	.LASF44:
 10639 04d9 75386732 		.ascii	"u8g2_m_6_8_1\000"
 10639      5F6D5F36 
 10639      5F385F31 
 10639      00
 10640              	.LASF45:
 10641 04e6 75386732 		.ascii	"u8g2_m_6_8_2\000"
 10641      5F6D5F36 
 10641      5F385F32 
 10641      00
 10642              	.LASF11:
 10643 04f3 6C6F6E67 		.ascii	"long double\000"
ARM GAS  C:\Users\info\AppData\Local\Temp\ccfHjuLM.s 			page 215


 10643      20646F75 
 10643      626C6500 
 10644              	.LASF134:
 10645 04ff 75386732 		.ascii	"u8g2_m_4_1_1\000"
 10645      5F6D5F34 
 10645      5F315F31 
 10645      00
 10646              	.LASF135:
 10647 050c 75386732 		.ascii	"u8g2_m_4_1_2\000"
 10647      5F6D5F34 
 10647      5F315F32 
 10647      00
 10648              	.LASF68:
 10649 0519 75386732 		.ascii	"u8g2_m_11_6_1\000"
 10649      5F6D5F31 
 10649      315F365F 
 10649      3100
 10650              	.LASF75:
 10651 0527 75386732 		.ascii	"u8g2_m_24_8_2\000"
 10651      5F6D5F32 
 10651      345F385F 
 10651      3200
 10652              	.LASF121:
 10653 0535 75386732 		.ascii	"u8g2_m_20_10_f\000"
 10653      5F6D5F32 
 10653      305F3130 
 10653      5F6600
 10654              	.LASF115:
 10655 0544 75386732 		.ascii	"u8g2_m_22_13_f\000"
 10655      5F6D5F32 
 10655      325F3133 
 10655      5F6600
 10656              	.LASF19:
 10657 0553 75386732 		.ascii	"u8g2_m_16_8_f\000"
 10657      5F6D5F31 
 10657      365F385F 
 10657      6600
 10658              	.LASF65:
 10659 0561 75386732 		.ascii	"u8g2_m_13_8_1\000"
 10659      5F6D5F31 
 10659      335F385F 
 10659      3100
 10660              	.LASF66:
 10661 056f 75386732 		.ascii	"u8g2_m_13_8_2\000"
 10661      5F6D5F31 
 10661      335F385F 
 10661      3200
 10662              	.LASF25:
 10663 057d 75386732 		.ascii	"u8g2_m_8_4_f\000"
 10663      5F6D5F38 
 10663      5F345F66 
 10663      00
 10664              	.LASF46:
 10665 058a 75386732 		.ascii	"u8g2_m_6_8_f\000"
 10665      5F6D5F36 
 10665      5F385F66 
 10665      00
ARM GAS  C:\Users\info\AppData\Local\Temp\ccfHjuLM.s 			page 216


 10666              	.LASF136:
 10667 0597 75386732 		.ascii	"u8g2_m_4_1_f\000"
 10667      5F6D5F34 
 10667      5F315F66 
 10667      00
 10668              	.LASF137:
 10669 05a4 75386732 		.ascii	"u8g2_m_1_1_1\000"
 10669      5F6D5F31 
 10669      5F315F31 
 10669      00
 10670              	.LASF138:
 10671 05b1 75386732 		.ascii	"u8g2_m_1_1_2\000"
 10671      5F6D5F31 
 10671      5F315F32 
 10671      00
 10672              	.LASF1:
 10673 05be 756E7369 		.ascii	"unsigned char\000"
 10673      676E6564 
 10673      20636861 
 10673      7200
 10674              	.LASF2:
 10675 05cc 73686F72 		.ascii	"short int\000"
 10675      7420696E 
 10675      7400
 10676              	.LASF67:
 10677 05d6 75386732 		.ascii	"u8g2_m_13_8_f\000"
 10677      5F6D5F31 
 10677      335F385F 
 10677      6600
 10678              	.LASF69:
 10679 05e4 75386732 		.ascii	"u8g2_m_11_6_2\000"
 10679      5F6D5F31 
 10679      315F365F 
 10679      3200
 10680              	.LASF145:
 10681 05f2 433A5C55 		.ascii	"C:\\Users\\info\\Desktop\\Spring 2019 Classes\\6.11"
 10681      73657273 
 10681      5C696E66 
 10681      6F5C4465 
 10681      736B746F 
 10682 0620 355C362E 		.ascii	"5\\6.115-final\\PSoCCreator\\Final Project\\FinalEm"
 10682      3131352D 
 10682      66696E61 
 10682      6C5C5053 
 10682      6F434372 
 10683 064f 756C6174 		.ascii	"ulator.cydsn\000"
 10683      6F722E63 
 10683      7964736E 
 10683      00
 10684              	.LASF139:
 10685 065c 75386732 		.ascii	"u8g2_m_1_1_f\000"
 10685      5F6D5F31 
 10685      5F315F66 
 10685      00
 10686              	.LASF122:
 10687 0669 75386732 		.ascii	"u8g2_m_22_9_1\000"
 10687      5F6D5F32 
ARM GAS  C:\Users\info\AppData\Local\Temp\ccfHjuLM.s 			page 217


 10687      325F395F 
 10687      3100
 10688              	.LASF143:
 10689 0677 474E5520 		.ascii	"GNU C11 5.4.1 20160609 (release) [ARM/embedded-5-br"
 10689      43313120 
 10689      352E342E 
 10689      31203230 
 10689      31363036 
 10690 06aa 616E6368 		.ascii	"anch revision 237715] -mcpu=cortex-m3 -mthumb -g -O"
 10690      20726576 
 10690      6973696F 
 10690      6E203233 
 10690      37373135 
 10691 06dd 33202D66 		.ascii	"3 -ffunction-sections -ffat-lto-objects\000"
 10691      66756E63 
 10691      74696F6E 
 10691      2D736563 
 10691      74696F6E 
 10692              	.LASF59:
 10693 0705 75386732 		.ascii	"u8g2_m_50_30_1\000"
 10693      5F6D5F35 
 10693      305F3330 
 10693      5F3100
 10694              	.LASF60:
 10695 0714 75386732 		.ascii	"u8g2_m_50_30_2\000"
 10695      5F6D5F35 
 10695      305F3330 
 10695      5F3200
 10696              	.LASF71:
 10697 0723 75386732 		.ascii	"u8g2_m_12_9_1\000"
 10697      5F6D5F31 
 10697      325F395F 
 10697      3100
 10698              	.LASF72:
 10699 0731 75386732 		.ascii	"u8g2_m_12_9_2\000"
 10699      5F6D5F31 
 10699      325F395F 
 10699      3200
 10700              	.LASF70:
 10701 073f 75386732 		.ascii	"u8g2_m_11_6_f\000"
 10701      5F6D5F31 
 10701      315F365F 
 10701      6600
 10702              	.LASF144:
 10703 074d 2E2E5C75 		.ascii	"..\\u8g2-master\\csrc\\u8g2_d_memory.c\000"
 10703      3867322D 
 10703      6D617374 
 10703      65725C63 
 10703      7372635C 
 10704              	.LASF29:
 10705 0771 75386732 		.ascii	"u8g2_m_12_12_1\000"
 10705      5F6D5F31 
 10705      325F3132 
 10705      5F3100
 10706              	.LASF30:
 10707 0780 75386732 		.ascii	"u8g2_m_12_12_2\000"
 10707      5F6D5F31 
ARM GAS  C:\Users\info\AppData\Local\Temp\ccfHjuLM.s 			page 218


 10707      325F3132 
 10707      5F3200
 10708              	.LASF98:
 10709 078f 75386732 		.ascii	"u8g2_m_17_4_1\000"
 10709      5F6D5F31 
 10709      375F345F 
 10709      3100
 10710              	.LASF99:
 10711 079d 75386732 		.ascii	"u8g2_m_17_4_2\000"
 10711      5F6D5F31 
 10711      375F345F 
 10711      3200
 10712              	.LASF92:
 10713 07ab 75386732 		.ascii	"u8g2_m_30_20_1\000"
 10713      5F6D5F33 
 10713      305F3230 
 10713      5F3100
 10714              	.LASF93:
 10715 07ba 75386732 		.ascii	"u8g2_m_30_20_2\000"
 10715      5F6D5F33 
 10715      305F3230 
 10715      5F3200
 10716              	.LASF61:
 10717 07c9 75386732 		.ascii	"u8g2_m_50_30_f\000"
 10717      5F6D5F35 
 10717      305F3330 
 10717      5F6600
 10718              	.LASF83:
 10719 07d8 75386732 		.ascii	"u8g2_m_30_16_1\000"
 10719      5F6D5F33 
 10719      305F3136 
 10719      5F3100
 10720              	.LASF73:
 10721 07e7 75386732 		.ascii	"u8g2_m_12_9_f\000"
 10721      5F6D5F31 
 10721      325F395F 
 10721      6600
 10722              	.LASF10:
 10723 07f5 75696E74 		.ascii	"uint8_t\000"
 10723      385F7400 
 10724              	.LASF123:
 10725 07fd 75386732 		.ascii	"u8g2_m_22_9_2\000"
 10725      5F6D5F32 
 10725      325F395F 
 10725      3200
 10726              	.LASF89:
 10727 080b 75386732 		.ascii	"u8g2_m_20_13_1\000"
 10727      5F6D5F32 
 10727      305F3133 
 10727      5F3100
 10728              	.LASF50:
 10729 081a 75386732 		.ascii	"u8g2_m_16_12_1\000"
 10729      5F6D5F31 
 10729      365F3132 
 10729      5F3100
 10730              	.LASF51:
 10731 0829 75386732 		.ascii	"u8g2_m_16_12_2\000"
ARM GAS  C:\Users\info\AppData\Local\Temp\ccfHjuLM.s 			page 219


 10731      5F6D5F31 
 10731      365F3132 
 10731      5F3200
 10732              	.LASF15:
 10733 0838 70616765 		.ascii	"page_cnt\000"
 10733      5F636E74 
 10733      00
 10734              	.LASF31:
 10735 0841 75386732 		.ascii	"u8g2_m_12_12_f\000"
 10735      5F6D5F31 
 10735      325F3132 
 10735      5F6600
 10736              	.LASF53:
 10737 0850 75386732 		.ascii	"u8g2_m_32_4_1\000"
 10737      5F6D5F33 
 10737      325F345F 
 10737      3100
 10738              	.LASF54:
 10739 085e 75386732 		.ascii	"u8g2_m_32_4_2\000"
 10739      5F6D5F33 
 10739      325F345F 
 10739      3200
 10740              	.LASF100:
 10741 086c 75386732 		.ascii	"u8g2_m_17_4_f\000"
 10741      5F6D5F31 
 10741      375F345F 
 10741      6600
 10742              	.LASF20:
 10743 087a 75386732 		.ascii	"u8g2_m_9_5_1\000"
 10743      5F6D5F39 
 10743      5F355F31 
 10743      00
 10744              	.LASF21:
 10745 0887 75386732 		.ascii	"u8g2_m_9_5_2\000"
 10745      5F6D5F39 
 10745      5F355F32 
 10745      00
 10746              	.LASF77:
 10747 0894 75386732 		.ascii	"u8g2_m_30_8_1\000"
 10747      5F6D5F33 
 10747      305F385F 
 10747      3100
 10748              	.LASF78:
 10749 08a2 75386732 		.ascii	"u8g2_m_30_8_2\000"
 10749      5F6D5F33 
 10749      305F385F 
 10749      3200
 10750              	.LASF94:
 10751 08b0 75386732 		.ascii	"u8g2_m_30_20_f\000"
 10751      5F6D5F33 
 10751      305F3230 
 10751      5F6600
 10752              	.LASF84:
 10753 08bf 75386732 		.ascii	"u8g2_m_30_16_2\000"
 10753      5F6D5F33 
 10753      305F3136 
 10753      5F3200
ARM GAS  C:\Users\info\AppData\Local\Temp\ccfHjuLM.s 			page 220


 10754              	.LASF131:
 10755 08ce 75386732 		.ascii	"u8g2_m_8_1_1\000"
 10755      5F6D5F38 
 10755      5F315F31 
 10755      00
 10756              	.LASF118:
 10757 08db 75386732 		.ascii	"u8g2_m_24_12_f\000"
 10757      5F6D5F32 
 10757      345F3132 
 10757      5F6600
 10758              	.LASF85:
 10759 08ea 75386732 		.ascii	"u8g2_m_30_16_f\000"
 10759      5F6D5F33 
 10759      305F3136 
 10759      5F6600
 10760              	.LASF128:
 10761 08f9 75386732 		.ascii	"u8g2_m_37_16_1\000"
 10761      5F6D5F33 
 10761      375F3136 
 10761      5F3100
 10762              		.ident	"GCC: (GNU Tools for ARM Embedded Processors) 5.4.1 20160609 (release) [ARM/embedded-5-bran
