ARM GAS  C:\Users\info\AppData\Local\Temp\cckkDHqh.s 			page 1


   1              		.syntax unified
   2              		.cpu cortex-m3
   3              		.fpu softvfp
   4              		.eabi_attribute 20, 1
   5              		.eabi_attribute 21, 1
   6              		.eabi_attribute 23, 3
   7              		.eabi_attribute 24, 1
   8              		.eabi_attribute 25, 1
   9              		.eabi_attribute 26, 1
  10              		.eabi_attribute 30, 2
  11              		.eabi_attribute 34, 1
  12              		.eabi_attribute 18, 4
  13              		.thumb
  14              		.syntax unified
  15              		.file	"u8g2_box.c"
  16              		.text
  17              	.Ltext0:
  18              		.cfi_sections	.debug_frame
  19              		.section	.text.u8g2_DrawBox,"ax",%progbits
  20              		.align	2
  21              		.global	u8g2_DrawBox
  22              		.thumb
  23              		.thumb_func
  24              		.type	u8g2_DrawBox, %function
  25              	u8g2_DrawBox:
  26              	.LFB0:
  27              		.file 1 "..\\u8g2-master\\csrc\\u8g2_box.c"
   1:..\u8g2-master\csrc/u8g2_box.c **** /*
   2:..\u8g2-master\csrc/u8g2_box.c **** 
   3:..\u8g2-master\csrc/u8g2_box.c ****   u8g2_box.c
   4:..\u8g2-master\csrc/u8g2_box.c **** 
   5:..\u8g2-master\csrc/u8g2_box.c ****   Universal 8bit Graphics Library (https://github.com/olikraus/u8g2/)
   6:..\u8g2-master\csrc/u8g2_box.c **** 
   7:..\u8g2-master\csrc/u8g2_box.c ****   Copyright (c) 2016, olikraus@gmail.com
   8:..\u8g2-master\csrc/u8g2_box.c ****   All rights reserved.
   9:..\u8g2-master\csrc/u8g2_box.c **** 
  10:..\u8g2-master\csrc/u8g2_box.c ****   Redistribution and use in source and binary forms, with or without modification, 
  11:..\u8g2-master\csrc/u8g2_box.c ****   are permitted provided that the following conditions are met:
  12:..\u8g2-master\csrc/u8g2_box.c **** 
  13:..\u8g2-master\csrc/u8g2_box.c ****   * Redistributions of source code must retain the above copyright notice, this list 
  14:..\u8g2-master\csrc/u8g2_box.c ****     of conditions and the following disclaimer.
  15:..\u8g2-master\csrc/u8g2_box.c ****     
  16:..\u8g2-master\csrc/u8g2_box.c ****   * Redistributions in binary form must reproduce the above copyright notice, this 
  17:..\u8g2-master\csrc/u8g2_box.c ****     list of conditions and the following disclaimer in the documentation and/or other 
  18:..\u8g2-master\csrc/u8g2_box.c ****     materials provided with the distribution.
  19:..\u8g2-master\csrc/u8g2_box.c **** 
  20:..\u8g2-master\csrc/u8g2_box.c ****   THIS SOFTWARE IS PROVIDED BY THE COPYRIGHT HOLDERS AND 
  21:..\u8g2-master\csrc/u8g2_box.c ****   CONTRIBUTORS "AS IS" AND ANY EXPRESS OR IMPLIED WARRANTIES, 
  22:..\u8g2-master\csrc/u8g2_box.c ****   INCLUDING, BUT NOT LIMITED TO, THE IMPLIED WARRANTIES OF 
  23:..\u8g2-master\csrc/u8g2_box.c ****   MERCHANTABILITY AND FITNESS FOR A PARTICULAR PURPOSE ARE 
  24:..\u8g2-master\csrc/u8g2_box.c ****   DISCLAIMED. IN NO EVENT SHALL THE COPYRIGHT HOLDER OR 
  25:..\u8g2-master\csrc/u8g2_box.c ****   CONTRIBUTORS BE LIABLE FOR ANY DIRECT, INDIRECT, INCIDENTAL, 
  26:..\u8g2-master\csrc/u8g2_box.c ****   SPECIAL, EXEMPLARY, OR CONSEQUENTIAL DAMAGES (INCLUDING, BUT 
  27:..\u8g2-master\csrc/u8g2_box.c ****   NOT LIMITED TO, PROCUREMENT OF SUBSTITUTE GOODS OR SERVICES; 
  28:..\u8g2-master\csrc/u8g2_box.c ****   LOSS OF USE, DATA, OR PROFITS; OR BUSINESS INTERRUPTION) HOWEVER 
  29:..\u8g2-master\csrc/u8g2_box.c ****   CAUSED AND ON ANY THEORY OF LIABILITY, WHETHER IN CONTRACT, 
  30:..\u8g2-master\csrc/u8g2_box.c ****   STRICT LIABILITY, OR TORT (INCLUDING NEGLIGENCE OR OTHERWISE) 
ARM GAS  C:\Users\info\AppData\Local\Temp\cckkDHqh.s 			page 2


  31:..\u8g2-master\csrc/u8g2_box.c ****   ARISING IN ANY WAY OUT OF THE USE OF THIS SOFTWARE, EVEN IF 
  32:..\u8g2-master\csrc/u8g2_box.c ****   ADVISED OF THE POSSIBILITY OF SUCH DAMAGE.  
  33:..\u8g2-master\csrc/u8g2_box.c **** 
  34:..\u8g2-master\csrc/u8g2_box.c **** */
  35:..\u8g2-master\csrc/u8g2_box.c **** 
  36:..\u8g2-master\csrc/u8g2_box.c **** #include "u8g2.h"
  37:..\u8g2-master\csrc/u8g2_box.c **** 
  38:..\u8g2-master\csrc/u8g2_box.c **** /*
  39:..\u8g2-master\csrc/u8g2_box.c ****   draw a filled box
  40:..\u8g2-master\csrc/u8g2_box.c ****   restriction: does not work for w = 0 or h = 0
  41:..\u8g2-master\csrc/u8g2_box.c **** */
  42:..\u8g2-master\csrc/u8g2_box.c **** void u8g2_DrawBox(u8g2_t *u8g2, u8g2_uint_t x, u8g2_uint_t y, u8g2_uint_t w, u8g2_uint_t h)
  43:..\u8g2-master\csrc/u8g2_box.c **** {
  28              		.loc 1 43 0
  29              		.cfi_startproc
  30              		@ args = 4, pretend = 0, frame = 0
  31              		@ frame_needed = 0, uses_anonymous_args = 0
  32              	.LVL0:
  33 0000 2DE9F043 		push	{r4, r5, r6, r7, r8, r9, lr}
  34              		.cfi_def_cfa_offset 28
  35              		.cfi_offset 4, -28
  36              		.cfi_offset 5, -24
  37              		.cfi_offset 6, -20
  38              		.cfi_offset 7, -16
  39              		.cfi_offset 8, -12
  40              		.cfi_offset 9, -8
  41              		.cfi_offset 14, -4
  42 0004 83B0     		sub	sp, sp, #12
  43              		.cfi_def_cfa_offset 40
  44              		.loc 1 43 0
  45 0006 9DF82850 		ldrb	r5, [sp, #40]	@ zero_extendqisi2
  44:..\u8g2-master\csrc/u8g2_box.c **** #ifdef U8G2_WITH_INTERSECTION
  45:..\u8g2-master\csrc/u8g2_box.c ****   if ( u8g2_IsIntersection(u8g2, x, y, x+w, y+h) == 0 ) 
  46              		.loc 1 45 0
  47 000a 01EB030E 		add	lr, r1, r3
  43:..\u8g2-master\csrc/u8g2_box.c **** #ifdef U8G2_WITH_INTERSECTION
  48              		.loc 1 43 0
  49 000e 1F46     		mov	r7, r3
  50              		.loc 1 45 0
  51 0010 5319     		adds	r3, r2, r5
  52              	.LVL1:
  53 0012 DBB2     		uxtb	r3, r3
  54 0014 0093     		str	r3, [sp]
  55 0016 5FFA8EF3 		uxtb	r3, lr
  43:..\u8g2-master\csrc/u8g2_box.c **** #ifdef U8G2_WITH_INTERSECTION
  56              		.loc 1 43 0
  57 001a 1446     		mov	r4, r2
  58 001c 0E46     		mov	r6, r1
  59 001e 8046     		mov	r8, r0
  60              		.loc 1 45 0
  61 0020 FFF7FEFF 		bl	u8g2_IsIntersection
  62              	.LVL2:
  63 0024 80B1     		cbz	r0, .L1
  64              	.LVL3:
  65              	.LBB4:
  66              	.LBB5:
  46:..\u8g2-master\csrc/u8g2_box.c ****     return;
ARM GAS  C:\Users\info\AppData\Local\Temp\cckkDHqh.s 			page 3


  47:..\u8g2-master\csrc/u8g2_box.c **** #endif /* U8G2_WITH_INTERSECTION */
  48:..\u8g2-master\csrc/u8g2_box.c ****   while( h != 0 )
  67              		.loc 1 48 0
  68 0026 7DB1     		cbz	r5, .L1
  49:..\u8g2-master\csrc/u8g2_box.c ****   { 
  50:..\u8g2-master\csrc/u8g2_box.c ****     u8g2_DrawHVLine(u8g2, x, y, w, 0);
  69              		.loc 1 50 0
  70 0028 4FF00009 		mov	r9, #0
  71              	.LVL4:
  72              	.L4:
  73 002c 3B46     		mov	r3, r7
  74 002e 2246     		mov	r2, r4
  75 0030 CDF80090 		str	r9, [sp]
  76 0034 3146     		mov	r1, r6
  77 0036 4046     		mov	r0, r8
  78 0038 FFF7FEFF 		bl	u8g2_DrawHVLine
  79              	.LVL5:
  51:..\u8g2-master\csrc/u8g2_box.c ****     y++;    
  52:..\u8g2-master\csrc/u8g2_box.c ****     h--;
  80              		.loc 1 52 0
  81 003c 6B1E     		subs	r3, r5, #1
  51:..\u8g2-master\csrc/u8g2_box.c ****     y++;    
  82              		.loc 1 51 0
  83 003e 0134     		adds	r4, r4, #1
  84              	.LVL6:
  48:..\u8g2-master\csrc/u8g2_box.c ****   { 
  85              		.loc 1 48 0
  86 0040 13F0FF05 		ands	r5, r3, #255
  87              	.LVL7:
  51:..\u8g2-master\csrc/u8g2_box.c ****     y++;    
  88              		.loc 1 51 0
  89 0044 E4B2     		uxtb	r4, r4
  90              	.LVL8:
  48:..\u8g2-master\csrc/u8g2_box.c ****   { 
  91              		.loc 1 48 0
  92 0046 F1D1     		bne	.L4
  93              	.LVL9:
  94              	.L1:
  95              	.LBE5:
  96              	.LBE4:
  53:..\u8g2-master\csrc/u8g2_box.c ****   }
  54:..\u8g2-master\csrc/u8g2_box.c **** }
  97              		.loc 1 54 0
  98 0048 03B0     		add	sp, sp, #12
  99              		.cfi_def_cfa_offset 28
 100              		@ sp needed
 101 004a BDE8F083 		pop	{r4, r5, r6, r7, r8, r9, pc}
 102              		.cfi_endproc
 103              	.LFE0:
 104              		.size	u8g2_DrawBox, .-u8g2_DrawBox
 105 004e 00BF     		.section	.text.u8g2_DrawFrame,"ax",%progbits
 106              		.align	2
 107              		.global	u8g2_DrawFrame
 108              		.thumb
 109              		.thumb_func
 110              		.type	u8g2_DrawFrame, %function
 111              	u8g2_DrawFrame:
ARM GAS  C:\Users\info\AppData\Local\Temp\cckkDHqh.s 			page 4


 112              	.LFB1:
  55:..\u8g2-master\csrc/u8g2_box.c **** 
  56:..\u8g2-master\csrc/u8g2_box.c **** 
  57:..\u8g2-master\csrc/u8g2_box.c **** /*
  58:..\u8g2-master\csrc/u8g2_box.c ****   draw a frame (empty box)
  59:..\u8g2-master\csrc/u8g2_box.c ****   restriction: does not work for w = 0 or h = 0
  60:..\u8g2-master\csrc/u8g2_box.c ****   ToDo:
  61:..\u8g2-master\csrc/u8g2_box.c ****     pixel in the corners are drawn twice. This could be optimized.
  62:..\u8g2-master\csrc/u8g2_box.c **** */
  63:..\u8g2-master\csrc/u8g2_box.c **** void u8g2_DrawFrame(u8g2_t *u8g2, u8g2_uint_t x, u8g2_uint_t y, u8g2_uint_t w, u8g2_uint_t h)
  64:..\u8g2-master\csrc/u8g2_box.c **** {
 113              		.loc 1 64 0
 114              		.cfi_startproc
 115              		@ args = 4, pretend = 0, frame = 0
 116              		@ frame_needed = 0, uses_anonymous_args = 0
 117              	.LVL10:
 118 0000 2DE9F04F 		push	{r4, r5, r6, r7, r8, r9, r10, fp, lr}
 119              		.cfi_def_cfa_offset 36
 120              		.cfi_offset 4, -36
 121              		.cfi_offset 5, -32
 122              		.cfi_offset 6, -28
 123              		.cfi_offset 7, -24
 124              		.cfi_offset 8, -20
 125              		.cfi_offset 9, -16
 126              		.cfi_offset 10, -12
 127              		.cfi_offset 11, -8
 128              		.cfi_offset 14, -4
 129 0004 83B0     		sub	sp, sp, #12
 130              		.cfi_def_cfa_offset 48
 131              		.loc 1 64 0
 132 0006 9DF83090 		ldrb	r9, [sp, #48]	@ zero_extendqisi2
  65:..\u8g2-master\csrc/u8g2_box.c ****   u8g2_uint_t xtmp = x;
  66:..\u8g2-master\csrc/u8g2_box.c ****   
  67:..\u8g2-master\csrc/u8g2_box.c **** #ifdef U8G2_WITH_INTERSECTION
  68:..\u8g2-master\csrc/u8g2_box.c ****   if ( u8g2_IsIntersection(u8g2, x, y, x+w, y+h) == 0 ) 
 133              		.loc 1 68 0
 134 000a CD18     		adds	r5, r1, r3
 135 000c 02EB0904 		add	r4, r2, r9
 136 0010 EDB2     		uxtb	r5, r5
 137 0012 E4B2     		uxtb	r4, r4
  64:..\u8g2-master\csrc/u8g2_box.c ****   u8g2_uint_t xtmp = x;
 138              		.loc 1 64 0
 139 0014 9846     		mov	r8, r3
 140              		.loc 1 68 0
 141 0016 0094     		str	r4, [sp]
 142 0018 2B46     		mov	r3, r5
 143              	.LVL11:
  64:..\u8g2-master\csrc/u8g2_box.c ****   u8g2_uint_t xtmp = x;
 144              		.loc 1 64 0
 145 001a 0E46     		mov	r6, r1
 146              	.LVL12:
 147 001c 1746     		mov	r7, r2
 148 001e 8246     		mov	r10, r0
 149              		.loc 1 68 0
 150 0020 FFF7FEFF 		bl	u8g2_IsIntersection
 151              	.LVL13:
 152 0024 10B9     		cbnz	r0, .L14
ARM GAS  C:\Users\info\AppData\Local\Temp\cckkDHqh.s 			page 5


  69:..\u8g2-master\csrc/u8g2_box.c ****     return;
  70:..\u8g2-master\csrc/u8g2_box.c **** #endif /* U8G2_WITH_INTERSECTION */
  71:..\u8g2-master\csrc/u8g2_box.c ****   
  72:..\u8g2-master\csrc/u8g2_box.c ****   u8g2_DrawHVLine(u8g2, x, y, w, 0);
  73:..\u8g2-master\csrc/u8g2_box.c ****   u8g2_DrawHVLine(u8g2, x, y, h, 1);
  74:..\u8g2-master\csrc/u8g2_box.c ****   x+=w;
  75:..\u8g2-master\csrc/u8g2_box.c ****   x--;
  76:..\u8g2-master\csrc/u8g2_box.c ****   u8g2_DrawHVLine(u8g2, x, y, h, 1);
  77:..\u8g2-master\csrc/u8g2_box.c ****   y+=h;
  78:..\u8g2-master\csrc/u8g2_box.c ****   y--;
  79:..\u8g2-master\csrc/u8g2_box.c ****   u8g2_DrawHVLine(u8g2, xtmp, y, w, 0);
  80:..\u8g2-master\csrc/u8g2_box.c **** }
 153              		.loc 1 80 0
 154 0026 03B0     		add	sp, sp, #12
 155              		.cfi_remember_state
 156              		.cfi_def_cfa_offset 36
 157              		@ sp needed
 158 0028 BDE8F08F 		pop	{r4, r5, r6, r7, r8, r9, r10, fp, pc}
 159              	.LVL14:
 160              	.L14:
 161              		.cfi_restore_state
  72:..\u8g2-master\csrc/u8g2_box.c ****   u8g2_DrawHVLine(u8g2, x, y, h, 1);
 162              		.loc 1 72 0
 163 002c 0023     		movs	r3, #0
 164 002e 0093     		str	r3, [sp]
 165 0030 3A46     		mov	r2, r7
 166 0032 4346     		mov	r3, r8
 167 0034 3146     		mov	r1, r6
 168 0036 5046     		mov	r0, r10
  73:..\u8g2-master\csrc/u8g2_box.c ****   x+=w;
 169              		.loc 1 73 0
 170 0038 4FF0010B 		mov	fp, #1
  72:..\u8g2-master\csrc/u8g2_box.c ****   u8g2_DrawHVLine(u8g2, x, y, h, 1);
 171              		.loc 1 72 0
 172 003c FFF7FEFF 		bl	u8g2_DrawHVLine
 173              	.LVL15:
  73:..\u8g2-master\csrc/u8g2_box.c ****   x+=w;
 174              		.loc 1 73 0
 175 0040 4B46     		mov	r3, r9
 176 0042 3A46     		mov	r2, r7
 177 0044 3146     		mov	r1, r6
 178 0046 5046     		mov	r0, r10
 179 0048 CDF800B0 		str	fp, [sp]
 180 004c FFF7FEFF 		bl	u8g2_DrawHVLine
 181              	.LVL16:
  76:..\u8g2-master\csrc/u8g2_box.c ****   y+=h;
 182              		.loc 1 76 0
 183 0050 691E     		subs	r1, r5, #1
 184 0052 4B46     		mov	r3, r9
 185 0054 3A46     		mov	r2, r7
 186 0056 5046     		mov	r0, r10
 187 0058 CDF800B0 		str	fp, [sp]
 188 005c C9B2     		uxtb	r1, r1
 189 005e FFF7FEFF 		bl	u8g2_DrawHVLine
 190              	.LVL17:
  79:..\u8g2-master\csrc/u8g2_box.c **** }
 191              		.loc 1 79 0
ARM GAS  C:\Users\info\AppData\Local\Temp\cckkDHqh.s 			page 6


 192 0062 0023     		movs	r3, #0
 193 0064 0C93     		str	r3, [sp, #48]
 194 0066 3146     		mov	r1, r6
 195 0068 4346     		mov	r3, r8
 196 006a 5046     		mov	r0, r10
 197 006c 621E     		subs	r2, r4, #1
 198 006e D2B2     		uxtb	r2, r2
 199              		.loc 1 80 0
 200 0070 03B0     		add	sp, sp, #12
 201              		.cfi_def_cfa_offset 36
 202              		@ sp needed
 203 0072 BDE8F04F 		pop	{r4, r5, r6, r7, r8, r9, r10, fp, lr}
 204              		.cfi_restore 14
 205              		.cfi_restore 11
 206              		.cfi_restore 10
 207              		.cfi_restore 9
 208              		.cfi_restore 8
 209              		.cfi_restore 7
 210              		.cfi_restore 6
 211              		.cfi_restore 5
 212              		.cfi_restore 4
 213              		.cfi_def_cfa_offset 0
 214              	.LVL18:
  79:..\u8g2-master\csrc/u8g2_box.c **** }
 215              		.loc 1 79 0
 216 0076 FFF7FEBF 		b	u8g2_DrawHVLine
 217              	.LVL19:
 218              		.cfi_endproc
 219              	.LFE1:
 220              		.size	u8g2_DrawFrame, .-u8g2_DrawFrame
 221 007a 00BF     		.section	.text.u8g2_DrawRBox,"ax",%progbits
 222              		.align	2
 223              		.global	u8g2_DrawRBox
 224              		.thumb
 225              		.thumb_func
 226              		.type	u8g2_DrawRBox, %function
 227              	u8g2_DrawRBox:
 228              	.LFB2:
  81:..\u8g2-master\csrc/u8g2_box.c **** 
  82:..\u8g2-master\csrc/u8g2_box.c **** 
  83:..\u8g2-master\csrc/u8g2_box.c **** 
  84:..\u8g2-master\csrc/u8g2_box.c **** 
  85:..\u8g2-master\csrc/u8g2_box.c **** void u8g2_DrawRBox(u8g2_t *u8g2, u8g2_uint_t x, u8g2_uint_t y, u8g2_uint_t w, u8g2_uint_t h, u8g2_u
  86:..\u8g2-master\csrc/u8g2_box.c **** {
 229              		.loc 1 86 0
 230              		.cfi_startproc
 231              		@ args = 8, pretend = 0, frame = 40
 232              		@ frame_needed = 0, uses_anonymous_args = 0
 233              	.LVL20:
 234 0000 2DE9F04F 		push	{r4, r5, r6, r7, r8, r9, r10, fp, lr}
 235              		.cfi_def_cfa_offset 36
 236              		.cfi_offset 4, -36
 237              		.cfi_offset 5, -32
 238              		.cfi_offset 6, -28
 239              		.cfi_offset 7, -24
 240              		.cfi_offset 8, -20
 241              		.cfi_offset 9, -16
ARM GAS  C:\Users\info\AppData\Local\Temp\cckkDHqh.s 			page 7


 242              		.cfi_offset 10, -12
 243              		.cfi_offset 11, -8
 244              		.cfi_offset 14, -4
 245 0004 9A46     		mov	r10, r3
 246 0006 8DB0     		sub	sp, sp, #52
 247              		.cfi_def_cfa_offset 88
 248              		.loc 1 86 0
 249 0008 9DF85830 		ldrb	r3, [sp, #88]	@ zero_extendqisi2
 250              	.LVL21:
  87:..\u8g2-master\csrc/u8g2_box.c ****   u8g2_uint_t xl, yu;
  88:..\u8g2-master\csrc/u8g2_box.c ****   u8g2_uint_t yl, xr;
  89:..\u8g2-master\csrc/u8g2_box.c **** 
  90:..\u8g2-master\csrc/u8g2_box.c **** #ifdef U8G2_WITH_INTERSECTION
  91:..\u8g2-master\csrc/u8g2_box.c ****   if ( u8g2_IsIntersection(u8g2, x, y, x+w, y+h) == 0 ) 
 251              		.loc 1 91 0
 252 000c 01EB0A08 		add	r8, r1, r10
 253 0010 D618     		adds	r6, r2, r3
 254 0012 5FFA88F8 		uxtb	r8, r8
 255 0016 F6B2     		uxtb	r6, r6
  86:..\u8g2-master\csrc/u8g2_box.c ****   u8g2_uint_t xl, yu;
 256              		.loc 1 86 0
 257 0018 0393     		str	r3, [sp, #12]
 258              		.loc 1 91 0
 259 001a 0096     		str	r6, [sp]
 260 001c 4346     		mov	r3, r8
  86:..\u8g2-master\csrc/u8g2_box.c ****   u8g2_uint_t xl, yu;
 261              		.loc 1 86 0
 262 001e 8946     		mov	r9, r1
 263 0020 9346     		mov	fp, r2
 264 0022 0546     		mov	r5, r0
 265 0024 9DF85C40 		ldrb	r4, [sp, #92]	@ zero_extendqisi2
 266              		.loc 1 91 0
 267 0028 FFF7FEFF 		bl	u8g2_IsIntersection
 268              	.LVL22:
 269 002c 10B9     		cbnz	r0, .L48
 270              	.L15:
  92:..\u8g2-master\csrc/u8g2_box.c ****     return;
  93:..\u8g2-master\csrc/u8g2_box.c **** #endif /* U8G2_WITH_INTERSECTION */
  94:..\u8g2-master\csrc/u8g2_box.c **** 
  95:..\u8g2-master\csrc/u8g2_box.c ****   xl = x;
  96:..\u8g2-master\csrc/u8g2_box.c ****   xl += r;
  97:..\u8g2-master\csrc/u8g2_box.c ****   yu = y;
  98:..\u8g2-master\csrc/u8g2_box.c ****   yu += r;
  99:..\u8g2-master\csrc/u8g2_box.c ****  
 100:..\u8g2-master\csrc/u8g2_box.c ****   xr = x;
 101:..\u8g2-master\csrc/u8g2_box.c ****   xr += w;
 102:..\u8g2-master\csrc/u8g2_box.c ****   xr -= r;
 103:..\u8g2-master\csrc/u8g2_box.c ****   xr -= 1;
 104:..\u8g2-master\csrc/u8g2_box.c ****   
 105:..\u8g2-master\csrc/u8g2_box.c ****   yl = y;
 106:..\u8g2-master\csrc/u8g2_box.c ****   yl += h;
 107:..\u8g2-master\csrc/u8g2_box.c ****   yl -= r; 
 108:..\u8g2-master\csrc/u8g2_box.c ****   yl -= 1;
 109:..\u8g2-master\csrc/u8g2_box.c **** 
 110:..\u8g2-master\csrc/u8g2_box.c ****   u8g2_DrawDisc(u8g2, xl, yu, r, U8G2_DRAW_UPPER_LEFT);
 111:..\u8g2-master\csrc/u8g2_box.c ****   u8g2_DrawDisc(u8g2, xr, yu, r, U8G2_DRAW_UPPER_RIGHT);
 112:..\u8g2-master\csrc/u8g2_box.c ****   u8g2_DrawDisc(u8g2, xl, yl, r, U8G2_DRAW_LOWER_LEFT);
ARM GAS  C:\Users\info\AppData\Local\Temp\cckkDHqh.s 			page 8


 113:..\u8g2-master\csrc/u8g2_box.c ****   u8g2_DrawDisc(u8g2, xr, yl, r, U8G2_DRAW_LOWER_RIGHT);
 114:..\u8g2-master\csrc/u8g2_box.c **** 
 115:..\u8g2-master\csrc/u8g2_box.c ****   {
 116:..\u8g2-master\csrc/u8g2_box.c ****     u8g2_uint_t ww, hh;
 117:..\u8g2-master\csrc/u8g2_box.c **** 
 118:..\u8g2-master\csrc/u8g2_box.c ****     ww = w;
 119:..\u8g2-master\csrc/u8g2_box.c ****     ww -= r;
 120:..\u8g2-master\csrc/u8g2_box.c ****     ww -= r;
 121:..\u8g2-master\csrc/u8g2_box.c ****     xl++;
 122:..\u8g2-master\csrc/u8g2_box.c ****     yu++;
 123:..\u8g2-master\csrc/u8g2_box.c ****     
 124:..\u8g2-master\csrc/u8g2_box.c ****     if ( ww >= 3 )
 125:..\u8g2-master\csrc/u8g2_box.c ****     {
 126:..\u8g2-master\csrc/u8g2_box.c ****       ww -= 2;
 127:..\u8g2-master\csrc/u8g2_box.c ****       u8g2_DrawBox(u8g2, xl, y, ww, r+1);
 128:..\u8g2-master\csrc/u8g2_box.c ****       u8g2_DrawBox(u8g2, xl, yl, ww, r+1);
 129:..\u8g2-master\csrc/u8g2_box.c ****     }
 130:..\u8g2-master\csrc/u8g2_box.c ****     
 131:..\u8g2-master\csrc/u8g2_box.c ****     hh = h;
 132:..\u8g2-master\csrc/u8g2_box.c ****     hh -= r;
 133:..\u8g2-master\csrc/u8g2_box.c ****     hh -= r;
 134:..\u8g2-master\csrc/u8g2_box.c ****     //h--;
 135:..\u8g2-master\csrc/u8g2_box.c ****     if ( hh >= 3 )
 136:..\u8g2-master\csrc/u8g2_box.c ****     {
 137:..\u8g2-master\csrc/u8g2_box.c ****       hh -= 2;
 138:..\u8g2-master\csrc/u8g2_box.c ****       u8g2_DrawBox(u8g2, x, yu, w, hh);
 139:..\u8g2-master\csrc/u8g2_box.c ****     }
 140:..\u8g2-master\csrc/u8g2_box.c ****   }
 141:..\u8g2-master\csrc/u8g2_box.c **** }
 271              		.loc 1 141 0
 272 002e 0DB0     		add	sp, sp, #52
 273              		.cfi_remember_state
 274              		.cfi_def_cfa_offset 36
 275              		@ sp needed
 276 0030 BDE8F08F 		pop	{r4, r5, r6, r7, r8, r9, r10, fp, pc}
 277              	.LVL23:
 278              	.L48:
 279              		.cfi_restore_state
 280 0034 E343     		mvns	r3, r4
  96:..\u8g2-master\csrc/u8g2_box.c ****   yu = y;
 281              		.loc 1 96 0
 282 0036 09EB0407 		add	r7, r9, r4
 283 003a DBB2     		uxtb	r3, r3
 284 003c FFB2     		uxtb	r7, r7
 285              	.LVL24:
 110:..\u8g2-master\csrc/u8g2_box.c ****   u8g2_DrawDisc(u8g2, xr, yu, r, U8G2_DRAW_UPPER_RIGHT);
 286              		.loc 1 110 0
 287 003e 0220     		movs	r0, #2
 108:..\u8g2-master\csrc/u8g2_box.c **** 
 288              		.loc 1 108 0
 289 0040 1E44     		add	r6, r6, r3
  98:..\u8g2-master\csrc/u8g2_box.c ****  
 290              		.loc 1 98 0
 291 0042 0BEB0402 		add	r2, fp, r4
 103:..\u8g2-master\csrc/u8g2_box.c ****   
 292              		.loc 1 103 0
 293 0046 08EB030E 		add	lr, r8, r3
ARM GAS  C:\Users\info\AppData\Local\Temp\cckkDHqh.s 			page 9


  98:..\u8g2-master\csrc/u8g2_box.c ****  
 294              		.loc 1 98 0
 295 004a D2B2     		uxtb	r2, r2
 296              	.LVL25:
 110:..\u8g2-master\csrc/u8g2_box.c ****   u8g2_DrawDisc(u8g2, xr, yu, r, U8G2_DRAW_UPPER_RIGHT);
 297              		.loc 1 110 0
 298 004c 3946     		mov	r1, r7
 299 004e 0090     		str	r0, [sp]
 300 0050 2346     		mov	r3, r4
 301 0052 2846     		mov	r0, r5
 108:..\u8g2-master\csrc/u8g2_box.c **** 
 302              		.loc 1 108 0
 303 0054 F6B2     		uxtb	r6, r6
 110:..\u8g2-master\csrc/u8g2_box.c ****   u8g2_DrawDisc(u8g2, xr, yu, r, U8G2_DRAW_UPPER_RIGHT);
 304              		.loc 1 110 0
 305 0056 0592     		str	r2, [sp, #20]
 108:..\u8g2-master\csrc/u8g2_box.c **** 
 306              		.loc 1 108 0
 307 0058 0496     		str	r6, [sp, #16]
 103:..\u8g2-master\csrc/u8g2_box.c ****   
 308              		.loc 1 103 0
 309 005a 5FFA8EF6 		uxtb	r6, lr
 310              	.LVL26:
 110:..\u8g2-master\csrc/u8g2_box.c ****   u8g2_DrawDisc(u8g2, xr, yu, r, U8G2_DRAW_UPPER_RIGHT);
 311              		.loc 1 110 0
 312 005e FFF7FEFF 		bl	u8g2_DrawDisc
 313              	.LVL27:
 111:..\u8g2-master\csrc/u8g2_box.c ****   u8g2_DrawDisc(u8g2, xl, yl, r, U8G2_DRAW_LOWER_LEFT);
 314              		.loc 1 111 0
 315 0062 0123     		movs	r3, #1
 316 0064 3146     		mov	r1, r6
 317 0066 059A     		ldr	r2, [sp, #20]
 318 0068 0093     		str	r3, [sp]
 319 006a 2846     		mov	r0, r5
 320 006c 2346     		mov	r3, r4
 321 006e FFF7FEFF 		bl	u8g2_DrawDisc
 322              	.LVL28:
 112:..\u8g2-master\csrc/u8g2_box.c ****   u8g2_DrawDisc(u8g2, xr, yl, r, U8G2_DRAW_LOWER_RIGHT);
 323              		.loc 1 112 0
 324 0072 0423     		movs	r3, #4
 325 0074 049A     		ldr	r2, [sp, #16]
 326 0076 3946     		mov	r1, r7
 327 0078 0093     		str	r3, [sp]
 328 007a 2846     		mov	r0, r5
 329 007c 2346     		mov	r3, r4
 330 007e FFF7FEFF 		bl	u8g2_DrawDisc
 331              	.LVL29:
 113:..\u8g2-master\csrc/u8g2_box.c **** 
 332              		.loc 1 113 0
 333 0082 0823     		movs	r3, #8
 334 0084 0093     		str	r3, [sp]
 335 0086 3146     		mov	r1, r6
 336 0088 2346     		mov	r3, r4
 337 008a 049A     		ldr	r2, [sp, #16]
 338 008c 2846     		mov	r0, r5
 339 008e FFF7FEFF 		bl	u8g2_DrawDisc
 340              	.LVL30:
ARM GAS  C:\Users\info\AppData\Local\Temp\cckkDHqh.s 			page 10


 341              	.LBB19:
 120:..\u8g2-master\csrc/u8g2_box.c ****     xl++;
 342              		.loc 1 120 0
 343 0092 AAEB4403 		sub	r3, r10, r4, lsl #1
 344 0096 03F0FF03 		and	r3, r3, #255
 345              	.LVL31:
 124:..\u8g2-master\csrc/u8g2_box.c ****     {
 346              		.loc 1 124 0
 347 009a 022B     		cmp	r3, #2
 348 009c 25D8     		bhi	.L17
 349              	.LVL32:
 350              	.L24:
 133:..\u8g2-master\csrc/u8g2_box.c ****     //h--;
 351              		.loc 1 133 0
 352 009e 039B     		ldr	r3, [sp, #12]
 353 00a0 A3EB4404 		sub	r4, r3, r4, lsl #1
 354              	.LVL33:
 355 00a4 04F0FF04 		and	r4, r4, #255
 356              	.LVL34:
 135:..\u8g2-master\csrc/u8g2_box.c ****     {
 357              		.loc 1 135 0
 358 00a8 022C     		cmp	r4, #2
 359 00aa C0D9     		bls	.L15
 122:..\u8g2-master\csrc/u8g2_box.c ****     
 360              		.loc 1 122 0
 361 00ac 059E     		ldr	r6, [sp, #20]
 137:..\u8g2-master\csrc/u8g2_box.c ****       u8g2_DrawBox(u8g2, x, yu, w, hh);
 362              		.loc 1 137 0
 363 00ae 023C     		subs	r4, r4, #2
 364              	.LVL35:
 122:..\u8g2-master\csrc/u8g2_box.c ****     
 365              		.loc 1 122 0
 366 00b0 0136     		adds	r6, r6, #1
 367 00b2 F6B2     		uxtb	r6, r6
 137:..\u8g2-master\csrc/u8g2_box.c ****       u8g2_DrawBox(u8g2, x, yu, w, hh);
 368              		.loc 1 137 0
 369 00b4 E4B2     		uxtb	r4, r4
 370              	.LVL36:
 371              	.LBB20:
 372              	.LBB21:
  45:..\u8g2-master\csrc/u8g2_box.c ****     return;
 373              		.loc 1 45 0
 374 00b6 3219     		adds	r2, r6, r4
 375 00b8 D2B2     		uxtb	r2, r2
 376 00ba 0092     		str	r2, [sp]
 377 00bc 4346     		mov	r3, r8
 378 00be 3246     		mov	r2, r6
 379 00c0 4946     		mov	r1, r9
 380 00c2 2846     		mov	r0, r5
 381 00c4 FFF7FEFF 		bl	u8g2_IsIntersection
 382              	.LVL37:
 383 00c8 0028     		cmp	r0, #0
 384 00ca B0D0     		beq	.L15
 385              	.LBB22:
 386              	.LBB23:
  50:..\u8g2-master\csrc/u8g2_box.c ****     y++;    
 387              		.loc 1 50 0
ARM GAS  C:\Users\info\AppData\Local\Temp\cckkDHqh.s 			page 11


 388 00cc 0027     		movs	r7, #0
 389              	.LVL38:
 390              	.L26:
 391 00ce 3246     		mov	r2, r6
 392 00d0 0097     		str	r7, [sp]
 393 00d2 5346     		mov	r3, r10
 394 00d4 4946     		mov	r1, r9
 395 00d6 2846     		mov	r0, r5
  52:..\u8g2-master\csrc/u8g2_box.c ****   }
 396              		.loc 1 52 0
 397 00d8 013C     		subs	r4, r4, #1
 398              	.LVL39:
  50:..\u8g2-master\csrc/u8g2_box.c ****     y++;    
 399              		.loc 1 50 0
 400 00da FFF7FEFF 		bl	u8g2_DrawHVLine
 401              	.LVL40:
  51:..\u8g2-master\csrc/u8g2_box.c ****     h--;
 402              		.loc 1 51 0
 403 00de 0136     		adds	r6, r6, #1
 404              	.LVL41:
  48:..\u8g2-master\csrc/u8g2_box.c ****   { 
 405              		.loc 1 48 0
 406 00e0 14F0FF04 		ands	r4, r4, #255
  51:..\u8g2-master\csrc/u8g2_box.c ****     h--;
 407              		.loc 1 51 0
 408 00e4 F6B2     		uxtb	r6, r6
 409              	.LVL42:
  48:..\u8g2-master\csrc/u8g2_box.c ****   { 
 410              		.loc 1 48 0
 411 00e6 F2D1     		bne	.L26
 412 00e8 A1E7     		b	.L15
 413              	.LVL43:
 414              	.L17:
 415              	.LBE23:
 416              	.LBE22:
 417              	.LBE21:
 418              	.LBE20:
 127:..\u8g2-master\csrc/u8g2_box.c ****       u8g2_DrawBox(u8g2, xl, yl, ww, r+1);
 419              		.loc 1 127 0
 420 00ea 621C     		adds	r2, r4, #1
 421 00ec 1146     		mov	r1, r2
 126:..\u8g2-master\csrc/u8g2_box.c ****       u8g2_DrawBox(u8g2, xl, y, ww, r+1);
 422              		.loc 1 126 0
 423 00ee 023B     		subs	r3, r3, #2
 424              	.LVL44:
 425 00f0 DBB2     		uxtb	r3, r3
 127:..\u8g2-master\csrc/u8g2_box.c ****       u8g2_DrawBox(u8g2, xl, yl, ww, r+1);
 426              		.loc 1 127 0
 427 00f2 0691     		str	r1, [sp, #24]
 126:..\u8g2-master\csrc/u8g2_box.c ****       u8g2_DrawBox(u8g2, xl, y, ww, r+1);
 428              		.loc 1 126 0
 429 00f4 1A46     		mov	r2, r3
 127:..\u8g2-master\csrc/u8g2_box.c ****       u8g2_DrawBox(u8g2, xl, yl, ww, r+1);
 430              		.loc 1 127 0
 431 00f6 9DF81830 		ldrb	r3, [sp, #24]	@ zero_extendqisi2
 432              	.LVL45:
 121:..\u8g2-master\csrc/u8g2_box.c ****     yu++;
ARM GAS  C:\Users\info\AppData\Local\Temp\cckkDHqh.s 			page 12


 433              		.loc 1 121 0
 434 00fa 0137     		adds	r7, r7, #1
 435              	.LVL46:
 127:..\u8g2-master\csrc/u8g2_box.c ****       u8g2_DrawBox(u8g2, xl, yl, ww, r+1);
 436              		.loc 1 127 0
 437 00fc 1E46     		mov	r6, r3
 438              	.LVL47:
 121:..\u8g2-master\csrc/u8g2_box.c ****     yu++;
 439              		.loc 1 121 0
 440 00fe FFB2     		uxtb	r7, r7
 441              	.LVL48:
 127:..\u8g2-master\csrc/u8g2_box.c ****       u8g2_DrawBox(u8g2, xl, yl, ww, r+1);
 442              		.loc 1 127 0
 443 0100 0993     		str	r3, [sp, #36]
 444              	.LVL49:
 445              	.LBB24:
 446              	.LBB25:
  45:..\u8g2-master\csrc/u8g2_box.c ****     return;
 447              		.loc 1 45 0
 448 0102 0792     		str	r2, [sp, #28]
 449 0104 BB18     		adds	r3, r7, r2
 450 0106 0BEB0602 		add	r2, fp, r6
 451              	.LVL50:
 452 010a D8B2     		uxtb	r0, r3
 453 010c D2B2     		uxtb	r2, r2
 454 010e 0890     		str	r0, [sp, #32]
 455 0110 0346     		mov	r3, r0
 456 0112 0092     		str	r2, [sp]
 457 0114 3946     		mov	r1, r7
 458              	.LVL51:
 459 0116 5A46     		mov	r2, fp
 460 0118 2846     		mov	r0, r5
 461 011a FFF7FEFF 		bl	u8g2_IsIntersection
 462              	.LVL52:
 463 011e 0028     		cmp	r0, #0
 464 0120 47D0     		beq	.L20
 465              	.LVL53:
 466              	.LBB26:
 467              	.LBB27:
  48:..\u8g2-master\csrc/u8g2_box.c ****   { 
 468              		.loc 1 48 0
 469 0122 002E     		cmp	r6, #0
 470 0124 56D0     		beq	.L21
  50:..\u8g2-master\csrc/u8g2_box.c ****     y++;    
 471              		.loc 1 50 0
 472 0126 CDF82880 		str	r8, [sp, #40]
 473 012a CDF82C90 		str	r9, [sp, #44]
 474 012e DDF81C80 		ldr	r8, [sp, #28]
 475              	.LVL54:
 476 0132 DDF81890 		ldr	r9, [sp, #24]
 477              	.LVL55:
  48:..\u8g2-master\csrc/u8g2_box.c ****   { 
 478              		.loc 1 48 0
 479 0136 0026     		movs	r6, #0
 480              	.LVL56:
 481              	.L22:
  50:..\u8g2-master\csrc/u8g2_box.c ****     y++;    
ARM GAS  C:\Users\info\AppData\Local\Temp\cckkDHqh.s 			page 13


 482              		.loc 1 50 0
 483 0138 0BEB0602 		add	r2, fp, r6
 484 013c 0023     		movs	r3, #0
 485 013e 0093     		str	r3, [sp]
 486 0140 D2B2     		uxtb	r2, r2
 487 0142 0136     		adds	r6, r6, #1
 488              	.LVL57:
 489 0144 4346     		mov	r3, r8
 490 0146 3946     		mov	r1, r7
 491 0148 2846     		mov	r0, r5
 492 014a FFF7FEFF 		bl	u8g2_DrawHVLine
 493              	.LVL58:
  48:..\u8g2-master\csrc/u8g2_box.c ****   { 
 494              		.loc 1 48 0
 495 014e B145     		cmp	r9, r6
 496 0150 F2D1     		bne	.L22
 497              	.LBE27:
 498              	.LBE26:
 499              	.LBE25:
 500              	.LBE24:
 501              	.LBB31:
 502              	.LBB32:
  45:..\u8g2-master\csrc/u8g2_box.c ****     return;
 503              		.loc 1 45 0
 504 0152 049A     		ldr	r2, [sp, #16]
 505 0154 09AB     		add	r3, sp, #36
 506 0156 93E80803 		ldmia	r3, {r3, r8, r9}
 507 015a 1344     		add	r3, r3, r2
 508 015c DBB2     		uxtb	r3, r3
 509 015e 0093     		str	r3, [sp]
 510 0160 3946     		mov	r1, r7
 511 0162 089B     		ldr	r3, [sp, #32]
 512 0164 2846     		mov	r0, r5
 513 0166 FFF7FEFF 		bl	u8g2_IsIntersection
 514              	.LVL59:
 515 016a 0028     		cmp	r0, #0
 516 016c 97D0     		beq	.L24
 517              	.LVL60:
 518              	.L27:
 519              	.LBE32:
 520              	.LBE31:
 521              	.LBB38:
 522              	.LBB30:
 523              	.LBB29:
 524              	.LBB28:
  48:..\u8g2-master\csrc/u8g2_box.c ****   { 
 525              		.loc 1 48 0
 526 016e 0026     		movs	r6, #0
 527              	.LBE28:
 528              	.LBE29:
 529              	.LBE30:
 530              	.LBE38:
 531              	.LBB39:
 532              	.LBB37:
 533              	.LBB33:
 534              	.LBB34:
  50:..\u8g2-master\csrc/u8g2_box.c ****     y++;    
ARM GAS  C:\Users\info\AppData\Local\Temp\cckkDHqh.s 			page 14


 535              		.loc 1 50 0
 536 0170 B346     		mov	fp, r6
 537 0172 CDF82080 		str	r8, [sp, #32]
 538 0176 DDF81080 		ldr	r8, [sp, #16]
 539 017a CDF81090 		str	r9, [sp, #16]
 540              	.LVL61:
 541 017e DDF81C90 		ldr	r9, [sp, #28]
 542 0182 CDF81CA0 		str	r10, [sp, #28]
 543              	.LVL62:
 544 0186 DDF818A0 		ldr	r10, [sp, #24]
 545              	.LVL63:
 546              	.L25:
 547 018a 08EB0602 		add	r2, r8, r6
 548 018e CDF800B0 		str	fp, [sp]
 549 0192 D2B2     		uxtb	r2, r2
 550 0194 0136     		adds	r6, r6, #1
 551              	.LVL64:
 552 0196 4B46     		mov	r3, r9
 553 0198 3946     		mov	r1, r7
 554 019a 2846     		mov	r0, r5
 555 019c FFF7FEFF 		bl	u8g2_DrawHVLine
 556              	.LVL65:
  48:..\u8g2-master\csrc/u8g2_box.c ****   { 
 557              		.loc 1 48 0
 558 01a0 B245     		cmp	r10, r6
 559 01a2 F2D1     		bne	.L25
 560 01a4 DDF82080 		ldr	r8, [sp, #32]
 561 01a8 DDF81090 		ldr	r9, [sp, #16]
 562 01ac DDF81CA0 		ldr	r10, [sp, #28]
 563 01b0 75E7     		b	.L24
 564              	.LVL66:
 565              	.L20:
 566              	.LBE34:
 567              	.LBE33:
  45:..\u8g2-master\csrc/u8g2_box.c ****     return;
 568              		.loc 1 45 0
 569 01b2 0499     		ldr	r1, [sp, #16]
 570 01b4 099E     		ldr	r6, [sp, #36]
 571 01b6 089B     		ldr	r3, [sp, #32]
 572 01b8 8A19     		adds	r2, r1, r6
 573 01ba D2B2     		uxtb	r2, r2
 574 01bc 0092     		str	r2, [sp]
 575 01be 2846     		mov	r0, r5
 576 01c0 0A46     		mov	r2, r1
 577 01c2 3946     		mov	r1, r7
 578 01c4 FFF7FEFF 		bl	u8g2_IsIntersection
 579              	.LVL67:
 580 01c8 0028     		cmp	r0, #0
 581 01ca 3FF468AF 		beq	.L24
 582              	.LVL68:
 583              	.LBB36:
 584              	.LBB35:
  48:..\u8g2-master\csrc/u8g2_box.c ****   { 
 585              		.loc 1 48 0
 586 01ce 002E     		cmp	r6, #0
 587 01d0 CDD1     		bne	.L27
 588 01d2 64E7     		b	.L24
ARM GAS  C:\Users\info\AppData\Local\Temp\cckkDHqh.s 			page 15


 589              	.LVL69:
 590              	.L21:
 591              	.LBE35:
 592              	.LBE36:
  45:..\u8g2-master\csrc/u8g2_box.c ****     return;
 593              		.loc 1 45 0
 594 01d4 049A     		ldr	r2, [sp, #16]
 595 01d6 089B     		ldr	r3, [sp, #32]
 596 01d8 0092     		str	r2, [sp]
 597 01da 3946     		mov	r1, r7
 598 01dc 2846     		mov	r0, r5
 599 01de FFF7FEFF 		bl	u8g2_IsIntersection
 600              	.LVL70:
 601 01e2 5CE7     		b	.L24
 602              	.LBE37:
 603              	.LBE39:
 604              	.LBE19:
 605              		.cfi_endproc
 606              	.LFE2:
 607              		.size	u8g2_DrawRBox, .-u8g2_DrawRBox
 608              		.section	.text.u8g2_DrawRFrame,"ax",%progbits
 609              		.align	2
 610              		.global	u8g2_DrawRFrame
 611              		.thumb
 612              		.thumb_func
 613              		.type	u8g2_DrawRFrame, %function
 614              	u8g2_DrawRFrame:
 615              	.LFB3:
 142:..\u8g2-master\csrc/u8g2_box.c **** 
 143:..\u8g2-master\csrc/u8g2_box.c **** 
 144:..\u8g2-master\csrc/u8g2_box.c **** void u8g2_DrawRFrame(u8g2_t *u8g2, u8g2_uint_t x, u8g2_uint_t y, u8g2_uint_t w, u8g2_uint_t h, u8g2
 145:..\u8g2-master\csrc/u8g2_box.c **** {
 616              		.loc 1 145 0
 617              		.cfi_startproc
 618              		@ args = 8, pretend = 0, frame = 8
 619              		@ frame_needed = 0, uses_anonymous_args = 0
 620              	.LVL71:
 621 0000 2DE9F04F 		push	{r4, r5, r6, r7, r8, r9, r10, fp, lr}
 622              		.cfi_def_cfa_offset 36
 623              		.cfi_offset 4, -36
 624              		.cfi_offset 5, -32
 625              		.cfi_offset 6, -28
 626              		.cfi_offset 7, -24
 627              		.cfi_offset 8, -20
 628              		.cfi_offset 9, -16
 629              		.cfi_offset 10, -12
 630              		.cfi_offset 11, -8
 631              		.cfi_offset 14, -4
 632 0004 85B0     		sub	sp, sp, #20
 633              		.cfi_def_cfa_offset 56
 634              		.loc 1 145 0
 635 0006 9DF83880 		ldrb	r8, [sp, #56]	@ zero_extendqisi2
 146:..\u8g2-master\csrc/u8g2_box.c ****   u8g2_uint_t xl, yu;
 147:..\u8g2-master\csrc/u8g2_box.c **** 
 148:..\u8g2-master\csrc/u8g2_box.c **** #ifdef U8G2_WITH_INTERSECTION
 149:..\u8g2-master\csrc/u8g2_box.c ****   if ( u8g2_IsIntersection(u8g2, x, y, x+w, y+h) == 0 ) 
 636              		.loc 1 149 0
ARM GAS  C:\Users\info\AppData\Local\Temp\cckkDHqh.s 			page 16


 637 000a CD18     		adds	r5, r1, r3
 638 000c 02EB080B 		add	fp, r2, r8
 639 0010 EDB2     		uxtb	r5, r5
 640 0012 5FFA8BFB 		uxtb	fp, fp
 145:..\u8g2-master\csrc/u8g2_box.c ****   u8g2_uint_t xl, yu;
 641              		.loc 1 145 0
 642 0016 1E46     		mov	r6, r3
 643              		.loc 1 149 0
 644 0018 CDF800B0 		str	fp, [sp]
 645 001c 2B46     		mov	r3, r5
 646              	.LVL72:
 145:..\u8g2-master\csrc/u8g2_box.c ****   u8g2_uint_t xl, yu;
 647              		.loc 1 145 0
 648 001e 8946     		mov	r9, r1
 649 0020 9246     		mov	r10, r2
 650 0022 0746     		mov	r7, r0
 651 0024 9DF83C40 		ldrb	r4, [sp, #60]	@ zero_extendqisi2
 652              		.loc 1 149 0
 653 0028 FFF7FEFF 		bl	u8g2_IsIntersection
 654              	.LVL73:
 655 002c 10B9     		cbnz	r0, .L55
 656              	.LVL74:
 657              	.L49:
 150:..\u8g2-master\csrc/u8g2_box.c ****     return;
 151:..\u8g2-master\csrc/u8g2_box.c **** #endif /* U8G2_WITH_INTERSECTION */
 152:..\u8g2-master\csrc/u8g2_box.c **** 
 153:..\u8g2-master\csrc/u8g2_box.c ****   xl = x;
 154:..\u8g2-master\csrc/u8g2_box.c ****   xl += r;
 155:..\u8g2-master\csrc/u8g2_box.c ****   yu = y;
 156:..\u8g2-master\csrc/u8g2_box.c ****   yu += r;
 157:..\u8g2-master\csrc/u8g2_box.c ****  
 158:..\u8g2-master\csrc/u8g2_box.c ****   {
 159:..\u8g2-master\csrc/u8g2_box.c ****     u8g2_uint_t yl, xr;
 160:..\u8g2-master\csrc/u8g2_box.c ****       
 161:..\u8g2-master\csrc/u8g2_box.c ****     xr = x;
 162:..\u8g2-master\csrc/u8g2_box.c ****     xr += w;
 163:..\u8g2-master\csrc/u8g2_box.c ****     xr -= r;
 164:..\u8g2-master\csrc/u8g2_box.c ****     xr -= 1;
 165:..\u8g2-master\csrc/u8g2_box.c ****     
 166:..\u8g2-master\csrc/u8g2_box.c ****     yl = y;
 167:..\u8g2-master\csrc/u8g2_box.c ****     yl += h;
 168:..\u8g2-master\csrc/u8g2_box.c ****     yl -= r; 
 169:..\u8g2-master\csrc/u8g2_box.c ****     yl -= 1;
 170:..\u8g2-master\csrc/u8g2_box.c **** 
 171:..\u8g2-master\csrc/u8g2_box.c ****     u8g2_DrawCircle(u8g2, xl, yu, r, U8G2_DRAW_UPPER_LEFT);
 172:..\u8g2-master\csrc/u8g2_box.c ****     u8g2_DrawCircle(u8g2, xr, yu, r, U8G2_DRAW_UPPER_RIGHT);
 173:..\u8g2-master\csrc/u8g2_box.c ****     u8g2_DrawCircle(u8g2, xl, yl, r, U8G2_DRAW_LOWER_LEFT);
 174:..\u8g2-master\csrc/u8g2_box.c ****     u8g2_DrawCircle(u8g2, xr, yl, r, U8G2_DRAW_LOWER_RIGHT);
 175:..\u8g2-master\csrc/u8g2_box.c ****   }
 176:..\u8g2-master\csrc/u8g2_box.c **** 
 177:..\u8g2-master\csrc/u8g2_box.c ****   {
 178:..\u8g2-master\csrc/u8g2_box.c ****     u8g2_uint_t ww, hh;
 179:..\u8g2-master\csrc/u8g2_box.c **** 
 180:..\u8g2-master\csrc/u8g2_box.c ****     ww = w;
 181:..\u8g2-master\csrc/u8g2_box.c ****     ww -= r;
 182:..\u8g2-master\csrc/u8g2_box.c ****     ww -= r;
 183:..\u8g2-master\csrc/u8g2_box.c ****     hh = h;
ARM GAS  C:\Users\info\AppData\Local\Temp\cckkDHqh.s 			page 17


 184:..\u8g2-master\csrc/u8g2_box.c ****     hh -= r;
 185:..\u8g2-master\csrc/u8g2_box.c ****     hh -= r;
 186:..\u8g2-master\csrc/u8g2_box.c ****     
 187:..\u8g2-master\csrc/u8g2_box.c ****     xl++;
 188:..\u8g2-master\csrc/u8g2_box.c ****     yu++;
 189:..\u8g2-master\csrc/u8g2_box.c ****     
 190:..\u8g2-master\csrc/u8g2_box.c ****     if ( ww >= 3 )
 191:..\u8g2-master\csrc/u8g2_box.c ****     {
 192:..\u8g2-master\csrc/u8g2_box.c ****       ww -= 2;
 193:..\u8g2-master\csrc/u8g2_box.c ****       h--;
 194:..\u8g2-master\csrc/u8g2_box.c ****       u8g2_DrawHLine(u8g2, xl, y, ww);
 195:..\u8g2-master\csrc/u8g2_box.c ****       u8g2_DrawHLine(u8g2, xl, y+h, ww);
 196:..\u8g2-master\csrc/u8g2_box.c ****     }
 197:..\u8g2-master\csrc/u8g2_box.c ****     
 198:..\u8g2-master\csrc/u8g2_box.c ****     if ( hh >= 3 )
 199:..\u8g2-master\csrc/u8g2_box.c ****     {
 200:..\u8g2-master\csrc/u8g2_box.c ****       hh -= 2;
 201:..\u8g2-master\csrc/u8g2_box.c ****       w--;
 202:..\u8g2-master\csrc/u8g2_box.c ****       u8g2_DrawVLine(u8g2, x, yu, hh);
 203:..\u8g2-master\csrc/u8g2_box.c ****       u8g2_DrawVLine(u8g2, x+w, yu, hh);
 204:..\u8g2-master\csrc/u8g2_box.c ****     }
 205:..\u8g2-master\csrc/u8g2_box.c ****   }
 206:..\u8g2-master\csrc/u8g2_box.c **** }
 658              		.loc 1 206 0
 659 002e 05B0     		add	sp, sp, #20
 660              		.cfi_remember_state
 661              		.cfi_def_cfa_offset 36
 662              		@ sp needed
 663 0030 BDE8F08F 		pop	{r4, r5, r6, r7, r8, r9, r10, fp, pc}
 664              	.LVL75:
 665              	.L55:
 666              		.cfi_restore_state
 667 0034 E343     		mvns	r3, r4
 154:..\u8g2-master\csrc/u8g2_box.c ****   yu = y;
 668              		.loc 1 154 0
 669 0036 09EB0401 		add	r1, r9, r4
 670 003a DBB2     		uxtb	r3, r3
 156:..\u8g2-master\csrc/u8g2_box.c ****  
 671              		.loc 1 156 0
 672 003c 0AEB0402 		add	r2, r10, r4
 673              	.LBB40:
 171:..\u8g2-master\csrc/u8g2_box.c ****     u8g2_DrawCircle(u8g2, xr, yu, r, U8G2_DRAW_UPPER_RIGHT);
 674              		.loc 1 171 0
 675 0040 0220     		movs	r0, #2
 676              	.LBE40:
 154:..\u8g2-master\csrc/u8g2_box.c ****   yu = y;
 677              		.loc 1 154 0
 678 0042 C9B2     		uxtb	r1, r1
 679              	.LVL76:
 156:..\u8g2-master\csrc/u8g2_box.c ****  
 680              		.loc 1 156 0
 681 0044 D2B2     		uxtb	r2, r2
 682              	.LVL77:
 683              	.LBB41:
 164:..\u8g2-master\csrc/u8g2_box.c ****     
 684              		.loc 1 164 0
 685 0046 1D44     		add	r5, r5, r3
ARM GAS  C:\Users\info\AppData\Local\Temp\cckkDHqh.s 			page 18


 686              	.LVL78:
 169:..\u8g2-master\csrc/u8g2_box.c **** 
 687              		.loc 1 169 0
 688 0048 9B44     		add	fp, fp, r3
 171:..\u8g2-master\csrc/u8g2_box.c ****     u8g2_DrawCircle(u8g2, xr, yu, r, U8G2_DRAW_UPPER_RIGHT);
 689              		.loc 1 171 0
 690 004a 0090     		str	r0, [sp]
 691 004c 2346     		mov	r3, r4
 692 004e 3846     		mov	r0, r7
 164:..\u8g2-master\csrc/u8g2_box.c ****     
 693              		.loc 1 164 0
 694 0050 EDB2     		uxtb	r5, r5
 695              	.LVL79:
 171:..\u8g2-master\csrc/u8g2_box.c ****     u8g2_DrawCircle(u8g2, xr, yu, r, U8G2_DRAW_UPPER_RIGHT);
 696              		.loc 1 171 0
 697 0052 0391     		str	r1, [sp, #12]
 698 0054 0292     		str	r2, [sp, #8]
 699 0056 FFF7FEFF 		bl	u8g2_DrawCircle
 700              	.LVL80:
 172:..\u8g2-master\csrc/u8g2_box.c ****     u8g2_DrawCircle(u8g2, xl, yl, r, U8G2_DRAW_LOWER_LEFT);
 701              		.loc 1 172 0
 702 005a 0123     		movs	r3, #1
 703 005c 2946     		mov	r1, r5
 704 005e 029A     		ldr	r2, [sp, #8]
 705 0060 0093     		str	r3, [sp]
 706 0062 3846     		mov	r0, r7
 707 0064 2346     		mov	r3, r4
 708 0066 FFF7FEFF 		bl	u8g2_DrawCircle
 709              	.LVL81:
 169:..\u8g2-master\csrc/u8g2_box.c **** 
 710              		.loc 1 169 0
 711 006a 5FFA8BFB 		uxtb	fp, fp
 712              	.LVL82:
 173:..\u8g2-master\csrc/u8g2_box.c ****     u8g2_DrawCircle(u8g2, xr, yl, r, U8G2_DRAW_LOWER_RIGHT);
 713              		.loc 1 173 0
 714 006e 0423     		movs	r3, #4
 715 0070 5A46     		mov	r2, fp
 716 0072 0399     		ldr	r1, [sp, #12]
 717 0074 0093     		str	r3, [sp]
 718 0076 3846     		mov	r0, r7
 719 0078 2346     		mov	r3, r4
 720 007a FFF7FEFF 		bl	u8g2_DrawCircle
 721              	.LVL83:
 174:..\u8g2-master\csrc/u8g2_box.c ****   }
 722              		.loc 1 174 0
 723 007e 0823     		movs	r3, #8
 724 0080 2946     		mov	r1, r5
 725              	.LBE41:
 726              	.LBB42:
 182:..\u8g2-master\csrc/u8g2_box.c ****     hh = h;
 727              		.loc 1 182 0
 728 0082 A6EB4405 		sub	r5, r6, r4, lsl #1
 729              	.LVL84:
 730              	.LBE42:
 731              	.LBB43:
 174:..\u8g2-master\csrc/u8g2_box.c ****   }
 732              		.loc 1 174 0
ARM GAS  C:\Users\info\AppData\Local\Temp\cckkDHqh.s 			page 19


 733 0086 0093     		str	r3, [sp]
 734 0088 5A46     		mov	r2, fp
 735 008a 2346     		mov	r3, r4
 736 008c 3846     		mov	r0, r7
 737              	.LBE43:
 738              	.LBB44:
 182:..\u8g2-master\csrc/u8g2_box.c ****     hh = h;
 739              		.loc 1 182 0
 740 008e 05F0FF05 		and	r5, r5, #255
 741              	.LBE44:
 742              	.LBB45:
 174:..\u8g2-master\csrc/u8g2_box.c ****   }
 743              		.loc 1 174 0
 744 0092 FFF7FEFF 		bl	u8g2_DrawCircle
 745              	.LVL85:
 746              	.LBE45:
 747              	.LBB46:
 185:..\u8g2-master\csrc/u8g2_box.c ****     
 748              		.loc 1 185 0
 749 0096 A8EB4404 		sub	r4, r8, r4, lsl #1
 750              	.LVL86:
 190:..\u8g2-master\csrc/u8g2_box.c ****     {
 751              		.loc 1 190 0
 752 009a 022D     		cmp	r5, #2
 185:..\u8g2-master\csrc/u8g2_box.c ****     
 753              		.loc 1 185 0
 754 009c 04F0FF04 		and	r4, r4, #255
 755              	.LVL87:
 190:..\u8g2-master\csrc/u8g2_box.c ****     {
 756              		.loc 1 190 0
 757 00a0 17D8     		bhi	.L56
 758              	.LVL88:
 759              	.L52:
 198:..\u8g2-master\csrc/u8g2_box.c ****     {
 760              		.loc 1 198 0
 761 00a2 022C     		cmp	r4, #2
 762 00a4 C3D9     		bls	.L49
 188:..\u8g2-master\csrc/u8g2_box.c ****     
 763              		.loc 1 188 0
 764 00a6 029D     		ldr	r5, [sp, #8]
 765              	.LVL89:
 200:..\u8g2-master\csrc/u8g2_box.c ****       w--;
 766              		.loc 1 200 0
 767 00a8 023C     		subs	r4, r4, #2
 768              	.LVL90:
 188:..\u8g2-master\csrc/u8g2_box.c ****     
 769              		.loc 1 188 0
 770 00aa 0135     		adds	r5, r5, #1
 771 00ac EDB2     		uxtb	r5, r5
 200:..\u8g2-master\csrc/u8g2_box.c ****       w--;
 772              		.loc 1 200 0
 773 00ae E4B2     		uxtb	r4, r4
 774              	.LVL91:
 202:..\u8g2-master\csrc/u8g2_box.c ****       u8g2_DrawVLine(u8g2, x+w, yu, hh);
 775              		.loc 1 202 0
 776 00b0 2346     		mov	r3, r4
 777 00b2 2A46     		mov	r2, r5
ARM GAS  C:\Users\info\AppData\Local\Temp\cckkDHqh.s 			page 20


 778 00b4 4946     		mov	r1, r9
 779 00b6 3846     		mov	r0, r7
 780 00b8 FFF7FEFF 		bl	u8g2_DrawVLine
 781              	.LVL92:
 203:..\u8g2-master\csrc/u8g2_box.c ****     }
 782              		.loc 1 203 0
 783 00bc 2346     		mov	r3, r4
 784 00be 2A46     		mov	r2, r5
 785 00c0 3846     		mov	r0, r7
 786 00c2 711E     		subs	r1, r6, #1
 787 00c4 4944     		add	r1, r1, r9
 788 00c6 C9B2     		uxtb	r1, r1
 789              	.LBE46:
 790              		.loc 1 206 0
 791 00c8 05B0     		add	sp, sp, #20
 792              		.cfi_remember_state
 793              		.cfi_def_cfa_offset 36
 794              		@ sp needed
 795 00ca BDE8F04F 		pop	{r4, r5, r6, r7, r8, r9, r10, fp, lr}
 796              		.cfi_restore 14
 797              		.cfi_restore 11
 798              		.cfi_restore 10
 799              		.cfi_restore 9
 800              		.cfi_restore 8
 801              		.cfi_restore 7
 802              		.cfi_restore 6
 803              		.cfi_restore 5
 804              		.cfi_restore 4
 805              		.cfi_def_cfa_offset 0
 806              	.LVL93:
 807              	.LBB47:
 203:..\u8g2-master\csrc/u8g2_box.c ****     }
 808              		.loc 1 203 0
 809 00ce FFF7FEBF 		b	u8g2_DrawVLine
 810              	.LVL94:
 811              	.L56:
 812              		.cfi_restore_state
 187:..\u8g2-master\csrc/u8g2_box.c ****     yu++;
 813              		.loc 1 187 0
 814 00d2 039B     		ldr	r3, [sp, #12]
 192:..\u8g2-master\csrc/u8g2_box.c ****       h--;
 815              		.loc 1 192 0
 816 00d4 023D     		subs	r5, r5, #2
 817              	.LVL95:
 187:..\u8g2-master\csrc/u8g2_box.c ****     yu++;
 818              		.loc 1 187 0
 819 00d6 03F1010B 		add	fp, r3, #1
 820              	.LVL96:
 821 00da 5FFA8BFB 		uxtb	fp, fp
 192:..\u8g2-master\csrc/u8g2_box.c ****       h--;
 822              		.loc 1 192 0
 823 00de EDB2     		uxtb	r5, r5
 824              	.LVL97:
 194:..\u8g2-master\csrc/u8g2_box.c ****       u8g2_DrawHLine(u8g2, xl, y+h, ww);
 825              		.loc 1 194 0
 826 00e0 2B46     		mov	r3, r5
 827 00e2 5946     		mov	r1, fp
ARM GAS  C:\Users\info\AppData\Local\Temp\cckkDHqh.s 			page 21


 828 00e4 5246     		mov	r2, r10
 829 00e6 3846     		mov	r0, r7
 830 00e8 FFF7FEFF 		bl	u8g2_DrawHLine
 831              	.LVL98:
 195:..\u8g2-master\csrc/u8g2_box.c ****     }
 832              		.loc 1 195 0
 833 00ec 08F1FF32 		add	r2, r8, #-1
 834 00f0 5244     		add	r2, r2, r10
 835 00f2 2B46     		mov	r3, r5
 836 00f4 5946     		mov	r1, fp
 837 00f6 D2B2     		uxtb	r2, r2
 838 00f8 3846     		mov	r0, r7
 839 00fa FFF7FEFF 		bl	u8g2_DrawHLine
 840              	.LVL99:
 841 00fe D0E7     		b	.L52
 842              	.LBE47:
 843              		.cfi_endproc
 844              	.LFE3:
 845              		.size	u8g2_DrawRFrame, .-u8g2_DrawRFrame
 846              		.text
 847              	.Letext0:
 848              		.file 2 "c:\\program files (x86)\\cypress\\psoc creator\\4.2\\psoc creator\\import\\gnu\\arm\\5.4.
 849              		.file 3 "c:\\program files (x86)\\cypress\\psoc creator\\4.2\\psoc creator\\import\\gnu\\arm\\5.4.
 850              		.file 4 "..\\u8g2-master\\csrc\\u8x8.h"
 851              		.file 5 "..\\u8g2-master\\csrc\\u8g2.h"