ARM GAS  C:\Users\info\AppData\Local\Temp\ccz4o3EV.s 			page 1


   1              		.syntax unified
   2              		.cpu cortex-m3
   3              		.fpu softvfp
   4              		.eabi_attribute 20, 1
   5              		.eabi_attribute 21, 1
   6              		.eabi_attribute 23, 3
   7              		.eabi_attribute 24, 1
   8              		.eabi_attribute 25, 1
   9              		.eabi_attribute 26, 1
  10              		.eabi_attribute 30, 2
  11              		.eabi_attribute 34, 1
  12              		.eabi_attribute 18, 4
  13              		.thumb
  14              		.syntax unified
  15              		.file	"u8g2_selection_list.c"
  16              		.text
  17              	.Ltext0:
  18              		.cfi_sections	.debug_frame
  19              		.section	.text.u8g2_DrawUTF8Line,"ax",%progbits
  20              		.align	2
  21              		.global	u8g2_DrawUTF8Line
  22              		.thumb
  23              		.thumb_func
  24              		.type	u8g2_DrawUTF8Line, %function
  25              	u8g2_DrawUTF8Line:
  26              	.LFB0:
  27              		.file 1 "..\\u8g2-master\\csrc\\u8g2_selection_list.c"
   1:..\u8g2-master\csrc/u8g2_selection_list.c **** /*
   2:..\u8g2-master\csrc/u8g2_selection_list.c **** 
   3:..\u8g2-master\csrc/u8g2_selection_list.c ****   u8g2_selection_list.c
   4:..\u8g2-master\csrc/u8g2_selection_list.c ****   
   5:..\u8g2-master\csrc/u8g2_selection_list.c ****   selection list with scroll option
   6:..\u8g2-master\csrc/u8g2_selection_list.c ****   
   7:..\u8g2-master\csrc/u8g2_selection_list.c ****   Universal 8bit Graphics Library (https://github.com/olikraus/u8g2/)
   8:..\u8g2-master\csrc/u8g2_selection_list.c **** 
   9:..\u8g2-master\csrc/u8g2_selection_list.c ****   Copyright (c) 2016, olikraus@gmail.com
  10:..\u8g2-master\csrc/u8g2_selection_list.c ****   All rights reserved.
  11:..\u8g2-master\csrc/u8g2_selection_list.c **** 
  12:..\u8g2-master\csrc/u8g2_selection_list.c ****   Redistribution and use in source and binary forms, with or without modification, 
  13:..\u8g2-master\csrc/u8g2_selection_list.c ****   are permitted provided that the following conditions are met:
  14:..\u8g2-master\csrc/u8g2_selection_list.c **** 
  15:..\u8g2-master\csrc/u8g2_selection_list.c ****   * Redistributions of source code must retain the above copyright notice, this list 
  16:..\u8g2-master\csrc/u8g2_selection_list.c ****     of conditions and the following disclaimer.
  17:..\u8g2-master\csrc/u8g2_selection_list.c ****     
  18:..\u8g2-master\csrc/u8g2_selection_list.c ****   * Redistributions in binary form must reproduce the above copyright notice, this 
  19:..\u8g2-master\csrc/u8g2_selection_list.c ****     list of conditions and the following disclaimer in the documentation and/or other 
  20:..\u8g2-master\csrc/u8g2_selection_list.c ****     materials provided with the distribution.
  21:..\u8g2-master\csrc/u8g2_selection_list.c **** 
  22:..\u8g2-master\csrc/u8g2_selection_list.c ****   THIS SOFTWARE IS PROVIDED BY THE COPYRIGHT HOLDERS AND 
  23:..\u8g2-master\csrc/u8g2_selection_list.c ****   CONTRIBUTORS "AS IS" AND ANY EXPRESS OR IMPLIED WARRANTIES, 
  24:..\u8g2-master\csrc/u8g2_selection_list.c ****   INCLUDING, BUT NOT LIMITED TO, THE IMPLIED WARRANTIES OF 
  25:..\u8g2-master\csrc/u8g2_selection_list.c ****   MERCHANTABILITY AND FITNESS FOR A PARTICULAR PURPOSE ARE 
  26:..\u8g2-master\csrc/u8g2_selection_list.c ****   DISCLAIMED. IN NO EVENT SHALL THE COPYRIGHT HOLDER OR 
  27:..\u8g2-master\csrc/u8g2_selection_list.c ****   CONTRIBUTORS BE LIABLE FOR ANY DIRECT, INDIRECT, INCIDENTAL, 
  28:..\u8g2-master\csrc/u8g2_selection_list.c ****   SPECIAL, EXEMPLARY, OR CONSEQUENTIAL DAMAGES (INCLUDING, BUT 
  29:..\u8g2-master\csrc/u8g2_selection_list.c ****   NOT LIMITED TO, PROCUREMENT OF SUBSTITUTE GOODS OR SERVICES; 
  30:..\u8g2-master\csrc/u8g2_selection_list.c ****   LOSS OF USE, DATA, OR PROFITS; OR BUSINESS INTERRUPTION) HOWEVER 
ARM GAS  C:\Users\info\AppData\Local\Temp\ccz4o3EV.s 			page 2


  31:..\u8g2-master\csrc/u8g2_selection_list.c ****   CAUSED AND ON ANY THEORY OF LIABILITY, WHETHER IN CONTRACT, 
  32:..\u8g2-master\csrc/u8g2_selection_list.c ****   STRICT LIABILITY, OR TORT (INCLUDING NEGLIGENCE OR OTHERWISE) 
  33:..\u8g2-master\csrc/u8g2_selection_list.c ****   ARISING IN ANY WAY OUT OF THE USE OF THIS SOFTWARE, EVEN IF 
  34:..\u8g2-master\csrc/u8g2_selection_list.c ****   ADVISED OF THE POSSIBILITY OF SUCH DAMAGE.  
  35:..\u8g2-master\csrc/u8g2_selection_list.c ****   
  36:..\u8g2-master\csrc/u8g2_selection_list.c **** */
  37:..\u8g2-master\csrc/u8g2_selection_list.c **** 
  38:..\u8g2-master\csrc/u8g2_selection_list.c **** #include "u8g2.h"
  39:..\u8g2-master\csrc/u8g2_selection_list.c **** 
  40:..\u8g2-master\csrc/u8g2_selection_list.c **** #define MY_BORDER_SIZE 1
  41:..\u8g2-master\csrc/u8g2_selection_list.c **** 
  42:..\u8g2-master\csrc/u8g2_selection_list.c **** 
  43:..\u8g2-master\csrc/u8g2_selection_list.c **** /*
  44:..\u8g2-master\csrc/u8g2_selection_list.c ****   Draw a string at x,y
  45:..\u8g2-master\csrc/u8g2_selection_list.c ****   Center string within w (left adjust if w < pixel len of s)
  46:..\u8g2-master\csrc/u8g2_selection_list.c ****   
  47:..\u8g2-master\csrc/u8g2_selection_list.c ****   Side effects:
  48:..\u8g2-master\csrc/u8g2_selection_list.c ****     u8g2_SetFontDirection(u8g2, 0);
  49:..\u8g2-master\csrc/u8g2_selection_list.c ****     u8g2_SetFontPosBaseline(u8g2);
  50:..\u8g2-master\csrc/u8g2_selection_list.c **** 
  51:..\u8g2-master\csrc/u8g2_selection_list.c **** */
  52:..\u8g2-master\csrc/u8g2_selection_list.c **** void u8g2_DrawUTF8Line(u8g2_t *u8g2, u8g2_uint_t x, u8g2_uint_t y, u8g2_uint_t w, const char *s, ui
  53:..\u8g2-master\csrc/u8g2_selection_list.c **** {
  28              		.loc 1 53 0
  29              		.cfi_startproc
  30              		@ args = 12, pretend = 0, frame = 16
  31              		@ frame_needed = 0, uses_anonymous_args = 0
  32              	.LVL0:
  33 0000 2DE9F04F 		push	{r4, r5, r6, r7, r8, r9, r10, fp, lr}
  34              		.cfi_def_cfa_offset 36
  35              		.cfi_offset 4, -36
  36              		.cfi_offset 5, -32
  37              		.cfi_offset 6, -28
  38              		.cfi_offset 7, -24
  39              		.cfi_offset 8, -20
  40              		.cfi_offset 9, -16
  41              		.cfi_offset 10, -12
  42              		.cfi_offset 11, -8
  43              		.cfi_offset 14, -4
  44 0004 8146     		mov	r9, r0
  45 0006 87B0     		sub	sp, sp, #28
  46              		.cfi_def_cfa_offset 64
  47              		.loc 1 53 0
  48 0008 1E46     		mov	r6, r3
  49 000a 109B     		ldr	r3, [sp, #64]
  50              	.LVL1:
  51 000c 8A46     		mov	r10, r1
  52 000e 1D46     		mov	r5, r3
  53 0010 0593     		str	r3, [sp, #20]
  54 0012 9DF84830 		ldrb	r3, [sp, #72]	@ zero_extendqisi2
  54:..\u8g2-master\csrc/u8g2_selection_list.c ****   u8g2_uint_t d, str_width;
  55:..\u8g2-master\csrc/u8g2_selection_list.c ****   u8g2_uint_t fx, fy, fw, fh;
  56:..\u8g2-master\csrc/u8g2_selection_list.c **** 
  57:..\u8g2-master\csrc/u8g2_selection_list.c ****   /* only horizontal strings are supported, so force this here */
  58:..\u8g2-master\csrc/u8g2_selection_list.c ****   u8g2_SetFontDirection(u8g2, 0);
  55              		.loc 1 58 0
  56 0016 0021     		movs	r1, #0
ARM GAS  C:\Users\info\AppData\Local\Temp\ccz4o3EV.s 			page 3


  57              	.LVL2:
  53:..\u8g2-master\csrc/u8g2_selection_list.c ****   u8g2_uint_t d, str_width;
  58              		.loc 1 53 0
  59 0018 1446     		mov	r4, r2
  60 001a 0393     		str	r3, [sp, #12]
  61 001c 9DF84470 		ldrb	r7, [sp, #68]	@ zero_extendqisi2
  62              		.loc 1 58 0
  63 0020 FFF7FEFF 		bl	u8g2_SetFontDirection
  64              	.LVL3:
  59:..\u8g2-master\csrc/u8g2_selection_list.c **** 
  60:..\u8g2-master\csrc/u8g2_selection_list.c ****   /* revert y position back to baseline ref */
  61:..\u8g2-master\csrc/u8g2_selection_list.c ****   y += u8g2->font_calc_vref(u8g2);   
  65              		.loc 1 61 0
  66 0024 D9F85430 		ldr	r3, [r9, #84]
  67 0028 4846     		mov	r0, r9
  68 002a 9847     		blx	r3
  69              	.LVL4:
  62:..\u8g2-master\csrc/u8g2_selection_list.c **** 
  63:..\u8g2-master\csrc/u8g2_selection_list.c ****   /* calculate the width of the string in pixel */
  64:..\u8g2-master\csrc/u8g2_selection_list.c ****   str_width = u8g2_GetUTF8Width(u8g2, s);
  70              		.loc 1 64 0
  71 002c 2946     		mov	r1, r5
  61:..\u8g2-master\csrc/u8g2_selection_list.c **** 
  72              		.loc 1 61 0
  73 002e 0444     		add	r4, r4, r0
  74              		.loc 1 64 0
  75 0030 4846     		mov	r0, r9
  76 0032 FFF7FEFF 		bl	u8g2_GetUTF8Width
  77              	.LVL5:
  65:..\u8g2-master\csrc/u8g2_selection_list.c **** 
  66:..\u8g2-master\csrc/u8g2_selection_list.c ****   /* calculate delta d within the box */
  67:..\u8g2-master\csrc/u8g2_selection_list.c ****   d = 0;
  68:..\u8g2-master\csrc/u8g2_selection_list.c ****   if ( str_width < w )
  78              		.loc 1 68 0
  79 0036 B042     		cmp	r0, r6
  61:..\u8g2-master\csrc/u8g2_selection_list.c **** 
  80              		.loc 1 61 0
  81 0038 5FFA84FB 		uxtb	fp, r4
  82              	.LVL6:
  64:..\u8g2-master\csrc/u8g2_selection_list.c **** 
  83              		.loc 1 64 0
  84 003c 0546     		mov	r5, r0
  85              	.LVL7:
  86              		.loc 1 68 0
  87 003e 3FD2     		bcs	.L9
  88              	.LVL8:
  69:..\u8g2-master\csrc/u8g2_selection_list.c ****   {
  70:..\u8g2-master\csrc/u8g2_selection_list.c ****     d = w;
  71:..\u8g2-master\csrc/u8g2_selection_list.c ****     d -=str_width;
  89              		.loc 1 71 0
  90 0040 351A     		subs	r5, r6, r0
  91              	.LVL9:
  72:..\u8g2-master\csrc/u8g2_selection_list.c ****     d /= 2;
  92              		.loc 1 72 0
  93 0042 C5F34603 		ubfx	r3, r5, #1, #7
  94 0046 3546     		mov	r5, r6
  95              	.LVL10:
ARM GAS  C:\Users\info\AppData\Local\Temp\ccz4o3EV.s 			page 4


  96 0048 0493     		str	r3, [sp, #16]
  97              	.LVL11:
  98              	.L2:
  73:..\u8g2-master\csrc/u8g2_selection_list.c ****   }
  74:..\u8g2-master\csrc/u8g2_selection_list.c ****   else
  75:..\u8g2-master\csrc/u8g2_selection_list.c ****   {
  76:..\u8g2-master\csrc/u8g2_selection_list.c ****     w = str_width;
  77:..\u8g2-master\csrc/u8g2_selection_list.c ****   }
  78:..\u8g2-master\csrc/u8g2_selection_list.c **** 
  79:..\u8g2-master\csrc/u8g2_selection_list.c ****   /* caluclate text box */
  80:..\u8g2-master\csrc/u8g2_selection_list.c ****   fx = x;
  81:..\u8g2-master\csrc/u8g2_selection_list.c ****   fy = y - u8g2_GetAscent(u8g2) ;
  99              		.loc 1 81 0
 100 004a 99F88230 		ldrb	r3, [r9, #130]	@ zero_extendqisi2
  82:..\u8g2-master\csrc/u8g2_selection_list.c ****   fw = w;
  83:..\u8g2-master\csrc/u8g2_selection_list.c ****   fh = u8g2_GetAscent(u8g2) - u8g2_GetDescent(u8g2) ;
 101              		.loc 1 83 0
 102 004e 99F88340 		ldrb	r4, [r9, #131]	@ zero_extendqisi2
  84:..\u8g2-master\csrc/u8g2_selection_list.c **** 
  85:..\u8g2-master\csrc/u8g2_selection_list.c ****   /* draw the box, if inverted */
  86:..\u8g2-master\csrc/u8g2_selection_list.c ****   u8g2_SetDrawColor(u8g2, 1);
 103              		.loc 1 86 0
 104 0052 0121     		movs	r1, #1
 105 0054 4846     		mov	r0, r9
 106              	.LVL12:
  81:..\u8g2-master\csrc/u8g2_selection_list.c ****   fw = w;
 107              		.loc 1 81 0
 108 0056 C3EB0B06 		rsb	r6, r3, fp
  83:..\u8g2-master\csrc/u8g2_selection_list.c **** 
 109              		.loc 1 83 0
 110 005a 1C1B     		subs	r4, r3, r4
 111              		.loc 1 86 0
 112 005c FFF7FEFF 		bl	u8g2_SetDrawColor
 113              	.LVL13:
  87:..\u8g2-master\csrc/u8g2_selection_list.c ****   if ( is_invert )
 114              		.loc 1 87 0
 115 0060 039B     		ldr	r3, [sp, #12]
  81:..\u8g2-master\csrc/u8g2_selection_list.c ****   fw = w;
 116              		.loc 1 81 0
 117 0062 F6B2     		uxtb	r6, r6
 118              	.LVL14:
  83:..\u8g2-master\csrc/u8g2_selection_list.c **** 
 119              		.loc 1 83 0
 120 0064 E4B2     		uxtb	r4, r4
 121              	.LVL15:
 122              		.loc 1 87 0
 123 0066 73BB     		cbnz	r3, .L13
 124              	.LVL16:
  88:..\u8g2-master\csrc/u8g2_selection_list.c ****   {
  89:..\u8g2-master\csrc/u8g2_selection_list.c ****     u8g2_DrawBox(u8g2, fx, fy, fw, fh);
  90:..\u8g2-master\csrc/u8g2_selection_list.c ****   }
  91:..\u8g2-master\csrc/u8g2_selection_list.c **** 
  92:..\u8g2-master\csrc/u8g2_selection_list.c ****   /* draw the frame */
  93:..\u8g2-master\csrc/u8g2_selection_list.c ****   while( border_size > 0 )
 125              		.loc 1 93 0
 126 0068 BFB1     		cbz	r7, .L8
 127              	.L4:
ARM GAS  C:\Users\info\AppData\Local\Temp\ccz4o3EV.s 			page 5


  67:..\u8g2-master\csrc/u8g2_selection_list.c ****   if ( str_width < w )
 128              		.loc 1 67 0
 129 006a D046     		mov	r8, r10
 130              	.LVL17:
 131              	.L6:
  94:..\u8g2-master\csrc/u8g2_selection_list.c ****   {
  95:..\u8g2-master\csrc/u8g2_selection_list.c ****     fx--;
 132              		.loc 1 95 0
 133 006c 08F1FF38 		add	r8, r8, #-1
 134              	.LVL18:
  96:..\u8g2-master\csrc/u8g2_selection_list.c ****     fy--;
 135              		.loc 1 96 0
 136 0070 013E     		subs	r6, r6, #1
 137              	.LVL19:
  97:..\u8g2-master\csrc/u8g2_selection_list.c ****     fw +=2;
 138              		.loc 1 97 0
 139 0072 0235     		adds	r5, r5, #2
 140              	.LVL20:
  98:..\u8g2-master\csrc/u8g2_selection_list.c ****     fh +=2;
 141              		.loc 1 98 0
 142 0074 0234     		adds	r4, r4, #2
 143              	.LVL21:
  95:..\u8g2-master\csrc/u8g2_selection_list.c ****     fy--;
 144              		.loc 1 95 0
 145 0076 5FFA88F8 		uxtb	r8, r8
 146              	.LVL22:
  96:..\u8g2-master\csrc/u8g2_selection_list.c ****     fw +=2;
 147              		.loc 1 96 0
 148 007a F6B2     		uxtb	r6, r6
 149              	.LVL23:
  97:..\u8g2-master\csrc/u8g2_selection_list.c ****     fh +=2;
 150              		.loc 1 97 0
 151 007c EDB2     		uxtb	r5, r5
 152              	.LVL24:
 153              		.loc 1 98 0
 154 007e E4B2     		uxtb	r4, r4
 155              	.LVL25:
  99:..\u8g2-master\csrc/u8g2_selection_list.c ****     u8g2_DrawFrame(u8g2, fx, fy, fw, fh );
 156              		.loc 1 99 0
 157 0080 0094     		str	r4, [sp]
 158 0082 2B46     		mov	r3, r5
 159 0084 3246     		mov	r2, r6
 160 0086 4146     		mov	r1, r8
 161 0088 4846     		mov	r0, r9
 100:..\u8g2-master\csrc/u8g2_selection_list.c ****     border_size--;
 162              		.loc 1 100 0
 163 008a 013F     		subs	r7, r7, #1
 164              	.LVL26:
  99:..\u8g2-master\csrc/u8g2_selection_list.c ****     u8g2_DrawFrame(u8g2, fx, fy, fw, fh );
 165              		.loc 1 99 0
 166 008c FFF7FEFF 		bl	u8g2_DrawFrame
 167              	.LVL27:
  93:..\u8g2-master\csrc/u8g2_selection_list.c ****   {
 168              		.loc 1 93 0
 169 0090 17F0FF07 		ands	r7, r7, #255
 170              	.LVL28:
 171 0094 EAD1     		bne	.L6
ARM GAS  C:\Users\info\AppData\Local\Temp\ccz4o3EV.s 			page 6


 101:..\u8g2-master\csrc/u8g2_selection_list.c ****   }
 102:..\u8g2-master\csrc/u8g2_selection_list.c **** 
 103:..\u8g2-master\csrc/u8g2_selection_list.c ****   if ( is_invert )
 172              		.loc 1 103 0
 173 0096 039B     		ldr	r3, [sp, #12]
 174 0098 F3B9     		cbnz	r3, .L7
 175              	.LVL29:
 176              	.L8:
 104:..\u8g2-master\csrc/u8g2_selection_list.c ****   {
 105:..\u8g2-master\csrc/u8g2_selection_list.c ****     u8g2_SetDrawColor(u8g2, 0);
 106:..\u8g2-master\csrc/u8g2_selection_list.c ****   }
 107:..\u8g2-master\csrc/u8g2_selection_list.c ****   else
 108:..\u8g2-master\csrc/u8g2_selection_list.c ****   {
 109:..\u8g2-master\csrc/u8g2_selection_list.c ****     u8g2_SetDrawColor(u8g2, 1);
 177              		.loc 1 109 0
 178 009a 0121     		movs	r1, #1
 179 009c 4846     		mov	r0, r9
 180 009e FFF7FEFF 		bl	u8g2_SetDrawColor
 181              	.LVL30:
 182              	.L5:
 110:..\u8g2-master\csrc/u8g2_selection_list.c ****   }
 111:..\u8g2-master\csrc/u8g2_selection_list.c **** 
 112:..\u8g2-master\csrc/u8g2_selection_list.c ****   /* draw the text */
 113:..\u8g2-master\csrc/u8g2_selection_list.c ****   u8g2_DrawUTF8(u8g2, x+d, y, s);
 183              		.loc 1 113 0
 184 00a2 049B     		ldr	r3, [sp, #16]
 185 00a4 5A46     		mov	r2, fp
 186 00a6 5344     		add	r3, r3, r10
 187 00a8 D9B2     		uxtb	r1, r3
 188 00aa 4846     		mov	r0, r9
 189 00ac 059B     		ldr	r3, [sp, #20]
 190 00ae FFF7FEFF 		bl	u8g2_DrawUTF8
 191              	.LVL31:
 114:..\u8g2-master\csrc/u8g2_selection_list.c **** 
 115:..\u8g2-master\csrc/u8g2_selection_list.c ****   /* revert draw color */
 116:..\u8g2-master\csrc/u8g2_selection_list.c ****   u8g2_SetDrawColor(u8g2, 1);
 192              		.loc 1 116 0
 193 00b2 4846     		mov	r0, r9
 194 00b4 0121     		movs	r1, #1
 117:..\u8g2-master\csrc/u8g2_selection_list.c **** 
 118:..\u8g2-master\csrc/u8g2_selection_list.c **** }
 195              		.loc 1 118 0
 196 00b6 07B0     		add	sp, sp, #28
 197              		.cfi_remember_state
 198              		.cfi_def_cfa_offset 36
 199              		@ sp needed
 200 00b8 BDE8F04F 		pop	{r4, r5, r6, r7, r8, r9, r10, fp, lr}
 201              		.cfi_restore 14
 202              		.cfi_restore 11
 203              		.cfi_restore 10
 204              		.cfi_restore 9
 205              		.cfi_restore 8
 206              		.cfi_restore 7
 207              		.cfi_restore 6
 208              		.cfi_restore 5
 209              		.cfi_restore 4
 210              		.cfi_def_cfa_offset 0
ARM GAS  C:\Users\info\AppData\Local\Temp\ccz4o3EV.s 			page 7


 211              	.LVL32:
 116:..\u8g2-master\csrc/u8g2_selection_list.c **** 
 212              		.loc 1 116 0
 213 00bc FFF7FEBF 		b	u8g2_SetDrawColor
 214              	.LVL33:
 215              	.L9:
 216              		.cfi_restore_state
  67:..\u8g2-master\csrc/u8g2_selection_list.c ****   if ( str_width < w )
 217              		.loc 1 67 0
 218 00c0 0023     		movs	r3, #0
 219 00c2 0493     		str	r3, [sp, #16]
 220 00c4 C1E7     		b	.L2
 221              	.LVL34:
 222              	.L13:
  89:..\u8g2-master\csrc/u8g2_selection_list.c ****   }
 223              		.loc 1 89 0
 224 00c6 0094     		str	r4, [sp]
 225 00c8 2B46     		mov	r3, r5
 226 00ca 3246     		mov	r2, r6
 227 00cc 5146     		mov	r1, r10
 228 00ce 4846     		mov	r0, r9
 229 00d0 FFF7FEFF 		bl	u8g2_DrawBox
 230              	.LVL35:
  93:..\u8g2-master\csrc/u8g2_selection_list.c ****   {
 231              		.loc 1 93 0
 232 00d4 002F     		cmp	r7, #0
 233 00d6 C8D1     		bne	.L4
 234              	.LVL36:
 235              	.L7:
 105:..\u8g2-master\csrc/u8g2_selection_list.c ****   }
 236              		.loc 1 105 0
 237 00d8 0021     		movs	r1, #0
 238 00da 4846     		mov	r0, r9
 239 00dc FFF7FEFF 		bl	u8g2_SetDrawColor
 240              	.LVL37:
 241 00e0 DFE7     		b	.L5
 242              		.cfi_endproc
 243              	.LFE0:
 244              		.size	u8g2_DrawUTF8Line, .-u8g2_DrawUTF8Line
 245 00e2 00BF     		.section	.text.u8g2_draw_selection_list_line.isra.0,"ax",%progbits
 246              		.align	2
 247              		.thumb
 248              		.thumb_func
 249              		.type	u8g2_draw_selection_list_line.isra.0, %function
 250              	u8g2_draw_selection_list_line.isra.0:
 251              	.LFB5:
 119:..\u8g2-master\csrc/u8g2_selection_list.c **** 
 120:..\u8g2-master\csrc/u8g2_selection_list.c **** 
 121:..\u8g2-master\csrc/u8g2_selection_list.c **** /*
 122:..\u8g2-master\csrc/u8g2_selection_list.c ****   draw several lines at position x,y.
 123:..\u8g2-master\csrc/u8g2_selection_list.c ****   lines are stored in s and must be separated with '\n'.
 124:..\u8g2-master\csrc/u8g2_selection_list.c ****   lines can be centered with respect to "w"
 125:..\u8g2-master\csrc/u8g2_selection_list.c ****   if s == NULL nothing is drawn and 0 is returned
 126:..\u8g2-master\csrc/u8g2_selection_list.c ****   returns the number of lines in s multiplied with line_height
 127:..\u8g2-master\csrc/u8g2_selection_list.c **** */
 128:..\u8g2-master\csrc/u8g2_selection_list.c **** u8g2_uint_t u8g2_DrawUTF8Lines(u8g2_t *u8g2, u8g2_uint_t x, u8g2_uint_t y, u8g2_uint_t w, u8g2_uint
 129:..\u8g2-master\csrc/u8g2_selection_list.c **** {
ARM GAS  C:\Users\info\AppData\Local\Temp\ccz4o3EV.s 			page 8


 130:..\u8g2-master\csrc/u8g2_selection_list.c ****   uint8_t i;
 131:..\u8g2-master\csrc/u8g2_selection_list.c ****   uint8_t cnt;
 132:..\u8g2-master\csrc/u8g2_selection_list.c ****   u8g2_uint_t yy = 0;
 133:..\u8g2-master\csrc/u8g2_selection_list.c ****   cnt = u8x8_GetStringLineCnt(s);
 134:..\u8g2-master\csrc/u8g2_selection_list.c ****   //printf("str=%s\n", s);
 135:..\u8g2-master\csrc/u8g2_selection_list.c ****   //printf("cnt=%d, y=%d, line_height=%d\n", cnt, y, line_height);
 136:..\u8g2-master\csrc/u8g2_selection_list.c ****   for( i = 0; i < cnt; i++ )
 137:..\u8g2-master\csrc/u8g2_selection_list.c ****   {
 138:..\u8g2-master\csrc/u8g2_selection_list.c ****     //printf("  i=%d, y=%d, line_height=%d\n", i, y, line_height);
 139:..\u8g2-master\csrc/u8g2_selection_list.c ****     u8g2_DrawUTF8Line(u8g2, x, y, w, u8x8_GetStringLineStart(i, s), 0, 0);
 140:..\u8g2-master\csrc/u8g2_selection_list.c ****     y+=line_height;
 141:..\u8g2-master\csrc/u8g2_selection_list.c ****     yy+=line_height;
 142:..\u8g2-master\csrc/u8g2_selection_list.c ****   }
 143:..\u8g2-master\csrc/u8g2_selection_list.c ****   return yy;
 144:..\u8g2-master\csrc/u8g2_selection_list.c **** }
 145:..\u8g2-master\csrc/u8g2_selection_list.c **** 
 146:..\u8g2-master\csrc/u8g2_selection_list.c **** /*
 147:..\u8g2-master\csrc/u8g2_selection_list.c ****   selection list with string line
 148:..\u8g2-master\csrc/u8g2_selection_list.c ****   returns line height
 149:..\u8g2-master\csrc/u8g2_selection_list.c **** */
 150:..\u8g2-master\csrc/u8g2_selection_list.c **** static u8g2_uint_t u8g2_draw_selection_list_line(u8g2_t *u8g2, u8sl_t *u8sl, u8g2_uint_t y, uint8_t
 151:..\u8g2-master\csrc/u8g2_selection_list.c **** static u8g2_uint_t u8g2_draw_selection_list_line(u8g2_t *u8g2, u8sl_t *u8sl, u8g2_uint_t y, uint8_t
 252              		.loc 1 151 0
 253              		.cfi_startproc
 254              		@ args = 4, pretend = 0, frame = 0
 255              		@ frame_needed = 0, uses_anonymous_args = 0
 256              	.LVL38:
 257 0000 F0B5     		push	{r4, r5, r6, r7, lr}
 258              		.cfi_def_cfa_offset 20
 259              		.cfi_offset 4, -20
 260              		.cfi_offset 5, -16
 261              		.cfi_offset 6, -12
 262              		.cfi_offset 7, -8
 263              		.cfi_offset 14, -4
 152:..\u8g2-master\csrc/u8g2_selection_list.c **** {
 153:..\u8g2-master\csrc/u8g2_selection_list.c ****   u8g2_uint_t yy;
 154:..\u8g2-master\csrc/u8g2_selection_list.c ****   uint8_t border_size = 0;
 155:..\u8g2-master\csrc/u8g2_selection_list.c ****   uint8_t is_invert = 0;
 156:..\u8g2-master\csrc/u8g2_selection_list.c **** 	
 157:..\u8g2-master\csrc/u8g2_selection_list.c ****   u8g2_uint_t line_height = u8g2_GetAscent(u8g2) - u8g2_GetDescent(u8g2)+MY_BORDER_SIZE;
 264              		.loc 1 157 0
 265 0002 90F88240 		ldrb	r4, [r0, #130]	@ zero_extendqisi2
 151:..\u8g2-master\csrc/u8g2_selection_list.c **** {
 266              		.loc 1 151 0
 267 0006 85B0     		sub	sp, sp, #20
 268              		.cfi_def_cfa_offset 40
 269              		.loc 1 157 0
 270 0008 90F88370 		ldrb	r7, [r0, #131]	@ zero_extendqisi2
 151:..\u8g2-master\csrc/u8g2_selection_list.c **** {
 271              		.loc 1 151 0
 272 000c 0546     		mov	r5, r0
 154:..\u8g2-master\csrc/u8g2_selection_list.c ****   uint8_t is_invert = 0;
 273              		.loc 1 154 0
 274 000e 5E1A     		subs	r6, r3, r1
 158:..\u8g2-master\csrc/u8g2_selection_list.c **** 
 159:..\u8g2-master\csrc/u8g2_selection_list.c ****   /* calculate offset from display upper border */
 160:..\u8g2-master\csrc/u8g2_selection_list.c ****   yy = idx;
ARM GAS  C:\Users\info\AppData\Local\Temp\ccz4o3EV.s 			page 9


 161:..\u8g2-master\csrc/u8g2_selection_list.c ****   yy -= u8sl->first_pos;
 162:..\u8g2-master\csrc/u8g2_selection_list.c ****   yy *= line_height;
 163:..\u8g2-master\csrc/u8g2_selection_list.c ****   yy += y;
 164:..\u8g2-master\csrc/u8g2_selection_list.c **** 
 165:..\u8g2-master\csrc/u8g2_selection_list.c ****   /* check whether this is the current cursor line */
 166:..\u8g2-master\csrc/u8g2_selection_list.c ****   if ( idx == u8sl->current_pos )
 167:..\u8g2-master\csrc/u8g2_selection_list.c ****   {
 168:..\u8g2-master\csrc/u8g2_selection_list.c ****     border_size = MY_BORDER_SIZE;
 169:..\u8g2-master\csrc/u8g2_selection_list.c ****     is_invert = 1;
 170:..\u8g2-master\csrc/u8g2_selection_list.c ****   }
 171:..\u8g2-master\csrc/u8g2_selection_list.c **** 
 172:..\u8g2-master\csrc/u8g2_selection_list.c ****   /* get the line from the array */
 173:..\u8g2-master\csrc/u8g2_selection_list.c ****   s = u8x8_GetStringLineStart(idx, s);
 275              		.loc 1 173 0
 276 0010 1846     		mov	r0, r3
 277              	.LVL39:
 278 0012 0A99     		ldr	r1, [sp, #40]
 157:..\u8g2-master\csrc/u8g2_selection_list.c **** 
 279              		.loc 1 157 0
 280 0014 0134     		adds	r4, r4, #1
 281 0016 E41B     		subs	r4, r4, r7
 151:..\u8g2-master\csrc/u8g2_selection_list.c **** {
 282              		.loc 1 151 0
 283 0018 1746     		mov	r7, r2
 284              		.loc 1 173 0
 285 001a FFF7FEFF 		bl	u8x8_GetStringLineStart
 286              	.LVL40:
 174:..\u8g2-master\csrc/u8g2_selection_list.c **** 
 175:..\u8g2-master\csrc/u8g2_selection_list.c ****   /* draw the line */
 176:..\u8g2-master\csrc/u8g2_selection_list.c ****   if ( s == NULL )
 177:..\u8g2-master\csrc/u8g2_selection_list.c ****     s = "";
 287              		.loc 1 177 0
 288 001e 0B49     		ldr	r1, .L17
 154:..\u8g2-master\csrc/u8g2_selection_list.c ****   uint8_t is_invert = 0;
 289              		.loc 1 154 0
 290 0020 B6FA86F6 		clz	r6, r6
 291              		.loc 1 177 0
 292 0024 0028     		cmp	r0, #0
 293 0026 08BF     		it	eq
 294 0028 0846     		moveq	r0, r1
 178:..\u8g2-master\csrc/u8g2_selection_list.c ****   u8g2_DrawUTF8Line(u8g2, MY_BORDER_SIZE, y, u8g2_GetDisplayWidth(u8g2)-2*MY_BORDER_SIZE, s, border
 295              		.loc 1 178 0
 296 002a 95F84330 		ldrb	r3, [r5, #67]	@ zero_extendqisi2
 154:..\u8g2-master\csrc/u8g2_selection_list.c ****   uint8_t is_invert = 0;
 297              		.loc 1 154 0
 298 002e 7609     		lsrs	r6, r6, #5
 299              		.loc 1 178 0
 300 0030 023B     		subs	r3, r3, #2
 301 0032 0090     		str	r0, [sp]
 157:..\u8g2-master\csrc/u8g2_selection_list.c **** 
 302              		.loc 1 157 0
 303 0034 E4B2     		uxtb	r4, r4
 304              	.LVL41:
 305              		.loc 1 178 0
 306 0036 2846     		mov	r0, r5
 307              	.LVL42:
 308 0038 0296     		str	r6, [sp, #8]
ARM GAS  C:\Users\info\AppData\Local\Temp\ccz4o3EV.s 			page 10


 309 003a 0196     		str	r6, [sp, #4]
 310 003c 3A46     		mov	r2, r7
 311 003e DBB2     		uxtb	r3, r3
 312 0040 0121     		movs	r1, #1
 313 0042 FFF7FEFF 		bl	u8g2_DrawUTF8Line
 314              	.LVL43:
 179:..\u8g2-master\csrc/u8g2_selection_list.c ****   return line_height;
 180:..\u8g2-master\csrc/u8g2_selection_list.c **** }
 315              		.loc 1 180 0
 316 0046 2046     		mov	r0, r4
 317 0048 05B0     		add	sp, sp, #20
 318              		.cfi_def_cfa_offset 20
 319              		@ sp needed
 320 004a F0BD     		pop	{r4, r5, r6, r7, pc}
 321              	.LVL44:
 322              	.L18:
 323              		.align	2
 324              	.L17:
 325 004c 00000000 		.word	.LC0
 326              		.cfi_endproc
 327              	.LFE5:
 328              		.size	u8g2_draw_selection_list_line.isra.0, .-u8g2_draw_selection_list_line.isra.0
 329              		.section	.text.u8g2_DrawUTF8Lines,"ax",%progbits
 330              		.align	2
 331              		.global	u8g2_DrawUTF8Lines
 332              		.thumb
 333              		.thumb_func
 334              		.type	u8g2_DrawUTF8Lines, %function
 335              	u8g2_DrawUTF8Lines:
 336              	.LFB1:
 129:..\u8g2-master\csrc/u8g2_selection_list.c ****   uint8_t i;
 337              		.loc 1 129 0
 338              		.cfi_startproc
 339              		@ args = 8, pretend = 0, frame = 8
 340              		@ frame_needed = 0, uses_anonymous_args = 0
 341              	.LVL45:
 342 0000 2DE9F04F 		push	{r4, r5, r6, r7, r8, r9, r10, fp, lr}
 343              		.cfi_def_cfa_offset 36
 344              		.cfi_offset 4, -36
 345              		.cfi_offset 5, -32
 346              		.cfi_offset 6, -28
 347              		.cfi_offset 7, -24
 348              		.cfi_offset 8, -20
 349              		.cfi_offset 9, -16
 350              		.cfi_offset 10, -12
 351              		.cfi_offset 11, -8
 352              		.cfi_offset 14, -4
 353 0004 83B0     		sub	sp, sp, #12
 354              		.cfi_def_cfa_offset 48
 129:..\u8g2-master\csrc/u8g2_selection_list.c ****   uint8_t i;
 355              		.loc 1 129 0
 356 0006 0446     		mov	r4, r0
 133:..\u8g2-master\csrc/u8g2_selection_list.c ****   //printf("str=%s\n", s);
 357              		.loc 1 133 0
 358 0008 0D98     		ldr	r0, [sp, #52]
 359              	.LVL46:
 129:..\u8g2-master\csrc/u8g2_selection_list.c ****   uint8_t i;
ARM GAS  C:\Users\info\AppData\Local\Temp\ccz4o3EV.s 			page 11


 360              		.loc 1 129 0
 361 000a 0091     		str	r1, [sp]
 362 000c 1546     		mov	r5, r2
 363 000e 0193     		str	r3, [sp, #4]
 364 0010 9DF83080 		ldrb	r8, [sp, #48]	@ zero_extendqisi2
 133:..\u8g2-master\csrc/u8g2_selection_list.c ****   //printf("str=%s\n", s);
 365              		.loc 1 133 0
 366 0014 FFF7FEFF 		bl	u8x8_GetStringLineCnt
 367              	.LVL47:
 136:..\u8g2-master\csrc/u8g2_selection_list.c ****   {
 368              		.loc 1 136 0
 369 0018 8346     		mov	fp, r0
 370 001a 0028     		cmp	r0, #0
 371 001c 3ED0     		beq	.L23
 136:..\u8g2-master\csrc/u8g2_selection_list.c ****   {
 372              		.loc 1 136 0 is_stmt 0 discriminator 3
 373 001e 0027     		movs	r7, #0
 374 0020 3846     		mov	r0, r7
 375              	.LVL48:
 376              	.L22:
 139:..\u8g2-master\csrc/u8g2_selection_list.c ****     y+=line_height;
 377              		.loc 1 139 0 is_stmt 1 discriminator 3
 378 0022 0D99     		ldr	r1, [sp, #52]
 379 0024 FFF7FEFF 		bl	u8x8_GetStringLineStart
 380              	.LVL49:
 381              	.LBB4:
 382              	.LBB5:
  58:..\u8g2-master\csrc/u8g2_selection_list.c **** 
 383              		.loc 1 58 0 discriminator 3
 384 0028 0021     		movs	r1, #0
 385              	.LBE5:
 386              	.LBE4:
 139:..\u8g2-master\csrc/u8g2_selection_list.c ****     y+=line_height;
 387              		.loc 1 139 0 discriminator 3
 388 002a 8246     		mov	r10, r0
 389              	.LVL50:
 390              	.LBB7:
 391              	.LBB6:
  58:..\u8g2-master\csrc/u8g2_selection_list.c **** 
 392              		.loc 1 58 0 discriminator 3
 393 002c 2046     		mov	r0, r4
 394              	.LVL51:
 395 002e FFF7FEFF 		bl	u8g2_SetFontDirection
 396              	.LVL52:
  61:..\u8g2-master\csrc/u8g2_selection_list.c **** 
 397              		.loc 1 61 0 discriminator 3
 398 0032 636D     		ldr	r3, [r4, #84]
 399 0034 2046     		mov	r0, r4
 400 0036 9847     		blx	r3
 401              	.LVL53:
  64:..\u8g2-master\csrc/u8g2_selection_list.c **** 
 402              		.loc 1 64 0 discriminator 3
 403 0038 5146     		mov	r1, r10
  61:..\u8g2-master\csrc/u8g2_selection_list.c **** 
 404              		.loc 1 61 0 discriminator 3
 405 003a 00EB0509 		add	r9, r0, r5
  64:..\u8g2-master\csrc/u8g2_selection_list.c **** 
ARM GAS  C:\Users\info\AppData\Local\Temp\ccz4o3EV.s 			page 12


 406              		.loc 1 64 0 discriminator 3
 407 003e 2046     		mov	r0, r4
 408 0040 FFF7FEFF 		bl	u8g2_GetUTF8Width
 409              	.LVL54:
  68:..\u8g2-master\csrc/u8g2_selection_list.c ****   {
 410              		.loc 1 68 0 discriminator 3
 411 0044 019A     		ldr	r2, [sp, #4]
  86:..\u8g2-master\csrc/u8g2_selection_list.c ****   if ( is_invert )
 412              		.loc 1 86 0 discriminator 3
 413 0046 0121     		movs	r1, #1
  68:..\u8g2-master\csrc/u8g2_selection_list.c ****   {
 414              		.loc 1 68 0 discriminator 3
 415 0048 8242     		cmp	r2, r0
  71:..\u8g2-master\csrc/u8g2_selection_list.c ****     d /= 2;
 416              		.loc 1 71 0 discriminator 3
 417 004a A2EB0000 		sub	r0, r2, r0
  72:..\u8g2-master\csrc/u8g2_selection_list.c ****   }
 418              		.loc 1 72 0 discriminator 3
 419 004e 88BF     		it	hi
 420 0050 C0F34606 		ubfxhi	r6, r0, #1, #7
  86:..\u8g2-master\csrc/u8g2_selection_list.c ****   if ( is_invert )
 421              		.loc 1 86 0 discriminator 3
 422 0054 2046     		mov	r0, r4
  67:..\u8g2-master\csrc/u8g2_selection_list.c ****   if ( str_width < w )
 423              		.loc 1 67 0 discriminator 3
 424 0056 98BF     		it	ls
 425 0058 0026     		movls	r6, #0
  86:..\u8g2-master\csrc/u8g2_selection_list.c ****   if ( is_invert )
 426              		.loc 1 86 0 discriminator 3
 427 005a FFF7FEFF 		bl	u8g2_SetDrawColor
 428              	.LVL55:
 109:..\u8g2-master\csrc/u8g2_selection_list.c ****   }
 429              		.loc 1 109 0 discriminator 3
 430 005e 0121     		movs	r1, #1
 431 0060 2046     		mov	r0, r4
 432 0062 FFF7FEFF 		bl	u8g2_SetDrawColor
 433              	.LVL56:
 113:..\u8g2-master\csrc/u8g2_selection_list.c **** 
 434              		.loc 1 113 0 discriminator 3
 435 0066 009B     		ldr	r3, [sp]
  61:..\u8g2-master\csrc/u8g2_selection_list.c **** 
 436              		.loc 1 61 0 discriminator 3
 437 0068 5FFA89F9 		uxtb	r9, r9
 438              	.LVL57:
 113:..\u8g2-master\csrc/u8g2_selection_list.c **** 
 439              		.loc 1 113 0 discriminator 3
 440 006c 9919     		adds	r1, r3, r6
 441 006e C9B2     		uxtb	r1, r1
 442 0070 5346     		mov	r3, r10
 443 0072 4A46     		mov	r2, r9
 444 0074 2046     		mov	r0, r4
 445 0076 FFF7FEFF 		bl	u8g2_DrawUTF8
 446              	.LVL58:
 447 007a 0137     		adds	r7, r7, #1
 448              	.LVL59:
 116:..\u8g2-master\csrc/u8g2_selection_list.c **** 
 449              		.loc 1 116 0 discriminator 3
ARM GAS  C:\Users\info\AppData\Local\Temp\ccz4o3EV.s 			page 13


 450 007c 2046     		mov	r0, r4
 451 007e 0121     		movs	r1, #1
 452 0080 FFF7FEFF 		bl	u8g2_SetDrawColor
 453              	.LVL60:
 454              	.LBE6:
 455              	.LBE7:
 136:..\u8g2-master\csrc/u8g2_selection_list.c ****   {
 456              		.loc 1 136 0 discriminator 3
 457 0084 F8B2     		uxtb	r0, r7
 140:..\u8g2-master\csrc/u8g2_selection_list.c ****     yy+=line_height;
 458              		.loc 1 140 0 discriminator 3
 459 0086 4544     		add	r5, r5, r8
 460              	.LVL61:
 136:..\u8g2-master\csrc/u8g2_selection_list.c ****   {
 461              		.loc 1 136 0 discriminator 3
 462 0088 5845     		cmp	r0, fp
 140:..\u8g2-master\csrc/u8g2_selection_list.c ****     yy+=line_height;
 463              		.loc 1 140 0 discriminator 3
 464 008a EDB2     		uxtb	r5, r5
 465              	.LVL62:
 136:..\u8g2-master\csrc/u8g2_selection_list.c ****   {
 466              		.loc 1 136 0 discriminator 3
 467 008c C9D3     		bcc	.L22
 468 008e 08FB0BF8 		mul	r8, r8, fp
 469 0092 5FFA88F0 		uxtb	r0, r8
 144:..\u8g2-master\csrc/u8g2_selection_list.c **** 
 470              		.loc 1 144 0
 471 0096 03B0     		add	sp, sp, #12
 472              		.cfi_remember_state
 473              		.cfi_def_cfa_offset 36
 474              		@ sp needed
 475 0098 BDE8F08F 		pop	{r4, r5, r6, r7, r8, r9, r10, fp, pc}
 476              	.LVL63:
 477              	.L23:
 478              		.cfi_restore_state
 479 009c 03B0     		add	sp, sp, #12
 480              		.cfi_def_cfa_offset 36
 481              		@ sp needed
 482 009e BDE8F08F 		pop	{r4, r5, r6, r7, r8, r9, r10, fp, pc}
 483              		.cfi_endproc
 484              	.LFE1:
 485              		.size	u8g2_DrawUTF8Lines, .-u8g2_DrawUTF8Lines
 486 00a2 00BF     		.section	.text.u8g2_DrawSelectionList,"ax",%progbits
 487              		.align	2
 488              		.global	u8g2_DrawSelectionList
 489              		.thumb
 490              		.thumb_func
 491              		.type	u8g2_DrawSelectionList, %function
 492              	u8g2_DrawSelectionList:
 493              	.LFB3:
 181:..\u8g2-master\csrc/u8g2_selection_list.c **** 
 182:..\u8g2-master\csrc/u8g2_selection_list.c **** void u8g2_DrawSelectionList(u8g2_t *u8g2, u8sl_t *u8sl, u8g2_uint_t y, const char *s)
 183:..\u8g2-master\csrc/u8g2_selection_list.c **** {
 494              		.loc 1 183 0
 495              		.cfi_startproc
 496              		@ args = 0, pretend = 0, frame = 0
 497              		@ frame_needed = 0, uses_anonymous_args = 0
ARM GAS  C:\Users\info\AppData\Local\Temp\ccz4o3EV.s 			page 14


 498              	.LVL64:
 499 0000 2DE9F041 		push	{r4, r5, r6, r7, r8, lr}
 500              		.cfi_def_cfa_offset 24
 501              		.cfi_offset 4, -24
 502              		.cfi_offset 5, -20
 503              		.cfi_offset 6, -16
 504              		.cfi_offset 7, -12
 505              		.cfi_offset 8, -8
 506              		.cfi_offset 14, -4
 507 0004 0E46     		mov	r6, r1
 184:..\u8g2-master\csrc/u8g2_selection_list.c ****   uint8_t i;
 185:..\u8g2-master\csrc/u8g2_selection_list.c ****   for( i = 0; i < u8sl->visible; i++ )
 508              		.loc 1 185 0
 509 0006 0978     		ldrb	r1, [r1]	@ zero_extendqisi2
 510              	.LVL65:
 183:..\u8g2-master\csrc/u8g2_selection_list.c ****   uint8_t i;
 511              		.loc 1 183 0
 512 0008 82B0     		sub	sp, sp, #8
 513              		.cfi_def_cfa_offset 32
 514              		.loc 1 185 0
 515 000a A1B1     		cbz	r1, .L27
 516 000c 0746     		mov	r7, r0
 517 000e 1546     		mov	r5, r2
 518 0010 9846     		mov	r8, r3
 519              		.loc 1 185 0 is_stmt 0 discriminator 3
 520 0012 0024     		movs	r4, #0
 521              	.LVL66:
 522              	.L29:
 186:..\u8g2-master\csrc/u8g2_selection_list.c ****   {
 187:..\u8g2-master\csrc/u8g2_selection_list.c ****     y += u8g2_draw_selection_list_line(u8g2, u8sl, y, i+u8sl->first_pos, s);
 523              		.loc 1 187 0 is_stmt 1 discriminator 3
 524 0014 B378     		ldrb	r3, [r6, #2]	@ zero_extendqisi2
 525 0016 F178     		ldrb	r1, [r6, #3]	@ zero_extendqisi2
 526 0018 2344     		add	r3, r3, r4
 527 001a DBB2     		uxtb	r3, r3
 528 001c 2A46     		mov	r2, r5
 529 001e CDF80080 		str	r8, [sp]
 530 0022 3846     		mov	r0, r7
 531 0024 FFF7FEFF 		bl	u8g2_draw_selection_list_line.isra.0
 532              	.LVL67:
 185:..\u8g2-master\csrc/u8g2_selection_list.c ****   {
 533              		.loc 1 185 0 discriminator 3
 534 0028 0134     		adds	r4, r4, #1
 535              	.LVL68:
 536 002a 3378     		ldrb	r3, [r6]	@ zero_extendqisi2
 537 002c E4B2     		uxtb	r4, r4
 538              		.loc 1 187 0 discriminator 3
 539 002e 2844     		add	r0, r0, r5
 185:..\u8g2-master\csrc/u8g2_selection_list.c ****   {
 540              		.loc 1 185 0 discriminator 3
 541 0030 A342     		cmp	r3, r4
 542              		.loc 1 187 0 discriminator 3
 543 0032 C5B2     		uxtb	r5, r0
 544              	.LVL69:
 185:..\u8g2-master\csrc/u8g2_selection_list.c ****   {
 545              		.loc 1 185 0 discriminator 3
 546 0034 EED8     		bhi	.L29
ARM GAS  C:\Users\info\AppData\Local\Temp\ccz4o3EV.s 			page 15


 547              	.LVL70:
 548              	.L27:
 188:..\u8g2-master\csrc/u8g2_selection_list.c ****   }
 189:..\u8g2-master\csrc/u8g2_selection_list.c **** }
 549              		.loc 1 189 0
 550 0036 02B0     		add	sp, sp, #8
 551              		.cfi_def_cfa_offset 24
 552              		@ sp needed
 553 0038 BDE8F081 		pop	{r4, r5, r6, r7, r8, pc}
 554              		.cfi_endproc
 555              	.LFE3:
 556              		.size	u8g2_DrawSelectionList, .-u8g2_DrawSelectionList
 557              		.section	.text.u8g2_UserInterfaceSelectionList,"ax",%progbits
 558              		.align	2
 559              		.global	u8g2_UserInterfaceSelectionList
 560              		.thumb
 561              		.thumb_func
 562              		.type	u8g2_UserInterfaceSelectionList, %function
 563              	u8g2_UserInterfaceSelectionList:
 564              	.LFB4:
 190:..\u8g2-master\csrc/u8g2_selection_list.c **** 
 191:..\u8g2-master\csrc/u8g2_selection_list.c **** 
 192:..\u8g2-master\csrc/u8g2_selection_list.c **** /*
 193:..\u8g2-master\csrc/u8g2_selection_list.c ****   title: 		NULL for no title, valid str for title line. Can contain mutliple lines, separated by '\
 194:..\u8g2-master\csrc/u8g2_selection_list.c ****   start_pos: 	default position for the cursor, first line is 1.
 195:..\u8g2-master\csrc/u8g2_selection_list.c ****   sl:			string list (list of strings separated by \n)
 196:..\u8g2-master\csrc/u8g2_selection_list.c ****   returns 0 if user has pressed the home key
 197:..\u8g2-master\csrc/u8g2_selection_list.c ****   returns the selected line if user has pressed the select key
 198:..\u8g2-master\csrc/u8g2_selection_list.c ****   side effects:
 199:..\u8g2-master\csrc/u8g2_selection_list.c ****     u8g2_SetFontDirection(u8g2, 0);
 200:..\u8g2-master\csrc/u8g2_selection_list.c ****     u8g2_SetFontPosBaseline(u8g2);
 201:..\u8g2-master\csrc/u8g2_selection_list.c **** 	
 202:..\u8g2-master\csrc/u8g2_selection_list.c **** */
 203:..\u8g2-master\csrc/u8g2_selection_list.c **** uint8_t u8g2_UserInterfaceSelectionList(u8g2_t *u8g2, const char *title, uint8_t start_pos, const c
 204:..\u8g2-master\csrc/u8g2_selection_list.c **** {
 565              		.loc 1 204 0
 566              		.cfi_startproc
 567              		@ args = 0, pretend = 0, frame = 8
 568              		@ frame_needed = 0, uses_anonymous_args = 0
 569              	.LVL71:
 570 0000 2DE9F047 		push	{r4, r5, r6, r7, r8, r9, r10, lr}
 571              		.cfi_def_cfa_offset 32
 572              		.cfi_offset 4, -32
 573              		.cfi_offset 5, -28
 574              		.cfi_offset 6, -24
 575              		.cfi_offset 7, -20
 576              		.cfi_offset 8, -16
 577              		.cfi_offset 9, -12
 578              		.cfi_offset 10, -8
 579              		.cfi_offset 14, -4
 580 0004 1446     		mov	r4, r2
 205:..\u8g2-master\csrc/u8g2_selection_list.c ****   u8sl_t u8sl;
 206:..\u8g2-master\csrc/u8g2_selection_list.c ****   u8g2_uint_t yy;
 207:..\u8g2-master\csrc/u8g2_selection_list.c **** 
 208:..\u8g2-master\csrc/u8g2_selection_list.c ****   uint8_t event;
 209:..\u8g2-master\csrc/u8g2_selection_list.c **** 
 210:..\u8g2-master\csrc/u8g2_selection_list.c ****   u8g2_uint_t line_height = u8g2_GetAscent(u8g2) - u8g2_GetDescent(u8g2)+MY_BORDER_SIZE;
ARM GAS  C:\Users\info\AppData\Local\Temp\ccz4o3EV.s 			page 16


 581              		.loc 1 210 0
 582 0006 90F88220 		ldrb	r2, [r0, #130]	@ zero_extendqisi2
 583              	.LVL72:
 584 000a 90F88390 		ldrb	r9, [r0, #131]	@ zero_extendqisi2
 585 000e 0132     		adds	r2, r2, #1
 204:..\u8g2-master\csrc/u8g2_selection_list.c ****   u8sl_t u8sl;
 586              		.loc 1 204 0
 587 0010 84B0     		sub	sp, sp, #16
 588              		.cfi_def_cfa_offset 48
 204:..\u8g2-master\csrc/u8g2_selection_list.c ****   u8sl_t u8sl;
 589              		.loc 1 204 0
 590 0012 0646     		mov	r6, r0
 211:..\u8g2-master\csrc/u8g2_selection_list.c **** 
 212:..\u8g2-master\csrc/u8g2_selection_list.c ****   uint8_t title_lines = u8x8_GetStringLineCnt(title);
 591              		.loc 1 212 0
 592 0014 0846     		mov	r0, r1
 593              	.LVL73:
 210:..\u8g2-master\csrc/u8g2_selection_list.c **** 
 594              		.loc 1 210 0
 595 0016 C9EB0209 		rsb	r9, r9, r2
 204:..\u8g2-master\csrc/u8g2_selection_list.c ****   u8sl_t u8sl;
 596              		.loc 1 204 0
 597 001a 8A46     		mov	r10, r1
 598 001c 1F46     		mov	r7, r3
 599              		.loc 1 212 0
 600 001e FFF7FEFF 		bl	u8x8_GetStringLineCnt
 601              	.LVL74:
 210:..\u8g2-master\csrc/u8g2_selection_list.c **** 
 602              		.loc 1 210 0
 603 0022 5FFA89F9 		uxtb	r9, r9
 604              	.LVL75:
 605              		.loc 1 212 0
 606 0026 8046     		mov	r8, r0
 607              	.LVL76:
 213:..\u8g2-master\csrc/u8g2_selection_list.c ****   uint8_t display_lines;
 214:..\u8g2-master\csrc/u8g2_selection_list.c **** 
 215:..\u8g2-master\csrc/u8g2_selection_list.c ****   
 216:..\u8g2-master\csrc/u8g2_selection_list.c ****   if ( start_pos > 0 )	/* issue 112 */
 608              		.loc 1 216 0
 609 0028 0CB1     		cbz	r4, .L34
 217:..\u8g2-master\csrc/u8g2_selection_list.c ****     start_pos--;		/* issue 112 */
 610              		.loc 1 217 0
 611 002a 631E     		subs	r3, r4, #1
 612 002c DCB2     		uxtb	r4, r3
 613              	.LVL77:
 614              	.L34:
 218:..\u8g2-master\csrc/u8g2_selection_list.c **** 
 219:..\u8g2-master\csrc/u8g2_selection_list.c **** 
 220:..\u8g2-master\csrc/u8g2_selection_list.c ****   if ( title_lines > 0 )
 221:..\u8g2-master\csrc/u8g2_selection_list.c ****   {
 222:..\u8g2-master\csrc/u8g2_selection_list.c **** 	display_lines = (u8g2_GetDisplayHeight(u8g2)-3) / line_height;
 223:..\u8g2-master\csrc/u8g2_selection_list.c **** 	u8sl.visible = display_lines;
 224:..\u8g2-master\csrc/u8g2_selection_list.c **** 	u8sl.visible -= title_lines;
 615              		.loc 1 224 0
 616 002e 96F84430 		ldrb	r3, [r6, #68]	@ zero_extendqisi2
 220:..\u8g2-master\csrc/u8g2_selection_list.c ****   {
 617              		.loc 1 220 0
ARM GAS  C:\Users\info\AppData\Local\Temp\ccz4o3EV.s 			page 17


 618 0032 B8F1000F 		cmp	r8, #0
 619 0036 00F08980 		beq	.L35
 620              	.LVL78:
 621              		.loc 1 224 0
 622 003a 033B     		subs	r3, r3, #3
 623 003c 93FBF9F3 		sdiv	r3, r3, r9
 624 0040 C8EB0303 		rsb	r3, r8, r3
 625 0044 8DF80830 		strb	r3, [sp, #8]
 626              	.LVL79:
 627              	.L36:
 225:..\u8g2-master\csrc/u8g2_selection_list.c ****   }
 226:..\u8g2-master\csrc/u8g2_selection_list.c ****   else
 227:..\u8g2-master\csrc/u8g2_selection_list.c ****   {
 228:..\u8g2-master\csrc/u8g2_selection_list.c **** 	display_lines = u8g2_GetDisplayHeight(u8g2) / line_height;
 229:..\u8g2-master\csrc/u8g2_selection_list.c **** 	u8sl.visible = display_lines;
 230:..\u8g2-master\csrc/u8g2_selection_list.c ****   }
 231:..\u8g2-master\csrc/u8g2_selection_list.c **** 
 232:..\u8g2-master\csrc/u8g2_selection_list.c ****   u8sl.total = u8x8_GetStringLineCnt(sl);
 628              		.loc 1 232 0
 629 0048 3846     		mov	r0, r7
 630 004a FFF7FEFF 		bl	u8x8_GetStringLineCnt
 631              	.LVL80:
 233:..\u8g2-master\csrc/u8g2_selection_list.c ****   u8sl.first_pos = 0;
 632              		.loc 1 233 0
 633 004e 0023     		movs	r3, #0
 234:..\u8g2-master\csrc/u8g2_selection_list.c ****   u8sl.current_pos = start_pos;
 235:..\u8g2-master\csrc/u8g2_selection_list.c **** 
 236:..\u8g2-master\csrc/u8g2_selection_list.c ****   if ( u8sl.current_pos >= u8sl.total )
 634              		.loc 1 236 0
 635 0050 8442     		cmp	r4, r0
 232:..\u8g2-master\csrc/u8g2_selection_list.c ****   u8sl.first_pos = 0;
 636              		.loc 1 232 0
 637 0052 8DF80900 		strb	r0, [sp, #9]
 233:..\u8g2-master\csrc/u8g2_selection_list.c ****   u8sl.first_pos = 0;
 638              		.loc 1 233 0
 639 0056 8DF80A30 		strb	r3, [sp, #10]
 640              		.loc 1 236 0
 641 005a 72D2     		bcs	.L37
 234:..\u8g2-master\csrc/u8g2_selection_list.c ****   u8sl.current_pos = start_pos;
 642              		.loc 1 234 0
 643 005c 2346     		mov	r3, r4
 644 005e 8DF80B40 		strb	r4, [sp, #11]
 645              	.L38:
 237:..\u8g2-master\csrc/u8g2_selection_list.c ****     u8sl.current_pos = u8sl.total-1;
 238:..\u8g2-master\csrc/u8g2_selection_list.c ****   if ( u8sl.first_pos+u8sl.visible <= u8sl.current_pos )
 646              		.loc 1 238 0
 647 0062 9DF80820 		ldrb	r2, [sp, #8]	@ zero_extendqisi2
 648 0066 9A42     		cmp	r2, r3
 649 0068 04DC     		bgt	.L39
 239:..\u8g2-master\csrc/u8g2_selection_list.c ****     u8sl.first_pos = u8sl.current_pos-u8sl.visible+1;
 650              		.loc 1 239 0
 651 006a C2F10102 		rsb	r2, r2, #1
 652 006e 1344     		add	r3, r3, r2
 653 0070 8DF80A30 		strb	r3, [sp, #10]
 654              	.L39:
 240:..\u8g2-master\csrc/u8g2_selection_list.c **** 
 241:..\u8g2-master\csrc/u8g2_selection_list.c ****   u8g2_SetFontPosBaseline(u8g2);
ARM GAS  C:\Users\info\AppData\Local\Temp\ccz4o3EV.s 			page 18


 655              		.loc 1 241 0
 656 0074 3046     		mov	r0, r6
 657 0076 FFF7FEFF 		bl	u8g2_SetFontPosBaseline
 658              	.LVL81:
 659              	.L40:
 242:..\u8g2-master\csrc/u8g2_selection_list.c ****   
 243:..\u8g2-master\csrc/u8g2_selection_list.c ****   for(;;)
 244:..\u8g2-master\csrc/u8g2_selection_list.c ****   {
 245:..\u8g2-master\csrc/u8g2_selection_list.c ****       u8g2_FirstPage(u8g2);
 660              		.loc 1 245 0
 661 007a 3046     		mov	r0, r6
 662 007c FFF7FEFF 		bl	u8g2_FirstPage
 663              	.LVL82:
 246:..\u8g2-master\csrc/u8g2_selection_list.c ****       do
 247:..\u8g2-master\csrc/u8g2_selection_list.c ****       {
 248:..\u8g2-master\csrc/u8g2_selection_list.c ****         yy = u8g2_GetAscent(u8g2);
 664              		.loc 1 248 0
 665 0080 96F88250 		ldrb	r5, [r6, #130]	@ zero_extendqisi2
 666              	.LVL83:
 249:..\u8g2-master\csrc/u8g2_selection_list.c ****         if ( title_lines > 0 )
 667              		.loc 1 249 0
 668 0084 B8F1000F 		cmp	r8, #0
 669 0088 20D1     		bne	.L69
 670              	.L41:
 671              	.LVL84:
 672              	.LBB10:
 673              	.LBB11:
 185:..\u8g2-master\csrc/u8g2_selection_list.c ****   {
 674              		.loc 1 185 0
 675 008a 9DF80830 		ldrb	r3, [sp, #8]	@ zero_extendqisi2
 676 008e 0024     		movs	r4, #0
 677 0090 93B1     		cbz	r3, .L46
 678              	.LVL85:
 679              	.L45:
 187:..\u8g2-master\csrc/u8g2_selection_list.c ****   }
 680              		.loc 1 187 0
 681 0092 9DF80A30 		ldrb	r3, [sp, #10]	@ zero_extendqisi2
 682 0096 2A46     		mov	r2, r5
 683 0098 2344     		add	r3, r3, r4
 684 009a DBB2     		uxtb	r3, r3
 685 009c 9DF80B10 		ldrb	r1, [sp, #11]	@ zero_extendqisi2
 686 00a0 0097     		str	r7, [sp]
 687 00a2 3046     		mov	r0, r6
 688 00a4 FFF7FEFF 		bl	u8g2_draw_selection_list_line.isra.0
 689              	.LVL86:
 185:..\u8g2-master\csrc/u8g2_selection_list.c ****   {
 690              		.loc 1 185 0
 691 00a8 0134     		adds	r4, r4, #1
 692              	.LVL87:
 693 00aa 9DF80830 		ldrb	r3, [sp, #8]	@ zero_extendqisi2
 694 00ae E4B2     		uxtb	r4, r4
 187:..\u8g2-master\csrc/u8g2_selection_list.c ****   }
 695              		.loc 1 187 0
 696 00b0 2844     		add	r0, r0, r5
 185:..\u8g2-master\csrc/u8g2_selection_list.c ****   {
 697              		.loc 1 185 0
 698 00b2 A342     		cmp	r3, r4
ARM GAS  C:\Users\info\AppData\Local\Temp\ccz4o3EV.s 			page 19


 187:..\u8g2-master\csrc/u8g2_selection_list.c ****   }
 699              		.loc 1 187 0
 700 00b4 C5B2     		uxtb	r5, r0
 701              	.LVL88:
 185:..\u8g2-master\csrc/u8g2_selection_list.c ****   {
 702              		.loc 1 185 0
 703 00b6 ECD8     		bhi	.L45
 704              	.LVL89:
 705              	.L46:
 706              	.LBE11:
 707              	.LBE10:
 250:..\u8g2-master\csrc/u8g2_selection_list.c ****         {
 251:..\u8g2-master\csrc/u8g2_selection_list.c ****           yy += u8g2_DrawUTF8Lines(u8g2, 0, yy, u8g2_GetDisplayWidth(u8g2), line_height, title);
 252:..\u8g2-master\csrc/u8g2_selection_list.c **** 		
 253:..\u8g2-master\csrc/u8g2_selection_list.c **** 	  u8g2_DrawHLine(u8g2, 0, yy-line_height- u8g2_GetDescent(u8g2) + 1, u8g2_GetDisplayWidth(u8g2));
 254:..\u8g2-master\csrc/u8g2_selection_list.c **** 		
 255:..\u8g2-master\csrc/u8g2_selection_list.c **** 	  yy += 3;
 256:..\u8g2-master\csrc/u8g2_selection_list.c ****         }
 257:..\u8g2-master\csrc/u8g2_selection_list.c ****         u8g2_DrawSelectionList(u8g2, &u8sl, yy, sl);
 258:..\u8g2-master\csrc/u8g2_selection_list.c ****       } while( u8g2_NextPage(u8g2) );
 708              		.loc 1 258 0
 709 00b8 3046     		mov	r0, r6
 710 00ba FFF7FEFF 		bl	u8g2_NextPage
 711              	.LVL90:
 712 00be 0446     		mov	r4, r0
 713 00c0 40B3     		cbz	r0, .L44
 248:..\u8g2-master\csrc/u8g2_selection_list.c ****         if ( title_lines > 0 )
 714              		.loc 1 248 0
 715 00c2 96F88250 		ldrb	r5, [r6, #130]	@ zero_extendqisi2
 716              	.LVL91:
 249:..\u8g2-master\csrc/u8g2_selection_list.c ****         {
 717              		.loc 1 249 0
 718 00c6 B8F1000F 		cmp	r8, #0
 719 00ca DED0     		beq	.L41
 720              	.L69:
 251:..\u8g2-master\csrc/u8g2_selection_list.c **** 		
 721              		.loc 1 251 0
 722 00cc 96F84330 		ldrb	r3, [r6, #67]	@ zero_extendqisi2
 723 00d0 2A46     		mov	r2, r5
 724 00d2 0021     		movs	r1, #0
 725 00d4 8DE80006 		stmia	sp, {r9, r10}
 726 00d8 3046     		mov	r0, r6
 727 00da FFF7FEFF 		bl	u8g2_DrawUTF8Lines
 728              	.LVL92:
 253:..\u8g2-master\csrc/u8g2_selection_list.c **** 		
 729              		.loc 1 253 0
 730 00de 96F88330 		ldrb	r3, [r6, #131]	@ zero_extendqisi2
 251:..\u8g2-master\csrc/u8g2_selection_list.c **** 		
 731              		.loc 1 251 0
 732 00e2 2844     		add	r0, r0, r5
 253:..\u8g2-master\csrc/u8g2_selection_list.c **** 		
 733              		.loc 1 253 0
 734 00e4 C3F10102 		rsb	r2, r3, #1
 251:..\u8g2-master\csrc/u8g2_selection_list.c **** 		
 735              		.loc 1 251 0
 736 00e8 C5B2     		uxtb	r5, r0
 737              	.LVL93:
ARM GAS  C:\Users\info\AppData\Local\Temp\ccz4o3EV.s 			page 20


 253:..\u8g2-master\csrc/u8g2_selection_list.c **** 		
 738              		.loc 1 253 0
 739 00ea C9EB0202 		rsb	r2, r9, r2
 740 00ee 2A44     		add	r2, r2, r5
 741 00f0 D2B2     		uxtb	r2, r2
 742 00f2 96F84330 		ldrb	r3, [r6, #67]	@ zero_extendqisi2
 743 00f6 0021     		movs	r1, #0
 744 00f8 3046     		mov	r0, r6
 255:..\u8g2-master\csrc/u8g2_selection_list.c ****         }
 745              		.loc 1 255 0
 746 00fa 0335     		adds	r5, r5, #3
 747              	.LVL94:
 253:..\u8g2-master\csrc/u8g2_selection_list.c **** 		
 748              		.loc 1 253 0
 749 00fc FFF7FEFF 		bl	u8g2_DrawHLine
 750              	.LVL95:
 255:..\u8g2-master\csrc/u8g2_selection_list.c ****         }
 751              		.loc 1 255 0
 752 0100 EDB2     		uxtb	r5, r5
 753              	.LVL96:
 754 0102 C2E7     		b	.L41
 755              	.LVL97:
 756              	.L47:
 259:..\u8g2-master\csrc/u8g2_selection_list.c ****       
 260:..\u8g2-master\csrc/u8g2_selection_list.c **** #ifdef U8G2_REF_MAN_PIC
 261:..\u8g2-master\csrc/u8g2_selection_list.c ****       return 0;
 262:..\u8g2-master\csrc/u8g2_selection_list.c **** #endif
 263:..\u8g2-master\csrc/u8g2_selection_list.c **** 
 264:..\u8g2-master\csrc/u8g2_selection_list.c **** 
 265:..\u8g2-master\csrc/u8g2_selection_list.c ****       for(;;)
 266:..\u8g2-master\csrc/u8g2_selection_list.c ****       {
 267:..\u8g2-master\csrc/u8g2_selection_list.c ****         event = u8x8_GetMenuEvent(u8g2_GetU8x8(u8g2));
 268:..\u8g2-master\csrc/u8g2_selection_list.c ****         if ( event == U8X8_MSG_GPIO_MENU_SELECT )
 269:..\u8g2-master\csrc/u8g2_selection_list.c ****           return u8sl.current_pos+1;		/* +1, issue 112 */
 270:..\u8g2-master\csrc/u8g2_selection_list.c ****         else if ( event == U8X8_MSG_GPIO_MENU_HOME )
 757              		.loc 1 270 0
 758 0104 5328     		cmp	r0, #83
 759 0106 10D0     		beq	.L48
 271:..\u8g2-master\csrc/u8g2_selection_list.c ****           return 0;				/* issue 112: return 0 instead of start_pos */
 272:..\u8g2-master\csrc/u8g2_selection_list.c ****         else if ( event == U8X8_MSG_GPIO_MENU_NEXT || event == U8X8_MSG_GPIO_MENU_DOWN )
 760              		.loc 1 272 0
 761 0108 512B     		cmp	r3, #81
 762 010a 12D0     		beq	.L70
 273:..\u8g2-master\csrc/u8g2_selection_list.c ****         {
 274:..\u8g2-master\csrc/u8g2_selection_list.c ****           u8sl_Next(&u8sl);
 275:..\u8g2-master\csrc/u8g2_selection_list.c ****           break;
 276:..\u8g2-master\csrc/u8g2_selection_list.c ****         }
 277:..\u8g2-master\csrc/u8g2_selection_list.c ****         else if ( event == U8X8_MSG_GPIO_MENU_PREV || event == U8X8_MSG_GPIO_MENU_UP )
 763              		.loc 1 277 0
 764 010c 5228     		cmp	r0, #82
 765 010e 14D0     		beq	.L51
 766              		.loc 1 277 0 is_stmt 0 discriminator 1
 767 0110 5428     		cmp	r0, #84
 768 0112 12D0     		beq	.L51
 769              	.LVL98:
 770              	.L44:
 267:..\u8g2-master\csrc/u8g2_selection_list.c ****         if ( event == U8X8_MSG_GPIO_MENU_SELECT )
ARM GAS  C:\Users\info\AppData\Local\Temp\ccz4o3EV.s 			page 21


 771              		.loc 1 267 0 is_stmt 1
 772 0114 3046     		mov	r0, r6
 773 0116 FFF7FEFF 		bl	u8x8_GetMenuEvent
 774              	.LVL99:
 268:..\u8g2-master\csrc/u8g2_selection_list.c ****           return u8sl.current_pos+1;		/* +1, issue 112 */
 775              		.loc 1 268 0
 776 011a 5028     		cmp	r0, #80
 272:..\u8g2-master\csrc/u8g2_selection_list.c ****         {
 777              		.loc 1 272 0
 778 011c 00F0FB03 		and	r3, r0, #251
 268:..\u8g2-master\csrc/u8g2_selection_list.c ****           return u8sl.current_pos+1;		/* +1, issue 112 */
 779              		.loc 1 268 0
 780 0120 F0D1     		bne	.L47
 269:..\u8g2-master\csrc/u8g2_selection_list.c ****         else if ( event == U8X8_MSG_GPIO_MENU_HOME )
 781              		.loc 1 269 0
 782 0122 9DF80B40 		ldrb	r4, [sp, #11]	@ zero_extendqisi2
 783 0126 0134     		adds	r4, r4, #1
 784 0128 E4B2     		uxtb	r4, r4
 785              	.L48:
 278:..\u8g2-master\csrc/u8g2_selection_list.c ****         {
 279:..\u8g2-master\csrc/u8g2_selection_list.c ****           u8sl_Prev(&u8sl);
 280:..\u8g2-master\csrc/u8g2_selection_list.c ****           break;
 281:..\u8g2-master\csrc/u8g2_selection_list.c ****         }
 282:..\u8g2-master\csrc/u8g2_selection_list.c ****       }
 283:..\u8g2-master\csrc/u8g2_selection_list.c ****   }
 284:..\u8g2-master\csrc/u8g2_selection_list.c **** }
 786              		.loc 1 284 0
 787 012a 2046     		mov	r0, r4
 788              	.LVL100:
 789 012c 04B0     		add	sp, sp, #16
 790              		.cfi_remember_state
 791              		.cfi_def_cfa_offset 32
 792              		@ sp needed
 793 012e BDE8F087 		pop	{r4, r5, r6, r7, r8, r9, r10, pc}
 794              	.LVL101:
 795              	.L70:
 796              		.cfi_restore_state
 274:..\u8g2-master\csrc/u8g2_selection_list.c ****           break;
 797              		.loc 1 274 0
 798 0132 02A8     		add	r0, sp, #8
 799              	.LVL102:
 800 0134 FFF7FEFF 		bl	u8sl_Next
 801              	.LVL103:
 275:..\u8g2-master\csrc/u8g2_selection_list.c ****         }
 802              		.loc 1 275 0
 803 0138 9FE7     		b	.L40
 804              	.LVL104:
 805              	.L51:
 279:..\u8g2-master\csrc/u8g2_selection_list.c ****           break;
 806              		.loc 1 279 0
 807 013a 02A8     		add	r0, sp, #8
 808              	.LVL105:
 809 013c FFF7FEFF 		bl	u8sl_Prev
 810              	.LVL106:
 280:..\u8g2-master\csrc/u8g2_selection_list.c ****         }
 811              		.loc 1 280 0
 812 0140 9BE7     		b	.L40
ARM GAS  C:\Users\info\AppData\Local\Temp\ccz4o3EV.s 			page 22


 813              	.LVL107:
 814              	.L37:
 237:..\u8g2-master\csrc/u8g2_selection_list.c ****   if ( u8sl.first_pos+u8sl.visible <= u8sl.current_pos )
 815              		.loc 1 237 0
 816 0142 431E     		subs	r3, r0, #1
 817 0144 DBB2     		uxtb	r3, r3
 818 0146 8DF80B30 		strb	r3, [sp, #11]
 819 014a 8AE7     		b	.L38
 820              	.L35:
 821              	.LVL108:
 229:..\u8g2-master\csrc/u8g2_selection_list.c ****   }
 822              		.loc 1 229 0
 823 014c B3FBF9F3 		udiv	r3, r3, r9
 824 0150 8DF80830 		strb	r3, [sp, #8]
 825 0154 78E7     		b	.L36
 826              		.cfi_endproc
 827              	.LFE4:
 828              		.size	u8g2_UserInterfaceSelectionList, .-u8g2_UserInterfaceSelectionList
 829 0156 00BF     		.section	.rodata.str1.4,"aMS",%progbits,1
 830              		.align	2
 831              	.LC0:
 832 0000 00       		.ascii	"\000"
 833              		.text
 834              	.Letext0:
 835              		.file 2 "c:\\program files (x86)\\cypress\\psoc creator\\4.2\\psoc creator\\import\\gnu\\arm\\5.4.
 836              		.file 3 "c:\\program files (x86)\\cypress\\psoc creator\\4.2\\psoc creator\\import\\gnu\\arm\\5.4.
 837              		.file 4 "..\\u8g2-master\\csrc\\u8x8.h"
 838              		.file 5 "..\\u8g2-master\\csrc\\u8g2.h"