ARM GAS  C:\Users\info\AppData\Local\Temp\ccgwKbDi.s 			page 1


   1              		.syntax unified
   2              		.cpu cortex-m3
   3              		.fpu softvfp
   4              		.eabi_attribute 20, 1
   5              		.eabi_attribute 21, 1
   6              		.eabi_attribute 23, 3
   7              		.eabi_attribute 24, 1
   8              		.eabi_attribute 25, 1
   9              		.eabi_attribute 26, 1
  10              		.eabi_attribute 30, 2
  11              		.eabi_attribute 34, 1
  12              		.eabi_attribute 18, 4
  13              		.thumb
  14              		.syntax unified
  15              		.file	"u8log.c"
  16              		.text
  17              	.Ltext0:
  18              		.cfi_sections	.debug_frame
  19              		.section	.text.u8log_write_char,"ax",%progbits
  20              		.align	2
  21              		.global	u8log_write_char
  22              		.thumb
  23              		.thumb_func
  24              		.type	u8log_write_char, %function
  25              	u8log_write_char:
  26              	.LFB4:
  27              		.file 1 "..\\u8g2-master\\csrc\\u8log.c"
   1:..\u8g2-master\csrc/u8log.c **** /*
   2:..\u8g2-master\csrc/u8log.c **** 
   3:..\u8g2-master\csrc/u8log.c ****   u8log.c
   4:..\u8g2-master\csrc/u8log.c ****   
   5:..\u8g2-master\csrc/u8log.c **** 
   6:..\u8g2-master\csrc/u8log.c ****   Universal 8bit Graphics Library (https://github.com/olikraus/u8g2/)
   7:..\u8g2-master\csrc/u8log.c **** 
   8:..\u8g2-master\csrc/u8log.c ****   Copyright (c) 2018, olikraus@gmail.com
   9:..\u8g2-master\csrc/u8log.c ****   All rights reserved.
  10:..\u8g2-master\csrc/u8log.c **** 
  11:..\u8g2-master\csrc/u8log.c ****   Redistribution and use in source and binary forms, with or without modification, 
  12:..\u8g2-master\csrc/u8log.c ****   are permitted provided that the following conditions are met:
  13:..\u8g2-master\csrc/u8log.c **** 
  14:..\u8g2-master\csrc/u8log.c ****   * Redistributions of source code must retain the above copyright notice, this list 
  15:..\u8g2-master\csrc/u8log.c ****     of conditions and the following disclaimer.
  16:..\u8g2-master\csrc/u8log.c ****     
  17:..\u8g2-master\csrc/u8log.c ****   * Redistributions in binary form must reproduce the above copyright notice, this 
  18:..\u8g2-master\csrc/u8log.c ****     list of conditions and the following disclaimer in the documentation and/or other 
  19:..\u8g2-master\csrc/u8log.c ****     materials provided with the distribution.
  20:..\u8g2-master\csrc/u8log.c **** 
  21:..\u8g2-master\csrc/u8log.c ****   THIS SOFTWARE IS PROVIDED BY THE COPYRIGHT HOLDERS AND 
  22:..\u8g2-master\csrc/u8log.c ****   CONTRIBUTORS "AS IS" AND ANY EXPRESS OR IMPLIED WARRANTIES, 
  23:..\u8g2-master\csrc/u8log.c ****   INCLUDING, BUT NOT LIMITED TO, THE IMPLIED WARRANTIES OF 
  24:..\u8g2-master\csrc/u8log.c ****   MERCHANTABILITY AND FITNESS FOR A PARTICULAR PURPOSE ARE 
  25:..\u8g2-master\csrc/u8log.c ****   DISCLAIMED. IN NO EVENT SHALL THE COPYRIGHT HOLDER OR 
  26:..\u8g2-master\csrc/u8log.c ****   CONTRIBUTORS BE LIABLE FOR ANY DIRECT, INDIRECT, INCIDENTAL, 
  27:..\u8g2-master\csrc/u8log.c ****   SPECIAL, EXEMPLARY, OR CONSEQUENTIAL DAMAGES (INCLUDING, BUT 
  28:..\u8g2-master\csrc/u8log.c ****   NOT LIMITED TO, PROCUREMENT OF SUBSTITUTE GOODS OR SERVICES; 
  29:..\u8g2-master\csrc/u8log.c ****   LOSS OF USE, DATA, OR PROFITS; OR BUSINESS INTERRUPTION) HOWEVER 
  30:..\u8g2-master\csrc/u8log.c ****   CAUSED AND ON ANY THEORY OF LIABILITY, WHETHER IN CONTRACT, 
ARM GAS  C:\Users\info\AppData\Local\Temp\ccgwKbDi.s 			page 2


  31:..\u8g2-master\csrc/u8log.c ****   STRICT LIABILITY, OR TORT (INCLUDING NEGLIGENCE OR OTHERWISE) 
  32:..\u8g2-master\csrc/u8log.c ****   ARISING IN ANY WAY OUT OF THE USE OF THIS SOFTWARE, EVEN IF 
  33:..\u8g2-master\csrc/u8log.c ****   ADVISED OF THE POSSIBILITY OF SUCH DAMAGE.  
  34:..\u8g2-master\csrc/u8log.c **** 
  35:..\u8g2-master\csrc/u8log.c **** */
  36:..\u8g2-master\csrc/u8log.c **** 
  37:..\u8g2-master\csrc/u8log.c **** #include <stdint.h>
  38:..\u8g2-master\csrc/u8log.c **** #include <string.h>
  39:..\u8g2-master\csrc/u8log.c **** #include "u8x8.h"
  40:..\u8g2-master\csrc/u8log.c **** 
  41:..\u8g2-master\csrc/u8log.c **** 
  42:..\u8g2-master\csrc/u8log.c **** /*
  43:..\u8g2-master\csrc/u8log.c **** static uint8_t u8log_is_on_screen(u8log_t *u8log, uint8_t x, uint8_t y)
  44:..\u8g2-master\csrc/u8log.c **** {
  45:..\u8g2-master\csrc/u8log.c ****   if ( x >= u8log->width )
  46:..\u8g2-master\csrc/u8log.c ****     return 0;
  47:..\u8g2-master\csrc/u8log.c ****   if ( y >= u8log->height )
  48:..\u8g2-master\csrc/u8log.c ****     return 0;
  49:..\u8g2-master\csrc/u8log.c ****   return 1;
  50:..\u8g2-master\csrc/u8log.c **** }
  51:..\u8g2-master\csrc/u8log.c **** */
  52:..\u8g2-master\csrc/u8log.c **** 
  53:..\u8g2-master\csrc/u8log.c **** static void u8log_clear_screen(u8log_t *u8log)
  54:..\u8g2-master\csrc/u8log.c **** {
  55:..\u8g2-master\csrc/u8log.c ****   uint8_t *dest = u8log->screen_buffer;
  56:..\u8g2-master\csrc/u8log.c ****   uint16_t cnt = u8log->height;
  57:..\u8g2-master\csrc/u8log.c ****   cnt *= u8log->width;
  58:..\u8g2-master\csrc/u8log.c ****   do
  59:..\u8g2-master\csrc/u8log.c ****   {
  60:..\u8g2-master\csrc/u8log.c ****     *dest++ = ' ';
  61:..\u8g2-master\csrc/u8log.c ****     cnt--;
  62:..\u8g2-master\csrc/u8log.c ****   } while( cnt > 0 );
  63:..\u8g2-master\csrc/u8log.c ****   
  64:..\u8g2-master\csrc/u8log.c **** }
  65:..\u8g2-master\csrc/u8log.c **** 
  66:..\u8g2-master\csrc/u8log.c **** 
  67:..\u8g2-master\csrc/u8log.c **** /* scroll the content of the complete buffer, set redraw_line to 255 */
  68:..\u8g2-master\csrc/u8log.c **** static void u8log_scroll_up(u8log_t *u8log)
  69:..\u8g2-master\csrc/u8log.c **** {
  70:..\u8g2-master\csrc/u8log.c ****   uint8_t *dest = u8log->screen_buffer;
  71:..\u8g2-master\csrc/u8log.c ****   uint8_t *src = dest+u8log->width;
  72:..\u8g2-master\csrc/u8log.c ****   uint16_t cnt = u8log->height;
  73:..\u8g2-master\csrc/u8log.c ****   cnt--;
  74:..\u8g2-master\csrc/u8log.c ****   cnt *= u8log->width;
  75:..\u8g2-master\csrc/u8log.c ****   do
  76:..\u8g2-master\csrc/u8log.c ****   {
  77:..\u8g2-master\csrc/u8log.c ****     *dest++ = *src++;
  78:..\u8g2-master\csrc/u8log.c ****     cnt--;
  79:..\u8g2-master\csrc/u8log.c ****   } while( cnt > 0 );
  80:..\u8g2-master\csrc/u8log.c ****   cnt = u8log->width;
  81:..\u8g2-master\csrc/u8log.c ****   do
  82:..\u8g2-master\csrc/u8log.c ****   {
  83:..\u8g2-master\csrc/u8log.c ****     *dest++ = ' ';
  84:..\u8g2-master\csrc/u8log.c ****     cnt--;
  85:..\u8g2-master\csrc/u8log.c ****   } while(cnt > 0);
  86:..\u8g2-master\csrc/u8log.c ****   
  87:..\u8g2-master\csrc/u8log.c ****   if ( u8log->is_redraw_line_for_each_char )
ARM GAS  C:\Users\info\AppData\Local\Temp\ccgwKbDi.s 			page 3


  88:..\u8g2-master\csrc/u8log.c ****     u8log->is_redraw_all = 1;
  89:..\u8g2-master\csrc/u8log.c ****   else
  90:..\u8g2-master\csrc/u8log.c ****     u8log->is_redraw_all_required_for_next_nl = 1;
  91:..\u8g2-master\csrc/u8log.c **** }
  92:..\u8g2-master\csrc/u8log.c **** 
  93:..\u8g2-master\csrc/u8log.c **** /*
  94:..\u8g2-master\csrc/u8log.c ****   Place the cursor on the screen. This will also scroll, if required 
  95:..\u8g2-master\csrc/u8log.c **** */
  96:..\u8g2-master\csrc/u8log.c **** static void u8log_cursor_on_screen(u8log_t *u8log)
  97:..\u8g2-master\csrc/u8log.c **** {
  98:..\u8g2-master\csrc/u8log.c ****   //printf("u8log_cursor_on_screen, cursor_y=%d\n", u8log->cursor_y);
  99:..\u8g2-master\csrc/u8log.c ****   if ( u8log->cursor_x >= u8log->width )
 100:..\u8g2-master\csrc/u8log.c ****   {
 101:..\u8g2-master\csrc/u8log.c ****     u8log->cursor_x = 0;
 102:..\u8g2-master\csrc/u8log.c ****     u8log->cursor_y++;
 103:..\u8g2-master\csrc/u8log.c ****   }
 104:..\u8g2-master\csrc/u8log.c ****   while ( u8log->cursor_y >= u8log->height )
 105:..\u8g2-master\csrc/u8log.c ****   {
 106:..\u8g2-master\csrc/u8log.c ****     u8log_scroll_up(u8log);
 107:..\u8g2-master\csrc/u8log.c ****     u8log->cursor_y--;
 108:..\u8g2-master\csrc/u8log.c ****   }
 109:..\u8g2-master\csrc/u8log.c **** }
 110:..\u8g2-master\csrc/u8log.c **** 
 111:..\u8g2-master\csrc/u8log.c **** /*
 112:..\u8g2-master\csrc/u8log.c ****   Write a printable, single char on the screen, do any kind of scrolling
 113:..\u8g2-master\csrc/u8log.c **** */
 114:..\u8g2-master\csrc/u8log.c **** static void u8log_write_to_screen(u8log_t *u8log, uint8_t c)
 115:..\u8g2-master\csrc/u8log.c **** {
 116:..\u8g2-master\csrc/u8log.c ****   u8log_cursor_on_screen(u8log);
 117:..\u8g2-master\csrc/u8log.c ****   u8log->screen_buffer[u8log->cursor_y * u8log->width + u8log->cursor_x] = c;
 118:..\u8g2-master\csrc/u8log.c ****   u8log->cursor_x++;
 119:..\u8g2-master\csrc/u8log.c ****   
 120:..\u8g2-master\csrc/u8log.c ****   if ( u8log->is_redraw_line_for_each_char )
 121:..\u8g2-master\csrc/u8log.c ****   {
 122:..\u8g2-master\csrc/u8log.c ****     u8log->is_redraw_line = 1;
 123:..\u8g2-master\csrc/u8log.c ****     u8log->redraw_line = u8log->cursor_y;
 124:..\u8g2-master\csrc/u8log.c ****   }
 125:..\u8g2-master\csrc/u8log.c **** }
 126:..\u8g2-master\csrc/u8log.c **** 
 127:..\u8g2-master\csrc/u8log.c **** /*
 128:..\u8g2-master\csrc/u8log.c ****   Handle control codes or write the char to the screen.
 129:..\u8g2-master\csrc/u8log.c ****   Supported control codes are:
 130:..\u8g2-master\csrc/u8log.c ****   
 131:..\u8g2-master\csrc/u8log.c ****     \n		10		Goto first position of the next line. Line is marked for redraw.
 132:..\u8g2-master\csrc/u8log.c ****     \r		13		Goto first position in the same line. Line is marked for redraw.
 133:..\u8g2-master\csrc/u8log.c ****     \t		9		Jump to the next tab position
 134:..\u8g2-master\csrc/u8log.c ****     \f		12		Clear the screen and mark redraw for whole screen
 135:..\u8g2-master\csrc/u8log.c ****     any other char	Write char to screen. Line redraw mark depends on 
 136:..\u8g2-master\csrc/u8log.c **** 				is_redraw_line_for_each_char flag.
 137:..\u8g2-master\csrc/u8log.c **** */
 138:..\u8g2-master\csrc/u8log.c **** void u8log_write_char(u8log_t *u8log, uint8_t c)
 139:..\u8g2-master\csrc/u8log.c **** {
  28              		.loc 1 139 0
  29              		.cfi_startproc
  30              		@ args = 0, pretend = 0, frame = 0
  31              		@ frame_needed = 0, uses_anonymous_args = 0
  32              	.LVL0:
ARM GAS  C:\Users\info\AppData\Local\Temp\ccgwKbDi.s 			page 4


 140:..\u8g2-master\csrc/u8log.c ****   switch(c)
  33              		.loc 1 140 0
  34 0000 A1F10903 		sub	r3, r1, #9
 139:..\u8g2-master\csrc/u8log.c ****   switch(c)
  35              		.loc 1 139 0
  36 0004 2DE9F047 		push	{r4, r5, r6, r7, r8, r9, r10, lr}
  37              		.cfi_def_cfa_offset 32
  38              		.cfi_offset 4, -32
  39              		.cfi_offset 5, -28
  40              		.cfi_offset 6, -24
  41              		.cfi_offset 7, -20
  42              		.cfi_offset 8, -16
  43              		.cfi_offset 9, -12
  44              		.cfi_offset 10, -8
  45              		.cfi_offset 14, -4
 139:..\u8g2-master\csrc/u8log.c ****   switch(c)
  46              		.loc 1 139 0
  47 0008 0446     		mov	r4, r0
  48              		.loc 1 140 0
  49 000a 042B     		cmp	r3, #4
  50 000c 33D8     		bhi	.L2
  51 000e DFE803F0 		tbb	[pc, r3]
  52              	.L4:
  53 0012 2B       		.byte	(.L3-.L4)/2
  54 0013 1D       		.byte	(.L5-.L4)/2
  55 0014 32       		.byte	(.L2-.L4)/2
  56 0015 0B       		.byte	(.L6-.L4)/2
  57 0016 03       		.byte	(.L7-.L4)/2
  58 0017 00       		.p2align 1
  59              	.L7:
 141:..\u8g2-master\csrc/u8log.c ****   {
 142:..\u8g2-master\csrc/u8log.c ****     case '\n':	// 10
 143:..\u8g2-master\csrc/u8log.c ****       u8log->is_redraw_line = 1;
 144:..\u8g2-master\csrc/u8log.c ****       u8log->redraw_line = u8log->cursor_y;
 145:..\u8g2-master\csrc/u8log.c ****       if ( u8log->is_redraw_all_required_for_next_nl )
 146:..\u8g2-master\csrc/u8log.c **** 	u8log->is_redraw_all = 1;
 147:..\u8g2-master\csrc/u8log.c ****       u8log->is_redraw_all_required_for_next_nl = 0;
 148:..\u8g2-master\csrc/u8log.c ****       u8log->cursor_y++;
 149:..\u8g2-master\csrc/u8log.c ****       u8log->cursor_x = 0;
 150:..\u8g2-master\csrc/u8log.c ****       break;	
 151:..\u8g2-master\csrc/u8log.c ****     case '\r':	// 13
 152:..\u8g2-master\csrc/u8log.c ****       u8log->is_redraw_line = 1;
 153:..\u8g2-master\csrc/u8log.c ****       u8log->redraw_line = u8log->cursor_y;
  60              		.loc 1 153 0
  61 0018 C17C     		ldrb	r1, [r0, #19]	@ zero_extendqisi2
  62              	.LVL1:
 152:..\u8g2-master\csrc/u8log.c ****       u8log->redraw_line = u8log->cursor_y;
  63              		.loc 1 152 0
  64 001a 0122     		movs	r2, #1
 154:..\u8g2-master\csrc/u8log.c ****       u8log->cursor_x = 0;
  65              		.loc 1 154 0
  66 001c 0023     		movs	r3, #0
 153:..\u8g2-master\csrc/u8log.c ****       u8log->cursor_x = 0;
  67              		.loc 1 153 0
  68 001e 0175     		strb	r1, [r0, #20]
 152:..\u8g2-master\csrc/u8log.c ****       u8log->redraw_line = u8log->cursor_y;
  69              		.loc 1 152 0
ARM GAS  C:\Users\info\AppData\Local\Temp\ccgwKbDi.s 			page 5


  70 0020 4275     		strb	r2, [r0, #21]
  71              		.loc 1 154 0
  72 0022 8374     		strb	r3, [r0, #18]
 155:..\u8g2-master\csrc/u8log.c ****       break;
  73              		.loc 1 155 0
  74 0024 BDE8F087 		pop	{r4, r5, r6, r7, r8, r9, r10, pc}
  75              	.LVL2:
  76              	.L6:
  77 0028 0379     		ldrb	r3, [r0, #4]	@ zero_extendqisi2
  78              	.LBB22:
  79              	.LBB23:
  80              	.LBB24:
  81              	.LBB25:
  56:..\u8g2-master\csrc/u8log.c ****   cnt *= u8log->width;
  82              		.loc 1 56 0
  83 002a 4279     		ldrb	r2, [r0, #5]	@ zero_extendqisi2
  84              	.LVL3:
  85 002c 2021     		movs	r1, #32
  86              	.LVL4:
  87 002e 03FB02F2 		mul	r2, r3, r2
  88              	.LVL5:
  89 0032 013A     		subs	r2, r2, #1
  90 0034 92B2     		uxth	r2, r2
  91 0036 0132     		adds	r2, r2, #1
  92 0038 C068     		ldr	r0, [r0, #12]
  93              	.LVL6:
  94 003a FFF7FEFF 		bl	memset
  95              	.LVL7:
  96              	.LBE25:
  97              	.LBE24:
 156:..\u8g2-master\csrc/u8log.c ****     case '\t':	// 9
 157:..\u8g2-master\csrc/u8log.c ****       u8log->cursor_x = (u8log->cursor_x + 8) & 0xf8;
 158:..\u8g2-master\csrc/u8log.c ****       break;
 159:..\u8g2-master\csrc/u8log.c ****     case '\f':	// 12
 160:..\u8g2-master\csrc/u8log.c ****       u8log_clear_screen(u8log);
 161:..\u8g2-master\csrc/u8log.c ****       u8log->is_redraw_all = 1;
 162:..\u8g2-master\csrc/u8log.c ****       u8log->cursor_x = 0;
  98              		.loc 1 162 0
  99 003e 0023     		movs	r3, #0
 161:..\u8g2-master\csrc/u8log.c ****       u8log->cursor_x = 0;
 100              		.loc 1 161 0
 101 0040 0122     		movs	r2, #1
 102 0042 A275     		strb	r2, [r4, #22]
 103              		.loc 1 162 0
 104 0044 A374     		strb	r3, [r4, #18]
 163:..\u8g2-master\csrc/u8log.c ****       u8log->cursor_y = 0;
 105              		.loc 1 163 0
 106 0046 E374     		strb	r3, [r4, #19]
 107 0048 BDE8F087 		pop	{r4, r5, r6, r7, r8, r9, r10, pc}
 108              	.LVL8:
 109              	.L5:
 110              	.LBE23:
 111              	.LBE22:
 144:..\u8g2-master\csrc/u8log.c ****       if ( u8log->is_redraw_all_required_for_next_nl )
 112              		.loc 1 144 0
 113 004c C37C     		ldrb	r3, [r0, #19]	@ zero_extendqisi2
 145:..\u8g2-master\csrc/u8log.c **** 	u8log->is_redraw_all = 1;
ARM GAS  C:\Users\info\AppData\Local\Temp\ccgwKbDi.s 			page 6


 114              		.loc 1 145 0
 115 004e C17D     		ldrb	r1, [r0, #23]	@ zero_extendqisi2
 116              	.LVL9:
 143:..\u8g2-master\csrc/u8log.c ****       u8log->redraw_line = u8log->cursor_y;
 117              		.loc 1 143 0
 118 0050 0122     		movs	r2, #1
 144:..\u8g2-master\csrc/u8log.c ****       if ( u8log->is_redraw_all_required_for_next_nl )
 119              		.loc 1 144 0
 120 0052 0375     		strb	r3, [r0, #20]
 143:..\u8g2-master\csrc/u8log.c ****       u8log->redraw_line = u8log->cursor_y;
 121              		.loc 1 143 0
 122 0054 4275     		strb	r2, [r0, #21]
 145:..\u8g2-master\csrc/u8log.c **** 	u8log->is_redraw_all = 1;
 123              		.loc 1 145 0
 124 0056 01B1     		cbz	r1, .L8
 146:..\u8g2-master\csrc/u8log.c ****       u8log->is_redraw_all_required_for_next_nl = 0;
 125              		.loc 1 146 0
 126 0058 8275     		strb	r2, [r0, #22]
 127              	.L8:
 147:..\u8g2-master\csrc/u8log.c ****       u8log->cursor_y++;
 128              		.loc 1 147 0
 129 005a 0022     		movs	r2, #0
 148:..\u8g2-master\csrc/u8log.c ****       u8log->cursor_x = 0;
 130              		.loc 1 148 0
 131 005c 0133     		adds	r3, r3, #1
 132 005e E374     		strb	r3, [r4, #19]
 147:..\u8g2-master\csrc/u8log.c ****       u8log->cursor_y++;
 133              		.loc 1 147 0
 134 0060 E275     		strb	r2, [r4, #23]
 149:..\u8g2-master\csrc/u8log.c ****       break;	
 135              		.loc 1 149 0
 136 0062 A274     		strb	r2, [r4, #18]
 150:..\u8g2-master\csrc/u8log.c ****     case '\r':	// 13
 137              		.loc 1 150 0
 138 0064 BDE8F087 		pop	{r4, r5, r6, r7, r8, r9, r10, pc}
 139              	.LVL10:
 140              	.L3:
 157:..\u8g2-master\csrc/u8log.c ****       break;
 141              		.loc 1 157 0
 142 0068 837C     		ldrb	r3, [r0, #18]	@ zero_extendqisi2
 143 006a 0833     		adds	r3, r3, #8
 144 006c 23F00703 		bic	r3, r3, #7
 145 0070 8374     		strb	r3, [r0, #18]
 158:..\u8g2-master\csrc/u8log.c ****     case '\f':	// 12
 146              		.loc 1 158 0
 147 0072 BDE8F087 		pop	{r4, r5, r6, r7, r8, r9, r10, pc}
 148              	.L2:
 149 0076 0E46     		mov	r6, r1
 150              	.LVL11:
 151              	.LBB26:
 152              	.LBB27:
 153              	.LBB28:
 154              	.LBB29:
  99:..\u8g2-master\csrc/u8log.c ****   {
 155              		.loc 1 99 0
 156 0078 807C     		ldrb	r0, [r0, #18]	@ zero_extendqisi2
 157              	.LVL12:
ARM GAS  C:\Users\info\AppData\Local\Temp\ccgwKbDi.s 			page 7


 158 007a 2179     		ldrb	r1, [r4, #4]	@ zero_extendqisi2
 159              	.LVL13:
 160 007c 8842     		cmp	r0, r1
 161 007e 58D2     		bcs	.L10
 162 0080 E27C     		ldrb	r2, [r4, #19]	@ zero_extendqisi2
 163              	.L11:
 104:..\u8g2-master\csrc/u8log.c ****   {
 164              		.loc 1 104 0
 165 0082 6379     		ldrb	r3, [r4, #5]	@ zero_extendqisi2
 166 0084 9342     		cmp	r3, r2
 167 0086 6BD8     		bhi	.L12
 168              	.LBB30:
 169              	.LBB31:
  90:..\u8g2-master\csrc/u8log.c **** }
 170              		.loc 1 90 0
 171 0088 0125     		movs	r5, #1
 172 008a 08E0     		b	.L23
 173              	.LVL14:
 174              	.L20:
 175 008c E575     		strb	r5, [r4, #23]
 176              	.L21:
 177              	.LVL15:
 178              	.LBE31:
 179              	.LBE30:
 107:..\u8g2-master\csrc/u8log.c ****   }
 180              		.loc 1 107 0
 181 008e E27C     		ldrb	r2, [r4, #19]	@ zero_extendqisi2
 104:..\u8g2-master\csrc/u8log.c ****   {
 182              		.loc 1 104 0
 183 0090 6379     		ldrb	r3, [r4, #5]	@ zero_extendqisi2
 107:..\u8g2-master\csrc/u8log.c ****   }
 184              		.loc 1 107 0
 185 0092 013A     		subs	r2, r2, #1
 186 0094 D2B2     		uxtb	r2, r2
 104:..\u8g2-master\csrc/u8log.c ****   {
 187              		.loc 1 104 0
 188 0096 9A42     		cmp	r2, r3
 107:..\u8g2-master\csrc/u8log.c ****   }
 189              		.loc 1 107 0
 190 0098 E274     		strb	r2, [r4, #19]
 191 009a 2179     		ldrb	r1, [r4, #4]	@ zero_extendqisi2
 104:..\u8g2-master\csrc/u8log.c ****   {
 192              		.loc 1 104 0
 193 009c 5FD3     		bcc	.L48
 194              	.L23:
 195              	.LVL16:
 196              	.LBB34:
 197              	.LBB32:
  73:..\u8g2-master\csrc/u8log.c ****   cnt *= u8log->width;
 198              		.loc 1 73 0
 199 009e 013B     		subs	r3, r3, #1
  74:..\u8g2-master\csrc/u8log.c ****   do
 200              		.loc 1 74 0
 201 00a0 03FB01F3 		mul	r3, r3, r1
  70:..\u8g2-master\csrc/u8log.c ****   uint8_t *src = dest+u8log->width;
 202              		.loc 1 70 0
 203 00a4 E068     		ldr	r0, [r4, #12]
ARM GAS  C:\Users\info\AppData\Local\Temp\ccgwKbDi.s 			page 8


 204              	.LVL17:
  74:..\u8g2-master\csrc/u8log.c ****   do
 205              		.loc 1 74 0
 206 00a6 9BB2     		uxth	r3, r3
  71:..\u8g2-master\csrc/u8log.c ****   uint16_t cnt = u8log->height;
 207              		.loc 1 71 0
 208 00a8 4218     		adds	r2, r0, r1
 209              	.LVL18:
 210 00aa 011D     		adds	r1, r0, #4
 211 00ac 8A42     		cmp	r2, r1
 212 00ae 28BF     		it	cs
 213 00b0 092B     		cmpcs	r3, #9
 214 00b2 48D9     		bls	.L13
 215 00b4 42EA0001 		orr	r1, r2, r0
 216 00b8 8907     		lsls	r1, r1, #30
 217 00ba 44D1     		bne	.L13
  74:..\u8g2-master\csrc/u8log.c ****   do
 218              		.loc 1 74 0
 219 00bc 8046     		mov	r8, r0
 220 00be 191F     		subs	r1, r3, #4
 221 00c0 C1F38D01 		ubfx	r1, r1, #2, #14
 222 00c4 0131     		adds	r1, r1, #1
 223 00c6 8F00     		lsls	r7, r1, #2
 224 00c8 BFB2     		uxth	r7, r7
 225 00ca A2F1040C 		sub	ip, r2, #4
 226 00ce 4FF0000E 		mov	lr, #0
 227              	.LVL19:
 228              	.L14:
 229 00d2 0EF1010E 		add	lr, lr, #1
  77:..\u8g2-master\csrc/u8log.c ****     cnt--;
 230              		.loc 1 77 0
 231 00d6 5CF804AF 		ldr	r10, [ip, #4]!
 232 00da 1FFA8EF9 		uxth	r9, lr
 233 00de 4945     		cmp	r1, r9
 234 00e0 48F804AB 		str	r10, [r8], #4
 235 00e4 F5D8     		bhi	.L14
 236 00e6 D91B     		subs	r1, r3, r7
 237 00e8 BB42     		cmp	r3, r7
 238 00ea 89B2     		uxth	r1, r1
 239 00ec 00EB070E 		add	lr, r0, r7
 240 00f0 02EB070C 		add	ip, r2, r7
 241 00f4 25D0     		beq	.L45
 242              	.LVL20:
 243 00f6 D25D     		ldrb	r2, [r2, r7]	@ zero_extendqisi2
  79:..\u8g2-master\csrc/u8log.c ****   cnt = u8log->width;
 244              		.loc 1 79 0
 245 00f8 0129     		cmp	r1, #1
  77:..\u8g2-master\csrc/u8log.c ****     cnt--;
 246              		.loc 1 77 0
 247 00fa C255     		strb	r2, [r0, r7]
 248              	.LVL21:
  79:..\u8g2-master\csrc/u8log.c ****   cnt = u8log->width;
 249              		.loc 1 79 0
 250 00fc 21D0     		beq	.L45
 251              	.LVL22:
  77:..\u8g2-master\csrc/u8log.c ****     cnt--;
 252              		.loc 1 77 0
ARM GAS  C:\Users\info\AppData\Local\Temp\ccgwKbDi.s 			page 9


 253 00fe 9CF80120 		ldrb	r2, [ip, #1]	@ zero_extendqisi2
  79:..\u8g2-master\csrc/u8log.c ****   cnt = u8log->width;
 254              		.loc 1 79 0
 255 0102 0229     		cmp	r1, #2
  77:..\u8g2-master\csrc/u8log.c ****     cnt--;
 256              		.loc 1 77 0
 257 0104 8EF80120 		strb	r2, [lr, #1]
 258              	.LVL23:
  79:..\u8g2-master\csrc/u8log.c ****   cnt = u8log->width;
 259              		.loc 1 79 0
 260 0108 1BD0     		beq	.L45
 261              	.LVL24:
  77:..\u8g2-master\csrc/u8log.c ****     cnt--;
 262              		.loc 1 77 0
 263 010a 9CF80220 		ldrb	r2, [ip, #2]	@ zero_extendqisi2
 264 010e 013B     		subs	r3, r3, #1
 265 0110 8EF80220 		strb	r2, [lr, #2]
 266              	.LVL25:
 267              	.L19:
 268 0114 2279     		ldrb	r2, [r4, #4]	@ zero_extendqisi2
 269 0116 9BB2     		uxth	r3, r3
 270 0118 013A     		subs	r2, r2, #1
 271 011a 0133     		adds	r3, r3, #1
 272 011c 92B2     		uxth	r2, r2
 273 011e 1844     		add	r0, r0, r3
 274 0120 0132     		adds	r2, r2, #1
 275 0122 2021     		movs	r1, #32
 276 0124 FFF7FEFF 		bl	memset
 277              	.LVL26:
  87:..\u8g2-master\csrc/u8log.c ****     u8log->is_redraw_all = 1;
 278              		.loc 1 87 0
 279 0128 237C     		ldrb	r3, [r4, #16]	@ zero_extendqisi2
 280 012a 002B     		cmp	r3, #0
 281 012c AED0     		beq	.L20
  88:..\u8g2-master\csrc/u8log.c ****   else
 282              		.loc 1 88 0
 283 012e A575     		strb	r5, [r4, #22]
 284 0130 ADE7     		b	.L21
 285              	.LVL27:
 286              	.L10:
 287              	.LBE32:
 288              	.LBE34:
 102:..\u8g2-master\csrc/u8log.c ****   }
 289              		.loc 1 102 0
 290 0132 E37C     		ldrb	r3, [r4, #19]	@ zero_extendqisi2
 101:..\u8g2-master\csrc/u8log.c ****     u8log->cursor_y++;
 291              		.loc 1 101 0
 292 0134 0022     		movs	r2, #0
 102:..\u8g2-master\csrc/u8log.c ****   }
 293              		.loc 1 102 0
 294 0136 0133     		adds	r3, r3, #1
 295 0138 1046     		mov	r0, r2
 101:..\u8g2-master\csrc/u8log.c ****     u8log->cursor_y++;
 296              		.loc 1 101 0
 297 013a A274     		strb	r2, [r4, #18]
 102:..\u8g2-master\csrc/u8log.c ****   }
 298              		.loc 1 102 0
ARM GAS  C:\Users\info\AppData\Local\Temp\ccgwKbDi.s 			page 10


 299 013c DAB2     		uxtb	r2, r3
 300 013e E274     		strb	r2, [r4, #19]
 301 0140 9FE7     		b	.L11
 302              	.LVL28:
 303              	.L45:
 304 0142 013B     		subs	r3, r3, #1
 305 0144 E6E7     		b	.L19
 306              	.LVL29:
 307              	.L13:
 308 0146 013B     		subs	r3, r3, #1
 309 0148 1FFA83FE 		uxth	lr, r3
 310 014c 8644     		add	lr, lr, r0
 311 014e 411E     		subs	r1, r0, #1
 312              	.LVL30:
 313              	.L18:
 314              	.LBB35:
 315              	.LBB33:
  77:..\u8g2-master\csrc/u8log.c ****     cnt--;
 316              		.loc 1 77 0
 317 0150 12F8017B 		ldrb	r7, [r2], #1	@ zero_extendqisi2
 318              	.LVL31:
 319 0154 01F8017F 		strb	r7, [r1, #1]!
  79:..\u8g2-master\csrc/u8log.c ****   cnt = u8log->width;
 320              		.loc 1 79 0
 321 0158 7145     		cmp	r1, lr
 322 015a F9D1     		bne	.L18
 323 015c DAE7     		b	.L19
 324              	.LVL32:
 325              	.L48:
 326 015e A07C     		ldrb	r0, [r4, #18]	@ zero_extendqisi2
 327              	.L12:
 328              	.LVL33:
 329              	.LBE33:
 330              	.LBE35:
 331              	.LBE29:
 332              	.LBE28:
 117:..\u8g2-master\csrc/u8log.c ****   u8log->cursor_x++;
 333              		.loc 1 117 0
 334 0160 E368     		ldr	r3, [r4, #12]
 335 0162 01FB0232 		mla	r2, r1, r2, r3
 336 0166 1654     		strb	r6, [r2, r0]
 118:..\u8g2-master\csrc/u8log.c ****   
 337              		.loc 1 118 0
 338 0168 A37C     		ldrb	r3, [r4, #18]	@ zero_extendqisi2
 120:..\u8g2-master\csrc/u8log.c ****   {
 339              		.loc 1 120 0
 340 016a 227C     		ldrb	r2, [r4, #16]	@ zero_extendqisi2
 118:..\u8g2-master\csrc/u8log.c ****   
 341              		.loc 1 118 0
 342 016c 0133     		adds	r3, r3, #1
 343 016e A374     		strb	r3, [r4, #18]
 120:..\u8g2-master\csrc/u8log.c ****   {
 344              		.loc 1 120 0
 345 0170 1AB1     		cbz	r2, .L1
 123:..\u8g2-master\csrc/u8log.c ****   }
 346              		.loc 1 123 0
 347 0172 E27C     		ldrb	r2, [r4, #19]	@ zero_extendqisi2
ARM GAS  C:\Users\info\AppData\Local\Temp\ccgwKbDi.s 			page 11


 122:..\u8g2-master\csrc/u8log.c ****     u8log->redraw_line = u8log->cursor_y;
 348              		.loc 1 122 0
 349 0174 0123     		movs	r3, #1
 123:..\u8g2-master\csrc/u8log.c ****   }
 350              		.loc 1 123 0
 351 0176 2275     		strb	r2, [r4, #20]
 122:..\u8g2-master\csrc/u8log.c ****     u8log->redraw_line = u8log->cursor_y;
 352              		.loc 1 122 0
 353 0178 6375     		strb	r3, [r4, #21]
 354              	.L1:
 355 017a BDE8F087 		pop	{r4, r5, r6, r7, r8, r9, r10, pc}
 356              	.LBE27:
 357              	.LBE26:
 358              		.cfi_endproc
 359              	.LFE4:
 360              		.size	u8log_write_char, .-u8log_write_char
 361 017e 00BF     		.section	.text.u8log_Init,"ax",%progbits
 362              		.align	2
 363              		.global	u8log_Init
 364              		.thumb
 365              		.thumb_func
 366              		.type	u8log_Init, %function
 367              	u8log_Init:
 368              	.LFB5:
 164:..\u8g2-master\csrc/u8log.c ****       break;
 165:..\u8g2-master\csrc/u8log.c ****     default:
 166:..\u8g2-master\csrc/u8log.c ****       u8log_write_to_screen(u8log, c);
 167:..\u8g2-master\csrc/u8log.c ****       break;
 168:..\u8g2-master\csrc/u8log.c ****   }
 169:..\u8g2-master\csrc/u8log.c **** }
 170:..\u8g2-master\csrc/u8log.c **** 
 171:..\u8g2-master\csrc/u8log.c **** void u8log_Init(u8log_t *u8log, uint8_t width, uint8_t height, uint8_t *buf)
 172:..\u8g2-master\csrc/u8log.c **** {
 369              		.loc 1 172 0
 370              		.cfi_startproc
 371              		@ args = 0, pretend = 0, frame = 0
 372              		@ frame_needed = 0, uses_anonymous_args = 0
 373              		@ link register save eliminated.
 374              	.LVL34:
 375 0000 70B4     		push	{r4, r5, r6}
 376              		.cfi_def_cfa_offset 12
 377              		.cfi_offset 4, -12
 378              		.cfi_offset 5, -8
 379              		.cfi_offset 6, -4
 380              		.loc 1 172 0
 381 0002 0446     		mov	r4, r0
 382 0004 1646     		mov	r6, r2
 383 0006 01FB02F2 		mul	r2, r1, r2
 384              	.LVL35:
 173:..\u8g2-master\csrc/u8log.c ****   memset(u8log, 0, sizeof(u8log_t));
 385              		.loc 1 173 0
 386 000a 0025     		movs	r5, #0
 387 000c 013A     		subs	r2, r2, #1
 174:..\u8g2-master\csrc/u8log.c ****   u8log->width = width;
 175:..\u8g2-master\csrc/u8log.c ****   u8log->height = height;
 176:..\u8g2-master\csrc/u8log.c ****   u8log->screen_buffer = buf;
 388              		.loc 1 176 0
ARM GAS  C:\Users\info\AppData\Local\Temp\ccgwKbDi.s 			page 12


 389 000e C360     		str	r3, [r0, #12]
 390              	.LVL36:
 391 0010 92B2     		uxth	r2, r2
 173:..\u8g2-master\csrc/u8log.c ****   memset(u8log, 0, sizeof(u8log_t));
 392              		.loc 1 173 0
 393 0012 6560     		str	r5, [r4, #4]	@ unaligned
 394 0014 2560     		str	r5, [r4]	@ unaligned
 174:..\u8g2-master\csrc/u8log.c ****   u8log->width = width;
 395              		.loc 1 174 0
 396 0016 2171     		strb	r1, [r4, #4]
 173:..\u8g2-master\csrc/u8log.c ****   memset(u8log, 0, sizeof(u8log_t));
 397              		.loc 1 173 0
 398 0018 A560     		str	r5, [r4, #8]	@ unaligned
 399 001a 2561     		str	r5, [r4, #16]	@ unaligned
 400 001c 6561     		str	r5, [r4, #20]	@ unaligned
 175:..\u8g2-master\csrc/u8log.c ****   u8log->screen_buffer = buf;
 401              		.loc 1 175 0
 402 001e 6671     		strb	r6, [r4, #5]
 403 0020 1846     		mov	r0, r3
 404              	.LVL37:
 177:..\u8g2-master\csrc/u8log.c ****   u8log_clear_screen(u8log);
 178:..\u8g2-master\csrc/u8log.c **** }
 405              		.loc 1 178 0
 406 0022 70BC     		pop	{r4, r5, r6}
 407              		.cfi_restore 6
 408              		.cfi_restore 5
 409              		.cfi_restore 4
 410              		.cfi_def_cfa_offset 0
 411              	.LVL38:
 412 0024 0132     		adds	r2, r2, #1
 413 0026 2021     		movs	r1, #32
 414              	.LVL39:
 415 0028 FFF7FEBF 		b	memset
 416              	.LVL40:
 417              		.cfi_endproc
 418              	.LFE5:
 419              		.size	u8log_Init, .-u8log_Init
 420              		.section	.text.u8log_SetCallback,"ax",%progbits
 421              		.align	2
 422              		.global	u8log_SetCallback
 423              		.thumb
 424              		.thumb_func
 425              		.type	u8log_SetCallback, %function
 426              	u8log_SetCallback:
 427              	.LFB6:
 179:..\u8g2-master\csrc/u8log.c **** 
 180:..\u8g2-master\csrc/u8log.c **** void u8log_SetCallback(u8log_t *u8log, u8log_cb cb, void *aux_data)
 181:..\u8g2-master\csrc/u8log.c **** {
 428              		.loc 1 181 0
 429              		.cfi_startproc
 430              		@ args = 0, pretend = 0, frame = 0
 431              		@ frame_needed = 0, uses_anonymous_args = 0
 432              		@ link register save eliminated.
 433              	.LVL41:
 182:..\u8g2-master\csrc/u8log.c ****   u8log->cb = cb;
 434              		.loc 1 182 0
 435 0000 8160     		str	r1, [r0, #8]
ARM GAS  C:\Users\info\AppData\Local\Temp\ccgwKbDi.s 			page 13


 183:..\u8g2-master\csrc/u8log.c ****   u8log->aux_data = aux_data;
 436              		.loc 1 183 0
 437 0002 0260     		str	r2, [r0]
 438 0004 7047     		bx	lr
 439              		.cfi_endproc
 440              	.LFE6:
 441              		.size	u8log_SetCallback, .-u8log_SetCallback
 442 0006 00BF     		.section	.text.u8log_SetRedrawMode,"ax",%progbits
 443              		.align	2
 444              		.global	u8log_SetRedrawMode
 445              		.thumb
 446              		.thumb_func
 447              		.type	u8log_SetRedrawMode, %function
 448              	u8log_SetRedrawMode:
 449              	.LFB7:
 184:..\u8g2-master\csrc/u8log.c **** }
 185:..\u8g2-master\csrc/u8log.c **** 
 186:..\u8g2-master\csrc/u8log.c **** void u8log_SetRedrawMode(u8log_t *u8log, uint8_t is_redraw_line_for_each_char)
 187:..\u8g2-master\csrc/u8log.c **** {
 450              		.loc 1 187 0
 451              		.cfi_startproc
 452              		@ args = 0, pretend = 0, frame = 0
 453              		@ frame_needed = 0, uses_anonymous_args = 0
 454              		@ link register save eliminated.
 455              	.LVL42:
 188:..\u8g2-master\csrc/u8log.c ****   u8log->is_redraw_line_for_each_char = is_redraw_line_for_each_char;
 456              		.loc 1 188 0
 457 0000 0174     		strb	r1, [r0, #16]
 458 0002 7047     		bx	lr
 459              		.cfi_endproc
 460              	.LFE7:
 461              		.size	u8log_SetRedrawMode, .-u8log_SetRedrawMode
 462              		.section	.text.u8log_SetLineHeightOffset,"ax",%progbits
 463              		.align	2
 464              		.global	u8log_SetLineHeightOffset
 465              		.thumb
 466              		.thumb_func
 467              		.type	u8log_SetLineHeightOffset, %function
 468              	u8log_SetLineHeightOffset:
 469              	.LFB8:
 189:..\u8g2-master\csrc/u8log.c **** }
 190:..\u8g2-master\csrc/u8log.c **** 
 191:..\u8g2-master\csrc/u8log.c **** /* offset can be negative or positive, it is 0 by default */
 192:..\u8g2-master\csrc/u8log.c **** void u8log_SetLineHeightOffset(u8log_t *u8log, int8_t line_height_offset)
 193:..\u8g2-master\csrc/u8log.c **** {
 470              		.loc 1 193 0
 471              		.cfi_startproc
 472              		@ args = 0, pretend = 0, frame = 0
 473              		@ frame_needed = 0, uses_anonymous_args = 0
 474              		@ link register save eliminated.
 475              	.LVL43:
 194:..\u8g2-master\csrc/u8log.c ****   u8log->line_height_offset = line_height_offset;
 476              		.loc 1 194 0
 477 0000 4174     		strb	r1, [r0, #17]
 478 0002 7047     		bx	lr
 479              		.cfi_endproc
 480              	.LFE8:
ARM GAS  C:\Users\info\AppData\Local\Temp\ccgwKbDi.s 			page 14


 481              		.size	u8log_SetLineHeightOffset, .-u8log_SetLineHeightOffset
 482              		.section	.text.u8log_WriteChar,"ax",%progbits
 483              		.align	2
 484              		.global	u8log_WriteChar
 485              		.thumb
 486              		.thumb_func
 487              		.type	u8log_WriteChar, %function
 488              	u8log_WriteChar:
 489              	.LFB9:
 195:..\u8g2-master\csrc/u8log.c **** }
 196:..\u8g2-master\csrc/u8log.c **** 
 197:..\u8g2-master\csrc/u8log.c **** 
 198:..\u8g2-master\csrc/u8log.c **** 
 199:..\u8g2-master\csrc/u8log.c **** void u8log_WriteChar(u8log_t *u8log, uint8_t c)
 200:..\u8g2-master\csrc/u8log.c **** {
 490              		.loc 1 200 0
 491              		.cfi_startproc
 492              		@ args = 0, pretend = 0, frame = 0
 493              		@ frame_needed = 0, uses_anonymous_args = 0
 494              	.LVL44:
 495 0000 10B5     		push	{r4, lr}
 496              		.cfi_def_cfa_offset 8
 497              		.cfi_offset 4, -8
 498              		.cfi_offset 14, -4
 499              		.loc 1 200 0
 500 0002 0446     		mov	r4, r0
 201:..\u8g2-master\csrc/u8log.c ****   u8log_write_char(u8log, c);
 501              		.loc 1 201 0
 502 0004 FFF7FEFF 		bl	u8log_write_char
 503              	.LVL45:
 202:..\u8g2-master\csrc/u8log.c ****   if ( u8log->is_redraw_line || u8log->is_redraw_all )
 504              		.loc 1 202 0
 505 0008 6369     		ldr	r3, [r4, #20]
 506 000a 23F07F43 		bic	r3, r3, #-16777216
 507 000e 23F0FF03 		bic	r3, r3, #255
 508 0012 33B1     		cbz	r3, .L54
 203:..\u8g2-master\csrc/u8log.c ****   {
 204:..\u8g2-master\csrc/u8log.c ****     if ( u8log->cb != 0 )
 509              		.loc 1 204 0
 510 0014 A368     		ldr	r3, [r4, #8]
 511 0016 0BB1     		cbz	r3, .L56
 205:..\u8g2-master\csrc/u8log.c ****     {
 206:..\u8g2-master\csrc/u8log.c ****       u8log->cb(u8log);
 512              		.loc 1 206 0
 513 0018 2046     		mov	r0, r4
 514 001a 9847     		blx	r3
 515              	.LVL46:
 516              	.L56:
 207:..\u8g2-master\csrc/u8log.c ****     }
 208:..\u8g2-master\csrc/u8log.c ****     u8log->is_redraw_line = 0;
 517              		.loc 1 208 0
 518 001c 0023     		movs	r3, #0
 519 001e 6375     		strb	r3, [r4, #21]
 209:..\u8g2-master\csrc/u8log.c ****     u8log->is_redraw_all = 0;
 520              		.loc 1 209 0
 521 0020 A375     		strb	r3, [r4, #22]
 522              	.L54:
ARM GAS  C:\Users\info\AppData\Local\Temp\ccgwKbDi.s 			page 15


 523 0022 10BD     		pop	{r4, pc}
 524              		.cfi_endproc
 525              	.LFE9:
 526              		.size	u8log_WriteChar, .-u8log_WriteChar
 527              		.section	.text.u8log_WriteHexHalfByte,"ax",%progbits
 528              		.align	2
 529              		.thumb
 530              		.thumb_func
 531              		.type	u8log_WriteHexHalfByte, %function
 532              	u8log_WriteHexHalfByte:
 533              	.LFB11:
 210:..\u8g2-master\csrc/u8log.c ****   }
 211:..\u8g2-master\csrc/u8log.c **** }
 212:..\u8g2-master\csrc/u8log.c **** 
 213:..\u8g2-master\csrc/u8log.c **** void u8log_WriteString(u8log_t *u8log, const char *s)
 214:..\u8g2-master\csrc/u8log.c **** {
 215:..\u8g2-master\csrc/u8log.c ****   while( *s != '\0' )
 216:..\u8g2-master\csrc/u8log.c ****   {
 217:..\u8g2-master\csrc/u8log.c ****     u8log_WriteChar(u8log, *s);
 218:..\u8g2-master\csrc/u8log.c ****     s++;
 219:..\u8g2-master\csrc/u8log.c ****   }
 220:..\u8g2-master\csrc/u8log.c **** }
 221:..\u8g2-master\csrc/u8log.c **** 
 222:..\u8g2-master\csrc/u8log.c **** static void u8log_WriteHexHalfByte(u8log_t *u8log, uint8_t b) U8X8_NOINLINE;
 223:..\u8g2-master\csrc/u8log.c **** static void u8log_WriteHexHalfByte(u8log_t *u8log, uint8_t b)
 224:..\u8g2-master\csrc/u8log.c **** {
 534              		.loc 1 224 0
 535              		.cfi_startproc
 536              		@ args = 0, pretend = 0, frame = 0
 537              		@ frame_needed = 0, uses_anonymous_args = 0
 538              		@ link register save eliminated.
 539              	.LVL47:
 225:..\u8g2-master\csrc/u8log.c ****   b &= 0x0f;
 540              		.loc 1 225 0
 541 0000 01F00F01 		and	r1, r1, #15
 542              	.LVL48:
 226:..\u8g2-master\csrc/u8log.c ****   if ( b < 10 )
 543              		.loc 1 226 0
 544 0004 0929     		cmp	r1, #9
 545 0006 02D9     		bls	.L66
 227:..\u8g2-master\csrc/u8log.c ****     u8log_WriteChar(u8log, b+'0');
 228:..\u8g2-master\csrc/u8log.c ****   else
 229:..\u8g2-master\csrc/u8log.c ****     u8log_WriteChar(u8log, b+'a'-10);
 546              		.loc 1 229 0
 547 0008 5731     		adds	r1, r1, #87
 548              	.LVL49:
 549 000a FFF7FEBF 		b	u8log_WriteChar
 550              	.LVL50:
 551              	.L66:
 227:..\u8g2-master\csrc/u8log.c ****     u8log_WriteChar(u8log, b+'0');
 552              		.loc 1 227 0
 553 000e 3031     		adds	r1, r1, #48
 554              	.LVL51:
 555 0010 FFF7FEBF 		b	u8log_WriteChar
 556              	.LVL52:
 557              		.cfi_endproc
 558              	.LFE11:
ARM GAS  C:\Users\info\AppData\Local\Temp\ccgwKbDi.s 			page 16


 559              		.size	u8log_WriteHexHalfByte, .-u8log_WriteHexHalfByte
 560              		.section	.text.u8log_WriteString,"ax",%progbits
 561              		.align	2
 562              		.global	u8log_WriteString
 563              		.thumb
 564              		.thumb_func
 565              		.type	u8log_WriteString, %function
 566              	u8log_WriteString:
 567              	.LFB10:
 214:..\u8g2-master\csrc/u8log.c ****   while( *s != '\0' )
 568              		.loc 1 214 0
 569              		.cfi_startproc
 570              		@ args = 0, pretend = 0, frame = 0
 571              		@ frame_needed = 0, uses_anonymous_args = 0
 572              	.LVL53:
 573 0000 38B5     		push	{r3, r4, r5, lr}
 574              		.cfi_def_cfa_offset 16
 575              		.cfi_offset 3, -16
 576              		.cfi_offset 4, -12
 577              		.cfi_offset 5, -8
 578              		.cfi_offset 14, -4
 214:..\u8g2-master\csrc/u8log.c ****   while( *s != '\0' )
 579              		.loc 1 214 0
 580 0002 0C46     		mov	r4, r1
 215:..\u8g2-master\csrc/u8log.c ****   {
 581              		.loc 1 215 0
 582 0004 0978     		ldrb	r1, [r1]	@ zero_extendqisi2
 583              	.LVL54:
 584 0006 39B1     		cbz	r1, .L67
 585 0008 0546     		mov	r5, r0
 586              	.LVL55:
 587              	.L69:
 217:..\u8g2-master\csrc/u8log.c ****     s++;
 588              		.loc 1 217 0
 589 000a 2846     		mov	r0, r5
 590 000c FFF7FEFF 		bl	u8log_WriteChar
 591              	.LVL56:
 215:..\u8g2-master\csrc/u8log.c ****   {
 592              		.loc 1 215 0
 593 0010 14F8011F 		ldrb	r1, [r4, #1]!	@ zero_extendqisi2
 594              	.LVL57:
 595 0014 0029     		cmp	r1, #0
 596 0016 F8D1     		bne	.L69
 597              	.LVL58:
 598              	.L67:
 599 0018 38BD     		pop	{r3, r4, r5, pc}
 600              		.cfi_endproc
 601              	.LFE10:
 602              		.size	u8log_WriteString, .-u8log_WriteString
 603 001a 00BF     		.section	.text.u8log_WriteHex8,"ax",%progbits
 604              		.align	2
 605              		.global	u8log_WriteHex8
 606              		.thumb
 607              		.thumb_func
 608              		.type	u8log_WriteHex8, %function
 609              	u8log_WriteHex8:
 610              	.LFB12:
ARM GAS  C:\Users\info\AppData\Local\Temp\ccgwKbDi.s 			page 17


 230:..\u8g2-master\csrc/u8log.c **** }
 231:..\u8g2-master\csrc/u8log.c **** 
 232:..\u8g2-master\csrc/u8log.c **** void u8log_WriteHex8(u8log_t *u8log, uint8_t b)
 233:..\u8g2-master\csrc/u8log.c **** {
 611              		.loc 1 233 0
 612              		.cfi_startproc
 613              		@ args = 0, pretend = 0, frame = 0
 614              		@ frame_needed = 0, uses_anonymous_args = 0
 615              	.LVL59:
 616 0000 38B5     		push	{r3, r4, r5, lr}
 617              		.cfi_def_cfa_offset 16
 618              		.cfi_offset 3, -16
 619              		.cfi_offset 4, -12
 620              		.cfi_offset 5, -8
 621              		.cfi_offset 14, -4
 622              		.loc 1 233 0
 623 0002 0C46     		mov	r4, r1
 624 0004 0546     		mov	r5, r0
 234:..\u8g2-master\csrc/u8log.c ****   u8log_WriteHexHalfByte(u8log, b >> 4);
 625              		.loc 1 234 0
 626 0006 0909     		lsrs	r1, r1, #4
 627              	.LVL60:
 628 0008 FFF7FEFF 		bl	u8log_WriteHexHalfByte
 629              	.LVL61:
 235:..\u8g2-master\csrc/u8log.c ****   u8log_WriteHexHalfByte(u8log, b);
 630              		.loc 1 235 0
 631 000c 2146     		mov	r1, r4
 632 000e 2846     		mov	r0, r5
 236:..\u8g2-master\csrc/u8log.c **** }
 633              		.loc 1 236 0
 634 0010 BDE83840 		pop	{r3, r4, r5, lr}
 635              		.cfi_restore 14
 636              		.cfi_restore 5
 637              		.cfi_restore 4
 638              		.cfi_restore 3
 639              		.cfi_def_cfa_offset 0
 640              	.LVL62:
 235:..\u8g2-master\csrc/u8log.c ****   u8log_WriteHexHalfByte(u8log, b);
 641              		.loc 1 235 0
 642 0014 FFF7FEBF 		b	u8log_WriteHexHalfByte
 643              	.LVL63:
 644              		.cfi_endproc
 645              	.LFE12:
 646              		.size	u8log_WriteHex8, .-u8log_WriteHex8
 647              		.section	.text.u8log_WriteHex16,"ax",%progbits
 648              		.align	2
 649              		.global	u8log_WriteHex16
 650              		.thumb
 651              		.thumb_func
 652              		.type	u8log_WriteHex16, %function
 653              	u8log_WriteHex16:
 654              	.LFB13:
 237:..\u8g2-master\csrc/u8log.c **** 
 238:..\u8g2-master\csrc/u8log.c **** void u8log_WriteHex16(u8log_t *u8log, uint16_t v)
 239:..\u8g2-master\csrc/u8log.c **** {
 655              		.loc 1 239 0
 656              		.cfi_startproc
ARM GAS  C:\Users\info\AppData\Local\Temp\ccgwKbDi.s 			page 18


 657              		@ args = 0, pretend = 0, frame = 0
 658              		@ frame_needed = 0, uses_anonymous_args = 0
 659              	.LVL64:
 660 0000 38B5     		push	{r3, r4, r5, lr}
 661              		.cfi_def_cfa_offset 16
 662              		.cfi_offset 3, -16
 663              		.cfi_offset 4, -12
 664              		.cfi_offset 5, -8
 665              		.cfi_offset 14, -4
 666              		.loc 1 239 0
 667 0002 0C46     		mov	r4, r1
 668 0004 0546     		mov	r5, r0
 240:..\u8g2-master\csrc/u8log.c ****   u8log_WriteHex8(u8log, v>>8);
 669              		.loc 1 240 0
 670 0006 090A     		lsrs	r1, r1, #8
 671              	.LVL65:
 672 0008 FFF7FEFF 		bl	u8log_WriteHex8
 673              	.LVL66:
 241:..\u8g2-master\csrc/u8log.c ****   u8log_WriteHex8(u8log, v);
 674              		.loc 1 241 0
 675 000c E1B2     		uxtb	r1, r4
 676 000e 2846     		mov	r0, r5
 242:..\u8g2-master\csrc/u8log.c **** }
 677              		.loc 1 242 0
 678 0010 BDE83840 		pop	{r3, r4, r5, lr}
 679              		.cfi_restore 14
 680              		.cfi_restore 5
 681              		.cfi_restore 4
 682              		.cfi_restore 3
 683              		.cfi_def_cfa_offset 0
 684              	.LVL67:
 241:..\u8g2-master\csrc/u8log.c ****   u8log_WriteHex8(u8log, v);
 685              		.loc 1 241 0
 686 0014 FFF7FEBF 		b	u8log_WriteHex8
 687              	.LVL68:
 688              		.cfi_endproc
 689              	.LFE13:
 690              		.size	u8log_WriteHex16, .-u8log_WriteHex16
 691              		.section	.text.u8log_WriteHex32,"ax",%progbits
 692              		.align	2
 693              		.global	u8log_WriteHex32
 694              		.thumb
 695              		.thumb_func
 696              		.type	u8log_WriteHex32, %function
 697              	u8log_WriteHex32:
 698              	.LFB14:
 243:..\u8g2-master\csrc/u8log.c **** 
 244:..\u8g2-master\csrc/u8log.c **** void u8log_WriteHex32(u8log_t *u8log, uint32_t v)
 245:..\u8g2-master\csrc/u8log.c **** {
 699              		.loc 1 245 0
 700              		.cfi_startproc
 701              		@ args = 0, pretend = 0, frame = 0
 702              		@ frame_needed = 0, uses_anonymous_args = 0
 703              	.LVL69:
 704 0000 70B5     		push	{r4, r5, r6, lr}
 705              		.cfi_def_cfa_offset 16
 706              		.cfi_offset 4, -16
ARM GAS  C:\Users\info\AppData\Local\Temp\ccgwKbDi.s 			page 19


 707              		.cfi_offset 5, -12
 708              		.cfi_offset 6, -8
 709              		.cfi_offset 14, -4
 710              		.loc 1 245 0
 711 0002 0446     		mov	r4, r0
 712 0004 0D46     		mov	r5, r1
 246:..\u8g2-master\csrc/u8log.c ****   u8log_WriteHex16(u8log, v>>16);
 713              		.loc 1 246 0
 714 0006 0E0C     		lsrs	r6, r1, #16
 715              	.LVL70:
 716              	.LBB36:
 717              	.LBB37:
 240:..\u8g2-master\csrc/u8log.c ****   u8log_WriteHex8(u8log, v);
 718              		.loc 1 240 0
 719 0008 310A     		lsrs	r1, r6, #8
 720              	.LVL71:
 721 000a FFF7FEFF 		bl	u8log_WriteHex8
 722              	.LVL72:
 241:..\u8g2-master\csrc/u8log.c **** }
 723              		.loc 1 241 0
 724 000e F1B2     		uxtb	r1, r6
 725 0010 2046     		mov	r0, r4
 726 0012 FFF7FEFF 		bl	u8log_WriteHex8
 727              	.LVL73:
 728              	.LBE37:
 729              	.LBE36:
 730              	.LBB38:
 731              	.LBB39:
 240:..\u8g2-master\csrc/u8log.c ****   u8log_WriteHex8(u8log, v);
 732              		.loc 1 240 0
 733 0016 C5F30721 		ubfx	r1, r5, #8, #8
 734 001a 2046     		mov	r0, r4
 735 001c FFF7FEFF 		bl	u8log_WriteHex8
 736              	.LVL74:
 241:..\u8g2-master\csrc/u8log.c **** }
 737              		.loc 1 241 0
 738 0020 E9B2     		uxtb	r1, r5
 739 0022 2046     		mov	r0, r4
 740              	.LBE39:
 741              	.LBE38:
 247:..\u8g2-master\csrc/u8log.c ****   u8log_WriteHex16(u8log, v);
 248:..\u8g2-master\csrc/u8log.c **** }
 742              		.loc 1 248 0
 743 0024 BDE87040 		pop	{r4, r5, r6, lr}
 744              		.cfi_restore 14
 745              		.cfi_restore 6
 746              		.cfi_restore 5
 747              		.cfi_restore 4
 748              		.cfi_def_cfa_offset 0
 749              	.LVL75:
 750              	.LBB41:
 751              	.LBB40:
 241:..\u8g2-master\csrc/u8log.c **** }
 752              		.loc 1 241 0
 753 0028 FFF7FEBF 		b	u8log_WriteHex8
 754              	.LVL76:
 755              	.LBE40:
ARM GAS  C:\Users\info\AppData\Local\Temp\ccgwKbDi.s 			page 20


 756              	.LBE41:
 757              		.cfi_endproc
 758              	.LFE14:
 759              		.size	u8log_WriteHex32, .-u8log_WriteHex32
 760              		.section	.text.u8log_WriteDec8,"ax",%progbits
 761              		.align	2
 762              		.global	u8log_WriteDec8
 763              		.thumb
 764              		.thumb_func
 765              		.type	u8log_WriteDec8, %function
 766              	u8log_WriteDec8:
 767              	.LFB15:
 249:..\u8g2-master\csrc/u8log.c **** 
 250:..\u8g2-master\csrc/u8log.c **** /* v = value, d = number of digits (1..3) */
 251:..\u8g2-master\csrc/u8log.c **** void u8log_WriteDec8(u8log_t *u8log, uint8_t v, uint8_t d)
 252:..\u8g2-master\csrc/u8log.c **** {
 768              		.loc 1 252 0
 769              		.cfi_startproc
 770              		@ args = 0, pretend = 0, frame = 0
 771              		@ frame_needed = 0, uses_anonymous_args = 0
 772              	.LVL77:
 773 0000 0B46     		mov	r3, r1
 774 0002 10B5     		push	{r4, lr}
 775              		.cfi_def_cfa_offset 8
 776              		.cfi_offset 4, -8
 777              		.cfi_offset 14, -4
 253:..\u8g2-master\csrc/u8log.c ****   u8log_WriteString(u8log, u8x8_u8toa(v, d));
 778              		.loc 1 253 0
 779 0004 1146     		mov	r1, r2
 780              	.LVL78:
 252:..\u8g2-master\csrc/u8log.c ****   u8log_WriteString(u8log, u8x8_u8toa(v, d));
 781              		.loc 1 252 0
 782 0006 0446     		mov	r4, r0
 783              		.loc 1 253 0
 784 0008 1846     		mov	r0, r3
 785              	.LVL79:
 786 000a FFF7FEFF 		bl	u8x8_u8toa
 787              	.LVL80:
 788 000e 0146     		mov	r1, r0
 789 0010 2046     		mov	r0, r4
 254:..\u8g2-master\csrc/u8log.c **** }
 790              		.loc 1 254 0
 791 0012 BDE81040 		pop	{r4, lr}
 792              		.cfi_restore 14
 793              		.cfi_restore 4
 794              		.cfi_def_cfa_offset 0
 795              	.LVL81:
 253:..\u8g2-master\csrc/u8log.c ****   u8log_WriteString(u8log, u8x8_u8toa(v, d));
 796              		.loc 1 253 0
 797 0016 FFF7FEBF 		b	u8log_WriteString
 798              	.LVL82:
 799              		.cfi_endproc
 800              	.LFE15:
 801              		.size	u8log_WriteDec8, .-u8log_WriteDec8
 802 001a 00BF     		.section	.text.u8log_WriteDec16,"ax",%progbits
 803              		.align	2
 804              		.global	u8log_WriteDec16
ARM GAS  C:\Users\info\AppData\Local\Temp\ccgwKbDi.s 			page 21


 805              		.thumb
 806              		.thumb_func
 807              		.type	u8log_WriteDec16, %function
 808              	u8log_WriteDec16:
 809              	.LFB16:
 255:..\u8g2-master\csrc/u8log.c **** 
 256:..\u8g2-master\csrc/u8log.c **** /* v = value, d = number of digits (1..5) */
 257:..\u8g2-master\csrc/u8log.c **** void u8log_WriteDec16(u8log_t *u8log, uint16_t v, uint8_t d)
 258:..\u8g2-master\csrc/u8log.c **** {
 810              		.loc 1 258 0
 811              		.cfi_startproc
 812              		@ args = 0, pretend = 0, frame = 0
 813              		@ frame_needed = 0, uses_anonymous_args = 0
 814              	.LVL83:
 815 0000 0B46     		mov	r3, r1
 816 0002 10B5     		push	{r4, lr}
 817              		.cfi_def_cfa_offset 8
 818              		.cfi_offset 4, -8
 819              		.cfi_offset 14, -4
 259:..\u8g2-master\csrc/u8log.c ****   u8log_WriteString(u8log, u8x8_u16toa(v, d));
 820              		.loc 1 259 0
 821 0004 1146     		mov	r1, r2
 822              	.LVL84:
 258:..\u8g2-master\csrc/u8log.c ****   u8log_WriteString(u8log, u8x8_u16toa(v, d));
 823              		.loc 1 258 0
 824 0006 0446     		mov	r4, r0
 825              		.loc 1 259 0
 826 0008 1846     		mov	r0, r3
 827              	.LVL85:
 828 000a FFF7FEFF 		bl	u8x8_u16toa
 829              	.LVL86:
 830 000e 0146     		mov	r1, r0
 831 0010 2046     		mov	r0, r4
 260:..\u8g2-master\csrc/u8log.c **** }
 832              		.loc 1 260 0
 833 0012 BDE81040 		pop	{r4, lr}
 834              		.cfi_restore 14
 835              		.cfi_restore 4
 836              		.cfi_def_cfa_offset 0
 837              	.LVL87:
 259:..\u8g2-master\csrc/u8log.c ****   u8log_WriteString(u8log, u8x8_u16toa(v, d));
 838              		.loc 1 259 0
 839 0016 FFF7FEBF 		b	u8log_WriteString
 840              	.LVL88:
 841              		.cfi_endproc
 842              	.LFE16:
 843              		.size	u8log_WriteDec16, .-u8log_WriteDec16
 844 001a 00BF     		.text
 845              	.Letext0:
 846              		.file 2 "c:\\program files (x86)\\cypress\\psoc creator\\4.2\\psoc creator\\import\\gnu\\arm\\5.4.
 847              		.file 3 "c:\\program files (x86)\\cypress\\psoc creator\\4.2\\psoc creator\\import\\gnu\\arm\\5.4.
 848              		.file 4 "..\\u8g2-master\\csrc\\u8x8.h"
 849              		.file 5 "<built-in>"