ARM GAS  C:\Users\info\AppData\Local\Temp\ccD0teOG.s 			page 1


   1              		.syntax unified
   2              		.cpu cortex-m3
   3              		.fpu softvfp
   4              		.eabi_attribute 20, 1
   5              		.eabi_attribute 21, 1
   6              		.eabi_attribute 23, 3
   7              		.eabi_attribute 24, 1
   8              		.eabi_attribute 25, 1
   9              		.eabi_attribute 26, 1
  10              		.eabi_attribute 30, 4
  11              		.eabi_attribute 34, 1
  12              		.eabi_attribute 18, 4
  13              		.thumb
  14              		.syntax unified
  15              		.file	"u8log_u8x8.c"
  16              		.text
  17              	.Ltext0:
  18              		.section	.gnu.lto_.profile.bf14f9ce,"",%progbits
  19 0000 789C6361 		.ascii	"x\234ca`d`a`\000\222\341\006\000\001H\000\222"
  19      60646061 
  19      600092E1 
  19      06000148 
  19      0092
  20              		.text
  21              		.section	.gnu.lto_.icf.bf14f9ce,"",%progbits
  22 0000 789C6361 		.ascii	"x\234ca`d\000\001\021\006\004`fxyj\3062V\306\366m\363"
  22      60640001 
  22      11060460 
  22      6678796A 
  22      C63256C6 
  23 0017 0F31323D 		.ascii	"\01712=\271?\3751\007\003\000_\017\010\372"
  23      B93FFD31 
  23      0703005F 
  23      0F08FA
  24              		.text
  25              		.section	.gnu.lto_.jmpfuncs.bf14f9ce,"",%progbits
  26 0000 789C6361 		.ascii	"x\234ca`d\000\201N\006\004`f`e\004\001y\306z\306\372"
  26      60640081 
  26      4E060460 
  26      66606504 
  26      0179C67A 
  27 0016 7A0EA64A 		.ascii	"z\016\246J\2508S%\023\204\301\310\002\222\346g\004\312"
  27      A8385325 
  27      1384C1C8 
  27      0292E667 
  27      04CA
  28 0028 72416499 		.ascii	"rAd\231*\031\341\332\231*\231A$PE=\027H\361_&\306i\255"
  28      2A19E1DA 
  28      992A9941 
  28      2450453D 
  28      1748F15F 
  29 0040 87CEB37F 		.ascii	"\207\316\263\177aje\006\332\306\270\234Q\006\241\024"
  29      616A6506 
  29      DAC6B89C 
  29      5106A114 
  30 0050 643D0748 		.ascii	"d=\007H\025D\030JA\304\031\000\377\273\016\343"
  30      1544184A 
ARM GAS  C:\Users\info\AppData\Local\Temp\ccD0teOG.s 			page 2


  30      41C41900 
  30      FFBB0EE3 
  31              		.text
  32              		.section	.gnu.lto_.inline.bf14f9ce,"",%progbits
  33 0000 789C3D4E 		.ascii	"x\234=N\273n\302@\020\234Y\337\331\007(\306\242\240"
  33      BB6EC240 
  33      109C59DF 
  33      D90728C6 
  33      A2A0
  34 0012 4240C76F 		.ascii	"B@\307o\360\005\376\220\320\247v\303\243tII\007\035"
  34      F005FE90 
  34      D0A776C3 
  34      A3744949 
  34      071D
  35 0024 1450F001 		.ascii	"\024P\360\001\324|\001=\005tQ\004E\224\354\332\210\225"
  35      D47C013D 
  35      05745104 
  35      4594ECDA 
  35      8895
  36 0036 6E676677 		.ascii	"ngfwN;\016\204U\\CU\021\320y\020\214\202\016\245\363"
  36      4E3B0E84 
  36      555C4355 
  36      11D07910 
  36      8C820EA5 
  37 004b B36F21CC 		.ascii	"\263o!\314N\024\333\371\224p\227\244\314\355\021\351"
  37      4E14DBF9 
  37      947097A4 
  37      CCED11E9 
  38 005b 998434FE 		.ascii	"\231\2044\376\356\036\311\374\253r\304m\302_\022\333"
  38      EE1EC9FC 
  38      AB72C46D 
  38      C25F12DB 
  39 006b 9B4BD0CD 		.ascii	"\233K\320\315\030\020&\277\302\355\355\370\374\370\226"
  39      181026BF 
  39      C2EDEDF8 
  39      FCF896
  40 007a 69A49FB8 		.ascii	"i\244\237\270f/\332\021\341\363\315&\025\333\274g\312"
  40      662FDA11 
  40      E1F3CD26 
  40      15DBBC67 
  40      CA
  41 008b 86B4349A 		.ascii	"\206\2644\232\2432(ljX\261i\247V\003\001\257\311\270"
  41      A332286C 
  41      6A58B169 
  41      A7560301 
  41      AFC9B8
  42 009e EED60A8D 		.ascii	"\356\326\012\215\351\027\243B\017,\343B\202\252G_\021"
  42      E917A342 
  42      0F2CE342 
  42      82AA475F 
  42      11
  43 00af 3C48E132 		.ascii	"<H\3412\325/RG\205\022_\346\260\254e\356S88\225\252"
  43      D52F5247 
  43      85125FE6 
  43      B0AC65EE 
  43      53383895 
  44 00c4 F10F6A6E 		.ascii	"\361\017jn1\012"
ARM GAS  C:\Users\info\AppData\Local\Temp\ccD0teOG.s 			page 3


  44      310A
  45              		.text
  46              		.section	.gnu.lto_.pureconst.bf14f9ce,"",%progbits
  47 0000 789C6361 		.ascii	"x\234ca`d`g```f\260d\264d\222\004\000\002\243\000\236"
  47      60646067 
  47      60606066 
  47      B064B464 
  47      92040002 
  48              		.text
  49              		.section	.gnu.lto_u8x8_DrawLogLine.bf14f9ce,"",%progbits
  50 0000 789C8D54 		.ascii	"x\234\215T_H\236U\030?\277\363\274\177\276\377\272\015"
  50      5F489E55 
  50      183FBFF3 
  50      BC7FBEFF 
  50      BA0D
  51 0012 0DC24862 		.ascii	"\015\302Hb\"^\244\262 \274\030\021t\321}\327\015!\253"
  51      225EA4B2 
  51      20BC1811 
  51      74D17DD7 
  51      0D21AB
  52 0025 11148D86 		.ascii	"\021\024\215\206\340\350\302\243\357\367\345\250]\254"
  52      E0E8C2A3 
  52      EFF7E5A8 
  52      5DAC
  53 0033 7F46E2B2 		.ascii	"\177F\342\262\030\342\2546gss\237\325|\365B\301MG\340"
  53      18E2AC36 
  53      6773739F 
  53      D57CF542 
  53      C14D47E0 
  54 0047 C66206CD 		.ascii	"\306b\006\315m2\302\215}\322\012\202\315\236\347\234"
  54      6D32C28D 
  54      7DD20A82 
  54      CD9EE79C 
  55 0057 EF03D776 		.ascii	"\357\003\327v\321\201\3679\347y\316\357\367\234\347"
  55      D181F739 
  55      E779CEEF 
  55      F79CE7
  56 0066 1FAFA7A0 		.ascii	"\037\257\247\240d=\355+\365\022\357/\363\207@A\037^"
  56      643DED2B 
  56      F512EF2F 
  56      F3874041 
  56      1F5E
  57 0078 52AA27A1 		.ascii	"R\252'\241\341\271\003\271\303L\302\323th^)\223\362"
  57      E1B903B9 
  57      C34CC2D3 
  57      74685E29 
  57      93F2
  58 008a F3A13219 		.ascii	"\363\2412\031\037\020\273I@uk\362|tkO\271uO\337\327"
  58      1F10BB49 
  58      40756BF2 
  58      7C746B4F 
  58      B9754FDF 
  59 009f 98ED5B2B 		.ascii	"\230\355[+\352\246\021\303\353\367\302\345\2349\026"
  59      EAA611C3 
  59      EBF7C2E5 
  59      9C3916
  60 00ae A3404A6D 		.ascii	"\243@Jmj\207\301\010\232\030\365K\376\344 \375\251\013"
ARM GAS  C:\Users\info\AppData\Local\Temp\ccD0teOG.s 			page 4


  60      6A87C108 
  60      9A18F54B 
  60      FEE420FD 
  60      A90B
  61 00c0 0478AC96 		.ascii	"\004x\254\226\026\007\256\347D\325\250g\365\353\345"
  61      1607AEE7 
  61      44D5A867 
  61      F5EBE5
  62 00cf A32B013D 		.ascii	"\243+\001=\005\305\347\376\205\345;\331\306acz\2159"
  62      05C5E7FE 
  62      85E53BD9 
  62      C661637A 
  62      8D39
  63 00e1 F2864916 		.ascii	"\362\206I\026\210\360-\210\375a\024u8\206:\305&\205"
  63      88F02D88 
  63      FD611475 
  63      38863AC5 
  63      2685
  64 00f3 EFD0C8E8 		.ascii	"\357\320\310\350\301\221+\027\223\364\214e\216.\034"
  64      C1912B17 
  64      93F48C65 
  64      8E2E1C
  65 0102 5FD465E6 		.ascii	"_\324e\346\257{\014\025\310\303\367\216\371\\\035Z\205"
  65      AF7B0C15 
  65      C8C3F78E 
  65      F95C1D5A 
  65      85
  66 0113 E7291CB7 		.ascii	"\347)\034\267\274\337\326\357\304>5Y\336\364G\313c\025"
  66      BCDFD6EF 
  66      C43E3559 
  66      DEF447CB 
  66      6315
  67 0125 DE977369 		.ascii	"\336\227si\323*\304\023\217\020\307,q\245\370\351\200"
  67      D32AC413 
  67      8F10C72C 
  67      71A5F8E9 
  67      80
  68 0136 A6564BDC 		.ascii	"\246VK\334\270\026}\225\256<X!\236|\2048n\211fq\341"
  68      B8167D95 
  68      AE3C5821 
  68      9E7C8438 
  68      6E896671 
  69 014b 6A869EB7 		.ascii	"j\206\236\267\304\277\356\315L$*/\316g\314a.\231\217"
  69      C4BFEECD 
  69      4C242A2F 
  69      CE67CC61 
  69      2E998F
  70 015e 1FFE9BA5 		.ascii	"\037\376\233\245\257p\012\215BX\032\031\376,E\273-y"
  70      AF700A8D 
  70      42581A19 
  70      FE2C45BB 
  70      2D79
  71 0170 A87FEA4A 		.ascii	"\250\177\352J\262\341\250\220\343\311w\2760qO\275\274"
  71      B2E1A890 
  71      E3C977BE 
  71      30714FBD 
  71      BC
ARM GAS  C:\Users\info\AppData\Local\Temp\ccD0teOG.s 			page 5


  72 0181 3BB1F55D 		.ascii	";\261\365]Y\014\375\344\354\345\331$\275`i\227Js\245"
  72      590CFDE4 
  72      ECE5D924 
  72      BD606997 
  72      4A73A5
  73 0194 749936B1 		.ascii	"t\2316\261\307D/\012\351\314cH\253\343\017>\317\006"
  73      C7442F0A 
  73      E9CC6348 
  73      ABE30F3E 
  73      CF06
  74 01a6 7969683D 		.ascii	"yih=&\321\200\323hp\355\304Y\004<L\272b\035{%6\233\233"
  74      26D180D3 
  74      6870EDC4 
  74      59043C4C 
  74      BA621D7B 
  75 01be 91894FF9 		.ascii	"\221\211O\371\243\364\004lm\331\033\337z\220s\000\211"
  75      A3F4046C 
  75      6DD91BDF 
  75      7A907300 
  75      89
  76 01cf 3FE44C82 		.ascii	"?\344L\202\004\2130\011\251E\212\217\211\264\210\214"
  76      048B3009 
  76      A9458A8F 
  76      89B4888C 
  77 01df 88AC889C 		.ascii	"\210\254\210\234\210*\026\250\026\3406%\356\267C\232"
  77      882A16A8 
  77      16E03625 
  77      EEB7439A 
  78 01ef BC0352F9 		.ascii	"\274\003R\371\032\353\274\326:W\352.G\303\303Y\322\232"
  78      1AEBBCD6 
  78      3A57EA2E 
  78      47C3C359 
  78      D29A
  79 0201 375A456F 		.ascii	"7ZEo\\<`\203\343[\031\241\302\354\305P\246\313\343\230"
  79      5C3C6083 
  79      E35B19A1 
  79      C2ECC550 
  79      A6CBE398 
  80 0215 8A90CC4A 		.ascii	"\212\220\314J\232\024O5\255\241w\352\343\026\301F\224"
  80      9A144F35 
  80      ADA177EA 
  80      E316C146 
  80      94
  81 0226 D80AF56D 		.ascii	"\330\012\365m\221\376\236_8\230\031\302\021\356G2\242"
  81      91FE9E5F 
  81      389819C2 
  81      11EE4732 
  81      A2
  82 0237 00534266 		.ascii	"\000SBf\373\360\215\336\023a\313\263\034\032~\304\020"
  82      FBF08DDE 
  82      1361CBB3 
  82      1C1A7EC4 
  82      10
  83 0248 1ED8E1C6 		.ascii	"\036\330\341\306OhQ\354p\243\357\206\347<\246\"JZK\350"
  83      4F6851EC 
  83      70A3EF86 
  83      E73CA622 
ARM GAS  C:\Users\info\AppData\Local\Temp\ccD0teOG.s 			page 6


  83      4A5A4BE8 
  84 025c F4744421 		.ascii	"\364tD!\353\321@\340\364\214\205\244\035i\245l\314F"
  84      EBD140E0 
  84      F48C85A4 
  84      1D69A56C 
  84      CC46
  85 026e A405D45F 		.ascii	"\244\005\324_\326s\026\227u\240ur\306*\266\013h\260"
  85      D6731697 
  85      75A07572 
  85      C62AB60B 
  85      68B0
  86 0280 0CAAE6F0 		.ascii	"\014\252\346\360\331*\240\177>\334\355l\333\266\346"
  86      D92AA07F 
  86      3EDCED6C 
  86      DBB6E6
  87 028f 133E944F 		.ascii	"\023>\224O\217t\363}\031G\246\342g\311\012\3478\021"
  87      8F74F37D 
  87      1947A6E2 
  87      67C90AE7 
  87      3811
  88 02a1 C5B53355 		.ascii	"\305\2653U\266t\\pv\241n\241/\236\256\021\213\360\213"
  88      B6745C70 
  88      76A16EA1 
  88      2F9EAE11 
  88      8BF08B
  89 02b4 C5F5AB61 		.ascii	"\305\365\253a\367}s\320\230\352\002\24565\267\037\323"
  89      F77D73D0 
  89      98EA02A5 
  89      3635B71F 
  89      D3
  90 02c5 E856116D 		.ascii	"\350V\021m\217\010\021\355`N\301f\024\365\1770w\246"
  90      8F0811ED 
  90      604EC166 
  90      14F57F30 
  90      77A6
  91 02d7 1C6D0DDF 		.ascii	"\034m\015\3371\373t\337\205\361\224\353\003\020\363"
  91      31FB74DF 
  91      85F194EB 
  91      0310F3
  92 02e6 A3ABD0F6 		.ascii	"\243\253\320\366-n%\203\034i\355f\332\221j\271\016\017"
  92      2D6E2583 
  92      1C69ED66 
  92      DA916AB9 
  92      0E0F
  93 02f8 A12625A2 		.ascii	"\241&%\242Z\333<O\361?H\032]\255\234Y+\247XO\2202L}"
  93      5ADB3C4F 
  93      F13F481A 
  93      5DAD9C59 
  93      2BA7584F 
  94 0310 B3D3F909 		.ascii	"\263\323\371\011\377O\037=\314\330>\312\277\021\263"
  94      FF4F1F3D 
  94      CCD83ECA 
  94      BF11B3
  95 031f DCC76BC8 		.ascii	"\334\307k\310/E9\347AK\333xm\2003\3644\213\032:t;\330"
  95      2F4539E7 
  95      414BDB78 
  95      6D8033F4 
ARM GAS  C:\Users\info\AppData\Local\Temp\ccD0teOG.s 			page 7


  95      348B1A3A 
  96 0336 E0B8789A 		.ascii	"\340\270x\232\364\205\363!\307E\267\322\034\230/\003"
  96      F485F321 
  96      C745B7D2 
  96      1C982F03 
  97 0346 F8070FE0 		.ascii	"\370\007\017\340%\337\326L\326]\366\232\017yD\236ln"
  97      25DFD64C 
  97      D65DF69A 
  97      0F79449E 
  97      6C6E
  98 0358 7EB5B36D 		.ascii	"~\265\263m\357\256\366\216\375\357u\360\351\355w\367"
  98      EFAEF68E 
  98      FDEF75F0 
  98      E9ED77F7 
  99 0368 B677B675 		.ascii	"\266w\266u\2655w(O\366\340\365\267\366\357k\357r\333"
  99      B5357728 
  99      4FF6E0F5 
  99      B7F6EF6B 
  99      EF72DB
 100 037b 01FFB5CE 		.ascii	"\001\377\265\3167YZ\030:\254\326\365/A\023\233\356"
 100      37595A18 
 100      3AACD6F5 
 100      2F41139B 
 100      EE
 101              		.text
 102              		.section	.gnu.lto_u8x8_DrawLog.bf14f9ce,"",%progbits
 103 0000 789C6552 		.ascii	"x\234eR[KUA\024\236o\326\276\3519\206\317a \241\211"
 103      5B4B5541 
 103      149E6FD6 
 103      BEE93986 
 103      CF6120A1 
 104 0015 50DAE5C5 		.ascii	"P\332\345\305\177\320{\317\205\220\225/EP\010\372t\306"
 104      7FD07BCF 
 104      8590952F 
 104      455008FA 
 104      74C6
 105 0027 B3CF4E8B 		.ascii	"\263\317N\213\036\214\312B\013+\021M\315Kjy\244\207"
 105      1E8CCA42 
 105      0B2B114D 
 105      CD4B6A79 
 105      A487
 106 0039 A30F0A96 		.ascii	"\243\017\012\226J AiV\026\022\021\341\221\274\004\352"
 106      4A204169 
 106      56161211 
 106      E191BC04 
 106      EA
 107 004a 69CD6C03 		.ascii	"i\315l\003\253\201\275g\315\232\365}\353[k\215% \364"
 107      AB81BD67 
 107      CD9AF57D 
 107      EB5B6B8D 
 107      2520F4
 108 005d 3A4B421C 		.ascii	":KB\034\341\3758\177p\004d\303\264\020\265\236\204\025"
 108      E1FD387F 
 108      700464C3 
 108      B410B59E 
 108      8415
 109 006f 1A141AA3 		.ascii	"\032\024\032\243\236%\351\372\204\020*\333N\270BEm@"
ARM GAS  C:\Users\info\AppData\Local\Temp\ccD0teOG.s 			page 8


 109      9E25E9FA 
 109      84102ADB 
 109      4EB84245 
 109      6D40
 110 0081 FB950711 		.ascii	"\373\225\007\021\223d\331\210IK\204kUnI\214\325-%eq"
 110      9364D988 
 110      494B846B 
 110      556E498C 
 110      D52D2565 
 111 0096 BBE2F531 		.ascii	"\273\342\3651h&\325\221B\300\25122\214A;\2129\352u\242"
 111      6826D591 
 111      42C0A932 
 111      328C413B 
 111      8A39EA75 
 112 00ab EF1EFD94 		.ascii	"\357\036\375\224\001\001\026\037\323SM\237\367\350\243"
 112      0101161F 
 112      D3534D9F 
 112      F7E8A3
 113 00ba 443E1F1F 		.ascii	"D>\037\037\314\266\316;\264\017\202\355\306\311\331"
 113      CCB6CE3B 
 113      B40F82ED 
 113      C6C9D9
 114 00c9 1F39456D 		.ascii	"\0379EmJ\305\225Z?\243\262\002\"t\202\230\017\217\221"
 114      4AC5955A 
 114      3FA3B202 
 114      22748298 
 114      0F8F91
 115 00dc 870EE409 		.ascii	"\207\016\344\011v\011t\241\210\243\233F\352\342\331"
 115      760974A1 
 115      88A39B46 
 115      EAE2D9
 116 00eb B4DF206F 		.ascii	"\264\337 oum4{;\310\201S\212\002\262\320\035\"\217\345"
 116      756D347B 
 116      3BC88153 
 116      8A02B2D0 
 116      1D228FE5 
 117 00ff E1B0C659 		.ascii	"\341\260\306Y\002O\014\356\305\265\227\233\036\025\030"
 117      024F0CEE 
 117      C5B5979B 
 117      1E1518
 118 010e DCD577E3 		.ascii	"\334\325w\343\313\316\016\356\355\016\256\347?\\\257"
 118      CBCE0EEE 
 118      ED0EAEE7 
 118      3F5CAF
 119 011d C1A9A9C9 		.ascii	"\301\251\251\311\271(\0350\270\265\325\321\301?\371"
 119      B9281D30 
 119      B8B5D5D1 
 119      C13FF9
 120 012c 6E8C4755 		.ascii	"n\214GU\003\027n\243\357_\255\266@?\2124`>y\263I\322"
 120      03176EA3 
 120      EF5FADB6 
 120      403F8A34 
 120      603E79B3 
 121 0142 41035E78 		.ascii	"A\003^x4\330i\027\266jp\352\375\205;*U\233\257\363>"
 121      34D86917 
 121      B66A70EA 
 121      FD853B2A 
ARM GAS  C:\Users\info\AppData\Local\Temp\ccD0teOG.s 			page 9


 121      559BAFF3 
 122 0157 DD9D572F 		.ascii	"\335\235W/\016]\354\337\276\235\343$t\207\3631\200\302"
 122      0E5DECDF 
 122      BE9DE324 
 122      7487F331 
 122      80C2
 123 0169 B0B71884 		.ascii	"\260\267\030\204\303\223\205\366\364\236H\251L\306W"
 123      C39385F6 
 123      F49E48A9 
 123      4CC657
 124 0178 A9393B4D 		.ascii	"\2519;M90b\231\205o,h\333\201\226\340\262\030\307\203"
 124      39306299 
 124      856F2C68 
 124      DB8196E0 
 124      B218C783 
 125 018c EE5C1674 		.ascii	"\356\\\026t\037\"&0j\002\205XfV\236xZJ\336h\021\361"
 125      1F222630 
 125      6A028558 
 125      66569E78 
 125      5A4ADE68 
 126 01a2 D4871A93 		.ascii	"\324\207\032\223\204o\365\\\202\261\031W\217\314b\376"
 126      846FF55C 
 126      82B11957 
 126      8FCC62FE 
 127 01b2 21687569 		.ascii	"!huiI\202\237\012}\305]5\274 u\260\326\233L~\237sc["
 127      49829F0A 
 127      7DC55D35 
 127      BC2075B0 
 127      D69B4C7E 
 128 01ca AA5EA9DC 		.ascii	"\252^\251\334\200\334\214\3242\237!&|\362|\312\362\011"
 128      80DC8CD4 
 128      329F2126 
 128      7CF27CCA 
 128      F209
 129 01dc 3E499F9C 		.ascii	">I\237\234\200<\261\004\277\361\312\233J\015\365)\302"
 129      803CB104 
 129      BFF1CA9B 
 129      4A0DF529 
 129      C2
 130 01ed 578C1FAA 		.ascii	"W\214\037\252{\325\237\035f\002\236s\246E\030n-\226"
 130      7BD59F1D 
 130      66029E73 
 130      A645186E 
 130      2D96
 131 01ff 8342CCF6 		.ascii	"\203B\314\366Z$\004E\231\354\257(\226\313^#\317\022"
 131      5A240445 
 131      99ECAF28 
 131      96CB5E23 
 131      CF12
 132 0211 FC747529 		.ascii	"\374tu)\271\"tK\021\036\014\023\230)>\362\260 \344q"
 132      B922744B 
 132      111E0C13 
 132      98293EF2 
 132      B020E471 
 133 0225 77D7689B 		.ascii	"w\327h\233\031\255OL\326G[p\237\347\312\252\035\014"
 133      19AD4F4C 
 133      D6475B70 
ARM GAS  C:\Users\info\AppData\Local\Temp\ccD0teOG.s 			page 10


 133      9FE7CAAA 
 133      1D0C
 134 0237 EBAAD9DF 		.ascii	"\353\252\331\337\366%\336\343\226\036\322\002\223h\301"
 134      F625DEE3 
 134      961ED202 
 134      9368C1
 135 0246 B679EA18 		.ascii	"\266y\352\030A\251\370\204\304\264\277'$\344\022]}\261"
 135      41A9F884 
 135      C4B4BF27 
 135      24E4125D 
 135      7DB1
 136 0258 02AED792 		.ascii	"\002\256\327\222\374\213P\367\014VX&\267OnN\271,\223"
 136      FC8B50F7 
 136      0C565826 
 136      B74F6E4E 
 136      B92C93
 137 026b 3622ACD3 		.ascii	"6\"\254\323\326\035\377\306\035\377e\233&\352\265\314"
 137      D61DFFC6 
 137      1DFF659B 
 137      26EAB5CC 
 138 027b 6D4BB84C 		.ascii	"mK\270L\275\267\244\344dUY\345\321\362\212\313\227*"
 138      BDB7A4E4 
 138      645559E5 
 138      D1F28ACB 
 138      972A
 139 028d D83A7FB1 		.ascii	"\330:\177\261\262\274\252\254\272\254\244BXzG5jl\343"
 139      B2BCAAAC 
 139      BAACA442 
 139      587A4735 
 139      6A6CE3
 140 02a0 B64F579D 		.ascii	"\266OW\235+\257\371\0156|\031\314"
 140      2BAFF90D 
 140      367C19CC 
 141              		.text
 142              		.section	.gnu.lto_u8log_u8x8_cb.bf14f9ce,"",%progbits
 143 0000 789C8D52 		.ascii	"x\234\215RKH\225A\024\236o\316\377R\257\341R\304B\010"
 143      4B489541 
 143      149E6FCE 
 143      FF52AFE1 
 143      52C44208 
 144 0014 111729B4 		.ascii	"\021\027)\264\311\215\333v-\252m\340\302\300M\024\024"
 144      C98DDB76 
 144      2DAA6DE0 
 144      C2C04D14 
 144      14
 145 0025 42BB3B5E 		.ascii	"B\273;^\357\217\256\242\020\023\243\260\020\321\036"
 145      EF8FAEA2 
 145      1013A3B0 
 145      10D11E
 146 0034 3E6EA975 		.ascii	">n\251u\215\340WJA\262\020\242\215\005\245u\221p\341"
 146      8DE0574A 
 146      41B210A2 
 146      8D05A575 
 146      9170E1
 147 0047 252D5CE8 		.ascii	"%-\\\350\355\234\371\225\314Z4\374\217\2313\347|\217"
 147      ED9CF995 
 147      CC5A34FC 
ARM GAS  C:\Users\info\AppData\Local\Temp\ccD0teOG.s 			page 11


 147      8F9933E7 
 147      7C8F
 148 0059 33E32828 		.ascii	"3\343((\031gI\251\032\376\237\342\027\276\202\276\376"
 148      196749A9 
 148      1AFE9FE2 
 148      17BE82BE 
 148      FE
 149 006a 46A9B640 		.ascii	"F\251\266@k\352)S\246\330\331jT&A\360\342\260\243\335"
 149      6BEA2953 
 149      A6D8D96A 
 149      542641F0 
 149      E2B0A3DD 
 150 007e A9231CF6 		.ascii	"\251#\034\366\336\327s\330\335\013{\200LL\000\225\324"
 150      DED773D8 
 150      DD0B7B80 
 150      4C4C0095 
 150      D4
 151 008f E4B81E92 		.ascii	"\344\270\036\222\330\324\333\0323\035\271\254\256\035"
 151      D8D4DB1A 
 151      331DB9AC 
 151      AE1D
 152 009d 343C3E7D 		.ascii	"4<>}\355#3\024!d\302\202\266\334\012\203\250\345\254"
 152      ED233314 
 152      2164C282 
 152      B6DC0A83 
 152      A8E5AC
 153 00b0 C5F4D86D 		.ascii	"\305\364\330m\332\320!\001\016/\363\013\267V\016\311"
 153      DAD02101 
 153      0E2FF30B 
 153      B7560EC9 
 154 00c0 52A38A97 		.ascii	"R\243\212\227fa~)A\207\241x\376csz<\250\0310&e\314\366"
 154      66617E29 
 154      4187A178 
 154      FE63737A 
 154      3CA81930 
 155 00d8 79531412 		.ascii	"yS\024\022\341\001\210\361p\037\225\030B\245\342\220"
 155      E10188F1 
 155      701F9518 
 155      42A5E290 
 156 00e8 C243D448 		.ascii	"\302C\324H\372\335w\375\037<:jK\277_\313\265T\367Ke"
 156      FADD77FD 
 156      1F3C3A6A 
 156      4BBF5FCB 
 156      B554F74B 
 157 00fd D4355BDA 		.ascii	"\3245[\332k\242tUH\016\036\375Y-\203\223\2273;\335\245"
 157      6BA27455 
 157      480E1EFD 
 157      592D8393 
 157      97333BDD 
 158 0112 5E5A7457 		.ascii	"^ZtWa\030\325\261b\214\300\343\256A\"\243g\"S(\264\233"
 158      6118D5B1 
 158      628CC0E3 
 158      AE4122A3 
 158      67225328 
 159 0128 E886373D 		.ascii	"\350\2067=\356\025\263t\346t\224l\271\254\301\365\345"
 159      EE15B374 
 159      E674946C 
ARM GAS  C:\Users\info\AppData\Local\Temp\ccD0teOG.s 			page 12


 159      B9ACC1F5 
 159      E5
 160 0139 13C847A9 		.ascii	"\023\310G\251u.\226\376\344\265\226?\345\220\232\312"
 160      752E96FE 
 160      E4B5963F 
 160      E5909ACA 
 161 0149 BFCC90E0 		.ascii	"\277\314\220\340\265\223X\276\031\316\274\365\3052Y"
 161      B59358BE 
 161      19CEBCF5 
 161      C53259
 162 0158 AD3FE7E6 		.ascii	"\255?\347\346;\023}\270\323&\002\272\301(\234G\030\025"
 162      3B137DB8 
 162      D32602BA 
 162      C1289C47 
 162      1815
 163 016a 81BCFDF1 		.ascii	"\201\274\375\361\305\312$\325\037\013\311\307\030\372"
 163      C5CA24D5 
 163      1F0BC9C7 
 163      18FA
 164 0178 B063BB89 		.ascii	"\260c\273\211\014\352\3252R\346\204\225\311:\030Z\011"
 164      0CEAD532 
 164      52E68495 
 164      C93A185A 
 164      09
 165 0189 55E6D5E2 		.ascii	"U\346\325\342.\225\273\017\033\007@\007\276\244F|\001"
 165      2E95BB0F 
 165      1B074007 
 165      BEA4467C 
 165      01
 166 019a 0DF0D882 		.ascii	"\015\360\330\202\312\375\300\023\006\375\214\364R{\305"
 166      CAFDC013 
 166      06FD8CF4 
 166      527BC5
 167 01a9 6F84D1B5 		.ascii	"o\204\321\265\354V\251\210u\2410\276\333\264\274&\325"
 167      EC56A988 
 167      75A130BE 
 167      DBB4BC26 
 167      D5
 168 01ba 5346ABE8 		.ascii	"SF\253\350\210zg\265$\013h6\273\266\344'\267M\2471e"
 168      887A67B5 
 168      240B6836 
 168      BBB6E427 
 168      B74DA731 
 169 01cf 21151504 		.ascii	"!\025\025\004\024\023H\252\003\266\371\342`\222\217"
 169      141348AA 
 169      03B6F9E2 
 169      60928F
 170 01de 805FD614 		.ascii	"\200_\326\024R\261Et\324V\243mVf\356\236\033\363\373"
 170      52B14574 
 170      D456A36D 
 170      5666EE9E 
 170      1BF3FB
 171 01f1 FFE7E0A9 		.ascii	"\377\347\340\251u`\317\354\331\236\203\213\273\010\373"
 171      7560CFEC 
 171      D99E838B 
 171      BB08FB
 172 0200 24BBAAAB 		.ascii	"$\273\252\253<&x}:\336\015\016v?\377W\367c\232a\331"
ARM GAS  C:\Users\info\AppData\Local\Temp\ccD0teOG.s 			page 13


 172      3C26787D 
 172      3ADE0D0E 
 172      763FFF57 
 172      F7639A61 
 173 0215 34254296 		.ascii	"4%B\226\265d$dSL\266\212\362\177\333/)\210\"<\217\355"
 173      B5642464 
 173      534CB68A 
 173      F27FDB2F 
 173      2988223C 
 174 022b C75E03FB 		.ascii	"\307^\003\373\260\343\204\025\344\331\373\361\015\251"
 174      B0E38415 
 174      E4D9FBF1 
 174      0DA9
 175 0239 68E2A405 		.ascii	"h\342\244\005\221\261\316]\3430\327V\324\325\235kmh"
 175      91B1CE5D 
 175      E330D756 
 175      D4D59D6B 
 175      6D68
 176 024b 39DED47C 		.ascii	"9\336\324|\345r3\317.\\jijm\270\332P\327\254\\\273r"
 176      E57233CF 
 176      2E5C6A69 
 176      6A6DB8DA 
 176      50D7AC5C 
 177 0261 64F50BA5 		.ascii	"d\365\013\245\021!h"
 177      112168
 178              		.text
 179              		.section	.gnu.lto_.symbol_nodes.bf14f9ce,"",%progbits
 180 0000 789C55C8 		.ascii	"x\234U\3101\016@P\020E\321;3\354BAma\226\361\247\260"
 180      310E4050 
 180      1045D13B 
 180      33EC4241 
 180      6D6196F1 
 181 0016 005B6017 		.ascii	"\000[`\027$\032\005\235\255\350T\204O\242\360n\361\222"
 181      241A059D 
 181      ADE85484 
 181      4FA2F06E 
 181      F192
 182 0028 932054C4 		.ascii	"\223 T\304)\001\232\225\347zo\335\"I\220\217\006/\""
 182      29019A95 
 182      E77A6FDD 
 182      2249908F 
 182      062F22
 183 003b 68D01F88 		.ascii	"h\320\037\210\005{\001\334s\260X\275\\cj\002\323\261"
 183      057B01DC 
 183      73B058BD 
 183      5C636A02 
 183      D3B1
 184 004d 95A64277 		.ascii	"\225\246Bwf\246\320\315{\302\015\370\331\031\272"
 184      66A6D0CD 
 184      7BC20DF8 
 184      D919BA
 185              		.text
 186              		.section	.gnu.lto_.refs.bf14f9ce,"",%progbits
 187 0000 789C6361 		.ascii	"x\234ca`\004B \000\000\0009\000\007"
 187      60044220 
 187      00000039 
 187      0007
ARM GAS  C:\Users\info\AppData\Local\Temp\ccD0teOG.s 			page 14


 188              		.text
 189              		.section	.gnu.lto_.decls.bf14f9ce,"",%progbits
 190 0000 789CBD59 		.ascii	"x\234\275YkPT\311\025\236\276=\30003\300.\262\253\265"
 190      6B5054C9 
 190      159EBE3D 
 190      C03033C0 
 190      2EB2ABB5 
 191 0014 4525D6C6 		.ascii	"E%\326\306\332%UYW\327\315\226\225_Im*I\245R\251\375"
 191      DA255559 
 191      57D7CD96 
 191      955F496D 
 191      2A49A552 
 192 002a 632A3FA8 		.ascii	"c*?\250\272\031\206A'\031f&\363\330\225\375\263\227"
 192      BA198641 
 192      27196626 
 192      F3D895FD 
 192      B397
 193 003c 87A8F840 		.ascii	"\207\250\370@\\e\005Q\\_\200\340\212\200ODf} \212\""
 193      5C650551 
 193      5C5F80E0 
 193      8A804F44 
 193      667D208A 
 194 0051 F292A722 		.ascii	"\362\222\247\"\276@AQP\004Tr\272\373\316\334\036\274"
 194      BE404151 
 194      50045472 
 194      BAFBCEDC 
 194      1EBC
 195 0063 D4FE4932 		.ascii	"\324\376I2\305\231\351\323\375\365y\365\351>}/Z\015"
 195      C599E9D3 
 195      FDF579F5 
 195      E93E7D2F 
 195      5A0D
 196 0075 D2904F7A 		.ascii	"\322\220Oz\254F\363y\210F\363\017`\247\341\243\205\276"
 196      AC46F379 
 196      8846F30F 
 196      60A7E1A3 
 196      85BE
 197 0087 BF010940 		.ascii	"\277\001\011@\207\200b5\354C\372S\000#\001\245\001\255"
 197      87806235 
 197      EC43FA53 
 197      002301A5 
 197      01AD
 198 0099 459A373E 		.ascii	"E\2327>d\334(\317\217\006\212\001Z\206\230\234^Y\326"
 198      64DC28CF 
 198      8F068A01 
 198      5A86989C 
 198      5E59D6
 199 00ac 15A02F80 		.ascii	"\025\240/\200n\000e\301\330\032\304t\015\000\015\311"
 199      6E0065C1 
 199      D81AC474 
 199      0D000DC9 
 200 00bc 7A536691 		.ascii	"zSf\221Ot\353\177B\376:\340W\"&\237\210x(\313$sSTd\022"
 200      4F74EB7F 
 200      42FE3AE0 
 200      5722269F 
 200      887828CB 
 201 00d6 5F2266C8 		.ascii	"_\"f\310\354\225\345\306\312v.\223c\261\036\372\276"
ARM GAS  C:\Users\info\AppData\Local\Temp\ccD0teOG.s 			page 15


 201      EC95E5C6 
 201      CA762E93 
 201      63B11EFA 
 201      BE
 202 00e7 418A0E12 		.ascii	"A\212\016\022\223a\240[@\375@\267\201\260,s6}\257\004"
 202      9361A05B 
 202      40FD40B7 
 202      81B02C73 
 202      367DAF04 
 203 00fb 7468D59D 		.ascii	"th\325\235\022\335\230\200b\365h\032\021~\350\304D\004"
 203      12DD9880 
 203      62F5681A 
 203      117EE8C4 
 203      4404
 204 010d E3C9F0CD 		.ascii	"\343\311\360\315\211\342?,,\223\340\263I\222\004A\231"
 204      89E23F2C 
 204      2C93E0B3 
 204      49920441 
 204      99
 205 011e 57E51B3D 		.ascii	"W\345\033=\250\305\006\002\022\256Uv\236\017Gq\372\375"
 205      A8C50602 
 205      12AE5576 
 205      9E0F4771 
 205      FAFD
 206 0130 04D7D73D 		.ascii	"\004\327\327=\366\273tIB\250\014\351\321\001\204Q\011"
 206      F6BB7449 
 206      42A80CE9 
 206      D1018451 
 206      09
 207 0141 5A48DC8F 		.ascii	"ZH\334\217%\301Z#Ii\322\310n)t\236\006-\211E\213b5\250"
 207      25C15A23 
 207      4969D2C8 
 207      6E29749E 
 207      062D8945 
 208 0159 14C51165 		.ascii	"\024\305\021e\004\205\212Q,*B\261D~Ia\361\271\010\274"
 208      04858A51 
 208      2C2A42B1 
 208      447E4961 
 208      F1B908BC 
 209 016d 0D5105C3 		.ascii	"\015Q\005\303[\036\256\301\001\0059\353bK%\351-t\010"
 209      5B1EAEC1 
 209      010539EB 
 209      624B25E9 
 209      2D7408
 210 0180 141C5414 		.ascii	"\024\034T\024\200>u\015?\250h \223A\313\361\254m\317"
 210      803E750D 
 210      3FA86820 
 210      9341CBF1 
 210      AC6DCF
 211 0193 A3BA5127 		.ascii	"\243\272Q'\022\220\234\202\032\204\3307\242\244aDYh"
 211      12909C82 
 211      1A84D837 
 211      A2A46144 
 211      5968
 212 01a5 08F45B13 		.ascii	"\010\364[\023\350\012\374h\002\020\271\251\010\243\177"
 212      E80AFC68 
 212      0210B9A9 
ARM GAS  C:\Users\info\AppData\Local\Temp\ccD0teOG.s 			page 16


 212      08A37F
 213 01b4 FEDF69FF 		.ascii	"\376\337i\377\207\012Q\244#y\022\012X \267\351\270\240"
 213      870A51A4 
 213      2379120A 
 213      5820B7E9 
 213      B8A0
 214 01c6 28408CF5 		.ascii	"(@\214\365O\340\3441s9\233P\260O\310\277t\015i\273W"
 214      4FE0E431 
 214      73399B50 
 214      B04FC8BF 
 214      740D69BB 
 215 01db 47E2EF04 		.ascii	"G\342\357\004\272\300\351\373\373\232Bp1crk}\005QZp"
 215      BAC0E9FB 
 215      FB9A4270 
 215      3163726B 
 215      7D05515A 
 216 01f0 B2026186 		.ascii	"\262\002a\206\275\226Q^\200!\035\242\365H\013\354\223"
 216      BD96515E 
 216      80211DA2 
 216      F5480BEC 
 216      93
 217 0201 2BF9B723 		.ascii	"+\371\267#\201\215\321\243\371\300\026\337+\330hd\354"
 217      818DD1A3 
 217      F9C016DF 
 217      2BD86864 
 217      EC
 218 0212 52609B47 		.ascii	"R`\233G.\35700\360[\300V\037;U\027\302F\027\001{\256"
 218      2EEF3030 
 218      F05BC056 
 218      1F3B5517 
 218      C2461701 
 219 0228 A16D301C 		.ascii	"\241m0\034\037f\232\266\217\366\016\206\263\2618`}\351"
 219      1F669AB6 
 219      8FF60E86 
 219      B3B13860 
 219      7DE9
 220 023a FD9918D7 		.ascii	"\375\231\030\327\262\261'\033w\326\205\341F\306<\312"
 220      B2B1271B 
 220      77D685E1 
 220      46C63CCA 
 221 024a B8DB6760 		.ascii	"\270\333g`\300y\300\266\226\3467b\334\305\306\374\372"
 221      C079C0B6 
 221      96E63762 
 221      DCC5C6FC 
 221      FA
 222 025b 6298BED3 		.ascii	"b\230\276\323\217\237\235\027\360m66\266\346yN$\036"
 222      8F9F9D17 
 222      F06D3636 
 222      B6E6794E 
 222      241E
 223 026d 62CC813D 		.ascii	"b\314\201=};\211\266\271\220\344\204\257m\351+\3203"
 223      7D3B89B6 
 223      B990E484 
 223      AF6DE92B 
 223      D033
 224 027f 5EFA06F8 		.ascii	"^\372\006\370\255\215\005\255:<M\301\302\271\3743i!"
 224      AD8D05AD 
ARM GAS  C:\Users\info\AppData\Local\Temp\ccD0teOG.s 			page 17


 224      3A3C4DC1 
 224      C2B9FC33 
 224      6921
 225 0291 4A360FA5 		.ascii	"J6\017\245\244\221l\256\203d;\247$\333\\9\327\244\031"
 225      A4916CAE 
 225      83643BA7 
 225      24DB5C39 
 225      D7A419
 226 02a4 B9761E72 		.ascii	"\271v\036rm\256\234kg!\327\316\260ln\351\231\364\351"
 226      6DAE9C6B 
 226      6721D7CE 
 226      B06C6EE9 
 226      99F4E9
 227 02b7 30E43051 		.ascii	"0\3440QPtq\362x(\322\307\251L\277\2502\335\237\364\357"
 227      507471F2 
 227      7828D2C7 
 227      A94CBFA8 
 227      32DD9FF4 
 228 02cc 1E20495F 		.ascii	"\036 I_\017v\\P\354\250\243IO\374\275\264\272\333\210"
 228      0F765C50 
 228      ECA8A349 
 228      4FFCBDB4 
 228      BADB88
 229 02df B3A90694 		.ascii	"\263\251\006\224_=v)\204-\204\016\330\272\364\256]\010"
 229      5F3D7629 
 229      842D840E 
 229      D8BAF4AE 
 229      5D08
 230 02f1 97B1B12D 		.ascii	"\227\261\261-\003\027\302\215Yd\227lJ\227\242\353#\351"
 230      0317C28D 
 230      5964976C 
 230      4A97A2EB 
 230      23E9
 231 0303 363A02BA 		.ascii	"6:\002\272\252@\227\006]AF9M\3164\255\315\215\302'\331"
 231      AA409706 
 231      5D414639 
 231      4DCE34AD 
 231      CD8DC227 
 232 0318 ACF3D3E3 		.ascii	"\254\363\323\343\276(&Q \332n\367\2374\340\0326V_\364"
 232      BE282651 
 232      20DA6EF7 
 232      9F34E01A 
 232      36565FF4 
 233 032c 340BE13A 		.ascii	"4\013\341:\306\224m{\374\003\302W\030\263y\370\356U"
 233      C6946D7B 
 233      FC03C257 
 233      18B379F8 
 233      EE55
 234 033e 036E61CC 		.ascii	"\003na\314tvi=\306=8hY\243\331\262\226\237\312\030\226"
 234      7476693D 
 234      C63D3868 
 234      59A3D9B2 
 234      969FCA18 
 235 0353 F3CA474E 		.ascii	"\363\312GN\241\326\037sF\302\360 \303^/\373vg\030^\257"
 235      A1D61F73 
 235      46C2F020 
 235      C35E2FFB 
ARM GAS  C:\Users\info\AppData\Local\Temp\ccD0teOG.s 			page 18


 235      7667185E 
 236 0368 25CC5CDF 		.ascii	"%\314\\\337\203\31268\012\214\363\264\3069\013\346,"
 236      83CA3638 
 236      0A8CF3B4 
 236      C6390BE6 
 236      2C
 237 0379 F07F8C40 		.ascii	"\360\177\214@qq,T\235\375\177\037l\222\244\371\350\001"
 237      71712C54 
 237      9DFD7F1F 
 237      6C92A4F9 
 237      E801
 238 038b 32A22625 		.ascii	"2\242&%V]\3245\336\365n4\217s\035\306eh.\221#\245K\363"
 238      565DD435 
 238      DEF56E34 
 238      8F731DC6 
 238      65682E91 
 239 03a3 05F4B777 		.ascii	"\005\364\267wQ- \256R\004\340\341\273\007i\3319\216"
 239      512D20AE 
 239      5204E0E1 
 239      BB0769D9 
 239      398E
 240 03b5 7A614682 		.ascii	"zaF\2026H\344\0154\207\023\331\313\242\231#\037\240"
 240      3648E40D 
 240      348713D9 
 240      CBA29923 
 240      1FA0
 241 03c7 12F26850 		.ascii	"\022\362hP;\214\266\221#\3501,v\037\300A'z\004\355a"
 241      3B8CB691 
 241      23E8312C 
 241      761FC041 
 241      277A04ED 
 242 03dc B4000D01 		.ascii	"\264\000\015\001=\004\032\004\032\000\272\017t\017\350"
 242      3D041A04 
 242      1A00BA0F 
 242      740FE8
 243 03eb 2ED01DA0 		.ascii	".\320\035\240\333@\375@\267\200n\242\005tK\357&\352"
 243      DB40FD40 
 243      B7806EA2 
 243      05744BEF 
 243      26EA
 244 03fd 7D535D11 		.ascii	"}S]\021\337I\276TL\327\363:xMD\313iu\214\032s\224|\317"
 244      DF49BE54 
 244      4CD7F33A 
 244      784D44CB 
 244      69758C1A 
 245 0415 624BAB3C 		.ascii	"bK\253<\341\277c\313\213.\203T\376\017j\311\0115K\216"
 245      E1BF63CB 
 245      8B2E8354 
 245      FE0F6AC9 
 245      09354B8E 
 246 0429 534B18F6 		.ascii	"SK\030\366\271\202\255V\303\236\344\260c\012\366\224"
 246      B982AD56 
 246      C39EE4B0 
 246      630AF694 
 247 0439 1AF60887 		.ascii	"\032\366\010\207\035\355zW\211\307i5t\215\202\226\216"
 247      1DED7A57 
 247      89C76935 
ARM GAS  C:\Users\info\AppData\Local\Temp\ccD0teOG.s 			page 19


 247      748D8296 
 247      8E
 248 044a C54BE9A1 		.ascii	"\305K\351\241\024\352S\203\326\372\241\222\344\353\316"
 248      14EA5383 
 248      D6FAA192 
 248      E4EBCE
 249 0459 97034DB6 		.ascii	"\227\003M\266\342\217j\350%\212\025\235\374\252\\R\003"
 249      E28F6AE8 
 249      258A159D 
 249      FCAA5C52 
 249      03
 250 046a 2F56C0D7 		.ascii	"/V\300\327\363#\363$_\006&\233\020]\226\301\376dB\015"
 250      F323F324 
 250      5F06269B 
 250      105D96C1 
 250      FE64420D 
 251 047e 6FB8D8DA 		.ascii	"o\270\330\332e\2246\231h\2327\252\243\251\360\3312\036"
 251      65943699 
 251      689A37AA 
 251      A3A9F0D9 
 251      321E
 252 0490 CA5E1C97 		.ascii	"\312^\034\227\364LfK\376;\212\301\327\202\015\376x\306"
 252      F44C664B 
 252      FE3B8AC1 
 252      D7820DFE 
 252      78C6
 253 04a2 7A70516B 		.ascii	"zpQkVA\362\246^\35322\327\226\031Q\313L[?\016\230J7"
 253      5641F2A6 
 253      5EEB3232 
 253      D7961951 
 253      CB4C5B3F 
 254 04ba B0AF3ADF 		.ascii	"\260\257:\337(I:\202\321\310\266i\002c\205]?#cd\233"
 254      28493A82 
 254      D1C8B669 
 254      0263855D 
 254      3F236364 
 255 04cf 75285B9B 		.ascii	"u([\233@\351\241\265\241 +Y\313mM\350\312\330\3329\031"
 255      40E9A1B5 
 255      A1202B59 
 255      CB6D4DE8 
 255      CAD8DA39 
 256 04e4 46FB88A1 		.ascii	"F\373\210\241#\210v\336\351j\254\010\015t>a\235\367"
 256      238876DE 
 256      E96AAC08 
 256      0D743E61 
 256      9DF7
 257 04f6 CB522BF4 		.ascii	"\313R+\364\201\316\247\254\323_\251\242Y\245\222\006"
 257      81CEA7AC 
 257      D35FA9A2 
 257      59A59206 
 258 0506 320A055C 		.ascii	"2\012\005\\B\017#T;\220S\253\303\307\031\323T4|=\022"
 258      420F2354 
 258      3B9053AB 
 258      C3C719D3 
 258      54347C3D 
 259 051b 37316660 		.ascii	"71f`Wm\205\016?d\214\277jF\263\252\271\325\267\371\245"
 259      576D850E 
ARM GAS  C:\Users\info\AppData\Local\Temp\ccD0teOG.s 			page 20


 259      3F648CBF 
 259      6A46B3AA 
 259      B9D5B7F9 
 260 0530 1E8FB3B1 		.ascii	"\036\217\263\261\213'\372\027a\2507\244\375\274\241"
 260      8B27FA17 
 260      61A837A4 
 260      FDBCA1
 261 053f B517E31C 		.ascii	"\265\027\343\034\306d\237\2519\253\303;\030S\327\323"
 261      C6649FA9 
 261      39ABC33B 
 261      1853D7D3 
 262 054f D5A6C525 		.ascii	"\325\246\305%\214I\2559[\031\201O3\346Ue\345Y\204/0"
 262      8C49AD39 
 262      5B19814F 
 262      33E65565 
 262      E559842F 
 263 0564 66DFE4D4 		.ascii	"f\337\344\324\010\251\326\037@\235\233\306\334m\356"
 263      08A9D61F 
 263      409D9BC6 
 263      DC6DEE
 264 0573 03769BAB 		.ascii	"\003v\233\253m\270\270\337\210\233(X\330\353K[\205X"
 264      6DB8B8DF 
 264      889B2858 
 264      D8EB4B5B 
 264      8558
 265 0585 194A2387 		.ascii	"\031J#\207\235\2768R\0238\353\320*!\216\314\242\225"
 265      9DBE3852 
 265      1338EBD0 
 265      2A218ECC 
 265      A295
 266 0597 284D8845 		.ascii	"(M\210E\251\202\277\022u\017\375\231\336\3572\004=J"
 266      A982BF12 
 266      750FFD99 
 266      DEEF3204 
 266      3D4A
 267 05a9 17024BF0 		.ascii	"\027\002K\360\201\\\210N\347t\337\323\343n\246\243d"
 267      815C884E 
 267      E774DFD3 
 267      E36EA6A3 
 267      64
 268 05ba E47259D4 		.ascii	"\344rY\324\254:\326\314\252#g\335\007e\244\332\255\006"
 268      AC3AD6CC 
 268      AA2367DD 
 268      0765A4DA 
 268      AD06
 269 05cc 1D998A0E 		.ascii	"\035\231\212\016P\311\224\334\313*yb\304w\230\327;\332"
 269      50C994DC 
 269      CB2A7962 
 269      C47798D7 
 269      3BDA
 270 05de FA3785EB 		.ascii	"\3727\205\353\345\213\337\246\237\270\370\001~\260\347"
 270      E58BDFA6 
 270      9FB8F801 
 270      7EB0E7
 271 05ed D84B6350 		.ascii	"\330KcP\011\314\022\370\022\270N\360\227\300\214\007"
 271      09CC12F8 
 271      12B84EF0 
ARM GAS  C:\Users\info\AppData\Local\Temp\ccD0teOG.s 			page 21


 271      97C08C07 
 272 05fd 7B86111E 		.ascii	"{\206\021\036djz\353KJIp?$\301\235\236\216\342\302\373"
 272      646A7AEB 
 272      4B4A4970 
 272      3F24C19D 
 272      9E8EE2C2 
 273 0612 210B6F73 		.ascii	"!\013os\366\323\275ax\224\271^\267\241\262\302\240\\"
 273      F6D3BD61 
 273      7894B95E 
 273      B7A1B2C2 
 273      A05C
 274 0624 23F61A4F 		.ascii	"#\366\032O\020\207r@S\266\342\320\207\201++\263D\243"
 274      10877240 
 274      53B6E2D0 
 274      87812B2B 
 274      B344A3
 275 0637 6C8A4D10 		.ascii	"l\212M\020\234\017e\3437Bp6\010\354^\2747gw(~\315t\344"
 275      9C0F65E3 
 275      37427036 
 275      08EC5EBC 
 275      37677728 
 276 064f 551D18D7 		.ascii	"U\035\030\327s\367\342Oi\320\266\200\216\315\212\216"
 276      73F7E24F 
 276      69D0B680 
 276      8ECD8A8E 
 277 065f 1C617625 		.ascii	"\034av%\337\252+\351?<>\244\303\253C\251W?\224M\225"
 277      DFAA2BE9 
 277      3F3C3EA4 
 277      C3AB43A9 
 277      573F944D 
 278 0674 B35DB1CC 		.ascii	"\263]\261\314\277\245\2723\213\032\014\201\215\222+"
 278      BFA5BA33 
 278      8B1A0C81 
 278      8D922B
 279 0683 D0CEB68E 		.ascii	"\320\316\266\216\033m\341\201\316\357X\347\352\351\336"
 279      1B6DE181 
 279      CEEF58E7 
 279      EAE9DE
 280 0692 733A9CC7 		.ascii	"s:\234\307$e\024m\330\036\201\3671fc\336\323\3520|\220"
 280      2465146D 
 280      D81E81F7 
 280      316663DE 
 280      D3EA307C 
 281 06a7 312DBE5D 		.ascii	"1-\276]\333\303q\025cnW\215\357\215\300\265\214\271"
 281      DBC37115 
 281      636E578D 
 281      EF8DC0B5 
 281      8CB9
 282 06b9 F5B8264F 		.ascii	"\365\270&O\331\275L\375\221\346\302\233a\370\002\003"
 282      D9BD4CFD 
 282      91E6C29B 
 282      61F80203 
 283 06c9 4C5E9D3A 		.ascii	"L^\235:\211p+c\326\267\034]\202o\261vY[\307+\204\207"
 283      89702B63 
 283      D6B71C5D 
 283      826FB176 
 283      595BC72B 
ARM GAS  C:\Users\info\AppData\Local\Temp\ccD0teOG.s 			page 22


 284 06df 1973E5F5 		.ascii	"\031s\345\365\310i\214\247\031s\260/\263%\004o\012\243"
 284      C8698CA7 
 284      1973B02F 
 284      B325046F 
 284      0AA3
 285 06f1 CCFE97DF 		.ascii	"\314\376\227\337W\031q\001c\352\306k\366\204\340\"\306"
 285      57197101 
 285      63EAC66B 
 285      F684E022 
 285      C6
 286 0702 64AD3BF0 		.ascii	"d\255;\360}$>\305\230U\353KOa|\2251M7+\236\205\342;"
 286      7D243EC5 
 286      9855EB4B 
 286      4F617C95 
 286      314D372B 
 287 071a 8CB97923 		.ascii	"\214\271y#\347\237x\230\265\037\2666\347\204\340I\306"
 287      E79F7898 
 287      B51FB636 
 287      E784E049 
 287      C6
 288 072b BCAA585D 		.ascii	"\274\252X]\255\305\033t\224\271_?1f\300\205\214\231"
 288      ADC51B74 
 288      94B95F3F 
 288      3166C085 
 288      8C99
 289 073d 3C930675 		.ascii	"<\223\006u\261\2021G\317L\\\016\301\027\030\363(\255"
 289      B1823147 
 289      CF4C5C0E 
 289      C11718F3 
 289      28AD
 290 074f 742FC27D 		.ascii	"t/\302}\214i\332:\234+\340\011\306\274\234\37265\004"
 290      8C69DA3A 
 290      9C2BE009 
 290      C6BC9CFA 
 290      363504
 291 0762 AF0F671B 		.ascii	"\257\017g\033\271g\240\314\200w2\246x\303\310Y=>F\231"
 291      B967A0CC 
 291      807732A6 
 291      78C3C859 
 291      3D3E4699 
 292 0776 77526BAF 		.ascii	"wRk\257\\\010C\364N\244\334\216\340n\004DOb\270\035"
 292      5C0843F4 
 292      4EA4DC8E 
 292      E06E0444 
 292      4F62B81D 
 293 078a 396B8EF6 		.ascii	"9k\216\366HR\246\221F\264\014\022\345\244\020|p\363"
 293      4852A691 
 293      46B40C12 
 293      E5A4107C 
 293      70F3
 294 079c E5F95473 		.ascii	"\345\371Ts\240\344\356\015\206\276Q\353\266]\015@\313"
 294      A0E4EE0D 
 294      86BE51EB 
 294      B65D0D40 
 294      CB
 295 07ad 55A4D6F2 		.ascii	"U\244\326\362\225K\201\226\252@\217r\320-\012\364\260"
 295      954B8196 
ARM GAS  C:\Users\info\AppData\Local\Temp\ccD0teOG.s 			page 23


 295      AA408F72 
 295      D02D0AF4 
 295      B0
 296 07be 0A74C9EC 		.ascii	"\012t\311\354w\232J\031N\3564u\220\350\247\204\005\350"
 296      779A4A19 
 296      4EEE3475 
 296      90E8A784 
 296      05E8
 297 07d0 04D031A0 		.ascii	"\004\3201\240\032\240\323@\027\200\216\000\035\007\372"
 297      1AA0D340 
 297      17808E00 
 297      1D07FA
 298 07df 11E81CD0 		.ascii	"\021\350\034\320\031\240Z\240\363@\027\201\216\002\371"
 298      19A05AA0 
 298      F3401781 
 298      8E02F9
 299 07ee 80AA81CE 		.ascii	"\200\252\201\316\002\325\013\374]\247Y\011\320n\265"
 299      02D50BFC 
 299      5DA75909 
 299      D06EB5
 300 07fd 0071B70C 		.ascii	"\000q\267\014\337f\305\227\012\025_\270\253@\276\202"
 300      DF66C597 
 300      0A155FB8 
 300      AB40BE82 
 301 080d 3CA482E4 		.ascii	"<\244\202\344\205\026(\320\037T\240|\025.Wl-\012\206"
 301      851628D0 
 301      1F54A07C 
 301      152E576C 
 301      2D0A86
 302 0820 36BC712F 		.ascii	"6\274q/kR\260{\324\374\342\227\263;[\276\270\220\243"
 302      6B52B07B 
 302      D4FCE297 
 302      B33B5BBE 
 302      B890A3
 303 0833 E7808C56 		.ascii	"\347\200\214V\273\2120\370\326f\356RT\254f\010\177\351"
 303      BB8A30F8 
 303      D666EE52 
 303      54AC6608 
 303      7FE9
 304 0845 1BDD1CB9 		.ascii	"\033\335\034\271M\362\245aZ\014\276\227\321\201\032"
 304      4DF2A561 
 304      5A0CBE97 
 304      D1811A
 305 0854 F2E6C56F 		.ascii	"\362\346\305o\372*'\275DM:\217\256R\334\334\257\206"
 305      FA2A27BD 
 305      444D3A8F 
 305      AE52DCDC 
 305      AF86
 306 0866 65A9C8EE 		.ascii	"e\251\310\356\036S\033\351\275\0040\374\275\204\311"
 306      1E531BE9 
 306      BD0430FC 
 306      BD84C9
 307 0875 29E4B51E 		.ascii	")\344\265\036TY\007\336\245g\274KU\352.\361kQ\315\007"
 307      545907DE 
 307      A567BC4B 
 307      55EA2EF1 
 307      6B51CD07 
ARM GAS  C:\Users\info\AppData\Local\Temp\ccD0teOG.s 			page 24


 308 0889 6C9FDA6A 		.ascii	"l\237\332j\320\350\302Y\320\231\275=/\012\237\243g\201"
 308      D0E8C259 
 308      D099BD3D 
 308      2F0A9FA3 
 308      6781
 309 089b 70E54E7E 		.ascii	"p\345N~m$\232\023\247\276=.\303\226\370_n\017\026\263"
 309      6D249A13 
 309      A7BE3D2E 
 309      C396F85F 
 309      6E0F16B3 
 310 08af BCC65F91 		.ascii	"\274\306_\221\2305\200\242KJM\"!\244\366~_\\\264\001"
 310      983580A2 
 310      4B4A4D22 
 310      21A4F67E 
 310      5F5CB401 
 311 08c3 CD910DF4 		.ascii	"\315\221\015\364\315j\240\346\277n\035\350\316\314\032"
 311      CD6AA0E6 
 311      BF6E1DE8 
 311      CECC1A
 312 08d2 4D4541F7 		.ascii	"MEA\367\200+\002\377\360\326\030\270\007\214\037\274"
 312      802B02FF 
 312      F0D618B8 
 312      078C1FBC 
 313 08e2 DF13823B 		.ascii	"\337\023\202;\330q\353\177\255\021\315^kT\325<\331'"
 313      D871EB7F 
 313      AD11CD5E 
 313      6B54D53C 
 313      D927
 314 08f4 BFC990C8 		.ascii	"\277\311\220\310\225k\340\356\366:=\276#\237\323-\207"
 314      956BE0EE 
 314      F63A3DBE 
 314      239FD32D 
 314      87
 315 0905 2E47E117 		.ascii	".G\341\027\224\371\305\201G\023\205z\024\374\334\312"
 315      94F9C581 
 315      4713857A 
 315      14FCDCCA 
 316 0915 1E5EE169 		.ascii	"\036^\341i6Nn\304\301c,\251vm\202\021\355\024\202\237"
 316      364E6EC4 
 316      C1632CA9 
 316      766D8211 
 316      ED14829F 
 317 0929 2DDB83CC 		.ascii	"-\333\203\314k\023\336|\266\274\0065\274\011j8z\016"
 317      6B13DE7C 
 317      B6BC0635 
 317      BC096A38 
 317      7A0E
 318 093b B1EB9017 		.ascii	"\261\353\220\027\367\031\264\307\300\365\307@\217\200"
 318      F719B4C7 
 318      C0F5C740 
 318      8F80
 319 0949 86818680 		.ascii	"\206\201\206\200\356\001\335\005\272\003t\033\250\037"
 319      EE01DD05 
 319      BA03741B 
 319      A81F
 320 0957 E816501F 		.ascii	"\350\026P\037\320M\240\033@\275@=@\335@]@\235@\327\203"
 320      D04DA01B 
ARM GAS  C:\Users\info\AppData\Local\Temp\ccD0teOG.s 			page 25


 320      40BD403D 
 320      40DD405D 
 320      409D40D7 
 321 096c CEBFA976 		.ascii	"\316\277\251v.7\233a\211;\224\334\034\343\266\233\272"
 321      2E379B61 
 321      893B94DC 
 321      1CE3B69B 
 321      BA
 322 097d 9D57E509 		.ascii	"\235W\345\011\377{;_\264\0076\3723\244b%\177\244>W\260"
 322      FF7B3B5F 
 322      B40736FA 
 322      33A46225 
 322      7FA43E57 
 323 0992 CFD5B0FC 		.ascii	"\317\325\260\374\3317\246`\307\325\260\\\201|\252@_"
 323      D937A660 
 323      C7D5B05C 
 323      817CAA40 
 323      5F
 324 09a3 A841B923 		.ascii	"\250A\271#rD\201N\006C'\270c\211ao(\330)5,\177\222\364"
 324      7244814E 
 324      064327B8 
 324      6389616F 
 324      28D82935 
 325 09bb 28D8976A 		.ascii	"(\330\227jX\376\224jW\260\257\324\260A\217\242\012\366"
 325      58FE946A 
 325      57B0AFD4 
 325      B0418FA2 
 325      0AF6
 326 09cd B51A968F 		.ascii	"\265\032\226\217n\263\202\235V\303\362\321\275\226\313"
 326      6EB3829D 
 326      56C3F2D1 
 326      BD96CB
 327 09dc 9D94929C 		.ascii	"\235\224\222\234,\201\223rbf\330js\337a\205\010\356"
 327      2C819372 
 327      6266D86A 
 327      73DF6185 
 327      08EE
 328 09ee F068AD0C 		.ascii	"\360h\255\014\017\024\242\2667\314\256\311\345\012\327"
 328      0F14A2B6 
 328      37CCAEC9 
 328      E50AD7
 329 09fd 7A753C27 		.ascii	"zu<'\276\272=\212\301\357\203\370\2553\341|)\342\267"
 329      BEBA3D8A 
 329      C1EF83F8 
 329      AD33E17C 
 329      29E2B7
 330 0a10 EDA0C03D 		.ascii	"\355\240\300=s?\204$\037\020\374\317\334\263\3014\034"
 330      733F8424 
 330      1F10FCCF 
 330      DCB3C134 
 330      1C
 331 0a21 867B1945 		.ascii	"\206{\031EB\246\274\215\202\011\360\375@\360\277\215"
 331      42A6BC8D 
 331      8209F0FD 
 331      40F0BF8D 
 332 0a31 2247C636 		.ascii	"\"G\3066\340\344\007\345\306w\310\301K,\315S\016\336"
 332      E0E407E5 
ARM GAS  C:\Users\info\AppData\Local\Temp\ccD0teOG.s 			page 26


 332      C677C8C1 
 332      4B2CCD53 
 332      0EDE
 333 0a43 017A6830 		.ascii	"\001zh0oN\360\336\344\253{\3039\177\264\235\276m \340"
 333      6F4EF0DE 
 333      E4AB7BC3 
 333      397FB49D 
 333      BE6D20E0 
 334 0a57 ED33C12A 		.ascii	"\3553\301*uUA\027\250\2439\321\225\2711\314\222\021"
 334      75554117 
 334      A8A339D1 
 334      95B931CC 
 334      9211
 335 0a69 80EF9809 		.ascii	"\200\357\230\011\377X=\254O\371\260\216BX\237\250\206"
 335      FF583DAC 
 335      4FF9B08E 
 335      42589FA8 
 335      86
 336 0a7a F5695058 		.ascii	"\365iPX\237\250\205\225\344\226\022\326\2474\254\255"
 336      9FA88595 
 336      E49612D6 
 336      A734ACAD 
 337 0a8a 34AC2C94 		.ascii	"4\254,\224\2077\276KBI\214+TB\371\204\013\345\341\334"
 337      8737BE4B 
 337      42498C2B 
 337      5442F984 
 337      0BE5E1DC 
 338 0a9e 9F3307A0 		.ascii	"\2373\007\240f\240]\252\016p\3577v\344\322{D\207\240"
 338      66A05DAA 
 338      0E70EF37 
 338      76E4D27B 
 338      4487A0
 339 0ab1 F27EE3BB 		.ascii	"\362~\343\273\215\364\375\0069\352[\024]\035\376z9\231"
 339      8DF4FD06 
 339      39EA5B14 
 339      5D1DFE7A 
 339      3999
 340 0ac3 965D8EB5 		.ascii	"\226]\216\265\376\325\036e\257(\272\312\3723\014\363"
 340      FED51E65 
 340      AF28BACA 
 340      FA330CF3 
 341 0ad3 667B69F9 		.ascii	"f{i\371\202\3723N\375!\357\025F'\212\015\357\357\202"
 341      82FA334E 
 341      FD21EF15 
 341      46278A0D 
 341      EFEF82
 342 0ae6 CBA0D437 		.ascii	"\313\240\3247}\350wm{2\245&8\230\177K\201\350\260\377"
 342      7DE8776D 
 342      7B32A526 
 342      38987F4B 
 342      81E8B0FF 
 343 0afa 9D0AAA44 		.ascii	"\235\012\252DZ\302\021\355\345\250\033\301f\023\336"
 343      5AC211ED 
 343      E5A81BC1 
 343      6613DE
 344 0b09 270F45D9 		.ascii	"'\017E\331[/E\342|\366\300\373\223o[\246\004\225\267"
 344      5B2F45E2 
ARM GAS  C:\Users\info\AppData\Local\Temp\ccD0teOG.s 			page 27


 344      7CF6C0FB 
 344      936F5BA6 
 344      0495B7
 345 0b1c 2D2F59E7 		.ascii	"-/Y\347\375\276\274kQ\001W^\261N\337\340\276\362\210"
 345      FDBEBC6B 
 345      5101575E 
 345      B14EDFE0 
 345      BEF288
 346 0b2f 595D99A6 		.ascii	"Y]\231\246\256\274\366\273Rx\355\272\024\011\256\364"
 346      AEBCF6BB 
 346      5278EDBA 
 346      1409AEF4 
 347 0b3f 954BBECE 		.ascii	"\225K\276\316N#\361C\372-\001\241I%t\320T|\2200\361"
 347      4E23F143 
 347      FA2D01A1 
 347      492574D0 
 347      547C9030 
 348 0b54 61F7C8B6 		.ascii	"a\367\310\266\235\010\0271\037J\3337\327\353A\310.\020"
 348      9D081731 
 348      1F4ADB37 
 348      D7EB41C8 
 348      2E10
 349 0b66 F2DA22AD 		.ascii	"\362\332\"\255\002\031Z\372\232,\025\007d@S\221\221"
 349      02195AFA 
 349      9A2C1507 
 349      64405391 
 349      91
 350 0b77 4665ACDB 		.ascii	"Fe\254\333?5\036\202\217\350g}Hm\237\\\273Y\033\350"
 350      3F351E82 
 350      8FE8677D 
 350      486D9F5C 
 350      BB591BE8 
 351 0b8b CBC0B433 		.ascii	"\313\300\2643\177KO\233\020\350\\\305:S\373[&P \020"
 351      7F4B4F9B 
 351      10E85CC5 
 351      3A53FB5B 
 351      26502010 
 352 0b9f 99AC73D3 		.ascii	"\231\254s\323\203\251\306\320Y\003\261\006\223@\254"
 352      83A9C6D0 
 352      5903B106 
 352      9340AC
 353 0bae C67220EA 		.ascii	"\306r \352;\207z\264$\020\222\324\327\321\377\305\360"
 353      3B877AB4 
 353      241092D4 
 353      D7D1FFC5 
 353      F0
 354 0bbf 9E4CDF17 		.ascii	"\236L\337\027\024\204\322\025'\322\251\023\320XK\035"
 354      1484D215 
 354      27D2A913 
 354      D0584B1D 
 355 0bcf 38D430D9 		.ascii	"8\3240\331\034|\373!xe\247daz\275 \277\344\301\266\266"
 355      1C7CFB21 
 355      7865A764 
 355      617ABD20 
 355      BFE4C1B6 
 356 0be4 78382C08 		.ascii	"x8,\010\375\"h_\255\223\321\353(z\317\217Y\023\301\377"
 356      FD22685F 
ARM GAS  C:\Users\info\AppData\Local\Temp\ccD0teOG.s 			page 28


 356      AD93D1EB 
 356      287ACF8F 
 356      5913C1FF 
 357 0bf8 64980E42 		.ascii	"d\230\016B\257\227\321\344W\367\307\277.\233\377\371"
 357      AF97D1E4 
 357      57F7C7BF 
 357      2E9BFFF9 
 358 0c08 E2C59A70 		.ascii	"\342\305\232pQ\364Z\355\236\245\242'\025\231\177\023"
 358      51F45AED 
 358      9EA5A227 
 358      15997F13 
 359 0c18 EF743996 		.ascii	"\357t9\226\273L\311\363\223\2546\213{~\334\312\245\237"
 359      BB4CC9F3 
 359      93AC368B 
 359      7B7EDCCA 
 359      A59F
 360 0c2a FD32DE9C 		.ascii	"\3752\336\234\342tY\334\356x\247\333a\236ovYL\036\207"
 360      E27459DC 
 360      EE78A7DB 
 360      619E6F76 
 360      594C1E87 
 361 0c3e 2BFED385 		.ascii	"+\376\323\205\237\004wX\223\235\016\227'~\271\335\033"
 361      9F047758 
 361      939D0E97 
 361      277EB9DD 
 361      1B
 362 0c4f 6F7225C7 		.ascii	"or%\307\377z\341\247\013\027\223\326Gv\207\335\362\221"
 362      FF7AE1A7 
 362      0B1793D6 
 362      477687DD 
 362      F291
 363 0c61 C594608D 		.ascii	"\305\224`\215\267\332\3156o\242%>\331d^a\265[\342\305"
 363      B7DACD36 
 363      6FA2253E 
 363      D9645E61 
 363      B55BE2C5 
 364 0c75 444B92C9 		.ascii	"DK\222\311k\363\210\236\024\247\305\275p\205&L6\345"
 364      6BF3889E 
 364      14A7C5BD 
 364      7085264C 
 364      36E5
 365 0c87 CBFF9725 		.ascii	"\313\377\227%\356\024w\274\350\366$\202ZP\377\226w\351"
 365      EE1477BC 
 365      E8F62482 
 365      5A50FF96 
 365      77E9
 366 0c99 CAA5E2EF 		.ascii	"\312\245\342\357]\246\257\376\342X\376\027\260PgwX\355"
 366      5DA6AFFE 
 366      E258FE17 
 366      B0506777 
 366      58ED
 367 0cab 36684458 		.ascii	"6hDX\335\242\313\222\010#\242\311f\213T82h\340\332:"
 367      DDA2CB92 
 367      0823A2C9 
 367      668B5438 
 367      3268E0DA 
 368 0cc0 B3D7E576 		.ascii	"\263\327\345v\270\304\024\177ce4\351\026WX\254\313W"
ARM GAS  C:\Users\info\AppData\Local\Temp\ccD0teOG.s 			page 29


 368      B8C4147F 
 368      636534E9 
 368      165758AC 
 368      CB57
 369 0cd2 78444752 		.ascii	"xDGR\222\333\342\321\211\"\3633\224\375\304\006\313"
 369      92DBE2D1 
 369      8922F333 
 369      94FDC406 
 369      CB
 370 0ce3 1393609E 		.ascii	"\023\223`\236\005b$\232W\230\\\021n\360\313b\027\023"
 370      0562249A 
 370      57985C11 
 370      6EF0CB62 
 370      1713
 371 0cf5 BC494916 		.ascii	"\274II\026\227`N\320y\227\332\034\313EsB(\023\032\362"
 371      97604ED0 
 371      7997DA1C 
 371      CB457342 
 371      28131AF2 
 372 0d09 9535D1B3 		.ascii	"\2255\321\263Bg\362\256\024\023M\036\223\221\015\273"
 372      4267F2AE 
 372      14134D1E 
 372      93910DBB 
 373 0d19 3D2EAFD9 		.ascii	"=.\257\331\363~\220\335\320\374\267\327\012<\325`\267"
 373      F37E90DD 
 373      D0FCB7D7 
 373      0A3CD560 
 373      B7
 374 0d2a ACF48876 		.ascii	"\254\364\210v[\030\303{b\026.\214\367.]\376\211hv\273"
 374      5B18C37B 
 374      62162E8C 
 374      F72E5DFE 
 374      896876BB 
 375 0d3e CCF12412 		.ascii	"\314\361$\022\020\221\310DK\202\303k7[@\236\311c\231"
 375      1091C844 
 375      4B82C36B 
 375      375B409E 
 375      C96399
 376 0d51 1B606D26 		.ascii	"\033`m&\267GtZ\355\254\377\275@\277\177E\003C\206\345"
 376      B747745A 
 376      EDACFFBD 
 376      40BF7F45 
 376      034386E5 
 377 0d65 4EAB0314 		.ascii	"N\253\003\024\273\241W\357\365$-e\335 \370K+\340M\211"
 377      BBA157EF 
 377      F5242D65 
 377      DD20F84B 
 377      2BE04D89 
 378 0d79 8964450D 		.ascii	"\211dE\015\326O\314d\300\345\261$\322\266\334\037\003"
 378      D64FCC64 
 378      C0E5B124 
 378      D2B6DC1F 
 378      03
 379 0d8a F62739EC 		.ascii	"\366'9\354\036\210\327\227\026\227\333\"&;\022-\272"
 379      1E88D797 
 379      1697DB22 
 379      263B122D 
ARM GAS  C:\Users\info\AppData\Local\Temp\ccD0teOG.s 			page 30


 379      BA
 380 0d9b 95FE385A 		.ascii	"\225\3768Z\354f\007\254\335r=K\342\305\237\211\036\235"
 380      EC6607AC 
 380      DD723D4B 
 380      E2C59F89 
 380      1E9D
 381 0dad BFA125F3 		.ascii	"\277\241%\363\302\023\274n\321ls\230\377%C\226|\"CH"
 381      C213BC6E 
 381      D16C7398 
 381      FF254396 
 381      7C224348 
 382 0dc1 E36D6A9B 		.ascii	"\343mj\233\311\236\010f\333L)\020R\003\315\200d7\011"
 382      C99E0866 
 382      DB4C2910 
 382      5203CD80 
 382      643709
 383 0dd4 6F58428A 		.ascii	"oXB\212\307B\302l6%\302\217>\321\352v2T\030\015\235"
 383      C742C26C 
 383      3625C28F 
 383      3ED1EA76 
 383      3254180D 
 384 0de9 39C148D1 		.ascii	"9\301H\321d\221\010\343\037\267\332\223\034\006\247"
 384      649108E3 
 384      1FB7DA93 
 384      1C06A7
 385 0df8 75A5C526 		.ascii	"u\245\305&\322\225y;\311fu\022\273E\277\335o\371\243"
 385      D295793B 
 385      C9667512 
 385      BB45BFDD 
 385      6FF9A3
 386 0e0b E4EF3078 		.ascii	"\344\3570x \311\345\034\321\3236\235\031\363\225\313"
 386      20C9E51C 
 386      D1D3369D 
 386      19F395CB 
 387 0e1b 0A2638BD 		.ascii	"\012&8\2756\267\334#\332\335\321d\221E\230\344u\212"
 387      36B7DC23 
 387      DADDD164 
 387      914598E4 
 387      758A
 388 0e2d 1E6BB205 		.ascii	"\036k\262\005\272bH\304\002\236\212\213\027-\372\327"
 388      BA6248C4 
 388      029E8A8B 
 388      172DFAD7 
 389 0e3d 9FBED6B9 		.ascii	"\237\276\326\271\235V\032.\243\033\372\330\310\212\257"
 389      9D561A2E 
 389      A31BFAD8 
 389      C88AAF
 390 0e4c A309132C 		.ascii	"\243\011\023,\360mw\342\014y\321N\007\254.\304\337\342"
 390      F06D77E2 
 390      0C79D14E 
 390      07AC2EC4 
 390      DFE2
 391 0e5e 11BF3259 		.ascii	"\021\2772Y=\020\220\030\306\3613\223\335\363`7\202\373"
 391      3D109018 
 391      C6F13393 
 391      DDF36037 
 391      82FB
ARM GAS  C:\Users\info\AppData\Local\Temp\ccD0teOG.s 			page 31


 392 0e70 56A708BE 		.ascii	"V\247\010\276\233\022\210\331\004m\207\001\"\200\216"
 392      9B1288D9 
 392      046D8701 
 392      22808E
 393 0e7f 58ECFC40 		.ascii	"X\354\374@t\020\332f\371\322b{\233\207\321\236y4\254"
 393      7410DA66 
 393      F9D2627B 
 393      9B87D19E 
 393      7934AC
 394 0e92 7C38E56C 		.ascii	"|8\345l6\262\250\2628\315y\023\345a\313\307\300s\002"
 394      36B2A8B2 
 394      38CD7913 
 394      E561CBC7 
 394      C07302
 395 0ea5 39C9928F 		.ascii	"9\311\222\217\254j(\035\367\2747#\325I\376\323\2047"
 395      AC6A281D 
 395      F7BC3723 
 395      D549FED3 
 395      8437
 396 0eb7 6B8CFC11 		.ascii	"k\214\374\021\020\241\014\301\002G\006\206\376hKq\256"
 396      10A10CC1 
 396      02470686 
 396      FE684B71 
 396      AE
 397 0ec8 F80F4E8F 		.ascii	"\370\017N\217\004\202"
 397      0482
 398              		.text
 399              		.section	.gnu.lto_.symtab.bf14f9ce,"",%progbits
 400 0000 75387838 		.ascii	"u8x8_DrawLog\000"
 400      5F447261 
 400      774C6F67 
 400      00
 401 000d 00       		.ascii	"\000"
 402 000e 00       		.ascii	"\000"
 403 000f 00       		.ascii	"\000"
 404 0010 00000000 		.ascii	"\000\000\000\000\000\000\000\000"
 404      00000000 
 405 0018 80010000 		.ascii	"\200\001\000\000"
 406 001c 75386C6F 		.ascii	"u8log_u8x8_cb\000"
 406      675F7538 
 406      78385F63 
 406      6200
 407 002a 00       		.ascii	"\000"
 408 002b 00       		.ascii	"\000"
 409 002c 00       		.ascii	"\000"
 410 002d 00000000 		.ascii	"\000\000\000\000\000\000\000\000"
 410      00000000 
 411 0035 82010000 		.ascii	"\202\001\000\000"
 412 0039 75387838 		.ascii	"u8x8_DrawGlyph\000"
 412      5F447261 
 412      77476C79 
 412      706800
 413 0048 00       		.ascii	"\000"
 414 0049 02       		.ascii	"\002"
 415 004a 00       		.ascii	"\000"
 416 004b 00000000 		.ascii	"\000\000\000\000\000\000\000\000"
 416      00000000 
ARM GAS  C:\Users\info\AppData\Local\Temp\ccD0teOG.s 			page 32


 417 0053 89010000 		.ascii	"\211\001\000\000"
 418              		.text
 419              		.section	.gnu.lto_.opts,"",%progbits
 420 0000 272D666D 		.ascii	"'-fmath-errno' '-fsigned-zeros' '-ftrapping-math' '"
 420      6174682D 
 420      6572726E 
 420      6F272027 
 420      2D667369 
 421 0033 2D666E6F 		.ascii	"-fno-trapv' '-fno-openmp' '-fno-openacc' '-mcpu=cor"
 421      2D747261 
 421      70762720 
 421      272D666E 
 421      6F2D6F70 
 422 0066 7465782D 		.ascii	"tex-m3' '-mthumb' '-g' '-Os' '-ffunction-sections' "
 422      6D332720 
 422      272D6D74 
 422      68756D62 
 422      2720272D 
 423 0099 272D6666 		.ascii	"'-ffat-lto-objects' '-flto'\000"
 423      61742D6C 
 423      746F2D6F 
 423      626A6563 
 423      74732720 
 424              		.text
 425              		.cfi_sections	.debug_frame
 426              		.section	.text.u8x8_DrawLogLine,"ax",%progbits
 427              		.align	1
 428              		.thumb
 429              		.thumb_func
 430              		.type	u8x8_DrawLogLine, %function
 431              	u8x8_DrawLogLine:
 432              	.LFB0:
 433              		.file 1 "..\\u8g2_csrc\\u8log_u8x8.c"
   1:..\u8g2_csrc/u8log_u8x8.c **** /*
   2:..\u8g2_csrc/u8log_u8x8.c **** 
   3:..\u8g2_csrc/u8log_u8x8.c ****   u8log_u8x8.c
   4:..\u8g2_csrc/u8log_u8x8.c ****   
   5:..\u8g2_csrc/u8log_u8x8.c **** 
   6:..\u8g2_csrc/u8log_u8x8.c ****   Universal 8bit Graphics Library (https://github.com/olikraus/u8g2/)
   7:..\u8g2_csrc/u8log_u8x8.c **** 
   8:..\u8g2_csrc/u8log_u8x8.c ****   Copyright (c) 2018, olikraus@gmail.com
   9:..\u8g2_csrc/u8log_u8x8.c ****   All rights reserved.
  10:..\u8g2_csrc/u8log_u8x8.c **** 
  11:..\u8g2_csrc/u8log_u8x8.c ****   Redistribution and use in source and binary forms, with or without modification, 
  12:..\u8g2_csrc/u8log_u8x8.c ****   are permitted provided that the following conditions are met:
  13:..\u8g2_csrc/u8log_u8x8.c **** 
  14:..\u8g2_csrc/u8log_u8x8.c ****   * Redistributions of source code must retain the above copyright notice, this list 
  15:..\u8g2_csrc/u8log_u8x8.c ****     of conditions and the following disclaimer.
  16:..\u8g2_csrc/u8log_u8x8.c ****     
  17:..\u8g2_csrc/u8log_u8x8.c ****   * Redistributions in binary form must reproduce the above copyright notice, this 
  18:..\u8g2_csrc/u8log_u8x8.c ****     list of conditions and the following disclaimer in the documentation and/or other 
  19:..\u8g2_csrc/u8log_u8x8.c ****     materials provided with the distribution.
  20:..\u8g2_csrc/u8log_u8x8.c **** 
  21:..\u8g2_csrc/u8log_u8x8.c ****   THIS SOFTWARE IS PROVIDED BY THE COPYRIGHT HOLDERS AND 
  22:..\u8g2_csrc/u8log_u8x8.c ****   CONTRIBUTORS "AS IS" AND ANY EXPRESS OR IMPLIED WARRANTIES, 
  23:..\u8g2_csrc/u8log_u8x8.c ****   INCLUDING, BUT NOT LIMITED TO, THE IMPLIED WARRANTIES OF 
  24:..\u8g2_csrc/u8log_u8x8.c ****   MERCHANTABILITY AND FITNESS FOR A PARTICULAR PURPOSE ARE 
ARM GAS  C:\Users\info\AppData\Local\Temp\ccD0teOG.s 			page 33


  25:..\u8g2_csrc/u8log_u8x8.c ****   DISCLAIMED. IN NO EVENT SHALL THE COPYRIGHT HOLDER OR 
  26:..\u8g2_csrc/u8log_u8x8.c ****   CONTRIBUTORS BE LIABLE FOR ANY DIRECT, INDIRECT, INCIDENTAL, 
  27:..\u8g2_csrc/u8log_u8x8.c ****   SPECIAL, EXEMPLARY, OR CONSEQUENTIAL DAMAGES (INCLUDING, BUT 
  28:..\u8g2_csrc/u8log_u8x8.c ****   NOT LIMITED TO, PROCUREMENT OF SUBSTITUTE GOODS OR SERVICES; 
  29:..\u8g2_csrc/u8log_u8x8.c ****   LOSS OF USE, DATA, OR PROFITS; OR BUSINESS INTERRUPTION) HOWEVER 
  30:..\u8g2_csrc/u8log_u8x8.c ****   CAUSED AND ON ANY THEORY OF LIABILITY, WHETHER IN CONTRACT, 
  31:..\u8g2_csrc/u8log_u8x8.c ****   STRICT LIABILITY, OR TORT (INCLUDING NEGLIGENCE OR OTHERWISE) 
  32:..\u8g2_csrc/u8log_u8x8.c ****   ARISING IN ANY WAY OUT OF THE USE OF THIS SOFTWARE, EVEN IF 
  33:..\u8g2_csrc/u8log_u8x8.c ****   ADVISED OF THE POSSIBILITY OF SUCH DAMAGE.  
  34:..\u8g2_csrc/u8log_u8x8.c **** 
  35:..\u8g2_csrc/u8log_u8x8.c **** */
  36:..\u8g2_csrc/u8log_u8x8.c **** 
  37:..\u8g2_csrc/u8log_u8x8.c **** #include "u8x8.h"
  38:..\u8g2_csrc/u8log_u8x8.c **** 
  39:..\u8g2_csrc/u8log_u8x8.c **** static void u8x8_DrawLogLine(u8x8_t *u8x8, uint8_t disp_x, uint8_t disp_y, uint8_t buf_y, u8log_t *
  40:..\u8g2_csrc/u8log_u8x8.c **** static void u8x8_DrawLogLine(u8x8_t *u8x8, uint8_t disp_x, uint8_t disp_y, uint8_t buf_y, u8log_t *
  41:..\u8g2_csrc/u8log_u8x8.c **** {
 434              		.loc 1 41 0
 435              		.cfi_startproc
 436              		@ args = 4, pretend = 0, frame = 0
 437              		@ frame_needed = 0, uses_anonymous_args = 0
 438              	.LVL0:
 439 0000 2DE9F843 		push	{r3, r4, r5, r6, r7, r8, r9, lr}
 440              		.cfi_def_cfa_offset 32
 441              		.cfi_offset 3, -32
 442              		.cfi_offset 4, -28
 443              		.cfi_offset 5, -24
 444              		.cfi_offset 6, -20
 445              		.cfi_offset 7, -16
 446              		.cfi_offset 8, -12
 447              		.cfi_offset 9, -8
 448              		.cfi_offset 14, -4
 449              		.loc 1 41 0
 450 0004 0746     		mov	r7, r0
 451 0006 0E46     		mov	r6, r1
 452 0008 9046     		mov	r8, r2
 453 000a 9946     		mov	r9, r3
 454 000c 089D     		ldr	r5, [sp, #32]
  42:..\u8g2_csrc/u8log_u8x8.c ****   uint8_t buf_x;
  43:..\u8g2_csrc/u8log_u8x8.c ****   uint8_t c;
  44:..\u8g2_csrc/u8log_u8x8.c ****   for( buf_x = 0; buf_x < u8log->width; buf_x++ )
 455              		.loc 1 44 0
 456 000e 0024     		movs	r4, #0
 457              	.LVL1:
 458              	.L2:
 459              		.loc 1 44 0 is_stmt 0 discriminator 1
 460 0010 2B79     		ldrb	r3, [r5, #4]	@ zero_extendqisi2
 461 0012 E2B2     		uxtb	r2, r4
 462 0014 B118     		adds	r1, r6, r2
 463 0016 9342     		cmp	r3, r2
 464 0018 C9B2     		uxtb	r1, r1
 465              	.LVL2:
 466 001a 04F10104 		add	r4, r4, #1
 467 001e 08D9     		bls	.L5
  45:..\u8g2_csrc/u8log_u8x8.c ****   {
  46:..\u8g2_csrc/u8log_u8x8.c ****     c = u8log->screen_buffer[buf_y * u8log->width + buf_x];
 468              		.loc 1 46 0 is_stmt 1 discriminator 3
ARM GAS  C:\Users\info\AppData\Local\Temp\ccD0teOG.s 			page 34


 469 0020 E868     		ldr	r0, [r5, #12]
 470 0022 03FB0903 		mla	r3, r3, r9, r0
  47:..\u8g2_csrc/u8log_u8x8.c ****     u8x8_DrawGlyph(u8x8, disp_x, disp_y, c);
 471              		.loc 1 47 0 discriminator 3
 472 0026 3846     		mov	r0, r7
 473 0028 9B5C     		ldrb	r3, [r3, r2]	@ zero_extendqisi2
 474 002a 4246     		mov	r2, r8
 475              	.LVL3:
 476 002c FFF7FEFF 		bl	u8x8_DrawGlyph
 477              	.LVL4:
 478 0030 EEE7     		b	.L2
 479              	.LVL5:
 480              	.L5:
  48:..\u8g2_csrc/u8log_u8x8.c ****     disp_x++;
  49:..\u8g2_csrc/u8log_u8x8.c ****   }
  50:..\u8g2_csrc/u8log_u8x8.c **** }
 481              		.loc 1 50 0
 482 0032 BDE8F883 		pop	{r3, r4, r5, r6, r7, r8, r9, pc}
 483              		.cfi_endproc
 484              	.LFE0:
 485              		.size	u8x8_DrawLogLine, .-u8x8_DrawLogLine
 486              		.section	.text.u8x8_DrawLog,"ax",%progbits
 487              		.align	1
 488              		.global	u8x8_DrawLog
 489              		.thumb
 490              		.thumb_func
 491              		.type	u8x8_DrawLog, %function
 492              	u8x8_DrawLog:
 493              	.LFB1:
  51:..\u8g2_csrc/u8log_u8x8.c **** 
  52:..\u8g2_csrc/u8log_u8x8.c **** void u8x8_DrawLog(u8x8_t *u8x8, uint8_t x, uint8_t y, u8log_t *u8log)
  53:..\u8g2_csrc/u8log_u8x8.c **** {
 494              		.loc 1 53 0
 495              		.cfi_startproc
 496              		@ args = 0, pretend = 0, frame = 0
 497              		@ frame_needed = 0, uses_anonymous_args = 0
 498              	.LVL6:
 499 0000 2DE9F341 		push	{r0, r1, r4, r5, r6, r7, r8, lr}
 500              		.cfi_def_cfa_offset 32
 501              		.cfi_offset 4, -24
 502              		.cfi_offset 5, -20
 503              		.cfi_offset 6, -16
 504              		.cfi_offset 7, -12
 505              		.cfi_offset 8, -8
 506              		.cfi_offset 14, -4
 507              		.loc 1 53 0
 508 0004 0746     		mov	r7, r0
 509 0006 8846     		mov	r8, r1
 510 0008 1646     		mov	r6, r2
 511 000a 1D46     		mov	r5, r3
  54:..\u8g2_csrc/u8log_u8x8.c ****   uint8_t buf_y;
  55:..\u8g2_csrc/u8log_u8x8.c ****   for( buf_y = 0; buf_y < u8log->height; buf_y++ )
 512              		.loc 1 55 0
 513 000c 0024     		movs	r4, #0
 514              	.LVL7:
 515              	.L7:
 516              		.loc 1 55 0 is_stmt 0 discriminator 1
ARM GAS  C:\Users\info\AppData\Local\Temp\ccD0teOG.s 			page 35


 517 000e 6979     		ldrb	r1, [r5, #5]	@ zero_extendqisi2
 518 0010 E3B2     		uxtb	r3, r4
 519 0012 F218     		adds	r2, r6, r3
 520 0014 9942     		cmp	r1, r3
 521 0016 D2B2     		uxtb	r2, r2
 522              	.LVL8:
 523 0018 04F10104 		add	r4, r4, #1
 524 001c 05D9     		bls	.L9
  56:..\u8g2_csrc/u8log_u8x8.c ****   {
  57:..\u8g2_csrc/u8log_u8x8.c ****     u8x8_DrawLogLine(u8x8, x, y, buf_y, u8log);
 525              		.loc 1 57 0 is_stmt 1 discriminator 3
 526 001e 0095     		str	r5, [sp]
 527 0020 4146     		mov	r1, r8
 528 0022 3846     		mov	r0, r7
 529 0024 FFF7FEFF 		bl	u8x8_DrawLogLine
 530              	.LVL9:
 531 0028 F1E7     		b	.L7
 532              	.LVL10:
 533              	.L9:
  58:..\u8g2_csrc/u8log_u8x8.c ****     y++;
  59:..\u8g2_csrc/u8log_u8x8.c ****   }
  60:..\u8g2_csrc/u8log_u8x8.c **** }
 534              		.loc 1 60 0
 535 002a 02B0     		add	sp, sp, #8
 536              		.cfi_def_cfa_offset 24
 537              		@ sp needed
 538 002c BDE8F081 		pop	{r4, r5, r6, r7, r8, pc}
 539              		.cfi_endproc
 540              	.LFE1:
 541              		.size	u8x8_DrawLog, .-u8x8_DrawLog
 542              		.section	.text.u8log_u8x8_cb,"ax",%progbits
 543              		.align	1
 544              		.global	u8log_u8x8_cb
 545              		.thumb
 546              		.thumb_func
 547              		.type	u8log_u8x8_cb, %function
 548              	u8log_u8x8_cb:
 549              	.LFB2:
  61:..\u8g2_csrc/u8log_u8x8.c **** 
  62:..\u8g2_csrc/u8log_u8x8.c **** 
  63:..\u8g2_csrc/u8log_u8x8.c **** void u8log_u8x8_cb(u8log_t * u8log)
  64:..\u8g2_csrc/u8log_u8x8.c **** {
 550              		.loc 1 64 0
 551              		.cfi_startproc
 552              		@ args = 0, pretend = 0, frame = 0
 553              		@ frame_needed = 0, uses_anonymous_args = 0
 554              	.LVL11:
 555 0000 0346     		mov	r3, r0
 556 0002 07B5     		push	{r0, r1, r2, lr}
 557              		.cfi_def_cfa_offset 16
 558              		.cfi_offset 14, -4
  65:..\u8g2_csrc/u8log_u8x8.c ****   u8x8_t *u8x8 = (u8x8_t *)(u8log->aux_data);
  66:..\u8g2_csrc/u8log_u8x8.c ****   if ( u8log->is_redraw_all )
 559              		.loc 1 66 0
 560 0004 997D     		ldrb	r1, [r3, #22]	@ zero_extendqisi2
  65:..\u8g2_csrc/u8log_u8x8.c ****   u8x8_t *u8x8 = (u8x8_t *)(u8log->aux_data);
 561              		.loc 1 65 0
ARM GAS  C:\Users\info\AppData\Local\Temp\ccD0teOG.s 			page 36


 562 0006 0068     		ldr	r0, [r0]
 563              	.LVL12:
 564              		.loc 1 66 0
 565 0008 31B1     		cbz	r1, .L11
  67:..\u8g2_csrc/u8log_u8x8.c ****   {
  68:..\u8g2_csrc/u8log_u8x8.c ****     u8x8_DrawLog(u8x8, 0, 0, u8log);
 566              		.loc 1 68 0
 567 000a 0022     		movs	r2, #0
 568 000c 1146     		mov	r1, r2
  69:..\u8g2_csrc/u8log_u8x8.c ****   }
  70:..\u8g2_csrc/u8log_u8x8.c ****   else if ( u8log->is_redraw_line )
  71:..\u8g2_csrc/u8log_u8x8.c ****   {
  72:..\u8g2_csrc/u8log_u8x8.c ****     u8x8_DrawLogLine(u8x8, 0, u8log->redraw_line, u8log->redraw_line, u8log);
  73:..\u8g2_csrc/u8log_u8x8.c ****   }
  74:..\u8g2_csrc/u8log_u8x8.c **** }
 569              		.loc 1 74 0
 570 000e 03B0     		add	sp, sp, #12
 571              		.cfi_remember_state
 572              		.cfi_def_cfa_offset 4
 573              		@ sp needed
 574 0010 5DF804EB 		ldr	lr, [sp], #4
 575              		.cfi_restore 14
 576              		.cfi_def_cfa_offset 0
  68:..\u8g2_csrc/u8log_u8x8.c ****   }
 577              		.loc 1 68 0
 578 0014 FFF7FEBF 		b	u8x8_DrawLog
 579              	.LVL13:
 580              	.L11:
 581              		.cfi_restore_state
  70:..\u8g2_csrc/u8log_u8x8.c ****   {
 582              		.loc 1 70 0
 583 0018 5A7D     		ldrb	r2, [r3, #21]	@ zero_extendqisi2
 584 001a 22B1     		cbz	r2, .L10
  72:..\u8g2_csrc/u8log_u8x8.c ****   }
 585              		.loc 1 72 0
 586 001c 1A7D     		ldrb	r2, [r3, #20]	@ zero_extendqisi2
 587 001e 0093     		str	r3, [sp]
 588 0020 1346     		mov	r3, r2
 589              	.LVL14:
 590 0022 FFF7FEFF 		bl	u8x8_DrawLogLine
 591              	.LVL15:
 592              	.L10:
 593              		.loc 1 74 0
 594 0026 03B0     		add	sp, sp, #12
 595              		.cfi_def_cfa_offset 4
 596              		@ sp needed
 597 0028 5DF804FB 		ldr	pc, [sp], #4
 598              		.cfi_endproc
 599              	.LFE2:
 600              		.size	u8log_u8x8_cb, .-u8log_u8x8_cb
 601              		.text
 602              	.Letext0:
 603              		.file 2 "c:\\program files (x86)\\cypress\\psoc creator\\4.2\\psoc creator\\import\\gnu\\arm\\5.4.
 604              		.file 3 "c:\\program files (x86)\\cypress\\psoc creator\\4.2\\psoc creator\\import\\gnu\\arm\\5.4.
 605              		.file 4 "..\\u8g2_csrc\\u8x8.h"