ARM GAS  C:\Users\info\AppData\Local\Temp\ccgAqIUu.s 			page 1


   1              		.syntax unified
   2              		.cpu cortex-m3
   3              		.fpu softvfp
   4              		.eabi_attribute 20, 1
   5              		.eabi_attribute 21, 1
   6              		.eabi_attribute 23, 3
   7              		.eabi_attribute 24, 1
   8              		.eabi_attribute 25, 1
   9              		.eabi_attribute 26, 1
  10              		.eabi_attribute 30, 2
  11              		.eabi_attribute 34, 1
  12              		.eabi_attribute 18, 4
  13              		.thumb
  14              		.syntax unified
  15              		.file	"u8log_u8g2.c"
  16              		.text
  17              	.Ltext0:
  18              		.cfi_sections	.debug_frame
  19              		.section	.text.u8g2_DrawLog,"ax",%progbits
  20              		.align	2
  21              		.global	u8g2_DrawLog
  22              		.thumb
  23              		.thumb_func
  24              		.type	u8g2_DrawLog, %function
  25              	u8g2_DrawLog:
  26              	.LFB0:
  27              		.file 1 "..\\u8g2-master\\csrc\\u8log_u8g2.c"
   1:..\u8g2-master\csrc/u8log_u8g2.c **** /*
   2:..\u8g2-master\csrc/u8log_u8g2.c **** 
   3:..\u8g2-master\csrc/u8log_u8g2.c ****   u8log_u8g2.c
   4:..\u8g2-master\csrc/u8log_u8g2.c ****   
   5:..\u8g2-master\csrc/u8log_u8g2.c **** 
   6:..\u8g2-master\csrc/u8log_u8g2.c ****   Universal 8bit Graphics Library (https://github.com/olikraus/u8g2/)
   7:..\u8g2-master\csrc/u8log_u8g2.c **** 
   8:..\u8g2-master\csrc/u8log_u8g2.c ****   Copyright (c) 2018, olikraus@gmail.com
   9:..\u8g2-master\csrc/u8log_u8g2.c ****   All rights reserved.
  10:..\u8g2-master\csrc/u8log_u8g2.c **** 
  11:..\u8g2-master\csrc/u8log_u8g2.c ****   Redistribution and use in source and binary forms, with or without modification, 
  12:..\u8g2-master\csrc/u8log_u8g2.c ****   are permitted provided that the following conditions are met:
  13:..\u8g2-master\csrc/u8log_u8g2.c **** 
  14:..\u8g2-master\csrc/u8log_u8g2.c ****   * Redistributions of source code must retain the above copyright notice, this list 
  15:..\u8g2-master\csrc/u8log_u8g2.c ****     of conditions and the following disclaimer.
  16:..\u8g2-master\csrc/u8log_u8g2.c ****     
  17:..\u8g2-master\csrc/u8log_u8g2.c ****   * Redistributions in binary form must reproduce the above copyright notice, this 
  18:..\u8g2-master\csrc/u8log_u8g2.c ****     list of conditions and the following disclaimer in the documentation and/or other 
  19:..\u8g2-master\csrc/u8log_u8g2.c ****     materials provided with the distribution.
  20:..\u8g2-master\csrc/u8log_u8g2.c **** 
  21:..\u8g2-master\csrc/u8log_u8g2.c ****   THIS SOFTWARE IS PROVIDED BY THE COPYRIGHT HOLDERS AND 
  22:..\u8g2-master\csrc/u8log_u8g2.c ****   CONTRIBUTORS "AS IS" AND ANY EXPRESS OR IMPLIED WARRANTIES, 
  23:..\u8g2-master\csrc/u8log_u8g2.c ****   INCLUDING, BUT NOT LIMITED TO, THE IMPLIED WARRANTIES OF 
  24:..\u8g2-master\csrc/u8log_u8g2.c ****   MERCHANTABILITY AND FITNESS FOR A PARTICULAR PURPOSE ARE 
  25:..\u8g2-master\csrc/u8log_u8g2.c ****   DISCLAIMED. IN NO EVENT SHALL THE COPYRIGHT HOLDER OR 
  26:..\u8g2-master\csrc/u8log_u8g2.c ****   CONTRIBUTORS BE LIABLE FOR ANY DIRECT, INDIRECT, INCIDENTAL, 
  27:..\u8g2-master\csrc/u8log_u8g2.c ****   SPECIAL, EXEMPLARY, OR CONSEQUENTIAL DAMAGES (INCLUDING, BUT 
  28:..\u8g2-master\csrc/u8log_u8g2.c ****   NOT LIMITED TO, PROCUREMENT OF SUBSTITUTE GOODS OR SERVICES; 
  29:..\u8g2-master\csrc/u8log_u8g2.c ****   LOSS OF USE, DATA, OR PROFITS; OR BUSINESS INTERRUPTION) HOWEVER 
  30:..\u8g2-master\csrc/u8log_u8g2.c ****   CAUSED AND ON ANY THEORY OF LIABILITY, WHETHER IN CONTRACT, 
ARM GAS  C:\Users\info\AppData\Local\Temp\ccgAqIUu.s 			page 2


  31:..\u8g2-master\csrc/u8log_u8g2.c ****   STRICT LIABILITY, OR TORT (INCLUDING NEGLIGENCE OR OTHERWISE) 
  32:..\u8g2-master\csrc/u8log_u8g2.c ****   ARISING IN ANY WAY OUT OF THE USE OF THIS SOFTWARE, EVEN IF 
  33:..\u8g2-master\csrc/u8log_u8g2.c ****   ADVISED OF THE POSSIBILITY OF SUCH DAMAGE.  
  34:..\u8g2-master\csrc/u8log_u8g2.c **** 
  35:..\u8g2-master\csrc/u8log_u8g2.c **** */
  36:..\u8g2-master\csrc/u8log_u8g2.c **** 
  37:..\u8g2-master\csrc/u8log_u8g2.c **** #include "u8g2.h"
  38:..\u8g2-master\csrc/u8log_u8g2.c **** /*
  39:..\u8g2-master\csrc/u8log_u8g2.c ****   Draw the u8log text at the specified x/y position.
  40:..\u8g2-master\csrc/u8log_u8g2.c ****   x/y position is the reference position of the first char of the first line.
  41:..\u8g2-master\csrc/u8log_u8g2.c ****   the line height is 
  42:..\u8g2-master\csrc/u8log_u8g2.c ****     u8g2_GetAscent(u8g2) - u8g2_GetDescent(u8g2) + line_height_offset;
  43:..\u8g2-master\csrc/u8log_u8g2.c ****   line_height_offset can be set with u8log_SetLineHeightOffset()
  44:..\u8g2-master\csrc/u8log_u8g2.c ****   Use
  45:..\u8g2-master\csrc/u8log_u8g2.c ****     u8g2_SetFontRefHeightText(u8g2_t *u8g2);
  46:..\u8g2-master\csrc/u8log_u8g2.c ****     u8g2_SetFontRefHeightExtendedText(u8g2_t *u8g2);
  47:..\u8g2-master\csrc/u8log_u8g2.c ****     u8g2_SetFontRefHeightAll(u8g2_t *u8g2);
  48:..\u8g2-master\csrc/u8log_u8g2.c ****   to change the return values for u8g2_GetAscent and u8g2_GetDescent
  49:..\u8g2-master\csrc/u8log_u8g2.c **** 
  50:..\u8g2-master\csrc/u8log_u8g2.c **** */
  51:..\u8g2-master\csrc/u8log_u8g2.c **** void u8g2_DrawLog(u8g2_t *u8g2, u8g2_uint_t x, u8g2_uint_t y, u8log_t *u8log)
  52:..\u8g2-master\csrc/u8log_u8g2.c **** {
  28              		.loc 1 52 0
  29              		.cfi_startproc
  30              		@ args = 0, pretend = 0, frame = 0
  31              		@ frame_needed = 0, uses_anonymous_args = 0
  32              	.LVL0:
  33 0000 2DE9F047 		push	{r4, r5, r6, r7, r8, r9, r10, lr}
  34              		.cfi_def_cfa_offset 32
  35              		.cfi_offset 4, -32
  36              		.cfi_offset 5, -28
  37              		.cfi_offset 6, -24
  38              		.cfi_offset 7, -20
  39              		.cfi_offset 8, -16
  40              		.cfi_offset 9, -12
  41              		.cfi_offset 10, -8
  42              		.cfi_offset 14, -4
  43              		.loc 1 52 0
  44 0004 1E46     		mov	r6, r3
  45 0006 8A46     		mov	r10, r1
  53:..\u8g2-master\csrc/u8log_u8g2.c ****   u8g2_uint_t disp_x, disp_y;
  54:..\u8g2-master\csrc/u8log_u8g2.c ****   uint8_t buf_x, buf_y;
  55:..\u8g2-master\csrc/u8log_u8g2.c ****   uint8_t c;
  56:..\u8g2-master\csrc/u8log_u8g2.c ****   
  57:..\u8g2-master\csrc/u8log_u8g2.c ****   disp_y = y;  
  58:..\u8g2-master\csrc/u8log_u8g2.c ****   u8g2_SetFontDirection(u8g2, 0);
  46              		.loc 1 58 0
  47 0008 0021     		movs	r1, #0
  48              	.LVL1:
  52:..\u8g2-master\csrc/u8log_u8g2.c ****   u8g2_uint_t disp_x, disp_y;
  49              		.loc 1 52 0
  50 000a 8046     		mov	r8, r0
  51 000c 9146     		mov	r9, r2
  52              	.LVL2:
  53              		.loc 1 58 0
  54 000e FFF7FEFF 		bl	u8g2_SetFontDirection
  55              	.LVL3:
ARM GAS  C:\Users\info\AppData\Local\Temp\ccgAqIUu.s 			page 3


  59:..\u8g2-master\csrc/u8log_u8g2.c ****   for( buf_y = 0; buf_y < u8log->height; buf_y++ )
  56              		.loc 1 59 0
  57 0012 7079     		ldrb	r0, [r6, #5]	@ zero_extendqisi2
  58 0014 18B3     		cbz	r0, .L1
  59 0016 3179     		ldrb	r1, [r6, #4]	@ zero_extendqisi2
  60 0018 0027     		movs	r7, #0
  61              	.LVL4:
  62              	.L3:
  60:..\u8g2-master\csrc/u8log_u8g2.c ****   {
  61:..\u8g2-master\csrc/u8log_u8g2.c ****     disp_x = x;
  62:..\u8g2-master\csrc/u8log_u8g2.c ****     for( buf_x = 0; buf_x < u8log->width; buf_x++ )
  63              		.loc 1 62 0 discriminator 1
  64 001a 91B1     		cbz	r1, .L5
  65              		.loc 1 62 0 is_stmt 0
  66 001c 5546     		mov	r5, r10
  67 001e 0024     		movs	r4, #0
  68              	.LVL5:
  69              	.L4:
  63:..\u8g2-master\csrc/u8log_u8g2.c ****     {
  64:..\u8g2-master\csrc/u8log_u8g2.c ****       c = u8log->screen_buffer[buf_y * u8log->width + buf_x];
  70              		.loc 1 64 0 is_stmt 1 discriminator 3
  71 0020 F368     		ldr	r3, [r6, #12]
  65:..\u8g2-master\csrc/u8log_u8g2.c ****       disp_x += u8g2_DrawGlyph(u8g2, disp_x, disp_y, c);
  72              		.loc 1 65 0 discriminator 3
  73 0022 4A46     		mov	r2, r9
  64:..\u8g2-master\csrc/u8log_u8g2.c ****       disp_x += u8g2_DrawGlyph(u8g2, disp_x, disp_y, c);
  74              		.loc 1 64 0 discriminator 3
  75 0024 07FB0133 		mla	r3, r7, r1, r3
  76              		.loc 1 65 0 discriminator 3
  77 0028 4046     		mov	r0, r8
  78 002a 2946     		mov	r1, r5
  79              	.LVL6:
  80 002c 1B5D     		ldrb	r3, [r3, r4]	@ zero_extendqisi2
  81 002e FFF7FEFF 		bl	u8g2_DrawGlyph
  82              	.LVL7:
  62:..\u8g2-master\csrc/u8log_u8g2.c ****     {
  83              		.loc 1 62 0 discriminator 3
  84 0032 0134     		adds	r4, r4, #1
  85              	.LVL8:
  86 0034 3179     		ldrb	r1, [r6, #4]	@ zero_extendqisi2
  87 0036 E4B2     		uxtb	r4, r4
  88              		.loc 1 65 0 discriminator 3
  89 0038 2844     		add	r0, r0, r5
  62:..\u8g2-master\csrc/u8log_u8g2.c ****     {
  90              		.loc 1 62 0 discriminator 3
  91 003a A142     		cmp	r1, r4
  92              		.loc 1 65 0 discriminator 3
  93 003c C5B2     		uxtb	r5, r0
  94              	.LVL9:
  62:..\u8g2-master\csrc/u8log_u8g2.c ****     {
  95              		.loc 1 62 0 discriminator 3
  96 003e EFD8     		bhi	.L4
  97 0040 7079     		ldrb	r0, [r6, #5]	@ zero_extendqisi2
  98              	.LVL10:
  99              	.L5:
  66:..\u8g2-master\csrc/u8log_u8g2.c ****     }
  67:..\u8g2-master\csrc/u8log_u8g2.c ****     disp_y += u8g2_GetAscent(u8g2) - u8g2_GetDescent(u8g2);
ARM GAS  C:\Users\info\AppData\Local\Temp\ccgAqIUu.s 			page 4


  68:..\u8g2-master\csrc/u8log_u8g2.c ****     disp_y += u8log->line_height_offset;
 100              		.loc 1 68 0 discriminator 2
 101 0042 98F88230 		ldrb	r3, [r8, #130]	@ zero_extendqisi2
 102 0046 727C     		ldrb	r2, [r6, #17]	@ zero_extendqisi2
 103 0048 98F88340 		ldrb	r4, [r8, #131]	@ zero_extendqisi2
 104 004c 1344     		add	r3, r3, r2
  59:..\u8g2-master\csrc/u8log_u8g2.c ****   {
 105              		.loc 1 59 0 discriminator 2
 106 004e 0137     		adds	r7, r7, #1
 107              	.LVL11:
 108              		.loc 1 68 0 discriminator 2
 109 0050 1B1B     		subs	r3, r3, r4
  59:..\u8g2-master\csrc/u8log_u8g2.c ****   {
 110              		.loc 1 59 0 discriminator 2
 111 0052 FFB2     		uxtb	r7, r7
 112              		.loc 1 68 0 discriminator 2
 113 0054 9944     		add	r9, r9, r3
 114              	.LVL12:
  59:..\u8g2-master\csrc/u8log_u8g2.c ****   {
 115              		.loc 1 59 0 discriminator 2
 116 0056 8742     		cmp	r7, r0
 117              		.loc 1 68 0 discriminator 2
 118 0058 5FFA89F9 		uxtb	r9, r9
 119              	.LVL13:
  59:..\u8g2-master\csrc/u8log_u8g2.c ****   {
 120              		.loc 1 59 0 discriminator 2
 121 005c DDD3     		bcc	.L3
 122              	.LVL14:
 123              	.L1:
 124 005e BDE8F087 		pop	{r4, r5, r6, r7, r8, r9, r10, pc}
 125              		.cfi_endproc
 126              	.LFE0:
 127              		.size	u8g2_DrawLog, .-u8g2_DrawLog
 128 0062 00BF     		.section	.text.u8log_u8g2_cb,"ax",%progbits
 129              		.align	2
 130              		.global	u8log_u8g2_cb
 131              		.thumb
 132              		.thumb_func
 133              		.type	u8log_u8g2_cb, %function
 134              	u8log_u8g2_cb:
 135              	.LFB1:
  69:..\u8g2-master\csrc/u8log_u8g2.c ****   }
  70:..\u8g2-master\csrc/u8log_u8g2.c **** }
  71:..\u8g2-master\csrc/u8log_u8g2.c **** 
  72:..\u8g2-master\csrc/u8log_u8g2.c **** /*
  73:..\u8g2-master\csrc/u8log_u8g2.c ****   u8lib callback for u8g2
  74:..\u8g2-master\csrc/u8log_u8g2.c ****   
  75:..\u8g2-master\csrc/u8log_u8g2.c ****   Only font direction 0 is supported: u8g2_SetFontDirection(u8g2, 0)
  76:..\u8g2-master\csrc/u8log_u8g2.c ****   Use
  77:..\u8g2-master\csrc/u8log_u8g2.c ****     u8g2_SetFontRefHeightText(u8g2_t *u8g2);
  78:..\u8g2-master\csrc/u8log_u8g2.c ****     u8g2_SetFontRefHeightExtendedText(u8g2_t *u8g2);
  79:..\u8g2-master\csrc/u8log_u8g2.c ****     u8g2_SetFontRefHeightAll(u8g2_t *u8g2);
  80:..\u8g2-master\csrc/u8log_u8g2.c ****   to change the top offset and the line height and
  81:..\u8g2-master\csrc/u8log_u8g2.c ****     u8log_SetLineHeightOffset(u8log_t *u8log, int8_t line_height_offset)
  82:..\u8g2-master\csrc/u8log_u8g2.c ****   to change the line height.
  83:..\u8g2-master\csrc/u8log_u8g2.c ****   
  84:..\u8g2-master\csrc/u8log_u8g2.c **** */
ARM GAS  C:\Users\info\AppData\Local\Temp\ccgAqIUu.s 			page 5


  85:..\u8g2-master\csrc/u8log_u8g2.c **** void u8log_u8g2_cb(u8log_t * u8log)
  86:..\u8g2-master\csrc/u8log_u8g2.c **** {
 136              		.loc 1 86 0
 137              		.cfi_startproc
 138              		@ args = 0, pretend = 0, frame = 0
 139              		@ frame_needed = 0, uses_anonymous_args = 0
 140              	.LVL15:
 141 0000 2DE9F843 		push	{r3, r4, r5, r6, r7, r8, r9, lr}
 142              		.cfi_def_cfa_offset 32
 143              		.cfi_offset 3, -32
 144              		.cfi_offset 4, -28
 145              		.cfi_offset 5, -24
 146              		.cfi_offset 6, -20
 147              		.cfi_offset 7, -16
 148              		.cfi_offset 8, -12
 149              		.cfi_offset 9, -8
 150              		.cfi_offset 14, -4
  87:..\u8g2-master\csrc/u8log_u8g2.c ****   u8g2_t *u8g2 = (u8g2_t *)(u8log->aux_data);
  88:..\u8g2-master\csrc/u8log_u8g2.c ****   if ( u8log->is_redraw_line || u8log->is_redraw_all )
 151              		.loc 1 88 0
 152 0004 4369     		ldr	r3, [r0, #20]
 153 0006 23F07F43 		bic	r3, r3, #-16777216
 154 000a 23F0FF03 		bic	r3, r3, #255
 155 000e 0BB9     		cbnz	r3, .L32
 156 0010 BDE8F883 		pop	{r3, r4, r5, r6, r7, r8, r9, pc}
 157              	.L32:
  87:..\u8g2-master\csrc/u8log_u8g2.c ****   u8g2_t *u8g2 = (u8g2_t *)(u8log->aux_data);
 158              		.loc 1 87 0
 159 0014 D0F80080 		ldr	r8, [r0]
 160 0018 0646     		mov	r6, r0
  89:..\u8g2-master\csrc/u8log_u8g2.c ****   {
  90:..\u8g2-master\csrc/u8log_u8g2.c ****     u8g2_FirstPage(u8g2);
 161              		.loc 1 90 0
 162 001a 4046     		mov	r0, r8
 163              	.LVL16:
 164 001c FFF7FEFF 		bl	u8g2_FirstPage
 165              	.LVL17:
 166              	.L21:
 167              	.LBB4:
 168              	.LBB5:
  58:..\u8g2-master\csrc/u8log_u8g2.c ****   for( buf_y = 0; buf_y < u8log->height; buf_y++ )
 169              		.loc 1 58 0 discriminator 1
 170 0020 4046     		mov	r0, r8
 171 0022 0021     		movs	r1, #0
 172              	.LBE5:
 173              	.LBE4:
  91:..\u8g2-master\csrc/u8log_u8g2.c ****     do
  92:..\u8g2-master\csrc/u8log_u8g2.c ****     {
  93:..\u8g2-master\csrc/u8log_u8g2.c ****       u8g2_DrawLog( u8g2, 0, u8g2_GetAscent(u8g2), u8log);
 174              		.loc 1 93 0 discriminator 1
 175 0024 98F88290 		ldrb	r9, [r8, #130]	@ zero_extendqisi2
 176              	.LVL18:
 177              	.LBB7:
 178              	.LBB6:
  58:..\u8g2-master\csrc/u8log_u8g2.c ****   for( buf_y = 0; buf_y < u8log->height; buf_y++ )
 179              		.loc 1 58 0 discriminator 1
 180 0028 FFF7FEFF 		bl	u8g2_SetFontDirection
ARM GAS  C:\Users\info\AppData\Local\Temp\ccgAqIUu.s 			page 6


 181              	.LVL19:
  59:..\u8g2-master\csrc/u8log_u8g2.c ****   {
 182              		.loc 1 59 0 discriminator 1
 183 002c 7079     		ldrb	r0, [r6, #5]	@ zero_extendqisi2
 184 002e 18B3     		cbz	r0, .L17
 185 0030 3179     		ldrb	r1, [r6, #4]	@ zero_extendqisi2
  59:..\u8g2-master\csrc/u8log_u8g2.c ****   {
 186              		.loc 1 59 0 is_stmt 0
 187 0032 0027     		movs	r7, #0
 188              	.LVL20:
 189              	.L18:
  62:..\u8g2-master\csrc/u8log_u8g2.c ****     {
 190              		.loc 1 62 0 is_stmt 1
 191 0034 91B1     		cbz	r1, .L20
 192 0036 0025     		movs	r5, #0
 193 0038 2C46     		mov	r4, r5
 194              	.LVL21:
 195              	.L19:
  64:..\u8g2-master\csrc/u8log_u8g2.c ****       disp_x += u8g2_DrawGlyph(u8g2, disp_x, disp_y, c);
 196              		.loc 1 64 0
 197 003a F368     		ldr	r3, [r6, #12]
  65:..\u8g2-master\csrc/u8log_u8g2.c ****     }
 198              		.loc 1 65 0
 199 003c 4A46     		mov	r2, r9
  64:..\u8g2-master\csrc/u8log_u8g2.c ****       disp_x += u8g2_DrawGlyph(u8g2, disp_x, disp_y, c);
 200              		.loc 1 64 0
 201 003e 07FB0133 		mla	r3, r7, r1, r3
  65:..\u8g2-master\csrc/u8log_u8g2.c ****     }
 202              		.loc 1 65 0
 203 0042 4046     		mov	r0, r8
 204 0044 2946     		mov	r1, r5
 205              	.LVL22:
 206 0046 1B5D     		ldrb	r3, [r3, r4]	@ zero_extendqisi2
 207 0048 FFF7FEFF 		bl	u8g2_DrawGlyph
 208              	.LVL23:
  62:..\u8g2-master\csrc/u8log_u8g2.c ****     {
 209              		.loc 1 62 0
 210 004c 0134     		adds	r4, r4, #1
 211              	.LVL24:
 212 004e 3179     		ldrb	r1, [r6, #4]	@ zero_extendqisi2
 213 0050 E4B2     		uxtb	r4, r4
  65:..\u8g2-master\csrc/u8log_u8g2.c ****     }
 214              		.loc 1 65 0
 215 0052 2844     		add	r0, r0, r5
  62:..\u8g2-master\csrc/u8log_u8g2.c ****     {
 216              		.loc 1 62 0
 217 0054 A142     		cmp	r1, r4
  65:..\u8g2-master\csrc/u8log_u8g2.c ****     }
 218              		.loc 1 65 0
 219 0056 C5B2     		uxtb	r5, r0
 220              	.LVL25:
  62:..\u8g2-master\csrc/u8log_u8g2.c ****     {
 221              		.loc 1 62 0
 222 0058 EFD8     		bhi	.L19
 223 005a 7079     		ldrb	r0, [r6, #5]	@ zero_extendqisi2
 224              	.LVL26:
 225              	.L20:
ARM GAS  C:\Users\info\AppData\Local\Temp\ccgAqIUu.s 			page 7


  68:..\u8g2-master\csrc/u8log_u8g2.c ****   }
 226              		.loc 1 68 0
 227 005c 98F88230 		ldrb	r3, [r8, #130]	@ zero_extendqisi2
 228 0060 727C     		ldrb	r2, [r6, #17]	@ zero_extendqisi2
 229 0062 98F88340 		ldrb	r4, [r8, #131]	@ zero_extendqisi2
 230 0066 1344     		add	r3, r3, r2
  59:..\u8g2-master\csrc/u8log_u8g2.c ****   {
 231              		.loc 1 59 0
 232 0068 0137     		adds	r7, r7, #1
 233              	.LVL27:
  68:..\u8g2-master\csrc/u8log_u8g2.c ****   }
 234              		.loc 1 68 0
 235 006a 1B1B     		subs	r3, r3, r4
  59:..\u8g2-master\csrc/u8log_u8g2.c ****   {
 236              		.loc 1 59 0
 237 006c FFB2     		uxtb	r7, r7
  68:..\u8g2-master\csrc/u8log_u8g2.c ****   }
 238              		.loc 1 68 0
 239 006e 9944     		add	r9, r9, r3
 240              	.LVL28:
  59:..\u8g2-master\csrc/u8log_u8g2.c ****   {
 241              		.loc 1 59 0
 242 0070 8742     		cmp	r7, r0
  68:..\u8g2-master\csrc/u8log_u8g2.c ****   }
 243              		.loc 1 68 0
 244 0072 5FFA89F9 		uxtb	r9, r9
 245              	.LVL29:
  59:..\u8g2-master\csrc/u8log_u8g2.c ****   {
 246              		.loc 1 59 0
 247 0076 DDD3     		bcc	.L18
 248              	.LVL30:
 249              	.L17:
 250              	.LBE6:
 251              	.LBE7:
  94:..\u8g2-master\csrc/u8log_u8g2.c ****     }
  95:..\u8g2-master\csrc/u8log_u8g2.c ****     while( u8g2_NextPage(u8g2) );
 252              		.loc 1 95 0
 253 0078 4046     		mov	r0, r8
 254 007a FFF7FEFF 		bl	u8g2_NextPage
 255              	.LVL31:
 256 007e 0028     		cmp	r0, #0
 257 0080 CED1     		bne	.L21
 258 0082 BDE8F883 		pop	{r3, r4, r5, r6, r7, r8, r9, pc}
 259              		.cfi_endproc
 260              	.LFE1:
 261              		.size	u8log_u8g2_cb, .-u8log_u8g2_cb
 262 0086 00BF     		.text
 263              	.Letext0:
 264              		.file 2 "c:\\program files (x86)\\cypress\\psoc creator\\4.2\\psoc creator\\import\\gnu\\arm\\5.4.
 265              		.file 3 "c:\\program files (x86)\\cypress\\psoc creator\\4.2\\psoc creator\\import\\gnu\\arm\\5.4.
 266              		.file 4 "..\\u8g2-master\\csrc\\u8x8.h"
 267              		.file 5 "..\\u8g2-master\\csrc\\u8g2.h"