ARM GAS  C:\Users\info\AppData\Local\Temp\cchQo10v.s 			page 1


   1              		.syntax unified
   2              		.cpu cortex-m3
   3              		.fpu softvfp
   4              		.eabi_attribute 20, 1
   5              		.eabi_attribute 21, 1
   6              		.eabi_attribute 23, 3
   7              		.eabi_attribute 24, 1
   8              		.eabi_attribute 25, 1
   9              		.eabi_attribute 26, 1
  10              		.eabi_attribute 30, 2
  11              		.eabi_attribute 34, 1
  12              		.eabi_attribute 18, 4
  13              		.thumb
  14              		.syntax unified
  15              		.file	"u8x8_d_ssd1322.c"
  16              		.text
  17              	.Ltext0:
  18              		.cfi_sections	.debug_frame
  19              		.section	.text.u8x8_d_ssd1322_common,"ax",%progbits
  20              		.align	2
  21              		.global	u8x8_d_ssd1322_common
  22              		.thumb
  23              		.thumb_func
  24              		.type	u8x8_d_ssd1322_common, %function
  25              	u8x8_d_ssd1322_common:
  26              	.LFB2:
  27              		.file 1 "..\\u8g2-master\\csrc\\u8x8_d_ssd1322.c"
   1:..\u8g2-master\csrc/u8x8_d_ssd1322.c **** /*
   2:..\u8g2-master\csrc/u8x8_d_ssd1322.c **** 
   3:..\u8g2-master\csrc/u8x8_d_ssd1322.c ****   u8x8_d_ssd1322.c
   4:..\u8g2-master\csrc/u8x8_d_ssd1322.c ****   
   5:..\u8g2-master\csrc/u8x8_d_ssd1322.c ****   Universal 8bit Graphics Library (https://github.com/olikraus/u8g2/)
   6:..\u8g2-master\csrc/u8x8_d_ssd1322.c **** 
   7:..\u8g2-master\csrc/u8x8_d_ssd1322.c ****   Copyright (c) 2016, olikraus@gmail.com
   8:..\u8g2-master\csrc/u8x8_d_ssd1322.c ****   All rights reserved.
   9:..\u8g2-master\csrc/u8x8_d_ssd1322.c **** 
  10:..\u8g2-master\csrc/u8x8_d_ssd1322.c ****   Redistribution and use in source and binary forms, with or without modification, 
  11:..\u8g2-master\csrc/u8x8_d_ssd1322.c ****   are permitted provided that the following conditions are met:
  12:..\u8g2-master\csrc/u8x8_d_ssd1322.c **** 
  13:..\u8g2-master\csrc/u8x8_d_ssd1322.c ****   * Redistributions of source code must retain the above copyright notice, this list 
  14:..\u8g2-master\csrc/u8x8_d_ssd1322.c ****     of conditions and the following disclaimer.
  15:..\u8g2-master\csrc/u8x8_d_ssd1322.c ****     
  16:..\u8g2-master\csrc/u8x8_d_ssd1322.c ****   * Redistributions in binary form must reproduce the above copyright notice, this 
  17:..\u8g2-master\csrc/u8x8_d_ssd1322.c ****     list of conditions and the following disclaimer in the documentation and/or other 
  18:..\u8g2-master\csrc/u8x8_d_ssd1322.c ****     materials provided with the distribution.
  19:..\u8g2-master\csrc/u8x8_d_ssd1322.c **** 
  20:..\u8g2-master\csrc/u8x8_d_ssd1322.c ****   THIS SOFTWARE IS PROVIDED BY THE COPYRIGHT HOLDERS AND 
  21:..\u8g2-master\csrc/u8x8_d_ssd1322.c ****   CONTRIBUTORS "AS IS" AND ANY EXPRESS OR IMPLIED WARRANTIES, 
  22:..\u8g2-master\csrc/u8x8_d_ssd1322.c ****   INCLUDING, BUT NOT LIMITED TO, THE IMPLIED WARRANTIES OF 
  23:..\u8g2-master\csrc/u8x8_d_ssd1322.c ****   MERCHANTABILITY AND FITNESS FOR A PARTICULAR PURPOSE ARE 
  24:..\u8g2-master\csrc/u8x8_d_ssd1322.c ****   DISCLAIMED. IN NO EVENT SHALL THE COPYRIGHT HOLDER OR 
  25:..\u8g2-master\csrc/u8x8_d_ssd1322.c ****   CONTRIBUTORS BE LIABLE FOR ANY DIRECT, INDIRECT, INCIDENTAL, 
  26:..\u8g2-master\csrc/u8x8_d_ssd1322.c ****   SPECIAL, EXEMPLARY, OR CONSEQUENTIAL DAMAGES (INCLUDING, BUT 
  27:..\u8g2-master\csrc/u8x8_d_ssd1322.c ****   NOT LIMITED TO, PROCUREMENT OF SUBSTITUTE GOODS OR SERVICES; 
  28:..\u8g2-master\csrc/u8x8_d_ssd1322.c ****   LOSS OF USE, DATA, OR PROFITS; OR BUSINESS INTERRUPTION) HOWEVER 
  29:..\u8g2-master\csrc/u8x8_d_ssd1322.c ****   CAUSED AND ON ANY THEORY OF LIABILITY, WHETHER IN CONTRACT, 
  30:..\u8g2-master\csrc/u8x8_d_ssd1322.c ****   STRICT LIABILITY, OR TORT (INCLUDING NEGLIGENCE OR OTHERWISE) 
ARM GAS  C:\Users\info\AppData\Local\Temp\cchQo10v.s 			page 2


  31:..\u8g2-master\csrc/u8x8_d_ssd1322.c ****   ARISING IN ANY WAY OUT OF THE USE OF THIS SOFTWARE, EVEN IF 
  32:..\u8g2-master\csrc/u8x8_d_ssd1322.c ****   ADVISED OF THE POSSIBILITY OF SUCH DAMAGE.  
  33:..\u8g2-master\csrc/u8x8_d_ssd1322.c **** 
  34:..\u8g2-master\csrc/u8x8_d_ssd1322.c **** 
  35:..\u8g2-master\csrc/u8x8_d_ssd1322.c ****   SSD1322: 
  36:..\u8g2-master\csrc/u8x8_d_ssd1322.c ****     480 x 128 dot matrix
  37:..\u8g2-master\csrc/u8x8_d_ssd1322.c ****     16 gray scale
  38:..\u8g2-master\csrc/u8x8_d_ssd1322.c ****   
  39:..\u8g2-master\csrc/u8x8_d_ssd1322.c ****   
  40:..\u8g2-master\csrc/u8x8_d_ssd1322.c **** */
  41:..\u8g2-master\csrc/u8x8_d_ssd1322.c **** #include "u8x8.h"
  42:..\u8g2-master\csrc/u8x8_d_ssd1322.c **** 
  43:..\u8g2-master\csrc/u8x8_d_ssd1322.c **** 
  44:..\u8g2-master\csrc/u8x8_d_ssd1322.c **** 
  45:..\u8g2-master\csrc/u8x8_d_ssd1322.c **** 
  46:..\u8g2-master\csrc/u8x8_d_ssd1322.c **** static const uint8_t u8x8_d_ssd1322_powersave0_seq[] = {
  47:..\u8g2-master\csrc/u8x8_d_ssd1322.c ****   U8X8_START_TRANSFER(),             	/* enable chip, delay is part of the transfer start */
  48:..\u8g2-master\csrc/u8x8_d_ssd1322.c ****   U8X8_C(0x0af),		                /* ssd1322: display on */
  49:..\u8g2-master\csrc/u8x8_d_ssd1322.c ****   U8X8_END_TRANSFER(),             	/* disable chip */
  50:..\u8g2-master\csrc/u8x8_d_ssd1322.c ****   U8X8_END()             			/* end of sequence */
  51:..\u8g2-master\csrc/u8x8_d_ssd1322.c **** };
  52:..\u8g2-master\csrc/u8x8_d_ssd1322.c **** 
  53:..\u8g2-master\csrc/u8x8_d_ssd1322.c **** static const uint8_t u8x8_d_ssd1322_powersave1_seq[] = {
  54:..\u8g2-master\csrc/u8x8_d_ssd1322.c ****   U8X8_START_TRANSFER(),             	/* enable chip, delay is part of the transfer start */
  55:..\u8g2-master\csrc/u8x8_d_ssd1322.c ****   U8X8_C(0x0ae),		                /* ssd1322: display off */
  56:..\u8g2-master\csrc/u8x8_d_ssd1322.c ****   U8X8_END_TRANSFER(),             	/* disable chip */
  57:..\u8g2-master\csrc/u8x8_d_ssd1322.c ****   U8X8_END()             			/* end of sequence */
  58:..\u8g2-master\csrc/u8x8_d_ssd1322.c **** };
  59:..\u8g2-master\csrc/u8x8_d_ssd1322.c **** 
  60:..\u8g2-master\csrc/u8x8_d_ssd1322.c **** 
  61:..\u8g2-master\csrc/u8x8_d_ssd1322.c **** 
  62:..\u8g2-master\csrc/u8x8_d_ssd1322.c **** /* interpret b as a monochrome bit pattern, write value 15 for high bit and value 0 for a low bit *
  63:..\u8g2-master\csrc/u8x8_d_ssd1322.c **** /* topbit (msb) is sent last */
  64:..\u8g2-master\csrc/u8x8_d_ssd1322.c **** /* example: b = 0x083 will send 0xff, 0x00, 0x00, 0xf0 */
  65:..\u8g2-master\csrc/u8x8_d_ssd1322.c **** 
  66:..\u8g2-master\csrc/u8x8_d_ssd1322.c **** /* 4 Jan 2017: I think this procedure not required any more. Delete? */
  67:..\u8g2-master\csrc/u8x8_d_ssd1322.c **** /*
  68:..\u8g2-master\csrc/u8x8_d_ssd1322.c **** static uint8_t u8x8_write_byte_to_16gr_device(u8x8_t *u8x8, uint8_t b)
  69:..\u8g2-master\csrc/u8x8_d_ssd1322.c **** {
  70:..\u8g2-master\csrc/u8x8_d_ssd1322.c ****   static uint8_t buf[4];
  71:..\u8g2-master\csrc/u8x8_d_ssd1322.c ****   static uint8_t map[4] = { 0, 0x00f, 0x0f0, 0x0ff };
  72:..\u8g2-master\csrc/u8x8_d_ssd1322.c ****   buf [3] = map[b & 3];
  73:..\u8g2-master\csrc/u8x8_d_ssd1322.c ****   b>>=2;
  74:..\u8g2-master\csrc/u8x8_d_ssd1322.c ****   buf [2] = map[b & 3];
  75:..\u8g2-master\csrc/u8x8_d_ssd1322.c ****   b>>=2;
  76:..\u8g2-master\csrc/u8x8_d_ssd1322.c ****   buf [1] = map[b & 3];
  77:..\u8g2-master\csrc/u8x8_d_ssd1322.c ****   b>>=2;
  78:..\u8g2-master\csrc/u8x8_d_ssd1322.c ****   buf [0] = map[b & 3];
  79:..\u8g2-master\csrc/u8x8_d_ssd1322.c ****   return u8x8_cad_SendData(u8x8, 4, buf);
  80:..\u8g2-master\csrc/u8x8_d_ssd1322.c **** }
  81:..\u8g2-master\csrc/u8x8_d_ssd1322.c **** */
  82:..\u8g2-master\csrc/u8x8_d_ssd1322.c **** 
  83:..\u8g2-master\csrc/u8x8_d_ssd1322.c **** 
  84:..\u8g2-master\csrc/u8x8_d_ssd1322.c **** /*
  85:..\u8g2-master\csrc/u8x8_d_ssd1322.c ****   input:
  86:..\u8g2-master\csrc/u8x8_d_ssd1322.c ****     one tile (8 Bytes)
  87:..\u8g2-master\csrc/u8x8_d_ssd1322.c ****   output:
ARM GAS  C:\Users\info\AppData\Local\Temp\cchQo10v.s 			page 3


  88:..\u8g2-master\csrc/u8x8_d_ssd1322.c ****     Tile for SSD1325 (32 Bytes)
  89:..\u8g2-master\csrc/u8x8_d_ssd1322.c **** */
  90:..\u8g2-master\csrc/u8x8_d_ssd1322.c **** 
  91:..\u8g2-master\csrc/u8x8_d_ssd1322.c **** static uint8_t u8x8_ssd1322_to32_dest_buf[32];
  92:..\u8g2-master\csrc/u8x8_d_ssd1322.c **** 
  93:..\u8g2-master\csrc/u8x8_d_ssd1322.c **** static uint8_t *u8x8_ssd1322_8to32(U8X8_UNUSED u8x8_t *u8x8, uint8_t *ptr)
  94:..\u8g2-master\csrc/u8x8_d_ssd1322.c **** {
  95:..\u8g2-master\csrc/u8x8_d_ssd1322.c ****   uint8_t v;
  96:..\u8g2-master\csrc/u8x8_d_ssd1322.c ****   uint8_t a,b;
  97:..\u8g2-master\csrc/u8x8_d_ssd1322.c ****   uint8_t i, j;
  98:..\u8g2-master\csrc/u8x8_d_ssd1322.c ****   uint8_t *dest;
  99:..\u8g2-master\csrc/u8x8_d_ssd1322.c ****   
 100:..\u8g2-master\csrc/u8x8_d_ssd1322.c ****   for( j = 0; j < 4; j++ )
 101:..\u8g2-master\csrc/u8x8_d_ssd1322.c ****   {
 102:..\u8g2-master\csrc/u8x8_d_ssd1322.c ****     dest = u8x8_ssd1322_to32_dest_buf;
 103:..\u8g2-master\csrc/u8x8_d_ssd1322.c ****     dest += j;
 104:..\u8g2-master\csrc/u8x8_d_ssd1322.c ****     a =*ptr;
 105:..\u8g2-master\csrc/u8x8_d_ssd1322.c ****     ptr++;
 106:..\u8g2-master\csrc/u8x8_d_ssd1322.c ****     b = *ptr;
 107:..\u8g2-master\csrc/u8x8_d_ssd1322.c ****     ptr++;
 108:..\u8g2-master\csrc/u8x8_d_ssd1322.c ****     for( i = 0; i < 8; i++ )
 109:..\u8g2-master\csrc/u8x8_d_ssd1322.c ****     {
 110:..\u8g2-master\csrc/u8x8_d_ssd1322.c ****       v = 0;
 111:..\u8g2-master\csrc/u8x8_d_ssd1322.c ****       if ( a&1 ) v |= 0xf0;
 112:..\u8g2-master\csrc/u8x8_d_ssd1322.c ****       if ( b&1 ) v |= 0x0f;
 113:..\u8g2-master\csrc/u8x8_d_ssd1322.c ****       *dest = v;
 114:..\u8g2-master\csrc/u8x8_d_ssd1322.c ****       dest+=4;
 115:..\u8g2-master\csrc/u8x8_d_ssd1322.c ****       a >>= 1;
 116:..\u8g2-master\csrc/u8x8_d_ssd1322.c ****       b >>= 1;
 117:..\u8g2-master\csrc/u8x8_d_ssd1322.c ****     }
 118:..\u8g2-master\csrc/u8x8_d_ssd1322.c ****   }
 119:..\u8g2-master\csrc/u8x8_d_ssd1322.c ****   
 120:..\u8g2-master\csrc/u8x8_d_ssd1322.c ****   return u8x8_ssd1322_to32_dest_buf;
 121:..\u8g2-master\csrc/u8x8_d_ssd1322.c **** }
 122:..\u8g2-master\csrc/u8x8_d_ssd1322.c **** 
 123:..\u8g2-master\csrc/u8x8_d_ssd1322.c **** static uint8_t *u8x8_ssd1322_4to32(U8X8_UNUSED u8x8_t *u8x8, uint8_t *ptr)
 124:..\u8g2-master\csrc/u8x8_d_ssd1322.c **** {
 125:..\u8g2-master\csrc/u8x8_d_ssd1322.c ****   uint8_t v;
 126:..\u8g2-master\csrc/u8x8_d_ssd1322.c ****   uint8_t a;
 127:..\u8g2-master\csrc/u8x8_d_ssd1322.c ****   uint8_t i, j;
 128:..\u8g2-master\csrc/u8x8_d_ssd1322.c ****   uint8_t *dest;
 129:..\u8g2-master\csrc/u8x8_d_ssd1322.c ****   
 130:..\u8g2-master\csrc/u8x8_d_ssd1322.c ****   for( j = 0; j < 4; j++ )
 131:..\u8g2-master\csrc/u8x8_d_ssd1322.c ****   {
 132:..\u8g2-master\csrc/u8x8_d_ssd1322.c ****     dest = u8x8_ssd1322_to32_dest_buf;
 133:..\u8g2-master\csrc/u8x8_d_ssd1322.c ****     dest += j;
 134:..\u8g2-master\csrc/u8x8_d_ssd1322.c ****     a =*ptr;
 135:..\u8g2-master\csrc/u8x8_d_ssd1322.c ****     ptr++;
 136:..\u8g2-master\csrc/u8x8_d_ssd1322.c ****     for( i = 0; i < 8; i++ )
 137:..\u8g2-master\csrc/u8x8_d_ssd1322.c ****     {
 138:..\u8g2-master\csrc/u8x8_d_ssd1322.c ****       v = 0;
 139:..\u8g2-master\csrc/u8x8_d_ssd1322.c ****       if ( a&1 ) v = 0xff;
 140:..\u8g2-master\csrc/u8x8_d_ssd1322.c ****       *dest = v;
 141:..\u8g2-master\csrc/u8x8_d_ssd1322.c ****       dest+=4;
 142:..\u8g2-master\csrc/u8x8_d_ssd1322.c ****       a >>= 1;
 143:..\u8g2-master\csrc/u8x8_d_ssd1322.c ****     }
 144:..\u8g2-master\csrc/u8x8_d_ssd1322.c ****   }
ARM GAS  C:\Users\info\AppData\Local\Temp\cchQo10v.s 			page 4


 145:..\u8g2-master\csrc/u8x8_d_ssd1322.c ****   
 146:..\u8g2-master\csrc/u8x8_d_ssd1322.c ****   return u8x8_ssd1322_to32_dest_buf;
 147:..\u8g2-master\csrc/u8x8_d_ssd1322.c **** }
 148:..\u8g2-master\csrc/u8x8_d_ssd1322.c **** 
 149:..\u8g2-master\csrc/u8x8_d_ssd1322.c **** 
 150:..\u8g2-master\csrc/u8x8_d_ssd1322.c **** uint8_t u8x8_d_ssd1322_common(u8x8_t *u8x8, uint8_t msg, uint8_t arg_int, void *arg_ptr)
 151:..\u8g2-master\csrc/u8x8_d_ssd1322.c **** {
  28              		.loc 1 151 0
  29              		.cfi_startproc
  30              		@ args = 0, pretend = 0, frame = 24
  31              		@ frame_needed = 0, uses_anonymous_args = 0
  32              	.LVL0:
  33 0000 2DE9F04F 		push	{r4, r5, r6, r7, r8, r9, r10, fp, lr}
  34              		.cfi_def_cfa_offset 36
  35              		.cfi_offset 4, -36
  36              		.cfi_offset 5, -32
  37              		.cfi_offset 6, -28
  38              		.cfi_offset 7, -24
  39              		.cfi_offset 8, -20
  40              		.cfi_offset 9, -16
  41              		.cfi_offset 10, -12
  42              		.cfi_offset 11, -8
  43              		.cfi_offset 14, -4
 152:..\u8g2-master\csrc/u8x8_d_ssd1322.c ****   uint8_t x; 
 153:..\u8g2-master\csrc/u8x8_d_ssd1322.c ****   uint8_t y, c;
 154:..\u8g2-master\csrc/u8x8_d_ssd1322.c ****   uint8_t *ptr;
 155:..\u8g2-master\csrc/u8x8_d_ssd1322.c ****   switch(msg)
  44              		.loc 1 155 0
  45 0004 0E29     		cmp	r1, #14
 151:..\u8g2-master\csrc/u8x8_d_ssd1322.c ****   uint8_t x; 
  46              		.loc 1 151 0
  47 0006 87B0     		sub	sp, sp, #28
  48              		.cfi_def_cfa_offset 64
 151:..\u8g2-master\csrc/u8x8_d_ssd1322.c ****   uint8_t x; 
  49              		.loc 1 151 0
  50 0008 0392     		str	r2, [sp, #12]
  51 000a 0593     		str	r3, [sp, #20]
  52 000c 0646     		mov	r6, r0
  53              		.loc 1 155 0
  54 000e 00F0CD82 		beq	.L3
  55 0012 0F29     		cmp	r1, #15
  56 0014 12D0     		beq	.L4
  57 0016 0B29     		cmp	r1, #11
  58 0018 03D0     		beq	.L15
 156:..\u8g2-master\csrc/u8x8_d_ssd1322.c ****   {
 157:..\u8g2-master\csrc/u8x8_d_ssd1322.c ****     /* U8X8_MSG_DISPLAY_SETUP_MEMORY is handled by the calling function */
 158:..\u8g2-master\csrc/u8x8_d_ssd1322.c ****     /*
 159:..\u8g2-master\csrc/u8x8_d_ssd1322.c ****     case U8X8_MSG_DISPLAY_SETUP_MEMORY:
 160:..\u8g2-master\csrc/u8x8_d_ssd1322.c ****       break;
 161:..\u8g2-master\csrc/u8x8_d_ssd1322.c ****     case U8X8_MSG_DISPLAY_INIT:
 162:..\u8g2-master\csrc/u8x8_d_ssd1322.c ****       u8x8_d_helper_display_init(u8x8);
 163:..\u8g2-master\csrc/u8x8_d_ssd1322.c ****       u8x8_cad_SendSequence(u8x8, u8x8_d_ssd1322_256x64_init_seq);
 164:..\u8g2-master\csrc/u8x8_d_ssd1322.c ****       break;
 165:..\u8g2-master\csrc/u8x8_d_ssd1322.c ****     */
 166:..\u8g2-master\csrc/u8x8_d_ssd1322.c ****     case U8X8_MSG_DISPLAY_SET_POWER_SAVE:
 167:..\u8g2-master\csrc/u8x8_d_ssd1322.c ****       if ( arg_int == 0 )
 168:..\u8g2-master\csrc/u8x8_d_ssd1322.c **** 	u8x8_cad_SendSequence(u8x8, u8x8_d_ssd1322_powersave0_seq);
ARM GAS  C:\Users\info\AppData\Local\Temp\cchQo10v.s 			page 5


 169:..\u8g2-master\csrc/u8x8_d_ssd1322.c ****       else
 170:..\u8g2-master\csrc/u8x8_d_ssd1322.c **** 	u8x8_cad_SendSequence(u8x8, u8x8_d_ssd1322_powersave1_seq);
 171:..\u8g2-master\csrc/u8x8_d_ssd1322.c ****       break;
 172:..\u8g2-master\csrc/u8x8_d_ssd1322.c **** #ifdef U8X8_WITH_SET_CONTRAST
 173:..\u8g2-master\csrc/u8x8_d_ssd1322.c ****     case U8X8_MSG_DISPLAY_SET_CONTRAST:
 174:..\u8g2-master\csrc/u8x8_d_ssd1322.c ****       u8x8_cad_StartTransfer(u8x8);
 175:..\u8g2-master\csrc/u8x8_d_ssd1322.c ****       u8x8_cad_SendCmd(u8x8, 0x0C1 );
 176:..\u8g2-master\csrc/u8x8_d_ssd1322.c ****       u8x8_cad_SendArg(u8x8, arg_int );	/* ssd1322 has range from 0 to 255 */
 177:..\u8g2-master\csrc/u8x8_d_ssd1322.c ****       u8x8_cad_EndTransfer(u8x8);
 178:..\u8g2-master\csrc/u8x8_d_ssd1322.c ****       break;
 179:..\u8g2-master\csrc/u8x8_d_ssd1322.c **** #endif
 180:..\u8g2-master\csrc/u8x8_d_ssd1322.c ****     case U8X8_MSG_DISPLAY_DRAW_TILE:
 181:..\u8g2-master\csrc/u8x8_d_ssd1322.c ****       u8x8_cad_StartTransfer(u8x8);
 182:..\u8g2-master\csrc/u8x8_d_ssd1322.c ****       x = ((u8x8_tile_t *)arg_ptr)->x_pos;    
 183:..\u8g2-master\csrc/u8x8_d_ssd1322.c ****       x *= 2;		// only every 4th col can be addressed
 184:..\u8g2-master\csrc/u8x8_d_ssd1322.c ****       x += u8x8->x_offset;		
 185:..\u8g2-master\csrc/u8x8_d_ssd1322.c ****     
 186:..\u8g2-master\csrc/u8x8_d_ssd1322.c ****       y = (((u8x8_tile_t *)arg_ptr)->y_pos);
 187:..\u8g2-master\csrc/u8x8_d_ssd1322.c ****       y *= 8;
 188:..\u8g2-master\csrc/u8x8_d_ssd1322.c ****     
 189:..\u8g2-master\csrc/u8x8_d_ssd1322.c ****       
 190:..\u8g2-master\csrc/u8x8_d_ssd1322.c ****       u8x8_cad_SendCmd(u8x8, 0x075 );	/* set row address, moved out of the loop (issue 302) */
 191:..\u8g2-master\csrc/u8x8_d_ssd1322.c ****       u8x8_cad_SendArg(u8x8, y);
 192:..\u8g2-master\csrc/u8x8_d_ssd1322.c ****       u8x8_cad_SendArg(u8x8, y+7);
 193:..\u8g2-master\csrc/u8x8_d_ssd1322.c ****       
 194:..\u8g2-master\csrc/u8x8_d_ssd1322.c ****       do
 195:..\u8g2-master\csrc/u8x8_d_ssd1322.c ****       {
 196:..\u8g2-master\csrc/u8x8_d_ssd1322.c **** 	c = ((u8x8_tile_t *)arg_ptr)->cnt;
 197:..\u8g2-master\csrc/u8x8_d_ssd1322.c **** 	ptr = ((u8x8_tile_t *)arg_ptr)->tile_ptr;
 198:..\u8g2-master\csrc/u8x8_d_ssd1322.c **** 
 199:..\u8g2-master\csrc/u8x8_d_ssd1322.c **** 	do
 200:..\u8g2-master\csrc/u8x8_d_ssd1322.c **** 	{
 201:..\u8g2-master\csrc/u8x8_d_ssd1322.c **** 	  u8x8_cad_SendCmd(u8x8, 0x015 );	/* set column address */
 202:..\u8g2-master\csrc/u8x8_d_ssd1322.c **** 	  u8x8_cad_SendArg(u8x8, x );	/* start */
 203:..\u8g2-master\csrc/u8x8_d_ssd1322.c **** 	  u8x8_cad_SendArg(u8x8, x+1 );	/* end */
 204:..\u8g2-master\csrc/u8x8_d_ssd1322.c **** 
 205:..\u8g2-master\csrc/u8x8_d_ssd1322.c **** 	  u8x8_cad_SendCmd(u8x8, 0x05c );	/* write to ram */
 206:..\u8g2-master\csrc/u8x8_d_ssd1322.c **** 	  
 207:..\u8g2-master\csrc/u8x8_d_ssd1322.c **** 	  u8x8_cad_SendData(u8x8, 32, u8x8_ssd1322_8to32(u8x8, ptr));
 208:..\u8g2-master\csrc/u8x8_d_ssd1322.c **** 	  
 209:..\u8g2-master\csrc/u8x8_d_ssd1322.c **** 	  ptr += 8;
 210:..\u8g2-master\csrc/u8x8_d_ssd1322.c **** 	  x += 2;
 211:..\u8g2-master\csrc/u8x8_d_ssd1322.c **** 	  c--;
 212:..\u8g2-master\csrc/u8x8_d_ssd1322.c **** 	} while( c > 0 );
 213:..\u8g2-master\csrc/u8x8_d_ssd1322.c **** 	
 214:..\u8g2-master\csrc/u8x8_d_ssd1322.c **** 	//x += 2;
 215:..\u8g2-master\csrc/u8x8_d_ssd1322.c **** 	arg_int--;
 216:..\u8g2-master\csrc/u8x8_d_ssd1322.c ****       } while( arg_int > 0 );
 217:..\u8g2-master\csrc/u8x8_d_ssd1322.c ****       
 218:..\u8g2-master\csrc/u8x8_d_ssd1322.c ****       u8x8_cad_EndTransfer(u8x8);
 219:..\u8g2-master\csrc/u8x8_d_ssd1322.c ****       break;
 220:..\u8g2-master\csrc/u8x8_d_ssd1322.c ****     default:
 221:..\u8g2-master\csrc/u8x8_d_ssd1322.c ****       return 0;
  59              		.loc 1 221 0
  60 001a 0020     		movs	r0, #0
  61              	.LVL1:
 222:..\u8g2-master\csrc/u8x8_d_ssd1322.c ****   }
ARM GAS  C:\Users\info\AppData\Local\Temp\cchQo10v.s 			page 6


 223:..\u8g2-master\csrc/u8x8_d_ssd1322.c ****   return 1;
 224:..\u8g2-master\csrc/u8x8_d_ssd1322.c **** }
  62              		.loc 1 224 0
  63 001c 07B0     		add	sp, sp, #28
  64              		.cfi_remember_state
  65              		.cfi_def_cfa_offset 36
  66              		@ sp needed
  67 001e BDE8F08F 		pop	{r4, r5, r6, r7, r8, r9, r10, fp, pc}
  68              	.LVL2:
  69              	.L15:
  70              		.cfi_restore_state
 167:..\u8g2-master\csrc/u8x8_d_ssd1322.c **** 	u8x8_cad_SendSequence(u8x8, u8x8_d_ssd1322_powersave0_seq);
  71              		.loc 1 167 0
  72 0022 002A     		cmp	r2, #0
  73 0024 40F0D382 		bne	.L6
 168:..\u8g2-master\csrc/u8x8_d_ssd1322.c ****       else
  74              		.loc 1 168 0
  75 0028 0349     		ldr	r1, .L16
  76              	.LVL3:
  77 002a FFF7FEFF 		bl	u8x8_cad_SendSequence
  78              	.LVL4:
 223:..\u8g2-master\csrc/u8x8_d_ssd1322.c **** }
  79              		.loc 1 223 0
  80 002e 0120     		movs	r0, #1
  81              		.loc 1 224 0
  82 0030 07B0     		add	sp, sp, #28
  83              		.cfi_remember_state
  84              		.cfi_def_cfa_offset 36
  85              		@ sp needed
  86 0032 BDE8F08F 		pop	{r4, r5, r6, r7, r8, r9, r10, fp, pc}
  87              	.LVL5:
  88              	.L17:
  89 0036 00BF     		.align	2
  90              	.L16:
  91 0038 00000000 		.word	.LANCHOR0
  92              	.LVL6:
  93              	.L4:
  94              		.cfi_restore_state
  95              	.LBB14:
  96              	.LBB15:
 181:..\u8g2-master\csrc/u8x8_d_ssd1322.c ****       x = ((u8x8_tile_t *)arg_ptr)->x_pos;    
  97              		.loc 1 181 0
  98 003c FFF7FEFF 		bl	u8x8_cad_StartTransfer
  99              	.LVL7:
 186:..\u8g2-master\csrc/u8x8_d_ssd1322.c ****       y *= 8;
 100              		.loc 1 186 0
 101 0040 059A     		ldr	r2, [sp, #20]
 184:..\u8g2-master\csrc/u8x8_d_ssd1322.c ****     
 102              		.loc 1 184 0
 103 0042 96F82230 		ldrb	r3, [r6, #34]	@ zero_extendqisi2
 186:..\u8g2-master\csrc/u8x8_d_ssd1322.c ****       y *= 8;
 104              		.loc 1 186 0
 105 0046 9479     		ldrb	r4, [r2, #6]	@ zero_extendqisi2
 182:..\u8g2-master\csrc/u8x8_d_ssd1322.c ****       x *= 2;		// only every 4th col can be addressed
 106              		.loc 1 182 0
 107 0048 5279     		ldrb	r2, [r2, #5]	@ zero_extendqisi2
 108              	.LVL8:
ARM GAS  C:\Users\info\AppData\Local\Temp\cchQo10v.s 			page 7


 187:..\u8g2-master\csrc/u8x8_d_ssd1322.c ****     
 109              		.loc 1 187 0
 110 004a E400     		lsls	r4, r4, #3
 184:..\u8g2-master\csrc/u8x8_d_ssd1322.c ****     
 111              		.loc 1 184 0
 112 004c 03EB4203 		add	r3, r3, r2, lsl #1
 113 0050 03F0FF03 		and	r3, r3, #255
 187:..\u8g2-master\csrc/u8x8_d_ssd1322.c ****     
 114              		.loc 1 187 0
 115 0054 E4B2     		uxtb	r4, r4
 190:..\u8g2-master\csrc/u8x8_d_ssd1322.c ****       u8x8_cad_SendArg(u8x8, y);
 116              		.loc 1 190 0
 117 0056 7521     		movs	r1, #117
 118 0058 3046     		mov	r0, r6
 184:..\u8g2-master\csrc/u8x8_d_ssd1322.c ****     
 119              		.loc 1 184 0
 120 005a 0293     		str	r3, [sp, #8]
 121              	.LVL9:
 190:..\u8g2-master\csrc/u8x8_d_ssd1322.c ****       u8x8_cad_SendArg(u8x8, y);
 122              		.loc 1 190 0
 123 005c FFF7FEFF 		bl	u8x8_cad_SendCmd
 124              	.LVL10:
 191:..\u8g2-master\csrc/u8x8_d_ssd1322.c ****       u8x8_cad_SendArg(u8x8, y+7);
 125              		.loc 1 191 0
 126 0060 2146     		mov	r1, r4
 127 0062 3046     		mov	r0, r6
 128 0064 FFF7FEFF 		bl	u8x8_cad_SendArg
 129              	.LVL11:
 192:..\u8g2-master\csrc/u8x8_d_ssd1322.c ****       
 130              		.loc 1 192 0
 131 0068 E11D     		adds	r1, r4, #7
 132 006a C9B2     		uxtb	r1, r1
 133 006c 3046     		mov	r0, r6
 134 006e FFF7FEFF 		bl	u8x8_cad_SendArg
 135              	.LVL12:
 136 0072 074D     		ldr	r5, .L18
 137              	.LVL13:
 138              	.L8:
 196:..\u8g2-master\csrc/u8x8_d_ssd1322.c **** 	ptr = ((u8x8_tile_t *)arg_ptr)->tile_ptr;
 139              		.loc 1 196 0
 140 0074 059A     		ldr	r2, [sp, #20]
 197:..\u8g2-master\csrc/u8x8_d_ssd1322.c **** 
 141              		.loc 1 197 0
 142 0076 029C     		ldr	r4, [sp, #8]
 196:..\u8g2-master\csrc/u8x8_d_ssd1322.c **** 	ptr = ((u8x8_tile_t *)arg_ptr)->tile_ptr;
 143              		.loc 1 196 0
 144 0078 1379     		ldrb	r3, [r2, #4]	@ zero_extendqisi2
 197:..\u8g2-master\csrc/u8x8_d_ssd1322.c **** 
 145              		.loc 1 197 0
 146 007a 1768     		ldr	r7, [r2]
 196:..\u8g2-master\csrc/u8x8_d_ssd1322.c **** 	ptr = ((u8x8_tile_t *)arg_ptr)->tile_ptr;
 147              		.loc 1 196 0
 148 007c 0493     		str	r3, [sp, #16]
 149              	.LVL14:
 150 007e 013B     		subs	r3, r3, #1
 151              	.LVL15:
 152 0080 DBB2     		uxtb	r3, r3
ARM GAS  C:\Users\info\AppData\Local\Temp\cchQo10v.s 			page 8


 153 0082 0233     		adds	r3, r3, #2
 154 0084 07EBC303 		add	r3, r7, r3, lsl #3
 155 0088 0193     		str	r3, [sp, #4]
 156 008a 0837     		adds	r7, r7, #8
 157 008c 02E0     		b	.L19
 158              	.L20:
 159 008e 00BF     		.align	2
 160              	.L18:
 161 0090 00000000 		.word	.LANCHOR1
 162              	.L19:
 163              	.LVL16:
 164              	.L7:
 201:..\u8g2-master\csrc/u8x8_d_ssd1322.c **** 	  u8x8_cad_SendArg(u8x8, x );	/* start */
 165              		.loc 1 201 0
 166 0094 1521     		movs	r1, #21
 167 0096 3046     		mov	r0, r6
 168 0098 FFF7FEFF 		bl	u8x8_cad_SendCmd
 169              	.LVL17:
 202:..\u8g2-master\csrc/u8x8_d_ssd1322.c **** 	  u8x8_cad_SendArg(u8x8, x+1 );	/* end */
 170              		.loc 1 202 0
 171 009c 2146     		mov	r1, r4
 172 009e 3046     		mov	r0, r6
 173 00a0 FFF7FEFF 		bl	u8x8_cad_SendArg
 174              	.LVL18:
 203:..\u8g2-master\csrc/u8x8_d_ssd1322.c **** 
 175              		.loc 1 203 0
 176 00a4 611C     		adds	r1, r4, #1
 177 00a6 C9B2     		uxtb	r1, r1
 178 00a8 3046     		mov	r0, r6
 179 00aa FFF7FEFF 		bl	u8x8_cad_SendArg
 180              	.LVL19:
 205:..\u8g2-master\csrc/u8x8_d_ssd1322.c **** 	  
 181              		.loc 1 205 0
 182 00ae 5C21     		movs	r1, #92
 183 00b0 3046     		mov	r0, r6
 184 00b2 FFF7FEFF 		bl	u8x8_cad_SendCmd
 185              	.LVL20:
 186              	.LBB16:
 187              	.LBB17:
 104:..\u8g2-master\csrc/u8x8_d_ssd1322.c ****     ptr++;
 188              		.loc 1 104 0
 189 00b6 17F8083C 		ldrb	r3, [r7, #-8]	@ zero_extendqisi2
 106:..\u8g2-master\csrc/u8x8_d_ssd1322.c ****     ptr++;
 190              		.loc 1 106 0
 191 00ba 17F8072C 		ldrb	r2, [r7, #-7]	@ zero_extendqisi2
 192 00be 03F00101 		and	r1, r3, #1
 193 00c2 0029     		cmp	r1, #0
 115:..\u8g2-master\csrc/u8x8_d_ssd1322.c ****       b >>= 1;
 194              		.loc 1 115 0
 195 00c4 4FEA5303 		lsr	r3, r3, #1
 196 00c8 15BF     		itete	ne
 197 00ca F020     		movne	r0, #240
 198 00cc 0020     		moveq	r0, #0
 113:..\u8g2-master\csrc/u8x8_d_ssd1322.c ****       dest+=4;
 199              		.loc 1 113 0
 200 00ce 4FF0FF3A 		movne	r10, #-1
 201 00d2 4FF00F0A 		moveq	r10, #15
ARM GAS  C:\Users\info\AppData\Local\Temp\cchQo10v.s 			page 9


 202 00d6 03F00101 		and	r1, r3, #1
 203 00da 12F0010F 		tst	r2, #1
 204 00de 08BF     		it	eq
 205 00e0 8246     		moveq	r10, r0
 116:..\u8g2-master\csrc/u8x8_d_ssd1322.c ****     }
 206              		.loc 1 116 0
 207 00e2 5208     		lsrs	r2, r2, #1
 208 00e4 0029     		cmp	r1, #0
 113:..\u8g2-master\csrc/u8x8_d_ssd1322.c ****       dest+=4;
 209              		.loc 1 113 0
 210 00e6 15BF     		itete	ne
 211 00e8 4FF0FF39 		movne	r9, #-1
 212 00ec 4FF00F09 		moveq	r9, #15
 213 00f0 F021     		movne	r1, #240
 214 00f2 0021     		moveq	r1, #0
 115:..\u8g2-master\csrc/u8x8_d_ssd1322.c ****       b >>= 1;
 215              		.loc 1 115 0
 216 00f4 5B08     		lsrs	r3, r3, #1
 113:..\u8g2-master\csrc/u8x8_d_ssd1322.c ****       dest+=4;
 217              		.loc 1 113 0
 218 00f6 12F0010F 		tst	r2, #1
 219 00fa 08BF     		it	eq
 220 00fc 8946     		moveq	r9, r1
 221 00fe 03F00101 		and	r1, r3, #1
 222 0102 0029     		cmp	r1, #0
 116:..\u8g2-master\csrc/u8x8_d_ssd1322.c ****     }
 223              		.loc 1 116 0
 224 0104 4FEA5202 		lsr	r2, r2, #1
 225 0108 15BF     		itete	ne
 226 010a 4FF0F008 		movne	r8, #240
 227 010e 4FF00008 		moveq	r8, #0
 113:..\u8g2-master\csrc/u8x8_d_ssd1322.c ****       dest+=4;
 228              		.loc 1 113 0
 229 0112 4FF0FF31 		movne	r1, #-1
 230 0116 0F21     		moveq	r1, #15
 115:..\u8g2-master\csrc/u8x8_d_ssd1322.c ****       b >>= 1;
 231              		.loc 1 115 0
 232 0118 5B08     		lsrs	r3, r3, #1
 113:..\u8g2-master\csrc/u8x8_d_ssd1322.c ****       dest+=4;
 233              		.loc 1 113 0
 234 011a 12F0010F 		tst	r2, #1
 235 011e 18BF     		it	ne
 236 0120 8846     		movne	r8, r1
 237 0122 03F00101 		and	r1, r3, #1
 238 0126 0029     		cmp	r1, #0
 116:..\u8g2-master\csrc/u8x8_d_ssd1322.c ****     }
 239              		.loc 1 116 0
 240 0128 4FEA5202 		lsr	r2, r2, #1
 241 012c 15BF     		itete	ne
 242 012e 4FF0F00C 		movne	ip, #240
 243 0132 4FF0000C 		moveq	ip, #0
 113:..\u8g2-master\csrc/u8x8_d_ssd1322.c ****       dest+=4;
 244              		.loc 1 113 0
 245 0136 4FF0FF31 		movne	r1, #-1
 246 013a 0F21     		moveq	r1, #15
 115:..\u8g2-master\csrc/u8x8_d_ssd1322.c ****       b >>= 1;
 247              		.loc 1 115 0
ARM GAS  C:\Users\info\AppData\Local\Temp\cchQo10v.s 			page 10


 248 013c 5B08     		lsrs	r3, r3, #1
 113:..\u8g2-master\csrc/u8x8_d_ssd1322.c ****       dest+=4;
 249              		.loc 1 113 0
 250 013e 12F0010F 		tst	r2, #1
 251 0142 18BF     		it	ne
 252 0144 8C46     		movne	ip, r1
 253 0146 03F00101 		and	r1, r3, #1
 254 014a 0029     		cmp	r1, #0
 116:..\u8g2-master\csrc/u8x8_d_ssd1322.c ****     }
 255              		.loc 1 116 0
 256 014c 4FEA5202 		lsr	r2, r2, #1
 113:..\u8g2-master\csrc/u8x8_d_ssd1322.c ****       dest+=4;
 257              		.loc 1 113 0
 258 0150 15BF     		itete	ne
 259 0152 4FF0FF3E 		movne	lr, #-1
 260 0156 4FF00F0E 		moveq	lr, #15
 261 015a F021     		movne	r1, #240
 262 015c 0021     		moveq	r1, #0
 115:..\u8g2-master\csrc/u8x8_d_ssd1322.c ****       b >>= 1;
 263              		.loc 1 115 0
 264 015e 5B08     		lsrs	r3, r3, #1
 113:..\u8g2-master\csrc/u8x8_d_ssd1322.c ****       dest+=4;
 265              		.loc 1 113 0
 266 0160 12F0010F 		tst	r2, #1
 267 0164 08BF     		it	eq
 268 0166 8E46     		moveq	lr, r1
 269 0168 03F00101 		and	r1, r3, #1
 270 016c 0029     		cmp	r1, #0
 116:..\u8g2-master\csrc/u8x8_d_ssd1322.c ****     }
 271              		.loc 1 116 0
 272 016e 4FEA5202 		lsr	r2, r2, #1
 113:..\u8g2-master\csrc/u8x8_d_ssd1322.c ****       dest+=4;
 273              		.loc 1 113 0
 274 0172 15BF     		itete	ne
 275 0174 4FF0FF30 		movne	r0, #-1
 276 0178 0F20     		moveq	r0, #15
 277 017a F021     		movne	r1, #240
 278 017c 0021     		moveq	r1, #0
 115:..\u8g2-master\csrc/u8x8_d_ssd1322.c ****       b >>= 1;
 279              		.loc 1 115 0
 280 017e 5B08     		lsrs	r3, r3, #1
 113:..\u8g2-master\csrc/u8x8_d_ssd1322.c ****       dest+=4;
 281              		.loc 1 113 0
 282 0180 12F0010F 		tst	r2, #1
 283 0184 08BF     		it	eq
 284 0186 0846     		moveq	r0, r1
 285 0188 03F00101 		and	r1, r3, #1
 286 018c 0029     		cmp	r1, #0
 116:..\u8g2-master\csrc/u8x8_d_ssd1322.c ****     }
 287              		.loc 1 116 0
 288 018e 4FEA5202 		lsr	r2, r2, #1
 289 0192 14BF     		ite	ne
 290 0194 4FF0F00B 		movne	fp, #240
 291 0198 4FF0000B 		moveq	fp, #0
 115:..\u8g2-master\csrc/u8x8_d_ssd1322.c ****       b >>= 1;
 292              		.loc 1 115 0
 293 019c 4FEA5303 		lsr	r3, r3, #1
ARM GAS  C:\Users\info\AppData\Local\Temp\cchQo10v.s 			page 11


 113:..\u8g2-master\csrc/u8x8_d_ssd1322.c ****       dest+=4;
 294              		.loc 1 113 0
 295 01a0 14BF     		ite	ne
 296 01a2 4FF0FF31 		movne	r1, #-1
 297 01a6 0F21     		moveq	r1, #15
 298 01a8 12F0010F 		tst	r2, #1
 299 01ac 08BF     		it	eq
 300 01ae 5946     		moveq	r1, fp
 301 01b0 002B     		cmp	r3, #0
 302 01b2 15BF     		itete	ne
 303 01b4 4FF0F00B 		movne	fp, #240
 304 01b8 4FF0000B 		moveq	fp, #0
 305 01bc 4FF0FF33 		movne	r3, #-1
 306 01c0 0F23     		moveq	r3, #15
 307 01c2 5208     		lsrs	r2, r2, #1
 308 01c4 08BF     		it	eq
 309 01c6 5B46     		moveq	r3, fp
 310 01c8 2875     		strb	r0, [r5, #20]
 311 01ca 85F80CC0 		strb	ip, [r5, #12]
 312 01ce 85F800A0 		strb	r10, [r5]
 313 01d2 85F80490 		strb	r9, [r5, #4]
 314 01d6 85F80880 		strb	r8, [r5, #8]
 315 01da 85F810E0 		strb	lr, [r5, #16]
 316 01de 2976     		strb	r1, [r5, #24]
 317              	.LVL21:
 318 01e0 2B77     		strb	r3, [r5, #28]
 319              	.LVL22:
 104:..\u8g2-master\csrc/u8x8_d_ssd1322.c ****     ptr++;
 320              		.loc 1 104 0
 321 01e2 17F8063C 		ldrb	r3, [r7, #-6]	@ zero_extendqisi2
 322              	.LVL23:
 106:..\u8g2-master\csrc/u8x8_d_ssd1322.c ****     ptr++;
 323              		.loc 1 106 0
 324 01e6 17F8052C 		ldrb	r2, [r7, #-5]	@ zero_extendqisi2
 325              	.LVL24:
 326 01ea 03F00101 		and	r1, r3, #1
 327 01ee 0029     		cmp	r1, #0
 115:..\u8g2-master\csrc/u8x8_d_ssd1322.c ****       b >>= 1;
 328              		.loc 1 115 0
 329 01f0 4FEA5303 		lsr	r3, r3, #1
 113:..\u8g2-master\csrc/u8x8_d_ssd1322.c ****       dest+=4;
 330              		.loc 1 113 0
 331 01f4 15BF     		itete	ne
 332 01f6 4FF0FF30 		movne	r0, #-1
 333 01fa 0F20     		moveq	r0, #15
 334 01fc 4FF0F00A 		movne	r10, #240
 335 0200 4FF0000A 		moveq	r10, #0
 336 0204 03F00101 		and	r1, r3, #1
 337 0208 12F0010F 		tst	r2, #1
 338 020c 18BF     		it	ne
 339 020e 8246     		movne	r10, r0
 116:..\u8g2-master\csrc/u8x8_d_ssd1322.c ****     }
 340              		.loc 1 116 0
 341 0210 5208     		lsrs	r2, r2, #1
 342 0212 0029     		cmp	r1, #0
 343 0214 15BF     		itete	ne
 344 0216 4FF0F009 		movne	r9, #240
ARM GAS  C:\Users\info\AppData\Local\Temp\cchQo10v.s 			page 12


 345 021a 4FF00009 		moveq	r9, #0
 113:..\u8g2-master\csrc/u8x8_d_ssd1322.c ****       dest+=4;
 346              		.loc 1 113 0
 347 021e 4FF0FF31 		movne	r1, #-1
 348 0222 0F21     		moveq	r1, #15
 115:..\u8g2-master\csrc/u8x8_d_ssd1322.c ****       b >>= 1;
 349              		.loc 1 115 0
 350 0224 5B08     		lsrs	r3, r3, #1
 113:..\u8g2-master\csrc/u8x8_d_ssd1322.c ****       dest+=4;
 351              		.loc 1 113 0
 352 0226 12F0010F 		tst	r2, #1
 353 022a 18BF     		it	ne
 354 022c 8946     		movne	r9, r1
 355 022e 03F00101 		and	r1, r3, #1
 356 0232 0029     		cmp	r1, #0
 116:..\u8g2-master\csrc/u8x8_d_ssd1322.c ****     }
 357              		.loc 1 116 0
 358 0234 4FEA5202 		lsr	r2, r2, #1
 359 0238 15BF     		itete	ne
 360 023a 4FF0F008 		movne	r8, #240
 361 023e 4FF00008 		moveq	r8, #0
 113:..\u8g2-master\csrc/u8x8_d_ssd1322.c ****       dest+=4;
 362              		.loc 1 113 0
 363 0242 4FF0FF31 		movne	r1, #-1
 364 0246 0F21     		moveq	r1, #15
 115:..\u8g2-master\csrc/u8x8_d_ssd1322.c ****       b >>= 1;
 365              		.loc 1 115 0
 366 0248 5B08     		lsrs	r3, r3, #1
 113:..\u8g2-master\csrc/u8x8_d_ssd1322.c ****       dest+=4;
 367              		.loc 1 113 0
 368 024a 12F0010F 		tst	r2, #1
 369 024e 18BF     		it	ne
 370 0250 8846     		movne	r8, r1
 371 0252 03F00101 		and	r1, r3, #1
 372 0256 0029     		cmp	r1, #0
 116:..\u8g2-master\csrc/u8x8_d_ssd1322.c ****     }
 373              		.loc 1 116 0
 374 0258 4FEA5202 		lsr	r2, r2, #1
 375 025c 15BF     		itete	ne
 376 025e 4FF0F00C 		movne	ip, #240
 377 0262 4FF0000C 		moveq	ip, #0
 113:..\u8g2-master\csrc/u8x8_d_ssd1322.c ****       dest+=4;
 378              		.loc 1 113 0
 379 0266 4FF0FF31 		movne	r1, #-1
 380 026a 0F21     		moveq	r1, #15
 115:..\u8g2-master\csrc/u8x8_d_ssd1322.c ****       b >>= 1;
 381              		.loc 1 115 0
 382 026c 5B08     		lsrs	r3, r3, #1
 113:..\u8g2-master\csrc/u8x8_d_ssd1322.c ****       dest+=4;
 383              		.loc 1 113 0
 384 026e 12F0010F 		tst	r2, #1
 385 0272 18BF     		it	ne
 386 0274 8C46     		movne	ip, r1
 387 0276 03F00101 		and	r1, r3, #1
 388 027a 0029     		cmp	r1, #0
 116:..\u8g2-master\csrc/u8x8_d_ssd1322.c ****     }
 389              		.loc 1 116 0
ARM GAS  C:\Users\info\AppData\Local\Temp\cchQo10v.s 			page 13


 390 027c 4FEA5202 		lsr	r2, r2, #1
 391 0280 15BF     		itete	ne
 392 0282 4FF0F00E 		movne	lr, #240
 393 0286 4FF0000E 		moveq	lr, #0
 113:..\u8g2-master\csrc/u8x8_d_ssd1322.c ****       dest+=4;
 394              		.loc 1 113 0
 395 028a 4FF0FF31 		movne	r1, #-1
 396 028e 0F21     		moveq	r1, #15
 115:..\u8g2-master\csrc/u8x8_d_ssd1322.c ****       b >>= 1;
 397              		.loc 1 115 0
 398 0290 5B08     		lsrs	r3, r3, #1
 113:..\u8g2-master\csrc/u8x8_d_ssd1322.c ****       dest+=4;
 399              		.loc 1 113 0
 400 0292 12F0010F 		tst	r2, #1
 401 0296 18BF     		it	ne
 402 0298 8E46     		movne	lr, r1
 403 029a 03F00101 		and	r1, r3, #1
 404 029e 0029     		cmp	r1, #0
 116:..\u8g2-master\csrc/u8x8_d_ssd1322.c ****     }
 405              		.loc 1 116 0
 406 02a0 4FEA5202 		lsr	r2, r2, #1
 407 02a4 15BF     		itete	ne
 408 02a6 F020     		movne	r0, #240
 409 02a8 0020     		moveq	r0, #0
 113:..\u8g2-master\csrc/u8x8_d_ssd1322.c ****       dest+=4;
 410              		.loc 1 113 0
 411 02aa 4FF0FF31 		movne	r1, #-1
 412 02ae 0F21     		moveq	r1, #15
 115:..\u8g2-master\csrc/u8x8_d_ssd1322.c ****       b >>= 1;
 413              		.loc 1 115 0
 414 02b0 5B08     		lsrs	r3, r3, #1
 113:..\u8g2-master\csrc/u8x8_d_ssd1322.c ****       dest+=4;
 415              		.loc 1 113 0
 416 02b2 12F0010F 		tst	r2, #1
 417 02b6 18BF     		it	ne
 418 02b8 0846     		movne	r0, r1
 419 02ba 03F00101 		and	r1, r3, #1
 420 02be 0029     		cmp	r1, #0
 116:..\u8g2-master\csrc/u8x8_d_ssd1322.c ****     }
 421              		.loc 1 116 0
 422 02c0 4FEA5202 		lsr	r2, r2, #1
 423 02c4 14BF     		ite	ne
 424 02c6 4FF0F00B 		movne	fp, #240
 425 02ca 4FF0000B 		moveq	fp, #0
 115:..\u8g2-master\csrc/u8x8_d_ssd1322.c ****       b >>= 1;
 426              		.loc 1 115 0
 427 02ce 4FEA5303 		lsr	r3, r3, #1
 113:..\u8g2-master\csrc/u8x8_d_ssd1322.c ****       dest+=4;
 428              		.loc 1 113 0
 429 02d2 14BF     		ite	ne
 430 02d4 4FF0FF31 		movne	r1, #-1
 431 02d8 0F21     		moveq	r1, #15
 432 02da 12F0010F 		tst	r2, #1
 433 02de 08BF     		it	eq
 434 02e0 5946     		moveq	r1, fp
 435 02e2 002B     		cmp	r3, #0
 436 02e4 15BF     		itete	ne
ARM GAS  C:\Users\info\AppData\Local\Temp\cchQo10v.s 			page 14


 437 02e6 4FF0FF3B 		movne	fp, #-1
 438 02ea 4FF00F0B 		moveq	fp, #15
 439 02ee F023     		movne	r3, #240
 440 02f0 0023     		moveq	r3, #0
 441 02f2 5208     		lsrs	r2, r2, #1
 442 02f4 18BF     		it	ne
 443 02f6 5B46     		movne	r3, fp
 444 02f8 6875     		strb	r0, [r5, #21]
 445 02fa 85F80DC0 		strb	ip, [r5, #13]
 446 02fe 85F801A0 		strb	r10, [r5, #1]
 447 0302 85F80590 		strb	r9, [r5, #5]
 448 0306 85F80980 		strb	r8, [r5, #9]
 449 030a 85F811E0 		strb	lr, [r5, #17]
 450 030e 6976     		strb	r1, [r5, #25]
 451 0310 6B77     		strb	r3, [r5, #29]
 452              	.LVL25:
 104:..\u8g2-master\csrc/u8x8_d_ssd1322.c ****     ptr++;
 453              		.loc 1 104 0
 454 0312 17F8043C 		ldrb	r3, [r7, #-4]	@ zero_extendqisi2
 455              	.LVL26:
 106:..\u8g2-master\csrc/u8x8_d_ssd1322.c ****     ptr++;
 456              		.loc 1 106 0
 457 0316 17F8032C 		ldrb	r2, [r7, #-3]	@ zero_extendqisi2
 458              	.LVL27:
 459 031a 03F00101 		and	r1, r3, #1
 460 031e 0029     		cmp	r1, #0
 115:..\u8g2-master\csrc/u8x8_d_ssd1322.c ****       b >>= 1;
 461              		.loc 1 115 0
 462 0320 4FEA5303 		lsr	r3, r3, #1
 113:..\u8g2-master\csrc/u8x8_d_ssd1322.c ****       dest+=4;
 463              		.loc 1 113 0
 464 0324 15BF     		itete	ne
 465 0326 4FF0FF30 		movne	r0, #-1
 466 032a 0F20     		moveq	r0, #15
 467 032c 4FF0F00A 		movne	r10, #240
 468 0330 4FF0000A 		moveq	r10, #0
 469 0334 03F00101 		and	r1, r3, #1
 470 0338 12F0010F 		tst	r2, #1
 471 033c 18BF     		it	ne
 472 033e 8246     		movne	r10, r0
 116:..\u8g2-master\csrc/u8x8_d_ssd1322.c ****     }
 473              		.loc 1 116 0
 474 0340 5208     		lsrs	r2, r2, #1
 475 0342 0029     		cmp	r1, #0
 476 0344 15BF     		itete	ne
 477 0346 4FF0F009 		movne	r9, #240
 478 034a 4FF00009 		moveq	r9, #0
 113:..\u8g2-master\csrc/u8x8_d_ssd1322.c ****       dest+=4;
 479              		.loc 1 113 0
 480 034e 4FF0FF31 		movne	r1, #-1
 481 0352 0F21     		moveq	r1, #15
 115:..\u8g2-master\csrc/u8x8_d_ssd1322.c ****       b >>= 1;
 482              		.loc 1 115 0
 483 0354 5B08     		lsrs	r3, r3, #1
 113:..\u8g2-master\csrc/u8x8_d_ssd1322.c ****       dest+=4;
 484              		.loc 1 113 0
 485 0356 12F0010F 		tst	r2, #1
ARM GAS  C:\Users\info\AppData\Local\Temp\cchQo10v.s 			page 15


 486 035a 18BF     		it	ne
 487 035c 8946     		movne	r9, r1
 488 035e 03F00101 		and	r1, r3, #1
 489 0362 0029     		cmp	r1, #0
 116:..\u8g2-master\csrc/u8x8_d_ssd1322.c ****     }
 490              		.loc 1 116 0
 491 0364 4FEA5202 		lsr	r2, r2, #1
 492 0368 15BF     		itete	ne
 493 036a 4FF0F008 		movne	r8, #240
 494 036e 4FF00008 		moveq	r8, #0
 113:..\u8g2-master\csrc/u8x8_d_ssd1322.c ****       dest+=4;
 495              		.loc 1 113 0
 496 0372 4FF0FF31 		movne	r1, #-1
 497 0376 0F21     		moveq	r1, #15
 115:..\u8g2-master\csrc/u8x8_d_ssd1322.c ****       b >>= 1;
 498              		.loc 1 115 0
 499 0378 5B08     		lsrs	r3, r3, #1
 113:..\u8g2-master\csrc/u8x8_d_ssd1322.c ****       dest+=4;
 500              		.loc 1 113 0
 501 037a 12F0010F 		tst	r2, #1
 502 037e 18BF     		it	ne
 503 0380 8846     		movne	r8, r1
 504 0382 03F00101 		and	r1, r3, #1
 505 0386 0029     		cmp	r1, #0
 116:..\u8g2-master\csrc/u8x8_d_ssd1322.c ****     }
 506              		.loc 1 116 0
 507 0388 4FEA5202 		lsr	r2, r2, #1
 508 038c 15BF     		itete	ne
 509 038e 4FF0F00C 		movne	ip, #240
 510 0392 4FF0000C 		moveq	ip, #0
 113:..\u8g2-master\csrc/u8x8_d_ssd1322.c ****       dest+=4;
 511              		.loc 1 113 0
 512 0396 4FF0FF31 		movne	r1, #-1
 513 039a 0F21     		moveq	r1, #15
 115:..\u8g2-master\csrc/u8x8_d_ssd1322.c ****       b >>= 1;
 514              		.loc 1 115 0
 515 039c 5B08     		lsrs	r3, r3, #1
 113:..\u8g2-master\csrc/u8x8_d_ssd1322.c ****       dest+=4;
 516              		.loc 1 113 0
 517 039e 12F0010F 		tst	r2, #1
 518 03a2 18BF     		it	ne
 519 03a4 8C46     		movne	ip, r1
 520 03a6 03F00101 		and	r1, r3, #1
 521 03aa 0029     		cmp	r1, #0
 116:..\u8g2-master\csrc/u8x8_d_ssd1322.c ****     }
 522              		.loc 1 116 0
 523 03ac 4FEA5202 		lsr	r2, r2, #1
 524 03b0 15BF     		itete	ne
 525 03b2 4FF0F00E 		movne	lr, #240
 526 03b6 4FF0000E 		moveq	lr, #0
 113:..\u8g2-master\csrc/u8x8_d_ssd1322.c ****       dest+=4;
 527              		.loc 1 113 0
 528 03ba 4FF0FF31 		movne	r1, #-1
 529 03be 0F21     		moveq	r1, #15
 115:..\u8g2-master\csrc/u8x8_d_ssd1322.c ****       b >>= 1;
 530              		.loc 1 115 0
 531 03c0 5B08     		lsrs	r3, r3, #1
ARM GAS  C:\Users\info\AppData\Local\Temp\cchQo10v.s 			page 16


 113:..\u8g2-master\csrc/u8x8_d_ssd1322.c ****       dest+=4;
 532              		.loc 1 113 0
 533 03c2 12F0010F 		tst	r2, #1
 534 03c6 18BF     		it	ne
 535 03c8 8E46     		movne	lr, r1
 536 03ca 03F00101 		and	r1, r3, #1
 537 03ce 0029     		cmp	r1, #0
 116:..\u8g2-master\csrc/u8x8_d_ssd1322.c ****     }
 538              		.loc 1 116 0
 539 03d0 4FEA5202 		lsr	r2, r2, #1
 540 03d4 15BF     		itete	ne
 541 03d6 F020     		movne	r0, #240
 542 03d8 0020     		moveq	r0, #0
 113:..\u8g2-master\csrc/u8x8_d_ssd1322.c ****       dest+=4;
 543              		.loc 1 113 0
 544 03da 4FF0FF31 		movne	r1, #-1
 545 03de 0F21     		moveq	r1, #15
 115:..\u8g2-master\csrc/u8x8_d_ssd1322.c ****       b >>= 1;
 546              		.loc 1 115 0
 547 03e0 5B08     		lsrs	r3, r3, #1
 113:..\u8g2-master\csrc/u8x8_d_ssd1322.c ****       dest+=4;
 548              		.loc 1 113 0
 549 03e2 12F0010F 		tst	r2, #1
 550 03e6 18BF     		it	ne
 551 03e8 0846     		movne	r0, r1
 552 03ea 03F00101 		and	r1, r3, #1
 553 03ee 0029     		cmp	r1, #0
 116:..\u8g2-master\csrc/u8x8_d_ssd1322.c ****     }
 554              		.loc 1 116 0
 555 03f0 4FEA5202 		lsr	r2, r2, #1
 556 03f4 14BF     		ite	ne
 557 03f6 4FF0F00B 		movne	fp, #240
 558 03fa 4FF0000B 		moveq	fp, #0
 115:..\u8g2-master\csrc/u8x8_d_ssd1322.c ****       b >>= 1;
 559              		.loc 1 115 0
 560 03fe 4FEA5303 		lsr	r3, r3, #1
 113:..\u8g2-master\csrc/u8x8_d_ssd1322.c ****       dest+=4;
 561              		.loc 1 113 0
 562 0402 14BF     		ite	ne
 563 0404 4FF0FF31 		movne	r1, #-1
 564 0408 0F21     		moveq	r1, #15
 565 040a 12F0010F 		tst	r2, #1
 566 040e 08BF     		it	eq
 567 0410 5946     		moveq	r1, fp
 568 0412 002B     		cmp	r3, #0
 569 0414 15BF     		itete	ne
 570 0416 4FF0FF3B 		movne	fp, #-1
 571 041a 4FF00F0B 		moveq	fp, #15
 572 041e F023     		movne	r3, #240
 573 0420 0023     		moveq	r3, #0
 574 0422 5208     		lsrs	r2, r2, #1
 575 0424 18BF     		it	ne
 576 0426 5B46     		movne	r3, fp
 577 0428 A875     		strb	r0, [r5, #22]
 578 042a 85F80EC0 		strb	ip, [r5, #14]
 579 042e 85F802A0 		strb	r10, [r5, #2]
 580 0432 85F80690 		strb	r9, [r5, #6]
ARM GAS  C:\Users\info\AppData\Local\Temp\cchQo10v.s 			page 17


 581 0436 85F80A80 		strb	r8, [r5, #10]
 582 043a 85F812E0 		strb	lr, [r5, #18]
 583 043e A976     		strb	r1, [r5, #26]
 584 0440 AB77     		strb	r3, [r5, #30]
 585              	.LVL28:
 104:..\u8g2-master\csrc/u8x8_d_ssd1322.c ****     ptr++;
 586              		.loc 1 104 0
 587 0442 17F8023C 		ldrb	r3, [r7, #-2]	@ zero_extendqisi2
 588              	.LVL29:
 106:..\u8g2-master\csrc/u8x8_d_ssd1322.c ****     ptr++;
 589              		.loc 1 106 0
 590 0446 17F8012C 		ldrb	r2, [r7, #-1]	@ zero_extendqisi2
 591              	.LVL30:
 592 044a 03F00101 		and	r1, r3, #1
 593 044e 0029     		cmp	r1, #0
 115:..\u8g2-master\csrc/u8x8_d_ssd1322.c ****       b >>= 1;
 594              		.loc 1 115 0
 595 0450 4FEA5303 		lsr	r3, r3, #1
 596 0454 03F00101 		and	r1, r3, #1
 113:..\u8g2-master\csrc/u8x8_d_ssd1322.c ****       dest+=4;
 597              		.loc 1 113 0
 598 0458 15BF     		itete	ne
 599 045a 4FF0FF30 		movne	r0, #-1
 600 045e 0F20     		moveq	r0, #15
 601 0460 4FF0F00A 		movne	r10, #240
 602 0464 4FF0000A 		moveq	r10, #0
 603 0468 12F0010F 		tst	r2, #1
 604 046c 18BF     		it	ne
 605 046e 8246     		movne	r10, r0
 116:..\u8g2-master\csrc/u8x8_d_ssd1322.c ****     }
 606              		.loc 1 116 0
 607 0470 5208     		lsrs	r2, r2, #1
 608 0472 0029     		cmp	r1, #0
 609 0474 15BF     		itete	ne
 610 0476 F021     		movne	r1, #240
 611 0478 0021     		moveq	r1, #0
 113:..\u8g2-master\csrc/u8x8_d_ssd1322.c ****       dest+=4;
 612              		.loc 1 113 0
 613 047a 4FF0FF39 		movne	r9, #-1
 614 047e 4FF00F09 		moveq	r9, #15
 115:..\u8g2-master\csrc/u8x8_d_ssd1322.c ****       b >>= 1;
 615              		.loc 1 115 0
 616 0482 5B08     		lsrs	r3, r3, #1
 113:..\u8g2-master\csrc/u8x8_d_ssd1322.c ****       dest+=4;
 617              		.loc 1 113 0
 618 0484 12F0010F 		tst	r2, #1
 619 0488 08BF     		it	eq
 620 048a 8946     		moveq	r9, r1
 621 048c 03F00101 		and	r1, r3, #1
 622 0490 0029     		cmp	r1, #0
 116:..\u8g2-master\csrc/u8x8_d_ssd1322.c ****     }
 623              		.loc 1 116 0
 624 0492 4FEA5202 		lsr	r2, r2, #1
 625 0496 15BF     		itete	ne
 626 0498 F021     		movne	r1, #240
 627 049a 0021     		moveq	r1, #0
 113:..\u8g2-master\csrc/u8x8_d_ssd1322.c ****       dest+=4;
ARM GAS  C:\Users\info\AppData\Local\Temp\cchQo10v.s 			page 18


 628              		.loc 1 113 0
 629 049c 4FF0FF38 		movne	r8, #-1
 630 04a0 4FF00F08 		moveq	r8, #15
 115:..\u8g2-master\csrc/u8x8_d_ssd1322.c ****       b >>= 1;
 631              		.loc 1 115 0
 632 04a4 5B08     		lsrs	r3, r3, #1
 113:..\u8g2-master\csrc/u8x8_d_ssd1322.c ****       dest+=4;
 633              		.loc 1 113 0
 634 04a6 12F0010F 		tst	r2, #1
 635 04aa 08BF     		it	eq
 636 04ac 8846     		moveq	r8, r1
 637 04ae 03F00101 		and	r1, r3, #1
 638 04b2 0029     		cmp	r1, #0
 116:..\u8g2-master\csrc/u8x8_d_ssd1322.c ****     }
 639              		.loc 1 116 0
 640 04b4 4FEA5202 		lsr	r2, r2, #1
 113:..\u8g2-master\csrc/u8x8_d_ssd1322.c ****       dest+=4;
 641              		.loc 1 113 0
 642 04b8 15BF     		itete	ne
 643 04ba 4FF0FF3C 		movne	ip, #-1
 644 04be 4FF00F0C 		moveq	ip, #15
 645 04c2 F021     		movne	r1, #240
 646 04c4 0021     		moveq	r1, #0
 115:..\u8g2-master\csrc/u8x8_d_ssd1322.c ****       b >>= 1;
 647              		.loc 1 115 0
 648 04c6 5B08     		lsrs	r3, r3, #1
 113:..\u8g2-master\csrc/u8x8_d_ssd1322.c ****       dest+=4;
 649              		.loc 1 113 0
 650 04c8 12F0010F 		tst	r2, #1
 651 04cc 08BF     		it	eq
 652 04ce 8C46     		moveq	ip, r1
 653 04d0 03F00101 		and	r1, r3, #1
 654 04d4 0029     		cmp	r1, #0
 116:..\u8g2-master\csrc/u8x8_d_ssd1322.c ****     }
 655              		.loc 1 116 0
 656 04d6 4FEA5202 		lsr	r2, r2, #1
 657 04da 15BF     		itete	ne
 658 04dc F021     		movne	r1, #240
 659 04de 0021     		moveq	r1, #0
 113:..\u8g2-master\csrc/u8x8_d_ssd1322.c ****       dest+=4;
 660              		.loc 1 113 0
 661 04e0 4FF0FF30 		movne	r0, #-1
 662 04e4 0F20     		moveq	r0, #15
 115:..\u8g2-master\csrc/u8x8_d_ssd1322.c ****       b >>= 1;
 663              		.loc 1 115 0
 664 04e6 5B08     		lsrs	r3, r3, #1
 113:..\u8g2-master\csrc/u8x8_d_ssd1322.c ****       dest+=4;
 665              		.loc 1 113 0
 666 04e8 12F0010F 		tst	r2, #1
 667 04ec 18BF     		it	ne
 668 04ee 0146     		movne	r1, r0
 669 04f0 03F00100 		and	r0, r3, #1
 670 04f4 0028     		cmp	r0, #0
 116:..\u8g2-master\csrc/u8x8_d_ssd1322.c ****     }
 671              		.loc 1 116 0
 672 04f6 4FEA5202 		lsr	r2, r2, #1
 673 04fa 15BF     		itete	ne
ARM GAS  C:\Users\info\AppData\Local\Temp\cchQo10v.s 			page 19


 674 04fc F020     		movne	r0, #240
 675 04fe 0020     		moveq	r0, #0
 113:..\u8g2-master\csrc/u8x8_d_ssd1322.c ****       dest+=4;
 676              		.loc 1 113 0
 677 0500 4FF0FF3E 		movne	lr, #-1
 678 0504 4FF00F0E 		moveq	lr, #15
 115:..\u8g2-master\csrc/u8x8_d_ssd1322.c ****       b >>= 1;
 679              		.loc 1 115 0
 680 0508 5B08     		lsrs	r3, r3, #1
 113:..\u8g2-master\csrc/u8x8_d_ssd1322.c ****       dest+=4;
 681              		.loc 1 113 0
 682 050a 12F0010F 		tst	r2, #1
 683 050e 18BF     		it	ne
 684 0510 7046     		movne	r0, lr
 685 0512 03F0010E 		and	lr, r3, #1
 686 0516 BEF1000F 		cmp	lr, #0
 116:..\u8g2-master\csrc/u8x8_d_ssd1322.c ****     }
 687              		.loc 1 116 0
 688 051a 4FEA5202 		lsr	r2, r2, #1
 115:..\u8g2-master\csrc/u8x8_d_ssd1322.c ****       b >>= 1;
 689              		.loc 1 115 0
 690 051e 4FEA5303 		lsr	r3, r3, #1
 691 0522 15BF     		itete	ne
 692 0524 4FF0F00E 		movne	lr, #240
 693 0528 4FF0000E 		moveq	lr, #0
 113:..\u8g2-master\csrc/u8x8_d_ssd1322.c ****       dest+=4;
 694              		.loc 1 113 0
 695 052c 4FF0FF3B 		movne	fp, #-1
 696 0530 4FF00F0B 		moveq	fp, #15
 697 0534 12F0010F 		tst	r2, #1
 698 0538 18BF     		it	ne
 699 053a DE46     		movne	lr, fp
 700 053c 002B     		cmp	r3, #0
 701 053e 15BF     		itete	ne
 702 0540 F023     		movne	r3, #240
 703 0542 0023     		moveq	r3, #0
 704 0544 4FF0FF3B 		movne	fp, #-1
 705 0548 4FF00F0B 		moveq	fp, #15
 706 054c 5208     		lsrs	r2, r2, #1
 707 054e 18BF     		it	ne
 708 0550 5B46     		movne	r3, fp
 709 0552 85F803A0 		strb	r10, [r5, #3]
 710              	.LBE17:
 711              	.LBE16:
 207:..\u8g2-master\csrc/u8x8_d_ssd1322.c **** 	  
 712              		.loc 1 207 0
 713 0556 214A     		ldr	r2, .L21
 714              	.LBB20:
 715              	.LBB18:
 113:..\u8g2-master\csrc/u8x8_d_ssd1322.c ****       dest+=4;
 716              		.loc 1 113 0
 717 0558 E974     		strb	r1, [r5, #19]
 718 055a E875     		strb	r0, [r5, #23]
 719              	.LBE18:
 720              	.LBE20:
 207:..\u8g2-master\csrc/u8x8_d_ssd1322.c **** 	  
 721              		.loc 1 207 0
ARM GAS  C:\Users\info\AppData\Local\Temp\cchQo10v.s 			page 20


 722 055c 2021     		movs	r1, #32
 723 055e 3046     		mov	r0, r6
 724              	.LBB21:
 725              	.LBB19:
 113:..\u8g2-master\csrc/u8x8_d_ssd1322.c ****       dest+=4;
 726              		.loc 1 113 0
 727 0560 EB77     		strb	r3, [r5, #31]
 728 0562 85F80790 		strb	r9, [r5, #7]
 729 0566 85F80B80 		strb	r8, [r5, #11]
 730 056a 85F80FC0 		strb	ip, [r5, #15]
 731 056e 85F81BE0 		strb	lr, [r5, #27]
 732              	.LBE19:
 733              	.LBE21:
 207:..\u8g2-master\csrc/u8x8_d_ssd1322.c **** 	  
 734              		.loc 1 207 0
 735 0572 FFF7FEFF 		bl	u8x8_cad_SendData
 736              	.LVL31:
 212:..\u8g2-master\csrc/u8x8_d_ssd1322.c **** 	
 737              		.loc 1 212 0
 738 0576 019B     		ldr	r3, [sp, #4]
 739 0578 0837     		adds	r7, r7, #8
 210:..\u8g2-master\csrc/u8x8_d_ssd1322.c **** 	  c--;
 740              		.loc 1 210 0
 741 057a 0234     		adds	r4, r4, #2
 742              	.LVL32:
 212:..\u8g2-master\csrc/u8x8_d_ssd1322.c **** 	
 743              		.loc 1 212 0
 744 057c 9F42     		cmp	r7, r3
 210:..\u8g2-master\csrc/u8x8_d_ssd1322.c **** 	  c--;
 745              		.loc 1 210 0
 746 057e E4B2     		uxtb	r4, r4
 747              	.LVL33:
 212:..\u8g2-master\csrc/u8x8_d_ssd1322.c **** 	
 748              		.loc 1 212 0
 749 0580 7FF488AD 		bne	.L7
 750 0584 029B     		ldr	r3, [sp, #8]
 751 0586 049A     		ldr	r2, [sp, #16]
 752 0588 03EB4203 		add	r3, r3, r2, lsl #1
 215:..\u8g2-master\csrc/u8x8_d_ssd1322.c ****       } while( arg_int > 0 );
 753              		.loc 1 215 0
 754 058c 039A     		ldr	r2, [sp, #12]
 755 058e DBB2     		uxtb	r3, r3
 756 0590 013A     		subs	r2, r2, #1
 757              	.LVL34:
 758 0592 0293     		str	r3, [sp, #8]
 216:..\u8g2-master\csrc/u8x8_d_ssd1322.c ****       
 759              		.loc 1 216 0
 760 0594 12F0FF03 		ands	r3, r2, #255
 761 0598 0393     		str	r3, [sp, #12]
 762 059a 7FF46BAD 		bne	.L8
 218:..\u8g2-master\csrc/u8x8_d_ssd1322.c ****       break;
 763              		.loc 1 218 0
 764 059e 3046     		mov	r0, r6
 765 05a0 FFF7FEFF 		bl	u8x8_cad_EndTransfer
 766              	.LVL35:
 767 05a4 0120     		movs	r0, #1
 768              	.LBE15:
ARM GAS  C:\Users\info\AppData\Local\Temp\cchQo10v.s 			page 21


 769              	.LBE14:
 770              		.loc 1 224 0
 771 05a6 07B0     		add	sp, sp, #28
 772              		.cfi_remember_state
 773              		.cfi_def_cfa_offset 36
 774              		@ sp needed
 775 05a8 BDE8F08F 		pop	{r4, r5, r6, r7, r8, r9, r10, fp, pc}
 776              	.LVL36:
 777              	.L3:
 778              		.cfi_restore_state
 174:..\u8g2-master\csrc/u8x8_d_ssd1322.c ****       u8x8_cad_SendCmd(u8x8, 0x0C1 );
 779              		.loc 1 174 0
 780 05ac FFF7FEFF 		bl	u8x8_cad_StartTransfer
 781              	.LVL37:
 175:..\u8g2-master\csrc/u8x8_d_ssd1322.c ****       u8x8_cad_SendArg(u8x8, arg_int );	/* ssd1322 has range from 0 to 255 */
 782              		.loc 1 175 0
 783 05b0 C121     		movs	r1, #193
 784 05b2 3046     		mov	r0, r6
 785 05b4 FFF7FEFF 		bl	u8x8_cad_SendCmd
 786              	.LVL38:
 176:..\u8g2-master\csrc/u8x8_d_ssd1322.c ****       u8x8_cad_EndTransfer(u8x8);
 787              		.loc 1 176 0
 788 05b8 0399     		ldr	r1, [sp, #12]
 789 05ba 3046     		mov	r0, r6
 790 05bc FFF7FEFF 		bl	u8x8_cad_SendArg
 791              	.LVL39:
 177:..\u8g2-master\csrc/u8x8_d_ssd1322.c ****       break;
 792              		.loc 1 177 0
 793 05c0 3046     		mov	r0, r6
 794 05c2 FFF7FEFF 		bl	u8x8_cad_EndTransfer
 795              	.LVL40:
 223:..\u8g2-master\csrc/u8x8_d_ssd1322.c **** }
 796              		.loc 1 223 0
 797 05c6 0120     		movs	r0, #1
 798              		.loc 1 224 0
 799 05c8 07B0     		add	sp, sp, #28
 800              		.cfi_remember_state
 801              		.cfi_def_cfa_offset 36
 802              		@ sp needed
 803 05ca BDE8F08F 		pop	{r4, r5, r6, r7, r8, r9, r10, fp, pc}
 804              	.LVL41:
 805              	.L6:
 806              		.cfi_restore_state
 170:..\u8g2-master\csrc/u8x8_d_ssd1322.c ****       break;
 807              		.loc 1 170 0
 808 05ce 0449     		ldr	r1, .L21+4
 809              	.LVL42:
 810 05d0 FFF7FEFF 		bl	u8x8_cad_SendSequence
 811              	.LVL43:
 223:..\u8g2-master\csrc/u8x8_d_ssd1322.c **** }
 812              		.loc 1 223 0
 813 05d4 0120     		movs	r0, #1
 814              		.loc 1 224 0
 815 05d6 07B0     		add	sp, sp, #28
 816              		.cfi_def_cfa_offset 36
 817              		@ sp needed
 818 05d8 BDE8F08F 		pop	{r4, r5, r6, r7, r8, r9, r10, fp, pc}
ARM GAS  C:\Users\info\AppData\Local\Temp\cchQo10v.s 			page 22


 819              	.LVL44:
 820              	.L22:
 821              		.align	2
 822              	.L21:
 823 05dc 00000000 		.word	.LANCHOR1
 824 05e0 08000000 		.word	.LANCHOR0+8
 825              		.cfi_endproc
 826              	.LFE2:
 827              		.size	u8x8_d_ssd1322_common, .-u8x8_d_ssd1322_common
 828              		.section	.text.u8x8_d_ssd1322_nhd_256x64,"ax",%progbits
 829              		.align	2
 830              		.global	u8x8_d_ssd1322_nhd_256x64
 831              		.thumb
 832              		.thumb_func
 833              		.type	u8x8_d_ssd1322_nhd_256x64, %function
 834              	u8x8_d_ssd1322_nhd_256x64:
 835              	.LFB3:
 225:..\u8g2-master\csrc/u8x8_d_ssd1322.c **** 
 226:..\u8g2-master\csrc/u8x8_d_ssd1322.c **** /*=========================================================*/
 227:..\u8g2-master\csrc/u8x8_d_ssd1322.c **** 
 228:..\u8g2-master\csrc/u8x8_d_ssd1322.c **** static const uint8_t u8x8_d_ssd1322_256x64_flip0_seq[] = {
 229:..\u8g2-master\csrc/u8x8_d_ssd1322.c ****   U8X8_START_TRANSFER(),             	/* enable chip, delay is part of the transfer start */
 230:..\u8g2-master\csrc/u8x8_d_ssd1322.c ****   U8X8_CAA(0x0a0, 0x006, 0x011),		/* remap */
 231:..\u8g2-master\csrc/u8x8_d_ssd1322.c ****   U8X8_END_TRANSFER(),             	/* disable chip */
 232:..\u8g2-master\csrc/u8x8_d_ssd1322.c ****   U8X8_END()             			/* end of sequence */
 233:..\u8g2-master\csrc/u8x8_d_ssd1322.c **** };
 234:..\u8g2-master\csrc/u8x8_d_ssd1322.c **** 
 235:..\u8g2-master\csrc/u8x8_d_ssd1322.c **** static const uint8_t u8x8_d_ssd1322_256x64_flip1_seq[] = {
 236:..\u8g2-master\csrc/u8x8_d_ssd1322.c ****   U8X8_START_TRANSFER(),             	/* enable chip, delay is part of the transfer start */
 237:..\u8g2-master\csrc/u8x8_d_ssd1322.c ****   U8X8_CAA(0x0a0, 0x014, 0x011),		/* remap */
 238:..\u8g2-master\csrc/u8x8_d_ssd1322.c ****   U8X8_END_TRANSFER(),             	/* disable chip */
 239:..\u8g2-master\csrc/u8x8_d_ssd1322.c ****   U8X8_END()             			/* end of sequence */
 240:..\u8g2-master\csrc/u8x8_d_ssd1322.c **** };
 241:..\u8g2-master\csrc/u8x8_d_ssd1322.c **** 
 242:..\u8g2-master\csrc/u8x8_d_ssd1322.c **** static const u8x8_display_info_t u8x8_ssd1322_256x64_display_info =
 243:..\u8g2-master\csrc/u8x8_d_ssd1322.c **** {
 244:..\u8g2-master\csrc/u8x8_d_ssd1322.c ****   /* chip_enable_level = */ 0,
 245:..\u8g2-master\csrc/u8x8_d_ssd1322.c ****   /* chip_disable_level = */ 1,
 246:..\u8g2-master\csrc/u8x8_d_ssd1322.c ****   
 247:..\u8g2-master\csrc/u8x8_d_ssd1322.c ****   /* post_chip_enable_wait_ns = */ 20,
 248:..\u8g2-master\csrc/u8x8_d_ssd1322.c ****   /* pre_chip_disable_wait_ns = */ 10,
 249:..\u8g2-master\csrc/u8x8_d_ssd1322.c ****   /* reset_pulse_width_ms = */ 100, 	/* SSD1322: 2 us */
 250:..\u8g2-master\csrc/u8x8_d_ssd1322.c ****   /* post_reset_wait_ms = */ 100, /* far east OLEDs need much longer setup time */
 251:..\u8g2-master\csrc/u8x8_d_ssd1322.c ****   /* sda_setup_time_ns = */ 50,		/* SSD1322: 15ns, but cycle time is 100ns, so use 100/2 */
 252:..\u8g2-master\csrc/u8x8_d_ssd1322.c ****   /* sck_pulse_width_ns = */ 50,	/* SSD1322: 20ns, but cycle time is 100ns, so use 100/2, AVR: belo
 253:..\u8g2-master\csrc/u8x8_d_ssd1322.c ****   /* sck_clock_hz = */ 10000000UL,	/* since Arduino 1.6.0, the SPI bus speed in Hz. Should be  1000
 254:..\u8g2-master\csrc/u8x8_d_ssd1322.c ****   /* spi_mode = */ 0,		/* active high, rising edge */
 255:..\u8g2-master\csrc/u8x8_d_ssd1322.c ****   /* i2c_bus_clock_100kHz = */ 4,
 256:..\u8g2-master\csrc/u8x8_d_ssd1322.c ****   /* data_setup_time_ns = */ 10,
 257:..\u8g2-master\csrc/u8x8_d_ssd1322.c ****   /* write_pulse_width_ns = */ 150,	/* SSD1322: cycle time is 300ns, so use 300/2 = 150 */
 258:..\u8g2-master\csrc/u8x8_d_ssd1322.c ****   /* tile_width = */ 32,		/* 256 pixel, so we require 32 bytes for this */
 259:..\u8g2-master\csrc/u8x8_d_ssd1322.c ****   /* tile_hight = */ 8,
 260:..\u8g2-master\csrc/u8x8_d_ssd1322.c ****   /* default_x_offset = */ 0x01c,	/* this is the byte offset (there are two pixel per byte with 4 b
 261:..\u8g2-master\csrc/u8x8_d_ssd1322.c ****   /* flipmode_x_offset = */ 0x01c,
 262:..\u8g2-master\csrc/u8x8_d_ssd1322.c ****   /* pixel_width = */ 256,
 263:..\u8g2-master\csrc/u8x8_d_ssd1322.c ****   /* pixel_height = */ 64
 264:..\u8g2-master\csrc/u8x8_d_ssd1322.c **** };
ARM GAS  C:\Users\info\AppData\Local\Temp\cchQo10v.s 			page 23


 265:..\u8g2-master\csrc/u8x8_d_ssd1322.c **** 
 266:..\u8g2-master\csrc/u8x8_d_ssd1322.c **** 
 267:..\u8g2-master\csrc/u8x8_d_ssd1322.c **** static const uint8_t u8x8_d_ssd1322_256x64_init_seq[] = {
 268:..\u8g2-master\csrc/u8x8_d_ssd1322.c ****     
 269:..\u8g2-master\csrc/u8x8_d_ssd1322.c ****   U8X8_DLY(1),
 270:..\u8g2-master\csrc/u8x8_d_ssd1322.c ****   U8X8_START_TRANSFER(),             	/* enable chip, delay is part of the transfer start */
 271:..\u8g2-master\csrc/u8x8_d_ssd1322.c ****   U8X8_DLY(1),
 272:..\u8g2-master\csrc/u8x8_d_ssd1322.c ****   
 273:..\u8g2-master\csrc/u8x8_d_ssd1322.c ****   U8X8_CA(0xfd, 0x12),            	/* unlock */
 274:..\u8g2-master\csrc/u8x8_d_ssd1322.c ****   U8X8_C(0xae),		                /* display off */
 275:..\u8g2-master\csrc/u8x8_d_ssd1322.c ****   U8X8_CA(0xb3, 0x91),			/* set display clock divide ratio/oscillator frequency (set clock as 80 fr
 276:..\u8g2-master\csrc/u8x8_d_ssd1322.c ****   U8X8_CA(0xca, 0x3f),			/* multiplex ratio 1/64 Duty (0x0F~0x3F) */  
 277:..\u8g2-master\csrc/u8x8_d_ssd1322.c ****   U8X8_CA(0xa2, 0x00),			/* display offset, shift mapping ram counter */  
 278:..\u8g2-master\csrc/u8x8_d_ssd1322.c ****   U8X8_CA(0xa1, 0x00),			/* display start line */  
 279:..\u8g2-master\csrc/u8x8_d_ssd1322.c ****   //U8X8_CAA(0xa0, 0x14, 0x11),	/* Set Re-Map / Dual COM Line Mode */  
 280:..\u8g2-master\csrc/u8x8_d_ssd1322.c ****   U8X8_CAA(0xa0, 0x06, 0x011),	/* Set Re-Map / Dual COM Line Mode */  
 281:..\u8g2-master\csrc/u8x8_d_ssd1322.c ****   U8X8_CA(0xab, 0x01),			/* Enable Internal VDD Regulator */  
 282:..\u8g2-master\csrc/u8x8_d_ssd1322.c ****   U8X8_CAA(0xb4, 0xa0, 0x005|0x0fd),	/* Display Enhancement A */  
 283:..\u8g2-master\csrc/u8x8_d_ssd1322.c ****   U8X8_CA(0xc1, 0x9f),			/* contrast */  
 284:..\u8g2-master\csrc/u8x8_d_ssd1322.c ****   U8X8_CA(0xc7, 0x0f),			/* Set Scale Factor of Segment Output Current Control */  
 285:..\u8g2-master\csrc/u8x8_d_ssd1322.c ****   U8X8_C(0xb9),		                /* linear grayscale */
 286:..\u8g2-master\csrc/u8x8_d_ssd1322.c ****   U8X8_CA(0xb1, 0xe2),			/* Phase 1 (Reset) & Phase 2 (Pre-Charge) Period Adjustment */  
 287:..\u8g2-master\csrc/u8x8_d_ssd1322.c ****   U8X8_CAA(0xd1, 0x082|0x020, 0x020),	/* Display Enhancement B */  
 288:..\u8g2-master\csrc/u8x8_d_ssd1322.c ****   U8X8_CA(0xbb, 0x1f),			/* precharge  voltage */  
 289:..\u8g2-master\csrc/u8x8_d_ssd1322.c ****   U8X8_CA(0xb6, 0x08),			/* precharge  period */  
 290:..\u8g2-master\csrc/u8x8_d_ssd1322.c ****   U8X8_CA(0xbe, 0x07),			/* vcomh */  
 291:..\u8g2-master\csrc/u8x8_d_ssd1322.c ****   U8X8_C(0xa6),		                /* normal display */
 292:..\u8g2-master\csrc/u8x8_d_ssd1322.c ****   U8X8_C(0xa9),		                /* exit partial display */
 293:..\u8g2-master\csrc/u8x8_d_ssd1322.c **** 
 294:..\u8g2-master\csrc/u8x8_d_ssd1322.c **** 
 295:..\u8g2-master\csrc/u8x8_d_ssd1322.c ****   U8X8_DLY(1),					/* delay 2ms */
 296:..\u8g2-master\csrc/u8x8_d_ssd1322.c **** 
 297:..\u8g2-master\csrc/u8x8_d_ssd1322.c ****   
 298:..\u8g2-master\csrc/u8x8_d_ssd1322.c ****   U8X8_END_TRANSFER(),             	/* disable chip */
 299:..\u8g2-master\csrc/u8x8_d_ssd1322.c ****   U8X8_END()             			/* end of sequence */
 300:..\u8g2-master\csrc/u8x8_d_ssd1322.c **** };
 301:..\u8g2-master\csrc/u8x8_d_ssd1322.c **** 
 302:..\u8g2-master\csrc/u8x8_d_ssd1322.c **** 
 303:..\u8g2-master\csrc/u8x8_d_ssd1322.c **** uint8_t u8x8_d_ssd1322_nhd_256x64(u8x8_t *u8x8, uint8_t msg, uint8_t arg_int, void *arg_ptr)
 304:..\u8g2-master\csrc/u8x8_d_ssd1322.c **** {
 836              		.loc 1 304 0
 837              		.cfi_startproc
 838              		@ args = 0, pretend = 0, frame = 0
 839              		@ frame_needed = 0, uses_anonymous_args = 0
 840              	.LVL45:
 305:..\u8g2-master\csrc/u8x8_d_ssd1322.c ****   switch(msg)
 841              		.loc 1 305 0
 842 0000 0A29     		cmp	r1, #10
 304:..\u8g2-master\csrc/u8x8_d_ssd1322.c ****   switch(msg)
 843              		.loc 1 304 0
 844 0002 70B5     		push	{r4, r5, r6, lr}
 845              		.cfi_def_cfa_offset 16
 846              		.cfi_offset 4, -16
 847              		.cfi_offset 5, -12
 848              		.cfi_offset 6, -8
 849              		.cfi_offset 14, -4
 304:..\u8g2-master\csrc/u8x8_d_ssd1322.c ****   switch(msg)
ARM GAS  C:\Users\info\AppData\Local\Temp\cchQo10v.s 			page 24


 850              		.loc 1 304 0
 851 0004 0546     		mov	r5, r0
 852              		.loc 1 305 0
 853 0006 16D0     		beq	.L25
 854 0008 0D29     		cmp	r1, #13
 855 000a 0AD0     		beq	.L26
 856 000c 0929     		cmp	r1, #9
 857 000e 03D0     		beq	.L32
 306:..\u8g2-master\csrc/u8x8_d_ssd1322.c ****   {
 307:..\u8g2-master\csrc/u8x8_d_ssd1322.c ****     case U8X8_MSG_DISPLAY_SETUP_MEMORY:
 308:..\u8g2-master\csrc/u8x8_d_ssd1322.c ****       u8x8_d_helper_display_setup_memory(u8x8, &u8x8_ssd1322_256x64_display_info);
 309:..\u8g2-master\csrc/u8x8_d_ssd1322.c ****       break;
 310:..\u8g2-master\csrc/u8x8_d_ssd1322.c ****     case U8X8_MSG_DISPLAY_INIT:
 311:..\u8g2-master\csrc/u8x8_d_ssd1322.c ****       u8x8_d_helper_display_init(u8x8);
 312:..\u8g2-master\csrc/u8x8_d_ssd1322.c ****       u8x8_cad_SendSequence(u8x8, u8x8_d_ssd1322_256x64_init_seq);
 313:..\u8g2-master\csrc/u8x8_d_ssd1322.c ****       break;
 314:..\u8g2-master\csrc/u8x8_d_ssd1322.c ****     case U8X8_MSG_DISPLAY_SET_FLIP_MODE:
 315:..\u8g2-master\csrc/u8x8_d_ssd1322.c ****       if ( arg_int == 0 )
 316:..\u8g2-master\csrc/u8x8_d_ssd1322.c ****       {
 317:..\u8g2-master\csrc/u8x8_d_ssd1322.c **** 	u8x8_cad_SendSequence(u8x8, u8x8_d_ssd1322_256x64_flip0_seq);
 318:..\u8g2-master\csrc/u8x8_d_ssd1322.c **** 	u8x8->x_offset = u8x8->display_info->default_x_offset;
 319:..\u8g2-master\csrc/u8x8_d_ssd1322.c ****       }
 320:..\u8g2-master\csrc/u8x8_d_ssd1322.c ****       else
 321:..\u8g2-master\csrc/u8x8_d_ssd1322.c ****       {
 322:..\u8g2-master\csrc/u8x8_d_ssd1322.c **** 	u8x8_cad_SendSequence(u8x8, u8x8_d_ssd1322_256x64_flip1_seq);
 323:..\u8g2-master\csrc/u8x8_d_ssd1322.c **** 	u8x8->x_offset = u8x8->display_info->flipmode_x_offset;
 324:..\u8g2-master\csrc/u8x8_d_ssd1322.c ****       }
 325:..\u8g2-master\csrc/u8x8_d_ssd1322.c ****       break;
 326:..\u8g2-master\csrc/u8x8_d_ssd1322.c ****     
 327:..\u8g2-master\csrc/u8x8_d_ssd1322.c ****     default:
 328:..\u8g2-master\csrc/u8x8_d_ssd1322.c ****       return u8x8_d_ssd1322_common(u8x8, msg, arg_int, arg_ptr);
 329:..\u8g2-master\csrc/u8x8_d_ssd1322.c ****   }
 330:..\u8g2-master\csrc/u8x8_d_ssd1322.c ****   return 1;
 331:..\u8g2-master\csrc/u8x8_d_ssd1322.c **** }
 858              		.loc 1 331 0
 859 0010 BDE87040 		pop	{r4, r5, r6, lr}
 860              		.cfi_remember_state
 861              		.cfi_restore 14
 862              		.cfi_restore 6
 863              		.cfi_restore 5
 864              		.cfi_restore 4
 865              		.cfi_def_cfa_offset 0
 328:..\u8g2-master\csrc/u8x8_d_ssd1322.c ****   }
 866              		.loc 1 328 0
 867 0014 FFF7FEBF 		b	u8x8_d_ssd1322_common
 868              	.LVL46:
 869              	.L32:
 870              		.cfi_restore_state
 308:..\u8g2-master\csrc/u8x8_d_ssd1322.c ****       break;
 871              		.loc 1 308 0
 872 0018 0F49     		ldr	r1, .L33
 873              	.LVL47:
 874 001a FFF7FEFF 		bl	u8x8_d_helper_display_setup_memory
 875              	.LVL48:
 876              		.loc 1 331 0
 877 001e 0120     		movs	r0, #1
 878 0020 70BD     		pop	{r4, r5, r6, pc}
ARM GAS  C:\Users\info\AppData\Local\Temp\cchQo10v.s 			page 25


 879              	.LVL49:
 880              	.L26:
 315:..\u8g2-master\csrc/u8x8_d_ssd1322.c ****       {
 881              		.loc 1 315 0
 882 0022 82B9     		cbnz	r2, .L29
 317:..\u8g2-master\csrc/u8x8_d_ssd1322.c **** 	u8x8->x_offset = u8x8->display_info->default_x_offset;
 883              		.loc 1 317 0
 884 0024 0D49     		ldr	r1, .L33+4
 885              	.LVL50:
 886 0026 FFF7FEFF 		bl	u8x8_cad_SendSequence
 887              	.LVL51:
 318:..\u8g2-master\csrc/u8x8_d_ssd1322.c ****       }
 888              		.loc 1 318 0
 889 002a 2B68     		ldr	r3, [r5]
 890              		.loc 1 331 0
 891 002c 0120     		movs	r0, #1
 318:..\u8g2-master\csrc/u8x8_d_ssd1322.c ****       }
 892              		.loc 1 318 0
 893 002e 9B7C     		ldrb	r3, [r3, #18]	@ zero_extendqisi2
 894 0030 85F82230 		strb	r3, [r5, #34]
 895              		.loc 1 331 0
 896 0034 70BD     		pop	{r4, r5, r6, pc}
 897              	.LVL52:
 898              	.L25:
 311:..\u8g2-master\csrc/u8x8_d_ssd1322.c ****       u8x8_cad_SendSequence(u8x8, u8x8_d_ssd1322_256x64_init_seq);
 899              		.loc 1 311 0
 900 0036 FFF7FEFF 		bl	u8x8_d_helper_display_init
 901              	.LVL53:
 312:..\u8g2-master\csrc/u8x8_d_ssd1322.c ****       break;
 902              		.loc 1 312 0
 903 003a 2846     		mov	r0, r5
 904 003c 0849     		ldr	r1, .L33+8
 905 003e FFF7FEFF 		bl	u8x8_cad_SendSequence
 906              	.LVL54:
 907              		.loc 1 331 0
 908 0042 0120     		movs	r0, #1
 909 0044 70BD     		pop	{r4, r5, r6, pc}
 910              	.LVL55:
 911              	.L29:
 322:..\u8g2-master\csrc/u8x8_d_ssd1322.c **** 	u8x8->x_offset = u8x8->display_info->flipmode_x_offset;
 912              		.loc 1 322 0
 913 0046 0749     		ldr	r1, .L33+12
 914              	.LVL56:
 915 0048 FFF7FEFF 		bl	u8x8_cad_SendSequence
 916              	.LVL57:
 323:..\u8g2-master\csrc/u8x8_d_ssd1322.c ****       }
 917              		.loc 1 323 0
 918 004c 2B68     		ldr	r3, [r5]
 919              		.loc 1 331 0
 920 004e 0120     		movs	r0, #1
 323:..\u8g2-master\csrc/u8x8_d_ssd1322.c ****       }
 921              		.loc 1 323 0
 922 0050 DB7C     		ldrb	r3, [r3, #19]	@ zero_extendqisi2
 923 0052 85F82230 		strb	r3, [r5, #34]
 924              		.loc 1 331 0
 925 0056 70BD     		pop	{r4, r5, r6, pc}
 926              	.LVL58:
ARM GAS  C:\Users\info\AppData\Local\Temp\cchQo10v.s 			page 26


 927              	.L34:
 928              		.align	2
 929              	.L33:
 930 0058 10000000 		.word	.LANCHOR0+16
 931 005c 7C000000 		.word	.LANCHOR0+124
 932 0060 28000000 		.word	.LANCHOR0+40
 933 0064 88000000 		.word	.LANCHOR0+136
 934              		.cfi_endproc
 935              	.LFE3:
 936              		.size	u8x8_d_ssd1322_nhd_256x64, .-u8x8_d_ssd1322_nhd_256x64
 937              		.section	.text.u8x8_d_ssd1322_common2,"ax",%progbits
 938              		.align	2
 939              		.global	u8x8_d_ssd1322_common2
 940              		.thumb
 941              		.thumb_func
 942              		.type	u8x8_d_ssd1322_common2, %function
 943              	u8x8_d_ssd1322_common2:
 944              	.LFB4:
 332:..\u8g2-master\csrc/u8x8_d_ssd1322.c **** 
 333:..\u8g2-master\csrc/u8x8_d_ssd1322.c **** /*=========================================================*/
 334:..\u8g2-master\csrc/u8x8_d_ssd1322.c **** /* 
 335:..\u8g2-master\csrc/u8x8_d_ssd1322.c ****   NHD-2.7-12864WDW3-M 
 336:..\u8g2-master\csrc/u8x8_d_ssd1322.c ****   http://www.newhavendisplay.com/nhd2712864wdw3m-p-9546.html
 337:..\u8g2-master\csrc/u8x8_d_ssd1322.c ****   http://www.newhavendisplay.com/specs/NHD-2.7-12864WDW3-M.pdf
 338:..\u8g2-master\csrc/u8x8_d_ssd1322.c **** 
 339:..\u8g2-master\csrc/u8x8_d_ssd1322.c ****   It looks like that only every second pixel is connected to the OLED
 340:..\u8g2-master\csrc/u8x8_d_ssd1322.c **** */
 341:..\u8g2-master\csrc/u8x8_d_ssd1322.c **** 
 342:..\u8g2-master\csrc/u8x8_d_ssd1322.c **** uint8_t u8x8_d_ssd1322_common2(u8x8_t *u8x8, uint8_t msg, uint8_t arg_int, void *arg_ptr)
 343:..\u8g2-master\csrc/u8x8_d_ssd1322.c **** {
 945              		.loc 1 343 0
 946              		.cfi_startproc
 947              		@ args = 0, pretend = 0, frame = 8
 948              		@ frame_needed = 0, uses_anonymous_args = 0
 949              	.LVL59:
 950 0000 2DE9F04F 		push	{r4, r5, r6, r7, r8, r9, r10, fp, lr}
 951              		.cfi_def_cfa_offset 36
 952              		.cfi_offset 4, -36
 953              		.cfi_offset 5, -32
 954              		.cfi_offset 6, -28
 955              		.cfi_offset 7, -24
 956              		.cfi_offset 8, -20
 957              		.cfi_offset 9, -16
 958              		.cfi_offset 10, -12
 959              		.cfi_offset 11, -8
 960              		.cfi_offset 14, -4
 344:..\u8g2-master\csrc/u8x8_d_ssd1322.c ****   uint8_t x; 
 345:..\u8g2-master\csrc/u8x8_d_ssd1322.c ****   uint8_t y, c;
 346:..\u8g2-master\csrc/u8x8_d_ssd1322.c ****   uint8_t *ptr;
 347:..\u8g2-master\csrc/u8x8_d_ssd1322.c ****   switch(msg)
 961              		.loc 1 347 0
 962 0004 0E29     		cmp	r1, #14
 343:..\u8g2-master\csrc/u8x8_d_ssd1322.c ****   uint8_t x; 
 963              		.loc 1 343 0
 964 0006 83B0     		sub	sp, sp, #12
 965              		.cfi_def_cfa_offset 48
 343:..\u8g2-master\csrc/u8x8_d_ssd1322.c ****   uint8_t x; 
ARM GAS  C:\Users\info\AppData\Local\Temp\cchQo10v.s 			page 27


 966              		.loc 1 343 0
 967 0008 0092     		str	r2, [sp]
 968 000a 0646     		mov	r6, r0
 969              		.loc 1 347 0
 970 000c 00F0D081 		beq	.L37
 971 0010 0F29     		cmp	r1, #15
 972 0012 0FD0     		beq	.L38
 973 0014 0B29     		cmp	r1, #11
 974 0016 03D0     		beq	.L48
 348:..\u8g2-master\csrc/u8x8_d_ssd1322.c ****   {
 349:..\u8g2-master\csrc/u8x8_d_ssd1322.c ****     /* U8X8_MSG_DISPLAY_SETUP_MEMORY is handled by the calling function */
 350:..\u8g2-master\csrc/u8x8_d_ssd1322.c ****     /*
 351:..\u8g2-master\csrc/u8x8_d_ssd1322.c ****     case U8X8_MSG_DISPLAY_SETUP_MEMORY:
 352:..\u8g2-master\csrc/u8x8_d_ssd1322.c ****       break;
 353:..\u8g2-master\csrc/u8x8_d_ssd1322.c ****     case U8X8_MSG_DISPLAY_INIT:
 354:..\u8g2-master\csrc/u8x8_d_ssd1322.c ****       u8x8_d_helper_display_init(u8x8);
 355:..\u8g2-master\csrc/u8x8_d_ssd1322.c ****       u8x8_cad_SendSequence(u8x8, u8x8_d_ssd1322_256x64_init_seq);
 356:..\u8g2-master\csrc/u8x8_d_ssd1322.c ****       break;
 357:..\u8g2-master\csrc/u8x8_d_ssd1322.c ****     */
 358:..\u8g2-master\csrc/u8x8_d_ssd1322.c ****     case U8X8_MSG_DISPLAY_SET_POWER_SAVE:
 359:..\u8g2-master\csrc/u8x8_d_ssd1322.c ****       if ( arg_int == 0 )
 360:..\u8g2-master\csrc/u8x8_d_ssd1322.c **** 	u8x8_cad_SendSequence(u8x8, u8x8_d_ssd1322_powersave0_seq);
 361:..\u8g2-master\csrc/u8x8_d_ssd1322.c ****       else
 362:..\u8g2-master\csrc/u8x8_d_ssd1322.c **** 	u8x8_cad_SendSequence(u8x8, u8x8_d_ssd1322_powersave1_seq);
 363:..\u8g2-master\csrc/u8x8_d_ssd1322.c ****       break;
 364:..\u8g2-master\csrc/u8x8_d_ssd1322.c **** #ifdef U8X8_WITH_SET_CONTRAST
 365:..\u8g2-master\csrc/u8x8_d_ssd1322.c ****     case U8X8_MSG_DISPLAY_SET_CONTRAST:
 366:..\u8g2-master\csrc/u8x8_d_ssd1322.c ****       u8x8_cad_StartTransfer(u8x8);
 367:..\u8g2-master\csrc/u8x8_d_ssd1322.c ****       u8x8_cad_SendCmd(u8x8, 0x0C1 );
 368:..\u8g2-master\csrc/u8x8_d_ssd1322.c ****       u8x8_cad_SendArg(u8x8, arg_int );	/* ssd1322 has range from 0 to 255 */
 369:..\u8g2-master\csrc/u8x8_d_ssd1322.c ****       u8x8_cad_EndTransfer(u8x8);
 370:..\u8g2-master\csrc/u8x8_d_ssd1322.c ****       break;
 371:..\u8g2-master\csrc/u8x8_d_ssd1322.c **** #endif
 372:..\u8g2-master\csrc/u8x8_d_ssd1322.c ****     case U8X8_MSG_DISPLAY_DRAW_TILE:
 373:..\u8g2-master\csrc/u8x8_d_ssd1322.c ****       u8x8_cad_StartTransfer(u8x8);
 374:..\u8g2-master\csrc/u8x8_d_ssd1322.c ****       x = ((u8x8_tile_t *)arg_ptr)->x_pos;    
 375:..\u8g2-master\csrc/u8x8_d_ssd1322.c ****       x *= 2;		// only every 4th col can be addressed
 376:..\u8g2-master\csrc/u8x8_d_ssd1322.c ****       x *= 2;		// only every second pixel is used in the 128x64 NHD OLED 
 377:..\u8g2-master\csrc/u8x8_d_ssd1322.c ****     
 378:..\u8g2-master\csrc/u8x8_d_ssd1322.c ****       x += u8x8->x_offset;
 379:..\u8g2-master\csrc/u8x8_d_ssd1322.c ****     
 380:..\u8g2-master\csrc/u8x8_d_ssd1322.c ****       y = (((u8x8_tile_t *)arg_ptr)->y_pos);
 381:..\u8g2-master\csrc/u8x8_d_ssd1322.c ****       y *= 8;
 382:..\u8g2-master\csrc/u8x8_d_ssd1322.c ****           
 383:..\u8g2-master\csrc/u8x8_d_ssd1322.c ****       u8x8_cad_SendCmd(u8x8, 0x075 );	/* set row address, moved out of the loop (issue 302) */
 384:..\u8g2-master\csrc/u8x8_d_ssd1322.c ****       u8x8_cad_SendArg(u8x8, y);
 385:..\u8g2-master\csrc/u8x8_d_ssd1322.c ****       u8x8_cad_SendArg(u8x8, y+7);
 386:..\u8g2-master\csrc/u8x8_d_ssd1322.c ****       
 387:..\u8g2-master\csrc/u8x8_d_ssd1322.c ****       do
 388:..\u8g2-master\csrc/u8x8_d_ssd1322.c ****       {
 389:..\u8g2-master\csrc/u8x8_d_ssd1322.c **** 	c = ((u8x8_tile_t *)arg_ptr)->cnt;
 390:..\u8g2-master\csrc/u8x8_d_ssd1322.c **** 	ptr = ((u8x8_tile_t *)arg_ptr)->tile_ptr;
 391:..\u8g2-master\csrc/u8x8_d_ssd1322.c **** 
 392:..\u8g2-master\csrc/u8x8_d_ssd1322.c **** 	do
 393:..\u8g2-master\csrc/u8x8_d_ssd1322.c **** 	{
 394:..\u8g2-master\csrc/u8x8_d_ssd1322.c **** 	  u8x8_cad_SendCmd(u8x8, 0x015 );	/* set column address */
 395:..\u8g2-master\csrc/u8x8_d_ssd1322.c **** 	  u8x8_cad_SendArg(u8x8, x );	/* start */
ARM GAS  C:\Users\info\AppData\Local\Temp\cchQo10v.s 			page 28


 396:..\u8g2-master\csrc/u8x8_d_ssd1322.c **** 	  u8x8_cad_SendArg(u8x8, x+1 );	/* end */
 397:..\u8g2-master\csrc/u8x8_d_ssd1322.c **** 	  u8x8_cad_SendCmd(u8x8, 0x05c );	/* write to ram */	  
 398:..\u8g2-master\csrc/u8x8_d_ssd1322.c **** 	  u8x8_cad_SendData(u8x8, 32, u8x8_ssd1322_4to32(u8x8, ptr));	  
 399:..\u8g2-master\csrc/u8x8_d_ssd1322.c **** 	  ptr += 4;
 400:..\u8g2-master\csrc/u8x8_d_ssd1322.c **** 	  x += 2;
 401:..\u8g2-master\csrc/u8x8_d_ssd1322.c **** 	  
 402:..\u8g2-master\csrc/u8x8_d_ssd1322.c **** 	  u8x8_cad_SendCmd(u8x8, 0x015 );	/* set column address */
 403:..\u8g2-master\csrc/u8x8_d_ssd1322.c **** 	  u8x8_cad_SendArg(u8x8, x );	/* start */
 404:..\u8g2-master\csrc/u8x8_d_ssd1322.c **** 	  u8x8_cad_SendArg(u8x8, x+1 );	/* end */
 405:..\u8g2-master\csrc/u8x8_d_ssd1322.c **** 	  u8x8_cad_SendCmd(u8x8, 0x05c );	/* write to ram */	  
 406:..\u8g2-master\csrc/u8x8_d_ssd1322.c **** 	  u8x8_cad_SendData(u8x8, 32, u8x8_ssd1322_4to32(u8x8, ptr));	  
 407:..\u8g2-master\csrc/u8x8_d_ssd1322.c **** 	  ptr += 4;
 408:..\u8g2-master\csrc/u8x8_d_ssd1322.c **** 	  x += 2;
 409:..\u8g2-master\csrc/u8x8_d_ssd1322.c **** 	  
 410:..\u8g2-master\csrc/u8x8_d_ssd1322.c **** 	  c--;
 411:..\u8g2-master\csrc/u8x8_d_ssd1322.c **** 	} while( c > 0 );
 412:..\u8g2-master\csrc/u8x8_d_ssd1322.c **** 	
 413:..\u8g2-master\csrc/u8x8_d_ssd1322.c **** 	//x += 2;
 414:..\u8g2-master\csrc/u8x8_d_ssd1322.c **** 	arg_int--;
 415:..\u8g2-master\csrc/u8x8_d_ssd1322.c ****       } while( arg_int > 0 );
 416:..\u8g2-master\csrc/u8x8_d_ssd1322.c ****       
 417:..\u8g2-master\csrc/u8x8_d_ssd1322.c ****       u8x8_cad_EndTransfer(u8x8);
 418:..\u8g2-master\csrc/u8x8_d_ssd1322.c ****       break;
 419:..\u8g2-master\csrc/u8x8_d_ssd1322.c ****     default:
 420:..\u8g2-master\csrc/u8x8_d_ssd1322.c ****       return 0;
 975              		.loc 1 420 0
 976 0018 0020     		movs	r0, #0
 977              	.LVL60:
 421:..\u8g2-master\csrc/u8x8_d_ssd1322.c ****   }
 422:..\u8g2-master\csrc/u8x8_d_ssd1322.c ****   return 1;
 423:..\u8g2-master\csrc/u8x8_d_ssd1322.c **** }
 978              		.loc 1 423 0
 979 001a 03B0     		add	sp, sp, #12
 980              		.cfi_remember_state
 981              		.cfi_def_cfa_offset 36
 982              		@ sp needed
 983 001c BDE8F08F 		pop	{r4, r5, r6, r7, r8, r9, r10, fp, pc}
 984              	.LVL61:
 985              	.L48:
 986              		.cfi_restore_state
 359:..\u8g2-master\csrc/u8x8_d_ssd1322.c **** 	u8x8_cad_SendSequence(u8x8, u8x8_d_ssd1322_powersave0_seq);
 987              		.loc 1 359 0
 988 0020 002A     		cmp	r2, #0
 989 0022 40F0D681 		bne	.L40
 360:..\u8g2-master\csrc/u8x8_d_ssd1322.c ****       else
 990              		.loc 1 360 0
 991 0026 EE49     		ldr	r1, .L49
 992              	.LVL62:
 993 0028 FFF7FEFF 		bl	u8x8_cad_SendSequence
 994              	.LVL63:
 422:..\u8g2-master\csrc/u8x8_d_ssd1322.c **** }
 995              		.loc 1 422 0
 996 002c 0120     		movs	r0, #1
 997              		.loc 1 423 0
 998 002e 03B0     		add	sp, sp, #12
 999              		.cfi_remember_state
 1000              		.cfi_def_cfa_offset 36
ARM GAS  C:\Users\info\AppData\Local\Temp\cchQo10v.s 			page 29


 1001              		@ sp needed
 1002 0030 BDE8F08F 		pop	{r4, r5, r6, r7, r8, r9, r10, fp, pc}
 1003              	.LVL64:
 1004              	.L38:
 1005              		.cfi_restore_state
 1006 0034 9A46     		mov	r10, r3
 1007              	.LVL65:
 1008              	.LBB28:
 1009              	.LBB29:
 373:..\u8g2-master\csrc/u8x8_d_ssd1322.c ****       x = ((u8x8_tile_t *)arg_ptr)->x_pos;    
 1010              		.loc 1 373 0
 1011 0036 FFF7FEFF 		bl	u8x8_cad_StartTransfer
 1012              	.LVL66:
 380:..\u8g2-master\csrc/u8x8_d_ssd1322.c ****       y *= 8;
 1013              		.loc 1 380 0
 1014 003a 9AF80640 		ldrb	r4, [r10, #6]	@ zero_extendqisi2
 374:..\u8g2-master\csrc/u8x8_d_ssd1322.c ****       x *= 2;		// only every 4th col can be addressed
 1015              		.loc 1 374 0
 1016 003e 9AF80520 		ldrb	r2, [r10, #5]	@ zero_extendqisi2
 1017              	.LVL67:
 378:..\u8g2-master\csrc/u8x8_d_ssd1322.c ****     
 1018              		.loc 1 378 0
 1019 0042 96F82230 		ldrb	r3, [r6, #34]	@ zero_extendqisi2
 381:..\u8g2-master\csrc/u8x8_d_ssd1322.c ****           
 1020              		.loc 1 381 0
 1021 0046 E400     		lsls	r4, r4, #3
 378:..\u8g2-master\csrc/u8x8_d_ssd1322.c ****     
 1022              		.loc 1 378 0
 1023 0048 03EB8203 		add	r3, r3, r2, lsl #2
 381:..\u8g2-master\csrc/u8x8_d_ssd1322.c ****           
 1024              		.loc 1 381 0
 1025 004c E4B2     		uxtb	r4, r4
 383:..\u8g2-master\csrc/u8x8_d_ssd1322.c ****       u8x8_cad_SendArg(u8x8, y);
 1026              		.loc 1 383 0
 1027 004e 7521     		movs	r1, #117
 1028 0050 3046     		mov	r0, r6
 378:..\u8g2-master\csrc/u8x8_d_ssd1322.c ****     
 1029              		.loc 1 378 0
 1030 0052 03F0FF09 		and	r9, r3, #255
 1031              	.LVL68:
 383:..\u8g2-master\csrc/u8x8_d_ssd1322.c ****       u8x8_cad_SendArg(u8x8, y);
 1032              		.loc 1 383 0
 1033 0056 FFF7FEFF 		bl	u8x8_cad_SendCmd
 1034              	.LVL69:
 384:..\u8g2-master\csrc/u8x8_d_ssd1322.c ****       u8x8_cad_SendArg(u8x8, y+7);
 1035              		.loc 1 384 0
 1036 005a 2146     		mov	r1, r4
 1037 005c 3046     		mov	r0, r6
 1038 005e FFF7FEFF 		bl	u8x8_cad_SendArg
 1039              	.LVL70:
 385:..\u8g2-master\csrc/u8x8_d_ssd1322.c ****       
 1040              		.loc 1 385 0
 1041 0062 E11D     		adds	r1, r4, #7
 1042 0064 C9B2     		uxtb	r1, r1
 1043 0066 3046     		mov	r0, r6
 1044 0068 FFF7FEFF 		bl	u8x8_cad_SendArg
 1045              	.LVL71:
ARM GAS  C:\Users\info\AppData\Local\Temp\cchQo10v.s 			page 30


 1046 006c DD4C     		ldr	r4, .L49+4
 1047              	.LVL72:
 1048              	.L42:
 390:..\u8g2-master\csrc/u8x8_d_ssd1322.c **** 
 1049              		.loc 1 390 0
 1050 006e 4F46     		mov	r7, r9
 389:..\u8g2-master\csrc/u8x8_d_ssd1322.c **** 	ptr = ((u8x8_tile_t *)arg_ptr)->tile_ptr;
 1051              		.loc 1 389 0
 1052 0070 9AF80430 		ldrb	r3, [r10, #4]	@ zero_extendqisi2
 390:..\u8g2-master\csrc/u8x8_d_ssd1322.c **** 
 1053              		.loc 1 390 0
 1054 0074 DAF80050 		ldr	r5, [r10]
 1055 0078 03F1FF38 		add	r8, r3, #-1
 1056 007c 5FFA88F8 		uxtb	r8, r8
 1057 0080 08F10208 		add	r8, r8, #2
 1058 0084 05EBC808 		add	r8, r5, r8, lsl #3
 389:..\u8g2-master\csrc/u8x8_d_ssd1322.c **** 	ptr = ((u8x8_tile_t *)arg_ptr)->tile_ptr;
 1059              		.loc 1 389 0
 1060 0088 0193     		str	r3, [sp, #4]
 1061              	.LVL73:
 1062 008a 0835     		adds	r5, r5, #8
 1063              	.LVL74:
 1064              	.L41:
 394:..\u8g2-master\csrc/u8x8_d_ssd1322.c **** 	  u8x8_cad_SendArg(u8x8, x );	/* start */
 1065              		.loc 1 394 0
 1066 008c 1521     		movs	r1, #21
 1067 008e 3046     		mov	r0, r6
 1068 0090 FFF7FEFF 		bl	u8x8_cad_SendCmd
 1069              	.LVL75:
 395:..\u8g2-master\csrc/u8x8_d_ssd1322.c **** 	  u8x8_cad_SendArg(u8x8, x+1 );	/* end */
 1070              		.loc 1 395 0
 1071 0094 3946     		mov	r1, r7
 1072 0096 3046     		mov	r0, r6
 1073 0098 FFF7FEFF 		bl	u8x8_cad_SendArg
 1074              	.LVL76:
 396:..\u8g2-master\csrc/u8x8_d_ssd1322.c **** 	  u8x8_cad_SendCmd(u8x8, 0x05c );	/* write to ram */	  
 1075              		.loc 1 396 0
 1076 009c 791C     		adds	r1, r7, #1
 1077 009e C9B2     		uxtb	r1, r1
 1078 00a0 3046     		mov	r0, r6
 1079 00a2 FFF7FEFF 		bl	u8x8_cad_SendArg
 1080              	.LVL77:
 397:..\u8g2-master\csrc/u8x8_d_ssd1322.c **** 	  u8x8_cad_SendData(u8x8, 32, u8x8_ssd1322_4to32(u8x8, ptr));	  
 1081              		.loc 1 397 0
 1082 00a6 5C21     		movs	r1, #92
 1083 00a8 3046     		mov	r0, r6
 1084 00aa FFF7FEFF 		bl	u8x8_cad_SendCmd
 1085              	.LVL78:
 1086              	.LBB30:
 1087              	.LBB31:
 134:..\u8g2-master\csrc/u8x8_d_ssd1322.c ****     ptr++;
 1088              		.loc 1 134 0
 1089 00ae 15F8081C 		ldrb	r1, [r5, #-8]	@ zero_extendqisi2
 1090              	.LVL79:
 1091              	.LBE31:
 1092              	.LBE30:
 398:..\u8g2-master\csrc/u8x8_d_ssd1322.c **** 	  ptr += 4;
ARM GAS  C:\Users\info\AppData\Local\Temp\cchQo10v.s 			page 31


 1093              		.loc 1 398 0
 1094 00b2 CC4A     		ldr	r2, .L49+4
 1095              	.LBB35:
 1096              	.LBB32:
 142:..\u8g2-master\csrc/u8x8_d_ssd1322.c ****     }
 1097              		.loc 1 142 0
 1098 00b4 4FEA510C 		lsr	ip, r1, #1
 1099 00b8 4FEA5C03 		lsr	r3, ip, #1
 1100 00bc 4FEA530E 		lsr	lr, r3, #1
 1101 00c0 4FEA5E00 		lsr	r0, lr, #1
 140:..\u8g2-master\csrc/u8x8_d_ssd1322.c ****       dest+=4;
 1102              		.loc 1 140 0
 1103 00c4 41F30001 		sbfx	r1, r1, #0, #1
 1104              	.LVL80:
 1105 00c8 2170     		strb	r1, [r4]
 1106              	.LVL81:
 1107 00ca 43F30003 		sbfx	r3, r3, #0, #1
 142:..\u8g2-master\csrc/u8x8_d_ssd1322.c ****     }
 1108              		.loc 1 142 0
 1109 00ce 4108     		lsrs	r1, r0, #1
 140:..\u8g2-master\csrc/u8x8_d_ssd1322.c ****       dest+=4;
 1110              		.loc 1 140 0
 1111 00d0 2372     		strb	r3, [r4, #8]
 1112 00d2 4EF3000E 		sbfx	lr, lr, #0, #1
 142:..\u8g2-master\csrc/u8x8_d_ssd1322.c ****     }
 1113              		.loc 1 142 0
 1114 00d6 4B08     		lsrs	r3, r1, #1
 140:..\u8g2-master\csrc/u8x8_d_ssd1322.c ****       dest+=4;
 1115              		.loc 1 140 0
 1116 00d8 84F80CE0 		strb	lr, [r4, #12]
 1117 00dc 4CF3000C 		sbfx	ip, ip, #0, #1
 1118              	.LVL82:
 1119 00e0 43F3000E 		sbfx	lr, r3, #0, #1
 1120 00e4 40F30000 		sbfx	r0, r0, #0, #1
 1121 00e8 41F30001 		sbfx	r1, r1, #0, #1
 1122 00ec 43F34003 		sbfx	r3, r3, #1, #1
 1123 00f0 84F804C0 		strb	ip, [r4, #4]
 1124              	.LVL83:
 1125 00f4 2074     		strb	r0, [r4, #16]
 1126              	.LVL84:
 1127 00f6 2175     		strb	r1, [r4, #20]
 1128              	.LVL85:
 1129 00f8 84F818E0 		strb	lr, [r4, #24]
 1130              	.LVL86:
 1131 00fc 2377     		strb	r3, [r4, #28]
 1132              	.LVL87:
 134:..\u8g2-master\csrc/u8x8_d_ssd1322.c ****     ptr++;
 1133              		.loc 1 134 0
 1134 00fe 15F807BC 		ldrb	fp, [r5, #-7]	@ zero_extendqisi2
 1135              	.LVL88:
 1136              	.LBE32:
 1137              	.LBE35:
 398:..\u8g2-master\csrc/u8x8_d_ssd1322.c **** 	  ptr += 4;
 1138              		.loc 1 398 0
 1139 0102 2021     		movs	r1, #32
 1140              	.LBB36:
 1141              	.LBB33:
ARM GAS  C:\Users\info\AppData\Local\Temp\cchQo10v.s 			page 32


 142:..\u8g2-master\csrc/u8x8_d_ssd1322.c ****     }
 1142              		.loc 1 142 0
 1143 0104 4FEA5B00 		lsr	r0, fp, #1
 1144 0108 4FEA500C 		lsr	ip, r0, #1
 1145 010c 4FEA5C03 		lsr	r3, ip, #1
 1146 0110 4FEA530E 		lsr	lr, r3, #1
 140:..\u8g2-master\csrc/u8x8_d_ssd1322.c ****       dest+=4;
 1147              		.loc 1 140 0
 1148 0114 40F30000 		sbfx	r0, r0, #0, #1
 1149 0118 6071     		strb	r0, [r4, #5]
 1150 011a 43F30003 		sbfx	r3, r3, #0, #1
 142:..\u8g2-master\csrc/u8x8_d_ssd1322.c ****     }
 1151              		.loc 1 142 0
 1152 011e 4FEA5E00 		lsr	r0, lr, #1
 140:..\u8g2-master\csrc/u8x8_d_ssd1322.c ****       dest+=4;
 1153              		.loc 1 140 0
 1154 0122 6373     		strb	r3, [r4, #13]
 1155 0124 4EF3000E 		sbfx	lr, lr, #0, #1
 142:..\u8g2-master\csrc/u8x8_d_ssd1322.c ****     }
 1156              		.loc 1 142 0
 1157 0128 4308     		lsrs	r3, r0, #1
 140:..\u8g2-master\csrc/u8x8_d_ssd1322.c ****       dest+=4;
 1158              		.loc 1 140 0
 1159 012a 84F811E0 		strb	lr, [r4, #17]
 1160 012e 4BF3000B 		sbfx	fp, fp, #0, #1
 1161              	.LVL89:
 1162 0132 43F3000E 		sbfx	lr, r3, #0, #1
 1163 0136 4CF3000C 		sbfx	ip, ip, #0, #1
 1164 013a 40F30000 		sbfx	r0, r0, #0, #1
 1165 013e 43F34003 		sbfx	r3, r3, #1, #1
 1166 0142 84F801B0 		strb	fp, [r4, #1]
 1167              	.LVL90:
 1168 0146 84F809C0 		strb	ip, [r4, #9]
 1169              	.LVL91:
 1170 014a 6075     		strb	r0, [r4, #21]
 1171              	.LVL92:
 1172 014c 84F819E0 		strb	lr, [r4, #25]
 1173              	.LVL93:
 1174 0150 6377     		strb	r3, [r4, #29]
 1175              	.LVL94:
 134:..\u8g2-master\csrc/u8x8_d_ssd1322.c ****     ptr++;
 1176              		.loc 1 134 0
 1177 0152 15F8063C 		ldrb	r3, [r5, #-6]	@ zero_extendqisi2
 1178              	.LVL95:
 1179              	.LBE33:
 1180              	.LBE36:
 398:..\u8g2-master\csrc/u8x8_d_ssd1322.c **** 	  ptr += 4;
 1181              		.loc 1 398 0
 1182 0156 3046     		mov	r0, r6
 1183              	.LBB37:
 1184              	.LBB34:
 142:..\u8g2-master\csrc/u8x8_d_ssd1322.c ****     }
 1185              		.loc 1 142 0
 1186 0158 4FEA530B 		lsr	fp, r3, #1
 1187 015c 4FEA5B0E 		lsr	lr, fp, #1
 1188 0160 4FEA5E0C 		lsr	ip, lr, #1
 140:..\u8g2-master\csrc/u8x8_d_ssd1322.c ****       dest+=4;
ARM GAS  C:\Users\info\AppData\Local\Temp\cchQo10v.s 			page 33


 1189              		.loc 1 140 0
 1190 0164 43F30003 		sbfx	r3, r3, #0, #1
 1191              	.LVL96:
 1192 0168 A370     		strb	r3, [r4, #2]
 1193              	.LVL97:
 1194 016a 4EF3000E 		sbfx	lr, lr, #0, #1
 142:..\u8g2-master\csrc/u8x8_d_ssd1322.c ****     }
 1195              		.loc 1 142 0
 1196 016e 4FEA5C03 		lsr	r3, ip, #1
 140:..\u8g2-master\csrc/u8x8_d_ssd1322.c ****       dest+=4;
 1197              		.loc 1 140 0
 1198 0172 84F80AE0 		strb	lr, [r4, #10]
 142:..\u8g2-master\csrc/u8x8_d_ssd1322.c ****     }
 1199              		.loc 1 142 0
 1200 0176 4FEA530E 		lsr	lr, r3, #1
 140:..\u8g2-master\csrc/u8x8_d_ssd1322.c ****       dest+=4;
 1201              		.loc 1 140 0
 1202 017a 43F30003 		sbfx	r3, r3, #0, #1
 1203 017e A374     		strb	r3, [r4, #18]
 142:..\u8g2-master\csrc/u8x8_d_ssd1322.c ****     }
 1204              		.loc 1 142 0
 1205 0180 4FEA5E03 		lsr	r3, lr, #1
 140:..\u8g2-master\csrc/u8x8_d_ssd1322.c ****       dest+=4;
 1206              		.loc 1 140 0
 1207 0184 4EF3000E 		sbfx	lr, lr, #0, #1
 1208 0188 84F816E0 		strb	lr, [r4, #22]
 1209 018c 4BF3000B 		sbfx	fp, fp, #0, #1
 1210              	.LVL98:
 1211 0190 43F3000E 		sbfx	lr, r3, #0, #1
 1212 0194 4CF3000C 		sbfx	ip, ip, #0, #1
 1213 0198 43F34003 		sbfx	r3, r3, #1, #1
 1214 019c 84F806B0 		strb	fp, [r4, #6]
 1215              	.LVL99:
 1216 01a0 84F80EC0 		strb	ip, [r4, #14]
 1217              	.LVL100:
 1218 01a4 84F81AE0 		strb	lr, [r4, #26]
 1219              	.LVL101:
 1220 01a8 A377     		strb	r3, [r4, #30]
 1221              	.LVL102:
 134:..\u8g2-master\csrc/u8x8_d_ssd1322.c ****     ptr++;
 1222              		.loc 1 134 0
 1223 01aa 15F8053C 		ldrb	r3, [r5, #-5]	@ zero_extendqisi2
 1224              	.LVL103:
 1225 01ae 0835     		adds	r5, r5, #8
 1226              	.LVL104:
 142:..\u8g2-master\csrc/u8x8_d_ssd1322.c ****     }
 1227              		.loc 1 142 0
 1228 01b0 4FEA530B 		lsr	fp, r3, #1
 1229 01b4 4FEA5B0E 		lsr	lr, fp, #1
 1230 01b8 4FEA5E0C 		lsr	ip, lr, #1
 140:..\u8g2-master\csrc/u8x8_d_ssd1322.c ****       dest+=4;
 1231              		.loc 1 140 0
 1232 01bc 43F30003 		sbfx	r3, r3, #0, #1
 1233              	.LVL105:
 1234 01c0 4EF3000E 		sbfx	lr, lr, #0, #1
 1235 01c4 E370     		strb	r3, [r4, #3]
 1236              	.LVL106:
ARM GAS  C:\Users\info\AppData\Local\Temp\cchQo10v.s 			page 34


 142:..\u8g2-master\csrc/u8x8_d_ssd1322.c ****     }
 1237              		.loc 1 142 0
 1238 01c6 4FEA5C03 		lsr	r3, ip, #1
 140:..\u8g2-master\csrc/u8x8_d_ssd1322.c ****       dest+=4;
 1239              		.loc 1 140 0
 1240 01ca 4BF3000B 		sbfx	fp, fp, #0, #1
 1241              	.LVL107:
 1242 01ce 4CF3000C 		sbfx	ip, ip, #0, #1
 1243 01d2 84F80BE0 		strb	lr, [r4, #11]
 142:..\u8g2-master\csrc/u8x8_d_ssd1322.c ****     }
 1244              		.loc 1 142 0
 1245 01d6 4FEA530E 		lsr	lr, r3, #1
 140:..\u8g2-master\csrc/u8x8_d_ssd1322.c ****       dest+=4;
 1246              		.loc 1 140 0
 1247 01da 43F30003 		sbfx	r3, r3, #0, #1
 1248 01de 84F80FC0 		strb	ip, [r4, #15]
 1249 01e2 84F807B0 		strb	fp, [r4, #7]
 1250              	.LVL108:
 1251 01e6 E374     		strb	r3, [r4, #19]
 1252              	.LVL109:
 142:..\u8g2-master\csrc/u8x8_d_ssd1322.c ****     }
 1253              		.loc 1 142 0
 1254 01e8 4FEA5E03 		lsr	r3, lr, #1
 140:..\u8g2-master\csrc/u8x8_d_ssd1322.c ****       dest+=4;
 1255              		.loc 1 140 0
 1256 01ec 4EF3000E 		sbfx	lr, lr, #0, #1
 1257              	.LVL110:
 1258 01f0 84F817E0 		strb	lr, [r4, #23]
 1259              	.LVL111:
 1260 01f4 43F3000E 		sbfx	lr, r3, #0, #1
 1261 01f8 43F34003 		sbfx	r3, r3, #1, #1
 1262              	.LVL112:
 1263 01fc 84F81BE0 		strb	lr, [r4, #27]
 1264              	.LVL113:
 1265 0200 E377     		strb	r3, [r4, #31]
 1266              	.LVL114:
 1267              	.LBE34:
 1268              	.LBE37:
 398:..\u8g2-master\csrc/u8x8_d_ssd1322.c **** 	  ptr += 4;
 1269              		.loc 1 398 0
 1270 0202 FFF7FEFF 		bl	u8x8_cad_SendData
 1271              	.LVL115:
 402:..\u8g2-master\csrc/u8x8_d_ssd1322.c **** 	  u8x8_cad_SendArg(u8x8, x );	/* start */
 1272              		.loc 1 402 0
 1273 0206 1521     		movs	r1, #21
 1274 0208 3046     		mov	r0, r6
 1275 020a FFF7FEFF 		bl	u8x8_cad_SendCmd
 1276              	.LVL116:
 403:..\u8g2-master\csrc/u8x8_d_ssd1322.c **** 	  u8x8_cad_SendArg(u8x8, x+1 );	/* end */
 1277              		.loc 1 403 0
 1278 020e B91C     		adds	r1, r7, #2
 1279 0210 C9B2     		uxtb	r1, r1
 1280 0212 3046     		mov	r0, r6
 1281 0214 FFF7FEFF 		bl	u8x8_cad_SendArg
 1282              	.LVL117:
 404:..\u8g2-master\csrc/u8x8_d_ssd1322.c **** 	  u8x8_cad_SendCmd(u8x8, 0x05c );	/* write to ram */	  
 1283              		.loc 1 404 0
ARM GAS  C:\Users\info\AppData\Local\Temp\cchQo10v.s 			page 35


 1284 0218 F91C     		adds	r1, r7, #3
 1285 021a C9B2     		uxtb	r1, r1
 1286 021c 3046     		mov	r0, r6
 1287 021e FFF7FEFF 		bl	u8x8_cad_SendArg
 1288              	.LVL118:
 405:..\u8g2-master\csrc/u8x8_d_ssd1322.c **** 	  u8x8_cad_SendData(u8x8, 32, u8x8_ssd1322_4to32(u8x8, ptr));	  
 1289              		.loc 1 405 0
 1290 0222 5C21     		movs	r1, #92
 1291 0224 3046     		mov	r0, r6
 1292 0226 FFF7FEFF 		bl	u8x8_cad_SendCmd
 1293              	.LVL119:
 1294              	.LBB38:
 1295              	.LBB39:
 134:..\u8g2-master\csrc/u8x8_d_ssd1322.c ****     ptr++;
 1296              		.loc 1 134 0
 1297 022a 15F80C1C 		ldrb	r1, [r5, #-12]	@ zero_extendqisi2
 1298              	.LVL120:
 1299              	.LBE39:
 1300              	.LBE38:
 406:..\u8g2-master\csrc/u8x8_d_ssd1322.c **** 	  ptr += 4;
 1301              		.loc 1 406 0
 1302 022e 6D4A     		ldr	r2, .L49+4
 1303              	.LBB44:
 1304              	.LBB40:
 142:..\u8g2-master\csrc/u8x8_d_ssd1322.c ****     }
 1305              		.loc 1 142 0
 1306 0230 4FEA510C 		lsr	ip, r1, #1
 1307 0234 4FEA5C03 		lsr	r3, ip, #1
 1308 0238 4FEA530E 		lsr	lr, r3, #1
 1309 023c 4FEA5E00 		lsr	r0, lr, #1
 140:..\u8g2-master\csrc/u8x8_d_ssd1322.c ****       dest+=4;
 1310              		.loc 1 140 0
 1311 0240 41F30001 		sbfx	r1, r1, #0, #1
 1312              	.LVL121:
 1313 0244 2170     		strb	r1, [r4]
 1314              	.LVL122:
 1315 0246 43F30003 		sbfx	r3, r3, #0, #1
 142:..\u8g2-master\csrc/u8x8_d_ssd1322.c ****     }
 1316              		.loc 1 142 0
 1317 024a 4108     		lsrs	r1, r0, #1
 140:..\u8g2-master\csrc/u8x8_d_ssd1322.c ****       dest+=4;
 1318              		.loc 1 140 0
 1319 024c 2372     		strb	r3, [r4, #8]
 1320 024e 4EF3000E 		sbfx	lr, lr, #0, #1
 142:..\u8g2-master\csrc/u8x8_d_ssd1322.c ****     }
 1321              		.loc 1 142 0
 1322 0252 4B08     		lsrs	r3, r1, #1
 140:..\u8g2-master\csrc/u8x8_d_ssd1322.c ****       dest+=4;
 1323              		.loc 1 140 0
 1324 0254 84F80CE0 		strb	lr, [r4, #12]
 1325 0258 4CF3000C 		sbfx	ip, ip, #0, #1
 1326              	.LVL123:
 1327 025c 43F3000E 		sbfx	lr, r3, #0, #1
 1328 0260 40F30000 		sbfx	r0, r0, #0, #1
 1329 0264 41F30001 		sbfx	r1, r1, #0, #1
 1330 0268 43F34003 		sbfx	r3, r3, #1, #1
 1331 026c 84F804C0 		strb	ip, [r4, #4]
ARM GAS  C:\Users\info\AppData\Local\Temp\cchQo10v.s 			page 36


 1332              	.LVL124:
 1333 0270 2074     		strb	r0, [r4, #16]
 1334              	.LVL125:
 1335 0272 2175     		strb	r1, [r4, #20]
 1336              	.LVL126:
 1337 0274 84F818E0 		strb	lr, [r4, #24]
 1338              	.LVL127:
 1339 0278 2377     		strb	r3, [r4, #28]
 1340              	.LVL128:
 134:..\u8g2-master\csrc/u8x8_d_ssd1322.c ****     ptr++;
 1341              		.loc 1 134 0
 1342 027a 15F80BBC 		ldrb	fp, [r5, #-11]	@ zero_extendqisi2
 1343              	.LVL129:
 1344              	.LBE40:
 1345              	.LBE44:
 406:..\u8g2-master\csrc/u8x8_d_ssd1322.c **** 	  ptr += 4;
 1346              		.loc 1 406 0
 1347 027e 2021     		movs	r1, #32
 1348              	.LBB45:
 1349              	.LBB41:
 142:..\u8g2-master\csrc/u8x8_d_ssd1322.c ****     }
 1350              		.loc 1 142 0
 1351 0280 4FEA5B00 		lsr	r0, fp, #1
 1352 0284 4FEA500C 		lsr	ip, r0, #1
 1353 0288 4FEA5C03 		lsr	r3, ip, #1
 1354 028c 4FEA530E 		lsr	lr, r3, #1
 140:..\u8g2-master\csrc/u8x8_d_ssd1322.c ****       dest+=4;
 1355              		.loc 1 140 0
 1356 0290 40F30000 		sbfx	r0, r0, #0, #1
 1357 0294 6071     		strb	r0, [r4, #5]
 1358 0296 43F30003 		sbfx	r3, r3, #0, #1
 142:..\u8g2-master\csrc/u8x8_d_ssd1322.c ****     }
 1359              		.loc 1 142 0
 1360 029a 4FEA5E00 		lsr	r0, lr, #1
 140:..\u8g2-master\csrc/u8x8_d_ssd1322.c ****       dest+=4;
 1361              		.loc 1 140 0
 1362 029e 6373     		strb	r3, [r4, #13]
 1363 02a0 4EF3000E 		sbfx	lr, lr, #0, #1
 142:..\u8g2-master\csrc/u8x8_d_ssd1322.c ****     }
 1364              		.loc 1 142 0
 1365 02a4 4308     		lsrs	r3, r0, #1
 140:..\u8g2-master\csrc/u8x8_d_ssd1322.c ****       dest+=4;
 1366              		.loc 1 140 0
 1367 02a6 84F811E0 		strb	lr, [r4, #17]
 1368 02aa 4BF3000B 		sbfx	fp, fp, #0, #1
 1369              	.LVL130:
 1370 02ae 43F3000E 		sbfx	lr, r3, #0, #1
 1371 02b2 4CF3000C 		sbfx	ip, ip, #0, #1
 1372 02b6 40F30000 		sbfx	r0, r0, #0, #1
 1373 02ba 43F34003 		sbfx	r3, r3, #1, #1
 1374 02be 84F801B0 		strb	fp, [r4, #1]
 1375              	.LVL131:
 1376 02c2 84F809C0 		strb	ip, [r4, #9]
 1377              	.LVL132:
 1378 02c6 6075     		strb	r0, [r4, #21]
 1379              	.LVL133:
 1380 02c8 84F819E0 		strb	lr, [r4, #25]
ARM GAS  C:\Users\info\AppData\Local\Temp\cchQo10v.s 			page 37


 1381              	.LVL134:
 1382 02cc 6377     		strb	r3, [r4, #29]
 1383              	.LVL135:
 134:..\u8g2-master\csrc/u8x8_d_ssd1322.c ****     ptr++;
 1384              		.loc 1 134 0
 1385 02ce 15F80A3C 		ldrb	r3, [r5, #-10]	@ zero_extendqisi2
 1386              	.LVL136:
 1387              	.LBE41:
 1388              	.LBE45:
 406:..\u8g2-master\csrc/u8x8_d_ssd1322.c **** 	  ptr += 4;
 1389              		.loc 1 406 0
 1390 02d2 3046     		mov	r0, r6
 1391              	.LBB46:
 1392              	.LBB42:
 142:..\u8g2-master\csrc/u8x8_d_ssd1322.c ****     }
 1393              		.loc 1 142 0
 1394 02d4 4FEA530B 		lsr	fp, r3, #1
 1395 02d8 4FEA5B0E 		lsr	lr, fp, #1
 1396 02dc 4FEA5E0C 		lsr	ip, lr, #1
 140:..\u8g2-master\csrc/u8x8_d_ssd1322.c ****       dest+=4;
 1397              		.loc 1 140 0
 1398 02e0 43F30003 		sbfx	r3, r3, #0, #1
 1399              	.LVL137:
 1400 02e4 A370     		strb	r3, [r4, #2]
 1401              	.LVL138:
 1402 02e6 4EF3000E 		sbfx	lr, lr, #0, #1
 142:..\u8g2-master\csrc/u8x8_d_ssd1322.c ****     }
 1403              		.loc 1 142 0
 1404 02ea 4FEA5C03 		lsr	r3, ip, #1
 140:..\u8g2-master\csrc/u8x8_d_ssd1322.c ****       dest+=4;
 1405              		.loc 1 140 0
 1406 02ee 84F80AE0 		strb	lr, [r4, #10]
 142:..\u8g2-master\csrc/u8x8_d_ssd1322.c ****     }
 1407              		.loc 1 142 0
 1408 02f2 4FEA530E 		lsr	lr, r3, #1
 140:..\u8g2-master\csrc/u8x8_d_ssd1322.c ****       dest+=4;
 1409              		.loc 1 140 0
 1410 02f6 43F30003 		sbfx	r3, r3, #0, #1
 1411 02fa A374     		strb	r3, [r4, #18]
 142:..\u8g2-master\csrc/u8x8_d_ssd1322.c ****     }
 1412              		.loc 1 142 0
 1413 02fc 4FEA5E03 		lsr	r3, lr, #1
 140:..\u8g2-master\csrc/u8x8_d_ssd1322.c ****       dest+=4;
 1414              		.loc 1 140 0
 1415 0300 4EF3000E 		sbfx	lr, lr, #0, #1
 1416 0304 84F816E0 		strb	lr, [r4, #22]
 1417 0308 4BF3000B 		sbfx	fp, fp, #0, #1
 1418              	.LVL139:
 1419 030c 43F3000E 		sbfx	lr, r3, #0, #1
 1420 0310 4CF3000C 		sbfx	ip, ip, #0, #1
 1421 0314 43F34003 		sbfx	r3, r3, #1, #1
 1422 0318 84F806B0 		strb	fp, [r4, #6]
 1423              	.LVL140:
 1424 031c 84F80EC0 		strb	ip, [r4, #14]
 1425              	.LVL141:
 1426 0320 84F81AE0 		strb	lr, [r4, #26]
 1427              	.LVL142:
ARM GAS  C:\Users\info\AppData\Local\Temp\cchQo10v.s 			page 38


 1428 0324 A377     		strb	r3, [r4, #30]
 1429              	.LVL143:
 134:..\u8g2-master\csrc/u8x8_d_ssd1322.c ****     ptr++;
 1430              		.loc 1 134 0
 1431 0326 15F8093C 		ldrb	r3, [r5, #-9]	@ zero_extendqisi2
 1432              	.LVL144:
 1433              	.LBE42:
 1434              	.LBE46:
 408:..\u8g2-master\csrc/u8x8_d_ssd1322.c **** 	  
 1435              		.loc 1 408 0
 1436 032a 0437     		adds	r7, r7, #4
 1437              	.LVL145:
 1438              	.LBB47:
 1439              	.LBB43:
 142:..\u8g2-master\csrc/u8x8_d_ssd1322.c ****     }
 1440              		.loc 1 142 0
 1441 032c 4FEA530B 		lsr	fp, r3, #1
 1442 0330 4FEA5B0E 		lsr	lr, fp, #1
 1443 0334 4FEA5E0C 		lsr	ip, lr, #1
 140:..\u8g2-master\csrc/u8x8_d_ssd1322.c ****       dest+=4;
 1444              		.loc 1 140 0
 1445 0338 43F30003 		sbfx	r3, r3, #0, #1
 1446              	.LVL146:
 1447 033c 4EF3000E 		sbfx	lr, lr, #0, #1
 1448 0340 E370     		strb	r3, [r4, #3]
 1449              	.LVL147:
 142:..\u8g2-master\csrc/u8x8_d_ssd1322.c ****     }
 1450              		.loc 1 142 0
 1451 0342 4FEA5C03 		lsr	r3, ip, #1
 140:..\u8g2-master\csrc/u8x8_d_ssd1322.c ****       dest+=4;
 1452              		.loc 1 140 0
 1453 0346 84F80BE0 		strb	lr, [r4, #11]
 1454 034a 4CF3000C 		sbfx	ip, ip, #0, #1
 142:..\u8g2-master\csrc/u8x8_d_ssd1322.c ****     }
 1455              		.loc 1 142 0
 1456 034e 4FEA530E 		lsr	lr, r3, #1
 140:..\u8g2-master\csrc/u8x8_d_ssd1322.c ****       dest+=4;
 1457              		.loc 1 140 0
 1458 0352 4BF3000B 		sbfx	fp, fp, #0, #1
 1459              	.LVL148:
 1460 0356 43F30003 		sbfx	r3, r3, #0, #1
 1461 035a 84F80FC0 		strb	ip, [r4, #15]
 1462 035e 84F807B0 		strb	fp, [r4, #7]
 1463              	.LVL149:
 1464 0362 E374     		strb	r3, [r4, #19]
 1465              	.LVL150:
 142:..\u8g2-master\csrc/u8x8_d_ssd1322.c ****     }
 1466              		.loc 1 142 0
 1467 0364 4FEA5E03 		lsr	r3, lr, #1
 140:..\u8g2-master\csrc/u8x8_d_ssd1322.c ****       dest+=4;
 1468              		.loc 1 140 0
 1469 0368 4EF3000E 		sbfx	lr, lr, #0, #1
 1470              	.LVL151:
 1471 036c 84F817E0 		strb	lr, [r4, #23]
 1472              	.LVL152:
 1473 0370 43F3000E 		sbfx	lr, r3, #0, #1
 1474 0374 43F34003 		sbfx	r3, r3, #1, #1
ARM GAS  C:\Users\info\AppData\Local\Temp\cchQo10v.s 			page 39


 1475              	.LVL153:
 1476 0378 84F81BE0 		strb	lr, [r4, #27]
 1477              	.LVL154:
 1478 037c E377     		strb	r3, [r4, #31]
 1479              	.LVL155:
 1480              	.LBE43:
 1481              	.LBE47:
 406:..\u8g2-master\csrc/u8x8_d_ssd1322.c **** 	  ptr += 4;
 1482              		.loc 1 406 0
 1483 037e FFF7FEFF 		bl	u8x8_cad_SendData
 1484              	.LVL156:
 411:..\u8g2-master\csrc/u8x8_d_ssd1322.c **** 	
 1485              		.loc 1 411 0
 1486 0382 4545     		cmp	r5, r8
 408:..\u8g2-master\csrc/u8x8_d_ssd1322.c **** 	  
 1487              		.loc 1 408 0
 1488 0384 FFB2     		uxtb	r7, r7
 1489              	.LVL157:
 411:..\u8g2-master\csrc/u8x8_d_ssd1322.c **** 	
 1490              		.loc 1 411 0
 1491 0386 7FF481AE 		bne	.L41
 1492 038a 019B     		ldr	r3, [sp, #4]
 1493 038c 09EB8309 		add	r9, r9, r3, lsl #2
 414:..\u8g2-master\csrc/u8x8_d_ssd1322.c ****       } while( arg_int > 0 );
 1494              		.loc 1 414 0
 1495 0390 009B     		ldr	r3, [sp]
 1496 0392 5FFA89F9 		uxtb	r9, r9
 1497 0396 013B     		subs	r3, r3, #1
 1498              	.LVL158:
 415:..\u8g2-master\csrc/u8x8_d_ssd1322.c ****       
 1499              		.loc 1 415 0
 1500 0398 13F0FF03 		ands	r3, r3, #255
 1501              	.LVL159:
 1502 039c 0093     		str	r3, [sp]
 1503              	.LVL160:
 1504 039e 7FF466AE 		bne	.L42
 417:..\u8g2-master\csrc/u8x8_d_ssd1322.c ****       break;
 1505              		.loc 1 417 0
 1506 03a2 3046     		mov	r0, r6
 1507 03a4 FFF7FEFF 		bl	u8x8_cad_EndTransfer
 1508              	.LVL161:
 1509 03a8 0120     		movs	r0, #1
 1510              	.LBE29:
 1511              	.LBE28:
 1512              		.loc 1 423 0
 1513 03aa 03B0     		add	sp, sp, #12
 1514              		.cfi_remember_state
 1515              		.cfi_def_cfa_offset 36
 1516              		@ sp needed
 1517 03ac BDE8F08F 		pop	{r4, r5, r6, r7, r8, r9, r10, fp, pc}
 1518              	.LVL162:
 1519              	.L37:
 1520              		.cfi_restore_state
 366:..\u8g2-master\csrc/u8x8_d_ssd1322.c ****       u8x8_cad_SendCmd(u8x8, 0x0C1 );
 1521              		.loc 1 366 0
 1522 03b0 FFF7FEFF 		bl	u8x8_cad_StartTransfer
 1523              	.LVL163:
ARM GAS  C:\Users\info\AppData\Local\Temp\cchQo10v.s 			page 40


 367:..\u8g2-master\csrc/u8x8_d_ssd1322.c ****       u8x8_cad_SendArg(u8x8, arg_int );	/* ssd1322 has range from 0 to 255 */
 1524              		.loc 1 367 0
 1525 03b4 C121     		movs	r1, #193
 1526 03b6 3046     		mov	r0, r6
 1527 03b8 FFF7FEFF 		bl	u8x8_cad_SendCmd
 1528              	.LVL164:
 368:..\u8g2-master\csrc/u8x8_d_ssd1322.c ****       u8x8_cad_EndTransfer(u8x8);
 1529              		.loc 1 368 0
 1530 03bc 0099     		ldr	r1, [sp]
 1531 03be 3046     		mov	r0, r6
 1532 03c0 FFF7FEFF 		bl	u8x8_cad_SendArg
 1533              	.LVL165:
 369:..\u8g2-master\csrc/u8x8_d_ssd1322.c ****       break;
 1534              		.loc 1 369 0
 1535 03c4 3046     		mov	r0, r6
 1536 03c6 FFF7FEFF 		bl	u8x8_cad_EndTransfer
 1537              	.LVL166:
 422:..\u8g2-master\csrc/u8x8_d_ssd1322.c **** }
 1538              		.loc 1 422 0
 1539 03ca 0120     		movs	r0, #1
 1540              		.loc 1 423 0
 1541 03cc 03B0     		add	sp, sp, #12
 1542              		.cfi_remember_state
 1543              		.cfi_def_cfa_offset 36
 1544              		@ sp needed
 1545 03ce BDE8F08F 		pop	{r4, r5, r6, r7, r8, r9, r10, fp, pc}
 1546              	.LVL167:
 1547              	.L40:
 1548              		.cfi_restore_state
 362:..\u8g2-master\csrc/u8x8_d_ssd1322.c ****       break;
 1549              		.loc 1 362 0
 1550 03d2 0549     		ldr	r1, .L49+8
 1551              	.LVL168:
 1552 03d4 FFF7FEFF 		bl	u8x8_cad_SendSequence
 1553              	.LVL169:
 422:..\u8g2-master\csrc/u8x8_d_ssd1322.c **** }
 1554              		.loc 1 422 0
 1555 03d8 0120     		movs	r0, #1
 1556              		.loc 1 423 0
 1557 03da 03B0     		add	sp, sp, #12
 1558              		.cfi_def_cfa_offset 36
 1559              		@ sp needed
 1560 03dc BDE8F08F 		pop	{r4, r5, r6, r7, r8, r9, r10, fp, pc}
 1561              	.LVL170:
 1562              	.L50:
 1563              		.align	2
 1564              	.L49:
 1565 03e0 00000000 		.word	.LANCHOR0
 1566 03e4 00000000 		.word	.LANCHOR1
 1567 03e8 08000000 		.word	.LANCHOR0+8
 1568              		.cfi_endproc
 1569              	.LFE4:
 1570              		.size	u8x8_d_ssd1322_common2, .-u8x8_d_ssd1322_common2
 1571              		.section	.text.u8x8_d_ssd1322_nhd_128x64,"ax",%progbits
 1572              		.align	2
 1573              		.global	u8x8_d_ssd1322_nhd_128x64
 1574              		.thumb
ARM GAS  C:\Users\info\AppData\Local\Temp\cchQo10v.s 			page 41


 1575              		.thumb_func
 1576              		.type	u8x8_d_ssd1322_nhd_128x64, %function
 1577              	u8x8_d_ssd1322_nhd_128x64:
 1578              	.LFB5:
 424:..\u8g2-master\csrc/u8x8_d_ssd1322.c **** 
 425:..\u8g2-master\csrc/u8x8_d_ssd1322.c **** 
 426:..\u8g2-master\csrc/u8x8_d_ssd1322.c **** static const uint8_t u8x8_d_ssd1322_128x64_flip0_seq[] = {
 427:..\u8g2-master\csrc/u8x8_d_ssd1322.c ****   U8X8_START_TRANSFER(),             	/* enable chip, delay is part of the transfer start */
 428:..\u8g2-master\csrc/u8x8_d_ssd1322.c ****   U8X8_CAA(0x0a0, 0x016, 0x011),		/* remap */
 429:..\u8g2-master\csrc/u8x8_d_ssd1322.c ****   U8X8_END_TRANSFER(),             	/* disable chip */
 430:..\u8g2-master\csrc/u8x8_d_ssd1322.c ****   U8X8_END()             			/* end of sequence */
 431:..\u8g2-master\csrc/u8x8_d_ssd1322.c **** };
 432:..\u8g2-master\csrc/u8x8_d_ssd1322.c **** 
 433:..\u8g2-master\csrc/u8x8_d_ssd1322.c **** static const uint8_t u8x8_d_ssd1322_128x64_flip1_seq[] = {
 434:..\u8g2-master\csrc/u8x8_d_ssd1322.c ****   U8X8_START_TRANSFER(),             	/* enable chip, delay is part of the transfer start */
 435:..\u8g2-master\csrc/u8x8_d_ssd1322.c ****   U8X8_CAA(0x0a0, 0x004, 0x011),		/* remap */
 436:..\u8g2-master\csrc/u8x8_d_ssd1322.c ****   U8X8_END_TRANSFER(),             	/* disable chip */
 437:..\u8g2-master\csrc/u8x8_d_ssd1322.c ****   U8X8_END()             			/* end of sequence */
 438:..\u8g2-master\csrc/u8x8_d_ssd1322.c **** };
 439:..\u8g2-master\csrc/u8x8_d_ssd1322.c **** 
 440:..\u8g2-master\csrc/u8x8_d_ssd1322.c **** static const u8x8_display_info_t u8x8_ssd1322_128x64_display_info =
 441:..\u8g2-master\csrc/u8x8_d_ssd1322.c **** {
 442:..\u8g2-master\csrc/u8x8_d_ssd1322.c ****   /* chip_enable_level = */ 0,
 443:..\u8g2-master\csrc/u8x8_d_ssd1322.c ****   /* chip_disable_level = */ 1,
 444:..\u8g2-master\csrc/u8x8_d_ssd1322.c ****   
 445:..\u8g2-master\csrc/u8x8_d_ssd1322.c ****   /* post_chip_enable_wait_ns = */ 20,
 446:..\u8g2-master\csrc/u8x8_d_ssd1322.c ****   /* pre_chip_disable_wait_ns = */ 10,
 447:..\u8g2-master\csrc/u8x8_d_ssd1322.c ****   /* reset_pulse_width_ms = */ 100, 	/* SSD1322: 2 us */
 448:..\u8g2-master\csrc/u8x8_d_ssd1322.c ****   /* post_reset_wait_ms = */ 100, /* far east OLEDs need much longer setup time */
 449:..\u8g2-master\csrc/u8x8_d_ssd1322.c ****   /* sda_setup_time_ns = */ 50,		/* SSD1322: 15ns, but cycle time is 100ns, so use 100/2 */
 450:..\u8g2-master\csrc/u8x8_d_ssd1322.c ****   /* sck_pulse_width_ns = */ 50,	/* SSD1322: 20ns, but cycle time is 100ns, so use 100/2, AVR: belo
 451:..\u8g2-master\csrc/u8x8_d_ssd1322.c ****   /* sck_clock_hz = */ 10000000UL,	/* since Arduino 1.6.0, the SPI bus speed in Hz. Should be  1000
 452:..\u8g2-master\csrc/u8x8_d_ssd1322.c ****   /* spi_mode = */ 0,		/* active high, rising edge */
 453:..\u8g2-master\csrc/u8x8_d_ssd1322.c ****   /* i2c_bus_clock_100kHz = */ 4,
 454:..\u8g2-master\csrc/u8x8_d_ssd1322.c ****   /* data_setup_time_ns = */ 10,
 455:..\u8g2-master\csrc/u8x8_d_ssd1322.c ****   /* write_pulse_width_ns = */ 150,	/* SSD1322: cycle time is 300ns, so use 300/2 = 150 */
 456:..\u8g2-master\csrc/u8x8_d_ssd1322.c ****   /* tile_width = */ 16,		/* 128 pixel */
 457:..\u8g2-master\csrc/u8x8_d_ssd1322.c ****   /* tile_hight = */ 8,
 458:..\u8g2-master\csrc/u8x8_d_ssd1322.c ****   /* default_x_offset = */ 28,	/* this is the byte offset (there are two pixel per byte with 4 bit 
 459:..\u8g2-master\csrc/u8x8_d_ssd1322.c ****   /* flipmode_x_offset = */ 28,
 460:..\u8g2-master\csrc/u8x8_d_ssd1322.c ****   /* pixel_width = */ 128,
 461:..\u8g2-master\csrc/u8x8_d_ssd1322.c ****   /* pixel_height = */ 64
 462:..\u8g2-master\csrc/u8x8_d_ssd1322.c **** };
 463:..\u8g2-master\csrc/u8x8_d_ssd1322.c **** 
 464:..\u8g2-master\csrc/u8x8_d_ssd1322.c **** 
 465:..\u8g2-master\csrc/u8x8_d_ssd1322.c **** static const uint8_t u8x8_d_ssd1322_128x64_init_seq[] = {
 466:..\u8g2-master\csrc/u8x8_d_ssd1322.c ****     
 467:..\u8g2-master\csrc/u8x8_d_ssd1322.c ****   U8X8_DLY(1),
 468:..\u8g2-master\csrc/u8x8_d_ssd1322.c ****   U8X8_START_TRANSFER(),             	/* enable chip, delay is part of the transfer start */
 469:..\u8g2-master\csrc/u8x8_d_ssd1322.c ****   U8X8_DLY(1),
 470:..\u8g2-master\csrc/u8x8_d_ssd1322.c ****   
 471:..\u8g2-master\csrc/u8x8_d_ssd1322.c ****   U8X8_CA(0xfd, 0x12),            	/* unlock */
 472:..\u8g2-master\csrc/u8x8_d_ssd1322.c ****   U8X8_C(0xae),		                /* display off */
 473:..\u8g2-master\csrc/u8x8_d_ssd1322.c ****   U8X8_CA(0xb3, 0x91),			/* set display clock divide ratio/oscillator frequency (set clock as 80 fr
 474:..\u8g2-master\csrc/u8x8_d_ssd1322.c ****   U8X8_CA(0xca, 0x3f),			/* multiplex ratio 1/64 Duty (0x0F~0x3F) */  
 475:..\u8g2-master\csrc/u8x8_d_ssd1322.c ****   U8X8_CA(0xa2, 0x00),			/* display offset, shift mapping ram counter */  
 476:..\u8g2-master\csrc/u8x8_d_ssd1322.c **** 
ARM GAS  C:\Users\info\AppData\Local\Temp\cchQo10v.s 			page 42


 477:..\u8g2-master\csrc/u8x8_d_ssd1322.c ****   U8X8_CA(0xa1, 0x00),			/* display start line */  
 478:..\u8g2-master\csrc/u8x8_d_ssd1322.c ****   U8X8_CA(0xab, 0x01),			/* Enable Internal VDD Regulator */  
 479:..\u8g2-master\csrc/u8x8_d_ssd1322.c ****   //U8X8_CAA(0xa0, 0x14, 0x11),	/* Set Re-Map / Dual COM Line Mode */  
 480:..\u8g2-master\csrc/u8x8_d_ssd1322.c ****   //U8X8_CAA(0xa0, 0x06, 0x011),	/* Set Re-Map / Dual COM Line Mode */  
 481:..\u8g2-master\csrc/u8x8_d_ssd1322.c ****   U8X8_CAA(0xa0, 0x16, 0x011),	/* Set Re-Map / Dual COM Line Mode (NHD-2.7-12864WDW3-M datasheet) *
 482:..\u8g2-master\csrc/u8x8_d_ssd1322.c ****   U8X8_CA(0xc7, 0x0f),			/* Set Scale Factor of Segment Output Current Control */  
 483:..\u8g2-master\csrc/u8x8_d_ssd1322.c ****   U8X8_CA(0xc1, 0x9f),			/* contrast */  
 484:..\u8g2-master\csrc/u8x8_d_ssd1322.c ****   //U8X8_CA(0xb1, 0xe2),			/* Phase 1 (Reset) & Phase 2 (Pre-Charge) Period Adjustment */  
 485:..\u8g2-master\csrc/u8x8_d_ssd1322.c ****   U8X8_CA(0xb1, 0xf2),			/* Phase 1 (Reset) & Phase 2 (Pre-Charge) Period Adjustment (NHD-2.7-12864
 486:..\u8g2-master\csrc/u8x8_d_ssd1322.c ****   U8X8_CA(0xbb, 0x1f),			/* precharge  voltage */    
 487:..\u8g2-master\csrc/u8x8_d_ssd1322.c ****   //U8X8_CAA(0xb4, 0xa0, 0x005|0x0fd),	/* Display Enhancement A */  
 488:..\u8g2-master\csrc/u8x8_d_ssd1322.c ****   U8X8_CAA(0xb4, 0xa0, 0x0fd),	/* Display Enhancement A (NHD-2.7-12864WDW3-M datasheet) */  
 489:..\u8g2-master\csrc/u8x8_d_ssd1322.c ****   U8X8_CA(0xbe, 0x04),			/* vcomh (NHD-2.7-12864WDW3-M datasheet) */  
 490:..\u8g2-master\csrc/u8x8_d_ssd1322.c ****   U8X8_C(0xb9),		                /* linear grayscale */
 491:..\u8g2-master\csrc/u8x8_d_ssd1322.c ****   //U8X8_CAA(0xd1, 0x082|0x020, 0x020),	/* Display Enhancement B */  
 492:..\u8g2-master\csrc/u8x8_d_ssd1322.c ****   //U8X8_CA(0xb6, 0x08),			/* precharge  period */  
 493:..\u8g2-master\csrc/u8x8_d_ssd1322.c ****   U8X8_C(0xa6),		                /* normal display */
 494:..\u8g2-master\csrc/u8x8_d_ssd1322.c ****   U8X8_C(0xa9),		                /* exit partial display */
 495:..\u8g2-master\csrc/u8x8_d_ssd1322.c **** 
 496:..\u8g2-master\csrc/u8x8_d_ssd1322.c **** 
 497:..\u8g2-master\csrc/u8x8_d_ssd1322.c ****   U8X8_DLY(1),					/* delay 2ms */
 498:..\u8g2-master\csrc/u8x8_d_ssd1322.c **** 
 499:..\u8g2-master\csrc/u8x8_d_ssd1322.c ****   
 500:..\u8g2-master\csrc/u8x8_d_ssd1322.c ****   U8X8_END_TRANSFER(),             	/* disable chip */
 501:..\u8g2-master\csrc/u8x8_d_ssd1322.c ****   U8X8_END()             			/* end of sequence */
 502:..\u8g2-master\csrc/u8x8_d_ssd1322.c **** };
 503:..\u8g2-master\csrc/u8x8_d_ssd1322.c **** 
 504:..\u8g2-master\csrc/u8x8_d_ssd1322.c **** uint8_t u8x8_d_ssd1322_nhd_128x64(u8x8_t *u8x8, uint8_t msg, uint8_t arg_int, void *arg_ptr)
 505:..\u8g2-master\csrc/u8x8_d_ssd1322.c **** {
 1579              		.loc 1 505 0
 1580              		.cfi_startproc
 1581              		@ args = 0, pretend = 0, frame = 0
 1582              		@ frame_needed = 0, uses_anonymous_args = 0
 1583              	.LVL171:
 506:..\u8g2-master\csrc/u8x8_d_ssd1322.c ****   switch(msg)
 1584              		.loc 1 506 0
 1585 0000 0A29     		cmp	r1, #10
 505:..\u8g2-master\csrc/u8x8_d_ssd1322.c ****   switch(msg)
 1586              		.loc 1 505 0
 1587 0002 70B5     		push	{r4, r5, r6, lr}
 1588              		.cfi_def_cfa_offset 16
 1589              		.cfi_offset 4, -16
 1590              		.cfi_offset 5, -12
 1591              		.cfi_offset 6, -8
 1592              		.cfi_offset 14, -4
 505:..\u8g2-master\csrc/u8x8_d_ssd1322.c ****   switch(msg)
 1593              		.loc 1 505 0
 1594 0004 0546     		mov	r5, r0
 1595              		.loc 1 506 0
 1596 0006 16D0     		beq	.L53
 1597 0008 0D29     		cmp	r1, #13
 1598 000a 0AD0     		beq	.L54
 1599 000c 0929     		cmp	r1, #9
 1600 000e 03D0     		beq	.L60
 507:..\u8g2-master\csrc/u8x8_d_ssd1322.c ****   {
 508:..\u8g2-master\csrc/u8x8_d_ssd1322.c ****     case U8X8_MSG_DISPLAY_SETUP_MEMORY:
 509:..\u8g2-master\csrc/u8x8_d_ssd1322.c ****       u8x8_d_helper_display_setup_memory(u8x8, &u8x8_ssd1322_128x64_display_info);
ARM GAS  C:\Users\info\AppData\Local\Temp\cchQo10v.s 			page 43


 510:..\u8g2-master\csrc/u8x8_d_ssd1322.c ****       break;
 511:..\u8g2-master\csrc/u8x8_d_ssd1322.c ****     case U8X8_MSG_DISPLAY_INIT:
 512:..\u8g2-master\csrc/u8x8_d_ssd1322.c ****       u8x8_d_helper_display_init(u8x8);
 513:..\u8g2-master\csrc/u8x8_d_ssd1322.c ****       u8x8_cad_SendSequence(u8x8, u8x8_d_ssd1322_128x64_init_seq);
 514:..\u8g2-master\csrc/u8x8_d_ssd1322.c ****       break;
 515:..\u8g2-master\csrc/u8x8_d_ssd1322.c ****     case U8X8_MSG_DISPLAY_SET_FLIP_MODE:
 516:..\u8g2-master\csrc/u8x8_d_ssd1322.c ****       if ( arg_int == 0 )
 517:..\u8g2-master\csrc/u8x8_d_ssd1322.c ****       {
 518:..\u8g2-master\csrc/u8x8_d_ssd1322.c **** 	u8x8_cad_SendSequence(u8x8, u8x8_d_ssd1322_128x64_flip0_seq);
 519:..\u8g2-master\csrc/u8x8_d_ssd1322.c **** 	u8x8->x_offset = u8x8->display_info->default_x_offset;
 520:..\u8g2-master\csrc/u8x8_d_ssd1322.c ****       }
 521:..\u8g2-master\csrc/u8x8_d_ssd1322.c ****       else
 522:..\u8g2-master\csrc/u8x8_d_ssd1322.c ****       {
 523:..\u8g2-master\csrc/u8x8_d_ssd1322.c **** 	u8x8_cad_SendSequence(u8x8, u8x8_d_ssd1322_128x64_flip1_seq);
 524:..\u8g2-master\csrc/u8x8_d_ssd1322.c **** 	u8x8->x_offset = u8x8->display_info->flipmode_x_offset;
 525:..\u8g2-master\csrc/u8x8_d_ssd1322.c ****       }
 526:..\u8g2-master\csrc/u8x8_d_ssd1322.c ****       break;
 527:..\u8g2-master\csrc/u8x8_d_ssd1322.c ****     
 528:..\u8g2-master\csrc/u8x8_d_ssd1322.c ****     default:
 529:..\u8g2-master\csrc/u8x8_d_ssd1322.c ****       return u8x8_d_ssd1322_common2(u8x8, msg, arg_int, arg_ptr);
 530:..\u8g2-master\csrc/u8x8_d_ssd1322.c ****   }
 531:..\u8g2-master\csrc/u8x8_d_ssd1322.c ****   return 1;
 532:..\u8g2-master\csrc/u8x8_d_ssd1322.c **** }
 1601              		.loc 1 532 0
 1602 0010 BDE87040 		pop	{r4, r5, r6, lr}
 1603              		.cfi_remember_state
 1604              		.cfi_restore 14
 1605              		.cfi_restore 6
 1606              		.cfi_restore 5
 1607              		.cfi_restore 4
 1608              		.cfi_def_cfa_offset 0
 529:..\u8g2-master\csrc/u8x8_d_ssd1322.c ****   }
 1609              		.loc 1 529 0
 1610 0014 FFF7FEBF 		b	u8x8_d_ssd1322_common2
 1611              	.LVL172:
 1612              	.L60:
 1613              		.cfi_restore_state
 509:..\u8g2-master\csrc/u8x8_d_ssd1322.c ****       break;
 1614              		.loc 1 509 0
 1615 0018 0F49     		ldr	r1, .L61
 1616              	.LVL173:
 1617 001a FFF7FEFF 		bl	u8x8_d_helper_display_setup_memory
 1618              	.LVL174:
 1619              		.loc 1 532 0
 1620 001e 0120     		movs	r0, #1
 1621 0020 70BD     		pop	{r4, r5, r6, pc}
 1622              	.LVL175:
 1623              	.L54:
 516:..\u8g2-master\csrc/u8x8_d_ssd1322.c ****       {
 1624              		.loc 1 516 0
 1625 0022 82B9     		cbnz	r2, .L57
 518:..\u8g2-master\csrc/u8x8_d_ssd1322.c **** 	u8x8->x_offset = u8x8->display_info->default_x_offset;
 1626              		.loc 1 518 0
 1627 0024 0D49     		ldr	r1, .L61+4
 1628              	.LVL176:
 1629 0026 FFF7FEFF 		bl	u8x8_cad_SendSequence
 1630              	.LVL177:
ARM GAS  C:\Users\info\AppData\Local\Temp\cchQo10v.s 			page 44


 519:..\u8g2-master\csrc/u8x8_d_ssd1322.c ****       }
 1631              		.loc 1 519 0
 1632 002a 2B68     		ldr	r3, [r5]
 1633              		.loc 1 532 0
 1634 002c 0120     		movs	r0, #1
 519:..\u8g2-master\csrc/u8x8_d_ssd1322.c ****       }
 1635              		.loc 1 519 0
 1636 002e 9B7C     		ldrb	r3, [r3, #18]	@ zero_extendqisi2
 1637 0030 85F82230 		strb	r3, [r5, #34]
 1638              		.loc 1 532 0
 1639 0034 70BD     		pop	{r4, r5, r6, pc}
 1640              	.LVL178:
 1641              	.L53:
 512:..\u8g2-master\csrc/u8x8_d_ssd1322.c ****       u8x8_cad_SendSequence(u8x8, u8x8_d_ssd1322_128x64_init_seq);
 1642              		.loc 1 512 0
 1643 0036 FFF7FEFF 		bl	u8x8_d_helper_display_init
 1644              	.LVL179:
 513:..\u8g2-master\csrc/u8x8_d_ssd1322.c ****       break;
 1645              		.loc 1 513 0
 1646 003a 2846     		mov	r0, r5
 1647 003c 0849     		ldr	r1, .L61+8
 1648 003e FFF7FEFF 		bl	u8x8_cad_SendSequence
 1649              	.LVL180:
 1650              		.loc 1 532 0
 1651 0042 0120     		movs	r0, #1
 1652 0044 70BD     		pop	{r4, r5, r6, pc}
 1653              	.LVL181:
 1654              	.L57:
 523:..\u8g2-master\csrc/u8x8_d_ssd1322.c **** 	u8x8->x_offset = u8x8->display_info->flipmode_x_offset;
 1655              		.loc 1 523 0
 1656 0046 0749     		ldr	r1, .L61+12
 1657              	.LVL182:
 1658 0048 FFF7FEFF 		bl	u8x8_cad_SendSequence
 1659              	.LVL183:
 524:..\u8g2-master\csrc/u8x8_d_ssd1322.c ****       }
 1660              		.loc 1 524 0
 1661 004c 2B68     		ldr	r3, [r5]
 1662              		.loc 1 532 0
 1663 004e 0120     		movs	r0, #1
 524:..\u8g2-master\csrc/u8x8_d_ssd1322.c ****       }
 1664              		.loc 1 524 0
 1665 0050 DB7C     		ldrb	r3, [r3, #19]	@ zero_extendqisi2
 1666 0052 85F82230 		strb	r3, [r5, #34]
 1667              		.loc 1 532 0
 1668 0056 70BD     		pop	{r4, r5, r6, pc}
 1669              	.LVL184:
 1670              	.L62:
 1671              		.align	2
 1672              	.L61:
 1673 0058 94000000 		.word	.LANCHOR0+148
 1674 005c F8000000 		.word	.LANCHOR0+248
 1675 0060 AC000000 		.word	.LANCHOR0+172
 1676 0064 04010000 		.word	.LANCHOR0+260
 1677              		.cfi_endproc
 1678              	.LFE5:
 1679              		.size	u8x8_d_ssd1322_nhd_128x64, .-u8x8_d_ssd1322_nhd_128x64
 1680              		.section	.rodata
ARM GAS  C:\Users\info\AppData\Local\Temp\cchQo10v.s 			page 45


 1681              		.align	2
 1682              		.set	.LANCHOR0,. + 0
 1683              		.type	u8x8_d_ssd1322_powersave0_seq, %object
 1684              		.size	u8x8_d_ssd1322_powersave0_seq, 5
 1685              	u8x8_d_ssd1322_powersave0_seq:
 1686 0000 18       		.byte	24
 1687 0001 15       		.byte	21
 1688 0002 AF       		.byte	-81
 1689 0003 19       		.byte	25
 1690 0004 FF       		.byte	-1
 1691 0005 000000   		.space	3
 1692              		.type	u8x8_d_ssd1322_powersave1_seq, %object
 1693              		.size	u8x8_d_ssd1322_powersave1_seq, 5
 1694              	u8x8_d_ssd1322_powersave1_seq:
 1695 0008 18       		.byte	24
 1696 0009 15       		.byte	21
 1697 000a AE       		.byte	-82
 1698 000b 19       		.byte	25
 1699 000c FF       		.byte	-1
 1700 000d 000000   		.space	3
 1701              		.type	u8x8_ssd1322_256x64_display_info, %object
 1702              		.size	u8x8_ssd1322_256x64_display_info, 24
 1703              	u8x8_ssd1322_256x64_display_info:
 1704 0010 00       		.byte	0
 1705 0011 01       		.byte	1
 1706 0012 14       		.byte	20
 1707 0013 0A       		.byte	10
 1708 0014 64       		.byte	100
 1709 0015 64       		.byte	100
 1710 0016 32       		.byte	50
 1711 0017 32       		.byte	50
 1712 0018 80969800 		.word	10000000
 1713 001c 00       		.byte	0
 1714 001d 04       		.byte	4
 1715 001e 0A       		.byte	10
 1716 001f 96       		.byte	-106
 1717 0020 20       		.byte	32
 1718 0021 08       		.byte	8
 1719 0022 1C       		.byte	28
 1720 0023 1C       		.byte	28
 1721 0024 0001     		.short	256
 1722 0026 4000     		.short	64
 1723              		.type	u8x8_d_ssd1322_256x64_init_seq, %object
 1724              		.size	u8x8_d_ssd1322_256x64_init_seq, 83
 1725              	u8x8_d_ssd1322_256x64_init_seq:
 1726 0028 FE       		.byte	-2
 1727 0029 01       		.byte	1
 1728 002a 18       		.byte	24
 1729 002b FE       		.byte	-2
 1730 002c 01       		.byte	1
 1731 002d 15       		.byte	21
 1732 002e FD       		.byte	-3
 1733 002f 16       		.byte	22
 1734 0030 12       		.byte	18
 1735 0031 15       		.byte	21
 1736 0032 AE       		.byte	-82
 1737 0033 15       		.byte	21
ARM GAS  C:\Users\info\AppData\Local\Temp\cchQo10v.s 			page 46


 1738 0034 B3       		.byte	-77
 1739 0035 16       		.byte	22
 1740 0036 91       		.byte	-111
 1741 0037 15       		.byte	21
 1742 0038 CA       		.byte	-54
 1743 0039 16       		.byte	22
 1744 003a 3F       		.byte	63
 1745 003b 15       		.byte	21
 1746 003c A2       		.byte	-94
 1747 003d 16       		.byte	22
 1748 003e 00       		.byte	0
 1749 003f 15       		.byte	21
 1750 0040 A1       		.byte	-95
 1751 0041 16       		.byte	22
 1752 0042 00       		.byte	0
 1753 0043 15       		.byte	21
 1754 0044 A0       		.byte	-96
 1755 0045 16       		.byte	22
 1756 0046 06       		.byte	6
 1757 0047 16       		.byte	22
 1758 0048 11       		.byte	17
 1759 0049 15       		.byte	21
 1760 004a AB       		.byte	-85
 1761 004b 16       		.byte	22
 1762 004c 01       		.byte	1
 1763 004d 15       		.byte	21
 1764 004e B4       		.byte	-76
 1765 004f 16       		.byte	22
 1766 0050 A0       		.byte	-96
 1767 0051 16       		.byte	22
 1768 0052 FD       		.byte	-3
 1769 0053 15       		.byte	21
 1770 0054 C1       		.byte	-63
 1771 0055 16       		.byte	22
 1772 0056 9F       		.byte	-97
 1773 0057 15       		.byte	21
 1774 0058 C7       		.byte	-57
 1775 0059 16       		.byte	22
 1776 005a 0F       		.byte	15
 1777 005b 15       		.byte	21
 1778 005c B9       		.byte	-71
 1779 005d 15       		.byte	21
 1780 005e B1       		.byte	-79
 1781 005f 16       		.byte	22
 1782 0060 E2       		.byte	-30
 1783 0061 15       		.byte	21
 1784 0062 D1       		.byte	-47
 1785 0063 16       		.byte	22
 1786 0064 A2       		.byte	-94
 1787 0065 16       		.byte	22
 1788 0066 20       		.byte	32
 1789 0067 15       		.byte	21
 1790 0068 BB       		.byte	-69
 1791 0069 16       		.byte	22
 1792 006a 1F       		.byte	31
 1793 006b 15       		.byte	21
 1794 006c B6       		.byte	-74
ARM GAS  C:\Users\info\AppData\Local\Temp\cchQo10v.s 			page 47


 1795 006d 16       		.byte	22
 1796 006e 08       		.byte	8
 1797 006f 15       		.byte	21
 1798 0070 BE       		.byte	-66
 1799 0071 16       		.byte	22
 1800 0072 07       		.byte	7
 1801 0073 15       		.byte	21
 1802 0074 A6       		.byte	-90
 1803 0075 15       		.byte	21
 1804 0076 A9       		.byte	-87
 1805 0077 FE       		.byte	-2
 1806 0078 01       		.byte	1
 1807 0079 19       		.byte	25
 1808 007a FF       		.byte	-1
 1809 007b 00       		.space	1
 1810              		.type	u8x8_d_ssd1322_256x64_flip0_seq, %object
 1811              		.size	u8x8_d_ssd1322_256x64_flip0_seq, 9
 1812              	u8x8_d_ssd1322_256x64_flip0_seq:
 1813 007c 18       		.byte	24
 1814 007d 15       		.byte	21
 1815 007e A0       		.byte	-96
 1816 007f 16       		.byte	22
 1817 0080 06       		.byte	6
 1818 0081 16       		.byte	22
 1819 0082 11       		.byte	17
 1820 0083 19       		.byte	25
 1821 0084 FF       		.byte	-1
 1822 0085 000000   		.space	3
 1823              		.type	u8x8_d_ssd1322_256x64_flip1_seq, %object
 1824              		.size	u8x8_d_ssd1322_256x64_flip1_seq, 9
 1825              	u8x8_d_ssd1322_256x64_flip1_seq:
 1826 0088 18       		.byte	24
 1827 0089 15       		.byte	21
 1828 008a A0       		.byte	-96
 1829 008b 16       		.byte	22
 1830 008c 14       		.byte	20
 1831 008d 16       		.byte	22
 1832 008e 11       		.byte	17
 1833 008f 19       		.byte	25
 1834 0090 FF       		.byte	-1
 1835 0091 000000   		.space	3
 1836              		.type	u8x8_ssd1322_128x64_display_info, %object
 1837              		.size	u8x8_ssd1322_128x64_display_info, 24
 1838              	u8x8_ssd1322_128x64_display_info:
 1839 0094 00       		.byte	0
 1840 0095 01       		.byte	1
 1841 0096 14       		.byte	20
 1842 0097 0A       		.byte	10
 1843 0098 64       		.byte	100
 1844 0099 64       		.byte	100
 1845 009a 32       		.byte	50
 1846 009b 32       		.byte	50
 1847 009c 80969800 		.word	10000000
 1848 00a0 00       		.byte	0
 1849 00a1 04       		.byte	4
 1850 00a2 0A       		.byte	10
 1851 00a3 96       		.byte	-106
ARM GAS  C:\Users\info\AppData\Local\Temp\cchQo10v.s 			page 48


 1852 00a4 10       		.byte	16
 1853 00a5 08       		.byte	8
 1854 00a6 1C       		.byte	28
 1855 00a7 1C       		.byte	28
 1856 00a8 8000     		.short	128
 1857 00aa 4000     		.short	64
 1858              		.type	u8x8_d_ssd1322_128x64_init_seq, %object
 1859              		.size	u8x8_d_ssd1322_128x64_init_seq, 73
 1860              	u8x8_d_ssd1322_128x64_init_seq:
 1861 00ac FE       		.byte	-2
 1862 00ad 01       		.byte	1
 1863 00ae 18       		.byte	24
 1864 00af FE       		.byte	-2
 1865 00b0 01       		.byte	1
 1866 00b1 15       		.byte	21
 1867 00b2 FD       		.byte	-3
 1868 00b3 16       		.byte	22
 1869 00b4 12       		.byte	18
 1870 00b5 15       		.byte	21
 1871 00b6 AE       		.byte	-82
 1872 00b7 15       		.byte	21
 1873 00b8 B3       		.byte	-77
 1874 00b9 16       		.byte	22
 1875 00ba 91       		.byte	-111
 1876 00bb 15       		.byte	21
 1877 00bc CA       		.byte	-54
 1878 00bd 16       		.byte	22
 1879 00be 3F       		.byte	63
 1880 00bf 15       		.byte	21
 1881 00c0 A2       		.byte	-94
 1882 00c1 16       		.byte	22
 1883 00c2 00       		.byte	0
 1884 00c3 15       		.byte	21
 1885 00c4 A1       		.byte	-95
 1886 00c5 16       		.byte	22
 1887 00c6 00       		.byte	0
 1888 00c7 15       		.byte	21
 1889 00c8 AB       		.byte	-85
 1890 00c9 16       		.byte	22
 1891 00ca 01       		.byte	1
 1892 00cb 15       		.byte	21
 1893 00cc A0       		.byte	-96
 1894 00cd 16       		.byte	22
 1895 00ce 16       		.byte	22
 1896 00cf 16       		.byte	22
 1897 00d0 11       		.byte	17
 1898 00d1 15       		.byte	21
 1899 00d2 C7       		.byte	-57
 1900 00d3 16       		.byte	22
 1901 00d4 0F       		.byte	15
 1902 00d5 15       		.byte	21
 1903 00d6 C1       		.byte	-63
 1904 00d7 16       		.byte	22
 1905 00d8 9F       		.byte	-97
 1906 00d9 15       		.byte	21
 1907 00da B1       		.byte	-79
 1908 00db 16       		.byte	22
ARM GAS  C:\Users\info\AppData\Local\Temp\cchQo10v.s 			page 49


 1909 00dc F2       		.byte	-14
 1910 00dd 15       		.byte	21
 1911 00de BB       		.byte	-69
 1912 00df 16       		.byte	22
 1913 00e0 1F       		.byte	31
 1914 00e1 15       		.byte	21
 1915 00e2 B4       		.byte	-76
 1916 00e3 16       		.byte	22
 1917 00e4 A0       		.byte	-96
 1918 00e5 16       		.byte	22
 1919 00e6 FD       		.byte	-3
 1920 00e7 15       		.byte	21
 1921 00e8 BE       		.byte	-66
 1922 00e9 16       		.byte	22
 1923 00ea 04       		.byte	4
 1924 00eb 15       		.byte	21
 1925 00ec B9       		.byte	-71
 1926 00ed 15       		.byte	21
 1927 00ee A6       		.byte	-90
 1928 00ef 15       		.byte	21
 1929 00f0 A9       		.byte	-87
 1930 00f1 FE       		.byte	-2
 1931 00f2 01       		.byte	1
 1932 00f3 19       		.byte	25
 1933 00f4 FF       		.byte	-1
 1934 00f5 000000   		.space	3
 1935              		.type	u8x8_d_ssd1322_128x64_flip0_seq, %object
 1936              		.size	u8x8_d_ssd1322_128x64_flip0_seq, 9
 1937              	u8x8_d_ssd1322_128x64_flip0_seq:
 1938 00f8 18       		.byte	24
 1939 00f9 15       		.byte	21
 1940 00fa A0       		.byte	-96
 1941 00fb 16       		.byte	22
 1942 00fc 16       		.byte	22
 1943 00fd 16       		.byte	22
 1944 00fe 11       		.byte	17
 1945 00ff 19       		.byte	25
 1946 0100 FF       		.byte	-1
 1947 0101 000000   		.space	3
 1948              		.type	u8x8_d_ssd1322_128x64_flip1_seq, %object
 1949              		.size	u8x8_d_ssd1322_128x64_flip1_seq, 9
 1950              	u8x8_d_ssd1322_128x64_flip1_seq:
 1951 0104 18       		.byte	24
 1952 0105 15       		.byte	21
 1953 0106 A0       		.byte	-96
 1954 0107 16       		.byte	22
 1955 0108 04       		.byte	4
 1956 0109 16       		.byte	22
 1957 010a 11       		.byte	17
 1958 010b 19       		.byte	25
 1959 010c FF       		.byte	-1
 1960              		.bss
 1961              		.align	2
 1962              		.set	.LANCHOR1,. + 0
 1963              		.type	u8x8_ssd1322_to32_dest_buf, %object
 1964              		.size	u8x8_ssd1322_to32_dest_buf, 32
 1965              	u8x8_ssd1322_to32_dest_buf:
ARM GAS  C:\Users\info\AppData\Local\Temp\cchQo10v.s 			page 50


 1966 0000 00000000 		.space	32
 1966      00000000 
 1966      00000000 
 1966      00000000 
 1966      00000000 
 1967              		.text
 1968              	.Letext0:
 1969              		.file 2 "c:\\program files (x86)\\cypress\\psoc creator\\4.2\\psoc creator\\import\\gnu\\arm\\5.4.
 1970              		.file 3 "c:\\program files (x86)\\cypress\\psoc creator\\4.2\\psoc creator\\import\\gnu\\arm\\5.4.
 1971              		.file 4 "..\\u8g2-master\\csrc\\u8x8.h"