ARM GAS  C:\Users\info\AppData\Local\Temp\ccNAmLH1.s 			page 1


   1              		.syntax unified
   2              		.cpu cortex-m3
   3              		.fpu softvfp
   4              		.eabi_attribute 20, 1
   5              		.eabi_attribute 21, 1
   6              		.eabi_attribute 23, 3
   7              		.eabi_attribute 24, 1
   8              		.eabi_attribute 25, 1
   9              		.eabi_attribute 26, 1
  10              		.eabi_attribute 30, 2
  11              		.eabi_attribute 34, 1
  12              		.eabi_attribute 18, 4
  13              		.thumb
  14              		.syntax unified
  15              		.file	"u8x8_d_ssd1326.c"
  16              		.text
  17              	.Ltext0:
  18              		.cfi_sections	.debug_frame
  19              		.section	.text.u8x8_d_ssd1326_er_256x32,"ax",%progbits
  20              		.align	2
  21              		.global	u8x8_d_ssd1326_er_256x32
  22              		.thumb
  23              		.thumb_func
  24              		.type	u8x8_d_ssd1326_er_256x32, %function
  25              	u8x8_d_ssd1326_er_256x32:
  26              	.LFB2:
  27              		.file 1 "..\\u8g2-master\\csrc\\u8x8_d_ssd1326.c"
   1:..\u8g2-master\csrc/u8x8_d_ssd1326.c **** /*
   2:..\u8g2-master\csrc/u8x8_d_ssd1326.c **** 
   3:..\u8g2-master\csrc/u8x8_d_ssd1326.c ****   u8x8_d_ssd1326.c
   4:..\u8g2-master\csrc/u8x8_d_ssd1326.c **** 
   5:..\u8g2-master\csrc/u8x8_d_ssd1326.c ****   Universal 8bit Graphics Library (https://github.com/olikraus/u8g2/)
   6:..\u8g2-master\csrc/u8x8_d_ssd1326.c **** 
   7:..\u8g2-master\csrc/u8x8_d_ssd1326.c ****   Copyright (c) 2016, olikraus@gmail.com
   8:..\u8g2-master\csrc/u8x8_d_ssd1326.c ****   All rights reserved.
   9:..\u8g2-master\csrc/u8x8_d_ssd1326.c **** 
  10:..\u8g2-master\csrc/u8x8_d_ssd1326.c ****   Redistribution and use in source and binary forms, with or without modification, 
  11:..\u8g2-master\csrc/u8x8_d_ssd1326.c ****   are permitted provided that the following conditions are met:
  12:..\u8g2-master\csrc/u8x8_d_ssd1326.c **** 
  13:..\u8g2-master\csrc/u8x8_d_ssd1326.c ****   * Redistributions of source code must retain the above copyright notice, this list 
  14:..\u8g2-master\csrc/u8x8_d_ssd1326.c ****     of conditions and the following disclaimer.
  15:..\u8g2-master\csrc/u8x8_d_ssd1326.c ****     
  16:..\u8g2-master\csrc/u8x8_d_ssd1326.c ****   * Redistributions in binary form must reproduce the above copyright notice, this 
  17:..\u8g2-master\csrc/u8x8_d_ssd1326.c ****     list of conditions and the following disclaimer in the documentation and/or other 
  18:..\u8g2-master\csrc/u8x8_d_ssd1326.c ****     materials provided with the distribution.
  19:..\u8g2-master\csrc/u8x8_d_ssd1326.c **** 
  20:..\u8g2-master\csrc/u8x8_d_ssd1326.c ****   THIS SOFTWARE IS PROVIDED BY THE COPYRIGHT HOLDERS AND 
  21:..\u8g2-master\csrc/u8x8_d_ssd1326.c ****   CONTRIBUTORS "AS IS" AND ANY EXPRESS OR IMPLIED WARRANTIES, 
  22:..\u8g2-master\csrc/u8x8_d_ssd1326.c ****   INCLUDING, BUT NOT LIMITED TO, THE IMPLIED WARRANTIES OF 
  23:..\u8g2-master\csrc/u8x8_d_ssd1326.c ****   MERCHANTABILITY AND FITNESS FOR A PARTICULAR PURPOSE ARE 
  24:..\u8g2-master\csrc/u8x8_d_ssd1326.c ****   DISCLAIMED. IN NO EVENT SHALL THE COPYRIGHT HOLDER OR 
  25:..\u8g2-master\csrc/u8x8_d_ssd1326.c ****   CONTRIBUTORS BE LIABLE FOR ANY DIRECT, INDIRECT, INCIDENTAL, 
  26:..\u8g2-master\csrc/u8x8_d_ssd1326.c ****   SPECIAL, EXEMPLARY, OR CONSEQUENTIAL DAMAGES (INCLUDING, BUT 
  27:..\u8g2-master\csrc/u8x8_d_ssd1326.c ****   NOT LIMITED TO, PROCUREMENT OF SUBSTITUTE GOODS OR SERVICES; 
  28:..\u8g2-master\csrc/u8x8_d_ssd1326.c ****   LOSS OF USE, DATA, OR PROFITS; OR BUSINESS INTERRUPTION) HOWEVER 
  29:..\u8g2-master\csrc/u8x8_d_ssd1326.c ****   CAUSED AND ON ANY THEORY OF LIABILITY, WHETHER IN CONTRACT, 
  30:..\u8g2-master\csrc/u8x8_d_ssd1326.c ****   STRICT LIABILITY, OR TORT (INCLUDING NEGLIGENCE OR OTHERWISE) 
ARM GAS  C:\Users\info\AppData\Local\Temp\ccNAmLH1.s 			page 2


  31:..\u8g2-master\csrc/u8x8_d_ssd1326.c ****   ARISING IN ANY WAY OUT OF THE USE OF THIS SOFTWARE, EVEN IF 
  32:..\u8g2-master\csrc/u8x8_d_ssd1326.c ****   ADVISED OF THE POSSIBILITY OF SUCH DAMAGE.  
  33:..\u8g2-master\csrc/u8x8_d_ssd1326.c ****   
  34:..\u8g2-master\csrc/u8x8_d_ssd1326.c **** */
  35:..\u8g2-master\csrc/u8x8_d_ssd1326.c **** 
  36:..\u8g2-master\csrc/u8x8_d_ssd1326.c **** 
  37:..\u8g2-master\csrc/u8x8_d_ssd1326.c **** #include "u8x8.h"
  38:..\u8g2-master\csrc/u8x8_d_ssd1326.c **** 
  39:..\u8g2-master\csrc/u8x8_d_ssd1326.c **** 
  40:..\u8g2-master\csrc/u8x8_d_ssd1326.c **** /* ER OLED */
  41:..\u8g2-master\csrc/u8x8_d_ssd1326.c **** static const uint8_t u8x8_d_ssd1326_er_256x32_init_seq[] = {
  42:..\u8g2-master\csrc/u8x8_d_ssd1326.c ****     
  43:..\u8g2-master\csrc/u8x8_d_ssd1326.c ****   U8X8_START_TRANSFER(),             	/* enable chip, delay is part of the transfer start */
  44:..\u8g2-master\csrc/u8x8_d_ssd1326.c **** 
  45:..\u8g2-master\csrc/u8x8_d_ssd1326.c ****   U8X8_CA(0x0fd, 0x012),		/* unlock (not required, this is default by reset) */
  46:..\u8g2-master\csrc/u8x8_d_ssd1326.c ****   
  47:..\u8g2-master\csrc/u8x8_d_ssd1326.c ****   
  48:..\u8g2-master\csrc/u8x8_d_ssd1326.c ****   U8X8_C(0x0ae),		                /* display off */
  49:..\u8g2-master\csrc/u8x8_d_ssd1326.c ****   U8X8_CA(0x0a8, 0x01f),		/* multiplex ratio: 0x03f * 1/64 duty - changed by CREESOO, acc. to datas
  50:..\u8g2-master\csrc/u8x8_d_ssd1326.c ****   U8X8_CA(0x0a1, 0x000),		/* display start line */
  51:..\u8g2-master\csrc/u8x8_d_ssd1326.c ****   U8X8_CA(0x0a2, 0x000),		/* display offset, shift mapping ram counter */
  52:..\u8g2-master\csrc/u8x8_d_ssd1326.c ****   U8X8_CA(0x0ad, 0x002),		/* master configuration: disable embedded DC-DC, enable internal VCOMH */
  53:..\u8g2-master\csrc/u8x8_d_ssd1326.c ****   /*
  54:..\u8g2-master\csrc/u8x8_d_ssd1326.c ****     a0 command: 0x0a0 ***abcde
  55:..\u8g2-master\csrc/u8x8_d_ssd1326.c ****       a: 1: mono mode
  56:..\u8g2-master\csrc/u8x8_d_ssd1326.c ****       b: 0: horizontal (1: vertical) address increment
  57:..\u8g2-master\csrc/u8x8_d_ssd1326.c ****       c: 1: enable bit remap
  58:..\u8g2-master\csrc/u8x8_d_ssd1326.c ****       d: 1: COM remap
  59:..\u8g2-master\csrc/u8x8_d_ssd1326.c ****       e: 1: Column remap
  60:..\u8g2-master\csrc/u8x8_d_ssd1326.c ****   */
  61:..\u8g2-master\csrc/u8x8_d_ssd1326.c ****   U8X8_CA(0x0a0, 0x006),		/* remap configuration, see above */
  62:..\u8g2-master\csrc/u8x8_d_ssd1326.c ****   U8X8_C(0x086),				/* full current range (0x084, 0x085, 0x086) */
  63:..\u8g2-master\csrc/u8x8_d_ssd1326.c **** 
  64:..\u8g2-master\csrc/u8x8_d_ssd1326.c ****   U8X8_C(0x0b7),				/* set default gray scale table */
  65:..\u8g2-master\csrc/u8x8_d_ssd1326.c ****     
  66:..\u8g2-master\csrc/u8x8_d_ssd1326.c ****   U8X8_CA(0x081, 0x027),		/* contrast, brightness, 0..128 */
  67:..\u8g2-master\csrc/u8x8_d_ssd1326.c ****   U8X8_CA(0x0b1, 0x071),                    /* phase length */
  68:..\u8g2-master\csrc/u8x8_d_ssd1326.c ****   //U8X8_CA(0x0b2, 0x051),		/* frame frequency (row period) */
  69:..\u8g2-master\csrc/u8x8_d_ssd1326.c ****   U8X8_CA(0x0b3, 0x0f0),		/* set display clock divide ratio/oscillator frequency (set clock as 135 
  70:..\u8g2-master\csrc/u8x8_d_ssd1326.c ****   //U8X8_CA(0x0b4, 0x002),                    /* set pre-charge compensation level (not documented 
  71:..\u8g2-master\csrc/u8x8_d_ssd1326.c ****   //U8X8_CA(0x0b0, 0x028),                    /* enable pre-charge compensation (not documented in 
  72:..\u8g2-master\csrc/u8x8_d_ssd1326.c ****   U8X8_CAA(0x0bb, 0x035, 0x0ff),                     /* set precharge */
  73:..\u8g2-master\csrc/u8x8_d_ssd1326.c ****   U8X8_CA(0x0bc, 0x01f),                    /* pre-charge voltage level */
  74:..\u8g2-master\csrc/u8x8_d_ssd1326.c ****   U8X8_CA(0x0be, 0x00f),                     /* VCOMH voltage */
  75:..\u8g2-master\csrc/u8x8_d_ssd1326.c ****   U8X8_CA(0x0bf, 0x002|0x00d),           /* VSL voltage level (not documented in the SDD1325 datash
  76:..\u8g2-master\csrc/u8x8_d_ssd1326.c ****   U8X8_C(0x0a4),				/* normal display mode */
  77:..\u8g2-master\csrc/u8x8_d_ssd1326.c ****     
  78:..\u8g2-master\csrc/u8x8_d_ssd1326.c ****   //U8X8_CA(0x023, 0x003),		/* graphics accelleration: fill pixel */
  79:..\u8g2-master\csrc/u8x8_d_ssd1326.c ****     
  80:..\u8g2-master\csrc/u8x8_d_ssd1326.c ****   U8X8_END_TRANSFER(),             	/* disable chip */
  81:..\u8g2-master\csrc/u8x8_d_ssd1326.c ****   U8X8_END()             			/* end of sequence */
  82:..\u8g2-master\csrc/u8x8_d_ssd1326.c **** };
  83:..\u8g2-master\csrc/u8x8_d_ssd1326.c **** 
  84:..\u8g2-master\csrc/u8x8_d_ssd1326.c **** static const uint8_t u8x8_d_ssd1326_256x32_nhd_powersave0_seq[] = {
  85:..\u8g2-master\csrc/u8x8_d_ssd1326.c ****   U8X8_START_TRANSFER(),             	/* enable chip, delay is part of the transfer start */
  86:..\u8g2-master\csrc/u8x8_d_ssd1326.c ****   U8X8_C(0x0af),		                /* display on */
  87:..\u8g2-master\csrc/u8x8_d_ssd1326.c ****   U8X8_END_TRANSFER(),             	/* disable chip */
ARM GAS  C:\Users\info\AppData\Local\Temp\ccNAmLH1.s 			page 3


  88:..\u8g2-master\csrc/u8x8_d_ssd1326.c ****   U8X8_END()             			/* end of sequence */
  89:..\u8g2-master\csrc/u8x8_d_ssd1326.c **** };
  90:..\u8g2-master\csrc/u8x8_d_ssd1326.c **** 
  91:..\u8g2-master\csrc/u8x8_d_ssd1326.c **** static const uint8_t u8x8_d_ssd1326_256x32_nhd_powersave1_seq[] = {
  92:..\u8g2-master\csrc/u8x8_d_ssd1326.c ****   U8X8_START_TRANSFER(),             	/* enable chip, delay is part of the transfer start */
  93:..\u8g2-master\csrc/u8x8_d_ssd1326.c ****   U8X8_C(0x0ae),		                /* display off */
  94:..\u8g2-master\csrc/u8x8_d_ssd1326.c ****   U8X8_END_TRANSFER(),             	/* disable chip */
  95:..\u8g2-master\csrc/u8x8_d_ssd1326.c ****   U8X8_END()             			/* end of sequence */
  96:..\u8g2-master\csrc/u8x8_d_ssd1326.c **** };
  97:..\u8g2-master\csrc/u8x8_d_ssd1326.c **** 
  98:..\u8g2-master\csrc/u8x8_d_ssd1326.c **** static const uint8_t u8x8_d_ssd1326_256x32_nhd_flip0_seq[] = {
  99:..\u8g2-master\csrc/u8x8_d_ssd1326.c ****   U8X8_START_TRANSFER(),             	/* enable chip, delay is part of the transfer start */
 100:..\u8g2-master\csrc/u8x8_d_ssd1326.c ****   U8X8_CA(0x0a0, 0x006),		/* remap 00110 */
 101:..\u8g2-master\csrc/u8x8_d_ssd1326.c ****   U8X8_END_TRANSFER(),             	/* disable chip */
 102:..\u8g2-master\csrc/u8x8_d_ssd1326.c ****   U8X8_END()             			/* end of sequence */
 103:..\u8g2-master\csrc/u8x8_d_ssd1326.c **** };
 104:..\u8g2-master\csrc/u8x8_d_ssd1326.c **** 
 105:..\u8g2-master\csrc/u8x8_d_ssd1326.c **** static const uint8_t u8x8_d_ssd1326_256x32_nhd_flip1_seq[] = {
 106:..\u8g2-master\csrc/u8x8_d_ssd1326.c ****   U8X8_START_TRANSFER(),             	/* enable chip, delay is part of the transfer start */
 107:..\u8g2-master\csrc/u8x8_d_ssd1326.c ****   //U8X8_CA(0x0a0, 0x005),		/* remap 00101 */
 108:..\u8g2-master\csrc/u8x8_d_ssd1326.c ****   U8X8_CA(0x0a0, 0x001),		/* remap 00001 */
 109:..\u8g2-master\csrc/u8x8_d_ssd1326.c ****   U8X8_END_TRANSFER(),             	/* disable chip */
 110:..\u8g2-master\csrc/u8x8_d_ssd1326.c ****   U8X8_END()             			/* end of sequence */
 111:..\u8g2-master\csrc/u8x8_d_ssd1326.c **** };
 112:..\u8g2-master\csrc/u8x8_d_ssd1326.c **** 
 113:..\u8g2-master\csrc/u8x8_d_ssd1326.c **** 
 114:..\u8g2-master\csrc/u8x8_d_ssd1326.c **** /*
 115:..\u8g2-master\csrc/u8x8_d_ssd1326.c ****   input:
 116:..\u8g2-master\csrc/u8x8_d_ssd1326.c ****     one tile (8 Bytes)
 117:..\u8g2-master\csrc/u8x8_d_ssd1326.c ****   output:
 118:..\u8g2-master\csrc/u8x8_d_ssd1326.c ****     Tile for ssd1326 (32 Bytes)
 119:..\u8g2-master\csrc/u8x8_d_ssd1326.c **** */
 120:..\u8g2-master\csrc/u8x8_d_ssd1326.c **** 
 121:..\u8g2-master\csrc/u8x8_d_ssd1326.c **** static uint8_t u8x8_ssd1326_8to32_dest_buf[32];
 122:..\u8g2-master\csrc/u8x8_d_ssd1326.c **** 
 123:..\u8g2-master\csrc/u8x8_d_ssd1326.c **** static uint8_t *u8x8_ssd1326_8to32(U8X8_UNUSED u8x8_t *u8x8, uint8_t *ptr)
 124:..\u8g2-master\csrc/u8x8_d_ssd1326.c **** {
 125:..\u8g2-master\csrc/u8x8_d_ssd1326.c ****   uint8_t v;
 126:..\u8g2-master\csrc/u8x8_d_ssd1326.c ****   uint8_t a,b;
 127:..\u8g2-master\csrc/u8x8_d_ssd1326.c ****   uint8_t i, j;
 128:..\u8g2-master\csrc/u8x8_d_ssd1326.c ****   uint8_t *dest;
 129:..\u8g2-master\csrc/u8x8_d_ssd1326.c ****   
 130:..\u8g2-master\csrc/u8x8_d_ssd1326.c ****   for( j = 0; j < 4; j++ )
 131:..\u8g2-master\csrc/u8x8_d_ssd1326.c ****   {
 132:..\u8g2-master\csrc/u8x8_d_ssd1326.c ****     dest = u8x8_ssd1326_8to32_dest_buf;
 133:..\u8g2-master\csrc/u8x8_d_ssd1326.c ****     dest += j;
 134:..\u8g2-master\csrc/u8x8_d_ssd1326.c ****     a =*ptr;
 135:..\u8g2-master\csrc/u8x8_d_ssd1326.c ****     ptr++;
 136:..\u8g2-master\csrc/u8x8_d_ssd1326.c ****     b = *ptr;
 137:..\u8g2-master\csrc/u8x8_d_ssd1326.c ****     ptr++;
 138:..\u8g2-master\csrc/u8x8_d_ssd1326.c ****     for( i = 0; i < 8; i++ )
 139:..\u8g2-master\csrc/u8x8_d_ssd1326.c ****     {
 140:..\u8g2-master\csrc/u8x8_d_ssd1326.c ****       v = 0;
 141:..\u8g2-master\csrc/u8x8_d_ssd1326.c ****       if ( a&1 ) v |= 0xf0;
 142:..\u8g2-master\csrc/u8x8_d_ssd1326.c ****       if ( b&1 ) v |= 0x0f;
 143:..\u8g2-master\csrc/u8x8_d_ssd1326.c ****       *dest = v;
 144:..\u8g2-master\csrc/u8x8_d_ssd1326.c ****       dest+=4;
ARM GAS  C:\Users\info\AppData\Local\Temp\ccNAmLH1.s 			page 4


 145:..\u8g2-master\csrc/u8x8_d_ssd1326.c ****       a >>= 1;
 146:..\u8g2-master\csrc/u8x8_d_ssd1326.c ****       b >>= 1;
 147:..\u8g2-master\csrc/u8x8_d_ssd1326.c ****     }
 148:..\u8g2-master\csrc/u8x8_d_ssd1326.c ****   }
 149:..\u8g2-master\csrc/u8x8_d_ssd1326.c ****   
 150:..\u8g2-master\csrc/u8x8_d_ssd1326.c ****   return u8x8_ssd1326_8to32_dest_buf;
 151:..\u8g2-master\csrc/u8x8_d_ssd1326.c **** }
 152:..\u8g2-master\csrc/u8x8_d_ssd1326.c **** 
 153:..\u8g2-master\csrc/u8x8_d_ssd1326.c **** 
 154:..\u8g2-master\csrc/u8x8_d_ssd1326.c **** 
 155:..\u8g2-master\csrc/u8x8_d_ssd1326.c **** 
 156:..\u8g2-master\csrc/u8x8_d_ssd1326.c **** static uint8_t u8x8_d_ssd1326_256x32_generic(u8x8_t *u8x8, uint8_t msg, uint8_t arg_int, void *arg_
 157:..\u8g2-master\csrc/u8x8_d_ssd1326.c **** {
 158:..\u8g2-master\csrc/u8x8_d_ssd1326.c ****   uint8_t x, y, c;
 159:..\u8g2-master\csrc/u8x8_d_ssd1326.c ****   uint8_t *ptr;
 160:..\u8g2-master\csrc/u8x8_d_ssd1326.c ****   switch(msg)
 161:..\u8g2-master\csrc/u8x8_d_ssd1326.c ****   {
 162:..\u8g2-master\csrc/u8x8_d_ssd1326.c ****     /* handled by the calling function
 163:..\u8g2-master\csrc/u8x8_d_ssd1326.c ****     case U8X8_MSG_DISPLAY_SETUP_MEMORY:
 164:..\u8g2-master\csrc/u8x8_d_ssd1326.c ****       u8x8_d_helper_display_setup_memory(u8x8, &u8x8_ssd1326_256x32_nhd_display_info);
 165:..\u8g2-master\csrc/u8x8_d_ssd1326.c ****       break;
 166:..\u8g2-master\csrc/u8x8_d_ssd1326.c ****     */
 167:..\u8g2-master\csrc/u8x8_d_ssd1326.c ****     case U8X8_MSG_DISPLAY_INIT:
 168:..\u8g2-master\csrc/u8x8_d_ssd1326.c ****       u8x8_d_helper_display_init(u8x8);
 169:..\u8g2-master\csrc/u8x8_d_ssd1326.c ****       u8x8_cad_SendSequence(u8x8, u8x8_d_ssd1326_er_256x32_init_seq);    
 170:..\u8g2-master\csrc/u8x8_d_ssd1326.c ****       break;
 171:..\u8g2-master\csrc/u8x8_d_ssd1326.c ****     case U8X8_MSG_DISPLAY_SET_POWER_SAVE:
 172:..\u8g2-master\csrc/u8x8_d_ssd1326.c ****       if ( arg_int == 0 )
 173:..\u8g2-master\csrc/u8x8_d_ssd1326.c **** 	u8x8_cad_SendSequence(u8x8, u8x8_d_ssd1326_256x32_nhd_powersave0_seq);
 174:..\u8g2-master\csrc/u8x8_d_ssd1326.c ****       else
 175:..\u8g2-master\csrc/u8x8_d_ssd1326.c **** 	u8x8_cad_SendSequence(u8x8, u8x8_d_ssd1326_256x32_nhd_powersave1_seq);
 176:..\u8g2-master\csrc/u8x8_d_ssd1326.c ****       break;
 177:..\u8g2-master\csrc/u8x8_d_ssd1326.c ****     case U8X8_MSG_DISPLAY_SET_FLIP_MODE:
 178:..\u8g2-master\csrc/u8x8_d_ssd1326.c ****       if ( arg_int == 0 )
 179:..\u8g2-master\csrc/u8x8_d_ssd1326.c ****       {
 180:..\u8g2-master\csrc/u8x8_d_ssd1326.c **** 	u8x8_cad_SendSequence(u8x8, u8x8_d_ssd1326_256x32_nhd_flip0_seq);
 181:..\u8g2-master\csrc/u8x8_d_ssd1326.c **** 	u8x8->x_offset = u8x8->display_info->default_x_offset;
 182:..\u8g2-master\csrc/u8x8_d_ssd1326.c ****       }
 183:..\u8g2-master\csrc/u8x8_d_ssd1326.c ****       else
 184:..\u8g2-master\csrc/u8x8_d_ssd1326.c ****       {
 185:..\u8g2-master\csrc/u8x8_d_ssd1326.c **** 	u8x8_cad_SendSequence(u8x8, u8x8_d_ssd1326_256x32_nhd_flip1_seq);
 186:..\u8g2-master\csrc/u8x8_d_ssd1326.c **** 	u8x8->x_offset = u8x8->display_info->flipmode_x_offset;
 187:..\u8g2-master\csrc/u8x8_d_ssd1326.c ****       }
 188:..\u8g2-master\csrc/u8x8_d_ssd1326.c ****       break;
 189:..\u8g2-master\csrc/u8x8_d_ssd1326.c **** #ifdef U8X8_WITH_SET_CONTRAST
 190:..\u8g2-master\csrc/u8x8_d_ssd1326.c ****     case U8X8_MSG_DISPLAY_SET_CONTRAST:
 191:..\u8g2-master\csrc/u8x8_d_ssd1326.c ****       u8x8_cad_StartTransfer(u8x8);
 192:..\u8g2-master\csrc/u8x8_d_ssd1326.c ****       u8x8_cad_SendCmd(u8x8, 0x081 );
 193:..\u8g2-master\csrc/u8x8_d_ssd1326.c ****       u8x8_cad_SendArg(u8x8, arg_int );	/* ssd1326 has range from 0 to 255 */
 194:..\u8g2-master\csrc/u8x8_d_ssd1326.c ****       u8x8_cad_EndTransfer(u8x8);
 195:..\u8g2-master\csrc/u8x8_d_ssd1326.c ****       break;
 196:..\u8g2-master\csrc/u8x8_d_ssd1326.c **** #endif
 197:..\u8g2-master\csrc/u8x8_d_ssd1326.c ****     case U8X8_MSG_DISPLAY_DRAW_TILE:
 198:..\u8g2-master\csrc/u8x8_d_ssd1326.c ****       u8x8_cad_StartTransfer(u8x8);
 199:..\u8g2-master\csrc/u8x8_d_ssd1326.c ****       x = ((u8x8_tile_t *)arg_ptr)->x_pos;
 200:..\u8g2-master\csrc/u8x8_d_ssd1326.c ****       x *= 4;
 201:..\u8g2-master\csrc/u8x8_d_ssd1326.c ****       
ARM GAS  C:\Users\info\AppData\Local\Temp\ccNAmLH1.s 			page 5


 202:..\u8g2-master\csrc/u8x8_d_ssd1326.c ****       y = (((u8x8_tile_t *)arg_ptr)->y_pos);
 203:..\u8g2-master\csrc/u8x8_d_ssd1326.c ****       
 204:..\u8g2-master\csrc/u8x8_d_ssd1326.c ****       y *= 8;
 205:..\u8g2-master\csrc/u8x8_d_ssd1326.c ****       y += u8x8->x_offset;		/* x_offset is used as y offset for the ssd1326 */
 206:..\u8g2-master\csrc/u8x8_d_ssd1326.c ****     
 207:..\u8g2-master\csrc/u8x8_d_ssd1326.c ****       
 208:..\u8g2-master\csrc/u8x8_d_ssd1326.c ****       do
 209:..\u8g2-master\csrc/u8x8_d_ssd1326.c ****       {
 210:..\u8g2-master\csrc/u8x8_d_ssd1326.c **** 	c = ((u8x8_tile_t *)arg_ptr)->cnt;
 211:..\u8g2-master\csrc/u8x8_d_ssd1326.c **** 	ptr = ((u8x8_tile_t *)arg_ptr)->tile_ptr;
 212:..\u8g2-master\csrc/u8x8_d_ssd1326.c **** 
 213:..\u8g2-master\csrc/u8x8_d_ssd1326.c **** 	do
 214:..\u8g2-master\csrc/u8x8_d_ssd1326.c **** 	{
 215:..\u8g2-master\csrc/u8x8_d_ssd1326.c ****           u8x8_cad_SendCmd(u8x8, 0x015 );	/* set column address */
 216:..\u8g2-master\csrc/u8x8_d_ssd1326.c ****           u8x8_cad_SendArg(u8x8, x );	/* start */
 217:..\u8g2-master\csrc/u8x8_d_ssd1326.c ****           u8x8_cad_SendArg(u8x8, x+3 );	/* end */
 218:..\u8g2-master\csrc/u8x8_d_ssd1326.c **** 
 219:..\u8g2-master\csrc/u8x8_d_ssd1326.c ****           u8x8_cad_SendCmd(u8x8, 0x075 );	/* set row address */
 220:..\u8g2-master\csrc/u8x8_d_ssd1326.c ****           u8x8_cad_SendArg(u8x8, y);
 221:..\u8g2-master\csrc/u8x8_d_ssd1326.c ****           u8x8_cad_SendArg(u8x8, y+7);
 222:..\u8g2-master\csrc/u8x8_d_ssd1326.c ****           
 223:..\u8g2-master\csrc/u8x8_d_ssd1326.c ****           u8x8_cad_SendData(u8x8, 32, u8x8_ssd1326_8to32(u8x8, ptr));
 224:..\u8g2-master\csrc/u8x8_d_ssd1326.c ****           
 225:..\u8g2-master\csrc/u8x8_d_ssd1326.c **** 	  ptr += 8;
 226:..\u8g2-master\csrc/u8x8_d_ssd1326.c **** 	  x += 4;
 227:..\u8g2-master\csrc/u8x8_d_ssd1326.c **** 	  c--;
 228:..\u8g2-master\csrc/u8x8_d_ssd1326.c **** 	} while( c > 0 );
 229:..\u8g2-master\csrc/u8x8_d_ssd1326.c **** 	
 230:..\u8g2-master\csrc/u8x8_d_ssd1326.c **** 	//x += 4;
 231:..\u8g2-master\csrc/u8x8_d_ssd1326.c **** 	arg_int--;
 232:..\u8g2-master\csrc/u8x8_d_ssd1326.c ****       } while( arg_int > 0 );
 233:..\u8g2-master\csrc/u8x8_d_ssd1326.c ****       
 234:..\u8g2-master\csrc/u8x8_d_ssd1326.c ****       u8x8_cad_EndTransfer(u8x8);
 235:..\u8g2-master\csrc/u8x8_d_ssd1326.c ****       break;
 236:..\u8g2-master\csrc/u8x8_d_ssd1326.c ****     default:
 237:..\u8g2-master\csrc/u8x8_d_ssd1326.c ****       return 0;
 238:..\u8g2-master\csrc/u8x8_d_ssd1326.c ****   }
 239:..\u8g2-master\csrc/u8x8_d_ssd1326.c ****   return 1;
 240:..\u8g2-master\csrc/u8x8_d_ssd1326.c **** }
 241:..\u8g2-master\csrc/u8x8_d_ssd1326.c **** 
 242:..\u8g2-master\csrc/u8x8_d_ssd1326.c **** 
 243:..\u8g2-master\csrc/u8x8_d_ssd1326.c **** static const u8x8_display_info_t u8x8_ssd1326_256x32_display_info =
 244:..\u8g2-master\csrc/u8x8_d_ssd1326.c **** {
 245:..\u8g2-master\csrc/u8x8_d_ssd1326.c ****   /* chip_enable_level = */ 0,
 246:..\u8g2-master\csrc/u8x8_d_ssd1326.c ****   /* chip_disable_level = */ 1,
 247:..\u8g2-master\csrc/u8x8_d_ssd1326.c ****   
 248:..\u8g2-master\csrc/u8x8_d_ssd1326.c ****   /* post_chip_enable_wait_ns = */ 20,
 249:..\u8g2-master\csrc/u8x8_d_ssd1326.c ****   /* pre_chip_disable_wait_ns = */ 15,
 250:..\u8g2-master\csrc/u8x8_d_ssd1326.c ****   /* reset_pulse_width_ms = */ 100, 	
 251:..\u8g2-master\csrc/u8x8_d_ssd1326.c ****   /* post_reset_wait_ms = */ 100, 		/**/
 252:..\u8g2-master\csrc/u8x8_d_ssd1326.c ****   /* sda_setup_time_ns = */ 100,		/* ssd1326  */
 253:..\u8g2-master\csrc/u8x8_d_ssd1326.c ****   /* sck_pulse_width_ns = */ 100,	/* ssd1326  */
 254:..\u8g2-master\csrc/u8x8_d_ssd1326.c ****   /* sck_clock_hz = */ 4000000UL,	/* since Arduino 1.6.0, the SPI bus speed in Hz. Should be  10000
 255:..\u8g2-master\csrc/u8x8_d_ssd1326.c ****   /* spi_mode = */ 0,		/* active high, rising edge */
 256:..\u8g2-master\csrc/u8x8_d_ssd1326.c ****   /* i2c_bus_clock_100kHz = */ 4,
 257:..\u8g2-master\csrc/u8x8_d_ssd1326.c ****   /* data_setup_time_ns = */ 40,
 258:..\u8g2-master\csrc/u8x8_d_ssd1326.c ****   /* write_pulse_width_ns = */ 60,	/* ssd1326 */
ARM GAS  C:\Users\info\AppData\Local\Temp\ccNAmLH1.s 			page 6


 259:..\u8g2-master\csrc/u8x8_d_ssd1326.c ****   /* tile_width = */ 32,
 260:..\u8g2-master\csrc/u8x8_d_ssd1326.c ****   /* tile_hight = */ 4,
 261:..\u8g2-master\csrc/u8x8_d_ssd1326.c ****   /* default_x_offset = */ 0,		/* x_offset is used as y offset for the ssd1326 */
 262:..\u8g2-master\csrc/u8x8_d_ssd1326.c ****   /* flipmode_x_offset = */ 0,		/* x_offset is used as y offset for the ssd1326 */
 263:..\u8g2-master\csrc/u8x8_d_ssd1326.c ****   /* pixel_width = */ 256,
 264:..\u8g2-master\csrc/u8x8_d_ssd1326.c ****   /* pixel_height = */ 32
 265:..\u8g2-master\csrc/u8x8_d_ssd1326.c **** };
 266:..\u8g2-master\csrc/u8x8_d_ssd1326.c **** 
 267:..\u8g2-master\csrc/u8x8_d_ssd1326.c **** uint8_t u8x8_d_ssd1326_er_256x32(u8x8_t *u8x8, uint8_t msg, uint8_t arg_int, void *arg_ptr)
 268:..\u8g2-master\csrc/u8x8_d_ssd1326.c **** {
  28              		.loc 1 268 0
  29              		.cfi_startproc
  30              		@ args = 0, pretend = 0, frame = 32
  31              		@ frame_needed = 0, uses_anonymous_args = 0
  32              	.LVL0:
  33 0000 2DE9F04F 		push	{r4, r5, r6, r7, r8, r9, r10, fp, lr}
  34              		.cfi_def_cfa_offset 36
  35              		.cfi_offset 4, -36
  36              		.cfi_offset 5, -32
  37              		.cfi_offset 6, -28
  38              		.cfi_offset 7, -24
  39              		.cfi_offset 8, -20
  40              		.cfi_offset 9, -16
  41              		.cfi_offset 10, -12
  42              		.cfi_offset 11, -8
  43              		.cfi_offset 14, -4
 269:..\u8g2-master\csrc/u8x8_d_ssd1326.c ****     if ( msg == U8X8_MSG_DISPLAY_SETUP_MEMORY )
  44              		.loc 1 269 0
  45 0004 0929     		cmp	r1, #9
 268:..\u8g2-master\csrc/u8x8_d_ssd1326.c ****     if ( msg == U8X8_MSG_DISPLAY_SETUP_MEMORY )
  46              		.loc 1 268 0
  47 0006 89B0     		sub	sp, sp, #36
  48              		.cfi_def_cfa_offset 72
 268:..\u8g2-master\csrc/u8x8_d_ssd1326.c ****     if ( msg == U8X8_MSG_DISPLAY_SETUP_MEMORY )
  49              		.loc 1 268 0
  50 0008 0492     		str	r2, [sp, #16]
  51 000a 0793     		str	r3, [sp, #28]
  52              		.loc 1 269 0
  53 000c 0CD0     		beq	.L19
  54              	.LBB6:
  55              	.LBB7:
 160:..\u8g2-master\csrc/u8x8_d_ssd1326.c ****   {
  56              		.loc 1 160 0
  57 000e 0A39     		subs	r1, r1, #10
  58              	.LVL1:
  59 0010 0646     		mov	r6, r0
  60              	.LVL2:
  61 0012 0529     		cmp	r1, #5
  62 0014 00F2F982 		bhi	.L14
  63 0018 DFE811F0 		tbh	[pc, r1, lsl #1]
  64              	.LVL3:
  65              	.L5:
  66 001c C602     		.2byte	(.L4-.L5)/2
  67 001e D002     		.2byte	(.L6-.L5)/2
  68 0020 F702     		.2byte	(.L14-.L5)/2
  69 0022 D902     		.2byte	(.L7-.L5)/2
  70 0024 E602     		.2byte	(.L8-.L5)/2
ARM GAS  C:\Users\info\AppData\Local\Temp\ccNAmLH1.s 			page 7


  71 0026 1000     		.2byte	(.L9-.L5)/2
  72              		.p2align 1
  73              	.L19:
  74              	.LBE7:
  75              	.LBE6:
 270:..\u8g2-master\csrc/u8x8_d_ssd1326.c ****     {
 271:..\u8g2-master\csrc/u8x8_d_ssd1326.c ****       u8x8_d_helper_display_setup_memory(u8x8, &u8x8_ssd1326_256x32_display_info);
  76              		.loc 1 271 0
  77 0028 0349     		ldr	r1, .L20
  78              	.LVL4:
  79 002a FFF7FEFF 		bl	u8x8_d_helper_display_setup_memory
  80              	.LVL5:
 272:..\u8g2-master\csrc/u8x8_d_ssd1326.c ****       return 1;
  81              		.loc 1 272 0
  82 002e 0120     		movs	r0, #1
 273:..\u8g2-master\csrc/u8x8_d_ssd1326.c ****     }
 274:..\u8g2-master\csrc/u8x8_d_ssd1326.c ****     return u8x8_d_ssd1326_256x32_generic(u8x8, msg, arg_int, arg_ptr);
 275:..\u8g2-master\csrc/u8x8_d_ssd1326.c **** }
  83              		.loc 1 275 0
  84 0030 09B0     		add	sp, sp, #36
  85              		.cfi_remember_state
  86              		.cfi_def_cfa_offset 36
  87              		@ sp needed
  88 0032 BDE8F08F 		pop	{r4, r5, r6, r7, r8, r9, r10, fp, pc}
  89              	.LVL6:
  90              	.L21:
  91 0036 00BF     		.align	2
  92              	.L20:
  93 0038 00000000 		.word	.LANCHOR0
  94              	.LVL7:
  95              	.L9:
  96              		.cfi_restore_state
  97              	.LBB22:
  98              	.LBB14:
 198:..\u8g2-master\csrc/u8x8_d_ssd1326.c ****       x = ((u8x8_tile_t *)arg_ptr)->x_pos;
  99              		.loc 1 198 0
 100 003c FFF7FEFF 		bl	u8x8_cad_StartTransfer
 101              	.LVL8:
 202:..\u8g2-master\csrc/u8x8_d_ssd1326.c ****       
 102              		.loc 1 202 0
 103 0040 0798     		ldr	r0, [sp, #28]
 205:..\u8g2-master\csrc/u8x8_d_ssd1326.c ****     
 104              		.loc 1 205 0
 105 0042 96F82220 		ldrb	r2, [r6, #34]	@ zero_extendqisi2
 202:..\u8g2-master\csrc/u8x8_d_ssd1326.c ****       
 106              		.loc 1 202 0
 107 0046 8179     		ldrb	r1, [r0, #6]	@ zero_extendqisi2
 199:..\u8g2-master\csrc/u8x8_d_ssd1326.c ****       x *= 4;
 108              		.loc 1 199 0
 109 0048 4379     		ldrb	r3, [r0, #5]	@ zero_extendqisi2
 110              	.LVL9:
 205:..\u8g2-master\csrc/u8x8_d_ssd1326.c ****     
 111              		.loc 1 205 0
 112 004a 02EBC102 		add	r2, r2, r1, lsl #3
 113 004e 02F0FF02 		and	r2, r2, #255
 114 0052 0292     		str	r2, [sp, #8]
 200:..\u8g2-master\csrc/u8x8_d_ssd1326.c ****       
ARM GAS  C:\Users\info\AppData\Local\Temp\ccNAmLH1.s 			page 8


 115              		.loc 1 200 0
 116 0054 9B00     		lsls	r3, r3, #2
 117              	.LVL10:
 118 0056 0732     		adds	r2, r2, #7
 119 0058 D2B2     		uxtb	r2, r2
 120 005a DBB2     		uxtb	r3, r3
 121 005c 074D     		ldr	r5, .L22
 122 005e 0392     		str	r2, [sp, #12]
 123 0060 0593     		str	r3, [sp, #20]
 124              	.LVL11:
 125              	.L13:
 210:..\u8g2-master\csrc/u8x8_d_ssd1326.c **** 	ptr = ((u8x8_tile_t *)arg_ptr)->tile_ptr;
 126              		.loc 1 210 0
 127 0062 079A     		ldr	r2, [sp, #28]
 211:..\u8g2-master\csrc/u8x8_d_ssd1326.c **** 
 128              		.loc 1 211 0
 129 0064 059C     		ldr	r4, [sp, #20]
 210:..\u8g2-master\csrc/u8x8_d_ssd1326.c **** 	ptr = ((u8x8_tile_t *)arg_ptr)->tile_ptr;
 130              		.loc 1 210 0
 131 0066 1379     		ldrb	r3, [r2, #4]	@ zero_extendqisi2
 211:..\u8g2-master\csrc/u8x8_d_ssd1326.c **** 
 132              		.loc 1 211 0
 133 0068 1768     		ldr	r7, [r2]
 210:..\u8g2-master\csrc/u8x8_d_ssd1326.c **** 	ptr = ((u8x8_tile_t *)arg_ptr)->tile_ptr;
 134              		.loc 1 210 0
 135 006a 0693     		str	r3, [sp, #24]
 136              	.LVL12:
 137 006c 013B     		subs	r3, r3, #1
 138              	.LVL13:
 139 006e DBB2     		uxtb	r3, r3
 140 0070 0233     		adds	r3, r3, #2
 141 0072 07EBC303 		add	r3, r7, r3, lsl #3
 142 0076 0193     		str	r3, [sp, #4]
 143 0078 0837     		adds	r7, r7, #8
 144 007a 01E0     		b	.L23
 145              	.L24:
 146              		.align	2
 147              	.L22:
 148 007c 00000000 		.word	.LANCHOR1
 149              	.L23:
 150              	.LVL14:
 151              	.L12:
 215:..\u8g2-master\csrc/u8x8_d_ssd1326.c ****           u8x8_cad_SendArg(u8x8, x );	/* start */
 152              		.loc 1 215 0
 153 0080 1521     		movs	r1, #21
 154 0082 3046     		mov	r0, r6
 155 0084 FFF7FEFF 		bl	u8x8_cad_SendCmd
 156              	.LVL15:
 216:..\u8g2-master\csrc/u8x8_d_ssd1326.c ****           u8x8_cad_SendArg(u8x8, x+3 );	/* end */
 157              		.loc 1 216 0
 158 0088 2146     		mov	r1, r4
 159 008a 3046     		mov	r0, r6
 160 008c FFF7FEFF 		bl	u8x8_cad_SendArg
 161              	.LVL16:
 217:..\u8g2-master\csrc/u8x8_d_ssd1326.c **** 
 162              		.loc 1 217 0
 163 0090 E11C     		adds	r1, r4, #3
ARM GAS  C:\Users\info\AppData\Local\Temp\ccNAmLH1.s 			page 9


 164 0092 C9B2     		uxtb	r1, r1
 165 0094 3046     		mov	r0, r6
 166 0096 FFF7FEFF 		bl	u8x8_cad_SendArg
 167              	.LVL17:
 219:..\u8g2-master\csrc/u8x8_d_ssd1326.c ****           u8x8_cad_SendArg(u8x8, y);
 168              		.loc 1 219 0
 169 009a 7521     		movs	r1, #117
 170 009c 3046     		mov	r0, r6
 171 009e FFF7FEFF 		bl	u8x8_cad_SendCmd
 172              	.LVL18:
 220:..\u8g2-master\csrc/u8x8_d_ssd1326.c ****           u8x8_cad_SendArg(u8x8, y+7);
 173              		.loc 1 220 0
 174 00a2 0299     		ldr	r1, [sp, #8]
 175 00a4 3046     		mov	r0, r6
 176 00a6 FFF7FEFF 		bl	u8x8_cad_SendArg
 177              	.LVL19:
 221:..\u8g2-master\csrc/u8x8_d_ssd1326.c ****           
 178              		.loc 1 221 0
 179 00aa 0399     		ldr	r1, [sp, #12]
 180 00ac 3046     		mov	r0, r6
 181 00ae FFF7FEFF 		bl	u8x8_cad_SendArg
 182              	.LVL20:
 183              	.LBB8:
 184              	.LBB9:
 134:..\u8g2-master\csrc/u8x8_d_ssd1326.c ****     ptr++;
 185              		.loc 1 134 0
 186 00b2 17F8083C 		ldrb	r3, [r7, #-8]	@ zero_extendqisi2
 136:..\u8g2-master\csrc/u8x8_d_ssd1326.c ****     ptr++;
 187              		.loc 1 136 0
 188 00b6 17F8072C 		ldrb	r2, [r7, #-7]	@ zero_extendqisi2
 189 00ba 03F00101 		and	r1, r3, #1
 190 00be 0029     		cmp	r1, #0
 145:..\u8g2-master\csrc/u8x8_d_ssd1326.c ****       b >>= 1;
 191              		.loc 1 145 0
 192 00c0 4FEA5303 		lsr	r3, r3, #1
 193 00c4 15BF     		itete	ne
 194 00c6 F020     		movne	r0, #240
 195 00c8 0020     		moveq	r0, #0
 143:..\u8g2-master\csrc/u8x8_d_ssd1326.c ****       dest+=4;
 196              		.loc 1 143 0
 197 00ca 4FF0FF3A 		movne	r10, #-1
 198 00ce 4FF00F0A 		moveq	r10, #15
 199 00d2 03F00101 		and	r1, r3, #1
 200 00d6 12F0010F 		tst	r2, #1
 201 00da 08BF     		it	eq
 202 00dc 8246     		moveq	r10, r0
 146:..\u8g2-master\csrc/u8x8_d_ssd1326.c ****     }
 203              		.loc 1 146 0
 204 00de 5208     		lsrs	r2, r2, #1
 205 00e0 0029     		cmp	r1, #0
 143:..\u8g2-master\csrc/u8x8_d_ssd1326.c ****       dest+=4;
 206              		.loc 1 143 0
 207 00e2 15BF     		itete	ne
 208 00e4 4FF0FF39 		movne	r9, #-1
 209 00e8 4FF00F09 		moveq	r9, #15
 210 00ec F021     		movne	r1, #240
 211 00ee 0021     		moveq	r1, #0
ARM GAS  C:\Users\info\AppData\Local\Temp\ccNAmLH1.s 			page 10


 145:..\u8g2-master\csrc/u8x8_d_ssd1326.c ****       b >>= 1;
 212              		.loc 1 145 0
 213 00f0 5B08     		lsrs	r3, r3, #1
 143:..\u8g2-master\csrc/u8x8_d_ssd1326.c ****       dest+=4;
 214              		.loc 1 143 0
 215 00f2 12F0010F 		tst	r2, #1
 216 00f6 08BF     		it	eq
 217 00f8 8946     		moveq	r9, r1
 218 00fa 03F00101 		and	r1, r3, #1
 219 00fe 0029     		cmp	r1, #0
 146:..\u8g2-master\csrc/u8x8_d_ssd1326.c ****     }
 220              		.loc 1 146 0
 221 0100 4FEA5202 		lsr	r2, r2, #1
 222 0104 15BF     		itete	ne
 223 0106 4FF0F008 		movne	r8, #240
 224 010a 4FF00008 		moveq	r8, #0
 143:..\u8g2-master\csrc/u8x8_d_ssd1326.c ****       dest+=4;
 225              		.loc 1 143 0
 226 010e 4FF0FF31 		movne	r1, #-1
 227 0112 0F21     		moveq	r1, #15
 145:..\u8g2-master\csrc/u8x8_d_ssd1326.c ****       b >>= 1;
 228              		.loc 1 145 0
 229 0114 5B08     		lsrs	r3, r3, #1
 143:..\u8g2-master\csrc/u8x8_d_ssd1326.c ****       dest+=4;
 230              		.loc 1 143 0
 231 0116 12F0010F 		tst	r2, #1
 232 011a 18BF     		it	ne
 233 011c 8846     		movne	r8, r1
 234 011e 03F00101 		and	r1, r3, #1
 235 0122 0029     		cmp	r1, #0
 146:..\u8g2-master\csrc/u8x8_d_ssd1326.c ****     }
 236              		.loc 1 146 0
 237 0124 4FEA5202 		lsr	r2, r2, #1
 238 0128 15BF     		itete	ne
 239 012a 4FF0F00C 		movne	ip, #240
 240 012e 4FF0000C 		moveq	ip, #0
 143:..\u8g2-master\csrc/u8x8_d_ssd1326.c ****       dest+=4;
 241              		.loc 1 143 0
 242 0132 4FF0FF31 		movne	r1, #-1
 243 0136 0F21     		moveq	r1, #15
 145:..\u8g2-master\csrc/u8x8_d_ssd1326.c ****       b >>= 1;
 244              		.loc 1 145 0
 245 0138 5B08     		lsrs	r3, r3, #1
 143:..\u8g2-master\csrc/u8x8_d_ssd1326.c ****       dest+=4;
 246              		.loc 1 143 0
 247 013a 12F0010F 		tst	r2, #1
 248 013e 18BF     		it	ne
 249 0140 8C46     		movne	ip, r1
 250 0142 03F00101 		and	r1, r3, #1
 251 0146 0029     		cmp	r1, #0
 146:..\u8g2-master\csrc/u8x8_d_ssd1326.c ****     }
 252              		.loc 1 146 0
 253 0148 4FEA5202 		lsr	r2, r2, #1
 143:..\u8g2-master\csrc/u8x8_d_ssd1326.c ****       dest+=4;
 254              		.loc 1 143 0
 255 014c 15BF     		itete	ne
 256 014e 4FF0FF3E 		movne	lr, #-1
ARM GAS  C:\Users\info\AppData\Local\Temp\ccNAmLH1.s 			page 11


 257 0152 4FF00F0E 		moveq	lr, #15
 258 0156 F021     		movne	r1, #240
 259 0158 0021     		moveq	r1, #0
 145:..\u8g2-master\csrc/u8x8_d_ssd1326.c ****       b >>= 1;
 260              		.loc 1 145 0
 261 015a 5B08     		lsrs	r3, r3, #1
 143:..\u8g2-master\csrc/u8x8_d_ssd1326.c ****       dest+=4;
 262              		.loc 1 143 0
 263 015c 12F0010F 		tst	r2, #1
 264 0160 08BF     		it	eq
 265 0162 8E46     		moveq	lr, r1
 266 0164 03F00101 		and	r1, r3, #1
 267 0168 0029     		cmp	r1, #0
 146:..\u8g2-master\csrc/u8x8_d_ssd1326.c ****     }
 268              		.loc 1 146 0
 269 016a 4FEA5202 		lsr	r2, r2, #1
 143:..\u8g2-master\csrc/u8x8_d_ssd1326.c ****       dest+=4;
 270              		.loc 1 143 0
 271 016e 15BF     		itete	ne
 272 0170 4FF0FF30 		movne	r0, #-1
 273 0174 0F20     		moveq	r0, #15
 274 0176 F021     		movne	r1, #240
 275 0178 0021     		moveq	r1, #0
 145:..\u8g2-master\csrc/u8x8_d_ssd1326.c ****       b >>= 1;
 276              		.loc 1 145 0
 277 017a 5B08     		lsrs	r3, r3, #1
 143:..\u8g2-master\csrc/u8x8_d_ssd1326.c ****       dest+=4;
 278              		.loc 1 143 0
 279 017c 12F0010F 		tst	r2, #1
 280 0180 08BF     		it	eq
 281 0182 0846     		moveq	r0, r1
 282 0184 03F00101 		and	r1, r3, #1
 283 0188 0029     		cmp	r1, #0
 146:..\u8g2-master\csrc/u8x8_d_ssd1326.c ****     }
 284              		.loc 1 146 0
 285 018a 4FEA5202 		lsr	r2, r2, #1
 286 018e 14BF     		ite	ne
 287 0190 4FF0F00B 		movne	fp, #240
 288 0194 4FF0000B 		moveq	fp, #0
 145:..\u8g2-master\csrc/u8x8_d_ssd1326.c ****       b >>= 1;
 289              		.loc 1 145 0
 290 0198 4FEA5303 		lsr	r3, r3, #1
 143:..\u8g2-master\csrc/u8x8_d_ssd1326.c ****       dest+=4;
 291              		.loc 1 143 0
 292 019c 14BF     		ite	ne
 293 019e 4FF0FF31 		movne	r1, #-1
 294 01a2 0F21     		moveq	r1, #15
 295 01a4 12F0010F 		tst	r2, #1
 296 01a8 08BF     		it	eq
 297 01aa 5946     		moveq	r1, fp
 298 01ac 002B     		cmp	r3, #0
 299 01ae 15BF     		itete	ne
 300 01b0 4FF0F00B 		movne	fp, #240
 301 01b4 4FF0000B 		moveq	fp, #0
 302 01b8 4FF0FF33 		movne	r3, #-1
 303 01bc 0F23     		moveq	r3, #15
 304 01be 5208     		lsrs	r2, r2, #1
ARM GAS  C:\Users\info\AppData\Local\Temp\ccNAmLH1.s 			page 12


 305 01c0 08BF     		it	eq
 306 01c2 5B46     		moveq	r3, fp
 307 01c4 2875     		strb	r0, [r5, #20]
 308 01c6 85F80CC0 		strb	ip, [r5, #12]
 309 01ca 85F800A0 		strb	r10, [r5]
 310 01ce 85F80490 		strb	r9, [r5, #4]
 311 01d2 85F80880 		strb	r8, [r5, #8]
 312 01d6 85F810E0 		strb	lr, [r5, #16]
 313 01da 2976     		strb	r1, [r5, #24]
 314              	.LVL21:
 315 01dc 2B77     		strb	r3, [r5, #28]
 316              	.LVL22:
 134:..\u8g2-master\csrc/u8x8_d_ssd1326.c ****     ptr++;
 317              		.loc 1 134 0
 318 01de 17F8063C 		ldrb	r3, [r7, #-6]	@ zero_extendqisi2
 319              	.LVL23:
 136:..\u8g2-master\csrc/u8x8_d_ssd1326.c ****     ptr++;
 320              		.loc 1 136 0
 321 01e2 17F8052C 		ldrb	r2, [r7, #-5]	@ zero_extendqisi2
 322              	.LVL24:
 323 01e6 03F00101 		and	r1, r3, #1
 324 01ea 0029     		cmp	r1, #0
 145:..\u8g2-master\csrc/u8x8_d_ssd1326.c ****       b >>= 1;
 325              		.loc 1 145 0
 326 01ec 4FEA5303 		lsr	r3, r3, #1
 143:..\u8g2-master\csrc/u8x8_d_ssd1326.c ****       dest+=4;
 327              		.loc 1 143 0
 328 01f0 15BF     		itete	ne
 329 01f2 4FF0FF30 		movne	r0, #-1
 330 01f6 0F20     		moveq	r0, #15
 331 01f8 4FF0F00A 		movne	r10, #240
 332 01fc 4FF0000A 		moveq	r10, #0
 333 0200 03F00101 		and	r1, r3, #1
 334 0204 12F0010F 		tst	r2, #1
 335 0208 18BF     		it	ne
 336 020a 8246     		movne	r10, r0
 146:..\u8g2-master\csrc/u8x8_d_ssd1326.c ****     }
 337              		.loc 1 146 0
 338 020c 5208     		lsrs	r2, r2, #1
 339 020e 0029     		cmp	r1, #0
 340 0210 15BF     		itete	ne
 341 0212 4FF0F009 		movne	r9, #240
 342 0216 4FF00009 		moveq	r9, #0
 143:..\u8g2-master\csrc/u8x8_d_ssd1326.c ****       dest+=4;
 343              		.loc 1 143 0
 344 021a 4FF0FF31 		movne	r1, #-1
 345 021e 0F21     		moveq	r1, #15
 145:..\u8g2-master\csrc/u8x8_d_ssd1326.c ****       b >>= 1;
 346              		.loc 1 145 0
 347 0220 5B08     		lsrs	r3, r3, #1
 143:..\u8g2-master\csrc/u8x8_d_ssd1326.c ****       dest+=4;
 348              		.loc 1 143 0
 349 0222 12F0010F 		tst	r2, #1
 350 0226 18BF     		it	ne
 351 0228 8946     		movne	r9, r1
 352 022a 03F00101 		and	r1, r3, #1
 353 022e 0029     		cmp	r1, #0
ARM GAS  C:\Users\info\AppData\Local\Temp\ccNAmLH1.s 			page 13


 146:..\u8g2-master\csrc/u8x8_d_ssd1326.c ****     }
 354              		.loc 1 146 0
 355 0230 4FEA5202 		lsr	r2, r2, #1
 356 0234 15BF     		itete	ne
 357 0236 4FF0F008 		movne	r8, #240
 358 023a 4FF00008 		moveq	r8, #0
 143:..\u8g2-master\csrc/u8x8_d_ssd1326.c ****       dest+=4;
 359              		.loc 1 143 0
 360 023e 4FF0FF31 		movne	r1, #-1
 361 0242 0F21     		moveq	r1, #15
 145:..\u8g2-master\csrc/u8x8_d_ssd1326.c ****       b >>= 1;
 362              		.loc 1 145 0
 363 0244 5B08     		lsrs	r3, r3, #1
 143:..\u8g2-master\csrc/u8x8_d_ssd1326.c ****       dest+=4;
 364              		.loc 1 143 0
 365 0246 12F0010F 		tst	r2, #1
 366 024a 18BF     		it	ne
 367 024c 8846     		movne	r8, r1
 368 024e 03F00101 		and	r1, r3, #1
 369 0252 0029     		cmp	r1, #0
 146:..\u8g2-master\csrc/u8x8_d_ssd1326.c ****     }
 370              		.loc 1 146 0
 371 0254 4FEA5202 		lsr	r2, r2, #1
 372 0258 15BF     		itete	ne
 373 025a 4FF0F00C 		movne	ip, #240
 374 025e 4FF0000C 		moveq	ip, #0
 143:..\u8g2-master\csrc/u8x8_d_ssd1326.c ****       dest+=4;
 375              		.loc 1 143 0
 376 0262 4FF0FF31 		movne	r1, #-1
 377 0266 0F21     		moveq	r1, #15
 145:..\u8g2-master\csrc/u8x8_d_ssd1326.c ****       b >>= 1;
 378              		.loc 1 145 0
 379 0268 5B08     		lsrs	r3, r3, #1
 143:..\u8g2-master\csrc/u8x8_d_ssd1326.c ****       dest+=4;
 380              		.loc 1 143 0
 381 026a 12F0010F 		tst	r2, #1
 382 026e 18BF     		it	ne
 383 0270 8C46     		movne	ip, r1
 384 0272 03F00101 		and	r1, r3, #1
 385 0276 0029     		cmp	r1, #0
 146:..\u8g2-master\csrc/u8x8_d_ssd1326.c ****     }
 386              		.loc 1 146 0
 387 0278 4FEA5202 		lsr	r2, r2, #1
 388 027c 15BF     		itete	ne
 389 027e 4FF0F00E 		movne	lr, #240
 390 0282 4FF0000E 		moveq	lr, #0
 143:..\u8g2-master\csrc/u8x8_d_ssd1326.c ****       dest+=4;
 391              		.loc 1 143 0
 392 0286 4FF0FF31 		movne	r1, #-1
 393 028a 0F21     		moveq	r1, #15
 145:..\u8g2-master\csrc/u8x8_d_ssd1326.c ****       b >>= 1;
 394              		.loc 1 145 0
 395 028c 5B08     		lsrs	r3, r3, #1
 143:..\u8g2-master\csrc/u8x8_d_ssd1326.c ****       dest+=4;
 396              		.loc 1 143 0
 397 028e 12F0010F 		tst	r2, #1
 398 0292 18BF     		it	ne
ARM GAS  C:\Users\info\AppData\Local\Temp\ccNAmLH1.s 			page 14


 399 0294 8E46     		movne	lr, r1
 400 0296 03F00101 		and	r1, r3, #1
 401 029a 0029     		cmp	r1, #0
 146:..\u8g2-master\csrc/u8x8_d_ssd1326.c ****     }
 402              		.loc 1 146 0
 403 029c 4FEA5202 		lsr	r2, r2, #1
 404 02a0 15BF     		itete	ne
 405 02a2 F020     		movne	r0, #240
 406 02a4 0020     		moveq	r0, #0
 143:..\u8g2-master\csrc/u8x8_d_ssd1326.c ****       dest+=4;
 407              		.loc 1 143 0
 408 02a6 4FF0FF31 		movne	r1, #-1
 409 02aa 0F21     		moveq	r1, #15
 145:..\u8g2-master\csrc/u8x8_d_ssd1326.c ****       b >>= 1;
 410              		.loc 1 145 0
 411 02ac 5B08     		lsrs	r3, r3, #1
 143:..\u8g2-master\csrc/u8x8_d_ssd1326.c ****       dest+=4;
 412              		.loc 1 143 0
 413 02ae 12F0010F 		tst	r2, #1
 414 02b2 18BF     		it	ne
 415 02b4 0846     		movne	r0, r1
 416 02b6 03F00101 		and	r1, r3, #1
 417 02ba 0029     		cmp	r1, #0
 146:..\u8g2-master\csrc/u8x8_d_ssd1326.c ****     }
 418              		.loc 1 146 0
 419 02bc 4FEA5202 		lsr	r2, r2, #1
 420 02c0 14BF     		ite	ne
 421 02c2 4FF0F00B 		movne	fp, #240
 422 02c6 4FF0000B 		moveq	fp, #0
 145:..\u8g2-master\csrc/u8x8_d_ssd1326.c ****       b >>= 1;
 423              		.loc 1 145 0
 424 02ca 4FEA5303 		lsr	r3, r3, #1
 143:..\u8g2-master\csrc/u8x8_d_ssd1326.c ****       dest+=4;
 425              		.loc 1 143 0
 426 02ce 14BF     		ite	ne
 427 02d0 4FF0FF31 		movne	r1, #-1
 428 02d4 0F21     		moveq	r1, #15
 429 02d6 12F0010F 		tst	r2, #1
 430 02da 08BF     		it	eq
 431 02dc 5946     		moveq	r1, fp
 432 02de 002B     		cmp	r3, #0
 433 02e0 15BF     		itete	ne
 434 02e2 4FF0FF3B 		movne	fp, #-1
 435 02e6 4FF00F0B 		moveq	fp, #15
 436 02ea F023     		movne	r3, #240
 437 02ec 0023     		moveq	r3, #0
 438 02ee 5208     		lsrs	r2, r2, #1
 439 02f0 18BF     		it	ne
 440 02f2 5B46     		movne	r3, fp
 441 02f4 6875     		strb	r0, [r5, #21]
 442 02f6 85F80DC0 		strb	ip, [r5, #13]
 443 02fa 85F801A0 		strb	r10, [r5, #1]
 444 02fe 85F80590 		strb	r9, [r5, #5]
 445 0302 85F80980 		strb	r8, [r5, #9]
 446 0306 85F811E0 		strb	lr, [r5, #17]
 447 030a 6976     		strb	r1, [r5, #25]
 448 030c 6B77     		strb	r3, [r5, #29]
ARM GAS  C:\Users\info\AppData\Local\Temp\ccNAmLH1.s 			page 15


 449              	.LVL25:
 134:..\u8g2-master\csrc/u8x8_d_ssd1326.c ****     ptr++;
 450              		.loc 1 134 0
 451 030e 17F8043C 		ldrb	r3, [r7, #-4]	@ zero_extendqisi2
 452              	.LVL26:
 136:..\u8g2-master\csrc/u8x8_d_ssd1326.c ****     ptr++;
 453              		.loc 1 136 0
 454 0312 17F8032C 		ldrb	r2, [r7, #-3]	@ zero_extendqisi2
 455              	.LVL27:
 456 0316 03F00101 		and	r1, r3, #1
 457 031a 0029     		cmp	r1, #0
 145:..\u8g2-master\csrc/u8x8_d_ssd1326.c ****       b >>= 1;
 458              		.loc 1 145 0
 459 031c 4FEA5303 		lsr	r3, r3, #1
 143:..\u8g2-master\csrc/u8x8_d_ssd1326.c ****       dest+=4;
 460              		.loc 1 143 0
 461 0320 15BF     		itete	ne
 462 0322 4FF0FF30 		movne	r0, #-1
 463 0326 0F20     		moveq	r0, #15
 464 0328 4FF0F00A 		movne	r10, #240
 465 032c 4FF0000A 		moveq	r10, #0
 466 0330 03F00101 		and	r1, r3, #1
 467 0334 12F0010F 		tst	r2, #1
 468 0338 18BF     		it	ne
 469 033a 8246     		movne	r10, r0
 146:..\u8g2-master\csrc/u8x8_d_ssd1326.c ****     }
 470              		.loc 1 146 0
 471 033c 5208     		lsrs	r2, r2, #1
 472 033e 0029     		cmp	r1, #0
 473 0340 15BF     		itete	ne
 474 0342 4FF0F009 		movne	r9, #240
 475 0346 4FF00009 		moveq	r9, #0
 143:..\u8g2-master\csrc/u8x8_d_ssd1326.c ****       dest+=4;
 476              		.loc 1 143 0
 477 034a 4FF0FF31 		movne	r1, #-1
 478 034e 0F21     		moveq	r1, #15
 145:..\u8g2-master\csrc/u8x8_d_ssd1326.c ****       b >>= 1;
 479              		.loc 1 145 0
 480 0350 5B08     		lsrs	r3, r3, #1
 143:..\u8g2-master\csrc/u8x8_d_ssd1326.c ****       dest+=4;
 481              		.loc 1 143 0
 482 0352 12F0010F 		tst	r2, #1
 483 0356 18BF     		it	ne
 484 0358 8946     		movne	r9, r1
 485 035a 03F00101 		and	r1, r3, #1
 486 035e 0029     		cmp	r1, #0
 146:..\u8g2-master\csrc/u8x8_d_ssd1326.c ****     }
 487              		.loc 1 146 0
 488 0360 4FEA5202 		lsr	r2, r2, #1
 489 0364 15BF     		itete	ne
 490 0366 4FF0F008 		movne	r8, #240
 491 036a 4FF00008 		moveq	r8, #0
 143:..\u8g2-master\csrc/u8x8_d_ssd1326.c ****       dest+=4;
 492              		.loc 1 143 0
 493 036e 4FF0FF31 		movne	r1, #-1
 494 0372 0F21     		moveq	r1, #15
 145:..\u8g2-master\csrc/u8x8_d_ssd1326.c ****       b >>= 1;
ARM GAS  C:\Users\info\AppData\Local\Temp\ccNAmLH1.s 			page 16


 495              		.loc 1 145 0
 496 0374 5B08     		lsrs	r3, r3, #1
 143:..\u8g2-master\csrc/u8x8_d_ssd1326.c ****       dest+=4;
 497              		.loc 1 143 0
 498 0376 12F0010F 		tst	r2, #1
 499 037a 18BF     		it	ne
 500 037c 8846     		movne	r8, r1
 501 037e 03F00101 		and	r1, r3, #1
 502 0382 0029     		cmp	r1, #0
 146:..\u8g2-master\csrc/u8x8_d_ssd1326.c ****     }
 503              		.loc 1 146 0
 504 0384 4FEA5202 		lsr	r2, r2, #1
 505 0388 15BF     		itete	ne
 506 038a 4FF0F00C 		movne	ip, #240
 507 038e 4FF0000C 		moveq	ip, #0
 143:..\u8g2-master\csrc/u8x8_d_ssd1326.c ****       dest+=4;
 508              		.loc 1 143 0
 509 0392 4FF0FF31 		movne	r1, #-1
 510 0396 0F21     		moveq	r1, #15
 145:..\u8g2-master\csrc/u8x8_d_ssd1326.c ****       b >>= 1;
 511              		.loc 1 145 0
 512 0398 5B08     		lsrs	r3, r3, #1
 143:..\u8g2-master\csrc/u8x8_d_ssd1326.c ****       dest+=4;
 513              		.loc 1 143 0
 514 039a 12F0010F 		tst	r2, #1
 515 039e 18BF     		it	ne
 516 03a0 8C46     		movne	ip, r1
 517 03a2 03F00101 		and	r1, r3, #1
 518 03a6 0029     		cmp	r1, #0
 146:..\u8g2-master\csrc/u8x8_d_ssd1326.c ****     }
 519              		.loc 1 146 0
 520 03a8 4FEA5202 		lsr	r2, r2, #1
 521 03ac 15BF     		itete	ne
 522 03ae 4FF0F00E 		movne	lr, #240
 523 03b2 4FF0000E 		moveq	lr, #0
 143:..\u8g2-master\csrc/u8x8_d_ssd1326.c ****       dest+=4;
 524              		.loc 1 143 0
 525 03b6 4FF0FF31 		movne	r1, #-1
 526 03ba 0F21     		moveq	r1, #15
 145:..\u8g2-master\csrc/u8x8_d_ssd1326.c ****       b >>= 1;
 527              		.loc 1 145 0
 528 03bc 5B08     		lsrs	r3, r3, #1
 143:..\u8g2-master\csrc/u8x8_d_ssd1326.c ****       dest+=4;
 529              		.loc 1 143 0
 530 03be 12F0010F 		tst	r2, #1
 531 03c2 18BF     		it	ne
 532 03c4 8E46     		movne	lr, r1
 533 03c6 03F00101 		and	r1, r3, #1
 534 03ca 0029     		cmp	r1, #0
 146:..\u8g2-master\csrc/u8x8_d_ssd1326.c ****     }
 535              		.loc 1 146 0
 536 03cc 4FEA5202 		lsr	r2, r2, #1
 537 03d0 15BF     		itete	ne
 538 03d2 F020     		movne	r0, #240
 539 03d4 0020     		moveq	r0, #0
 143:..\u8g2-master\csrc/u8x8_d_ssd1326.c ****       dest+=4;
 540              		.loc 1 143 0
ARM GAS  C:\Users\info\AppData\Local\Temp\ccNAmLH1.s 			page 17


 541 03d6 4FF0FF31 		movne	r1, #-1
 542 03da 0F21     		moveq	r1, #15
 145:..\u8g2-master\csrc/u8x8_d_ssd1326.c ****       b >>= 1;
 543              		.loc 1 145 0
 544 03dc 5B08     		lsrs	r3, r3, #1
 143:..\u8g2-master\csrc/u8x8_d_ssd1326.c ****       dest+=4;
 545              		.loc 1 143 0
 546 03de 12F0010F 		tst	r2, #1
 547 03e2 18BF     		it	ne
 548 03e4 0846     		movne	r0, r1
 549 03e6 03F00101 		and	r1, r3, #1
 550 03ea 0029     		cmp	r1, #0
 146:..\u8g2-master\csrc/u8x8_d_ssd1326.c ****     }
 551              		.loc 1 146 0
 552 03ec 4FEA5202 		lsr	r2, r2, #1
 553 03f0 14BF     		ite	ne
 554 03f2 4FF0F00B 		movne	fp, #240
 555 03f6 4FF0000B 		moveq	fp, #0
 145:..\u8g2-master\csrc/u8x8_d_ssd1326.c ****       b >>= 1;
 556              		.loc 1 145 0
 557 03fa 4FEA5303 		lsr	r3, r3, #1
 143:..\u8g2-master\csrc/u8x8_d_ssd1326.c ****       dest+=4;
 558              		.loc 1 143 0
 559 03fe 14BF     		ite	ne
 560 0400 4FF0FF31 		movne	r1, #-1
 561 0404 0F21     		moveq	r1, #15
 562 0406 12F0010F 		tst	r2, #1
 563 040a 08BF     		it	eq
 564 040c 5946     		moveq	r1, fp
 565 040e 002B     		cmp	r3, #0
 566 0410 15BF     		itete	ne
 567 0412 4FF0FF3B 		movne	fp, #-1
 568 0416 4FF00F0B 		moveq	fp, #15
 569 041a F023     		movne	r3, #240
 570 041c 0023     		moveq	r3, #0
 571 041e 5208     		lsrs	r2, r2, #1
 572 0420 18BF     		it	ne
 573 0422 5B46     		movne	r3, fp
 574 0424 A875     		strb	r0, [r5, #22]
 575 0426 85F80EC0 		strb	ip, [r5, #14]
 576 042a 85F802A0 		strb	r10, [r5, #2]
 577 042e 85F80690 		strb	r9, [r5, #6]
 578 0432 85F80A80 		strb	r8, [r5, #10]
 579 0436 85F812E0 		strb	lr, [r5, #18]
 580 043a A976     		strb	r1, [r5, #26]
 581 043c AB77     		strb	r3, [r5, #30]
 582              	.LVL28:
 134:..\u8g2-master\csrc/u8x8_d_ssd1326.c ****     ptr++;
 583              		.loc 1 134 0
 584 043e 17F8023C 		ldrb	r3, [r7, #-2]	@ zero_extendqisi2
 585              	.LVL29:
 136:..\u8g2-master\csrc/u8x8_d_ssd1326.c ****     ptr++;
 586              		.loc 1 136 0
 587 0442 17F8012C 		ldrb	r2, [r7, #-1]	@ zero_extendqisi2
 588              	.LVL30:
 589 0446 03F00101 		and	r1, r3, #1
 590 044a 0029     		cmp	r1, #0
ARM GAS  C:\Users\info\AppData\Local\Temp\ccNAmLH1.s 			page 18


 145:..\u8g2-master\csrc/u8x8_d_ssd1326.c ****       b >>= 1;
 591              		.loc 1 145 0
 592 044c 4FEA5303 		lsr	r3, r3, #1
 593 0450 03F00101 		and	r1, r3, #1
 143:..\u8g2-master\csrc/u8x8_d_ssd1326.c ****       dest+=4;
 594              		.loc 1 143 0
 595 0454 15BF     		itete	ne
 596 0456 4FF0FF30 		movne	r0, #-1
 597 045a 0F20     		moveq	r0, #15
 598 045c 4FF0F00A 		movne	r10, #240
 599 0460 4FF0000A 		moveq	r10, #0
 600 0464 12F0010F 		tst	r2, #1
 601 0468 18BF     		it	ne
 602 046a 8246     		movne	r10, r0
 146:..\u8g2-master\csrc/u8x8_d_ssd1326.c ****     }
 603              		.loc 1 146 0
 604 046c 5208     		lsrs	r2, r2, #1
 605 046e 0029     		cmp	r1, #0
 606 0470 15BF     		itete	ne
 607 0472 F021     		movne	r1, #240
 608 0474 0021     		moveq	r1, #0
 143:..\u8g2-master\csrc/u8x8_d_ssd1326.c ****       dest+=4;
 609              		.loc 1 143 0
 610 0476 4FF0FF39 		movne	r9, #-1
 611 047a 4FF00F09 		moveq	r9, #15
 145:..\u8g2-master\csrc/u8x8_d_ssd1326.c ****       b >>= 1;
 612              		.loc 1 145 0
 613 047e 5B08     		lsrs	r3, r3, #1
 143:..\u8g2-master\csrc/u8x8_d_ssd1326.c ****       dest+=4;
 614              		.loc 1 143 0
 615 0480 12F0010F 		tst	r2, #1
 616 0484 08BF     		it	eq
 617 0486 8946     		moveq	r9, r1
 618 0488 03F00101 		and	r1, r3, #1
 619 048c 0029     		cmp	r1, #0
 146:..\u8g2-master\csrc/u8x8_d_ssd1326.c ****     }
 620              		.loc 1 146 0
 621 048e 4FEA5202 		lsr	r2, r2, #1
 622 0492 15BF     		itete	ne
 623 0494 F021     		movne	r1, #240
 624 0496 0021     		moveq	r1, #0
 143:..\u8g2-master\csrc/u8x8_d_ssd1326.c ****       dest+=4;
 625              		.loc 1 143 0
 626 0498 4FF0FF38 		movne	r8, #-1
 627 049c 4FF00F08 		moveq	r8, #15
 145:..\u8g2-master\csrc/u8x8_d_ssd1326.c ****       b >>= 1;
 628              		.loc 1 145 0
 629 04a0 5B08     		lsrs	r3, r3, #1
 143:..\u8g2-master\csrc/u8x8_d_ssd1326.c ****       dest+=4;
 630              		.loc 1 143 0
 631 04a2 12F0010F 		tst	r2, #1
 632 04a6 08BF     		it	eq
 633 04a8 8846     		moveq	r8, r1
 634 04aa 03F00101 		and	r1, r3, #1
 635 04ae 0029     		cmp	r1, #0
 146:..\u8g2-master\csrc/u8x8_d_ssd1326.c ****     }
 636              		.loc 1 146 0
ARM GAS  C:\Users\info\AppData\Local\Temp\ccNAmLH1.s 			page 19


 637 04b0 4FEA5202 		lsr	r2, r2, #1
 143:..\u8g2-master\csrc/u8x8_d_ssd1326.c ****       dest+=4;
 638              		.loc 1 143 0
 639 04b4 15BF     		itete	ne
 640 04b6 4FF0FF3C 		movne	ip, #-1
 641 04ba 4FF00F0C 		moveq	ip, #15
 642 04be F021     		movne	r1, #240
 643 04c0 0021     		moveq	r1, #0
 145:..\u8g2-master\csrc/u8x8_d_ssd1326.c ****       b >>= 1;
 644              		.loc 1 145 0
 645 04c2 5B08     		lsrs	r3, r3, #1
 143:..\u8g2-master\csrc/u8x8_d_ssd1326.c ****       dest+=4;
 646              		.loc 1 143 0
 647 04c4 12F0010F 		tst	r2, #1
 648 04c8 08BF     		it	eq
 649 04ca 8C46     		moveq	ip, r1
 650 04cc 03F00101 		and	r1, r3, #1
 651 04d0 0029     		cmp	r1, #0
 146:..\u8g2-master\csrc/u8x8_d_ssd1326.c ****     }
 652              		.loc 1 146 0
 653 04d2 4FEA5202 		lsr	r2, r2, #1
 654 04d6 15BF     		itete	ne
 655 04d8 F021     		movne	r1, #240
 656 04da 0021     		moveq	r1, #0
 143:..\u8g2-master\csrc/u8x8_d_ssd1326.c ****       dest+=4;
 657              		.loc 1 143 0
 658 04dc 4FF0FF30 		movne	r0, #-1
 659 04e0 0F20     		moveq	r0, #15
 145:..\u8g2-master\csrc/u8x8_d_ssd1326.c ****       b >>= 1;
 660              		.loc 1 145 0
 661 04e2 5B08     		lsrs	r3, r3, #1
 143:..\u8g2-master\csrc/u8x8_d_ssd1326.c ****       dest+=4;
 662              		.loc 1 143 0
 663 04e4 12F0010F 		tst	r2, #1
 664 04e8 18BF     		it	ne
 665 04ea 0146     		movne	r1, r0
 666 04ec 03F00100 		and	r0, r3, #1
 667 04f0 0028     		cmp	r0, #0
 146:..\u8g2-master\csrc/u8x8_d_ssd1326.c ****     }
 668              		.loc 1 146 0
 669 04f2 4FEA5202 		lsr	r2, r2, #1
 670 04f6 15BF     		itete	ne
 671 04f8 F020     		movne	r0, #240
 672 04fa 0020     		moveq	r0, #0
 143:..\u8g2-master\csrc/u8x8_d_ssd1326.c ****       dest+=4;
 673              		.loc 1 143 0
 674 04fc 4FF0FF3E 		movne	lr, #-1
 675 0500 4FF00F0E 		moveq	lr, #15
 145:..\u8g2-master\csrc/u8x8_d_ssd1326.c ****       b >>= 1;
 676              		.loc 1 145 0
 677 0504 5B08     		lsrs	r3, r3, #1
 143:..\u8g2-master\csrc/u8x8_d_ssd1326.c ****       dest+=4;
 678              		.loc 1 143 0
 679 0506 12F0010F 		tst	r2, #1
 680 050a 18BF     		it	ne
 681 050c 7046     		movne	r0, lr
 682 050e 03F0010E 		and	lr, r3, #1
ARM GAS  C:\Users\info\AppData\Local\Temp\ccNAmLH1.s 			page 20


 683 0512 BEF1000F 		cmp	lr, #0
 146:..\u8g2-master\csrc/u8x8_d_ssd1326.c ****     }
 684              		.loc 1 146 0
 685 0516 4FEA5202 		lsr	r2, r2, #1
 145:..\u8g2-master\csrc/u8x8_d_ssd1326.c ****       b >>= 1;
 686              		.loc 1 145 0
 687 051a 4FEA5303 		lsr	r3, r3, #1
 688 051e 15BF     		itete	ne
 689 0520 4FF0F00E 		movne	lr, #240
 690 0524 4FF0000E 		moveq	lr, #0
 143:..\u8g2-master\csrc/u8x8_d_ssd1326.c ****       dest+=4;
 691              		.loc 1 143 0
 692 0528 4FF0FF3B 		movne	fp, #-1
 693 052c 4FF00F0B 		moveq	fp, #15
 694 0530 12F0010F 		tst	r2, #1
 695 0534 18BF     		it	ne
 696 0536 DE46     		movne	lr, fp
 697 0538 002B     		cmp	r3, #0
 698 053a 15BF     		itete	ne
 699 053c F023     		movne	r3, #240
 700 053e 0023     		moveq	r3, #0
 701 0540 4FF0FF3B 		movne	fp, #-1
 702 0544 4FF00F0B 		moveq	fp, #15
 703 0548 5208     		lsrs	r2, r2, #1
 704 054a 18BF     		it	ne
 705 054c 5B46     		movne	r3, fp
 706 054e 85F803A0 		strb	r10, [r5, #3]
 707              	.LBE9:
 708              	.LBE8:
 223:..\u8g2-master\csrc/u8x8_d_ssd1326.c ****           
 709              		.loc 1 223 0
 710 0552 394A     		ldr	r2, .L25
 711              	.LBB12:
 712              	.LBB10:
 143:..\u8g2-master\csrc/u8x8_d_ssd1326.c ****       dest+=4;
 713              		.loc 1 143 0
 714 0554 E974     		strb	r1, [r5, #19]
 715 0556 E875     		strb	r0, [r5, #23]
 716              	.LBE10:
 717              	.LBE12:
 223:..\u8g2-master\csrc/u8x8_d_ssd1326.c ****           
 718              		.loc 1 223 0
 719 0558 2021     		movs	r1, #32
 720 055a 3046     		mov	r0, r6
 721              	.LBB13:
 722              	.LBB11:
 143:..\u8g2-master\csrc/u8x8_d_ssd1326.c ****       dest+=4;
 723              		.loc 1 143 0
 724 055c EB77     		strb	r3, [r5, #31]
 725 055e 85F80790 		strb	r9, [r5, #7]
 726 0562 85F80B80 		strb	r8, [r5, #11]
 727 0566 85F80FC0 		strb	ip, [r5, #15]
 728 056a 85F81BE0 		strb	lr, [r5, #27]
 729              	.LBE11:
 730              	.LBE13:
 223:..\u8g2-master\csrc/u8x8_d_ssd1326.c ****           
 731              		.loc 1 223 0
ARM GAS  C:\Users\info\AppData\Local\Temp\ccNAmLH1.s 			page 21


 732 056e FFF7FEFF 		bl	u8x8_cad_SendData
 733              	.LVL31:
 228:..\u8g2-master\csrc/u8x8_d_ssd1326.c **** 	
 734              		.loc 1 228 0
 735 0572 019B     		ldr	r3, [sp, #4]
 736 0574 0837     		adds	r7, r7, #8
 226:..\u8g2-master\csrc/u8x8_d_ssd1326.c **** 	  c--;
 737              		.loc 1 226 0
 738 0576 0434     		adds	r4, r4, #4
 739              	.LVL32:
 228:..\u8g2-master\csrc/u8x8_d_ssd1326.c **** 	
 740              		.loc 1 228 0
 741 0578 9F42     		cmp	r7, r3
 226:..\u8g2-master\csrc/u8x8_d_ssd1326.c **** 	  c--;
 742              		.loc 1 226 0
 743 057a E4B2     		uxtb	r4, r4
 744              	.LVL33:
 228:..\u8g2-master\csrc/u8x8_d_ssd1326.c **** 	
 745              		.loc 1 228 0
 746 057c 7FF480AD 		bne	.L12
 747 0580 059B     		ldr	r3, [sp, #20]
 748 0582 069A     		ldr	r2, [sp, #24]
 749 0584 03EB8203 		add	r3, r3, r2, lsl #2
 231:..\u8g2-master\csrc/u8x8_d_ssd1326.c ****       } while( arg_int > 0 );
 750              		.loc 1 231 0
 751 0588 049A     		ldr	r2, [sp, #16]
 752 058a DBB2     		uxtb	r3, r3
 753 058c 013A     		subs	r2, r2, #1
 754              	.LVL34:
 755 058e 0593     		str	r3, [sp, #20]
 232:..\u8g2-master\csrc/u8x8_d_ssd1326.c ****       
 756              		.loc 1 232 0
 757 0590 12F0FF03 		ands	r3, r2, #255
 758 0594 0493     		str	r3, [sp, #16]
 759 0596 7FF464AD 		bne	.L13
 234:..\u8g2-master\csrc/u8x8_d_ssd1326.c ****       break;
 760              		.loc 1 234 0
 761 059a 3046     		mov	r0, r6
 762 059c FFF7FEFF 		bl	u8x8_cad_EndTransfer
 763              	.LVL35:
 239:..\u8g2-master\csrc/u8x8_d_ssd1326.c **** }
 764              		.loc 1 239 0
 765 05a0 0120     		movs	r0, #1
 766              	.LBE14:
 767              	.LBE22:
 768              		.loc 1 275 0
 769 05a2 09B0     		add	sp, sp, #36
 770              		.cfi_remember_state
 771              		.cfi_def_cfa_offset 36
 772              		@ sp needed
 773 05a4 BDE8F08F 		pop	{r4, r5, r6, r7, r8, r9, r10, fp, pc}
 774              	.LVL36:
 775              	.L4:
 776              		.cfi_restore_state
 777              	.LBB23:
 778              	.LBB15:
 168:..\u8g2-master\csrc/u8x8_d_ssd1326.c ****       u8x8_cad_SendSequence(u8x8, u8x8_d_ssd1326_er_256x32_init_seq);    
ARM GAS  C:\Users\info\AppData\Local\Temp\ccNAmLH1.s 			page 22


 779              		.loc 1 168 0
 780 05a8 FFF7FEFF 		bl	u8x8_d_helper_display_init
 781              	.LVL37:
 169:..\u8g2-master\csrc/u8x8_d_ssd1326.c ****       break;
 782              		.loc 1 169 0
 783 05ac 3046     		mov	r0, r6
 784 05ae 2349     		ldr	r1, .L25+4
 785 05b0 FFF7FEFF 		bl	u8x8_cad_SendSequence
 786              	.LVL38:
 239:..\u8g2-master\csrc/u8x8_d_ssd1326.c **** }
 787              		.loc 1 239 0
 788 05b4 0120     		movs	r0, #1
 789              	.LBE15:
 790              	.LBE23:
 791              		.loc 1 275 0
 792 05b6 09B0     		add	sp, sp, #36
 793              		.cfi_remember_state
 794              		.cfi_def_cfa_offset 36
 795              		@ sp needed
 796 05b8 BDE8F08F 		pop	{r4, r5, r6, r7, r8, r9, r10, fp, pc}
 797              	.LVL39:
 798              	.L6:
 799              		.cfi_restore_state
 800              	.LBB24:
 801              	.LBB16:
 172:..\u8g2-master\csrc/u8x8_d_ssd1326.c **** 	u8x8_cad_SendSequence(u8x8, u8x8_d_ssd1326_256x32_nhd_powersave0_seq);
 802              		.loc 1 172 0
 803 05bc 049B     		ldr	r3, [sp, #16]
 804 05be 43BB     		cbnz	r3, .L10
 173:..\u8g2-master\csrc/u8x8_d_ssd1326.c ****       else
 805              		.loc 1 173 0
 806 05c0 1F49     		ldr	r1, .L25+8
 807 05c2 FFF7FEFF 		bl	u8x8_cad_SendSequence
 808              	.LVL40:
 239:..\u8g2-master\csrc/u8x8_d_ssd1326.c **** }
 809              		.loc 1 239 0
 810 05c6 0120     		movs	r0, #1
 811              	.LBE16:
 812              	.LBE24:
 813              		.loc 1 275 0
 814 05c8 09B0     		add	sp, sp, #36
 815              		.cfi_remember_state
 816              		.cfi_def_cfa_offset 36
 817              		@ sp needed
 818 05ca BDE8F08F 		pop	{r4, r5, r6, r7, r8, r9, r10, fp, pc}
 819              	.LVL41:
 820              	.L7:
 821              		.cfi_restore_state
 822              	.LBB25:
 823              	.LBB17:
 178:..\u8g2-master\csrc/u8x8_d_ssd1326.c ****       {
 824              		.loc 1 178 0
 825 05ce 049B     		ldr	r3, [sp, #16]
 826 05d0 33BB     		cbnz	r3, .L11
 180:..\u8g2-master\csrc/u8x8_d_ssd1326.c **** 	u8x8->x_offset = u8x8->display_info->default_x_offset;
 827              		.loc 1 180 0
 828 05d2 1C49     		ldr	r1, .L25+12
ARM GAS  C:\Users\info\AppData\Local\Temp\ccNAmLH1.s 			page 23


 829 05d4 FFF7FEFF 		bl	u8x8_cad_SendSequence
 830              	.LVL42:
 181:..\u8g2-master\csrc/u8x8_d_ssd1326.c ****       }
 831              		.loc 1 181 0
 832 05d8 3368     		ldr	r3, [r6]
 239:..\u8g2-master\csrc/u8x8_d_ssd1326.c **** }
 833              		.loc 1 239 0
 834 05da 0120     		movs	r0, #1
 181:..\u8g2-master\csrc/u8x8_d_ssd1326.c ****       }
 835              		.loc 1 181 0
 836 05dc 9B7C     		ldrb	r3, [r3, #18]	@ zero_extendqisi2
 837 05de 86F82230 		strb	r3, [r6, #34]
 838              	.LBE17:
 839              	.LBE25:
 840              		.loc 1 275 0
 841 05e2 09B0     		add	sp, sp, #36
 842              		.cfi_remember_state
 843              		.cfi_def_cfa_offset 36
 844              		@ sp needed
 845 05e4 BDE8F08F 		pop	{r4, r5, r6, r7, r8, r9, r10, fp, pc}
 846              	.LVL43:
 847              	.L8:
 848              		.cfi_restore_state
 849              	.LBB26:
 850              	.LBB18:
 191:..\u8g2-master\csrc/u8x8_d_ssd1326.c ****       u8x8_cad_SendCmd(u8x8, 0x081 );
 851              		.loc 1 191 0
 852 05e8 FFF7FEFF 		bl	u8x8_cad_StartTransfer
 853              	.LVL44:
 192:..\u8g2-master\csrc/u8x8_d_ssd1326.c ****       u8x8_cad_SendArg(u8x8, arg_int );	/* ssd1326 has range from 0 to 255 */
 854              		.loc 1 192 0
 855 05ec 8121     		movs	r1, #129
 856 05ee 3046     		mov	r0, r6
 857 05f0 FFF7FEFF 		bl	u8x8_cad_SendCmd
 858              	.LVL45:
 193:..\u8g2-master\csrc/u8x8_d_ssd1326.c ****       u8x8_cad_EndTransfer(u8x8);
 859              		.loc 1 193 0
 860 05f4 0499     		ldr	r1, [sp, #16]
 861 05f6 3046     		mov	r0, r6
 862 05f8 FFF7FEFF 		bl	u8x8_cad_SendArg
 863              	.LVL46:
 194:..\u8g2-master\csrc/u8x8_d_ssd1326.c ****       break;
 864              		.loc 1 194 0
 865 05fc 3046     		mov	r0, r6
 866 05fe FFF7FEFF 		bl	u8x8_cad_EndTransfer
 867              	.LVL47:
 239:..\u8g2-master\csrc/u8x8_d_ssd1326.c **** }
 868              		.loc 1 239 0
 869 0602 0120     		movs	r0, #1
 870              	.LBE18:
 871              	.LBE26:
 872              		.loc 1 275 0
 873 0604 09B0     		add	sp, sp, #36
 874              		.cfi_remember_state
 875              		.cfi_def_cfa_offset 36
 876              		@ sp needed
 877 0606 BDE8F08F 		pop	{r4, r5, r6, r7, r8, r9, r10, fp, pc}
ARM GAS  C:\Users\info\AppData\Local\Temp\ccNAmLH1.s 			page 24


 878              	.LVL48:
 879              	.L14:
 880              		.cfi_restore_state
 881              	.LBB27:
 882              	.LBB19:
 237:..\u8g2-master\csrc/u8x8_d_ssd1326.c ****   }
 883              		.loc 1 237 0
 884 060a 0020     		movs	r0, #0
 885              	.LVL49:
 886              	.LBE19:
 887              	.LBE27:
 888              		.loc 1 275 0
 889 060c 09B0     		add	sp, sp, #36
 890              		.cfi_remember_state
 891              		.cfi_def_cfa_offset 36
 892              		@ sp needed
 893 060e BDE8F08F 		pop	{r4, r5, r6, r7, r8, r9, r10, fp, pc}
 894              	.LVL50:
 895              	.L10:
 896              		.cfi_restore_state
 897              	.LBB28:
 898              	.LBB20:
 175:..\u8g2-master\csrc/u8x8_d_ssd1326.c ****       break;
 899              		.loc 1 175 0
 900 0612 0D49     		ldr	r1, .L25+16
 901 0614 FFF7FEFF 		bl	u8x8_cad_SendSequence
 902              	.LVL51:
 239:..\u8g2-master\csrc/u8x8_d_ssd1326.c **** }
 903              		.loc 1 239 0
 904 0618 0120     		movs	r0, #1
 905              	.LBE20:
 906              	.LBE28:
 907              		.loc 1 275 0
 908 061a 09B0     		add	sp, sp, #36
 909              		.cfi_remember_state
 910              		.cfi_def_cfa_offset 36
 911              		@ sp needed
 912 061c BDE8F08F 		pop	{r4, r5, r6, r7, r8, r9, r10, fp, pc}
 913              	.LVL52:
 914              	.L11:
 915              		.cfi_restore_state
 916              	.LBB29:
 917              	.LBB21:
 185:..\u8g2-master\csrc/u8x8_d_ssd1326.c **** 	u8x8->x_offset = u8x8->display_info->flipmode_x_offset;
 918              		.loc 1 185 0
 919 0620 0A49     		ldr	r1, .L25+20
 920 0622 FFF7FEFF 		bl	u8x8_cad_SendSequence
 921              	.LVL53:
 186:..\u8g2-master\csrc/u8x8_d_ssd1326.c ****       }
 922              		.loc 1 186 0
 923 0626 3368     		ldr	r3, [r6]
 239:..\u8g2-master\csrc/u8x8_d_ssd1326.c **** }
 924              		.loc 1 239 0
 925 0628 0120     		movs	r0, #1
 186:..\u8g2-master\csrc/u8x8_d_ssd1326.c ****       }
 926              		.loc 1 186 0
 927 062a DB7C     		ldrb	r3, [r3, #19]	@ zero_extendqisi2
ARM GAS  C:\Users\info\AppData\Local\Temp\ccNAmLH1.s 			page 25


 928 062c 86F82230 		strb	r3, [r6, #34]
 929              	.LBE21:
 930              	.LBE29:
 931              		.loc 1 275 0
 932 0630 09B0     		add	sp, sp, #36
 933              		.cfi_def_cfa_offset 36
 934              		@ sp needed
 935 0632 BDE8F08F 		pop	{r4, r5, r6, r7, r8, r9, r10, fp, pc}
 936              	.LVL54:
 937              	.L26:
 938 0636 00BF     		.align	2
 939              	.L25:
 940 0638 00000000 		.word	.LANCHOR1
 941 063c 18000000 		.word	.LANCHOR0+24
 942 0640 5C000000 		.word	.LANCHOR0+92
 943 0644 6C000000 		.word	.LANCHOR0+108
 944 0648 64000000 		.word	.LANCHOR0+100
 945 064c 74000000 		.word	.LANCHOR0+116
 946              		.cfi_endproc
 947              	.LFE2:
 948              		.size	u8x8_d_ssd1326_er_256x32, .-u8x8_d_ssd1326_er_256x32
 949              		.section	.rodata
 950              		.align	2
 951              		.set	.LANCHOR0,. + 0
 952              		.type	u8x8_ssd1326_256x32_display_info, %object
 953              		.size	u8x8_ssd1326_256x32_display_info, 24
 954              	u8x8_ssd1326_256x32_display_info:
 955 0000 00       		.byte	0
 956 0001 01       		.byte	1
 957 0002 14       		.byte	20
 958 0003 0F       		.byte	15
 959 0004 64       		.byte	100
 960 0005 64       		.byte	100
 961 0006 64       		.byte	100
 962 0007 64       		.byte	100
 963 0008 00093D00 		.word	4000000
 964 000c 00       		.byte	0
 965 000d 04       		.byte	4
 966 000e 28       		.byte	40
 967 000f 3C       		.byte	60
 968 0010 20       		.byte	32
 969 0011 04       		.byte	4
 970 0012 00       		.byte	0
 971 0013 00       		.byte	0
 972 0014 0001     		.short	256
 973 0016 2000     		.short	32
 974              		.type	u8x8_d_ssd1326_er_256x32_init_seq, %object
 975              		.size	u8x8_d_ssd1326_er_256x32_init_seq, 65
 976              	u8x8_d_ssd1326_er_256x32_init_seq:
 977 0018 18       		.byte	24
 978 0019 15       		.byte	21
 979 001a FD       		.byte	-3
 980 001b 16       		.byte	22
 981 001c 12       		.byte	18
 982 001d 15       		.byte	21
 983 001e AE       		.byte	-82
 984 001f 15       		.byte	21
ARM GAS  C:\Users\info\AppData\Local\Temp\ccNAmLH1.s 			page 26


 985 0020 A8       		.byte	-88
 986 0021 16       		.byte	22
 987 0022 1F       		.byte	31
 988 0023 15       		.byte	21
 989 0024 A1       		.byte	-95
 990 0025 16       		.byte	22
 991 0026 00       		.byte	0
 992 0027 15       		.byte	21
 993 0028 A2       		.byte	-94
 994 0029 16       		.byte	22
 995 002a 00       		.byte	0
 996 002b 15       		.byte	21
 997 002c AD       		.byte	-83
 998 002d 16       		.byte	22
 999 002e 02       		.byte	2
 1000 002f 15       		.byte	21
 1001 0030 A0       		.byte	-96
 1002 0031 16       		.byte	22
 1003 0032 06       		.byte	6
 1004 0033 15       		.byte	21
 1005 0034 86       		.byte	-122
 1006 0035 15       		.byte	21
 1007 0036 B7       		.byte	-73
 1008 0037 15       		.byte	21
 1009 0038 81       		.byte	-127
 1010 0039 16       		.byte	22
 1011 003a 27       		.byte	39
 1012 003b 15       		.byte	21
 1013 003c B1       		.byte	-79
 1014 003d 16       		.byte	22
 1015 003e 71       		.byte	113
 1016 003f 15       		.byte	21
 1017 0040 B3       		.byte	-77
 1018 0041 16       		.byte	22
 1019 0042 F0       		.byte	-16
 1020 0043 15       		.byte	21
 1021 0044 BB       		.byte	-69
 1022 0045 16       		.byte	22
 1023 0046 35       		.byte	53
 1024 0047 16       		.byte	22
 1025 0048 FF       		.byte	-1
 1026 0049 15       		.byte	21
 1027 004a BC       		.byte	-68
 1028 004b 16       		.byte	22
 1029 004c 1F       		.byte	31
 1030 004d 15       		.byte	21
 1031 004e BE       		.byte	-66
 1032 004f 16       		.byte	22
 1033 0050 0F       		.byte	15
 1034 0051 15       		.byte	21
 1035 0052 BF       		.byte	-65
 1036 0053 16       		.byte	22
 1037 0054 0F       		.byte	15
 1038 0055 15       		.byte	21
 1039 0056 A4       		.byte	-92
 1040 0057 19       		.byte	25
 1041 0058 FF       		.byte	-1
ARM GAS  C:\Users\info\AppData\Local\Temp\ccNAmLH1.s 			page 27


 1042 0059 000000   		.space	3
 1043              		.type	u8x8_d_ssd1326_256x32_nhd_powersave0_seq, %object
 1044              		.size	u8x8_d_ssd1326_256x32_nhd_powersave0_seq, 5
 1045              	u8x8_d_ssd1326_256x32_nhd_powersave0_seq:
 1046 005c 18       		.byte	24
 1047 005d 15       		.byte	21
 1048 005e AF       		.byte	-81
 1049 005f 19       		.byte	25
 1050 0060 FF       		.byte	-1
 1051 0061 000000   		.space	3
 1052              		.type	u8x8_d_ssd1326_256x32_nhd_powersave1_seq, %object
 1053              		.size	u8x8_d_ssd1326_256x32_nhd_powersave1_seq, 5
 1054              	u8x8_d_ssd1326_256x32_nhd_powersave1_seq:
 1055 0064 18       		.byte	24
 1056 0065 15       		.byte	21
 1057 0066 AE       		.byte	-82
 1058 0067 19       		.byte	25
 1059 0068 FF       		.byte	-1
 1060 0069 000000   		.space	3
 1061              		.type	u8x8_d_ssd1326_256x32_nhd_flip0_seq, %object
 1062              		.size	u8x8_d_ssd1326_256x32_nhd_flip0_seq, 7
 1063              	u8x8_d_ssd1326_256x32_nhd_flip0_seq:
 1064 006c 18       		.byte	24
 1065 006d 15       		.byte	21
 1066 006e A0       		.byte	-96
 1067 006f 16       		.byte	22
 1068 0070 06       		.byte	6
 1069 0071 19       		.byte	25
 1070 0072 FF       		.byte	-1
 1071 0073 00       		.space	1
 1072              		.type	u8x8_d_ssd1326_256x32_nhd_flip1_seq, %object
 1073              		.size	u8x8_d_ssd1326_256x32_nhd_flip1_seq, 7
 1074              	u8x8_d_ssd1326_256x32_nhd_flip1_seq:
 1075 0074 18       		.byte	24
 1076 0075 15       		.byte	21
 1077 0076 A0       		.byte	-96
 1078 0077 16       		.byte	22
 1079 0078 01       		.byte	1
 1080 0079 19       		.byte	25
 1081 007a FF       		.byte	-1
 1082              		.bss
 1083              		.align	2
 1084              		.set	.LANCHOR1,. + 0
 1085              		.type	u8x8_ssd1326_8to32_dest_buf, %object
 1086              		.size	u8x8_ssd1326_8to32_dest_buf, 32
 1087              	u8x8_ssd1326_8to32_dest_buf:
 1088 0000 00000000 		.space	32
 1088      00000000 
 1088      00000000 
 1088      00000000 
 1088      00000000 
 1089              		.text
 1090              	.Letext0:
 1091              		.file 2 "c:\\program files (x86)\\cypress\\psoc creator\\4.2\\psoc creator\\import\\gnu\\arm\\5.4.
 1092              		.file 3 "c:\\program files (x86)\\cypress\\psoc creator\\4.2\\psoc creator\\import\\gnu\\arm\\5.4.
 1093              		.file 4 "..\\u8g2-master\\csrc\\u8x8.h"