ARM GAS  C:\Users\info\AppData\Local\Temp\cclKgTbE.s 			page 1


   1              		.syntax unified
   2              		.cpu cortex-m3
   3              		.fpu softvfp
   4              		.eabi_attribute 20, 1
   5              		.eabi_attribute 21, 1
   6              		.eabi_attribute 23, 3
   7              		.eabi_attribute 24, 1
   8              		.eabi_attribute 25, 1
   9              		.eabi_attribute 26, 1
  10              		.eabi_attribute 30, 4
  11              		.eabi_attribute 34, 1
  12              		.eabi_attribute 18, 4
  13              		.thumb
  14              		.syntax unified
  15              		.file	"u8x8_setup.c"
  16              		.text
  17              	.Ltext0:
  18              		.section	.gnu.lto_.profile.bf14d063,"",%progbits
  19 0000 789C6361 		.ascii	"x\234ca`d`a`\000\222nJ\000\001\030\000s"
  19      60646061 
  19      6000926E 
  19      4A000118 
  19      0073
  20              		.text
  21              		.section	.gnu.lto_.icf.bf14d063,"",%progbits
  22 0000 789C6361 		.ascii	"x\234ca`d\000\001\005\006\004`e\350\331\267\343 \037"
  22      60640001 
  22      05060460 
  22      65E8D9B7 
  22      E3201F
  23 0013 63CBE7C6 		.ascii	"c\313\347\306w|L{\016]\271\313\305\334\276\355D;\037"
  23      777C4C7B 
  23      0E5DB9CB 
  23      C5DCBEED 
  23      443B1F
  24 0026 CBC4FB47 		.ascii	"\313\304\373G\327\3601\000\000\366\211\016\274"
  24      D7F03100 
  24      00F6890E 
  24      BC
  25              		.text
  26              		.section	.gnu.lto_.jmpfuncs.bf14d063,"",%progbits
  27 0000 789C6361 		.ascii	"x\234ca`d\000\2014\006\004`a`a\004\0020\233\021\314"
  27      60640081 
  27      34060460 
  27      61606104 
  27      02309B11 
  28 0015 6466AA67 		.ascii	"df\252g``b\252\004)f\201P\214\177\231\030\233\177\355"
  28      606062AA 
  28      04296681 
  28      508C7F99 
  28      189B7FED 
  29 0029 FFCC57FF 		.ascii	"\377\314W\377\267aFC\203@+3C'3H\303r\306z\240.\006f"
  29      B7614643 
  29      83402B33 
  29      43273348 
  29      C372C67A 
  30 0041 A0B67A16 		.ascii	"\240\266z\026V\220nF\371z\020\000\351g\200\033\303\000"
ARM GAS  C:\Users\info\AppData\Local\Temp\cclKgTbE.s 			page 2


  30      56906E46 
  30      F97A1000 
  30      E967801B 
  30      C300
  31 0053 00192910 		.ascii	"\000\031)\020N"
  31      4E
  32              		.text
  33              		.section	.gnu.lto_.inline.bf14d063,"",%progbits
  34 0000 789C6361 		.ascii	"x\234ca`d\000\201\305\014\010\300\302\300\300\314\304"
  34      60640081 
  34      C50C08C0 
  34      C2C0C0CC 
  34      C4
  35 0011 C8C00464 		.ascii	"\310\300\004d\262-\220\007Q@E|<\214\314\214\034Y\177"
  35      B22D9007 
  35      5140457C 
  35      3C8CCC8C 
  35      1C597F
  36 0024 9918A79D 		.ascii	"\231\030\247\235\235\270\213\355\013S+3##'\343rF\031"
  36      9DB88BED 
  36      0B532B33 
  36      232327E3 
  36      724619
  37 0037 0688F0D9 		.ascii	"\006\210\360\331\205k\316A\205\271\030W\200\205\201"
  37      856BCE41 
  37      85B91857 
  37      808581
  38 0046 4633830C 		.ascii	"F3\203\014\231\0034\204g\201\274\000\310$&n\006\016"
  38      99033484 
  38      6781BC00 
  38      C824266E 
  38      060E
  39 0058 06C6097E 		.ascii	"\006\306\011~\314<@{\230&\370\001U\360\361\002-\343"
  39      CC3C407B 
  39      9826F801 
  39      55F0F102 
  39      2DE3
  40 006a FE11CA20 		.ascii	"\376\021\312 8\243\224\011\342\000n\031\240\020\313"
  40      38A39409 
  40      E2006E19 
  40      A010CB
  41 0079 027906AE 		.ascii	"\002y\006\256\003vLPm ]P\212\001\000\2552\030\277"
  41      03764C50 
  41      6D205D50 
  41      8A0100AD 
  41      3218BF
  42              		.text
  43              		.section	.gnu.lto_.pureconst.bf14d063,"",%progbits
  44 0000 789C6361 		.ascii	"x\234ca`d\340d```a``\224`\226b\221\002\000\001\367\000"
  44      6064E064 
  44      60606061 
  44      60609460 
  44      96629102 
  45 0018 67       		.ascii	"g"
  46              		.text
  47              		.section	.gnu.lto_u8x8_dummy_cb.bf14d063,"",%progbits
  48 0000 789C6361 		.ascii	"x\234ca`d\000\201\237@\312\006HK\0031#3\003#\323\204"
ARM GAS  C:\Users\info\AppData\Local\Temp\cclKgTbE.s 			page 3


  48      60640081 
  48      9F40CA06 
  48      484B0331 
  48      23330323 
  49 0016 730C0C8D 		.ascii	"s\014\014\215\034L\214\214 F\003\007#C=\023c=\343W\246"
  49      1C4C8C8C 
  49      20460307 
  49      23433D13 
  49      633DE357 
  50 002b BF4C8CA7 		.ascii	"\277L\214\247\277\237\350\341\322\\\336\320\320\324"
  50      BF9FE8E1 
  50      D25CDED0 
  50      D0D4
  51 0039 F0A0F51A 		.ascii	"\360\240\365\032\317\364\025\007\030[\231\031\030\376"
  51      CFF41507 
  51      185B9919 
  51      18FE
  52 0047 3331301A 		.ascii	"310\032\3130\032\310\200\214X\316\250\011Tyb\357\331"
  52      CB301AC8 
  52      808C58CE 
  52      A8095479 
  52      62EFD9
  53 005a 6A665946 		.ascii	"jfYF\006 \363\324\343g;\330X\200JV\000\215g\000\211"
  53      0620F3D4 
  53      E3673BD8 
  53      58804A56 
  53      008D6700 
  54 006f 5C6CD930 		.ascii	"\\l\3310\207\371\013S+3##\013\220\373\361\354\254\307"
  54      87F90B53 
  54      2B332323 
  54      0B90FBF1 
  54      ECACC7
  55 0082 7C202E13 		.ascii	"| .\023\243\002\220\273\340\312\342;l\314*`\275\223"
  55      A30290BB 
  55      E0CAE23B 
  55      6CCC2A60 
  55      BD93
  56 0094 A6ED99C9 		.ascii	"\246\355\231\311\253\276\024da\303\366\324\006\316V"
  56      ABBE1464 
  56      61C3F6D4 
  56      06CE56
  57 00a3 6666C635 		.ascii	"ff\3065\214\314 \013W3\3120\256\002\342\225\214,@Q\006"
  57      8CCC200B 
  57      5733CA30 
  57      AE02E295 
  57      8C2C4051 
  58 00b8 C6B58CEA 		.ascii	"\306\265\214\352X-;\263a\347u\026fM\260q\313\246\315"
  58      582D3BB3 
  58      61E77516 
  58      664DB071 
  58      CBA6CD
  59 00cb EF67851A 		.ascii	"\357g\205\0327\373\030w\203\001\320\365\214\353!\346"
  59      37FB1877 
  59      8301D0F5 
  59      8CEB21E6 
  60 00db 813DC0B8 		.ascii	"\201=\300\270\016d\032\320\027\033p\2306\343\342\203"
  60      0E641AD0 
ARM GAS  C:\Users\info\AppData\Local\Temp\cclKgTbE.s 			page 4


  60      171B7098 
  60      36E3E283 
  61 00eb 5E2E665D 		.ascii	"^.f]\260i\307\333>w0CM\373\0133m\023\262i\033\241\246"
  61      B069C7DB 
  61      3E773043 
  61      4DFB0B33 
  61      6D13B269 
  62 0102 6DC661DA 		.ascii	"m\306a\332\315\347g/s1\233\202M[zq\341\016\026\250i"
  62      CDE7672F 
  62      73319B82 
  62      4D5B7A71 
  62      E10E16A8 
  63 0117 9F8FF334 		.ascii	"\237\217\3634L\000\006-\013\343VT\317n\001\031\310\302"
  63      4C00062D 
  63      0BE35654 
  63      CF6E0119 
  63      C8C2
  64 0129 C0B88D51 		.ascii	"\300\270\215Q\035\244\347\321\306\177Sy\331Z\032\200"
  64      1DA4E7D1 
  64      C67F5379 
  64      D95A1A80 
  65 0139 4001140B 		.ascii	"@\001\024\013@\253\2663\262\201\342u}\320\201\206\377"
  65      40ABB633 
  65      B281E275 
  65      7DD08186 
  65      FF
  66 014a FF9B1B0E 		.ascii	"\377\233\033\016lf\375\310\004\224\370\000\304\240\370"
  66      6C66FDC8 
  66      0494F800 
  66      C4A0F8
  67 0159 04718034 		.ascii	"\004q\2004\363+\306\246\003\3333A\252\201\306Lk=t\236"
  67      F32BC6A6 
  67      03DB3341 
  67      AA81C64C 
  67      6B3D749E 
  68 016d 1D1401C0 		.ascii	"\035\024\001\300$\301\270\203\021\024\215@\015\214 "
  68      24C1B883 
  68      11148D40 
  68      0D8C20
  69 017c 85406D52 		.ascii	"\205@mRzz1\245\026\351F\361\311\305E\311@V\205E|qjI"
  69      7A7A31A5 
  69      16E946F1 
  69      C9C545C9 
  69      40568545 
  70 0194 69815E32 		.ascii	"i\201^2\003[i^iqj\012\013H\2209\2678\235=\261(=>3\257"
  70      035B695E 
  70      69716A0A 
  70      0B489039 
  70      B7389D3D 
  71 01ae 044C1794 		.ascii	"\004L\027\224\024\001\000!<\271\237"
  71      14010021 
  71      3CB99F
  72              		.text
  73              		.section	.gnu.lto_u8x8_d_null_cb.bf14d063,"",%progbits
  74 0000 789C6D52 		.ascii	"x\234mRMHTQ\024\276\337\273o\336\374\230\342Rd\002i"
  74      4D485451 
  74      14BEDFBB 
ARM GAS  C:\Users\info\AppData\Local\Temp\cclKgTbE.s 			page 5


  74      6FDEFC98 
  74      E2526402 
  75 0015 91B848A4 		.ascii	"\221\270H\244\010\\\264l\321\272u!a\"\021\2118\016\004"
  75      085CB46C 
  75      D1BA7521 
  75      61221189 
  75      380E04
  76 0028 2DE6CDCF 		.ascii	"-\346\315\3173\205Bg\241\210\024&5Xi\376\225\351\250"
  76      33854267 
  76      A1881426 
  76      355869FE 
  76      95E9A8
  77 003b 934F0335 		.ascii	"\223O\0035s,K\020\321\205\244\231\210Db!\0046\235sg"
  77      732C4B10 
  77      D185A499 
  77      88446221 
  77      04369D73 
  78 0050 A4A42EBC 		.ascii	"\244\244.\274w\317\337\367\335\357\236su\001\301\253"
  78      77CFDFF7 
  78      DDEF9E73 
  78      7501C1AB 
  79 0060 5A0A718E 		.ascii	"Z\012q\216\366\363\364\301\020\320\232\346\205\010\272"
  79      F6F3F4C1 
  79      10D09AE6 
  79      8508BA
  80 006f 34E9B0F2 		.ascii	"4\351\260\362\205\351\222\352\257\247m8\322I\375\320"
  80      85E992EA 
  80      AFA76D38 
  80      D249FDD0 
  81 007f 70006C98 		.ascii	"p\000l\230.\210\200&u\007\002\370\241\035hx\273?s\307"
  81      2E888026 
  81      750702F8 
  81      A11D6878 
  81      BB3F73C7 
  82 0093 53D4699A 		.ascii	"S\324i\232!s-\266ya7d\345YtNJ\0238\343E\211\227\317"
  82      21732DB6 
  82      79613764 
  82      E559744E 
  82      4A1338E3 
  83 00ab EA441155 		.ascii	"\352D\021U.D\372\356\311\357\232%\001\235\334\335d\333"
  83      2E44FAEE 
  83      C9EF9A25 
  83      019DDCDD 
  83      64DB
  84 00bd 7A0EBB1A 		.ascii	"z\016\273\032\012\310}\260\370p\325\220\307!\310n\231"
  84      0AC87DB0 
  84      F870D590 
  84      C721C86E 
  84      99
  85 00ce 5DFC9A5D 		.ascii	"]\374\232]\030cN3Za\272-)\361\024\2229\237\300\213\307"
  85      18634E33 
  85      5A61BA2D 
  85      29F11492 
  85      399FC08B 
  86 00e3 F00A0A09 		.ascii	"\360\012\012\011t\241\220\252\347\372\342K\272<\241"
  86      74A190AA 
  86      E7FAE24B 
ARM GAS  C:\Users\info\AppData\Local\Temp\cclKgTbE.s 			page 6


  86      BA3CA1
  87 00f2 90FB63AF 		.ascii	"\220\373c\257\017\016\221\211\313\246$)\350N#\323jX"
  87      0F0E9189 
  87      CBA62429 
  87      E84E23D3 
  87      6A58
  88 0104 1B9E29DC 		.ascii	"\033\236)\334L\"yK\236T\260\331\365\315aC\247\242\036"
  88      4C22794B 
  88      9E54B0D9 
  88      F5CD6143 
  88      A7A21E
  89 0117 509E23AD 		.ascii	"P\236#\255\013kw=\362\224\312N\327\355\325\313\014i"
  89      0B6B773D 
  89      F294CA4E 
  89      D7EDD5CB 
  89      0C69
  90 0129 FB549659 		.ascii	"\373T\226Y\302\254}\177\261\242\027\272\"\356W\304\377"
  90      C2AC7D7F 
  90      B1A217BA 
  90      22EE57C4 
  90      FF
  91 013a B22D7F49 		.ascii	"\262-\177I~\364\310\263\212-\266\3201\254g\330\232\247"
  91      7EF4C8B3 
  91      8A2DB6D0 
  91      31AC67D8 
  91      9AA7
  92 014c 8F994DB0 		.ascii	"\217\231M\260\244\216\347G\256\207\001&\324\005^\240"
  92      A48EE747 
  92      AE870126 
  92      D4055EA0 
  93 015c 90319FFA 		.ascii	"\2201\237\372\1775g\033\021\223V\001\267\226\216\032"
  93      7F35671B 
  93      11935601 
  93      B7968E1A 
  94 016c 84C153ED 		.ascii	"\204\301S\355\275h\233\251T\330\264\007\215\211U\303"
  94      BD689BA9 
  94      54D8B407 
  94      8D8955C3 
  95 017c A9812FA7 		.ascii	"\251\201/\247\203[#\3047\252\344\241\355j\032\357\362"
  95      835B23C4 
  95      37AAE4A1 
  95      ED6A1AEF 
  95      F2
  96 018d 3322F6D0 		.ascii	"3\"\366\320\024\030\033\226<\274\226\345G[\216(\032"
  96      14181B96 
  96      3CBC96E5 
  96      475B8E28 
  96      1A
  97 019e 83449D6B 		.ascii	"\203D\235kI\007\315\227\025\013\274D\024\234OFG\014"
  97      4907CD97 
  97      150BBC44 
  97      149C4F46 
  97      470C
  98 01b0 9E91809B 		.ascii	"\236\221\200\233\334\311\235\225\015d\312\355\321)\212"
  98      DCC99D95 
  98      0D64CAED 
  98      D1298A
ARM GAS  C:\Users\info\AppData\Local\Temp\cclKgTbE.s 			page 7


  99 01bf 3B3044C3 		.ascii	";0D\3030%K\301p\032\224\354\350\236\317\200<\344\206"
  99      30254BC1 
  99      701A94EC 
  99      E89ECF80 
  99      3CE486
 100 01d2 1A9662AE 		.ascii	"\032\226b\256C\320{\2031q\205Q\327\030!\214`\205RX\371"
 100      43D07B83 
 100      31718551 
 100      D718218C 
 100      60855258 
 101 01e7 7203C15C 		.ascii	"r\003\301\\V\307\204[\260\354\304\224d\227[\020\217"
 101      56C7845B 
 101      B0ECC494 
 101      64975B10 
 101      8F
 102 01f8 EFAC3803 		.ascii	"\357\2548\003\007f\275Rj\2444\202a\024\001\021\226\374"
 102      0766BD52 
 102      6AA43482 
 102      61140111 
 102      96FC
 103 020a 9A5AACC9 		.ascii	"\232Z\254\311wN>\324\251\232\034\3769\276\227C\325\255"
 103      774E3ED4 
 103      A99A1CFE 
 103      39BE9743 
 103      D5AD
 104 021c AADAD940 		.ascii	"\252\332\331@\257\205\303o\332\272\256\267\343~\260"
 104      AF85C36F 
 104      DABAAEB7 
 104      E37EB0
 105 022b 49855D48 		.ascii	"I\205]H\320+\036#1\234Km\017\364\270\011\222\307\034"
 105      D02B1E23 
 105      319C4B6D 
 105      0FF4B809 
 105      92C71C
 106 023e AFD0AEDA 		.ascii	"\257\320\256\332$0\216\200%\335J\242~T\242F\022#\366"
 106      24308E80 
 106      25DD4AA2 
 106      7E54A246 
 106      1223F6
 107 0251 07E3FF0A 		.ascii	"\007\343\377\012=)j\272\200\235Vh\311,E\341\020\215"
 107      3D296ABA 
 107      809D5668 
 107      C92C45E1 
 107      108D
 108 0263 34873F1C 		.ascii	"4\207?\034Bl#d\257\324e\263K\034\203\267\347\372=\351"
 108      426C2364 
 108      AFD465B3 
 108      4B1C83B7 
 108      E7FA3DE9 
 109 0277 DE0113AC 		.ascii	"\336\001\023\254\214\247\010F\021[~q\361%\177i\345\351"
 109      8CA70846 
 109      115B7E71 
 109      F1257F69 
 109      E5E9
 110 0289 B2725F4D 		.ascii	"\262r_M9Y7K\313|\025\265\376\352\342r\241\263'o\370"
 110      3959374B 
 110      CB7C15B5 
ARM GAS  C:\Users\info\AppData\Local\Temp\cclKgTbE.s 			page 8


 110      FEEAE272 
 110      A1B3276F 
 111 029e 2A0D7F95 		.ascii	"*\015\177\225\337Wq\325y\245\246\262\354ZU\255\332\253"
 111      DF5771D5 
 111      79A5A6B2 
 111      EC5A55AD 
 111      DAAB
 112 02b0 6B6B7E03 		.ascii	"kk~\003\233V:\014"
 112      9B563A0C 
 113              		.text
 114              		.section	.gnu.lto_u8x8_null_display_info.bf14d063,"",%progbits
 115 0000 789C25CC 		.ascii	"x\234%\314;\012\302@\024\205\341{f\022\215\317\250\265"
 115      3B0AC240 
 115      1485E17B 
 115      66128DCF 
 115      A8B5
 116 0012 0BC9F252 		.ascii	"\013\311\362R\230`m)\012v>\301\020DP[A\020\033\027\340"
 116      98606D29 
 116      0A763EC1 
 116      1044505B 
 116      41101B17 
 117 0027 0AB40C88 		.ascii	"\012\264\014\210\205\301\271\236\201\341\233\177^\236"
 117      85C1B99E 
 117      81E19B7F 
 117      5E9E
 118 0035 40743CDD 		.ascii	"@t<\335\344J\344k0>\025W\2770\211\025\004.\267\257\303"
 118      E44AE46B 
 118      303E1557 
 118      BF308915 
 118      042EB7AF 
 119 004a A7A509E8 		.ascii	"\247\245\011\350\351\356|I\003&\\\336\007\331\3042="
 119      E9EE7C49 
 119      03265CDE 
 119      07D9C432 
 119      3D
 120 005b 978F3C9F 		.ascii	"\227\217<\237\376\337\032\304\243B/\334\216\3574\214"
 120      FEDF1AC4 
 120      A3422FDC 
 120      8EEF348C 
 121 006b F6F17016 		.ascii	"\366\361p\026g~bmi\004\013\364K\003,\025\303\262\304"
 121      677E626D 
 121      69040BF4 
 121      4B032C15 
 121      C3B2C4
 122 007e 233EA990 		.ascii	"#>\251\220*\011\260Vj\254:VJ\203\325$-\376\331&!7;\244"
 122      2A09B056 
 122      6AAC3A56 
 122      4A83D524 
 122      2DFED926 
 123 0096 8BB9D253 		.ascii	"\213\271\322S\004\033D\362\003\223\241I\375"
 123      041B44F2 
 123      0393A149 
 123      FD
 124              		.text
 125              		.section	.gnu.lto_u8x8_SetupDefaults.bf14d063,"",%progbits
 126 0000 789C9594 		.ascii	"x\234\225\224\315k\023A\030\207\3477\263\311&b\373\007"
 126      CD6B1341 
ARM GAS  C:\Users\info\AppData\Local\Temp\cclKgTbE.s 			page 9


 126      1887E737 
 126      B3C92662 
 126      FB07
 127 0012 68857A2A 		.ascii	"h\205z*=\230\210^\372\037x\027\021\304B\017\241xUkA"
 127      3D98885E 
 127      FA1F7817 
 127      11C4420F 
 127      A178556B 
 128 0027 BCEC24E9 		.ascii	"\274\354$\351\322\036\025\321\203D\252Hi\375jS\277\343"
 128      D21E15D1 
 128      8344AA48 
 128      69FD6A53 
 128      BFE3
 129 0039 671AABD5 		.ascii	"g\032\253\325\210\226b\021E\021\2535\005I\353\006\""
 129      88966211 
 129      4511AB35 
 129      0549EB06 
 129      22
 130 004a 82D0C6F7 		.ascii	"\202\320\306\367\2355\241%\027wa\231\231\235\231\347"
 130      9D35A125 
 130      17776199 
 130      999D99E7 
 131 005a 79DFF958 		.ascii	"y\337\371XK@\360S\260\204\330N\345Vz\241\004\344\311"
 131      4B40F053 
 131      B084D84E 
 131      E5567AA1 
 131      04E4C9
 132 006d 37422423 		.ascii	"7B$#\022\340\212\216@8\022\016~\311U\211\302`)';G5="
 132      12E08A8E 
 132      4038120E 
 132      7EC95589 
 132      C2602927 
 133 0085 5FBEFFDC 		.ascii	"_\276\377\334\251\307\362p\225\0205iH\002\243\350\244"
 133      A9C7F270 
 133      95103569 
 133      4802A3E8 
 133      A4
 134 0096 517303D9 		.ascii	"Qs\003\331\214\252JW\001\0265+\257\317}k\345\246D;5"
 134      8CAA4A57 
 134      0116352B 
 134      AFCF7D6B 
 134      E5A6443B 
 135 00ab 2FCC5FFA 		.ascii	"/\314_\372\024V\333 \250~\2668\277\322\3221\242uJ\353"
 135      1456DB20 
 135      A87EB638 
 135      BFD2D231 
 135      A2754AEB 
 136 00bf D3BD3AEA 		.ascii	"\323\275:\352*\205+P\304\303e\264a\014m\202>\011\\E"
 136      2A852B50 
 136      C4C365B4 
 136      610C6D82 
 136      3E095C45 
 137 00d3 070FFF3A 		.ascii	"\007\017\377:\271v\246%<\300\372v_\212k\010s\032\023"
 137      B976A625 
 137      3CC0FA76 
 137      5F8A6B08 
 137      731A13
ARM GAS  C:\Users\info\AppData\Local\Temp\cclKgTbE.s 			page 10


 138 00e6 7BF3BA56 		.ascii	"{\363\272VK\353\374){\352\275\335J\301\363\024\341\321"
 138      4BEBFC29 
 138      7BEABDDD 
 138      4AC1F314 
 138      E1D1
 139 00f8 18CEA222 		.ascii	"\030\316\242\"%\227\252\204T\325[L\332<\215\365na\326"
 139      2597AA84 
 139      54D55B4C 
 139      DA3C8DF5 
 139      6E61D6
 140 010b E6C89489 		.ascii	"\346\310\224\211\346\367Lqh\3630\316'Y\260\233\314V"
 140      E6F74C71 
 140      68F330CE 
 140      2759B09B 
 140      CC56
 141 011d 9A62BE4E 		.ascii	"\232b\276NAp\357\310bj\334\216\357pU\010\343\030\306"
 141      4170EFC8 
 141      626ADC8E 
 141      EF705508 
 141      E318C6
 142 0130 9AC91913 		.ascii	"\232\311\031\023\210\257\007\205 \220\245\011$\3723"
 142      88AF0785 
 142      2090A509 
 142      24FA33
 143 013f F82ED3FD 		.ascii	"\370.\323\375O\364\237\3440&\015\2313\302\015C\316\345"
 143      4FF49FE4 
 143      30260D99 
 143      33C20D43 
 143      CEE5
 144 0151 CA1F6D67 		.ascii	"\312\037mgU\017\321\304#\256\262k\334\211\233p|\305"
 144      550FD1C4 
 144      23AEB26B 
 144      DC899B70 
 144      7CC5
 145 0163 E7CCBEA0 		.ascii	"\347\314\276\240\212[Fa\026\357v\223\342@Cq\247\256"
 145      8A5B4661 
 145      16EF7693 
 145      E2404371 
 145      A7AE
 146 0175 2865F607 		.ascii	"(e\366\007U\3345\012\305\212{M\212\203\015E\256\256"
 146      55DC350A 
 146      C58A7B4D 
 146      8A830D45 
 146      AEAE
 147 0187 58C99C08 		.ascii	"X\311\234\010\252\270o\024\026+\0364)\234\206\342\241"
 147      AAB86F14 
 147      162B1E34 
 147      299C86E2 
 147      A1
 148 0198 AFA86697 		.ascii	"\257\250f\227\222\321`\212\010\036\031E\210\025\217"
 148      92D1608A 
 148      081E1945 
 148      88158F
 149 01a7 37EE32DD 		.ascii	"7\3562\335\011<\361w\271\352-]\264\203\222\363\206\034"
 149      093CF177 
 149      B9EA2D5D 
 149      B48392F3 
ARM GAS  C:\Users\info\AppData\Local\Temp\cclKgTbE.s 			page 11


 149      861C
 150 01b9 66F214E2 		.ascii	"f\362\024\342\015T\266\274\020\012\212*\030\224\315"
 150      0D54B6BC 
 150      100A8A2A 
 150      1894CD
 151 01c8 A8A7EB50 		.ascii	"\250\247\353P^y. *\212i\203\2120\352\331\306|\243\224"
 151      5E792E20 
 151      2A8A6983 
 151      8A30EAD9 
 151      C67CA394 
 152 01dc EFF37A90 		.ascii	"\357\363z\220\313\225\300A\316\030r\224\311/\014\371"
 152      CB95C041 
 152      CE187294 
 152      C92F0CF9 
 153 01ec 6D7A7A56 		.ascii	"mzzV\371+Y\003^\326\203^^\010\274IE\203\336\304\350"
 153      F92B5903 
 153      5ED6835E 
 153      5E08BC49 
 153      4583DEC4 
 154 0201 57943FA3 		.ascii	"W\224?\243~ \225\377\260\207A\346\247\344\321A\240\273"
 154      7E2095FF 
 154      B08741E6 
 154      A7E4D141 
 154      A0BB
 155 0213 4F077E4B 		.ascii	"O\007~K,\326\335\337uhWO\242\357h\202j\307\273z\372"
 155      2CD6DDDF 
 155      7568574F 
 155      A2EF6882 
 155      6AC7BB7A 
 156 0228 7A8FF51F 		.ascii	"z\217\365\037\216%\204\305\255\277\226\204\252\\"
 156      8E2584C5 
 156      ADBF9684 
 156      AA5C
 157              		.text
 158              		.section	.gnu.lto_u8x8_Setup.bf14d063,"",%progbits
 159 0000 789C9592 		.ascii	"x\234\225\222\337K\223Q\030\307\317\367=\257{\267\341"
 159      DF4B9351 
 159      18C7CFF7 
 159      3DAF7BB7 
 159      E1
 160 0011 FA715B06 		.ascii	"\372q[\006\322\315\360\302I\321\205\027\375\005A7]\007"
 160      D2CDF0C2 
 160      49D18517 
 160      FD054137 
 160      5D07
 161 0023 43B72142 		.ascii	"C\267!B\324h\012I\027;\316\015\275\250\220\"+\247(\310"
 161      D4680A49 
 161      173BCE0D 
 161      BDA89022 
 161      2BA728C8 
 162 0037 98FD5267 		.ascii	"\230\375Rg\245-\373\261\006%\014\234\204\353\246\037"
 162      A52DFBB1 
 162      06250C9C 
 162      84EBA61F 
 163 0047 18151221 		.ascii	"\030\025\022!\342\372\201W\272\236\347l\026\304\210"
 163      E2FA8157 
 163      BA9EE76C 
ARM GAS  C:\Users\info\AppData\Local\Temp\cclKgTbE.s 			page 12


 163      16C488
 164 0056 3CF072CE 		.ascii	"<\360r\316\363\276\317\347{\236\347\373\274\246\200"
 164      F3BECFE7 
 164      7B9EE7FB 
 164      BCA680
 165 0065 E0159242 		.ascii	"\340\025\222B\034\247}?=\220\002F\177^\210n\273\001"
 165      1CA77D3F 
 165      3D900246 
 165      7F5E886E 
 165      BB01
 166 0077 F041D921 		.ascii	"\360A\331!\302\006\302\370il\032\310\366\256\244\215"
 166      C206C2F8 
 166      696C1AC8 
 166      F6AEA48D 
 167 0087 86A4A2F5 		.ascii	"\206\244\242\365!1vH\215g\020#\274dh%\201$\032(\353"
 167      21317648 
 167      8D671023 
 167      BC646825 
 167      81241A28 
 168 009c 55746A48 		.ascii	"UtjH\3760b\0220),.\014~\332\305\241\201z\012G\013c\357"
 168      FE306212 
 168      30292C2E 
 168      0C7EDAC5 
 168      A1817A0A 
 169 00b4 6CF20004 		.ascii	"l\362\000\004\235\007r\2055\227;\241TD\251\357~\345"
 169      9D077285 
 169      35973BA1 
 169      5444A9EF 
 169      7EE5
 170 00c6 8849895B 		.ascii	"\210I\211[\220\244\207\233\250\3038\352\004\275\022"
 170      90A4879B 
 170      A8C338EA 
 170      04BD12
 171 00d5 B80D3765 		.ascii	"\270\0157e/eF\343\016yP\223\351\027\275\347+\340l\200"
 171      2F6546E3 
 171      0E795093 
 171      E917BDE7 
 171      2BE06C80 
 172 00e9 411377FE 		.ascii	"A\023w\376\006M\201\273\032\274t\343\333\234%\0335x"
 172      064D81BB 
 172      1ABC74E3 
 172      DB9C251B 
 172      3578
 173 00fb E14D326E 		.ascii	"\341M2nV\310k/kU?\230\235\250\302Nj6\232\274\030w\311"
 173      56C86B2F 
 173      6B553F98 
 173      9DA8C24E 
 173      6A369ABC 
 174 0112 239A5D1B 		.ascii	"#\232]\033\272\376^V\330\345\337\354T\0256\245\331\217"
 174      BAFE5E56 
 174      D8E5DFEC 
 174      541536A5 
 174      D98F
 175 0124 A98D55BB 		.ascii	"\251\215U\273<\252\331+3\271\001G\205M\317o\263\323"
 175      3CAAD92B 
 175      33B90147 
 175      854DCF6F 
ARM GAS  C:\Users\info\AppData\Local\Temp\cclKgTbE.s 			page 13


 175      B3D3
 176 0136 55D87B70 		.ascii	"U\330{p\013\015o]u\331\242\354u}\331a\334\207\215g6"
 176      0B0D6F5D 
 176      75D9A2EC 
 176      757DD961 
 176      DC878D67 
 177 014b 7922A34A 		.ascii	"y\"\243J\245\036\225\031v>/8]4)\362\307\0047k\003\227"
 177      A51E9519 
 177      763E2F38 
 177      5D3429F2 
 177      C704376B 
 178 0161 6D0717E0 		.ascii	"m\007\027\340\204\226\022\353\304\362(\213\206\301\273"
 178      849612EB 
 178      C4F2288B 
 178      86C1BB
 179 0170 FC826826 		.ascii	"\374\202h&\225\003\253i'\323\253o\255\360\246\352Sj"
 179      9503AB69 
 179      27D3AB6F 
 179      ADF0A6EA 
 179      536A
 180 0182 4F4CD694 		.ascii	"OL\326\224\014\272\002\017\020\026=\222ff\023+\210\014"
 180      0CBA020F 
 180      10163D92 
 180      6666132B 
 180      880C
 181 0194 1617B235 		.ascii	"\026\027\2625\234\317#\213e\027-\236\246\324mm\314\347"
 181      9CCF238B 
 181      65172D9E 
 181      A6D46D6D 
 181      CCE7
 182 01a6 FA6A4730 		.ascii	"\372jG0\334\315u\356\216I\213(\314P+\3741\36192a55r"
 182      DCCD75EE 
 182      8E498B28 
 182      CC502BFC 
 182      31F13932 
 183 01be A3B318C1 		.ascii	"\243\263\030\301\226\376M\360\020M=\324'\353\246\362"
 183      96FE4DF0 
 183      104D3DD4 
 183      27EBA6F2 
 184 01ce 916DDDFF 		.ascii	"\221m\335\377\025Jk!\266\001\217X\250R`\376\362N\205"
 184      154A6B21 
 184      B6018F58 
 184      A85260FE 
 184      F24E85
 185 01e1 E6B490F6 		.ascii	"\346\264\220\366\3651\013\331\313\025-N[;\024z\242\205"
 185      F5310BD9 
 185      CB152D4E 
 185      5B3B147A 
 185      A285
 186 01f3 240B3D65 		.ascii	"$\013=e!\247`\207\227\376\3410]\212g\177\034\376\212"
 186      21A76087 
 186      97FEE130 
 186      5D8A677F 
 186      1CFE8A
 187 0206 48E6F531 		.ascii	"H\346\3651\235\315k\235\272\2439Q\322>\217\347dgs\333"
 187      9DCD6B9D 
 187      BAA33951 
ARM GAS  C:\Users\info\AppData\Local\Temp\cclKgTbE.s 			page 14


 187      D23E8FE7 
 187      646773DB 
 188 021a 61AF2F74 		.ascii	"a\257/t\326G\247s\315\336P\240\2433\350\361\011\223"
 188      D647A773 
 188      CDDE50A0 
 188      A333E8F1 
 188      0993
 189 022c 23A7BF3D 		.ascii	"#\247\277=\024<\325\322\345\365\265\332|-~\332\254\326"
 189      143CD5D2 
 189      E5F5B5DA 
 189      7C2D7EDA 
 189      ACD6
 190 023e AE8E00ED 		.ascii	"\256\216\000\355{\333\202\355g\274-\247\375^\177\240"
 190      7BDB82ED 
 190      67BC2DA7 
 190      FD5E7FA0 
 191 024e 9CF00BF1 		.ascii	"\234\360\013\361\025:Y"
 191      153A59
 192              		.text
 193              		.section	.gnu.lto_.symbol_nodes.bf14d063,"",%progbits
 194 0000 789C55C9 		.ascii	"x\234U\311\273\015\203@\020E\321;\237]rW`\347\3648["
 194      BB0D8340 
 194      1045D13B 
 194      9F5D7257 
 194      60E7F438 
 195 0015 820B2040 		.ascii	"\202\013 @\226\253p\354\230\032\260D\0118E^\023 v\222"
 195      96AB70EC 
 195      981AB044 
 195      0938455E 
 195      13207692 
 196 0029 A77BC611 		.ascii	"\247{\306\021\006\352)\001\367\211\377\274\306[\005"
 196      06EA2901 
 196      F789FFBC 
 196      C65B05
 197 0038 0D39A054 		.ascii	"\0159\240THB\271\200\251\2056\017\365\260\006$\207\357"
 197      4842B980 
 197      A985360F 
 197      F5B00624 
 197      87EF
 198 004a 00A55C6B 		.ascii	"\000\245\\k\247HMw\221\317m\222Y\326\336$\361\374\366"
 198      A7484D77 
 198      91CF6D92 
 198      59D6DE24 
 198      F1FCF6
 199 005d E6C663DE 		.ascii	"\346\306c\336\304\274\343\375\331\204\037\027\336\""
 199      C4BCE3FD 
 199      D9841F17 
 199      DE22
 200 006b 84       		.ascii	"\204"
 201              		.text
 202              		.section	.gnu.lto_.refs.bf14d063,"",%progbits
 203 0000 789C0DC4 		.ascii	"x\234\015\304\261\001\0000\010\3030\307\204\017\370"
 203      B1010030 
 203      08C330C7 
 203      840FF8
 204 000f FFD65683 		.ascii	"\377\326V\203J8 \321\351\210\362\257,\017\004\031\000"
 204      4A3820D1 
ARM GAS  C:\Users\info\AppData\Local\Temp\cclKgTbE.s 			page 15


 204      E988F2AF 
 204      2C0F0419 
 204      00
 205 0020 40       		.ascii	"@"
 206              		.text
 207              		.section	.gnu.lto_.decls.bf14d063,"",%progbits
 208 0000 789CBD58 		.ascii	"x\234\275X{P\024G\036\336\236^`Y\026P \206JQ\011\025"
 208      7B501447 
 208      1EDE9E5E 
 208      60591650 
 208      20864A51 
 209 0016 8D728F10 		.ascii	"\215r\217\0201\271\034u\177\\]*\251\344\352\252\356"
 209      31B91C75 
 209      7F5C5D2A 
 209      A9E4EAAA 
 209      EE
 210 0027 55775A57 		.ascii	"UwZW9\356\346\226e\221\275\300\262\307.F\362\327\200"
 210      39EEE696 
 210      6591BDC0 
 210      B2C72E46 
 210      F2D780
 211 003a 480C3EC0 		.ascii	"H\014>\300\007(\242\007*\010\010*\002\202\010\310\372"
 211      0728A207 
 211      2A08082A 
 211      028208C8 
 211      FA
 212 004b C2B72088 		.ascii	"\302\267 \210OP|\243\210\242\250\210h\270_w\317\356"
 212      4F507CA3 
 212      88A2A888 
 212      68B85F77 
 212      CFEE
 213 005d F4E250F7 		.ascii	"\364\342P\367\317\345\246\374\230\371u\177\375{|\335"
 213      CFE5A6FC 
 213      98F9757F 
 213      FD7B7CDD 
 214 006d D3D3AB56 		.ascii	"\323\323\253V\2034\344\372\354M\215\246E\013wA\243\031"
 214      8334E4FA 
 214      EC4D8DA6 
 214      450B7741 
 214      A319
 215 007f 87CB1BDA 		.ascii	"\207\313\033\332\346\001\300\324\214\002\234\032v\371"
 215      E601C0D4 
 215      8C029C1A 
 215      76F9
 216 008d 003E8121 		.ascii	"\000>\201!\237\002\276\000\374\036\360G\300<\300_\000"
 216      9F02BE00 
 216      FC1EF047 
 216      C03CC05F 
 216      00
 217 009e C4DB9748 		.ascii	"\304\333\227H\343q\021\276\227\354#\010\020\002x\007"
 217      E37111BE 
 217      97EC2308 
 217      10027807 
 218 00ae DAE6CAFD 		.ascii	"\332\346\312\375H\346L\274H\014\303$\343Hn\177E,\267"
 218      48E64CBC 
 218      480CC324 
 218      E3486E7F 
ARM GAS  C:\Users\info\AppData\Local\Temp\cclKgTbE.s 			page 16


 218      452CB7
 219 00c1 E780B9F0 		.ascii	"\347\200\271\360\034\003\370\\\366\203\345\361\363\344"
 219      1C03F85C 
 219      F683E5F1 
 219      F3E4
 220 00cf FCA034CD 		.ascii	"\374\2404\315\337\340\376w\200\210^\317\361K\2313\023"
 220      DFE0FE77 
 220      80885ECF 
 220      F14B9933 
 220      13
 221 00e0 10069825 		.ascii	"\020\006\230%\373\015\006\334\001\334\004\\\007\364"
 221      FB0D06DC 
 221      01DC045C 
 221      07F4
 222 00ee 03EE021E 		.ascii	"\003\356\002\036\003\372\0007\000\367\001\017\001\203"
 222      03FA0037 
 222      00F7010F 
 222      0183
 223 00fc 807B8021 		.ascii	"\200{\200!\300\023\3005\300\000\3406\340\001`\370\365"
 223      C013C035 
 223      C000E036 
 223      E00160F8 
 223      F5
 224 010d 12E94574 		.ascii	"\022\351Et\324\3135\361u\206\313\365E\301}\016b:t\001"
 224      D4CB35F1 
 224      7586CBF5 
 224      45C17D0E 
 224      623A7401 
 225 0121 FC00BF04 		.ascii	"\374\000\277\004;\032\360s\300\307\200\331\200\237\000"
 225      3B1AF073 
 225      C0C780D9 
 225      809F00
 226 0130 2200B300 		.ascii	"\"\000\263\000\037\000~\014x\017\2619$1\3244&\363\247"
 226      1F007E0C 
 226      780FB139 
 226      2431D434 
 226      26F3A7
 227 0143 53891DC5 		.ascii	"S\211\035\305\351\031.k31\036\226\307\177!\317\375\304"
 227      E9192E6B 
 227      33311E96 
 227      C77F21CF 
 227      FDC4
 228 0155 EB9580CE 		.ascii	"\353\225\200\316dVo\300O\004\024\244GZ0\037\235Z\177"
 228      64566FC0 
 228      4F0414A4 
 228      475A301F 
 228      9D5A7F
 229 0168 2300CC10 		.ascii	"#\000\314\020=\012\007\263\251\241\271\315\213\231\263"
 229      3D0A07B3 
 229      A9A1B9CD 
 229      8B99B3
 230 0177 C1EC1C3A 		.ascii	"\301\354\034:\271\321\217\221\247\200yx|\304\031\310"
 230      B9D18F91 
 230      A7807978 
 230      7CC419C8 
 231 0187 4C81EB0D 		.ascii	"L\201\353\015a\275\313\272\352?\304\002\"AJ_\214\015"
 231      61BDCBBA 
ARM GAS  C:\Users\info\AppData\Local\Temp\cclKgTbE.s 			page 17


 231      EA3FC402 
 231      22414A5F 
 231      8C0D
 232 0199 912033F5 		.ascii	"\221 3\365h|\034C\303\316\373\215\243\376\254\201\364"
 232      687C1C43 
 232      C3CEFB8D 
 232      A3FEAC81 
 232      F4
 233 01aa 5F1D2DFF 		.ascii	"_\035-\377<\262J\202+W\222\204\267\225\354ZO\034\333"
 233      3CB24A82 
 233      2B579284 
 233      B795EC5A 
 233      4F1CDB
 234 01bd 6AC06F12 		.ascii	"j\300o\022\222P\342\314X\214\220>b\211$eH\322\"I_\036"
 234      9250E2CC 
 234      588C903E 
 234      62892465 
 234      48D22249 
 235 01d3 A0415528 		.ascii	"\240AU(\014U\2420\015\252E\021\304[5\212\324\240\235"
 235      0C55A230 
 235      0DAA4511 
 235      C45B358A 
 235      D4A09D
 236 01e6 D0B8031A 		.ascii	"\320\270\003\032\267\022\217}y\203\277Y$I\010\325 ="
 236      B7128F7D 
 236      7983BF59 
 236      244908D5 
 236      203D
 237 01f8 DA8530A5 		.ascii	"\332\2050\245\300\222\236\251g!\366\255\274|[\217K\021"
 237      C0929EA9 
 237      6721F6AD 
 237      BC7C5B8F 
 237      4B11
 238 020a 8D513174 		.ascii	"\215Q1t\262*p\322\030\365\223\306hY:\023\322\237\202"
 238      B22A70D2 
 238      18F593C6 
 238      68593A13 
 238      D29F82
 239 021d 76438C3A 		.ascii	"vC\214:%\006\204dA\036d\336\352\223\245\011\005\263"
 239      25068464 
 239      411E64DE 
 239      EA93A509 
 239      05B3
 240 022f AAFBC22B 		.ascii	"\252\373\302+\204K\2318;\027\337\254\320A_\030\210\203"
 240      844B9938 
 240      3B17DFAC 
 240      D0415F18 
 240      8883
 241 0241 386DC298 		.ascii	"8m\302\2306u\316\341\355Z\334@\271\302\231\332\213\207"
 241      3675CEE1 
 241      ED5ADC40 
 241      B9C299DA 
 241      8B87
 242 0253 7D51845E 		.ascii	"}Q\204^\256\354\351'\264\262\026\210\332\244D\015#A"
 242      AEECE927 
 242      B4B21688 
 242      DAA4440D 
ARM GAS  C:\Users\info\AppData\Local\Temp\cclKgTbE.s 			page 18


 242      2341
 243 0265 6905439B 		.ascii	"i\005C\233%\357P\015\3720\014\315\206\364\233!\3750"
 243      25EF500D 
 243      FA300CCD 
 243      86F49B21 
 243      FD30
 244 0277 39FDBD90 		.ascii	"9\375\275\220~#\244\017\001*\212\312\017\371\343\375"
 244      7E23A40F 
 244      012A8ACA 
 244      0FF9E3FD 
 245 0287 2CC0E09A 		.ascii	",\300\340\232\201%\330\035\240eiX%)\313\011\001\366"
 245      8125D81D 
 245      A0656958 
 245      2529CB09 
 245      01F6
 246 0299 29015AD0 		.ascii	")\001Z\320$\021Z\325#\234\372~h\037\306\307X\271\333"
 246      24115AD5 
 246      239CFA7E 
 246      681FC6C7 
 246      58B9DB
 247 02ac FBB2BABC 		.ascii	"\373\262\272\274\360%fl}\271\251\316\200o3\243\374\366"
 247      F025666C 
 247      7DB9A9CE 
 247      806F33A3 
 247      FCF6
 248 02be 86150626 		.ascii	"\206\025\006&R4\230\353\233\236\034\367b\253K\007f\333"
 248      523498EB 
 248      9B9E1CF7 
 248      62AB4B07 
 248      66DB
 249 02d0 48CB162F 		.ascii	"H\313\026/\374\210Q\263\227n\333\024\200\26305\012\207"
 249      FC8851B3 
 249      976EDB14 
 249      80B33035 
 249      0A87
 250 02e2 7BEFFAB2 		.ascii	"{\357\372\262q\021`.^V\331\214q\001\353\353\270Z\363"
 250      7111602E 
 250      5E56D98C 
 250      7101EBEB 
 250      B85AF3
 251 02f5 D41BEF60 		.ascii	"\324\033\357`\306\325++\377\211\033\330s\357\321\212"
 251      C6D52B2B 
 251      FF891BD8 
 251      73EFD18A 
 252 0305 4AB22467 		.ascii	"J\262$g\221%9>\036\310\011?\213\011\337\231\363\270"
 252      9125393E 
 252      1EC8093F 
 252      8B09DF99 
 252      F3B8
 253 0317 C4071FA2 		.ascii	"\304\007\037\242t\241mym\215\237\"|\251\241\221\350"
 253      74A16D79 
 253      6D8D9F22 
 253      7CA9A191 
 253      E8
 254 0328 D201BA9C 		.ascii	"\322\001\272\234Vt\231\345\226%w\221\024t\024\226N9"
 254      567499E5 
 254      96257791 
ARM GAS  C:\Users\info\AppData\Local\Temp\cclKgTbE.s 			page 19


 254      14741496 
 254      4E39
 255 033a 88504696 		.ascii	"\210PF\226N;(3KV\346\0244\236\224\265/Y\271\331\033"
 255      4E3B2833 
 255      4B56E614 
 255      349E94B5 
 255      2F59B9D9 
 256 034f B7B31805 		.ascii	"\267\263\030\005u\333F\364\234\366\037\321%\325\005"
 256      75DB46F4 
 256      9CF61FD1 
 256      25D505
 257 035e 31CE2831 		.ascii	"1\316(1:\320\344A:\325\203\014\234\355\\\351\205/\260"
 257      3AD0E441 
 257      3AD5830C 
 257      9CED5CE9 
 257      852FB0
 258 0371 BA5FD57C 		.ascii	"\272_\325|\333\244\305\003\314\270st\364\211\037~\305"
 258      DBA4C503 
 258      CCB87374 
 258      F4891F7E 
 258      C5
 259 0382 8C170732 		.ascii	"\214\027\0072\032\021\316\325R\243\376\300\350I/\\\312"
 259      1A11CED5 
 259      52A3FEC0 
 259      E8492F5C 
 259      CA
 260 0393 8C071995 		.ascii	"\214\007\031\225%\010\357cFG\336`\276\200\3173\343\345"
 260      2508EF63 
 260      4647DE60 
 260      BE80CF33 
 260      E3E5
 261 03a5 D8EA742F 		.ascii	"\330\352t/|\217\031\255=\375U~\370\245<F^\361Al\305"
 261      7C8F19AD 
 261      3DFD557E 
 261      F8A53C46 
 261      5EF1416C 
 262 03ba 5737670E 		.ascii	"W7g\016\312\373\212\223,\362\362\345C\007\3658\317\213"
 262      CAFB8A93 
 262      2CF2F2E5 
 262      4307F538 
 262      CF8B
 263 03cc 70DF486F 		.ascii	"p\337Ho=u\304\007\315 W\360\014\345\212\000l&\205\366"
 263      3D75C407 
 263      CD2057F0 
 263      0CE58A00 
 263      6C2685F6 
 264 03e0 E50DD85A 		.ascii	"\345\015\330Z\352{$)\313@\227b7\310q\013\005\273V\335"
 264      EA7B2429 
 264      CB409762 
 264      37C8710B 
 264      05BB56DD 
 265 03f4 07F03940 		.ascii	"\007\3609@\025\210|\024(\335\331\334\351'U\377\203R"
 265      15887C14 
 265      28DDD9DC 
 265      E92755FF 
 265      8352
 266 0406 0F7852B7 		.ascii	"\017xR\267\021\026\030n\352\272v7\365\242\212\327*\316"
ARM GAS  C:\Users\info\AppData\Local\Temp\cclKgTbE.s 			page 20


 266      1116186E 
 266      EABA7637 
 266      F5A28AD7 
 266      2ACE
 267 0418 EB59857A 		.ascii	"\353Y\205zV\205z\210\243\256Q\250\227T\2504\376Jy\273"
 267      56857A88 
 267      A3AE51A8 
 267      9754A834 
 267      FE4A79BB 
 268 042c 93904383 		.ascii	"\223\220C\203\256\300l\365\222)\354\221\3510\207\350"
 268      AEC06CF5 
 268      9229EC91 
 268      E93087E8 
 269 043c 114CE71D 		.ascii	"\021L\347\0354\003\335\004\\\007\364\003\356\002\036"
 269      3403DD04 
 269      5C07F403 
 269      EE021E
 270 044b 03FA0037 		.ascii	"\003\372\0007\000\367\001\017\001\203\200{\200!\300"
 270      00F7010F 
 270      0183807B 
 270      8021C0
 271 045a 13C035C0 		.ascii	"\023\3005\300\000\3406\340\001`\030\315\240{*\313\257"
 271      00E036E0 
 271      016018CD 
 271      A07B2ACB 
 271      AF
 272 046b 5311688F 		.ascii	"S\021h\217\232@\015\\-\253\224Z.\253\324\022\2450\327"
 272      9A400D5C 
 272      2DAB945A 
 272      2EABD412 
 272      A530D7
 273 047e 2BCC0B2A 		.ascii	"+\314\013*L\336\351\006\205z^\205Z\316Q\253\225\\\217"
 273      4CDEE906 
 273      857A5E85 
 273      5ACE51AB 
 273      955C8F
 274 0491 78520FA3 		.ascii	"xR\017\243\211\023\337\241p\367\253\325\305O\347\345"
 274      8913DFA1 
 274      70F7ABD5 
 274      C54FE7E5 
 275 04a1 9C8002C9 		.ascii	"\234\200\002\311\231\211\351\013vBf\273_%\346\233+."
 275      9989E90B 
 275      764266BB 
 275      5F25E69B 
 275      2B2E
 276 04b3 AFD37FAD 		.ascii	"\257\323\177\255\344L\307\324\3711\265D\216r\316\207"
 276      E44CC7D4 
 276      F931B544 
 276      8E72CE87 
 277 04c3 5705AC93 		.ascii	"W\005\254\223\234\031\230~\020\266\313l\367w\204%\303"
 277      9C19987E 
 277      10B6CB6C 
 277      F7778425 
 277      C3
 278 04d4 1739DECE 		.ascii	"\0279\336\316y?\256\346\235g\327)e\266\251q\331R\244"
 278      793FAEE6 
 278      9D67D729 
ARM GAS  C:\Users\info\AppData\Local\Temp\cclKgTbE.s 			page 21


 278      65B6A971 
 278      D952A4
 279 04e7 DB88736C 		.ascii	"\333\210sl\205A\222t\204\243\221\267\020e\031\024\361"
 279      85419274 
 279      84A391B7 
 279      10651914 
 279      F1
 280 04f8 51CFA9CC 		.ascii	"Q\317\251\314\003_\322S\276\244\253\352%\361s\321\304"
 280      035FD253 
 280      BEA4ABEA 
 280      25F173D1 
 280      C4
 281 0509 0B76506D 		.ascii	"\013vPm6\250\272\260\027\\\314),\010\304\015t/\020N"
 281      36A8BAB0 
 281      175CCC29 
 281      2C08C40D 
 281      742F104E 
 282 051d DD5CDF1A 		.ascii	"\335\\\337\032\200\202#\324_\217\021x%~\310\327\203"
 282      808223D4 
 282      5F8F1178 
 282      257EC8D7 
 282      83
 283 052e 695670FA 		.ascii	"iVp\372\247D\263g\020\350\251\262\363\022\011i\276\233"
 283      A744B367 
 283      10E8A9B2 
 283      F3120969 
 283      BE9B
 284 0540 CACB96A3 		.ascii	"\312\313\226\243`9A\347\244\011j\376\347\331A\354\254"
 284      603941E7 
 284      A4096AFE 
 284      E7D941EC 
 284      AC
 285 0551 ECE17464 		.ascii	"\354\341td\310V\266\177\364\234[\266\0324\212\310y\234"
 285      C856B67F 
 285      F49C5BB6 
 285      1A348AC8 
 285      799C
 286 0563 DE81BD27 		.ascii	"\336\201\275'{\335\263\300\313\260\263\301WS>\376!\304"
 286      7BDDB3C0 
 286      CBB0B3C1 
 286      57533EFE 
 286      21C4
 287 0575 FE220A0D 		.ascii	"\376\"\012\015\0035\341A\320\310?\020\344&\367M\343"
 287      0335E141 
 287      D0C83F10 
 287      E426F74D 
 287      E3
 288 0586 A6C88F8A 		.ascii	"\246\310\217\2123\372\317u\037w]\324\211\342\035\311"
 288      33FACF75 
 288      1F775DD4 
 288      89E21DC9 
 289 0596 83903B03 		.ascii	"\203\220;\003\371\231\366\013J\000\304L\327\000\316"
 289      F999F60B 
 289      4A00C44C 
 289      D700CE
 290 05a5 1F4B97CB 		.ascii	"\037K\227\313\011y\326\204\\\022u\334\254\377\015>A"
 290      0979D684 
ARM GAS  C:\Users\info\AppData\Local\Temp\cclKgTbE.s 			page 22


 290      5C1275DC 
 290      ACFF0D3E 
 290      41
 291 05b6 5713DA51 		.ascii	"W\023\332Q5V\255\327\302\361\032\3155\240X-i\272\234"
 291      3556ADD7 
 291      C2F11ACD 
 291      35A0582D 
 291      69BA9C
 292 05c9 5576C28F 		.ascii	"Uv\302\2176\221\205\371\022\321\306\356\013W\272}\335"
 292      369185F9 
 292      12D1C6EE 
 292      0B57BA7D 
 292      DD
 293 05da 8DAF58A3 		.ascii	"\215\257X\243\353\\\021\304\316\025R\177f\221\200/2"
 293      EB5C11C4 
 293      CE15527F 
 293      6691802F 
 293      32
 294 05eb C7ADFD2B 		.ascii	"\307\255\375+[u\270\237\031\035e\203\347\003\260\344"
 294      5B75B89F 
 294      191D6583 
 294      E703B0E4 
 295 05fb 4D8DFEE2 		.ascii	"M\215\376\342\326\032\035.d\206\3538\035\304\216\323"
 295      D61A1D2E 
 295      6486EB38 
 295      1DC48ED3 
 296 060b 79CE552F 		.ascii	"y\316U/\365\270\214\365\035k\274>\033\327\260\347g'"
 296      F5B88CF5 
 296      1D6BBC3E 
 296      1BD7B0E7 
 296      6727
 297 061d CEF662BC 		.ascii	"\316\366b\274\237\0319\007Z\016\352\360)f\264\365\\"
 297      9F193907 
 297      5A0EEAF0 
 297      2966B4F5 
 297      5C
 298 062e EAD6E28B 		.ascii	"\352\326\342\213\314Ho9X\353\217\0370\343Um-\274V#\314"
 298      CC486F39 
 298      58EB8F1F 
 298      30E3556D 
 298      2DBC5623 
 299 0643 B89D5DF1 		.ascii	"\270\235]\361\310\200%\037jl\354\276\236\353\253\227"
 299      C880251F 
 299      6A6CECBE 
 299      9EEBAB97 
 300 0653 CF67B9FF 		.ascii	"\317g\271\377\375|v\267\247\341\245\301cQ-\027\364\334"
 300      FD7C76B7 
 300      A7E1A5C1 
 300      63512D17 
 300      F4DC
 301 0665 A25A2118 		.ascii	"\242Z!\030dm3\357m\031Dx1\013s}\327\310}\035\316a\306"
 301      646D33EF 
 301      6D194478 
 301      310B737D 
 301      D7C87D1D 
 302 067c B7E3BD87 		.ascii	"\267\343\275\207tx\02332\313\226\027\372\343\355\314"
 302      74781333 
ARM GAS  C:\Users\info\AppData\Local\Temp\cclKgTbE.s 			page 23


 302      32CB9617 
 302      FAE3EDCC 
 303 068c 5851F0B8 		.ascii	"XQ\360\270\311\007\357fF\227\263\270\320\02773\343F"
 303      C907EF66 
 303      4697B3B8 
 303      D0173733 
 303      E346
 304 069e DD48893F 		.ascii	"\335H\211?>\302\214k\017[\012|\334S\300\346jwg\321U"
 304      3EC28C6B 
 304      0F5B0A7C 
 304      DC53C0E6 
 304      6A7767D1 
 305 06b3 1FDCCE08 		.ascii	"\037\334\316\010/\332\307\366\"\334\303\214\221\355"
 305      2FDAC7F6 
 305      22DCC38C 
 305      91ED
 306 06c1 777ABCF0 		.ascii	"wz\274\360]f\270~\245\004\261_)u-\217J\345\363\240D"
 306      5D66B87E 
 306      A504B15F 
 306      29752D8F 
 306      4AE5F3A0 
 307 06d6 7E6CF4DF 		.ascii	"~l\364\337*l\323\343\247\214\333\332\265\363d \376N"
 307      2A6CD3E3 
 307      A78CDBDA 
 307      B5F36420 
 307      FE4E
 308 06e8 478CE9DB 		.ascii	"G\214\351\333\036\214\026\301\357\036C\260\307\271\003"
 308      1E8C16C1 
 308      EF1E43B0 
 308      C7B903
 309 06f7 2E832154 		.ascii	".\203!T\033!?D\314\210\210 i\025\011\006\224/h5\274"
 309      1B213F44 
 309      CC888820 
 309      69150906 
 309      942F6835 
 310 070c 4EC502FF 		.ascii	"N\305\002\377\362\0251\235<\266\256B!\014\255\027@{"
 310      F215319D 
 310      3CB6AE42 
 310      210CAD17 
 310      407B
 311 071e A7108136 		.ascii	"\247\020\2016\013l\353j\205\347}\302\014\324\010\330"
 311      0B6CEB6A 
 311      85E77DC2 
 311      0CD408D8 
 312 072e 036800D4 		.ascii	"\003h\000\324\003\252\001;\001;\000\333\001U\200J\300"
 312      03AA013B 
 312      013B00DB 
 312      0155804A 
 312      C0
 313 073f 364005A0 		.ascii	"6@\005\240\034P\006\330\012(\005\224\000\266\0006\011"
 313      1C5006D8 
 313      0A280594 
 313      00B60036 
 313      09
 314 0750 FCD77DEC 		.ascii	"\374\327}\354\034\267\363n\0200\015+\257\200q\356c\242"
 314      1CB7F36E 
 314      10300D2B 
ARM GAS  C:\Users\info\AppData\Local\Temp\cclKgTbE.s 			page 24


 314      AF8071EE 
 314      63A2
 315 0762 9E67813C 		.ascii	"\236g\201<\340\207\317\363\3719\367gLR\313\222?0<S\270"
 315      E087CFF3 
 315      F939F767 
 315      4C52CB92 
 315      3F303C53 
 316 0777 E96A5CFE 		.ascii	"\351j\\\376\313\376D\341f\250q\271\343\337c\205\272"
 316      CBFE44E1 
 316      66A871B9 
 316      E3DF6385 
 316      BA
 317 0788 488DCA1D 		.ascii	"H\215\312\035\000\206\024\352bOj\2460\361\374wE\341"
 317      008614EA 
 317      624F6AA6 
 317      30F1FC77 
 317      45E1
 318 079a 66A971F9 		.ascii	"f\251q\371\357d\217\302\375V\215\313\177\203\317)\334"
 318      EF648FC2 
 318      FD568DCB 
 318      7F83CF29 
 318      DC
 319 07ab 256A5CFE 		.ascii	"%j\\\376\220pV\341~\247\306\345\325\355T\270\331j\\"
 319      907056E1 
 319      7EA7C6E5 
 319      D5ED54B8 
 319      D96A5C
 320 07be 5EDD33F9 		.ascii	"^\3353\371\3349`\251\314v\237\003\030\237\223\2555\377"
 320      DC3960A9 
 320      CC769F03 
 320      189F93AD 
 320      35FF
 321 07d0 0D76CC82 		.ascii	"\015v\314\202M\004-\223\351\356cV\357kg\233\226|\356"
 321      4D042D93 
 321      E9EE6356 
 321      EF6B679B 
 321      967CEE
 322 07e3 5896A3CE 		.ascii	"X\226\243\316\347\3347\235\013d\364]\340>w\"\235?h\361"
 322      E7DC379D 
 322      0B64F45D 
 322      E03E7722 
 322      9D3F68F1 
 323 07f7 AF6DAD10 		.ascii	"\257m\255\020\252\220v\303\"\257\201\321\3543?\031M"
 323      AA9076C3 
 323      22AF81D1 
 323      EC333F19 
 323      4D
 324 0808 C371F2C9 		.ascii	"\303q\362\311\213#-\222\302\005*\231\253x\015\031\000"
 324      8B232D92 
 324      C2052A99 
 324      AB780D19 
 324      00
 325 0819 7FEB04F2 		.ascii	"\177\353\004\362\1771\256-\343{\370\230\260cE\321\351"
 325      7F31AE2D 
 325      E37BF898 
 325      B06345D1 
 325      E9
ARM GAS  C:\Users\info\AppData\Local\Temp\cclKgTbE.s 			page 25


 326 082a 37C8B182 		.ascii	"7\310\261\202d\272RP\376\217\200n\032\254\232F\276\232"
 326      64BA5250 
 326      FE8F806E 
 326      1AAC9A46 
 326      BE9A
 327 083c 55EAD570 		.ascii	"U\352\325p\305\327\2373H\271FJ^=\221\254rjT\330k\324"
 327      C5D79F33 
 327      48B9464A 
 327      5E3D91AC 
 327      726A54D8 
 328 0852 D99CEBDA 		.ascii	"\331\234\353\332\374\020\226\311^\240\347M\244\177\240"
 328      FC1096C9 
 328      5EA0E74D 
 328      A47FA0
 329 0861 2E6B332F 		.ascii	".k3/k\013\310\332\244*k\263\207\254Mj\262\356\366\220"
 329      6B0BC8DA 
 329      A42A6BB3 
 329      87AC4D6A 
 329      B2EEF690 
 330 0875 B599CAFA 		.ascii	"\265\231\312\372o*+\223r\327\212iDJ\222\334ZE\312&N"
 330      6F2A2B93 
 330      72D78A69 
 330      444A92DC 
 330      5A45CA26 
 331 088a CA5DF9EF 		.ascii	"\312]\371\357\260\002\340$\204\326\251\026\020\245\234"
 331      B002E024 
 331      84D6A916 
 331      10A59C
 332 0899 9237E6D3 		.ascii	"\2227\346\323S2p\370S2\353[\273\342m\322G\266\372\215"
 332      533270F8 
 332      5332EB5B 
 332      BBE26DD2 
 332      47B6FA8D 
 333 08ad 4A2C42A5 		.ascii	"J,B\245\237\304m\271\003[\375\336-\226\206\252\245\276"
 333      9FC46DB9 
 333      035BFDDE 
 333      2D9686AA 
 333      A5BE
 334 08bf 339B3FC9 		.ascii	"3\233?\311\333\222%u\300\260_\321\325\200\306\224\363"
 334      DB922575 
 334      C0B05FD1 
 334      D580C694 
 334      F3
 335 08d0 233C92DB 		.ascii	"#<\222\333\013\370\031\245A\373\205w\311WlY\345n?\\"
 335      0BF819A5 
 335      41FB8577 
 335      C9576C59 
 335      E56E3F5C 
 336 08e4 A9631FF7 		.ascii	"\251c\037\367g\275W|\300Qq\265\344\254i30/\324\311\001"
 336      67BD577C 
 336      C05171B5 
 336      E4AC6933 
 336      302FD4C9 
 337 08f9 252C3C2A 		.ascii	"%,<*N\016R'O\327\017\205\342\275\314\307\226\352\245"
 337      4E0E5227 
 337      4FD70F85 
 337      E2BDCCC7 
ARM GAS  C:\Users\info\AppData\Local\Temp\cclKgTbE.s 			page 26


 337      96EAA5
 338 090c E906AD6B 		.ascii	"\351\006\255k\351\261\217\350\350`\306C\337PN\334y\323"
 338      E9B18FE8 
 338      E860C643 
 338      DF504EDC 
 338      79D3
 339 091e 386DDBA8 		.ascii	"8m\333\250\266\207\251\266@\036\317\331sC\007I\364A"
 339      B687A9B6 
 339      401ECFD9 
 339      73430749 
 339      F441
 340 0930 12E35918 		.ascii	"\022\343Y\030$\314\200a\002\241\241CJ\032\207\3704\216"
 340      24CC8061 
 340      02A1A143 
 340      4A1A87F8 
 340      348E
 341 0942 D034969C 		.ascii	"\3204\226\234\337\"\301\251\205\345Q\234s-/\200\346"
 341      DF22C1A9 
 341      85E5519C 
 341      732D2F80 
 341      E6
 342 0953 B1CB9DC7 		.ascii	"\261\313\235\307\300\222;%\376\356\266c\002m\274\271"
 342      C0923B25 
 342      FEEEB663 
 342      026DBCB9 
 343 0963 3A739DDE 		.ascii	":s\235\336\335x\2345\026\334\310i\326\272\033O\260\306"
 343      DD789C35 
 343      16DCC869 
 343      D6BA1B4F 
 343      B0C6
 344 0975 A7CB36F4 		.ascii	"\247\3136\364\"wi'Yc]s[\236\367\244\265\235\246\265"
 344      22776927 
 344      59635D73 
 344      5B9EF7A4 
 344      B59DA6B5 
 345 0989 9D72D576 		.ascii	"\235r\325vlxo\243K\340\365\307]\002\003\011\035U*;\312"
 345      6C786FA3 
 345      4BE0F5C7 
 345      5D020309 
 345      1D552A3B 
 346 099e 57D64E2B 		.ascii	"W\326N+\253\314\332\236\355\205/\260\312\306\212\327"
 346      ABCCDA9E 
 346      ED852FB0 
 346      CAC68AD7 
 347 09ae 66084420 		.ascii	"f\010D I\352[3\220p\277F\312\364\242\352t(>:\250\017"
 347      49EA5B33 
 347      9070BF46 
 347      CAF4A2EA 
 347      74283E3A 
 348 09c4 783843C7 		.ascii	"x8C\307_\331|5\307\033\017\263\361\231\365+\316\010"
 348      5FD97C35 
 348      C71B0FB3 
 348      F199F52B 
 348      CE08
 349 09d6 B40CB230 		.ascii	"\264\014\2620\345\031\272\265\377\271\326]Z\027+\255"
 349      E519BAB5 
 349      FFB9D65D 
ARM GAS  C:\Users\info\AppData\Local\Temp\cclKgTbE.s 			page 27


 349      5A172BAD 
 350 09e6 F065CF6A 		.ascii	"\360e\317j<ii\335\264\264\263\256\322\216|w|m \313\312"
 350      3C6969DD 
 350      B4B4B3AE 
 350      D28E7C77 
 350      7C6D20CB 
 351 09fb B9EEB2C1 		.ascii	"\271\356\262\301\371\007B@\235JJ\235\256\224\316\321"
 351      F9074240 
 351      9D4A4A9D 
 351      AE94CED1 
 352 0a0b 944A8E5F 		.ascii	"\224J\216_\357\321\342|_\232\322\303\356\326\023zy\360"
 352      EFD1E27C 
 352      5F9AD2C3 
 352      EED6137A 
 352      79F0
 353 0a1d 2A538174 		.ascii	"*S\201t\200M\367ye\364y\327\350\013tt\341\355\216cZ"
 353      804DF779 
 353      65F479D7 
 353      E80B7474 
 353      E1ED8E63 
 354 0a32 5CC646AF 		.ascii	"\\\306F\257\255<\374\314\373\275-RG1Y\377i\245\025p"
 354      AD3CFCCC 
 354      FBBD2D52 
 354      473159FF 
 354      69A51570 
 355 0a46 A640F457 		.ascii	"\246@\364W\311E\346\300\375\343HC[\376\014?2.\011\357"
 355      C945E6C0 
 355      FDE34843 
 355      5BFE0C3F 
 355      322E09EF 
 356 0a5a 91C55AD8 		.ascii	"\221\305Z\330\367\034{\034;\273=v\206\313\3548E\356"
 356      F71C7B1C 
 356      3BBB3D76 
 356      86CBEC38 
 356      45EE
 357 0a6c C03E3BDC 		.ascii	"\300>;\334\320\345\355\301n\363`\367\310\354\036\312"
 357      D0E5EDC1 
 357      6EF360F7 
 357      C8EC1ECA 
 358 0a7c CE5ABDF1 		.ascii	"\316Z\275\361_\3237\261\003N6D\2347\215\276.\254\212"
 358      5FD337B1 
 358      034E3644 
 358      9C378DBE 
 358      2EAC8A
 359 0a8f 5E613A50 		.ascii	"^a:P\332W\366f{3\216\263\251M\220\312u\236\254+\224"
 359      DA57F666 
 359      7B338EB3 
 359      A94D90CA 
 359      759EAC2B 
 360 0aa4 D5DFF9AA 		.ascii	"\325\337\371\252\317_fuxg\013\236\234\253\302t\215\237"
 360      CF5F6675 
 360      78670B9E 
 360      9CABC274 
 360      8D9F
 361 0ab6 CDB2D09C 		.ascii	"\315\262\320\234(~m\211s$\350\276\370\335\334\360O\243"
 361      287E6D89 
 361      7324E8BE 
ARM GAS  C:\Users\info\AppData\Local\Temp\cclKgTbE.s 			page 28


 361      F8DDDCF0 
 361      4FA3
 362 0ac8 A2347A51 		.ascii	"\2424zQL\265X\035Q\037\213\216td\372E\214-%y~\2121)"
 362      4CB5581D 
 362      511F8B8E 
 362      7464FA45 
 362      8C2D2579 
 363 0ae0 3CDE9268 		.ascii	"<\336\222h\266\207G,\214\376\370G1\2464[\212\331n\217"
 363      B687472C 
 363      8CFEF847 
 363      31A6345B 
 363      8AD96E8F 
 364 0af4 B1D9934D 		.ascii	"\261\331\223M\341\246\024\263\321\221\234\022\363Q\344"
 364      E1A614B3 
 364      D1919C12 
 364      F351E4
 365 0b03 1CCF064B 		.ascii	"\034\317\006K\222-9\305\0213\337\232\032cLI\212\371"
 365      922D39C5 
 365      1133DF9A 
 365      1A634C49 
 365      8AF9
 366 0b15 59E44791 		.ascii	"Y\344G\221Q\344\351}k\262\325\374\276\331\030k\211\261"
 366      51E4E97D 
 366      6BB2D5FC 
 366      BED9186B 
 366      89B1
 367 0b27 584D89A9 		.ascii	"XM\211\251q\346\230$\243)\301b5\307\210q\346xcj\242"
 367      71E69824 
 367      A329C162 
 367      35C78871 
 367      E678636A 
 368 0b3c 4374A4D9 		.ascii	"Ct\244\331\314\366\310\004\215\316\225\313\202\377W"
 368      CCF6C804 
 368      8DCE95CB 
 368      82FF57
 369 0b4b 2AF6347B 		.ascii	"*\3664{\214hw\304A\\\210?5>\321bKJ\2163\213\013\305"
 369      8C6877C4 
 369      415C883F 
 369      353ED162 
 369      4B4A8E33 
 370 0b62 E4F878BB 		.ascii	"\344\370x\273\331\341\313\364\211\026\035>\362}\212"
 370      D9E1CBF4 
 370      89161D3E 
 370      F27D8A
 371 0b71 2B6917C5 		.ascii	"+i\027\305\317\001\011\212\011f\313\374\004\207\236"
 371      CF01098A 
 371      0966CBFC 
 371      04879E
 372 0b80 3E538943 		.ascii	">S\211C\276N\2618\314\242-5\321.\267\210V{P\234\321"
 372      BE4EB138 
 372      CCA22D35 
 372      D12EB788 
 372      567B509C 
 373 0b95 61146150 		.ascii	"a\024aP\252MtX\222\314\320\024b\231c\022cS\355\242)"
 373      AA4D7458 
 373      92CCD014 
 373      62996312 
ARM GAS  C:\Users\info\AppData\Local\Temp\cclKgTbE.s 			page 29


 373      6353EDA2 
 374 0baa 31D9F495 		.ascii	"1\331\364\225\0305{\366W\277\376Fg\267YD\222\210\301"
 374      18357BF6 
 374      57BFFE46 
 374      67B75944 
 374      9288C1
 375 0bbd 0E6DAC27 		.ascii	"\016m\254'\341\033y\262>\234#:t\256\207 B\360\0142\325"
 375      E11B79B2 
 375      3E9C233A 
 375      74AE8720 
 375      42F00C32 
 376 0bd2 1E372146 		.ascii	"\0367!F\220-\331\356\020A9\263C\374\332hq\210I\366\020"
 376      902DD9EE 
 376      104139B3 
 376      43FCDA68 
 376      718849F6 
 377 0be7 66F12393 		.ascii	"f\361#\223\354\241\240\256\010sc\023\343,vc,)\205\260"
 377      ECA1A0AE 
 377      08736313 
 377      E32C7663 
 377      2C2985B0 
 378 0bfb ADD0411C 		.ascii	"\255\320A\034\320\036\263\225\357\010\362`'\232\027"
 378      D01EB395 
 378      EF08F260 
 378      279A17
 379 0c0a 9813A7F2 		.ascii	"\230\023\247\3624\332\022\232\032\2750\232\220l\211"
 379      34DA129A 
 379      1ABD309A 
 379      906C89
 380 0c19 C634D162 		.ascii	"\3064\321b\215O\006\311SRM\016\003[\222L\273\220\310"
 380      8D4F06C9 
 380      53524D0E 
 380      035B924C 
 380      BB90C8
 381 0c2c C898D4E8 		.ascii	"\310\230\324\350\371sD\223=\305\024C\206\300\214\004"
 381      F9734493 
 381      3DC51443 
 381      86C08C04 
 382 0c3c BF3ED4E1 		.ascii	"\277>\324\341\317\332R\223\222\322DSl@\234969\325j2"
 382      CFDA5293 
 382      92D24453 
 382      6C409C39 
 382      3639D56A 
 383 0c51 834FA3C3 		.ascii	"\203O\243\303\374\246\333L4B\3126\213\225\265\277\345"
 383      FCA6DB4C 
 383      3442CA36 
 383      8B95B5BF 
 383      E5
 384 0c62 6E77CD9F 		.ascii	"nw\315\237\273\313o\276\315\222L\324\201V}\252#>\232"
 384      BBCB6FBE 
 384      CD924CD4 
 384      81567DAA 
 384      233E9A
 385 0c75 3583E305 		.ascii	"5\203\343\005\026\340\033\343\342\310\232\363#\363\004"
 385      16E01BE3 
 385      E2C89AF3 
 385      23F304
ARM GAS  C:\Users\info\AppData\Local\Temp\cclKgTbE.s 			page 30


 386 0c84 1D290E73 		.ascii	"\035)\016s\034}\226\333C,v1>\331\352\200\344\026\230"
 386      1C7D96DB 
 386      432C7631 
 386      3ED9EA80 
 386      E41698
 387 0c97 53404C32 		.ascii	"S@L2m:\327\342\320\231\255\246dX]\363\265\204\343\353"
 387      6D3AD7E2 
 387      D099ADA6 
 387      64585DF3 
 387      B584E3EB 
 388 0cab 9EE7A934 		.ascii	"\236\347\2514\246\321\032\007\351\220\312L\261~\264"
 388      A6D11A07 
 388      E990CA4C 
 388      B17EB4
 389 0cba AA24FB7C 		.ascii	"\252$\373|x\366\211M\203\245c\212\3656\031\343\340\246"
 389      78F6894D 
 389      83A5638A 
 389      F53619E3 
 389      E0A6
 390 0ccc 77D50F3D 		.ascii	"w\325\017=V\363B\230\210X\003e\233\022\214)\304\340"
 390      56F34298 
 390      88580365 
 390      9B128C29 
 390      C4E0
 391 0cde F5617E98 		.ascii	"\365a~\230\276\301\356\242Yu\304\2757\355w\274\365\232"
 391      BEC1EEA2 
 391      5975C4BD 
 391      37ED77BC 
 391      F59A
 392 0cf0 DA6CC944 		.ascii	"\332l\311D\2324\001L_\321\232\232\230\010\336\203\250"
 392      9A34014C 
 392      5FD19A9A 
 392      9808DE83 
 392      A8
 393 0d01 F927D2F9 		.ascii	"\371'\322\371\031\223\316\256W\232\336\222\311\011\346"
 393      1993CEAE 
 393      579ADE92 
 393      C909E6
 394 0d10 449B3985 		.ascii	"D\2339\205\233)\213\343]\365.\2662\223\314I\311)iS\024"
 394      9B298BE3 
 394      5DF52EB6 
 394      3293CC49 
 394      C9296953 
 395 0d25 47BFA50D 		.ascii	"G\277\245\015\323h\003\215\314\027\365\037@\346s\304"
 395      D368038D 
 395      CC17F51F 
 395      40E673C4 
 396              		.text
 397              		.section	.gnu.lto_.symtab.bf14d063,"",%progbits
 398 0000 75387838 		.ascii	"u8x8_dummy_cb\000"
 398      5F64756D 
 398      6D795F63 
 398      6200
 399 000e 00       		.ascii	"\000"
 400 000f 00       		.ascii	"\000"
 401 0010 00       		.ascii	"\000"
 402 0011 00000000 		.ascii	"\000\000\000\000\000\000\000\000"
ARM GAS  C:\Users\info\AppData\Local\Temp\cclKgTbE.s 			page 31


 402      00000000 
 403 0019 41010000 		.ascii	"A\001\000\000"
 404 001d 75387838 		.ascii	"u8x8_d_null_cb\000"
 404      5F645F6E 
 404      756C6C5F 
 404      636200
 405 002c 00       		.ascii	"\000"
 406 002d 00       		.ascii	"\000"
 407 002e 00       		.ascii	"\000"
 408 002f 00000000 		.ascii	"\000\000\000\000\000\000\000\000"
 408      00000000 
 409 0037 43010000 		.ascii	"C\001\000\000"
 410 003b 75387838 		.ascii	"u8x8_SetupDefaults\000"
 410      5F536574 
 410      75704465 
 410      6661756C 
 410      747300
 411 004e 00       		.ascii	"\000"
 412 004f 00       		.ascii	"\000"
 413 0050 00       		.ascii	"\000"
 414 0051 00000000 		.ascii	"\000\000\000\000\000\000\000\000"
 414      00000000 
 415 0059 47010000 		.ascii	"G\001\000\000"
 416 005d 75387838 		.ascii	"u8x8_Setup\000"
 416      5F536574 
 416      757000
 417 0068 00       		.ascii	"\000"
 418 0069 00       		.ascii	"\000"
 419 006a 00       		.ascii	"\000"
 420 006b 00000000 		.ascii	"\000\000\000\000\000\000\000\000"
 420      00000000 
 421 0073 4F010000 		.ascii	"O\001\000\000"
 422 0077 75387838 		.ascii	"u8x8_d_helper_display_init\000"
 422      5F645F68 
 422      656C7065 
 422      725F6469 
 422      73706C61 
 423 0092 00       		.ascii	"\000"
 424 0093 02       		.ascii	"\002"
 425 0094 00       		.ascii	"\000"
 426 0095 00000000 		.ascii	"\000\000\000\000\000\000\000\000"
 426      00000000 
 427 009d 51010000 		.ascii	"Q\001\000\000"
 428 00a1 75387838 		.ascii	"u8x8_d_helper_display_setup_memory\000"
 428      5F645F68 
 428      656C7065 
 428      725F6469 
 428      73706C61 
 429 00c4 00       		.ascii	"\000"
 430 00c5 02       		.ascii	"\002"
 431 00c6 00       		.ascii	"\000"
 432 00c7 00000000 		.ascii	"\000\000\000\000\000\000\000\000"
 432      00000000 
 433 00cf 56010000 		.ascii	"V\001\000\000"
 434 00d3 75387838 		.ascii	"u8x8_SetupMemory\000"
 434      5F536574 
 434      75704D65 
ARM GAS  C:\Users\info\AppData\Local\Temp\cclKgTbE.s 			page 32


 434      6D6F7279 
 434      00
 435 00e4 00       		.ascii	"\000"
 436 00e5 02       		.ascii	"\002"
 437 00e6 00       		.ascii	"\000"
 438 00e7 00000000 		.ascii	"\000\000\000\000\000\000\000\000"
 438      00000000 
 439 00ef 58010000 		.ascii	"X\001\000\000"
 440              		.text
 441              		.section	.gnu.lto_.opts,"",%progbits
 442 0000 272D666D 		.ascii	"'-fmath-errno' '-fsigned-zeros' '-ftrapping-math' '"
 442      6174682D 
 442      6572726E 
 442      6F272027 
 442      2D667369 
 443 0033 2D666E6F 		.ascii	"-fno-trapv' '-fno-openmp' '-fno-openacc' '-mcpu=cor"
 443      2D747261 
 443      70762720 
 443      272D666E 
 443      6F2D6F70 
 444 0066 7465782D 		.ascii	"tex-m3' '-mthumb' '-g' '-Os' '-ffunction-sections' "
 444      6D332720 
 444      272D6D74 
 444      68756D62 
 444      2720272D 
 445 0099 272D6666 		.ascii	"'-ffat-lto-objects' '-flto'\000"
 445      61742D6C 
 445      746F2D6F 
 445      626A6563 
 445      74732720 
 446              		.text
 447              		.cfi_sections	.debug_frame
 448              		.section	.text.u8x8_dummy_cb,"ax",%progbits
 449              		.align	1
 450              		.global	u8x8_dummy_cb
 451              		.thumb
 452              		.thumb_func
 453              		.type	u8x8_dummy_cb, %function
 454              	u8x8_dummy_cb:
 455              	.LFB0:
 456              		.file 1 "..\\u8g2_csrc\\u8x8_setup.c"
   1:..\u8g2_csrc/u8x8_setup.c **** /*
   2:..\u8g2_csrc/u8x8_setup.c **** 
   3:..\u8g2_csrc/u8x8_setup.c ****   u8x8_setup.c
   4:..\u8g2_csrc/u8x8_setup.c **** 
   5:..\u8g2_csrc/u8x8_setup.c ****   Universal 8bit Graphics Library (https://github.com/olikraus/u8g2/)
   6:..\u8g2_csrc/u8x8_setup.c **** 
   7:..\u8g2_csrc/u8x8_setup.c ****   Copyright (c) 2016, olikraus@gmail.com
   8:..\u8g2_csrc/u8x8_setup.c ****   All rights reserved.
   9:..\u8g2_csrc/u8x8_setup.c **** 
  10:..\u8g2_csrc/u8x8_setup.c ****   Redistribution and use in source and binary forms, with or without modification, 
  11:..\u8g2_csrc/u8x8_setup.c ****   are permitted provided that the following conditions are met:
  12:..\u8g2_csrc/u8x8_setup.c **** 
  13:..\u8g2_csrc/u8x8_setup.c ****   * Redistributions of source code must retain the above copyright notice, this list 
  14:..\u8g2_csrc/u8x8_setup.c ****     of conditions and the following disclaimer.
  15:..\u8g2_csrc/u8x8_setup.c ****     
  16:..\u8g2_csrc/u8x8_setup.c ****   * Redistributions in binary form must reproduce the above copyright notice, this 
ARM GAS  C:\Users\info\AppData\Local\Temp\cclKgTbE.s 			page 33


  17:..\u8g2_csrc/u8x8_setup.c ****     list of conditions and the following disclaimer in the documentation and/or other 
  18:..\u8g2_csrc/u8x8_setup.c ****     materials provided with the distribution.
  19:..\u8g2_csrc/u8x8_setup.c **** 
  20:..\u8g2_csrc/u8x8_setup.c ****   THIS SOFTWARE IS PROVIDED BY THE COPYRIGHT HOLDERS AND 
  21:..\u8g2_csrc/u8x8_setup.c ****   CONTRIBUTORS "AS IS" AND ANY EXPRESS OR IMPLIED WARRANTIES, 
  22:..\u8g2_csrc/u8x8_setup.c ****   INCLUDING, BUT NOT LIMITED TO, THE IMPLIED WARRANTIES OF 
  23:..\u8g2_csrc/u8x8_setup.c ****   MERCHANTABILITY AND FITNESS FOR A PARTICULAR PURPOSE ARE 
  24:..\u8g2_csrc/u8x8_setup.c ****   DISCLAIMED. IN NO EVENT SHALL THE COPYRIGHT HOLDER OR 
  25:..\u8g2_csrc/u8x8_setup.c ****   CONTRIBUTORS BE LIABLE FOR ANY DIRECT, INDIRECT, INCIDENTAL, 
  26:..\u8g2_csrc/u8x8_setup.c ****   SPECIAL, EXEMPLARY, OR CONSEQUENTIAL DAMAGES (INCLUDING, BUT 
  27:..\u8g2_csrc/u8x8_setup.c ****   NOT LIMITED TO, PROCUREMENT OF SUBSTITUTE GOODS OR SERVICES; 
  28:..\u8g2_csrc/u8x8_setup.c ****   LOSS OF USE, DATA, OR PROFITS; OR BUSINESS INTERRUPTION) HOWEVER 
  29:..\u8g2_csrc/u8x8_setup.c ****   CAUSED AND ON ANY THEORY OF LIABILITY, WHETHER IN CONTRACT, 
  30:..\u8g2_csrc/u8x8_setup.c ****   STRICT LIABILITY, OR TORT (INCLUDING NEGLIGENCE OR OTHERWISE) 
  31:..\u8g2_csrc/u8x8_setup.c ****   ARISING IN ANY WAY OUT OF THE USE OF THIS SOFTWARE, EVEN IF 
  32:..\u8g2_csrc/u8x8_setup.c ****   ADVISED OF THE POSSIBILITY OF SUCH DAMAGE.  
  33:..\u8g2_csrc/u8x8_setup.c **** 
  34:..\u8g2_csrc/u8x8_setup.c **** */
  35:..\u8g2_csrc/u8x8_setup.c **** 
  36:..\u8g2_csrc/u8x8_setup.c **** 
  37:..\u8g2_csrc/u8x8_setup.c **** #include "u8x8.h"
  38:..\u8g2_csrc/u8x8_setup.c **** 
  39:..\u8g2_csrc/u8x8_setup.c **** /* universal dummy callback, which will be default for all callbacks */
  40:..\u8g2_csrc/u8x8_setup.c **** uint8_t u8x8_dummy_cb(U8X8_UNUSED u8x8_t *u8x8, U8X8_UNUSED uint8_t msg, U8X8_UNUSED uint8_t arg_in
  41:..\u8g2_csrc/u8x8_setup.c **** {
 457              		.loc 1 41 0
 458              		.cfi_startproc
 459              		@ args = 0, pretend = 0, frame = 0
 460              		@ frame_needed = 0, uses_anonymous_args = 0
 461              		@ link register save eliminated.
 462              	.LVL0:
  42:..\u8g2_csrc/u8x8_setup.c ****   /* the dummy callback will not handle any message and will fail for all messages */
  43:..\u8g2_csrc/u8x8_setup.c ****   return 0;
  44:..\u8g2_csrc/u8x8_setup.c **** }
 463              		.loc 1 44 0
 464 0000 0020     		movs	r0, #0
 465              	.LVL1:
 466 0002 7047     		bx	lr
 467              		.cfi_endproc
 468              	.LFE0:
 469              		.size	u8x8_dummy_cb, .-u8x8_dummy_cb
 470              		.section	.text.u8x8_d_null_cb,"ax",%progbits
 471              		.align	1
 472              		.global	u8x8_d_null_cb
 473              		.thumb
 474              		.thumb_func
 475              		.type	u8x8_d_null_cb, %function
 476              	u8x8_d_null_cb:
 477              	.LFB1:
  45:..\u8g2_csrc/u8x8_setup.c **** 
  46:..\u8g2_csrc/u8x8_setup.c **** 
  47:..\u8g2_csrc/u8x8_setup.c **** static const u8x8_display_info_t u8x8_null_display_info =
  48:..\u8g2_csrc/u8x8_setup.c **** {
  49:..\u8g2_csrc/u8x8_setup.c ****   /* chip_enable_level = */ 0,
  50:..\u8g2_csrc/u8x8_setup.c ****   /* chip_disable_level = */ 1,
  51:..\u8g2_csrc/u8x8_setup.c ****   
  52:..\u8g2_csrc/u8x8_setup.c ****   /* post_chip_enable_wait_ns = */ 0,
ARM GAS  C:\Users\info\AppData\Local\Temp\cclKgTbE.s 			page 34


  53:..\u8g2_csrc/u8x8_setup.c ****   /* pre_chip_disable_wait_ns = */ 0,
  54:..\u8g2_csrc/u8x8_setup.c ****   /* reset_pulse_width_ms = */ 0, 
  55:..\u8g2_csrc/u8x8_setup.c ****   /* post_reset_wait_ms = */ 0, 
  56:..\u8g2_csrc/u8x8_setup.c ****   /* sda_setup_time_ns = */ 0,		
  57:..\u8g2_csrc/u8x8_setup.c ****   /* sck_pulse_width_ns = */ 0,	/* half of cycle time (100ns according to datasheet), AVR: below 70
  58:..\u8g2_csrc/u8x8_setup.c ****   /* sck_clock_hz = */ 4000000UL,	/* since Arduino 1.6.0, the SPI bus speed in Hz. Should be  10000
  59:..\u8g2_csrc/u8x8_setup.c ****   /* spi_mode = */ 0,		/* active high, rising edge */
  60:..\u8g2_csrc/u8x8_setup.c ****   /* i2c_bus_clock_100kHz = */ 4,
  61:..\u8g2_csrc/u8x8_setup.c ****   /* data_setup_time_ns = */ 0,
  62:..\u8g2_csrc/u8x8_setup.c ****   /* write_pulse_width_ns = */ 0,
  63:..\u8g2_csrc/u8x8_setup.c ****   /* tile_width = */ 1,		/* 8x8 */
  64:..\u8g2_csrc/u8x8_setup.c ****   /* tile_hight = */ 1,
  65:..\u8g2_csrc/u8x8_setup.c ****   /* default_x_offset = */ 0,
  66:..\u8g2_csrc/u8x8_setup.c ****   /* flipmode_x_offset = */ 0,
  67:..\u8g2_csrc/u8x8_setup.c ****   /* pixel_width = */ 8,
  68:..\u8g2_csrc/u8x8_setup.c ****   /* pixel_height = */ 8
  69:..\u8g2_csrc/u8x8_setup.c **** };
  70:..\u8g2_csrc/u8x8_setup.c **** 
  71:..\u8g2_csrc/u8x8_setup.c **** 
  72:..\u8g2_csrc/u8x8_setup.c **** /* a special null device */
  73:..\u8g2_csrc/u8x8_setup.c **** uint8_t u8x8_d_null_cb(u8x8_t *u8x8, uint8_t msg, U8X8_UNUSED uint8_t arg_int, U8X8_UNUSED void *ar
  74:..\u8g2_csrc/u8x8_setup.c **** {
 478              		.loc 1 74 0
 479              		.cfi_startproc
 480              		@ args = 0, pretend = 0, frame = 0
 481              		@ frame_needed = 0, uses_anonymous_args = 0
 482              	.LVL2:
  75:..\u8g2_csrc/u8x8_setup.c ****   switch(msg)
 483              		.loc 1 75 0
 484 0000 0929     		cmp	r1, #9
  74:..\u8g2_csrc/u8x8_setup.c ****   switch(msg)
 485              		.loc 1 74 0
 486 0002 08B5     		push	{r3, lr}
 487              		.cfi_def_cfa_offset 8
 488              		.cfi_offset 3, -8
 489              		.cfi_offset 14, -4
 490              		.loc 1 75 0
 491 0004 04D0     		beq	.L4
 492 0006 0A29     		cmp	r1, #10
 493 0008 05D1     		bne	.L3
  76:..\u8g2_csrc/u8x8_setup.c ****   {
  77:..\u8g2_csrc/u8x8_setup.c ****     case U8X8_MSG_DISPLAY_SETUP_MEMORY:
  78:..\u8g2_csrc/u8x8_setup.c ****       u8x8_d_helper_display_setup_memory(u8x8, &u8x8_null_display_info);
  79:..\u8g2_csrc/u8x8_setup.c ****       break;
  80:..\u8g2_csrc/u8x8_setup.c ****     case U8X8_MSG_DISPLAY_INIT:
  81:..\u8g2_csrc/u8x8_setup.c ****       u8x8_d_helper_display_init(u8x8);
 494              		.loc 1 81 0
 495 000a FFF7FEFF 		bl	u8x8_d_helper_display_init
 496              	.LVL3:
  82:..\u8g2_csrc/u8x8_setup.c ****       break;
 497              		.loc 1 82 0
 498 000e 02E0     		b	.L3
 499              	.LVL4:
 500              	.L4:
  78:..\u8g2_csrc/u8x8_setup.c ****       break;
 501              		.loc 1 78 0
 502 0010 0249     		ldr	r1, .L7
ARM GAS  C:\Users\info\AppData\Local\Temp\cclKgTbE.s 			page 35


 503              	.LVL5:
 504 0012 FFF7FEFF 		bl	u8x8_d_helper_display_setup_memory
 505              	.LVL6:
 506              	.L3:
  83:..\u8g2_csrc/u8x8_setup.c ****   }
  84:..\u8g2_csrc/u8x8_setup.c ****   /* the null device callback will succeed for all messages */
  85:..\u8g2_csrc/u8x8_setup.c ****   return 1;
  86:..\u8g2_csrc/u8x8_setup.c **** }
 507              		.loc 1 86 0
 508 0016 0120     		movs	r0, #1
 509 0018 08BD     		pop	{r3, pc}
 510              	.L8:
 511 001a 00BF     		.align	2
 512              	.L7:
 513 001c 00000000 		.word	.LANCHOR0
 514              		.cfi_endproc
 515              	.LFE1:
 516              		.size	u8x8_d_null_cb, .-u8x8_d_null_cb
 517              		.section	.text.u8x8_SetupDefaults,"ax",%progbits
 518              		.align	1
 519              		.global	u8x8_SetupDefaults
 520              		.thumb
 521              		.thumb_func
 522              		.type	u8x8_SetupDefaults, %function
 523              	u8x8_SetupDefaults:
 524              	.LFB2:
  87:..\u8g2_csrc/u8x8_setup.c **** 
  88:..\u8g2_csrc/u8x8_setup.c **** 
  89:..\u8g2_csrc/u8x8_setup.c **** /*
  90:..\u8g2_csrc/u8x8_setup.c ****   Description:
  91:..\u8g2_csrc/u8x8_setup.c ****     Setup u8x8
  92:..\u8g2_csrc/u8x8_setup.c ****   Args:
  93:..\u8g2_csrc/u8x8_setup.c ****     u8x8	An empty u8x8 structure
  94:..\u8g2_csrc/u8x8_setup.c **** */
  95:..\u8g2_csrc/u8x8_setup.c **** void u8x8_SetupDefaults(u8x8_t *u8x8)
  96:..\u8g2_csrc/u8x8_setup.c **** {
 525              		.loc 1 96 0
 526              		.cfi_startproc
 527              		@ args = 0, pretend = 0, frame = 0
 528              		@ frame_needed = 0, uses_anonymous_args = 0
 529              		@ link register save eliminated.
 530              	.LVL7:
  97:..\u8g2_csrc/u8x8_setup.c ****     u8x8->display_info = NULL;
 531              		.loc 1 97 0
 532 0000 0023     		movs	r3, #0
  98:..\u8g2_csrc/u8x8_setup.c ****     u8x8->display_cb = u8x8_dummy_cb;
 533              		.loc 1 98 0
 534 0002 094A     		ldr	r2, .L10
  97:..\u8g2_csrc/u8x8_setup.c ****     u8x8->display_info = NULL;
 535              		.loc 1 97 0
 536 0004 0360     		str	r3, [r0]
  99:..\u8g2_csrc/u8x8_setup.c ****     u8x8->cad_cb = u8x8_dummy_cb;
 100:..\u8g2_csrc/u8x8_setup.c ****     u8x8->byte_cb = u8x8_dummy_cb;
 101:..\u8g2_csrc/u8x8_setup.c ****     u8x8->gpio_and_delay_cb = u8x8_dummy_cb;
 102:..\u8g2_csrc/u8x8_setup.c ****     u8x8->is_font_inverse_mode = 0;
 537              		.loc 1 102 0
 538 0006 80F82330 		strb	r3, [r0, #35]
ARM GAS  C:\Users\info\AppData\Local\Temp\cclKgTbE.s 			page 36


 103:..\u8g2_csrc/u8x8_setup.c ****     u8x8->device_address = 0;
 539              		.loc 1 103 0
 540 000a 80F82630 		strb	r3, [r0, #38]
 104:..\u8g2_csrc/u8x8_setup.c ****     u8x8->utf8_state = 0;		/* also reset by u8x8_utf8_init */
 541              		.loc 1 104 0
 542 000e 80F82730 		strb	r3, [r0, #39]
 105:..\u8g2_csrc/u8x8_setup.c ****     u8x8->bus_clock = 0;		/* issue 769 */
 543              		.loc 1 105 0
 544 0012 8361     		str	r3, [r0, #24]
 106:..\u8g2_csrc/u8x8_setup.c ****     u8x8->i2c_address = 255;
 545              		.loc 1 106 0
 546 0014 FF23     		movs	r3, #255
  98:..\u8g2_csrc/u8x8_setup.c ****     u8x8->cad_cb = u8x8_dummy_cb;
 547              		.loc 1 98 0
 548 0016 8260     		str	r2, [r0, #8]
  99:..\u8g2_csrc/u8x8_setup.c ****     u8x8->byte_cb = u8x8_dummy_cb;
 549              		.loc 1 99 0
 550 0018 C260     		str	r2, [r0, #12]
 100:..\u8g2_csrc/u8x8_setup.c ****     u8x8->gpio_and_delay_cb = u8x8_dummy_cb;
 551              		.loc 1 100 0
 552 001a 0261     		str	r2, [r0, #16]
 101:..\u8g2_csrc/u8x8_setup.c ****     u8x8->is_font_inverse_mode = 0;
 553              		.loc 1 101 0
 554 001c 4261     		str	r2, [r0, #20]
 555              		.loc 1 106 0
 556 001e 80F82430 		strb	r3, [r0, #36]
 107:..\u8g2_csrc/u8x8_setup.c ****     u8x8->debounce_default_pin_state = 255;	/* assume all low active buttons */
 557              		.loc 1 107 0
 558 0022 80F82930 		strb	r3, [r0, #41]
 559 0026 7047     		bx	lr
 560              	.L11:
 561              		.align	2
 562              	.L10:
 563 0028 00000000 		.word	u8x8_dummy_cb
 564              		.cfi_endproc
 565              	.LFE2:
 566              		.size	u8x8_SetupDefaults, .-u8x8_SetupDefaults
 567              		.section	.text.u8x8_Setup,"ax",%progbits
 568              		.align	1
 569              		.global	u8x8_Setup
 570              		.thumb
 571              		.thumb_func
 572              		.type	u8x8_Setup, %function
 573              	u8x8_Setup:
 574              	.LFB3:
 108:..\u8g2_csrc/u8x8_setup.c ****   
 109:..\u8g2_csrc/u8x8_setup.c **** #ifdef U8X8_USE_PINS 
 110:..\u8g2_csrc/u8x8_setup.c ****   {
 111:..\u8g2_csrc/u8x8_setup.c ****     uint8_t i;
 112:..\u8g2_csrc/u8x8_setup.c ****     for( i = 0; i < U8X8_PIN_CNT; i++ )
 113:..\u8g2_csrc/u8x8_setup.c ****       u8x8->pins[i] = U8X8_PIN_NONE;
 114:..\u8g2_csrc/u8x8_setup.c ****   }
 115:..\u8g2_csrc/u8x8_setup.c **** #endif
 116:..\u8g2_csrc/u8x8_setup.c **** }
 117:..\u8g2_csrc/u8x8_setup.c **** 
 118:..\u8g2_csrc/u8x8_setup.c **** 
 119:..\u8g2_csrc/u8x8_setup.c **** /*
ARM GAS  C:\Users\info\AppData\Local\Temp\cclKgTbE.s 			page 37


 120:..\u8g2_csrc/u8x8_setup.c ****   Description:
 121:..\u8g2_csrc/u8x8_setup.c ****     Setup u8x8 and assign the callback function. The dummy 
 122:..\u8g2_csrc/u8x8_setup.c ****     callback "u8x8_dummy_cb" can be used, if no callback is required.
 123:..\u8g2_csrc/u8x8_setup.c ****     This setup will not communicate with the display itself.
 124:..\u8g2_csrc/u8x8_setup.c ****     Use u8x8_InitDisplay() to send the startup code to the Display.
 125:..\u8g2_csrc/u8x8_setup.c ****   Args:
 126:..\u8g2_csrc/u8x8_setup.c ****     u8x8				An empty u8x8 structure
 127:..\u8g2_csrc/u8x8_setup.c ****     display_cb			Display/controller specific callback function
 128:..\u8g2_csrc/u8x8_setup.c ****     cad_cb				Display controller specific communication callback function
 129:..\u8g2_csrc/u8x8_setup.c ****     byte_cb			Display controller/communication specific callback funtion
 130:..\u8g2_csrc/u8x8_setup.c ****     gpio_and_delay_cb	Environment specific callback function
 131:..\u8g2_csrc/u8x8_setup.c **** 
 132:..\u8g2_csrc/u8x8_setup.c **** */
 133:..\u8g2_csrc/u8x8_setup.c **** void u8x8_Setup(u8x8_t *u8x8, u8x8_msg_cb display_cb, u8x8_msg_cb cad_cb, u8x8_msg_cb byte_cb, u8x8
 134:..\u8g2_csrc/u8x8_setup.c **** {
 575              		.loc 1 134 0
 576              		.cfi_startproc
 577              		@ args = 4, pretend = 0, frame = 0
 578              		@ frame_needed = 0, uses_anonymous_args = 0
 579              	.LVL8:
 580 0000 F8B5     		push	{r3, r4, r5, r6, r7, lr}
 581              		.cfi_def_cfa_offset 24
 582              		.cfi_offset 3, -24
 583              		.cfi_offset 4, -20
 584              		.cfi_offset 5, -16
 585              		.cfi_offset 6, -12
 586              		.cfi_offset 7, -8
 587              		.cfi_offset 14, -4
 588              		.loc 1 134 0
 589 0002 069D     		ldr	r5, [sp, #24]
 590 0004 1746     		mov	r7, r2
 591 0006 1E46     		mov	r6, r3
 135:..\u8g2_csrc/u8x8_setup.c ****   /* setup defaults and reset pins to U8X8_PIN_NONE */
 136:..\u8g2_csrc/u8x8_setup.c ****   u8x8_SetupDefaults(u8x8);
 592              		.loc 1 136 0
 593 0008 FFF7FEFF 		bl	u8x8_SetupDefaults
 594              	.LVL9:
 137:..\u8g2_csrc/u8x8_setup.c **** 
 138:..\u8g2_csrc/u8x8_setup.c ****   /* setup specific callbacks */
 139:..\u8g2_csrc/u8x8_setup.c ****   u8x8->display_cb = display_cb;
 140:..\u8g2_csrc/u8x8_setup.c ****   u8x8->cad_cb = cad_cb;
 595              		.loc 1 140 0
 596 000c C760     		str	r7, [r0, #12]
 141:..\u8g2_csrc/u8x8_setup.c ****   u8x8->byte_cb = byte_cb;
 597              		.loc 1 141 0
 598 000e 0661     		str	r6, [r0, #16]
 142:..\u8g2_csrc/u8x8_setup.c ****   u8x8->gpio_and_delay_cb = gpio_and_delay_cb;
 599              		.loc 1 142 0
 600 0010 4561     		str	r5, [r0, #20]
 139:..\u8g2_csrc/u8x8_setup.c ****   u8x8->cad_cb = cad_cb;
 601              		.loc 1 139 0
 602 0012 8160     		str	r1, [r0, #8]
 143:..\u8g2_csrc/u8x8_setup.c **** 
 144:..\u8g2_csrc/u8x8_setup.c ****   /* setup display info */
 145:..\u8g2_csrc/u8x8_setup.c ****   u8x8_SetupMemory(u8x8);
 146:..\u8g2_csrc/u8x8_setup.c **** }
 603              		.loc 1 146 0
ARM GAS  C:\Users\info\AppData\Local\Temp\cclKgTbE.s 			page 38


 604 0014 BDE8F840 		pop	{r3, r4, r5, r6, r7, lr}
 605              		.cfi_restore 14
 606              		.cfi_restore 7
 607              		.cfi_restore 6
 608              		.cfi_restore 5
 609              		.cfi_restore 4
 610              		.cfi_restore 3
 611              		.cfi_def_cfa_offset 0
 612              	.LVL10:
 145:..\u8g2_csrc/u8x8_setup.c **** }
 613              		.loc 1 145 0
 614 0018 FFF7FEBF 		b	u8x8_SetupMemory
 615              	.LVL11:
 616              		.cfi_endproc
 617              	.LFE3:
 618              		.size	u8x8_Setup, .-u8x8_Setup
 619              		.section	.rodata
 620              		.align	2
 621              		.set	.LANCHOR0,. + 0
 622              		.type	u8x8_null_display_info, %object
 623              		.size	u8x8_null_display_info, 24
 624              	u8x8_null_display_info:
 625 0000 00       		.byte	0
 626 0001 01       		.byte	1
 627 0002 00       		.byte	0
 628 0003 00       		.byte	0
 629 0004 00       		.byte	0
 630 0005 00       		.byte	0
 631 0006 00       		.byte	0
 632 0007 00       		.byte	0
 633 0008 00093D00 		.word	4000000
 634 000c 00       		.byte	0
 635 000d 04       		.byte	4
 636 000e 00       		.byte	0
 637 000f 00       		.byte	0
 638 0010 01       		.byte	1
 639 0011 01       		.byte	1
 640 0012 00       		.byte	0
 641 0013 00       		.byte	0
 642 0014 0800     		.short	8
 643 0016 0800     		.short	8
 644              		.text
 645              	.Letext0:
 646              		.file 2 "c:\\program files (x86)\\cypress\\psoc creator\\4.2\\psoc creator\\import\\gnu\\arm\\5.4.
 647              		.file 3 "c:\\program files (x86)\\cypress\\psoc creator\\4.2\\psoc creator\\import\\gnu\\arm\\5.4.
 648              		.file 4 "..\\u8g2_csrc\\u8x8.h"