ARM GAS  C:\Users\info\AppData\Local\Temp\ccGSe0tH.s 			page 1


   1              		.syntax unified
   2              		.cpu cortex-m3
   3              		.fpu softvfp
   4              		.eabi_attribute 20, 1
   5              		.eabi_attribute 21, 1
   6              		.eabi_attribute 23, 3
   7              		.eabi_attribute 24, 1
   8              		.eabi_attribute 25, 1
   9              		.eabi_attribute 26, 1
  10              		.eabi_attribute 30, 4
  11              		.eabi_attribute 34, 1
  12              		.eabi_attribute 18, 4
  13              		.thumb
  14              		.syntax unified
  15              		.file	"u8x8_d_uc1601.c"
  16              		.text
  17              	.Ltext0:
  18              		.section	.gnu.lto_.profile.bf14e42c,"",%progbits
  19 0000 789C6361 		.ascii	"x\234ca`d`e`\000\222\317\031\303\001\003\214\001K"
  19      60646065 
  19      600092CF 
  19      19C30103 
  19      8C014B
  20              		.text
  21              		.section	.gnu.lto_.icf.bf14e42c,"",%progbits
  22 0000 789C6361 		.ascii	"x\234ca`d\000\001\035\006\004`g\270\3304\177-+\343\212"
  22      60640001 
  22      1D060460 
  22      67B8D834 
  22      7F2D2BE3 
  23 0015 1BFB5B98 		.ascii	"\033\373[\230\230\3567\355\177\310\316\274\376\301\217"
  23      98EE37ED 
  23      7FC8CEBC 
  23      FEC18F
  24 0024 E54C2C2B 		.ascii	"\345L,+\277\237<\313\301\272\376\332\236\271ll\377\232"
  24      BF9F3CCB 
  24      C1BAFEDA 
  24      9EB96C6C 
  24      FF9A
  25 0036 DFAE6264 		.ascii	"\337\256bd\000\000\330w\025*"
  25      0000D877 
  25      152A
  26              		.text
  27              		.section	.gnu.lto_.jmpfuncs.bf14e42c,"",%progbits
  28 0000 789C858E 		.ascii	"x\234\205\216\275\015\302P\014\204}\266I\011\014\300"
  28      BD0DC250 
  28      0C847DB6 
  28      49090CC0 
  29 0010 7CEC90EA 		.ascii	"|\354\220\352=\204Rx\0036\340\177\006V`\014z\220\220"
  29      3D845278 
  29      0336E07F 
  29      0656600C 
  29      7A9090
  30 0023 902261F3 		.ascii	"\220\"a\363D\322D\3115g\237\276\223\255\004\012\255"
  30      44D244C9 
  30      35679FBE 
  30      93AD040A 
ARM GAS  C:\Users\info\AppData\Local\Temp\ccGSe0tH.s 			page 2


  30      AD
  31 0034 8BFD0452 		.ascii	"\213\375\004R\270\026\311\305\\GT\025+\322n\031\232"
  31      B816C9C5 
  31      5C475415 
  31      2BD26E19 
  31      9A
  32 0045 A281627D 		.ascii	"\242\201b}\3165\367\013Z\306\343}\267\352\305\215\020"
  32      CE35F70B 
  32      5AC6E37D 
  32      B7EAC58D 
  32      10
  33 0056 36C01EAB 		.ascii	"6\300\036\253\256\250\305\002\332~n\317yj\363.\347e"
  33      AEA8C502 
  33      DA7E6ECF 
  33      796AF32E 
  33      E765
  34 0068 233089F2 		.ascii	"#0\211\362\001i\034\212\3748\012\261\211\277\203\323"
  34      01691C8A 
  34      FC380AB1 
  34      89BF83D3 
  35 0078 14E4F770 		.ascii	"\024\344\367p\376C4\004\211\211z~\011h\352\1775\231"
  35      FE433404 
  35      89897A7E 
  35      0968EA7F 
  35      3599
  36 008a 797E7516 		.ascii	"y~u\026^\372\002\011\000O\\"
  36      5EFA0209 
  36      004F5C
  37              		.text
  38              		.section	.gnu.lto_.inline.bf14e42c,"",%progbits
  39 0000 789C6DD0 		.ascii	"x\234m\320\261N\3030\020\006\340\373/Nc\032B\263\"U"
  39      B14EC330 
  39      1006E0FB 
  39      2F4E631A 
  39      42B32255 
  40 0014 22AFC0C8 		.ascii	"\"\257\300\310\202\372\004y\005vx\011\017\355\212\322"
  40      82FA0479 
  40      05767809 
  40      0FED8AD2 
  41 0024 850131C0 		.ascii	"\205\0011\300\000\024\032\304\302@\021H\235\330\332"
  41      00141AC4 
  41      C2401148 
  41      9DD8DA
  42 0033 11897700 		.ascii	"\021\211w\000\011$\006\020\252\304\331\016.\003\036"
  42      09240610 
  42      AAC4D90E 
  42      2E031E
  43 0042 7CBF3FFB 		.ascii	"|\277?\373\244\223\025\201\354\272\361\305-\211\317"
  43      A4931581 
  43      ECBAF1C5 
  43      2D89CF
  44 0051 B48536F4 		.ascii	"\264\2056\364\356\202q0\033\336\265>x\020\021Vp\216"
  44      EE827130 
  44      1BDEB53E 
  44      78101156 
  44      708E
  45 0063 2E799E9D 		.ascii	".y\236\235\324\363\206\333\030\005\376\376\234?$\236"
ARM GAS  C:\Users\info\AppData\Local\Temp\ccGSe0tH.s 			page 3


  45      D4F386DB 
  45      1805FEFE 
  45      9C3F249E 
  46 0073 535C047E 		.ascii	"S\\\004~\233\234\216\330s\206\313\300\257O\343:\362"
  46      9B9C8ED8 
  46      7386CBC0 
  46      AF4FE33A 
  46      F2
  47 0084 BC8671E0 		.ascii	"\274\206q\340\372\354}\332\361\334A-\314\216\257_&_"
  47      FAEC7DDA 
  47      F1DC412D 
  47      CC8EAF5F 
  47      265F
  48 0096 99E51884 		.ascii	"\231\345\030\204+\307{\256B\313\310l\267T\306o\035o"
  48      2BC77BAE 
  48      42CBC86C 
  48      B754C66F 
  48      1D6F
  49 00a8 3075A7DB 		.ascii	"0u\247\333FS\374\030\0330\255\337\357\030\220\272U&"
  49      4653FC18 
  49      1B30ADDF 
  49      EF1890BA 
  49      5526
  50 00ba 2F88F761 		.ascii	"/\210\367aT\301\244\216X\252;rs\344\302?\312\311\344"
  50      54C1A48E 
  50      58AA3B72 
  50      73E4C23F 
  50      CAC9E4
  51 00cd C67E08A7 		.ascii	"\306~\010\247$\025U\2512H\210\0167\373I?\211V\255rU"
  51      241555A9 
  51      3248880E 
  51      37FB493F 
  51      8956AD72 
  52 00e2 56E5FF31 		.ascii	"V\345\3771\264I\350\331*w\275\360\312%\372s\345\306"
  52      B449E8D9 
  52      2A77BDF0 
  52      CA25FA73 
  52      E5C6
  53 00f4 10B29197 		.ascii	"\020\262\221\227Q\345K\015Q\3776\353\246Y9\240\037\252"
  53      51E54B0D 
  53      51FF36EB 
  53      A65939A0 
  53      1FAA
  54 0106 EB5C62   		.ascii	"\353\\b"
  55              		.text
  56              		.section	.gnu.lto_.pureconst.bf14e42c,"",%progbits
  57 0000 789C6361 		.ascii	"x\234ca`d`f`\000\222R\000\000r\000$"
  57      60646066 
  57      60009252 
  57      00007200 
  57      24
  58              		.text
  59              		.section	.gnu.lto_u8x8_d_uc1601_128x32.bf14e42c,"",%progbits
  60 0000 789C9D57 		.ascii	"x\234\235WkpTE\026\356s{f\356\314\235\247\222uQ&\020"
  60      6B705445 
  60      16EE737B 
  60      66EECC9D 
ARM GAS  C:\Users\info\AppData\Local\Temp\ccGSe0tH.s 			page 4


  60      A7927551 
  61 0016 8A0A102A 		.ascii	"\212\012\020*\002\321\252]\255\332\255u\377\355\357"
  61      02D1AA5D 
  61      ADDAAD75 
  61      FFEDEF
  62 0025 FDED1665 		.ascii	"\375\355\026e\305-\326\332\332\255-\324*\376X\271\231"
  62      C52DD6DA 
  62      DAAD2DD4 
  62      2AFE58B9 
  62      99
  63 0036 475EA282 		.ascii	"G^\242\202B\022c\000-7\013+\021\302KH|\215QA!\011F\242"
  63      42126300 
  63      2D370B2B 
  63      11C24B48 
  63      7C8D5141 
  64 004e 21441608 		.ascii	"!D\026\010\020\"\006d\002l\302+\3439\247\347\316\203"
  64      10220664 
  64      026CC22B 
  64      E339A7E7 
  64      CE83
  65 0060 9949DC9D 		.ascii	"\231I\334\235\2529\267o\337\376N\177\347\353sO\367\265"
  65      AA39B76F 
  65      DFFE4E7F 
  65      E7EB734F 
  65      F7B5
  66 0072 0910F4DB 		.ascii	"\011\020\364\333\347\027\342\011\274\216\342\037\356"
  66      E717E209 
  66      BC8EE21F 
  66      EE
  67 007f 13A0ADEF 		.ascii	"\023\240\255\357\023\242\332\251\351\376Mna:%[\033["
  67      13A2DAA9 
  67      E9FE4D6E 
  67      613A255B 
  67      1B5B
  68 0091 3B5B275B 		.ascii	";['[7[\217\032\003~\005\262Y\015\273\346\250[\"LC'\353"
  68      375B8F1A 
  68      037E05B2 
  68      590DBBE6 
  68      A85B224C 
  69 00a8 7158DDBA 		.ascii	"qX\335\272\325pj.~n\360s\227\325mX\015\267\325\360\200"
  69      D5706A2E 
  69      7E6EF073 
  69      97D56D58 
  69      0DB7D5F0 
  70 00bd 5735BC5A 		.ascii	"W5\274Z`\335a\201\020_DGH@\365\377\336g\015\364\003"
  70      60DD6181 
  70      105F4447 
  70      4840F5FF 
  70      DE670DF4 
  71 00d2 50C37482 		.ascii	"P\303t\202\250\322\244\315\356\320\235.\303\355\361"
  71      A8D2A4CD 
  71      EED09D2E 
  71      C3EDF1
  72 00e1 067C7EA8 		.ascii	"\006|~\250\322\274\002b6H\250\210ohw58:\371\305:\243"
  72      D2BC0262 
  72      3648A888 
  72      6F687735 
ARM GAS  C:\Users\info\AppData\Local\Temp\ccGSe0tH.s 			page 5


  72      383AF9C5 
  73 00f7 6C9B6986 		.ascii	"l\233i\206\3143\237O\377!\036\212\316\215J!\022\232"
  73      CC339F4F 
  73      FF211E8A 
  73      CE8D4A21 
  73      129A
  74 0109 804783B0 		.ascii	"\200G\203\2602Hjl\2032\034\331\037\351h\225\327\265"
  74      32486A6C 
  74      83321CD9 
  74      1FE96895 
  74      D7B5
  75 011b A804B0E1 		.ascii	"\250\004\260\341m\274\267\345\234\217n5(\301\3337\007"
  75      6DBCB7E5 
  75      9C8F6E35 
  75      28C1DB37 
  75      07
  76 012c DEFECE21 		.ascii	"\336\376\316!K@`\273\361\310\300\025\357\2226\362in"
  76      4B4060BB 
  76      F1C8C015 
  76      EF9236F2 
  76      696E
  77 013e FEB3E98A 		.ascii	"\376\263\351\212J\011\357\200$\237\377\206 l\207\240"
  77      4A09EF80 
  77      249FFF86 
  77      206C87A0 
  78 014e C02E013B 		.ascii	"\300.\001;`\011\216\356\351\350\034\264\311RFN~\360"
  78      60098EEE 
  78      E9E81CB4 
  78      C952464E 
  78      7EF0
  79 0160 E95D0B39 		.ascii	"\351]\0139\364'S\"\025hWH\305\206\270\301\273\214k\356"
  79      F4275322 
  79      15685748 
  79      C586B8C1 
  79      BB8C6BEE 
  80 0174 3FF39221 		.ascii	"?\363\222!\313\030\327z\341\307!{\022\367\332!\267\271"
  80      CB18D77A 
  80      E1C7217B 
  80      12F7DA21 
  80      B7B9
  81 0186 92803B73 		.ascii	"\222\200;s\200\273\0308t\261\367\270!+\030\370\316\376"
  81      80BB1838 
  81      74B1F7B8 
  81      212B18F8 
  81      CEFE
  82 0198 D37BF424 		.ascii	"\323{\364$\260\377\220\307\\\017Qi\203\216{\311\332"
  82      B0FF90C7 
  82      5C0F5169 
  82      838E7BC9 
  82      DA
  83 01a9 04EC8625 		.ascii	"\004\354\206%\004xy\240aD\312\307\031\334fv4\270J\337"
  83      047879A0 
  83      6144CAC7 
  83      19DC6676 
  83      34B84ADF 
  84 01bd 2670EC76 		.ascii	"&p\354v\255\357u3\026)\211J;\354\311\206\323\017G\367"
  84      ADEF7533 
ARM GAS  C:\Users\info\AppData\Local\Temp\ccGSe0tH.s 			page 6


  84      1629894A 
  84      3BECC986 
  84      D30F47F7 
  85 01d1 6D6BDB68 		.ascii	"mk\333h\310\3372rkc\327\011\013y\263\326\337d\306\252"
  85      C8DF3272 
  85      6B63D709 
  85      0B79B3D6 
  85      DF64C6AA 
  86 01e5 4B88F2BE 		.ascii	"K\210\362\276L\312I\\KWm\310\220\277c\\\370\340\340"
  86      4CCA495C 
  86      4B576DC8 
  86      90BF635C 
  86      F8E0E0
  87 01f8 FB7E8533 		.ascii	"\373~\2053\017<i\206\237 \320{y@#\273\2477y\035\021"
  87      0F3C6986 
  87      9F20D07B 
  87      794023BB 
  87      A737791D 
  88 020d 137F2570 		.ascii	"\023\177%p\000Ja?\376\367B)-,\012q\020\034\230\0032"
  88      004A613F 
  88      FEF74229 
  88      2D2C0A71 
  88      101C9803 
  89 0222 F3C9AE3F 		.ascii	"\363\311\256?\306\314D\"l\306&\365O\256\273\227\003"
  89      C6CC4422 
  89      6CC626F5 
  89      4FAEBB97 
  89      03
  90 0233 ABA5916E 		.ascii	"\253\245\221nv \305u\240\365r\003u\373\261\333\021@"
  90      7620C575 
  90      A0F57203 
  90      75FBB1DB 
  90      1140
  91 0245 A3CFA156 		.ascii	"\243\317\241V\021\265\346\001I\024\024\344\263\230\355"
  91      11B5E601 
  91      491414E4 
  91      B398ED
  92 0254 7CEA5EC0 		.ascii	"|\352^\300\315\022j.$\263\210L)\231\305d\226\012\232"
  92      CD126A2E 
  92      24B3884C 
  92      2999C564 
  92      960A9A
  93 0267 BF8CED32 		.ascii	"\277\214\3552A<\312yb!\256\"\321\226\012\021\3274\274"
  93      413CCA79 
  93      6221AE22 
  93      D1960A11 
  93      D734BC
  94 027a C80BD06C 		.ascii	"\310\013\320l\236H\314%\342ai\247\034\033\372\347\230"
  94      9E48CC25 
  94      E26169A7 
  94      1C1BFAE7 
  94      98
  95 028b 7D03BC52 		.ascii	"}\003\274R\2151\306N\035\305<tb\326K\012\037:a\003\320"
  95      8D31C64E 
  95      1DC53C74 
  95      62D64B0A 
  95      1F3A6103 
ARM GAS  C:\Users\info\AppData\Local\Temp\ccGSe0tH.s 			page 7


  96 02a0 90DE0D5D 		.ascii	"\220\336\015]\016\312P\001.\274\355\036\037>\017\026"
  96      0ECA5001 
  96      2EBCED1E 
  96      1F3E0F16 
  97 02b0 62BD8100 		.ascii	"b\275\201\000\350\302\3251%\275\015\360\276\302\364"
  97      E8C2D531 
  97      25BD0DF0 
  97      BEC2F4
  98 02bf BED5DE97 		.ascii	"\276\325\336\227\304\030x\033\252\037lsZ\230F\306|\300"
  98      C418781B 
  98      AA1F6C73 
  98      5A9846C6 
  98      7CC0
  99 02d1 1856F143 		.ascii	"\030V\361C\205\271=\325\367\241\2560n\312\341M\243o"
  99      85B93DD5 
  99      F7A1AE30 
  99      6ECAE14D 
  99      A36F
 100 02e3 3A2CCC16 		.ascii	":,\314\026\306|\304\030\"\007\037+\314\325\316\266\355"
 100      C67CC418 
 100      22071F2B 
 100      CCD5CEB6 
 100      ED
 101 02f4 9AC278F1 		.ascii	"\232\302x\361\366\302{\257\327I\013\323\305\230\030"
 101      F6C27BAF 
 101      D7490BD3 
 101      C59818
 102 0303 636C84F9 		.ascii	"cl\204\371Da.\177\273\243]*\214\017oo\364\235\334\356"
 102      44612E7F 
 102      BBA35D2A 
 102      8C0F6F6F 
 102      F49DDCEE 
 103 0317 B130D719 		.ascii	"\2610\327\031\323\315\030;a>U\230\366\177\305c~\205"
 103      D3CD183B 
 103      613E5598 
 103      F67FC563 
 103      7E85
 104 0329 F1E3ED96 		.ascii	"\361\343\355\226}\3336z-\314\253n\302|\306\030\007a"
 104      7DDB367A 
 104      2DCCAB6E 
 104      C27CC618 
 104      0761
 105 033b 3E470C5E 		.ascii	">G\014^\343\232\024\021]\236\207\352\000\351M\002\215"
 105      E39A1411 
 105      5D9E87EA 
 105      00E94D02 
 105      8D
 106 034c 4134F6DA 		.ascii	"A4\366\332\021I\267\224]\235\235\343\303z\325]\263\316"
 106      1149B794 
 106      5D9D9DE3 
 106      C37AD55D 
 106      B3CE
 107 035e 340351E9 		.ascii	"4\003Q\351Jh\010\203CP%\302R'\341\243\335\307X\020\207"
 107      4A680883 
 107      435025C2 
 107      5227E1A3 
 107      DDC75810 
ARM GAS  C:\Users\info\AppData\Local\Temp\ccGSe0tH.s 			page 8


 108 0373 4ADA5B1F 		.ascii	"J\332[\037_\363\341\350f\036\355\250\227:\247\350\227"
 108      5FF3E1E8 
 108      661EEDA8 
 108      973AA7E8 
 108      97
 109 0384 2D3BFEBA 		.ascii	"-;\376\272\0256W\257\347n\003\276\200*8L\257\013>K\\"
 109      153657AF 
 109      E76E03BE 
 109      802A384C 
 109      AF0B3E4B 
 110 0399 DAB3D385 		.ascii	"\332\263\323\205\220\271\344\343K\330\012<3\034\201"
 110      90B9E4E3 
 110      4BD80A3C 
 110      331C81
 111 03a8 AAA87433 		.ascii	"\252\250t3E[6E\015)Fb\315F~\206\236\004f\221\200\243"
 111      455B3645 
 111      0D294662 
 111      CD467E86 
 111      9E046691 
 112 03be 8A61547A 		.ascii	"\212aTz9\240\226\002\243}\011\215\212EOn<\376<\361\370"
 112      39A09602 
 112      A37D098D 
 112      8A454F6E 
 112      3CFE3CF1 
 113 03d3 EB29F372 		.ascii	"\353)\363r\342\011@\037\306\323{O<\0101\233\200\034"
 113      E209401F 
 113      C6D37B4F 
 113      3C08319B 
 113      801C
 114 03e5 1D4B05F5 		.ascii	"\035K\005\365\025\005u\037\007e\317\016J\212\263\020"
 114      1505751F 
 114      0765CF0E 
 114      4A8AB310 
 115 03f5 39193EB7 		.ascii	"9\031>\267\361!\225\367\224]\273\306;oz\211\213\216"
 115      F12195F7 
 115      945DBBC6 
 115      3B6F7A89 
 115      8B8E
 116 0407 6F687FB2 		.ascii	"oh\177\262\272\3045\207\350\226\222\202\332\333\000"
 116      BAC43587 
 116      E8969282 
 116      DADB00
 117 0416 3346F575 		.ascii	"3F\365unT\367\347\211\352\376z\351\312\023\325\034\030"
 117      6E54F7E7 
 117      89EAFE7A 
 117      E9CA13D5 
 117      1C18
 118 0428 C0A88EE7 		.ascii	"\300\250\216\347\211\352\005\362\363M*\250o\323A\351"
 118      89EA05F2 
 118      F34D2AA8 
 118      6FD341E9 
 119 0438 16B503B3 		.ascii	"\026\265\003\263P\033LQ\313\341b\344\345rb&.C).'\323"
 119      501B4C51 
 119      CBE162E4 
 119      E5726226 
 119      2E43292E 
 120 044e 5C9CD902 		.ascii	"\\\234\331\002\333\224\300\267S\002g(\352\262h\367\317"
ARM GAS  C:\Users\info\AppData\Local\Temp\ccGSe0tH.s 			page 9


 120      DB94C0B7 
 120      53026728 
 120      EAB268F7 
 120      CF
 121 045f 427B3857 		.ascii	"B{8W\321\242<\212\026\325S\346\346D\361\0138\205Q|\227"
 121      D1A23C8A 
 121      16D553E6 
 121      E644F10B 
 121      3885517C 
 122 0474 3F8A22F8 		.ascii	"?\212\"\370O*\212\323*\212Q\010u\305\007&\354\212\360"
 122      4F2A8AD3 
 122      2A8A5108 
 122      75C50726 
 122      EC8AF0
 123 0487 9CCC59A5 		.ascii	"\234\314Y\245\332B\017\037\251\363\240\177\314\262\007"
 123      DA420F1F 
 123      A9F3A07F 
 123      CCB207
 124 0496 90169C49 		.ascii	"\220\026\234I\272n;\037\332\251\257x\230^\250\263\350"
 124      BA6E3B1F 
 124      DAA9AF78 
 124      985EA8B3 
 124      E8
 125 04a7 745AE352 		.ascii	"tZ\343R9\002+\330\345\331\305\312aQ\266\007\003\247"
 125      39022BD8 
 125      E5D9C5CA 
 125      6151B607 
 125      03A7
 126 04b9 48BD945B 		.ascii	"H\275\224[\232\017^\363\255x\227X\377\022\316\261\017"
 126      9A0F5EF3 
 126      AD789758 
 126      FF12CEB1 
 126      0F
 127 04ca 2E9DE795 		.ascii	".\235\347\225\217\306\263E\344#\303A5m?\336B<\004\\"
 127      8FC6B345 
 127      E423C341 
 127      356D3FDE 
 127      423C045C 
 128 04de 601F5C4A 		.ascii	"`\037\\JGa\005N\316\302\033\226\360\303\263\010\177"
 128      4761054E 
 128      CEC21B96 
 128      F0C3B308 
 128      7F
 129 04ef B140BEA0 		.ascii	"\261@\276\240\322\236\274J\217\315\244\364\367)\245"
 129      D29EBC4A 
 129      8FCDA4F4 
 129      F729A5
 130 04fe 2FA595DE 		.ascii	"/\245\225\336=h)\355\377y\322\376\220\226v\374\036i"
 130      3D6829ED 
 130      FF79D2FE 
 130      909676FC 
 130      1E69
 131 0510 0339D2FA 		.ascii	"\0039\322\372\363K{\231}\360nq\345\377\225\366\307\264"
 131      F34B7B99 
 131      7DF06E71 
 131      E5FF95F6 
 131      C7B4
ARM GAS  C:\Users\info\AppData\Local\Temp\ccGSe0tH.s 			page 10


 132 0522 B45749DA 		.ascii	"\264WI\332\000K\353\316N\177;\027\315\311Bu}n\002\253"
 132      004BEBCE 
 132      4E7F3B17 
 132      CDC94275 
 132      7D6E02AB 
 133 0536 AC80B855 		.ascii	"\254\200\270U5\037\344\2529U\240j>\224\300\362%`\"\265"
 133      351FE4AA 
 133      3955A06A 
 133      3E94C0F2 
 133      256022B5 
 134 054a 2863935F 		.ascii	"(c\223_\325'\267\322j\200k\020\214\312y\354\341Va\017"
 134      D527B7D2 
 134      6A806B10 
 134      8CCA79EC 
 134      E156610F 
 135 055e B80DC175 		.ascii	"\270\015\301u\345\001\337F\005\210\304\356\024\000 "
 135      E501DF46 
 135      0588C4EE 
 135      140020
 136 056d 41DC4AE0 		.ascii	"A\334J\340F\232 \005\351\311\016\322\301.6\272g\214"
 136      469A2005 
 136      E9C90ED2 
 136      C12E36BA 
 136      678C
 137 057f F1BF6917 		.ascii	"\361\277i\027\274\354\243\257J\265h\301\314\027,\230"
 137      BCECA3AF 
 137      4AB568C1 
 137      CC172C98 
 138 058f F582F112 		.ascii	"\365\202\361\0224\001\236b\212\303r\036L\346.\302\024"
 138      34019E62 
 138      8AC3721E 
 138      4CE62EC2 
 138      14
 139 05a0 2F026FE1 		.ascii	"/\002o\3417q!G d>\312G/<\021\241k\234*\334Rs\251\\\315"
 139      37712147 
 139      20643ECA 
 139      472F3C11 
 139      A16B9C2A 
 140 05ba 54AC266B 		.ascii	"T\254&k\2705\370\262S\251\346\204[\350s\004\2644\246"
 140      B835F8B2 
 140      53A9E684 
 140      5BE87304 
 140      B434A6
 141 05cd 58D1BB18 		.ascii	"X\321\273\030Jf\345\374\237\223\225\002n\247\263\341"
 141      4A66E5FC 
 141      9F939502 
 141      6EA7B3E1 
 142 05dd 0E6754B8 		.ascii	"\016gT\270\261\246\007\224\213\005<\365\374\354y\026"
 142      B1A60794 
 142      8B053CF5 
 142      FCEC7916 
 143 05ed D098899A 		.ascii	"\320\230\211\232\351v\237\032T\202]\231\237\000\363"
 143      E9769F1A 
 143      54825D99 
 143      9F00F3
 144 05fc C1067781 		.ascii	"\301\006w\201#\230r\250!\013q\024\016\371\372j\317f"
 144      239872A8 
ARM GAS  C:\Users\info\AppData\Local\Temp\ccGSe0tH.s 			page 11


 144      210B7114 
 144      0EF9FA6A 
 144      CF66
 145 060e B7DA9F02 		.ascii	"\267\332\237\0020\215C\306\300>c\302$\254\345^H\313"
 145      308D43C6 
 145      C03E63C2 
 145      24ACE55E 
 145      48CB
 146 0620 8D0EEFD4 		.ascii	"\215\016\357\324t?\254\\.\302Y\371|2\233\017SK\372X"
 146      743FAC5C 
 146      2EC259F9 
 146      7C329B0F 
 146      534BFA58 
 147 0634 A47C6089 		.ascii	"\244|`\211\034\237\360+'\245\331\022\025Z\253j\215$"
 147      1C9FF02B 
 147      27A5D912 
 147      155AAB6A 
 147      8D24
 148 0646 E2A35348 		.ascii	"\342\243SHc\211\246j~\243<,VN\006\336j:\223\214\254"
 148      6389A66A 
 148      7EA33C2C 
 148      564E06DE 
 148      6A3A938C 
 149 065b 0320ACCD 		.ascii	"\003 \254\315N+b\321Z\234\242u\331J\254\245\377S&E\231"
 149      4E2B62D1 
 149      5A9CA275 
 149      D94AACA5 
 149      FF532645 
 150 0670 1D1FD26A 		.ascii	"\035\037\322j\264\314L\332O\253\265Te\322HR\2662\354"
 150      B4CC4CDA 
 150      4FABB554 
 150      65D24852 
 150      B632EC
 151 0683 C94A1D1E 		.ascii	"\311J\035\036T\246\010\\\331\223$\260\354^\002o\024"
 151      54A6085C 
 151      D99324B0 
 151      EC5E026F 
 151      14
 152 0694 2660875A 		.ascii	"&`\207Z&\240\023\201\272$\201_\263\357\275\344{\031"
 152      26A01381 
 152      BA24815F 
 152      B3EFBDE4 
 152      7B19
 153 06a6 BF785E81 		.ascii	"\277x^\201_\236\022\037\005\370\010\037\346scM\254\377"
 153      5F9E121F 
 153      05F8081F 
 153      E673634D 
 153      ACFF
 154 06b8 C502657C 		.ascii	"\305\002e|A\002\367c\001\365\226J\310{YT\226\250\364"
 154      4102F763 
 154      01F5964A 
 154      C87B5954 
 154      96A8F4
 155 06cb ECDBF988 		.ascii	"\354\333\371\210\342Y\216~\020z<\374\331\261\344\341"
 155      E2598E7E 
 155      107A3CFC 
 155      D9B1E4E1 
ARM GAS  C:\Users\info\AppData\Local\Temp\ccGSe0tH.s 			page 12


 156 06db 3701D0A0 		.ascii	"7\001\320\240\245\243\343\251\312i'\037\016\357h\322"
 156      A5A3E3A9 
 156      CA69271F 
 156      0EEF68D2 
 157 06eb 93286B27 		.ascii	"\223(k'\237\300\245\222n\017\232\362@\353\251\247\361"
 157      9FC0A592 
 157      6E0F9AF2 
 157      40EBA9A7 
 157      F1
 158 06fc B32220F0 		.ascii	"\263\" \360\003\032\342\232\217\352\004\325\206\241"
 158      031AE29A 
 158      8FEA04D5 
 158      86A1
 159 070a A3850B20 		.ascii	"\243\205\013 \325\227\027\265\254\372\342\027\255\025"
 159      D59717B5 
 159      ACFAE217 
 159      AD15
 160 0718 5C5FF873 		.ascii	"\\_\370s\343\022\205\033\346\357\201\011\3202\253\205"
 160      E312851B 
 160      E6EF8109 
 160      D032AB85 
 161 0728 C003DA3A 		.ascii	"\300\003\332:-\250\3359\265\026\273\367\327\366\354"
 161      2DA8DD39 
 161      B516BBF7 
 161      D7F6EC
 162 0737 365437C0 		.ascii	"6T7\300KZ\320\326z\372/t\305{\264.\266\016\266>\266"
 162      4B5AD0D6 
 162      7AFA2F74 
 162      C57BB42E 
 162      B60EB63E 
 163 074c 6EB6065B 		.ascii	"n\266\006[\235\276\206\000\247\305Y\212\227/\177\362"
 163      9DBE8600 
 163      A7C5598A 
 163      972F7FF2 
 164 075c F9C7563F 		.ascii	"\371\307V?\262\252\362\3315\225\330Z\373\330\252\247"
 164      B2AAF2D9 
 164      3595D85A 
 164      FBD8AAA7 
 165 076c 573D5F59 		.ascii	"W=_Y\361\253\225\025\313+\205\215:\344\337\236]\255"
 165      F1AB9515 
 165      CB2B858D 
 165      3AE4DF9E 
 165      5DAD
 166 077e 3FB566F5 		.ascii	"?\265f\365\252g\376\376\034_\377\361\334\032\211\177"
 166      AA67FEFE 
 166      1C5FFFF1 
 166      DC1A897F 
 167 078e A884B53F 		.ascii	"\250\204\265?\001\033\326<\252"
 167      011BD63C 
 167      AA
 168              		.text
 169              		.section	.gnu.lto_u8x8_uc1601_128x32_display_info.bf14e42c,"",%progbits
 170 0000 789C2DCD 		.ascii	"x\234-\315OK\002A\030\307\361\371\315\354n\272\256\253"
 170      4F4B0241 
 170      18C7F1F9 
 170      CDEC6EBA 
 170      AEAB
ARM GAS  C:\Users\info\AppData\Local\Temp\ccGSe0tH.s 			page 13


 171 0012 75F6E0CB 		.ascii	"u\366\340\313\360\320\313\351u\304\202\032u\362\322"
 171      F0D0CBE9 
 171      75C4821A 
 171      75F2D2
 172 0021 49140C02 		.ascii	"I\024\014\002\313r\335T\304<K!\024\364\347\024D\227"
 172      CB72DD54 
 172      C43C4B21 
 172      14F4E714 
 172      4497
 173 0033 443C74A8 		.ascii	"D<t\250\330\213\177\222\236\247\247\271|\347\303<3c"
 173      D88B7F92 
 173      9EA7A7B9 
 173      7CE7C33C 
 173      3363
 174 0045 29285E7B 		.ascii	")(^{\024\331)\365\243\361u_}\367c]6\012y\342`6\271q"
 174      14D929F5 
 174      A3F1755F 
 174      7DF7635D 
 174      360A79E2 
 175 005d 8501C88F 		.ascii	"\205\001\310\217\245\250f\330\200E\354|\\/\322B\276"
 175      A5A866D8 
 175      8045EC7C 
 175      5C2FD242 
 175      BE
 176 006e FCF47957 		.ascii	"\374\364yWO\011\263\304\347\331I\311\023>\360q\245\370"
 176      4F09B3C4 
 176      E7D949C9 
 176      133EF071 
 176      A5F8
 177 0080 B62FDC25 		.ascii	"\266/\334%\365\307\267\007\011!\277\\y\215\207\177O"
 177      F5C7B707 
 177      0921BF5C 
 177      798D877F 
 177      4F
 178 0091 6904474B 		.ascii	"i\004GK\036\017\277\343\320\221\201\014q5?~\201\320"
 178      1E0FBFE3 
 178      D091810C 
 178      71353F7E 
 178      81D0
 179 00a3 234E57ED 		.ascii	"#NW\355\221/t\210\223\323\321\372\377/\233X\035\257"
 179      912F7488 
 179      93D3D1FA 
 179      FF2F9B58 
 179      1DAF
 180 00b5 1B6E6110 		.ascii	"\033na\020\0346\202\310.\033\263\321\012-\3446\032\010"
 180      1C3682C8 
 180      2E1BB3D1 
 180      0A2DE436 
 180      1A08
 181 00c7 395A62D0 		.ascii	"9Zb\320\343X\"\033]\216\203+\316\026\"N\002\035NR\256"
 181      E358221B 
 181      5D8E832B 
 181      CE16224E 
 181      021D4E52 
 182 00dc BB329942 		.ascii	"\2732\231B\233\343\341\222\223\306\005\307\3079'#\223"
 182      9BE3E192 
 182      93C605C7 
ARM GAS  C:\Users\info\AppData\Local\Temp\ccGSe0tH.s 			page 14


 182      C7392723 
 182      93
 183 00ed 59D136CE 		.ascii	"Y\3216\3168;h\"\247\320GA\375\002\016\242x\352"
 183      383B6822 
 183      A7D04741 
 183      FD020EA2 
 183      78EA
 184              		.text
 185              		.section	.gnu.lto_u8x8_d_uc1601_128x32_init_seq.bf14e42c,"",%progbits
 186 0000 789C4D92 		.ascii	"x\234M\222YOSQ\024\205\317\276\267\003C\245\202\242"
 186      594F5351 
 186      1485CFBE 
 186      B70343A5 
 186      82A2
 187 0012 92DC071F 		.ascii	"\222\334\007\037|&Q_\370A\376\020Jz\015\364\251&\306"
 187      7C26515F 
 187      F841FE10 
 187      4A7A0DF4 
 187      A926C6
 188 0025 F2201141 		.ascii	"\362 \021A-\025;\340\320\322AeF\260\032\306\230&(Uq"
 188      2D153BE0 
 188      D0D24165 
 188      46B01AC6 
 188      98262855 
 189 003a 08180258 		.ascii	"\010\030\002X\003\332\001\327\351\336\017m\362\345\366"
 189      03DA01D7 
 189      E9DE0F6D 
 189      F2E5F6
 190 0049 CB5A679F 		.ascii	"\313Zg\237\335\346:\024)\375\271l*\371\246T\325\240"
 190      DDE63A14 
 190      29FDB96C 
 190      2AF9A654 
 190      D5A0
 191 005b B8BD1369 		.ascii	"\270\275\023i*\031\266\251\350\224\340\373\376o\305"
 191      2A19B6A9 
 191      E894E0FB 
 191      FE6FC5
 192 006a 56ED4497 		.ascii	"V\355D\227\240\245P\276\340\345\270\013\372;d\0174q"
 192      A0A550BE 
 192      E0E5B80B 
 192      FA3B640F 
 192      3471
 193 007c 7A111ABE 		.ascii	"z\021\032\276\267\276\341\341\364\221>\374\347o`\277"
 193      B7BEE1E1 
 193      F4913EFC 
 193      E76F60BF 
 194 008c 99E30BD0 		.ascii	"\231\343\013\320\257\341Z\310\305qg\243R]\373\262\205"
 194      AFE15AC8 
 194      C57167A3 
 194      525DFBB2 
 194      85
 195 009d 5B32BAA8 		.ascii	"[2\272\25079\254\014\245\344\360y}s\372\346\2776\326"
 195      3739AC0C 
 195      A5E4F079 
 195      7D73FAE6 
 195      BF36D6
 196 00b0 73D044F1 		.ascii	"s\320D\361\243OfuC'\212\225\234\203\323\016h\377\342"
ARM GAS  C:\Users\info\AppData\Local\Temp\ccGSe0tH.s 			page 15


 196      A34F6675 
 196      43278A95 
 196      9C83D30E 
 196      68FFE2
 197 00c3 A74D626D 		.ascii	"\247Mbm\207\356\036\216\214\271\271\274\255\367Z;\310"
 197      87EE1E8E 
 197      8CB9B9BC 
 197      ADF75A3B 
 197      C8
 198 00d4 0FC98F3A 		.ascii	"\017\311\217:\333\270\246\252\257\031;*\305d//4\033"
 198      DBB8A6AA 
 198      AF193B2A 
 198      C5642F2F 
 198      341B
 199 00e6 89FF909B 		.ascii	"\211\377\220\233|\372pu\313W38n\203\216\356\246g\235"
 199      7CFA7075 
 199      CB573338 
 199      6E838EEE 
 199      A6679D
 200 00f9 AC6774BA 		.ascii	"\254gt\272\035\014\312U\303\272]\376y\273 \233x\240"
 200      1D0CCA55 
 200      C3BA5DFE 
 200      79BB209B 
 200      78A0
 201 010b 1F0AFEB4 		.ascii	"\037\012\376\264h+4p\2476-7\317\325g\037\254T=\034\267"
 201      682B3470 
 201      A7362D37 
 201      CFD5671F 
 201      AC543D1C 
 202 0120 40C7930F 		.ascii	"@\307\223\0173\322n\326\351\340\367\373&\267\007t\273"
 202      33D26ED6 
 202      E9E0F7FB 
 202      26B70774 
 202      BB
 203 0131 14B08F4D 		.ascii	"\024\260\217M\216\335\320\223\334\352\210\301\361\025"
 203      8EDDD093 
 203      DCEA88C1 
 203      F115
 204 013f E84E399A 		.ascii	"\350N9\232\221?\314\005]z\220\251\310h'45\372+\342\344"
 204      913FCC05 
 204      5D7A90A9 
 204      C8682734 
 204      35FA2BE2 
 205 0154 F29E9EB5 		.ascii	"\362\236\236\265\352O\334\225Y\016\350\314Q\",mS\247"
 205      EA4FDC95 
 205      590EE8CC 
 205      51222C6D 
 205      53A7
 206 0166 D1CF37B8 		.ascii	"\321\3177\270\374E\227\347O\217\247\274\234\032\215"
 206      FC4597E7 
 206      4F8FA7BC 
 206      9C1A8D
 207 0175 EF88AABF 		.ascii	"\357\210\252\277#\331\365\367QWO\262\267\177\2707\350"
 207      23D9F5F7 
 207      51574FB2 
 207      B77FB837 
 207      E8
ARM GAS  C:\Users\info\AppData\Local\Temp\ccGSe0tH.s 			page 16


 208 0186 B64D83AE 		.ascii	"\266M\203\256Z\224'\213\256Y\024\305\343-X\006K\304"
 208      5A94278B 
 208      AE5914C5 
 208      E32D5806 
 208      4BC4
 209 0198 FE062C82 		.ascii	"\376\006,\202\005\361y0\007f\305\257[4\203\307\264\350"
 209      05F17930 
 209      0766C5AF 
 209      5B3483C7 
 209      B4E8
 210 01aa 14780D5E 		.ascii	"\024x\015^\211\277\0049\220\025\317\2004\230\004)\220"
 210      89BF0439 
 210      9015CF80 
 210      34980429 
 210      90
 211 01bb 042FC073 		.ascii	"\004/\300s\311\237\201\247`B<\001\342 &\376\004\214"
 211      C99F81A7 
 211      60423C01 
 211      E22026FE 
 211      048C
 212 01cd 83C72002 		.ascii	"\203\307 \002\306@\230,E\357\250G\375\007%\371\020O"
 212      C640982C 
 212      45EFA847 
 212      FD0725F9 
 212      104F
 213              		.text
 214              		.section	.gnu.lto_u8x8_d_uc1601_128x32_powersave0_seq.bf14e42c,"",%progbits
 215 0000 789C6361 		.ascii	"x\234ca`d\000\201\355@\014a10\374eb\\\337\372d%\307"
 215      60640081 
 215      ED400C61 
 215      3130FC65 
 215      625CDFFA 
 216 0017 17A65666 		.ascii	"\027\246Vf\006\306\377\214@\376\305\226\015s\230A|F"
 216      06C6FF8C 
 216      40FEC596 
 216      0D739841 
 216      7C46
 217 0029 461620F7 		.ascii	"F\026 \367\313\36437\371!\322\222@\356\241O\033\226"
 217      CBF43337 
 217      F921D292 
 217      40EEA14F 
 217      1B96
 218 003b F3406499 		.ascii	"\363@d\231\201\334I\277OO\343\202\310\256\007i>\372"
 218      81DC49BF 
 218      4F4FE382 
 218      C8AE0769 
 218      3EFA
 219 004d FFFB017E 		.ascii	"\377\373\001~\2104\023\220\373x\371\277\351l\020iQ "
 219      88341390 
 219      FB78F9BF 
 219      E96C1069 
 219      5120
 220 005f F75DCBD3 		.ascii	"\367]\313\323\007\334\020\256\004\220\373\371\344\306"
 220      07DC10AE 
 220      0490FBF9 
 220      E4C6
 221 006d 257C16DB 		.ascii	"%|\026\333\032:\0264\004\264231\032\3120\256c\224a4"
ARM GAS  C:\Users\info\AppData\Local\Temp\ccGSe0tH.s 			page 17


 221      1A3A1634 
 221      04B43233 
 221      311ACA30 
 221      AE639461 
 222 0082 92615C0B 		.ascii	"\222a\\\013\244\326\000\361j ^\005\304+\201x\005\020"
 222      A4D600F1 
 222      6A205E05 
 222      C42B8178 
 222      0510
 223 0094 2F679401 		.ascii	"/g\224\001Yd\301\000\000\271N?="
 223      5964C100 
 223      00B94E3F 
 223      3D
 224              		.text
 225              		.section	.gnu.lto_u8x8_d_uc1601_128x32_powersave1_seq.bf14e42c,"",%progbits
 226 0000 789C6361 		.ascii	"x\234ca`d\000\201\355@\014a10\374eb\\\337\372d%\307"
 226      60640081 
 226      ED400C61 
 226      3130FC65 
 226      625CDFFA 
 227 0017 17A65666 		.ascii	"\027\246Vf\006\306\377\214@\376\305\226\015s\230A|F"
 227      06C6FF8C 
 227      40FEC596 
 227      0D739841 
 227      7C46
 228 0029 461620F7 		.ascii	"F\026 \367\313\36437\371!\322\222@\356\241O\033\226"
 228      CBF43337 
 228      F921D292 
 228      40EEA14F 
 228      1B96
 229 003b F3406499 		.ascii	"\363@d\231\201\334S\033\257\035\204j^\007\322|\364\377"
 229      81DC531B 
 229      AF1D846A 
 229      5E07D27C 
 229      F4FF
 230 004d F703FC10 		.ascii	"\367\003\374\020i& \367\361\362\177\323\331 \322\242"
 230      692620F7 
 230      F1F27FD3 
 230      D920D2A2 
 231 005d 40EEBB96 		.ascii	"@\356\273\226\247\017\270!\\\011 \367\322\355\333\253"
 231      A70FB821 
 231      5C0920F7 
 231      D2EDDBAB 
 232 006d 792DB635 		.ascii	"y-\2665t,h\010hefb4\224\001\032\"\303h$\303\270\026"
 232      742C6808 
 232      68656662 
 232      3494011A 
 232      22C36824 
 233 0084 48AD01E2 		.ascii	"H\255\001\342\325@\274\012\210W\002\361\012 ^\316(\303"
 233      D540BC0A 
 233      885702F1 
 233      0A205ECE 
 233      28C3
 234 0096 C0B89ED1 		.ascii	"\300\270\236\321\202\001\000\317\260?\177"
 234      820100CF 
 234      B03F7F
 235              		.text
ARM GAS  C:\Users\info\AppData\Local\Temp\ccGSe0tH.s 			page 18


 236              		.section	.gnu.lto_u8x8_d_uc1601_128x32_flip0_seq.bf14e42c,"",%progbits
 237 0000 789C2D8D 		.ascii	"x\234-\215M\013\001Q\024\206\357\231a\"2+E\315\237`"
 237      4D0B0151 
 237      1486EF99 
 237      6122322B 
 237      45CD9F60 
 238 0014 E567F909 		.ascii	"\345g\371\011\310\224\354l\314\306BQc|\016\305\202\015"
 238      C894EC6C 
 238      CCC64251 
 238      637C0EC5 
 238      820D
 239 0026 62A16C2C 		.ascii	"b\241l,g'\037[\013\221\005\206\367v\346\326\323\275"
 239      67271F5B 
 239      0B910586 
 239      F776E6D6 
 239      D3BD
 240 0038 4F4FE7DC 		.ascii	"OO\347\334\220 !\317\023\360K\210\257B#\363\342D\036"
 240      902021CF 
 240      13F04B88 
 240      AF4223F3 
 240      E2441E
 241 004b 8AA90AFA 		.ascii	"\212\251\012\372\021\374\362\036\314\023\322\2114\350"
 241      11FCF21E 
 241      CC13D289 
 241      34E8
 242 0059 C3DA7B3A 		.ascii	"\303\332{:\3474t\327\236\177\342\\\303\320\322\302\253"
 242      E73474D7 
 242      9E7FE25C 
 242      C3D0D2C2 
 242      AB
 243 006a 05F52897 		.ascii	"\005\365(\227\035\312nC\345\034\202\236m\337\3228'\241"
 243      1DCA6E43 
 243      E51C829E 
 243      6DDFD238 
 243      27A1
 244 007c EBBB6B07 		.ascii	"\353\273k\007\303*\264Z\367WQ\256\033\371\363\366\367"
 244      C32AB45A 
 244      F75751AE 
 244      1BF9F3F6 
 244      F7
 245 008d 5AEA9C15 		.ascii	"Z\352\234\025\350\255|=\3068\247\240\247bk\232\310\315"
 245      E8AD7C3D 
 245      C638A7A0 
 245      A7626B9A 
 245      C8CD
 246 009f 0A956621 		.ascii	"\012\225f!o\252\012e\014\032\223AY\203\006\270\\0\002"
 246      6FAA0A65 
 246      0C1A9341 
 246      598306B8 
 246      5C3002
 247 00b2 4362EF83 		.ascii	"Cb\357\203\036\350\002\007t\200M\206\240\011\345\304"
 247      1EE80207 
 247      74804D86 
 247      A009E5C4 
 248 00c2 1FBBF354 		.ascii	"\037\273\363T%"
 248      25
 249              		.text
ARM GAS  C:\Users\info\AppData\Local\Temp\ccGSe0tH.s 			page 19


 250              		.section	.gnu.lto_u8x8_d_uc1601_128x32_flip1_seq.bf14e42c,"",%progbits
 251 0000 789C2D8D 		.ascii	"x\234-\215\273\012\302@\020Ew\022\015\202\257JP\330"
 251      BB0AC240 
 251      10457712 
 251      0D82AF4A 
 251      50D8
 252 0012 9FD02A9F 		.ascii	"\237\320*\237\345'X$\340\037\330(X\010\361\235h\241"
 252      E5275824 
 252      E01FD828 
 252      5808F19D 
 252      68A1
 253 0024 6025010B 		.ascii	"`%\001\013\301B\305F\261\020LZ\013\211X\370\210w\031"
 253      C142C546 
 253      B1104C5A 
 253      0B8958F8 
 253      887719
 254 0037 170EBB87 		.ascii	"\027\016\273\207\303\316$\004\011u\036\200_B|4r\355"
 254      C3CE2404 
 254      09751E80 
 254      5F427C34 
 254      72ED
 255 0049 A0978A34 		.ascii	"\240\227\2124[\027\024\023<x\215\0269\345D\0064jl\216"
 255      5B171413 
 255      3C788D16 
 255      39E54406 
 255      346A6C8E 
 256 005d 79CE25E8 		.ascii	"y\316%\350\272\263xg\270&\241\363\333`\236\345\272T"
 256      BAB37867 
 256      B826A1F3 
 256      DB609EE5 
 256      BA54
 257 006f C37696D7 		.ascii	"\303v\226\327\3249'\240W\347\33308\027\240\376\335s"
 257      D43927A0 
 257      57E7DB30 
 257      3817A0FE 
 257      DD73
 258 0081 FE9F75E8 		.ascii	"\376\237u\350\371p\012\377\243}\265y\025?\227y\316\032"
 258      F9700AFF 
 258      A37DB579 
 258      153F9779 
 258      CE1A
 259 0093 F4668597 		.ascii	"\364f\205\2274\347\"t\337\332\336\223\346\254Vo\327"
 259      34E72274 
 259      DFDADE93 
 259      E6AC566F 
 259      D7
 260 00a4 AAB6AE51 		.ascii	"\252\266\256QY\322\204$U$\215py\300\005cb\037\202\001"
 260      59D28424 
 260      55248D70 
 260      79C00563 
 260      621F8201 
 261 00b8 E8831EE8 		.ascii	"\350\203\036\350\002\207\244\240)\231\342\007M\253U"
 261      0287A4A0 
 261      2999E207 
 261      4DAB55
 262 00c7 64       		.ascii	"d"
 263              		.text
ARM GAS  C:\Users\info\AppData\Local\Temp\ccGSe0tH.s 			page 20


 264              		.section	.gnu.lto_.symbol_nodes.bf14e42c,"",%progbits
 265 0000 789C55CC 		.ascii	"x\234U\314;\012\302@\024\205\341s\347\221wR\210\013"
 265      3B0AC240 
 265      1485E173 
 265      E7917752 
 265      880B
 266 0012 D05DB804 		.ascii	"\320]\270\004wu\247\260\023\202 \330\330\316*\254\203"
 266      7775A7B0 
 266      138220D8 
 266      D8CE2AAC 
 266      83
 267 0023 010BD35B 		.ascii	"\001\013\323[\317\026\004\355\314\314\244p\252\217\237"
 267      CF1604ED 
 267      CCCCA470 
 267      AA8F9F
 268 0032 7BB80A84 		.ascii	"{\270\012\204=\001\020\031\003\247'0s3[@+mV\200\324"
 268      3D011019 
 268      03A72730 
 268      73335B40 
 268      2B6D5680 
 269 0047 5A4521A3 		.ascii	"ZE!\243$\242\202\242\022Aj\231\302\003\300\230\015@"
 269      24A282A2 
 269      12416A99 
 269      C203C098 
 269      0D40
 270 0059 1D8BA46B 		.ascii	"\035\213\244k\226IW\254\222nX']r\226t\301y\3229\027"
 270      964957AC 
 270      926E5827 
 270      5D729674 
 270      C179D239 
 271 006e FF2DD1C1 		.ascii	"\377-\321\301}\326\022-\354w\246\301\020\261\367\221"
 271      7DD6122D 
 271      EC77A6C1 
 271      10B1F791 
 272 007e 422EDA71 		.ascii	"B.\332q\361\341\2550\034'!Q\302\005k\034zo\016\033\254"
 272      F1E1AD30 
 272      1C272151 
 272      C2056B1C 
 272      7A6F0E1B 
 273 0093 E0FA78B7 		.ascii	"\340\372x\267\347e\2678\\\274\005\334\353\275\363{w"
 273      E765B738 
 273      5CBC05DC 
 273      EBBDF37B 
 273      77
 274 00a4 9D047EC5 		.ascii	"\235\004~\305SE\261"
 274      5345B1
 275              		.text
 276              		.section	.gnu.lto_.refs.bf14e42c,"",%progbits
 277 0000 789C6361 		.ascii	"x\234ca`d\020e```c`bdfbbcb\346db\341bb\345eb\023d\000"
 277      60641065 
 277      60606063 
 277      60626466 
 277      62626362 
 278 0020 00060600 		.ascii	"\000\006\006\000|"
 278      7C
 279              		.text
 280              		.section	.gnu.lto_.decls.bf14e42c,"",%progbits
ARM GAS  C:\Users\info\AppData\Local\Temp\ccGSe0tH.s 			page 21


 281 0000 789CBD59 		.ascii	"x\234\275Y{PTYz\357sO\003M\323\200\00231[\354\256\031"
 281      7B505459 
 281      7AEF734F 
 281      034DD380 
 281      0233315B 
 282 0017 1D255559 		.ascii	"\035%UYGt2e\245*U3\265I6\311\037\311$\2733IU\250\352"
 282      47743265 
 282      A52A5533 
 282      B54936C9 
 282      1FC924BB 
 283 0030 85A6D1CE 		.ascii	"\205\246\321\316B\303\320\215\243SS[\227\207\210\340"
 283      42C3D08D 
 283      A353535B 
 283      978788E0 
 284 0040 0B951644 		.ascii	"\013\225\026DE\001\025\005\025\004A\024\244}\341\013"
 284      45011505 
 284      15044114 
 284      A47DE10B 
 285 0050 05115404 		.ascii	"\005\021T\004\201\361\005\212\010\"\212\010H\276\363"
 285      81F1058A 
 285      08228A08 
 285      48BEF3
 286 005f B87D6FE3 		.ascii	"\270}o\343\355\331lU6\267\3708\367;\347w\177\337\343"
 286      EDD96C55 
 286      36B7F838 
 286      F73BE777 
 286      7FDFE3
 287 0072 3CEF6DAD 		.ascii	"<\357m\255\006i\310\365\351\\\215f\300K\243y&h4\323"
 287      0669C8F5 
 287      E95C8D66 
 287      C04BA379 
 287      266834D3 
 288 0086 70E9A0EE 		.ascii	"p\351\240\356k\020o\220\243 \265 \015 \215 ~\360H\250"
 288      6B106F90 
 288      A320B520 
 288      0D208D20 
 288      7EF048A8 
 289 009a 865DBE20 		.ascii	"\206]\276 \377\016\372\177\202\374\026$\006\304\002"
 289      FF0EFA7F 
 289      82FC1624 
 289      06C402
 290 00a9 120BF20D 		.ascii	"\022\013\362\015H\022\310w\210\361|\017\345\357AD\220"
 290      4812C877 
 290      88F17C0F 
 290      E5EF4144 
 290      90
 291 00ba 14903490 		.ascii	"\024\2204\220t\244q\273\010\327_p\233A ! \213\241\356"
 291      74A471BB 
 291      08D75F70 
 291      9B412021 
 291      208BA1EE 
 292 00ce 2B28FF0B 		.ascii	"+(\377\013\311\266\211ok\341^\017\262\032$\003\304\016"
 292      C9B6896F 
 292      6BE15E0F 
 292      B21A2403 
 292      C40E
 293 00e0 B20E311F 		.ascii	"\262\0161\037/\200$ \346\363i\356\377\011\220p\250\253"
ARM GAS  C:\Users\info\AppData\Local\Temp\ccGSe0tH.s 			page 22


 293      2F802420 
 293      E6F369EE 
 293      FF099070 
 293      A8AB
 294 00f2 813213CA 		.ascii	"\2012\023\312\377\000\311\0021\203\344\203\354\000\371"
 294      FF00C902 
 294      3183E483 
 294      EC00F9
 295 0101 12DA7642 		.ascii	"\022\332vBi\004!9\370W(\247\240\374[(\337@\271\025\312"
 295      69042139 
 295      F85728A7 
 295      A0FC5B28 
 295      DF40B915 
 296 0116 1C906D20 		.ascii	"\034\220m \016$\307\377\035\217\365\033\036\177\014"
 296      0E24C7FF 
 296      1D8FF51B 
 296      1E7F0C
 297 0125 CF819417 		.ascii	"\317\201\224\027\177\300\355\202r7H\001\310\036\220"
 297      7FC0ED82 
 297      72374801 
 297      C81E90
 298 0134 BD208520 		.ascii	"\275 \205 E<\017i</\"\317\323\3673rC0Z(\027hX\016\026"
 298      453C0F69 
 298      3C2F22CF 
 298      D3F73372 
 298      43305A28 
 299 014d 6A58FCC1 		.ascii	"jX\374\301P\216\203\274\006\031\005y\0132\001\242\205"
 299      508E83BC 
 299      06190579 
 299      0B3201A2 
 299      85
 300 015e B611285F 		.ascii	"\266\021(_\201\274\003A\240OC9\011\"\220>\001y\251a"
 300      81BC0341 
 300      A04F4339 
 300      0922903E 
 300      0179A961 
 301 0172 F191D8C8 		.ascii	"\361\221\330\310P\360\232aS\272\210o\230\333\015\341"
 301      50F09A61 
 301      53BA886F 
 301      98DB0DE1 
 302 0182 F9F574A5 		.ascii	"\371\365t\245\314\300\236\376\021\254\370G`\177?\003"
 302      CCC09EFE 
 302      11ACF847 
 302      607F3F03 
 303 0192 7BE247B0 		.ascii	"{\342G\260\337\377\021\330)\001\035]\363\360\240nT@"
 303      DFFF11D8 
 303      29011D5D 
 303      F3F0A06E 
 303      5440
 304 01a4 A17A348D 		.ascii	"\241z4\215\210\376\254v\334\237\351\244\271g\274\344"
 304      88FEAC76 
 304      DC9FE9A4 
 304      B967BCE4 
 305 01b4 1F169589 		.ascii	"\037\026\225\211pm\026EA\220\237\253r\276<\254\305~"
 305      706D1645 
 305      41909FAB 
 305      72BE3CAC 
ARM GAS  C:\Users\info\AppData\Local\Temp\ccGSe0tH.s 			page 23


 305      C57E
 306 01c6 0424DCA8 		.ascii	"\004$\334\250\354\270\340\213\302\364\373\011\256\267"
 306      ECB8E08B 
 306      C2F4FB09 
 306      AEB7
 307 01d4 73F48B54 		.ascii	"s\364\213TQD\250\014\351\321!\204\321A\264\010\036\001"
 307      5144A80C 
 307      E9D12184 
 307      D141B408 
 307      1E01
 308 01e6 42F89F21 		.ascii	"B\370\237!\212)\342p\241\350=G\203\226\206\242\305\241"
 308      8A29E270 
 308      A1E83D47 
 308      839686A2 
 308      C5A1
 309 01f8 1A548AC2 		.ascii	"\032T\212\302\2101\202B%(\024\035@\241\204\377`A\311"
 309      88318242 
 309      2528141D 
 309      40A184FF 
 309      6041C9
 310 020b 797F9C8B 		.ascii	"y\177\234\213\250\201\301m\003\031\330e ;+\264T\024"
 310      A881C16D 
 310      0319D865 
 310      203B2BB4 
 310      5414
 311 021d 67A1A360 		.ascii	"g\241\243`\340\260l\000\354\251[8\242b\201<\014Vn\244"
 311      E0B06C00 
 311      ECA95B38 
 311      A262813C 
 311      0C566EA4 
 312 0231 95EFC410 		.ascii	"\225\357\304\020m\220\036iA}qm\307\203\000PC\364h.\250"
 312      6D901E69 
 312      417D716D 
 312      C7830050 
 312      43F4682E 
 313 0246 0F270E9F 		.ascii	"\017'\016\237\014`\255\336\240\016=\030\273\257\323"
 313      0C60ADDE 
 313      A00E3D18 
 313      BBAFD3
 314 0255 67D064A4 		.ascii	"g\320d\244\212A\227\002HC\005\020\226\003\241\006U\022"
 314      8A419702 
 314      48430510 
 314      9603A106 
 314      5512
 315 0267 FBE89350 		.ascii	"\373\350\223Pt\214E0\232\271f\214s\373\200Z\362x\347"
 315      748C4530 
 315      9AB9668C 
 315      73FB805A 
 315      F278E7
 316 027a 4603E35E 		.ascii	"F\003\343^\006\252sH\034\013\014\332\3143\3739\242\321"
 316      06AA7348 
 316      1C0B0CDA 
 316      CC33FB39 
 316      A2D1
 317 028c 1C07B22A 		.ascii	"\034\007\262*JV\215\202$J\302\265\253\375\376f_=\217"
 317      4A568D82 
 317      244AC2B5 
ARM GAS  C:\Users\info\AppData\Local\Temp\ccGSe0tH.s 			page 24


 317      ABFDFE66 
 317      5F3D8F
 318 029f 6DF31F88 		.ascii	"m\363\037\210\015\360\207\013S\257\010J\366\232\037"
 318      0DF0870B 
 318      53AF084A 
 318      F69A1F
 319 02ae 633FB9F3 		.ascii	"c?\271\363b\227\227!\223\260\363\300N\240 Ed\265\310"
 319      62979721 
 319      93B0F3C0 
 319      4EA02045 
 319      64B5C8
 320 02c1 407A9D94 		.ascii	"@z\235\224dH\224W\214yyN\303I)\015\345\314\225\313\305"
 320      64489457 
 320      8C79794E 
 320      C349290D 
 320      E5CC95CB 
 321 02d6 27270D2C 		.ascii	"''\015,\015^\240\346\277\274\367\304\227\245!\014\324"
 321      0D5EA0E6 
 321      BFBCF7C4 
 321      97A5210C 
 321      D4
 322 02e7 64E74817 		.ascii	"d\347H\027\236\231\206: ;E\311\352\251\243'%G\207\032"
 322      9E99863A 
 322      203B45C9 
 322      EAA9A327 
 322      2547871A 
 323 02fb CB937D67 		.ascii	"\313\223}g\206\345\021\275ot\323S\235[X\247\335\302"
 323      86E511BD 
 323      6F74D353 
 323      9D5B58A7 
 323      DDC2
 324 030d 6AE06135 		.ascii	"j\340a5\320\260\236\247=\352\365c~\316\0015\347\311"
 324      D0B09EA7 
 324      3DEAF563 
 324      7ECE0135 
 324      E7C9
 325 031f F5FB819E 		.ascii	"\365\373\201\236\243<#E\351\344\235\275\275\251#\220"
 325      A33C2345 
 325      E9E49DBD 
 325      BDA92390 
 326 032f 3DFDE7A0 		.ascii	"=\375\347\240\346\246\265>\026X\224\227\310\254\352"
 326      E6A6B53E 
 326      16589497 
 326      C8ACEA
 327 033e 10331DFE 		.ascii	"\0203\035\3763\303<\007lg)\333y\352\370\031\311\361"
 327      33C33C07 
 327      6C6729DB 
 327      79EAF819 
 327      C9F1
 328 0350 8AFEE1CA 		.ascii	"\212\376\341\312\200\231azD\037\315\237~\356\355\026"
 328      8099617A 
 328      441FCD9F 
 328      7EEEED16 
 329 0360 E605B730 		.ascii	"\346\005\2670\033y\230\2154\314S5u\215^\314\263\305"
 329      1B79988D 
 329      34CC5335 
 329      758D5ECC 
ARM GAS  C:\Users\info\AppData\Local\Temp\ccGSe0tH.s 			page 25


 329      B3C5
 330 0372 A0B60E37 		.ascii	"\240\266\0167\355\342Q\317\002\365\302\364\230\223\207"
 330      EDE251CF 
 330      02F5C2F4 
 330      989387
 331 0381 21285A43 		.ascii	"!(ZCX\353\372\233\325K\361v\201.\014\373\336N\014\223"
 331      58EBFA9B 
 331      D54BF176 
 331      812E0CFB 
 331      DE4E0C93 
 332 0395 D1BD00D6 		.ascii	"\321\275\000\326\215i\254X8\026\260\205\243\341\352"
 332      8D69AC58 
 332      3816B085 
 332      A3E1EA
 333 03a4 E5FD065C 		.ascii	"\345\375\006\\D\301B\2613e\015B\3720:\200\305TQ_\022"
 333      44C142B1 
 333      33650D42 
 333      FA303A80 
 333      C554515F 
 334 03b9 A04157C0 		.ascii	"\240AW\300\303\313d*\266\300\030^\300\307\3605\250l"
 334      C3CB642A 
 334      B6C0185E 
 334      C0C7F035 
 334      A86C
 335 03cb 824ABE94 		.ascii	"\202J\276\224<\373g\272\2244C\374\327\345\231\276\200"
 335      3CFB67BA 
 335      943443FC 
 335      D7E599BE 
 335      80
 336 03dc 477E3ABB 		.ascii	"G~:\273\363\261\036\037a6\016\0167\225\005z\264q\323"
 336      F3B11E1F 
 336      61360E0E 
 336      3795057A 
 336      B471D3
 337 03ef A38DECAC 		.ascii	"\243\215\354\254\005ed5i\005\0337d\033\315Rz\245q\021"
 337      05656435 
 337      69051B37 
 337      641BCD52 
 337      7AA57111 
 338 0403 C2C64559 		.ascii	"\302\306EY\373\235)\204kX\022\256\275\033>\215\361e"
 338      FB9D2984 
 338      6B5812AE 
 338      BD1B3E8D 
 338      F165
 339 0415 A61CEE4D 		.ascii	"\246\034\356M\277\351\205\3572e\377\344\336*\003~\314"
 339      BFE985EF 
 339      3265FFE4 
 339      DE2A037E 
 339      CC
 340 0426 941DA746 		.ascii	"\224\035\247F\257x\261\254\352@m\034\253/\362\302/X"
 340      AF78B1AC 
 340      EA406D1C 
 340      AB2FF2C2 
 340      2F58
 341 0438 5B66D6A1 		.ascii	"[f\326\241\275\0018\035Se\315\372\322:\214\363\230\322"
 341      BD01381D 
 341      5365CDFA 
ARM GAS  C:\Users\info\AppData\Local\Temp\ccGSe0tH.s 			page 26


 341      D23A8CF3 
 341      98D2
 342 044a D273EC95 		.ascii	"\322s\354\2257>\302\224\236\356\354\377\3065\354\376"
 342      373EC294 
 342      9EEEECFF 
 342      C635ECFE 
 343 045a DEA583A5 		.ascii	"\336\245\203\245$\365\013I\352\247\247\003\025\311_"
 343      24F50B49 
 343      EAA7A703 
 343      15C95F
 344 0469 C892DFBA 		.ascii	"\310\222\337\272i\244\330\007\237\247p\241qC\3451?y"
 344      69A4D807 
 344      9FA770A1 
 344      7143E531 
 344      3F79
 345 047b 752E36D4 		.ascii	"u.6\324\222p\037@\270?\310\341.t\255\235l\014i\\\003"
 345      92701F40 
 345      B83FC8E1 
 345      2E74AD9D 
 345      6C0C695C 
 346 0490 08DD87D4 		.ascii	"\010\335\207\324-\344\251\353\205\312\036\276@\027g"
 346      2DE4A9EB 
 346      85CA1EBE 
 346      401767
 347 049f 177AE366 		.ascii	"\027z\343ff#\257\352\320\230^\261@\177JS\372\030l<\224"
 347      6623AFEA 
 347      D0985EB1 
 347      407F4A53 
 347      FA186C3C 
 348 04b4 6D3C409E 		.ascii	"m<@\236\215<R72\320\326\232\355\205\357\260\270\247"
 348      8D3C5237 
 348      32D0D69A 
 348      ED85EFB0 
 348      B8A7
 349 04c6 8EAD3DA5 		.ascii	"\216\255=\245\305\003L\351\2734>\352\207\247\230\362"
 349      C5034CE9 
 349      BB343EEA 
 349      87A798F2 
 350 04d6 F66C4A2D 		.ascii	"\366lJ-\302\233\265T\251>;\336\344\205\3671\345yJi1"
 350      C29BB554 
 350      A93E3BDE 
 350      E485F731 
 350      E5794A69 
 351 04eb C2A799D2 		.ascii	"\302\247\231\322\2223\350\020\360m\246LNlM\366\302O"
 351      9233E810 
 351      F06DA64C 
 351      4E6C4DF6 
 351      C24F
 352 04fd 99D2D0D5 		.ascii	"\231\322\320\325_\346\207'\231R^\2276\310w\001'\231"
 352      5FE68727 
 352      99525E97 
 352      36C87701 
 352      2799
 353 050f BC251B86 		.ascii	"\274%\033\206\317\351q\216\027i\374 \271\341\332E\037"
 353      CFE9718E 
 353      1769FC20 
 353      B9E1DA45 
ARM GAS  C:\Users\info\AppData\Local\Temp\ccGSe0tH.s 			page 27


 353      1F
 354 0520 349F5CC1 		.ascii	"4\237\\\301\363\345+\014\244\220D\326\2333\220P_\335"
 354      F3E52B0C 
 354      A49044D6 
 354      9B339050 
 354      5FDD
 355 0532 258AE906 		.ascii	"%\212\351\006:\311\373!\3761\024,\255\327\237\220\031"
 355      3AC9FB21 
 355      FE31142C 
 355      ADD79F90 
 355      19
 356 0543 7991CC4B 		.ascii	"y\221\314K\015\205;\353Z\375\304\362\337R\350mw\350"
 356      0D853BEB 
 356      5AFDC4F2 
 356      DF52E86D 
 356      77E8
 357 0555 253A7B97 		.ascii	"%:{\227\312\320\334f\027\364\231\012\353\025\005k\233"
 357      CAD0DC66 
 357      17F4990A 
 357      EB15056B 
 357      9B
 358 0566 0CED5381 		.ascii	"\014\355S\201\036W@\267\311\320A\025(\265\237\315\227"
 358      1E5740B7 
 358      C9D04115 
 358      28B59FCD 
 358      97
 359 0577 2211D935 		.ascii	"\"\021\3315h\030\261U\017\015q8t\032J\025\302\3208\232"
 359      6818B155 
 359      0F0D7138 
 359      741A4A15 
 359      C2D0389A 
 360 058b 8F5E838C 		.ascii	"\217^\203\214\202\274\005\231\000I\023\346\243\021("
 360      82BC0599 
 360      004913E6 
 360      A31128
 361 059a 5F81BC03 		.ascii	"_\201\274\003I\006}\032\312I\220\024\270O\007y\011\367"
 361      49067D1A 
 361      CA499014 
 361      B84F0779 
 361      09F7
 362 05ac 53206F40 		.ascii	"S o@D\320\327\010\363\351)\203\371\327*'\250]-Am\212"
 362      44D0D708 
 362      F3E92983 
 362      F9D72A27 
 362      A85D2D41 
 363 05c2 58B6C8B1 		.ascii	"X\266\310\261<W\211%\\F\356\220\221\003*H%\351N\031"
 363      3C578925 
 363      5C46EE90 
 363      91032A48 
 363      25E94E19 
 364 05d6 FA54055A 		.ascii	"\372T\005Z\241\200\226\313\276v\272C;\320\314\216o\221"
 364      A18096CB 
 364      BE76BA43 
 364      3BD0CC8E 
 364      6F91
 365 05e8 B1B7D4E2 		.ascii	"\261\267\324\342Rvg\347\246\200<\321\231\206\351\214"
 365      527667E7 
ARM GAS  C:\Users\info\AppData\Local\Temp\ccGSe0tH.s 			page 28


 365      A6803CD1 
 365      9986E98C 
 366 05f8 EAE668D7 		.ascii	"\352\346h\327\334a\334\212\340rZ\375\267\213\316dL\311"
 366      DC61DC8A 
 366      E0725AFD 
 366      B78BCE64 
 366      4CC9
 367 060a BBD41CA9 		.ascii	"\273\324\034\251S\220\277\334\022\220+:S0]\001\257r"
 367      5390BFDC 
 367      12902B3A 
 367      53305D01 
 367      AF72
 368 061c B46BE164 		.ascii	"\264k\341d\316(\203\234nV\260\337ScW\242\253\3440\357"
 368      CE28839C 
 368      6E56B0DF 
 368      536357A2 
 368      ABE430EF 
 369 0630 AA61D950 		.ascii	"\252a\331P\244\353\206sb\243A\024u\004\243\341k\206"
 369      A4EB8673 
 369      62A34114 
 369      7504A3E1 
 369      6B86
 370 0642 3C0C0A94 		.ascii	"<\014\012\224V\237\250\364\2032\244W\312\220^\250\207"
 370      569FA8F4 
 370      8332A457 
 370      CA905EA8 
 370      87
 371 0653 A4EC8B53 		.ascii	"\244\354\213S\312\204\335Q\353\015\232]\262\221o\312"
 371      CA84DD51 
 371      EB0D9A5D 
 371      B2916FCA 
 372 0663 CF0BC435 		.ascii	"\317\013\3045t-\020\256=\334\321\020\200\202\303\324"
 372      742D10AE 
 372      3DDCD110 
 372      8082C3D4 
 373 0673 A7C73A98 		.ascii	"\247\307:\230\022\177\312\351\301r\226w\375\257H\316"
 373      127FCAE9 
 373      C1729677 
 373      FDAF48CE 
 374 0683 328460B4 		.ascii	"2\204`\264Vp-\265$\205\324\337\275%\0076\240`\356\240"
 374      56702DB5 
 374      2485D4DF 
 374      BD250736 
 374      A060EEA0 
 375 0697 D3A3839A 		.ascii	"\323\243\203\232\377s\357\300vz\346\313d\344v0\311\024"
 375      FF73EFC0 
 375      767AE6CB 
 375      64E47630 
 375      C914
 376 06a9 82150793 		.ascii	"\202\025\007\223,\201\035L\240\004\364\211\314\334\327"
 376      2C811D4C 
 376      A004F489 
 376      CCDCD7
 377 06b8 819D302A 		.ascii	"\201\2350*`_\344\257b\010\261\377\210\212\206\011U\341"
 377      605FE4AF 
 377      6208B1FF 
 377      888A8609 
ARM GAS  C:\Users\info\AppData\Local\Temp\ccGSe0tH.s 			page 29


 377      55E1
 378 06ca 46A0FF35 		.ascii	"F\240\3775\256*W\241qA\370\255LF\377\244rZ\272(\211"
 378      AE2A57A1 
 378      7141F8AD 
 378      4C46FFA4 
 378      725ABA28 
 379 06df CC8EF843 		.ascii	"\314\216\370C\310\345\001\277\247\355\202l\0001Uz@\301"
 379      C8E501BF 
 379      A7ED826C 
 379      0031557A 
 379      40C1
 380 06f1 C7DC55F8 		.ascii	"\307\334U\370\204\334cBR\212\352\357\345\302\362s\225"
 380      84DC6342 
 380      528AEAEF 
 380      E5C2F273 
 380      95
 381 0702 0E2774A4 		.ascii	"\016't\244l\242\\\257\205w,\364\225\001EiIUg\372\201"
 381      6CA25CAF 
 381      85772CF4 
 381      95014569 
 381      495567FA 
 382 0717 AB7EB48A 		.ascii	"\253~\264\212\214\314\215\002\255l\277\323\335\356\353"
 382      8CCC8D02 
 382      AD6CBFD3 
 382      DDEEEB
 383 0726 AADCC42A 		.ascii	"\252\334\304*\245su\020;W\213\375i\005\002\356e\304"
 383      A5737510 
 383      3B578BFD 
 383      690502EE 
 383      65C4
 384 0738 0DFDD90D 		.ascii	"\015\375\331\015:<\304\224\226\003\203\267\003\360Z"
 384      3A3CC494 
 384      960383B7 
 384      03F05A
 385 0747 6FAAF4EF 		.ascii	"o\252\364\357i8\246\303\205L\221\336~\202\330\333O\216"
 385      6938A6C3 
 385      854C91DE 
 385      7E82D8DB 
 385      4F8E
 386 0759 73CB249C 		.ascii	"s\313$\234\256X\333\345\332\373\213q-\273\177}\265\355"
 386      AE58DBE5 
 386      DAFB8B71 
 386      2DBB7F7D 
 386      B5ED
 387 076b 1EC69798 		.ascii	"\036\306\227\230\262\351l\3759\035ncJc\327\335v-\356"
 387      B2E96CFD 
 387      391D6E63 
 387      4A63D7DD 
 387      762DEE
 388 077e 654A72FD 		.ascii	"eJr\375\271J\177\374\212)S\225\225\347\020~\307\224"
 388      B94A7FFC 
 388      8A295395 
 388      95E7107E 
 388      C794
 389 0790 C799075F 		.ascii	"\307\231\007_\030\360Z\037\252<\351\252\2314\270\215"
 389      18F05A1F 
 389      AA3CE9AA 
ARM GAS  C:\Users\info\AppData\Local\Temp\ccGSe0tH.s 			page 30


 389      9934B88D 
 390 07a0 1272DA95 		.ascii	"\022r\332\225GI\001\033%\200L{Z\004;\324z\366\330\375"
 390      4749011B 
 390      25804C7B 
 390      5A043BD4 
 390      7AF6D8FD 
 391 07b4 8AB1673A 		.ascii	"\212\261g:\354`\312\332\351{\347u\270\204)i\0076\344"
 391      EC60CADA 
 391      E97BE775 
 391      B8842969 
 391      0736E4
 392 07c7 FBE32AA6 		.ascii	"\373\343*\246l\314\0339\345"
 392      6CCC1B39 
 392      E5
 393 07d0 83EB9872 		.ascii	"\203\353\230r\323\271'\337\027\237c\312\203\252\261"
 393      D3B927DF 
 393      179F63CA 
 393      83AAB1
 394 07df 627F7C9D 		.ascii	"b\177|\235)?\014\325\347\371\270R\312r\177\274\265\240"
 394      293F0CD5 
 394      E7F9B852 
 394      CA727FBC 
 394      B5A0
 395 07f1 C707DF62 		.ascii	"\307\007\337b\200\267\315\023'\021~\300\224\261\303"
 395      80B7CD13 
 395      27117EC0 
 395      94B1C3
 396 0800 7D5D5E78 		.ascii	"}]^x\230)\322\201:\210\035\250\253\352_\354\343\357"
 396      9829D281 
 396      3A881DA8 
 396      ABEA5FEC 
 396      E3EF
 397 0812 37223916 		.ascii	"7\"9\026\367?\312o\324\343I\206m\270y\264)\020o\326"
 397      F73FCA6F 
 397      D4E34986 
 397      6DB879B4 
 397      29106FD6 
 398 0826 1165DEA1 		.ascii	"\021e\336\241\347\343\005\360\332i\010v;H\300e0\314"
 398      E7E305F0 
 398      DA690876 
 398      3B48C065 
 398      30CC
 399 0838 D186F19B 		.ascii	"\321\206\361\233\260\371aa\304\255r\301\200\016@O+\363"
 399      B0F96161 
 399      C4AD72C1 
 399      800E404F 
 399      2BF3
 400 084a 54E1369B 		.ascii	"T\3416\233\312Y\236\334\326\2422!\024\225\0120\325o"
 400      CA599EDC 
 400      D6A23221 
 400      14950A30 
 400      D56F
 401 085c C054AF14 		.ascii	"\300T\257\024\330Z\324\002\367\3150S\257\200\\\006\271"
 401      D85AD402 
 401      F7CD3053 
 401      AF805C06 
 401      B9
ARM GAS  C:\Users\info\AppData\Local\Temp\ccGSe0tH.s 			page 31


 402 086d 047211E4 		.ascii	"\004r\021\344\014\210\023\244\001\3444H=H\035\310)\220"
 402      0C8813A4 
 402      01E43448 
 402      3D481DC8 
 402      2990
 403 087f 9320B520 		.ascii	"\223 \265 '@j@\252A\216\203T\201\034s\333\256'n)\226"
 403      27406A40 
 403      AA418E83 
 403      54811C73 
 403      DBAE276E 
 404 0895 D2C3B022 		.ascii	"\322\303\260\"\021\263|)\315\026\344\335A\335\317C\374"
 404      11B37C29 
 404      CD16E4DD 
 404      41DDCF43 
 404      FC
 405 08a6 813FBD9F 		.ascii	"\201?\275\237on\271\366\245-j^*O\000\257e\354V5\254"
 405      6F6EB9F6 
 405      A52D6A5E 
 405      2A4F00AF 
 405      65EC5635 
 406 08bb 72AB1E95 		.ascii	"r\253\036\225\261\333\324\260\212\363\334\210\014\315"
 406      B1DBD4B0 
 406      8AF3DC88 
 406      0CCD
 407 08c9 51832A76 		.ascii	"Q\203*v\364a\031\272\335\035\352\020f\036\350\272el"
 407      F46119BA 
 407      DD1DEA10 
 407      661EE8BA 
 407      656C
 408 08db AE1A56B9 		.ascii	"\256\032V\271\361u\311\330<5\254rS\275%cw\250a\225\273"
 408      F175C9D8 
 408      3C35AC72 
 408      53BD2563 
 408      77A86195 
 409 08f0 7E9B8CCD 		.ascii	"~\233\214\315W\303*\263\333*cw\252a\225\331\275\341"
 409      57C32AB3 
 409      DB2A6377 
 409      AA6195D9 
 409      BDE1
 410 0902 506CECBB 		.ascii	"Pl\354\2738\332\265\261;f\246\255\301\361\001;7\301"
 410      38DAB5B1 
 410      3B66A6AD 
 410      C1F1013B 
 410      37C1
 411 0914 22827673 		.ascii	"\"\202vs\270\353\334\344|\357\260R\357P\234\263\366"
 411      B8EBDCE4 
 411      7CEFB052 
 411      EF509CB3 
 411      F6
 412 0925 A8E315F4 		.ascii	"\250\343\025\364\247n\0052\370Y\240\337;\023\256<9)"
 412      A76E0532 
 412      F859A0DF 
 412      3B13AE3C 
 412      3929
 413 0937 A7ED7961 		.ascii	"\247\355ya\216\014j\204A~\016\236f\373\266'\230F\201"
 413      8E0C6A84 
 413      417E0E9E 
ARM GAS  C:\Users\info\AppData\Local\Temp\ccGSe0tH.s 			page 32


 413      66FBB627 
 413      984681
 414 094a 71908903 		.ascii	"q\220\211\003\357\267s\005\2322)x\015y\000\376_\020"
 414      EFB77305 
 414      9A322978 
 414      0D7900FE 
 414      5F10
 415 095c C8875269 		.ascii	"\310\207Ri\311\330\014\032;'\024\\\377\200\234\023\210"
 415      C9D80C1A 
 415      3B27145C 
 415      FF809C13 
 415      88
 416 096d A785F239 		.ascii	"\247\205\3629\341\034]4X4\265\312h\212\324\243Q\004"
 416      E11C5D34 
 416      5834B5CA 
 416      688AD4A3 
 416      5104
 417 097f 5F7DCB20 		.ascii	"_}\313 n\216\244\340\342\231`\225c\240\214\336\247\216"
 417      6E8EA4E0 
 417      E2996095 
 417      63A08CDE 
 417      A78E
 418 0991 5650573A 		.ascii	"VPW:B\230'W\001\276\177&\374\023\365\264^S\246\365:"
 418      42982757 
 418      01BE7F26 
 418      FC13F5B4 
 418      5E53A6F5 
 419 09a6 A4B54935 		.ascii	"\244\265I5\255\327\334\322\332\244\226\326V\267\264"
 419      ADD7DCD2 
 419      DAA496D6 
 419      56B7B4
 420 09b5 5EA3693D 		.ascii	"^\243i=J\323\312RY\261\361C\222J\342\\\211\234\312&"
 420      4AD3CA52 
 420      59B1F143 
 420      924AE25C 
 420      899CCA26 
 421 09c9 452A2B1C 		.ascii	"E*+\034?g\001d\021~\325\000\302\345c\357.\007=\366\002"
 421      3F670164 
 421      117ED500 
 421      C2E563EF 
 421      2E073DF6 
 422 09de 4679EC65 		.ascii	"Fy\354em\3337\376\214\264\221\245\376\210l\213@\351"
 422      6DDB37FE 
 422      8CB491A5 
 422      FE886C8B 
 422      40E9
 423 09f0 9698D779 		.ascii	"\226\230\327y\244\000\177\264G\334S.\366\366\024\376"
 423      A4007FB4 
 423      47DC532E 
 423      F6F614FE 
 424 0a00 5BC1B187 		.ascii	"[\301\261\207\242\250\327\322\261\263A\206\303-)\326"
 424      A2A8D7D2 
 424      B1B34186 
 424      C32D29D6 
 425 0a10 0B9D700C 		.ascii	"\013\235p\014i\025>\"\273\226\343\201\037>N7\"\224\272"
 425      69153E22 
 425      BB96E381 
ARM GAS  C:\Users\info\AppData\Local\Temp\ccGSe0tH.s 			page 33


 425      1F3E4E37 
 425      2294BA
 426 0a23 BFB7C50B 		.ascii	"\277\267\305\013_a\212\243\301\2713\020vB\324F\037\202"
 426      5F618AA3 
 426      C1B93310 
 426      7642D446 
 426      1F82
 427 0a35 9AA2F2AC 		.ascii	"\232\242\362\254d\203V\032Qlo\3148\320S\0350\307\343"
 427      6483561A 
 427      516C6FCC 
 427      38D0531D 
 427      30C7E3
 428 0a48 50BC4D73 		.ascii	"P\274Msv\213\346\214\354\244\203\271\227\210\227\275"
 428      768BE68C 
 428      ECA483B9 
 428      978897BD 
 429 0a58 A2D8BB6D 		.ascii	"\242\330\273m\340\313\374\242tg\213(\316\2428tS\362"
 429      E0CBFCA2 
 429      74678B28 
 429      CEA23874 
 429      53F2
 430 0a6a 13B50B5A 		.ascii	"\023\265\013Z\242\261c\322\035\352\346\326\275/\273"
 430      A2B163D2 
 430      1DEAE6D6 
 430      BD2FBB
 431 0a79 057CD393 		.ascii	"\005|\323\223k\333\372/\372\272\035\035\216\272\035"
 431      6BDBFA2F 
 431      FABA1D1D 
 431      8EBA1D
 432 0a88 1D3A5D47 		.ascii	"\035:]G\207\355u\353\356x\323\030:]1<\354\272<*\357"
 432      87ED75EB 
 432      EE78D318 
 432      3A5D313C 
 432      ECBA3C2A 
 433 0a9d F95DEC18 		.ascii	"\371]\354\030u\355YS\223\217+\330{\254\262\357Ar\206"
 433      75ED5953 
 433      938F2BD8 
 433      7BACB2EF 
 433      417286
 434 0ab0 E039DA1E 		.ascii	"\3409\332\036\032m\267\024\255XQv\320\300\242u\016\307"
 434      1A6DB714 
 434      AD585176 
 434      D0C0A275 
 434      0EC7
 435 0ac2 E4896753 		.ascii	"\344\211gS\304\317\011\006u\270\"\275\013\221vH\221"
 435      C4CF0906 
 435      75B822BD 
 435      0B917648 
 435      91
 436 0ad3 F6D248B7 		.ascii	"\366\322H\267d\017n\361\305\217<E\252v@)\256\311\277"
 436      640F6EF1 
 436      C58F3C45 
 436      AA764029 
 436      AEC9BF
 437 0ae6 8C5CBE3E 		.ascii	"\214\\\276>`\276\326v\2447\350<\373\372\210\372\372"
 437      60BED676 
 437      A437E83C 
ARM GAS  C:\Users\info\AppData\Local\Temp\ccGSe0tH.s 			page 34


 437      FBFA88FA 
 437      FA
 438 0af7 50F2F5ED 		.ascii	"P\362\365\355\300Py\000\367\365\256\344+`\320\017._"
 438      C0507900 
 438      F7F5AEE4 
 438      2B60D00F 
 438      2E5F
 439 0b09 EF83AF3F 		.ascii	"\357\203\257?H\276>\246\276nL>qA\213_{\362\265\271\377"
 439      48BE3EA6 
 439      BE6E4C3E 
 439      71418B5F 
 439      7BF2B5B9 
 440 0b1e 5E14E71C 		.ascii	"^\024\347\034\2218IO\367\2718\373\201\263O\342|B9+\256"
 440      9138494F 
 440      F7B938FB 
 440      81B34FE2 
 440      7C42392B 
 441 0b33 D4F5F9E2 		.ascii	"\324\365\371\342\015\276\0368\235;_\226\371s\322.\245"
 441      0DBE1E38 
 441      9D3B5F96 
 441      F973D22E 
 441      A5
 442 0b44 A34F5DA4 		.ascii	"\243O]\244\003@\372T\"}FIK\322\234#\276x7#\355\036\235"
 442      0340FA54 
 442      227D4649 
 442      4BD29C23 
 442      BE783723 
 443 0b5b 986063A0 		.ascii	"\230`c\240\3005\006\256\014\234?\256w\245\3609KaU\317"
 443      C03506AE 
 443      0C9C3FAE 
 443      77A5F039 
 443      4B6155CF 
 444 0b6f F1706506 		.ascii	"\361pe\006\277\376P\221\300a\232\300!)\201G\206\212"
 444      BFFE5091 
 444      C0619AC0 
 444      21298147 
 444      868A
 445 0b81 1BB4DCAF 		.ascii	"\033\264\334\257\027}\213\3011\201@\320\240<\373\006"
 445      177D8BC1 
 445      318140D0 
 445      A03CFB06 
 446 0b91 259F5E50 		.ascii	"%\237^P\237J\323\017gz\341*\346\223\332\334\032\037"
 446      9F4AD30F 
 446      677AE12A 
 446      E693DADC 
 446      1A1F
 447 0ba3 4C19F2F5 		.ascii	"L\031\362\365h\177\224\332\177)\331\237\330\263=E\340"
 447      687F94DA 
 447      7F29D99F 
 447      D8B33D45 
 447      E0
 448 0bb4 F677741A 		.ascii	"\366wt\032\234_\022\000\032\221\255\217H\326_Q\353\335"
 448      9C5F1200 
 448      1A91AD8F 
 448      48D65F51 
 448      EBDD
 449 0bc6 853D9BBC 		.ascii	"\205=\233\274q3\263\236V\275\361\206@\255g\311\326\037"
ARM GAS  C:\Users\info\AppData\Local\Temp\ccGSe0tH.s 			page 35


 449      7133B39E 
 449      56BDF186 
 449      40AD67C9 
 449      D61F
 450 0bd8 9D79A375 		.ascii	"\235y\243uy4\306_.&\273\266b\217.\215S\227\336H.]\\"
 450      7934C65F 
 450      2E26BBB6 
 450      628F2E8D 
 450      5397DE48 
 451 0bef 77657B20 		.ascii	"we{ w)\227\272\004\000\364Zv\351\265\344\322[\352\322"
 451      772997BA 
 451      0400F45A 
 451      76E9B5E4 
 451      D25BEAD2 
 452 0c03 B3FAA2B7 		.ascii	"\263\372\242\267\276x\204\271\2241\274\316\373\343\""
 452      BE7884B9 
 452      9431BCCE 
 452      FBE322
 453 0c12 B1650F59 		.ascii	"\261e\017Y\317\376)\267+M\024\275\351\257\021\023\354"
 453      CFFE29B7 
 453      2B4D14BD 
 453      E9AF1113 
 453      EC
 454 0c23 79C58F18 		.ascii	"y\305\217\030\244\34670F&\205\217\311\313\346\221{\345"
 454      A4E63730 
 454      4626858F 
 454      C9CBE691 
 454      7BE5
 455 0c35 BE389B7D 		.ascii	"\2768\233}\377\234\276\231Y\345\317h\234#^\"\246\014"
 455      FF9CBE99 
 455      59E5CF68 
 455      9C235E22 
 455      A60C
 456 0c47 53EF314C 		.ascii	"S\3571Lq\206w\224\2419\243\370\235\017.g\014\267\367"
 456      71867794 
 456      A139A3F8 
 456      9D0F2E67 
 456      0CB7F7
 457 0c5a 9E6A479C 		.ascii	"\236jG\234\241\2150\220\237\016\2469\203\374\213\303"
 457      A18D3090 
 457      9F0EA639 
 457      83FC8BC3 
 458 0c6a 34671031 		.ascii	"4g\0201a(\357+\3112\3406\3060z\344\225\303\2133TK\014"
 458      6128EF2B 
 458      C932E036 
 458      C6307AE4 
 458      95C38B33 
 459 0c81 C9782603 		.ascii	"\311x&\003\251!\014)\224!u\363\223[>\370\015\377\204"
 459      A9210C29 
 459      942175F3 
 459      935B3EF8 
 459      0DFF84
 460 0c94 3E5AE1F0 		.ascii	">Z\341\360\345\014\333~%.\246\337\365S9\203\374s@*g"
 460      E50CDB7E 
 460      252EA6DF 
 460      F5533983 
 460      FC73402A 
ARM GAS  C:\Users\info\AppData\Local\Temp\ccGSe0tH.s 			page 36


 461 0ca9 48A30C8D 		.ascii	"H\243\014\215\345\343S\376\330A\177\230C\355\227\233"
 461      E5E353FE 
 461      D8417F98 
 461      43ED979B 
 462 0cb9 47241F8E 		.ascii	"G$\037\216\247\177\234,:\265\364\035|\015'\221>\005"
 462      A77F9C2C 
 462      3AB5F41D 
 462      7C0D2791 
 462      3E05
 463 0ccb 68680D21 		.ascii	"hh\015!I\247$E\371\275o\260\333\302:\356\266m\256\305"
 463      49A72445 
 463      F9BD6FB0 
 463      DBC23AEE 
 463      B66DAEC5 
 464 0cdf ECCD1D4A 		.ascii	"\354\315\035J@\267\275\254\271\351\376\003\304\250\033"
 464      40B7BDAC 
 464      B9E9FE03 
 464      C4A81B
 465 0cee 3A83A333 		.ascii	":\203\2433(z\364q\3519\367_e\206\335\320\3538z\035E"
 465      287AF471 
 465      E939F75F 
 465      6586DDD0 
 465      EB387A1D 
 466 0d03 BFCDCB58 		.ascii	"\277\315\313X\357\347\206\276\355\206\316\344\350L\212"
 466      EFE786BE 
 466      ED86CEE4 
 466      E84C8A
 467 0d12 DEFDAAA5 		.ascii	"\336\375\252\245\321\375\207\254Gn\350,\216\316\242"
 467      D1FD87AC 
 467      476EE82C 
 467      8ECEA2
 468 0d21 E83599D3 		.ascii	"\3505\231\323}\201\270\232\245\252f\307;\247\026\327"
 468      7D81B89A 
 468      A5AA66C7 
 468      3BA716D7 
 469 0d31 3125DD31 		.ascii	"1%\3351}_\217\235L\031}\336Q\342\215/s\330\363\322\032"
 469      7D5F8F9D 
 469      4C197DDE 
 469      51E28D2F 
 469      73D8F3D2 
 470 0d46 7FFE6D98 		.ascii	"\177\376m\230\350[\3122S\021\276K\033\275\327\337\355"
 470      E85BCA32 
 470      5311BE4B 
 470      1BBDD7DF 
 470      ED
 471 0d57 6E0F40F4 		.ascii	"n\017@\364m\216\177\023r\262\367\233\3158\224\236r\320"
 471      6D8E7F13 
 471      72B2F79B 
 471      CD38949E 
 471      72D0
 472 0d69 2648F316 		.ascii	"&H\363\026\314\336o\266\3430\344\300\363\3216\220\255"
 472      CCDE6FB6 
 472      E330E4C0 
 472      F3D13690 
 472      AD
 473 0d7a 203958F1 		.ascii	" 9X\361~\322\2333\360\371)\305g\344\365\374AO_\274\272"
 473      7ED29B33 
ARM GAS  C:\Users\info\AppData\Local\Temp\ccGSe0tH.s 			page 37


 473      F0F929C5 
 473      67E4F5FC 
 473      414F5FBC 
 474 0d8f AFBB0ED1 		.ascii	"\257\273\016\321\033T\240\312\243\330\210\014\315V\201"
 474      1B54A0CA 
 474      A3D8880C 
 474      CD5681
 475 0d9e 2A5F0FEE 		.ascii	"*_\017\356m\344\347a\262kn\344`\217\347\230\016\366"
 475      6DE4E761 
 475      B26B6EE4 
 475      608FE798 
 475      0EF6
 476 0db0 F90E30CA 		.ascii	"\371\0160\312s\014\371\251 sd2\000\367\262\037\213'"
 476      730CF9A9 
 476      20736432 
 476      00F7B21F 
 476      8B27
 477 0dc2 0BD755EB 		.ascii	"\013\327U\353PX0{&\377\372|\362\314\016\340\315\305"
 477      5058307B 
 477      26FFFA7C 
 477      F2CC0EE0 
 477      CDC5
 478 0dd4 AE158250 		.ascii	"\256\025\202P\314xEt\2450\017\322\366\207RH\266\220"
 478      CC784574 
 478      A5300FD2 
 478      F6875248 
 478      B690
 479 0de6 D2573901 		.ascii	"\322W9\001nCa\007V\276.\347\363\241\220O\207B\351\321"
 479      6E436107 
 479      56BE2EE7 
 479      F3A1904F 
 479      8742E9D1 
 480 0dfa D745EE1F 		.ascii	"\327E\356\037!z\334\006\316N\216\336I\321\315=E\333"
 480      217ADC06 
 480      CE4E8EDE 
 480      49D1CD3D 
 480      45DB
 481 0e0c 03E7ED65 		.ascii	"\003\347\355e\356e\302\254\371\372Cz\256b\253\332.<"
 481      EE65C2AC 
 481      F9FA437A 
 481      AE62ABDA 
 481      2E3C
 482 0e1e 0F307517 		.ascii	"\0170u\027\3623\004\206\201\225\354\213\222L\000\272"
 482      F2330486 
 482      8195EC8B 
 482      924C00BA 
 483 0e2e E376535C 		.ascii	"\343vS\\e\325\365\016\314pN\207~&\246\200b\352\327_"
 483      65D5F50E 
 483      CC704E87 
 483      7E26A680 
 483      62EAD75F 
 484 0e42 1FD271CC 		.ascii	"\037\322q\314\356\3670{(\246\343\344\031Q\3171'\337"
 484      EEF7307B 
 484      28A6E3E4 
 484      1951CF31 
 484      27DF
 485 0e54 C3ECA598 		.ascii	"\303\354\245\230\334=\031G\265\0343\372\036\246\220"
ARM GAS  C:\Users\info\AppData\Local\Temp\ccGSe0tH.s 			page 38


 485      DC3D1947 
 485      B51C33FA 
 485      1EA690
 486 0e63 623614F7 		.ascii	"b6\024\367\275\226x\266\370\315\304\024\341y\032\335"
 486      BD9678B6 
 486      F8CDC414 
 486      E1791ADD 
 487 0e73 AFFEE5AB 		.ascii	"\257\376\345\253\271\277\014\017\327\370\032\215I\026"
 487      B9BF0C0F 
 487      D7F81A8D 
 487      4916
 488 0e81 AB7D99D1 		.ascii	"\253}\231\321\236\214L\177\023\221\220\030\277<12nn"
 488      9E8C4C7F 
 488      13919018 
 488      BF3C3132 
 488      6E6E
 489 0e93 8C25D66C 		.ascii	"\214%\326l\233\033\266j\331g\177\031aZ\235\220h\266"
 489      9B1BB66A 
 489      D9677F19 
 489      615A9D90 
 489      68B6
 490 0ea5 D922126C 		.ascii	"\331\"\022l\361\246\271\246Ds\244=>1\342\323EK\334+"
 490      F1A6B9A6 
 490      4473A43D 
 490      3E31E2D3 
 490      454BDC2B 
 491 0eb9 2C7109F1 		.ascii	",q\011\361\211\366\210\345\326\244\210\310\304\270\210"
 491      89F688E5 
 491      D6A488C8 
 491      C4B888
 492 0ec8 BF5EF4E9 		.ascii	"\277^\364\351\242pr\367\013k\274\325\374\013sd\224%"
 492      A27072F7 
 492      0B6BBCD5 
 492      FC0B7364 
 492      9425
 493 0eda C26235C5 		.ascii	"\302b5\305&E\233#\342\"M+,Vs\2041\332\034\023\231\024"
 493      26459B23 
 493      E2224D2B 
 493      2C567384 
 493      31DA1C13 
 494 0ef0 6B37DA57 		.ascii	"k7\332W'\230m\213Vh|\270++\377\277<\261\255\266E\030"
 494      27986D8B 
 494      56687CB8 
 494      2B2BFFBF 
 494      3CB1ADB6 
 495 0f06 6DF66830 		.ascii	"m\366h0\013\346\375\022,\253\314\261\306o-\321\366\025"
 495      0BE6FD12 
 495      2CABCCB1 
 495      C66F2DD1 
 495      F615
 496 0f18 7A9697F0 		.ascii	"z\226\227\360\317\214v\235t3;&\326\222\020\027\037m"
 496      CF8C769D 
 496      74333B26 
 496      D6921017 
 496      1F6D
 497 0f2a 36AE32C6 		.ascii	"6\2562\306\307\304\330\314\366YR\004R\205\237\035\334"
 497      C7C4D8CC 
ARM GAS  C:\Users\info\AppData\Local\Temp\ccGSe0tH.s 			page 39


 497      F6595204 
 497      52859F1D 
 497      DC
 498 0f3b 35AE305B 		.ascii	"5\2560[\226\257\260\353\351=e\013\3716\321b7\033\023"
 498      96AFB0EB 
 498      E93D650B 
 498      F936D162 
 498      371B13
 499 0f4e 92626DBC 		.ascii	"\222bm\274\306h\265\005EG\332#\215\360PR\202\321n\211"
 499      C668B505 
 499      4547DA23 
 499      8DF05052 
 499      82D16E89 
 500 0f62 33435588 		.ascii	"3CU\210e\211\311\030\225d3\232b\343M\2773\206/^\374"
 500      6589C918 
 500      9564339A 
 500      62E34DBF 
 500      33862F5E 
 501 0f77 BB7FFC4E 		.ascii	"\273\177\374NgK\260\030\211Y\203\015\352X\313\212\357"
 501      674BB018 
 501      8959830D 
 501      EA58CB8A 
 501      EF
 502 0f88 B8834B97 		.ascii	"\270\203K\227p\007\311M\020\001\270\033\231m\213\236"
 502      7007C94D 
 502      1001B81B 
 502      996D8B9E 
 503 0f98 61232821 		.ascii	"a#(!\336f7B"
 503      DE663742 
 504 0fa0 1ECD76E3 		.ascii	"\036\315v\343\267\221\026\2731\316\026\3024\345\223"
 504      B79116BB 
 504      31CE16C2 
 504      34E593
 505 0faf 71B63990 		.ascii	"q\2669\220k#tT\2021\332b\213\214\"\241\020\264\025\032"
 505      6B237454 
 505      8231DA62 
 505      8B8C22A1 
 505      10B4151A 
 506 0fc3 08016D31 		.ascii	"\010\001m1[\225\015An\350X\363Js\354l%\214\326\314I"
 506      5B950D41 
 506      6EE858F3 
 506      4A73EC6C 
 506      258CD6CC 
 507 0fd8 5AB66A19 		.ascii	"Z\266j\031\001%\304F\2566Z\2541\361\320\001\211I&\273"
 507      0125C446 
 507      AE365AAC 
 507      31F1D001 
 507      894926BB 
 508 0fec 81659FE5 		.ascii	"\201e\237\345.d\321\242\210\244e\313\227\030M\266DS"
 508      2E64D1A2 
 508      88A465CB 
 508      97184DB6 
 508      4453
 509 0ffe 0479     		.ascii	"\004y"
 510 1000 04FA27F8 		.ascii	"\004\372'\370\375G\355!\254\316\230d\012\377lq\2701"
 510      FD47ED21 
 510      ACCE9864 
ARM GAS  C:\Users\info\AppData\Local\Temp\ccGSe0tH.s 			page 40


 510      0AFF6C71 
 510      B831
 511 1012 7CC9B255 		.ascii	"|\311\262UK\227\004D\233\243\342\223\254&3PG\332\315"
 511      4B970444 
 511      9BA3E293 
 511      AC263350 
 511      47DACD
 512 1025 7FE65263 		.ascii	"\177\346Rc#\301\363\004\213\225\325\377\304U/u\243\253"
 512      23C1F304 
 512      8B95D5FF 
 512      C4552F75 
 512      A3AB
 513 1037 C96F7982 		.ascii	"\311oy\202%\236$\011j\365I\366\230e\254\032\210WZ\000"
 513      259E2409 
 513      6AF549F6 
 513      9865AC1A 
 513      88575A00 
 514 104b 1F191D4D 		.ascii	"\037\031\035M\006\242\037\351.hH\264\233\243\351=\257"
 514      06A21FE9 
 514      2E6848B4 
 514      9BA3E93D 
 514      AF
 515 105c 0FB1D88C 		.ascii	"\017\261\330\2141\361V;\370\270\322\234\0109%\275\247"
 515      31F1563B 
 515      F8B8D29C 
 515      083925BD 
 515      A7
 516 106d 93C688CE 		.ascii	"\223\306\210\316l5\305\303\220[\256%\030_Ww\317\246"
 516      6C35C5C3 
 516      905BAE25 
 516      185F5777 
 516      CFA6
 517 107f 3623ADD1 		.ascii	"6#\255\321\340\016\011\320\024\345G\203\213\263-\207"
 517      E00E09D0 
 517      14E54783 
 517      8BB32D87 
 518 108f 7B9FA8D5 		.ascii	"{\237\250\3250\202LQ\336\246\310h(\364R\032\240\305"
 518      30824C51 
 518      DEA6C868 
 518      28F4521A 
 518      A0C5
 519 10a1 6A5E05FD 		.ascii	"j^\005\375\021e\240h\323\212\310D\242(\323\304xX\232"
 519      1165A068 
 519      D38AC844 
 519      A228D3C4 
 519      78589A
 520 10b4 835D41B3 		.ascii	"\203]A\263\350\010\2757m\267\377\364\275\244\273\022"
 520      E808BD37 
 520      6DB7FFF4 
 520      BDA4BB12 
 521 10c4 BBC8A461 		.ascii	"\273\310\244a\231&\326\377\336\032\375\233\304H\253"
 521      9926D6FF 
 521      DE1AFD9B 
 521      C448AB
 522 10d3 2DC69CA8 		.ascii	"-\306\234\250\263\306[\254\2610\231g\273Z\177m\266F"
 522      B3C65BAC 
 522      B1309967 
ARM GAS  C:\Users\info\AppData\Local\Temp\ccGSe0tH.s 			page 41


 522      BB5A7F6D 
 522      B646
 523 10e5 FF1D8CEC 		.ascii	"\377\035\214\354Yn5\277\214\213\376P\256 )\223(\334"
 523      596E35BF 
 523      8C8BFE50 
 523      AE202993 
 523      28DC
 524 10f7 715F242E 		.ascii	"q_$.\377\300\255\342\327\346o\222 a\346\237p\177V\230"
 524      FFC0ADE2 
 524      D7E66F92 
 524      2061E69F 
 524      707F5698 
 525 110b 6313CC89 		.ascii	"c\023\314\211\212Q`\261\177\244\336\304F}\2349.>q\365"
 525      8A5160B1 
 525      7FA4DEC4 
 525      467D9C39 
 525      2E3E71F5 
 526 111f CFD48689 		.ascii	"\317\324\206\211\221\314\347p\300}\343\271y1i\236\247"
 526      91CCE770 
 526      C07DE3B9 
 526      7931699E 
 526      A7
 527 1130 DA9C10FF 		.ascii	"\332\234\020\377-tn\344Js\370\377\002Cy~\252\212!!\220"
 527      2D746EE4 
 527      4A73F8FF 
 527      0243797E 
 527      AA8A2121 
 528 1145 D69FD356 		.ascii	"\326\237\323V\3676e/z\255\002:\0336Y\355:\272\262$\330"
 528      F736652F 
 528      7AAD023A 
 528      1B3659ED 
 528      3ABAB224 
 529 115a 79EEA8C6 		.ascii	"y\356\250\306z\327k5\301\370\311\325\366\377\001\204"
 529      7AD76B35 
 529      C1F8C9D5 
 529      F6FF0184 
 530 116a 448450   		.ascii	"D\204P"
 531              		.text
 532              		.section	.gnu.lto_.symtab.bf14e42c,"",%progbits
 533 0000 75387838 		.ascii	"u8x8_d_uc1601_128x32\000"
 533      5F645F75 
 533      63313630 
 533      315F3132 
 533      38783332 
 534 0015 00       		.ascii	"\000"
 535 0016 00       		.ascii	"\000"
 536 0017 00       		.ascii	"\000"
 537 0018 00000000 		.ascii	"\000\000\000\000\000\000\000\000"
 537      00000000 
 538 0020 52010000 		.ascii	"R\001\000\000"
 539 0024 75387838 		.ascii	"u8x8_cad_EndTransfer\000"
 539      5F636164 
 539      5F456E64 
 539      5472616E 
 539      73666572 
 540 0039 00       		.ascii	"\000"
 541 003a 02       		.ascii	"\002"
ARM GAS  C:\Users\info\AppData\Local\Temp\ccGSe0tH.s 			page 42


 542 003b 00       		.ascii	"\000"
 543 003c 00000000 		.ascii	"\000\000\000\000\000\000\000\000"
 543      00000000 
 544 0044 58010000 		.ascii	"X\001\000\000"
 545 0048 75387838 		.ascii	"u8x8_cad_SendData\000"
 545      5F636164 
 545      5F53656E 
 545      64446174 
 545      6100
 546 005a 00       		.ascii	"\000"
 547 005b 02       		.ascii	"\002"
 548 005c 00       		.ascii	"\000"
 549 005d 00000000 		.ascii	"\000\000\000\000\000\000\000\000"
 549      00000000 
 550 0065 60010000 		.ascii	"`\001\000\000"
 551 0069 75387838 		.ascii	"u8x8_cad_SendCmd\000"
 551      5F636164 
 551      5F53656E 
 551      64436D64 
 551      00
 552 007a 00       		.ascii	"\000"
 553 007b 02       		.ascii	"\002"
 554 007c 00       		.ascii	"\000"
 555 007d 00000000 		.ascii	"\000\000\000\000\000\000\000\000"
 555      00000000 
 556 0085 66010000 		.ascii	"f\001\000\000"
 557 0089 75387838 		.ascii	"u8x8_cad_StartTransfer\000"
 557      5F636164 
 557      5F537461 
 557      72745472 
 557      616E7366 
 558 00a0 00       		.ascii	"\000"
 559 00a1 02       		.ascii	"\002"
 560 00a2 00       		.ascii	"\000"
 561 00a3 00000000 		.ascii	"\000\000\000\000\000\000\000\000"
 561      00000000 
 562 00ab 69010000 		.ascii	"i\001\000\000"
 563 00af 75387838 		.ascii	"u8x8_cad_SendArg\000"
 563      5F636164 
 563      5F53656E 
 563      64417267 
 563      00
 564 00c0 00       		.ascii	"\000"
 565 00c1 02       		.ascii	"\002"
 566 00c2 00       		.ascii	"\000"
 567 00c3 00000000 		.ascii	"\000\000\000\000\000\000\000\000"
 567      00000000 
 568 00cb 6C010000 		.ascii	"l\001\000\000"
 569 00cf 75387838 		.ascii	"u8x8_cad_SendSequence\000"
 569      5F636164 
 569      5F53656E 
 569      64536571 
 569      75656E63 
 570 00e5 00       		.ascii	"\000"
 571 00e6 02       		.ascii	"\002"
 572 00e7 00       		.ascii	"\000"
 573 00e8 00000000 		.ascii	"\000\000\000\000\000\000\000\000"
ARM GAS  C:\Users\info\AppData\Local\Temp\ccGSe0tH.s 			page 43


 573      00000000 
 574 00f0 71010000 		.ascii	"q\001\000\000"
 575 00f4 75387838 		.ascii	"u8x8_d_helper_display_init\000"
 575      5F645F68 
 575      656C7065 
 575      725F6469 
 575      73706C61 
 576 010f 00       		.ascii	"\000"
 577 0110 02       		.ascii	"\002"
 578 0111 00       		.ascii	"\000"
 579 0112 00000000 		.ascii	"\000\000\000\000\000\000\000\000"
 579      00000000 
 580 011a 75010000 		.ascii	"u\001\000\000"
 581 011e 75387838 		.ascii	"u8x8_d_helper_display_setup_memory\000"
 581      5F645F68 
 581      656C7065 
 581      725F6469 
 581      73706C61 
 582 0141 00       		.ascii	"\000"
 583 0142 02       		.ascii	"\002"
 584 0143 00       		.ascii	"\000"
 585 0144 00000000 		.ascii	"\000\000\000\000\000\000\000\000"
 585      00000000 
 586 014c 7A010000 		.ascii	"z\001\000\000"
 587              		.text
 588              		.section	.gnu.lto_.opts,"",%progbits
 589 0000 272D666D 		.ascii	"'-fmath-errno' '-fsigned-zeros' '-ftrapping-math' '"
 589      6174682D 
 589      6572726E 
 589      6F272027 
 589      2D667369 
 590 0033 2D666E6F 		.ascii	"-fno-trapv' '-fno-openmp' '-fno-openacc' '-mcpu=cor"
 590      2D747261 
 590      70762720 
 590      272D666E 
 590      6F2D6F70 
 591 0066 7465782D 		.ascii	"tex-m3' '-mthumb' '-g' '-Os' '-ffunction-sections' "
 591      6D332720 
 591      272D6D74 
 591      68756D62 
 591      2720272D 
 592 0099 272D6666 		.ascii	"'-ffat-lto-objects' '-flto'\000"
 592      61742D6C 
 592      746F2D6F 
 592      626A6563 
 592      74732720 
 593              		.text
 594              		.cfi_sections	.debug_frame
 595              		.section	.text.u8x8_d_uc1601_128x32,"ax",%progbits
 596              		.align	1
 597              		.global	u8x8_d_uc1601_128x32
 598              		.thumb
 599              		.thumb_func
 600              		.type	u8x8_d_uc1601_128x32, %function
 601              	u8x8_d_uc1601_128x32:
 602              	.LFB0:
 603              		.file 1 "..\\u8g2_csrc\\u8x8_d_uc1601.c"
ARM GAS  C:\Users\info\AppData\Local\Temp\ccGSe0tH.s 			page 44


   1:..\u8g2_csrc/u8x8_d_uc1601.c **** /*
   2:..\u8g2_csrc/u8x8_d_uc1601.c **** 
   3:..\u8g2_csrc/u8x8_d_uc1601.c ****   u8x8_d_uc1601.c
   4:..\u8g2_csrc/u8x8_d_uc1601.c ****   
   5:..\u8g2_csrc/u8x8_d_uc1601.c ****   Universal 8bit Graphics Library (https://github.com/olikraus/u8g2/)
   6:..\u8g2_csrc/u8x8_d_uc1601.c **** 
   7:..\u8g2_csrc/u8x8_d_uc1601.c ****   Copyright (c) 2017, olikraus@gmail.com
   8:..\u8g2_csrc/u8x8_d_uc1601.c ****   All rights reserved.
   9:..\u8g2_csrc/u8x8_d_uc1601.c **** 
  10:..\u8g2_csrc/u8x8_d_uc1601.c ****   Redistribution and use in source and binary forms, with or without modification, 
  11:..\u8g2_csrc/u8x8_d_uc1601.c ****   are permitted provided that the following conditions are met:
  12:..\u8g2_csrc/u8x8_d_uc1601.c **** 
  13:..\u8g2_csrc/u8x8_d_uc1601.c ****   * Redistributions of source code must retain the above copyright notice, this list 
  14:..\u8g2_csrc/u8x8_d_uc1601.c ****     of conditions and the following disclaimer.
  15:..\u8g2_csrc/u8x8_d_uc1601.c ****     
  16:..\u8g2_csrc/u8x8_d_uc1601.c ****   * Redistributions in binary form must reproduce the above copyright notice, this 
  17:..\u8g2_csrc/u8x8_d_uc1601.c ****     list of conditions and the following disclaimer in the documentation and/or other 
  18:..\u8g2_csrc/u8x8_d_uc1601.c ****     materials provided with the distribution.
  19:..\u8g2_csrc/u8x8_d_uc1601.c **** 
  20:..\u8g2_csrc/u8x8_d_uc1601.c ****   THIS SOFTWARE IS PROVIDED BY THE COPYRIGHT HOLDERS AND 
  21:..\u8g2_csrc/u8x8_d_uc1601.c ****   CONTRIBUTORS "AS IS" AND ANY EXPRESS OR IMPLIED WARRANTIES, 
  22:..\u8g2_csrc/u8x8_d_uc1601.c ****   INCLUDING, BUT NOT LIMITED TO, THE IMPLIED WARRANTIES OF 
  23:..\u8g2_csrc/u8x8_d_uc1601.c ****   MERCHANTABILITY AND FITNESS FOR A PARTICULAR PURPOSE ARE 
  24:..\u8g2_csrc/u8x8_d_uc1601.c ****   DISCLAIMED. IN NO EVENT SHALL THE COPYRIGHT HOLDER OR 
  25:..\u8g2_csrc/u8x8_d_uc1601.c ****   CONTRIBUTORS BE LIABLE FOR ANY DIRECT, INDIRECT, INCIDENTAL, 
  26:..\u8g2_csrc/u8x8_d_uc1601.c ****   SPECIAL, EXEMPLARY, OR CONSEQUENTIAL DAMAGES (INCLUDING, BUT 
  27:..\u8g2_csrc/u8x8_d_uc1601.c ****   NOT LIMITED TO, PROCUREMENT OF SUBSTITUTE GOODS OR SERVICES; 
  28:..\u8g2_csrc/u8x8_d_uc1601.c ****   LOSS OF USE, DATA, OR PROFITS; OR BUSINESS INTERRUPTION) HOWEVER 
  29:..\u8g2_csrc/u8x8_d_uc1601.c ****   CAUSED AND ON ANY THEORY OF LIABILITY, WHETHER IN CONTRACT, 
  30:..\u8g2_csrc/u8x8_d_uc1601.c ****   STRICT LIABILITY, OR TORT (INCLUDING NEGLIGENCE OR OTHERWISE) 
  31:..\u8g2_csrc/u8x8_d_uc1601.c ****   ARISING IN ANY WAY OUT OF THE USE OF THIS SOFTWARE, EVEN IF 
  32:..\u8g2_csrc/u8x8_d_uc1601.c ****   ADVISED OF THE POSSIBILITY OF SUCH DAMAGE.  
  33:..\u8g2_csrc/u8x8_d_uc1601.c **** 
  34:..\u8g2_csrc/u8x8_d_uc1601.c ****   This is for the uc1601s controller
  35:..\u8g2_csrc/u8x8_d_uc1601.c ****   
  36:..\u8g2_csrc/u8x8_d_uc1601.c ****   
  37:..\u8g2_csrc/u8x8_d_uc1601.c **** */
  38:..\u8g2_csrc/u8x8_d_uc1601.c **** #include "u8x8.h"
  39:..\u8g2_csrc/u8x8_d_uc1601.c **** 
  40:..\u8g2_csrc/u8x8_d_uc1601.c **** 
  41:..\u8g2_csrc/u8x8_d_uc1601.c **** 
  42:..\u8g2_csrc/u8x8_d_uc1601.c **** 
  43:..\u8g2_csrc/u8x8_d_uc1601.c **** static const uint8_t u8x8_d_uc1601_128x32_powersave0_seq[] = {
  44:..\u8g2_csrc/u8x8_d_uc1601.c ****   U8X8_START_TRANSFER(),             	/* enable chip, delay is part of the transfer start */
  45:..\u8g2_csrc/u8x8_d_uc1601.c ****   U8X8_C(0x0af),		                /* display on */
  46:..\u8g2_csrc/u8x8_d_uc1601.c ****   U8X8_END_TRANSFER(),             	/* disable chip */
  47:..\u8g2_csrc/u8x8_d_uc1601.c ****   U8X8_END()             			/* end of sequence */
  48:..\u8g2_csrc/u8x8_d_uc1601.c **** };
  49:..\u8g2_csrc/u8x8_d_uc1601.c **** 
  50:..\u8g2_csrc/u8x8_d_uc1601.c **** static const uint8_t u8x8_d_uc1601_128x32_powersave1_seq[] = {
  51:..\u8g2_csrc/u8x8_d_uc1601.c ****   U8X8_START_TRANSFER(),             	/* enable chip, delay is part of the transfer start */
  52:..\u8g2_csrc/u8x8_d_uc1601.c ****   U8X8_C(0x0ae),		                /* display off */
  53:..\u8g2_csrc/u8x8_d_uc1601.c ****   U8X8_END_TRANSFER(),             	/* disable chip */
  54:..\u8g2_csrc/u8x8_d_uc1601.c ****   U8X8_END()             			/* end of sequence */
  55:..\u8g2_csrc/u8x8_d_uc1601.c **** };
  56:..\u8g2_csrc/u8x8_d_uc1601.c **** 
  57:..\u8g2_csrc/u8x8_d_uc1601.c **** static const uint8_t u8x8_d_uc1601_128x32_flip0_seq[] = {
ARM GAS  C:\Users\info\AppData\Local\Temp\ccGSe0tH.s 			page 45


  58:..\u8g2_csrc/u8x8_d_uc1601.c ****   U8X8_START_TRANSFER(),             	/* enable chip, delay is part of the transfer start */
  59:..\u8g2_csrc/u8x8_d_uc1601.c ****   U8X8_C(0x0c4),				/* bit 1: MX, bit 2: MY */
  60:..\u8g2_csrc/u8x8_d_uc1601.c ****   U8X8_C(0x060),		                /* set display start line to 32 */
  61:..\u8g2_csrc/u8x8_d_uc1601.c ****   U8X8_END_TRANSFER(),             	/* disable chip */
  62:..\u8g2_csrc/u8x8_d_uc1601.c ****   U8X8_END()             			/* end of sequence */
  63:..\u8g2_csrc/u8x8_d_uc1601.c **** };
  64:..\u8g2_csrc/u8x8_d_uc1601.c **** 
  65:..\u8g2_csrc/u8x8_d_uc1601.c **** static const uint8_t u8x8_d_uc1601_128x32_flip1_seq[] = {
  66:..\u8g2_csrc/u8x8_d_uc1601.c ****   U8X8_START_TRANSFER(),             	/* enable chip, delay is part of the transfer start */
  67:..\u8g2_csrc/u8x8_d_uc1601.c ****   U8X8_C(0x0c2),				/* bit 1: MX, bit 2: MY */
  68:..\u8g2_csrc/u8x8_d_uc1601.c ****   U8X8_C(0x040),		                /* set display start line to 0 */
  69:..\u8g2_csrc/u8x8_d_uc1601.c ****   U8X8_END_TRANSFER(),             	/* disable chip */
  70:..\u8g2_csrc/u8x8_d_uc1601.c ****   U8X8_END()             			/* end of sequence */
  71:..\u8g2_csrc/u8x8_d_uc1601.c **** };
  72:..\u8g2_csrc/u8x8_d_uc1601.c **** 
  73:..\u8g2_csrc/u8x8_d_uc1601.c **** 
  74:..\u8g2_csrc/u8x8_d_uc1601.c **** static const u8x8_display_info_t u8x8_uc1601_128x32_display_info =
  75:..\u8g2_csrc/u8x8_d_uc1601.c **** {
  76:..\u8g2_csrc/u8x8_d_uc1601.c ****   /* chip_enable_level = */ 0,
  77:..\u8g2_csrc/u8x8_d_uc1601.c ****   /* chip_disable_level = */ 1,
  78:..\u8g2_csrc/u8x8_d_uc1601.c ****   
  79:..\u8g2_csrc/u8x8_d_uc1601.c ****   /* post_chip_enable_wait_ns = */ 1,	/* uc1601 datasheet, page 46 */
  80:..\u8g2_csrc/u8x8_d_uc1601.c ****   /* pre_chip_disable_wait_ns = */ 5,	/* uc1601 datasheet, page 46 */
  81:..\u8g2_csrc/u8x8_d_uc1601.c ****   /* reset_pulse_width_ms = */ 1, 
  82:..\u8g2_csrc/u8x8_d_uc1601.c ****   /* post_reset_wait_ms = */ 6, 
  83:..\u8g2_csrc/u8x8_d_uc1601.c ****   /* sda_setup_time_ns = */ 12,		/* uc1601 datasheet, page 44 */
  84:..\u8g2_csrc/u8x8_d_uc1601.c ****   /* sck_pulse_width_ns = */ 15,	/* uc1601 datasheet, page 44 */
  85:..\u8g2_csrc/u8x8_d_uc1601.c ****   /* sck_clock_hz = */ 2000000UL,	/* */
  86:..\u8g2_csrc/u8x8_d_uc1601.c ****   /* spi_mode = */ 0,		/* active high, rising edge */
  87:..\u8g2_csrc/u8x8_d_uc1601.c ****   /* i2c_bus_clock_100kHz = */ 1,
  88:..\u8g2_csrc/u8x8_d_uc1601.c ****   /* data_setup_time_ns = */ 60,	/* uc1601 datasheet, page 43 */
  89:..\u8g2_csrc/u8x8_d_uc1601.c ****   /* write_pulse_width_ns = */ 80,	/* uc1601 datasheet, page 43 */
  90:..\u8g2_csrc/u8x8_d_uc1601.c ****   /* tile_width = */ 16,		
  91:..\u8g2_csrc/u8x8_d_uc1601.c ****   /* tile_hight = */ 4,
  92:..\u8g2_csrc/u8x8_d_uc1601.c ****   /* default_x_offset = */ 0,
  93:..\u8g2_csrc/u8x8_d_uc1601.c ****   /* flipmode_x_offset = */ 4,
  94:..\u8g2_csrc/u8x8_d_uc1601.c ****   /* pixel_width = */ 128,
  95:..\u8g2_csrc/u8x8_d_uc1601.c ****   /* pixel_height = */ 32
  96:..\u8g2_csrc/u8x8_d_uc1601.c **** };
  97:..\u8g2_csrc/u8x8_d_uc1601.c **** 
  98:..\u8g2_csrc/u8x8_d_uc1601.c **** static const uint8_t u8x8_d_uc1601_128x32_init_seq[] = {
  99:..\u8g2_csrc/u8x8_d_uc1601.c ****     
 100:..\u8g2_csrc/u8x8_d_uc1601.c ****   U8X8_START_TRANSFER(),             	/* enable chip, delay is part of the transfer start */
 101:..\u8g2_csrc/u8x8_d_uc1601.c ****   
 102:..\u8g2_csrc/u8x8_d_uc1601.c ****   U8X8_C(0x0e2),            			/* soft reset */
 103:..\u8g2_csrc/u8x8_d_uc1601.c ****   U8X8_C(0x0eb),            			/* LCD Bias: 0xe8: 6, 0xe9: 7, 0xea: 8, 0xeb: 9 */
 104:..\u8g2_csrc/u8x8_d_uc1601.c ****   //U8X8_C(0x023),            			/* 0x020...0x023 only for UC1601, not for UC1601s */
 105:..\u8g2_csrc/u8x8_d_uc1601.c **** 	
 106:..\u8g2_csrc/u8x8_d_uc1601.c **** 
 107:..\u8g2_csrc/u8x8_d_uc1601.c ****   //U8X8_C(0x02e),            			/* LCD Load + Internal Charge Pump (default: 0x2e) */
 108:..\u8g2_csrc/u8x8_d_uc1601.c ****   U8X8_C(0x024),		                /* Temperature Compenstation, default: 0x24 */
 109:..\u8g2_csrc/u8x8_d_uc1601.c ****   U8X8_C(0x089),		                /* RAM address ctrl, default: 0x89 */
 110:..\u8g2_csrc/u8x8_d_uc1601.c ****   U8X8_C(0x0c4),		                /* RAM mapping ctrl */
 111:..\u8g2_csrc/u8x8_d_uc1601.c ****   U8X8_C(0x0a0),		                /* Frame Rate, 0x0a0 or 0x0a1 */
 112:..\u8g2_csrc/u8x8_d_uc1601.c ****   U8X8_CA(0x081, 0x0df),		/* set contrast */
 113:..\u8g2_csrc/u8x8_d_uc1601.c ****   U8X8_C(0x02e),            			/* LCD Load + Internal Charge Pump (default: 0x2e) */	
 114:..\u8g2_csrc/u8x8_d_uc1601.c ****   U8X8_C(0x060),		                /* set display start line to 32 */
ARM GAS  C:\Users\info\AppData\Local\Temp\ccGSe0tH.s 			page 46


 115:..\u8g2_csrc/u8x8_d_uc1601.c ****   
 116:..\u8g2_csrc/u8x8_d_uc1601.c ****   U8X8_C(0x0a6),		                /* normal display */
 117:..\u8g2_csrc/u8x8_d_uc1601.c ****    
 118:..\u8g2_csrc/u8x8_d_uc1601.c ****   U8X8_END_TRANSFER(),             	/* disable chip */
 119:..\u8g2_csrc/u8x8_d_uc1601.c ****   U8X8_END()             			/* end of sequence */
 120:..\u8g2_csrc/u8x8_d_uc1601.c **** };
 121:..\u8g2_csrc/u8x8_d_uc1601.c **** 
 122:..\u8g2_csrc/u8x8_d_uc1601.c **** uint8_t u8x8_d_uc1601_128x32(u8x8_t *u8x8, uint8_t msg, uint8_t arg_int, void *arg_ptr)
 123:..\u8g2_csrc/u8x8_d_uc1601.c **** {
 604              		.loc 1 123 0
 605              		.cfi_startproc
 606              		@ args = 0, pretend = 0, frame = 0
 607              		@ frame_needed = 0, uses_anonymous_args = 0
 608              	.LVL0:
 124:..\u8g2_csrc/u8x8_d_uc1601.c ****   uint8_t x, c;
 125:..\u8g2_csrc/u8x8_d_uc1601.c ****   uint8_t *ptr;
 126:..\u8g2_csrc/u8x8_d_uc1601.c ****   switch(msg)
 609              		.loc 1 126 0
 610 0000 0939     		subs	r1, r1, #9
 611              	.LVL1:
 123:..\u8g2_csrc/u8x8_d_uc1601.c ****   uint8_t x, c;
 612              		.loc 1 123 0
 613 0002 F8B5     		push	{r3, r4, r5, r6, r7, lr}
 614              		.cfi_def_cfa_offset 24
 615              		.cfi_offset 3, -24
 616              		.cfi_offset 4, -20
 617              		.cfi_offset 5, -16
 618              		.cfi_offset 6, -12
 619              		.cfi_offset 7, -8
 620              		.cfi_offset 14, -4
 123:..\u8g2_csrc/u8x8_d_uc1601.c ****   uint8_t x, c;
 621              		.loc 1 123 0
 622 0004 0446     		mov	r4, r0
 623 0006 1546     		mov	r5, r2
 624 0008 1F46     		mov	r7, r3
 625              		.loc 1 126 0
 626 000a 0629     		cmp	r1, #6
 627 000c 5BD8     		bhi	.L13
 628 000e DFE801F0 		tbb	[pc, r1]
 629              	.LVL2:
 630              	.L4:
 631 0012 04       		.byte	(.L3-.L4)/2
 632 0013 08       		.byte	(.L5-.L4)/2
 633 0014 0C       		.byte	(.L6-.L4)/2
 634 0015 5A       		.byte	(.L13-.L4)/2
 635 0016 14       		.byte	(.L7-.L4)/2
 636 0017 23       		.byte	(.L8-.L4)/2
 637 0018 32       		.byte	(.L9-.L4)/2
 638 0019 00       		.p2align 1
 639              	.L3:
 127:..\u8g2_csrc/u8x8_d_uc1601.c ****   {
 128:..\u8g2_csrc/u8x8_d_uc1601.c ****     case U8X8_MSG_DISPLAY_SETUP_MEMORY:
 129:..\u8g2_csrc/u8x8_d_uc1601.c ****       u8x8_d_helper_display_setup_memory(u8x8, &u8x8_uc1601_128x32_display_info);
 640              		.loc 1 129 0
 641 001a 2C49     		ldr	r1, .L20
 642 001c FFF7FEFF 		bl	u8x8_d_helper_display_setup_memory
 643              	.LVL3:
ARM GAS  C:\Users\info\AppData\Local\Temp\ccGSe0tH.s 			page 47


 644 0020 27E0     		b	.L15
 645              	.LVL4:
 646              	.L5:
 130:..\u8g2_csrc/u8x8_d_uc1601.c ****       break;
 131:..\u8g2_csrc/u8x8_d_uc1601.c ****     case U8X8_MSG_DISPLAY_INIT:
 132:..\u8g2_csrc/u8x8_d_uc1601.c ****       u8x8_d_helper_display_init(u8x8);
 647              		.loc 1 132 0
 648 0022 FFF7FEFF 		bl	u8x8_d_helper_display_init
 649              	.LVL5:
 133:..\u8g2_csrc/u8x8_d_uc1601.c ****       u8x8_cad_SendSequence(u8x8, u8x8_d_uc1601_128x32_init_seq);
 650              		.loc 1 133 0
 651 0026 2A49     		ldr	r1, .L20+4
 652 0028 03E0     		b	.L18
 653              	.LVL6:
 654              	.L6:
 134:..\u8g2_csrc/u8x8_d_uc1601.c ****       break;
 135:..\u8g2_csrc/u8x8_d_uc1601.c ****     case U8X8_MSG_DISPLAY_SET_POWER_SAVE:
 136:..\u8g2_csrc/u8x8_d_uc1601.c ****       if ( arg_int == 0 )
 655              		.loc 1 136 0
 656 002a 0AB9     		cbnz	r2, .L10
 137:..\u8g2_csrc/u8x8_d_uc1601.c **** 	u8x8_cad_SendSequence(u8x8, u8x8_d_uc1601_128x32_powersave0_seq);
 657              		.loc 1 137 0
 658 002c 2949     		ldr	r1, .L20+8
 659 002e 00E0     		b	.L18
 660              	.L10:
 138:..\u8g2_csrc/u8x8_d_uc1601.c ****       else
 139:..\u8g2_csrc/u8x8_d_uc1601.c **** 	u8x8_cad_SendSequence(u8x8, u8x8_d_uc1601_128x32_powersave1_seq);
 661              		.loc 1 139 0
 662 0030 2949     		ldr	r1, .L20+12
 663              	.LVL7:
 664              	.L18:
 665 0032 2046     		mov	r0, r4
 666 0034 FFF7FEFF 		bl	u8x8_cad_SendSequence
 667              	.LVL8:
 668 0038 1BE0     		b	.L15
 669              	.LVL9:
 670              	.L7:
 140:..\u8g2_csrc/u8x8_d_uc1601.c ****       break;
 141:..\u8g2_csrc/u8x8_d_uc1601.c ****     case U8X8_MSG_DISPLAY_SET_FLIP_MODE:
 142:..\u8g2_csrc/u8x8_d_uc1601.c ****       if ( arg_int == 0 )
 671              		.loc 1 142 0
 672 003a 2AB9     		cbnz	r2, .L11
 143:..\u8g2_csrc/u8x8_d_uc1601.c ****       {
 144:..\u8g2_csrc/u8x8_d_uc1601.c **** 	u8x8_cad_SendSequence(u8x8, u8x8_d_uc1601_128x32_flip0_seq);
 673              		.loc 1 144 0
 674 003c 2749     		ldr	r1, .L20+16
 675 003e FFF7FEFF 		bl	u8x8_cad_SendSequence
 676              	.LVL10:
 145:..\u8g2_csrc/u8x8_d_uc1601.c **** 	u8x8->x_offset = u8x8->display_info->default_x_offset;
 677              		.loc 1 145 0
 678 0042 2368     		ldr	r3, [r4]
 679 0044 9B7C     		ldrb	r3, [r3, #18]	@ zero_extendqisi2
 680 0046 04E0     		b	.L17
 681              	.LVL11:
 682              	.L11:
 146:..\u8g2_csrc/u8x8_d_uc1601.c ****       }
 147:..\u8g2_csrc/u8x8_d_uc1601.c ****       else
ARM GAS  C:\Users\info\AppData\Local\Temp\ccGSe0tH.s 			page 48


 148:..\u8g2_csrc/u8x8_d_uc1601.c ****       {
 149:..\u8g2_csrc/u8x8_d_uc1601.c **** 	u8x8_cad_SendSequence(u8x8, u8x8_d_uc1601_128x32_flip1_seq);
 683              		.loc 1 149 0
 684 0048 2549     		ldr	r1, .L20+20
 685 004a FFF7FEFF 		bl	u8x8_cad_SendSequence
 686              	.LVL12:
 150:..\u8g2_csrc/u8x8_d_uc1601.c **** 	u8x8->x_offset = u8x8->display_info->flipmode_x_offset;
 687              		.loc 1 150 0
 688 004e 2368     		ldr	r3, [r4]
 689 0050 DB7C     		ldrb	r3, [r3, #19]	@ zero_extendqisi2
 690              	.L17:
 691 0052 84F82230 		strb	r3, [r4, #34]
 692 0056 0CE0     		b	.L15
 693              	.LVL13:
 694              	.L8:
 151:..\u8g2_csrc/u8x8_d_uc1601.c ****       }	
 152:..\u8g2_csrc/u8x8_d_uc1601.c ****       break;
 153:..\u8g2_csrc/u8x8_d_uc1601.c **** #ifdef U8X8_WITH_SET_CONTRAST
 154:..\u8g2_csrc/u8x8_d_uc1601.c ****     case U8X8_MSG_DISPLAY_SET_CONTRAST:
 155:..\u8g2_csrc/u8x8_d_uc1601.c ****       u8x8_cad_StartTransfer(u8x8);
 695              		.loc 1 155 0
 696 0058 FFF7FEFF 		bl	u8x8_cad_StartTransfer
 697              	.LVL14:
 156:..\u8g2_csrc/u8x8_d_uc1601.c ****       u8x8_cad_SendCmd(u8x8, 0x081 );
 698              		.loc 1 156 0
 699 005c 8121     		movs	r1, #129
 700 005e 2046     		mov	r0, r4
 701 0060 FFF7FEFF 		bl	u8x8_cad_SendCmd
 702              	.LVL15:
 157:..\u8g2_csrc/u8x8_d_uc1601.c ****       u8x8_cad_SendArg(u8x8, arg_int );	/* uc1601 has range from 0 to 255 */
 703              		.loc 1 157 0
 704 0064 2946     		mov	r1, r5
 705 0066 2046     		mov	r0, r4
 706 0068 FFF7FEFF 		bl	u8x8_cad_SendArg
 707              	.LVL16:
 708              	.L16:
 158:..\u8g2_csrc/u8x8_d_uc1601.c ****       u8x8_cad_EndTransfer(u8x8);
 709              		.loc 1 158 0
 710 006c 2046     		mov	r0, r4
 711 006e FFF7FEFF 		bl	u8x8_cad_EndTransfer
 712              	.LVL17:
 713              	.L15:
 159:..\u8g2_csrc/u8x8_d_uc1601.c ****       break;
 160:..\u8g2_csrc/u8x8_d_uc1601.c **** #endif
 161:..\u8g2_csrc/u8x8_d_uc1601.c ****     case U8X8_MSG_DISPLAY_DRAW_TILE:
 162:..\u8g2_csrc/u8x8_d_uc1601.c ****       u8x8_cad_StartTransfer(u8x8);
 163:..\u8g2_csrc/u8x8_d_uc1601.c ****     
 164:..\u8g2_csrc/u8x8_d_uc1601.c ****       x = ((u8x8_tile_t *)arg_ptr)->x_pos;
 165:..\u8g2_csrc/u8x8_d_uc1601.c ****       x *= 8;
 166:..\u8g2_csrc/u8x8_d_uc1601.c ****       x += u8x8->x_offset;
 167:..\u8g2_csrc/u8x8_d_uc1601.c ****       u8x8_cad_SendCmd(u8x8, 0x010 | (x>>4) );
 168:..\u8g2_csrc/u8x8_d_uc1601.c ****       u8x8_cad_SendCmd(u8x8, 0x000 | ((x&15)));
 169:..\u8g2_csrc/u8x8_d_uc1601.c ****       u8x8_cad_SendCmd(u8x8, 0x0b0 | (((u8x8_tile_t *)arg_ptr)->y_pos));
 170:..\u8g2_csrc/u8x8_d_uc1601.c ****     
 171:..\u8g2_csrc/u8x8_d_uc1601.c ****       c = ((u8x8_tile_t *)arg_ptr)->cnt;
 172:..\u8g2_csrc/u8x8_d_uc1601.c ****       c *= 8;
 173:..\u8g2_csrc/u8x8_d_uc1601.c ****       ptr = ((u8x8_tile_t *)arg_ptr)->tile_ptr;
ARM GAS  C:\Users\info\AppData\Local\Temp\ccGSe0tH.s 			page 49


 174:..\u8g2_csrc/u8x8_d_uc1601.c ****       do
 175:..\u8g2_csrc/u8x8_d_uc1601.c ****       {
 176:..\u8g2_csrc/u8x8_d_uc1601.c **** 	u8x8_cad_SendData(u8x8, c, ptr);	/* note: SendData can not handle more than 255 bytes */
 177:..\u8g2_csrc/u8x8_d_uc1601.c **** 	arg_int--;
 178:..\u8g2_csrc/u8x8_d_uc1601.c ****       } while( arg_int > 0 );
 179:..\u8g2_csrc/u8x8_d_uc1601.c ****       
 180:..\u8g2_csrc/u8x8_d_uc1601.c ****       u8x8_cad_EndTransfer(u8x8);
 181:..\u8g2_csrc/u8x8_d_uc1601.c ****       break;
 182:..\u8g2_csrc/u8x8_d_uc1601.c ****     default:
 183:..\u8g2_csrc/u8x8_d_uc1601.c ****       return 0;
 184:..\u8g2_csrc/u8x8_d_uc1601.c ****   }
 185:..\u8g2_csrc/u8x8_d_uc1601.c ****   return 1;
 714              		.loc 1 185 0
 715 0072 0120     		movs	r0, #1
 159:..\u8g2_csrc/u8x8_d_uc1601.c ****       break;
 716              		.loc 1 159 0
 717 0074 F8BD     		pop	{r3, r4, r5, r6, r7, pc}
 718              	.LVL18:
 719              	.L9:
 162:..\u8g2_csrc/u8x8_d_uc1601.c ****     
 720              		.loc 1 162 0
 721 0076 FFF7FEFF 		bl	u8x8_cad_StartTransfer
 722              	.LVL19:
 166:..\u8g2_csrc/u8x8_d_uc1601.c ****       u8x8_cad_SendCmd(u8x8, 0x010 | (x>>4) );
 723              		.loc 1 166 0
 724 007a 94F82230 		ldrb	r3, [r4, #34]	@ zero_extendqisi2
 164:..\u8g2_csrc/u8x8_d_uc1601.c ****       x *= 8;
 725              		.loc 1 164 0
 726 007e 7E79     		ldrb	r6, [r7, #5]	@ zero_extendqisi2
 727              	.LVL20:
 167:..\u8g2_csrc/u8x8_d_uc1601.c ****       u8x8_cad_SendCmd(u8x8, 0x000 | ((x&15)));
 728              		.loc 1 167 0
 729 0080 2046     		mov	r0, r4
 166:..\u8g2_csrc/u8x8_d_uc1601.c ****       u8x8_cad_SendCmd(u8x8, 0x010 | (x>>4) );
 730              		.loc 1 166 0
 731 0082 03EBC606 		add	r6, r3, r6, lsl #3
 732              	.LVL21:
 733 0086 06F0FF06 		and	r6, r6, #255
 734              	.LVL22:
 167:..\u8g2_csrc/u8x8_d_uc1601.c ****       u8x8_cad_SendCmd(u8x8, 0x000 | ((x&15)));
 735              		.loc 1 167 0
 736 008a 3109     		lsrs	r1, r6, #4
 737 008c 41F01001 		orr	r1, r1, #16
 738 0090 FFF7FEFF 		bl	u8x8_cad_SendCmd
 739              	.LVL23:
 168:..\u8g2_csrc/u8x8_d_uc1601.c ****       u8x8_cad_SendCmd(u8x8, 0x0b0 | (((u8x8_tile_t *)arg_ptr)->y_pos));
 740              		.loc 1 168 0
 741 0094 06F00F01 		and	r1, r6, #15
 742 0098 2046     		mov	r0, r4
 743 009a FFF7FEFF 		bl	u8x8_cad_SendCmd
 744              	.LVL24:
 169:..\u8g2_csrc/u8x8_d_uc1601.c ****     
 745              		.loc 1 169 0
 746 009e B979     		ldrb	r1, [r7, #6]	@ zero_extendqisi2
 747 00a0 2046     		mov	r0, r4
 748 00a2 41F0B001 		orr	r1, r1, #176
 749 00a6 FFF7FEFF 		bl	u8x8_cad_SendCmd
ARM GAS  C:\Users\info\AppData\Local\Temp\ccGSe0tH.s 			page 50


 750              	.LVL25:
 171:..\u8g2_csrc/u8x8_d_uc1601.c ****       c *= 8;
 751              		.loc 1 171 0
 752 00aa 3E79     		ldrb	r6, [r7, #4]	@ zero_extendqisi2
 753              	.LVL26:
 173:..\u8g2_csrc/u8x8_d_uc1601.c ****       do
 754              		.loc 1 173 0
 755 00ac 3F68     		ldr	r7, [r7]
 756              	.LVL27:
 172:..\u8g2_csrc/u8x8_d_uc1601.c ****       ptr = ((u8x8_tile_t *)arg_ptr)->tile_ptr;
 757              		.loc 1 172 0
 758 00ae F600     		lsls	r6, r6, #3
 759              	.LVL28:
 760 00b0 F6B2     		uxtb	r6, r6
 761              	.LVL29:
 762              	.L12:
 176:..\u8g2_csrc/u8x8_d_uc1601.c **** 	arg_int--;
 763              		.loc 1 176 0 discriminator 1
 764 00b2 3A46     		mov	r2, r7
 765 00b4 3146     		mov	r1, r6
 766 00b6 2046     		mov	r0, r4
 177:..\u8g2_csrc/u8x8_d_uc1601.c ****       } while( arg_int > 0 );
 767              		.loc 1 177 0 discriminator 1
 768 00b8 013D     		subs	r5, r5, #1
 769              	.LVL30:
 176:..\u8g2_csrc/u8x8_d_uc1601.c **** 	arg_int--;
 770              		.loc 1 176 0 discriminator 1
 771 00ba FFF7FEFF 		bl	u8x8_cad_SendData
 772              	.LVL31:
 178:..\u8g2_csrc/u8x8_d_uc1601.c ****       
 773              		.loc 1 178 0 discriminator 1
 774 00be 15F0FF05 		ands	r5, r5, #255
 775              	.LVL32:
 776 00c2 F6D1     		bne	.L12
 777 00c4 D2E7     		b	.L16
 778              	.LVL33:
 779              	.L13:
 183:..\u8g2_csrc/u8x8_d_uc1601.c ****   }
 780              		.loc 1 183 0
 781 00c6 0020     		movs	r0, #0
 782              	.LVL34:
 186:..\u8g2_csrc/u8x8_d_uc1601.c **** }
 783              		.loc 1 186 0
 784 00c8 F8BD     		pop	{r3, r4, r5, r6, r7, pc}
 785              	.LVL35:
 786              	.L21:
 787 00ca 00BF     		.align	2
 788              	.L20:
 789 00cc 00000000 		.word	.LANCHOR0
 790 00d0 18000000 		.word	.LANCHOR0+24
 791 00d4 31000000 		.word	.LANCHOR0+49
 792 00d8 36000000 		.word	.LANCHOR0+54
 793 00dc 3B000000 		.word	.LANCHOR0+59
 794 00e0 42000000 		.word	.LANCHOR0+66
 795              		.cfi_endproc
 796              	.LFE0:
 797              		.size	u8x8_d_uc1601_128x32, .-u8x8_d_uc1601_128x32
ARM GAS  C:\Users\info\AppData\Local\Temp\ccGSe0tH.s 			page 51


 798              		.section	.rodata
 799              		.align	2
 800              		.set	.LANCHOR0,. + 0
 801              		.type	u8x8_uc1601_128x32_display_info, %object
 802              		.size	u8x8_uc1601_128x32_display_info, 24
 803              	u8x8_uc1601_128x32_display_info:
 804 0000 00       		.byte	0
 805 0001 01       		.byte	1
 806 0002 01       		.byte	1
 807 0003 05       		.byte	5
 808 0004 01       		.byte	1
 809 0005 06       		.byte	6
 810 0006 0C       		.byte	12
 811 0007 0F       		.byte	15
 812 0008 80841E00 		.word	2000000
 813 000c 00       		.byte	0
 814 000d 01       		.byte	1
 815 000e 3C       		.byte	60
 816 000f 50       		.byte	80
 817 0010 10       		.byte	16
 818 0011 04       		.byte	4
 819 0012 00       		.byte	0
 820 0013 04       		.byte	4
 821 0014 8000     		.short	128
 822 0016 2000     		.short	32
 823              		.type	u8x8_d_uc1601_128x32_init_seq, %object
 824              		.size	u8x8_d_uc1601_128x32_init_seq, 25
 825              	u8x8_d_uc1601_128x32_init_seq:
 826 0018 18       		.byte	24
 827 0019 15       		.byte	21
 828 001a E2       		.byte	-30
 829 001b 15       		.byte	21
 830 001c EB       		.byte	-21
 831 001d 15       		.byte	21
 832 001e 24       		.byte	36
 833 001f 15       		.byte	21
 834 0020 89       		.byte	-119
 835 0021 15       		.byte	21
 836 0022 C4       		.byte	-60
 837 0023 15       		.byte	21
 838 0024 A0       		.byte	-96
 839 0025 15       		.byte	21
 840 0026 81       		.byte	-127
 841 0027 16       		.byte	22
 842 0028 DF       		.byte	-33
 843 0029 15       		.byte	21
 844 002a 2E       		.byte	46
 845 002b 15       		.byte	21
 846 002c 60       		.byte	96
 847 002d 15       		.byte	21
 848 002e A6       		.byte	-90
 849 002f 19       		.byte	25
 850 0030 FF       		.byte	-1
 851              		.type	u8x8_d_uc1601_128x32_powersave0_seq, %object
 852              		.size	u8x8_d_uc1601_128x32_powersave0_seq, 5
 853              	u8x8_d_uc1601_128x32_powersave0_seq:
 854 0031 18       		.byte	24
ARM GAS  C:\Users\info\AppData\Local\Temp\ccGSe0tH.s 			page 52


 855 0032 15       		.byte	21
 856 0033 AF       		.byte	-81
 857 0034 19       		.byte	25
 858 0035 FF       		.byte	-1
 859              		.type	u8x8_d_uc1601_128x32_powersave1_seq, %object
 860              		.size	u8x8_d_uc1601_128x32_powersave1_seq, 5
 861              	u8x8_d_uc1601_128x32_powersave1_seq:
 862 0036 18       		.byte	24
 863 0037 15       		.byte	21
 864 0038 AE       		.byte	-82
 865 0039 19       		.byte	25
 866 003a FF       		.byte	-1
 867              		.type	u8x8_d_uc1601_128x32_flip0_seq, %object
 868              		.size	u8x8_d_uc1601_128x32_flip0_seq, 7
 869              	u8x8_d_uc1601_128x32_flip0_seq:
 870 003b 18       		.byte	24
 871 003c 15       		.byte	21
 872 003d C4       		.byte	-60
 873 003e 15       		.byte	21
 874 003f 60       		.byte	96
 875 0040 19       		.byte	25
 876 0041 FF       		.byte	-1
 877              		.type	u8x8_d_uc1601_128x32_flip1_seq, %object
 878              		.size	u8x8_d_uc1601_128x32_flip1_seq, 7
 879              	u8x8_d_uc1601_128x32_flip1_seq:
 880 0042 18       		.byte	24
 881 0043 15       		.byte	21
 882 0044 C2       		.byte	-62
 883 0045 15       		.byte	21
 884 0046 40       		.byte	64
 885 0047 19       		.byte	25
 886 0048 FF       		.byte	-1
 887              		.text
 888              	.Letext0:
 889              		.file 2 "c:\\program files (x86)\\cypress\\psoc creator\\4.2\\psoc creator\\import\\gnu\\arm\\5.4.
 890              		.file 3 "c:\\program files (x86)\\cypress\\psoc creator\\4.2\\psoc creator\\import\\gnu\\arm\\5.4.
 891              		.file 4 "..\\u8g2_csrc\\u8x8.h"