ARM GAS  C:\Users\info\AppData\Local\Temp\ccAtrjmM.s 			page 1


   1              		.syntax unified
   2              		.cpu cortex-m3
   3              		.fpu softvfp
   4              		.eabi_attribute 20, 1
   5              		.eabi_attribute 21, 1
   6              		.eabi_attribute 23, 3
   7              		.eabi_attribute 24, 1
   8              		.eabi_attribute 25, 1
   9              		.eabi_attribute 26, 1
  10              		.eabi_attribute 30, 2
  11              		.eabi_attribute 34, 1
  12              		.eabi_attribute 18, 4
  13              		.thumb
  14              		.syntax unified
  15              		.file	"u8x8_d_st7511.c"
  16              		.text
  17              	.Ltext0:
  18              		.cfi_sections	.debug_frame
  19              		.section	.text.u8x8_d_st7511_avd_320x240,"ax",%progbits
  20              		.align	2
  21              		.global	u8x8_d_st7511_avd_320x240
  22              		.thumb
  23              		.thumb_func
  24              		.type	u8x8_d_st7511_avd_320x240, %function
  25              	u8x8_d_st7511_avd_320x240:
  26              	.LFB0:
  27              		.file 1 "..\\u8g2-master\\csrc\\u8x8_d_st7511.c"
   1:..\u8g2-master\csrc/u8x8_d_st7511.c **** /*
   2:..\u8g2-master\csrc/u8x8_d_st7511.c **** 
   3:..\u8g2-master\csrc/u8x8_d_st7511.c ****   u8x8_d_st7511.c
   4:..\u8g2-master\csrc/u8x8_d_st7511.c ****   
   5:..\u8g2-master\csrc/u8x8_d_st7511.c ****   Universal 8bit Graphics Library (https://github.com/olikraus/u8g2/)
   6:..\u8g2-master\csrc/u8x8_d_st7511.c **** 
   7:..\u8g2-master\csrc/u8x8_d_st7511.c ****   Copyright (c) 2019, olikraus@gmail.com
   8:..\u8g2-master\csrc/u8x8_d_st7511.c ****   All rights reserved.
   9:..\u8g2-master\csrc/u8x8_d_st7511.c **** 
  10:..\u8g2-master\csrc/u8x8_d_st7511.c ****   Redistribution and use in source and binary forms, with or without modification, 
  11:..\u8g2-master\csrc/u8x8_d_st7511.c ****   are permitted provided that the following conditions are met:
  12:..\u8g2-master\csrc/u8x8_d_st7511.c **** 
  13:..\u8g2-master\csrc/u8x8_d_st7511.c ****   * Redistributions of source code must retain the above copyright notice, this list 
  14:..\u8g2-master\csrc/u8x8_d_st7511.c ****     of conditions and the following disclaimer.
  15:..\u8g2-master\csrc/u8x8_d_st7511.c ****     
  16:..\u8g2-master\csrc/u8x8_d_st7511.c ****   * Redistributions in binary form must reproduce the above copyright notice, this 
  17:..\u8g2-master\csrc/u8x8_d_st7511.c ****     list of conditions and the following disclaimer in the documentation and/or other 
  18:..\u8g2-master\csrc/u8x8_d_st7511.c ****     materials provided with the distribution.
  19:..\u8g2-master\csrc/u8x8_d_st7511.c **** 
  20:..\u8g2-master\csrc/u8x8_d_st7511.c ****   THIS SOFTWARE IS PROVIDED BY THE COPYRIGHT HOLDERS AND 
  21:..\u8g2-master\csrc/u8x8_d_st7511.c ****   CONTRIBUTORS "AS IS" AND ANY EXPRESS OR IMPLIED WARRANTIES, 
  22:..\u8g2-master\csrc/u8x8_d_st7511.c ****   INCLUDING, BUT NOT LIMITED TO, THE IMPLIED WARRANTIES OF 
  23:..\u8g2-master\csrc/u8x8_d_st7511.c ****   MERCHANTABILITY AND FITNESS FOR A PARTICULAR PURPOSE ARE 
  24:..\u8g2-master\csrc/u8x8_d_st7511.c ****   DISCLAIMED. IN NO EVENT SHALL THE COPYRIGHT HOLDER OR 
  25:..\u8g2-master\csrc/u8x8_d_st7511.c ****   CONTRIBUTORS BE LIABLE FOR ANY DIRECT, INDIRECT, INCIDENTAL, 
  26:..\u8g2-master\csrc/u8x8_d_st7511.c ****   SPECIAL, EXEMPLARY, OR CONSEQUENTIAL DAMAGES (INCLUDING, BUT 
  27:..\u8g2-master\csrc/u8x8_d_st7511.c ****   NOT LIMITED TO, PROCUREMENT OF SUBSTITUTE GOODS OR SERVICES; 
  28:..\u8g2-master\csrc/u8x8_d_st7511.c ****   LOSS OF USE, DATA, OR PROFITS; OR BUSINESS INTERRUPTION) HOWEVER 
  29:..\u8g2-master\csrc/u8x8_d_st7511.c ****   CAUSED AND ON ANY THEORY OF LIABILITY, WHETHER IN CONTRACT, 
  30:..\u8g2-master\csrc/u8x8_d_st7511.c ****   STRICT LIABILITY, OR TORT (INCLUDING NEGLIGENCE OR OTHERWISE) 
ARM GAS  C:\Users\info\AppData\Local\Temp\ccAtrjmM.s 			page 2


  31:..\u8g2-master\csrc/u8x8_d_st7511.c ****   ARISING IN ANY WAY OUT OF THE USE OF THIS SOFTWARE, EVEN IF 
  32:..\u8g2-master\csrc/u8x8_d_st7511.c ****   ADVISED OF THE POSSIBILITY OF SUCH DAMAGE.  
  33:..\u8g2-master\csrc/u8x8_d_st7511.c **** 
  34:..\u8g2-master\csrc/u8x8_d_st7511.c ****   
  35:..\u8g2-master\csrc/u8x8_d_st7511.c **** */
  36:..\u8g2-master\csrc/u8x8_d_st7511.c **** #include "u8x8.h"
  37:..\u8g2-master\csrc/u8x8_d_st7511.c **** 
  38:..\u8g2-master\csrc/u8x8_d_st7511.c **** 
  39:..\u8g2-master\csrc/u8x8_d_st7511.c **** 
  40:..\u8g2-master\csrc/u8x8_d_st7511.c **** 
  41:..\u8g2-master\csrc/u8x8_d_st7511.c **** static const uint8_t u8x8_d_st7511_320x240_powersave0_seq[] = {
  42:..\u8g2-master\csrc/u8x8_d_st7511.c ****   U8X8_START_TRANSFER(),             	/* enable chip, delay is part of the transfer start */
  43:..\u8g2-master\csrc/u8x8_d_st7511.c ****   U8X8_CA(0x015, 0x0a5),		/* display on */
  44:..\u8g2-master\csrc/u8x8_d_st7511.c ****   U8X8_END_TRANSFER(),             	/* disable chip */
  45:..\u8g2-master\csrc/u8x8_d_st7511.c ****   U8X8_END()             			/* end of sequence */
  46:..\u8g2-master\csrc/u8x8_d_st7511.c **** };
  47:..\u8g2-master\csrc/u8x8_d_st7511.c **** 
  48:..\u8g2-master\csrc/u8x8_d_st7511.c **** static const uint8_t u8x8_d_st7511_320x240_powersave1_seq[] = {
  49:..\u8g2-master\csrc/u8x8_d_st7511.c ****   U8X8_START_TRANSFER(),             	/* enable chip, delay is part of the transfer start */
  50:..\u8g2-master\csrc/u8x8_d_st7511.c ****   U8X8_CA(0x014, 0x0a5),		/* display off */
  51:..\u8g2-master\csrc/u8x8_d_st7511.c ****   // maybe use sleep mode here, but it not clear whether sleep mode will reset all the settings
  52:..\u8g2-master\csrc/u8x8_d_st7511.c ****   U8X8_END_TRANSFER(),             	/* disable chip */
  53:..\u8g2-master\csrc/u8x8_d_st7511.c ****   U8X8_END()             			/* end of sequence */
  54:..\u8g2-master\csrc/u8x8_d_st7511.c **** };
  55:..\u8g2-master\csrc/u8x8_d_st7511.c **** 
  56:..\u8g2-master\csrc/u8x8_d_st7511.c **** static const uint8_t u8x8_d_st7511_320x240_flip0_seq[] = {
  57:..\u8g2-master\csrc/u8x8_d_st7511.c ****   U8X8_START_TRANSFER(),             	/* enable chip, delay is part of the transfer start */
  58:..\u8g2-master\csrc/u8x8_d_st7511.c ****   U8X8_CAAAA(0x24, 0x01, 0xa5, 0xa5, 0xa5),		/* memory control directions */
  59:..\u8g2-master\csrc/u8x8_d_st7511.c ****   U8X8_END_TRANSFER(),             	/* disable chip */
  60:..\u8g2-master\csrc/u8x8_d_st7511.c ****   U8X8_END()             			/* end of sequence */
  61:..\u8g2-master\csrc/u8x8_d_st7511.c **** };
  62:..\u8g2-master\csrc/u8x8_d_st7511.c **** 
  63:..\u8g2-master\csrc/u8x8_d_st7511.c **** static const uint8_t u8x8_d_st7511_320x240_flip1_seq[] = {
  64:..\u8g2-master\csrc/u8x8_d_st7511.c ****   U8X8_START_TRANSFER(),             	/* enable chip, delay is part of the transfer start */
  65:..\u8g2-master\csrc/u8x8_d_st7511.c ****   U8X8_CAAAA(0x24, 0x02, 0xa5, 0xa5, 0xa5),		/* memory control directions */
  66:..\u8g2-master\csrc/u8x8_d_st7511.c ****   U8X8_END_TRANSFER(),             	/* disable chip */
  67:..\u8g2-master\csrc/u8x8_d_st7511.c ****   U8X8_END()             			/* end of sequence */
  68:..\u8g2-master\csrc/u8x8_d_st7511.c **** };
  69:..\u8g2-master\csrc/u8x8_d_st7511.c **** 
  70:..\u8g2-master\csrc/u8x8_d_st7511.c **** 
  71:..\u8g2-master\csrc/u8x8_d_st7511.c **** 
  72:..\u8g2-master\csrc/u8x8_d_st7511.c **** /*=====================================================*/
  73:..\u8g2-master\csrc/u8x8_d_st7511.c **** /* AV-Display: AVD-TM57QV-NW-001-B, issue 876 */
  74:..\u8g2-master\csrc/u8x8_d_st7511.c **** 
  75:..\u8g2-master\csrc/u8x8_d_st7511.c **** static const u8x8_display_info_t u8x8_st7511_320x240_display_info =
  76:..\u8g2-master\csrc/u8x8_d_st7511.c **** {
  77:..\u8g2-master\csrc/u8x8_d_st7511.c ****   /* chip_enable_level = */ 0,
  78:..\u8g2-master\csrc/u8x8_d_st7511.c ****   /* chip_disable_level = */ 1,
  79:..\u8g2-master\csrc/u8x8_d_st7511.c ****   
  80:..\u8g2-master\csrc/u8x8_d_st7511.c ****   /* post_chip_enable_wait_ns = */ 150,	/* ST7511 Datasheet */
  81:..\u8g2-master\csrc/u8x8_d_st7511.c ****   /* pre_chip_disable_wait_ns = */ 150,	/* ST7511 Datasheet */
  82:..\u8g2-master\csrc/u8x8_d_st7511.c ****   /* reset_pulse_width_ms = */ 1, 
  83:..\u8g2-master\csrc/u8x8_d_st7511.c ****   /* post_reset_wait_ms = */ 1, 
  84:..\u8g2-master\csrc/u8x8_d_st7511.c ****   /* sda_setup_time_ns = */ 120,		/* ST7511 Datasheet */
  85:..\u8g2-master\csrc/u8x8_d_st7511.c ****   /* sck_pulse_width_ns = */ 150,	/* ST7511 Datasheet */
  86:..\u8g2-master\csrc/u8x8_d_st7511.c ****   /* sck_clock_hz = */ 3300000UL,	/* ST7511 Datasheet: 300ns cycle */
  87:..\u8g2-master\csrc/u8x8_d_st7511.c ****   /* spi_mode = */ 0,		/* active high, rising edge */
ARM GAS  C:\Users\info\AppData\Local\Temp\ccAtrjmM.s 			page 3


  88:..\u8g2-master\csrc/u8x8_d_st7511.c ****   /* i2c_bus_clock_100kHz = */ 4,
  89:..\u8g2-master\csrc/u8x8_d_st7511.c ****   /* data_setup_time_ns = */ 200,	/* */
  90:..\u8g2-master\csrc/u8x8_d_st7511.c ****   /* write_pulse_width_ns = */ 250,	/* ST7511 Datasheet: 500ns */
  91:..\u8g2-master\csrc/u8x8_d_st7511.c ****   /* tile_width = */ 40,		/* width of 17*8=136 pixel */
  92:..\u8g2-master\csrc/u8x8_d_st7511.c ****   /* tile_hight = */ 30,
  93:..\u8g2-master\csrc/u8x8_d_st7511.c ****   /* default_x_offset = */ 0,
  94:..\u8g2-master\csrc/u8x8_d_st7511.c ****   /* flipmode_x_offset = */ 0,
  95:..\u8g2-master\csrc/u8x8_d_st7511.c ****   /* pixel_width = */ 320,
  96:..\u8g2-master\csrc/u8x8_d_st7511.c ****   /* pixel_height = */ 240
  97:..\u8g2-master\csrc/u8x8_d_st7511.c **** };
  98:..\u8g2-master\csrc/u8x8_d_st7511.c **** 
  99:..\u8g2-master\csrc/u8x8_d_st7511.c **** static const uint8_t u8x8_d_st7511_320x240_init_seq[] = {
 100:..\u8g2-master\csrc/u8x8_d_st7511.c ****     
 101:..\u8g2-master\csrc/u8x8_d_st7511.c ****   U8X8_START_TRANSFER(),             	/* enable chip, delay is part of the transfer start */
 102:..\u8g2-master\csrc/u8x8_d_st7511.c ****   
 103:..\u8g2-master\csrc/u8x8_d_st7511.c ****   U8X8_CA(0xae, 0xa5),						/* SW Reset */
 104:..\u8g2-master\csrc/u8x8_d_st7511.c ****   U8X8_CAAAA(0x61, 0x0f, 0x04, 0x02, 0xa5),	/* all power on */
 105:..\u8g2-master\csrc/u8x8_d_st7511.c ****   U8X8_CAAAA(0x62, 0x0a, 0x06, 0x0f, 0xa5),	/* electronic volumne set 1 */
 106:..\u8g2-master\csrc/u8x8_d_st7511.c ****   U8X8_CAAAA(0x63, 0x0f, 0x0f, 0xa5, 0xa5),		/* electronic volumne set 2 */
 107:..\u8g2-master\csrc/u8x8_d_st7511.c ****   U8X8_CAAAA(0x66, 0x00, 0xa5, 0xa5, 0xa5),		/* electronic volumne set 2 */
 108:..\u8g2-master\csrc/u8x8_d_st7511.c ****   U8X8_CA(0x12, 0xa5),						/* SLeeP OUT */
 109:..\u8g2-master\csrc/u8x8_d_st7511.c ****   U8X8_DLY(50),
 110:..\u8g2-master\csrc/u8x8_d_st7511.c ****   // skiping display on here, deviation from https://github.com/olikraus/u8g2/issues/876
 111:..\u8g2-master\csrc/u8x8_d_st7511.c ****   // will be called later in u8x8_d_st7511_320x240_powersave0_seq
 112:..\u8g2-master\csrc/u8x8_d_st7511.c ****   U8X8_CAAAA(0x22, 0x00, 0xa5, 0xa5, 0xa5),		/* monochrome display */
 113:..\u8g2-master\csrc/u8x8_d_st7511.c ****   U8X8_CAAAA(0x24, 0x01, 0xa5, 0xa5, 0xa5),		/* memory control directions */
 114:..\u8g2-master\csrc/u8x8_d_st7511.c **** 
 115:..\u8g2-master\csrc/u8x8_d_st7511.c ****   U8X8_DLY(50),
 116:..\u8g2-master\csrc/u8x8_d_st7511.c ****   
 117:..\u8g2-master\csrc/u8x8_d_st7511.c ****   U8X8_END_TRANSFER(),             	/* disable chip */
 118:..\u8g2-master\csrc/u8x8_d_st7511.c ****   U8X8_END()             			/* end of sequence */
 119:..\u8g2-master\csrc/u8x8_d_st7511.c **** };
 120:..\u8g2-master\csrc/u8x8_d_st7511.c **** 
 121:..\u8g2-master\csrc/u8x8_d_st7511.c **** uint8_t u8x8_d_st7511_avd_320x240(u8x8_t *u8x8, uint8_t msg, uint8_t arg_int, void *arg_ptr)
 122:..\u8g2-master\csrc/u8x8_d_st7511.c **** {
  28              		.loc 1 122 0
  29              		.cfi_startproc
  30              		@ args = 0, pretend = 0, frame = 0
  31              		@ frame_needed = 0, uses_anonymous_args = 0
  32              	.LVL0:
 123:..\u8g2-master\csrc/u8x8_d_st7511.c ****   uint16_t x, c;
 124:..\u8g2-master\csrc/u8x8_d_st7511.c ****   uint8_t *ptr;
 125:..\u8g2-master\csrc/u8x8_d_st7511.c ****   switch(msg)
  33              		.loc 1 125 0
  34 0000 0939     		subs	r1, r1, #9
  35              	.LVL1:
 122:..\u8g2-master\csrc/u8x8_d_st7511.c ****   uint16_t x, c;
  36              		.loc 1 122 0
  37 0002 2DE9F047 		push	{r4, r5, r6, r7, r8, r9, r10, lr}
  38              		.cfi_def_cfa_offset 32
  39              		.cfi_offset 4, -32
  40              		.cfi_offset 5, -28
  41              		.cfi_offset 6, -24
  42              		.cfi_offset 7, -20
  43              		.cfi_offset 8, -16
  44              		.cfi_offset 9, -12
  45              		.cfi_offset 10, -8
ARM GAS  C:\Users\info\AppData\Local\Temp\ccAtrjmM.s 			page 4


  46              		.cfi_offset 14, -4
 122:..\u8g2-master\csrc/u8x8_d_st7511.c ****   uint16_t x, c;
  47              		.loc 1 122 0
  48 0006 0646     		mov	r6, r0
  49 0008 9046     		mov	r8, r2
  50 000a 9A46     		mov	r10, r3
  51              		.loc 1 125 0
  52 000c 0629     		cmp	r1, #6
  53 000e 00F29480 		bhi	.L15
  54 0012 DFE801F0 		tbb	[pc, r1]
  55              	.LVL2:
  56              	.L4:
  57 0016 04       		.byte	(.L3-.L4)/2
  58 0017 82       		.byte	(.L5-.L4)/2
  59 0018 8B       		.byte	(.L6-.L4)/2
  60 0019 92       		.byte	(.L15-.L4)/2
  61 001a 0A       		.byte	(.L7-.L4)/2
  62 001b 07       		.byte	(.L19-.L4)/2
  63 001c 17       		.byte	(.L9-.L4)/2
  64 001d 00       		.p2align 1
  65              	.L3:
 126:..\u8g2-master\csrc/u8x8_d_st7511.c ****   {
 127:..\u8g2-master\csrc/u8x8_d_st7511.c ****     case U8X8_MSG_DISPLAY_SETUP_MEMORY:
 128:..\u8g2-master\csrc/u8x8_d_st7511.c ****       u8x8_d_helper_display_setup_memory(u8x8, &u8x8_st7511_320x240_display_info);
  66              		.loc 1 128 0
  67 001e 5049     		ldr	r1, .L21
  68 0020 FFF7FEFF 		bl	u8x8_d_helper_display_setup_memory
  69              	.LVL3:
  70              	.L19:
 129:..\u8g2-master\csrc/u8x8_d_st7511.c ****       break;
 130:..\u8g2-master\csrc/u8x8_d_st7511.c ****     case U8X8_MSG_DISPLAY_INIT:
 131:..\u8g2-master\csrc/u8x8_d_st7511.c ****       u8x8_d_helper_display_init(u8x8);
 132:..\u8g2-master\csrc/u8x8_d_st7511.c ****       u8x8_cad_SendSequence(u8x8, u8x8_d_st7511_320x240_init_seq);
 133:..\u8g2-master\csrc/u8x8_d_st7511.c ****       break;
 134:..\u8g2-master\csrc/u8x8_d_st7511.c ****     case U8X8_MSG_DISPLAY_SET_POWER_SAVE:
 135:..\u8g2-master\csrc/u8x8_d_st7511.c ****       if ( arg_int == 0 )
 136:..\u8g2-master\csrc/u8x8_d_st7511.c **** 	u8x8_cad_SendSequence(u8x8, u8x8_d_st7511_320x240_powersave0_seq);
 137:..\u8g2-master\csrc/u8x8_d_st7511.c ****       else
 138:..\u8g2-master\csrc/u8x8_d_st7511.c **** 	u8x8_cad_SendSequence(u8x8, u8x8_d_st7511_320x240_powersave1_seq);
 139:..\u8g2-master\csrc/u8x8_d_st7511.c ****       break;
 140:..\u8g2-master\csrc/u8x8_d_st7511.c ****     case U8X8_MSG_DISPLAY_SET_FLIP_MODE:
 141:..\u8g2-master\csrc/u8x8_d_st7511.c ****       if ( arg_int == 0 )
 142:..\u8g2-master\csrc/u8x8_d_st7511.c ****       {
 143:..\u8g2-master\csrc/u8x8_d_st7511.c **** 	u8x8_cad_SendSequence(u8x8, u8x8_d_st7511_320x240_flip0_seq);
 144:..\u8g2-master\csrc/u8x8_d_st7511.c **** 	u8x8->x_offset = u8x8->display_info->default_x_offset;
 145:..\u8g2-master\csrc/u8x8_d_st7511.c ****       }
 146:..\u8g2-master\csrc/u8x8_d_st7511.c ****       else
 147:..\u8g2-master\csrc/u8x8_d_st7511.c ****       {
 148:..\u8g2-master\csrc/u8x8_d_st7511.c **** 	u8x8_cad_SendSequence(u8x8, u8x8_d_st7511_320x240_flip1_seq);
 149:..\u8g2-master\csrc/u8x8_d_st7511.c **** 	u8x8->x_offset = u8x8->display_info->flipmode_x_offset;
 150:..\u8g2-master\csrc/u8x8_d_st7511.c ****       }	
 151:..\u8g2-master\csrc/u8x8_d_st7511.c ****       break;
 152:..\u8g2-master\csrc/u8x8_d_st7511.c **** #ifdef U8X8_WITH_SET_CONTRAST
 153:..\u8g2-master\csrc/u8x8_d_st7511.c ****     case U8X8_MSG_DISPLAY_SET_CONTRAST:
 154:..\u8g2-master\csrc/u8x8_d_st7511.c ****       // not sure how to implement this....
 155:..\u8g2-master\csrc/u8x8_d_st7511.c ****       // u8x8_cad_StartTransfer(u8x8);
 156:..\u8g2-master\csrc/u8x8_d_st7511.c ****       // u8x8_cad_EndTransfer(u8x8);
ARM GAS  C:\Users\info\AppData\Local\Temp\ccAtrjmM.s 			page 5


 157:..\u8g2-master\csrc/u8x8_d_st7511.c ****       break;
 158:..\u8g2-master\csrc/u8x8_d_st7511.c **** #endif
 159:..\u8g2-master\csrc/u8x8_d_st7511.c ****     case U8X8_MSG_DISPLAY_DRAW_TILE:
 160:..\u8g2-master\csrc/u8x8_d_st7511.c ****       u8x8_cad_StartTransfer(u8x8);
 161:..\u8g2-master\csrc/u8x8_d_st7511.c **** 
 162:..\u8g2-master\csrc/u8x8_d_st7511.c ****       // set page
 163:..\u8g2-master\csrc/u8x8_d_st7511.c ****       u8x8_cad_SendCmd(u8x8, 0x025);
 164:..\u8g2-master\csrc/u8x8_d_st7511.c ****       u8x8_cad_SendArg(u8x8, (((u8x8_tile_t *)arg_ptr)->y_pos));
 165:..\u8g2-master\csrc/u8x8_d_st7511.c ****       u8x8_cad_SendArg(u8x8, 0x09f);		// end page
 166:..\u8g2-master\csrc/u8x8_d_st7511.c ****       u8x8_cad_SendArg(u8x8, 0x000);		// frame 0
 167:..\u8g2-master\csrc/u8x8_d_st7511.c ****       u8x8_cad_SendArg(u8x8, 0x0a5);		
 168:..\u8g2-master\csrc/u8x8_d_st7511.c ****     
 169:..\u8g2-master\csrc/u8x8_d_st7511.c ****       x = ((u8x8_tile_t *)arg_ptr)->x_pos;
 170:..\u8g2-master\csrc/u8x8_d_st7511.c ****       x *= 8;
 171:..\u8g2-master\csrc/u8x8_d_st7511.c ****       x += u8x8->x_offset;
 172:..\u8g2-master\csrc/u8x8_d_st7511.c ****     
 173:..\u8g2-master\csrc/u8x8_d_st7511.c ****       // set column
 174:..\u8g2-master\csrc/u8x8_d_st7511.c ****       u8x8_cad_SendCmd(u8x8, 0x026);
 175:..\u8g2-master\csrc/u8x8_d_st7511.c ****       u8x8_cad_SendArg(u8x8, (x>>8) );
 176:..\u8g2-master\csrc/u8x8_d_st7511.c ****       u8x8_cad_SendArg(u8x8, (x&255) );
 177:..\u8g2-master\csrc/u8x8_d_st7511.c ****       u8x8_cad_SendArg(u8x8, 0x002);
 178:..\u8g2-master\csrc/u8x8_d_st7511.c ****       u8x8_cad_SendArg(u8x8, 0x07f);
 179:..\u8g2-master\csrc/u8x8_d_st7511.c **** 
 180:..\u8g2-master\csrc/u8x8_d_st7511.c ****       // start data transfer
 181:..\u8g2-master\csrc/u8x8_d_st7511.c ****       u8x8_cad_SendCmd(u8x8, 0x02c);
 182:..\u8g2-master\csrc/u8x8_d_st7511.c ****       u8x8_cad_SendArg(u8x8, 0x0a5 );
 183:..\u8g2-master\csrc/u8x8_d_st7511.c **** 
 184:..\u8g2-master\csrc/u8x8_d_st7511.c ****       do
 185:..\u8g2-master\csrc/u8x8_d_st7511.c ****       {
 186:..\u8g2-master\csrc/u8x8_d_st7511.c **** 	c = ((u8x8_tile_t *)arg_ptr)->cnt;
 187:..\u8g2-master\csrc/u8x8_d_st7511.c **** 	c *= 8;
 188:..\u8g2-master\csrc/u8x8_d_st7511.c **** 	ptr = ((u8x8_tile_t *)arg_ptr)->tile_ptr;
 189:..\u8g2-master\csrc/u8x8_d_st7511.c **** 	
 190:..\u8g2-master\csrc/u8x8_d_st7511.c **** 	while ( c > 128 )
 191:..\u8g2-master\csrc/u8x8_d_st7511.c **** 	{
 192:..\u8g2-master\csrc/u8x8_d_st7511.c **** 	  u8x8_cad_SendData(u8x8, c, ptr);	/* note: SendData can not handle more than 255 bytes */
 193:..\u8g2-master\csrc/u8x8_d_st7511.c **** 	  c -= 128;
 194:..\u8g2-master\csrc/u8x8_d_st7511.c **** 	  ptr += 128;
 195:..\u8g2-master\csrc/u8x8_d_st7511.c **** 	}
 196:..\u8g2-master\csrc/u8x8_d_st7511.c **** 	u8x8_cad_SendData(u8x8, c, ptr);	/* note: SendData can not handle more than 255 bytes */
 197:..\u8g2-master\csrc/u8x8_d_st7511.c **** 	arg_int--;
 198:..\u8g2-master\csrc/u8x8_d_st7511.c ****       } while( arg_int > 0 );
 199:..\u8g2-master\csrc/u8x8_d_st7511.c ****       
 200:..\u8g2-master\csrc/u8x8_d_st7511.c ****       u8x8_cad_EndTransfer(u8x8);
 201:..\u8g2-master\csrc/u8x8_d_st7511.c ****       break;
 202:..\u8g2-master\csrc/u8x8_d_st7511.c ****     default:
 203:..\u8g2-master\csrc/u8x8_d_st7511.c ****       return 0;
 204:..\u8g2-master\csrc/u8x8_d_st7511.c ****   }
 205:..\u8g2-master\csrc/u8x8_d_st7511.c ****   return 1;
  71              		.loc 1 205 0
  72 0024 0120     		movs	r0, #1
 129:..\u8g2-master\csrc/u8x8_d_st7511.c ****       break;
  73              		.loc 1 129 0
  74 0026 BDE8F087 		pop	{r4, r5, r6, r7, r8, r9, r10, pc}
  75              	.LVL4:
  76              	.L7:
 141:..\u8g2-master\csrc/u8x8_d_st7511.c ****       {
ARM GAS  C:\Users\info\AppData\Local\Temp\ccAtrjmM.s 			page 6


  77              		.loc 1 141 0
  78 002a 002A     		cmp	r2, #0
  79 002c 40F08E80 		bne	.L11
 143:..\u8g2-master\csrc/u8x8_d_st7511.c **** 	u8x8->x_offset = u8x8->display_info->default_x_offset;
  80              		.loc 1 143 0
  81 0030 4C49     		ldr	r1, .L21+4
  82 0032 FFF7FEFF 		bl	u8x8_cad_SendSequence
  83              	.LVL5:
 144:..\u8g2-master\csrc/u8x8_d_st7511.c ****       }
  84              		.loc 1 144 0
  85 0036 3368     		ldr	r3, [r6]
  86              		.loc 1 205 0
  87 0038 0120     		movs	r0, #1
 144:..\u8g2-master\csrc/u8x8_d_st7511.c ****       }
  88              		.loc 1 144 0
  89 003a 9B7C     		ldrb	r3, [r3, #18]	@ zero_extendqisi2
  90 003c 86F82230 		strb	r3, [r6, #34]
  91 0040 BDE8F087 		pop	{r4, r5, r6, r7, r8, r9, r10, pc}
  92              	.LVL6:
  93              	.L9:
 160:..\u8g2-master\csrc/u8x8_d_st7511.c **** 
  94              		.loc 1 160 0
  95 0044 FFF7FEFF 		bl	u8x8_cad_StartTransfer
  96              	.LVL7:
 163:..\u8g2-master\csrc/u8x8_d_st7511.c ****       u8x8_cad_SendArg(u8x8, (((u8x8_tile_t *)arg_ptr)->y_pos));
  97              		.loc 1 163 0
  98 0048 2521     		movs	r1, #37
  99 004a 3046     		mov	r0, r6
 100 004c FFF7FEFF 		bl	u8x8_cad_SendCmd
 101              	.LVL8:
 164:..\u8g2-master\csrc/u8x8_d_st7511.c ****       u8x8_cad_SendArg(u8x8, 0x09f);		// end page
 102              		.loc 1 164 0
 103 0050 9AF80610 		ldrb	r1, [r10, #6]	@ zero_extendqisi2
 104 0054 3046     		mov	r0, r6
 105 0056 FFF7FEFF 		bl	u8x8_cad_SendArg
 106              	.LVL9:
 165:..\u8g2-master\csrc/u8x8_d_st7511.c ****       u8x8_cad_SendArg(u8x8, 0x000);		// frame 0
 107              		.loc 1 165 0
 108 005a 9F21     		movs	r1, #159
 109 005c 3046     		mov	r0, r6
 110 005e FFF7FEFF 		bl	u8x8_cad_SendArg
 111              	.LVL10:
 166:..\u8g2-master\csrc/u8x8_d_st7511.c ****       u8x8_cad_SendArg(u8x8, 0x0a5);		
 112              		.loc 1 166 0
 113 0062 0021     		movs	r1, #0
 114 0064 3046     		mov	r0, r6
 115 0066 FFF7FEFF 		bl	u8x8_cad_SendArg
 116              	.LVL11:
 167:..\u8g2-master\csrc/u8x8_d_st7511.c ****     
 117              		.loc 1 167 0
 118 006a A521     		movs	r1, #165
 119 006c 3046     		mov	r0, r6
 120 006e FFF7FEFF 		bl	u8x8_cad_SendArg
 121              	.LVL12:
 171:..\u8g2-master\csrc/u8x8_d_st7511.c ****     
 122              		.loc 1 171 0
 123 0072 96F82230 		ldrb	r3, [r6, #34]	@ zero_extendqisi2
ARM GAS  C:\Users\info\AppData\Local\Temp\ccAtrjmM.s 			page 7


 169:..\u8g2-master\csrc/u8x8_d_st7511.c ****       x *= 8;
 124              		.loc 1 169 0
 125 0076 9AF80540 		ldrb	r4, [r10, #5]	@ zero_extendqisi2
 126              	.LVL13:
 174:..\u8g2-master\csrc/u8x8_d_st7511.c ****       u8x8_cad_SendArg(u8x8, (x>>8) );
 127              		.loc 1 174 0
 128 007a 2621     		movs	r1, #38
 171:..\u8g2-master\csrc/u8x8_d_st7511.c ****     
 129              		.loc 1 171 0
 130 007c 03EBC404 		add	r4, r3, r4, lsl #3
 131              	.LVL14:
 174:..\u8g2-master\csrc/u8x8_d_st7511.c ****       u8x8_cad_SendArg(u8x8, (x>>8) );
 132              		.loc 1 174 0
 133 0080 3046     		mov	r0, r6
 134 0082 FFF7FEFF 		bl	u8x8_cad_SendCmd
 135              	.LVL15:
 175:..\u8g2-master\csrc/u8x8_d_st7511.c ****       u8x8_cad_SendArg(u8x8, (x&255) );
 136              		.loc 1 175 0
 137 0086 C4F30721 		ubfx	r1, r4, #8, #8
 138 008a 3046     		mov	r0, r6
 139 008c FFF7FEFF 		bl	u8x8_cad_SendArg
 140              	.LVL16:
 176:..\u8g2-master\csrc/u8x8_d_st7511.c ****       u8x8_cad_SendArg(u8x8, 0x002);
 141              		.loc 1 176 0
 142 0090 E1B2     		uxtb	r1, r4
 143 0092 3046     		mov	r0, r6
 144 0094 FFF7FEFF 		bl	u8x8_cad_SendArg
 145              	.LVL17:
 177:..\u8g2-master\csrc/u8x8_d_st7511.c ****       u8x8_cad_SendArg(u8x8, 0x07f);
 146              		.loc 1 177 0
 147 0098 0221     		movs	r1, #2
 148 009a 3046     		mov	r0, r6
 149 009c FFF7FEFF 		bl	u8x8_cad_SendArg
 150              	.LVL18:
 178:..\u8g2-master\csrc/u8x8_d_st7511.c **** 
 151              		.loc 1 178 0
 152 00a0 7F21     		movs	r1, #127
 153 00a2 3046     		mov	r0, r6
 154 00a4 FFF7FEFF 		bl	u8x8_cad_SendArg
 155              	.LVL19:
 181:..\u8g2-master\csrc/u8x8_d_st7511.c ****       u8x8_cad_SendArg(u8x8, 0x0a5 );
 156              		.loc 1 181 0
 157 00a8 2C21     		movs	r1, #44
 158 00aa 3046     		mov	r0, r6
 159 00ac FFF7FEFF 		bl	u8x8_cad_SendCmd
 160              	.LVL20:
 182:..\u8g2-master\csrc/u8x8_d_st7511.c **** 
 161              		.loc 1 182 0
 162 00b0 A521     		movs	r1, #165
 163 00b2 3046     		mov	r0, r6
 164 00b4 FFF7FEFF 		bl	u8x8_cad_SendArg
 165              	.LVL21:
 166              	.L14:
 186:..\u8g2-master\csrc/u8x8_d_st7511.c **** 	c *= 8;
 167              		.loc 1 186 0
 168 00b8 9AF80470 		ldrb	r7, [r10, #4]	@ zero_extendqisi2
 169              	.LVL22:
ARM GAS  C:\Users\info\AppData\Local\Temp\ccAtrjmM.s 			page 8


 188:..\u8g2-master\csrc/u8x8_d_st7511.c **** 	
 170              		.loc 1 188 0
 171 00bc DAF80090 		ldr	r9, [r10]
 187:..\u8g2-master\csrc/u8x8_d_st7511.c **** 	ptr = ((u8x8_tile_t *)arg_ptr)->tile_ptr;
 172              		.loc 1 187 0
 173 00c0 FF00     		lsls	r7, r7, #3
 174              	.LVL23:
 190:..\u8g2-master\csrc/u8x8_d_st7511.c **** 	{
 175              		.loc 1 190 0
 176 00c2 802F     		cmp	r7, #128
 177 00c4 19D9     		bls	.L12
 178 00c6 4D46     		mov	r5, r9
 179 00c8 3C46     		mov	r4, r7
 180              	.LVL24:
 181              	.L13:
 192:..\u8g2-master\csrc/u8x8_d_st7511.c **** 	  c -= 128;
 182              		.loc 1 192 0
 183 00ca E1B2     		uxtb	r1, r4
 193:..\u8g2-master\csrc/u8x8_d_st7511.c **** 	  ptr += 128;
 184              		.loc 1 193 0
 185 00cc 803C     		subs	r4, r4, #128
 186              	.LVL25:
 192:..\u8g2-master\csrc/u8x8_d_st7511.c **** 	  c -= 128;
 187              		.loc 1 192 0
 188 00ce 2A46     		mov	r2, r5
 189 00d0 3046     		mov	r0, r6
 193:..\u8g2-master\csrc/u8x8_d_st7511.c **** 	  ptr += 128;
 190              		.loc 1 193 0
 191 00d2 A4B2     		uxth	r4, r4
 192:..\u8g2-master\csrc/u8x8_d_st7511.c **** 	  c -= 128;
 192              		.loc 1 192 0
 193 00d4 FFF7FEFF 		bl	u8x8_cad_SendData
 194              	.LVL26:
 190:..\u8g2-master\csrc/u8x8_d_st7511.c **** 	{
 195              		.loc 1 190 0
 196 00d8 802C     		cmp	r4, #128
 194:..\u8g2-master\csrc/u8x8_d_st7511.c **** 	}
 197              		.loc 1 194 0
 198 00da 05F18005 		add	r5, r5, #128
 199              	.LVL27:
 190:..\u8g2-master\csrc/u8x8_d_st7511.c **** 	{
 200              		.loc 1 190 0
 201 00de F4D8     		bhi	.L13
 202 00e0 A7F18103 		sub	r3, r7, #129
 203 00e4 C3F3C813 		ubfx	r3, r3, #7, #9
 204 00e8 C3EB4322 		rsb	r2, r3, r3, lsl #9
 205 00ec 803F     		subs	r7, r7, #128
 206 00ee 07EBC217 		add	r7, r7, r2, lsl #7
 207 00f2 0133     		adds	r3, r3, #1
 208 00f4 BFB2     		uxth	r7, r7
 209 00f6 09EBC319 		add	r9, r9, r3, lsl #7
 210              	.LVL28:
 211              	.L12:
 196:..\u8g2-master\csrc/u8x8_d_st7511.c **** 	arg_int--;
 212              		.loc 1 196 0
 213 00fa 4A46     		mov	r2, r9
 214 00fc F9B2     		uxtb	r1, r7
ARM GAS  C:\Users\info\AppData\Local\Temp\ccAtrjmM.s 			page 9


 215 00fe 3046     		mov	r0, r6
 197:..\u8g2-master\csrc/u8x8_d_st7511.c ****       } while( arg_int > 0 );
 216              		.loc 1 197 0
 217 0100 08F1FF38 		add	r8, r8, #-1
 218              	.LVL29:
 196:..\u8g2-master\csrc/u8x8_d_st7511.c **** 	arg_int--;
 219              		.loc 1 196 0
 220 0104 FFF7FEFF 		bl	u8x8_cad_SendData
 221              	.LVL30:
 198:..\u8g2-master\csrc/u8x8_d_st7511.c ****       
 222              		.loc 1 198 0
 223 0108 18F0FF08 		ands	r8, r8, #255
 224              	.LVL31:
 225 010c D4D1     		bne	.L14
 200:..\u8g2-master\csrc/u8x8_d_st7511.c ****       break;
 226              		.loc 1 200 0
 227 010e 3046     		mov	r0, r6
 228 0110 FFF7FEFF 		bl	u8x8_cad_EndTransfer
 229              	.LVL32:
 230              		.loc 1 205 0
 231 0114 0120     		movs	r0, #1
 201:..\u8g2-master\csrc/u8x8_d_st7511.c ****     default:
 232              		.loc 1 201 0
 233 0116 BDE8F087 		pop	{r4, r5, r6, r7, r8, r9, r10, pc}
 234              	.LVL33:
 235              	.L5:
 131:..\u8g2-master\csrc/u8x8_d_st7511.c ****       u8x8_cad_SendSequence(u8x8, u8x8_d_st7511_320x240_init_seq);
 236              		.loc 1 131 0
 237 011a FFF7FEFF 		bl	u8x8_d_helper_display_init
 238              	.LVL34:
 132:..\u8g2-master\csrc/u8x8_d_st7511.c ****       break;
 239              		.loc 1 132 0
 240 011e 3046     		mov	r0, r6
 241 0120 1149     		ldr	r1, .L21+8
 242 0122 FFF7FEFF 		bl	u8x8_cad_SendSequence
 243              	.LVL35:
 244              		.loc 1 205 0
 245 0126 0120     		movs	r0, #1
 133:..\u8g2-master\csrc/u8x8_d_st7511.c ****     case U8X8_MSG_DISPLAY_SET_POWER_SAVE:
 246              		.loc 1 133 0
 247 0128 BDE8F087 		pop	{r4, r5, r6, r7, r8, r9, r10, pc}
 248              	.LVL36:
 249              	.L6:
 135:..\u8g2-master\csrc/u8x8_d_st7511.c **** 	u8x8_cad_SendSequence(u8x8, u8x8_d_st7511_320x240_powersave0_seq);
 250              		.loc 1 135 0
 251 012c 42B9     		cbnz	r2, .L10
 136:..\u8g2-master\csrc/u8x8_d_st7511.c ****       else
 252              		.loc 1 136 0
 253 012e 0F49     		ldr	r1, .L21+12
 254 0130 FFF7FEFF 		bl	u8x8_cad_SendSequence
 255              	.LVL37:
 256              		.loc 1 205 0
 257 0134 0120     		movs	r0, #1
 258 0136 BDE8F087 		pop	{r4, r5, r6, r7, r8, r9, r10, pc}
 259              	.LVL38:
 260              	.L15:
 203:..\u8g2-master\csrc/u8x8_d_st7511.c ****   }
ARM GAS  C:\Users\info\AppData\Local\Temp\ccAtrjmM.s 			page 10


 261              		.loc 1 203 0
 262 013a 0020     		movs	r0, #0
 263              	.LVL39:
 206:..\u8g2-master\csrc/u8x8_d_st7511.c **** }
 264              		.loc 1 206 0
 265 013c BDE8F087 		pop	{r4, r5, r6, r7, r8, r9, r10, pc}
 266              	.LVL40:
 267              	.L10:
 138:..\u8g2-master\csrc/u8x8_d_st7511.c ****       break;
 268              		.loc 1 138 0
 269 0140 0B49     		ldr	r1, .L21+16
 270 0142 FFF7FEFF 		bl	u8x8_cad_SendSequence
 271              	.LVL41:
 205:..\u8g2-master\csrc/u8x8_d_st7511.c **** }
 272              		.loc 1 205 0
 273 0146 0120     		movs	r0, #1
 274 0148 BDE8F087 		pop	{r4, r5, r6, r7, r8, r9, r10, pc}
 275              	.LVL42:
 276              	.L11:
 148:..\u8g2-master\csrc/u8x8_d_st7511.c **** 	u8x8->x_offset = u8x8->display_info->flipmode_x_offset;
 277              		.loc 1 148 0
 278 014c 0949     		ldr	r1, .L21+20
 279 014e FFF7FEFF 		bl	u8x8_cad_SendSequence
 280              	.LVL43:
 149:..\u8g2-master\csrc/u8x8_d_st7511.c ****       }	
 281              		.loc 1 149 0
 282 0152 3368     		ldr	r3, [r6]
 205:..\u8g2-master\csrc/u8x8_d_st7511.c **** }
 283              		.loc 1 205 0
 284 0154 0120     		movs	r0, #1
 149:..\u8g2-master\csrc/u8x8_d_st7511.c ****       }	
 285              		.loc 1 149 0
 286 0156 DB7C     		ldrb	r3, [r3, #19]	@ zero_extendqisi2
 287 0158 86F82230 		strb	r3, [r6, #34]
 288 015c BDE8F087 		pop	{r4, r5, r6, r7, r8, r9, r10, pc}
 289              	.LVL44:
 290              	.L22:
 291              		.align	2
 292              	.L21:
 293 0160 00000000 		.word	.LANCHOR0
 294 0164 74000000 		.word	.LANCHOR0+116
 295 0168 18000000 		.word	.LANCHOR0+24
 296 016c 64000000 		.word	.LANCHOR0+100
 297 0170 6C000000 		.word	.LANCHOR0+108
 298 0174 84000000 		.word	.LANCHOR0+132
 299              		.cfi_endproc
 300              	.LFE0:
 301              		.size	u8x8_d_st7511_avd_320x240, .-u8x8_d_st7511_avd_320x240
 302              		.section	.rodata
 303              		.align	2
 304              		.set	.LANCHOR0,. + 0
 305              		.type	u8x8_st7511_320x240_display_info, %object
 306              		.size	u8x8_st7511_320x240_display_info, 24
 307              	u8x8_st7511_320x240_display_info:
 308 0000 00       		.byte	0
 309 0001 01       		.byte	1
 310 0002 96       		.byte	-106
ARM GAS  C:\Users\info\AppData\Local\Temp\ccAtrjmM.s 			page 11


 311 0003 96       		.byte	-106
 312 0004 01       		.byte	1
 313 0005 01       		.byte	1
 314 0006 78       		.byte	120
 315 0007 96       		.byte	-106
 316 0008 A05A3200 		.word	3300000
 317 000c 00       		.byte	0
 318 000d 04       		.byte	4
 319 000e C8       		.byte	-56
 320 000f FA       		.byte	-6
 321 0010 28       		.byte	40
 322 0011 1E       		.byte	30
 323 0012 00       		.byte	0
 324 0013 00       		.byte	0
 325 0014 4001     		.short	320
 326 0016 F000     		.short	240
 327              		.type	u8x8_d_st7511_320x240_init_seq, %object
 328              		.size	u8x8_d_st7511_320x240_init_seq, 75
 329              	u8x8_d_st7511_320x240_init_seq:
 330 0018 18       		.byte	24
 331 0019 15       		.byte	21
 332 001a AE       		.byte	-82
 333 001b 16       		.byte	22
 334 001c A5       		.byte	-91
 335 001d 15       		.byte	21
 336 001e 61       		.byte	97
 337 001f 16       		.byte	22
 338 0020 0F       		.byte	15
 339 0021 16       		.byte	22
 340 0022 04       		.byte	4
 341 0023 16       		.byte	22
 342 0024 02       		.byte	2
 343 0025 16       		.byte	22
 344 0026 A5       		.byte	-91
 345 0027 15       		.byte	21
 346 0028 62       		.byte	98
 347 0029 16       		.byte	22
 348 002a 0A       		.byte	10
 349 002b 16       		.byte	22
 350 002c 06       		.byte	6
 351 002d 16       		.byte	22
 352 002e 0F       		.byte	15
 353 002f 16       		.byte	22
 354 0030 A5       		.byte	-91
 355 0031 15       		.byte	21
 356 0032 63       		.byte	99
 357 0033 16       		.byte	22
 358 0034 0F       		.byte	15
 359 0035 16       		.byte	22
 360 0036 0F       		.byte	15
 361 0037 16       		.byte	22
 362 0038 A5       		.byte	-91
 363 0039 16       		.byte	22
 364 003a A5       		.byte	-91
 365 003b 15       		.byte	21
 366 003c 66       		.byte	102
 367 003d 16       		.byte	22
ARM GAS  C:\Users\info\AppData\Local\Temp\ccAtrjmM.s 			page 12


 368 003e 00       		.byte	0
 369 003f 16       		.byte	22
 370 0040 A5       		.byte	-91
 371 0041 16       		.byte	22
 372 0042 A5       		.byte	-91
 373 0043 16       		.byte	22
 374 0044 A5       		.byte	-91
 375 0045 15       		.byte	21
 376 0046 12       		.byte	18
 377 0047 16       		.byte	22
 378 0048 A5       		.byte	-91
 379 0049 FE       		.byte	-2
 380 004a 32       		.byte	50
 381 004b 15       		.byte	21
 382 004c 22       		.byte	34
 383 004d 16       		.byte	22
 384 004e 00       		.byte	0
 385 004f 16       		.byte	22
 386 0050 A5       		.byte	-91
 387 0051 16       		.byte	22
 388 0052 A5       		.byte	-91
 389 0053 16       		.byte	22
 390 0054 A5       		.byte	-91
 391 0055 15       		.byte	21
 392 0056 24       		.byte	36
 393 0057 16       		.byte	22
 394 0058 01       		.byte	1
 395 0059 16       		.byte	22
 396 005a A5       		.byte	-91
 397 005b 16       		.byte	22
 398 005c A5       		.byte	-91
 399 005d 16       		.byte	22
 400 005e A5       		.byte	-91
 401 005f FE       		.byte	-2
 402 0060 32       		.byte	50
 403 0061 19       		.byte	25
 404 0062 FF       		.byte	-1
 405 0063 00       		.space	1
 406              		.type	u8x8_d_st7511_320x240_powersave0_seq, %object
 407              		.size	u8x8_d_st7511_320x240_powersave0_seq, 7
 408              	u8x8_d_st7511_320x240_powersave0_seq:
 409 0064 18       		.byte	24
 410 0065 15       		.byte	21
 411 0066 15       		.byte	21
 412 0067 16       		.byte	22
 413 0068 A5       		.byte	-91
 414 0069 19       		.byte	25
 415 006a FF       		.byte	-1
 416 006b 00       		.space	1
 417              		.type	u8x8_d_st7511_320x240_powersave1_seq, %object
 418              		.size	u8x8_d_st7511_320x240_powersave1_seq, 7
 419              	u8x8_d_st7511_320x240_powersave1_seq:
 420 006c 18       		.byte	24
 421 006d 15       		.byte	21
 422 006e 14       		.byte	20
 423 006f 16       		.byte	22
 424 0070 A5       		.byte	-91
ARM GAS  C:\Users\info\AppData\Local\Temp\ccAtrjmM.s 			page 13


 425 0071 19       		.byte	25
 426 0072 FF       		.byte	-1
 427 0073 00       		.space	1
 428              		.type	u8x8_d_st7511_320x240_flip0_seq, %object
 429              		.size	u8x8_d_st7511_320x240_flip0_seq, 13
 430              	u8x8_d_st7511_320x240_flip0_seq:
 431 0074 18       		.byte	24
 432 0075 15       		.byte	21
 433 0076 24       		.byte	36
 434 0077 16       		.byte	22
 435 0078 01       		.byte	1
 436 0079 16       		.byte	22
 437 007a A5       		.byte	-91
 438 007b 16       		.byte	22
 439 007c A5       		.byte	-91
 440 007d 16       		.byte	22
 441 007e A5       		.byte	-91
 442 007f 19       		.byte	25
 443 0080 FF       		.byte	-1
 444 0081 000000   		.space	3
 445              		.type	u8x8_d_st7511_320x240_flip1_seq, %object
 446              		.size	u8x8_d_st7511_320x240_flip1_seq, 13
 447              	u8x8_d_st7511_320x240_flip1_seq:
 448 0084 18       		.byte	24
 449 0085 15       		.byte	21
 450 0086 24       		.byte	36
 451 0087 16       		.byte	22
 452 0088 02       		.byte	2
 453 0089 16       		.byte	22
 454 008a A5       		.byte	-91
 455 008b 16       		.byte	22
 456 008c A5       		.byte	-91
 457 008d 16       		.byte	22
 458 008e A5       		.byte	-91
 459 008f 19       		.byte	25
 460 0090 FF       		.byte	-1
 461              		.text
 462              	.Letext0:
 463              		.file 2 "c:\\program files (x86)\\cypress\\psoc creator\\4.2\\psoc creator\\import\\gnu\\arm\\5.4.
 464              		.file 3 "c:\\program files (x86)\\cypress\\psoc creator\\4.2\\psoc creator\\import\\gnu\\arm\\5.4.
 465              		.file 4 "..\\u8g2-master\\csrc\\u8x8.h"