ARM GAS  C:\Users\info\AppData\Local\Temp\ccAWUQ53.s 			page 1


   1              		.syntax unified
   2              		.cpu cortex-m3
   3              		.fpu softvfp
   4              		.eabi_attribute 20, 1
   5              		.eabi_attribute 21, 1
   6              		.eabi_attribute 23, 3
   7              		.eabi_attribute 24, 1
   8              		.eabi_attribute 25, 1
   9              		.eabi_attribute 26, 1
  10              		.eabi_attribute 30, 2
  11              		.eabi_attribute 34, 1
  12              		.eabi_attribute 18, 4
  13              		.thumb
  14              		.syntax unified
  15              		.file	"u8x8_byte.c"
  16              		.text
  17              	.Ltext0:
  18              		.cfi_sections	.debug_frame
  19              		.section	.text.i2c_delay,"ax",%progbits
  20              		.align	2
  21              		.thumb
  22              		.thumb_func
  23              		.type	i2c_delay, %function
  24              	i2c_delay:
  25              	.LFB13:
  26              		.file 1 "..\\u8g2-master\\csrc\\u8x8_byte.c"
   1:..\u8g2-master\csrc/u8x8_byte.c **** /*
   2:..\u8g2-master\csrc/u8x8_byte.c **** 
   3:..\u8g2-master\csrc/u8x8_byte.c ****   u8x8_byte.c 
   4:..\u8g2-master\csrc/u8x8_byte.c ****   
   5:..\u8g2-master\csrc/u8x8_byte.c ****   Universal 8bit Graphics Library (https://github.com/olikraus/u8g2/)
   6:..\u8g2-master\csrc/u8x8_byte.c **** 
   7:..\u8g2-master\csrc/u8x8_byte.c ****   Copyright (c) 2016, olikraus@gmail.com
   8:..\u8g2-master\csrc/u8x8_byte.c ****   All rights reserved.
   9:..\u8g2-master\csrc/u8x8_byte.c **** 
  10:..\u8g2-master\csrc/u8x8_byte.c ****   Redistribution and use in source and binary forms, with or without modification, 
  11:..\u8g2-master\csrc/u8x8_byte.c ****   are permitted provided that the following conditions are met:
  12:..\u8g2-master\csrc/u8x8_byte.c **** 
  13:..\u8g2-master\csrc/u8x8_byte.c ****   * Redistributions of source code must retain the above copyright notice, this list 
  14:..\u8g2-master\csrc/u8x8_byte.c ****     of conditions and the following disclaimer.
  15:..\u8g2-master\csrc/u8x8_byte.c ****     
  16:..\u8g2-master\csrc/u8x8_byte.c ****   * Redistributions in binary form must reproduce the above copyright notice, this 
  17:..\u8g2-master\csrc/u8x8_byte.c ****     list of conditions and the following disclaimer in the documentation and/or other 
  18:..\u8g2-master\csrc/u8x8_byte.c ****     materials provided with the distribution.
  19:..\u8g2-master\csrc/u8x8_byte.c **** 
  20:..\u8g2-master\csrc/u8x8_byte.c ****   THIS SOFTWARE IS PROVIDED BY THE COPYRIGHT HOLDERS AND 
  21:..\u8g2-master\csrc/u8x8_byte.c ****   CONTRIBUTORS "AS IS" AND ANY EXPRESS OR IMPLIED WARRANTIES, 
  22:..\u8g2-master\csrc/u8x8_byte.c ****   INCLUDING, BUT NOT LIMITED TO, THE IMPLIED WARRANTIES OF 
  23:..\u8g2-master\csrc/u8x8_byte.c ****   MERCHANTABILITY AND FITNESS FOR A PARTICULAR PURPOSE ARE 
  24:..\u8g2-master\csrc/u8x8_byte.c ****   DISCLAIMED. IN NO EVENT SHALL THE COPYRIGHT HOLDER OR 
  25:..\u8g2-master\csrc/u8x8_byte.c ****   CONTRIBUTORS BE LIABLE FOR ANY DIRECT, INDIRECT, INCIDENTAL, 
  26:..\u8g2-master\csrc/u8x8_byte.c ****   SPECIAL, EXEMPLARY, OR CONSEQUENTIAL DAMAGES (INCLUDING, BUT 
  27:..\u8g2-master\csrc/u8x8_byte.c ****   NOT LIMITED TO, PROCUREMENT OF SUBSTITUTE GOODS OR SERVICES; 
  28:..\u8g2-master\csrc/u8x8_byte.c ****   LOSS OF USE, DATA, OR PROFITS; OR BUSINESS INTERRUPTION) HOWEVER 
  29:..\u8g2-master\csrc/u8x8_byte.c ****   CAUSED AND ON ANY THEORY OF LIABILITY, WHETHER IN CONTRACT, 
  30:..\u8g2-master\csrc/u8x8_byte.c ****   STRICT LIABILITY, OR TORT (INCLUDING NEGLIGENCE OR OTHERWISE) 
  31:..\u8g2-master\csrc/u8x8_byte.c ****   ARISING IN ANY WAY OUT OF THE USE OF THIS SOFTWARE, EVEN IF 
ARM GAS  C:\Users\info\AppData\Local\Temp\ccAWUQ53.s 			page 2


  32:..\u8g2-master\csrc/u8x8_byte.c ****   ADVISED OF THE POSSIBILITY OF SUCH DAMAGE.  
  33:..\u8g2-master\csrc/u8x8_byte.c ****   
  34:..\u8g2-master\csrc/u8x8_byte.c ****   
  35:..\u8g2-master\csrc/u8x8_byte.c **** */
  36:..\u8g2-master\csrc/u8x8_byte.c **** 
  37:..\u8g2-master\csrc/u8x8_byte.c **** #include "u8x8.h"
  38:..\u8g2-master\csrc/u8x8_byte.c **** 
  39:..\u8g2-master\csrc/u8x8_byte.c **** uint8_t u8x8_byte_SetDC(u8x8_t *u8x8, uint8_t dc)
  40:..\u8g2-master\csrc/u8x8_byte.c **** {
  41:..\u8g2-master\csrc/u8x8_byte.c ****   return u8x8->byte_cb(u8x8, U8X8_MSG_BYTE_SET_DC, dc, NULL);
  42:..\u8g2-master\csrc/u8x8_byte.c **** }
  43:..\u8g2-master\csrc/u8x8_byte.c **** 
  44:..\u8g2-master\csrc/u8x8_byte.c **** uint8_t u8x8_byte_SendBytes(u8x8_t *u8x8, uint8_t cnt, uint8_t *data)
  45:..\u8g2-master\csrc/u8x8_byte.c **** {
  46:..\u8g2-master\csrc/u8x8_byte.c ****   return u8x8->byte_cb(u8x8, U8X8_MSG_BYTE_SEND, cnt, (void *)data);
  47:..\u8g2-master\csrc/u8x8_byte.c **** }
  48:..\u8g2-master\csrc/u8x8_byte.c **** 
  49:..\u8g2-master\csrc/u8x8_byte.c **** uint8_t u8x8_byte_SendByte(u8x8_t *u8x8, uint8_t byte)
  50:..\u8g2-master\csrc/u8x8_byte.c **** {
  51:..\u8g2-master\csrc/u8x8_byte.c ****   return u8x8_byte_SendBytes(u8x8, 1, &byte);
  52:..\u8g2-master\csrc/u8x8_byte.c **** }
  53:..\u8g2-master\csrc/u8x8_byte.c **** 
  54:..\u8g2-master\csrc/u8x8_byte.c **** uint8_t u8x8_byte_StartTransfer(u8x8_t *u8x8)
  55:..\u8g2-master\csrc/u8x8_byte.c **** {
  56:..\u8g2-master\csrc/u8x8_byte.c ****   return u8x8->byte_cb(u8x8, U8X8_MSG_BYTE_START_TRANSFER, 0, NULL);
  57:..\u8g2-master\csrc/u8x8_byte.c **** }
  58:..\u8g2-master\csrc/u8x8_byte.c **** 
  59:..\u8g2-master\csrc/u8x8_byte.c **** uint8_t u8x8_byte_EndTransfer(u8x8_t *u8x8)
  60:..\u8g2-master\csrc/u8x8_byte.c **** {
  61:..\u8g2-master\csrc/u8x8_byte.c ****   return u8x8->byte_cb(u8x8, U8X8_MSG_BYTE_END_TRANSFER, 0, NULL);
  62:..\u8g2-master\csrc/u8x8_byte.c **** }
  63:..\u8g2-master\csrc/u8x8_byte.c **** 
  64:..\u8g2-master\csrc/u8x8_byte.c **** /*=========================================*/
  65:..\u8g2-master\csrc/u8x8_byte.c **** 
  66:..\u8g2-master\csrc/u8x8_byte.c **** uint8_t u8x8_byte_empty(U8X8_UNUSED u8x8_t *u8x8, uint8_t msg, U8X8_UNUSED uint8_t arg_int, U8X8_UN
  67:..\u8g2-master\csrc/u8x8_byte.c **** {
  68:..\u8g2-master\csrc/u8x8_byte.c ****   switch(msg)
  69:..\u8g2-master\csrc/u8x8_byte.c ****   {
  70:..\u8g2-master\csrc/u8x8_byte.c ****     case U8X8_MSG_BYTE_SEND:
  71:..\u8g2-master\csrc/u8x8_byte.c ****     case U8X8_MSG_BYTE_INIT:
  72:..\u8g2-master\csrc/u8x8_byte.c ****     case U8X8_MSG_BYTE_SET_DC:
  73:..\u8g2-master\csrc/u8x8_byte.c ****     case U8X8_MSG_BYTE_START_TRANSFER:
  74:..\u8g2-master\csrc/u8x8_byte.c ****     case U8X8_MSG_BYTE_END_TRANSFER:
  75:..\u8g2-master\csrc/u8x8_byte.c ****       break;	/* do nothing */
  76:..\u8g2-master\csrc/u8x8_byte.c ****   }
  77:..\u8g2-master\csrc/u8x8_byte.c ****   return 1;	/* always succeed */
  78:..\u8g2-master\csrc/u8x8_byte.c **** }
  79:..\u8g2-master\csrc/u8x8_byte.c **** 
  80:..\u8g2-master\csrc/u8x8_byte.c **** 
  81:..\u8g2-master\csrc/u8x8_byte.c **** /*=========================================*/
  82:..\u8g2-master\csrc/u8x8_byte.c **** 
  83:..\u8g2-master\csrc/u8x8_byte.c **** 
  84:..\u8g2-master\csrc/u8x8_byte.c **** /*
  85:..\u8g2-master\csrc/u8x8_byte.c ****   Uses:
  86:..\u8g2-master\csrc/u8x8_byte.c ****     u8x8->display_info->sda_setup_time_ns
  87:..\u8g2-master\csrc/u8x8_byte.c ****     u8x8->display_info->sck_pulse_width_ns
  88:..\u8g2-master\csrc/u8x8_byte.c ****     u8x8->display_info->spi_mode
ARM GAS  C:\Users\info\AppData\Local\Temp\ccAWUQ53.s 			page 3


  89:..\u8g2-master\csrc/u8x8_byte.c ****     u8x8->display_info->chip_disable_level
  90:..\u8g2-master\csrc/u8x8_byte.c ****     u8x8->display_info->chip_enable_level
  91:..\u8g2-master\csrc/u8x8_byte.c ****     u8x8->display_info->post_chip_enable_wait_ns
  92:..\u8g2-master\csrc/u8x8_byte.c ****     u8x8->display_info->pre_chip_disable_wait_ns
  93:..\u8g2-master\csrc/u8x8_byte.c ****   Calls to GPIO and DELAY:
  94:..\u8g2-master\csrc/u8x8_byte.c ****     U8X8_MSG_DELAY_NANO
  95:..\u8g2-master\csrc/u8x8_byte.c ****     U8X8_MSG_GPIO_DC
  96:..\u8g2-master\csrc/u8x8_byte.c ****     U8X8_MSG_GPIO_CS
  97:..\u8g2-master\csrc/u8x8_byte.c ****     U8X8_MSG_GPIO_CLOCK
  98:..\u8g2-master\csrc/u8x8_byte.c ****     U8X8_MSG_GPIO_DATA
  99:..\u8g2-master\csrc/u8x8_byte.c ****   Handles:
 100:..\u8g2-master\csrc/u8x8_byte.c ****     U8X8_MSG_BYTE_INIT
 101:..\u8g2-master\csrc/u8x8_byte.c ****     U8X8_MSG_BYTE_SEND
 102:..\u8g2-master\csrc/u8x8_byte.c ****     U8X8_MSG_BYTE_SET_DC
 103:..\u8g2-master\csrc/u8x8_byte.c ****     U8X8_MSG_BYTE_START_TRANSFER
 104:..\u8g2-master\csrc/u8x8_byte.c ****     U8X8_MSG_BYTE_END_TRANSFER
 105:..\u8g2-master\csrc/u8x8_byte.c **** */
 106:..\u8g2-master\csrc/u8x8_byte.c **** 
 107:..\u8g2-master\csrc/u8x8_byte.c **** uint8_t u8x8_byte_4wire_sw_spi(u8x8_t *u8x8, uint8_t msg, uint8_t arg_int, void *arg_ptr)
 108:..\u8g2-master\csrc/u8x8_byte.c **** {
 109:..\u8g2-master\csrc/u8x8_byte.c ****   uint8_t i, b;
 110:..\u8g2-master\csrc/u8x8_byte.c ****   uint8_t *data;
 111:..\u8g2-master\csrc/u8x8_byte.c ****   uint8_t takeover_edge = u8x8_GetSPIClockPhase(u8x8);
 112:..\u8g2-master\csrc/u8x8_byte.c ****   uint8_t not_takeover_edge = 1 - takeover_edge;
 113:..\u8g2-master\csrc/u8x8_byte.c ****  
 114:..\u8g2-master\csrc/u8x8_byte.c ****   switch(msg)
 115:..\u8g2-master\csrc/u8x8_byte.c ****   {
 116:..\u8g2-master\csrc/u8x8_byte.c ****     case U8X8_MSG_BYTE_SEND:
 117:..\u8g2-master\csrc/u8x8_byte.c ****       data = (uint8_t *)arg_ptr;
 118:..\u8g2-master\csrc/u8x8_byte.c ****       while( arg_int > 0 )
 119:..\u8g2-master\csrc/u8x8_byte.c ****       {
 120:..\u8g2-master\csrc/u8x8_byte.c **** 	b = *data;
 121:..\u8g2-master\csrc/u8x8_byte.c **** 	data++;
 122:..\u8g2-master\csrc/u8x8_byte.c **** 	arg_int--;
 123:..\u8g2-master\csrc/u8x8_byte.c **** 	for( i = 0; i < 8; i++ )
 124:..\u8g2-master\csrc/u8x8_byte.c **** 	{
 125:..\u8g2-master\csrc/u8x8_byte.c **** 	  if ( b & 128 )
 126:..\u8g2-master\csrc/u8x8_byte.c **** 	    u8x8_gpio_SetSPIData(u8x8, 1);
 127:..\u8g2-master\csrc/u8x8_byte.c **** 	  else
 128:..\u8g2-master\csrc/u8x8_byte.c **** 	    u8x8_gpio_SetSPIData(u8x8, 0);
 129:..\u8g2-master\csrc/u8x8_byte.c **** 	  b <<= 1;
 130:..\u8g2-master\csrc/u8x8_byte.c **** 	  
 131:..\u8g2-master\csrc/u8x8_byte.c **** 	  u8x8_gpio_SetSPIClock(u8x8, not_takeover_edge);
 132:..\u8g2-master\csrc/u8x8_byte.c **** 	  u8x8_gpio_Delay(u8x8, U8X8_MSG_DELAY_NANO, u8x8->display_info->sda_setup_time_ns);
 133:..\u8g2-master\csrc/u8x8_byte.c **** 	  u8x8_gpio_SetSPIClock(u8x8, takeover_edge);
 134:..\u8g2-master\csrc/u8x8_byte.c **** 	  u8x8_gpio_Delay(u8x8, U8X8_MSG_DELAY_NANO, u8x8->display_info->sck_pulse_width_ns);
 135:..\u8g2-master\csrc/u8x8_byte.c **** 	}    
 136:..\u8g2-master\csrc/u8x8_byte.c ****       }
 137:..\u8g2-master\csrc/u8x8_byte.c ****       break;
 138:..\u8g2-master\csrc/u8x8_byte.c ****       
 139:..\u8g2-master\csrc/u8x8_byte.c ****     case U8X8_MSG_BYTE_INIT:
 140:..\u8g2-master\csrc/u8x8_byte.c ****       /* disable chipselect */
 141:..\u8g2-master\csrc/u8x8_byte.c ****       u8x8_gpio_SetCS(u8x8, u8x8->display_info->chip_disable_level);
 142:..\u8g2-master\csrc/u8x8_byte.c ****       /* no wait required here */
 143:..\u8g2-master\csrc/u8x8_byte.c ****       
 144:..\u8g2-master\csrc/u8x8_byte.c ****       /* for SPI: setup correct level of the clock signal */
 145:..\u8g2-master\csrc/u8x8_byte.c ****       u8x8_gpio_SetSPIClock(u8x8, u8x8_GetSPIClockPhase(u8x8));
ARM GAS  C:\Users\info\AppData\Local\Temp\ccAWUQ53.s 			page 4


 146:..\u8g2-master\csrc/u8x8_byte.c ****       break;
 147:..\u8g2-master\csrc/u8x8_byte.c ****     case U8X8_MSG_BYTE_SET_DC:
 148:..\u8g2-master\csrc/u8x8_byte.c ****       u8x8_gpio_SetDC(u8x8, arg_int);
 149:..\u8g2-master\csrc/u8x8_byte.c ****       break;
 150:..\u8g2-master\csrc/u8x8_byte.c ****     case U8X8_MSG_BYTE_START_TRANSFER:
 151:..\u8g2-master\csrc/u8x8_byte.c ****       u8x8_gpio_SetCS(u8x8, u8x8->display_info->chip_enable_level);  
 152:..\u8g2-master\csrc/u8x8_byte.c ****       u8x8->gpio_and_delay_cb(u8x8, U8X8_MSG_DELAY_NANO, u8x8->display_info->post_chip_enable_wait_
 153:..\u8g2-master\csrc/u8x8_byte.c ****       break;
 154:..\u8g2-master\csrc/u8x8_byte.c ****     case U8X8_MSG_BYTE_END_TRANSFER:
 155:..\u8g2-master\csrc/u8x8_byte.c ****       u8x8->gpio_and_delay_cb(u8x8, U8X8_MSG_DELAY_NANO, u8x8->display_info->pre_chip_disable_wait_
 156:..\u8g2-master\csrc/u8x8_byte.c ****       u8x8_gpio_SetCS(u8x8, u8x8->display_info->chip_disable_level);
 157:..\u8g2-master\csrc/u8x8_byte.c ****       break;
 158:..\u8g2-master\csrc/u8x8_byte.c ****     default:
 159:..\u8g2-master\csrc/u8x8_byte.c ****       return 0;
 160:..\u8g2-master\csrc/u8x8_byte.c ****   }
 161:..\u8g2-master\csrc/u8x8_byte.c ****   return 1;
 162:..\u8g2-master\csrc/u8x8_byte.c **** }
 163:..\u8g2-master\csrc/u8x8_byte.c **** 
 164:..\u8g2-master\csrc/u8x8_byte.c **** /*=========================================*/
 165:..\u8g2-master\csrc/u8x8_byte.c **** 
 166:..\u8g2-master\csrc/u8x8_byte.c **** uint8_t u8x8_byte_8bit_6800mode(u8x8_t *u8x8, uint8_t msg, uint8_t arg_int, void *arg_ptr)
 167:..\u8g2-master\csrc/u8x8_byte.c **** {
 168:..\u8g2-master\csrc/u8x8_byte.c ****   uint8_t i, b;
 169:..\u8g2-master\csrc/u8x8_byte.c ****   uint8_t *data;
 170:..\u8g2-master\csrc/u8x8_byte.c ****  
 171:..\u8g2-master\csrc/u8x8_byte.c ****   switch(msg)
 172:..\u8g2-master\csrc/u8x8_byte.c ****   {
 173:..\u8g2-master\csrc/u8x8_byte.c ****     case U8X8_MSG_BYTE_SEND:
 174:..\u8g2-master\csrc/u8x8_byte.c ****       data = (uint8_t *)arg_ptr;
 175:..\u8g2-master\csrc/u8x8_byte.c ****       while( arg_int > 0 )
 176:..\u8g2-master\csrc/u8x8_byte.c ****       {
 177:..\u8g2-master\csrc/u8x8_byte.c **** 	b = *data;
 178:..\u8g2-master\csrc/u8x8_byte.c **** 	data++;
 179:..\u8g2-master\csrc/u8x8_byte.c **** 	arg_int--;
 180:..\u8g2-master\csrc/u8x8_byte.c **** 	for( i = U8X8_MSG_GPIO_D0; i <= U8X8_MSG_GPIO_D7; i++ )
 181:..\u8g2-master\csrc/u8x8_byte.c **** 	{
 182:..\u8g2-master\csrc/u8x8_byte.c **** 	  u8x8_gpio_call(u8x8, i, b&1);
 183:..\u8g2-master\csrc/u8x8_byte.c **** 	  b >>= 1;
 184:..\u8g2-master\csrc/u8x8_byte.c **** 	}    
 185:..\u8g2-master\csrc/u8x8_byte.c **** 	
 186:..\u8g2-master\csrc/u8x8_byte.c **** 	u8x8_gpio_Delay(u8x8, U8X8_MSG_DELAY_NANO, u8x8->display_info->data_setup_time_ns);
 187:..\u8g2-master\csrc/u8x8_byte.c **** 	u8x8_gpio_call(u8x8, U8X8_MSG_GPIO_E, 1);
 188:..\u8g2-master\csrc/u8x8_byte.c **** 	u8x8_gpio_Delay(u8x8, U8X8_MSG_DELAY_NANO, u8x8->display_info->write_pulse_width_ns);
 189:..\u8g2-master\csrc/u8x8_byte.c **** 	u8x8_gpio_call(u8x8, U8X8_MSG_GPIO_E, 0);
 190:..\u8g2-master\csrc/u8x8_byte.c ****       }
 191:..\u8g2-master\csrc/u8x8_byte.c ****       break;
 192:..\u8g2-master\csrc/u8x8_byte.c ****       
 193:..\u8g2-master\csrc/u8x8_byte.c ****     case U8X8_MSG_BYTE_INIT:
 194:..\u8g2-master\csrc/u8x8_byte.c ****       /* disable chipselect */
 195:..\u8g2-master\csrc/u8x8_byte.c ****       u8x8_gpio_SetCS(u8x8, u8x8->display_info->chip_disable_level);    
 196:..\u8g2-master\csrc/u8x8_byte.c ****       /* ensure that the enable signal is high */
 197:..\u8g2-master\csrc/u8x8_byte.c ****       u8x8_gpio_call(u8x8, U8X8_MSG_GPIO_E, 0);
 198:..\u8g2-master\csrc/u8x8_byte.c ****       break;
 199:..\u8g2-master\csrc/u8x8_byte.c ****     case U8X8_MSG_BYTE_SET_DC:
 200:..\u8g2-master\csrc/u8x8_byte.c ****       u8x8_gpio_SetDC(u8x8, arg_int);
 201:..\u8g2-master\csrc/u8x8_byte.c ****       break;
 202:..\u8g2-master\csrc/u8x8_byte.c ****     case U8X8_MSG_BYTE_START_TRANSFER:
ARM GAS  C:\Users\info\AppData\Local\Temp\ccAWUQ53.s 			page 5


 203:..\u8g2-master\csrc/u8x8_byte.c ****       u8x8_gpio_SetCS(u8x8, u8x8->display_info->chip_enable_level);  
 204:..\u8g2-master\csrc/u8x8_byte.c ****       u8x8->gpio_and_delay_cb(u8x8, U8X8_MSG_DELAY_NANO, u8x8->display_info->post_chip_enable_wait_
 205:..\u8g2-master\csrc/u8x8_byte.c ****       break;
 206:..\u8g2-master\csrc/u8x8_byte.c ****     case U8X8_MSG_BYTE_END_TRANSFER:
 207:..\u8g2-master\csrc/u8x8_byte.c ****       u8x8->gpio_and_delay_cb(u8x8, U8X8_MSG_DELAY_NANO, u8x8->display_info->pre_chip_disable_wait_
 208:..\u8g2-master\csrc/u8x8_byte.c ****       u8x8_gpio_SetCS(u8x8, u8x8->display_info->chip_disable_level);
 209:..\u8g2-master\csrc/u8x8_byte.c ****       break;
 210:..\u8g2-master\csrc/u8x8_byte.c ****     default:
 211:..\u8g2-master\csrc/u8x8_byte.c ****       return 0;
 212:..\u8g2-master\csrc/u8x8_byte.c ****   }
 213:..\u8g2-master\csrc/u8x8_byte.c ****   return 1;
 214:..\u8g2-master\csrc/u8x8_byte.c **** }
 215:..\u8g2-master\csrc/u8x8_byte.c **** 
 216:..\u8g2-master\csrc/u8x8_byte.c **** uint8_t u8x8_byte_8bit_8080mode(u8x8_t *u8x8, uint8_t msg, uint8_t arg_int, void *arg_ptr)
 217:..\u8g2-master\csrc/u8x8_byte.c **** {
 218:..\u8g2-master\csrc/u8x8_byte.c ****   uint8_t i, b;
 219:..\u8g2-master\csrc/u8x8_byte.c ****   uint8_t *data;
 220:..\u8g2-master\csrc/u8x8_byte.c ****  
 221:..\u8g2-master\csrc/u8x8_byte.c ****   switch(msg)
 222:..\u8g2-master\csrc/u8x8_byte.c ****   {
 223:..\u8g2-master\csrc/u8x8_byte.c ****     case U8X8_MSG_BYTE_SEND:
 224:..\u8g2-master\csrc/u8x8_byte.c ****       data = (uint8_t *)arg_ptr;
 225:..\u8g2-master\csrc/u8x8_byte.c ****       while( arg_int > 0 )
 226:..\u8g2-master\csrc/u8x8_byte.c ****       {
 227:..\u8g2-master\csrc/u8x8_byte.c **** 	b = *data;
 228:..\u8g2-master\csrc/u8x8_byte.c **** 	data++;
 229:..\u8g2-master\csrc/u8x8_byte.c **** 	arg_int--;
 230:..\u8g2-master\csrc/u8x8_byte.c **** 	for( i = U8X8_MSG_GPIO_D0; i <= U8X8_MSG_GPIO_D7; i++ )
 231:..\u8g2-master\csrc/u8x8_byte.c **** 	{
 232:..\u8g2-master\csrc/u8x8_byte.c **** 	  u8x8_gpio_call(u8x8, i, b&1);
 233:..\u8g2-master\csrc/u8x8_byte.c **** 	  b >>= 1;
 234:..\u8g2-master\csrc/u8x8_byte.c **** 	}    
 235:..\u8g2-master\csrc/u8x8_byte.c **** 	
 236:..\u8g2-master\csrc/u8x8_byte.c **** 	u8x8_gpio_Delay(u8x8, U8X8_MSG_DELAY_NANO, u8x8->display_info->data_setup_time_ns);
 237:..\u8g2-master\csrc/u8x8_byte.c **** 	u8x8_gpio_call(u8x8, U8X8_MSG_GPIO_E, 0);
 238:..\u8g2-master\csrc/u8x8_byte.c **** 	u8x8_gpio_Delay(u8x8, U8X8_MSG_DELAY_NANO, u8x8->display_info->write_pulse_width_ns);
 239:..\u8g2-master\csrc/u8x8_byte.c **** 	u8x8_gpio_call(u8x8, U8X8_MSG_GPIO_E, 1);
 240:..\u8g2-master\csrc/u8x8_byte.c ****       }
 241:..\u8g2-master\csrc/u8x8_byte.c ****       break;
 242:..\u8g2-master\csrc/u8x8_byte.c ****       
 243:..\u8g2-master\csrc/u8x8_byte.c ****     case U8X8_MSG_BYTE_INIT:
 244:..\u8g2-master\csrc/u8x8_byte.c ****       /* disable chipselect */
 245:..\u8g2-master\csrc/u8x8_byte.c ****       u8x8_gpio_SetCS(u8x8, u8x8->display_info->chip_disable_level);    
 246:..\u8g2-master\csrc/u8x8_byte.c ****       /* ensure that the enable signal is high */
 247:..\u8g2-master\csrc/u8x8_byte.c ****       u8x8_gpio_call(u8x8, U8X8_MSG_GPIO_E, 1);
 248:..\u8g2-master\csrc/u8x8_byte.c ****       break;
 249:..\u8g2-master\csrc/u8x8_byte.c ****     case U8X8_MSG_BYTE_SET_DC:
 250:..\u8g2-master\csrc/u8x8_byte.c ****       u8x8_gpio_SetDC(u8x8, arg_int);
 251:..\u8g2-master\csrc/u8x8_byte.c ****       break;
 252:..\u8g2-master\csrc/u8x8_byte.c ****     case U8X8_MSG_BYTE_START_TRANSFER:
 253:..\u8g2-master\csrc/u8x8_byte.c ****       u8x8_gpio_SetCS(u8x8, u8x8->display_info->chip_enable_level);  
 254:..\u8g2-master\csrc/u8x8_byte.c ****       u8x8->gpio_and_delay_cb(u8x8, U8X8_MSG_DELAY_NANO, u8x8->display_info->post_chip_enable_wait_
 255:..\u8g2-master\csrc/u8x8_byte.c ****       break;
 256:..\u8g2-master\csrc/u8x8_byte.c ****     case U8X8_MSG_BYTE_END_TRANSFER:
 257:..\u8g2-master\csrc/u8x8_byte.c ****       u8x8->gpio_and_delay_cb(u8x8, U8X8_MSG_DELAY_NANO, u8x8->display_info->pre_chip_disable_wait_
 258:..\u8g2-master\csrc/u8x8_byte.c ****       u8x8_gpio_SetCS(u8x8, u8x8->display_info->chip_disable_level);
 259:..\u8g2-master\csrc/u8x8_byte.c ****       break;
ARM GAS  C:\Users\info\AppData\Local\Temp\ccAWUQ53.s 			page 6


 260:..\u8g2-master\csrc/u8x8_byte.c ****     default:
 261:..\u8g2-master\csrc/u8x8_byte.c ****       return 0;
 262:..\u8g2-master\csrc/u8x8_byte.c ****   }
 263:..\u8g2-master\csrc/u8x8_byte.c ****   return 1;
 264:..\u8g2-master\csrc/u8x8_byte.c **** }
 265:..\u8g2-master\csrc/u8x8_byte.c **** 
 266:..\u8g2-master\csrc/u8x8_byte.c **** /*=========================================*/
 267:..\u8g2-master\csrc/u8x8_byte.c **** 
 268:..\u8g2-master\csrc/u8x8_byte.c **** uint8_t u8x8_byte_3wire_sw_spi(u8x8_t *u8x8, uint8_t msg, uint8_t arg_int, void *arg_ptr)
 269:..\u8g2-master\csrc/u8x8_byte.c **** {
 270:..\u8g2-master\csrc/u8x8_byte.c ****   uint8_t i;
 271:..\u8g2-master\csrc/u8x8_byte.c ****   uint8_t *data;
 272:..\u8g2-master\csrc/u8x8_byte.c ****   uint8_t takeover_edge = u8x8_GetSPIClockPhase(u8x8);
 273:..\u8g2-master\csrc/u8x8_byte.c ****   uint8_t not_takeover_edge = 1 - takeover_edge;
 274:..\u8g2-master\csrc/u8x8_byte.c ****   uint16_t b;
 275:..\u8g2-master\csrc/u8x8_byte.c ****   static uint8_t last_dc;
 276:..\u8g2-master\csrc/u8x8_byte.c ****  
 277:..\u8g2-master\csrc/u8x8_byte.c ****   switch(msg)
 278:..\u8g2-master\csrc/u8x8_byte.c ****   {
 279:..\u8g2-master\csrc/u8x8_byte.c ****     case U8X8_MSG_BYTE_SEND:
 280:..\u8g2-master\csrc/u8x8_byte.c ****       data = (uint8_t *)arg_ptr;
 281:..\u8g2-master\csrc/u8x8_byte.c ****       while( arg_int > 0 )
 282:..\u8g2-master\csrc/u8x8_byte.c ****       {
 283:..\u8g2-master\csrc/u8x8_byte.c **** 	b = *data;
 284:..\u8g2-master\csrc/u8x8_byte.c **** 	if ( last_dc != 0 )
 285:..\u8g2-master\csrc/u8x8_byte.c **** 	  b |= 256;
 286:..\u8g2-master\csrc/u8x8_byte.c **** 	data++;
 287:..\u8g2-master\csrc/u8x8_byte.c **** 	arg_int--;
 288:..\u8g2-master\csrc/u8x8_byte.c **** 	for( i = 0; i < 9; i++ )
 289:..\u8g2-master\csrc/u8x8_byte.c **** 	{
 290:..\u8g2-master\csrc/u8x8_byte.c **** 	  if ( b & 256 )
 291:..\u8g2-master\csrc/u8x8_byte.c **** 	    u8x8_gpio_SetSPIData(u8x8, 1);
 292:..\u8g2-master\csrc/u8x8_byte.c **** 	  else
 293:..\u8g2-master\csrc/u8x8_byte.c **** 	    u8x8_gpio_SetSPIData(u8x8, 0);
 294:..\u8g2-master\csrc/u8x8_byte.c **** 	  b <<= 1;
 295:..\u8g2-master\csrc/u8x8_byte.c **** 	  
 296:..\u8g2-master\csrc/u8x8_byte.c **** 	  u8x8_gpio_SetSPIClock(u8x8, not_takeover_edge);
 297:..\u8g2-master\csrc/u8x8_byte.c **** 	  u8x8_gpio_Delay(u8x8, U8X8_MSG_DELAY_NANO, u8x8->display_info->sda_setup_time_ns);
 298:..\u8g2-master\csrc/u8x8_byte.c **** 	  u8x8_gpio_SetSPIClock(u8x8, takeover_edge);
 299:..\u8g2-master\csrc/u8x8_byte.c **** 	  u8x8_gpio_Delay(u8x8, U8X8_MSG_DELAY_NANO, u8x8->display_info->sck_pulse_width_ns);
 300:..\u8g2-master\csrc/u8x8_byte.c **** 	}    
 301:..\u8g2-master\csrc/u8x8_byte.c ****       }
 302:..\u8g2-master\csrc/u8x8_byte.c ****       break;
 303:..\u8g2-master\csrc/u8x8_byte.c ****       
 304:..\u8g2-master\csrc/u8x8_byte.c ****     case U8X8_MSG_BYTE_INIT:
 305:..\u8g2-master\csrc/u8x8_byte.c ****       /* disable chipselect */
 306:..\u8g2-master\csrc/u8x8_byte.c ****       u8x8_gpio_SetCS(u8x8, u8x8->display_info->chip_disable_level);
 307:..\u8g2-master\csrc/u8x8_byte.c ****       /* no wait required here */
 308:..\u8g2-master\csrc/u8x8_byte.c ****       
 309:..\u8g2-master\csrc/u8x8_byte.c ****       /* for SPI: setup correct level of the clock signal */
 310:..\u8g2-master\csrc/u8x8_byte.c ****       u8x8_gpio_SetSPIClock(u8x8, u8x8_GetSPIClockPhase(u8x8));
 311:..\u8g2-master\csrc/u8x8_byte.c ****       break;
 312:..\u8g2-master\csrc/u8x8_byte.c ****     case U8X8_MSG_BYTE_SET_DC:
 313:..\u8g2-master\csrc/u8x8_byte.c ****       last_dc = arg_int;
 314:..\u8g2-master\csrc/u8x8_byte.c ****       break;
 315:..\u8g2-master\csrc/u8x8_byte.c ****     case U8X8_MSG_BYTE_START_TRANSFER:
 316:..\u8g2-master\csrc/u8x8_byte.c ****       u8x8_gpio_SetCS(u8x8, u8x8->display_info->chip_enable_level);  
ARM GAS  C:\Users\info\AppData\Local\Temp\ccAWUQ53.s 			page 7


 317:..\u8g2-master\csrc/u8x8_byte.c ****       u8x8->gpio_and_delay_cb(u8x8, U8X8_MSG_DELAY_NANO, u8x8->display_info->post_chip_enable_wait_
 318:..\u8g2-master\csrc/u8x8_byte.c ****       break;
 319:..\u8g2-master\csrc/u8x8_byte.c ****     case U8X8_MSG_BYTE_END_TRANSFER:
 320:..\u8g2-master\csrc/u8x8_byte.c ****       u8x8->gpio_and_delay_cb(u8x8, U8X8_MSG_DELAY_NANO, u8x8->display_info->pre_chip_disable_wait_
 321:..\u8g2-master\csrc/u8x8_byte.c ****       u8x8_gpio_SetCS(u8x8, u8x8->display_info->chip_disable_level);
 322:..\u8g2-master\csrc/u8x8_byte.c ****       break;
 323:..\u8g2-master\csrc/u8x8_byte.c ****     default:
 324:..\u8g2-master\csrc/u8x8_byte.c ****       return 0;
 325:..\u8g2-master\csrc/u8x8_byte.c ****   }
 326:..\u8g2-master\csrc/u8x8_byte.c ****   return 1;
 327:..\u8g2-master\csrc/u8x8_byte.c **** }
 328:..\u8g2-master\csrc/u8x8_byte.c **** 
 329:..\u8g2-master\csrc/u8x8_byte.c **** /*=========================================*/
 330:..\u8g2-master\csrc/u8x8_byte.c **** 
 331:..\u8g2-master\csrc/u8x8_byte.c **** void u8x8_byte_set_ks0108_cs(u8x8_t *u8x8, uint8_t arg)
 332:..\u8g2-master\csrc/u8x8_byte.c **** {
 333:..\u8g2-master\csrc/u8x8_byte.c ****   u8x8_gpio_SetCS(u8x8, arg&1);
 334:..\u8g2-master\csrc/u8x8_byte.c ****   arg = arg >> 1;
 335:..\u8g2-master\csrc/u8x8_byte.c ****   u8x8_gpio_call(u8x8, U8X8_MSG_GPIO_CS1, arg&1);
 336:..\u8g2-master\csrc/u8x8_byte.c ****   arg = arg >> 1;
 337:..\u8g2-master\csrc/u8x8_byte.c ****   u8x8_gpio_call(u8x8, U8X8_MSG_GPIO_CS2, arg&1);
 338:..\u8g2-master\csrc/u8x8_byte.c **** }
 339:..\u8g2-master\csrc/u8x8_byte.c **** 
 340:..\u8g2-master\csrc/u8x8_byte.c **** /* 6800 mode */
 341:..\u8g2-master\csrc/u8x8_byte.c **** uint8_t u8x8_byte_ks0108(u8x8_t *u8x8, uint8_t msg, uint8_t arg_int, void *arg_ptr)
 342:..\u8g2-master\csrc/u8x8_byte.c **** {
 343:..\u8g2-master\csrc/u8x8_byte.c ****   uint8_t i, b;
 344:..\u8g2-master\csrc/u8x8_byte.c ****   uint8_t *data;
 345:..\u8g2-master\csrc/u8x8_byte.c ****  
 346:..\u8g2-master\csrc/u8x8_byte.c ****   switch(msg)
 347:..\u8g2-master\csrc/u8x8_byte.c ****   {
 348:..\u8g2-master\csrc/u8x8_byte.c ****     case U8X8_MSG_BYTE_SEND:
 349:..\u8g2-master\csrc/u8x8_byte.c ****       data = (uint8_t *)arg_ptr;
 350:..\u8g2-master\csrc/u8x8_byte.c ****       while( arg_int > 0 )
 351:..\u8g2-master\csrc/u8x8_byte.c ****       {
 352:..\u8g2-master\csrc/u8x8_byte.c **** 	b = *data;
 353:..\u8g2-master\csrc/u8x8_byte.c **** 	data++;
 354:..\u8g2-master\csrc/u8x8_byte.c **** 	arg_int--;
 355:..\u8g2-master\csrc/u8x8_byte.c **** 	for( i = U8X8_MSG_GPIO_D0; i <= U8X8_MSG_GPIO_D7; i++ )
 356:..\u8g2-master\csrc/u8x8_byte.c **** 	{
 357:..\u8g2-master\csrc/u8x8_byte.c **** 	  u8x8_gpio_call(u8x8, i, b&1);
 358:..\u8g2-master\csrc/u8x8_byte.c **** 	  b >>= 1;
 359:..\u8g2-master\csrc/u8x8_byte.c **** 	}    
 360:..\u8g2-master\csrc/u8x8_byte.c **** 	
 361:..\u8g2-master\csrc/u8x8_byte.c **** 	u8x8_gpio_Delay(u8x8, U8X8_MSG_DELAY_NANO, u8x8->display_info->data_setup_time_ns);
 362:..\u8g2-master\csrc/u8x8_byte.c **** 	u8x8_gpio_call(u8x8, U8X8_MSG_GPIO_E, 1);
 363:..\u8g2-master\csrc/u8x8_byte.c **** 	u8x8_gpio_Delay(u8x8, U8X8_MSG_DELAY_NANO, u8x8->display_info->write_pulse_width_ns);
 364:..\u8g2-master\csrc/u8x8_byte.c **** 	u8x8_gpio_call(u8x8, U8X8_MSG_GPIO_E, 0);
 365:..\u8g2-master\csrc/u8x8_byte.c ****       }
 366:..\u8g2-master\csrc/u8x8_byte.c ****       break;
 367:..\u8g2-master\csrc/u8x8_byte.c ****       
 368:..\u8g2-master\csrc/u8x8_byte.c ****     case U8X8_MSG_BYTE_INIT:
 369:..\u8g2-master\csrc/u8x8_byte.c ****       /* disable chipselect */
 370:..\u8g2-master\csrc/u8x8_byte.c ****       u8x8_gpio_SetCS(u8x8, u8x8->display_info->chip_disable_level);    
 371:..\u8g2-master\csrc/u8x8_byte.c ****       /* ensure that the enable signal is low */
 372:..\u8g2-master\csrc/u8x8_byte.c ****       u8x8_gpio_call(u8x8, U8X8_MSG_GPIO_E, 0);
 373:..\u8g2-master\csrc/u8x8_byte.c ****       break;
ARM GAS  C:\Users\info\AppData\Local\Temp\ccAWUQ53.s 			page 8


 374:..\u8g2-master\csrc/u8x8_byte.c ****     case U8X8_MSG_BYTE_SET_DC:
 375:..\u8g2-master\csrc/u8x8_byte.c ****       u8x8_gpio_SetDC(u8x8, arg_int);
 376:..\u8g2-master\csrc/u8x8_byte.c ****       break;
 377:..\u8g2-master\csrc/u8x8_byte.c ****     case U8X8_MSG_BYTE_START_TRANSFER:
 378:..\u8g2-master\csrc/u8x8_byte.c ****       /* expects 3 bits in arg_int for the chip select lines */ 
 379:..\u8g2-master\csrc/u8x8_byte.c ****       u8x8_byte_set_ks0108_cs(u8x8, arg_int);
 380:..\u8g2-master\csrc/u8x8_byte.c ****       u8x8->gpio_and_delay_cb(u8x8, U8X8_MSG_DELAY_NANO, u8x8->display_info->post_chip_enable_wait_
 381:..\u8g2-master\csrc/u8x8_byte.c ****       break;
 382:..\u8g2-master\csrc/u8x8_byte.c ****     case U8X8_MSG_BYTE_END_TRANSFER:
 383:..\u8g2-master\csrc/u8x8_byte.c ****       u8x8->gpio_and_delay_cb(u8x8, U8X8_MSG_DELAY_NANO, u8x8->display_info->pre_chip_disable_wait_
 384:..\u8g2-master\csrc/u8x8_byte.c ****       u8x8_byte_set_ks0108_cs(u8x8, arg_int);
 385:..\u8g2-master\csrc/u8x8_byte.c ****       break;
 386:..\u8g2-master\csrc/u8x8_byte.c ****     default:
 387:..\u8g2-master\csrc/u8x8_byte.c ****       return 0;
 388:..\u8g2-master\csrc/u8x8_byte.c ****   }
 389:..\u8g2-master\csrc/u8x8_byte.c ****   return 1;
 390:..\u8g2-master\csrc/u8x8_byte.c **** }
 391:..\u8g2-master\csrc/u8x8_byte.c **** 
 392:..\u8g2-master\csrc/u8x8_byte.c **** 
 393:..\u8g2-master\csrc/u8x8_byte.c **** /* sed1520 or sbn1661 
 394:..\u8g2-master\csrc/u8x8_byte.c ****   U8X8_MSG_GPIO_E --> E1
 395:..\u8g2-master\csrc/u8x8_byte.c ****   U8X8_MSG_GPIO_CS --> E2
 396:..\u8g2-master\csrc/u8x8_byte.c **** */
 397:..\u8g2-master\csrc/u8x8_byte.c **** uint8_t u8x8_byte_sed1520(u8x8_t *u8x8, uint8_t msg, uint8_t arg_int, void *arg_ptr)
 398:..\u8g2-master\csrc/u8x8_byte.c **** {
 399:..\u8g2-master\csrc/u8x8_byte.c ****   uint8_t i, b;
 400:..\u8g2-master\csrc/u8x8_byte.c ****   uint8_t *data;
 401:..\u8g2-master\csrc/u8x8_byte.c ****   static uint8_t enable_pin;
 402:..\u8g2-master\csrc/u8x8_byte.c ****  
 403:..\u8g2-master\csrc/u8x8_byte.c ****   switch(msg)
 404:..\u8g2-master\csrc/u8x8_byte.c ****   {
 405:..\u8g2-master\csrc/u8x8_byte.c ****     case U8X8_MSG_BYTE_SEND:
 406:..\u8g2-master\csrc/u8x8_byte.c ****       data = (uint8_t *)arg_ptr;
 407:..\u8g2-master\csrc/u8x8_byte.c ****       while( arg_int > 0 )
 408:..\u8g2-master\csrc/u8x8_byte.c ****       {
 409:..\u8g2-master\csrc/u8x8_byte.c **** 	b = *data;
 410:..\u8g2-master\csrc/u8x8_byte.c **** 	data++;
 411:..\u8g2-master\csrc/u8x8_byte.c **** 	arg_int--;
 412:..\u8g2-master\csrc/u8x8_byte.c **** 	for( i = U8X8_MSG_GPIO_D0; i <= U8X8_MSG_GPIO_D7; i++ )
 413:..\u8g2-master\csrc/u8x8_byte.c **** 	{
 414:..\u8g2-master\csrc/u8x8_byte.c **** 	  u8x8_gpio_call(u8x8, i, b&1);
 415:..\u8g2-master\csrc/u8x8_byte.c **** 	  b >>= 1;
 416:..\u8g2-master\csrc/u8x8_byte.c **** 	}    
 417:..\u8g2-master\csrc/u8x8_byte.c **** 	
 418:..\u8g2-master\csrc/u8x8_byte.c **** 	u8x8_gpio_Delay(u8x8, U8X8_MSG_DELAY_NANO, u8x8->display_info->data_setup_time_ns);
 419:..\u8g2-master\csrc/u8x8_byte.c **** 	u8x8_gpio_call(u8x8, enable_pin, 1);
 420:..\u8g2-master\csrc/u8x8_byte.c **** 	u8x8_gpio_Delay(u8x8, U8X8_MSG_DELAY_NANO, 200);		/* KS0108 requires 450 ns, use 200 here */
 421:..\u8g2-master\csrc/u8x8_byte.c **** 	u8x8_gpio_Delay(u8x8, U8X8_MSG_DELAY_NANO, u8x8->display_info->write_pulse_width_ns);  /* expect 2
 422:..\u8g2-master\csrc/u8x8_byte.c **** 	u8x8_gpio_call(u8x8, enable_pin, 0);
 423:..\u8g2-master\csrc/u8x8_byte.c ****       }
 424:..\u8g2-master\csrc/u8x8_byte.c ****       break;
 425:..\u8g2-master\csrc/u8x8_byte.c ****       
 426:..\u8g2-master\csrc/u8x8_byte.c ****     case U8X8_MSG_BYTE_INIT:
 427:..\u8g2-master\csrc/u8x8_byte.c ****       /* disable chipselect */
 428:..\u8g2-master\csrc/u8x8_byte.c ****       u8x8_gpio_SetCS(u8x8, u8x8->display_info->chip_disable_level);    
 429:..\u8g2-master\csrc/u8x8_byte.c ****       /* ensure that the enable signals are low */
 430:..\u8g2-master\csrc/u8x8_byte.c ****       u8x8_gpio_call(u8x8, U8X8_MSG_GPIO_E, 0);
ARM GAS  C:\Users\info\AppData\Local\Temp\ccAWUQ53.s 			page 9


 431:..\u8g2-master\csrc/u8x8_byte.c ****       u8x8_gpio_call(u8x8, U8X8_MSG_GPIO_CS, 0);
 432:..\u8g2-master\csrc/u8x8_byte.c ****       enable_pin = U8X8_MSG_GPIO_E;
 433:..\u8g2-master\csrc/u8x8_byte.c ****       break;
 434:..\u8g2-master\csrc/u8x8_byte.c ****     case U8X8_MSG_BYTE_SET_DC:
 435:..\u8g2-master\csrc/u8x8_byte.c ****       u8x8_gpio_SetDC(u8x8, arg_int);
 436:..\u8g2-master\csrc/u8x8_byte.c ****       break;
 437:..\u8g2-master\csrc/u8x8_byte.c ****     case U8X8_MSG_BYTE_START_TRANSFER:
 438:..\u8g2-master\csrc/u8x8_byte.c ****       /* cs lines are not supported for the SED1520/SBN1661 */
 439:..\u8g2-master\csrc/u8x8_byte.c ****       /* instead, this will select the E1 or E2 line */ 
 440:..\u8g2-master\csrc/u8x8_byte.c ****       enable_pin = U8X8_MSG_GPIO_E;
 441:..\u8g2-master\csrc/u8x8_byte.c ****       if ( arg_int != 0 )
 442:..\u8g2-master\csrc/u8x8_byte.c **** 	enable_pin = U8X8_MSG_GPIO_CS;
 443:..\u8g2-master\csrc/u8x8_byte.c ****       break;
 444:..\u8g2-master\csrc/u8x8_byte.c ****     case U8X8_MSG_BYTE_END_TRANSFER:
 445:..\u8g2-master\csrc/u8x8_byte.c ****       break;
 446:..\u8g2-master\csrc/u8x8_byte.c ****     default:
 447:..\u8g2-master\csrc/u8x8_byte.c ****       return 0;
 448:..\u8g2-master\csrc/u8x8_byte.c ****   }
 449:..\u8g2-master\csrc/u8x8_byte.c ****   return 1;
 450:..\u8g2-master\csrc/u8x8_byte.c **** }
 451:..\u8g2-master\csrc/u8x8_byte.c **** 
 452:..\u8g2-master\csrc/u8x8_byte.c **** /*=========================================*/
 453:..\u8g2-master\csrc/u8x8_byte.c **** 
 454:..\u8g2-master\csrc/u8x8_byte.c **** 
 455:..\u8g2-master\csrc/u8x8_byte.c **** /*
 456:..\u8g2-master\csrc/u8x8_byte.c ****   software i2c,
 457:..\u8g2-master\csrc/u8x8_byte.c ****   ignores ACK response (which is anyway not provided by some displays)
 458:..\u8g2-master\csrc/u8x8_byte.c ****   also does not allow reading from the device
 459:..\u8g2-master\csrc/u8x8_byte.c **** */
 460:..\u8g2-master\csrc/u8x8_byte.c **** static void i2c_delay(u8x8_t *u8x8) U8X8_NOINLINE;
 461:..\u8g2-master\csrc/u8x8_byte.c **** static void i2c_delay(u8x8_t *u8x8)
 462:..\u8g2-master\csrc/u8x8_byte.c **** {
  27              		.loc 1 462 0
  28              		.cfi_startproc
  29              		@ args = 0, pretend = 0, frame = 0
  30              		@ frame_needed = 0, uses_anonymous_args = 0
  31              		@ link register save eliminated.
  32              	.LVL0:
 463:..\u8g2-master\csrc/u8x8_byte.c ****   //u8x8_gpio_Delay(u8x8, U8X8_MSG_DELAY_10MICRO, u8x8->display_info->i2c_bus_clock_100kHz);
 464:..\u8g2-master\csrc/u8x8_byte.c ****   u8x8_gpio_Delay(u8x8, U8X8_MSG_DELAY_I2C, u8x8->display_info->i2c_bus_clock_100kHz);
  33              		.loc 1 464 0
  34 0000 0368     		ldr	r3, [r0]
  35 0002 2D21     		movs	r1, #45
  36 0004 5A7B     		ldrb	r2, [r3, #13]	@ zero_extendqisi2
  37 0006 FFF7FEBF 		b	u8x8_gpio_call
  38              	.LVL1:
  39              		.cfi_endproc
  40              	.LFE13:
  41              		.size	i2c_delay, .-i2c_delay
  42 000a 00BF     		.section	.text.i2c_write_byte,"ax",%progbits
  43              		.align	2
  44              		.thumb
  45              		.thumb_func
  46              		.type	i2c_write_byte, %function
  47              	i2c_write_byte:
  48              	.LFB23:
 465:..\u8g2-master\csrc/u8x8_byte.c **** }
ARM GAS  C:\Users\info\AppData\Local\Temp\ccAWUQ53.s 			page 10


 466:..\u8g2-master\csrc/u8x8_byte.c **** 
 467:..\u8g2-master\csrc/u8x8_byte.c **** static void i2c_init(u8x8_t *u8x8)
 468:..\u8g2-master\csrc/u8x8_byte.c **** {
 469:..\u8g2-master\csrc/u8x8_byte.c ****   u8x8_gpio_SetI2CClock(u8x8, 1);
 470:..\u8g2-master\csrc/u8x8_byte.c ****   u8x8_gpio_SetI2CData(u8x8, 1);
 471:..\u8g2-master\csrc/u8x8_byte.c ****   
 472:..\u8g2-master\csrc/u8x8_byte.c ****   i2c_delay(u8x8);
 473:..\u8g2-master\csrc/u8x8_byte.c **** }
 474:..\u8g2-master\csrc/u8x8_byte.c **** 
 475:..\u8g2-master\csrc/u8x8_byte.c **** /* actually, the scl line is not observed, so this procedure does not return a value */
 476:..\u8g2-master\csrc/u8x8_byte.c **** 
 477:..\u8g2-master\csrc/u8x8_byte.c **** static void i2c_read_scl_and_delay(u8x8_t *u8x8)
 478:..\u8g2-master\csrc/u8x8_byte.c **** {
 479:..\u8g2-master\csrc/u8x8_byte.c ****   /* set as input (line will be high) */
 480:..\u8g2-master\csrc/u8x8_byte.c ****   u8x8_gpio_SetI2CClock(u8x8, 1);
 481:..\u8g2-master\csrc/u8x8_byte.c **** 
 482:..\u8g2-master\csrc/u8x8_byte.c ****   i2c_delay(u8x8);
 483:..\u8g2-master\csrc/u8x8_byte.c **** }
 484:..\u8g2-master\csrc/u8x8_byte.c **** 
 485:..\u8g2-master\csrc/u8x8_byte.c **** static void i2c_clear_scl(u8x8_t *u8x8)
 486:..\u8g2-master\csrc/u8x8_byte.c **** {
 487:..\u8g2-master\csrc/u8x8_byte.c ****   u8x8_gpio_SetI2CClock(u8x8, 0);
 488:..\u8g2-master\csrc/u8x8_byte.c **** }
 489:..\u8g2-master\csrc/u8x8_byte.c **** 
 490:..\u8g2-master\csrc/u8x8_byte.c **** static void i2c_read_sda(u8x8_t *u8x8)
 491:..\u8g2-master\csrc/u8x8_byte.c **** {
 492:..\u8g2-master\csrc/u8x8_byte.c ****   /* set as input (line will be high) */
 493:..\u8g2-master\csrc/u8x8_byte.c ****   u8x8_gpio_SetI2CData(u8x8, 1);
 494:..\u8g2-master\csrc/u8x8_byte.c **** }
 495:..\u8g2-master\csrc/u8x8_byte.c **** 
 496:..\u8g2-master\csrc/u8x8_byte.c **** static void i2c_clear_sda(u8x8_t *u8x8)
 497:..\u8g2-master\csrc/u8x8_byte.c **** {
 498:..\u8g2-master\csrc/u8x8_byte.c ****   /* set open collector and drive low */
 499:..\u8g2-master\csrc/u8x8_byte.c ****   u8x8_gpio_SetI2CData(u8x8, 0);
 500:..\u8g2-master\csrc/u8x8_byte.c **** }
 501:..\u8g2-master\csrc/u8x8_byte.c **** 
 502:..\u8g2-master\csrc/u8x8_byte.c **** static void i2c_start(u8x8_t *u8x8)
 503:..\u8g2-master\csrc/u8x8_byte.c **** {
 504:..\u8g2-master\csrc/u8x8_byte.c ****   if ( u8x8->i2c_started != 0 )
 505:..\u8g2-master\csrc/u8x8_byte.c ****   {
 506:..\u8g2-master\csrc/u8x8_byte.c ****     /* if already started: do restart */
 507:..\u8g2-master\csrc/u8x8_byte.c ****     i2c_read_sda(u8x8);     /* SDA = 1 */
 508:..\u8g2-master\csrc/u8x8_byte.c ****     i2c_delay(u8x8);
 509:..\u8g2-master\csrc/u8x8_byte.c ****     i2c_read_scl_and_delay(u8x8);
 510:..\u8g2-master\csrc/u8x8_byte.c ****   }
 511:..\u8g2-master\csrc/u8x8_byte.c ****   i2c_read_sda(u8x8);
 512:..\u8g2-master\csrc/u8x8_byte.c ****   /* send the start condition, both lines go from 1 to 0 */
 513:..\u8g2-master\csrc/u8x8_byte.c ****   i2c_clear_sda(u8x8);
 514:..\u8g2-master\csrc/u8x8_byte.c ****   i2c_delay(u8x8);
 515:..\u8g2-master\csrc/u8x8_byte.c ****   i2c_clear_scl(u8x8);
 516:..\u8g2-master\csrc/u8x8_byte.c ****   u8x8->i2c_started = 1;
 517:..\u8g2-master\csrc/u8x8_byte.c **** }
 518:..\u8g2-master\csrc/u8x8_byte.c **** 
 519:..\u8g2-master\csrc/u8x8_byte.c **** 
 520:..\u8g2-master\csrc/u8x8_byte.c **** static void i2c_stop(u8x8_t *u8x8)
 521:..\u8g2-master\csrc/u8x8_byte.c **** {
 522:..\u8g2-master\csrc/u8x8_byte.c ****   /* set SDA to 0 */
ARM GAS  C:\Users\info\AppData\Local\Temp\ccAWUQ53.s 			page 11


 523:..\u8g2-master\csrc/u8x8_byte.c ****   i2c_clear_sda(u8x8);  
 524:..\u8g2-master\csrc/u8x8_byte.c ****   i2c_delay(u8x8);
 525:..\u8g2-master\csrc/u8x8_byte.c ****  
 526:..\u8g2-master\csrc/u8x8_byte.c ****   /* now release all lines */
 527:..\u8g2-master\csrc/u8x8_byte.c ****   i2c_read_scl_and_delay(u8x8);
 528:..\u8g2-master\csrc/u8x8_byte.c ****  
 529:..\u8g2-master\csrc/u8x8_byte.c ****   /* set SDA to 1 */
 530:..\u8g2-master\csrc/u8x8_byte.c ****   i2c_read_sda(u8x8);
 531:..\u8g2-master\csrc/u8x8_byte.c ****   i2c_delay(u8x8);
 532:..\u8g2-master\csrc/u8x8_byte.c ****   u8x8->i2c_started = 0;
 533:..\u8g2-master\csrc/u8x8_byte.c **** }
 534:..\u8g2-master\csrc/u8x8_byte.c **** 
 535:..\u8g2-master\csrc/u8x8_byte.c **** static void i2c_write_bit(u8x8_t *u8x8, uint8_t val)
 536:..\u8g2-master\csrc/u8x8_byte.c **** {
 537:..\u8g2-master\csrc/u8x8_byte.c ****   if (val)
 538:..\u8g2-master\csrc/u8x8_byte.c ****     i2c_read_sda(u8x8);
 539:..\u8g2-master\csrc/u8x8_byte.c ****   else
 540:..\u8g2-master\csrc/u8x8_byte.c ****     i2c_clear_sda(u8x8);
 541:..\u8g2-master\csrc/u8x8_byte.c ****  
 542:..\u8g2-master\csrc/u8x8_byte.c ****   i2c_delay(u8x8);
 543:..\u8g2-master\csrc/u8x8_byte.c ****   i2c_read_scl_and_delay(u8x8);
 544:..\u8g2-master\csrc/u8x8_byte.c ****   i2c_clear_scl(u8x8);
 545:..\u8g2-master\csrc/u8x8_byte.c **** }
 546:..\u8g2-master\csrc/u8x8_byte.c **** 
 547:..\u8g2-master\csrc/u8x8_byte.c **** static void i2c_read_bit(u8x8_t *u8x8)
 548:..\u8g2-master\csrc/u8x8_byte.c **** {
 549:..\u8g2-master\csrc/u8x8_byte.c ****   //uint8_t val;
 550:..\u8g2-master\csrc/u8x8_byte.c ****   /* do not drive SDA */
 551:..\u8g2-master\csrc/u8x8_byte.c ****   i2c_read_sda(u8x8);
 552:..\u8g2-master\csrc/u8x8_byte.c ****   i2c_delay(u8x8);
 553:..\u8g2-master\csrc/u8x8_byte.c ****   i2c_read_scl_and_delay(u8x8);
 554:..\u8g2-master\csrc/u8x8_byte.c ****   i2c_read_sda(u8x8);
 555:..\u8g2-master\csrc/u8x8_byte.c ****   i2c_delay(u8x8);
 556:..\u8g2-master\csrc/u8x8_byte.c ****   i2c_clear_scl(u8x8);
 557:..\u8g2-master\csrc/u8x8_byte.c ****   //return val;
 558:..\u8g2-master\csrc/u8x8_byte.c **** }
 559:..\u8g2-master\csrc/u8x8_byte.c **** 
 560:..\u8g2-master\csrc/u8x8_byte.c **** static void i2c_write_byte(u8x8_t *u8x8, uint8_t b)
 561:..\u8g2-master\csrc/u8x8_byte.c **** {
  49              		.loc 1 561 0
  50              		.cfi_startproc
  51              		@ args = 0, pretend = 0, frame = 0
  52              		@ frame_needed = 0, uses_anonymous_args = 0
  53              	.LVL2:
  54 0000 38B5     		push	{r3, r4, r5, lr}
  55              		.cfi_def_cfa_offset 16
  56              		.cfi_offset 3, -16
  57              		.cfi_offset 4, -12
  58              		.cfi_offset 5, -8
  59              		.cfi_offset 14, -4
  60              	.LBB124:
  61              	.LBB125:
 537:..\u8g2-master\csrc/u8x8_byte.c ****     i2c_read_sda(u8x8);
  62              		.loc 1 537 0
  63 0002 21F07F03 		bic	r3, r1, #127
  64              	.LBE125:
  65              	.LBE124:
ARM GAS  C:\Users\info\AppData\Local\Temp\ccAWUQ53.s 			page 12


  66              		.loc 1 561 0
  67 0006 0D46     		mov	r5, r1
  68 0008 0446     		mov	r4, r0
  69              	.LVL3:
  70              	.LBB136:
  71              	.LBB134:
 537:..\u8g2-master\csrc/u8x8_byte.c ****     i2c_read_sda(u8x8);
  72              		.loc 1 537 0
  73 000a 002B     		cmp	r3, #0
  74 000c 40F0EC80 		bne	.L21
  75 0010 03F0FF02 		and	r2, r3, #255
  76              	.LVL4:
  77              	.LBB126:
  78              	.LBB127:
 499:..\u8g2-master\csrc/u8x8_byte.c **** }
  79              		.loc 1 499 0
  80 0014 4D21     		movs	r1, #77
  81              	.LVL5:
  82 0016 FFF7FEFF 		bl	u8x8_gpio_call
  83              	.LVL6:
  84              	.L4:
  85              	.LBE127:
  86              	.LBE126:
 542:..\u8g2-master\csrc/u8x8_byte.c ****   i2c_read_scl_and_delay(u8x8);
  87              		.loc 1 542 0
  88 001a 2046     		mov	r0, r4
  89 001c FFF7FEFF 		bl	i2c_delay
  90              	.LVL7:
  91              	.LBB128:
  92              	.LBB129:
 480:..\u8g2-master\csrc/u8x8_byte.c **** 
  93              		.loc 1 480 0
  94 0020 0122     		movs	r2, #1
  95 0022 4C21     		movs	r1, #76
  96 0024 2046     		mov	r0, r4
  97 0026 FFF7FEFF 		bl	u8x8_gpio_call
  98              	.LVL8:
 482:..\u8g2-master\csrc/u8x8_byte.c **** }
  99              		.loc 1 482 0
 100 002a 2046     		mov	r0, r4
 101 002c FFF7FEFF 		bl	i2c_delay
 102              	.LVL9:
 103              	.LBE129:
 104              	.LBE128:
 105              	.LBB130:
 106              	.LBB131:
 487:..\u8g2-master\csrc/u8x8_byte.c **** }
 107              		.loc 1 487 0
 108 0030 0022     		movs	r2, #0
 109 0032 4C21     		movs	r1, #76
 110 0034 2046     		mov	r0, r4
 111 0036 FFF7FEFF 		bl	u8x8_gpio_call
 112              	.LVL10:
 113              	.LBE131:
 114              	.LBE130:
 115              	.LBE134:
 116              	.LBE136:
ARM GAS  C:\Users\info\AppData\Local\Temp\ccAWUQ53.s 			page 13


 117              	.LBB137:
 118              	.LBB138:
 537:..\u8g2-master\csrc/u8x8_byte.c ****     i2c_read_sda(u8x8);
 119              		.loc 1 537 0
 120 003a 05F04003 		and	r3, r5, #64
 121 003e 03F0FF02 		and	r2, r3, #255
 122 0042 002B     		cmp	r3, #0
 123 0044 40F0F380 		bne	.L22
 124              	.LVL11:
 125              	.LBB139:
 126              	.LBB140:
 499:..\u8g2-master\csrc/u8x8_byte.c **** }
 127              		.loc 1 499 0
 128 0048 4D21     		movs	r1, #77
 129 004a 2046     		mov	r0, r4
 130 004c FFF7FEFF 		bl	u8x8_gpio_call
 131              	.LVL12:
 132              	.L6:
 133              	.LBE140:
 134              	.LBE139:
 542:..\u8g2-master\csrc/u8x8_byte.c ****   i2c_read_scl_and_delay(u8x8);
 135              		.loc 1 542 0
 136 0050 2046     		mov	r0, r4
 137 0052 FFF7FEFF 		bl	i2c_delay
 138              	.LVL13:
 139              	.LBB141:
 140              	.LBB142:
 480:..\u8g2-master\csrc/u8x8_byte.c **** 
 141              		.loc 1 480 0
 142 0056 0122     		movs	r2, #1
 143 0058 4C21     		movs	r1, #76
 144 005a 2046     		mov	r0, r4
 145 005c FFF7FEFF 		bl	u8x8_gpio_call
 146              	.LVL14:
 482:..\u8g2-master\csrc/u8x8_byte.c **** }
 147              		.loc 1 482 0
 148 0060 2046     		mov	r0, r4
 149 0062 FFF7FEFF 		bl	i2c_delay
 150              	.LVL15:
 151              	.LBE142:
 152              	.LBE141:
 153              	.LBB143:
 154              	.LBB144:
 487:..\u8g2-master\csrc/u8x8_byte.c **** }
 155              		.loc 1 487 0
 156 0066 0022     		movs	r2, #0
 157 0068 4C21     		movs	r1, #76
 158 006a 2046     		mov	r0, r4
 159 006c FFF7FEFF 		bl	u8x8_gpio_call
 160              	.LVL16:
 161              	.LBE144:
 162              	.LBE143:
 163              	.LBE138:
 164              	.LBE137:
 165              	.LBB148:
 166              	.LBB149:
 537:..\u8g2-master\csrc/u8x8_byte.c ****     i2c_read_sda(u8x8);
ARM GAS  C:\Users\info\AppData\Local\Temp\ccAWUQ53.s 			page 14


 167              		.loc 1 537 0
 168 0070 05F02003 		and	r3, r5, #32
 169 0074 03F0FF02 		and	r2, r3, #255
 170 0078 002B     		cmp	r3, #0
 171 007a 40F0D280 		bne	.L23
 172              	.LVL17:
 173              	.LBB150:
 174              	.LBB151:
 499:..\u8g2-master\csrc/u8x8_byte.c **** }
 175              		.loc 1 499 0
 176 007e 4D21     		movs	r1, #77
 177 0080 2046     		mov	r0, r4
 178 0082 FFF7FEFF 		bl	u8x8_gpio_call
 179              	.LVL18:
 180              	.L8:
 181              	.LBE151:
 182              	.LBE150:
 542:..\u8g2-master\csrc/u8x8_byte.c ****   i2c_read_scl_and_delay(u8x8);
 183              		.loc 1 542 0
 184 0086 2046     		mov	r0, r4
 185 0088 FFF7FEFF 		bl	i2c_delay
 186              	.LVL19:
 187              	.LBB152:
 188              	.LBB153:
 480:..\u8g2-master\csrc/u8x8_byte.c **** 
 189              		.loc 1 480 0
 190 008c 0122     		movs	r2, #1
 191 008e 4C21     		movs	r1, #76
 192 0090 2046     		mov	r0, r4
 193 0092 FFF7FEFF 		bl	u8x8_gpio_call
 194              	.LVL20:
 482:..\u8g2-master\csrc/u8x8_byte.c **** }
 195              		.loc 1 482 0
 196 0096 2046     		mov	r0, r4
 197 0098 FFF7FEFF 		bl	i2c_delay
 198              	.LVL21:
 199              	.LBE153:
 200              	.LBE152:
 201              	.LBB154:
 202              	.LBB155:
 487:..\u8g2-master\csrc/u8x8_byte.c **** }
 203              		.loc 1 487 0
 204 009c 0022     		movs	r2, #0
 205 009e 4C21     		movs	r1, #76
 206 00a0 2046     		mov	r0, r4
 207 00a2 FFF7FEFF 		bl	u8x8_gpio_call
 208              	.LVL22:
 209              	.LBE155:
 210              	.LBE154:
 211              	.LBE149:
 212              	.LBE148:
 213              	.LBB159:
 214              	.LBB160:
 537:..\u8g2-master\csrc/u8x8_byte.c ****     i2c_read_sda(u8x8);
 215              		.loc 1 537 0
 216 00a6 05F01003 		and	r3, r5, #16
 217 00aa 03F0FF02 		and	r2, r3, #255
ARM GAS  C:\Users\info\AppData\Local\Temp\ccAWUQ53.s 			page 15


 218 00ae 002B     		cmp	r3, #0
 219 00b0 40F0B180 		bne	.L24
 220              	.LVL23:
 221              	.LBB161:
 222              	.LBB162:
 499:..\u8g2-master\csrc/u8x8_byte.c **** }
 223              		.loc 1 499 0
 224 00b4 4D21     		movs	r1, #77
 225 00b6 2046     		mov	r0, r4
 226 00b8 FFF7FEFF 		bl	u8x8_gpio_call
 227              	.LVL24:
 228              	.L10:
 229              	.LBE162:
 230              	.LBE161:
 542:..\u8g2-master\csrc/u8x8_byte.c ****   i2c_read_scl_and_delay(u8x8);
 231              		.loc 1 542 0
 232 00bc 2046     		mov	r0, r4
 233 00be FFF7FEFF 		bl	i2c_delay
 234              	.LVL25:
 235              	.LBB163:
 236              	.LBB164:
 480:..\u8g2-master\csrc/u8x8_byte.c **** 
 237              		.loc 1 480 0
 238 00c2 0122     		movs	r2, #1
 239 00c4 4C21     		movs	r1, #76
 240 00c6 2046     		mov	r0, r4
 241 00c8 FFF7FEFF 		bl	u8x8_gpio_call
 242              	.LVL26:
 482:..\u8g2-master\csrc/u8x8_byte.c **** }
 243              		.loc 1 482 0
 244 00cc 2046     		mov	r0, r4
 245 00ce FFF7FEFF 		bl	i2c_delay
 246              	.LVL27:
 247              	.LBE164:
 248              	.LBE163:
 249              	.LBB165:
 250              	.LBB166:
 487:..\u8g2-master\csrc/u8x8_byte.c **** }
 251              		.loc 1 487 0
 252 00d2 0022     		movs	r2, #0
 253 00d4 4C21     		movs	r1, #76
 254 00d6 2046     		mov	r0, r4
 255 00d8 FFF7FEFF 		bl	u8x8_gpio_call
 256              	.LVL28:
 257              	.LBE166:
 258              	.LBE165:
 259              	.LBE160:
 260              	.LBE159:
 261              	.LBB170:
 262              	.LBB171:
 537:..\u8g2-master\csrc/u8x8_byte.c ****     i2c_read_sda(u8x8);
 263              		.loc 1 537 0
 264 00dc 05F00803 		and	r3, r5, #8
 265 00e0 03F0FF02 		and	r2, r3, #255
 266 00e4 002B     		cmp	r3, #0
 267 00e6 40F09080 		bne	.L25
 268              	.LVL29:
ARM GAS  C:\Users\info\AppData\Local\Temp\ccAWUQ53.s 			page 16


 269              	.LBB172:
 270              	.LBB173:
 499:..\u8g2-master\csrc/u8x8_byte.c **** }
 271              		.loc 1 499 0
 272 00ea 4D21     		movs	r1, #77
 273 00ec 2046     		mov	r0, r4
 274 00ee FFF7FEFF 		bl	u8x8_gpio_call
 275              	.LVL30:
 276              	.L12:
 277              	.LBE173:
 278              	.LBE172:
 542:..\u8g2-master\csrc/u8x8_byte.c ****   i2c_read_scl_and_delay(u8x8);
 279              		.loc 1 542 0
 280 00f2 2046     		mov	r0, r4
 281 00f4 FFF7FEFF 		bl	i2c_delay
 282              	.LVL31:
 283              	.LBB174:
 284              	.LBB175:
 480:..\u8g2-master\csrc/u8x8_byte.c **** 
 285              		.loc 1 480 0
 286 00f8 0122     		movs	r2, #1
 287 00fa 4C21     		movs	r1, #76
 288 00fc 2046     		mov	r0, r4
 289 00fe FFF7FEFF 		bl	u8x8_gpio_call
 290              	.LVL32:
 482:..\u8g2-master\csrc/u8x8_byte.c **** }
 291              		.loc 1 482 0
 292 0102 2046     		mov	r0, r4
 293 0104 FFF7FEFF 		bl	i2c_delay
 294              	.LVL33:
 295              	.LBE175:
 296              	.LBE174:
 297              	.LBB176:
 298              	.LBB177:
 487:..\u8g2-master\csrc/u8x8_byte.c **** }
 299              		.loc 1 487 0
 300 0108 0022     		movs	r2, #0
 301 010a 4C21     		movs	r1, #76
 302 010c 2046     		mov	r0, r4
 303 010e FFF7FEFF 		bl	u8x8_gpio_call
 304              	.LVL34:
 305              	.LBE177:
 306              	.LBE176:
 307              	.LBE171:
 308              	.LBE170:
 309              	.LBB181:
 310              	.LBB182:
 537:..\u8g2-master\csrc/u8x8_byte.c ****     i2c_read_sda(u8x8);
 311              		.loc 1 537 0
 312 0112 05F00403 		and	r3, r5, #4
 313 0116 03F0FF02 		and	r2, r3, #255
 314 011a 002B     		cmp	r3, #0
 315 011c 6FD1     		bne	.L26
 316              	.LVL35:
 317              	.LBB183:
 318              	.LBB184:
 499:..\u8g2-master\csrc/u8x8_byte.c **** }
ARM GAS  C:\Users\info\AppData\Local\Temp\ccAWUQ53.s 			page 17


 319              		.loc 1 499 0
 320 011e 4D21     		movs	r1, #77
 321 0120 2046     		mov	r0, r4
 322 0122 FFF7FEFF 		bl	u8x8_gpio_call
 323              	.LVL36:
 324              	.L14:
 325              	.LBE184:
 326              	.LBE183:
 542:..\u8g2-master\csrc/u8x8_byte.c ****   i2c_read_scl_and_delay(u8x8);
 327              		.loc 1 542 0
 328 0126 2046     		mov	r0, r4
 329 0128 FFF7FEFF 		bl	i2c_delay
 330              	.LVL37:
 331              	.LBB185:
 332              	.LBB186:
 480:..\u8g2-master\csrc/u8x8_byte.c **** 
 333              		.loc 1 480 0
 334 012c 0122     		movs	r2, #1
 335 012e 4C21     		movs	r1, #76
 336 0130 2046     		mov	r0, r4
 337 0132 FFF7FEFF 		bl	u8x8_gpio_call
 338              	.LVL38:
 482:..\u8g2-master\csrc/u8x8_byte.c **** }
 339              		.loc 1 482 0
 340 0136 2046     		mov	r0, r4
 341 0138 FFF7FEFF 		bl	i2c_delay
 342              	.LVL39:
 343              	.LBE186:
 344              	.LBE185:
 345              	.LBB187:
 346              	.LBB188:
 487:..\u8g2-master\csrc/u8x8_byte.c **** }
 347              		.loc 1 487 0
 348 013c 0022     		movs	r2, #0
 349 013e 4C21     		movs	r1, #76
 350 0140 2046     		mov	r0, r4
 351 0142 FFF7FEFF 		bl	u8x8_gpio_call
 352              	.LVL40:
 353              	.LBE188:
 354              	.LBE187:
 355              	.LBE182:
 356              	.LBE181:
 357              	.LBB192:
 358              	.LBB193:
 537:..\u8g2-master\csrc/u8x8_byte.c ****     i2c_read_sda(u8x8);
 359              		.loc 1 537 0
 360 0146 05F00203 		and	r3, r5, #2
 361 014a 03F0FF02 		and	r2, r3, #255
 362 014e 002B     		cmp	r3, #0
 363 0150 4FD1     		bne	.L27
 364              	.LVL41:
 365              	.LBB194:
 366              	.LBB195:
 499:..\u8g2-master\csrc/u8x8_byte.c **** }
 367              		.loc 1 499 0
 368 0152 4D21     		movs	r1, #77
 369 0154 2046     		mov	r0, r4
ARM GAS  C:\Users\info\AppData\Local\Temp\ccAWUQ53.s 			page 18


 370 0156 FFF7FEFF 		bl	u8x8_gpio_call
 371              	.LVL42:
 372              	.L16:
 373              	.LBE195:
 374              	.LBE194:
 542:..\u8g2-master\csrc/u8x8_byte.c ****   i2c_read_scl_and_delay(u8x8);
 375              		.loc 1 542 0
 376 015a 2046     		mov	r0, r4
 377 015c FFF7FEFF 		bl	i2c_delay
 378              	.LVL43:
 379              	.LBB196:
 380              	.LBB197:
 480:..\u8g2-master\csrc/u8x8_byte.c **** 
 381              		.loc 1 480 0
 382 0160 0122     		movs	r2, #1
 383 0162 4C21     		movs	r1, #76
 384 0164 2046     		mov	r0, r4
 385 0166 FFF7FEFF 		bl	u8x8_gpio_call
 386              	.LVL44:
 482:..\u8g2-master\csrc/u8x8_byte.c **** }
 387              		.loc 1 482 0
 388 016a 2046     		mov	r0, r4
 389 016c FFF7FEFF 		bl	i2c_delay
 390              	.LVL45:
 391              	.LBE197:
 392              	.LBE196:
 393              	.LBB198:
 394              	.LBB199:
 487:..\u8g2-master\csrc/u8x8_byte.c **** }
 395              		.loc 1 487 0
 396 0170 2046     		mov	r0, r4
 397 0172 0022     		movs	r2, #0
 398 0174 4C21     		movs	r1, #76
 399 0176 FFF7FEFF 		bl	u8x8_gpio_call
 400              	.LVL46:
 401              	.LBE199:
 402              	.LBE198:
 403              	.LBE193:
 404              	.LBE192:
 405              	.LBB203:
 406              	.LBB204:
 537:..\u8g2-master\csrc/u8x8_byte.c ****     i2c_read_sda(u8x8);
 407              		.loc 1 537 0
 408 017a 15F00102 		ands	r2, r5, #1
 409              	.LVL47:
 410              	.LBB205:
 411              	.LBB206:
 493:..\u8g2-master\csrc/u8x8_byte.c **** }
 412              		.loc 1 493 0
 413 017e 18BF     		it	ne
 414 0180 0122     		movne	r2, #1
 415              	.LVL48:
 416              	.LBE206:
 417              	.LBE205:
 418              	.LBB207:
 419              	.LBB208:
 499:..\u8g2-master\csrc/u8x8_byte.c **** }
ARM GAS  C:\Users\info\AppData\Local\Temp\ccAWUQ53.s 			page 19


 420              		.loc 1 499 0
 421 0182 4D21     		movs	r1, #77
 422 0184 2046     		mov	r0, r4
 423 0186 FFF7FEFF 		bl	u8x8_gpio_call
 424              	.LVL49:
 425              	.LBE208:
 426              	.LBE207:
 542:..\u8g2-master\csrc/u8x8_byte.c ****   i2c_read_scl_and_delay(u8x8);
 427              		.loc 1 542 0
 428 018a 2046     		mov	r0, r4
 429 018c FFF7FEFF 		bl	i2c_delay
 430              	.LVL50:
 431              	.LBB209:
 432              	.LBB210:
 480:..\u8g2-master\csrc/u8x8_byte.c **** 
 433              		.loc 1 480 0
 434 0190 0122     		movs	r2, #1
 435 0192 4C21     		movs	r1, #76
 436 0194 2046     		mov	r0, r4
 437 0196 FFF7FEFF 		bl	u8x8_gpio_call
 438              	.LVL51:
 482:..\u8g2-master\csrc/u8x8_byte.c **** }
 439              		.loc 1 482 0
 440 019a 2046     		mov	r0, r4
 441 019c FFF7FEFF 		bl	i2c_delay
 442              	.LVL52:
 443              	.LBE210:
 444              	.LBE209:
 445              	.LBB211:
 446              	.LBB212:
 487:..\u8g2-master\csrc/u8x8_byte.c **** }
 447              		.loc 1 487 0
 448 01a0 2046     		mov	r0, r4
 449 01a2 0022     		movs	r2, #0
 450 01a4 4C21     		movs	r1, #76
 451 01a6 FFF7FEFF 		bl	u8x8_gpio_call
 452              	.LVL53:
 453              	.LBE212:
 454              	.LBE211:
 455              	.LBE204:
 456              	.LBE203:
 457              	.LBB213:
 458              	.LBB214:
 459              	.LBB215:
 460              	.LBB216:
 493:..\u8g2-master\csrc/u8x8_byte.c **** }
 461              		.loc 1 493 0
 462 01aa 0122     		movs	r2, #1
 463 01ac 4D21     		movs	r1, #77
 464 01ae 2046     		mov	r0, r4
 465 01b0 FFF7FEFF 		bl	u8x8_gpio_call
 466              	.LVL54:
 467              	.LBE216:
 468              	.LBE215:
 552:..\u8g2-master\csrc/u8x8_byte.c ****   i2c_read_scl_and_delay(u8x8);
 469              		.loc 1 552 0
 470 01b4 2046     		mov	r0, r4
ARM GAS  C:\Users\info\AppData\Local\Temp\ccAWUQ53.s 			page 20


 471 01b6 FFF7FEFF 		bl	i2c_delay
 472              	.LVL55:
 473              	.LBB217:
 474              	.LBB218:
 480:..\u8g2-master\csrc/u8x8_byte.c **** 
 475              		.loc 1 480 0
 476 01ba 0122     		movs	r2, #1
 477 01bc 4C21     		movs	r1, #76
 478 01be 2046     		mov	r0, r4
 479 01c0 FFF7FEFF 		bl	u8x8_gpio_call
 480              	.LVL56:
 482:..\u8g2-master\csrc/u8x8_byte.c **** }
 481              		.loc 1 482 0
 482 01c4 2046     		mov	r0, r4
 483 01c6 FFF7FEFF 		bl	i2c_delay
 484              	.LVL57:
 485              	.LBE218:
 486              	.LBE217:
 487              	.LBB219:
 488              	.LBB220:
 493:..\u8g2-master\csrc/u8x8_byte.c **** }
 489              		.loc 1 493 0
 490 01ca 0122     		movs	r2, #1
 491 01cc 4D21     		movs	r1, #77
 492 01ce 2046     		mov	r0, r4
 493 01d0 FFF7FEFF 		bl	u8x8_gpio_call
 494              	.LVL58:
 495              	.LBE220:
 496              	.LBE219:
 555:..\u8g2-master\csrc/u8x8_byte.c ****   i2c_clear_scl(u8x8);
 497              		.loc 1 555 0
 498 01d4 2046     		mov	r0, r4
 499 01d6 FFF7FEFF 		bl	i2c_delay
 500              	.LVL59:
 501              	.LBB221:
 502              	.LBB222:
 487:..\u8g2-master\csrc/u8x8_byte.c **** }
 503              		.loc 1 487 0
 504 01da 2046     		mov	r0, r4
 505              	.LBE222:
 506              	.LBE221:
 507              	.LBE214:
 508              	.LBE213:
 562:..\u8g2-master\csrc/u8x8_byte.c ****   i2c_write_bit(u8x8, b & 128);
 563:..\u8g2-master\csrc/u8x8_byte.c ****   i2c_write_bit(u8x8, b & 64);
 564:..\u8g2-master\csrc/u8x8_byte.c ****   i2c_write_bit(u8x8, b & 32);
 565:..\u8g2-master\csrc/u8x8_byte.c ****   i2c_write_bit(u8x8, b & 16);
 566:..\u8g2-master\csrc/u8x8_byte.c ****   i2c_write_bit(u8x8, b & 8);
 567:..\u8g2-master\csrc/u8x8_byte.c ****   i2c_write_bit(u8x8, b & 4);
 568:..\u8g2-master\csrc/u8x8_byte.c ****   i2c_write_bit(u8x8, b & 2);
 569:..\u8g2-master\csrc/u8x8_byte.c ****   i2c_write_bit(u8x8, b & 1);
 570:..\u8g2-master\csrc/u8x8_byte.c ****     
 571:..\u8g2-master\csrc/u8x8_byte.c ****   /* read ack from client */
 572:..\u8g2-master\csrc/u8x8_byte.c ****   /* 0: ack was given by client */
 573:..\u8g2-master\csrc/u8x8_byte.c ****   /* 1: nothing happend during ack cycle */  
 574:..\u8g2-master\csrc/u8x8_byte.c ****   i2c_read_bit(u8x8);
 575:..\u8g2-master\csrc/u8x8_byte.c **** }
ARM GAS  C:\Users\info\AppData\Local\Temp\ccAWUQ53.s 			page 21


 509              		.loc 1 575 0
 510 01dc BDE83840 		pop	{r3, r4, r5, lr}
 511              		.cfi_remember_state
 512              		.cfi_restore 14
 513              		.cfi_restore 5
 514              		.cfi_restore 4
 515              		.cfi_restore 3
 516              		.cfi_def_cfa_offset 0
 517              	.LVL60:
 518              	.LBB226:
 519              	.LBB225:
 520              	.LBB224:
 521              	.LBB223:
 487:..\u8g2-master\csrc/u8x8_byte.c **** }
 522              		.loc 1 487 0
 523 01e0 0022     		movs	r2, #0
 524 01e2 4C21     		movs	r1, #76
 525 01e4 FFF7FEBF 		b	u8x8_gpio_call
 526              	.LVL61:
 527              	.L21:
 528              		.cfi_restore_state
 529              	.LBE223:
 530              	.LBE224:
 531              	.LBE225:
 532              	.LBE226:
 533              	.LBB227:
 534              	.LBB135:
 535              	.LBB132:
 536              	.LBB133:
 493:..\u8g2-master\csrc/u8x8_byte.c **** }
 537              		.loc 1 493 0
 538 01e8 0122     		movs	r2, #1
 539 01ea 4D21     		movs	r1, #77
 540              	.LVL62:
 541 01ec FFF7FEFF 		bl	u8x8_gpio_call
 542              	.LVL63:
 543 01f0 13E7     		b	.L4
 544              	.LVL64:
 545              	.L27:
 546              	.LBE133:
 547              	.LBE132:
 548              	.LBE135:
 549              	.LBE227:
 550              	.LBB228:
 551              	.LBB202:
 552              	.LBB200:
 553              	.LBB201:
 554 01f2 0122     		movs	r2, #1
 555 01f4 4D21     		movs	r1, #77
 556 01f6 2046     		mov	r0, r4
 557 01f8 FFF7FEFF 		bl	u8x8_gpio_call
 558              	.LVL65:
 559 01fc ADE7     		b	.L16
 560              	.LVL66:
 561              	.L26:
 562              	.LBE201:
 563              	.LBE200:
ARM GAS  C:\Users\info\AppData\Local\Temp\ccAWUQ53.s 			page 22


 564              	.LBE202:
 565              	.LBE228:
 566              	.LBB229:
 567              	.LBB191:
 568              	.LBB189:
 569              	.LBB190:
 570 01fe 0122     		movs	r2, #1
 571 0200 4D21     		movs	r1, #77
 572 0202 2046     		mov	r0, r4
 573 0204 FFF7FEFF 		bl	u8x8_gpio_call
 574              	.LVL67:
 575 0208 8DE7     		b	.L14
 576              	.LVL68:
 577              	.L25:
 578              	.LBE190:
 579              	.LBE189:
 580              	.LBE191:
 581              	.LBE229:
 582              	.LBB230:
 583              	.LBB180:
 584              	.LBB178:
 585              	.LBB179:
 586 020a 0122     		movs	r2, #1
 587 020c 4D21     		movs	r1, #77
 588 020e 2046     		mov	r0, r4
 589 0210 FFF7FEFF 		bl	u8x8_gpio_call
 590              	.LVL69:
 591 0214 6DE7     		b	.L12
 592              	.LVL70:
 593              	.L24:
 594              	.LBE179:
 595              	.LBE178:
 596              	.LBE180:
 597              	.LBE230:
 598              	.LBB231:
 599              	.LBB169:
 600              	.LBB167:
 601              	.LBB168:
 602 0216 0122     		movs	r2, #1
 603 0218 4D21     		movs	r1, #77
 604 021a 2046     		mov	r0, r4
 605 021c FFF7FEFF 		bl	u8x8_gpio_call
 606              	.LVL71:
 607 0220 4CE7     		b	.L10
 608              	.LVL72:
 609              	.L23:
 610              	.LBE168:
 611              	.LBE167:
 612              	.LBE169:
 613              	.LBE231:
 614              	.LBB232:
 615              	.LBB158:
 616              	.LBB156:
 617              	.LBB157:
 618 0222 0122     		movs	r2, #1
 619 0224 4D21     		movs	r1, #77
 620 0226 2046     		mov	r0, r4
ARM GAS  C:\Users\info\AppData\Local\Temp\ccAWUQ53.s 			page 23


 621 0228 FFF7FEFF 		bl	u8x8_gpio_call
 622              	.LVL73:
 623 022c 2BE7     		b	.L8
 624              	.LVL74:
 625              	.L22:
 626              	.LBE157:
 627              	.LBE156:
 628              	.LBE158:
 629              	.LBE232:
 630              	.LBB233:
 631              	.LBB147:
 632              	.LBB145:
 633              	.LBB146:
 634 022e 0122     		movs	r2, #1
 635 0230 4D21     		movs	r1, #77
 636 0232 2046     		mov	r0, r4
 637 0234 FFF7FEFF 		bl	u8x8_gpio_call
 638              	.LVL75:
 639 0238 0AE7     		b	.L6
 640              	.LBE146:
 641              	.LBE145:
 642              	.LBE147:
 643              	.LBE233:
 644              		.cfi_endproc
 645              	.LFE23:
 646              		.size	i2c_write_byte, .-i2c_write_byte
 647 023a 00BF     		.section	.text.u8x8_byte_SetDC,"ax",%progbits
 648              		.align	2
 649              		.global	u8x8_byte_SetDC
 650              		.thumb
 651              		.thumb_func
 652              		.type	u8x8_byte_SetDC, %function
 653              	u8x8_byte_SetDC:
 654              	.LFB0:
  40:..\u8g2-master\csrc/u8x8_byte.c ****   return u8x8->byte_cb(u8x8, U8X8_MSG_BYTE_SET_DC, dc, NULL);
 655              		.loc 1 40 0
 656              		.cfi_startproc
 657              		@ args = 0, pretend = 0, frame = 0
 658              		@ frame_needed = 0, uses_anonymous_args = 0
 659              		@ link register save eliminated.
 660              	.LVL76:
 661 0000 10B4     		push	{r4}
 662              		.cfi_def_cfa_offset 4
 663              		.cfi_offset 4, -4
  41:..\u8g2-master\csrc/u8x8_byte.c **** }
 664              		.loc 1 41 0
 665 0002 0469     		ldr	r4, [r0, #16]
 666 0004 0A46     		mov	r2, r1
 667 0006 A446     		mov	ip, r4
 668 0008 0023     		movs	r3, #0
 669 000a 2021     		movs	r1, #32
 670              	.LVL77:
  42:..\u8g2-master\csrc/u8x8_byte.c **** 
 671              		.loc 1 42 0
 672 000c 10BC     		pop	{r4}
 673              		.cfi_restore 4
 674              		.cfi_def_cfa_offset 0
ARM GAS  C:\Users\info\AppData\Local\Temp\ccAWUQ53.s 			page 24


  41:..\u8g2-master\csrc/u8x8_byte.c **** }
 675              		.loc 1 41 0
 676 000e 6047     		bx	ip
 677              	.LVL78:
 678              		.cfi_endproc
 679              	.LFE0:
 680              		.size	u8x8_byte_SetDC, .-u8x8_byte_SetDC
 681              		.section	.text.u8x8_byte_SendBytes,"ax",%progbits
 682              		.align	2
 683              		.global	u8x8_byte_SendBytes
 684              		.thumb
 685              		.thumb_func
 686              		.type	u8x8_byte_SendBytes, %function
 687              	u8x8_byte_SendBytes:
 688              	.LFB1:
  45:..\u8g2-master\csrc/u8x8_byte.c ****   return u8x8->byte_cb(u8x8, U8X8_MSG_BYTE_SEND, cnt, (void *)data);
 689              		.loc 1 45 0
 690              		.cfi_startproc
 691              		@ args = 0, pretend = 0, frame = 0
 692              		@ frame_needed = 0, uses_anonymous_args = 0
 693              		@ link register save eliminated.
 694              	.LVL79:
 695 0000 10B4     		push	{r4}
 696              		.cfi_def_cfa_offset 4
 697              		.cfi_offset 4, -4
  46:..\u8g2-master\csrc/u8x8_byte.c **** }
 698              		.loc 1 46 0
 699 0002 0469     		ldr	r4, [r0, #16]
 700 0004 1346     		mov	r3, r2
 701 0006 A446     		mov	ip, r4
 702 0008 0A46     		mov	r2, r1
 703              	.LVL80:
  47:..\u8g2-master\csrc/u8x8_byte.c **** 
 704              		.loc 1 47 0
 705 000a 10BC     		pop	{r4}
 706              		.cfi_restore 4
 707              		.cfi_def_cfa_offset 0
  46:..\u8g2-master\csrc/u8x8_byte.c **** }
 708              		.loc 1 46 0
 709 000c 1721     		movs	r1, #23
 710              	.LVL81:
 711 000e 6047     		bx	ip
 712              	.LVL82:
 713              		.cfi_endproc
 714              	.LFE1:
 715              		.size	u8x8_byte_SendBytes, .-u8x8_byte_SendBytes
 716              		.section	.text.u8x8_byte_SendByte,"ax",%progbits
 717              		.align	2
 718              		.global	u8x8_byte_SendByte
 719              		.thumb
 720              		.thumb_func
 721              		.type	u8x8_byte_SendByte, %function
 722              	u8x8_byte_SendByte:
 723              	.LFB2:
  50:..\u8g2-master\csrc/u8x8_byte.c ****   return u8x8_byte_SendBytes(u8x8, 1, &byte);
 724              		.loc 1 50 0
 725              		.cfi_startproc
ARM GAS  C:\Users\info\AppData\Local\Temp\ccAWUQ53.s 			page 25


 726              		@ args = 0, pretend = 0, frame = 8
 727              		@ frame_needed = 0, uses_anonymous_args = 0
 728              	.LVL83:
 729 0000 00B5     		push	{lr}
 730              		.cfi_def_cfa_offset 4
 731              		.cfi_offset 14, -4
 732 0002 83B0     		sub	sp, sp, #12
 733              		.cfi_def_cfa_offset 16
  50:..\u8g2-master\csrc/u8x8_byte.c ****   return u8x8_byte_SendBytes(u8x8, 1, &byte);
 734              		.loc 1 50 0
 735 0004 02AA     		add	r2, sp, #8
 736 0006 02F8011D 		strb	r1, [r2, #-1]!
  51:..\u8g2-master\csrc/u8x8_byte.c **** }
 737              		.loc 1 51 0
 738 000a 0121     		movs	r1, #1
 739              	.LVL84:
 740 000c FFF7FEFF 		bl	u8x8_byte_SendBytes
 741              	.LVL85:
  52:..\u8g2-master\csrc/u8x8_byte.c **** 
 742              		.loc 1 52 0
 743 0010 03B0     		add	sp, sp, #12
 744              		.cfi_def_cfa_offset 4
 745              		@ sp needed
 746 0012 5DF804FB 		ldr	pc, [sp], #4
 747              		.cfi_endproc
 748              	.LFE2:
 749              		.size	u8x8_byte_SendByte, .-u8x8_byte_SendByte
 750 0016 00BF     		.section	.text.u8x8_byte_StartTransfer,"ax",%progbits
 751              		.align	2
 752              		.global	u8x8_byte_StartTransfer
 753              		.thumb
 754              		.thumb_func
 755              		.type	u8x8_byte_StartTransfer, %function
 756              	u8x8_byte_StartTransfer:
 757              	.LFB3:
  55:..\u8g2-master\csrc/u8x8_byte.c ****   return u8x8->byte_cb(u8x8, U8X8_MSG_BYTE_START_TRANSFER, 0, NULL);
 758              		.loc 1 55 0
 759              		.cfi_startproc
 760              		@ args = 0, pretend = 0, frame = 0
 761              		@ frame_needed = 0, uses_anonymous_args = 0
 762              		@ link register save eliminated.
 763              	.LVL86:
 764 0000 10B4     		push	{r4}
 765              		.cfi_def_cfa_offset 4
 766              		.cfi_offset 4, -4
  56:..\u8g2-master\csrc/u8x8_byte.c **** }
 767              		.loc 1 56 0
 768 0002 0469     		ldr	r4, [r0, #16]
 769 0004 0023     		movs	r3, #0
 770 0006 A446     		mov	ip, r4
 771 0008 1A46     		mov	r2, r3
 772 000a 1821     		movs	r1, #24
  57:..\u8g2-master\csrc/u8x8_byte.c **** 
 773              		.loc 1 57 0
 774 000c 10BC     		pop	{r4}
 775              		.cfi_restore 4
 776              		.cfi_def_cfa_offset 0
ARM GAS  C:\Users\info\AppData\Local\Temp\ccAWUQ53.s 			page 26


  56:..\u8g2-master\csrc/u8x8_byte.c **** }
 777              		.loc 1 56 0
 778 000e 6047     		bx	ip
 779              	.LVL87:
 780              		.cfi_endproc
 781              	.LFE3:
 782              		.size	u8x8_byte_StartTransfer, .-u8x8_byte_StartTransfer
 783              		.section	.text.u8x8_byte_EndTransfer,"ax",%progbits
 784              		.align	2
 785              		.global	u8x8_byte_EndTransfer
 786              		.thumb
 787              		.thumb_func
 788              		.type	u8x8_byte_EndTransfer, %function
 789              	u8x8_byte_EndTransfer:
 790              	.LFB4:
  60:..\u8g2-master\csrc/u8x8_byte.c ****   return u8x8->byte_cb(u8x8, U8X8_MSG_BYTE_END_TRANSFER, 0, NULL);
 791              		.loc 1 60 0
 792              		.cfi_startproc
 793              		@ args = 0, pretend = 0, frame = 0
 794              		@ frame_needed = 0, uses_anonymous_args = 0
 795              		@ link register save eliminated.
 796              	.LVL88:
 797 0000 10B4     		push	{r4}
 798              		.cfi_def_cfa_offset 4
 799              		.cfi_offset 4, -4
  61:..\u8g2-master\csrc/u8x8_byte.c **** }
 800              		.loc 1 61 0
 801 0002 0469     		ldr	r4, [r0, #16]
 802 0004 0023     		movs	r3, #0
 803 0006 A446     		mov	ip, r4
 804 0008 1A46     		mov	r2, r3
 805 000a 1921     		movs	r1, #25
  62:..\u8g2-master\csrc/u8x8_byte.c **** 
 806              		.loc 1 62 0
 807 000c 10BC     		pop	{r4}
 808              		.cfi_restore 4
 809              		.cfi_def_cfa_offset 0
  61:..\u8g2-master\csrc/u8x8_byte.c **** }
 810              		.loc 1 61 0
 811 000e 6047     		bx	ip
 812              	.LVL89:
 813              		.cfi_endproc
 814              	.LFE4:
 815              		.size	u8x8_byte_EndTransfer, .-u8x8_byte_EndTransfer
 816              		.section	.text.u8x8_byte_empty,"ax",%progbits
 817              		.align	2
 818              		.global	u8x8_byte_empty
 819              		.thumb
 820              		.thumb_func
 821              		.type	u8x8_byte_empty, %function
 822              	u8x8_byte_empty:
 823              	.LFB5:
  67:..\u8g2-master\csrc/u8x8_byte.c ****   switch(msg)
 824              		.loc 1 67 0
 825              		.cfi_startproc
 826              		@ args = 0, pretend = 0, frame = 0
 827              		@ frame_needed = 0, uses_anonymous_args = 0
ARM GAS  C:\Users\info\AppData\Local\Temp\ccAWUQ53.s 			page 27


 828              		@ link register save eliminated.
 829              	.LVL90:
  78:..\u8g2-master\csrc/u8x8_byte.c **** 
 830              		.loc 1 78 0
 831 0000 0120     		movs	r0, #1
 832              	.LVL91:
 833 0002 7047     		bx	lr
 834              		.cfi_endproc
 835              	.LFE5:
 836              		.size	u8x8_byte_empty, .-u8x8_byte_empty
 837              		.section	.text.u8x8_byte_4wire_sw_spi,"ax",%progbits
 838              		.align	2
 839              		.global	u8x8_byte_4wire_sw_spi
 840              		.thumb
 841              		.thumb_func
 842              		.type	u8x8_byte_4wire_sw_spi, %function
 843              	u8x8_byte_4wire_sw_spi:
 844              	.LFB6:
 108:..\u8g2-master\csrc/u8x8_byte.c ****   uint8_t i, b;
 845              		.loc 1 108 0
 846              		.cfi_startproc
 847              		@ args = 0, pretend = 0, frame = 0
 848              		@ frame_needed = 0, uses_anonymous_args = 0
 849              	.LVL92:
 114:..\u8g2-master\csrc/u8x8_byte.c ****   {
 850              		.loc 1 114 0
 851 0000 1439     		subs	r1, r1, #20
 852              	.LVL93:
 108:..\u8g2-master\csrc/u8x8_byte.c ****   uint8_t i, b;
 853              		.loc 1 108 0
 854 0002 2DE9F047 		push	{r4, r5, r6, r7, r8, r9, r10, lr}
 855              		.cfi_def_cfa_offset 32
 856              		.cfi_offset 4, -32
 857              		.cfi_offset 5, -28
 858              		.cfi_offset 6, -24
 859              		.cfi_offset 7, -20
 860              		.cfi_offset 8, -16
 861              		.cfi_offset 9, -12
 862              		.cfi_offset 10, -8
 863              		.cfi_offset 14, -4
 108:..\u8g2-master\csrc/u8x8_byte.c ****   uint8_t i, b;
 864              		.loc 1 108 0
 865 0006 9946     		mov	r9, r3
 866 0008 0446     		mov	r4, r0
 111:..\u8g2-master\csrc/u8x8_byte.c ****   uint8_t not_takeover_edge = 1 - takeover_edge;
 867              		.loc 1 111 0
 868 000a 0368     		ldr	r3, [r0]
 869              	.LVL94:
 114:..\u8g2-master\csrc/u8x8_byte.c ****   {
 870              		.loc 1 114 0
 871 000c 0C29     		cmp	r1, #12
 872 000e 7BD8     		bhi	.L54
 873 0010 DFE801F0 		tbb	[pc, r1]
 874              	.LVL95:
 875              	.L42:
 876 0014 0E       		.byte	(.L41-.L42)/2
 877 0015 7A       		.byte	(.L54-.L42)/2
ARM GAS  C:\Users\info\AppData\Local\Temp\ccAWUQ53.s 			page 28


 878 0016 7A       		.byte	(.L54-.L42)/2
 879 0017 1E       		.byte	(.L43-.L42)/2
 880 0018 5C       		.byte	(.L44-.L42)/2
 881 0019 6B       		.byte	(.L45-.L42)/2
 882 001a 7A       		.byte	(.L54-.L42)/2
 883 001b 7A       		.byte	(.L54-.L42)/2
 884 001c 7A       		.byte	(.L54-.L42)/2
 885 001d 7A       		.byte	(.L54-.L42)/2
 886 001e 7A       		.byte	(.L54-.L42)/2
 887 001f 7A       		.byte	(.L54-.L42)/2
 888 0020 07       		.byte	(.L46-.L42)/2
 889 0021 00       		.p2align 1
 890              	.L46:
 148:..\u8g2-master\csrc/u8x8_byte.c ****       break;
 891              		.loc 1 148 0
 892 0022 2046     		mov	r0, r4
 893 0024 4A21     		movs	r1, #74
 894 0026 FFF7FEFF 		bl	u8x8_gpio_call
 895              	.LVL96:
 161:..\u8g2-master\csrc/u8x8_byte.c **** }
 896              		.loc 1 161 0
 897 002a 0120     		movs	r0, #1
 149:..\u8g2-master\csrc/u8x8_byte.c ****     case U8X8_MSG_BYTE_START_TRANSFER:
 898              		.loc 1 149 0
 899 002c BDE8F087 		pop	{r4, r5, r6, r7, r8, r9, r10, pc}
 900              	.LVL97:
 901              	.L41:
 141:..\u8g2-master\csrc/u8x8_byte.c ****       /* no wait required here */
 902              		.loc 1 141 0
 903 0030 5A78     		ldrb	r2, [r3, #1]	@ zero_extendqisi2
 904              	.LVL98:
 905 0032 2046     		mov	r0, r4
 906 0034 4921     		movs	r1, #73
 907 0036 FFF7FEFF 		bl	u8x8_gpio_call
 908              	.LVL99:
 145:..\u8g2-master\csrc/u8x8_byte.c ****       break;
 909              		.loc 1 145 0
 910 003a 2368     		ldr	r3, [r4]
 911 003c 2046     		mov	r0, r4
 912 003e 1A7B     		ldrb	r2, [r3, #12]	@ zero_extendqisi2
 913 0040 4021     		movs	r1, #64
 914 0042 02F00102 		and	r2, r2, #1
 915 0046 FFF7FEFF 		bl	u8x8_gpio_call
 916              	.LVL100:
 161:..\u8g2-master\csrc/u8x8_byte.c **** }
 917              		.loc 1 161 0
 918 004a 0120     		movs	r0, #1
 146:..\u8g2-master\csrc/u8x8_byte.c ****     case U8X8_MSG_BYTE_SET_DC:
 919              		.loc 1 146 0
 920 004c BDE8F087 		pop	{r4, r5, r6, r7, r8, r9, r10, pc}
 921              	.LVL101:
 922              	.L43:
 118:..\u8g2-master\csrc/u8x8_byte.c ****       {
 923              		.loc 1 118 0
 924 0050 002A     		cmp	r2, #0
 925 0052 47D0     		beq	.L59
 926 0054 02F1FF3A 		add	r10, r2, #-1
ARM GAS  C:\Users\info\AppData\Local\Temp\ccAWUQ53.s 			page 29


 111:..\u8g2-master\csrc/u8x8_byte.c ****   uint8_t not_takeover_edge = 1 - takeover_edge;
 927              		.loc 1 111 0
 928 0058 1F7B     		ldrb	r7, [r3, #12]	@ zero_extendqisi2
 929 005a 5FFA8AFA 		uxtb	r10, r10
 930 005e 0AF1010A 		add	r10, r10, #1
 931 0062 07F00107 		and	r7, r7, #1
 932 0066 CA44     		add	r10, r10, r9
 933 0068 C7F10108 		rsb	r8, r7, #1
 934              	.LVL102:
 935              	.L52:
 120:..\u8g2-master\csrc/u8x8_byte.c **** 	data++;
 936              		.loc 1 120 0
 937 006c 19F8016B 		ldrb	r6, [r9], #1	@ zero_extendqisi2
 938              	.LVL103:
 121:..\u8g2-master\csrc/u8x8_byte.c **** 	arg_int--;
 939              		.loc 1 121 0
 940 0070 0825     		movs	r5, #8
 941              	.LVL104:
 942              	.L49:
 125:..\u8g2-master\csrc/u8x8_byte.c **** 	    u8x8_gpio_SetSPIData(u8x8, 1);
 943              		.loc 1 125 0
 944 0072 16F0800F 		tst	r6, #128
 128:..\u8g2-master\csrc/u8x8_byte.c **** 	  b <<= 1;
 945              		.loc 1 128 0
 946 0076 4FF00002 		mov	r2, #0
 947 007a 4FF04101 		mov	r1, #65
 126:..\u8g2-master\csrc/u8x8_byte.c **** 	  else
 948              		.loc 1 126 0
 949 007e 18BF     		it	ne
 950 0080 0122     		movne	r2, #1
 128:..\u8g2-master\csrc/u8x8_byte.c **** 	  b <<= 1;
 951              		.loc 1 128 0
 952 0082 2046     		mov	r0, r4
 953 0084 FFF7FEFF 		bl	u8x8_gpio_call
 954              	.LVL105:
 131:..\u8g2-master\csrc/u8x8_byte.c **** 	  u8x8_gpio_Delay(u8x8, U8X8_MSG_DELAY_NANO, u8x8->display_info->sda_setup_time_ns);
 955              		.loc 1 131 0
 956 0088 5FFA88F2 		uxtb	r2, r8
 957 008c 4021     		movs	r1, #64
 958 008e 2046     		mov	r0, r4
 959 0090 FFF7FEFF 		bl	u8x8_gpio_call
 960              	.LVL106:
 132:..\u8g2-master\csrc/u8x8_byte.c **** 	  u8x8_gpio_SetSPIClock(u8x8, takeover_edge);
 961              		.loc 1 132 0
 962 0094 2368     		ldr	r3, [r4]
 963 0096 2C21     		movs	r1, #44
 964 0098 9A79     		ldrb	r2, [r3, #6]	@ zero_extendqisi2
 965 009a 2046     		mov	r0, r4
 966 009c FFF7FEFF 		bl	u8x8_gpio_call
 967              	.LVL107:
 133:..\u8g2-master\csrc/u8x8_byte.c **** 	  u8x8_gpio_Delay(u8x8, U8X8_MSG_DELAY_NANO, u8x8->display_info->sck_pulse_width_ns);
 968              		.loc 1 133 0
 969 00a0 3A46     		mov	r2, r7
 970 00a2 4021     		movs	r1, #64
 971 00a4 2046     		mov	r0, r4
 972 00a6 FFF7FEFF 		bl	u8x8_gpio_call
 973              	.LVL108:
ARM GAS  C:\Users\info\AppData\Local\Temp\ccAWUQ53.s 			page 30


 134:..\u8g2-master\csrc/u8x8_byte.c **** 	}    
 974              		.loc 1 134 0
 975 00aa 2368     		ldr	r3, [r4]
 976 00ac 2C21     		movs	r1, #44
 977 00ae DA79     		ldrb	r2, [r3, #7]	@ zero_extendqisi2
 978 00b0 2046     		mov	r0, r4
 979 00b2 FFF7FEFF 		bl	u8x8_gpio_call
 980              	.LVL109:
 981 00b6 6B1E     		subs	r3, r5, #1
 129:..\u8g2-master\csrc/u8x8_byte.c **** 	  
 982              		.loc 1 129 0
 983 00b8 7600     		lsls	r6, r6, #1
 984              	.LVL110:
 123:..\u8g2-master\csrc/u8x8_byte.c **** 	{
 985              		.loc 1 123 0
 986 00ba 13F0FF05 		ands	r5, r3, #255
 129:..\u8g2-master\csrc/u8x8_byte.c **** 	  
 987              		.loc 1 129 0
 988 00be F6B2     		uxtb	r6, r6
 989              	.LVL111:
 123:..\u8g2-master\csrc/u8x8_byte.c **** 	{
 990              		.loc 1 123 0
 991 00c0 D7D1     		bne	.L49
 118:..\u8g2-master\csrc/u8x8_byte.c ****       {
 992              		.loc 1 118 0
 993 00c2 D145     		cmp	r9, r10
 994 00c4 D2D1     		bne	.L52
 161:..\u8g2-master\csrc/u8x8_byte.c **** }
 995              		.loc 1 161 0
 996 00c6 0120     		movs	r0, #1
 153:..\u8g2-master\csrc/u8x8_byte.c ****     case U8X8_MSG_BYTE_END_TRANSFER:
 997              		.loc 1 153 0
 998 00c8 BDE8F087 		pop	{r4, r5, r6, r7, r8, r9, r10, pc}
 999              	.LVL112:
 1000              	.L44:
 151:..\u8g2-master\csrc/u8x8_byte.c ****       u8x8->gpio_and_delay_cb(u8x8, U8X8_MSG_DELAY_NANO, u8x8->display_info->post_chip_enable_wait_
 1001              		.loc 1 151 0
 1002 00cc 1A78     		ldrb	r2, [r3]	@ zero_extendqisi2
 1003              	.LVL113:
 1004 00ce 4921     		movs	r1, #73
 1005 00d0 2046     		mov	r0, r4
 1006 00d2 FFF7FEFF 		bl	u8x8_gpio_call
 1007              	.LVL114:
 152:..\u8g2-master\csrc/u8x8_byte.c ****       break;
 1008              		.loc 1 152 0
 1009 00d6 2368     		ldr	r3, [r4]
 1010 00d8 6569     		ldr	r5, [r4, #20]
 1011 00da 9A78     		ldrb	r2, [r3, #2]	@ zero_extendqisi2
 1012 00dc 2046     		mov	r0, r4
 1013 00de 0023     		movs	r3, #0
 1014 00e0 2C21     		movs	r1, #44
 1015 00e2 A847     		blx	r5
 1016              	.LVL115:
 1017              	.L59:
 161:..\u8g2-master\csrc/u8x8_byte.c **** }
 1018              		.loc 1 161 0
 1019 00e4 0120     		movs	r0, #1
ARM GAS  C:\Users\info\AppData\Local\Temp\ccAWUQ53.s 			page 31


 153:..\u8g2-master\csrc/u8x8_byte.c ****     case U8X8_MSG_BYTE_END_TRANSFER:
 1020              		.loc 1 153 0
 1021 00e6 BDE8F087 		pop	{r4, r5, r6, r7, r8, r9, r10, pc}
 1022              	.LVL116:
 1023              	.L45:
 155:..\u8g2-master\csrc/u8x8_byte.c ****       u8x8_gpio_SetCS(u8x8, u8x8->display_info->chip_disable_level);
 1024              		.loc 1 155 0
 1025 00ea DA78     		ldrb	r2, [r3, #3]	@ zero_extendqisi2
 1026              	.LVL117:
 1027 00ec 6569     		ldr	r5, [r4, #20]
 1028 00ee 0023     		movs	r3, #0
 1029              	.LVL118:
 1030 00f0 2C21     		movs	r1, #44
 1031 00f2 2046     		mov	r0, r4
 1032 00f4 A847     		blx	r5
 1033              	.LVL119:
 156:..\u8g2-master\csrc/u8x8_byte.c ****       break;
 1034              		.loc 1 156 0
 1035 00f6 2368     		ldr	r3, [r4]
 1036 00f8 2046     		mov	r0, r4
 1037 00fa 5A78     		ldrb	r2, [r3, #1]	@ zero_extendqisi2
 1038 00fc 4921     		movs	r1, #73
 1039 00fe FFF7FEFF 		bl	u8x8_gpio_call
 1040              	.LVL120:
 161:..\u8g2-master\csrc/u8x8_byte.c **** }
 1041              		.loc 1 161 0
 1042 0102 0120     		movs	r0, #1
 157:..\u8g2-master\csrc/u8x8_byte.c ****     default:
 1043              		.loc 1 157 0
 1044 0104 BDE8F087 		pop	{r4, r5, r6, r7, r8, r9, r10, pc}
 1045              	.LVL121:
 1046              	.L54:
 159:..\u8g2-master\csrc/u8x8_byte.c ****   }
 1047              		.loc 1 159 0
 1048 0108 0020     		movs	r0, #0
 162:..\u8g2-master\csrc/u8x8_byte.c **** 
 1049              		.loc 1 162 0
 1050 010a BDE8F087 		pop	{r4, r5, r6, r7, r8, r9, r10, pc}
 1051              		.cfi_endproc
 1052              	.LFE6:
 1053              		.size	u8x8_byte_4wire_sw_spi, .-u8x8_byte_4wire_sw_spi
 1054 010e 00BF     		.section	.text.u8x8_byte_8bit_6800mode,"ax",%progbits
 1055              		.align	2
 1056              		.global	u8x8_byte_8bit_6800mode
 1057              		.thumb
 1058              		.thumb_func
 1059              		.type	u8x8_byte_8bit_6800mode, %function
 1060              	u8x8_byte_8bit_6800mode:
 1061              	.LFB7:
 167:..\u8g2-master\csrc/u8x8_byte.c ****   uint8_t i, b;
 1062              		.loc 1 167 0
 1063              		.cfi_startproc
 1064              		@ args = 0, pretend = 0, frame = 0
 1065              		@ frame_needed = 0, uses_anonymous_args = 0
 1066              	.LVL122:
 171:..\u8g2-master\csrc/u8x8_byte.c ****   {
 1067              		.loc 1 171 0
ARM GAS  C:\Users\info\AppData\Local\Temp\ccAWUQ53.s 			page 32


 1068 0000 1439     		subs	r1, r1, #20
 1069              	.LVL123:
 167:..\u8g2-master\csrc/u8x8_byte.c ****   uint8_t i, b;
 1070              		.loc 1 167 0
 1071 0002 2DE9F041 		push	{r4, r5, r6, r7, r8, lr}
 1072              		.cfi_def_cfa_offset 24
 1073              		.cfi_offset 4, -24
 1074              		.cfi_offset 5, -20
 1075              		.cfi_offset 6, -16
 1076              		.cfi_offset 7, -12
 1077              		.cfi_offset 8, -8
 1078              		.cfi_offset 14, -4
 167:..\u8g2-master\csrc/u8x8_byte.c ****   uint8_t i, b;
 1079              		.loc 1 167 0
 1080 0006 0646     		mov	r6, r0
 1081 0008 1F46     		mov	r7, r3
 171:..\u8g2-master\csrc/u8x8_byte.c ****   {
 1082              		.loc 1 171 0
 1083 000a 0C29     		cmp	r1, #12
 1084 000c 6CD8     		bhi	.L73
 1085 000e DFE801F0 		tbb	[pc, r1]
 1086              	.LVL124:
 1087              	.L64:
 1088 0012 0D       		.byte	(.L63-.L64)/2
 1089 0013 6B       		.byte	(.L73-.L64)/2
 1090 0014 6B       		.byte	(.L73-.L64)/2
 1091 0015 1A       		.byte	(.L65-.L64)/2
 1092 0016 4D       		.byte	(.L66-.L64)/2
 1093 0017 5C       		.byte	(.L67-.L64)/2
 1094 0018 6B       		.byte	(.L73-.L64)/2
 1095 0019 6B       		.byte	(.L73-.L64)/2
 1096 001a 6B       		.byte	(.L73-.L64)/2
 1097 001b 6B       		.byte	(.L73-.L64)/2
 1098 001c 6B       		.byte	(.L73-.L64)/2
 1099 001d 6B       		.byte	(.L73-.L64)/2
 1100 001e 07       		.byte	(.L68-.L64)/2
 1101 001f 00       		.p2align 1
 1102              	.L68:
 200:..\u8g2-master\csrc/u8x8_byte.c ****       break;
 1103              		.loc 1 200 0
 1104 0020 4A21     		movs	r1, #74
 1105 0022 FFF7FEFF 		bl	u8x8_gpio_call
 1106              	.LVL125:
 213:..\u8g2-master\csrc/u8x8_byte.c **** }
 1107              		.loc 1 213 0
 1108 0026 0120     		movs	r0, #1
 201:..\u8g2-master\csrc/u8x8_byte.c ****     case U8X8_MSG_BYTE_START_TRANSFER:
 1109              		.loc 1 201 0
 1110 0028 BDE8F081 		pop	{r4, r5, r6, r7, r8, pc}
 1111              	.LVL126:
 1112              	.L63:
 195:..\u8g2-master\csrc/u8x8_byte.c ****       /* ensure that the enable signal is high */
 1113              		.loc 1 195 0
 1114 002c 0368     		ldr	r3, [r0]
 1115 002e 4921     		movs	r1, #73
 1116 0030 5A78     		ldrb	r2, [r3, #1]	@ zero_extendqisi2
 1117              	.LVL127:
ARM GAS  C:\Users\info\AppData\Local\Temp\ccAWUQ53.s 			page 33


 1118 0032 FFF7FEFF 		bl	u8x8_gpio_call
 1119              	.LVL128:
 197:..\u8g2-master\csrc/u8x8_byte.c ****       break;
 1120              		.loc 1 197 0
 1121 0036 3046     		mov	r0, r6
 1122 0038 0022     		movs	r2, #0
 1123 003a 4821     		movs	r1, #72
 1124 003c FFF7FEFF 		bl	u8x8_gpio_call
 1125              	.LVL129:
 213:..\u8g2-master\csrc/u8x8_byte.c **** }
 1126              		.loc 1 213 0
 1127 0040 0120     		movs	r0, #1
 198:..\u8g2-master\csrc/u8x8_byte.c ****     case U8X8_MSG_BYTE_SET_DC:
 1128              		.loc 1 198 0
 1129 0042 BDE8F081 		pop	{r4, r5, r6, r7, r8, pc}
 1130              	.LVL130:
 1131              	.L65:
 175:..\u8g2-master\csrc/u8x8_byte.c ****       {
 1132              		.loc 1 175 0
 1133 0046 002A     		cmp	r2, #0
 1134 0048 3CD0     		beq	.L77
 1135 004a 02F1FF38 		add	r8, r2, #-1
 1136 004e 5FFA88F8 		uxtb	r8, r8
 1137 0052 08F10108 		add	r8, r8, #1
 1138 0056 B844     		add	r8, r8, r7
 1139              	.LVL131:
 1140              	.L71:
 177:..\u8g2-master\csrc/u8x8_byte.c **** 	data++;
 1141              		.loc 1 177 0
 1142 0058 17F8015B 		ldrb	r5, [r7], #1	@ zero_extendqisi2
 1143              	.LVL132:
 180:..\u8g2-master\csrc/u8x8_byte.c **** 	{
 1144              		.loc 1 180 0
 1145 005c 4024     		movs	r4, #64
 1146              	.LVL133:
 1147              	.L70:
 182:..\u8g2-master\csrc/u8x8_byte.c **** 	  b >>= 1;
 1148              		.loc 1 182 0 discriminator 3
 1149 005e 2146     		mov	r1, r4
 180:..\u8g2-master\csrc/u8x8_byte.c **** 	{
 1150              		.loc 1 180 0 discriminator 3
 1151 0060 0134     		adds	r4, r4, #1
 1152              	.LVL134:
 182:..\u8g2-master\csrc/u8x8_byte.c **** 	  b >>= 1;
 1153              		.loc 1 182 0 discriminator 3
 1154 0062 05F00102 		and	r2, r5, #1
 1155 0066 3046     		mov	r0, r6
 180:..\u8g2-master\csrc/u8x8_byte.c **** 	{
 1156              		.loc 1 180 0 discriminator 3
 1157 0068 E4B2     		uxtb	r4, r4
 182:..\u8g2-master\csrc/u8x8_byte.c **** 	  b >>= 1;
 1158              		.loc 1 182 0 discriminator 3
 1159 006a FFF7FEFF 		bl	u8x8_gpio_call
 1160              	.LVL135:
 180:..\u8g2-master\csrc/u8x8_byte.c **** 	{
 1161              		.loc 1 180 0 discriminator 3
 1162 006e 482C     		cmp	r4, #72
ARM GAS  C:\Users\info\AppData\Local\Temp\ccAWUQ53.s 			page 34


 183:..\u8g2-master\csrc/u8x8_byte.c **** 	}    
 1163              		.loc 1 183 0 discriminator 3
 1164 0070 4FEA5505 		lsr	r5, r5, #1
 1165              	.LVL136:
 180:..\u8g2-master\csrc/u8x8_byte.c **** 	{
 1166              		.loc 1 180 0 discriminator 3
 1167 0074 F3D1     		bne	.L70
 186:..\u8g2-master\csrc/u8x8_byte.c **** 	u8x8_gpio_call(u8x8, U8X8_MSG_GPIO_E, 1);
 1168              		.loc 1 186 0
 1169 0076 3368     		ldr	r3, [r6]
 1170 0078 2C21     		movs	r1, #44
 1171 007a 9A7B     		ldrb	r2, [r3, #14]	@ zero_extendqisi2
 1172 007c 3046     		mov	r0, r6
 1173 007e FFF7FEFF 		bl	u8x8_gpio_call
 1174              	.LVL137:
 187:..\u8g2-master\csrc/u8x8_byte.c **** 	u8x8_gpio_Delay(u8x8, U8X8_MSG_DELAY_NANO, u8x8->display_info->write_pulse_width_ns);
 1175              		.loc 1 187 0
 1176 0082 0122     		movs	r2, #1
 1177 0084 2146     		mov	r1, r4
 1178 0086 3046     		mov	r0, r6
 1179 0088 FFF7FEFF 		bl	u8x8_gpio_call
 1180              	.LVL138:
 188:..\u8g2-master\csrc/u8x8_byte.c **** 	u8x8_gpio_call(u8x8, U8X8_MSG_GPIO_E, 0);
 1181              		.loc 1 188 0
 1182 008c 3368     		ldr	r3, [r6]
 1183 008e 2C21     		movs	r1, #44
 1184 0090 DA7B     		ldrb	r2, [r3, #15]	@ zero_extendqisi2
 1185 0092 3046     		mov	r0, r6
 1186 0094 FFF7FEFF 		bl	u8x8_gpio_call
 1187              	.LVL139:
 189:..\u8g2-master\csrc/u8x8_byte.c ****       }
 1188              		.loc 1 189 0
 1189 0098 2146     		mov	r1, r4
 1190 009a 0022     		movs	r2, #0
 1191 009c 3046     		mov	r0, r6
 1192 009e FFF7FEFF 		bl	u8x8_gpio_call
 1193              	.LVL140:
 175:..\u8g2-master\csrc/u8x8_byte.c ****       {
 1194              		.loc 1 175 0
 1195 00a2 B845     		cmp	r8, r7
 1196 00a4 D8D1     		bne	.L71
 213:..\u8g2-master\csrc/u8x8_byte.c **** }
 1197              		.loc 1 213 0
 1198 00a6 0120     		movs	r0, #1
 205:..\u8g2-master\csrc/u8x8_byte.c ****     case U8X8_MSG_BYTE_END_TRANSFER:
 1199              		.loc 1 205 0
 1200 00a8 BDE8F081 		pop	{r4, r5, r6, r7, r8, pc}
 1201              	.LVL141:
 1202              	.L66:
 203:..\u8g2-master\csrc/u8x8_byte.c ****       u8x8->gpio_and_delay_cb(u8x8, U8X8_MSG_DELAY_NANO, u8x8->display_info->post_chip_enable_wait_
 1203              		.loc 1 203 0
 1204 00ac 0368     		ldr	r3, [r0]
 1205 00ae 4921     		movs	r1, #73
 1206 00b0 1A78     		ldrb	r2, [r3]	@ zero_extendqisi2
 1207              	.LVL142:
 1208 00b2 FFF7FEFF 		bl	u8x8_gpio_call
 1209              	.LVL143:
ARM GAS  C:\Users\info\AppData\Local\Temp\ccAWUQ53.s 			page 35


 204:..\u8g2-master\csrc/u8x8_byte.c ****       break;
 1210              		.loc 1 204 0
 1211 00b6 3368     		ldr	r3, [r6]
 1212 00b8 7469     		ldr	r4, [r6, #20]
 1213 00ba 9A78     		ldrb	r2, [r3, #2]	@ zero_extendqisi2
 1214 00bc 3046     		mov	r0, r6
 1215 00be 0023     		movs	r3, #0
 1216 00c0 2C21     		movs	r1, #44
 1217 00c2 A047     		blx	r4
 1218              	.LVL144:
 1219              	.L77:
 213:..\u8g2-master\csrc/u8x8_byte.c **** }
 1220              		.loc 1 213 0
 1221 00c4 0120     		movs	r0, #1
 205:..\u8g2-master\csrc/u8x8_byte.c ****     case U8X8_MSG_BYTE_END_TRANSFER:
 1222              		.loc 1 205 0
 1223 00c6 BDE8F081 		pop	{r4, r5, r6, r7, r8, pc}
 1224              	.LVL145:
 1225              	.L67:
 207:..\u8g2-master\csrc/u8x8_byte.c ****       u8x8_gpio_SetCS(u8x8, u8x8->display_info->chip_disable_level);
 1226              		.loc 1 207 0
 1227 00ca 0368     		ldr	r3, [r0]
 1228 00cc 4469     		ldr	r4, [r0, #20]
 1229 00ce DA78     		ldrb	r2, [r3, #3]	@ zero_extendqisi2
 1230              	.LVL146:
 1231 00d0 2C21     		movs	r1, #44
 1232 00d2 0023     		movs	r3, #0
 1233 00d4 A047     		blx	r4
 1234              	.LVL147:
 208:..\u8g2-master\csrc/u8x8_byte.c ****       break;
 1235              		.loc 1 208 0
 1236 00d6 3368     		ldr	r3, [r6]
 1237 00d8 3046     		mov	r0, r6
 1238 00da 5A78     		ldrb	r2, [r3, #1]	@ zero_extendqisi2
 1239 00dc 4921     		movs	r1, #73
 1240 00de FFF7FEFF 		bl	u8x8_gpio_call
 1241              	.LVL148:
 213:..\u8g2-master\csrc/u8x8_byte.c **** }
 1242              		.loc 1 213 0
 1243 00e2 0120     		movs	r0, #1
 209:..\u8g2-master\csrc/u8x8_byte.c ****     default:
 1244              		.loc 1 209 0
 1245 00e4 BDE8F081 		pop	{r4, r5, r6, r7, r8, pc}
 1246              	.LVL149:
 1247              	.L73:
 211:..\u8g2-master\csrc/u8x8_byte.c ****   }
 1248              		.loc 1 211 0
 1249 00e8 0020     		movs	r0, #0
 1250              	.LVL150:
 214:..\u8g2-master\csrc/u8x8_byte.c **** 
 1251              		.loc 1 214 0
 1252 00ea BDE8F081 		pop	{r4, r5, r6, r7, r8, pc}
 1253              		.cfi_endproc
 1254              	.LFE7:
 1255              		.size	u8x8_byte_8bit_6800mode, .-u8x8_byte_8bit_6800mode
 1256 00ee 00BF     		.section	.text.u8x8_byte_8bit_8080mode,"ax",%progbits
 1257              		.align	2
ARM GAS  C:\Users\info\AppData\Local\Temp\ccAWUQ53.s 			page 36


 1258              		.global	u8x8_byte_8bit_8080mode
 1259              		.thumb
 1260              		.thumb_func
 1261              		.type	u8x8_byte_8bit_8080mode, %function
 1262              	u8x8_byte_8bit_8080mode:
 1263              	.LFB8:
 217:..\u8g2-master\csrc/u8x8_byte.c ****   uint8_t i, b;
 1264              		.loc 1 217 0
 1265              		.cfi_startproc
 1266              		@ args = 0, pretend = 0, frame = 0
 1267              		@ frame_needed = 0, uses_anonymous_args = 0
 1268              	.LVL151:
 221:..\u8g2-master\csrc/u8x8_byte.c ****   {
 1269              		.loc 1 221 0
 1270 0000 1439     		subs	r1, r1, #20
 1271              	.LVL152:
 217:..\u8g2-master\csrc/u8x8_byte.c ****   uint8_t i, b;
 1272              		.loc 1 217 0
 1273 0002 2DE9F041 		push	{r4, r5, r6, r7, r8, lr}
 1274              		.cfi_def_cfa_offset 24
 1275              		.cfi_offset 4, -24
 1276              		.cfi_offset 5, -20
 1277              		.cfi_offset 6, -16
 1278              		.cfi_offset 7, -12
 1279              		.cfi_offset 8, -8
 1280              		.cfi_offset 14, -4
 217:..\u8g2-master\csrc/u8x8_byte.c ****   uint8_t i, b;
 1281              		.loc 1 217 0
 1282 0006 0646     		mov	r6, r0
 1283 0008 1F46     		mov	r7, r3
 221:..\u8g2-master\csrc/u8x8_byte.c ****   {
 1284              		.loc 1 221 0
 1285 000a 0C29     		cmp	r1, #12
 1286 000c 6CD8     		bhi	.L90
 1287 000e DFE801F0 		tbb	[pc, r1]
 1288              	.LVL153:
 1289              	.L81:
 1290 0012 0D       		.byte	(.L80-.L81)/2
 1291 0013 6B       		.byte	(.L90-.L81)/2
 1292 0014 6B       		.byte	(.L90-.L81)/2
 1293 0015 1A       		.byte	(.L82-.L81)/2
 1294 0016 4D       		.byte	(.L83-.L81)/2
 1295 0017 5C       		.byte	(.L84-.L81)/2
 1296 0018 6B       		.byte	(.L90-.L81)/2
 1297 0019 6B       		.byte	(.L90-.L81)/2
 1298 001a 6B       		.byte	(.L90-.L81)/2
 1299 001b 6B       		.byte	(.L90-.L81)/2
 1300 001c 6B       		.byte	(.L90-.L81)/2
 1301 001d 6B       		.byte	(.L90-.L81)/2
 1302 001e 07       		.byte	(.L85-.L81)/2
 1303 001f 00       		.p2align 1
 1304              	.L85:
 250:..\u8g2-master\csrc/u8x8_byte.c ****       break;
 1305              		.loc 1 250 0
 1306 0020 4A21     		movs	r1, #74
 1307 0022 FFF7FEFF 		bl	u8x8_gpio_call
 1308              	.LVL154:
ARM GAS  C:\Users\info\AppData\Local\Temp\ccAWUQ53.s 			page 37


 263:..\u8g2-master\csrc/u8x8_byte.c **** }
 1309              		.loc 1 263 0
 1310 0026 0120     		movs	r0, #1
 251:..\u8g2-master\csrc/u8x8_byte.c ****     case U8X8_MSG_BYTE_START_TRANSFER:
 1311              		.loc 1 251 0
 1312 0028 BDE8F081 		pop	{r4, r5, r6, r7, r8, pc}
 1313              	.LVL155:
 1314              	.L80:
 245:..\u8g2-master\csrc/u8x8_byte.c ****       /* ensure that the enable signal is high */
 1315              		.loc 1 245 0
 1316 002c 0368     		ldr	r3, [r0]
 1317 002e 4921     		movs	r1, #73
 1318 0030 5A78     		ldrb	r2, [r3, #1]	@ zero_extendqisi2
 1319              	.LVL156:
 1320 0032 FFF7FEFF 		bl	u8x8_gpio_call
 1321              	.LVL157:
 247:..\u8g2-master\csrc/u8x8_byte.c ****       break;
 1322              		.loc 1 247 0
 1323 0036 3046     		mov	r0, r6
 1324 0038 0122     		movs	r2, #1
 1325 003a 4821     		movs	r1, #72
 1326 003c FFF7FEFF 		bl	u8x8_gpio_call
 1327              	.LVL158:
 263:..\u8g2-master\csrc/u8x8_byte.c **** }
 1328              		.loc 1 263 0
 1329 0040 0120     		movs	r0, #1
 248:..\u8g2-master\csrc/u8x8_byte.c ****     case U8X8_MSG_BYTE_SET_DC:
 1330              		.loc 1 248 0
 1331 0042 BDE8F081 		pop	{r4, r5, r6, r7, r8, pc}
 1332              	.LVL159:
 1333              	.L82:
 225:..\u8g2-master\csrc/u8x8_byte.c ****       {
 1334              		.loc 1 225 0
 1335 0046 002A     		cmp	r2, #0
 1336 0048 3CD0     		beq	.L94
 1337 004a 02F1FF38 		add	r8, r2, #-1
 1338 004e 5FFA88F8 		uxtb	r8, r8
 1339 0052 08F10108 		add	r8, r8, #1
 1340 0056 B844     		add	r8, r8, r7
 1341              	.LVL160:
 1342              	.L88:
 227:..\u8g2-master\csrc/u8x8_byte.c **** 	data++;
 1343              		.loc 1 227 0
 1344 0058 17F8015B 		ldrb	r5, [r7], #1	@ zero_extendqisi2
 1345              	.LVL161:
 230:..\u8g2-master\csrc/u8x8_byte.c **** 	{
 1346              		.loc 1 230 0
 1347 005c 4024     		movs	r4, #64
 1348              	.LVL162:
 1349              	.L87:
 232:..\u8g2-master\csrc/u8x8_byte.c **** 	  b >>= 1;
 1350              		.loc 1 232 0 discriminator 3
 1351 005e 2146     		mov	r1, r4
 230:..\u8g2-master\csrc/u8x8_byte.c **** 	{
 1352              		.loc 1 230 0 discriminator 3
 1353 0060 0134     		adds	r4, r4, #1
 1354              	.LVL163:
ARM GAS  C:\Users\info\AppData\Local\Temp\ccAWUQ53.s 			page 38


 232:..\u8g2-master\csrc/u8x8_byte.c **** 	  b >>= 1;
 1355              		.loc 1 232 0 discriminator 3
 1356 0062 05F00102 		and	r2, r5, #1
 1357 0066 3046     		mov	r0, r6
 230:..\u8g2-master\csrc/u8x8_byte.c **** 	{
 1358              		.loc 1 230 0 discriminator 3
 1359 0068 E4B2     		uxtb	r4, r4
 232:..\u8g2-master\csrc/u8x8_byte.c **** 	  b >>= 1;
 1360              		.loc 1 232 0 discriminator 3
 1361 006a FFF7FEFF 		bl	u8x8_gpio_call
 1362              	.LVL164:
 230:..\u8g2-master\csrc/u8x8_byte.c **** 	{
 1363              		.loc 1 230 0 discriminator 3
 1364 006e 482C     		cmp	r4, #72
 233:..\u8g2-master\csrc/u8x8_byte.c **** 	}    
 1365              		.loc 1 233 0 discriminator 3
 1366 0070 4FEA5505 		lsr	r5, r5, #1
 1367              	.LVL165:
 230:..\u8g2-master\csrc/u8x8_byte.c **** 	{
 1368              		.loc 1 230 0 discriminator 3
 1369 0074 F3D1     		bne	.L87
 236:..\u8g2-master\csrc/u8x8_byte.c **** 	u8x8_gpio_call(u8x8, U8X8_MSG_GPIO_E, 0);
 1370              		.loc 1 236 0
 1371 0076 3368     		ldr	r3, [r6]
 1372 0078 2C21     		movs	r1, #44
 1373 007a 9A7B     		ldrb	r2, [r3, #14]	@ zero_extendqisi2
 1374 007c 3046     		mov	r0, r6
 1375 007e FFF7FEFF 		bl	u8x8_gpio_call
 1376              	.LVL166:
 237:..\u8g2-master\csrc/u8x8_byte.c **** 	u8x8_gpio_Delay(u8x8, U8X8_MSG_DELAY_NANO, u8x8->display_info->write_pulse_width_ns);
 1377              		.loc 1 237 0
 1378 0082 0022     		movs	r2, #0
 1379 0084 2146     		mov	r1, r4
 1380 0086 3046     		mov	r0, r6
 1381 0088 FFF7FEFF 		bl	u8x8_gpio_call
 1382              	.LVL167:
 238:..\u8g2-master\csrc/u8x8_byte.c **** 	u8x8_gpio_call(u8x8, U8X8_MSG_GPIO_E, 1);
 1383              		.loc 1 238 0
 1384 008c 3368     		ldr	r3, [r6]
 1385 008e 2C21     		movs	r1, #44
 1386 0090 DA7B     		ldrb	r2, [r3, #15]	@ zero_extendqisi2
 1387 0092 3046     		mov	r0, r6
 1388 0094 FFF7FEFF 		bl	u8x8_gpio_call
 1389              	.LVL168:
 239:..\u8g2-master\csrc/u8x8_byte.c ****       }
 1390              		.loc 1 239 0
 1391 0098 2146     		mov	r1, r4
 1392 009a 0122     		movs	r2, #1
 1393 009c 3046     		mov	r0, r6
 1394 009e FFF7FEFF 		bl	u8x8_gpio_call
 1395              	.LVL169:
 225:..\u8g2-master\csrc/u8x8_byte.c ****       {
 1396              		.loc 1 225 0
 1397 00a2 B845     		cmp	r8, r7
 1398 00a4 D8D1     		bne	.L88
 263:..\u8g2-master\csrc/u8x8_byte.c **** }
 1399              		.loc 1 263 0
ARM GAS  C:\Users\info\AppData\Local\Temp\ccAWUQ53.s 			page 39


 1400 00a6 0120     		movs	r0, #1
 255:..\u8g2-master\csrc/u8x8_byte.c ****     case U8X8_MSG_BYTE_END_TRANSFER:
 1401              		.loc 1 255 0
 1402 00a8 BDE8F081 		pop	{r4, r5, r6, r7, r8, pc}
 1403              	.LVL170:
 1404              	.L83:
 253:..\u8g2-master\csrc/u8x8_byte.c ****       u8x8->gpio_and_delay_cb(u8x8, U8X8_MSG_DELAY_NANO, u8x8->display_info->post_chip_enable_wait_
 1405              		.loc 1 253 0
 1406 00ac 0368     		ldr	r3, [r0]
 1407 00ae 4921     		movs	r1, #73
 1408 00b0 1A78     		ldrb	r2, [r3]	@ zero_extendqisi2
 1409              	.LVL171:
 1410 00b2 FFF7FEFF 		bl	u8x8_gpio_call
 1411              	.LVL172:
 254:..\u8g2-master\csrc/u8x8_byte.c ****       break;
 1412              		.loc 1 254 0
 1413 00b6 3368     		ldr	r3, [r6]
 1414 00b8 7469     		ldr	r4, [r6, #20]
 1415 00ba 9A78     		ldrb	r2, [r3, #2]	@ zero_extendqisi2
 1416 00bc 3046     		mov	r0, r6
 1417 00be 0023     		movs	r3, #0
 1418 00c0 2C21     		movs	r1, #44
 1419 00c2 A047     		blx	r4
 1420              	.LVL173:
 1421              	.L94:
 263:..\u8g2-master\csrc/u8x8_byte.c **** }
 1422              		.loc 1 263 0
 1423 00c4 0120     		movs	r0, #1
 255:..\u8g2-master\csrc/u8x8_byte.c ****     case U8X8_MSG_BYTE_END_TRANSFER:
 1424              		.loc 1 255 0
 1425 00c6 BDE8F081 		pop	{r4, r5, r6, r7, r8, pc}
 1426              	.LVL174:
 1427              	.L84:
 257:..\u8g2-master\csrc/u8x8_byte.c ****       u8x8_gpio_SetCS(u8x8, u8x8->display_info->chip_disable_level);
 1428              		.loc 1 257 0
 1429 00ca 0368     		ldr	r3, [r0]
 1430 00cc 4469     		ldr	r4, [r0, #20]
 1431 00ce DA78     		ldrb	r2, [r3, #3]	@ zero_extendqisi2
 1432              	.LVL175:
 1433 00d0 2C21     		movs	r1, #44
 1434 00d2 0023     		movs	r3, #0
 1435 00d4 A047     		blx	r4
 1436              	.LVL176:
 258:..\u8g2-master\csrc/u8x8_byte.c ****       break;
 1437              		.loc 1 258 0
 1438 00d6 3368     		ldr	r3, [r6]
 1439 00d8 3046     		mov	r0, r6
 1440 00da 5A78     		ldrb	r2, [r3, #1]	@ zero_extendqisi2
 1441 00dc 4921     		movs	r1, #73
 1442 00de FFF7FEFF 		bl	u8x8_gpio_call
 1443              	.LVL177:
 263:..\u8g2-master\csrc/u8x8_byte.c **** }
 1444              		.loc 1 263 0
 1445 00e2 0120     		movs	r0, #1
 259:..\u8g2-master\csrc/u8x8_byte.c ****     default:
 1446              		.loc 1 259 0
 1447 00e4 BDE8F081 		pop	{r4, r5, r6, r7, r8, pc}
ARM GAS  C:\Users\info\AppData\Local\Temp\ccAWUQ53.s 			page 40


 1448              	.LVL178:
 1449              	.L90:
 261:..\u8g2-master\csrc/u8x8_byte.c ****   }
 1450              		.loc 1 261 0
 1451 00e8 0020     		movs	r0, #0
 1452              	.LVL179:
 264:..\u8g2-master\csrc/u8x8_byte.c **** 
 1453              		.loc 1 264 0
 1454 00ea BDE8F081 		pop	{r4, r5, r6, r7, r8, pc}
 1455              		.cfi_endproc
 1456              	.LFE8:
 1457              		.size	u8x8_byte_8bit_8080mode, .-u8x8_byte_8bit_8080mode
 1458 00ee 00BF     		.section	.text.u8x8_byte_3wire_sw_spi,"ax",%progbits
 1459              		.align	2
 1460              		.global	u8x8_byte_3wire_sw_spi
 1461              		.thumb
 1462              		.thumb_func
 1463              		.type	u8x8_byte_3wire_sw_spi, %function
 1464              	u8x8_byte_3wire_sw_spi:
 1465              	.LFB9:
 269:..\u8g2-master\csrc/u8x8_byte.c ****   uint8_t i;
 1466              		.loc 1 269 0
 1467              		.cfi_startproc
 1468              		@ args = 0, pretend = 0, frame = 0
 1469              		@ frame_needed = 0, uses_anonymous_args = 0
 1470              	.LVL180:
 277:..\u8g2-master\csrc/u8x8_byte.c ****   {
 1471              		.loc 1 277 0
 1472 0000 1439     		subs	r1, r1, #20
 1473              	.LVL181:
 269:..\u8g2-master\csrc/u8x8_byte.c ****   uint8_t i;
 1474              		.loc 1 269 0
 1475 0002 2DE9F84F 		push	{r3, r4, r5, r6, r7, r8, r9, r10, fp, lr}
 1476              		.cfi_def_cfa_offset 40
 1477              		.cfi_offset 3, -40
 1478              		.cfi_offset 4, -36
 1479              		.cfi_offset 5, -32
 1480              		.cfi_offset 6, -28
 1481              		.cfi_offset 7, -24
 1482              		.cfi_offset 8, -20
 1483              		.cfi_offset 9, -16
 1484              		.cfi_offset 10, -12
 1485              		.cfi_offset 11, -8
 1486              		.cfi_offset 14, -4
 269:..\u8g2-master\csrc/u8x8_byte.c ****   uint8_t i;
 1487              		.loc 1 269 0
 1488 0006 0446     		mov	r4, r0
 272:..\u8g2-master\csrc/u8x8_byte.c ****   uint8_t not_takeover_edge = 1 - takeover_edge;
 1489              		.loc 1 272 0
 1490 0008 0068     		ldr	r0, [r0]
 1491              	.LVL182:
 277:..\u8g2-master\csrc/u8x8_byte.c ****   {
 1492              		.loc 1 277 0
 1493 000a 0C29     		cmp	r1, #12
 1494 000c 00F28180 		bhi	.L111
 1495 0010 DFE801F0 		tbb	[pc, r1]
 1496              	.L98:
ARM GAS  C:\Users\info\AppData\Local\Temp\ccAWUQ53.s 			page 41


 1497 0014 0C       		.byte	(.L97-.L98)/2
 1498 0015 7F       		.byte	(.L111-.L98)/2
 1499 0016 7F       		.byte	(.L111-.L98)/2
 1500 0017 1C       		.byte	(.L99-.L98)/2
 1501 0018 61       		.byte	(.L100-.L98)/2
 1502 0019 70       		.byte	(.L101-.L98)/2
 1503 001a 7F       		.byte	(.L111-.L98)/2
 1504 001b 7F       		.byte	(.L111-.L98)/2
 1505 001c 7F       		.byte	(.L111-.L98)/2
 1506 001d 7F       		.byte	(.L111-.L98)/2
 1507 001e 7F       		.byte	(.L111-.L98)/2
 1508 001f 7F       		.byte	(.L111-.L98)/2
 1509 0020 07       		.byte	(.L102-.L98)/2
 1510 0021 00       		.p2align 1
 1511              	.L102:
 313:..\u8g2-master\csrc/u8x8_byte.c ****       break;
 1512              		.loc 1 313 0
 1513 0022 3D4B     		ldr	r3, .L122
 1514              	.LVL183:
 326:..\u8g2-master\csrc/u8x8_byte.c **** }
 1515              		.loc 1 326 0
 1516 0024 0120     		movs	r0, #1
 1517              	.LVL184:
 313:..\u8g2-master\csrc/u8x8_byte.c ****       break;
 1518              		.loc 1 313 0
 1519 0026 1A70     		strb	r2, [r3]
 314:..\u8g2-master\csrc/u8x8_byte.c ****     case U8X8_MSG_BYTE_START_TRANSFER:
 1520              		.loc 1 314 0
 1521 0028 BDE8F88F 		pop	{r3, r4, r5, r6, r7, r8, r9, r10, fp, pc}
 1522              	.LVL185:
 1523              	.L97:
 306:..\u8g2-master\csrc/u8x8_byte.c ****       /* no wait required here */
 1524              		.loc 1 306 0
 1525 002c 4278     		ldrb	r2, [r0, #1]	@ zero_extendqisi2
 1526              	.LVL186:
 1527 002e 4921     		movs	r1, #73
 1528 0030 2046     		mov	r0, r4
 1529              	.LVL187:
 1530 0032 FFF7FEFF 		bl	u8x8_gpio_call
 1531              	.LVL188:
 310:..\u8g2-master\csrc/u8x8_byte.c ****       break;
 1532              		.loc 1 310 0
 1533 0036 2368     		ldr	r3, [r4]
 1534 0038 2046     		mov	r0, r4
 1535 003a 1A7B     		ldrb	r2, [r3, #12]	@ zero_extendqisi2
 1536 003c 4021     		movs	r1, #64
 1537 003e 02F00102 		and	r2, r2, #1
 1538 0042 FFF7FEFF 		bl	u8x8_gpio_call
 1539              	.LVL189:
 326:..\u8g2-master\csrc/u8x8_byte.c **** }
 1540              		.loc 1 326 0
 1541 0046 0120     		movs	r0, #1
 311:..\u8g2-master\csrc/u8x8_byte.c ****     case U8X8_MSG_BYTE_SET_DC:
 1542              		.loc 1 311 0
 1543 0048 BDE8F88F 		pop	{r3, r4, r5, r6, r7, r8, r9, r10, fp, pc}
 1544              	.LVL190:
 1545              	.L99:
ARM GAS  C:\Users\info\AppData\Local\Temp\ccAWUQ53.s 			page 42


 281:..\u8g2-master\csrc/u8x8_byte.c ****       {
 1546              		.loc 1 281 0
 1547 004c 002A     		cmp	r2, #0
 1548 004e 4ED0     		beq	.L120
 272:..\u8g2-master\csrc/u8x8_byte.c ****   uint8_t not_takeover_edge = 1 - takeover_edge;
 1549              		.loc 1 272 0
 1550 0050 077B     		ldrb	r7, [r0, #12]	@ zero_extendqisi2
 1551 0052 02F1FF3A 		add	r10, r2, #-1
 1552 0056 07F00107 		and	r7, r7, #1
 1553 005a 5FFA8AFA 		uxtb	r10, r10
 1554 005e DFF8B8B0 		ldr	fp, .L122
 1555 0062 9A44     		add	r10, r10, r3
 1556 0064 03F1FF39 		add	r9, r3, #-1
 1557 0068 C7F10108 		rsb	r8, r7, #1
 1558              	.LVL191:
 1559              	.L109:
 284:..\u8g2-master\csrc/u8x8_byte.c **** 	  b |= 256;
 1560              		.loc 1 284 0
 1561 006c 9BF80030 		ldrb	r3, [fp]	@ zero_extendqisi2
 283:..\u8g2-master\csrc/u8x8_byte.c **** 	if ( last_dc != 0 )
 1562              		.loc 1 283 0
 1563 0070 19F8015F 		ldrb	r5, [r9, #1]!	@ zero_extendqisi2
 1564              	.LVL192:
 284:..\u8g2-master\csrc/u8x8_byte.c **** 	  b |= 256;
 1565              		.loc 1 284 0
 1566 0074 0BB1     		cbz	r3, .L103
 285:..\u8g2-master\csrc/u8x8_byte.c **** 	data++;
 1567              		.loc 1 285 0
 1568 0076 45F48075 		orr	r5, r5, #256
 1569              	.LVL193:
 1570              	.L103:
 269:..\u8g2-master\csrc/u8x8_byte.c ****   uint8_t i;
 1571              		.loc 1 269 0
 1572 007a 0926     		movs	r6, #9
 1573              	.LVL194:
 1574              	.L106:
 290:..\u8g2-master\csrc/u8x8_byte.c **** 	    u8x8_gpio_SetSPIData(u8x8, 1);
 1575              		.loc 1 290 0
 1576 007c 05F48073 		and	r3, r5, #256
 1577 0080 9BB2     		uxth	r3, r3
 291:..\u8g2-master\csrc/u8x8_byte.c **** 	  else
 1578              		.loc 1 291 0
 1579 0082 0122     		movs	r2, #1
 1580 0084 4121     		movs	r1, #65
 290:..\u8g2-master\csrc/u8x8_byte.c **** 	    u8x8_gpio_SetSPIData(u8x8, 1);
 1581              		.loc 1 290 0
 1582 0086 0BB9     		cbnz	r3, .L119
 293:..\u8g2-master\csrc/u8x8_byte.c **** 	  b <<= 1;
 1583              		.loc 1 293 0
 1584 0088 1A46     		mov	r2, r3
 1585 008a 4121     		movs	r1, #65
 1586              	.L119:
 1587 008c 2046     		mov	r0, r4
 1588 008e FFF7FEFF 		bl	u8x8_gpio_call
 1589              	.LVL195:
 296:..\u8g2-master\csrc/u8x8_byte.c **** 	  u8x8_gpio_Delay(u8x8, U8X8_MSG_DELAY_NANO, u8x8->display_info->sda_setup_time_ns);
 1590              		.loc 1 296 0
ARM GAS  C:\Users\info\AppData\Local\Temp\ccAWUQ53.s 			page 43


 1591 0092 5FFA88F2 		uxtb	r2, r8
 1592 0096 4021     		movs	r1, #64
 1593 0098 2046     		mov	r0, r4
 1594 009a FFF7FEFF 		bl	u8x8_gpio_call
 1595              	.LVL196:
 297:..\u8g2-master\csrc/u8x8_byte.c **** 	  u8x8_gpio_SetSPIClock(u8x8, takeover_edge);
 1596              		.loc 1 297 0
 1597 009e 2368     		ldr	r3, [r4]
 1598 00a0 2C21     		movs	r1, #44
 1599 00a2 9A79     		ldrb	r2, [r3, #6]	@ zero_extendqisi2
 1600 00a4 2046     		mov	r0, r4
 1601 00a6 FFF7FEFF 		bl	u8x8_gpio_call
 1602              	.LVL197:
 298:..\u8g2-master\csrc/u8x8_byte.c **** 	  u8x8_gpio_Delay(u8x8, U8X8_MSG_DELAY_NANO, u8x8->display_info->sck_pulse_width_ns);
 1603              		.loc 1 298 0
 1604 00aa 3A46     		mov	r2, r7
 1605 00ac 4021     		movs	r1, #64
 1606 00ae 2046     		mov	r0, r4
 1607 00b0 FFF7FEFF 		bl	u8x8_gpio_call
 1608              	.LVL198:
 299:..\u8g2-master\csrc/u8x8_byte.c **** 	}    
 1609              		.loc 1 299 0
 1610 00b4 2368     		ldr	r3, [r4]
 1611 00b6 2C21     		movs	r1, #44
 1612 00b8 DA79     		ldrb	r2, [r3, #7]	@ zero_extendqisi2
 1613 00ba 2046     		mov	r0, r4
 1614 00bc 013E     		subs	r6, r6, #1
 294:..\u8g2-master\csrc/u8x8_byte.c **** 	  
 1615              		.loc 1 294 0
 1616 00be 6D00     		lsls	r5, r5, #1
 1617              	.LVL199:
 299:..\u8g2-master\csrc/u8x8_byte.c **** 	}    
 1618              		.loc 1 299 0
 1619 00c0 FFF7FEFF 		bl	u8x8_gpio_call
 1620              	.LVL200:
 288:..\u8g2-master\csrc/u8x8_byte.c **** 	{
 1621              		.loc 1 288 0
 1622 00c4 16F0FF06 		ands	r6, r6, #255
 294:..\u8g2-master\csrc/u8x8_byte.c **** 	  
 1623              		.loc 1 294 0
 1624 00c8 ADB2     		uxth	r5, r5
 1625              	.LVL201:
 288:..\u8g2-master\csrc/u8x8_byte.c **** 	{
 1626              		.loc 1 288 0
 1627 00ca D7D1     		bne	.L106
 281:..\u8g2-master\csrc/u8x8_byte.c ****       {
 1628              		.loc 1 281 0
 1629 00cc D145     		cmp	r9, r10
 1630 00ce CDD1     		bne	.L109
 326:..\u8g2-master\csrc/u8x8_byte.c **** }
 1631              		.loc 1 326 0
 1632 00d0 0120     		movs	r0, #1
 318:..\u8g2-master\csrc/u8x8_byte.c ****     case U8X8_MSG_BYTE_END_TRANSFER:
 1633              		.loc 1 318 0
 1634 00d2 BDE8F88F 		pop	{r3, r4, r5, r6, r7, r8, r9, r10, fp, pc}
 1635              	.LVL202:
 1636              	.L100:
ARM GAS  C:\Users\info\AppData\Local\Temp\ccAWUQ53.s 			page 44


 316:..\u8g2-master\csrc/u8x8_byte.c ****       u8x8->gpio_and_delay_cb(u8x8, U8X8_MSG_DELAY_NANO, u8x8->display_info->post_chip_enable_wait_
 1637              		.loc 1 316 0
 1638 00d6 0278     		ldrb	r2, [r0]	@ zero_extendqisi2
 1639              	.LVL203:
 1640 00d8 4921     		movs	r1, #73
 1641 00da 2046     		mov	r0, r4
 1642              	.LVL204:
 1643 00dc FFF7FEFF 		bl	u8x8_gpio_call
 1644              	.LVL205:
 317:..\u8g2-master\csrc/u8x8_byte.c ****       break;
 1645              		.loc 1 317 0
 1646 00e0 2368     		ldr	r3, [r4]
 1647 00e2 6569     		ldr	r5, [r4, #20]
 1648 00e4 9A78     		ldrb	r2, [r3, #2]	@ zero_extendqisi2
 1649 00e6 2046     		mov	r0, r4
 1650 00e8 0023     		movs	r3, #0
 1651 00ea 2C21     		movs	r1, #44
 1652 00ec A847     		blx	r5
 1653              	.LVL206:
 1654              	.L120:
 326:..\u8g2-master\csrc/u8x8_byte.c **** }
 1655              		.loc 1 326 0
 1656 00ee 0120     		movs	r0, #1
 318:..\u8g2-master\csrc/u8x8_byte.c ****     case U8X8_MSG_BYTE_END_TRANSFER:
 1657              		.loc 1 318 0
 1658 00f0 BDE8F88F 		pop	{r3, r4, r5, r6, r7, r8, r9, r10, fp, pc}
 1659              	.LVL207:
 1660              	.L101:
 320:..\u8g2-master\csrc/u8x8_byte.c ****       u8x8_gpio_SetCS(u8x8, u8x8->display_info->chip_disable_level);
 1661              		.loc 1 320 0
 1662 00f4 C278     		ldrb	r2, [r0, #3]	@ zero_extendqisi2
 1663              	.LVL208:
 1664 00f6 6569     		ldr	r5, [r4, #20]
 1665 00f8 0023     		movs	r3, #0
 1666              	.LVL209:
 1667 00fa 2C21     		movs	r1, #44
 1668 00fc 2046     		mov	r0, r4
 1669              	.LVL210:
 1670 00fe A847     		blx	r5
 1671              	.LVL211:
 321:..\u8g2-master\csrc/u8x8_byte.c ****       break;
 1672              		.loc 1 321 0
 1673 0100 2368     		ldr	r3, [r4]
 1674 0102 2046     		mov	r0, r4
 1675 0104 5A78     		ldrb	r2, [r3, #1]	@ zero_extendqisi2
 1676 0106 4921     		movs	r1, #73
 1677 0108 FFF7FEFF 		bl	u8x8_gpio_call
 1678              	.LVL212:
 326:..\u8g2-master\csrc/u8x8_byte.c **** }
 1679              		.loc 1 326 0
 1680 010c 0120     		movs	r0, #1
 322:..\u8g2-master\csrc/u8x8_byte.c ****     default:
 1681              		.loc 1 322 0
 1682 010e BDE8F88F 		pop	{r3, r4, r5, r6, r7, r8, r9, r10, fp, pc}
 1683              	.LVL213:
 1684              	.L111:
 324:..\u8g2-master\csrc/u8x8_byte.c ****   }
ARM GAS  C:\Users\info\AppData\Local\Temp\ccAWUQ53.s 			page 45


 1685              		.loc 1 324 0
 1686 0112 0020     		movs	r0, #0
 1687              	.LVL214:
 327:..\u8g2-master\csrc/u8x8_byte.c **** 
 1688              		.loc 1 327 0
 1689 0114 BDE8F88F 		pop	{r3, r4, r5, r6, r7, r8, r9, r10, fp, pc}
 1690              	.LVL215:
 1691              	.L123:
 1692              		.align	2
 1693              	.L122:
 1694 0118 00000000 		.word	.LANCHOR0
 1695              		.cfi_endproc
 1696              	.LFE9:
 1697              		.size	u8x8_byte_3wire_sw_spi, .-u8x8_byte_3wire_sw_spi
 1698              		.section	.text.u8x8_byte_set_ks0108_cs,"ax",%progbits
 1699              		.align	2
 1700              		.global	u8x8_byte_set_ks0108_cs
 1701              		.thumb
 1702              		.thumb_func
 1703              		.type	u8x8_byte_set_ks0108_cs, %function
 1704              	u8x8_byte_set_ks0108_cs:
 1705              	.LFB10:
 332:..\u8g2-master\csrc/u8x8_byte.c ****   u8x8_gpio_SetCS(u8x8, arg&1);
 1706              		.loc 1 332 0
 1707              		.cfi_startproc
 1708              		@ args = 0, pretend = 0, frame = 0
 1709              		@ frame_needed = 0, uses_anonymous_args = 0
 1710              	.LVL216:
 1711 0000 38B5     		push	{r3, r4, r5, lr}
 1712              		.cfi_def_cfa_offset 16
 1713              		.cfi_offset 3, -16
 1714              		.cfi_offset 4, -12
 1715              		.cfi_offset 5, -8
 1716              		.cfi_offset 14, -4
 332:..\u8g2-master\csrc/u8x8_byte.c ****   u8x8_gpio_SetCS(u8x8, arg&1);
 1717              		.loc 1 332 0
 1718 0002 0546     		mov	r5, r0
 334:..\u8g2-master\csrc/u8x8_byte.c ****   u8x8_gpio_call(u8x8, U8X8_MSG_GPIO_CS1, arg&1);
 1719              		.loc 1 334 0
 1720 0004 4C08     		lsrs	r4, r1, #1
 333:..\u8g2-master\csrc/u8x8_byte.c ****   arg = arg >> 1;
 1721              		.loc 1 333 0
 1722 0006 01F00102 		and	r2, r1, #1
 1723 000a 4921     		movs	r1, #73
 1724              	.LVL217:
 1725 000c FFF7FEFF 		bl	u8x8_gpio_call
 1726              	.LVL218:
 335:..\u8g2-master\csrc/u8x8_byte.c ****   arg = arg >> 1;
 1727              		.loc 1 335 0
 1728 0010 04F00102 		and	r2, r4, #1
 1729 0014 2846     		mov	r0, r5
 1730 0016 4E21     		movs	r1, #78
 1731 0018 FFF7FEFF 		bl	u8x8_gpio_call
 1732              	.LVL219:
 337:..\u8g2-master\csrc/u8x8_byte.c **** }
 1733              		.loc 1 337 0
 1734 001c C4F34002 		ubfx	r2, r4, #1, #1
ARM GAS  C:\Users\info\AppData\Local\Temp\ccAWUQ53.s 			page 46


 1735 0020 2846     		mov	r0, r5
 338:..\u8g2-master\csrc/u8x8_byte.c **** 
 1736              		.loc 1 338 0
 1737 0022 BDE83840 		pop	{r3, r4, r5, lr}
 1738              		.cfi_restore 14
 1739              		.cfi_restore 5
 1740              		.cfi_restore 4
 1741              		.cfi_restore 3
 1742              		.cfi_def_cfa_offset 0
 1743              	.LVL220:
 337:..\u8g2-master\csrc/u8x8_byte.c **** }
 1744              		.loc 1 337 0
 1745 0026 4F21     		movs	r1, #79
 1746 0028 FFF7FEBF 		b	u8x8_gpio_call
 1747              	.LVL221:
 1748              		.cfi_endproc
 1749              	.LFE10:
 1750              		.size	u8x8_byte_set_ks0108_cs, .-u8x8_byte_set_ks0108_cs
 1751              		.section	.text.u8x8_byte_ks0108,"ax",%progbits
 1752              		.align	2
 1753              		.global	u8x8_byte_ks0108
 1754              		.thumb
 1755              		.thumb_func
 1756              		.type	u8x8_byte_ks0108, %function
 1757              	u8x8_byte_ks0108:
 1758              	.LFB11:
 342:..\u8g2-master\csrc/u8x8_byte.c ****   uint8_t i, b;
 1759              		.loc 1 342 0
 1760              		.cfi_startproc
 1761              		@ args = 0, pretend = 0, frame = 0
 1762              		@ frame_needed = 0, uses_anonymous_args = 0
 1763              	.LVL222:
 346:..\u8g2-master\csrc/u8x8_byte.c ****   {
 1764              		.loc 1 346 0
 1765 0000 1439     		subs	r1, r1, #20
 1766              	.LVL223:
 342:..\u8g2-master\csrc/u8x8_byte.c ****   uint8_t i, b;
 1767              		.loc 1 342 0
 1768 0002 2DE9F041 		push	{r4, r5, r6, r7, r8, lr}
 1769              		.cfi_def_cfa_offset 24
 1770              		.cfi_offset 4, -24
 1771              		.cfi_offset 5, -20
 1772              		.cfi_offset 6, -16
 1773              		.cfi_offset 7, -12
 1774              		.cfi_offset 8, -8
 1775              		.cfi_offset 14, -4
 342:..\u8g2-master\csrc/u8x8_byte.c ****   uint8_t i, b;
 1776              		.loc 1 342 0
 1777 0006 0646     		mov	r6, r0
 1778 0008 1446     		mov	r4, r2
 1779 000a 1F46     		mov	r7, r3
 346:..\u8g2-master\csrc/u8x8_byte.c ****   {
 1780              		.loc 1 346 0
 1781 000c 0C29     		cmp	r1, #12
 1782 000e 68D8     		bhi	.L138
 1783 0010 DFE801F0 		tbb	[pc, r1]
 1784              	.LVL224:
ARM GAS  C:\Users\info\AppData\Local\Temp\ccAWUQ53.s 			page 47


 1785              	.L129:
 1786 0014 0D       		.byte	(.L128-.L129)/2
 1787 0015 67       		.byte	(.L138-.L129)/2
 1788 0016 67       		.byte	(.L138-.L129)/2
 1789 0017 1A       		.byte	(.L130-.L129)/2
 1790 0018 4D       		.byte	(.L131-.L129)/2
 1791 0019 5A       		.byte	(.L132-.L129)/2
 1792 001a 67       		.byte	(.L138-.L129)/2
 1793 001b 67       		.byte	(.L138-.L129)/2
 1794 001c 67       		.byte	(.L138-.L129)/2
 1795 001d 67       		.byte	(.L138-.L129)/2
 1796 001e 67       		.byte	(.L138-.L129)/2
 1797 001f 67       		.byte	(.L138-.L129)/2
 1798 0020 07       		.byte	(.L133-.L129)/2
 1799 0021 00       		.p2align 1
 1800              	.L133:
 375:..\u8g2-master\csrc/u8x8_byte.c ****       break;
 1801              		.loc 1 375 0
 1802 0022 4A21     		movs	r1, #74
 1803 0024 FFF7FEFF 		bl	u8x8_gpio_call
 1804              	.LVL225:
 389:..\u8g2-master\csrc/u8x8_byte.c **** }
 1805              		.loc 1 389 0
 1806 0028 0120     		movs	r0, #1
 376:..\u8g2-master\csrc/u8x8_byte.c ****     case U8X8_MSG_BYTE_START_TRANSFER:
 1807              		.loc 1 376 0
 1808 002a BDE8F081 		pop	{r4, r5, r6, r7, r8, pc}
 1809              	.LVL226:
 1810              	.L128:
 370:..\u8g2-master\csrc/u8x8_byte.c ****       /* ensure that the enable signal is low */
 1811              		.loc 1 370 0
 1812 002e 0368     		ldr	r3, [r0]
 1813 0030 4921     		movs	r1, #73
 1814 0032 5A78     		ldrb	r2, [r3, #1]	@ zero_extendqisi2
 1815              	.LVL227:
 1816 0034 FFF7FEFF 		bl	u8x8_gpio_call
 1817              	.LVL228:
 372:..\u8g2-master\csrc/u8x8_byte.c ****       break;
 1818              		.loc 1 372 0
 1819 0038 3046     		mov	r0, r6
 1820 003a 0022     		movs	r2, #0
 1821 003c 4821     		movs	r1, #72
 1822 003e FFF7FEFF 		bl	u8x8_gpio_call
 1823              	.LVL229:
 389:..\u8g2-master\csrc/u8x8_byte.c **** }
 1824              		.loc 1 389 0
 1825 0042 0120     		movs	r0, #1
 373:..\u8g2-master\csrc/u8x8_byte.c ****     case U8X8_MSG_BYTE_SET_DC:
 1826              		.loc 1 373 0
 1827 0044 BDE8F081 		pop	{r4, r5, r6, r7, r8, pc}
 1828              	.LVL230:
 1829              	.L130:
 350:..\u8g2-master\csrc/u8x8_byte.c ****       {
 1830              		.loc 1 350 0
 1831 0048 002A     		cmp	r2, #0
 1832 004a 3AD0     		beq	.L142
 1833 004c 02F1FF38 		add	r8, r2, #-1
ARM GAS  C:\Users\info\AppData\Local\Temp\ccAWUQ53.s 			page 48


 1834 0050 5FFA88F8 		uxtb	r8, r8
 1835 0054 08F10108 		add	r8, r8, #1
 1836 0058 B844     		add	r8, r8, r7
 1837              	.LVL231:
 1838              	.L136:
 352:..\u8g2-master\csrc/u8x8_byte.c **** 	data++;
 1839              		.loc 1 352 0
 1840 005a 17F8015B 		ldrb	r5, [r7], #1	@ zero_extendqisi2
 1841              	.LVL232:
 355:..\u8g2-master\csrc/u8x8_byte.c **** 	{
 1842              		.loc 1 355 0
 1843 005e 4024     		movs	r4, #64
 1844              	.LVL233:
 1845              	.L135:
 357:..\u8g2-master\csrc/u8x8_byte.c **** 	  b >>= 1;
 1846              		.loc 1 357 0 discriminator 3
 1847 0060 2146     		mov	r1, r4
 355:..\u8g2-master\csrc/u8x8_byte.c **** 	{
 1848              		.loc 1 355 0 discriminator 3
 1849 0062 0134     		adds	r4, r4, #1
 1850              	.LVL234:
 357:..\u8g2-master\csrc/u8x8_byte.c **** 	  b >>= 1;
 1851              		.loc 1 357 0 discriminator 3
 1852 0064 05F00102 		and	r2, r5, #1
 1853 0068 3046     		mov	r0, r6
 355:..\u8g2-master\csrc/u8x8_byte.c **** 	{
 1854              		.loc 1 355 0 discriminator 3
 1855 006a E4B2     		uxtb	r4, r4
 357:..\u8g2-master\csrc/u8x8_byte.c **** 	  b >>= 1;
 1856              		.loc 1 357 0 discriminator 3
 1857 006c FFF7FEFF 		bl	u8x8_gpio_call
 1858              	.LVL235:
 355:..\u8g2-master\csrc/u8x8_byte.c **** 	{
 1859              		.loc 1 355 0 discriminator 3
 1860 0070 482C     		cmp	r4, #72
 358:..\u8g2-master\csrc/u8x8_byte.c **** 	}    
 1861              		.loc 1 358 0 discriminator 3
 1862 0072 4FEA5505 		lsr	r5, r5, #1
 1863              	.LVL236:
 355:..\u8g2-master\csrc/u8x8_byte.c **** 	{
 1864              		.loc 1 355 0 discriminator 3
 1865 0076 F3D1     		bne	.L135
 361:..\u8g2-master\csrc/u8x8_byte.c **** 	u8x8_gpio_call(u8x8, U8X8_MSG_GPIO_E, 1);
 1866              		.loc 1 361 0
 1867 0078 3368     		ldr	r3, [r6]
 1868 007a 2C21     		movs	r1, #44
 1869 007c 9A7B     		ldrb	r2, [r3, #14]	@ zero_extendqisi2
 1870 007e 3046     		mov	r0, r6
 1871 0080 FFF7FEFF 		bl	u8x8_gpio_call
 1872              	.LVL237:
 362:..\u8g2-master\csrc/u8x8_byte.c **** 	u8x8_gpio_Delay(u8x8, U8X8_MSG_DELAY_NANO, u8x8->display_info->write_pulse_width_ns);
 1873              		.loc 1 362 0
 1874 0084 0122     		movs	r2, #1
 1875 0086 2146     		mov	r1, r4
 1876 0088 3046     		mov	r0, r6
 1877 008a FFF7FEFF 		bl	u8x8_gpio_call
 1878              	.LVL238:
ARM GAS  C:\Users\info\AppData\Local\Temp\ccAWUQ53.s 			page 49


 363:..\u8g2-master\csrc/u8x8_byte.c **** 	u8x8_gpio_call(u8x8, U8X8_MSG_GPIO_E, 0);
 1879              		.loc 1 363 0
 1880 008e 3368     		ldr	r3, [r6]
 1881 0090 2C21     		movs	r1, #44
 1882 0092 DA7B     		ldrb	r2, [r3, #15]	@ zero_extendqisi2
 1883 0094 3046     		mov	r0, r6
 1884 0096 FFF7FEFF 		bl	u8x8_gpio_call
 1885              	.LVL239:
 364:..\u8g2-master\csrc/u8x8_byte.c ****       }
 1886              		.loc 1 364 0
 1887 009a 2146     		mov	r1, r4
 1888 009c 0022     		movs	r2, #0
 1889 009e 3046     		mov	r0, r6
 1890 00a0 FFF7FEFF 		bl	u8x8_gpio_call
 1891              	.LVL240:
 350:..\u8g2-master\csrc/u8x8_byte.c ****       {
 1892              		.loc 1 350 0
 1893 00a4 B845     		cmp	r8, r7
 1894 00a6 D8D1     		bne	.L136
 389:..\u8g2-master\csrc/u8x8_byte.c **** }
 1895              		.loc 1 389 0
 1896 00a8 0120     		movs	r0, #1
 381:..\u8g2-master\csrc/u8x8_byte.c ****     case U8X8_MSG_BYTE_END_TRANSFER:
 1897              		.loc 1 381 0
 1898 00aa BDE8F081 		pop	{r4, r5, r6, r7, r8, pc}
 1899              	.LVL241:
 1900              	.L131:
 379:..\u8g2-master\csrc/u8x8_byte.c ****       u8x8->gpio_and_delay_cb(u8x8, U8X8_MSG_DELAY_NANO, u8x8->display_info->post_chip_enable_wait_
 1901              		.loc 1 379 0
 1902 00ae 1146     		mov	r1, r2
 1903 00b0 FFF7FEFF 		bl	u8x8_byte_set_ks0108_cs
 1904              	.LVL242:
 380:..\u8g2-master\csrc/u8x8_byte.c ****       break;
 1905              		.loc 1 380 0
 1906 00b4 3368     		ldr	r3, [r6]
 1907 00b6 7469     		ldr	r4, [r6, #20]
 1908 00b8 9A78     		ldrb	r2, [r3, #2]	@ zero_extendqisi2
 1909 00ba 3046     		mov	r0, r6
 1910 00bc 0023     		movs	r3, #0
 1911 00be 2C21     		movs	r1, #44
 1912 00c0 A047     		blx	r4
 1913              	.LVL243:
 1914              	.L142:
 389:..\u8g2-master\csrc/u8x8_byte.c **** }
 1915              		.loc 1 389 0
 1916 00c2 0120     		movs	r0, #1
 381:..\u8g2-master\csrc/u8x8_byte.c ****     case U8X8_MSG_BYTE_END_TRANSFER:
 1917              		.loc 1 381 0
 1918 00c4 BDE8F081 		pop	{r4, r5, r6, r7, r8, pc}
 1919              	.LVL244:
 1920              	.L132:
 383:..\u8g2-master\csrc/u8x8_byte.c ****       u8x8_byte_set_ks0108_cs(u8x8, arg_int);
 1921              		.loc 1 383 0
 1922 00c8 0368     		ldr	r3, [r0]
 1923 00ca 4569     		ldr	r5, [r0, #20]
 1924 00cc DA78     		ldrb	r2, [r3, #3]	@ zero_extendqisi2
 1925              	.LVL245:
ARM GAS  C:\Users\info\AppData\Local\Temp\ccAWUQ53.s 			page 50


 1926 00ce 2C21     		movs	r1, #44
 1927 00d0 0023     		movs	r3, #0
 1928 00d2 A847     		blx	r5
 1929              	.LVL246:
 384:..\u8g2-master\csrc/u8x8_byte.c ****       break;
 1930              		.loc 1 384 0
 1931 00d4 3046     		mov	r0, r6
 1932 00d6 2146     		mov	r1, r4
 1933 00d8 FFF7FEFF 		bl	u8x8_byte_set_ks0108_cs
 1934              	.LVL247:
 389:..\u8g2-master\csrc/u8x8_byte.c **** }
 1935              		.loc 1 389 0
 1936 00dc 0120     		movs	r0, #1
 385:..\u8g2-master\csrc/u8x8_byte.c ****     default:
 1937              		.loc 1 385 0
 1938 00de BDE8F081 		pop	{r4, r5, r6, r7, r8, pc}
 1939              	.LVL248:
 1940              	.L138:
 387:..\u8g2-master\csrc/u8x8_byte.c ****   }
 1941              		.loc 1 387 0
 1942 00e2 0020     		movs	r0, #0
 1943              	.LVL249:
 390:..\u8g2-master\csrc/u8x8_byte.c **** 
 1944              		.loc 1 390 0
 1945 00e4 BDE8F081 		pop	{r4, r5, r6, r7, r8, pc}
 1946              		.cfi_endproc
 1947              	.LFE11:
 1948              		.size	u8x8_byte_ks0108, .-u8x8_byte_ks0108
 1949              		.section	.text.u8x8_byte_sed1520,"ax",%progbits
 1950              		.align	2
 1951              		.global	u8x8_byte_sed1520
 1952              		.thumb
 1953              		.thumb_func
 1954              		.type	u8x8_byte_sed1520, %function
 1955              	u8x8_byte_sed1520:
 1956              	.LFB12:
 398:..\u8g2-master\csrc/u8x8_byte.c ****   uint8_t i, b;
 1957              		.loc 1 398 0
 1958              		.cfi_startproc
 1959              		@ args = 0, pretend = 0, frame = 0
 1960              		@ frame_needed = 0, uses_anonymous_args = 0
 1961              	.LVL250:
 403:..\u8g2-master\csrc/u8x8_byte.c ****   {
 1962              		.loc 1 403 0
 1963 0000 1439     		subs	r1, r1, #20
 1964              	.LVL251:
 398:..\u8g2-master\csrc/u8x8_byte.c ****   uint8_t i, b;
 1965              		.loc 1 398 0
 1966 0002 2DE9F843 		push	{r3, r4, r5, r6, r7, r8, r9, lr}
 1967              		.cfi_def_cfa_offset 32
 1968              		.cfi_offset 3, -32
 1969              		.cfi_offset 4, -28
 1970              		.cfi_offset 5, -24
 1971              		.cfi_offset 6, -20
 1972              		.cfi_offset 7, -16
 1973              		.cfi_offset 8, -12
 1974              		.cfi_offset 9, -8
ARM GAS  C:\Users\info\AppData\Local\Temp\ccAWUQ53.s 			page 51


 1975              		.cfi_offset 14, -4
 398:..\u8g2-master\csrc/u8x8_byte.c ****   uint8_t i, b;
 1976              		.loc 1 398 0
 1977 0006 0646     		mov	r6, r0
 1978 0008 1F46     		mov	r7, r3
 403:..\u8g2-master\csrc/u8x8_byte.c ****   {
 1979              		.loc 1 403 0
 1980 000a 0C29     		cmp	r1, #12
 1981 000c 67D8     		bhi	.L156
 1982 000e DFE801F0 		tbb	[pc, r1]
 1983              	.LVL252:
 1984              	.L146:
 1985 0012 15       		.byte	(.L145-.L146)/2
 1986 0013 66       		.byte	(.L156-.L146)/2
 1987 0014 66       		.byte	(.L156-.L146)/2
 1988 0015 2A       		.byte	(.L147-.L146)/2
 1989 0016 07       		.byte	(.L148-.L146)/2
 1990 0017 0C       		.byte	(.L161-.L146)/2
 1991 0018 66       		.byte	(.L156-.L146)/2
 1992 0019 66       		.byte	(.L156-.L146)/2
 1993 001a 66       		.byte	(.L156-.L146)/2
 1994 001b 66       		.byte	(.L156-.L146)/2
 1995 001c 66       		.byte	(.L156-.L146)/2
 1996 001d 66       		.byte	(.L156-.L146)/2
 1997 001e 0F       		.byte	(.L150-.L146)/2
 1998 001f 00       		.p2align 1
 1999              	.L148:
 442:..\u8g2-master\csrc/u8x8_byte.c ****       break;
 2000              		.loc 1 442 0
 2001 0020 324B     		ldr	r3, .L163
 441:..\u8g2-master\csrc/u8x8_byte.c **** 	enable_pin = U8X8_MSG_GPIO_CS;
 2002              		.loc 1 441 0
 2003 0022 002A     		cmp	r2, #0
 2004 0024 5ED0     		beq	.L162
 442:..\u8g2-master\csrc/u8x8_byte.c ****       break;
 2005              		.loc 1 442 0
 2006 0026 4922     		movs	r2, #73
 2007              	.LVL253:
 2008 0028 5A70     		strb	r2, [r3, #1]
 2009              	.LVL254:
 2010              	.L161:
 449:..\u8g2-master\csrc/u8x8_byte.c **** }
 2011              		.loc 1 449 0
 2012 002a 0120     		movs	r0, #1
 2013              	.LVL255:
 2014 002c BDE8F883 		pop	{r3, r4, r5, r6, r7, r8, r9, pc}
 2015              	.LVL256:
 2016              	.L150:
 435:..\u8g2-master\csrc/u8x8_byte.c ****       break;
 2017              		.loc 1 435 0
 2018 0030 4A21     		movs	r1, #74
 2019 0032 FFF7FEFF 		bl	u8x8_gpio_call
 2020              	.LVL257:
 449:..\u8g2-master\csrc/u8x8_byte.c **** }
 2021              		.loc 1 449 0
 2022 0036 0120     		movs	r0, #1
 436:..\u8g2-master\csrc/u8x8_byte.c ****     case U8X8_MSG_BYTE_START_TRANSFER:
ARM GAS  C:\Users\info\AppData\Local\Temp\ccAWUQ53.s 			page 52


 2023              		.loc 1 436 0
 2024 0038 BDE8F883 		pop	{r3, r4, r5, r6, r7, r8, r9, pc}
 2025              	.LVL258:
 2026              	.L145:
 428:..\u8g2-master\csrc/u8x8_byte.c ****       /* ensure that the enable signals are low */
 2027              		.loc 1 428 0
 2028 003c 0368     		ldr	r3, [r0]
 2029 003e 4921     		movs	r1, #73
 2030 0040 5A78     		ldrb	r2, [r3, #1]	@ zero_extendqisi2
 2031              	.LVL259:
 2032 0042 FFF7FEFF 		bl	u8x8_gpio_call
 2033              	.LVL260:
 430:..\u8g2-master\csrc/u8x8_byte.c ****       u8x8_gpio_call(u8x8, U8X8_MSG_GPIO_CS, 0);
 2034              		.loc 1 430 0
 2035 0046 3046     		mov	r0, r6
 2036 0048 0022     		movs	r2, #0
 2037 004a 4821     		movs	r1, #72
 2038 004c FFF7FEFF 		bl	u8x8_gpio_call
 2039              	.LVL261:
 431:..\u8g2-master\csrc/u8x8_byte.c ****       enable_pin = U8X8_MSG_GPIO_E;
 2040              		.loc 1 431 0
 2041 0050 3046     		mov	r0, r6
 2042 0052 0022     		movs	r2, #0
 2043 0054 4921     		movs	r1, #73
 2044 0056 FFF7FEFF 		bl	u8x8_gpio_call
 2045              	.LVL262:
 432:..\u8g2-master\csrc/u8x8_byte.c ****       break;
 2046              		.loc 1 432 0
 2047 005a 244B     		ldr	r3, .L163
 2048 005c 4822     		movs	r2, #72
 2049 005e 5A70     		strb	r2, [r3, #1]
 449:..\u8g2-master\csrc/u8x8_byte.c **** }
 2050              		.loc 1 449 0
 2051 0060 0120     		movs	r0, #1
 2052 0062 BDE8F883 		pop	{r3, r4, r5, r6, r7, r8, r9, pc}
 2053              	.LVL263:
 2054              	.L147:
 407:..\u8g2-master\csrc/u8x8_byte.c ****       {
 2055              		.loc 1 407 0
 2056 0066 002A     		cmp	r2, #0
 2057 0068 DFD0     		beq	.L161
 2058 006a 02F1FF38 		add	r8, r2, #-1
 2059 006e 5FFA88F8 		uxtb	r8, r8
 2060 0072 08F10108 		add	r8, r8, #1
 2061 0076 DFF87490 		ldr	r9, .L163
 2062 007a B844     		add	r8, r8, r7
 2063              	.LVL264:
 2064              	.L153:
 409:..\u8g2-master\csrc/u8x8_byte.c **** 	data++;
 2065              		.loc 1 409 0
 2066 007c 17F8015B 		ldrb	r5, [r7], #1	@ zero_extendqisi2
 2067              	.LVL265:
 412:..\u8g2-master\csrc/u8x8_byte.c **** 	{
 2068              		.loc 1 412 0
 2069 0080 4024     		movs	r4, #64
 2070              	.LVL266:
 2071              	.L152:
ARM GAS  C:\Users\info\AppData\Local\Temp\ccAWUQ53.s 			page 53


 414:..\u8g2-master\csrc/u8x8_byte.c **** 	  b >>= 1;
 2072              		.loc 1 414 0 discriminator 3
 2073 0082 2146     		mov	r1, r4
 412:..\u8g2-master\csrc/u8x8_byte.c **** 	{
 2074              		.loc 1 412 0 discriminator 3
 2075 0084 0134     		adds	r4, r4, #1
 2076              	.LVL267:
 414:..\u8g2-master\csrc/u8x8_byte.c **** 	  b >>= 1;
 2077              		.loc 1 414 0 discriminator 3
 2078 0086 05F00102 		and	r2, r5, #1
 2079 008a 3046     		mov	r0, r6
 412:..\u8g2-master\csrc/u8x8_byte.c **** 	{
 2080              		.loc 1 412 0 discriminator 3
 2081 008c E4B2     		uxtb	r4, r4
 414:..\u8g2-master\csrc/u8x8_byte.c **** 	  b >>= 1;
 2082              		.loc 1 414 0 discriminator 3
 2083 008e FFF7FEFF 		bl	u8x8_gpio_call
 2084              	.LVL268:
 412:..\u8g2-master\csrc/u8x8_byte.c **** 	{
 2085              		.loc 1 412 0 discriminator 3
 2086 0092 482C     		cmp	r4, #72
 415:..\u8g2-master\csrc/u8x8_byte.c **** 	}    
 2087              		.loc 1 415 0 discriminator 3
 2088 0094 4FEA5505 		lsr	r5, r5, #1
 2089              	.LVL269:
 412:..\u8g2-master\csrc/u8x8_byte.c **** 	{
 2090              		.loc 1 412 0 discriminator 3
 2091 0098 F3D1     		bne	.L152
 418:..\u8g2-master\csrc/u8x8_byte.c **** 	u8x8_gpio_call(u8x8, enable_pin, 1);
 2092              		.loc 1 418 0
 2093 009a 3368     		ldr	r3, [r6]
 2094 009c 2C21     		movs	r1, #44
 2095 009e 9A7B     		ldrb	r2, [r3, #14]	@ zero_extendqisi2
 2096 00a0 3046     		mov	r0, r6
 2097 00a2 FFF7FEFF 		bl	u8x8_gpio_call
 2098              	.LVL270:
 419:..\u8g2-master\csrc/u8x8_byte.c **** 	u8x8_gpio_Delay(u8x8, U8X8_MSG_DELAY_NANO, 200);		/* KS0108 requires 450 ns, use 200 here */
 2099              		.loc 1 419 0
 2100 00a6 0122     		movs	r2, #1
 2101 00a8 99F80110 		ldrb	r1, [r9, #1]	@ zero_extendqisi2
 2102 00ac 3046     		mov	r0, r6
 2103 00ae FFF7FEFF 		bl	u8x8_gpio_call
 2104              	.LVL271:
 420:..\u8g2-master\csrc/u8x8_byte.c **** 	u8x8_gpio_Delay(u8x8, U8X8_MSG_DELAY_NANO, u8x8->display_info->write_pulse_width_ns);  /* expect 2
 2105              		.loc 1 420 0
 2106 00b2 C822     		movs	r2, #200
 2107 00b4 2C21     		movs	r1, #44
 2108 00b6 3046     		mov	r0, r6
 2109 00b8 FFF7FEFF 		bl	u8x8_gpio_call
 2110              	.LVL272:
 421:..\u8g2-master\csrc/u8x8_byte.c **** 	u8x8_gpio_call(u8x8, enable_pin, 0);
 2111              		.loc 1 421 0
 2112 00bc 3368     		ldr	r3, [r6]
 2113 00be 2C21     		movs	r1, #44
 2114 00c0 DA7B     		ldrb	r2, [r3, #15]	@ zero_extendqisi2
 2115 00c2 3046     		mov	r0, r6
 2116 00c4 FFF7FEFF 		bl	u8x8_gpio_call
ARM GAS  C:\Users\info\AppData\Local\Temp\ccAWUQ53.s 			page 54


 2117              	.LVL273:
 422:..\u8g2-master\csrc/u8x8_byte.c ****       }
 2118              		.loc 1 422 0
 2119 00c8 0022     		movs	r2, #0
 2120 00ca 99F80110 		ldrb	r1, [r9, #1]	@ zero_extendqisi2
 2121 00ce 3046     		mov	r0, r6
 2122 00d0 FFF7FEFF 		bl	u8x8_gpio_call
 2123              	.LVL274:
 407:..\u8g2-master\csrc/u8x8_byte.c ****       {
 2124              		.loc 1 407 0
 2125 00d4 B845     		cmp	r8, r7
 2126 00d6 D1D1     		bne	.L153
 449:..\u8g2-master\csrc/u8x8_byte.c **** }
 2127              		.loc 1 449 0
 2128 00d8 0120     		movs	r0, #1
 2129 00da BDE8F883 		pop	{r3, r4, r5, r6, r7, r8, r9, pc}
 2130              	.LVL275:
 2131              	.L156:
 447:..\u8g2-master\csrc/u8x8_byte.c ****   }
 2132              		.loc 1 447 0
 2133 00de 0020     		movs	r0, #0
 2134              	.LVL276:
 450:..\u8g2-master\csrc/u8x8_byte.c **** 
 2135              		.loc 1 450 0
 2136 00e0 BDE8F883 		pop	{r3, r4, r5, r6, r7, r8, r9, pc}
 2137              	.LVL277:
 2138              	.L162:
 440:..\u8g2-master\csrc/u8x8_byte.c ****       if ( arg_int != 0 )
 2139              		.loc 1 440 0
 2140 00e4 4822     		movs	r2, #72
 2141              	.LVL278:
 2142 00e6 5A70     		strb	r2, [r3, #1]
 2143 00e8 9FE7     		b	.L161
 2144              	.L164:
 2145 00ea 00BF     		.align	2
 2146              	.L163:
 2147 00ec 00000000 		.word	.LANCHOR0
 2148              		.cfi_endproc
 2149              	.LFE12:
 2150              		.size	u8x8_byte_sed1520, .-u8x8_byte_sed1520
 2151              		.section	.text.u8x8_byte_sw_i2c,"ax",%progbits
 2152              		.align	2
 2153              		.global	u8x8_byte_sw_i2c
 2154              		.thumb
 2155              		.thumb_func
 2156              		.type	u8x8_byte_sw_i2c, %function
 2157              	u8x8_byte_sw_i2c:
 2158              	.LFB24:
 576:..\u8g2-master\csrc/u8x8_byte.c **** 
 577:..\u8g2-master\csrc/u8x8_byte.c **** uint8_t u8x8_byte_sw_i2c(u8x8_t *u8x8, uint8_t msg, uint8_t arg_int, void *arg_ptr)
 578:..\u8g2-master\csrc/u8x8_byte.c **** {
 2159              		.loc 1 578 0
 2160              		.cfi_startproc
 2161              		@ args = 0, pretend = 0, frame = 0
 2162              		@ frame_needed = 0, uses_anonymous_args = 0
 2163              	.LVL279:
 579:..\u8g2-master\csrc/u8x8_byte.c ****   uint8_t *data;
ARM GAS  C:\Users\info\AppData\Local\Temp\ccAWUQ53.s 			page 55


 580:..\u8g2-master\csrc/u8x8_byte.c **** 
 581:..\u8g2-master\csrc/u8x8_byte.c ****   switch(msg)
 2164              		.loc 1 581 0
 2165 0000 1439     		subs	r1, r1, #20
 2166              	.LVL280:
 578:..\u8g2-master\csrc/u8x8_byte.c ****   uint8_t *data;
 2167              		.loc 1 578 0
 2168 0002 70B5     		push	{r4, r5, r6, lr}
 2169              		.cfi_def_cfa_offset 16
 2170              		.cfi_offset 4, -16
 2171              		.cfi_offset 5, -12
 2172              		.cfi_offset 6, -8
 2173              		.cfi_offset 14, -4
 578:..\u8g2-master\csrc/u8x8_byte.c ****   uint8_t *data;
 2174              		.loc 1 578 0
 2175 0004 0546     		mov	r5, r0
 2176 0006 1C46     		mov	r4, r3
 2177              		.loc 1 581 0
 2178 0008 0C29     		cmp	r1, #12
 2179 000a 6FD8     		bhi	.L177
 2180 000c DFE801F0 		tbb	[pc, r1]
 2181              	.LVL281:
 2182              	.L168:
 2183 0010 23       		.byte	(.L167-.L168)/2
 2184 0011 6E       		.byte	(.L177-.L168)/2
 2185 0012 6E       		.byte	(.L177-.L168)/2
 2186 0013 31       		.byte	(.L169-.L168)/2
 2187 0014 40       		.byte	(.L170-.L168)/2
 2188 0015 07       		.byte	(.L171-.L168)/2
 2189 0016 6E       		.byte	(.L177-.L168)/2
 2190 0017 6E       		.byte	(.L177-.L168)/2
 2191 0018 6E       		.byte	(.L177-.L168)/2
 2192 0019 6E       		.byte	(.L177-.L168)/2
 2193 001a 6E       		.byte	(.L177-.L168)/2
 2194 001b 6E       		.byte	(.L177-.L168)/2
 2195 001c 21       		.byte	(.L184-.L168)/2
 2196 001d 00       		.p2align 1
 2197              	.L171:
 2198              	.LBB256:
 2199              	.LBB257:
 2200              	.LBB258:
 2201              	.LBB259:
 499:..\u8g2-master\csrc/u8x8_byte.c **** }
 2202              		.loc 1 499 0
 2203 001e 0022     		movs	r2, #0
 2204              	.LVL282:
 2205 0020 4D21     		movs	r1, #77
 2206 0022 FFF7FEFF 		bl	u8x8_gpio_call
 2207              	.LVL283:
 2208              	.LBE259:
 2209              	.LBE258:
 524:..\u8g2-master\csrc/u8x8_byte.c ****  
 2210              		.loc 1 524 0
 2211 0026 2846     		mov	r0, r5
 2212 0028 FFF7FEFF 		bl	i2c_delay
 2213              	.LVL284:
 2214              	.LBB260:
ARM GAS  C:\Users\info\AppData\Local\Temp\ccAWUQ53.s 			page 56


 2215              	.LBB261:
 480:..\u8g2-master\csrc/u8x8_byte.c **** 
 2216              		.loc 1 480 0
 2217 002c 0122     		movs	r2, #1
 2218 002e 4C21     		movs	r1, #76
 2219 0030 2846     		mov	r0, r5
 2220 0032 FFF7FEFF 		bl	u8x8_gpio_call
 2221              	.LVL285:
 482:..\u8g2-master\csrc/u8x8_byte.c **** }
 2222              		.loc 1 482 0
 2223 0036 2846     		mov	r0, r5
 2224 0038 FFF7FEFF 		bl	i2c_delay
 2225              	.LVL286:
 2226              	.LBE261:
 2227              	.LBE260:
 2228              	.LBB262:
 2229              	.LBB263:
 493:..\u8g2-master\csrc/u8x8_byte.c **** }
 2230              		.loc 1 493 0
 2231 003c 0122     		movs	r2, #1
 2232 003e 4D21     		movs	r1, #77
 2233 0040 2846     		mov	r0, r5
 2234 0042 FFF7FEFF 		bl	u8x8_gpio_call
 2235              	.LVL287:
 2236              	.LBE263:
 2237              	.LBE262:
 531:..\u8g2-master\csrc/u8x8_byte.c ****   u8x8->i2c_started = 0;
 2238              		.loc 1 531 0
 2239 0046 2846     		mov	r0, r5
 2240 0048 FFF7FEFF 		bl	i2c_delay
 2241              	.LVL288:
 532:..\u8g2-master\csrc/u8x8_byte.c **** }
 2242              		.loc 1 532 0
 2243 004c 0023     		movs	r3, #0
 2244 004e 85F82530 		strb	r3, [r5, #37]
 2245              	.LVL289:
 2246              	.L184:
 2247              	.LBE257:
 2248              	.LBE256:
 582:..\u8g2-master\csrc/u8x8_byte.c ****   {
 583:..\u8g2-master\csrc/u8x8_byte.c ****     case U8X8_MSG_BYTE_SEND:
 584:..\u8g2-master\csrc/u8x8_byte.c ****       data = (uint8_t *)arg_ptr;
 585:..\u8g2-master\csrc/u8x8_byte.c ****     
 586:..\u8g2-master\csrc/u8x8_byte.c ****       while( arg_int > 0 )
 587:..\u8g2-master\csrc/u8x8_byte.c ****       {
 588:..\u8g2-master\csrc/u8x8_byte.c **** 	i2c_write_byte(u8x8, *data);
 589:..\u8g2-master\csrc/u8x8_byte.c **** 	data++;
 590:..\u8g2-master\csrc/u8x8_byte.c **** 	arg_int--;
 591:..\u8g2-master\csrc/u8x8_byte.c ****       }
 592:..\u8g2-master\csrc/u8x8_byte.c ****       
 593:..\u8g2-master\csrc/u8x8_byte.c ****       break;
 594:..\u8g2-master\csrc/u8x8_byte.c ****       
 595:..\u8g2-master\csrc/u8x8_byte.c ****     case U8X8_MSG_BYTE_INIT:
 596:..\u8g2-master\csrc/u8x8_byte.c ****       i2c_init(u8x8);
 597:..\u8g2-master\csrc/u8x8_byte.c ****       break;
 598:..\u8g2-master\csrc/u8x8_byte.c ****     case U8X8_MSG_BYTE_SET_DC:
 599:..\u8g2-master\csrc/u8x8_byte.c ****       break;
ARM GAS  C:\Users\info\AppData\Local\Temp\ccAWUQ53.s 			page 57


 600:..\u8g2-master\csrc/u8x8_byte.c ****     case U8X8_MSG_BYTE_START_TRANSFER:
 601:..\u8g2-master\csrc/u8x8_byte.c ****       i2c_start(u8x8);
 602:..\u8g2-master\csrc/u8x8_byte.c ****       i2c_write_byte(u8x8, u8x8_GetI2CAddress(u8x8));
 603:..\u8g2-master\csrc/u8x8_byte.c ****       //i2c_write_byte(u8x8, 0x078);
 604:..\u8g2-master\csrc/u8x8_byte.c ****       break;
 605:..\u8g2-master\csrc/u8x8_byte.c ****     case U8X8_MSG_BYTE_END_TRANSFER:
 606:..\u8g2-master\csrc/u8x8_byte.c ****       i2c_stop(u8x8);
 607:..\u8g2-master\csrc/u8x8_byte.c ****       break;
 608:..\u8g2-master\csrc/u8x8_byte.c ****     default:
 609:..\u8g2-master\csrc/u8x8_byte.c ****       return 0;
 610:..\u8g2-master\csrc/u8x8_byte.c ****   }
 611:..\u8g2-master\csrc/u8x8_byte.c ****   return 1;
 2249              		.loc 1 611 0
 2250 0052 0120     		movs	r0, #1
 2251 0054 70BD     		pop	{r4, r5, r6, pc}
 2252              	.LVL290:
 2253              	.L167:
 2254              	.LBB264:
 2255              	.LBB265:
 469:..\u8g2-master\csrc/u8x8_byte.c ****   u8x8_gpio_SetI2CData(u8x8, 1);
 2256              		.loc 1 469 0
 2257 0056 0122     		movs	r2, #1
 2258              	.LVL291:
 2259 0058 4C21     		movs	r1, #76
 2260 005a FFF7FEFF 		bl	u8x8_gpio_call
 2261              	.LVL292:
 470:..\u8g2-master\csrc/u8x8_byte.c ****   
 2262              		.loc 1 470 0
 2263 005e 0122     		movs	r2, #1
 2264 0060 4D21     		movs	r1, #77
 2265 0062 2846     		mov	r0, r5
 2266 0064 FFF7FEFF 		bl	u8x8_gpio_call
 2267              	.LVL293:
 472:..\u8g2-master\csrc/u8x8_byte.c **** }
 2268              		.loc 1 472 0
 2269 0068 2846     		mov	r0, r5
 2270 006a FFF7FEFF 		bl	i2c_delay
 2271              	.LVL294:
 2272              	.LBE265:
 2273              	.LBE264:
 2274              		.loc 1 611 0
 2275 006e 0120     		movs	r0, #1
 2276 0070 70BD     		pop	{r4, r5, r6, pc}
 2277              	.LVL295:
 2278              	.L169:
 586:..\u8g2-master\csrc/u8x8_byte.c ****       {
 2279              		.loc 1 586 0
 2280 0072 002A     		cmp	r2, #0
 2281 0074 EDD0     		beq	.L184
 2282 0076 561E     		subs	r6, r2, #1
 2283 0078 F6B2     		uxtb	r6, r6
 2284 007a 0136     		adds	r6, r6, #1
 2285 007c 2644     		add	r6, r6, r4
 2286              	.LVL296:
 2287              	.L174:
 588:..\u8g2-master\csrc/u8x8_byte.c **** 	data++;
 2288              		.loc 1 588 0
ARM GAS  C:\Users\info\AppData\Local\Temp\ccAWUQ53.s 			page 58


 2289 007e 14F8011B 		ldrb	r1, [r4], #1	@ zero_extendqisi2
 2290              	.LVL297:
 2291 0082 2846     		mov	r0, r5
 2292 0084 FFF7FEFF 		bl	i2c_write_byte
 2293              	.LVL298:
 586:..\u8g2-master\csrc/u8x8_byte.c ****       {
 2294              		.loc 1 586 0
 2295 0088 A642     		cmp	r6, r4
 2296 008a F8D1     		bne	.L174
 2297              		.loc 1 611 0
 2298 008c 0120     		movs	r0, #1
 2299 008e 70BD     		pop	{r4, r5, r6, pc}
 2300              	.LVL299:
 2301              	.L170:
 2302              	.LBB266:
 2303              	.LBB267:
 504:..\u8g2-master\csrc/u8x8_byte.c ****   {
 2304              		.loc 1 504 0
 2305 0090 90F82530 		ldrb	r3, [r0, #37]	@ zero_extendqisi2
 2306 0094 73B1     		cbz	r3, .L176
 2307              	.LVL300:
 2308              	.LBB268:
 2309              	.LBB269:
 493:..\u8g2-master\csrc/u8x8_byte.c **** }
 2310              		.loc 1 493 0
 2311 0096 0122     		movs	r2, #1
 2312              	.LVL301:
 2313 0098 4D21     		movs	r1, #77
 2314 009a FFF7FEFF 		bl	u8x8_gpio_call
 2315              	.LVL302:
 2316              	.LBE269:
 2317              	.LBE268:
 508:..\u8g2-master\csrc/u8x8_byte.c ****     i2c_read_scl_and_delay(u8x8);
 2318              		.loc 1 508 0
 2319 009e 2846     		mov	r0, r5
 2320 00a0 FFF7FEFF 		bl	i2c_delay
 2321              	.LVL303:
 2322              	.LBB270:
 2323              	.LBB271:
 480:..\u8g2-master\csrc/u8x8_byte.c **** 
 2324              		.loc 1 480 0
 2325 00a4 2846     		mov	r0, r5
 2326 00a6 0122     		movs	r2, #1
 2327 00a8 4C21     		movs	r1, #76
 2328 00aa FFF7FEFF 		bl	u8x8_gpio_call
 2329              	.LVL304:
 482:..\u8g2-master\csrc/u8x8_byte.c **** }
 2330              		.loc 1 482 0
 2331 00ae 2846     		mov	r0, r5
 2332 00b0 FFF7FEFF 		bl	i2c_delay
 2333              	.LVL305:
 2334              	.L176:
 2335              	.LBE271:
 2336              	.LBE270:
 2337              	.LBB272:
 2338              	.LBB273:
 493:..\u8g2-master\csrc/u8x8_byte.c **** }
ARM GAS  C:\Users\info\AppData\Local\Temp\ccAWUQ53.s 			page 59


 2339              		.loc 1 493 0
 2340 00b4 2846     		mov	r0, r5
 2341 00b6 0122     		movs	r2, #1
 2342 00b8 4D21     		movs	r1, #77
 2343 00ba FFF7FEFF 		bl	u8x8_gpio_call
 2344              	.LVL306:
 2345              	.LBE273:
 2346              	.LBE272:
 2347              	.LBB274:
 2348              	.LBB275:
 499:..\u8g2-master\csrc/u8x8_byte.c **** }
 2349              		.loc 1 499 0
 2350 00be 0022     		movs	r2, #0
 2351 00c0 4D21     		movs	r1, #77
 2352 00c2 2846     		mov	r0, r5
 2353 00c4 FFF7FEFF 		bl	u8x8_gpio_call
 2354              	.LVL307:
 2355              	.LBE275:
 2356              	.LBE274:
 514:..\u8g2-master\csrc/u8x8_byte.c ****   i2c_clear_scl(u8x8);
 2357              		.loc 1 514 0
 2358 00c8 2846     		mov	r0, r5
 2359 00ca FFF7FEFF 		bl	i2c_delay
 2360              	.LVL308:
 516:..\u8g2-master\csrc/u8x8_byte.c **** }
 2361              		.loc 1 516 0
 2362 00ce 0124     		movs	r4, #1
 2363              	.LVL309:
 2364              	.LBB276:
 2365              	.LBB277:
 487:..\u8g2-master\csrc/u8x8_byte.c **** }
 2366              		.loc 1 487 0
 2367 00d0 0022     		movs	r2, #0
 2368 00d2 2846     		mov	r0, r5
 2369 00d4 4C21     		movs	r1, #76
 2370 00d6 FFF7FEFF 		bl	u8x8_gpio_call
 2371              	.LVL310:
 2372              	.LBE277:
 2373              	.LBE276:
 2374              	.LBE267:
 2375              	.LBE266:
 602:..\u8g2-master\csrc/u8x8_byte.c ****       //i2c_write_byte(u8x8, 0x078);
 2376              		.loc 1 602 0
 2377 00da 2846     		mov	r0, r5
 2378              	.LBB279:
 2379              	.LBB278:
 516:..\u8g2-master\csrc/u8x8_byte.c **** }
 2380              		.loc 1 516 0
 2381 00dc 85F82540 		strb	r4, [r5, #37]
 2382              	.LVL311:
 2383              	.LBE278:
 2384              	.LBE279:
 602:..\u8g2-master\csrc/u8x8_byte.c ****       //i2c_write_byte(u8x8, 0x078);
 2385              		.loc 1 602 0
 2386 00e0 95F82410 		ldrb	r1, [r5, #36]	@ zero_extendqisi2
 2387 00e4 FFF7FEFF 		bl	i2c_write_byte
 2388              	.LVL312:
ARM GAS  C:\Users\info\AppData\Local\Temp\ccAWUQ53.s 			page 60


 2389              		.loc 1 611 0
 2390 00e8 2046     		mov	r0, r4
 604:..\u8g2-master\csrc/u8x8_byte.c ****     case U8X8_MSG_BYTE_END_TRANSFER:
 2391              		.loc 1 604 0
 2392 00ea 70BD     		pop	{r4, r5, r6, pc}
 2393              	.LVL313:
 2394              	.L177:
 609:..\u8g2-master\csrc/u8x8_byte.c ****   }
 2395              		.loc 1 609 0
 2396 00ec 0020     		movs	r0, #0
 2397              	.LVL314:
 612:..\u8g2-master\csrc/u8x8_byte.c **** }
 2398              		.loc 1 612 0
 2399 00ee 70BD     		pop	{r4, r5, r6, pc}
 2400              		.cfi_endproc
 2401              	.LFE24:
 2402              		.size	u8x8_byte_sw_i2c, .-u8x8_byte_sw_i2c
 2403              		.bss
 2404              		.set	.LANCHOR0,. + 0
 2405              		.type	last_dc.5529, %object
 2406              		.size	last_dc.5529, 1
 2407              	last_dc.5529:
 2408 0000 00       		.space	1
 2409              		.type	enable_pin.5578, %object
 2410              		.size	enable_pin.5578, 1
 2411              	enable_pin.5578:
 2412 0001 00       		.space	1
 2413              		.text
 2414              	.Letext0:
 2415              		.file 2 "c:\\program files (x86)\\cypress\\psoc creator\\4.2\\psoc creator\\import\\gnu\\arm\\5.4.
 2416              		.file 3 "c:\\program files (x86)\\cypress\\psoc creator\\4.2\\psoc creator\\import\\gnu\\arm\\5.4.
 2417              		.file 4 "..\\u8g2-master\\csrc\\u8x8.h"
 2418              		.section	.debug_info,"",%progbits
 2419              	.Ldebug_info0:
 2420 0000 11200000 		.4byte	0x2011
 2421 0004 0400     		.2byte	0x4
 2422 0006 00000000 		.4byte	.Ldebug_abbrev0
 2423 000a 04       		.byte	0x4
 2424 000b 01       		.uleb128 0x1
 2425 000c D7040000 		.4byte	.LASF94
 2426 0010 0C       		.byte	0xc
 2427 0011 39000000 		.4byte	.LASF95
 2428 0015 24040000 		.4byte	.LASF96
 2429 0019 F8000000 		.4byte	.Ldebug_ranges0+0xf8
 2430 001d 00000000 		.4byte	0
 2431 0021 00000000 		.4byte	.Ldebug_line0
 2432 0025 02       		.uleb128 0x2
 2433 0026 01       		.byte	0x1
 2434 0027 06       		.byte	0x6
 2435 0028 ED000000 		.4byte	.LASF0
 2436 002c 03       		.uleb128 0x3
 2437 002d 27000000 		.4byte	.LASF3
 2438 0031 02       		.byte	0x2
 2439 0032 1D       		.byte	0x1d
 2440 0033 37000000 		.4byte	0x37
 2441 0037 02       		.uleb128 0x2
 2442 0038 01       		.byte	0x1
ARM GAS  C:\Users\info\AppData\Local\Temp\ccAWUQ53.s 			page 61


 2443 0039 08       		.byte	0x8
 2444 003a E6030000 		.4byte	.LASF1
 2445 003e 02       		.uleb128 0x2
 2446 003f 02       		.byte	0x2
 2447 0040 05       		.byte	0x5
 2448 0041 F4030000 		.4byte	.LASF2
 2449 0045 03       		.uleb128 0x3
 2450 0046 7D050000 		.4byte	.LASF4
 2451 004a 02       		.byte	0x2
 2452 004b 2B       		.byte	0x2b
 2453 004c 50000000 		.4byte	0x50
 2454 0050 02       		.uleb128 0x2
 2455 0051 02       		.byte	0x2
 2456 0052 07       		.byte	0x7
 2457 0053 AD020000 		.4byte	.LASF5
 2458 0057 02       		.uleb128 0x2
 2459 0058 04       		.byte	0x4
 2460 0059 05       		.byte	0x5
 2461 005a 51010000 		.4byte	.LASF6
 2462 005e 03       		.uleb128 0x3
 2463 005f ED010000 		.4byte	.LASF7
 2464 0063 02       		.byte	0x2
 2465 0064 41       		.byte	0x41
 2466 0065 69000000 		.4byte	0x69
 2467 0069 02       		.uleb128 0x2
 2468 006a 04       		.byte	0x4
 2469 006b 07       		.byte	0x7
 2470 006c 56020000 		.4byte	.LASF8
 2471 0070 02       		.uleb128 0x2
 2472 0071 08       		.byte	0x8
 2473 0072 05       		.byte	0x5
 2474 0073 DF000000 		.4byte	.LASF9
 2475 0077 02       		.uleb128 0x2
 2476 0078 08       		.byte	0x8
 2477 0079 07       		.byte	0x7
 2478 007a 59000000 		.4byte	.LASF10
 2479 007e 04       		.uleb128 0x4
 2480 007f 04       		.byte	0x4
 2481 0080 05       		.byte	0x5
 2482 0081 696E7400 		.ascii	"int\000"
 2483 0085 02       		.uleb128 0x2
 2484 0086 04       		.byte	0x4
 2485 0087 07       		.byte	0x7
 2486 0088 27020000 		.4byte	.LASF11
 2487 008c 03       		.uleb128 0x3
 2488 008d 1E060000 		.4byte	.LASF12
 2489 0091 03       		.byte	0x3
 2490 0092 18       		.byte	0x18
 2491 0093 2C000000 		.4byte	0x2c
 2492 0097 03       		.uleb128 0x3
 2493 0098 75010000 		.4byte	.LASF13
 2494 009c 03       		.byte	0x3
 2495 009d 24       		.byte	0x24
 2496 009e 45000000 		.4byte	0x45
 2497 00a2 03       		.uleb128 0x3
 2498 00a3 A3040000 		.4byte	.LASF14
 2499 00a7 03       		.byte	0x3
ARM GAS  C:\Users\info\AppData\Local\Temp\ccAWUQ53.s 			page 62


 2500 00a8 30       		.byte	0x30
 2501 00a9 5E000000 		.4byte	0x5e
 2502 00ad 05       		.uleb128 0x5
 2503 00ae 04       		.byte	0x4
 2504 00af 02       		.uleb128 0x2
 2505 00b0 08       		.byte	0x8
 2506 00b1 04       		.byte	0x4
 2507 00b2 69030000 		.4byte	.LASF15
 2508 00b6 03       		.uleb128 0x3
 2509 00b7 B9050000 		.4byte	.LASF16
 2510 00bb 04       		.byte	0x4
 2511 00bc C3       		.byte	0xc3
 2512 00bd C1000000 		.4byte	0xc1
 2513 00c1 06       		.uleb128 0x6
 2514 00c2 0C030000 		.4byte	.LASF38
 2515 00c6 30       		.byte	0x30
 2516 00c7 04       		.byte	0x4
 2517 00c8 4601     		.2byte	0x146
 2518 00ca D3010000 		.4byte	0x1d3
 2519 00ce 07       		.uleb128 0x7
 2520 00cf D8020000 		.4byte	.LASF17
 2521 00d3 04       		.byte	0x4
 2522 00d4 4801     		.2byte	0x148
 2523 00d6 38030000 		.4byte	0x338
 2524 00da 00       		.byte	0
 2525 00db 07       		.uleb128 0x7
 2526 00dc 7E010000 		.4byte	.LASF18
 2527 00e0 04       		.byte	0x4
 2528 00e1 4901     		.2byte	0x149
 2529 00e3 0D030000 		.4byte	0x30d
 2530 00e7 04       		.byte	0x4
 2531 00e8 07       		.uleb128 0x7
 2532 00e9 1D010000 		.4byte	.LASF19
 2533 00ed 04       		.byte	0x4
 2534 00ee 4A01     		.2byte	0x14a
 2535 00f0 D8020000 		.4byte	0x2d8
 2536 00f4 08       		.byte	0x8
 2537 00f5 07       		.uleb128 0x7
 2538 00f6 75030000 		.4byte	.LASF20
 2539 00fa 04       		.byte	0x4
 2540 00fb 4B01     		.2byte	0x14b
 2541 00fd D8020000 		.4byte	0x2d8
 2542 0101 0C       		.byte	0xc
 2543 0102 07       		.uleb128 0x7
 2544 0103 31000000 		.4byte	.LASF21
 2545 0107 04       		.byte	0x4
 2546 0108 4C01     		.2byte	0x14c
 2547 010a D8020000 		.4byte	0x2d8
 2548 010e 10       		.byte	0x10
 2549 010f 07       		.uleb128 0x7
 2550 0110 93010000 		.4byte	.LASF22
 2551 0114 04       		.byte	0x4
 2552 0115 4D01     		.2byte	0x14d
 2553 0117 D8020000 		.4byte	0x2d8
 2554 011b 14       		.byte	0x14
 2555 011c 07       		.uleb128 0x7
 2556 011d C0050000 		.4byte	.LASF23
ARM GAS  C:\Users\info\AppData\Local\Temp\ccAWUQ53.s 			page 63


 2557 0121 04       		.byte	0x4
 2558 0122 4E01     		.2byte	0x14e
 2559 0124 A2000000 		.4byte	0xa2
 2560 0128 18       		.byte	0x18
 2561 0129 07       		.uleb128 0x7
 2562 012a 05060000 		.4byte	.LASF24
 2563 012e 04       		.byte	0x4
 2564 012f 4F01     		.2byte	0x14f
 2565 0131 43030000 		.4byte	0x343
 2566 0135 1C       		.byte	0x1c
 2567 0136 07       		.uleb128 0x7
 2568 0137 37030000 		.4byte	.LASF25
 2569 013b 04       		.byte	0x4
 2570 013c 5001     		.2byte	0x150
 2571 013e 97000000 		.4byte	0x97
 2572 0142 20       		.byte	0x20
 2573 0143 07       		.uleb128 0x7
 2574 0144 A0030000 		.4byte	.LASF26
 2575 0148 04       		.byte	0x4
 2576 0149 5101     		.2byte	0x151
 2577 014b 8C000000 		.4byte	0x8c
 2578 014f 22       		.byte	0x22
 2579 0150 07       		.uleb128 0x7
 2580 0151 F9000000 		.4byte	.LASF27
 2581 0155 04       		.byte	0x4
 2582 0156 5201     		.2byte	0x152
 2583 0158 8C000000 		.4byte	0x8c
 2584 015c 23       		.byte	0x23
 2585 015d 07       		.uleb128 0x7
 2586 015e 3C020000 		.4byte	.LASF28
 2587 0162 04       		.byte	0x4
 2588 0163 5301     		.2byte	0x153
 2589 0165 8C000000 		.4byte	0x8c
 2590 0169 24       		.byte	0x24
 2591 016a 07       		.uleb128 0x7
 2592 016b 26060000 		.4byte	.LASF29
 2593 016f 04       		.byte	0x4
 2594 0170 5601     		.2byte	0x156
 2595 0172 8C000000 		.4byte	0x8c
 2596 0176 25       		.byte	0x25
 2597 0177 07       		.uleb128 0x7
 2598 0178 91030000 		.4byte	.LASF30
 2599 017c 04       		.byte	0x4
 2600 017d 5701     		.2byte	0x157
 2601 017f 8C000000 		.4byte	0x8c
 2602 0183 26       		.byte	0x26
 2603 0184 07       		.uleb128 0x7
 2604 0185 9E000000 		.4byte	.LASF31
 2605 0189 04       		.byte	0x4
 2606 018a 5801     		.2byte	0x158
 2607 018c 8C000000 		.4byte	0x8c
 2608 0190 27       		.byte	0x27
 2609 0191 07       		.uleb128 0x7
 2610 0192 BB000000 		.4byte	.LASF32
 2611 0196 04       		.byte	0x4
 2612 0197 5901     		.2byte	0x159
 2613 0199 8C000000 		.4byte	0x8c
ARM GAS  C:\Users\info\AppData\Local\Temp\ccAWUQ53.s 			page 64


 2614 019d 28       		.byte	0x28
 2615 019e 07       		.uleb128 0x7
 2616 019f 52060000 		.4byte	.LASF33
 2617 01a3 04       		.byte	0x4
 2618 01a4 5A01     		.2byte	0x15a
 2619 01a6 8C000000 		.4byte	0x8c
 2620 01aa 29       		.byte	0x29
 2621 01ab 07       		.uleb128 0x7
 2622 01ac C0020000 		.4byte	.LASF34
 2623 01b0 04       		.byte	0x4
 2624 01b1 5B01     		.2byte	0x15b
 2625 01b3 8C000000 		.4byte	0x8c
 2626 01b7 2A       		.byte	0x2a
 2627 01b8 07       		.uleb128 0x7
 2628 01b9 DB050000 		.4byte	.LASF35
 2629 01bd 04       		.byte	0x4
 2630 01be 5C01     		.2byte	0x15c
 2631 01c0 8C000000 		.4byte	0x8c
 2632 01c4 2B       		.byte	0x2b
 2633 01c5 07       		.uleb128 0x7
 2634 01c6 13020000 		.4byte	.LASF36
 2635 01ca 04       		.byte	0x4
 2636 01cb 5D01     		.2byte	0x15d
 2637 01cd 8C000000 		.4byte	0x8c
 2638 01d1 2C       		.byte	0x2c
 2639 01d2 00       		.byte	0
 2640 01d3 03       		.uleb128 0x3
 2641 01d4 C1010000 		.4byte	.LASF37
 2642 01d8 04       		.byte	0x4
 2643 01d9 C4       		.byte	0xc4
 2644 01da DE010000 		.4byte	0x1de
 2645 01de 08       		.uleb128 0x8
 2646 01df 6D060000 		.4byte	.LASF39
 2647 01e3 18       		.byte	0x18
 2648 01e4 04       		.byte	0x4
 2649 01e5 DD       		.byte	0xdd
 2650 01e6 D8020000 		.4byte	0x2d8
 2651 01ea 09       		.uleb128 0x9
 2652 01eb C5040000 		.4byte	.LASF40
 2653 01ef 04       		.byte	0x4
 2654 01f0 E1       		.byte	0xe1
 2655 01f1 8C000000 		.4byte	0x8c
 2656 01f5 00       		.byte	0
 2657 01f6 09       		.uleb128 0x9
 2658 01f7 F2050000 		.4byte	.LASF41
 2659 01fb 04       		.byte	0x4
 2660 01fc E2       		.byte	0xe2
 2661 01fd 8C000000 		.4byte	0x8c
 2662 0201 01       		.byte	0x1
 2663 0202 09       		.uleb128 0x9
 2664 0203 88050000 		.4byte	.LASF42
 2665 0207 04       		.byte	0x4
 2666 0208 E4       		.byte	0xe4
 2667 0209 8C000000 		.4byte	0x8c
 2668 020d 02       		.byte	0x2
 2669 020e 09       		.uleb128 0x9
 2670 020f 38010000 		.4byte	.LASF43
ARM GAS  C:\Users\info\AppData\Local\Temp\ccAWUQ53.s 			page 65


 2671 0213 04       		.byte	0x4
 2672 0214 E5       		.byte	0xe5
 2673 0215 8C000000 		.4byte	0x8c
 2674 0219 03       		.byte	0x3
 2675 021a 09       		.uleb128 0x9
 2676 021b 00000000 		.4byte	.LASF44
 2677 021f 04       		.byte	0x4
 2678 0220 E6       		.byte	0xe6
 2679 0221 8C000000 		.4byte	0x8c
 2680 0225 04       		.byte	0x4
 2681 0226 09       		.uleb128 0x9
 2682 0227 8B000000 		.4byte	.LASF45
 2683 022b 04       		.byte	0x4
 2684 022c E7       		.byte	0xe7
 2685 022d 8C000000 		.4byte	0x8c
 2686 0231 05       		.byte	0x5
 2687 0232 09       		.uleb128 0x9
 2688 0233 F8010000 		.4byte	.LASF46
 2689 0237 04       		.byte	0x4
 2690 0238 EE       		.byte	0xee
 2691 0239 8C000000 		.4byte	0x8c
 2692 023d 06       		.byte	0x6
 2693 023e 09       		.uleb128 0x9
 2694 023f F9020000 		.4byte	.LASF47
 2695 0243 04       		.byte	0x4
 2696 0244 F2       		.byte	0xf2
 2697 0245 8C000000 		.4byte	0x8c
 2698 0249 07       		.byte	0x7
 2699 024a 09       		.uleb128 0x9
 2700 024b 93060000 		.4byte	.LASF48
 2701 024f 04       		.byte	0x4
 2702 0250 F5       		.byte	0xf5
 2703 0251 A2000000 		.4byte	0xa2
 2704 0255 08       		.byte	0x8
 2705 0256 09       		.uleb128 0x9
 2706 0257 AC040000 		.4byte	.LASF49
 2707 025b 04       		.byte	0x4
 2708 025c FF       		.byte	0xff
 2709 025d 8C000000 		.4byte	0x8c
 2710 0261 0C       		.byte	0xc
 2711 0262 07       		.uleb128 0x7
 2712 0263 8E040000 		.4byte	.LASF50
 2713 0267 04       		.byte	0x4
 2714 0268 0201     		.2byte	0x102
 2715 026a 8C000000 		.4byte	0x8c
 2716 026e 0D       		.byte	0xd
 2717 026f 07       		.uleb128 0x7
 2718 0270 11040000 		.4byte	.LASF51
 2719 0274 04       		.byte	0x4
 2720 0275 0801     		.2byte	0x108
 2721 0277 8C000000 		.4byte	0x8c
 2722 027b 0E       		.byte	0xe
 2723 027c 07       		.uleb128 0x7
 2724 027d 7C030000 		.4byte	.LASF52
 2725 0281 04       		.byte	0x4
 2726 0282 0A01     		.2byte	0x10a
 2727 0284 8C000000 		.4byte	0x8c
ARM GAS  C:\Users\info\AppData\Local\Temp\ccAWUQ53.s 			page 66


 2728 0288 0F       		.byte	0xf
 2729 0289 07       		.uleb128 0x7
 2730 028a 47060000 		.4byte	.LASF53
 2731 028e 04       		.byte	0x4
 2732 028f 0D01     		.2byte	0x10d
 2733 0291 8C000000 		.4byte	0x8c
 2734 0295 10       		.byte	0x10
 2735 0296 07       		.uleb128 0x7
 2736 0297 BF030000 		.4byte	.LASF54
 2737 029b 04       		.byte	0x4
 2738 029c 0E01     		.2byte	0x10e
 2739 029e 8C000000 		.4byte	0x8c
 2740 02a2 11       		.byte	0x11
 2741 02a3 07       		.uleb128 0x7
 2742 02a4 26030000 		.4byte	.LASF55
 2743 02a8 04       		.byte	0x4
 2744 02a9 1001     		.2byte	0x110
 2745 02ab 8C000000 		.4byte	0x8c
 2746 02af 12       		.byte	0x12
 2747 02b0 07       		.uleb128 0x7
 2748 02b1 57030000 		.4byte	.LASF56
 2749 02b5 04       		.byte	0x4
 2750 02b6 1101     		.2byte	0x111
 2751 02b8 8C000000 		.4byte	0x8c
 2752 02bc 13       		.byte	0x13
 2753 02bd 07       		.uleb128 0x7
 2754 02be 32060000 		.4byte	.LASF57
 2755 02c2 04       		.byte	0x4
 2756 02c3 1901     		.2byte	0x119
 2757 02c5 97000000 		.4byte	0x97
 2758 02c9 14       		.byte	0x14
 2759 02ca 07       		.uleb128 0x7
 2760 02cb 86060000 		.4byte	.LASF58
 2761 02cf 04       		.byte	0x4
 2762 02d0 1A01     		.2byte	0x11a
 2763 02d2 97000000 		.4byte	0x97
 2764 02d6 16       		.byte	0x16
 2765 02d7 00       		.byte	0
 2766 02d8 03       		.uleb128 0x3
 2767 02d9 DA030000 		.4byte	.LASF59
 2768 02dd 04       		.byte	0x4
 2769 02de C7       		.byte	0xc7
 2770 02df E3020000 		.4byte	0x2e3
 2771 02e3 0A       		.uleb128 0xa
 2772 02e4 04       		.byte	0x4
 2773 02e5 E9020000 		.4byte	0x2e9
 2774 02e9 0B       		.uleb128 0xb
 2775 02ea 8C000000 		.4byte	0x8c
 2776 02ee 07030000 		.4byte	0x307
 2777 02f2 0C       		.uleb128 0xc
 2778 02f3 07030000 		.4byte	0x307
 2779 02f7 0C       		.uleb128 0xc
 2780 02f8 8C000000 		.4byte	0x8c
 2781 02fc 0C       		.uleb128 0xc
 2782 02fd 8C000000 		.4byte	0x8c
 2783 0301 0C       		.uleb128 0xc
 2784 0302 AD000000 		.4byte	0xad
ARM GAS  C:\Users\info\AppData\Local\Temp\ccAWUQ53.s 			page 67


 2785 0306 00       		.byte	0
 2786 0307 0A       		.uleb128 0xa
 2787 0308 04       		.byte	0x4
 2788 0309 B6000000 		.4byte	0xb6
 2789 030d 03       		.uleb128 0x3
 2790 030e 86010000 		.4byte	.LASF60
 2791 0312 04       		.byte	0x4
 2792 0313 C8       		.byte	0xc8
 2793 0314 18030000 		.4byte	0x318
 2794 0318 0A       		.uleb128 0xa
 2795 0319 04       		.byte	0x4
 2796 031a 1E030000 		.4byte	0x31e
 2797 031e 0B       		.uleb128 0xb
 2798 031f 97000000 		.4byte	0x97
 2799 0323 32030000 		.4byte	0x332
 2800 0327 0C       		.uleb128 0xc
 2801 0328 07030000 		.4byte	0x307
 2802 032c 0C       		.uleb128 0xc
 2803 032d 8C000000 		.4byte	0x8c
 2804 0331 00       		.byte	0
 2805 0332 0A       		.uleb128 0xa
 2806 0333 04       		.byte	0x4
 2807 0334 8C000000 		.4byte	0x8c
 2808 0338 0A       		.uleb128 0xa
 2809 0339 04       		.byte	0x4
 2810 033a 3E030000 		.4byte	0x33e
 2811 033e 0D       		.uleb128 0xd
 2812 033f D3010000 		.4byte	0x1d3
 2813 0343 0A       		.uleb128 0xa
 2814 0344 04       		.byte	0x4
 2815 0345 49030000 		.4byte	0x349
 2816 0349 0D       		.uleb128 0xd
 2817 034a 8C000000 		.4byte	0x8c
 2818 034e 0E       		.uleb128 0xe
 2819 034f A0020000 		.4byte	.LASF61
 2820 0353 01       		.byte	0x1
 2821 0354 EA01     		.2byte	0x1ea
 2822 0356 01       		.byte	0x1
 2823 0357 68030000 		.4byte	0x368
 2824 035b 0F       		.uleb128 0xf
 2825 035c FE030000 		.4byte	.LASF63
 2826 0360 01       		.byte	0x1
 2827 0361 EA01     		.2byte	0x1ea
 2828 0363 07030000 		.4byte	0x307
 2829 0367 00       		.byte	0
 2830 0368 0E       		.uleb128 0xe
 2831 0369 68020000 		.4byte	.LASF62
 2832 036d 01       		.byte	0x1
 2833 036e DD01     		.2byte	0x1dd
 2834 0370 01       		.byte	0x1
 2835 0371 82030000 		.4byte	0x382
 2836 0375 0F       		.uleb128 0xf
 2837 0376 FE030000 		.4byte	.LASF63
 2838 037a 01       		.byte	0x1
 2839 037b DD01     		.2byte	0x1dd
 2840 037d 07030000 		.4byte	0x307
 2841 0381 00       		.byte	0
ARM GAS  C:\Users\info\AppData\Local\Temp\ccAWUQ53.s 			page 68


 2842 0382 0E       		.uleb128 0xe
 2843 0383 18030000 		.4byte	.LASF64
 2844 0387 01       		.byte	0x1
 2845 0388 F001     		.2byte	0x1f0
 2846 038a 01       		.byte	0x1
 2847 038b 9C030000 		.4byte	0x39c
 2848 038f 0F       		.uleb128 0xf
 2849 0390 FE030000 		.4byte	.LASF63
 2850 0394 01       		.byte	0x1
 2851 0395 F001     		.2byte	0x1f0
 2852 0397 07030000 		.4byte	0x307
 2853 039b 00       		.byte	0
 2854 039c 0E       		.uleb128 0xe
 2855 039d 48020000 		.4byte	.LASF65
 2856 03a1 01       		.byte	0x1
 2857 03a2 E501     		.2byte	0x1e5
 2858 03a4 01       		.byte	0x1
 2859 03a5 B6030000 		.4byte	0x3b6
 2860 03a9 0F       		.uleb128 0xf
 2861 03aa FE030000 		.4byte	.LASF63
 2862 03ae 01       		.byte	0x1
 2863 03af E501     		.2byte	0x1e5
 2864 03b1 07030000 		.4byte	0x307
 2865 03b5 00       		.byte	0
 2866 03b6 10       		.uleb128 0x10
 2867 03b7 14060000 		.4byte	.LASF68
 2868 03bb 01       		.byte	0x1
 2869 03bc CD01     		.2byte	0x1cd
 2870 03be 00000000 		.4byte	.LFB13
 2871 03c2 0A000000 		.4byte	.LFE13-.LFB13
 2872 03c6 01       		.uleb128 0x1
 2873 03c7 9C       		.byte	0x9c
 2874 03c8 F4030000 		.4byte	0x3f4
 2875 03cc 11       		.uleb128 0x11
 2876 03cd FE030000 		.4byte	.LASF63
 2877 03d1 01       		.byte	0x1
 2878 03d2 CD01     		.2byte	0x1cd
 2879 03d4 07030000 		.4byte	0x307
 2880 03d8 00000000 		.4byte	.LLST0
 2881 03dc 12       		.uleb128 0x12
 2882 03dd 0A000000 		.4byte	.LVL1
 2883 03e1 08200000 		.4byte	0x2008
 2884 03e5 13       		.uleb128 0x13
 2885 03e6 01       		.uleb128 0x1
 2886 03e7 50       		.byte	0x50
 2887 03e8 03       		.uleb128 0x3
 2888 03e9 F3       		.byte	0xf3
 2889 03ea 01       		.uleb128 0x1
 2890 03eb 50       		.byte	0x50
 2891 03ec 13       		.uleb128 0x13
 2892 03ed 01       		.uleb128 0x1
 2893 03ee 51       		.byte	0x51
 2894 03ef 02       		.uleb128 0x2
 2895 03f0 08       		.byte	0x8
 2896 03f1 2D       		.byte	0x2d
 2897 03f2 00       		.byte	0
 2898 03f3 00       		.byte	0
ARM GAS  C:\Users\info\AppData\Local\Temp\ccAWUQ53.s 			page 69


 2899 03f4 0E       		.uleb128 0xe
 2900 03f5 5A010000 		.4byte	.LASF66
 2901 03f9 01       		.byte	0x1
 2902 03fa 2302     		.2byte	0x223
 2903 03fc 01       		.byte	0x1
 2904 03fd 0E040000 		.4byte	0x40e
 2905 0401 0F       		.uleb128 0xf
 2906 0402 FE030000 		.4byte	.LASF63
 2907 0406 01       		.byte	0x1
 2908 0407 2302     		.2byte	0x223
 2909 0409 07030000 		.4byte	0x307
 2910 040d 00       		.byte	0
 2911 040e 0E       		.uleb128 0xe
 2912 040f 03040000 		.4byte	.LASF67
 2913 0413 01       		.byte	0x1
 2914 0414 1702     		.2byte	0x217
 2915 0416 01       		.byte	0x1
 2916 0417 34040000 		.4byte	0x434
 2917 041b 0F       		.uleb128 0xf
 2918 041c FE030000 		.4byte	.LASF63
 2919 0420 01       		.byte	0x1
 2920 0421 1702     		.2byte	0x217
 2921 0423 07030000 		.4byte	0x307
 2922 0427 14       		.uleb128 0x14
 2923 0428 76616C00 		.ascii	"val\000"
 2924 042c 01       		.byte	0x1
 2925 042d 1702     		.2byte	0x217
 2926 042f 8C000000 		.4byte	0x8c
 2927 0433 00       		.byte	0
 2928 0434 10       		.uleb128 0x10
 2929 0435 CB030000 		.4byte	.LASF69
 2930 0439 01       		.byte	0x1
 2931 043a 3002     		.2byte	0x230
 2932 043c 00000000 		.4byte	.LFB23
 2933 0440 3A020000 		.4byte	.LFE23-.LFB23
 2934 0444 01       		.uleb128 0x1
 2935 0445 9C       		.byte	0x9c
 2936 0446 1C0F0000 		.4byte	0xf1c
 2937 044a 11       		.uleb128 0x11
 2938 044b FE030000 		.4byte	.LASF63
 2939 044f 01       		.byte	0x1
 2940 0450 3002     		.2byte	0x230
 2941 0452 07030000 		.4byte	0x307
 2942 0456 21000000 		.4byte	.LLST1
 2943 045a 15       		.uleb128 0x15
 2944 045b 6200     		.ascii	"b\000"
 2945 045d 01       		.byte	0x1
 2946 045e 3002     		.2byte	0x230
 2947 0460 8C000000 		.4byte	0x8c
 2948 0464 6E000000 		.4byte	.LLST2
 2949 0468 16       		.uleb128 0x16
 2950 0469 0E040000 		.4byte	0x40e
 2951 046d 02000000 		.4byte	.LBB124
 2952 0471 00000000 		.4byte	.Ldebug_ranges0+0
 2953 0475 01       		.byte	0x1
 2954 0476 3202     		.2byte	0x232
 2955 0478 95050000 		.4byte	0x595
ARM GAS  C:\Users\info\AppData\Local\Temp\ccAWUQ53.s 			page 70


 2956 047c 17       		.uleb128 0x17
 2957 047d 27040000 		.4byte	0x427
 2958 0481 A8000000 		.4byte	.LLST3
 2959 0485 17       		.uleb128 0x17
 2960 0486 1B040000 		.4byte	0x41b
 2961 048a D0000000 		.4byte	.LLST4
 2962 048e 18       		.uleb128 0x18
 2963 048f 82030000 		.4byte	0x382
 2964 0493 14000000 		.4byte	.LBB126
 2965 0497 06000000 		.4byte	.LBE126-.LBB126
 2966 049b 01       		.byte	0x1
 2967 049c 1C02     		.2byte	0x21c
 2968 049e CB040000 		.4byte	0x4cb
 2969 04a2 17       		.uleb128 0x17
 2970 04a3 8F030000 		.4byte	0x38f
 2971 04a7 04010000 		.4byte	.LLST5
 2972 04ab 19       		.uleb128 0x19
 2973 04ac 1A000000 		.4byte	.LVL6
 2974 04b0 08200000 		.4byte	0x2008
 2975 04b4 13       		.uleb128 0x13
 2976 04b5 01       		.uleb128 0x1
 2977 04b6 50       		.byte	0x50
 2978 04b7 02       		.uleb128 0x2
 2979 04b8 74       		.byte	0x74
 2980 04b9 00       		.sleb128 0
 2981 04ba 13       		.uleb128 0x13
 2982 04bb 01       		.uleb128 0x1
 2983 04bc 51       		.byte	0x51
 2984 04bd 02       		.uleb128 0x2
 2985 04be 08       		.byte	0x8
 2986 04bf 4D       		.byte	0x4d
 2987 04c0 13       		.uleb128 0x13
 2988 04c1 01       		.uleb128 0x1
 2989 04c2 52       		.byte	0x52
 2990 04c3 05       		.uleb128 0x5
 2991 04c4 75       		.byte	0x75
 2992 04c5 00       		.sleb128 0
 2993 04c6 08       		.byte	0x8
 2994 04c7 80       		.byte	0x80
 2995 04c8 1A       		.byte	0x1a
 2996 04c9 00       		.byte	0
 2997 04ca 00       		.byte	0
 2998 04cb 18       		.uleb128 0x18
 2999 04cc 68030000 		.4byte	0x368
 3000 04d0 20000000 		.4byte	.LBB128
 3001 04d4 10000000 		.4byte	.LBE128-.LBB128
 3002 04d8 01       		.byte	0x1
 3003 04d9 1F02     		.2byte	0x21f
 3004 04db 18050000 		.4byte	0x518
 3005 04df 17       		.uleb128 0x17
 3006 04e0 75030000 		.4byte	0x375
 3007 04e4 22010000 		.4byte	.LLST6
 3008 04e8 1A       		.uleb128 0x1a
 3009 04e9 2A000000 		.4byte	.LVL8
 3010 04ed 08200000 		.4byte	0x2008
 3011 04f1 07050000 		.4byte	0x507
 3012 04f5 13       		.uleb128 0x13
ARM GAS  C:\Users\info\AppData\Local\Temp\ccAWUQ53.s 			page 71


 3013 04f6 01       		.uleb128 0x1
 3014 04f7 50       		.byte	0x50
 3015 04f8 02       		.uleb128 0x2
 3016 04f9 74       		.byte	0x74
 3017 04fa 00       		.sleb128 0
 3018 04fb 13       		.uleb128 0x13
 3019 04fc 01       		.uleb128 0x1
 3020 04fd 51       		.byte	0x51
 3021 04fe 02       		.uleb128 0x2
 3022 04ff 08       		.byte	0x8
 3023 0500 4C       		.byte	0x4c
 3024 0501 13       		.uleb128 0x13
 3025 0502 01       		.uleb128 0x1
 3026 0503 52       		.byte	0x52
 3027 0504 01       		.uleb128 0x1
 3028 0505 31       		.byte	0x31
 3029 0506 00       		.byte	0
 3030 0507 19       		.uleb128 0x19
 3031 0508 30000000 		.4byte	.LVL9
 3032 050c B6030000 		.4byte	0x3b6
 3033 0510 13       		.uleb128 0x13
 3034 0511 01       		.uleb128 0x1
 3035 0512 50       		.byte	0x50
 3036 0513 02       		.uleb128 0x2
 3037 0514 74       		.byte	0x74
 3038 0515 00       		.sleb128 0
 3039 0516 00       		.byte	0
 3040 0517 00       		.byte	0
 3041 0518 18       		.uleb128 0x18
 3042 0519 9C030000 		.4byte	0x39c
 3043 051d 30000000 		.4byte	.LBB130
 3044 0521 0A000000 		.4byte	.LBE130-.LBB130
 3045 0525 01       		.byte	0x1
 3046 0526 2002     		.2byte	0x220
 3047 0528 51050000 		.4byte	0x551
 3048 052c 17       		.uleb128 0x17
 3049 052d A9030000 		.4byte	0x3a9
 3050 0531 35010000 		.4byte	.LLST7
 3051 0535 19       		.uleb128 0x19
 3052 0536 3A000000 		.4byte	.LVL10
 3053 053a 08200000 		.4byte	0x2008
 3054 053e 13       		.uleb128 0x13
 3055 053f 01       		.uleb128 0x1
 3056 0540 50       		.byte	0x50
 3057 0541 02       		.uleb128 0x2
 3058 0542 74       		.byte	0x74
 3059 0543 00       		.sleb128 0
 3060 0544 13       		.uleb128 0x13
 3061 0545 01       		.uleb128 0x1
 3062 0546 51       		.byte	0x51
 3063 0547 02       		.uleb128 0x2
 3064 0548 08       		.byte	0x8
 3065 0549 4C       		.byte	0x4c
 3066 054a 13       		.uleb128 0x13
 3067 054b 01       		.uleb128 0x1
 3068 054c 52       		.byte	0x52
 3069 054d 01       		.uleb128 0x1
ARM GAS  C:\Users\info\AppData\Local\Temp\ccAWUQ53.s 			page 72


 3070 054e 30       		.byte	0x30
 3071 054f 00       		.byte	0
 3072 0550 00       		.byte	0
 3073 0551 18       		.uleb128 0x18
 3074 0552 4E030000 		.4byte	0x34e
 3075 0556 E8010000 		.4byte	.LBB132
 3076 055a 0A000000 		.4byte	.LBE132-.LBB132
 3077 055e 01       		.byte	0x1
 3078 055f 1A02     		.2byte	0x21a
 3079 0561 84050000 		.4byte	0x584
 3080 0565 17       		.uleb128 0x17
 3081 0566 5B030000 		.4byte	0x35b
 3082 056a 48010000 		.4byte	.LLST8
 3083 056e 19       		.uleb128 0x19
 3084 056f F0010000 		.4byte	.LVL63
 3085 0573 08200000 		.4byte	0x2008
 3086 0577 13       		.uleb128 0x13
 3087 0578 01       		.uleb128 0x1
 3088 0579 51       		.byte	0x51
 3089 057a 02       		.uleb128 0x2
 3090 057b 08       		.byte	0x8
 3091 057c 4D       		.byte	0x4d
 3092 057d 13       		.uleb128 0x13
 3093 057e 01       		.uleb128 0x1
 3094 057f 52       		.byte	0x52
 3095 0580 01       		.uleb128 0x1
 3096 0581 31       		.byte	0x31
 3097 0582 00       		.byte	0
 3098 0583 00       		.byte	0
 3099 0584 19       		.uleb128 0x19
 3100 0585 20000000 		.4byte	.LVL7
 3101 0589 B6030000 		.4byte	0x3b6
 3102 058d 13       		.uleb128 0x13
 3103 058e 01       		.uleb128 0x1
 3104 058f 50       		.byte	0x50
 3105 0590 02       		.uleb128 0x2
 3106 0591 74       		.byte	0x74
 3107 0592 00       		.sleb128 0
 3108 0593 00       		.byte	0
 3109 0594 00       		.byte	0
 3110 0595 16       		.uleb128 0x16
 3111 0596 0E040000 		.4byte	0x40e
 3112 059a 3A000000 		.4byte	.LBB137
 3113 059e 20000000 		.4byte	.Ldebug_ranges0+0x20
 3114 05a2 01       		.byte	0x1
 3115 05a3 3302     		.2byte	0x233
 3116 05a5 C6060000 		.4byte	0x6c6
 3117 05a9 17       		.uleb128 0x17
 3118 05aa 27040000 		.4byte	0x427
 3119 05ae 66010000 		.4byte	.LLST9
 3120 05b2 17       		.uleb128 0x17
 3121 05b3 1B040000 		.4byte	0x41b
 3122 05b7 8E010000 		.4byte	.LLST10
 3123 05bb 18       		.uleb128 0x18
 3124 05bc 82030000 		.4byte	0x382
 3125 05c0 48000000 		.4byte	.LBB139
 3126 05c4 08000000 		.4byte	.LBE139-.LBB139
ARM GAS  C:\Users\info\AppData\Local\Temp\ccAWUQ53.s 			page 73


 3127 05c8 01       		.byte	0x1
 3128 05c9 1C02     		.2byte	0x21c
 3129 05cb F8050000 		.4byte	0x5f8
 3130 05cf 17       		.uleb128 0x17
 3131 05d0 8F030000 		.4byte	0x38f
 3132 05d4 AC010000 		.4byte	.LLST11
 3133 05d8 19       		.uleb128 0x19
 3134 05d9 50000000 		.4byte	.LVL12
 3135 05dd 08200000 		.4byte	0x2008
 3136 05e1 13       		.uleb128 0x13
 3137 05e2 01       		.uleb128 0x1
 3138 05e3 50       		.byte	0x50
 3139 05e4 02       		.uleb128 0x2
 3140 05e5 74       		.byte	0x74
 3141 05e6 00       		.sleb128 0
 3142 05e7 13       		.uleb128 0x13
 3143 05e8 01       		.uleb128 0x1
 3144 05e9 51       		.byte	0x51
 3145 05ea 02       		.uleb128 0x2
 3146 05eb 08       		.byte	0x8
 3147 05ec 4D       		.byte	0x4d
 3148 05ed 13       		.uleb128 0x13
 3149 05ee 01       		.uleb128 0x1
 3150 05ef 52       		.byte	0x52
 3151 05f0 05       		.uleb128 0x5
 3152 05f1 75       		.byte	0x75
 3153 05f2 00       		.sleb128 0
 3154 05f3 08       		.byte	0x8
 3155 05f4 40       		.byte	0x40
 3156 05f5 1A       		.byte	0x1a
 3157 05f6 00       		.byte	0
 3158 05f7 00       		.byte	0
 3159 05f8 18       		.uleb128 0x18
 3160 05f9 68030000 		.4byte	0x368
 3161 05fd 56000000 		.4byte	.LBB141
 3162 0601 10000000 		.4byte	.LBE141-.LBB141
 3163 0605 01       		.byte	0x1
 3164 0606 1F02     		.2byte	0x21f
 3165 0608 45060000 		.4byte	0x645
 3166 060c 17       		.uleb128 0x17
 3167 060d 75030000 		.4byte	0x375
 3168 0611 BF010000 		.4byte	.LLST12
 3169 0615 1A       		.uleb128 0x1a
 3170 0616 60000000 		.4byte	.LVL14
 3171 061a 08200000 		.4byte	0x2008
 3172 061e 34060000 		.4byte	0x634
 3173 0622 13       		.uleb128 0x13
 3174 0623 01       		.uleb128 0x1
 3175 0624 50       		.byte	0x50
 3176 0625 02       		.uleb128 0x2
 3177 0626 74       		.byte	0x74
 3178 0627 00       		.sleb128 0
 3179 0628 13       		.uleb128 0x13
 3180 0629 01       		.uleb128 0x1
 3181 062a 51       		.byte	0x51
 3182 062b 02       		.uleb128 0x2
 3183 062c 08       		.byte	0x8
ARM GAS  C:\Users\info\AppData\Local\Temp\ccAWUQ53.s 			page 74


 3184 062d 4C       		.byte	0x4c
 3185 062e 13       		.uleb128 0x13
 3186 062f 01       		.uleb128 0x1
 3187 0630 52       		.byte	0x52
 3188 0631 01       		.uleb128 0x1
 3189 0632 31       		.byte	0x31
 3190 0633 00       		.byte	0
 3191 0634 19       		.uleb128 0x19
 3192 0635 66000000 		.4byte	.LVL15
 3193 0639 B6030000 		.4byte	0x3b6
 3194 063d 13       		.uleb128 0x13
 3195 063e 01       		.uleb128 0x1
 3196 063f 50       		.byte	0x50
 3197 0640 02       		.uleb128 0x2
 3198 0641 74       		.byte	0x74
 3199 0642 00       		.sleb128 0
 3200 0643 00       		.byte	0
 3201 0644 00       		.byte	0
 3202 0645 18       		.uleb128 0x18
 3203 0646 9C030000 		.4byte	0x39c
 3204 064a 66000000 		.4byte	.LBB143
 3205 064e 0A000000 		.4byte	.LBE143-.LBB143
 3206 0652 01       		.byte	0x1
 3207 0653 2002     		.2byte	0x220
 3208 0655 7E060000 		.4byte	0x67e
 3209 0659 17       		.uleb128 0x17
 3210 065a A9030000 		.4byte	0x3a9
 3211 065e D2010000 		.4byte	.LLST13
 3212 0662 19       		.uleb128 0x19
 3213 0663 70000000 		.4byte	.LVL16
 3214 0667 08200000 		.4byte	0x2008
 3215 066b 13       		.uleb128 0x13
 3216 066c 01       		.uleb128 0x1
 3217 066d 50       		.byte	0x50
 3218 066e 02       		.uleb128 0x2
 3219 066f 74       		.byte	0x74
 3220 0670 00       		.sleb128 0
 3221 0671 13       		.uleb128 0x13
 3222 0672 01       		.uleb128 0x1
 3223 0673 51       		.byte	0x51
 3224 0674 02       		.uleb128 0x2
 3225 0675 08       		.byte	0x8
 3226 0676 4C       		.byte	0x4c
 3227 0677 13       		.uleb128 0x13
 3228 0678 01       		.uleb128 0x1
 3229 0679 52       		.byte	0x52
 3230 067a 01       		.uleb128 0x1
 3231 067b 30       		.byte	0x30
 3232 067c 00       		.byte	0
 3233 067d 00       		.byte	0
 3234 067e 18       		.uleb128 0x18
 3235 067f 4E030000 		.4byte	0x34e
 3236 0683 2E020000 		.4byte	.LBB145
 3237 0687 0C000000 		.4byte	.LBE145-.LBB145
 3238 068b 01       		.byte	0x1
 3239 068c 1A02     		.2byte	0x21a
 3240 068e B5060000 		.4byte	0x6b5
ARM GAS  C:\Users\info\AppData\Local\Temp\ccAWUQ53.s 			page 75


 3241 0692 1B       		.uleb128 0x1b
 3242 0693 5B030000 		.4byte	0x35b
 3243 0697 01       		.uleb128 0x1
 3244 0698 54       		.byte	0x54
 3245 0699 19       		.uleb128 0x19
 3246 069a 38020000 		.4byte	.LVL75
 3247 069e 08200000 		.4byte	0x2008
 3248 06a2 13       		.uleb128 0x13
 3249 06a3 01       		.uleb128 0x1
 3250 06a4 50       		.byte	0x50
 3251 06a5 02       		.uleb128 0x2
 3252 06a6 74       		.byte	0x74
 3253 06a7 00       		.sleb128 0
 3254 06a8 13       		.uleb128 0x13
 3255 06a9 01       		.uleb128 0x1
 3256 06aa 51       		.byte	0x51
 3257 06ab 02       		.uleb128 0x2
 3258 06ac 08       		.byte	0x8
 3259 06ad 4D       		.byte	0x4d
 3260 06ae 13       		.uleb128 0x13
 3261 06af 01       		.uleb128 0x1
 3262 06b0 52       		.byte	0x52
 3263 06b1 01       		.uleb128 0x1
 3264 06b2 31       		.byte	0x31
 3265 06b3 00       		.byte	0
 3266 06b4 00       		.byte	0
 3267 06b5 19       		.uleb128 0x19
 3268 06b6 56000000 		.4byte	.LVL13
 3269 06ba B6030000 		.4byte	0x3b6
 3270 06be 13       		.uleb128 0x13
 3271 06bf 01       		.uleb128 0x1
 3272 06c0 50       		.byte	0x50
 3273 06c1 02       		.uleb128 0x2
 3274 06c2 74       		.byte	0x74
 3275 06c3 00       		.sleb128 0
 3276 06c4 00       		.byte	0
 3277 06c5 00       		.byte	0
 3278 06c6 16       		.uleb128 0x16
 3279 06c7 0E040000 		.4byte	0x40e
 3280 06cb 70000000 		.4byte	.LBB148
 3281 06cf 38000000 		.4byte	.Ldebug_ranges0+0x38
 3282 06d3 01       		.byte	0x1
 3283 06d4 3402     		.2byte	0x234
 3284 06d6 F9070000 		.4byte	0x7f9
 3285 06da 17       		.uleb128 0x17
 3286 06db 27040000 		.4byte	0x427
 3287 06df E5010000 		.4byte	.LLST14
 3288 06e3 17       		.uleb128 0x17
 3289 06e4 1B040000 		.4byte	0x41b
 3290 06e8 0D020000 		.4byte	.LLST15
 3291 06ec 18       		.uleb128 0x18
 3292 06ed 82030000 		.4byte	0x382
 3293 06f1 7E000000 		.4byte	.LBB150
 3294 06f5 08000000 		.4byte	.LBE150-.LBB150
 3295 06f9 01       		.byte	0x1
 3296 06fa 1C02     		.2byte	0x21c
 3297 06fc 29070000 		.4byte	0x729
ARM GAS  C:\Users\info\AppData\Local\Temp\ccAWUQ53.s 			page 76


 3298 0700 17       		.uleb128 0x17
 3299 0701 8F030000 		.4byte	0x38f
 3300 0705 2B020000 		.4byte	.LLST16
 3301 0709 19       		.uleb128 0x19
 3302 070a 86000000 		.4byte	.LVL18
 3303 070e 08200000 		.4byte	0x2008
 3304 0712 13       		.uleb128 0x13
 3305 0713 01       		.uleb128 0x1
 3306 0714 50       		.byte	0x50
 3307 0715 02       		.uleb128 0x2
 3308 0716 74       		.byte	0x74
 3309 0717 00       		.sleb128 0
 3310 0718 13       		.uleb128 0x13
 3311 0719 01       		.uleb128 0x1
 3312 071a 51       		.byte	0x51
 3313 071b 02       		.uleb128 0x2
 3314 071c 08       		.byte	0x8
 3315 071d 4D       		.byte	0x4d
 3316 071e 13       		.uleb128 0x13
 3317 071f 01       		.uleb128 0x1
 3318 0720 52       		.byte	0x52
 3319 0721 05       		.uleb128 0x5
 3320 0722 75       		.byte	0x75
 3321 0723 00       		.sleb128 0
 3322 0724 08       		.byte	0x8
 3323 0725 20       		.byte	0x20
 3324 0726 1A       		.byte	0x1a
 3325 0727 00       		.byte	0
 3326 0728 00       		.byte	0
 3327 0729 18       		.uleb128 0x18
 3328 072a 68030000 		.4byte	0x368
 3329 072e 8C000000 		.4byte	.LBB152
 3330 0732 10000000 		.4byte	.LBE152-.LBB152
 3331 0736 01       		.byte	0x1
 3332 0737 1F02     		.2byte	0x21f
 3333 0739 76070000 		.4byte	0x776
 3334 073d 17       		.uleb128 0x17
 3335 073e 75030000 		.4byte	0x375
 3336 0742 3E020000 		.4byte	.LLST17
 3337 0746 1A       		.uleb128 0x1a
 3338 0747 96000000 		.4byte	.LVL20
 3339 074b 08200000 		.4byte	0x2008
 3340 074f 65070000 		.4byte	0x765
 3341 0753 13       		.uleb128 0x13
 3342 0754 01       		.uleb128 0x1
 3343 0755 50       		.byte	0x50
 3344 0756 02       		.uleb128 0x2
 3345 0757 74       		.byte	0x74
 3346 0758 00       		.sleb128 0
 3347 0759 13       		.uleb128 0x13
 3348 075a 01       		.uleb128 0x1
 3349 075b 51       		.byte	0x51
 3350 075c 02       		.uleb128 0x2
 3351 075d 08       		.byte	0x8
 3352 075e 4C       		.byte	0x4c
 3353 075f 13       		.uleb128 0x13
 3354 0760 01       		.uleb128 0x1
ARM GAS  C:\Users\info\AppData\Local\Temp\ccAWUQ53.s 			page 77


 3355 0761 52       		.byte	0x52
 3356 0762 01       		.uleb128 0x1
 3357 0763 31       		.byte	0x31
 3358 0764 00       		.byte	0
 3359 0765 19       		.uleb128 0x19
 3360 0766 9C000000 		.4byte	.LVL21
 3361 076a B6030000 		.4byte	0x3b6
 3362 076e 13       		.uleb128 0x13
 3363 076f 01       		.uleb128 0x1
 3364 0770 50       		.byte	0x50
 3365 0771 02       		.uleb128 0x2
 3366 0772 74       		.byte	0x74
 3367 0773 00       		.sleb128 0
 3368 0774 00       		.byte	0
 3369 0775 00       		.byte	0
 3370 0776 18       		.uleb128 0x18
 3371 0777 9C030000 		.4byte	0x39c
 3372 077b 9C000000 		.4byte	.LBB154
 3373 077f 0A000000 		.4byte	.LBE154-.LBB154
 3374 0783 01       		.byte	0x1
 3375 0784 2002     		.2byte	0x220
 3376 0786 AF070000 		.4byte	0x7af
 3377 078a 17       		.uleb128 0x17
 3378 078b A9030000 		.4byte	0x3a9
 3379 078f 51020000 		.4byte	.LLST18
 3380 0793 19       		.uleb128 0x19
 3381 0794 A6000000 		.4byte	.LVL22
 3382 0798 08200000 		.4byte	0x2008
 3383 079c 13       		.uleb128 0x13
 3384 079d 01       		.uleb128 0x1
 3385 079e 50       		.byte	0x50
 3386 079f 02       		.uleb128 0x2
 3387 07a0 74       		.byte	0x74
 3388 07a1 00       		.sleb128 0
 3389 07a2 13       		.uleb128 0x13
 3390 07a3 01       		.uleb128 0x1
 3391 07a4 51       		.byte	0x51
 3392 07a5 02       		.uleb128 0x2
 3393 07a6 08       		.byte	0x8
 3394 07a7 4C       		.byte	0x4c
 3395 07a8 13       		.uleb128 0x13
 3396 07a9 01       		.uleb128 0x1
 3397 07aa 52       		.byte	0x52
 3398 07ab 01       		.uleb128 0x1
 3399 07ac 30       		.byte	0x30
 3400 07ad 00       		.byte	0
 3401 07ae 00       		.byte	0
 3402 07af 18       		.uleb128 0x18
 3403 07b0 4E030000 		.4byte	0x34e
 3404 07b4 22020000 		.4byte	.LBB156
 3405 07b8 0C000000 		.4byte	.LBE156-.LBB156
 3406 07bc 01       		.byte	0x1
 3407 07bd 1A02     		.2byte	0x21a
 3408 07bf E8070000 		.4byte	0x7e8
 3409 07c3 17       		.uleb128 0x17
 3410 07c4 5B030000 		.4byte	0x35b
 3411 07c8 64020000 		.4byte	.LLST19
ARM GAS  C:\Users\info\AppData\Local\Temp\ccAWUQ53.s 			page 78


 3412 07cc 19       		.uleb128 0x19
 3413 07cd 2C020000 		.4byte	.LVL73
 3414 07d1 08200000 		.4byte	0x2008
 3415 07d5 13       		.uleb128 0x13
 3416 07d6 01       		.uleb128 0x1
 3417 07d7 50       		.byte	0x50
 3418 07d8 02       		.uleb128 0x2
 3419 07d9 74       		.byte	0x74
 3420 07da 00       		.sleb128 0
 3421 07db 13       		.uleb128 0x13
 3422 07dc 01       		.uleb128 0x1
 3423 07dd 51       		.byte	0x51
 3424 07de 02       		.uleb128 0x2
 3425 07df 08       		.byte	0x8
 3426 07e0 4D       		.byte	0x4d
 3427 07e1 13       		.uleb128 0x13
 3428 07e2 01       		.uleb128 0x1
 3429 07e3 52       		.byte	0x52
 3430 07e4 01       		.uleb128 0x1
 3431 07e5 31       		.byte	0x31
 3432 07e6 00       		.byte	0
 3433 07e7 00       		.byte	0
 3434 07e8 19       		.uleb128 0x19
 3435 07e9 8C000000 		.4byte	.LVL19
 3436 07ed B6030000 		.4byte	0x3b6
 3437 07f1 13       		.uleb128 0x13
 3438 07f2 01       		.uleb128 0x1
 3439 07f3 50       		.byte	0x50
 3440 07f4 02       		.uleb128 0x2
 3441 07f5 74       		.byte	0x74
 3442 07f6 00       		.sleb128 0
 3443 07f7 00       		.byte	0
 3444 07f8 00       		.byte	0
 3445 07f9 16       		.uleb128 0x16
 3446 07fa 0E040000 		.4byte	0x40e
 3447 07fe A6000000 		.4byte	.LBB159
 3448 0802 50000000 		.4byte	.Ldebug_ranges0+0x50
 3449 0806 01       		.byte	0x1
 3450 0807 3502     		.2byte	0x235
 3451 0809 2B090000 		.4byte	0x92b
 3452 080d 17       		.uleb128 0x17
 3453 080e 27040000 		.4byte	0x427
 3454 0812 77020000 		.4byte	.LLST20
 3455 0816 17       		.uleb128 0x17
 3456 0817 1B040000 		.4byte	0x41b
 3457 081b 9D020000 		.4byte	.LLST21
 3458 081f 18       		.uleb128 0x18
 3459 0820 82030000 		.4byte	0x382
 3460 0824 B4000000 		.4byte	.LBB161
 3461 0828 08000000 		.4byte	.LBE161-.LBB161
 3462 082c 01       		.byte	0x1
 3463 082d 1C02     		.2byte	0x21c
 3464 082f 5B080000 		.4byte	0x85b
 3465 0833 17       		.uleb128 0x17
 3466 0834 8F030000 		.4byte	0x38f
 3467 0838 BB020000 		.4byte	.LLST22
 3468 083c 19       		.uleb128 0x19
ARM GAS  C:\Users\info\AppData\Local\Temp\ccAWUQ53.s 			page 79


 3469 083d BC000000 		.4byte	.LVL24
 3470 0841 08200000 		.4byte	0x2008
 3471 0845 13       		.uleb128 0x13
 3472 0846 01       		.uleb128 0x1
 3473 0847 50       		.byte	0x50
 3474 0848 02       		.uleb128 0x2
 3475 0849 74       		.byte	0x74
 3476 084a 00       		.sleb128 0
 3477 084b 13       		.uleb128 0x13
 3478 084c 01       		.uleb128 0x1
 3479 084d 51       		.byte	0x51
 3480 084e 02       		.uleb128 0x2
 3481 084f 08       		.byte	0x8
 3482 0850 4D       		.byte	0x4d
 3483 0851 13       		.uleb128 0x13
 3484 0852 01       		.uleb128 0x1
 3485 0853 52       		.byte	0x52
 3486 0854 04       		.uleb128 0x4
 3487 0855 75       		.byte	0x75
 3488 0856 00       		.sleb128 0
 3489 0857 40       		.byte	0x40
 3490 0858 1A       		.byte	0x1a
 3491 0859 00       		.byte	0
 3492 085a 00       		.byte	0
 3493 085b 18       		.uleb128 0x18
 3494 085c 68030000 		.4byte	0x368
 3495 0860 C2000000 		.4byte	.LBB163
 3496 0864 10000000 		.4byte	.LBE163-.LBB163
 3497 0868 01       		.byte	0x1
 3498 0869 1F02     		.2byte	0x21f
 3499 086b A8080000 		.4byte	0x8a8
 3500 086f 17       		.uleb128 0x17
 3501 0870 75030000 		.4byte	0x375
 3502 0874 CE020000 		.4byte	.LLST23
 3503 0878 1A       		.uleb128 0x1a
 3504 0879 CC000000 		.4byte	.LVL26
 3505 087d 08200000 		.4byte	0x2008
 3506 0881 97080000 		.4byte	0x897
 3507 0885 13       		.uleb128 0x13
 3508 0886 01       		.uleb128 0x1
 3509 0887 50       		.byte	0x50
 3510 0888 02       		.uleb128 0x2
 3511 0889 74       		.byte	0x74
 3512 088a 00       		.sleb128 0
 3513 088b 13       		.uleb128 0x13
 3514 088c 01       		.uleb128 0x1
 3515 088d 51       		.byte	0x51
 3516 088e 02       		.uleb128 0x2
 3517 088f 08       		.byte	0x8
 3518 0890 4C       		.byte	0x4c
 3519 0891 13       		.uleb128 0x13
 3520 0892 01       		.uleb128 0x1
 3521 0893 52       		.byte	0x52
 3522 0894 01       		.uleb128 0x1
 3523 0895 31       		.byte	0x31
 3524 0896 00       		.byte	0
 3525 0897 19       		.uleb128 0x19
ARM GAS  C:\Users\info\AppData\Local\Temp\ccAWUQ53.s 			page 80


 3526 0898 D2000000 		.4byte	.LVL27
 3527 089c B6030000 		.4byte	0x3b6
 3528 08a0 13       		.uleb128 0x13
 3529 08a1 01       		.uleb128 0x1
 3530 08a2 50       		.byte	0x50
 3531 08a3 02       		.uleb128 0x2
 3532 08a4 74       		.byte	0x74
 3533 08a5 00       		.sleb128 0
 3534 08a6 00       		.byte	0
 3535 08a7 00       		.byte	0
 3536 08a8 18       		.uleb128 0x18
 3537 08a9 9C030000 		.4byte	0x39c
 3538 08ad D2000000 		.4byte	.LBB165
 3539 08b1 0A000000 		.4byte	.LBE165-.LBB165
 3540 08b5 01       		.byte	0x1
 3541 08b6 2002     		.2byte	0x220
 3542 08b8 E1080000 		.4byte	0x8e1
 3543 08bc 17       		.uleb128 0x17
 3544 08bd A9030000 		.4byte	0x3a9
 3545 08c1 E1020000 		.4byte	.LLST24
 3546 08c5 19       		.uleb128 0x19
 3547 08c6 DC000000 		.4byte	.LVL28
 3548 08ca 08200000 		.4byte	0x2008
 3549 08ce 13       		.uleb128 0x13
 3550 08cf 01       		.uleb128 0x1
 3551 08d0 50       		.byte	0x50
 3552 08d1 02       		.uleb128 0x2
 3553 08d2 74       		.byte	0x74
 3554 08d3 00       		.sleb128 0
 3555 08d4 13       		.uleb128 0x13
 3556 08d5 01       		.uleb128 0x1
 3557 08d6 51       		.byte	0x51
 3558 08d7 02       		.uleb128 0x2
 3559 08d8 08       		.byte	0x8
 3560 08d9 4C       		.byte	0x4c
 3561 08da 13       		.uleb128 0x13
 3562 08db 01       		.uleb128 0x1
 3563 08dc 52       		.byte	0x52
 3564 08dd 01       		.uleb128 0x1
 3565 08de 30       		.byte	0x30
 3566 08df 00       		.byte	0
 3567 08e0 00       		.byte	0
 3568 08e1 18       		.uleb128 0x18
 3569 08e2 4E030000 		.4byte	0x34e
 3570 08e6 16020000 		.4byte	.LBB167
 3571 08ea 0C000000 		.4byte	.LBE167-.LBB167
 3572 08ee 01       		.byte	0x1
 3573 08ef 1A02     		.2byte	0x21a
 3574 08f1 1A090000 		.4byte	0x91a
 3575 08f5 17       		.uleb128 0x17
 3576 08f6 5B030000 		.4byte	0x35b
 3577 08fa F4020000 		.4byte	.LLST25
 3578 08fe 19       		.uleb128 0x19
 3579 08ff 20020000 		.4byte	.LVL71
 3580 0903 08200000 		.4byte	0x2008
 3581 0907 13       		.uleb128 0x13
 3582 0908 01       		.uleb128 0x1
ARM GAS  C:\Users\info\AppData\Local\Temp\ccAWUQ53.s 			page 81


 3583 0909 50       		.byte	0x50
 3584 090a 02       		.uleb128 0x2
 3585 090b 74       		.byte	0x74
 3586 090c 00       		.sleb128 0
 3587 090d 13       		.uleb128 0x13
 3588 090e 01       		.uleb128 0x1
 3589 090f 51       		.byte	0x51
 3590 0910 02       		.uleb128 0x2
 3591 0911 08       		.byte	0x8
 3592 0912 4D       		.byte	0x4d
 3593 0913 13       		.uleb128 0x13
 3594 0914 01       		.uleb128 0x1
 3595 0915 52       		.byte	0x52
 3596 0916 01       		.uleb128 0x1
 3597 0917 31       		.byte	0x31
 3598 0918 00       		.byte	0
 3599 0919 00       		.byte	0
 3600 091a 19       		.uleb128 0x19
 3601 091b C2000000 		.4byte	.LVL25
 3602 091f B6030000 		.4byte	0x3b6
 3603 0923 13       		.uleb128 0x13
 3604 0924 01       		.uleb128 0x1
 3605 0925 50       		.byte	0x50
 3606 0926 02       		.uleb128 0x2
 3607 0927 74       		.byte	0x74
 3608 0928 00       		.sleb128 0
 3609 0929 00       		.byte	0
 3610 092a 00       		.byte	0
 3611 092b 16       		.uleb128 0x16
 3612 092c 0E040000 		.4byte	0x40e
 3613 0930 DC000000 		.4byte	.LBB170
 3614 0934 68000000 		.4byte	.Ldebug_ranges0+0x68
 3615 0938 01       		.byte	0x1
 3616 0939 3602     		.2byte	0x236
 3617 093b 5D0A0000 		.4byte	0xa5d
 3618 093f 17       		.uleb128 0x17
 3619 0940 27040000 		.4byte	0x427
 3620 0944 07030000 		.4byte	.LLST26
 3621 0948 17       		.uleb128 0x17
 3622 0949 1B040000 		.4byte	0x41b
 3623 094d 2D030000 		.4byte	.LLST27
 3624 0951 18       		.uleb128 0x18
 3625 0952 82030000 		.4byte	0x382
 3626 0956 EA000000 		.4byte	.LBB172
 3627 095a 08000000 		.4byte	.LBE172-.LBB172
 3628 095e 01       		.byte	0x1
 3629 095f 1C02     		.2byte	0x21c
 3630 0961 8D090000 		.4byte	0x98d
 3631 0965 17       		.uleb128 0x17
 3632 0966 8F030000 		.4byte	0x38f
 3633 096a 4B030000 		.4byte	.LLST28
 3634 096e 19       		.uleb128 0x19
 3635 096f F2000000 		.4byte	.LVL30
 3636 0973 08200000 		.4byte	0x2008
 3637 0977 13       		.uleb128 0x13
 3638 0978 01       		.uleb128 0x1
 3639 0979 50       		.byte	0x50
ARM GAS  C:\Users\info\AppData\Local\Temp\ccAWUQ53.s 			page 82


 3640 097a 02       		.uleb128 0x2
 3641 097b 74       		.byte	0x74
 3642 097c 00       		.sleb128 0
 3643 097d 13       		.uleb128 0x13
 3644 097e 01       		.uleb128 0x1
 3645 097f 51       		.byte	0x51
 3646 0980 02       		.uleb128 0x2
 3647 0981 08       		.byte	0x8
 3648 0982 4D       		.byte	0x4d
 3649 0983 13       		.uleb128 0x13
 3650 0984 01       		.uleb128 0x1
 3651 0985 52       		.byte	0x52
 3652 0986 04       		.uleb128 0x4
 3653 0987 75       		.byte	0x75
 3654 0988 00       		.sleb128 0
 3655 0989 38       		.byte	0x38
 3656 098a 1A       		.byte	0x1a
 3657 098b 00       		.byte	0
 3658 098c 00       		.byte	0
 3659 098d 18       		.uleb128 0x18
 3660 098e 68030000 		.4byte	0x368
 3661 0992 F8000000 		.4byte	.LBB174
 3662 0996 10000000 		.4byte	.LBE174-.LBB174
 3663 099a 01       		.byte	0x1
 3664 099b 1F02     		.2byte	0x21f
 3665 099d DA090000 		.4byte	0x9da
 3666 09a1 17       		.uleb128 0x17
 3667 09a2 75030000 		.4byte	0x375
 3668 09a6 5E030000 		.4byte	.LLST29
 3669 09aa 1A       		.uleb128 0x1a
 3670 09ab 02010000 		.4byte	.LVL32
 3671 09af 08200000 		.4byte	0x2008
 3672 09b3 C9090000 		.4byte	0x9c9
 3673 09b7 13       		.uleb128 0x13
 3674 09b8 01       		.uleb128 0x1
 3675 09b9 50       		.byte	0x50
 3676 09ba 02       		.uleb128 0x2
 3677 09bb 74       		.byte	0x74
 3678 09bc 00       		.sleb128 0
 3679 09bd 13       		.uleb128 0x13
 3680 09be 01       		.uleb128 0x1
 3681 09bf 51       		.byte	0x51
 3682 09c0 02       		.uleb128 0x2
 3683 09c1 08       		.byte	0x8
 3684 09c2 4C       		.byte	0x4c
 3685 09c3 13       		.uleb128 0x13
 3686 09c4 01       		.uleb128 0x1
 3687 09c5 52       		.byte	0x52
 3688 09c6 01       		.uleb128 0x1
 3689 09c7 31       		.byte	0x31
 3690 09c8 00       		.byte	0
 3691 09c9 19       		.uleb128 0x19
 3692 09ca 08010000 		.4byte	.LVL33
 3693 09ce B6030000 		.4byte	0x3b6
 3694 09d2 13       		.uleb128 0x13
 3695 09d3 01       		.uleb128 0x1
 3696 09d4 50       		.byte	0x50
ARM GAS  C:\Users\info\AppData\Local\Temp\ccAWUQ53.s 			page 83


 3697 09d5 02       		.uleb128 0x2
 3698 09d6 74       		.byte	0x74
 3699 09d7 00       		.sleb128 0
 3700 09d8 00       		.byte	0
 3701 09d9 00       		.byte	0
 3702 09da 18       		.uleb128 0x18
 3703 09db 9C030000 		.4byte	0x39c
 3704 09df 08010000 		.4byte	.LBB176
 3705 09e3 0A000000 		.4byte	.LBE176-.LBB176
 3706 09e7 01       		.byte	0x1
 3707 09e8 2002     		.2byte	0x220
 3708 09ea 130A0000 		.4byte	0xa13
 3709 09ee 17       		.uleb128 0x17
 3710 09ef A9030000 		.4byte	0x3a9
 3711 09f3 71030000 		.4byte	.LLST30
 3712 09f7 19       		.uleb128 0x19
 3713 09f8 12010000 		.4byte	.LVL34
 3714 09fc 08200000 		.4byte	0x2008
 3715 0a00 13       		.uleb128 0x13
 3716 0a01 01       		.uleb128 0x1
 3717 0a02 50       		.byte	0x50
 3718 0a03 02       		.uleb128 0x2
 3719 0a04 74       		.byte	0x74
 3720 0a05 00       		.sleb128 0
 3721 0a06 13       		.uleb128 0x13
 3722 0a07 01       		.uleb128 0x1
 3723 0a08 51       		.byte	0x51
 3724 0a09 02       		.uleb128 0x2
 3725 0a0a 08       		.byte	0x8
 3726 0a0b 4C       		.byte	0x4c
 3727 0a0c 13       		.uleb128 0x13
 3728 0a0d 01       		.uleb128 0x1
 3729 0a0e 52       		.byte	0x52
 3730 0a0f 01       		.uleb128 0x1
 3731 0a10 30       		.byte	0x30
 3732 0a11 00       		.byte	0
 3733 0a12 00       		.byte	0
 3734 0a13 18       		.uleb128 0x18
 3735 0a14 4E030000 		.4byte	0x34e
 3736 0a18 0A020000 		.4byte	.LBB178
 3737 0a1c 0C000000 		.4byte	.LBE178-.LBB178
 3738 0a20 01       		.byte	0x1
 3739 0a21 1A02     		.2byte	0x21a
 3740 0a23 4C0A0000 		.4byte	0xa4c
 3741 0a27 17       		.uleb128 0x17
 3742 0a28 5B030000 		.4byte	0x35b
 3743 0a2c 84030000 		.4byte	.LLST31
 3744 0a30 19       		.uleb128 0x19
 3745 0a31 14020000 		.4byte	.LVL69
 3746 0a35 08200000 		.4byte	0x2008
 3747 0a39 13       		.uleb128 0x13
 3748 0a3a 01       		.uleb128 0x1
 3749 0a3b 50       		.byte	0x50
 3750 0a3c 02       		.uleb128 0x2
 3751 0a3d 74       		.byte	0x74
 3752 0a3e 00       		.sleb128 0
 3753 0a3f 13       		.uleb128 0x13
ARM GAS  C:\Users\info\AppData\Local\Temp\ccAWUQ53.s 			page 84


 3754 0a40 01       		.uleb128 0x1
 3755 0a41 51       		.byte	0x51
 3756 0a42 02       		.uleb128 0x2
 3757 0a43 08       		.byte	0x8
 3758 0a44 4D       		.byte	0x4d
 3759 0a45 13       		.uleb128 0x13
 3760 0a46 01       		.uleb128 0x1
 3761 0a47 52       		.byte	0x52
 3762 0a48 01       		.uleb128 0x1
 3763 0a49 31       		.byte	0x31
 3764 0a4a 00       		.byte	0
 3765 0a4b 00       		.byte	0
 3766 0a4c 19       		.uleb128 0x19
 3767 0a4d F8000000 		.4byte	.LVL31
 3768 0a51 B6030000 		.4byte	0x3b6
 3769 0a55 13       		.uleb128 0x13
 3770 0a56 01       		.uleb128 0x1
 3771 0a57 50       		.byte	0x50
 3772 0a58 02       		.uleb128 0x2
 3773 0a59 74       		.byte	0x74
 3774 0a5a 00       		.sleb128 0
 3775 0a5b 00       		.byte	0
 3776 0a5c 00       		.byte	0
 3777 0a5d 16       		.uleb128 0x16
 3778 0a5e 0E040000 		.4byte	0x40e
 3779 0a62 12010000 		.4byte	.LBB181
 3780 0a66 80000000 		.4byte	.Ldebug_ranges0+0x80
 3781 0a6a 01       		.byte	0x1
 3782 0a6b 3702     		.2byte	0x237
 3783 0a6d 8F0B0000 		.4byte	0xb8f
 3784 0a71 17       		.uleb128 0x17
 3785 0a72 27040000 		.4byte	0x427
 3786 0a76 97030000 		.4byte	.LLST32
 3787 0a7a 17       		.uleb128 0x17
 3788 0a7b 1B040000 		.4byte	0x41b
 3789 0a7f BD030000 		.4byte	.LLST33
 3790 0a83 18       		.uleb128 0x18
 3791 0a84 82030000 		.4byte	0x382
 3792 0a88 1E010000 		.4byte	.LBB183
 3793 0a8c 08000000 		.4byte	.LBE183-.LBB183
 3794 0a90 01       		.byte	0x1
 3795 0a91 1C02     		.2byte	0x21c
 3796 0a93 BF0A0000 		.4byte	0xabf
 3797 0a97 17       		.uleb128 0x17
 3798 0a98 8F030000 		.4byte	0x38f
 3799 0a9c DB030000 		.4byte	.LLST34
 3800 0aa0 19       		.uleb128 0x19
 3801 0aa1 26010000 		.4byte	.LVL36
 3802 0aa5 08200000 		.4byte	0x2008
 3803 0aa9 13       		.uleb128 0x13
 3804 0aaa 01       		.uleb128 0x1
 3805 0aab 50       		.byte	0x50
 3806 0aac 02       		.uleb128 0x2
 3807 0aad 74       		.byte	0x74
 3808 0aae 00       		.sleb128 0
 3809 0aaf 13       		.uleb128 0x13
 3810 0ab0 01       		.uleb128 0x1
ARM GAS  C:\Users\info\AppData\Local\Temp\ccAWUQ53.s 			page 85


 3811 0ab1 51       		.byte	0x51
 3812 0ab2 02       		.uleb128 0x2
 3813 0ab3 08       		.byte	0x8
 3814 0ab4 4D       		.byte	0x4d
 3815 0ab5 13       		.uleb128 0x13
 3816 0ab6 01       		.uleb128 0x1
 3817 0ab7 52       		.byte	0x52
 3818 0ab8 04       		.uleb128 0x4
 3819 0ab9 75       		.byte	0x75
 3820 0aba 00       		.sleb128 0
 3821 0abb 34       		.byte	0x34
 3822 0abc 1A       		.byte	0x1a
 3823 0abd 00       		.byte	0
 3824 0abe 00       		.byte	0
 3825 0abf 18       		.uleb128 0x18
 3826 0ac0 68030000 		.4byte	0x368
 3827 0ac4 2C010000 		.4byte	.LBB185
 3828 0ac8 10000000 		.4byte	.LBE185-.LBB185
 3829 0acc 01       		.byte	0x1
 3830 0acd 1F02     		.2byte	0x21f
 3831 0acf 0C0B0000 		.4byte	0xb0c
 3832 0ad3 17       		.uleb128 0x17
 3833 0ad4 75030000 		.4byte	0x375
 3834 0ad8 EE030000 		.4byte	.LLST35
 3835 0adc 1A       		.uleb128 0x1a
 3836 0add 36010000 		.4byte	.LVL38
 3837 0ae1 08200000 		.4byte	0x2008
 3838 0ae5 FB0A0000 		.4byte	0xafb
 3839 0ae9 13       		.uleb128 0x13
 3840 0aea 01       		.uleb128 0x1
 3841 0aeb 50       		.byte	0x50
 3842 0aec 02       		.uleb128 0x2
 3843 0aed 74       		.byte	0x74
 3844 0aee 00       		.sleb128 0
 3845 0aef 13       		.uleb128 0x13
 3846 0af0 01       		.uleb128 0x1
 3847 0af1 51       		.byte	0x51
 3848 0af2 02       		.uleb128 0x2
 3849 0af3 08       		.byte	0x8
 3850 0af4 4C       		.byte	0x4c
 3851 0af5 13       		.uleb128 0x13
 3852 0af6 01       		.uleb128 0x1
 3853 0af7 52       		.byte	0x52
 3854 0af8 01       		.uleb128 0x1
 3855 0af9 31       		.byte	0x31
 3856 0afa 00       		.byte	0
 3857 0afb 19       		.uleb128 0x19
 3858 0afc 3C010000 		.4byte	.LVL39
 3859 0b00 B6030000 		.4byte	0x3b6
 3860 0b04 13       		.uleb128 0x13
 3861 0b05 01       		.uleb128 0x1
 3862 0b06 50       		.byte	0x50
 3863 0b07 02       		.uleb128 0x2
 3864 0b08 74       		.byte	0x74
 3865 0b09 00       		.sleb128 0
 3866 0b0a 00       		.byte	0
 3867 0b0b 00       		.byte	0
ARM GAS  C:\Users\info\AppData\Local\Temp\ccAWUQ53.s 			page 86


 3868 0b0c 18       		.uleb128 0x18
 3869 0b0d 9C030000 		.4byte	0x39c
 3870 0b11 3C010000 		.4byte	.LBB187
 3871 0b15 0A000000 		.4byte	.LBE187-.LBB187
 3872 0b19 01       		.byte	0x1
 3873 0b1a 2002     		.2byte	0x220
 3874 0b1c 450B0000 		.4byte	0xb45
 3875 0b20 17       		.uleb128 0x17
 3876 0b21 A9030000 		.4byte	0x3a9
 3877 0b25 01040000 		.4byte	.LLST36
 3878 0b29 19       		.uleb128 0x19
 3879 0b2a 46010000 		.4byte	.LVL40
 3880 0b2e 08200000 		.4byte	0x2008
 3881 0b32 13       		.uleb128 0x13
 3882 0b33 01       		.uleb128 0x1
 3883 0b34 50       		.byte	0x50
 3884 0b35 02       		.uleb128 0x2
 3885 0b36 74       		.byte	0x74
 3886 0b37 00       		.sleb128 0
 3887 0b38 13       		.uleb128 0x13
 3888 0b39 01       		.uleb128 0x1
 3889 0b3a 51       		.byte	0x51
 3890 0b3b 02       		.uleb128 0x2
 3891 0b3c 08       		.byte	0x8
 3892 0b3d 4C       		.byte	0x4c
 3893 0b3e 13       		.uleb128 0x13
 3894 0b3f 01       		.uleb128 0x1
 3895 0b40 52       		.byte	0x52
 3896 0b41 01       		.uleb128 0x1
 3897 0b42 30       		.byte	0x30
 3898 0b43 00       		.byte	0
 3899 0b44 00       		.byte	0
 3900 0b45 18       		.uleb128 0x18
 3901 0b46 4E030000 		.4byte	0x34e
 3902 0b4a FE010000 		.4byte	.LBB189
 3903 0b4e 0C000000 		.4byte	.LBE189-.LBB189
 3904 0b52 01       		.byte	0x1
 3905 0b53 1A02     		.2byte	0x21a
 3906 0b55 7E0B0000 		.4byte	0xb7e
 3907 0b59 17       		.uleb128 0x17
 3908 0b5a 5B030000 		.4byte	0x35b
 3909 0b5e 14040000 		.4byte	.LLST37
 3910 0b62 19       		.uleb128 0x19
 3911 0b63 08020000 		.4byte	.LVL67
 3912 0b67 08200000 		.4byte	0x2008
 3913 0b6b 13       		.uleb128 0x13
 3914 0b6c 01       		.uleb128 0x1
 3915 0b6d 50       		.byte	0x50
 3916 0b6e 02       		.uleb128 0x2
 3917 0b6f 74       		.byte	0x74
 3918 0b70 00       		.sleb128 0
 3919 0b71 13       		.uleb128 0x13
 3920 0b72 01       		.uleb128 0x1
 3921 0b73 51       		.byte	0x51
 3922 0b74 02       		.uleb128 0x2
 3923 0b75 08       		.byte	0x8
 3924 0b76 4D       		.byte	0x4d
ARM GAS  C:\Users\info\AppData\Local\Temp\ccAWUQ53.s 			page 87


 3925 0b77 13       		.uleb128 0x13
 3926 0b78 01       		.uleb128 0x1
 3927 0b79 52       		.byte	0x52
 3928 0b7a 01       		.uleb128 0x1
 3929 0b7b 31       		.byte	0x31
 3930 0b7c 00       		.byte	0
 3931 0b7d 00       		.byte	0
 3932 0b7e 19       		.uleb128 0x19
 3933 0b7f 2C010000 		.4byte	.LVL37
 3934 0b83 B6030000 		.4byte	0x3b6
 3935 0b87 13       		.uleb128 0x13
 3936 0b88 01       		.uleb128 0x1
 3937 0b89 50       		.byte	0x50
 3938 0b8a 02       		.uleb128 0x2
 3939 0b8b 74       		.byte	0x74
 3940 0b8c 00       		.sleb128 0
 3941 0b8d 00       		.byte	0
 3942 0b8e 00       		.byte	0
 3943 0b8f 16       		.uleb128 0x16
 3944 0b90 0E040000 		.4byte	0x40e
 3945 0b94 46010000 		.4byte	.LBB192
 3946 0b98 98000000 		.4byte	.Ldebug_ranges0+0x98
 3947 0b9c 01       		.byte	0x1
 3948 0b9d 3802     		.2byte	0x238
 3949 0b9f C10C0000 		.4byte	0xcc1
 3950 0ba3 17       		.uleb128 0x17
 3951 0ba4 27040000 		.4byte	0x427
 3952 0ba8 27040000 		.4byte	.LLST38
 3953 0bac 17       		.uleb128 0x17
 3954 0bad 1B040000 		.4byte	0x41b
 3955 0bb1 4D040000 		.4byte	.LLST39
 3956 0bb5 18       		.uleb128 0x18
 3957 0bb6 82030000 		.4byte	0x382
 3958 0bba 52010000 		.4byte	.LBB194
 3959 0bbe 08000000 		.4byte	.LBE194-.LBB194
 3960 0bc2 01       		.byte	0x1
 3961 0bc3 1C02     		.2byte	0x21c
 3962 0bc5 F10B0000 		.4byte	0xbf1
 3963 0bc9 17       		.uleb128 0x17
 3964 0bca 8F030000 		.4byte	0x38f
 3965 0bce 6B040000 		.4byte	.LLST40
 3966 0bd2 19       		.uleb128 0x19
 3967 0bd3 5A010000 		.4byte	.LVL42
 3968 0bd7 08200000 		.4byte	0x2008
 3969 0bdb 13       		.uleb128 0x13
 3970 0bdc 01       		.uleb128 0x1
 3971 0bdd 50       		.byte	0x50
 3972 0bde 02       		.uleb128 0x2
 3973 0bdf 74       		.byte	0x74
 3974 0be0 00       		.sleb128 0
 3975 0be1 13       		.uleb128 0x13
 3976 0be2 01       		.uleb128 0x1
 3977 0be3 51       		.byte	0x51
 3978 0be4 02       		.uleb128 0x2
 3979 0be5 08       		.byte	0x8
 3980 0be6 4D       		.byte	0x4d
 3981 0be7 13       		.uleb128 0x13
ARM GAS  C:\Users\info\AppData\Local\Temp\ccAWUQ53.s 			page 88


 3982 0be8 01       		.uleb128 0x1
 3983 0be9 52       		.byte	0x52
 3984 0bea 04       		.uleb128 0x4
 3985 0beb 75       		.byte	0x75
 3986 0bec 00       		.sleb128 0
 3987 0bed 32       		.byte	0x32
 3988 0bee 1A       		.byte	0x1a
 3989 0bef 00       		.byte	0
 3990 0bf0 00       		.byte	0
 3991 0bf1 18       		.uleb128 0x18
 3992 0bf2 68030000 		.4byte	0x368
 3993 0bf6 60010000 		.4byte	.LBB196
 3994 0bfa 10000000 		.4byte	.LBE196-.LBB196
 3995 0bfe 01       		.byte	0x1
 3996 0bff 1F02     		.2byte	0x21f
 3997 0c01 3E0C0000 		.4byte	0xc3e
 3998 0c05 17       		.uleb128 0x17
 3999 0c06 75030000 		.4byte	0x375
 4000 0c0a 7E040000 		.4byte	.LLST41
 4001 0c0e 1A       		.uleb128 0x1a
 4002 0c0f 6A010000 		.4byte	.LVL44
 4003 0c13 08200000 		.4byte	0x2008
 4004 0c17 2D0C0000 		.4byte	0xc2d
 4005 0c1b 13       		.uleb128 0x13
 4006 0c1c 01       		.uleb128 0x1
 4007 0c1d 50       		.byte	0x50
 4008 0c1e 02       		.uleb128 0x2
 4009 0c1f 74       		.byte	0x74
 4010 0c20 00       		.sleb128 0
 4011 0c21 13       		.uleb128 0x13
 4012 0c22 01       		.uleb128 0x1
 4013 0c23 51       		.byte	0x51
 4014 0c24 02       		.uleb128 0x2
 4015 0c25 08       		.byte	0x8
 4016 0c26 4C       		.byte	0x4c
 4017 0c27 13       		.uleb128 0x13
 4018 0c28 01       		.uleb128 0x1
 4019 0c29 52       		.byte	0x52
 4020 0c2a 01       		.uleb128 0x1
 4021 0c2b 31       		.byte	0x31
 4022 0c2c 00       		.byte	0
 4023 0c2d 19       		.uleb128 0x19
 4024 0c2e 70010000 		.4byte	.LVL45
 4025 0c32 B6030000 		.4byte	0x3b6
 4026 0c36 13       		.uleb128 0x13
 4027 0c37 01       		.uleb128 0x1
 4028 0c38 50       		.byte	0x50
 4029 0c39 02       		.uleb128 0x2
 4030 0c3a 74       		.byte	0x74
 4031 0c3b 00       		.sleb128 0
 4032 0c3c 00       		.byte	0
 4033 0c3d 00       		.byte	0
 4034 0c3e 18       		.uleb128 0x18
 4035 0c3f 9C030000 		.4byte	0x39c
 4036 0c43 70010000 		.4byte	.LBB198
 4037 0c47 0A000000 		.4byte	.LBE198-.LBB198
 4038 0c4b 01       		.byte	0x1
ARM GAS  C:\Users\info\AppData\Local\Temp\ccAWUQ53.s 			page 89


 4039 0c4c 2002     		.2byte	0x220
 4040 0c4e 770C0000 		.4byte	0xc77
 4041 0c52 17       		.uleb128 0x17
 4042 0c53 A9030000 		.4byte	0x3a9
 4043 0c57 91040000 		.4byte	.LLST42
 4044 0c5b 19       		.uleb128 0x19
 4045 0c5c 7A010000 		.4byte	.LVL46
 4046 0c60 08200000 		.4byte	0x2008
 4047 0c64 13       		.uleb128 0x13
 4048 0c65 01       		.uleb128 0x1
 4049 0c66 50       		.byte	0x50
 4050 0c67 02       		.uleb128 0x2
 4051 0c68 74       		.byte	0x74
 4052 0c69 00       		.sleb128 0
 4053 0c6a 13       		.uleb128 0x13
 4054 0c6b 01       		.uleb128 0x1
 4055 0c6c 51       		.byte	0x51
 4056 0c6d 02       		.uleb128 0x2
 4057 0c6e 08       		.byte	0x8
 4058 0c6f 4C       		.byte	0x4c
 4059 0c70 13       		.uleb128 0x13
 4060 0c71 01       		.uleb128 0x1
 4061 0c72 52       		.byte	0x52
 4062 0c73 01       		.uleb128 0x1
 4063 0c74 30       		.byte	0x30
 4064 0c75 00       		.byte	0
 4065 0c76 00       		.byte	0
 4066 0c77 18       		.uleb128 0x18
 4067 0c78 4E030000 		.4byte	0x34e
 4068 0c7c F2010000 		.4byte	.LBB200
 4069 0c80 0C000000 		.4byte	.LBE200-.LBB200
 4070 0c84 01       		.byte	0x1
 4071 0c85 1A02     		.2byte	0x21a
 4072 0c87 B00C0000 		.4byte	0xcb0
 4073 0c8b 17       		.uleb128 0x17
 4074 0c8c 5B030000 		.4byte	0x35b
 4075 0c90 A4040000 		.4byte	.LLST43
 4076 0c94 19       		.uleb128 0x19
 4077 0c95 FC010000 		.4byte	.LVL65
 4078 0c99 08200000 		.4byte	0x2008
 4079 0c9d 13       		.uleb128 0x13
 4080 0c9e 01       		.uleb128 0x1
 4081 0c9f 50       		.byte	0x50
 4082 0ca0 02       		.uleb128 0x2
 4083 0ca1 74       		.byte	0x74
 4084 0ca2 00       		.sleb128 0
 4085 0ca3 13       		.uleb128 0x13
 4086 0ca4 01       		.uleb128 0x1
 4087 0ca5 51       		.byte	0x51
 4088 0ca6 02       		.uleb128 0x2
 4089 0ca7 08       		.byte	0x8
 4090 0ca8 4D       		.byte	0x4d
 4091 0ca9 13       		.uleb128 0x13
 4092 0caa 01       		.uleb128 0x1
 4093 0cab 52       		.byte	0x52
 4094 0cac 01       		.uleb128 0x1
 4095 0cad 31       		.byte	0x31
ARM GAS  C:\Users\info\AppData\Local\Temp\ccAWUQ53.s 			page 90


 4096 0cae 00       		.byte	0
 4097 0caf 00       		.byte	0
 4098 0cb0 19       		.uleb128 0x19
 4099 0cb1 60010000 		.4byte	.LVL43
 4100 0cb5 B6030000 		.4byte	0x3b6
 4101 0cb9 13       		.uleb128 0x13
 4102 0cba 01       		.uleb128 0x1
 4103 0cbb 50       		.byte	0x50
 4104 0cbc 02       		.uleb128 0x2
 4105 0cbd 74       		.byte	0x74
 4106 0cbe 00       		.sleb128 0
 4107 0cbf 00       		.byte	0
 4108 0cc0 00       		.byte	0
 4109 0cc1 18       		.uleb128 0x18
 4110 0cc2 0E040000 		.4byte	0x40e
 4111 0cc6 7A010000 		.4byte	.LBB203
 4112 0cca 30000000 		.4byte	.LBE203-.LBB203
 4113 0cce 01       		.byte	0x1
 4114 0ccf 3902     		.2byte	0x239
 4115 0cd1 E40D0000 		.4byte	0xde4
 4116 0cd5 17       		.uleb128 0x17
 4117 0cd6 27040000 		.4byte	0x427
 4118 0cda B7040000 		.4byte	.LLST44
 4119 0cde 17       		.uleb128 0x17
 4120 0cdf 1B040000 		.4byte	0x41b
 4121 0ce3 CE040000 		.4byte	.LLST45
 4122 0ce7 18       		.uleb128 0x18
 4123 0ce8 4E030000 		.4byte	0x34e
 4124 0cec 7E010000 		.4byte	.LBB205
 4125 0cf0 04000000 		.4byte	.LBE205-.LBB205
 4126 0cf4 01       		.byte	0x1
 4127 0cf5 1A02     		.2byte	0x21a
 4128 0cf7 050D0000 		.4byte	0xd05
 4129 0cfb 17       		.uleb128 0x17
 4130 0cfc 5B030000 		.4byte	0x35b
 4131 0d00 E1040000 		.4byte	.LLST46
 4132 0d04 00       		.byte	0
 4133 0d05 18       		.uleb128 0x18
 4134 0d06 82030000 		.4byte	0x382
 4135 0d0a 82010000 		.4byte	.LBB207
 4136 0d0e 08000000 		.4byte	.LBE207-.LBB207
 4137 0d12 01       		.byte	0x1
 4138 0d13 1C02     		.2byte	0x21c
 4139 0d15 4D0D0000 		.4byte	0xd4d
 4140 0d19 17       		.uleb128 0x17
 4141 0d1a 8F030000 		.4byte	0x38f
 4142 0d1e 0D050000 		.4byte	.LLST47
 4143 0d22 19       		.uleb128 0x19
 4144 0d23 8A010000 		.4byte	.LVL49
 4145 0d27 08200000 		.4byte	0x2008
 4146 0d2b 13       		.uleb128 0x13
 4147 0d2c 01       		.uleb128 0x1
 4148 0d2d 50       		.byte	0x50
 4149 0d2e 02       		.uleb128 0x2
 4150 0d2f 74       		.byte	0x74
 4151 0d30 00       		.sleb128 0
 4152 0d31 13       		.uleb128 0x13
ARM GAS  C:\Users\info\AppData\Local\Temp\ccAWUQ53.s 			page 91


 4153 0d32 01       		.uleb128 0x1
 4154 0d33 51       		.byte	0x51
 4155 0d34 02       		.uleb128 0x2
 4156 0d35 08       		.byte	0x8
 4157 0d36 4D       		.byte	0x4d
 4158 0d37 13       		.uleb128 0x13
 4159 0d38 01       		.uleb128 0x1
 4160 0d39 52       		.byte	0x52
 4161 0d3a 10       		.uleb128 0x10
 4162 0d3b 31       		.byte	0x31
 4163 0d3c 75       		.byte	0x75
 4164 0d3d 00       		.sleb128 0
 4165 0d3e 31       		.byte	0x31
 4166 0d3f 1A       		.byte	0x1a
 4167 0d40 75       		.byte	0x75
 4168 0d41 00       		.sleb128 0
 4169 0d42 31       		.byte	0x31
 4170 0d43 1A       		.byte	0x1a
 4171 0d44 30       		.byte	0x30
 4172 0d45 2E       		.byte	0x2e
 4173 0d46 28       		.byte	0x28
 4174 0d47 0100     		.2byte	0x1
 4175 0d49 16       		.byte	0x16
 4176 0d4a 13       		.byte	0x13
 4177 0d4b 00       		.byte	0
 4178 0d4c 00       		.byte	0
 4179 0d4d 18       		.uleb128 0x18
 4180 0d4e 68030000 		.4byte	0x368
 4181 0d52 90010000 		.4byte	.LBB209
 4182 0d56 10000000 		.4byte	.LBE209-.LBB209
 4183 0d5a 01       		.byte	0x1
 4184 0d5b 1F02     		.2byte	0x21f
 4185 0d5d 9A0D0000 		.4byte	0xd9a
 4186 0d61 17       		.uleb128 0x17
 4187 0d62 75030000 		.4byte	0x375
 4188 0d66 39050000 		.4byte	.LLST48
 4189 0d6a 1A       		.uleb128 0x1a
 4190 0d6b 9A010000 		.4byte	.LVL51
 4191 0d6f 08200000 		.4byte	0x2008
 4192 0d73 890D0000 		.4byte	0xd89
 4193 0d77 13       		.uleb128 0x13
 4194 0d78 01       		.uleb128 0x1
 4195 0d79 50       		.byte	0x50
 4196 0d7a 02       		.uleb128 0x2
 4197 0d7b 74       		.byte	0x74
 4198 0d7c 00       		.sleb128 0
 4199 0d7d 13       		.uleb128 0x13
 4200 0d7e 01       		.uleb128 0x1
 4201 0d7f 51       		.byte	0x51
 4202 0d80 02       		.uleb128 0x2
 4203 0d81 08       		.byte	0x8
 4204 0d82 4C       		.byte	0x4c
 4205 0d83 13       		.uleb128 0x13
 4206 0d84 01       		.uleb128 0x1
 4207 0d85 52       		.byte	0x52
 4208 0d86 01       		.uleb128 0x1
 4209 0d87 31       		.byte	0x31
ARM GAS  C:\Users\info\AppData\Local\Temp\ccAWUQ53.s 			page 92


 4210 0d88 00       		.byte	0
 4211 0d89 19       		.uleb128 0x19
 4212 0d8a A0010000 		.4byte	.LVL52
 4213 0d8e B6030000 		.4byte	0x3b6
 4214 0d92 13       		.uleb128 0x13
 4215 0d93 01       		.uleb128 0x1
 4216 0d94 50       		.byte	0x50
 4217 0d95 02       		.uleb128 0x2
 4218 0d96 74       		.byte	0x74
 4219 0d97 00       		.sleb128 0
 4220 0d98 00       		.byte	0
 4221 0d99 00       		.byte	0
 4222 0d9a 18       		.uleb128 0x18
 4223 0d9b 9C030000 		.4byte	0x39c
 4224 0d9f A0010000 		.4byte	.LBB211
 4225 0da3 0A000000 		.4byte	.LBE211-.LBB211
 4226 0da7 01       		.byte	0x1
 4227 0da8 2002     		.2byte	0x220
 4228 0daa D30D0000 		.4byte	0xdd3
 4229 0dae 17       		.uleb128 0x17
 4230 0daf A9030000 		.4byte	0x3a9
 4231 0db3 4C050000 		.4byte	.LLST49
 4232 0db7 19       		.uleb128 0x19
 4233 0db8 AA010000 		.4byte	.LVL53
 4234 0dbc 08200000 		.4byte	0x2008
 4235 0dc0 13       		.uleb128 0x13
 4236 0dc1 01       		.uleb128 0x1
 4237 0dc2 50       		.byte	0x50
 4238 0dc3 02       		.uleb128 0x2
 4239 0dc4 74       		.byte	0x74
 4240 0dc5 00       		.sleb128 0
 4241 0dc6 13       		.uleb128 0x13
 4242 0dc7 01       		.uleb128 0x1
 4243 0dc8 51       		.byte	0x51
 4244 0dc9 02       		.uleb128 0x2
 4245 0dca 08       		.byte	0x8
 4246 0dcb 4C       		.byte	0x4c
 4247 0dcc 13       		.uleb128 0x13
 4248 0dcd 01       		.uleb128 0x1
 4249 0dce 52       		.byte	0x52
 4250 0dcf 01       		.uleb128 0x1
 4251 0dd0 30       		.byte	0x30
 4252 0dd1 00       		.byte	0
 4253 0dd2 00       		.byte	0
 4254 0dd3 19       		.uleb128 0x19
 4255 0dd4 90010000 		.4byte	.LVL50
 4256 0dd8 B6030000 		.4byte	0x3b6
 4257 0ddc 13       		.uleb128 0x13
 4258 0ddd 01       		.uleb128 0x1
 4259 0dde 50       		.byte	0x50
 4260 0ddf 02       		.uleb128 0x2
 4261 0de0 74       		.byte	0x74
 4262 0de1 00       		.sleb128 0
 4263 0de2 00       		.byte	0
 4264 0de3 00       		.byte	0
 4265 0de4 1C       		.uleb128 0x1c
 4266 0de5 F4030000 		.4byte	0x3f4
ARM GAS  C:\Users\info\AppData\Local\Temp\ccAWUQ53.s 			page 93


 4267 0de9 AA010000 		.4byte	.LBB213
 4268 0ded B0000000 		.4byte	.Ldebug_ranges0+0xb0
 4269 0df1 01       		.byte	0x1
 4270 0df2 3E02     		.2byte	0x23e
 4271 0df4 17       		.uleb128 0x17
 4272 0df5 01040000 		.4byte	0x401
 4273 0df9 5F050000 		.4byte	.LLST50
 4274 0dfd 18       		.uleb128 0x18
 4275 0dfe 4E030000 		.4byte	0x34e
 4276 0e02 AA010000 		.4byte	.LBB215
 4277 0e06 0A000000 		.4byte	.LBE215-.LBB215
 4278 0e0a 01       		.byte	0x1
 4279 0e0b 2702     		.2byte	0x227
 4280 0e0d 360E0000 		.4byte	0xe36
 4281 0e11 17       		.uleb128 0x17
 4282 0e12 5B030000 		.4byte	0x35b
 4283 0e16 8B050000 		.4byte	.LLST51
 4284 0e1a 19       		.uleb128 0x19
 4285 0e1b B4010000 		.4byte	.LVL54
 4286 0e1f 08200000 		.4byte	0x2008
 4287 0e23 13       		.uleb128 0x13
 4288 0e24 01       		.uleb128 0x1
 4289 0e25 50       		.byte	0x50
 4290 0e26 02       		.uleb128 0x2
 4291 0e27 74       		.byte	0x74
 4292 0e28 00       		.sleb128 0
 4293 0e29 13       		.uleb128 0x13
 4294 0e2a 01       		.uleb128 0x1
 4295 0e2b 51       		.byte	0x51
 4296 0e2c 02       		.uleb128 0x2
 4297 0e2d 08       		.byte	0x8
 4298 0e2e 4D       		.byte	0x4d
 4299 0e2f 13       		.uleb128 0x13
 4300 0e30 01       		.uleb128 0x1
 4301 0e31 52       		.byte	0x52
 4302 0e32 01       		.uleb128 0x1
 4303 0e33 31       		.byte	0x31
 4304 0e34 00       		.byte	0
 4305 0e35 00       		.byte	0
 4306 0e36 18       		.uleb128 0x18
 4307 0e37 68030000 		.4byte	0x368
 4308 0e3b BA010000 		.4byte	.LBB217
 4309 0e3f 10000000 		.4byte	.LBE217-.LBB217
 4310 0e43 01       		.byte	0x1
 4311 0e44 2902     		.2byte	0x229
 4312 0e46 830E0000 		.4byte	0xe83
 4313 0e4a 17       		.uleb128 0x17
 4314 0e4b 75030000 		.4byte	0x375
 4315 0e4f 9E050000 		.4byte	.LLST52
 4316 0e53 1A       		.uleb128 0x1a
 4317 0e54 C4010000 		.4byte	.LVL56
 4318 0e58 08200000 		.4byte	0x2008
 4319 0e5c 720E0000 		.4byte	0xe72
 4320 0e60 13       		.uleb128 0x13
 4321 0e61 01       		.uleb128 0x1
 4322 0e62 50       		.byte	0x50
 4323 0e63 02       		.uleb128 0x2
ARM GAS  C:\Users\info\AppData\Local\Temp\ccAWUQ53.s 			page 94


 4324 0e64 74       		.byte	0x74
 4325 0e65 00       		.sleb128 0
 4326 0e66 13       		.uleb128 0x13
 4327 0e67 01       		.uleb128 0x1
 4328 0e68 51       		.byte	0x51
 4329 0e69 02       		.uleb128 0x2
 4330 0e6a 08       		.byte	0x8
 4331 0e6b 4C       		.byte	0x4c
 4332 0e6c 13       		.uleb128 0x13
 4333 0e6d 01       		.uleb128 0x1
 4334 0e6e 52       		.byte	0x52
 4335 0e6f 01       		.uleb128 0x1
 4336 0e70 31       		.byte	0x31
 4337 0e71 00       		.byte	0
 4338 0e72 19       		.uleb128 0x19
 4339 0e73 CA010000 		.4byte	.LVL57
 4340 0e77 B6030000 		.4byte	0x3b6
 4341 0e7b 13       		.uleb128 0x13
 4342 0e7c 01       		.uleb128 0x1
 4343 0e7d 50       		.byte	0x50
 4344 0e7e 02       		.uleb128 0x2
 4345 0e7f 74       		.byte	0x74
 4346 0e80 00       		.sleb128 0
 4347 0e81 00       		.byte	0
 4348 0e82 00       		.byte	0
 4349 0e83 18       		.uleb128 0x18
 4350 0e84 4E030000 		.4byte	0x34e
 4351 0e88 CA010000 		.4byte	.LBB219
 4352 0e8c 0A000000 		.4byte	.LBE219-.LBB219
 4353 0e90 01       		.byte	0x1
 4354 0e91 2A02     		.2byte	0x22a
 4355 0e93 BC0E0000 		.4byte	0xebc
 4356 0e97 17       		.uleb128 0x17
 4357 0e98 5B030000 		.4byte	0x35b
 4358 0e9c B1050000 		.4byte	.LLST53
 4359 0ea0 19       		.uleb128 0x19
 4360 0ea1 D4010000 		.4byte	.LVL58
 4361 0ea5 08200000 		.4byte	0x2008
 4362 0ea9 13       		.uleb128 0x13
 4363 0eaa 01       		.uleb128 0x1
 4364 0eab 50       		.byte	0x50
 4365 0eac 02       		.uleb128 0x2
 4366 0ead 74       		.byte	0x74
 4367 0eae 00       		.sleb128 0
 4368 0eaf 13       		.uleb128 0x13
 4369 0eb0 01       		.uleb128 0x1
 4370 0eb1 51       		.byte	0x51
 4371 0eb2 02       		.uleb128 0x2
 4372 0eb3 08       		.byte	0x8
 4373 0eb4 4D       		.byte	0x4d
 4374 0eb5 13       		.uleb128 0x13
 4375 0eb6 01       		.uleb128 0x1
 4376 0eb7 52       		.byte	0x52
 4377 0eb8 01       		.uleb128 0x1
 4378 0eb9 31       		.byte	0x31
 4379 0eba 00       		.byte	0
 4380 0ebb 00       		.byte	0
ARM GAS  C:\Users\info\AppData\Local\Temp\ccAWUQ53.s 			page 95


 4381 0ebc 16       		.uleb128 0x16
 4382 0ebd 9C030000 		.4byte	0x39c
 4383 0ec1 DA010000 		.4byte	.LBB221
 4384 0ec5 C8000000 		.4byte	.Ldebug_ranges0+0xc8
 4385 0ec9 01       		.byte	0x1
 4386 0eca 2C02     		.2byte	0x22c
 4387 0ecc F60E0000 		.4byte	0xef6
 4388 0ed0 17       		.uleb128 0x17
 4389 0ed1 A9030000 		.4byte	0x3a9
 4390 0ed5 C4050000 		.4byte	.LLST54
 4391 0ed9 12       		.uleb128 0x12
 4392 0eda E8010000 		.4byte	.LVL61
 4393 0ede 08200000 		.4byte	0x2008
 4394 0ee2 13       		.uleb128 0x13
 4395 0ee3 01       		.uleb128 0x1
 4396 0ee4 50       		.byte	0x50
 4397 0ee5 03       		.uleb128 0x3
 4398 0ee6 F3       		.byte	0xf3
 4399 0ee7 01       		.uleb128 0x1
 4400 0ee8 50       		.byte	0x50
 4401 0ee9 13       		.uleb128 0x13
 4402 0eea 01       		.uleb128 0x1
 4403 0eeb 51       		.byte	0x51
 4404 0eec 02       		.uleb128 0x2
 4405 0eed 08       		.byte	0x8
 4406 0eee 4C       		.byte	0x4c
 4407 0eef 13       		.uleb128 0x13
 4408 0ef0 01       		.uleb128 0x1
 4409 0ef1 52       		.byte	0x52
 4410 0ef2 01       		.uleb128 0x1
 4411 0ef3 30       		.byte	0x30
 4412 0ef4 00       		.byte	0
 4413 0ef5 00       		.byte	0
 4414 0ef6 1A       		.uleb128 0x1a
 4415 0ef7 BA010000 		.4byte	.LVL55
 4416 0efb B6030000 		.4byte	0x3b6
 4417 0eff 0A0F0000 		.4byte	0xf0a
 4418 0f03 13       		.uleb128 0x13
 4419 0f04 01       		.uleb128 0x1
 4420 0f05 50       		.byte	0x50
 4421 0f06 02       		.uleb128 0x2
 4422 0f07 74       		.byte	0x74
 4423 0f08 00       		.sleb128 0
 4424 0f09 00       		.byte	0
 4425 0f0a 19       		.uleb128 0x19
 4426 0f0b DA010000 		.4byte	.LVL59
 4427 0f0f B6030000 		.4byte	0x3b6
 4428 0f13 13       		.uleb128 0x13
 4429 0f14 01       		.uleb128 0x1
 4430 0f15 50       		.byte	0x50
 4431 0f16 02       		.uleb128 0x2
 4432 0f17 74       		.byte	0x74
 4433 0f18 00       		.sleb128 0
 4434 0f19 00       		.byte	0
 4435 0f1a 00       		.byte	0
 4436 0f1b 00       		.byte	0
 4437 0f1c 1D       		.uleb128 0x1d
ARM GAS  C:\Users\info\AppData\Local\Temp\ccAWUQ53.s 			page 96


 4438 0f1d 28010000 		.4byte	.LASF70
 4439 0f21 01       		.byte	0x1
 4440 0f22 27       		.byte	0x27
 4441 0f23 8C000000 		.4byte	0x8c
 4442 0f27 00000000 		.4byte	.LFB0
 4443 0f2b 10000000 		.4byte	.LFE0-.LFB0
 4444 0f2f 01       		.uleb128 0x1
 4445 0f30 9C       		.byte	0x9c
 4446 0f31 6B0F0000 		.4byte	0xf6b
 4447 0f35 1E       		.uleb128 0x1e
 4448 0f36 FE030000 		.4byte	.LASF63
 4449 0f3a 01       		.byte	0x1
 4450 0f3b 27       		.byte	0x27
 4451 0f3c 07030000 		.4byte	0x307
 4452 0f40 F0050000 		.4byte	.LLST55
 4453 0f44 1F       		.uleb128 0x1f
 4454 0f45 646300   		.ascii	"dc\000"
 4455 0f48 01       		.byte	0x1
 4456 0f49 27       		.byte	0x27
 4457 0f4a 8C000000 		.4byte	0x8c
 4458 0f4e 11060000 		.4byte	.LLST56
 4459 0f52 20       		.uleb128 0x20
 4460 0f53 10000000 		.4byte	.LVL78
 4461 0f57 13       		.uleb128 0x13
 4462 0f58 01       		.uleb128 0x1
 4463 0f59 50       		.byte	0x50
 4464 0f5a 03       		.uleb128 0x3
 4465 0f5b F3       		.byte	0xf3
 4466 0f5c 01       		.uleb128 0x1
 4467 0f5d 50       		.byte	0x50
 4468 0f5e 13       		.uleb128 0x13
 4469 0f5f 01       		.uleb128 0x1
 4470 0f60 51       		.byte	0x51
 4471 0f61 02       		.uleb128 0x2
 4472 0f62 08       		.byte	0x8
 4473 0f63 20       		.byte	0x20
 4474 0f64 13       		.uleb128 0x13
 4475 0f65 01       		.uleb128 0x1
 4476 0f66 53       		.byte	0x53
 4477 0f67 01       		.uleb128 0x1
 4478 0f68 30       		.byte	0x30
 4479 0f69 00       		.byte	0
 4480 0f6a 00       		.byte	0
 4481 0f6b 1D       		.uleb128 0x1d
 4482 0f6c E5020000 		.4byte	.LASF71
 4483 0f70 01       		.byte	0x1
 4484 0f71 2C       		.byte	0x2c
 4485 0f72 8C000000 		.4byte	0x8c
 4486 0f76 00000000 		.4byte	.LFB1
 4487 0f7a 10000000 		.4byte	.LFE1-.LFB1
 4488 0f7e 01       		.uleb128 0x1
 4489 0f7f 9C       		.byte	0x9c
 4490 0f80 CB0F0000 		.4byte	0xfcb
 4491 0f84 1E       		.uleb128 0x1e
 4492 0f85 FE030000 		.4byte	.LASF63
 4493 0f89 01       		.byte	0x1
 4494 0f8a 2C       		.byte	0x2c
ARM GAS  C:\Users\info\AppData\Local\Temp\ccAWUQ53.s 			page 97


 4495 0f8b 07030000 		.4byte	0x307
 4496 0f8f 32060000 		.4byte	.LLST57
 4497 0f93 1F       		.uleb128 0x1f
 4498 0f94 636E7400 		.ascii	"cnt\000"
 4499 0f98 01       		.byte	0x1
 4500 0f99 2C       		.byte	0x2c
 4501 0f9a 8C000000 		.4byte	0x8c
 4502 0f9e 53060000 		.4byte	.LLST58
 4503 0fa2 1E       		.uleb128 0x1e
 4504 0fa3 9B020000 		.4byte	.LASF72
 4505 0fa7 01       		.byte	0x1
 4506 0fa8 2C       		.byte	0x2c
 4507 0fa9 32030000 		.4byte	0x332
 4508 0fad 74060000 		.4byte	.LLST59
 4509 0fb1 20       		.uleb128 0x20
 4510 0fb2 10000000 		.4byte	.LVL82
 4511 0fb6 13       		.uleb128 0x13
 4512 0fb7 01       		.uleb128 0x1
 4513 0fb8 50       		.byte	0x50
 4514 0fb9 03       		.uleb128 0x3
 4515 0fba F3       		.byte	0xf3
 4516 0fbb 01       		.uleb128 0x1
 4517 0fbc 50       		.byte	0x50
 4518 0fbd 13       		.uleb128 0x13
 4519 0fbe 01       		.uleb128 0x1
 4520 0fbf 51       		.byte	0x51
 4521 0fc0 01       		.uleb128 0x1
 4522 0fc1 47       		.byte	0x47
 4523 0fc2 13       		.uleb128 0x13
 4524 0fc3 01       		.uleb128 0x1
 4525 0fc4 53       		.byte	0x53
 4526 0fc5 03       		.uleb128 0x3
 4527 0fc6 F3       		.byte	0xf3
 4528 0fc7 01       		.uleb128 0x1
 4529 0fc8 52       		.byte	0x52
 4530 0fc9 00       		.byte	0
 4531 0fca 00       		.byte	0
 4532 0fcb 1D       		.uleb128 0x1d
 4533 0fcc 78000000 		.4byte	.LASF73
 4534 0fd0 01       		.byte	0x1
 4535 0fd1 31       		.byte	0x31
 4536 0fd2 8C000000 		.4byte	0x8c
 4537 0fd6 00000000 		.4byte	.LFB2
 4538 0fda 16000000 		.4byte	.LFE2-.LFB2
 4539 0fde 01       		.uleb128 0x1
 4540 0fdf 9C       		.byte	0x9c
 4541 0fe0 1F100000 		.4byte	0x101f
 4542 0fe4 1E       		.uleb128 0x1e
 4543 0fe5 FE030000 		.4byte	.LASF63
 4544 0fe9 01       		.byte	0x1
 4545 0fea 31       		.byte	0x31
 4546 0feb 07030000 		.4byte	0x307
 4547 0fef A0060000 		.4byte	.LLST60
 4548 0ff3 1E       		.uleb128 0x1e
 4549 0ff4 BC010000 		.4byte	.LASF74
 4550 0ff8 01       		.byte	0x1
 4551 0ff9 31       		.byte	0x31
ARM GAS  C:\Users\info\AppData\Local\Temp\ccAWUQ53.s 			page 98


 4552 0ffa 8C000000 		.4byte	0x8c
 4553 0ffe C1060000 		.4byte	.LLST61
 4554 1002 19       		.uleb128 0x19
 4555 1003 10000000 		.4byte	.LVL85
 4556 1007 6B0F0000 		.4byte	0xf6b
 4557 100b 13       		.uleb128 0x13
 4558 100c 01       		.uleb128 0x1
 4559 100d 50       		.byte	0x50
 4560 100e 03       		.uleb128 0x3
 4561 100f F3       		.byte	0xf3
 4562 1010 01       		.uleb128 0x1
 4563 1011 50       		.byte	0x50
 4564 1012 13       		.uleb128 0x13
 4565 1013 01       		.uleb128 0x1
 4566 1014 51       		.byte	0x51
 4567 1015 01       		.uleb128 0x1
 4568 1016 31       		.byte	0x31
 4569 1017 13       		.uleb128 0x13
 4570 1018 01       		.uleb128 0x1
 4571 1019 52       		.byte	0x52
 4572 101a 02       		.uleb128 0x2
 4573 101b 91       		.byte	0x91
 4574 101c 77       		.sleb128 -9
 4575 101d 00       		.byte	0
 4576 101e 00       		.byte	0
 4577 101f 1D       		.uleb128 0x1d
 4578 1020 A1050000 		.4byte	.LASF75
 4579 1024 01       		.byte	0x1
 4580 1025 36       		.byte	0x36
 4581 1026 8C000000 		.4byte	0x8c
 4582 102a 00000000 		.4byte	.LFB3
 4583 102e 10000000 		.4byte	.LFE3-.LFB3
 4584 1032 01       		.uleb128 0x1
 4585 1033 9C       		.byte	0x9c
 4586 1034 64100000 		.4byte	0x1064
 4587 1038 1E       		.uleb128 0x1e
 4588 1039 FE030000 		.4byte	.LASF63
 4589 103d 01       		.byte	0x1
 4590 103e 36       		.byte	0x36
 4591 103f 07030000 		.4byte	0x307
 4592 1043 EC060000 		.4byte	.LLST62
 4593 1047 20       		.uleb128 0x20
 4594 1048 10000000 		.4byte	.LVL87
 4595 104c 13       		.uleb128 0x13
 4596 104d 01       		.uleb128 0x1
 4597 104e 50       		.byte	0x50
 4598 104f 03       		.uleb128 0x3
 4599 1050 F3       		.byte	0xf3
 4600 1051 01       		.uleb128 0x1
 4601 1052 50       		.byte	0x50
 4602 1053 13       		.uleb128 0x13
 4603 1054 01       		.uleb128 0x1
 4604 1055 51       		.byte	0x51
 4605 1056 01       		.uleb128 0x1
 4606 1057 48       		.byte	0x48
 4607 1058 13       		.uleb128 0x13
 4608 1059 01       		.uleb128 0x1
ARM GAS  C:\Users\info\AppData\Local\Temp\ccAWUQ53.s 			page 99


 4609 105a 52       		.byte	0x52
 4610 105b 01       		.uleb128 0x1
 4611 105c 30       		.byte	0x30
 4612 105d 13       		.uleb128 0x13
 4613 105e 01       		.uleb128 0x1
 4614 105f 53       		.byte	0x53
 4615 1060 01       		.uleb128 0x1
 4616 1061 30       		.byte	0x30
 4617 1062 00       		.byte	0
 4618 1063 00       		.byte	0
 4619 1064 1D       		.uleb128 0x1d
 4620 1065 A9030000 		.4byte	.LASF76
 4621 1069 01       		.byte	0x1
 4622 106a 3B       		.byte	0x3b
 4623 106b 8C000000 		.4byte	0x8c
 4624 106f 00000000 		.4byte	.LFB4
 4625 1073 10000000 		.4byte	.LFE4-.LFB4
 4626 1077 01       		.uleb128 0x1
 4627 1078 9C       		.byte	0x9c
 4628 1079 A9100000 		.4byte	0x10a9
 4629 107d 1E       		.uleb128 0x1e
 4630 107e FE030000 		.4byte	.LASF63
 4631 1082 01       		.byte	0x1
 4632 1083 3B       		.byte	0x3b
 4633 1084 07030000 		.4byte	0x307
 4634 1088 0D070000 		.4byte	.LLST63
 4635 108c 20       		.uleb128 0x20
 4636 108d 10000000 		.4byte	.LVL89
 4637 1091 13       		.uleb128 0x13
 4638 1092 01       		.uleb128 0x1
 4639 1093 50       		.byte	0x50
 4640 1094 03       		.uleb128 0x3
 4641 1095 F3       		.byte	0xf3
 4642 1096 01       		.uleb128 0x1
 4643 1097 50       		.byte	0x50
 4644 1098 13       		.uleb128 0x13
 4645 1099 01       		.uleb128 0x1
 4646 109a 51       		.byte	0x51
 4647 109b 01       		.uleb128 0x1
 4648 109c 49       		.byte	0x49
 4649 109d 13       		.uleb128 0x13
 4650 109e 01       		.uleb128 0x1
 4651 109f 52       		.byte	0x52
 4652 10a0 01       		.uleb128 0x1
 4653 10a1 30       		.byte	0x30
 4654 10a2 13       		.uleb128 0x13
 4655 10a3 01       		.uleb128 0x1
 4656 10a4 53       		.byte	0x53
 4657 10a5 01       		.uleb128 0x1
 4658 10a6 30       		.byte	0x30
 4659 10a7 00       		.byte	0
 4660 10a8 00       		.byte	0
 4661 10a9 1D       		.uleb128 0x1d
 4662 10aa B5040000 		.4byte	.LASF77
 4663 10ae 01       		.byte	0x1
 4664 10af 42       		.byte	0x42
 4665 10b0 8C000000 		.4byte	0x8c
ARM GAS  C:\Users\info\AppData\Local\Temp\ccAWUQ53.s 			page 100


 4666 10b4 00000000 		.4byte	.LFB5
 4667 10b8 04000000 		.4byte	.LFE5-.LFB5
 4668 10bc 01       		.uleb128 0x1
 4669 10bd 9C       		.byte	0x9c
 4670 10be F9100000 		.4byte	0x10f9
 4671 10c2 1E       		.uleb128 0x1e
 4672 10c3 FE030000 		.4byte	.LASF63
 4673 10c7 01       		.byte	0x1
 4674 10c8 42       		.byte	0x42
 4675 10c9 07030000 		.4byte	0x307
 4676 10cd 2E070000 		.4byte	.LLST64
 4677 10d1 21       		.uleb128 0x21
 4678 10d2 6D736700 		.ascii	"msg\000"
 4679 10d6 01       		.byte	0x1
 4680 10d7 42       		.byte	0x42
 4681 10d8 8C000000 		.4byte	0x8c
 4682 10dc 01       		.uleb128 0x1
 4683 10dd 51       		.byte	0x51
 4684 10de 22       		.uleb128 0x22
 4685 10df 34020000 		.4byte	.LASF78
 4686 10e3 01       		.byte	0x1
 4687 10e4 42       		.byte	0x42
 4688 10e5 8C000000 		.4byte	0x8c
 4689 10e9 01       		.uleb128 0x1
 4690 10ea 52       		.byte	0x52
 4691 10eb 22       		.uleb128 0x22
 4692 10ec EA050000 		.4byte	.LASF79
 4693 10f0 01       		.byte	0x1
 4694 10f1 42       		.byte	0x42
 4695 10f2 AD000000 		.4byte	0xad
 4696 10f6 01       		.uleb128 0x1
 4697 10f7 53       		.byte	0x53
 4698 10f8 00       		.byte	0
 4699 10f9 1D       		.uleb128 0x1d
 4700 10fa A5010000 		.4byte	.LASF80
 4701 10fe 01       		.byte	0x1
 4702 10ff 6B       		.byte	0x6b
 4703 1100 8C000000 		.4byte	0x8c
 4704 1104 00000000 		.4byte	.LFB6
 4705 1108 0E010000 		.4byte	.LFE6-.LFB6
 4706 110c 01       		.uleb128 0x1
 4707 110d 9C       		.byte	0x9c
 4708 110e E9120000 		.4byte	0x12e9
 4709 1112 1E       		.uleb128 0x1e
 4710 1113 FE030000 		.4byte	.LASF63
 4711 1117 01       		.byte	0x1
 4712 1118 6B       		.byte	0x6b
 4713 1119 07030000 		.4byte	0x307
 4714 111d 4F070000 		.4byte	.LLST65
 4715 1121 1F       		.uleb128 0x1f
 4716 1122 6D736700 		.ascii	"msg\000"
 4717 1126 01       		.byte	0x1
 4718 1127 6B       		.byte	0x6b
 4719 1128 8C000000 		.4byte	0x8c
 4720 112c 6D070000 		.4byte	.LLST66
 4721 1130 1E       		.uleb128 0x1e
 4722 1131 34020000 		.4byte	.LASF78
ARM GAS  C:\Users\info\AppData\Local\Temp\ccAWUQ53.s 			page 101


 4723 1135 01       		.byte	0x1
 4724 1136 6B       		.byte	0x6b
 4725 1137 8C000000 		.4byte	0x8c
 4726 113b 8E070000 		.4byte	.LLST67
 4727 113f 1E       		.uleb128 0x1e
 4728 1140 EA050000 		.4byte	.LASF79
 4729 1144 01       		.byte	0x1
 4730 1145 6B       		.byte	0x6b
 4731 1146 AD000000 		.4byte	0xad
 4732 114a 10080000 		.4byte	.LLST68
 4733 114e 23       		.uleb128 0x23
 4734 114f 6900     		.ascii	"i\000"
 4735 1151 01       		.byte	0x1
 4736 1152 6D       		.byte	0x6d
 4737 1153 8C000000 		.4byte	0x8c
 4738 1157 47080000 		.4byte	.LLST69
 4739 115b 23       		.uleb128 0x23
 4740 115c 6200     		.ascii	"b\000"
 4741 115e 01       		.byte	0x1
 4742 115f 6D       		.byte	0x6d
 4743 1160 8C000000 		.4byte	0x8c
 4744 1164 5B080000 		.4byte	.LLST70
 4745 1168 24       		.uleb128 0x24
 4746 1169 9B020000 		.4byte	.LASF72
 4747 116d 01       		.byte	0x1
 4748 116e 6E       		.byte	0x6e
 4749 116f 32030000 		.4byte	0x332
 4750 1173 79080000 		.4byte	.LLST71
 4751 1177 24       		.uleb128 0x24
 4752 1178 67010000 		.4byte	.LASF81
 4753 117c 01       		.byte	0x1
 4754 117d 6F       		.byte	0x6f
 4755 117e 8C000000 		.4byte	0x8c
 4756 1182 8C080000 		.4byte	.LLST72
 4757 1186 24       		.uleb128 0x24
 4758 1187 A9000000 		.4byte	.LASF82
 4759 118b 01       		.byte	0x1
 4760 118c 70       		.byte	0x70
 4761 118d 8C000000 		.4byte	0x8c
 4762 1191 0E090000 		.4byte	.LLST73
 4763 1195 1A       		.uleb128 0x1a
 4764 1196 2A000000 		.4byte	.LVL96
 4765 119a 08200000 		.4byte	0x2008
 4766 119e AF110000 		.4byte	0x11af
 4767 11a2 13       		.uleb128 0x13
 4768 11a3 01       		.uleb128 0x1
 4769 11a4 50       		.byte	0x50
 4770 11a5 02       		.uleb128 0x2
 4771 11a6 74       		.byte	0x74
 4772 11a7 00       		.sleb128 0
 4773 11a8 13       		.uleb128 0x13
 4774 11a9 01       		.uleb128 0x1
 4775 11aa 51       		.byte	0x51
 4776 11ab 02       		.uleb128 0x2
 4777 11ac 08       		.byte	0x8
 4778 11ad 4A       		.byte	0x4a
 4779 11ae 00       		.byte	0
ARM GAS  C:\Users\info\AppData\Local\Temp\ccAWUQ53.s 			page 102


 4780 11af 1A       		.uleb128 0x1a
 4781 11b0 3A000000 		.4byte	.LVL99
 4782 11b4 08200000 		.4byte	0x2008
 4783 11b8 C9110000 		.4byte	0x11c9
 4784 11bc 13       		.uleb128 0x13
 4785 11bd 01       		.uleb128 0x1
 4786 11be 50       		.byte	0x50
 4787 11bf 02       		.uleb128 0x2
 4788 11c0 74       		.byte	0x74
 4789 11c1 00       		.sleb128 0
 4790 11c2 13       		.uleb128 0x13
 4791 11c3 01       		.uleb128 0x1
 4792 11c4 51       		.byte	0x51
 4793 11c5 02       		.uleb128 0x2
 4794 11c6 08       		.byte	0x8
 4795 11c7 49       		.byte	0x49
 4796 11c8 00       		.byte	0
 4797 11c9 1A       		.uleb128 0x1a
 4798 11ca 4A000000 		.4byte	.LVL100
 4799 11ce 08200000 		.4byte	0x2008
 4800 11d2 E3110000 		.4byte	0x11e3
 4801 11d6 13       		.uleb128 0x13
 4802 11d7 01       		.uleb128 0x1
 4803 11d8 50       		.byte	0x50
 4804 11d9 02       		.uleb128 0x2
 4805 11da 74       		.byte	0x74
 4806 11db 00       		.sleb128 0
 4807 11dc 13       		.uleb128 0x13
 4808 11dd 01       		.uleb128 0x1
 4809 11de 51       		.byte	0x51
 4810 11df 02       		.uleb128 0x2
 4811 11e0 08       		.byte	0x8
 4812 11e1 40       		.byte	0x40
 4813 11e2 00       		.byte	0
 4814 11e3 1A       		.uleb128 0x1a
 4815 11e4 88000000 		.4byte	.LVL105
 4816 11e8 08200000 		.4byte	0x2008
 4817 11ec 08120000 		.4byte	0x1208
 4818 11f0 13       		.uleb128 0x13
 4819 11f1 01       		.uleb128 0x1
 4820 11f2 50       		.byte	0x50
 4821 11f3 02       		.uleb128 0x2
 4822 11f4 74       		.byte	0x74
 4823 11f5 00       		.sleb128 0
 4824 11f6 13       		.uleb128 0x13
 4825 11f7 01       		.uleb128 0x1
 4826 11f8 51       		.byte	0x51
 4827 11f9 02       		.uleb128 0x2
 4828 11fa 08       		.byte	0x8
 4829 11fb 41       		.byte	0x41
 4830 11fc 13       		.uleb128 0x13
 4831 11fd 01       		.uleb128 0x1
 4832 11fe 52       		.byte	0x52
 4833 11ff 07       		.uleb128 0x7
 4834 1200 76       		.byte	0x76
 4835 1201 00       		.sleb128 0
 4836 1202 09       		.byte	0x9
ARM GAS  C:\Users\info\AppData\Local\Temp\ccAWUQ53.s 			page 103


 4837 1203 FC       		.byte	0xfc
 4838 1204 24       		.byte	0x24
 4839 1205 33       		.byte	0x33
 4840 1206 25       		.byte	0x25
 4841 1207 00       		.byte	0
 4842 1208 1A       		.uleb128 0x1a
 4843 1209 94000000 		.4byte	.LVL106
 4844 120d 08200000 		.4byte	0x2008
 4845 1211 28120000 		.4byte	0x1228
 4846 1215 13       		.uleb128 0x13
 4847 1216 01       		.uleb128 0x1
 4848 1217 50       		.byte	0x50
 4849 1218 02       		.uleb128 0x2
 4850 1219 74       		.byte	0x74
 4851 121a 00       		.sleb128 0
 4852 121b 13       		.uleb128 0x13
 4853 121c 01       		.uleb128 0x1
 4854 121d 51       		.byte	0x51
 4855 121e 02       		.uleb128 0x2
 4856 121f 08       		.byte	0x8
 4857 1220 40       		.byte	0x40
 4858 1221 13       		.uleb128 0x13
 4859 1222 01       		.uleb128 0x1
 4860 1223 52       		.byte	0x52
 4861 1224 02       		.uleb128 0x2
 4862 1225 78       		.byte	0x78
 4863 1226 00       		.sleb128 0
 4864 1227 00       		.byte	0
 4865 1228 1A       		.uleb128 0x1a
 4866 1229 A0000000 		.4byte	.LVL107
 4867 122d 08200000 		.4byte	0x2008
 4868 1231 42120000 		.4byte	0x1242
 4869 1235 13       		.uleb128 0x13
 4870 1236 01       		.uleb128 0x1
 4871 1237 50       		.byte	0x50
 4872 1238 02       		.uleb128 0x2
 4873 1239 74       		.byte	0x74
 4874 123a 00       		.sleb128 0
 4875 123b 13       		.uleb128 0x13
 4876 123c 01       		.uleb128 0x1
 4877 123d 51       		.byte	0x51
 4878 123e 02       		.uleb128 0x2
 4879 123f 08       		.byte	0x8
 4880 1240 2C       		.byte	0x2c
 4881 1241 00       		.byte	0
 4882 1242 1A       		.uleb128 0x1a
 4883 1243 AA000000 		.4byte	.LVL108
 4884 1247 08200000 		.4byte	0x2008
 4885 124b 62120000 		.4byte	0x1262
 4886 124f 13       		.uleb128 0x13
 4887 1250 01       		.uleb128 0x1
 4888 1251 50       		.byte	0x50
 4889 1252 02       		.uleb128 0x2
 4890 1253 74       		.byte	0x74
 4891 1254 00       		.sleb128 0
 4892 1255 13       		.uleb128 0x13
 4893 1256 01       		.uleb128 0x1
ARM GAS  C:\Users\info\AppData\Local\Temp\ccAWUQ53.s 			page 104


 4894 1257 51       		.byte	0x51
 4895 1258 02       		.uleb128 0x2
 4896 1259 08       		.byte	0x8
 4897 125a 40       		.byte	0x40
 4898 125b 13       		.uleb128 0x13
 4899 125c 01       		.uleb128 0x1
 4900 125d 52       		.byte	0x52
 4901 125e 02       		.uleb128 0x2
 4902 125f 77       		.byte	0x77
 4903 1260 00       		.sleb128 0
 4904 1261 00       		.byte	0
 4905 1262 1A       		.uleb128 0x1a
 4906 1263 B6000000 		.4byte	.LVL109
 4907 1267 08200000 		.4byte	0x2008
 4908 126b 7C120000 		.4byte	0x127c
 4909 126f 13       		.uleb128 0x13
 4910 1270 01       		.uleb128 0x1
 4911 1271 50       		.byte	0x50
 4912 1272 02       		.uleb128 0x2
 4913 1273 74       		.byte	0x74
 4914 1274 00       		.sleb128 0
 4915 1275 13       		.uleb128 0x13
 4916 1276 01       		.uleb128 0x1
 4917 1277 51       		.byte	0x51
 4918 1278 02       		.uleb128 0x2
 4919 1279 08       		.byte	0x8
 4920 127a 2C       		.byte	0x2c
 4921 127b 00       		.byte	0
 4922 127c 1A       		.uleb128 0x1a
 4923 127d D6000000 		.4byte	.LVL114
 4924 1281 08200000 		.4byte	0x2008
 4925 1285 96120000 		.4byte	0x1296
 4926 1289 13       		.uleb128 0x13
 4927 128a 01       		.uleb128 0x1
 4928 128b 50       		.byte	0x50
 4929 128c 02       		.uleb128 0x2
 4930 128d 74       		.byte	0x74
 4931 128e 00       		.sleb128 0
 4932 128f 13       		.uleb128 0x13
 4933 1290 01       		.uleb128 0x1
 4934 1291 51       		.byte	0x51
 4935 1292 02       		.uleb128 0x2
 4936 1293 08       		.byte	0x8
 4937 1294 49       		.byte	0x49
 4938 1295 00       		.byte	0
 4939 1296 25       		.uleb128 0x25
 4940 1297 E4000000 		.4byte	.LVL115
 4941 129b 02       		.uleb128 0x2
 4942 129c 75       		.byte	0x75
 4943 129d 00       		.sleb128 0
 4944 129e B4120000 		.4byte	0x12b4
 4945 12a2 13       		.uleb128 0x13
 4946 12a3 01       		.uleb128 0x1
 4947 12a4 50       		.byte	0x50
 4948 12a5 02       		.uleb128 0x2
 4949 12a6 74       		.byte	0x74
 4950 12a7 00       		.sleb128 0
ARM GAS  C:\Users\info\AppData\Local\Temp\ccAWUQ53.s 			page 105


 4951 12a8 13       		.uleb128 0x13
 4952 12a9 01       		.uleb128 0x1
 4953 12aa 51       		.byte	0x51
 4954 12ab 02       		.uleb128 0x2
 4955 12ac 08       		.byte	0x8
 4956 12ad 2C       		.byte	0x2c
 4957 12ae 13       		.uleb128 0x13
 4958 12af 01       		.uleb128 0x1
 4959 12b0 53       		.byte	0x53
 4960 12b1 01       		.uleb128 0x1
 4961 12b2 30       		.byte	0x30
 4962 12b3 00       		.byte	0
 4963 12b4 25       		.uleb128 0x25
 4964 12b5 F6000000 		.4byte	.LVL119
 4965 12b9 02       		.uleb128 0x2
 4966 12ba 75       		.byte	0x75
 4967 12bb 00       		.sleb128 0
 4968 12bc D2120000 		.4byte	0x12d2
 4969 12c0 13       		.uleb128 0x13
 4970 12c1 01       		.uleb128 0x1
 4971 12c2 50       		.byte	0x50
 4972 12c3 02       		.uleb128 0x2
 4973 12c4 74       		.byte	0x74
 4974 12c5 00       		.sleb128 0
 4975 12c6 13       		.uleb128 0x13
 4976 12c7 01       		.uleb128 0x1
 4977 12c8 51       		.byte	0x51
 4978 12c9 02       		.uleb128 0x2
 4979 12ca 08       		.byte	0x8
 4980 12cb 2C       		.byte	0x2c
 4981 12cc 13       		.uleb128 0x13
 4982 12cd 01       		.uleb128 0x1
 4983 12ce 53       		.byte	0x53
 4984 12cf 01       		.uleb128 0x1
 4985 12d0 30       		.byte	0x30
 4986 12d1 00       		.byte	0
 4987 12d2 19       		.uleb128 0x19
 4988 12d3 02010000 		.4byte	.LVL120
 4989 12d7 08200000 		.4byte	0x2008
 4990 12db 13       		.uleb128 0x13
 4991 12dc 01       		.uleb128 0x1
 4992 12dd 50       		.byte	0x50
 4993 12de 02       		.uleb128 0x2
 4994 12df 74       		.byte	0x74
 4995 12e0 00       		.sleb128 0
 4996 12e1 13       		.uleb128 0x13
 4997 12e2 01       		.uleb128 0x1
 4998 12e3 51       		.byte	0x51
 4999 12e4 02       		.uleb128 0x2
 5000 12e5 08       		.byte	0x8
 5001 12e6 49       		.byte	0x49
 5002 12e7 00       		.byte	0
 5003 12e8 00       		.byte	0
 5004 12e9 1D       		.uleb128 0x1d
 5005 12ea D5010000 		.4byte	.LASF83
 5006 12ee 01       		.byte	0x1
 5007 12ef A6       		.byte	0xa6
ARM GAS  C:\Users\info\AppData\Local\Temp\ccAWUQ53.s 			page 106


 5008 12f0 8C000000 		.4byte	0x8c
 5009 12f4 00000000 		.4byte	.LFB7
 5010 12f8 EE000000 		.4byte	.LFE7-.LFB7
 5011 12fc 01       		.uleb128 0x1
 5012 12fd 9C       		.byte	0x9c
 5013 12fe AF140000 		.4byte	0x14af
 5014 1302 1E       		.uleb128 0x1e
 5015 1303 FE030000 		.4byte	.LASF63
 5016 1307 01       		.byte	0x1
 5017 1308 A6       		.byte	0xa6
 5018 1309 07030000 		.4byte	0x307
 5019 130d 97090000 		.4byte	.LLST74
 5020 1311 1F       		.uleb128 0x1f
 5021 1312 6D736700 		.ascii	"msg\000"
 5022 1316 01       		.byte	0x1
 5023 1317 A6       		.byte	0xa6
 5024 1318 8C000000 		.4byte	0x8c
 5025 131c 230A0000 		.4byte	.LLST75
 5026 1320 1E       		.uleb128 0x1e
 5027 1321 34020000 		.4byte	.LASF78
 5028 1325 01       		.byte	0x1
 5029 1326 A6       		.byte	0xa6
 5030 1327 8C000000 		.4byte	0x8c
 5031 132b 440A0000 		.4byte	.LLST76
 5032 132f 1E       		.uleb128 0x1e
 5033 1330 EA050000 		.4byte	.LASF79
 5034 1334 01       		.byte	0x1
 5035 1335 A6       		.byte	0xa6
 5036 1336 AD000000 		.4byte	0xad
 5037 133a C60A0000 		.4byte	.LLST77
 5038 133e 23       		.uleb128 0x23
 5039 133f 6900     		.ascii	"i\000"
 5040 1341 01       		.byte	0x1
 5041 1342 A8       		.byte	0xa8
 5042 1343 8C000000 		.4byte	0x8c
 5043 1347 FD0A0000 		.4byte	.LLST78
 5044 134b 23       		.uleb128 0x23
 5045 134c 6200     		.ascii	"b\000"
 5046 134e 01       		.byte	0x1
 5047 134f A8       		.byte	0xa8
 5048 1350 8C000000 		.4byte	0x8c
 5049 1354 280B0000 		.4byte	.LLST79
 5050 1358 24       		.uleb128 0x24
 5051 1359 9B020000 		.4byte	.LASF72
 5052 135d 01       		.byte	0x1
 5053 135e A9       		.byte	0xa9
 5054 135f 32030000 		.4byte	0x332
 5055 1363 3B0B0000 		.4byte	.LLST80
 5056 1367 1A       		.uleb128 0x1a
 5057 1368 26000000 		.4byte	.LVL125
 5058 136c 08200000 		.4byte	0x2008
 5059 1370 7B130000 		.4byte	0x137b
 5060 1374 13       		.uleb128 0x13
 5061 1375 01       		.uleb128 0x1
 5062 1376 51       		.byte	0x51
 5063 1377 02       		.uleb128 0x2
 5064 1378 08       		.byte	0x8
ARM GAS  C:\Users\info\AppData\Local\Temp\ccAWUQ53.s 			page 107


 5065 1379 4A       		.byte	0x4a
 5066 137a 00       		.byte	0
 5067 137b 1A       		.uleb128 0x1a
 5068 137c 36000000 		.4byte	.LVL128
 5069 1380 08200000 		.4byte	0x2008
 5070 1384 95130000 		.4byte	0x1395
 5071 1388 13       		.uleb128 0x13
 5072 1389 01       		.uleb128 0x1
 5073 138a 50       		.byte	0x50
 5074 138b 02       		.uleb128 0x2
 5075 138c 76       		.byte	0x76
 5076 138d 00       		.sleb128 0
 5077 138e 13       		.uleb128 0x13
 5078 138f 01       		.uleb128 0x1
 5079 1390 51       		.byte	0x51
 5080 1391 02       		.uleb128 0x2
 5081 1392 08       		.byte	0x8
 5082 1393 49       		.byte	0x49
 5083 1394 00       		.byte	0
 5084 1395 1A       		.uleb128 0x1a
 5085 1396 40000000 		.4byte	.LVL129
 5086 139a 08200000 		.4byte	0x2008
 5087 139e B4130000 		.4byte	0x13b4
 5088 13a2 13       		.uleb128 0x13
 5089 13a3 01       		.uleb128 0x1
 5090 13a4 50       		.byte	0x50
 5091 13a5 02       		.uleb128 0x2
 5092 13a6 76       		.byte	0x76
 5093 13a7 00       		.sleb128 0
 5094 13a8 13       		.uleb128 0x13
 5095 13a9 01       		.uleb128 0x1
 5096 13aa 51       		.byte	0x51
 5097 13ab 02       		.uleb128 0x2
 5098 13ac 08       		.byte	0x8
 5099 13ad 48       		.byte	0x48
 5100 13ae 13       		.uleb128 0x13
 5101 13af 01       		.uleb128 0x1
 5102 13b0 52       		.byte	0x52
 5103 13b1 01       		.uleb128 0x1
 5104 13b2 30       		.byte	0x30
 5105 13b3 00       		.byte	0
 5106 13b4 1A       		.uleb128 0x1a
 5107 13b5 6E000000 		.4byte	.LVL135
 5108 13b9 08200000 		.4byte	0x2008
 5109 13bd D0130000 		.4byte	0x13d0
 5110 13c1 13       		.uleb128 0x13
 5111 13c2 01       		.uleb128 0x1
 5112 13c3 50       		.byte	0x50
 5113 13c4 02       		.uleb128 0x2
 5114 13c5 76       		.byte	0x76
 5115 13c6 00       		.sleb128 0
 5116 13c7 13       		.uleb128 0x13
 5117 13c8 01       		.uleb128 0x1
 5118 13c9 52       		.byte	0x52
 5119 13ca 04       		.uleb128 0x4
 5120 13cb 75       		.byte	0x75
 5121 13cc 00       		.sleb128 0
ARM GAS  C:\Users\info\AppData\Local\Temp\ccAWUQ53.s 			page 108


 5122 13cd 31       		.byte	0x31
 5123 13ce 1A       		.byte	0x1a
 5124 13cf 00       		.byte	0
 5125 13d0 1A       		.uleb128 0x1a
 5126 13d1 82000000 		.4byte	.LVL137
 5127 13d5 08200000 		.4byte	0x2008
 5128 13d9 EA130000 		.4byte	0x13ea
 5129 13dd 13       		.uleb128 0x13
 5130 13de 01       		.uleb128 0x1
 5131 13df 50       		.byte	0x50
 5132 13e0 02       		.uleb128 0x2
 5133 13e1 76       		.byte	0x76
 5134 13e2 00       		.sleb128 0
 5135 13e3 13       		.uleb128 0x13
 5136 13e4 01       		.uleb128 0x1
 5137 13e5 51       		.byte	0x51
 5138 13e6 02       		.uleb128 0x2
 5139 13e7 08       		.byte	0x8
 5140 13e8 2C       		.byte	0x2c
 5141 13e9 00       		.byte	0
 5142 13ea 1A       		.uleb128 0x1a
 5143 13eb 8C000000 		.4byte	.LVL138
 5144 13ef 08200000 		.4byte	0x2008
 5145 13f3 09140000 		.4byte	0x1409
 5146 13f7 13       		.uleb128 0x13
 5147 13f8 01       		.uleb128 0x1
 5148 13f9 50       		.byte	0x50
 5149 13fa 02       		.uleb128 0x2
 5150 13fb 76       		.byte	0x76
 5151 13fc 00       		.sleb128 0
 5152 13fd 13       		.uleb128 0x13
 5153 13fe 01       		.uleb128 0x1
 5154 13ff 51       		.byte	0x51
 5155 1400 02       		.uleb128 0x2
 5156 1401 74       		.byte	0x74
 5157 1402 00       		.sleb128 0
 5158 1403 13       		.uleb128 0x13
 5159 1404 01       		.uleb128 0x1
 5160 1405 52       		.byte	0x52
 5161 1406 01       		.uleb128 0x1
 5162 1407 31       		.byte	0x31
 5163 1408 00       		.byte	0
 5164 1409 1A       		.uleb128 0x1a
 5165 140a 98000000 		.4byte	.LVL139
 5166 140e 08200000 		.4byte	0x2008
 5167 1412 23140000 		.4byte	0x1423
 5168 1416 13       		.uleb128 0x13
 5169 1417 01       		.uleb128 0x1
 5170 1418 50       		.byte	0x50
 5171 1419 02       		.uleb128 0x2
 5172 141a 76       		.byte	0x76
 5173 141b 00       		.sleb128 0
 5174 141c 13       		.uleb128 0x13
 5175 141d 01       		.uleb128 0x1
 5176 141e 51       		.byte	0x51
 5177 141f 02       		.uleb128 0x2
 5178 1420 08       		.byte	0x8
ARM GAS  C:\Users\info\AppData\Local\Temp\ccAWUQ53.s 			page 109


 5179 1421 2C       		.byte	0x2c
 5180 1422 00       		.byte	0
 5181 1423 1A       		.uleb128 0x1a
 5182 1424 A2000000 		.4byte	.LVL140
 5183 1428 08200000 		.4byte	0x2008
 5184 142c 42140000 		.4byte	0x1442
 5185 1430 13       		.uleb128 0x13
 5186 1431 01       		.uleb128 0x1
 5187 1432 50       		.byte	0x50
 5188 1433 02       		.uleb128 0x2
 5189 1434 76       		.byte	0x76
 5190 1435 00       		.sleb128 0
 5191 1436 13       		.uleb128 0x13
 5192 1437 01       		.uleb128 0x1
 5193 1438 51       		.byte	0x51
 5194 1439 02       		.uleb128 0x2
 5195 143a 74       		.byte	0x74
 5196 143b 00       		.sleb128 0
 5197 143c 13       		.uleb128 0x13
 5198 143d 01       		.uleb128 0x1
 5199 143e 52       		.byte	0x52
 5200 143f 01       		.uleb128 0x1
 5201 1440 30       		.byte	0x30
 5202 1441 00       		.byte	0
 5203 1442 1A       		.uleb128 0x1a
 5204 1443 B6000000 		.4byte	.LVL143
 5205 1447 08200000 		.4byte	0x2008
 5206 144b 5C140000 		.4byte	0x145c
 5207 144f 13       		.uleb128 0x13
 5208 1450 01       		.uleb128 0x1
 5209 1451 50       		.byte	0x50
 5210 1452 02       		.uleb128 0x2
 5211 1453 76       		.byte	0x76
 5212 1454 00       		.sleb128 0
 5213 1455 13       		.uleb128 0x13
 5214 1456 01       		.uleb128 0x1
 5215 1457 51       		.byte	0x51
 5216 1458 02       		.uleb128 0x2
 5217 1459 08       		.byte	0x8
 5218 145a 49       		.byte	0x49
 5219 145b 00       		.byte	0
 5220 145c 25       		.uleb128 0x25
 5221 145d C4000000 		.4byte	.LVL144
 5222 1461 02       		.uleb128 0x2
 5223 1462 74       		.byte	0x74
 5224 1463 00       		.sleb128 0
 5225 1464 7A140000 		.4byte	0x147a
 5226 1468 13       		.uleb128 0x13
 5227 1469 01       		.uleb128 0x1
 5228 146a 50       		.byte	0x50
 5229 146b 02       		.uleb128 0x2
 5230 146c 76       		.byte	0x76
 5231 146d 00       		.sleb128 0
 5232 146e 13       		.uleb128 0x13
 5233 146f 01       		.uleb128 0x1
 5234 1470 51       		.byte	0x51
 5235 1471 02       		.uleb128 0x2
ARM GAS  C:\Users\info\AppData\Local\Temp\ccAWUQ53.s 			page 110


 5236 1472 08       		.byte	0x8
 5237 1473 2C       		.byte	0x2c
 5238 1474 13       		.uleb128 0x13
 5239 1475 01       		.uleb128 0x1
 5240 1476 53       		.byte	0x53
 5241 1477 01       		.uleb128 0x1
 5242 1478 30       		.byte	0x30
 5243 1479 00       		.byte	0
 5244 147a 25       		.uleb128 0x25
 5245 147b D6000000 		.4byte	.LVL147
 5246 147f 02       		.uleb128 0x2
 5247 1480 74       		.byte	0x74
 5248 1481 00       		.sleb128 0
 5249 1482 98140000 		.4byte	0x1498
 5250 1486 13       		.uleb128 0x13
 5251 1487 01       		.uleb128 0x1
 5252 1488 50       		.byte	0x50
 5253 1489 02       		.uleb128 0x2
 5254 148a 76       		.byte	0x76
 5255 148b 00       		.sleb128 0
 5256 148c 13       		.uleb128 0x13
 5257 148d 01       		.uleb128 0x1
 5258 148e 51       		.byte	0x51
 5259 148f 02       		.uleb128 0x2
 5260 1490 08       		.byte	0x8
 5261 1491 2C       		.byte	0x2c
 5262 1492 13       		.uleb128 0x13
 5263 1493 01       		.uleb128 0x1
 5264 1494 53       		.byte	0x53
 5265 1495 01       		.uleb128 0x1
 5266 1496 30       		.byte	0x30
 5267 1497 00       		.byte	0
 5268 1498 19       		.uleb128 0x19
 5269 1499 E2000000 		.4byte	.LVL148
 5270 149d 08200000 		.4byte	0x2008
 5271 14a1 13       		.uleb128 0x13
 5272 14a2 01       		.uleb128 0x1
 5273 14a3 50       		.byte	0x50
 5274 14a4 02       		.uleb128 0x2
 5275 14a5 76       		.byte	0x76
 5276 14a6 00       		.sleb128 0
 5277 14a7 13       		.uleb128 0x13
 5278 14a8 01       		.uleb128 0x1
 5279 14a9 51       		.byte	0x51
 5280 14aa 02       		.uleb128 0x2
 5281 14ab 08       		.byte	0x8
 5282 14ac 49       		.byte	0x49
 5283 14ad 00       		.byte	0
 5284 14ae 00       		.byte	0
 5285 14af 1D       		.uleb128 0x1d
 5286 14b0 C7000000 		.4byte	.LASF84
 5287 14b4 01       		.byte	0x1
 5288 14b5 D8       		.byte	0xd8
 5289 14b6 8C000000 		.4byte	0x8c
 5290 14ba 00000000 		.4byte	.LFB8
 5291 14be EE000000 		.4byte	.LFE8-.LFB8
 5292 14c2 01       		.uleb128 0x1
ARM GAS  C:\Users\info\AppData\Local\Temp\ccAWUQ53.s 			page 111


 5293 14c3 9C       		.byte	0x9c
 5294 14c4 75160000 		.4byte	0x1675
 5295 14c8 1E       		.uleb128 0x1e
 5296 14c9 FE030000 		.4byte	.LASF63
 5297 14cd 01       		.byte	0x1
 5298 14ce D8       		.byte	0xd8
 5299 14cf 07030000 		.4byte	0x307
 5300 14d3 4E0B0000 		.4byte	.LLST81
 5301 14d7 1F       		.uleb128 0x1f
 5302 14d8 6D736700 		.ascii	"msg\000"
 5303 14dc 01       		.byte	0x1
 5304 14dd D8       		.byte	0xd8
 5305 14de 8C000000 		.4byte	0x8c
 5306 14e2 DA0B0000 		.4byte	.LLST82
 5307 14e6 1E       		.uleb128 0x1e
 5308 14e7 34020000 		.4byte	.LASF78
 5309 14eb 01       		.byte	0x1
 5310 14ec D8       		.byte	0xd8
 5311 14ed 8C000000 		.4byte	0x8c
 5312 14f1 FB0B0000 		.4byte	.LLST83
 5313 14f5 1E       		.uleb128 0x1e
 5314 14f6 EA050000 		.4byte	.LASF79
 5315 14fa 01       		.byte	0x1
 5316 14fb D8       		.byte	0xd8
 5317 14fc AD000000 		.4byte	0xad
 5318 1500 7D0C0000 		.4byte	.LLST84
 5319 1504 23       		.uleb128 0x23
 5320 1505 6900     		.ascii	"i\000"
 5321 1507 01       		.byte	0x1
 5322 1508 DA       		.byte	0xda
 5323 1509 8C000000 		.4byte	0x8c
 5324 150d B40C0000 		.4byte	.LLST85
 5325 1511 23       		.uleb128 0x23
 5326 1512 6200     		.ascii	"b\000"
 5327 1514 01       		.byte	0x1
 5328 1515 DA       		.byte	0xda
 5329 1516 8C000000 		.4byte	0x8c
 5330 151a DF0C0000 		.4byte	.LLST86
 5331 151e 24       		.uleb128 0x24
 5332 151f 9B020000 		.4byte	.LASF72
 5333 1523 01       		.byte	0x1
 5334 1524 DB       		.byte	0xdb
 5335 1525 32030000 		.4byte	0x332
 5336 1529 F20C0000 		.4byte	.LLST87
 5337 152d 1A       		.uleb128 0x1a
 5338 152e 26000000 		.4byte	.LVL154
 5339 1532 08200000 		.4byte	0x2008
 5340 1536 41150000 		.4byte	0x1541
 5341 153a 13       		.uleb128 0x13
 5342 153b 01       		.uleb128 0x1
 5343 153c 51       		.byte	0x51
 5344 153d 02       		.uleb128 0x2
 5345 153e 08       		.byte	0x8
 5346 153f 4A       		.byte	0x4a
 5347 1540 00       		.byte	0
 5348 1541 1A       		.uleb128 0x1a
 5349 1542 36000000 		.4byte	.LVL157
ARM GAS  C:\Users\info\AppData\Local\Temp\ccAWUQ53.s 			page 112


 5350 1546 08200000 		.4byte	0x2008
 5351 154a 5B150000 		.4byte	0x155b
 5352 154e 13       		.uleb128 0x13
 5353 154f 01       		.uleb128 0x1
 5354 1550 50       		.byte	0x50
 5355 1551 02       		.uleb128 0x2
 5356 1552 76       		.byte	0x76
 5357 1553 00       		.sleb128 0
 5358 1554 13       		.uleb128 0x13
 5359 1555 01       		.uleb128 0x1
 5360 1556 51       		.byte	0x51
 5361 1557 02       		.uleb128 0x2
 5362 1558 08       		.byte	0x8
 5363 1559 49       		.byte	0x49
 5364 155a 00       		.byte	0
 5365 155b 1A       		.uleb128 0x1a
 5366 155c 40000000 		.4byte	.LVL158
 5367 1560 08200000 		.4byte	0x2008
 5368 1564 7A150000 		.4byte	0x157a
 5369 1568 13       		.uleb128 0x13
 5370 1569 01       		.uleb128 0x1
 5371 156a 50       		.byte	0x50
 5372 156b 02       		.uleb128 0x2
 5373 156c 76       		.byte	0x76
 5374 156d 00       		.sleb128 0
 5375 156e 13       		.uleb128 0x13
 5376 156f 01       		.uleb128 0x1
 5377 1570 51       		.byte	0x51
 5378 1571 02       		.uleb128 0x2
 5379 1572 08       		.byte	0x8
 5380 1573 48       		.byte	0x48
 5381 1574 13       		.uleb128 0x13
 5382 1575 01       		.uleb128 0x1
 5383 1576 52       		.byte	0x52
 5384 1577 01       		.uleb128 0x1
 5385 1578 31       		.byte	0x31
 5386 1579 00       		.byte	0
 5387 157a 1A       		.uleb128 0x1a
 5388 157b 6E000000 		.4byte	.LVL164
 5389 157f 08200000 		.4byte	0x2008
 5390 1583 96150000 		.4byte	0x1596
 5391 1587 13       		.uleb128 0x13
 5392 1588 01       		.uleb128 0x1
 5393 1589 50       		.byte	0x50
 5394 158a 02       		.uleb128 0x2
 5395 158b 76       		.byte	0x76
 5396 158c 00       		.sleb128 0
 5397 158d 13       		.uleb128 0x13
 5398 158e 01       		.uleb128 0x1
 5399 158f 52       		.byte	0x52
 5400 1590 04       		.uleb128 0x4
 5401 1591 75       		.byte	0x75
 5402 1592 00       		.sleb128 0
 5403 1593 31       		.byte	0x31
 5404 1594 1A       		.byte	0x1a
 5405 1595 00       		.byte	0
 5406 1596 1A       		.uleb128 0x1a
ARM GAS  C:\Users\info\AppData\Local\Temp\ccAWUQ53.s 			page 113


 5407 1597 82000000 		.4byte	.LVL166
 5408 159b 08200000 		.4byte	0x2008
 5409 159f B0150000 		.4byte	0x15b0
 5410 15a3 13       		.uleb128 0x13
 5411 15a4 01       		.uleb128 0x1
 5412 15a5 50       		.byte	0x50
 5413 15a6 02       		.uleb128 0x2
 5414 15a7 76       		.byte	0x76
 5415 15a8 00       		.sleb128 0
 5416 15a9 13       		.uleb128 0x13
 5417 15aa 01       		.uleb128 0x1
 5418 15ab 51       		.byte	0x51
 5419 15ac 02       		.uleb128 0x2
 5420 15ad 08       		.byte	0x8
 5421 15ae 2C       		.byte	0x2c
 5422 15af 00       		.byte	0
 5423 15b0 1A       		.uleb128 0x1a
 5424 15b1 8C000000 		.4byte	.LVL167
 5425 15b5 08200000 		.4byte	0x2008
 5426 15b9 CF150000 		.4byte	0x15cf
 5427 15bd 13       		.uleb128 0x13
 5428 15be 01       		.uleb128 0x1
 5429 15bf 50       		.byte	0x50
 5430 15c0 02       		.uleb128 0x2
 5431 15c1 76       		.byte	0x76
 5432 15c2 00       		.sleb128 0
 5433 15c3 13       		.uleb128 0x13
 5434 15c4 01       		.uleb128 0x1
 5435 15c5 51       		.byte	0x51
 5436 15c6 02       		.uleb128 0x2
 5437 15c7 74       		.byte	0x74
 5438 15c8 00       		.sleb128 0
 5439 15c9 13       		.uleb128 0x13
 5440 15ca 01       		.uleb128 0x1
 5441 15cb 52       		.byte	0x52
 5442 15cc 01       		.uleb128 0x1
 5443 15cd 30       		.byte	0x30
 5444 15ce 00       		.byte	0
 5445 15cf 1A       		.uleb128 0x1a
 5446 15d0 98000000 		.4byte	.LVL168
 5447 15d4 08200000 		.4byte	0x2008
 5448 15d8 E9150000 		.4byte	0x15e9
 5449 15dc 13       		.uleb128 0x13
 5450 15dd 01       		.uleb128 0x1
 5451 15de 50       		.byte	0x50
 5452 15df 02       		.uleb128 0x2
 5453 15e0 76       		.byte	0x76
 5454 15e1 00       		.sleb128 0
 5455 15e2 13       		.uleb128 0x13
 5456 15e3 01       		.uleb128 0x1
 5457 15e4 51       		.byte	0x51
 5458 15e5 02       		.uleb128 0x2
 5459 15e6 08       		.byte	0x8
 5460 15e7 2C       		.byte	0x2c
 5461 15e8 00       		.byte	0
 5462 15e9 1A       		.uleb128 0x1a
 5463 15ea A2000000 		.4byte	.LVL169
ARM GAS  C:\Users\info\AppData\Local\Temp\ccAWUQ53.s 			page 114


 5464 15ee 08200000 		.4byte	0x2008
 5465 15f2 08160000 		.4byte	0x1608
 5466 15f6 13       		.uleb128 0x13
 5467 15f7 01       		.uleb128 0x1
 5468 15f8 50       		.byte	0x50
 5469 15f9 02       		.uleb128 0x2
 5470 15fa 76       		.byte	0x76
 5471 15fb 00       		.sleb128 0
 5472 15fc 13       		.uleb128 0x13
 5473 15fd 01       		.uleb128 0x1
 5474 15fe 51       		.byte	0x51
 5475 15ff 02       		.uleb128 0x2
 5476 1600 74       		.byte	0x74
 5477 1601 00       		.sleb128 0
 5478 1602 13       		.uleb128 0x13
 5479 1603 01       		.uleb128 0x1
 5480 1604 52       		.byte	0x52
 5481 1605 01       		.uleb128 0x1
 5482 1606 31       		.byte	0x31
 5483 1607 00       		.byte	0
 5484 1608 1A       		.uleb128 0x1a
 5485 1609 B6000000 		.4byte	.LVL172
 5486 160d 08200000 		.4byte	0x2008
 5487 1611 22160000 		.4byte	0x1622
 5488 1615 13       		.uleb128 0x13
 5489 1616 01       		.uleb128 0x1
 5490 1617 50       		.byte	0x50
 5491 1618 02       		.uleb128 0x2
 5492 1619 76       		.byte	0x76
 5493 161a 00       		.sleb128 0
 5494 161b 13       		.uleb128 0x13
 5495 161c 01       		.uleb128 0x1
 5496 161d 51       		.byte	0x51
 5497 161e 02       		.uleb128 0x2
 5498 161f 08       		.byte	0x8
 5499 1620 49       		.byte	0x49
 5500 1621 00       		.byte	0
 5501 1622 25       		.uleb128 0x25
 5502 1623 C4000000 		.4byte	.LVL173
 5503 1627 02       		.uleb128 0x2
 5504 1628 74       		.byte	0x74
 5505 1629 00       		.sleb128 0
 5506 162a 40160000 		.4byte	0x1640
 5507 162e 13       		.uleb128 0x13
 5508 162f 01       		.uleb128 0x1
 5509 1630 50       		.byte	0x50
 5510 1631 02       		.uleb128 0x2
 5511 1632 76       		.byte	0x76
 5512 1633 00       		.sleb128 0
 5513 1634 13       		.uleb128 0x13
 5514 1635 01       		.uleb128 0x1
 5515 1636 51       		.byte	0x51
 5516 1637 02       		.uleb128 0x2
 5517 1638 08       		.byte	0x8
 5518 1639 2C       		.byte	0x2c
 5519 163a 13       		.uleb128 0x13
 5520 163b 01       		.uleb128 0x1
ARM GAS  C:\Users\info\AppData\Local\Temp\ccAWUQ53.s 			page 115


 5521 163c 53       		.byte	0x53
 5522 163d 01       		.uleb128 0x1
 5523 163e 30       		.byte	0x30
 5524 163f 00       		.byte	0
 5525 1640 25       		.uleb128 0x25
 5526 1641 D6000000 		.4byte	.LVL176
 5527 1645 02       		.uleb128 0x2
 5528 1646 74       		.byte	0x74
 5529 1647 00       		.sleb128 0
 5530 1648 5E160000 		.4byte	0x165e
 5531 164c 13       		.uleb128 0x13
 5532 164d 01       		.uleb128 0x1
 5533 164e 50       		.byte	0x50
 5534 164f 02       		.uleb128 0x2
 5535 1650 76       		.byte	0x76
 5536 1651 00       		.sleb128 0
 5537 1652 13       		.uleb128 0x13
 5538 1653 01       		.uleb128 0x1
 5539 1654 51       		.byte	0x51
 5540 1655 02       		.uleb128 0x2
 5541 1656 08       		.byte	0x8
 5542 1657 2C       		.byte	0x2c
 5543 1658 13       		.uleb128 0x13
 5544 1659 01       		.uleb128 0x1
 5545 165a 53       		.byte	0x53
 5546 165b 01       		.uleb128 0x1
 5547 165c 30       		.byte	0x30
 5548 165d 00       		.byte	0
 5549 165e 19       		.uleb128 0x19
 5550 165f E2000000 		.4byte	.LVL177
 5551 1663 08200000 		.4byte	0x2008
 5552 1667 13       		.uleb128 0x13
 5553 1668 01       		.uleb128 0x1
 5554 1669 50       		.byte	0x50
 5555 166a 02       		.uleb128 0x2
 5556 166b 76       		.byte	0x76
 5557 166c 00       		.sleb128 0
 5558 166d 13       		.uleb128 0x13
 5559 166e 01       		.uleb128 0x1
 5560 166f 51       		.byte	0x51
 5561 1670 02       		.uleb128 0x2
 5562 1671 08       		.byte	0x8
 5563 1672 49       		.byte	0x49
 5564 1673 00       		.byte	0
 5565 1674 00       		.byte	0
 5566 1675 26       		.uleb128 0x26
 5567 1676 40030000 		.4byte	.LASF85
 5568 167a 01       		.byte	0x1
 5569 167b 0C01     		.2byte	0x10c
 5570 167d 8C000000 		.4byte	0x8c
 5571 1681 00000000 		.4byte	.LFB9
 5572 1685 1C010000 		.4byte	.LFE9-.LFB9
 5573 1689 01       		.uleb128 0x1
 5574 168a 9C       		.byte	0x9c
 5575 168b 56180000 		.4byte	0x1856
 5576 168f 11       		.uleb128 0x11
 5577 1690 FE030000 		.4byte	.LASF63
ARM GAS  C:\Users\info\AppData\Local\Temp\ccAWUQ53.s 			page 116


 5578 1694 01       		.byte	0x1
 5579 1695 0C01     		.2byte	0x10c
 5580 1697 07030000 		.4byte	0x307
 5581 169b 050D0000 		.4byte	.LLST88
 5582 169f 15       		.uleb128 0x15
 5583 16a0 6D736700 		.ascii	"msg\000"
 5584 16a4 01       		.byte	0x1
 5585 16a5 0C01     		.2byte	0x10c
 5586 16a7 8C000000 		.4byte	0x8c
 5587 16ab 310D0000 		.4byte	.LLST89
 5588 16af 11       		.uleb128 0x11
 5589 16b0 34020000 		.4byte	.LASF78
 5590 16b4 01       		.byte	0x1
 5591 16b5 0C01     		.2byte	0x10c
 5592 16b7 8C000000 		.4byte	0x8c
 5593 16bb 520D0000 		.4byte	.LLST90
 5594 16bf 11       		.uleb128 0x11
 5595 16c0 EA050000 		.4byte	.LASF79
 5596 16c4 01       		.byte	0x1
 5597 16c5 0C01     		.2byte	0x10c
 5598 16c7 AD000000 		.4byte	0xad
 5599 16cb BB0D0000 		.4byte	.LLST91
 5600 16cf 27       		.uleb128 0x27
 5601 16d0 6900     		.ascii	"i\000"
 5602 16d2 01       		.byte	0x1
 5603 16d3 0E01     		.2byte	0x10e
 5604 16d5 8C000000 		.4byte	0x8c
 5605 16d9 590E0000 		.4byte	.LLST92
 5606 16dd 28       		.uleb128 0x28
 5607 16de 9B020000 		.4byte	.LASF72
 5608 16e2 01       		.byte	0x1
 5609 16e3 0F01     		.2byte	0x10f
 5610 16e5 32030000 		.4byte	0x332
 5611 16e9 6D0E0000 		.4byte	.LLST93
 5612 16ed 28       		.uleb128 0x28
 5613 16ee 67010000 		.4byte	.LASF81
 5614 16f2 01       		.byte	0x1
 5615 16f3 1001     		.2byte	0x110
 5616 16f5 8C000000 		.4byte	0x8c
 5617 16f9 A50E0000 		.4byte	.LLST94
 5618 16fd 28       		.uleb128 0x28
 5619 16fe A9000000 		.4byte	.LASF82
 5620 1702 01       		.byte	0x1
 5621 1703 1101     		.2byte	0x111
 5622 1705 8C000000 		.4byte	0x8c
 5623 1709 8C0F0000 		.4byte	.LLST95
 5624 170d 27       		.uleb128 0x27
 5625 170e 6200     		.ascii	"b\000"
 5626 1710 01       		.byte	0x1
 5627 1711 1201     		.2byte	0x112
 5628 1713 97000000 		.4byte	0x97
 5629 1717 7F100000 		.4byte	.LLST96
 5630 171b 29       		.uleb128 0x29
 5631 171c 70000000 		.4byte	.LASF86
 5632 1720 01       		.byte	0x1
 5633 1721 1301     		.2byte	0x113
 5634 1723 8C000000 		.4byte	0x8c
ARM GAS  C:\Users\info\AppData\Local\Temp\ccAWUQ53.s 			page 117


 5635 1727 05       		.uleb128 0x5
 5636 1728 03       		.byte	0x3
 5637 1729 00000000 		.4byte	last_dc.5529
 5638 172d 1A       		.uleb128 0x1a
 5639 172e 36000000 		.4byte	.LVL188
 5640 1732 08200000 		.4byte	0x2008
 5641 1736 47170000 		.4byte	0x1747
 5642 173a 13       		.uleb128 0x13
 5643 173b 01       		.uleb128 0x1
 5644 173c 50       		.byte	0x50
 5645 173d 02       		.uleb128 0x2
 5646 173e 74       		.byte	0x74
 5647 173f 00       		.sleb128 0
 5648 1740 13       		.uleb128 0x13
 5649 1741 01       		.uleb128 0x1
 5650 1742 51       		.byte	0x51
 5651 1743 02       		.uleb128 0x2
 5652 1744 08       		.byte	0x8
 5653 1745 49       		.byte	0x49
 5654 1746 00       		.byte	0
 5655 1747 1A       		.uleb128 0x1a
 5656 1748 46000000 		.4byte	.LVL189
 5657 174c 08200000 		.4byte	0x2008
 5658 1750 61170000 		.4byte	0x1761
 5659 1754 13       		.uleb128 0x13
 5660 1755 01       		.uleb128 0x1
 5661 1756 50       		.byte	0x50
 5662 1757 02       		.uleb128 0x2
 5663 1758 74       		.byte	0x74
 5664 1759 00       		.sleb128 0
 5665 175a 13       		.uleb128 0x13
 5666 175b 01       		.uleb128 0x1
 5667 175c 51       		.byte	0x51
 5668 175d 02       		.uleb128 0x2
 5669 175e 08       		.byte	0x8
 5670 175f 40       		.byte	0x40
 5671 1760 00       		.byte	0
 5672 1761 1A       		.uleb128 0x1a
 5673 1762 92000000 		.4byte	.LVL195
 5674 1766 08200000 		.4byte	0x2008
 5675 176a 75170000 		.4byte	0x1775
 5676 176e 13       		.uleb128 0x13
 5677 176f 01       		.uleb128 0x1
 5678 1770 50       		.byte	0x50
 5679 1771 02       		.uleb128 0x2
 5680 1772 74       		.byte	0x74
 5681 1773 00       		.sleb128 0
 5682 1774 00       		.byte	0
 5683 1775 1A       		.uleb128 0x1a
 5684 1776 9E000000 		.4byte	.LVL196
 5685 177a 08200000 		.4byte	0x2008
 5686 177e 95170000 		.4byte	0x1795
 5687 1782 13       		.uleb128 0x13
 5688 1783 01       		.uleb128 0x1
 5689 1784 50       		.byte	0x50
 5690 1785 02       		.uleb128 0x2
 5691 1786 74       		.byte	0x74
ARM GAS  C:\Users\info\AppData\Local\Temp\ccAWUQ53.s 			page 118


 5692 1787 00       		.sleb128 0
 5693 1788 13       		.uleb128 0x13
 5694 1789 01       		.uleb128 0x1
 5695 178a 51       		.byte	0x51
 5696 178b 02       		.uleb128 0x2
 5697 178c 08       		.byte	0x8
 5698 178d 40       		.byte	0x40
 5699 178e 13       		.uleb128 0x13
 5700 178f 01       		.uleb128 0x1
 5701 1790 52       		.byte	0x52
 5702 1791 02       		.uleb128 0x2
 5703 1792 78       		.byte	0x78
 5704 1793 00       		.sleb128 0
 5705 1794 00       		.byte	0
 5706 1795 1A       		.uleb128 0x1a
 5707 1796 AA000000 		.4byte	.LVL197
 5708 179a 08200000 		.4byte	0x2008
 5709 179e AF170000 		.4byte	0x17af
 5710 17a2 13       		.uleb128 0x13
 5711 17a3 01       		.uleb128 0x1
 5712 17a4 50       		.byte	0x50
 5713 17a5 02       		.uleb128 0x2
 5714 17a6 74       		.byte	0x74
 5715 17a7 00       		.sleb128 0
 5716 17a8 13       		.uleb128 0x13
 5717 17a9 01       		.uleb128 0x1
 5718 17aa 51       		.byte	0x51
 5719 17ab 02       		.uleb128 0x2
 5720 17ac 08       		.byte	0x8
 5721 17ad 2C       		.byte	0x2c
 5722 17ae 00       		.byte	0
 5723 17af 1A       		.uleb128 0x1a
 5724 17b0 B4000000 		.4byte	.LVL198
 5725 17b4 08200000 		.4byte	0x2008
 5726 17b8 CF170000 		.4byte	0x17cf
 5727 17bc 13       		.uleb128 0x13
 5728 17bd 01       		.uleb128 0x1
 5729 17be 50       		.byte	0x50
 5730 17bf 02       		.uleb128 0x2
 5731 17c0 74       		.byte	0x74
 5732 17c1 00       		.sleb128 0
 5733 17c2 13       		.uleb128 0x13
 5734 17c3 01       		.uleb128 0x1
 5735 17c4 51       		.byte	0x51
 5736 17c5 02       		.uleb128 0x2
 5737 17c6 08       		.byte	0x8
 5738 17c7 40       		.byte	0x40
 5739 17c8 13       		.uleb128 0x13
 5740 17c9 01       		.uleb128 0x1
 5741 17ca 52       		.byte	0x52
 5742 17cb 02       		.uleb128 0x2
 5743 17cc 77       		.byte	0x77
 5744 17cd 00       		.sleb128 0
 5745 17ce 00       		.byte	0
 5746 17cf 1A       		.uleb128 0x1a
 5747 17d0 C4000000 		.4byte	.LVL200
 5748 17d4 08200000 		.4byte	0x2008
ARM GAS  C:\Users\info\AppData\Local\Temp\ccAWUQ53.s 			page 119


 5749 17d8 E9170000 		.4byte	0x17e9
 5750 17dc 13       		.uleb128 0x13
 5751 17dd 01       		.uleb128 0x1
 5752 17de 50       		.byte	0x50
 5753 17df 02       		.uleb128 0x2
 5754 17e0 74       		.byte	0x74
 5755 17e1 00       		.sleb128 0
 5756 17e2 13       		.uleb128 0x13
 5757 17e3 01       		.uleb128 0x1
 5758 17e4 51       		.byte	0x51
 5759 17e5 02       		.uleb128 0x2
 5760 17e6 08       		.byte	0x8
 5761 17e7 2C       		.byte	0x2c
 5762 17e8 00       		.byte	0
 5763 17e9 1A       		.uleb128 0x1a
 5764 17ea E0000000 		.4byte	.LVL205
 5765 17ee 08200000 		.4byte	0x2008
 5766 17f2 03180000 		.4byte	0x1803
 5767 17f6 13       		.uleb128 0x13
 5768 17f7 01       		.uleb128 0x1
 5769 17f8 50       		.byte	0x50
 5770 17f9 02       		.uleb128 0x2
 5771 17fa 74       		.byte	0x74
 5772 17fb 00       		.sleb128 0
 5773 17fc 13       		.uleb128 0x13
 5774 17fd 01       		.uleb128 0x1
 5775 17fe 51       		.byte	0x51
 5776 17ff 02       		.uleb128 0x2
 5777 1800 08       		.byte	0x8
 5778 1801 49       		.byte	0x49
 5779 1802 00       		.byte	0
 5780 1803 25       		.uleb128 0x25
 5781 1804 EE000000 		.4byte	.LVL206
 5782 1808 02       		.uleb128 0x2
 5783 1809 75       		.byte	0x75
 5784 180a 00       		.sleb128 0
 5785 180b 21180000 		.4byte	0x1821
 5786 180f 13       		.uleb128 0x13
 5787 1810 01       		.uleb128 0x1
 5788 1811 50       		.byte	0x50
 5789 1812 02       		.uleb128 0x2
 5790 1813 74       		.byte	0x74
 5791 1814 00       		.sleb128 0
 5792 1815 13       		.uleb128 0x13
 5793 1816 01       		.uleb128 0x1
 5794 1817 51       		.byte	0x51
 5795 1818 02       		.uleb128 0x2
 5796 1819 08       		.byte	0x8
 5797 181a 2C       		.byte	0x2c
 5798 181b 13       		.uleb128 0x13
 5799 181c 01       		.uleb128 0x1
 5800 181d 53       		.byte	0x53
 5801 181e 01       		.uleb128 0x1
 5802 181f 30       		.byte	0x30
 5803 1820 00       		.byte	0
 5804 1821 25       		.uleb128 0x25
 5805 1822 00010000 		.4byte	.LVL211
ARM GAS  C:\Users\info\AppData\Local\Temp\ccAWUQ53.s 			page 120


 5806 1826 02       		.uleb128 0x2
 5807 1827 75       		.byte	0x75
 5808 1828 00       		.sleb128 0
 5809 1829 3F180000 		.4byte	0x183f
 5810 182d 13       		.uleb128 0x13
 5811 182e 01       		.uleb128 0x1
 5812 182f 50       		.byte	0x50
 5813 1830 02       		.uleb128 0x2
 5814 1831 74       		.byte	0x74
 5815 1832 00       		.sleb128 0
 5816 1833 13       		.uleb128 0x13
 5817 1834 01       		.uleb128 0x1
 5818 1835 51       		.byte	0x51
 5819 1836 02       		.uleb128 0x2
 5820 1837 08       		.byte	0x8
 5821 1838 2C       		.byte	0x2c
 5822 1839 13       		.uleb128 0x13
 5823 183a 01       		.uleb128 0x1
 5824 183b 53       		.byte	0x53
 5825 183c 01       		.uleb128 0x1
 5826 183d 30       		.byte	0x30
 5827 183e 00       		.byte	0
 5828 183f 19       		.uleb128 0x19
 5829 1840 0C010000 		.4byte	.LVL212
 5830 1844 08200000 		.4byte	0x2008
 5831 1848 13       		.uleb128 0x13
 5832 1849 01       		.uleb128 0x1
 5833 184a 50       		.byte	0x50
 5834 184b 02       		.uleb128 0x2
 5835 184c 74       		.byte	0x74
 5836 184d 00       		.sleb128 0
 5837 184e 13       		.uleb128 0x13
 5838 184f 01       		.uleb128 0x1
 5839 1850 51       		.byte	0x51
 5840 1851 02       		.uleb128 0x2
 5841 1852 08       		.byte	0x8
 5842 1853 49       		.byte	0x49
 5843 1854 00       		.byte	0
 5844 1855 00       		.byte	0
 5845 1856 2A       		.uleb128 0x2a
 5846 1857 65050000 		.4byte	.LASF97
 5847 185b 01       		.byte	0x1
 5848 185c 4B01     		.2byte	0x14b
 5849 185e 00000000 		.4byte	.LFB10
 5850 1862 2C000000 		.4byte	.LFE10-.LFB10
 5851 1866 01       		.uleb128 0x1
 5852 1867 9C       		.byte	0x9c
 5853 1868 E0180000 		.4byte	0x18e0
 5854 186c 11       		.uleb128 0x11
 5855 186d FE030000 		.4byte	.LASF63
 5856 1871 01       		.byte	0x1
 5857 1872 4B01     		.2byte	0x14b
 5858 1874 07030000 		.4byte	0x307
 5859 1878 9D100000 		.4byte	.LLST97
 5860 187c 15       		.uleb128 0x15
 5861 187d 61726700 		.ascii	"arg\000"
 5862 1881 01       		.byte	0x1
ARM GAS  C:\Users\info\AppData\Local\Temp\ccAWUQ53.s 			page 121


 5863 1882 4B01     		.2byte	0x14b
 5864 1884 8C000000 		.4byte	0x8c
 5865 1888 D4100000 		.4byte	.LLST98
 5866 188c 1A       		.uleb128 0x1a
 5867 188d 10000000 		.4byte	.LVL218
 5868 1891 08200000 		.4byte	0x2008
 5869 1895 A6180000 		.4byte	0x18a6
 5870 1899 13       		.uleb128 0x13
 5871 189a 01       		.uleb128 0x1
 5872 189b 50       		.byte	0x50
 5873 189c 02       		.uleb128 0x2
 5874 189d 75       		.byte	0x75
 5875 189e 00       		.sleb128 0
 5876 189f 13       		.uleb128 0x13
 5877 18a0 01       		.uleb128 0x1
 5878 18a1 51       		.byte	0x51
 5879 18a2 02       		.uleb128 0x2
 5880 18a3 08       		.byte	0x8
 5881 18a4 49       		.byte	0x49
 5882 18a5 00       		.byte	0
 5883 18a6 1A       		.uleb128 0x1a
 5884 18a7 1C000000 		.4byte	.LVL219
 5885 18ab 08200000 		.4byte	0x2008
 5886 18af C8180000 		.4byte	0x18c8
 5887 18b3 13       		.uleb128 0x13
 5888 18b4 01       		.uleb128 0x1
 5889 18b5 50       		.byte	0x50
 5890 18b6 02       		.uleb128 0x2
 5891 18b7 75       		.byte	0x75
 5892 18b8 00       		.sleb128 0
 5893 18b9 13       		.uleb128 0x13
 5894 18ba 01       		.uleb128 0x1
 5895 18bb 51       		.byte	0x51
 5896 18bc 02       		.uleb128 0x2
 5897 18bd 08       		.byte	0x8
 5898 18be 4E       		.byte	0x4e
 5899 18bf 13       		.uleb128 0x13
 5900 18c0 01       		.uleb128 0x1
 5901 18c1 52       		.byte	0x52
 5902 18c2 04       		.uleb128 0x4
 5903 18c3 74       		.byte	0x74
 5904 18c4 00       		.sleb128 0
 5905 18c5 31       		.byte	0x31
 5906 18c6 1A       		.byte	0x1a
 5907 18c7 00       		.byte	0
 5908 18c8 12       		.uleb128 0x12
 5909 18c9 2C000000 		.4byte	.LVL221
 5910 18cd 08200000 		.4byte	0x2008
 5911 18d1 13       		.uleb128 0x13
 5912 18d2 01       		.uleb128 0x1
 5913 18d3 50       		.byte	0x50
 5914 18d4 03       		.uleb128 0x3
 5915 18d5 F3       		.byte	0xf3
 5916 18d6 01       		.uleb128 0x1
 5917 18d7 50       		.byte	0x50
 5918 18d8 13       		.uleb128 0x13
 5919 18d9 01       		.uleb128 0x1
ARM GAS  C:\Users\info\AppData\Local\Temp\ccAWUQ53.s 			page 122


 5920 18da 51       		.byte	0x51
 5921 18db 02       		.uleb128 0x2
 5922 18dc 08       		.byte	0x8
 5923 18dd 4F       		.byte	0x4f
 5924 18de 00       		.byte	0
 5925 18df 00       		.byte	0
 5926 18e0 26       		.uleb128 0x26
 5927 18e1 8A020000 		.4byte	.LASF87
 5928 18e5 01       		.byte	0x1
 5929 18e6 5501     		.2byte	0x155
 5930 18e8 8C000000 		.4byte	0x8c
 5931 18ec 00000000 		.4byte	.LFB11
 5932 18f0 E8000000 		.4byte	.LFE11-.LFB11
 5933 18f4 01       		.uleb128 0x1
 5934 18f5 9C       		.byte	0x9c
 5935 18f6 A81A0000 		.4byte	0x1aa8
 5936 18fa 11       		.uleb128 0x11
 5937 18fb FE030000 		.4byte	.LASF63
 5938 18ff 01       		.byte	0x1
 5939 1900 5501     		.2byte	0x155
 5940 1902 07030000 		.4byte	0x307
 5941 1906 0F110000 		.4byte	.LLST99
 5942 190a 15       		.uleb128 0x15
 5943 190b 6D736700 		.ascii	"msg\000"
 5944 190f 01       		.byte	0x1
 5945 1910 5501     		.2byte	0x155
 5946 1912 8C000000 		.4byte	0x8c
 5947 1916 9B110000 		.4byte	.LLST100
 5948 191a 11       		.uleb128 0x11
 5949 191b 34020000 		.4byte	.LASF78
 5950 191f 01       		.byte	0x1
 5951 1920 5501     		.2byte	0x155
 5952 1922 8C000000 		.4byte	0x8c
 5953 1926 BC110000 		.4byte	.LLST101
 5954 192a 11       		.uleb128 0x11
 5955 192b EA050000 		.4byte	.LASF79
 5956 192f 01       		.byte	0x1
 5957 1930 5501     		.2byte	0x155
 5958 1932 AD000000 		.4byte	0xad
 5959 1936 3E120000 		.4byte	.LLST102
 5960 193a 27       		.uleb128 0x27
 5961 193b 6900     		.ascii	"i\000"
 5962 193d 01       		.byte	0x1
 5963 193e 5701     		.2byte	0x157
 5964 1940 8C000000 		.4byte	0x8c
 5965 1944 75120000 		.4byte	.LLST103
 5966 1948 27       		.uleb128 0x27
 5967 1949 6200     		.ascii	"b\000"
 5968 194b 01       		.byte	0x1
 5969 194c 5701     		.2byte	0x157
 5970 194e 8C000000 		.4byte	0x8c
 5971 1952 A0120000 		.4byte	.LLST104
 5972 1956 28       		.uleb128 0x28
 5973 1957 9B020000 		.4byte	.LASF72
 5974 195b 01       		.byte	0x1
 5975 195c 5801     		.2byte	0x158
 5976 195e 32030000 		.4byte	0x332
ARM GAS  C:\Users\info\AppData\Local\Temp\ccAWUQ53.s 			page 123


 5977 1962 B3120000 		.4byte	.LLST105
 5978 1966 1A       		.uleb128 0x1a
 5979 1967 28000000 		.4byte	.LVL225
 5980 196b 08200000 		.4byte	0x2008
 5981 196f 7A190000 		.4byte	0x197a
 5982 1973 13       		.uleb128 0x13
 5983 1974 01       		.uleb128 0x1
 5984 1975 51       		.byte	0x51
 5985 1976 02       		.uleb128 0x2
 5986 1977 08       		.byte	0x8
 5987 1978 4A       		.byte	0x4a
 5988 1979 00       		.byte	0
 5989 197a 1A       		.uleb128 0x1a
 5990 197b 38000000 		.4byte	.LVL228
 5991 197f 08200000 		.4byte	0x2008
 5992 1983 94190000 		.4byte	0x1994
 5993 1987 13       		.uleb128 0x13
 5994 1988 01       		.uleb128 0x1
 5995 1989 50       		.byte	0x50
 5996 198a 02       		.uleb128 0x2
 5997 198b 76       		.byte	0x76
 5998 198c 00       		.sleb128 0
 5999 198d 13       		.uleb128 0x13
 6000 198e 01       		.uleb128 0x1
 6001 198f 51       		.byte	0x51
 6002 1990 02       		.uleb128 0x2
 6003 1991 08       		.byte	0x8
 6004 1992 49       		.byte	0x49
 6005 1993 00       		.byte	0
 6006 1994 1A       		.uleb128 0x1a
 6007 1995 42000000 		.4byte	.LVL229
 6008 1999 08200000 		.4byte	0x2008
 6009 199d B3190000 		.4byte	0x19b3
 6010 19a1 13       		.uleb128 0x13
 6011 19a2 01       		.uleb128 0x1
 6012 19a3 50       		.byte	0x50
 6013 19a4 02       		.uleb128 0x2
 6014 19a5 76       		.byte	0x76
 6015 19a6 00       		.sleb128 0
 6016 19a7 13       		.uleb128 0x13
 6017 19a8 01       		.uleb128 0x1
 6018 19a9 51       		.byte	0x51
 6019 19aa 02       		.uleb128 0x2
 6020 19ab 08       		.byte	0x8
 6021 19ac 48       		.byte	0x48
 6022 19ad 13       		.uleb128 0x13
 6023 19ae 01       		.uleb128 0x1
 6024 19af 52       		.byte	0x52
 6025 19b0 01       		.uleb128 0x1
 6026 19b1 30       		.byte	0x30
 6027 19b2 00       		.byte	0
 6028 19b3 1A       		.uleb128 0x1a
 6029 19b4 70000000 		.4byte	.LVL235
 6030 19b8 08200000 		.4byte	0x2008
 6031 19bc CF190000 		.4byte	0x19cf
 6032 19c0 13       		.uleb128 0x13
 6033 19c1 01       		.uleb128 0x1
ARM GAS  C:\Users\info\AppData\Local\Temp\ccAWUQ53.s 			page 124


 6034 19c2 50       		.byte	0x50
 6035 19c3 02       		.uleb128 0x2
 6036 19c4 76       		.byte	0x76
 6037 19c5 00       		.sleb128 0
 6038 19c6 13       		.uleb128 0x13
 6039 19c7 01       		.uleb128 0x1
 6040 19c8 52       		.byte	0x52
 6041 19c9 04       		.uleb128 0x4
 6042 19ca 75       		.byte	0x75
 6043 19cb 00       		.sleb128 0
 6044 19cc 31       		.byte	0x31
 6045 19cd 1A       		.byte	0x1a
 6046 19ce 00       		.byte	0
 6047 19cf 1A       		.uleb128 0x1a
 6048 19d0 84000000 		.4byte	.LVL237
 6049 19d4 08200000 		.4byte	0x2008
 6050 19d8 E9190000 		.4byte	0x19e9
 6051 19dc 13       		.uleb128 0x13
 6052 19dd 01       		.uleb128 0x1
 6053 19de 50       		.byte	0x50
 6054 19df 02       		.uleb128 0x2
 6055 19e0 76       		.byte	0x76
 6056 19e1 00       		.sleb128 0
 6057 19e2 13       		.uleb128 0x13
 6058 19e3 01       		.uleb128 0x1
 6059 19e4 51       		.byte	0x51
 6060 19e5 02       		.uleb128 0x2
 6061 19e6 08       		.byte	0x8
 6062 19e7 2C       		.byte	0x2c
 6063 19e8 00       		.byte	0
 6064 19e9 1A       		.uleb128 0x1a
 6065 19ea 8E000000 		.4byte	.LVL238
 6066 19ee 08200000 		.4byte	0x2008
 6067 19f2 081A0000 		.4byte	0x1a08
 6068 19f6 13       		.uleb128 0x13
 6069 19f7 01       		.uleb128 0x1
 6070 19f8 50       		.byte	0x50
 6071 19f9 02       		.uleb128 0x2
 6072 19fa 76       		.byte	0x76
 6073 19fb 00       		.sleb128 0
 6074 19fc 13       		.uleb128 0x13
 6075 19fd 01       		.uleb128 0x1
 6076 19fe 51       		.byte	0x51
 6077 19ff 02       		.uleb128 0x2
 6078 1a00 74       		.byte	0x74
 6079 1a01 00       		.sleb128 0
 6080 1a02 13       		.uleb128 0x13
 6081 1a03 01       		.uleb128 0x1
 6082 1a04 52       		.byte	0x52
 6083 1a05 01       		.uleb128 0x1
 6084 1a06 31       		.byte	0x31
 6085 1a07 00       		.byte	0
 6086 1a08 1A       		.uleb128 0x1a
 6087 1a09 9A000000 		.4byte	.LVL239
 6088 1a0d 08200000 		.4byte	0x2008
 6089 1a11 221A0000 		.4byte	0x1a22
 6090 1a15 13       		.uleb128 0x13
ARM GAS  C:\Users\info\AppData\Local\Temp\ccAWUQ53.s 			page 125


 6091 1a16 01       		.uleb128 0x1
 6092 1a17 50       		.byte	0x50
 6093 1a18 02       		.uleb128 0x2
 6094 1a19 76       		.byte	0x76
 6095 1a1a 00       		.sleb128 0
 6096 1a1b 13       		.uleb128 0x13
 6097 1a1c 01       		.uleb128 0x1
 6098 1a1d 51       		.byte	0x51
 6099 1a1e 02       		.uleb128 0x2
 6100 1a1f 08       		.byte	0x8
 6101 1a20 2C       		.byte	0x2c
 6102 1a21 00       		.byte	0
 6103 1a22 1A       		.uleb128 0x1a
 6104 1a23 A4000000 		.4byte	.LVL240
 6105 1a27 08200000 		.4byte	0x2008
 6106 1a2b 411A0000 		.4byte	0x1a41
 6107 1a2f 13       		.uleb128 0x13
 6108 1a30 01       		.uleb128 0x1
 6109 1a31 50       		.byte	0x50
 6110 1a32 02       		.uleb128 0x2
 6111 1a33 76       		.byte	0x76
 6112 1a34 00       		.sleb128 0
 6113 1a35 13       		.uleb128 0x13
 6114 1a36 01       		.uleb128 0x1
 6115 1a37 51       		.byte	0x51
 6116 1a38 02       		.uleb128 0x2
 6117 1a39 74       		.byte	0x74
 6118 1a3a 00       		.sleb128 0
 6119 1a3b 13       		.uleb128 0x13
 6120 1a3c 01       		.uleb128 0x1
 6121 1a3d 52       		.byte	0x52
 6122 1a3e 01       		.uleb128 0x1
 6123 1a3f 30       		.byte	0x30
 6124 1a40 00       		.byte	0
 6125 1a41 1A       		.uleb128 0x1a
 6126 1a42 B4000000 		.4byte	.LVL242
 6127 1a46 56180000 		.4byte	0x1856
 6128 1a4a 551A0000 		.4byte	0x1a55
 6129 1a4e 13       		.uleb128 0x13
 6130 1a4f 01       		.uleb128 0x1
 6131 1a50 51       		.byte	0x51
 6132 1a51 02       		.uleb128 0x2
 6133 1a52 74       		.byte	0x74
 6134 1a53 00       		.sleb128 0
 6135 1a54 00       		.byte	0
 6136 1a55 25       		.uleb128 0x25
 6137 1a56 C2000000 		.4byte	.LVL243
 6138 1a5a 02       		.uleb128 0x2
 6139 1a5b 74       		.byte	0x74
 6140 1a5c 00       		.sleb128 0
 6141 1a5d 731A0000 		.4byte	0x1a73
 6142 1a61 13       		.uleb128 0x13
 6143 1a62 01       		.uleb128 0x1
 6144 1a63 50       		.byte	0x50
 6145 1a64 02       		.uleb128 0x2
 6146 1a65 76       		.byte	0x76
 6147 1a66 00       		.sleb128 0
ARM GAS  C:\Users\info\AppData\Local\Temp\ccAWUQ53.s 			page 126


 6148 1a67 13       		.uleb128 0x13
 6149 1a68 01       		.uleb128 0x1
 6150 1a69 51       		.byte	0x51
 6151 1a6a 02       		.uleb128 0x2
 6152 1a6b 08       		.byte	0x8
 6153 1a6c 2C       		.byte	0x2c
 6154 1a6d 13       		.uleb128 0x13
 6155 1a6e 01       		.uleb128 0x1
 6156 1a6f 53       		.byte	0x53
 6157 1a70 01       		.uleb128 0x1
 6158 1a71 30       		.byte	0x30
 6159 1a72 00       		.byte	0
 6160 1a73 25       		.uleb128 0x25
 6161 1a74 D4000000 		.4byte	.LVL246
 6162 1a78 02       		.uleb128 0x2
 6163 1a79 75       		.byte	0x75
 6164 1a7a 00       		.sleb128 0
 6165 1a7b 911A0000 		.4byte	0x1a91
 6166 1a7f 13       		.uleb128 0x13
 6167 1a80 01       		.uleb128 0x1
 6168 1a81 50       		.byte	0x50
 6169 1a82 02       		.uleb128 0x2
 6170 1a83 76       		.byte	0x76
 6171 1a84 00       		.sleb128 0
 6172 1a85 13       		.uleb128 0x13
 6173 1a86 01       		.uleb128 0x1
 6174 1a87 51       		.byte	0x51
 6175 1a88 02       		.uleb128 0x2
 6176 1a89 08       		.byte	0x8
 6177 1a8a 2C       		.byte	0x2c
 6178 1a8b 13       		.uleb128 0x13
 6179 1a8c 01       		.uleb128 0x1
 6180 1a8d 53       		.byte	0x53
 6181 1a8e 01       		.uleb128 0x1
 6182 1a8f 30       		.byte	0x30
 6183 1a90 00       		.byte	0
 6184 1a91 19       		.uleb128 0x19
 6185 1a92 DC000000 		.4byte	.LVL247
 6186 1a96 56180000 		.4byte	0x1856
 6187 1a9a 13       		.uleb128 0x13
 6188 1a9b 01       		.uleb128 0x1
 6189 1a9c 50       		.byte	0x50
 6190 1a9d 02       		.uleb128 0x2
 6191 1a9e 76       		.byte	0x76
 6192 1a9f 00       		.sleb128 0
 6193 1aa0 13       		.uleb128 0x13
 6194 1aa1 01       		.uleb128 0x1
 6195 1aa2 51       		.byte	0x51
 6196 1aa3 02       		.uleb128 0x2
 6197 1aa4 74       		.byte	0x74
 6198 1aa5 00       		.sleb128 0
 6199 1aa6 00       		.byte	0
 6200 1aa7 00       		.byte	0
 6201 1aa8 26       		.uleb128 0x26
 6202 1aa9 15000000 		.4byte	.LASF88
 6203 1aad 01       		.byte	0x1
 6204 1aae 8D01     		.2byte	0x18d
ARM GAS  C:\Users\info\AppData\Local\Temp\ccAWUQ53.s 			page 127


 6205 1ab0 8C000000 		.4byte	0x8c
 6206 1ab4 00000000 		.4byte	.LFB12
 6207 1ab8 F0000000 		.4byte	.LFE12-.LFB12
 6208 1abc 01       		.uleb128 0x1
 6209 1abd 9C       		.byte	0x9c
 6210 1abe 4B1C0000 		.4byte	0x1c4b
 6211 1ac2 11       		.uleb128 0x11
 6212 1ac3 FE030000 		.4byte	.LASF63
 6213 1ac7 01       		.byte	0x1
 6214 1ac8 8D01     		.2byte	0x18d
 6215 1aca 07030000 		.4byte	0x307
 6216 1ace C6120000 		.4byte	.LLST106
 6217 1ad2 15       		.uleb128 0x15
 6218 1ad3 6D736700 		.ascii	"msg\000"
 6219 1ad7 01       		.byte	0x1
 6220 1ad8 8D01     		.2byte	0x18d
 6221 1ada 8C000000 		.4byte	0x8c
 6222 1ade 47130000 		.4byte	.LLST107
 6223 1ae2 11       		.uleb128 0x11
 6224 1ae3 34020000 		.4byte	.LASF78
 6225 1ae7 01       		.byte	0x1
 6226 1ae8 8D01     		.2byte	0x18d
 6227 1aea 8C000000 		.4byte	0x8c
 6228 1aee 68130000 		.4byte	.LLST108
 6229 1af2 11       		.uleb128 0x11
 6230 1af3 EA050000 		.4byte	.LASF79
 6231 1af7 01       		.byte	0x1
 6232 1af8 8D01     		.2byte	0x18d
 6233 1afa AD000000 		.4byte	0xad
 6234 1afe DF130000 		.4byte	.LLST109
 6235 1b02 27       		.uleb128 0x27
 6236 1b03 6900     		.ascii	"i\000"
 6237 1b05 01       		.byte	0x1
 6238 1b06 8F01     		.2byte	0x18f
 6239 1b08 8C000000 		.4byte	0x8c
 6240 1b0c 16140000 		.4byte	.LLST110
 6241 1b10 27       		.uleb128 0x27
 6242 1b11 6200     		.ascii	"b\000"
 6243 1b13 01       		.byte	0x1
 6244 1b14 8F01     		.2byte	0x18f
 6245 1b16 8C000000 		.4byte	0x8c
 6246 1b1a 41140000 		.4byte	.LLST111
 6247 1b1e 28       		.uleb128 0x28
 6248 1b1f 9B020000 		.4byte	.LASF72
 6249 1b23 01       		.byte	0x1
 6250 1b24 9001     		.2byte	0x190
 6251 1b26 32030000 		.4byte	0x332
 6252 1b2a 54140000 		.4byte	.LLST112
 6253 1b2e 29       		.uleb128 0x29
 6254 1b2f 7F020000 		.4byte	.LASF89
 6255 1b33 01       		.byte	0x1
 6256 1b34 9101     		.2byte	0x191
 6257 1b36 8C000000 		.4byte	0x8c
 6258 1b3a 05       		.uleb128 0x5
 6259 1b3b 03       		.byte	0x3
 6260 1b3c 01000000 		.4byte	enable_pin.5578
 6261 1b40 1A       		.uleb128 0x1a
ARM GAS  C:\Users\info\AppData\Local\Temp\ccAWUQ53.s 			page 128


 6262 1b41 36000000 		.4byte	.LVL257
 6263 1b45 08200000 		.4byte	0x2008
 6264 1b49 541B0000 		.4byte	0x1b54
 6265 1b4d 13       		.uleb128 0x13
 6266 1b4e 01       		.uleb128 0x1
 6267 1b4f 51       		.byte	0x51
 6268 1b50 02       		.uleb128 0x2
 6269 1b51 08       		.byte	0x8
 6270 1b52 4A       		.byte	0x4a
 6271 1b53 00       		.byte	0
 6272 1b54 1A       		.uleb128 0x1a
 6273 1b55 46000000 		.4byte	.LVL260
 6274 1b59 08200000 		.4byte	0x2008
 6275 1b5d 6E1B0000 		.4byte	0x1b6e
 6276 1b61 13       		.uleb128 0x13
 6277 1b62 01       		.uleb128 0x1
 6278 1b63 50       		.byte	0x50
 6279 1b64 02       		.uleb128 0x2
 6280 1b65 76       		.byte	0x76
 6281 1b66 00       		.sleb128 0
 6282 1b67 13       		.uleb128 0x13
 6283 1b68 01       		.uleb128 0x1
 6284 1b69 51       		.byte	0x51
 6285 1b6a 02       		.uleb128 0x2
 6286 1b6b 08       		.byte	0x8
 6287 1b6c 49       		.byte	0x49
 6288 1b6d 00       		.byte	0
 6289 1b6e 1A       		.uleb128 0x1a
 6290 1b6f 50000000 		.4byte	.LVL261
 6291 1b73 08200000 		.4byte	0x2008
 6292 1b77 8D1B0000 		.4byte	0x1b8d
 6293 1b7b 13       		.uleb128 0x13
 6294 1b7c 01       		.uleb128 0x1
 6295 1b7d 50       		.byte	0x50
 6296 1b7e 02       		.uleb128 0x2
 6297 1b7f 76       		.byte	0x76
 6298 1b80 00       		.sleb128 0
 6299 1b81 13       		.uleb128 0x13
 6300 1b82 01       		.uleb128 0x1
 6301 1b83 51       		.byte	0x51
 6302 1b84 02       		.uleb128 0x2
 6303 1b85 08       		.byte	0x8
 6304 1b86 48       		.byte	0x48
 6305 1b87 13       		.uleb128 0x13
 6306 1b88 01       		.uleb128 0x1
 6307 1b89 52       		.byte	0x52
 6308 1b8a 01       		.uleb128 0x1
 6309 1b8b 30       		.byte	0x30
 6310 1b8c 00       		.byte	0
 6311 1b8d 1A       		.uleb128 0x1a
 6312 1b8e 5A000000 		.4byte	.LVL262
 6313 1b92 08200000 		.4byte	0x2008
 6314 1b96 AC1B0000 		.4byte	0x1bac
 6315 1b9a 13       		.uleb128 0x13
 6316 1b9b 01       		.uleb128 0x1
 6317 1b9c 50       		.byte	0x50
 6318 1b9d 02       		.uleb128 0x2
ARM GAS  C:\Users\info\AppData\Local\Temp\ccAWUQ53.s 			page 129


 6319 1b9e 76       		.byte	0x76
 6320 1b9f 00       		.sleb128 0
 6321 1ba0 13       		.uleb128 0x13
 6322 1ba1 01       		.uleb128 0x1
 6323 1ba2 51       		.byte	0x51
 6324 1ba3 02       		.uleb128 0x2
 6325 1ba4 08       		.byte	0x8
 6326 1ba5 49       		.byte	0x49
 6327 1ba6 13       		.uleb128 0x13
 6328 1ba7 01       		.uleb128 0x1
 6329 1ba8 52       		.byte	0x52
 6330 1ba9 01       		.uleb128 0x1
 6331 1baa 30       		.byte	0x30
 6332 1bab 00       		.byte	0
 6333 1bac 1A       		.uleb128 0x1a
 6334 1bad 92000000 		.4byte	.LVL268
 6335 1bb1 08200000 		.4byte	0x2008
 6336 1bb5 C81B0000 		.4byte	0x1bc8
 6337 1bb9 13       		.uleb128 0x13
 6338 1bba 01       		.uleb128 0x1
 6339 1bbb 50       		.byte	0x50
 6340 1bbc 02       		.uleb128 0x2
 6341 1bbd 76       		.byte	0x76
 6342 1bbe 00       		.sleb128 0
 6343 1bbf 13       		.uleb128 0x13
 6344 1bc0 01       		.uleb128 0x1
 6345 1bc1 52       		.byte	0x52
 6346 1bc2 04       		.uleb128 0x4
 6347 1bc3 75       		.byte	0x75
 6348 1bc4 00       		.sleb128 0
 6349 1bc5 31       		.byte	0x31
 6350 1bc6 1A       		.byte	0x1a
 6351 1bc7 00       		.byte	0
 6352 1bc8 1A       		.uleb128 0x1a
 6353 1bc9 A6000000 		.4byte	.LVL270
 6354 1bcd 08200000 		.4byte	0x2008
 6355 1bd1 E21B0000 		.4byte	0x1be2
 6356 1bd5 13       		.uleb128 0x13
 6357 1bd6 01       		.uleb128 0x1
 6358 1bd7 50       		.byte	0x50
 6359 1bd8 02       		.uleb128 0x2
 6360 1bd9 76       		.byte	0x76
 6361 1bda 00       		.sleb128 0
 6362 1bdb 13       		.uleb128 0x13
 6363 1bdc 01       		.uleb128 0x1
 6364 1bdd 51       		.byte	0x51
 6365 1bde 02       		.uleb128 0x2
 6366 1bdf 08       		.byte	0x8
 6367 1be0 2C       		.byte	0x2c
 6368 1be1 00       		.byte	0
 6369 1be2 1A       		.uleb128 0x1a
 6370 1be3 B2000000 		.4byte	.LVL271
 6371 1be7 08200000 		.4byte	0x2008
 6372 1beb FB1B0000 		.4byte	0x1bfb
 6373 1bef 13       		.uleb128 0x13
 6374 1bf0 01       		.uleb128 0x1
 6375 1bf1 50       		.byte	0x50
ARM GAS  C:\Users\info\AppData\Local\Temp\ccAWUQ53.s 			page 130


 6376 1bf2 02       		.uleb128 0x2
 6377 1bf3 76       		.byte	0x76
 6378 1bf4 00       		.sleb128 0
 6379 1bf5 13       		.uleb128 0x13
 6380 1bf6 01       		.uleb128 0x1
 6381 1bf7 52       		.byte	0x52
 6382 1bf8 01       		.uleb128 0x1
 6383 1bf9 31       		.byte	0x31
 6384 1bfa 00       		.byte	0
 6385 1bfb 1A       		.uleb128 0x1a
 6386 1bfc BC000000 		.4byte	.LVL272
 6387 1c00 08200000 		.4byte	0x2008
 6388 1c04 1B1C0000 		.4byte	0x1c1b
 6389 1c08 13       		.uleb128 0x13
 6390 1c09 01       		.uleb128 0x1
 6391 1c0a 50       		.byte	0x50
 6392 1c0b 02       		.uleb128 0x2
 6393 1c0c 76       		.byte	0x76
 6394 1c0d 00       		.sleb128 0
 6395 1c0e 13       		.uleb128 0x13
 6396 1c0f 01       		.uleb128 0x1
 6397 1c10 51       		.byte	0x51
 6398 1c11 02       		.uleb128 0x2
 6399 1c12 08       		.byte	0x8
 6400 1c13 2C       		.byte	0x2c
 6401 1c14 13       		.uleb128 0x13
 6402 1c15 01       		.uleb128 0x1
 6403 1c16 52       		.byte	0x52
 6404 1c17 02       		.uleb128 0x2
 6405 1c18 09       		.byte	0x9
 6406 1c19 C8       		.byte	0xc8
 6407 1c1a 00       		.byte	0
 6408 1c1b 1A       		.uleb128 0x1a
 6409 1c1c C8000000 		.4byte	.LVL273
 6410 1c20 08200000 		.4byte	0x2008
 6411 1c24 351C0000 		.4byte	0x1c35
 6412 1c28 13       		.uleb128 0x13
 6413 1c29 01       		.uleb128 0x1
 6414 1c2a 50       		.byte	0x50
 6415 1c2b 02       		.uleb128 0x2
 6416 1c2c 76       		.byte	0x76
 6417 1c2d 00       		.sleb128 0
 6418 1c2e 13       		.uleb128 0x13
 6419 1c2f 01       		.uleb128 0x1
 6420 1c30 51       		.byte	0x51
 6421 1c31 02       		.uleb128 0x2
 6422 1c32 08       		.byte	0x8
 6423 1c33 2C       		.byte	0x2c
 6424 1c34 00       		.byte	0
 6425 1c35 19       		.uleb128 0x19
 6426 1c36 D4000000 		.4byte	.LVL274
 6427 1c3a 08200000 		.4byte	0x2008
 6428 1c3e 13       		.uleb128 0x13
 6429 1c3f 01       		.uleb128 0x1
 6430 1c40 50       		.byte	0x50
 6431 1c41 02       		.uleb128 0x2
 6432 1c42 76       		.byte	0x76
ARM GAS  C:\Users\info\AppData\Local\Temp\ccAWUQ53.s 			page 131


 6433 1c43 00       		.sleb128 0
 6434 1c44 13       		.uleb128 0x13
 6435 1c45 01       		.uleb128 0x1
 6436 1c46 52       		.byte	0x52
 6437 1c47 01       		.uleb128 0x1
 6438 1c48 30       		.byte	0x30
 6439 1c49 00       		.byte	0
 6440 1c4a 00       		.byte	0
 6441 1c4b 0E       		.uleb128 0xe
 6442 1c4c 0A020000 		.4byte	.LASF90
 6443 1c50 01       		.byte	0x1
 6444 1c51 D301     		.2byte	0x1d3
 6445 1c53 01       		.byte	0x1
 6446 1c54 651C0000 		.4byte	0x1c65
 6447 1c58 0F       		.uleb128 0xf
 6448 1c59 FE030000 		.4byte	.LASF63
 6449 1c5d 01       		.byte	0x1
 6450 1c5e D301     		.2byte	0x1d3
 6451 1c60 07030000 		.4byte	0x307
 6452 1c64 00       		.byte	0
 6453 1c65 0E       		.uleb128 0xe
 6454 1c66 0A060000 		.4byte	.LASF91
 6455 1c6a 01       		.byte	0x1
 6456 1c6b F601     		.2byte	0x1f6
 6457 1c6d 01       		.byte	0x1
 6458 1c6e 7F1C0000 		.4byte	0x1c7f
 6459 1c72 0F       		.uleb128 0xf
 6460 1c73 FE030000 		.4byte	.LASF63
 6461 1c77 01       		.byte	0x1
 6462 1c78 F601     		.2byte	0x1f6
 6463 1c7a 07030000 		.4byte	0x307
 6464 1c7e 00       		.byte	0
 6465 1c7f 0E       		.uleb128 0xe
 6466 1c80 3E060000 		.4byte	.LASF92
 6467 1c84 01       		.byte	0x1
 6468 1c85 0802     		.2byte	0x208
 6469 1c87 01       		.byte	0x1
 6470 1c88 991C0000 		.4byte	0x1c99
 6471 1c8c 0F       		.uleb128 0xf
 6472 1c8d FE030000 		.4byte	.LASF63
 6473 1c91 01       		.byte	0x1
 6474 1c92 0802     		.2byte	0x208
 6475 1c94 07030000 		.4byte	0x307
 6476 1c98 00       		.byte	0
 6477 1c99 26       		.uleb128 0x26
 6478 1c9a CA050000 		.4byte	.LASF93
 6479 1c9e 01       		.byte	0x1
 6480 1c9f 4102     		.2byte	0x241
 6481 1ca1 8C000000 		.4byte	0x8c
 6482 1ca5 00000000 		.4byte	.LFB24
 6483 1ca9 F0000000 		.4byte	.LFE24-.LFB24
 6484 1cad 01       		.uleb128 0x1
 6485 1cae 9C       		.byte	0x9c
 6486 1caf 08200000 		.4byte	0x2008
 6487 1cb3 11       		.uleb128 0x11
 6488 1cb4 FE030000 		.4byte	.LASF63
 6489 1cb8 01       		.byte	0x1
ARM GAS  C:\Users\info\AppData\Local\Temp\ccAWUQ53.s 			page 132


 6490 1cb9 4102     		.2byte	0x241
 6491 1cbb 07030000 		.4byte	0x307
 6492 1cbf 67140000 		.4byte	.LLST113
 6493 1cc3 15       		.uleb128 0x15
 6494 1cc4 6D736700 		.ascii	"msg\000"
 6495 1cc8 01       		.byte	0x1
 6496 1cc9 4102     		.2byte	0x241
 6497 1ccb 8C000000 		.4byte	0x8c
 6498 1ccf DD140000 		.4byte	.LLST114
 6499 1cd3 11       		.uleb128 0x11
 6500 1cd4 34020000 		.4byte	.LASF78
 6501 1cd8 01       		.byte	0x1
 6502 1cd9 4102     		.2byte	0x241
 6503 1cdb 8C000000 		.4byte	0x8c
 6504 1cdf FE140000 		.4byte	.LLST115
 6505 1ce3 11       		.uleb128 0x11
 6506 1ce4 EA050000 		.4byte	.LASF79
 6507 1ce8 01       		.byte	0x1
 6508 1ce9 4102     		.2byte	0x241
 6509 1ceb AD000000 		.4byte	0xad
 6510 1cef 67150000 		.4byte	.LLST116
 6511 1cf3 28       		.uleb128 0x28
 6512 1cf4 9B020000 		.4byte	.LASF72
 6513 1cf8 01       		.byte	0x1
 6514 1cf9 4302     		.2byte	0x243
 6515 1cfb 32030000 		.4byte	0x332
 6516 1cff B7150000 		.4byte	.LLST117
 6517 1d03 18       		.uleb128 0x18
 6518 1d04 7F1C0000 		.4byte	0x1c7f
 6519 1d08 1E000000 		.4byte	.LBB256
 6520 1d0c 34000000 		.4byte	.LBE256-.LBB256
 6521 1d10 01       		.byte	0x1
 6522 1d11 5E02     		.2byte	0x25e
 6523 1d13 041E0000 		.4byte	0x1e04
 6524 1d17 17       		.uleb128 0x17
 6525 1d18 8C1C0000 		.4byte	0x1c8c
 6526 1d1c E2150000 		.4byte	.LLST118
 6527 1d20 18       		.uleb128 0x18
 6528 1d21 82030000 		.4byte	0x382
 6529 1d25 1E000000 		.4byte	.LBB258
 6530 1d29 08000000 		.4byte	.LBE258-.LBB258
 6531 1d2d 01       		.byte	0x1
 6532 1d2e 0B02     		.2byte	0x20b
 6533 1d30 591D0000 		.4byte	0x1d59
 6534 1d34 17       		.uleb128 0x17
 6535 1d35 8F030000 		.4byte	0x38f
 6536 1d39 00160000 		.4byte	.LLST119
 6537 1d3d 19       		.uleb128 0x19
 6538 1d3e 26000000 		.4byte	.LVL283
 6539 1d42 08200000 		.4byte	0x2008
 6540 1d46 13       		.uleb128 0x13
 6541 1d47 01       		.uleb128 0x1
 6542 1d48 50       		.byte	0x50
 6543 1d49 02       		.uleb128 0x2
 6544 1d4a 75       		.byte	0x75
 6545 1d4b 00       		.sleb128 0
 6546 1d4c 13       		.uleb128 0x13
ARM GAS  C:\Users\info\AppData\Local\Temp\ccAWUQ53.s 			page 133


 6547 1d4d 01       		.uleb128 0x1
 6548 1d4e 51       		.byte	0x51
 6549 1d4f 02       		.uleb128 0x2
 6550 1d50 08       		.byte	0x8
 6551 1d51 4D       		.byte	0x4d
 6552 1d52 13       		.uleb128 0x13
 6553 1d53 01       		.uleb128 0x1
 6554 1d54 52       		.byte	0x52
 6555 1d55 01       		.uleb128 0x1
 6556 1d56 30       		.byte	0x30
 6557 1d57 00       		.byte	0
 6558 1d58 00       		.byte	0
 6559 1d59 18       		.uleb128 0x18
 6560 1d5a 68030000 		.4byte	0x368
 6561 1d5e 2C000000 		.4byte	.LBB260
 6562 1d62 10000000 		.4byte	.LBE260-.LBB260
 6563 1d66 01       		.byte	0x1
 6564 1d67 0F02     		.2byte	0x20f
 6565 1d69 A61D0000 		.4byte	0x1da6
 6566 1d6d 17       		.uleb128 0x17
 6567 1d6e 75030000 		.4byte	0x375
 6568 1d72 1E160000 		.4byte	.LLST120
 6569 1d76 1A       		.uleb128 0x1a
 6570 1d77 36000000 		.4byte	.LVL285
 6571 1d7b 08200000 		.4byte	0x2008
 6572 1d7f 951D0000 		.4byte	0x1d95
 6573 1d83 13       		.uleb128 0x13
 6574 1d84 01       		.uleb128 0x1
 6575 1d85 50       		.byte	0x50
 6576 1d86 02       		.uleb128 0x2
 6577 1d87 75       		.byte	0x75
 6578 1d88 00       		.sleb128 0
 6579 1d89 13       		.uleb128 0x13
 6580 1d8a 01       		.uleb128 0x1
 6581 1d8b 51       		.byte	0x51
 6582 1d8c 02       		.uleb128 0x2
 6583 1d8d 08       		.byte	0x8
 6584 1d8e 4C       		.byte	0x4c
 6585 1d8f 13       		.uleb128 0x13
 6586 1d90 01       		.uleb128 0x1
 6587 1d91 52       		.byte	0x52
 6588 1d92 01       		.uleb128 0x1
 6589 1d93 31       		.byte	0x31
 6590 1d94 00       		.byte	0
 6591 1d95 19       		.uleb128 0x19
 6592 1d96 3C000000 		.4byte	.LVL286
 6593 1d9a B6030000 		.4byte	0x3b6
 6594 1d9e 13       		.uleb128 0x13
 6595 1d9f 01       		.uleb128 0x1
 6596 1da0 50       		.byte	0x50
 6597 1da1 02       		.uleb128 0x2
 6598 1da2 75       		.byte	0x75
 6599 1da3 00       		.sleb128 0
 6600 1da4 00       		.byte	0
 6601 1da5 00       		.byte	0
 6602 1da6 18       		.uleb128 0x18
 6603 1da7 4E030000 		.4byte	0x34e
ARM GAS  C:\Users\info\AppData\Local\Temp\ccAWUQ53.s 			page 134


 6604 1dab 3C000000 		.4byte	.LBB262
 6605 1daf 0A000000 		.4byte	.LBE262-.LBB262
 6606 1db3 01       		.byte	0x1
 6607 1db4 1202     		.2byte	0x212
 6608 1db6 DF1D0000 		.4byte	0x1ddf
 6609 1dba 17       		.uleb128 0x17
 6610 1dbb 5B030000 		.4byte	0x35b
 6611 1dbf 31160000 		.4byte	.LLST121
 6612 1dc3 19       		.uleb128 0x19
 6613 1dc4 46000000 		.4byte	.LVL287
 6614 1dc8 08200000 		.4byte	0x2008
 6615 1dcc 13       		.uleb128 0x13
 6616 1dcd 01       		.uleb128 0x1
 6617 1dce 50       		.byte	0x50
 6618 1dcf 02       		.uleb128 0x2
 6619 1dd0 75       		.byte	0x75
 6620 1dd1 00       		.sleb128 0
 6621 1dd2 13       		.uleb128 0x13
 6622 1dd3 01       		.uleb128 0x1
 6623 1dd4 51       		.byte	0x51
 6624 1dd5 02       		.uleb128 0x2
 6625 1dd6 08       		.byte	0x8
 6626 1dd7 4D       		.byte	0x4d
 6627 1dd8 13       		.uleb128 0x13
 6628 1dd9 01       		.uleb128 0x1
 6629 1dda 52       		.byte	0x52
 6630 1ddb 01       		.uleb128 0x1
 6631 1ddc 31       		.byte	0x31
 6632 1ddd 00       		.byte	0
 6633 1dde 00       		.byte	0
 6634 1ddf 1A       		.uleb128 0x1a
 6635 1de0 2C000000 		.4byte	.LVL284
 6636 1de4 B6030000 		.4byte	0x3b6
 6637 1de8 F31D0000 		.4byte	0x1df3
 6638 1dec 13       		.uleb128 0x13
 6639 1ded 01       		.uleb128 0x1
 6640 1dee 50       		.byte	0x50
 6641 1def 02       		.uleb128 0x2
 6642 1df0 75       		.byte	0x75
 6643 1df1 00       		.sleb128 0
 6644 1df2 00       		.byte	0
 6645 1df3 19       		.uleb128 0x19
 6646 1df4 4C000000 		.4byte	.LVL288
 6647 1df8 B6030000 		.4byte	0x3b6
 6648 1dfc 13       		.uleb128 0x13
 6649 1dfd 01       		.uleb128 0x1
 6650 1dfe 50       		.byte	0x50
 6651 1dff 02       		.uleb128 0x2
 6652 1e00 75       		.byte	0x75
 6653 1e01 00       		.sleb128 0
 6654 1e02 00       		.byte	0
 6655 1e03 00       		.byte	0
 6656 1e04 18       		.uleb128 0x18
 6657 1e05 4B1C0000 		.4byte	0x1c4b
 6658 1e09 56000000 		.4byte	.LBB264
 6659 1e0d 18000000 		.4byte	.LBE264-.LBB264
 6660 1e11 01       		.byte	0x1
ARM GAS  C:\Users\info\AppData\Local\Temp\ccAWUQ53.s 			page 135


 6661 1e12 5402     		.2byte	0x254
 6662 1e14 701E0000 		.4byte	0x1e70
 6663 1e18 17       		.uleb128 0x17
 6664 1e19 581C0000 		.4byte	0x1c58
 6665 1e1d 44160000 		.4byte	.LLST122
 6666 1e21 1A       		.uleb128 0x1a
 6667 1e22 5E000000 		.4byte	.LVL292
 6668 1e26 08200000 		.4byte	0x2008
 6669 1e2a 401E0000 		.4byte	0x1e40
 6670 1e2e 13       		.uleb128 0x13
 6671 1e2f 01       		.uleb128 0x1
 6672 1e30 50       		.byte	0x50
 6673 1e31 02       		.uleb128 0x2
 6674 1e32 75       		.byte	0x75
 6675 1e33 00       		.sleb128 0
 6676 1e34 13       		.uleb128 0x13
 6677 1e35 01       		.uleb128 0x1
 6678 1e36 51       		.byte	0x51
 6679 1e37 02       		.uleb128 0x2
 6680 1e38 08       		.byte	0x8
 6681 1e39 4C       		.byte	0x4c
 6682 1e3a 13       		.uleb128 0x13
 6683 1e3b 01       		.uleb128 0x1
 6684 1e3c 52       		.byte	0x52
 6685 1e3d 01       		.uleb128 0x1
 6686 1e3e 31       		.byte	0x31
 6687 1e3f 00       		.byte	0
 6688 1e40 1A       		.uleb128 0x1a
 6689 1e41 68000000 		.4byte	.LVL293
 6690 1e45 08200000 		.4byte	0x2008
 6691 1e49 5F1E0000 		.4byte	0x1e5f
 6692 1e4d 13       		.uleb128 0x13
 6693 1e4e 01       		.uleb128 0x1
 6694 1e4f 50       		.byte	0x50
 6695 1e50 02       		.uleb128 0x2
 6696 1e51 75       		.byte	0x75
 6697 1e52 00       		.sleb128 0
 6698 1e53 13       		.uleb128 0x13
 6699 1e54 01       		.uleb128 0x1
 6700 1e55 51       		.byte	0x51
 6701 1e56 02       		.uleb128 0x2
 6702 1e57 08       		.byte	0x8
 6703 1e58 4D       		.byte	0x4d
 6704 1e59 13       		.uleb128 0x13
 6705 1e5a 01       		.uleb128 0x1
 6706 1e5b 52       		.byte	0x52
 6707 1e5c 01       		.uleb128 0x1
 6708 1e5d 31       		.byte	0x31
 6709 1e5e 00       		.byte	0
 6710 1e5f 19       		.uleb128 0x19
 6711 1e60 6E000000 		.4byte	.LVL294
 6712 1e64 B6030000 		.4byte	0x3b6
 6713 1e68 13       		.uleb128 0x13
 6714 1e69 01       		.uleb128 0x1
 6715 1e6a 50       		.byte	0x50
 6716 1e6b 02       		.uleb128 0x2
 6717 1e6c 75       		.byte	0x75
ARM GAS  C:\Users\info\AppData\Local\Temp\ccAWUQ53.s 			page 136


 6718 1e6d 00       		.sleb128 0
 6719 1e6e 00       		.byte	0
 6720 1e6f 00       		.byte	0
 6721 1e70 16       		.uleb128 0x16
 6722 1e71 651C0000 		.4byte	0x1c65
 6723 1e75 90000000 		.4byte	.LBB266
 6724 1e79 E0000000 		.4byte	.Ldebug_ranges0+0xe0
 6725 1e7d 01       		.byte	0x1
 6726 1e7e 5902     		.2byte	0x259
 6727 1e80 E31F0000 		.4byte	0x1fe3
 6728 1e84 17       		.uleb128 0x17
 6729 1e85 721C0000 		.4byte	0x1c72
 6730 1e89 62160000 		.4byte	.LLST123
 6731 1e8d 18       		.uleb128 0x18
 6732 1e8e 4E030000 		.4byte	0x34e
 6733 1e92 96000000 		.4byte	.LBB268
 6734 1e96 08000000 		.4byte	.LBE268-.LBB268
 6735 1e9a 01       		.byte	0x1
 6736 1e9b FB01     		.2byte	0x1fb
 6737 1e9d C61E0000 		.4byte	0x1ec6
 6738 1ea1 17       		.uleb128 0x17
 6739 1ea2 5B030000 		.4byte	0x35b
 6740 1ea6 80160000 		.4byte	.LLST124
 6741 1eaa 19       		.uleb128 0x19
 6742 1eab 9E000000 		.4byte	.LVL302
 6743 1eaf 08200000 		.4byte	0x2008
 6744 1eb3 13       		.uleb128 0x13
 6745 1eb4 01       		.uleb128 0x1
 6746 1eb5 50       		.byte	0x50
 6747 1eb6 02       		.uleb128 0x2
 6748 1eb7 75       		.byte	0x75
 6749 1eb8 00       		.sleb128 0
 6750 1eb9 13       		.uleb128 0x13
 6751 1eba 01       		.uleb128 0x1
 6752 1ebb 51       		.byte	0x51
 6753 1ebc 02       		.uleb128 0x2
 6754 1ebd 08       		.byte	0x8
 6755 1ebe 4D       		.byte	0x4d
 6756 1ebf 13       		.uleb128 0x13
 6757 1ec0 01       		.uleb128 0x1
 6758 1ec1 52       		.byte	0x52
 6759 1ec2 01       		.uleb128 0x1
 6760 1ec3 31       		.byte	0x31
 6761 1ec4 00       		.byte	0
 6762 1ec5 00       		.byte	0
 6763 1ec6 18       		.uleb128 0x18
 6764 1ec7 68030000 		.4byte	0x368
 6765 1ecb A4000000 		.4byte	.LBB270
 6766 1ecf 10000000 		.4byte	.LBE270-.LBB270
 6767 1ed3 01       		.byte	0x1
 6768 1ed4 FD01     		.2byte	0x1fd
 6769 1ed6 131F0000 		.4byte	0x1f13
 6770 1eda 17       		.uleb128 0x17
 6771 1edb 75030000 		.4byte	0x375
 6772 1edf 9E160000 		.4byte	.LLST125
 6773 1ee3 1A       		.uleb128 0x1a
 6774 1ee4 AE000000 		.4byte	.LVL304
ARM GAS  C:\Users\info\AppData\Local\Temp\ccAWUQ53.s 			page 137


 6775 1ee8 08200000 		.4byte	0x2008
 6776 1eec 021F0000 		.4byte	0x1f02
 6777 1ef0 13       		.uleb128 0x13
 6778 1ef1 01       		.uleb128 0x1
 6779 1ef2 50       		.byte	0x50
 6780 1ef3 02       		.uleb128 0x2
 6781 1ef4 75       		.byte	0x75
 6782 1ef5 00       		.sleb128 0
 6783 1ef6 13       		.uleb128 0x13
 6784 1ef7 01       		.uleb128 0x1
 6785 1ef8 51       		.byte	0x51
 6786 1ef9 02       		.uleb128 0x2
 6787 1efa 08       		.byte	0x8
 6788 1efb 4C       		.byte	0x4c
 6789 1efc 13       		.uleb128 0x13
 6790 1efd 01       		.uleb128 0x1
 6791 1efe 52       		.byte	0x52
 6792 1eff 01       		.uleb128 0x1
 6793 1f00 31       		.byte	0x31
 6794 1f01 00       		.byte	0
 6795 1f02 19       		.uleb128 0x19
 6796 1f03 B4000000 		.4byte	.LVL305
 6797 1f07 B6030000 		.4byte	0x3b6
 6798 1f0b 13       		.uleb128 0x13
 6799 1f0c 01       		.uleb128 0x1
 6800 1f0d 50       		.byte	0x50
 6801 1f0e 02       		.uleb128 0x2
 6802 1f0f 75       		.byte	0x75
 6803 1f10 00       		.sleb128 0
 6804 1f11 00       		.byte	0
 6805 1f12 00       		.byte	0
 6806 1f13 18       		.uleb128 0x18
 6807 1f14 4E030000 		.4byte	0x34e
 6808 1f18 B4000000 		.4byte	.LBB272
 6809 1f1c 0A000000 		.4byte	.LBE272-.LBB272
 6810 1f20 01       		.byte	0x1
 6811 1f21 FF01     		.2byte	0x1ff
 6812 1f23 4C1F0000 		.4byte	0x1f4c
 6813 1f27 17       		.uleb128 0x17
 6814 1f28 5B030000 		.4byte	0x35b
 6815 1f2c B1160000 		.4byte	.LLST126
 6816 1f30 19       		.uleb128 0x19
 6817 1f31 BE000000 		.4byte	.LVL306
 6818 1f35 08200000 		.4byte	0x2008
 6819 1f39 13       		.uleb128 0x13
 6820 1f3a 01       		.uleb128 0x1
 6821 1f3b 50       		.byte	0x50
 6822 1f3c 02       		.uleb128 0x2
 6823 1f3d 75       		.byte	0x75
 6824 1f3e 00       		.sleb128 0
 6825 1f3f 13       		.uleb128 0x13
 6826 1f40 01       		.uleb128 0x1
 6827 1f41 51       		.byte	0x51
 6828 1f42 02       		.uleb128 0x2
 6829 1f43 08       		.byte	0x8
 6830 1f44 4D       		.byte	0x4d
 6831 1f45 13       		.uleb128 0x13
ARM GAS  C:\Users\info\AppData\Local\Temp\ccAWUQ53.s 			page 138


 6832 1f46 01       		.uleb128 0x1
 6833 1f47 52       		.byte	0x52
 6834 1f48 01       		.uleb128 0x1
 6835 1f49 31       		.byte	0x31
 6836 1f4a 00       		.byte	0
 6837 1f4b 00       		.byte	0
 6838 1f4c 18       		.uleb128 0x18
 6839 1f4d 82030000 		.4byte	0x382
 6840 1f51 BE000000 		.4byte	.LBB274
 6841 1f55 0A000000 		.4byte	.LBE274-.LBB274
 6842 1f59 01       		.byte	0x1
 6843 1f5a 0102     		.2byte	0x201
 6844 1f5c 851F0000 		.4byte	0x1f85
 6845 1f60 17       		.uleb128 0x17
 6846 1f61 8F030000 		.4byte	0x38f
 6847 1f65 C4160000 		.4byte	.LLST127
 6848 1f69 19       		.uleb128 0x19
 6849 1f6a C8000000 		.4byte	.LVL307
 6850 1f6e 08200000 		.4byte	0x2008
 6851 1f72 13       		.uleb128 0x13
 6852 1f73 01       		.uleb128 0x1
 6853 1f74 50       		.byte	0x50
 6854 1f75 02       		.uleb128 0x2
 6855 1f76 75       		.byte	0x75
 6856 1f77 00       		.sleb128 0
 6857 1f78 13       		.uleb128 0x13
 6858 1f79 01       		.uleb128 0x1
 6859 1f7a 51       		.byte	0x51
 6860 1f7b 02       		.uleb128 0x2
 6861 1f7c 08       		.byte	0x8
 6862 1f7d 4D       		.byte	0x4d
 6863 1f7e 13       		.uleb128 0x13
 6864 1f7f 01       		.uleb128 0x1
 6865 1f80 52       		.byte	0x52
 6866 1f81 01       		.uleb128 0x1
 6867 1f82 30       		.byte	0x30
 6868 1f83 00       		.byte	0
 6869 1f84 00       		.byte	0
 6870 1f85 18       		.uleb128 0x18
 6871 1f86 9C030000 		.4byte	0x39c
 6872 1f8a D0000000 		.4byte	.LBB276
 6873 1f8e 0A000000 		.4byte	.LBE276-.LBB276
 6874 1f92 01       		.byte	0x1
 6875 1f93 0302     		.2byte	0x203
 6876 1f95 BE1F0000 		.4byte	0x1fbe
 6877 1f99 17       		.uleb128 0x17
 6878 1f9a A9030000 		.4byte	0x3a9
 6879 1f9e D7160000 		.4byte	.LLST128
 6880 1fa2 19       		.uleb128 0x19
 6881 1fa3 DA000000 		.4byte	.LVL310
 6882 1fa7 08200000 		.4byte	0x2008
 6883 1fab 13       		.uleb128 0x13
 6884 1fac 01       		.uleb128 0x1
 6885 1fad 50       		.byte	0x50
 6886 1fae 02       		.uleb128 0x2
 6887 1faf 75       		.byte	0x75
 6888 1fb0 00       		.sleb128 0
ARM GAS  C:\Users\info\AppData\Local\Temp\ccAWUQ53.s 			page 139


 6889 1fb1 13       		.uleb128 0x13
 6890 1fb2 01       		.uleb128 0x1
 6891 1fb3 51       		.byte	0x51
 6892 1fb4 02       		.uleb128 0x2
 6893 1fb5 08       		.byte	0x8
 6894 1fb6 4C       		.byte	0x4c
 6895 1fb7 13       		.uleb128 0x13
 6896 1fb8 01       		.uleb128 0x1
 6897 1fb9 52       		.byte	0x52
 6898 1fba 01       		.uleb128 0x1
 6899 1fbb 30       		.byte	0x30
 6900 1fbc 00       		.byte	0
 6901 1fbd 00       		.byte	0
 6902 1fbe 1A       		.uleb128 0x1a
 6903 1fbf A4000000 		.4byte	.LVL303
 6904 1fc3 B6030000 		.4byte	0x3b6
 6905 1fc7 D21F0000 		.4byte	0x1fd2
 6906 1fcb 13       		.uleb128 0x13
 6907 1fcc 01       		.uleb128 0x1
 6908 1fcd 50       		.byte	0x50
 6909 1fce 02       		.uleb128 0x2
 6910 1fcf 75       		.byte	0x75
 6911 1fd0 00       		.sleb128 0
 6912 1fd1 00       		.byte	0
 6913 1fd2 19       		.uleb128 0x19
 6914 1fd3 CE000000 		.4byte	.LVL308
 6915 1fd7 B6030000 		.4byte	0x3b6
 6916 1fdb 13       		.uleb128 0x13
 6917 1fdc 01       		.uleb128 0x1
 6918 1fdd 50       		.byte	0x50
 6919 1fde 02       		.uleb128 0x2
 6920 1fdf 75       		.byte	0x75
 6921 1fe0 00       		.sleb128 0
 6922 1fe1 00       		.byte	0
 6923 1fe2 00       		.byte	0
 6924 1fe3 1A       		.uleb128 0x1a
 6925 1fe4 88000000 		.4byte	.LVL298
 6926 1fe8 34040000 		.4byte	0x434
 6927 1fec F71F0000 		.4byte	0x1ff7
 6928 1ff0 13       		.uleb128 0x13
 6929 1ff1 01       		.uleb128 0x1
 6930 1ff2 50       		.byte	0x50
 6931 1ff3 02       		.uleb128 0x2
 6932 1ff4 75       		.byte	0x75
 6933 1ff5 00       		.sleb128 0
 6934 1ff6 00       		.byte	0
 6935 1ff7 19       		.uleb128 0x19
 6936 1ff8 E8000000 		.4byte	.LVL312
 6937 1ffc 34040000 		.4byte	0x434
 6938 2000 13       		.uleb128 0x13
 6939 2001 01       		.uleb128 0x1
 6940 2002 50       		.byte	0x50
 6941 2003 02       		.uleb128 0x2
 6942 2004 75       		.byte	0x75
 6943 2005 00       		.sleb128 0
 6944 2006 00       		.byte	0
 6945 2007 00       		.byte	0
ARM GAS  C:\Users\info\AppData\Local\Temp\ccAWUQ53.s 			page 140


 6946 2008 2B       		.uleb128 0x2b
 6947 2009 0E010000 		.4byte	.LASF98
 6948 200d 0E010000 		.4byte	.LASF98
 6949 2011 04       		.byte	0x4
 6950 2012 F502     		.2byte	0x2f5
 6951 2014 00       		.byte	0
 6952              		.section	.debug_abbrev,"",%progbits
 6953              	.Ldebug_abbrev0:
 6954 0000 01       		.uleb128 0x1
 6955 0001 11       		.uleb128 0x11
 6956 0002 01       		.byte	0x1
 6957 0003 25       		.uleb128 0x25
 6958 0004 0E       		.uleb128 0xe
 6959 0005 13       		.uleb128 0x13
 6960 0006 0B       		.uleb128 0xb
 6961 0007 03       		.uleb128 0x3
 6962 0008 0E       		.uleb128 0xe
 6963 0009 1B       		.uleb128 0x1b
 6964 000a 0E       		.uleb128 0xe
 6965 000b 55       		.uleb128 0x55
 6966 000c 17       		.uleb128 0x17
 6967 000d 11       		.uleb128 0x11
 6968 000e 01       		.uleb128 0x1
 6969 000f 10       		.uleb128 0x10
 6970 0010 17       		.uleb128 0x17
 6971 0011 00       		.byte	0
 6972 0012 00       		.byte	0
 6973 0013 02       		.uleb128 0x2
 6974 0014 24       		.uleb128 0x24
 6975 0015 00       		.byte	0
 6976 0016 0B       		.uleb128 0xb
 6977 0017 0B       		.uleb128 0xb
 6978 0018 3E       		.uleb128 0x3e
 6979 0019 0B       		.uleb128 0xb
 6980 001a 03       		.uleb128 0x3
 6981 001b 0E       		.uleb128 0xe
 6982 001c 00       		.byte	0
 6983 001d 00       		.byte	0
 6984 001e 03       		.uleb128 0x3
 6985 001f 16       		.uleb128 0x16
 6986 0020 00       		.byte	0
 6987 0021 03       		.uleb128 0x3
 6988 0022 0E       		.uleb128 0xe
 6989 0023 3A       		.uleb128 0x3a
 6990 0024 0B       		.uleb128 0xb
 6991 0025 3B       		.uleb128 0x3b
 6992 0026 0B       		.uleb128 0xb
 6993 0027 49       		.uleb128 0x49
 6994 0028 13       		.uleb128 0x13
 6995 0029 00       		.byte	0
 6996 002a 00       		.byte	0
 6997 002b 04       		.uleb128 0x4
 6998 002c 24       		.uleb128 0x24
 6999 002d 00       		.byte	0
 7000 002e 0B       		.uleb128 0xb
 7001 002f 0B       		.uleb128 0xb
 7002 0030 3E       		.uleb128 0x3e
ARM GAS  C:\Users\info\AppData\Local\Temp\ccAWUQ53.s 			page 141


 7003 0031 0B       		.uleb128 0xb
 7004 0032 03       		.uleb128 0x3
 7005 0033 08       		.uleb128 0x8
 7006 0034 00       		.byte	0
 7007 0035 00       		.byte	0
 7008 0036 05       		.uleb128 0x5
 7009 0037 0F       		.uleb128 0xf
 7010 0038 00       		.byte	0
 7011 0039 0B       		.uleb128 0xb
 7012 003a 0B       		.uleb128 0xb
 7013 003b 00       		.byte	0
 7014 003c 00       		.byte	0
 7015 003d 06       		.uleb128 0x6
 7016 003e 13       		.uleb128 0x13
 7017 003f 01       		.byte	0x1
 7018 0040 03       		.uleb128 0x3
 7019 0041 0E       		.uleb128 0xe
 7020 0042 0B       		.uleb128 0xb
 7021 0043 0B       		.uleb128 0xb
 7022 0044 3A       		.uleb128 0x3a
 7023 0045 0B       		.uleb128 0xb
 7024 0046 3B       		.uleb128 0x3b
 7025 0047 05       		.uleb128 0x5
 7026 0048 01       		.uleb128 0x1
 7027 0049 13       		.uleb128 0x13
 7028 004a 00       		.byte	0
 7029 004b 00       		.byte	0
 7030 004c 07       		.uleb128 0x7
 7031 004d 0D       		.uleb128 0xd
 7032 004e 00       		.byte	0
 7033 004f 03       		.uleb128 0x3
 7034 0050 0E       		.uleb128 0xe
 7035 0051 3A       		.uleb128 0x3a
 7036 0052 0B       		.uleb128 0xb
 7037 0053 3B       		.uleb128 0x3b
 7038 0054 05       		.uleb128 0x5
 7039 0055 49       		.uleb128 0x49
 7040 0056 13       		.uleb128 0x13
 7041 0057 38       		.uleb128 0x38
 7042 0058 0B       		.uleb128 0xb
 7043 0059 00       		.byte	0
 7044 005a 00       		.byte	0
 7045 005b 08       		.uleb128 0x8
 7046 005c 13       		.uleb128 0x13
 7047 005d 01       		.byte	0x1
 7048 005e 03       		.uleb128 0x3
 7049 005f 0E       		.uleb128 0xe
 7050 0060 0B       		.uleb128 0xb
 7051 0061 0B       		.uleb128 0xb
 7052 0062 3A       		.uleb128 0x3a
 7053 0063 0B       		.uleb128 0xb
 7054 0064 3B       		.uleb128 0x3b
 7055 0065 0B       		.uleb128 0xb
 7056 0066 01       		.uleb128 0x1
 7057 0067 13       		.uleb128 0x13
 7058 0068 00       		.byte	0
 7059 0069 00       		.byte	0
ARM GAS  C:\Users\info\AppData\Local\Temp\ccAWUQ53.s 			page 142


 7060 006a 09       		.uleb128 0x9
 7061 006b 0D       		.uleb128 0xd
 7062 006c 00       		.byte	0
 7063 006d 03       		.uleb128 0x3
 7064 006e 0E       		.uleb128 0xe
 7065 006f 3A       		.uleb128 0x3a
 7066 0070 0B       		.uleb128 0xb
 7067 0071 3B       		.uleb128 0x3b
 7068 0072 0B       		.uleb128 0xb
 7069 0073 49       		.uleb128 0x49
 7070 0074 13       		.uleb128 0x13
 7071 0075 38       		.uleb128 0x38
 7072 0076 0B       		.uleb128 0xb
 7073 0077 00       		.byte	0
 7074 0078 00       		.byte	0
 7075 0079 0A       		.uleb128 0xa
 7076 007a 0F       		.uleb128 0xf
 7077 007b 00       		.byte	0
 7078 007c 0B       		.uleb128 0xb
 7079 007d 0B       		.uleb128 0xb
 7080 007e 49       		.uleb128 0x49
 7081 007f 13       		.uleb128 0x13
 7082 0080 00       		.byte	0
 7083 0081 00       		.byte	0
 7084 0082 0B       		.uleb128 0xb
 7085 0083 15       		.uleb128 0x15
 7086 0084 01       		.byte	0x1
 7087 0085 27       		.uleb128 0x27
 7088 0086 19       		.uleb128 0x19
 7089 0087 49       		.uleb128 0x49
 7090 0088 13       		.uleb128 0x13
 7091 0089 01       		.uleb128 0x1
 7092 008a 13       		.uleb128 0x13
 7093 008b 00       		.byte	0
 7094 008c 00       		.byte	0
 7095 008d 0C       		.uleb128 0xc
 7096 008e 05       		.uleb128 0x5
 7097 008f 00       		.byte	0
 7098 0090 49       		.uleb128 0x49
 7099 0091 13       		.uleb128 0x13
 7100 0092 00       		.byte	0
 7101 0093 00       		.byte	0
 7102 0094 0D       		.uleb128 0xd
 7103 0095 26       		.uleb128 0x26
 7104 0096 00       		.byte	0
 7105 0097 49       		.uleb128 0x49
 7106 0098 13       		.uleb128 0x13
 7107 0099 00       		.byte	0
 7108 009a 00       		.byte	0
 7109 009b 0E       		.uleb128 0xe
 7110 009c 2E       		.uleb128 0x2e
 7111 009d 01       		.byte	0x1
 7112 009e 03       		.uleb128 0x3
 7113 009f 0E       		.uleb128 0xe
 7114 00a0 3A       		.uleb128 0x3a
 7115 00a1 0B       		.uleb128 0xb
 7116 00a2 3B       		.uleb128 0x3b
ARM GAS  C:\Users\info\AppData\Local\Temp\ccAWUQ53.s 			page 143


 7117 00a3 05       		.uleb128 0x5
 7118 00a4 27       		.uleb128 0x27
 7119 00a5 19       		.uleb128 0x19
 7120 00a6 20       		.uleb128 0x20
 7121 00a7 0B       		.uleb128 0xb
 7122 00a8 01       		.uleb128 0x1
 7123 00a9 13       		.uleb128 0x13
 7124 00aa 00       		.byte	0
 7125 00ab 00       		.byte	0
 7126 00ac 0F       		.uleb128 0xf
 7127 00ad 05       		.uleb128 0x5
 7128 00ae 00       		.byte	0
 7129 00af 03       		.uleb128 0x3
 7130 00b0 0E       		.uleb128 0xe
 7131 00b1 3A       		.uleb128 0x3a
 7132 00b2 0B       		.uleb128 0xb
 7133 00b3 3B       		.uleb128 0x3b
 7134 00b4 05       		.uleb128 0x5
 7135 00b5 49       		.uleb128 0x49
 7136 00b6 13       		.uleb128 0x13
 7137 00b7 00       		.byte	0
 7138 00b8 00       		.byte	0
 7139 00b9 10       		.uleb128 0x10
 7140 00ba 2E       		.uleb128 0x2e
 7141 00bb 01       		.byte	0x1
 7142 00bc 03       		.uleb128 0x3
 7143 00bd 0E       		.uleb128 0xe
 7144 00be 3A       		.uleb128 0x3a
 7145 00bf 0B       		.uleb128 0xb
 7146 00c0 3B       		.uleb128 0x3b
 7147 00c1 05       		.uleb128 0x5
 7148 00c2 27       		.uleb128 0x27
 7149 00c3 19       		.uleb128 0x19
 7150 00c4 11       		.uleb128 0x11
 7151 00c5 01       		.uleb128 0x1
 7152 00c6 12       		.uleb128 0x12
 7153 00c7 06       		.uleb128 0x6
 7154 00c8 40       		.uleb128 0x40
 7155 00c9 18       		.uleb128 0x18
 7156 00ca 9742     		.uleb128 0x2117
 7157 00cc 19       		.uleb128 0x19
 7158 00cd 01       		.uleb128 0x1
 7159 00ce 13       		.uleb128 0x13
 7160 00cf 00       		.byte	0
 7161 00d0 00       		.byte	0
 7162 00d1 11       		.uleb128 0x11
 7163 00d2 05       		.uleb128 0x5
 7164 00d3 00       		.byte	0
 7165 00d4 03       		.uleb128 0x3
 7166 00d5 0E       		.uleb128 0xe
 7167 00d6 3A       		.uleb128 0x3a
 7168 00d7 0B       		.uleb128 0xb
 7169 00d8 3B       		.uleb128 0x3b
 7170 00d9 05       		.uleb128 0x5
 7171 00da 49       		.uleb128 0x49
 7172 00db 13       		.uleb128 0x13
 7173 00dc 02       		.uleb128 0x2
ARM GAS  C:\Users\info\AppData\Local\Temp\ccAWUQ53.s 			page 144


 7174 00dd 17       		.uleb128 0x17
 7175 00de 00       		.byte	0
 7176 00df 00       		.byte	0
 7177 00e0 12       		.uleb128 0x12
 7178 00e1 898201   		.uleb128 0x4109
 7179 00e4 01       		.byte	0x1
 7180 00e5 11       		.uleb128 0x11
 7181 00e6 01       		.uleb128 0x1
 7182 00e7 9542     		.uleb128 0x2115
 7183 00e9 19       		.uleb128 0x19
 7184 00ea 31       		.uleb128 0x31
 7185 00eb 13       		.uleb128 0x13
 7186 00ec 00       		.byte	0
 7187 00ed 00       		.byte	0
 7188 00ee 13       		.uleb128 0x13
 7189 00ef 8A8201   		.uleb128 0x410a
 7190 00f2 00       		.byte	0
 7191 00f3 02       		.uleb128 0x2
 7192 00f4 18       		.uleb128 0x18
 7193 00f5 9142     		.uleb128 0x2111
 7194 00f7 18       		.uleb128 0x18
 7195 00f8 00       		.byte	0
 7196 00f9 00       		.byte	0
 7197 00fa 14       		.uleb128 0x14
 7198 00fb 05       		.uleb128 0x5
 7199 00fc 00       		.byte	0
 7200 00fd 03       		.uleb128 0x3
 7201 00fe 08       		.uleb128 0x8
 7202 00ff 3A       		.uleb128 0x3a
 7203 0100 0B       		.uleb128 0xb
 7204 0101 3B       		.uleb128 0x3b
 7205 0102 05       		.uleb128 0x5
 7206 0103 49       		.uleb128 0x49
 7207 0104 13       		.uleb128 0x13
 7208 0105 00       		.byte	0
 7209 0106 00       		.byte	0
 7210 0107 15       		.uleb128 0x15
 7211 0108 05       		.uleb128 0x5
 7212 0109 00       		.byte	0
 7213 010a 03       		.uleb128 0x3
 7214 010b 08       		.uleb128 0x8
 7215 010c 3A       		.uleb128 0x3a
 7216 010d 0B       		.uleb128 0xb
 7217 010e 3B       		.uleb128 0x3b
 7218 010f 05       		.uleb128 0x5
 7219 0110 49       		.uleb128 0x49
 7220 0111 13       		.uleb128 0x13
 7221 0112 02       		.uleb128 0x2
 7222 0113 17       		.uleb128 0x17
 7223 0114 00       		.byte	0
 7224 0115 00       		.byte	0
 7225 0116 16       		.uleb128 0x16
 7226 0117 1D       		.uleb128 0x1d
 7227 0118 01       		.byte	0x1
 7228 0119 31       		.uleb128 0x31
 7229 011a 13       		.uleb128 0x13
 7230 011b 52       		.uleb128 0x52
ARM GAS  C:\Users\info\AppData\Local\Temp\ccAWUQ53.s 			page 145


 7231 011c 01       		.uleb128 0x1
 7232 011d 55       		.uleb128 0x55
 7233 011e 17       		.uleb128 0x17
 7234 011f 58       		.uleb128 0x58
 7235 0120 0B       		.uleb128 0xb
 7236 0121 59       		.uleb128 0x59
 7237 0122 05       		.uleb128 0x5
 7238 0123 01       		.uleb128 0x1
 7239 0124 13       		.uleb128 0x13
 7240 0125 00       		.byte	0
 7241 0126 00       		.byte	0
 7242 0127 17       		.uleb128 0x17
 7243 0128 05       		.uleb128 0x5
 7244 0129 00       		.byte	0
 7245 012a 31       		.uleb128 0x31
 7246 012b 13       		.uleb128 0x13
 7247 012c 02       		.uleb128 0x2
 7248 012d 17       		.uleb128 0x17
 7249 012e 00       		.byte	0
 7250 012f 00       		.byte	0
 7251 0130 18       		.uleb128 0x18
 7252 0131 1D       		.uleb128 0x1d
 7253 0132 01       		.byte	0x1
 7254 0133 31       		.uleb128 0x31
 7255 0134 13       		.uleb128 0x13
 7256 0135 11       		.uleb128 0x11
 7257 0136 01       		.uleb128 0x1
 7258 0137 12       		.uleb128 0x12
 7259 0138 06       		.uleb128 0x6
 7260 0139 58       		.uleb128 0x58
 7261 013a 0B       		.uleb128 0xb
 7262 013b 59       		.uleb128 0x59
 7263 013c 05       		.uleb128 0x5
 7264 013d 01       		.uleb128 0x1
 7265 013e 13       		.uleb128 0x13
 7266 013f 00       		.byte	0
 7267 0140 00       		.byte	0
 7268 0141 19       		.uleb128 0x19
 7269 0142 898201   		.uleb128 0x4109
 7270 0145 01       		.byte	0x1
 7271 0146 11       		.uleb128 0x11
 7272 0147 01       		.uleb128 0x1
 7273 0148 31       		.uleb128 0x31
 7274 0149 13       		.uleb128 0x13
 7275 014a 00       		.byte	0
 7276 014b 00       		.byte	0
 7277 014c 1A       		.uleb128 0x1a
 7278 014d 898201   		.uleb128 0x4109
 7279 0150 01       		.byte	0x1
 7280 0151 11       		.uleb128 0x11
 7281 0152 01       		.uleb128 0x1
 7282 0153 31       		.uleb128 0x31
 7283 0154 13       		.uleb128 0x13
 7284 0155 01       		.uleb128 0x1
 7285 0156 13       		.uleb128 0x13
 7286 0157 00       		.byte	0
 7287 0158 00       		.byte	0
ARM GAS  C:\Users\info\AppData\Local\Temp\ccAWUQ53.s 			page 146


 7288 0159 1B       		.uleb128 0x1b
 7289 015a 05       		.uleb128 0x5
 7290 015b 00       		.byte	0
 7291 015c 31       		.uleb128 0x31
 7292 015d 13       		.uleb128 0x13
 7293 015e 02       		.uleb128 0x2
 7294 015f 18       		.uleb128 0x18
 7295 0160 00       		.byte	0
 7296 0161 00       		.byte	0
 7297 0162 1C       		.uleb128 0x1c
 7298 0163 1D       		.uleb128 0x1d
 7299 0164 01       		.byte	0x1
 7300 0165 31       		.uleb128 0x31
 7301 0166 13       		.uleb128 0x13
 7302 0167 52       		.uleb128 0x52
 7303 0168 01       		.uleb128 0x1
 7304 0169 55       		.uleb128 0x55
 7305 016a 17       		.uleb128 0x17
 7306 016b 58       		.uleb128 0x58
 7307 016c 0B       		.uleb128 0xb
 7308 016d 59       		.uleb128 0x59
 7309 016e 05       		.uleb128 0x5
 7310 016f 00       		.byte	0
 7311 0170 00       		.byte	0
 7312 0171 1D       		.uleb128 0x1d
 7313 0172 2E       		.uleb128 0x2e
 7314 0173 01       		.byte	0x1
 7315 0174 3F       		.uleb128 0x3f
 7316 0175 19       		.uleb128 0x19
 7317 0176 03       		.uleb128 0x3
 7318 0177 0E       		.uleb128 0xe
 7319 0178 3A       		.uleb128 0x3a
 7320 0179 0B       		.uleb128 0xb
 7321 017a 3B       		.uleb128 0x3b
 7322 017b 0B       		.uleb128 0xb
 7323 017c 27       		.uleb128 0x27
 7324 017d 19       		.uleb128 0x19
 7325 017e 49       		.uleb128 0x49
 7326 017f 13       		.uleb128 0x13
 7327 0180 11       		.uleb128 0x11
 7328 0181 01       		.uleb128 0x1
 7329 0182 12       		.uleb128 0x12
 7330 0183 06       		.uleb128 0x6
 7331 0184 40       		.uleb128 0x40
 7332 0185 18       		.uleb128 0x18
 7333 0186 9742     		.uleb128 0x2117
 7334 0188 19       		.uleb128 0x19
 7335 0189 01       		.uleb128 0x1
 7336 018a 13       		.uleb128 0x13
 7337 018b 00       		.byte	0
 7338 018c 00       		.byte	0
 7339 018d 1E       		.uleb128 0x1e
 7340 018e 05       		.uleb128 0x5
 7341 018f 00       		.byte	0
 7342 0190 03       		.uleb128 0x3
 7343 0191 0E       		.uleb128 0xe
 7344 0192 3A       		.uleb128 0x3a
ARM GAS  C:\Users\info\AppData\Local\Temp\ccAWUQ53.s 			page 147


 7345 0193 0B       		.uleb128 0xb
 7346 0194 3B       		.uleb128 0x3b
 7347 0195 0B       		.uleb128 0xb
 7348 0196 49       		.uleb128 0x49
 7349 0197 13       		.uleb128 0x13
 7350 0198 02       		.uleb128 0x2
 7351 0199 17       		.uleb128 0x17
 7352 019a 00       		.byte	0
 7353 019b 00       		.byte	0
 7354 019c 1F       		.uleb128 0x1f
 7355 019d 05       		.uleb128 0x5
 7356 019e 00       		.byte	0
 7357 019f 03       		.uleb128 0x3
 7358 01a0 08       		.uleb128 0x8
 7359 01a1 3A       		.uleb128 0x3a
 7360 01a2 0B       		.uleb128 0xb
 7361 01a3 3B       		.uleb128 0x3b
 7362 01a4 0B       		.uleb128 0xb
 7363 01a5 49       		.uleb128 0x49
 7364 01a6 13       		.uleb128 0x13
 7365 01a7 02       		.uleb128 0x2
 7366 01a8 17       		.uleb128 0x17
 7367 01a9 00       		.byte	0
 7368 01aa 00       		.byte	0
 7369 01ab 20       		.uleb128 0x20
 7370 01ac 898201   		.uleb128 0x4109
 7371 01af 01       		.byte	0x1
 7372 01b0 11       		.uleb128 0x11
 7373 01b1 01       		.uleb128 0x1
 7374 01b2 9542     		.uleb128 0x2115
 7375 01b4 19       		.uleb128 0x19
 7376 01b5 00       		.byte	0
 7377 01b6 00       		.byte	0
 7378 01b7 21       		.uleb128 0x21
 7379 01b8 05       		.uleb128 0x5
 7380 01b9 00       		.byte	0
 7381 01ba 03       		.uleb128 0x3
 7382 01bb 08       		.uleb128 0x8
 7383 01bc 3A       		.uleb128 0x3a
 7384 01bd 0B       		.uleb128 0xb
 7385 01be 3B       		.uleb128 0x3b
 7386 01bf 0B       		.uleb128 0xb
 7387 01c0 49       		.uleb128 0x49
 7388 01c1 13       		.uleb128 0x13
 7389 01c2 02       		.uleb128 0x2
 7390 01c3 18       		.uleb128 0x18
 7391 01c4 00       		.byte	0
 7392 01c5 00       		.byte	0
 7393 01c6 22       		.uleb128 0x22
 7394 01c7 05       		.uleb128 0x5
 7395 01c8 00       		.byte	0
 7396 01c9 03       		.uleb128 0x3
 7397 01ca 0E       		.uleb128 0xe
 7398 01cb 3A       		.uleb128 0x3a
 7399 01cc 0B       		.uleb128 0xb
 7400 01cd 3B       		.uleb128 0x3b
 7401 01ce 0B       		.uleb128 0xb
ARM GAS  C:\Users\info\AppData\Local\Temp\ccAWUQ53.s 			page 148


 7402 01cf 49       		.uleb128 0x49
 7403 01d0 13       		.uleb128 0x13
 7404 01d1 02       		.uleb128 0x2
 7405 01d2 18       		.uleb128 0x18
 7406 01d3 00       		.byte	0
 7407 01d4 00       		.byte	0
 7408 01d5 23       		.uleb128 0x23
 7409 01d6 34       		.uleb128 0x34
 7410 01d7 00       		.byte	0
 7411 01d8 03       		.uleb128 0x3
 7412 01d9 08       		.uleb128 0x8
 7413 01da 3A       		.uleb128 0x3a
 7414 01db 0B       		.uleb128 0xb
 7415 01dc 3B       		.uleb128 0x3b
 7416 01dd 0B       		.uleb128 0xb
 7417 01de 49       		.uleb128 0x49
 7418 01df 13       		.uleb128 0x13
 7419 01e0 02       		.uleb128 0x2
 7420 01e1 17       		.uleb128 0x17
 7421 01e2 00       		.byte	0
 7422 01e3 00       		.byte	0
 7423 01e4 24       		.uleb128 0x24
 7424 01e5 34       		.uleb128 0x34
 7425 01e6 00       		.byte	0
 7426 01e7 03       		.uleb128 0x3
 7427 01e8 0E       		.uleb128 0xe
 7428 01e9 3A       		.uleb128 0x3a
 7429 01ea 0B       		.uleb128 0xb
 7430 01eb 3B       		.uleb128 0x3b
 7431 01ec 0B       		.uleb128 0xb
 7432 01ed 49       		.uleb128 0x49
 7433 01ee 13       		.uleb128 0x13
 7434 01ef 02       		.uleb128 0x2
 7435 01f0 17       		.uleb128 0x17
 7436 01f1 00       		.byte	0
 7437 01f2 00       		.byte	0
 7438 01f3 25       		.uleb128 0x25
 7439 01f4 898201   		.uleb128 0x4109
 7440 01f7 01       		.byte	0x1
 7441 01f8 11       		.uleb128 0x11
 7442 01f9 01       		.uleb128 0x1
 7443 01fa 9342     		.uleb128 0x2113
 7444 01fc 18       		.uleb128 0x18
 7445 01fd 01       		.uleb128 0x1
 7446 01fe 13       		.uleb128 0x13
 7447 01ff 00       		.byte	0
 7448 0200 00       		.byte	0
 7449 0201 26       		.uleb128 0x26
 7450 0202 2E       		.uleb128 0x2e
 7451 0203 01       		.byte	0x1
 7452 0204 3F       		.uleb128 0x3f
 7453 0205 19       		.uleb128 0x19
 7454 0206 03       		.uleb128 0x3
 7455 0207 0E       		.uleb128 0xe
 7456 0208 3A       		.uleb128 0x3a
 7457 0209 0B       		.uleb128 0xb
 7458 020a 3B       		.uleb128 0x3b
ARM GAS  C:\Users\info\AppData\Local\Temp\ccAWUQ53.s 			page 149


 7459 020b 05       		.uleb128 0x5
 7460 020c 27       		.uleb128 0x27
 7461 020d 19       		.uleb128 0x19
 7462 020e 49       		.uleb128 0x49
 7463 020f 13       		.uleb128 0x13
 7464 0210 11       		.uleb128 0x11
 7465 0211 01       		.uleb128 0x1
 7466 0212 12       		.uleb128 0x12
 7467 0213 06       		.uleb128 0x6
 7468 0214 40       		.uleb128 0x40
 7469 0215 18       		.uleb128 0x18
 7470 0216 9742     		.uleb128 0x2117
 7471 0218 19       		.uleb128 0x19
 7472 0219 01       		.uleb128 0x1
 7473 021a 13       		.uleb128 0x13
 7474 021b 00       		.byte	0
 7475 021c 00       		.byte	0
 7476 021d 27       		.uleb128 0x27
 7477 021e 34       		.uleb128 0x34
 7478 021f 00       		.byte	0
 7479 0220 03       		.uleb128 0x3
 7480 0221 08       		.uleb128 0x8
 7481 0222 3A       		.uleb128 0x3a
 7482 0223 0B       		.uleb128 0xb
 7483 0224 3B       		.uleb128 0x3b
 7484 0225 05       		.uleb128 0x5
 7485 0226 49       		.uleb128 0x49
 7486 0227 13       		.uleb128 0x13
 7487 0228 02       		.uleb128 0x2
 7488 0229 17       		.uleb128 0x17
 7489 022a 00       		.byte	0
 7490 022b 00       		.byte	0
 7491 022c 28       		.uleb128 0x28
 7492 022d 34       		.uleb128 0x34
 7493 022e 00       		.byte	0
 7494 022f 03       		.uleb128 0x3
 7495 0230 0E       		.uleb128 0xe
 7496 0231 3A       		.uleb128 0x3a
 7497 0232 0B       		.uleb128 0xb
 7498 0233 3B       		.uleb128 0x3b
 7499 0234 05       		.uleb128 0x5
 7500 0235 49       		.uleb128 0x49
 7501 0236 13       		.uleb128 0x13
 7502 0237 02       		.uleb128 0x2
 7503 0238 17       		.uleb128 0x17
 7504 0239 00       		.byte	0
 7505 023a 00       		.byte	0
 7506 023b 29       		.uleb128 0x29
 7507 023c 34       		.uleb128 0x34
 7508 023d 00       		.byte	0
 7509 023e 03       		.uleb128 0x3
 7510 023f 0E       		.uleb128 0xe
 7511 0240 3A       		.uleb128 0x3a
 7512 0241 0B       		.uleb128 0xb
 7513 0242 3B       		.uleb128 0x3b
 7514 0243 05       		.uleb128 0x5
 7515 0244 49       		.uleb128 0x49
ARM GAS  C:\Users\info\AppData\Local\Temp\ccAWUQ53.s 			page 150


 7516 0245 13       		.uleb128 0x13
 7517 0246 02       		.uleb128 0x2
 7518 0247 18       		.uleb128 0x18
 7519 0248 00       		.byte	0
 7520 0249 00       		.byte	0
 7521 024a 2A       		.uleb128 0x2a
 7522 024b 2E       		.uleb128 0x2e
 7523 024c 01       		.byte	0x1
 7524 024d 3F       		.uleb128 0x3f
 7525 024e 19       		.uleb128 0x19
 7526 024f 03       		.uleb128 0x3
 7527 0250 0E       		.uleb128 0xe
 7528 0251 3A       		.uleb128 0x3a
 7529 0252 0B       		.uleb128 0xb
 7530 0253 3B       		.uleb128 0x3b
 7531 0254 05       		.uleb128 0x5
 7532 0255 27       		.uleb128 0x27
 7533 0256 19       		.uleb128 0x19
 7534 0257 11       		.uleb128 0x11
 7535 0258 01       		.uleb128 0x1
 7536 0259 12       		.uleb128 0x12
 7537 025a 06       		.uleb128 0x6
 7538 025b 40       		.uleb128 0x40
 7539 025c 18       		.uleb128 0x18
 7540 025d 9742     		.uleb128 0x2117
 7541 025f 19       		.uleb128 0x19
 7542 0260 01       		.uleb128 0x1
 7543 0261 13       		.uleb128 0x13
 7544 0262 00       		.byte	0
 7545 0263 00       		.byte	0
 7546 0264 2B       		.uleb128 0x2b
 7547 0265 2E       		.uleb128 0x2e
 7548 0266 00       		.byte	0
 7549 0267 3F       		.uleb128 0x3f
 7550 0268 19       		.uleb128 0x19
 7551 0269 3C       		.uleb128 0x3c
 7552 026a 19       		.uleb128 0x19
 7553 026b 6E       		.uleb128 0x6e
 7554 026c 0E       		.uleb128 0xe
 7555 026d 03       		.uleb128 0x3
 7556 026e 0E       		.uleb128 0xe
 7557 026f 3A       		.uleb128 0x3a
 7558 0270 0B       		.uleb128 0xb
 7559 0271 3B       		.uleb128 0x3b
 7560 0272 05       		.uleb128 0x5
 7561 0273 00       		.byte	0
 7562 0274 00       		.byte	0
 7563 0275 00       		.byte	0
 7564              		.section	.debug_loc,"",%progbits
 7565              	.Ldebug_loc0:
 7566              	.LLST0:
 7567 0000 00000000 		.4byte	.LVL0
 7568 0004 09000000 		.4byte	.LVL1-1
 7569 0008 0100     		.2byte	0x1
 7570 000a 50       		.byte	0x50
 7571 000b 09000000 		.4byte	.LVL1-1
 7572 000f 0A000000 		.4byte	.LFE13
ARM GAS  C:\Users\info\AppData\Local\Temp\ccAWUQ53.s 			page 151


 7573 0013 0400     		.2byte	0x4
 7574 0015 F3       		.byte	0xf3
 7575 0016 01       		.uleb128 0x1
 7576 0017 50       		.byte	0x50
 7577 0018 9F       		.byte	0x9f
 7578 0019 00000000 		.4byte	0
 7579 001d 00000000 		.4byte	0
 7580              	.LLST1:
 7581 0021 00000000 		.4byte	.LVL2
 7582 0025 19000000 		.4byte	.LVL6-1
 7583 0029 0100     		.2byte	0x1
 7584 002b 50       		.byte	0x50
 7585 002c 19000000 		.4byte	.LVL6-1
 7586 0030 E0010000 		.4byte	.LVL60
 7587 0034 0100     		.2byte	0x1
 7588 0036 54       		.byte	0x54
 7589 0037 E0010000 		.4byte	.LVL60
 7590 003b E7010000 		.4byte	.LVL61-1
 7591 003f 0100     		.2byte	0x1
 7592 0041 50       		.byte	0x50
 7593 0042 E7010000 		.4byte	.LVL61-1
 7594 0046 E8010000 		.4byte	.LVL61
 7595 004a 0400     		.2byte	0x4
 7596 004c F3       		.byte	0xf3
 7597 004d 01       		.uleb128 0x1
 7598 004e 50       		.byte	0x50
 7599 004f 9F       		.byte	0x9f
 7600 0050 E8010000 		.4byte	.LVL61
 7601 0054 EF010000 		.4byte	.LVL63-1
 7602 0058 0100     		.2byte	0x1
 7603 005a 50       		.byte	0x50
 7604 005b EF010000 		.4byte	.LVL63-1
 7605 005f 3A020000 		.4byte	.LFE23
 7606 0063 0100     		.2byte	0x1
 7607 0065 54       		.byte	0x54
 7608 0066 00000000 		.4byte	0
 7609 006a 00000000 		.4byte	0
 7610              	.LLST2:
 7611 006e 00000000 		.4byte	.LVL2
 7612 0072 16000000 		.4byte	.LVL5
 7613 0076 0100     		.2byte	0x1
 7614 0078 51       		.byte	0x51
 7615 0079 16000000 		.4byte	.LVL5
 7616 007d E8010000 		.4byte	.LVL61
 7617 0081 0400     		.2byte	0x4
 7618 0083 F3       		.byte	0xf3
 7619 0084 01       		.uleb128 0x1
 7620 0085 51       		.byte	0x51
 7621 0086 9F       		.byte	0x9f
 7622 0087 E8010000 		.4byte	.LVL61
 7623 008b EC010000 		.4byte	.LVL62
 7624 008f 0100     		.2byte	0x1
 7625 0091 51       		.byte	0x51
 7626 0092 EC010000 		.4byte	.LVL62
 7627 0096 3A020000 		.4byte	.LFE23
 7628 009a 0400     		.2byte	0x4
 7629 009c F3       		.byte	0xf3
ARM GAS  C:\Users\info\AppData\Local\Temp\ccAWUQ53.s 			page 152


 7630 009d 01       		.uleb128 0x1
 7631 009e 51       		.byte	0x51
 7632 009f 9F       		.byte	0x9f
 7633 00a0 00000000 		.4byte	0
 7634 00a4 00000000 		.4byte	0
 7635              	.LLST3:
 7636 00a8 0A000000 		.4byte	.LVL3
 7637 00ac 3A000000 		.4byte	.LVL10
 7638 00b0 0600     		.2byte	0x6
 7639 00b2 75       		.byte	0x75
 7640 00b3 00       		.sleb128 0
 7641 00b4 09       		.byte	0x9
 7642 00b5 80       		.byte	0x80
 7643 00b6 1A       		.byte	0x1a
 7644 00b7 9F       		.byte	0x9f
 7645 00b8 E8010000 		.4byte	.LVL61
 7646 00bc F2010000 		.4byte	.LVL64
 7647 00c0 0600     		.2byte	0x6
 7648 00c2 75       		.byte	0x75
 7649 00c3 00       		.sleb128 0
 7650 00c4 09       		.byte	0x9
 7651 00c5 80       		.byte	0x80
 7652 00c6 1A       		.byte	0x1a
 7653 00c7 9F       		.byte	0x9f
 7654 00c8 00000000 		.4byte	0
 7655 00cc 00000000 		.4byte	0
 7656              	.LLST4:
 7657 00d0 0A000000 		.4byte	.LVL3
 7658 00d4 19000000 		.4byte	.LVL6-1
 7659 00d8 0100     		.2byte	0x1
 7660 00da 50       		.byte	0x50
 7661 00db 19000000 		.4byte	.LVL6-1
 7662 00df 3A000000 		.4byte	.LVL10
 7663 00e3 0100     		.2byte	0x1
 7664 00e5 54       		.byte	0x54
 7665 00e6 E8010000 		.4byte	.LVL61
 7666 00ea EF010000 		.4byte	.LVL63-1
 7667 00ee 0100     		.2byte	0x1
 7668 00f0 50       		.byte	0x50
 7669 00f1 EF010000 		.4byte	.LVL63-1
 7670 00f5 F2010000 		.4byte	.LVL64
 7671 00f9 0100     		.2byte	0x1
 7672 00fb 54       		.byte	0x54
 7673 00fc 00000000 		.4byte	0
 7674 0100 00000000 		.4byte	0
 7675              	.LLST5:
 7676 0104 14000000 		.4byte	.LVL4
 7677 0108 19000000 		.4byte	.LVL6-1
 7678 010c 0100     		.2byte	0x1
 7679 010e 50       		.byte	0x50
 7680 010f 19000000 		.4byte	.LVL6-1
 7681 0113 1A000000 		.4byte	.LVL6
 7682 0117 0100     		.2byte	0x1
 7683 0119 54       		.byte	0x54
 7684 011a 00000000 		.4byte	0
 7685 011e 00000000 		.4byte	0
 7686              	.LLST6:
ARM GAS  C:\Users\info\AppData\Local\Temp\ccAWUQ53.s 			page 153


 7687 0122 20000000 		.4byte	.LVL7
 7688 0126 30000000 		.4byte	.LVL9
 7689 012a 0100     		.2byte	0x1
 7690 012c 54       		.byte	0x54
 7691 012d 00000000 		.4byte	0
 7692 0131 00000000 		.4byte	0
 7693              	.LLST7:
 7694 0135 30000000 		.4byte	.LVL9
 7695 0139 3A000000 		.4byte	.LVL10
 7696 013d 0100     		.2byte	0x1
 7697 013f 54       		.byte	0x54
 7698 0140 00000000 		.4byte	0
 7699 0144 00000000 		.4byte	0
 7700              	.LLST8:
 7701 0148 E8010000 		.4byte	.LVL61
 7702 014c EF010000 		.4byte	.LVL63-1
 7703 0150 0100     		.2byte	0x1
 7704 0152 50       		.byte	0x50
 7705 0153 EF010000 		.4byte	.LVL63-1
 7706 0157 F2010000 		.4byte	.LVL64
 7707 015b 0100     		.2byte	0x1
 7708 015d 54       		.byte	0x54
 7709 015e 00000000 		.4byte	0
 7710 0162 00000000 		.4byte	0
 7711              	.LLST9:
 7712 0166 3A000000 		.4byte	.LVL10
 7713 016a 70000000 		.4byte	.LVL16
 7714 016e 0600     		.2byte	0x6
 7715 0170 75       		.byte	0x75
 7716 0171 00       		.sleb128 0
 7717 0172 08       		.byte	0x8
 7718 0173 40       		.byte	0x40
 7719 0174 1A       		.byte	0x1a
 7720 0175 9F       		.byte	0x9f
 7721 0176 2E020000 		.4byte	.LVL74
 7722 017a 3A020000 		.4byte	.LFE23
 7723 017e 0600     		.2byte	0x6
 7724 0180 75       		.byte	0x75
 7725 0181 00       		.sleb128 0
 7726 0182 08       		.byte	0x8
 7727 0183 40       		.byte	0x40
 7728 0184 1A       		.byte	0x1a
 7729 0185 9F       		.byte	0x9f
 7730 0186 00000000 		.4byte	0
 7731 018a 00000000 		.4byte	0
 7732              	.LLST10:
 7733 018e 3A000000 		.4byte	.LVL10
 7734 0192 70000000 		.4byte	.LVL16
 7735 0196 0100     		.2byte	0x1
 7736 0198 54       		.byte	0x54
 7737 0199 2E020000 		.4byte	.LVL74
 7738 019d 3A020000 		.4byte	.LFE23
 7739 01a1 0100     		.2byte	0x1
 7740 01a3 54       		.byte	0x54
 7741 01a4 00000000 		.4byte	0
 7742 01a8 00000000 		.4byte	0
 7743              	.LLST11:
ARM GAS  C:\Users\info\AppData\Local\Temp\ccAWUQ53.s 			page 154


 7744 01ac 48000000 		.4byte	.LVL11
 7745 01b0 50000000 		.4byte	.LVL12
 7746 01b4 0100     		.2byte	0x1
 7747 01b6 54       		.byte	0x54
 7748 01b7 00000000 		.4byte	0
 7749 01bb 00000000 		.4byte	0
 7750              	.LLST12:
 7751 01bf 56000000 		.4byte	.LVL13
 7752 01c3 66000000 		.4byte	.LVL15
 7753 01c7 0100     		.2byte	0x1
 7754 01c9 54       		.byte	0x54
 7755 01ca 00000000 		.4byte	0
 7756 01ce 00000000 		.4byte	0
 7757              	.LLST13:
 7758 01d2 66000000 		.4byte	.LVL15
 7759 01d6 70000000 		.4byte	.LVL16
 7760 01da 0100     		.2byte	0x1
 7761 01dc 54       		.byte	0x54
 7762 01dd 00000000 		.4byte	0
 7763 01e1 00000000 		.4byte	0
 7764              	.LLST14:
 7765 01e5 70000000 		.4byte	.LVL16
 7766 01e9 A6000000 		.4byte	.LVL22
 7767 01ed 0600     		.2byte	0x6
 7768 01ef 75       		.byte	0x75
 7769 01f0 00       		.sleb128 0
 7770 01f1 08       		.byte	0x8
 7771 01f2 20       		.byte	0x20
 7772 01f3 1A       		.byte	0x1a
 7773 01f4 9F       		.byte	0x9f
 7774 01f5 22020000 		.4byte	.LVL72
 7775 01f9 2E020000 		.4byte	.LVL74
 7776 01fd 0600     		.2byte	0x6
 7777 01ff 75       		.byte	0x75
 7778 0200 00       		.sleb128 0
 7779 0201 08       		.byte	0x8
 7780 0202 20       		.byte	0x20
 7781 0203 1A       		.byte	0x1a
 7782 0204 9F       		.byte	0x9f
 7783 0205 00000000 		.4byte	0
 7784 0209 00000000 		.4byte	0
 7785              	.LLST15:
 7786 020d 70000000 		.4byte	.LVL16
 7787 0211 A6000000 		.4byte	.LVL22
 7788 0215 0100     		.2byte	0x1
 7789 0217 54       		.byte	0x54
 7790 0218 22020000 		.4byte	.LVL72
 7791 021c 2E020000 		.4byte	.LVL74
 7792 0220 0100     		.2byte	0x1
 7793 0222 54       		.byte	0x54
 7794 0223 00000000 		.4byte	0
 7795 0227 00000000 		.4byte	0
 7796              	.LLST16:
 7797 022b 7E000000 		.4byte	.LVL17
 7798 022f 86000000 		.4byte	.LVL18
 7799 0233 0100     		.2byte	0x1
 7800 0235 54       		.byte	0x54
ARM GAS  C:\Users\info\AppData\Local\Temp\ccAWUQ53.s 			page 155


 7801 0236 00000000 		.4byte	0
 7802 023a 00000000 		.4byte	0
 7803              	.LLST17:
 7804 023e 8C000000 		.4byte	.LVL19
 7805 0242 9C000000 		.4byte	.LVL21
 7806 0246 0100     		.2byte	0x1
 7807 0248 54       		.byte	0x54
 7808 0249 00000000 		.4byte	0
 7809 024d 00000000 		.4byte	0
 7810              	.LLST18:
 7811 0251 9C000000 		.4byte	.LVL21
 7812 0255 A6000000 		.4byte	.LVL22
 7813 0259 0100     		.2byte	0x1
 7814 025b 54       		.byte	0x54
 7815 025c 00000000 		.4byte	0
 7816 0260 00000000 		.4byte	0
 7817              	.LLST19:
 7818 0264 22020000 		.4byte	.LVL72
 7819 0268 2E020000 		.4byte	.LVL74
 7820 026c 0100     		.2byte	0x1
 7821 026e 54       		.byte	0x54
 7822 026f 00000000 		.4byte	0
 7823 0273 00000000 		.4byte	0
 7824              	.LLST20:
 7825 0277 A6000000 		.4byte	.LVL22
 7826 027b DC000000 		.4byte	.LVL28
 7827 027f 0500     		.2byte	0x5
 7828 0281 75       		.byte	0x75
 7829 0282 00       		.sleb128 0
 7830 0283 40       		.byte	0x40
 7831 0284 1A       		.byte	0x1a
 7832 0285 9F       		.byte	0x9f
 7833 0286 16020000 		.4byte	.LVL70
 7834 028a 22020000 		.4byte	.LVL72
 7835 028e 0500     		.2byte	0x5
 7836 0290 75       		.byte	0x75
 7837 0291 00       		.sleb128 0
 7838 0292 40       		.byte	0x40
 7839 0293 1A       		.byte	0x1a
 7840 0294 9F       		.byte	0x9f
 7841 0295 00000000 		.4byte	0
 7842 0299 00000000 		.4byte	0
 7843              	.LLST21:
 7844 029d A6000000 		.4byte	.LVL22
 7845 02a1 DC000000 		.4byte	.LVL28
 7846 02a5 0100     		.2byte	0x1
 7847 02a7 54       		.byte	0x54
 7848 02a8 16020000 		.4byte	.LVL70
 7849 02ac 22020000 		.4byte	.LVL72
 7850 02b0 0100     		.2byte	0x1
 7851 02b2 54       		.byte	0x54
 7852 02b3 00000000 		.4byte	0
 7853 02b7 00000000 		.4byte	0
 7854              	.LLST22:
 7855 02bb B4000000 		.4byte	.LVL23
 7856 02bf BC000000 		.4byte	.LVL24
 7857 02c3 0100     		.2byte	0x1
ARM GAS  C:\Users\info\AppData\Local\Temp\ccAWUQ53.s 			page 156


 7858 02c5 54       		.byte	0x54
 7859 02c6 00000000 		.4byte	0
 7860 02ca 00000000 		.4byte	0
 7861              	.LLST23:
 7862 02ce C2000000 		.4byte	.LVL25
 7863 02d2 D2000000 		.4byte	.LVL27
 7864 02d6 0100     		.2byte	0x1
 7865 02d8 54       		.byte	0x54
 7866 02d9 00000000 		.4byte	0
 7867 02dd 00000000 		.4byte	0
 7868              	.LLST24:
 7869 02e1 D2000000 		.4byte	.LVL27
 7870 02e5 DC000000 		.4byte	.LVL28
 7871 02e9 0100     		.2byte	0x1
 7872 02eb 54       		.byte	0x54
 7873 02ec 00000000 		.4byte	0
 7874 02f0 00000000 		.4byte	0
 7875              	.LLST25:
 7876 02f4 16020000 		.4byte	.LVL70
 7877 02f8 22020000 		.4byte	.LVL72
 7878 02fc 0100     		.2byte	0x1
 7879 02fe 54       		.byte	0x54
 7880 02ff 00000000 		.4byte	0
 7881 0303 00000000 		.4byte	0
 7882              	.LLST26:
 7883 0307 DC000000 		.4byte	.LVL28
 7884 030b 12010000 		.4byte	.LVL34
 7885 030f 0500     		.2byte	0x5
 7886 0311 75       		.byte	0x75
 7887 0312 00       		.sleb128 0
 7888 0313 38       		.byte	0x38
 7889 0314 1A       		.byte	0x1a
 7890 0315 9F       		.byte	0x9f
 7891 0316 0A020000 		.4byte	.LVL68
 7892 031a 16020000 		.4byte	.LVL70
 7893 031e 0500     		.2byte	0x5
 7894 0320 75       		.byte	0x75
 7895 0321 00       		.sleb128 0
 7896 0322 38       		.byte	0x38
 7897 0323 1A       		.byte	0x1a
 7898 0324 9F       		.byte	0x9f
 7899 0325 00000000 		.4byte	0
 7900 0329 00000000 		.4byte	0
 7901              	.LLST27:
 7902 032d DC000000 		.4byte	.LVL28
 7903 0331 12010000 		.4byte	.LVL34
 7904 0335 0100     		.2byte	0x1
 7905 0337 54       		.byte	0x54
 7906 0338 0A020000 		.4byte	.LVL68
 7907 033c 16020000 		.4byte	.LVL70
 7908 0340 0100     		.2byte	0x1
 7909 0342 54       		.byte	0x54
 7910 0343 00000000 		.4byte	0
 7911 0347 00000000 		.4byte	0
 7912              	.LLST28:
 7913 034b EA000000 		.4byte	.LVL29
 7914 034f F2000000 		.4byte	.LVL30
ARM GAS  C:\Users\info\AppData\Local\Temp\ccAWUQ53.s 			page 157


 7915 0353 0100     		.2byte	0x1
 7916 0355 54       		.byte	0x54
 7917 0356 00000000 		.4byte	0
 7918 035a 00000000 		.4byte	0
 7919              	.LLST29:
 7920 035e F8000000 		.4byte	.LVL31
 7921 0362 08010000 		.4byte	.LVL33
 7922 0366 0100     		.2byte	0x1
 7923 0368 54       		.byte	0x54
 7924 0369 00000000 		.4byte	0
 7925 036d 00000000 		.4byte	0
 7926              	.LLST30:
 7927 0371 08010000 		.4byte	.LVL33
 7928 0375 12010000 		.4byte	.LVL34
 7929 0379 0100     		.2byte	0x1
 7930 037b 54       		.byte	0x54
 7931 037c 00000000 		.4byte	0
 7932 0380 00000000 		.4byte	0
 7933              	.LLST31:
 7934 0384 0A020000 		.4byte	.LVL68
 7935 0388 16020000 		.4byte	.LVL70
 7936 038c 0100     		.2byte	0x1
 7937 038e 54       		.byte	0x54
 7938 038f 00000000 		.4byte	0
 7939 0393 00000000 		.4byte	0
 7940              	.LLST32:
 7941 0397 12010000 		.4byte	.LVL34
 7942 039b 46010000 		.4byte	.LVL40
 7943 039f 0500     		.2byte	0x5
 7944 03a1 75       		.byte	0x75
 7945 03a2 00       		.sleb128 0
 7946 03a3 34       		.byte	0x34
 7947 03a4 1A       		.byte	0x1a
 7948 03a5 9F       		.byte	0x9f
 7949 03a6 FE010000 		.4byte	.LVL66
 7950 03aa 0A020000 		.4byte	.LVL68
 7951 03ae 0500     		.2byte	0x5
 7952 03b0 75       		.byte	0x75
 7953 03b1 00       		.sleb128 0
 7954 03b2 34       		.byte	0x34
 7955 03b3 1A       		.byte	0x1a
 7956 03b4 9F       		.byte	0x9f
 7957 03b5 00000000 		.4byte	0
 7958 03b9 00000000 		.4byte	0
 7959              	.LLST33:
 7960 03bd 12010000 		.4byte	.LVL34
 7961 03c1 46010000 		.4byte	.LVL40
 7962 03c5 0100     		.2byte	0x1
 7963 03c7 54       		.byte	0x54
 7964 03c8 FE010000 		.4byte	.LVL66
 7965 03cc 0A020000 		.4byte	.LVL68
 7966 03d0 0100     		.2byte	0x1
 7967 03d2 54       		.byte	0x54
 7968 03d3 00000000 		.4byte	0
 7969 03d7 00000000 		.4byte	0
 7970              	.LLST34:
 7971 03db 1E010000 		.4byte	.LVL35
ARM GAS  C:\Users\info\AppData\Local\Temp\ccAWUQ53.s 			page 158


 7972 03df 26010000 		.4byte	.LVL36
 7973 03e3 0100     		.2byte	0x1
 7974 03e5 54       		.byte	0x54
 7975 03e6 00000000 		.4byte	0
 7976 03ea 00000000 		.4byte	0
 7977              	.LLST35:
 7978 03ee 2C010000 		.4byte	.LVL37
 7979 03f2 3C010000 		.4byte	.LVL39
 7980 03f6 0100     		.2byte	0x1
 7981 03f8 54       		.byte	0x54
 7982 03f9 00000000 		.4byte	0
 7983 03fd 00000000 		.4byte	0
 7984              	.LLST36:
 7985 0401 3C010000 		.4byte	.LVL39
 7986 0405 46010000 		.4byte	.LVL40
 7987 0409 0100     		.2byte	0x1
 7988 040b 54       		.byte	0x54
 7989 040c 00000000 		.4byte	0
 7990 0410 00000000 		.4byte	0
 7991              	.LLST37:
 7992 0414 FE010000 		.4byte	.LVL66
 7993 0418 0A020000 		.4byte	.LVL68
 7994 041c 0100     		.2byte	0x1
 7995 041e 54       		.byte	0x54
 7996 041f 00000000 		.4byte	0
 7997 0423 00000000 		.4byte	0
 7998              	.LLST38:
 7999 0427 46010000 		.4byte	.LVL40
 8000 042b 7A010000 		.4byte	.LVL46
 8001 042f 0500     		.2byte	0x5
 8002 0431 75       		.byte	0x75
 8003 0432 00       		.sleb128 0
 8004 0433 32       		.byte	0x32
 8005 0434 1A       		.byte	0x1a
 8006 0435 9F       		.byte	0x9f
 8007 0436 F2010000 		.4byte	.LVL64
 8008 043a FE010000 		.4byte	.LVL66
 8009 043e 0500     		.2byte	0x5
 8010 0440 75       		.byte	0x75
 8011 0441 00       		.sleb128 0
 8012 0442 32       		.byte	0x32
 8013 0443 1A       		.byte	0x1a
 8014 0444 9F       		.byte	0x9f
 8015 0445 00000000 		.4byte	0
 8016 0449 00000000 		.4byte	0
 8017              	.LLST39:
 8018 044d 46010000 		.4byte	.LVL40
 8019 0451 7A010000 		.4byte	.LVL46
 8020 0455 0100     		.2byte	0x1
 8021 0457 54       		.byte	0x54
 8022 0458 F2010000 		.4byte	.LVL64
 8023 045c FE010000 		.4byte	.LVL66
 8024 0460 0100     		.2byte	0x1
 8025 0462 54       		.byte	0x54
 8026 0463 00000000 		.4byte	0
 8027 0467 00000000 		.4byte	0
 8028              	.LLST40:
ARM GAS  C:\Users\info\AppData\Local\Temp\ccAWUQ53.s 			page 159


 8029 046b 52010000 		.4byte	.LVL41
 8030 046f 5A010000 		.4byte	.LVL42
 8031 0473 0100     		.2byte	0x1
 8032 0475 54       		.byte	0x54
 8033 0476 00000000 		.4byte	0
 8034 047a 00000000 		.4byte	0
 8035              	.LLST41:
 8036 047e 60010000 		.4byte	.LVL43
 8037 0482 70010000 		.4byte	.LVL45
 8038 0486 0100     		.2byte	0x1
 8039 0488 54       		.byte	0x54
 8040 0489 00000000 		.4byte	0
 8041 048d 00000000 		.4byte	0
 8042              	.LLST42:
 8043 0491 70010000 		.4byte	.LVL45
 8044 0495 7A010000 		.4byte	.LVL46
 8045 0499 0100     		.2byte	0x1
 8046 049b 54       		.byte	0x54
 8047 049c 00000000 		.4byte	0
 8048 04a0 00000000 		.4byte	0
 8049              	.LLST43:
 8050 04a4 F2010000 		.4byte	.LVL64
 8051 04a8 FE010000 		.4byte	.LVL66
 8052 04ac 0100     		.2byte	0x1
 8053 04ae 54       		.byte	0x54
 8054 04af 00000000 		.4byte	0
 8055 04b3 00000000 		.4byte	0
 8056              	.LLST44:
 8057 04b7 7A010000 		.4byte	.LVL46
 8058 04bb AA010000 		.4byte	.LVL53
 8059 04bf 0500     		.2byte	0x5
 8060 04c1 75       		.byte	0x75
 8061 04c2 00       		.sleb128 0
 8062 04c3 31       		.byte	0x31
 8063 04c4 1A       		.byte	0x1a
 8064 04c5 9F       		.byte	0x9f
 8065 04c6 00000000 		.4byte	0
 8066 04ca 00000000 		.4byte	0
 8067              	.LLST45:
 8068 04ce 7A010000 		.4byte	.LVL46
 8069 04d2 AA010000 		.4byte	.LVL53
 8070 04d6 0100     		.2byte	0x1
 8071 04d8 54       		.byte	0x54
 8072 04d9 00000000 		.4byte	0
 8073 04dd 00000000 		.4byte	0
 8074              	.LLST46:
 8075 04e1 7E010000 		.4byte	.LVL47
 8076 04e5 E0010000 		.4byte	.LVL60
 8077 04e9 0100     		.2byte	0x1
 8078 04eb 54       		.byte	0x54
 8079 04ec E0010000 		.4byte	.LVL60
 8080 04f0 E7010000 		.4byte	.LVL61-1
 8081 04f4 0100     		.2byte	0x1
 8082 04f6 50       		.byte	0x50
 8083 04f7 E7010000 		.4byte	.LVL61-1
 8084 04fb E8010000 		.4byte	.LVL61
 8085 04ff 0400     		.2byte	0x4
ARM GAS  C:\Users\info\AppData\Local\Temp\ccAWUQ53.s 			page 160


 8086 0501 F3       		.byte	0xf3
 8087 0502 01       		.uleb128 0x1
 8088 0503 50       		.byte	0x50
 8089 0504 9F       		.byte	0x9f
 8090 0505 00000000 		.4byte	0
 8091 0509 00000000 		.4byte	0
 8092              	.LLST47:
 8093 050d 82010000 		.4byte	.LVL48
 8094 0511 E0010000 		.4byte	.LVL60
 8095 0515 0100     		.2byte	0x1
 8096 0517 54       		.byte	0x54
 8097 0518 E0010000 		.4byte	.LVL60
 8098 051c E7010000 		.4byte	.LVL61-1
 8099 0520 0100     		.2byte	0x1
 8100 0522 50       		.byte	0x50
 8101 0523 E7010000 		.4byte	.LVL61-1
 8102 0527 E8010000 		.4byte	.LVL61
 8103 052b 0400     		.2byte	0x4
 8104 052d F3       		.byte	0xf3
 8105 052e 01       		.uleb128 0x1
 8106 052f 50       		.byte	0x50
 8107 0530 9F       		.byte	0x9f
 8108 0531 00000000 		.4byte	0
 8109 0535 00000000 		.4byte	0
 8110              	.LLST48:
 8111 0539 90010000 		.4byte	.LVL50
 8112 053d A0010000 		.4byte	.LVL52
 8113 0541 0100     		.2byte	0x1
 8114 0543 54       		.byte	0x54
 8115 0544 00000000 		.4byte	0
 8116 0548 00000000 		.4byte	0
 8117              	.LLST49:
 8118 054c A0010000 		.4byte	.LVL52
 8119 0550 AA010000 		.4byte	.LVL53
 8120 0554 0100     		.2byte	0x1
 8121 0556 54       		.byte	0x54
 8122 0557 00000000 		.4byte	0
 8123 055b 00000000 		.4byte	0
 8124              	.LLST50:
 8125 055f AA010000 		.4byte	.LVL53
 8126 0563 E0010000 		.4byte	.LVL60
 8127 0567 0100     		.2byte	0x1
 8128 0569 54       		.byte	0x54
 8129 056a E0010000 		.4byte	.LVL60
 8130 056e E7010000 		.4byte	.LVL61-1
 8131 0572 0100     		.2byte	0x1
 8132 0574 50       		.byte	0x50
 8133 0575 E7010000 		.4byte	.LVL61-1
 8134 0579 E8010000 		.4byte	.LVL61
 8135 057d 0400     		.2byte	0x4
 8136 057f F3       		.byte	0xf3
 8137 0580 01       		.uleb128 0x1
 8138 0581 50       		.byte	0x50
 8139 0582 9F       		.byte	0x9f
 8140 0583 00000000 		.4byte	0
 8141 0587 00000000 		.4byte	0
 8142              	.LLST51:
ARM GAS  C:\Users\info\AppData\Local\Temp\ccAWUQ53.s 			page 161


 8143 058b AA010000 		.4byte	.LVL53
 8144 058f B4010000 		.4byte	.LVL54
 8145 0593 0100     		.2byte	0x1
 8146 0595 54       		.byte	0x54
 8147 0596 00000000 		.4byte	0
 8148 059a 00000000 		.4byte	0
 8149              	.LLST52:
 8150 059e BA010000 		.4byte	.LVL55
 8151 05a2 CA010000 		.4byte	.LVL57
 8152 05a6 0100     		.2byte	0x1
 8153 05a8 54       		.byte	0x54
 8154 05a9 00000000 		.4byte	0
 8155 05ad 00000000 		.4byte	0
 8156              	.LLST53:
 8157 05b1 CA010000 		.4byte	.LVL57
 8158 05b5 D4010000 		.4byte	.LVL58
 8159 05b9 0100     		.2byte	0x1
 8160 05bb 54       		.byte	0x54
 8161 05bc 00000000 		.4byte	0
 8162 05c0 00000000 		.4byte	0
 8163              	.LLST54:
 8164 05c4 DA010000 		.4byte	.LVL59
 8165 05c8 E0010000 		.4byte	.LVL60
 8166 05cc 0100     		.2byte	0x1
 8167 05ce 54       		.byte	0x54
 8168 05cf E0010000 		.4byte	.LVL60
 8169 05d3 E7010000 		.4byte	.LVL61-1
 8170 05d7 0100     		.2byte	0x1
 8171 05d9 50       		.byte	0x50
 8172 05da E7010000 		.4byte	.LVL61-1
 8173 05de E8010000 		.4byte	.LVL61
 8174 05e2 0400     		.2byte	0x4
 8175 05e4 F3       		.byte	0xf3
 8176 05e5 01       		.uleb128 0x1
 8177 05e6 50       		.byte	0x50
 8178 05e7 9F       		.byte	0x9f
 8179 05e8 00000000 		.4byte	0
 8180 05ec 00000000 		.4byte	0
 8181              	.LLST55:
 8182 05f0 00000000 		.4byte	.LVL76
 8183 05f4 0F000000 		.4byte	.LVL78-1
 8184 05f8 0100     		.2byte	0x1
 8185 05fa 50       		.byte	0x50
 8186 05fb 0F000000 		.4byte	.LVL78-1
 8187 05ff 10000000 		.4byte	.LFE0
 8188 0603 0400     		.2byte	0x4
 8189 0605 F3       		.byte	0xf3
 8190 0606 01       		.uleb128 0x1
 8191 0607 50       		.byte	0x50
 8192 0608 9F       		.byte	0x9f
 8193 0609 00000000 		.4byte	0
 8194 060d 00000000 		.4byte	0
 8195              	.LLST56:
 8196 0611 00000000 		.4byte	.LVL76
 8197 0615 0C000000 		.4byte	.LVL77
 8198 0619 0100     		.2byte	0x1
 8199 061b 51       		.byte	0x51
ARM GAS  C:\Users\info\AppData\Local\Temp\ccAWUQ53.s 			page 162


 8200 061c 0C000000 		.4byte	.LVL77
 8201 0620 10000000 		.4byte	.LFE0
 8202 0624 0400     		.2byte	0x4
 8203 0626 F3       		.byte	0xf3
 8204 0627 01       		.uleb128 0x1
 8205 0628 51       		.byte	0x51
 8206 0629 9F       		.byte	0x9f
 8207 062a 00000000 		.4byte	0
 8208 062e 00000000 		.4byte	0
 8209              	.LLST57:
 8210 0632 00000000 		.4byte	.LVL79
 8211 0636 0F000000 		.4byte	.LVL82-1
 8212 063a 0100     		.2byte	0x1
 8213 063c 50       		.byte	0x50
 8214 063d 0F000000 		.4byte	.LVL82-1
 8215 0641 10000000 		.4byte	.LFE1
 8216 0645 0400     		.2byte	0x4
 8217 0647 F3       		.byte	0xf3
 8218 0648 01       		.uleb128 0x1
 8219 0649 50       		.byte	0x50
 8220 064a 9F       		.byte	0x9f
 8221 064b 00000000 		.4byte	0
 8222 064f 00000000 		.4byte	0
 8223              	.LLST58:
 8224 0653 00000000 		.4byte	.LVL79
 8225 0657 0E000000 		.4byte	.LVL81
 8226 065b 0100     		.2byte	0x1
 8227 065d 51       		.byte	0x51
 8228 065e 0E000000 		.4byte	.LVL81
 8229 0662 10000000 		.4byte	.LFE1
 8230 0666 0400     		.2byte	0x4
 8231 0668 F3       		.byte	0xf3
 8232 0669 01       		.uleb128 0x1
 8233 066a 51       		.byte	0x51
 8234 066b 9F       		.byte	0x9f
 8235 066c 00000000 		.4byte	0
 8236 0670 00000000 		.4byte	0
 8237              	.LLST59:
 8238 0674 00000000 		.4byte	.LVL79
 8239 0678 0A000000 		.4byte	.LVL80
 8240 067c 0100     		.2byte	0x1
 8241 067e 52       		.byte	0x52
 8242 067f 0A000000 		.4byte	.LVL80
 8243 0683 0F000000 		.4byte	.LVL82-1
 8244 0687 0100     		.2byte	0x1
 8245 0689 53       		.byte	0x53
 8246 068a 0F000000 		.4byte	.LVL82-1
 8247 068e 10000000 		.4byte	.LFE1
 8248 0692 0400     		.2byte	0x4
 8249 0694 F3       		.byte	0xf3
 8250 0695 01       		.uleb128 0x1
 8251 0696 52       		.byte	0x52
 8252 0697 9F       		.byte	0x9f
 8253 0698 00000000 		.4byte	0
 8254 069c 00000000 		.4byte	0
 8255              	.LLST60:
 8256 06a0 00000000 		.4byte	.LVL83
ARM GAS  C:\Users\info\AppData\Local\Temp\ccAWUQ53.s 			page 163


 8257 06a4 0F000000 		.4byte	.LVL85-1
 8258 06a8 0100     		.2byte	0x1
 8259 06aa 50       		.byte	0x50
 8260 06ab 0F000000 		.4byte	.LVL85-1
 8261 06af 16000000 		.4byte	.LFE2
 8262 06b3 0400     		.2byte	0x4
 8263 06b5 F3       		.byte	0xf3
 8264 06b6 01       		.uleb128 0x1
 8265 06b7 50       		.byte	0x50
 8266 06b8 9F       		.byte	0x9f
 8267 06b9 00000000 		.4byte	0
 8268 06bd 00000000 		.4byte	0
 8269              	.LLST61:
 8270 06c1 00000000 		.4byte	.LVL83
 8271 06c5 0C000000 		.4byte	.LVL84
 8272 06c9 0100     		.2byte	0x1
 8273 06cb 51       		.byte	0x51
 8274 06cc 0C000000 		.4byte	.LVL84
 8275 06d0 0F000000 		.4byte	.LVL85-1
 8276 06d4 0200     		.2byte	0x2
 8277 06d6 72       		.byte	0x72
 8278 06d7 00       		.sleb128 0
 8279 06d8 0F000000 		.4byte	.LVL85-1
 8280 06dc 16000000 		.4byte	.LFE2
 8281 06e0 0200     		.2byte	0x2
 8282 06e2 91       		.byte	0x91
 8283 06e3 77       		.sleb128 -9
 8284 06e4 00000000 		.4byte	0
 8285 06e8 00000000 		.4byte	0
 8286              	.LLST62:
 8287 06ec 00000000 		.4byte	.LVL86
 8288 06f0 0F000000 		.4byte	.LVL87-1
 8289 06f4 0100     		.2byte	0x1
 8290 06f6 50       		.byte	0x50
 8291 06f7 0F000000 		.4byte	.LVL87-1
 8292 06fb 10000000 		.4byte	.LFE3
 8293 06ff 0400     		.2byte	0x4
 8294 0701 F3       		.byte	0xf3
 8295 0702 01       		.uleb128 0x1
 8296 0703 50       		.byte	0x50
 8297 0704 9F       		.byte	0x9f
 8298 0705 00000000 		.4byte	0
 8299 0709 00000000 		.4byte	0
 8300              	.LLST63:
 8301 070d 00000000 		.4byte	.LVL88
 8302 0711 0F000000 		.4byte	.LVL89-1
 8303 0715 0100     		.2byte	0x1
 8304 0717 50       		.byte	0x50
 8305 0718 0F000000 		.4byte	.LVL89-1
 8306 071c 10000000 		.4byte	.LFE4
 8307 0720 0400     		.2byte	0x4
 8308 0722 F3       		.byte	0xf3
 8309 0723 01       		.uleb128 0x1
 8310 0724 50       		.byte	0x50
 8311 0725 9F       		.byte	0x9f
 8312 0726 00000000 		.4byte	0
 8313 072a 00000000 		.4byte	0
ARM GAS  C:\Users\info\AppData\Local\Temp\ccAWUQ53.s 			page 164


 8314              	.LLST64:
 8315 072e 00000000 		.4byte	.LVL90
 8316 0732 02000000 		.4byte	.LVL91
 8317 0736 0100     		.2byte	0x1
 8318 0738 50       		.byte	0x50
 8319 0739 02000000 		.4byte	.LVL91
 8320 073d 04000000 		.4byte	.LFE5
 8321 0741 0400     		.2byte	0x4
 8322 0743 F3       		.byte	0xf3
 8323 0744 01       		.uleb128 0x1
 8324 0745 50       		.byte	0x50
 8325 0746 9F       		.byte	0x9f
 8326 0747 00000000 		.4byte	0
 8327 074b 00000000 		.4byte	0
 8328              	.LLST65:
 8329 074f 00000000 		.4byte	.LVL92
 8330 0753 14000000 		.4byte	.LVL95
 8331 0757 0100     		.2byte	0x1
 8332 0759 50       		.byte	0x50
 8333 075a 14000000 		.4byte	.LVL95
 8334 075e 0E010000 		.4byte	.LFE6
 8335 0762 0100     		.2byte	0x1
 8336 0764 54       		.byte	0x54
 8337 0765 00000000 		.4byte	0
 8338 0769 00000000 		.4byte	0
 8339              	.LLST66:
 8340 076d 00000000 		.4byte	.LVL92
 8341 0771 02000000 		.4byte	.LVL93
 8342 0775 0100     		.2byte	0x1
 8343 0777 51       		.byte	0x51
 8344 0778 02000000 		.4byte	.LVL93
 8345 077c 0E010000 		.4byte	.LFE6
 8346 0780 0400     		.2byte	0x4
 8347 0782 F3       		.byte	0xf3
 8348 0783 01       		.uleb128 0x1
 8349 0784 51       		.byte	0x51
 8350 0785 9F       		.byte	0x9f
 8351 0786 00000000 		.4byte	0
 8352 078a 00000000 		.4byte	0
 8353              	.LLST67:
 8354 078e 00000000 		.4byte	.LVL92
 8355 0792 29000000 		.4byte	.LVL96-1
 8356 0796 0100     		.2byte	0x1
 8357 0798 52       		.byte	0x52
 8358 0799 29000000 		.4byte	.LVL96-1
 8359 079d 30000000 		.4byte	.LVL97
 8360 07a1 0400     		.2byte	0x4
 8361 07a3 F3       		.byte	0xf3
 8362 07a4 01       		.uleb128 0x1
 8363 07a5 52       		.byte	0x52
 8364 07a6 9F       		.byte	0x9f
 8365 07a7 30000000 		.4byte	.LVL97
 8366 07ab 32000000 		.4byte	.LVL98
 8367 07af 0100     		.2byte	0x1
 8368 07b1 52       		.byte	0x52
 8369 07b2 32000000 		.4byte	.LVL98
 8370 07b6 50000000 		.4byte	.LVL101
ARM GAS  C:\Users\info\AppData\Local\Temp\ccAWUQ53.s 			page 165


 8371 07ba 0400     		.2byte	0x4
 8372 07bc F3       		.byte	0xf3
 8373 07bd 01       		.uleb128 0x1
 8374 07be 52       		.byte	0x52
 8375 07bf 9F       		.byte	0x9f
 8376 07c0 50000000 		.4byte	.LVL101
 8377 07c4 6C000000 		.4byte	.LVL102
 8378 07c8 0100     		.2byte	0x1
 8379 07ca 52       		.byte	0x52
 8380 07cb CC000000 		.4byte	.LVL112
 8381 07cf CE000000 		.4byte	.LVL113
 8382 07d3 0100     		.2byte	0x1
 8383 07d5 52       		.byte	0x52
 8384 07d6 CE000000 		.4byte	.LVL113
 8385 07da E4000000 		.4byte	.LVL115
 8386 07de 0400     		.2byte	0x4
 8387 07e0 F3       		.byte	0xf3
 8388 07e1 01       		.uleb128 0x1
 8389 07e2 52       		.byte	0x52
 8390 07e3 9F       		.byte	0x9f
 8391 07e4 EA000000 		.4byte	.LVL116
 8392 07e8 EC000000 		.4byte	.LVL117
 8393 07ec 0100     		.2byte	0x1
 8394 07ee 52       		.byte	0x52
 8395 07ef EC000000 		.4byte	.LVL117
 8396 07f3 08010000 		.4byte	.LVL121
 8397 07f7 0400     		.2byte	0x4
 8398 07f9 F3       		.byte	0xf3
 8399 07fa 01       		.uleb128 0x1
 8400 07fb 52       		.byte	0x52
 8401 07fc 9F       		.byte	0x9f
 8402 07fd 08010000 		.4byte	.LVL121
 8403 0801 0E010000 		.4byte	.LFE6
 8404 0805 0100     		.2byte	0x1
 8405 0807 52       		.byte	0x52
 8406 0808 00000000 		.4byte	0
 8407 080c 00000000 		.4byte	0
 8408              	.LLST68:
 8409 0810 00000000 		.4byte	.LVL92
 8410 0814 0C000000 		.4byte	.LVL94
 8411 0818 0100     		.2byte	0x1
 8412 081a 53       		.byte	0x53
 8413 081b 0C000000 		.4byte	.LVL94
 8414 081f 6C000000 		.4byte	.LVL102
 8415 0823 0100     		.2byte	0x1
 8416 0825 59       		.byte	0x59
 8417 0826 6C000000 		.4byte	.LVL102
 8418 082a CC000000 		.4byte	.LVL112
 8419 082e 0400     		.2byte	0x4
 8420 0830 F3       		.byte	0xf3
 8421 0831 01       		.uleb128 0x1
 8422 0832 53       		.byte	0x53
 8423 0833 9F       		.byte	0x9f
 8424 0834 CC000000 		.4byte	.LVL112
 8425 0838 0E010000 		.4byte	.LFE6
 8426 083c 0100     		.2byte	0x1
 8427 083e 59       		.byte	0x59
ARM GAS  C:\Users\info\AppData\Local\Temp\ccAWUQ53.s 			page 166


 8428 083f 00000000 		.4byte	0
 8429 0843 00000000 		.4byte	0
 8430              	.LLST69:
 8431 0847 70000000 		.4byte	.LVL103
 8432 084b 72000000 		.4byte	.LVL104
 8433 084f 0200     		.2byte	0x2
 8434 0851 30       		.byte	0x30
 8435 0852 9F       		.byte	0x9f
 8436 0853 00000000 		.4byte	0
 8437 0857 00000000 		.4byte	0
 8438              	.LLST70:
 8439 085b 70000000 		.4byte	.LVL103
 8440 085f BA000000 		.4byte	.LVL110
 8441 0863 0100     		.2byte	0x1
 8442 0865 56       		.byte	0x56
 8443 0866 C0000000 		.4byte	.LVL111
 8444 086a CC000000 		.4byte	.LVL112
 8445 086e 0100     		.2byte	0x1
 8446 0870 56       		.byte	0x56
 8447 0871 00000000 		.4byte	0
 8448 0875 00000000 		.4byte	0
 8449              	.LLST71:
 8450 0879 50000000 		.4byte	.LVL101
 8451 087d CC000000 		.4byte	.LVL112
 8452 0881 0100     		.2byte	0x1
 8453 0883 59       		.byte	0x59
 8454 0884 00000000 		.4byte	0
 8455 0888 00000000 		.4byte	0
 8456              	.LLST72:
 8457 088c 0C000000 		.4byte	.LVL94
 8458 0890 29000000 		.4byte	.LVL96-1
 8459 0894 0700     		.2byte	0x7
 8460 0896 73       		.byte	0x73
 8461 0897 0C       		.sleb128 12
 8462 0898 94       		.byte	0x94
 8463 0899 01       		.byte	0x1
 8464 089a 31       		.byte	0x31
 8465 089b 1A       		.byte	0x1a
 8466 089c 9F       		.byte	0x9f
 8467 089d 30000000 		.4byte	.LVL97
 8468 08a1 39000000 		.4byte	.LVL99-1
 8469 08a5 0700     		.2byte	0x7
 8470 08a7 73       		.byte	0x73
 8471 08a8 0C       		.sleb128 12
 8472 08a9 94       		.byte	0x94
 8473 08aa 01       		.byte	0x1
 8474 08ab 31       		.byte	0x31
 8475 08ac 1A       		.byte	0x1a
 8476 08ad 9F       		.byte	0x9f
 8477 08ae 50000000 		.4byte	.LVL101
 8478 08b2 6C000000 		.4byte	.LVL102
 8479 08b6 0700     		.2byte	0x7
 8480 08b8 73       		.byte	0x73
 8481 08b9 0C       		.sleb128 12
 8482 08ba 94       		.byte	0x94
 8483 08bb 01       		.byte	0x1
 8484 08bc 31       		.byte	0x31
ARM GAS  C:\Users\info\AppData\Local\Temp\ccAWUQ53.s 			page 167


 8485 08bd 1A       		.byte	0x1a
 8486 08be 9F       		.byte	0x9f
 8487 08bf CC000000 		.4byte	.LVL112
 8488 08c3 D5000000 		.4byte	.LVL114-1
 8489 08c7 0700     		.2byte	0x7
 8490 08c9 73       		.byte	0x73
 8491 08ca 0C       		.sleb128 12
 8492 08cb 94       		.byte	0x94
 8493 08cc 01       		.byte	0x1
 8494 08cd 31       		.byte	0x31
 8495 08ce 1A       		.byte	0x1a
 8496 08cf 9F       		.byte	0x9f
 8497 08d0 EA000000 		.4byte	.LVL116
 8498 08d4 F0000000 		.4byte	.LVL118
 8499 08d8 0700     		.2byte	0x7
 8500 08da 73       		.byte	0x73
 8501 08db 0C       		.sleb128 12
 8502 08dc 94       		.byte	0x94
 8503 08dd 01       		.byte	0x1
 8504 08de 31       		.byte	0x31
 8505 08df 1A       		.byte	0x1a
 8506 08e0 9F       		.byte	0x9f
 8507 08e1 F0000000 		.4byte	.LVL118
 8508 08e5 F5000000 		.4byte	.LVL119-1
 8509 08e9 0A00     		.2byte	0xa
 8510 08eb 74       		.byte	0x74
 8511 08ec 00       		.sleb128 0
 8512 08ed 06       		.byte	0x6
 8513 08ee 23       		.byte	0x23
 8514 08ef 0C       		.uleb128 0xc
 8515 08f0 94       		.byte	0x94
 8516 08f1 01       		.byte	0x1
 8517 08f2 31       		.byte	0x31
 8518 08f3 1A       		.byte	0x1a
 8519 08f4 9F       		.byte	0x9f
 8520 08f5 08010000 		.4byte	.LVL121
 8521 08f9 0E010000 		.4byte	.LFE6
 8522 08fd 0700     		.2byte	0x7
 8523 08ff 73       		.byte	0x73
 8524 0900 0C       		.sleb128 12
 8525 0901 94       		.byte	0x94
 8526 0902 01       		.byte	0x1
 8527 0903 31       		.byte	0x31
 8528 0904 1A       		.byte	0x1a
 8529 0905 9F       		.byte	0x9f
 8530 0906 00000000 		.4byte	0
 8531 090a 00000000 		.4byte	0
 8532              	.LLST73:
 8533 090e 0C000000 		.4byte	.LVL94
 8534 0912 29000000 		.4byte	.LVL96-1
 8535 0916 0800     		.2byte	0x8
 8536 0918 73       		.byte	0x73
 8537 0919 0C       		.sleb128 12
 8538 091a 94       		.byte	0x94
 8539 091b 01       		.byte	0x1
 8540 091c 20       		.byte	0x20
 8541 091d 31       		.byte	0x31
ARM GAS  C:\Users\info\AppData\Local\Temp\ccAWUQ53.s 			page 168


 8542 091e 1A       		.byte	0x1a
 8543 091f 9F       		.byte	0x9f
 8544 0920 30000000 		.4byte	.LVL97
 8545 0924 39000000 		.4byte	.LVL99-1
 8546 0928 0800     		.2byte	0x8
 8547 092a 73       		.byte	0x73
 8548 092b 0C       		.sleb128 12
 8549 092c 94       		.byte	0x94
 8550 092d 01       		.byte	0x1
 8551 092e 20       		.byte	0x20
 8552 092f 31       		.byte	0x31
 8553 0930 1A       		.byte	0x1a
 8554 0931 9F       		.byte	0x9f
 8555 0932 50000000 		.4byte	.LVL101
 8556 0936 6C000000 		.4byte	.LVL102
 8557 093a 0800     		.2byte	0x8
 8558 093c 73       		.byte	0x73
 8559 093d 0C       		.sleb128 12
 8560 093e 94       		.byte	0x94
 8561 093f 01       		.byte	0x1
 8562 0940 20       		.byte	0x20
 8563 0941 31       		.byte	0x31
 8564 0942 1A       		.byte	0x1a
 8565 0943 9F       		.byte	0x9f
 8566 0944 CC000000 		.4byte	.LVL112
 8567 0948 D5000000 		.4byte	.LVL114-1
 8568 094c 0800     		.2byte	0x8
 8569 094e 73       		.byte	0x73
 8570 094f 0C       		.sleb128 12
 8571 0950 94       		.byte	0x94
 8572 0951 01       		.byte	0x1
 8573 0952 20       		.byte	0x20
 8574 0953 31       		.byte	0x31
 8575 0954 1A       		.byte	0x1a
 8576 0955 9F       		.byte	0x9f
 8577 0956 EA000000 		.4byte	.LVL116
 8578 095a F0000000 		.4byte	.LVL118
 8579 095e 0800     		.2byte	0x8
 8580 0960 73       		.byte	0x73
 8581 0961 0C       		.sleb128 12
 8582 0962 94       		.byte	0x94
 8583 0963 01       		.byte	0x1
 8584 0964 20       		.byte	0x20
 8585 0965 31       		.byte	0x31
 8586 0966 1A       		.byte	0x1a
 8587 0967 9F       		.byte	0x9f
 8588 0968 F0000000 		.4byte	.LVL118
 8589 096c F5000000 		.4byte	.LVL119-1
 8590 0970 0B00     		.2byte	0xb
 8591 0972 74       		.byte	0x74
 8592 0973 00       		.sleb128 0
 8593 0974 06       		.byte	0x6
 8594 0975 23       		.byte	0x23
 8595 0976 0C       		.uleb128 0xc
 8596 0977 94       		.byte	0x94
 8597 0978 01       		.byte	0x1
 8598 0979 20       		.byte	0x20
ARM GAS  C:\Users\info\AppData\Local\Temp\ccAWUQ53.s 			page 169


 8599 097a 31       		.byte	0x31
 8600 097b 1A       		.byte	0x1a
 8601 097c 9F       		.byte	0x9f
 8602 097d 08010000 		.4byte	.LVL121
 8603 0981 0E010000 		.4byte	.LFE6
 8604 0985 0800     		.2byte	0x8
 8605 0987 73       		.byte	0x73
 8606 0988 0C       		.sleb128 12
 8607 0989 94       		.byte	0x94
 8608 098a 01       		.byte	0x1
 8609 098b 20       		.byte	0x20
 8610 098c 31       		.byte	0x31
 8611 098d 1A       		.byte	0x1a
 8612 098e 9F       		.byte	0x9f
 8613 098f 00000000 		.4byte	0
 8614 0993 00000000 		.4byte	0
 8615              	.LLST74:
 8616 0997 00000000 		.4byte	.LVL122
 8617 099b 25000000 		.4byte	.LVL125-1
 8618 099f 0100     		.2byte	0x1
 8619 09a1 50       		.byte	0x50
 8620 09a2 25000000 		.4byte	.LVL125-1
 8621 09a6 2C000000 		.4byte	.LVL126
 8622 09aa 0100     		.2byte	0x1
 8623 09ac 56       		.byte	0x56
 8624 09ad 2C000000 		.4byte	.LVL126
 8625 09b1 35000000 		.4byte	.LVL128-1
 8626 09b5 0100     		.2byte	0x1
 8627 09b7 50       		.byte	0x50
 8628 09b8 35000000 		.4byte	.LVL128-1
 8629 09bc 46000000 		.4byte	.LVL130
 8630 09c0 0100     		.2byte	0x1
 8631 09c2 56       		.byte	0x56
 8632 09c3 46000000 		.4byte	.LVL130
 8633 09c7 58000000 		.4byte	.LVL131
 8634 09cb 0100     		.2byte	0x1
 8635 09cd 50       		.byte	0x50
 8636 09ce 58000000 		.4byte	.LVL131
 8637 09d2 AC000000 		.4byte	.LVL141
 8638 09d6 0100     		.2byte	0x1
 8639 09d8 56       		.byte	0x56
 8640 09d9 AC000000 		.4byte	.LVL141
 8641 09dd B5000000 		.4byte	.LVL143-1
 8642 09e1 0100     		.2byte	0x1
 8643 09e3 50       		.byte	0x50
 8644 09e4 B5000000 		.4byte	.LVL143-1
 8645 09e8 CA000000 		.4byte	.LVL145
 8646 09ec 0100     		.2byte	0x1
 8647 09ee 56       		.byte	0x56
 8648 09ef CA000000 		.4byte	.LVL145
 8649 09f3 D5000000 		.4byte	.LVL147-1
 8650 09f7 0100     		.2byte	0x1
 8651 09f9 50       		.byte	0x50
 8652 09fa D5000000 		.4byte	.LVL147-1
 8653 09fe E8000000 		.4byte	.LVL149
 8654 0a02 0100     		.2byte	0x1
 8655 0a04 56       		.byte	0x56
ARM GAS  C:\Users\info\AppData\Local\Temp\ccAWUQ53.s 			page 170


 8656 0a05 E8000000 		.4byte	.LVL149
 8657 0a09 EA000000 		.4byte	.LVL150
 8658 0a0d 0100     		.2byte	0x1
 8659 0a0f 50       		.byte	0x50
 8660 0a10 EA000000 		.4byte	.LVL150
 8661 0a14 EE000000 		.4byte	.LFE7
 8662 0a18 0100     		.2byte	0x1
 8663 0a1a 56       		.byte	0x56
 8664 0a1b 00000000 		.4byte	0
 8665 0a1f 00000000 		.4byte	0
 8666              	.LLST75:
 8667 0a23 00000000 		.4byte	.LVL122
 8668 0a27 02000000 		.4byte	.LVL123
 8669 0a2b 0100     		.2byte	0x1
 8670 0a2d 51       		.byte	0x51
 8671 0a2e 02000000 		.4byte	.LVL123
 8672 0a32 EE000000 		.4byte	.LFE7
 8673 0a36 0400     		.2byte	0x4
 8674 0a38 F3       		.byte	0xf3
 8675 0a39 01       		.uleb128 0x1
 8676 0a3a 51       		.byte	0x51
 8677 0a3b 9F       		.byte	0x9f
 8678 0a3c 00000000 		.4byte	0
 8679 0a40 00000000 		.4byte	0
 8680              	.LLST76:
 8681 0a44 00000000 		.4byte	.LVL122
 8682 0a48 25000000 		.4byte	.LVL125-1
 8683 0a4c 0100     		.2byte	0x1
 8684 0a4e 52       		.byte	0x52
 8685 0a4f 25000000 		.4byte	.LVL125-1
 8686 0a53 2C000000 		.4byte	.LVL126
 8687 0a57 0400     		.2byte	0x4
 8688 0a59 F3       		.byte	0xf3
 8689 0a5a 01       		.uleb128 0x1
 8690 0a5b 52       		.byte	0x52
 8691 0a5c 9F       		.byte	0x9f
 8692 0a5d 2C000000 		.4byte	.LVL126
 8693 0a61 32000000 		.4byte	.LVL127
 8694 0a65 0100     		.2byte	0x1
 8695 0a67 52       		.byte	0x52
 8696 0a68 32000000 		.4byte	.LVL127
 8697 0a6c 46000000 		.4byte	.LVL130
 8698 0a70 0400     		.2byte	0x4
 8699 0a72 F3       		.byte	0xf3
 8700 0a73 01       		.uleb128 0x1
 8701 0a74 52       		.byte	0x52
 8702 0a75 9F       		.byte	0x9f
 8703 0a76 46000000 		.4byte	.LVL130
 8704 0a7a 58000000 		.4byte	.LVL131
 8705 0a7e 0100     		.2byte	0x1
 8706 0a80 52       		.byte	0x52
 8707 0a81 AC000000 		.4byte	.LVL141
 8708 0a85 B2000000 		.4byte	.LVL142
 8709 0a89 0100     		.2byte	0x1
 8710 0a8b 52       		.byte	0x52
 8711 0a8c B2000000 		.4byte	.LVL142
 8712 0a90 C4000000 		.4byte	.LVL144
ARM GAS  C:\Users\info\AppData\Local\Temp\ccAWUQ53.s 			page 171


 8713 0a94 0400     		.2byte	0x4
 8714 0a96 F3       		.byte	0xf3
 8715 0a97 01       		.uleb128 0x1
 8716 0a98 52       		.byte	0x52
 8717 0a99 9F       		.byte	0x9f
 8718 0a9a CA000000 		.4byte	.LVL145
 8719 0a9e D0000000 		.4byte	.LVL146
 8720 0aa2 0100     		.2byte	0x1
 8721 0aa4 52       		.byte	0x52
 8722 0aa5 D0000000 		.4byte	.LVL146
 8723 0aa9 E8000000 		.4byte	.LVL149
 8724 0aad 0400     		.2byte	0x4
 8725 0aaf F3       		.byte	0xf3
 8726 0ab0 01       		.uleb128 0x1
 8727 0ab1 52       		.byte	0x52
 8728 0ab2 9F       		.byte	0x9f
 8729 0ab3 E8000000 		.4byte	.LVL149
 8730 0ab7 EE000000 		.4byte	.LFE7
 8731 0abb 0100     		.2byte	0x1
 8732 0abd 52       		.byte	0x52
 8733 0abe 00000000 		.4byte	0
 8734 0ac2 00000000 		.4byte	0
 8735              	.LLST77:
 8736 0ac6 00000000 		.4byte	.LVL122
 8737 0aca 12000000 		.4byte	.LVL124
 8738 0ace 0100     		.2byte	0x1
 8739 0ad0 53       		.byte	0x53
 8740 0ad1 12000000 		.4byte	.LVL124
 8741 0ad5 58000000 		.4byte	.LVL131
 8742 0ad9 0100     		.2byte	0x1
 8743 0adb 57       		.byte	0x57
 8744 0adc 58000000 		.4byte	.LVL131
 8745 0ae0 AC000000 		.4byte	.LVL141
 8746 0ae4 0400     		.2byte	0x4
 8747 0ae6 F3       		.byte	0xf3
 8748 0ae7 01       		.uleb128 0x1
 8749 0ae8 53       		.byte	0x53
 8750 0ae9 9F       		.byte	0x9f
 8751 0aea AC000000 		.4byte	.LVL141
 8752 0aee EE000000 		.4byte	.LFE7
 8753 0af2 0100     		.2byte	0x1
 8754 0af4 57       		.byte	0x57
 8755 0af5 00000000 		.4byte	0
 8756 0af9 00000000 		.4byte	0
 8757              	.LLST78:
 8758 0afd 5C000000 		.4byte	.LVL132
 8759 0b01 5E000000 		.4byte	.LVL133
 8760 0b05 0300     		.2byte	0x3
 8761 0b07 08       		.byte	0x8
 8762 0b08 40       		.byte	0x40
 8763 0b09 9F       		.byte	0x9f
 8764 0b0a 5E000000 		.4byte	.LVL133
 8765 0b0e 62000000 		.4byte	.LVL134
 8766 0b12 0100     		.2byte	0x1
 8767 0b14 54       		.byte	0x54
 8768 0b15 74000000 		.4byte	.LVL136
 8769 0b19 AC000000 		.4byte	.LVL141
ARM GAS  C:\Users\info\AppData\Local\Temp\ccAWUQ53.s 			page 172


 8770 0b1d 0100     		.2byte	0x1
 8771 0b1f 54       		.byte	0x54
 8772 0b20 00000000 		.4byte	0
 8773 0b24 00000000 		.4byte	0
 8774              	.LLST79:
 8775 0b28 5C000000 		.4byte	.LVL132
 8776 0b2c AC000000 		.4byte	.LVL141
 8777 0b30 0100     		.2byte	0x1
 8778 0b32 55       		.byte	0x55
 8779 0b33 00000000 		.4byte	0
 8780 0b37 00000000 		.4byte	0
 8781              	.LLST80:
 8782 0b3b 46000000 		.4byte	.LVL130
 8783 0b3f AC000000 		.4byte	.LVL141
 8784 0b43 0100     		.2byte	0x1
 8785 0b45 57       		.byte	0x57
 8786 0b46 00000000 		.4byte	0
 8787 0b4a 00000000 		.4byte	0
 8788              	.LLST81:
 8789 0b4e 00000000 		.4byte	.LVL151
 8790 0b52 25000000 		.4byte	.LVL154-1
 8791 0b56 0100     		.2byte	0x1
 8792 0b58 50       		.byte	0x50
 8793 0b59 25000000 		.4byte	.LVL154-1
 8794 0b5d 2C000000 		.4byte	.LVL155
 8795 0b61 0100     		.2byte	0x1
 8796 0b63 56       		.byte	0x56
 8797 0b64 2C000000 		.4byte	.LVL155
 8798 0b68 35000000 		.4byte	.LVL157-1
 8799 0b6c 0100     		.2byte	0x1
 8800 0b6e 50       		.byte	0x50
 8801 0b6f 35000000 		.4byte	.LVL157-1
 8802 0b73 46000000 		.4byte	.LVL159
 8803 0b77 0100     		.2byte	0x1
 8804 0b79 56       		.byte	0x56
 8805 0b7a 46000000 		.4byte	.LVL159
 8806 0b7e 58000000 		.4byte	.LVL160
 8807 0b82 0100     		.2byte	0x1
 8808 0b84 50       		.byte	0x50
 8809 0b85 58000000 		.4byte	.LVL160
 8810 0b89 AC000000 		.4byte	.LVL170
 8811 0b8d 0100     		.2byte	0x1
 8812 0b8f 56       		.byte	0x56
 8813 0b90 AC000000 		.4byte	.LVL170
 8814 0b94 B5000000 		.4byte	.LVL172-1
 8815 0b98 0100     		.2byte	0x1
 8816 0b9a 50       		.byte	0x50
 8817 0b9b B5000000 		.4byte	.LVL172-1
 8818 0b9f CA000000 		.4byte	.LVL174
 8819 0ba3 0100     		.2byte	0x1
 8820 0ba5 56       		.byte	0x56
 8821 0ba6 CA000000 		.4byte	.LVL174
 8822 0baa D5000000 		.4byte	.LVL176-1
 8823 0bae 0100     		.2byte	0x1
 8824 0bb0 50       		.byte	0x50
 8825 0bb1 D5000000 		.4byte	.LVL176-1
 8826 0bb5 E8000000 		.4byte	.LVL178
ARM GAS  C:\Users\info\AppData\Local\Temp\ccAWUQ53.s 			page 173


 8827 0bb9 0100     		.2byte	0x1
 8828 0bbb 56       		.byte	0x56
 8829 0bbc E8000000 		.4byte	.LVL178
 8830 0bc0 EA000000 		.4byte	.LVL179
 8831 0bc4 0100     		.2byte	0x1
 8832 0bc6 50       		.byte	0x50
 8833 0bc7 EA000000 		.4byte	.LVL179
 8834 0bcb EE000000 		.4byte	.LFE8
 8835 0bcf 0100     		.2byte	0x1
 8836 0bd1 56       		.byte	0x56
 8837 0bd2 00000000 		.4byte	0
 8838 0bd6 00000000 		.4byte	0
 8839              	.LLST82:
 8840 0bda 00000000 		.4byte	.LVL151
 8841 0bde 02000000 		.4byte	.LVL152
 8842 0be2 0100     		.2byte	0x1
 8843 0be4 51       		.byte	0x51
 8844 0be5 02000000 		.4byte	.LVL152
 8845 0be9 EE000000 		.4byte	.LFE8
 8846 0bed 0400     		.2byte	0x4
 8847 0bef F3       		.byte	0xf3
 8848 0bf0 01       		.uleb128 0x1
 8849 0bf1 51       		.byte	0x51
 8850 0bf2 9F       		.byte	0x9f
 8851 0bf3 00000000 		.4byte	0
 8852 0bf7 00000000 		.4byte	0
 8853              	.LLST83:
 8854 0bfb 00000000 		.4byte	.LVL151
 8855 0bff 25000000 		.4byte	.LVL154-1
 8856 0c03 0100     		.2byte	0x1
 8857 0c05 52       		.byte	0x52
 8858 0c06 25000000 		.4byte	.LVL154-1
 8859 0c0a 2C000000 		.4byte	.LVL155
 8860 0c0e 0400     		.2byte	0x4
 8861 0c10 F3       		.byte	0xf3
 8862 0c11 01       		.uleb128 0x1
 8863 0c12 52       		.byte	0x52
 8864 0c13 9F       		.byte	0x9f
 8865 0c14 2C000000 		.4byte	.LVL155
 8866 0c18 32000000 		.4byte	.LVL156
 8867 0c1c 0100     		.2byte	0x1
 8868 0c1e 52       		.byte	0x52
 8869 0c1f 32000000 		.4byte	.LVL156
 8870 0c23 46000000 		.4byte	.LVL159
 8871 0c27 0400     		.2byte	0x4
 8872 0c29 F3       		.byte	0xf3
 8873 0c2a 01       		.uleb128 0x1
 8874 0c2b 52       		.byte	0x52
 8875 0c2c 9F       		.byte	0x9f
 8876 0c2d 46000000 		.4byte	.LVL159
 8877 0c31 58000000 		.4byte	.LVL160
 8878 0c35 0100     		.2byte	0x1
 8879 0c37 52       		.byte	0x52
 8880 0c38 AC000000 		.4byte	.LVL170
 8881 0c3c B2000000 		.4byte	.LVL171
 8882 0c40 0100     		.2byte	0x1
 8883 0c42 52       		.byte	0x52
ARM GAS  C:\Users\info\AppData\Local\Temp\ccAWUQ53.s 			page 174


 8884 0c43 B2000000 		.4byte	.LVL171
 8885 0c47 C4000000 		.4byte	.LVL173
 8886 0c4b 0400     		.2byte	0x4
 8887 0c4d F3       		.byte	0xf3
 8888 0c4e 01       		.uleb128 0x1
 8889 0c4f 52       		.byte	0x52
 8890 0c50 9F       		.byte	0x9f
 8891 0c51 CA000000 		.4byte	.LVL174
 8892 0c55 D0000000 		.4byte	.LVL175
 8893 0c59 0100     		.2byte	0x1
 8894 0c5b 52       		.byte	0x52
 8895 0c5c D0000000 		.4byte	.LVL175
 8896 0c60 E8000000 		.4byte	.LVL178
 8897 0c64 0400     		.2byte	0x4
 8898 0c66 F3       		.byte	0xf3
 8899 0c67 01       		.uleb128 0x1
 8900 0c68 52       		.byte	0x52
 8901 0c69 9F       		.byte	0x9f
 8902 0c6a E8000000 		.4byte	.LVL178
 8903 0c6e EE000000 		.4byte	.LFE8
 8904 0c72 0100     		.2byte	0x1
 8905 0c74 52       		.byte	0x52
 8906 0c75 00000000 		.4byte	0
 8907 0c79 00000000 		.4byte	0
 8908              	.LLST84:
 8909 0c7d 00000000 		.4byte	.LVL151
 8910 0c81 12000000 		.4byte	.LVL153
 8911 0c85 0100     		.2byte	0x1
 8912 0c87 53       		.byte	0x53
 8913 0c88 12000000 		.4byte	.LVL153
 8914 0c8c 58000000 		.4byte	.LVL160
 8915 0c90 0100     		.2byte	0x1
 8916 0c92 57       		.byte	0x57
 8917 0c93 58000000 		.4byte	.LVL160
 8918 0c97 AC000000 		.4byte	.LVL170
 8919 0c9b 0400     		.2byte	0x4
 8920 0c9d F3       		.byte	0xf3
 8921 0c9e 01       		.uleb128 0x1
 8922 0c9f 53       		.byte	0x53
 8923 0ca0 9F       		.byte	0x9f
 8924 0ca1 AC000000 		.4byte	.LVL170
 8925 0ca5 EE000000 		.4byte	.LFE8
 8926 0ca9 0100     		.2byte	0x1
 8927 0cab 57       		.byte	0x57
 8928 0cac 00000000 		.4byte	0
 8929 0cb0 00000000 		.4byte	0
 8930              	.LLST85:
 8931 0cb4 5C000000 		.4byte	.LVL161
 8932 0cb8 5E000000 		.4byte	.LVL162
 8933 0cbc 0300     		.2byte	0x3
 8934 0cbe 08       		.byte	0x8
 8935 0cbf 40       		.byte	0x40
 8936 0cc0 9F       		.byte	0x9f
 8937 0cc1 5E000000 		.4byte	.LVL162
 8938 0cc5 62000000 		.4byte	.LVL163
 8939 0cc9 0100     		.2byte	0x1
 8940 0ccb 54       		.byte	0x54
ARM GAS  C:\Users\info\AppData\Local\Temp\ccAWUQ53.s 			page 175


 8941 0ccc 74000000 		.4byte	.LVL165
 8942 0cd0 AC000000 		.4byte	.LVL170
 8943 0cd4 0100     		.2byte	0x1
 8944 0cd6 54       		.byte	0x54
 8945 0cd7 00000000 		.4byte	0
 8946 0cdb 00000000 		.4byte	0
 8947              	.LLST86:
 8948 0cdf 5C000000 		.4byte	.LVL161
 8949 0ce3 AC000000 		.4byte	.LVL170
 8950 0ce7 0100     		.2byte	0x1
 8951 0ce9 55       		.byte	0x55
 8952 0cea 00000000 		.4byte	0
 8953 0cee 00000000 		.4byte	0
 8954              	.LLST87:
 8955 0cf2 46000000 		.4byte	.LVL159
 8956 0cf6 AC000000 		.4byte	.LVL170
 8957 0cfa 0100     		.2byte	0x1
 8958 0cfc 57       		.byte	0x57
 8959 0cfd 00000000 		.4byte	0
 8960 0d01 00000000 		.4byte	0
 8961              	.LLST88:
 8962 0d05 00000000 		.4byte	.LVL180
 8963 0d09 0A000000 		.4byte	.LVL182
 8964 0d0d 0100     		.2byte	0x1
 8965 0d0f 50       		.byte	0x50
 8966 0d10 0A000000 		.4byte	.LVL182
 8967 0d14 18010000 		.4byte	.LVL215
 8968 0d18 0100     		.2byte	0x1
 8969 0d1a 54       		.byte	0x54
 8970 0d1b 18010000 		.4byte	.LVL215
 8971 0d1f 1C010000 		.4byte	.LFE9
 8972 0d23 0400     		.2byte	0x4
 8973 0d25 F3       		.byte	0xf3
 8974 0d26 01       		.uleb128 0x1
 8975 0d27 50       		.byte	0x50
 8976 0d28 9F       		.byte	0x9f
 8977 0d29 00000000 		.4byte	0
 8978 0d2d 00000000 		.4byte	0
 8979              	.LLST89:
 8980 0d31 00000000 		.4byte	.LVL180
 8981 0d35 02000000 		.4byte	.LVL181
 8982 0d39 0100     		.2byte	0x1
 8983 0d3b 51       		.byte	0x51
 8984 0d3c 02000000 		.4byte	.LVL181
 8985 0d40 1C010000 		.4byte	.LFE9
 8986 0d44 0400     		.2byte	0x4
 8987 0d46 F3       		.byte	0xf3
 8988 0d47 01       		.uleb128 0x1
 8989 0d48 51       		.byte	0x51
 8990 0d49 9F       		.byte	0x9f
 8991 0d4a 00000000 		.4byte	0
 8992 0d4e 00000000 		.4byte	0
 8993              	.LLST90:
 8994 0d52 00000000 		.4byte	.LVL180
 8995 0d56 2E000000 		.4byte	.LVL186
 8996 0d5a 0100     		.2byte	0x1
 8997 0d5c 52       		.byte	0x52
ARM GAS  C:\Users\info\AppData\Local\Temp\ccAWUQ53.s 			page 176


 8998 0d5d 2E000000 		.4byte	.LVL186
 8999 0d61 4C000000 		.4byte	.LVL190
 9000 0d65 0400     		.2byte	0x4
 9001 0d67 F3       		.byte	0xf3
 9002 0d68 01       		.uleb128 0x1
 9003 0d69 52       		.byte	0x52
 9004 0d6a 9F       		.byte	0x9f
 9005 0d6b 4C000000 		.4byte	.LVL190
 9006 0d6f 6C000000 		.4byte	.LVL191
 9007 0d73 0100     		.2byte	0x1
 9008 0d75 52       		.byte	0x52
 9009 0d76 D6000000 		.4byte	.LVL202
 9010 0d7a D8000000 		.4byte	.LVL203
 9011 0d7e 0100     		.2byte	0x1
 9012 0d80 52       		.byte	0x52
 9013 0d81 D8000000 		.4byte	.LVL203
 9014 0d85 EE000000 		.4byte	.LVL206
 9015 0d89 0400     		.2byte	0x4
 9016 0d8b F3       		.byte	0xf3
 9017 0d8c 01       		.uleb128 0x1
 9018 0d8d 52       		.byte	0x52
 9019 0d8e 9F       		.byte	0x9f
 9020 0d8f F4000000 		.4byte	.LVL207
 9021 0d93 F6000000 		.4byte	.LVL208
 9022 0d97 0100     		.2byte	0x1
 9023 0d99 52       		.byte	0x52
 9024 0d9a F6000000 		.4byte	.LVL208
 9025 0d9e 12010000 		.4byte	.LVL213
 9026 0da2 0400     		.2byte	0x4
 9027 0da4 F3       		.byte	0xf3
 9028 0da5 01       		.uleb128 0x1
 9029 0da6 52       		.byte	0x52
 9030 0da7 9F       		.byte	0x9f
 9031 0da8 12010000 		.4byte	.LVL213
 9032 0dac 1C010000 		.4byte	.LFE9
 9033 0db0 0100     		.2byte	0x1
 9034 0db2 52       		.byte	0x52
 9035 0db3 00000000 		.4byte	0
 9036 0db7 00000000 		.4byte	0
 9037              	.LLST91:
 9038 0dbb 00000000 		.4byte	.LVL180
 9039 0dbf 24000000 		.4byte	.LVL183
 9040 0dc3 0100     		.2byte	0x1
 9041 0dc5 53       		.byte	0x53
 9042 0dc6 24000000 		.4byte	.LVL183
 9043 0dca 2C000000 		.4byte	.LVL185
 9044 0dce 0400     		.2byte	0x4
 9045 0dd0 F3       		.byte	0xf3
 9046 0dd1 01       		.uleb128 0x1
 9047 0dd2 53       		.byte	0x53
 9048 0dd3 9F       		.byte	0x9f
 9049 0dd4 2C000000 		.4byte	.LVL185
 9050 0dd8 35000000 		.4byte	.LVL188-1
 9051 0ddc 0100     		.2byte	0x1
 9052 0dde 53       		.byte	0x53
 9053 0ddf 35000000 		.4byte	.LVL188-1
 9054 0de3 4C000000 		.4byte	.LVL190
ARM GAS  C:\Users\info\AppData\Local\Temp\ccAWUQ53.s 			page 177


 9055 0de7 0400     		.2byte	0x4
 9056 0de9 F3       		.byte	0xf3
 9057 0dea 01       		.uleb128 0x1
 9058 0deb 53       		.byte	0x53
 9059 0dec 9F       		.byte	0x9f
 9060 0ded 4C000000 		.4byte	.LVL190
 9061 0df1 6C000000 		.4byte	.LVL191
 9062 0df5 0100     		.2byte	0x1
 9063 0df7 53       		.byte	0x53
 9064 0df8 6C000000 		.4byte	.LVL191
 9065 0dfc D6000000 		.4byte	.LVL202
 9066 0e00 0400     		.2byte	0x4
 9067 0e02 F3       		.byte	0xf3
 9068 0e03 01       		.uleb128 0x1
 9069 0e04 53       		.byte	0x53
 9070 0e05 9F       		.byte	0x9f
 9071 0e06 D6000000 		.4byte	.LVL202
 9072 0e0a DF000000 		.4byte	.LVL205-1
 9073 0e0e 0100     		.2byte	0x1
 9074 0e10 53       		.byte	0x53
 9075 0e11 DF000000 		.4byte	.LVL205-1
 9076 0e15 F4000000 		.4byte	.LVL207
 9077 0e19 0400     		.2byte	0x4
 9078 0e1b F3       		.byte	0xf3
 9079 0e1c 01       		.uleb128 0x1
 9080 0e1d 53       		.byte	0x53
 9081 0e1e 9F       		.byte	0x9f
 9082 0e1f F4000000 		.4byte	.LVL207
 9083 0e23 FA000000 		.4byte	.LVL209
 9084 0e27 0100     		.2byte	0x1
 9085 0e29 53       		.byte	0x53
 9086 0e2a FA000000 		.4byte	.LVL209
 9087 0e2e 12010000 		.4byte	.LVL213
 9088 0e32 0400     		.2byte	0x4
 9089 0e34 F3       		.byte	0xf3
 9090 0e35 01       		.uleb128 0x1
 9091 0e36 53       		.byte	0x53
 9092 0e37 9F       		.byte	0x9f
 9093 0e38 12010000 		.4byte	.LVL213
 9094 0e3c 18010000 		.4byte	.LVL215
 9095 0e40 0100     		.2byte	0x1
 9096 0e42 53       		.byte	0x53
 9097 0e43 18010000 		.4byte	.LVL215
 9098 0e47 1C010000 		.4byte	.LFE9
 9099 0e4b 0400     		.2byte	0x4
 9100 0e4d F3       		.byte	0xf3
 9101 0e4e 01       		.uleb128 0x1
 9102 0e4f 53       		.byte	0x53
 9103 0e50 9F       		.byte	0x9f
 9104 0e51 00000000 		.4byte	0
 9105 0e55 00000000 		.4byte	0
 9106              	.LLST92:
 9107 0e59 7A000000 		.4byte	.LVL193
 9108 0e5d 7C000000 		.4byte	.LVL194
 9109 0e61 0200     		.2byte	0x2
 9110 0e63 30       		.byte	0x30
 9111 0e64 9F       		.byte	0x9f
ARM GAS  C:\Users\info\AppData\Local\Temp\ccAWUQ53.s 			page 178


 9112 0e65 00000000 		.4byte	0
 9113 0e69 00000000 		.4byte	0
 9114              	.LLST93:
 9115 0e6d 4C000000 		.4byte	.LVL190
 9116 0e71 6C000000 		.4byte	.LVL191
 9117 0e75 0100     		.2byte	0x1
 9118 0e77 53       		.byte	0x53
 9119 0e78 6C000000 		.4byte	.LVL191
 9120 0e7c 74000000 		.4byte	.LVL192
 9121 0e80 0300     		.2byte	0x3
 9122 0e82 79       		.byte	0x79
 9123 0e83 01       		.sleb128 1
 9124 0e84 9F       		.byte	0x9f
 9125 0e85 74000000 		.4byte	.LVL192
 9126 0e89 7A000000 		.4byte	.LVL193
 9127 0e8d 0100     		.2byte	0x1
 9128 0e8f 59       		.byte	0x59
 9129 0e90 7A000000 		.4byte	.LVL193
 9130 0e94 D6000000 		.4byte	.LVL202
 9131 0e98 0300     		.2byte	0x3
 9132 0e9a 79       		.byte	0x79
 9133 0e9b 01       		.sleb128 1
 9134 0e9c 9F       		.byte	0x9f
 9135 0e9d 00000000 		.4byte	0
 9136 0ea1 00000000 		.4byte	0
 9137              	.LLST94:
 9138 0ea5 0A000000 		.4byte	.LVL182
 9139 0ea9 26000000 		.4byte	.LVL184
 9140 0ead 0700     		.2byte	0x7
 9141 0eaf 70       		.byte	0x70
 9142 0eb0 0C       		.sleb128 12
 9143 0eb1 94       		.byte	0x94
 9144 0eb2 01       		.byte	0x1
 9145 0eb3 31       		.byte	0x31
 9146 0eb4 1A       		.byte	0x1a
 9147 0eb5 9F       		.byte	0x9f
 9148 0eb6 26000000 		.4byte	.LVL184
 9149 0eba 2C000000 		.4byte	.LVL185
 9150 0ebe 0A00     		.2byte	0xa
 9151 0ec0 74       		.byte	0x74
 9152 0ec1 00       		.sleb128 0
 9153 0ec2 06       		.byte	0x6
 9154 0ec3 23       		.byte	0x23
 9155 0ec4 0C       		.uleb128 0xc
 9156 0ec5 94       		.byte	0x94
 9157 0ec6 01       		.byte	0x1
 9158 0ec7 31       		.byte	0x31
 9159 0ec8 1A       		.byte	0x1a
 9160 0ec9 9F       		.byte	0x9f
 9161 0eca 2C000000 		.4byte	.LVL185
 9162 0ece 32000000 		.4byte	.LVL187
 9163 0ed2 0700     		.2byte	0x7
 9164 0ed4 70       		.byte	0x70
 9165 0ed5 0C       		.sleb128 12
 9166 0ed6 94       		.byte	0x94
 9167 0ed7 01       		.byte	0x1
 9168 0ed8 31       		.byte	0x31
ARM GAS  C:\Users\info\AppData\Local\Temp\ccAWUQ53.s 			page 179


 9169 0ed9 1A       		.byte	0x1a
 9170 0eda 9F       		.byte	0x9f
 9171 0edb 32000000 		.4byte	.LVL187
 9172 0edf 35000000 		.4byte	.LVL188-1
 9173 0ee3 0A00     		.2byte	0xa
 9174 0ee5 74       		.byte	0x74
 9175 0ee6 00       		.sleb128 0
 9176 0ee7 06       		.byte	0x6
 9177 0ee8 23       		.byte	0x23
 9178 0ee9 0C       		.uleb128 0xc
 9179 0eea 94       		.byte	0x94
 9180 0eeb 01       		.byte	0x1
 9181 0eec 31       		.byte	0x31
 9182 0eed 1A       		.byte	0x1a
 9183 0eee 9F       		.byte	0x9f
 9184 0eef 4C000000 		.4byte	.LVL190
 9185 0ef3 6C000000 		.4byte	.LVL191
 9186 0ef7 0700     		.2byte	0x7
 9187 0ef9 70       		.byte	0x70
 9188 0efa 0C       		.sleb128 12
 9189 0efb 94       		.byte	0x94
 9190 0efc 01       		.byte	0x1
 9191 0efd 31       		.byte	0x31
 9192 0efe 1A       		.byte	0x1a
 9193 0eff 9F       		.byte	0x9f
 9194 0f00 D6000000 		.4byte	.LVL202
 9195 0f04 DC000000 		.4byte	.LVL204
 9196 0f08 0700     		.2byte	0x7
 9197 0f0a 70       		.byte	0x70
 9198 0f0b 0C       		.sleb128 12
 9199 0f0c 94       		.byte	0x94
 9200 0f0d 01       		.byte	0x1
 9201 0f0e 31       		.byte	0x31
 9202 0f0f 1A       		.byte	0x1a
 9203 0f10 9F       		.byte	0x9f
 9204 0f11 DC000000 		.4byte	.LVL204
 9205 0f15 DF000000 		.4byte	.LVL205-1
 9206 0f19 0A00     		.2byte	0xa
 9207 0f1b 74       		.byte	0x74
 9208 0f1c 00       		.sleb128 0
 9209 0f1d 06       		.byte	0x6
 9210 0f1e 23       		.byte	0x23
 9211 0f1f 0C       		.uleb128 0xc
 9212 0f20 94       		.byte	0x94
 9213 0f21 01       		.byte	0x1
 9214 0f22 31       		.byte	0x31
 9215 0f23 1A       		.byte	0x1a
 9216 0f24 9F       		.byte	0x9f
 9217 0f25 F4000000 		.4byte	.LVL207
 9218 0f29 FE000000 		.4byte	.LVL210
 9219 0f2d 0700     		.2byte	0x7
 9220 0f2f 70       		.byte	0x70
 9221 0f30 0C       		.sleb128 12
 9222 0f31 94       		.byte	0x94
 9223 0f32 01       		.byte	0x1
 9224 0f33 31       		.byte	0x31
 9225 0f34 1A       		.byte	0x1a
ARM GAS  C:\Users\info\AppData\Local\Temp\ccAWUQ53.s 			page 180


 9226 0f35 9F       		.byte	0x9f
 9227 0f36 FE000000 		.4byte	.LVL210
 9228 0f3a FF000000 		.4byte	.LVL211-1
 9229 0f3e 0A00     		.2byte	0xa
 9230 0f40 74       		.byte	0x74
 9231 0f41 00       		.sleb128 0
 9232 0f42 06       		.byte	0x6
 9233 0f43 23       		.byte	0x23
 9234 0f44 0C       		.uleb128 0xc
 9235 0f45 94       		.byte	0x94
 9236 0f46 01       		.byte	0x1
 9237 0f47 31       		.byte	0x31
 9238 0f48 1A       		.byte	0x1a
 9239 0f49 9F       		.byte	0x9f
 9240 0f4a 12010000 		.4byte	.LVL213
 9241 0f4e 14010000 		.4byte	.LVL214
 9242 0f52 0700     		.2byte	0x7
 9243 0f54 70       		.byte	0x70
 9244 0f55 0C       		.sleb128 12
 9245 0f56 94       		.byte	0x94
 9246 0f57 01       		.byte	0x1
 9247 0f58 31       		.byte	0x31
 9248 0f59 1A       		.byte	0x1a
 9249 0f5a 9F       		.byte	0x9f
 9250 0f5b 14010000 		.4byte	.LVL214
 9251 0f5f 18010000 		.4byte	.LVL215
 9252 0f63 0A00     		.2byte	0xa
 9253 0f65 74       		.byte	0x74
 9254 0f66 00       		.sleb128 0
 9255 0f67 06       		.byte	0x6
 9256 0f68 23       		.byte	0x23
 9257 0f69 0C       		.uleb128 0xc
 9258 0f6a 94       		.byte	0x94
 9259 0f6b 01       		.byte	0x1
 9260 0f6c 31       		.byte	0x31
 9261 0f6d 1A       		.byte	0x1a
 9262 0f6e 9F       		.byte	0x9f
 9263 0f6f 18010000 		.4byte	.LVL215
 9264 0f73 1C010000 		.4byte	.LFE9
 9265 0f77 0B00     		.2byte	0xb
 9266 0f79 F3       		.byte	0xf3
 9267 0f7a 01       		.uleb128 0x1
 9268 0f7b 50       		.byte	0x50
 9269 0f7c 06       		.byte	0x6
 9270 0f7d 23       		.byte	0x23
 9271 0f7e 0C       		.uleb128 0xc
 9272 0f7f 94       		.byte	0x94
 9273 0f80 01       		.byte	0x1
 9274 0f81 31       		.byte	0x31
 9275 0f82 1A       		.byte	0x1a
 9276 0f83 9F       		.byte	0x9f
 9277 0f84 00000000 		.4byte	0
 9278 0f88 00000000 		.4byte	0
 9279              	.LLST95:
 9280 0f8c 0A000000 		.4byte	.LVL182
 9281 0f90 26000000 		.4byte	.LVL184
 9282 0f94 0800     		.2byte	0x8
ARM GAS  C:\Users\info\AppData\Local\Temp\ccAWUQ53.s 			page 181


 9283 0f96 70       		.byte	0x70
 9284 0f97 0C       		.sleb128 12
 9285 0f98 94       		.byte	0x94
 9286 0f99 01       		.byte	0x1
 9287 0f9a 20       		.byte	0x20
 9288 0f9b 31       		.byte	0x31
 9289 0f9c 1A       		.byte	0x1a
 9290 0f9d 9F       		.byte	0x9f
 9291 0f9e 26000000 		.4byte	.LVL184
 9292 0fa2 2C000000 		.4byte	.LVL185
 9293 0fa6 0B00     		.2byte	0xb
 9294 0fa8 74       		.byte	0x74
 9295 0fa9 00       		.sleb128 0
 9296 0faa 06       		.byte	0x6
 9297 0fab 23       		.byte	0x23
 9298 0fac 0C       		.uleb128 0xc
 9299 0fad 94       		.byte	0x94
 9300 0fae 01       		.byte	0x1
 9301 0faf 20       		.byte	0x20
 9302 0fb0 31       		.byte	0x31
 9303 0fb1 1A       		.byte	0x1a
 9304 0fb2 9F       		.byte	0x9f
 9305 0fb3 2C000000 		.4byte	.LVL185
 9306 0fb7 32000000 		.4byte	.LVL187
 9307 0fbb 0800     		.2byte	0x8
 9308 0fbd 70       		.byte	0x70
 9309 0fbe 0C       		.sleb128 12
 9310 0fbf 94       		.byte	0x94
 9311 0fc0 01       		.byte	0x1
 9312 0fc1 20       		.byte	0x20
 9313 0fc2 31       		.byte	0x31
 9314 0fc3 1A       		.byte	0x1a
 9315 0fc4 9F       		.byte	0x9f
 9316 0fc5 32000000 		.4byte	.LVL187
 9317 0fc9 35000000 		.4byte	.LVL188-1
 9318 0fcd 0B00     		.2byte	0xb
 9319 0fcf 74       		.byte	0x74
 9320 0fd0 00       		.sleb128 0
 9321 0fd1 06       		.byte	0x6
 9322 0fd2 23       		.byte	0x23
 9323 0fd3 0C       		.uleb128 0xc
 9324 0fd4 94       		.byte	0x94
 9325 0fd5 01       		.byte	0x1
 9326 0fd6 20       		.byte	0x20
 9327 0fd7 31       		.byte	0x31
 9328 0fd8 1A       		.byte	0x1a
 9329 0fd9 9F       		.byte	0x9f
 9330 0fda 4C000000 		.4byte	.LVL190
 9331 0fde 6C000000 		.4byte	.LVL191
 9332 0fe2 0800     		.2byte	0x8
 9333 0fe4 70       		.byte	0x70
 9334 0fe5 0C       		.sleb128 12
 9335 0fe6 94       		.byte	0x94
 9336 0fe7 01       		.byte	0x1
 9337 0fe8 20       		.byte	0x20
 9338 0fe9 31       		.byte	0x31
 9339 0fea 1A       		.byte	0x1a
ARM GAS  C:\Users\info\AppData\Local\Temp\ccAWUQ53.s 			page 182


 9340 0feb 9F       		.byte	0x9f
 9341 0fec D6000000 		.4byte	.LVL202
 9342 0ff0 DC000000 		.4byte	.LVL204
 9343 0ff4 0800     		.2byte	0x8
 9344 0ff6 70       		.byte	0x70
 9345 0ff7 0C       		.sleb128 12
 9346 0ff8 94       		.byte	0x94
 9347 0ff9 01       		.byte	0x1
 9348 0ffa 20       		.byte	0x20
 9349 0ffb 31       		.byte	0x31
 9350 0ffc 1A       		.byte	0x1a
 9351 0ffd 9F       		.byte	0x9f
 9352 0ffe DC000000 		.4byte	.LVL204
 9353 1002 DF000000 		.4byte	.LVL205-1
 9354 1006 0B00     		.2byte	0xb
 9355 1008 74       		.byte	0x74
 9356 1009 00       		.sleb128 0
 9357 100a 06       		.byte	0x6
 9358 100b 23       		.byte	0x23
 9359 100c 0C       		.uleb128 0xc
 9360 100d 94       		.byte	0x94
 9361 100e 01       		.byte	0x1
 9362 100f 20       		.byte	0x20
 9363 1010 31       		.byte	0x31
 9364 1011 1A       		.byte	0x1a
 9365 1012 9F       		.byte	0x9f
 9366 1013 F4000000 		.4byte	.LVL207
 9367 1017 FE000000 		.4byte	.LVL210
 9368 101b 0800     		.2byte	0x8
 9369 101d 70       		.byte	0x70
 9370 101e 0C       		.sleb128 12
 9371 101f 94       		.byte	0x94
 9372 1020 01       		.byte	0x1
 9373 1021 20       		.byte	0x20
 9374 1022 31       		.byte	0x31
 9375 1023 1A       		.byte	0x1a
 9376 1024 9F       		.byte	0x9f
 9377 1025 FE000000 		.4byte	.LVL210
 9378 1029 FF000000 		.4byte	.LVL211-1
 9379 102d 0B00     		.2byte	0xb
 9380 102f 74       		.byte	0x74
 9381 1030 00       		.sleb128 0
 9382 1031 06       		.byte	0x6
 9383 1032 23       		.byte	0x23
 9384 1033 0C       		.uleb128 0xc
 9385 1034 94       		.byte	0x94
 9386 1035 01       		.byte	0x1
 9387 1036 20       		.byte	0x20
 9388 1037 31       		.byte	0x31
 9389 1038 1A       		.byte	0x1a
 9390 1039 9F       		.byte	0x9f
 9391 103a 12010000 		.4byte	.LVL213
 9392 103e 14010000 		.4byte	.LVL214
 9393 1042 0800     		.2byte	0x8
 9394 1044 70       		.byte	0x70
 9395 1045 0C       		.sleb128 12
 9396 1046 94       		.byte	0x94
ARM GAS  C:\Users\info\AppData\Local\Temp\ccAWUQ53.s 			page 183


 9397 1047 01       		.byte	0x1
 9398 1048 20       		.byte	0x20
 9399 1049 31       		.byte	0x31
 9400 104a 1A       		.byte	0x1a
 9401 104b 9F       		.byte	0x9f
 9402 104c 14010000 		.4byte	.LVL214
 9403 1050 18010000 		.4byte	.LVL215
 9404 1054 0B00     		.2byte	0xb
 9405 1056 74       		.byte	0x74
 9406 1057 00       		.sleb128 0
 9407 1058 06       		.byte	0x6
 9408 1059 23       		.byte	0x23
 9409 105a 0C       		.uleb128 0xc
 9410 105b 94       		.byte	0x94
 9411 105c 01       		.byte	0x1
 9412 105d 20       		.byte	0x20
 9413 105e 31       		.byte	0x31
 9414 105f 1A       		.byte	0x1a
 9415 1060 9F       		.byte	0x9f
 9416 1061 18010000 		.4byte	.LVL215
 9417 1065 1C010000 		.4byte	.LFE9
 9418 1069 0C00     		.2byte	0xc
 9419 106b F3       		.byte	0xf3
 9420 106c 01       		.uleb128 0x1
 9421 106d 50       		.byte	0x50
 9422 106e 06       		.byte	0x6
 9423 106f 23       		.byte	0x23
 9424 1070 0C       		.uleb128 0xc
 9425 1071 94       		.byte	0x94
 9426 1072 01       		.byte	0x1
 9427 1073 20       		.byte	0x20
 9428 1074 31       		.byte	0x31
 9429 1075 1A       		.byte	0x1a
 9430 1076 9F       		.byte	0x9f
 9431 1077 00000000 		.4byte	0
 9432 107b 00000000 		.4byte	0
 9433              	.LLST96:
 9434 107f 74000000 		.4byte	.LVL192
 9435 1083 C0000000 		.4byte	.LVL199
 9436 1087 0100     		.2byte	0x1
 9437 1089 55       		.byte	0x55
 9438 108a CA000000 		.4byte	.LVL201
 9439 108e D6000000 		.4byte	.LVL202
 9440 1092 0100     		.2byte	0x1
 9441 1094 55       		.byte	0x55
 9442 1095 00000000 		.4byte	0
 9443 1099 00000000 		.4byte	0
 9444              	.LLST97:
 9445 109d 00000000 		.4byte	.LVL216
 9446 10a1 0F000000 		.4byte	.LVL218-1
 9447 10a5 0100     		.2byte	0x1
 9448 10a7 50       		.byte	0x50
 9449 10a8 0F000000 		.4byte	.LVL218-1
 9450 10ac 26000000 		.4byte	.LVL220
 9451 10b0 0100     		.2byte	0x1
 9452 10b2 55       		.byte	0x55
 9453 10b3 26000000 		.4byte	.LVL220
ARM GAS  C:\Users\info\AppData\Local\Temp\ccAWUQ53.s 			page 184


 9454 10b7 2B000000 		.4byte	.LVL221-1
 9455 10bb 0100     		.2byte	0x1
 9456 10bd 50       		.byte	0x50
 9457 10be 2B000000 		.4byte	.LVL221-1
 9458 10c2 2C000000 		.4byte	.LFE10
 9459 10c6 0400     		.2byte	0x4
 9460 10c8 F3       		.byte	0xf3
 9461 10c9 01       		.uleb128 0x1
 9462 10ca 50       		.byte	0x50
 9463 10cb 9F       		.byte	0x9f
 9464 10cc 00000000 		.4byte	0
 9465 10d0 00000000 		.4byte	0
 9466              	.LLST98:
 9467 10d4 00000000 		.4byte	.LVL216
 9468 10d8 0C000000 		.4byte	.LVL217
 9469 10dc 0100     		.2byte	0x1
 9470 10de 51       		.byte	0x51
 9471 10df 0C000000 		.4byte	.LVL217
 9472 10e3 10000000 		.4byte	.LVL218
 9473 10e7 0400     		.2byte	0x4
 9474 10e9 F3       		.byte	0xf3
 9475 10ea 01       		.uleb128 0x1
 9476 10eb 51       		.byte	0x51
 9477 10ec 9F       		.byte	0x9f
 9478 10ed 10000000 		.4byte	.LVL218
 9479 10f1 1C000000 		.4byte	.LVL219
 9480 10f5 0100     		.2byte	0x1
 9481 10f7 54       		.byte	0x54
 9482 10f8 1C000000 		.4byte	.LVL219
 9483 10fc 26000000 		.4byte	.LVL220
 9484 1100 0500     		.2byte	0x5
 9485 1102 74       		.byte	0x74
 9486 1103 00       		.sleb128 0
 9487 1104 31       		.byte	0x31
 9488 1105 25       		.byte	0x25
 9489 1106 9F       		.byte	0x9f
 9490 1107 00000000 		.4byte	0
 9491 110b 00000000 		.4byte	0
 9492              	.LLST99:
 9493 110f 00000000 		.4byte	.LVL222
 9494 1113 27000000 		.4byte	.LVL225-1
 9495 1117 0100     		.2byte	0x1
 9496 1119 50       		.byte	0x50
 9497 111a 27000000 		.4byte	.LVL225-1
 9498 111e 2E000000 		.4byte	.LVL226
 9499 1122 0100     		.2byte	0x1
 9500 1124 56       		.byte	0x56
 9501 1125 2E000000 		.4byte	.LVL226
 9502 1129 37000000 		.4byte	.LVL228-1
 9503 112d 0100     		.2byte	0x1
 9504 112f 50       		.byte	0x50
 9505 1130 37000000 		.4byte	.LVL228-1
 9506 1134 48000000 		.4byte	.LVL230
 9507 1138 0100     		.2byte	0x1
 9508 113a 56       		.byte	0x56
 9509 113b 48000000 		.4byte	.LVL230
 9510 113f 5A000000 		.4byte	.LVL231
ARM GAS  C:\Users\info\AppData\Local\Temp\ccAWUQ53.s 			page 185


 9511 1143 0100     		.2byte	0x1
 9512 1145 50       		.byte	0x50
 9513 1146 5A000000 		.4byte	.LVL231
 9514 114a AE000000 		.4byte	.LVL241
 9515 114e 0100     		.2byte	0x1
 9516 1150 56       		.byte	0x56
 9517 1151 AE000000 		.4byte	.LVL241
 9518 1155 B3000000 		.4byte	.LVL242-1
 9519 1159 0100     		.2byte	0x1
 9520 115b 50       		.byte	0x50
 9521 115c B3000000 		.4byte	.LVL242-1
 9522 1160 C8000000 		.4byte	.LVL244
 9523 1164 0100     		.2byte	0x1
 9524 1166 56       		.byte	0x56
 9525 1167 C8000000 		.4byte	.LVL244
 9526 116b D3000000 		.4byte	.LVL246-1
 9527 116f 0100     		.2byte	0x1
 9528 1171 50       		.byte	0x50
 9529 1172 D3000000 		.4byte	.LVL246-1
 9530 1176 E2000000 		.4byte	.LVL248
 9531 117a 0100     		.2byte	0x1
 9532 117c 56       		.byte	0x56
 9533 117d E2000000 		.4byte	.LVL248
 9534 1181 E4000000 		.4byte	.LVL249
 9535 1185 0100     		.2byte	0x1
 9536 1187 50       		.byte	0x50
 9537 1188 E4000000 		.4byte	.LVL249
 9538 118c E8000000 		.4byte	.LFE11
 9539 1190 0100     		.2byte	0x1
 9540 1192 56       		.byte	0x56
 9541 1193 00000000 		.4byte	0
 9542 1197 00000000 		.4byte	0
 9543              	.LLST100:
 9544 119b 00000000 		.4byte	.LVL222
 9545 119f 02000000 		.4byte	.LVL223
 9546 11a3 0100     		.2byte	0x1
 9547 11a5 51       		.byte	0x51
 9548 11a6 02000000 		.4byte	.LVL223
 9549 11aa E8000000 		.4byte	.LFE11
 9550 11ae 0400     		.2byte	0x4
 9551 11b0 F3       		.byte	0xf3
 9552 11b1 01       		.uleb128 0x1
 9553 11b2 51       		.byte	0x51
 9554 11b3 9F       		.byte	0x9f
 9555 11b4 00000000 		.4byte	0
 9556 11b8 00000000 		.4byte	0
 9557              	.LLST101:
 9558 11bc 00000000 		.4byte	.LVL222
 9559 11c0 27000000 		.4byte	.LVL225-1
 9560 11c4 0100     		.2byte	0x1
 9561 11c6 52       		.byte	0x52
 9562 11c7 27000000 		.4byte	.LVL225-1
 9563 11cb 2E000000 		.4byte	.LVL226
 9564 11cf 0400     		.2byte	0x4
 9565 11d1 F3       		.byte	0xf3
 9566 11d2 01       		.uleb128 0x1
 9567 11d3 52       		.byte	0x52
ARM GAS  C:\Users\info\AppData\Local\Temp\ccAWUQ53.s 			page 186


 9568 11d4 9F       		.byte	0x9f
 9569 11d5 2E000000 		.4byte	.LVL226
 9570 11d9 34000000 		.4byte	.LVL227
 9571 11dd 0100     		.2byte	0x1
 9572 11df 52       		.byte	0x52
 9573 11e0 34000000 		.4byte	.LVL227
 9574 11e4 48000000 		.4byte	.LVL230
 9575 11e8 0400     		.2byte	0x4
 9576 11ea F3       		.byte	0xf3
 9577 11eb 01       		.uleb128 0x1
 9578 11ec 52       		.byte	0x52
 9579 11ed 9F       		.byte	0x9f
 9580 11ee 48000000 		.4byte	.LVL230
 9581 11f2 5A000000 		.4byte	.LVL231
 9582 11f6 0100     		.2byte	0x1
 9583 11f8 52       		.byte	0x52
 9584 11f9 AE000000 		.4byte	.LVL241
 9585 11fd B3000000 		.4byte	.LVL242-1
 9586 1201 0100     		.2byte	0x1
 9587 1203 52       		.byte	0x52
 9588 1204 B3000000 		.4byte	.LVL242-1
 9589 1208 C2000000 		.4byte	.LVL243
 9590 120c 0400     		.2byte	0x4
 9591 120e F3       		.byte	0xf3
 9592 120f 01       		.uleb128 0x1
 9593 1210 52       		.byte	0x52
 9594 1211 9F       		.byte	0x9f
 9595 1212 C8000000 		.4byte	.LVL244
 9596 1216 CE000000 		.4byte	.LVL245
 9597 121a 0100     		.2byte	0x1
 9598 121c 52       		.byte	0x52
 9599 121d CE000000 		.4byte	.LVL245
 9600 1221 E2000000 		.4byte	.LVL248
 9601 1225 0400     		.2byte	0x4
 9602 1227 F3       		.byte	0xf3
 9603 1228 01       		.uleb128 0x1
 9604 1229 52       		.byte	0x52
 9605 122a 9F       		.byte	0x9f
 9606 122b E2000000 		.4byte	.LVL248
 9607 122f E8000000 		.4byte	.LFE11
 9608 1233 0100     		.2byte	0x1
 9609 1235 52       		.byte	0x52
 9610 1236 00000000 		.4byte	0
 9611 123a 00000000 		.4byte	0
 9612              	.LLST102:
 9613 123e 00000000 		.4byte	.LVL222
 9614 1242 14000000 		.4byte	.LVL224
 9615 1246 0100     		.2byte	0x1
 9616 1248 53       		.byte	0x53
 9617 1249 14000000 		.4byte	.LVL224
 9618 124d 5A000000 		.4byte	.LVL231
 9619 1251 0100     		.2byte	0x1
 9620 1253 57       		.byte	0x57
 9621 1254 5A000000 		.4byte	.LVL231
 9622 1258 AE000000 		.4byte	.LVL241
 9623 125c 0400     		.2byte	0x4
 9624 125e F3       		.byte	0xf3
ARM GAS  C:\Users\info\AppData\Local\Temp\ccAWUQ53.s 			page 187


 9625 125f 01       		.uleb128 0x1
 9626 1260 53       		.byte	0x53
 9627 1261 9F       		.byte	0x9f
 9628 1262 AE000000 		.4byte	.LVL241
 9629 1266 E8000000 		.4byte	.LFE11
 9630 126a 0100     		.2byte	0x1
 9631 126c 57       		.byte	0x57
 9632 126d 00000000 		.4byte	0
 9633 1271 00000000 		.4byte	0
 9634              	.LLST103:
 9635 1275 5E000000 		.4byte	.LVL232
 9636 1279 60000000 		.4byte	.LVL233
 9637 127d 0300     		.2byte	0x3
 9638 127f 08       		.byte	0x8
 9639 1280 40       		.byte	0x40
 9640 1281 9F       		.byte	0x9f
 9641 1282 60000000 		.4byte	.LVL233
 9642 1286 64000000 		.4byte	.LVL234
 9643 128a 0100     		.2byte	0x1
 9644 128c 54       		.byte	0x54
 9645 128d 76000000 		.4byte	.LVL236
 9646 1291 AE000000 		.4byte	.LVL241
 9647 1295 0100     		.2byte	0x1
 9648 1297 54       		.byte	0x54
 9649 1298 00000000 		.4byte	0
 9650 129c 00000000 		.4byte	0
 9651              	.LLST104:
 9652 12a0 5E000000 		.4byte	.LVL232
 9653 12a4 AE000000 		.4byte	.LVL241
 9654 12a8 0100     		.2byte	0x1
 9655 12aa 55       		.byte	0x55
 9656 12ab 00000000 		.4byte	0
 9657 12af 00000000 		.4byte	0
 9658              	.LLST105:
 9659 12b3 48000000 		.4byte	.LVL230
 9660 12b7 AE000000 		.4byte	.LVL241
 9661 12bb 0100     		.2byte	0x1
 9662 12bd 57       		.byte	0x57
 9663 12be 00000000 		.4byte	0
 9664 12c2 00000000 		.4byte	0
 9665              	.LLST106:
 9666 12c6 00000000 		.4byte	.LVL250
 9667 12ca 2C000000 		.4byte	.LVL255
 9668 12ce 0100     		.2byte	0x1
 9669 12d0 50       		.byte	0x50
 9670 12d1 2C000000 		.4byte	.LVL255
 9671 12d5 30000000 		.4byte	.LVL256
 9672 12d9 0100     		.2byte	0x1
 9673 12db 56       		.byte	0x56
 9674 12dc 30000000 		.4byte	.LVL256
 9675 12e0 35000000 		.4byte	.LVL257-1
 9676 12e4 0100     		.2byte	0x1
 9677 12e6 50       		.byte	0x50
 9678 12e7 35000000 		.4byte	.LVL257-1
 9679 12eb 3C000000 		.4byte	.LVL258
 9680 12ef 0100     		.2byte	0x1
 9681 12f1 56       		.byte	0x56
ARM GAS  C:\Users\info\AppData\Local\Temp\ccAWUQ53.s 			page 188


 9682 12f2 3C000000 		.4byte	.LVL258
 9683 12f6 45000000 		.4byte	.LVL260-1
 9684 12fa 0100     		.2byte	0x1
 9685 12fc 50       		.byte	0x50
 9686 12fd 45000000 		.4byte	.LVL260-1
 9687 1301 66000000 		.4byte	.LVL263
 9688 1305 0100     		.2byte	0x1
 9689 1307 56       		.byte	0x56
 9690 1308 66000000 		.4byte	.LVL263
 9691 130c 7C000000 		.4byte	.LVL264
 9692 1310 0100     		.2byte	0x1
 9693 1312 50       		.byte	0x50
 9694 1313 7C000000 		.4byte	.LVL264
 9695 1317 DE000000 		.4byte	.LVL275
 9696 131b 0100     		.2byte	0x1
 9697 131d 56       		.byte	0x56
 9698 131e DE000000 		.4byte	.LVL275
 9699 1322 E0000000 		.4byte	.LVL276
 9700 1326 0100     		.2byte	0x1
 9701 1328 50       		.byte	0x50
 9702 1329 E0000000 		.4byte	.LVL276
 9703 132d E4000000 		.4byte	.LVL277
 9704 1331 0100     		.2byte	0x1
 9705 1333 56       		.byte	0x56
 9706 1334 E4000000 		.4byte	.LVL277
 9707 1338 F0000000 		.4byte	.LFE12
 9708 133c 0100     		.2byte	0x1
 9709 133e 50       		.byte	0x50
 9710 133f 00000000 		.4byte	0
 9711 1343 00000000 		.4byte	0
 9712              	.LLST107:
 9713 1347 00000000 		.4byte	.LVL250
 9714 134b 02000000 		.4byte	.LVL251
 9715 134f 0100     		.2byte	0x1
 9716 1351 51       		.byte	0x51
 9717 1352 02000000 		.4byte	.LVL251
 9718 1356 F0000000 		.4byte	.LFE12
 9719 135a 0400     		.2byte	0x4
 9720 135c F3       		.byte	0xf3
 9721 135d 01       		.uleb128 0x1
 9722 135e 51       		.byte	0x51
 9723 135f 9F       		.byte	0x9f
 9724 1360 00000000 		.4byte	0
 9725 1364 00000000 		.4byte	0
 9726              	.LLST108:
 9727 1368 00000000 		.4byte	.LVL250
 9728 136c 28000000 		.4byte	.LVL253
 9729 1370 0100     		.2byte	0x1
 9730 1372 52       		.byte	0x52
 9731 1373 28000000 		.4byte	.LVL253
 9732 1377 2A000000 		.4byte	.LVL254
 9733 137b 0400     		.2byte	0x4
 9734 137d F3       		.byte	0xf3
 9735 137e 01       		.uleb128 0x1
 9736 137f 52       		.byte	0x52
 9737 1380 9F       		.byte	0x9f
 9738 1381 30000000 		.4byte	.LVL256
ARM GAS  C:\Users\info\AppData\Local\Temp\ccAWUQ53.s 			page 189


 9739 1385 35000000 		.4byte	.LVL257-1
 9740 1389 0100     		.2byte	0x1
 9741 138b 52       		.byte	0x52
 9742 138c 35000000 		.4byte	.LVL257-1
 9743 1390 3C000000 		.4byte	.LVL258
 9744 1394 0400     		.2byte	0x4
 9745 1396 F3       		.byte	0xf3
 9746 1397 01       		.uleb128 0x1
 9747 1398 52       		.byte	0x52
 9748 1399 9F       		.byte	0x9f
 9749 139a 3C000000 		.4byte	.LVL258
 9750 139e 42000000 		.4byte	.LVL259
 9751 13a2 0100     		.2byte	0x1
 9752 13a4 52       		.byte	0x52
 9753 13a5 42000000 		.4byte	.LVL259
 9754 13a9 66000000 		.4byte	.LVL263
 9755 13ad 0400     		.2byte	0x4
 9756 13af F3       		.byte	0xf3
 9757 13b0 01       		.uleb128 0x1
 9758 13b1 52       		.byte	0x52
 9759 13b2 9F       		.byte	0x9f
 9760 13b3 66000000 		.4byte	.LVL263
 9761 13b7 7C000000 		.4byte	.LVL264
 9762 13bb 0100     		.2byte	0x1
 9763 13bd 52       		.byte	0x52
 9764 13be DE000000 		.4byte	.LVL275
 9765 13c2 E6000000 		.4byte	.LVL278
 9766 13c6 0100     		.2byte	0x1
 9767 13c8 52       		.byte	0x52
 9768 13c9 E6000000 		.4byte	.LVL278
 9769 13cd F0000000 		.4byte	.LFE12
 9770 13d1 0400     		.2byte	0x4
 9771 13d3 F3       		.byte	0xf3
 9772 13d4 01       		.uleb128 0x1
 9773 13d5 52       		.byte	0x52
 9774 13d6 9F       		.byte	0x9f
 9775 13d7 00000000 		.4byte	0
 9776 13db 00000000 		.4byte	0
 9777              	.LLST109:
 9778 13df 00000000 		.4byte	.LVL250
 9779 13e3 12000000 		.4byte	.LVL252
 9780 13e7 0100     		.2byte	0x1
 9781 13e9 53       		.byte	0x53
 9782 13ea 12000000 		.4byte	.LVL252
 9783 13ee 7C000000 		.4byte	.LVL264
 9784 13f2 0100     		.2byte	0x1
 9785 13f4 57       		.byte	0x57
 9786 13f5 7C000000 		.4byte	.LVL264
 9787 13f9 DE000000 		.4byte	.LVL275
 9788 13fd 0400     		.2byte	0x4
 9789 13ff F3       		.byte	0xf3
 9790 1400 01       		.uleb128 0x1
 9791 1401 53       		.byte	0x53
 9792 1402 9F       		.byte	0x9f
 9793 1403 DE000000 		.4byte	.LVL275
 9794 1407 F0000000 		.4byte	.LFE12
 9795 140b 0100     		.2byte	0x1
ARM GAS  C:\Users\info\AppData\Local\Temp\ccAWUQ53.s 			page 190


 9796 140d 57       		.byte	0x57
 9797 140e 00000000 		.4byte	0
 9798 1412 00000000 		.4byte	0
 9799              	.LLST110:
 9800 1416 80000000 		.4byte	.LVL265
 9801 141a 82000000 		.4byte	.LVL266
 9802 141e 0300     		.2byte	0x3
 9803 1420 08       		.byte	0x8
 9804 1421 40       		.byte	0x40
 9805 1422 9F       		.byte	0x9f
 9806 1423 82000000 		.4byte	.LVL266
 9807 1427 86000000 		.4byte	.LVL267
 9808 142b 0100     		.2byte	0x1
 9809 142d 54       		.byte	0x54
 9810 142e 98000000 		.4byte	.LVL269
 9811 1432 DE000000 		.4byte	.LVL275
 9812 1436 0100     		.2byte	0x1
 9813 1438 54       		.byte	0x54
 9814 1439 00000000 		.4byte	0
 9815 143d 00000000 		.4byte	0
 9816              	.LLST111:
 9817 1441 80000000 		.4byte	.LVL265
 9818 1445 DE000000 		.4byte	.LVL275
 9819 1449 0100     		.2byte	0x1
 9820 144b 55       		.byte	0x55
 9821 144c 00000000 		.4byte	0
 9822 1450 00000000 		.4byte	0
 9823              	.LLST112:
 9824 1454 66000000 		.4byte	.LVL263
 9825 1458 DE000000 		.4byte	.LVL275
 9826 145c 0100     		.2byte	0x1
 9827 145e 57       		.byte	0x57
 9828 145f 00000000 		.4byte	0
 9829 1463 00000000 		.4byte	0
 9830              	.LLST113:
 9831 1467 00000000 		.4byte	.LVL279
 9832 146b 25000000 		.4byte	.LVL283-1
 9833 146f 0100     		.2byte	0x1
 9834 1471 50       		.byte	0x50
 9835 1472 25000000 		.4byte	.LVL283-1
 9836 1476 56000000 		.4byte	.LVL290
 9837 147a 0100     		.2byte	0x1
 9838 147c 55       		.byte	0x55
 9839 147d 56000000 		.4byte	.LVL290
 9840 1481 5D000000 		.4byte	.LVL292-1
 9841 1485 0100     		.2byte	0x1
 9842 1487 50       		.byte	0x50
 9843 1488 5D000000 		.4byte	.LVL292-1
 9844 148c 72000000 		.4byte	.LVL295
 9845 1490 0100     		.2byte	0x1
 9846 1492 55       		.byte	0x55
 9847 1493 72000000 		.4byte	.LVL295
 9848 1497 7E000000 		.4byte	.LVL296
 9849 149b 0100     		.2byte	0x1
 9850 149d 50       		.byte	0x50
 9851 149e 7E000000 		.4byte	.LVL296
 9852 14a2 90000000 		.4byte	.LVL299
ARM GAS  C:\Users\info\AppData\Local\Temp\ccAWUQ53.s 			page 191


 9853 14a6 0100     		.2byte	0x1
 9854 14a8 55       		.byte	0x55
 9855 14a9 90000000 		.4byte	.LVL299
 9856 14ad 9D000000 		.4byte	.LVL302-1
 9857 14b1 0100     		.2byte	0x1
 9858 14b3 50       		.byte	0x50
 9859 14b4 9D000000 		.4byte	.LVL302-1
 9860 14b8 EC000000 		.4byte	.LVL313
 9861 14bc 0100     		.2byte	0x1
 9862 14be 55       		.byte	0x55
 9863 14bf EC000000 		.4byte	.LVL313
 9864 14c3 EE000000 		.4byte	.LVL314
 9865 14c7 0100     		.2byte	0x1
 9866 14c9 50       		.byte	0x50
 9867 14ca EE000000 		.4byte	.LVL314
 9868 14ce F0000000 		.4byte	.LFE24
 9869 14d2 0100     		.2byte	0x1
 9870 14d4 55       		.byte	0x55
 9871 14d5 00000000 		.4byte	0
 9872 14d9 00000000 		.4byte	0
 9873              	.LLST114:
 9874 14dd 00000000 		.4byte	.LVL279
 9875 14e1 02000000 		.4byte	.LVL280
 9876 14e5 0100     		.2byte	0x1
 9877 14e7 51       		.byte	0x51
 9878 14e8 02000000 		.4byte	.LVL280
 9879 14ec F0000000 		.4byte	.LFE24
 9880 14f0 0400     		.2byte	0x4
 9881 14f2 F3       		.byte	0xf3
 9882 14f3 01       		.uleb128 0x1
 9883 14f4 51       		.byte	0x51
 9884 14f5 9F       		.byte	0x9f
 9885 14f6 00000000 		.4byte	0
 9886 14fa 00000000 		.4byte	0
 9887              	.LLST115:
 9888 14fe 00000000 		.4byte	.LVL279
 9889 1502 20000000 		.4byte	.LVL282
 9890 1506 0100     		.2byte	0x1
 9891 1508 52       		.byte	0x52
 9892 1509 20000000 		.4byte	.LVL282
 9893 150d 52000000 		.4byte	.LVL289
 9894 1511 0400     		.2byte	0x4
 9895 1513 F3       		.byte	0xf3
 9896 1514 01       		.uleb128 0x1
 9897 1515 52       		.byte	0x52
 9898 1516 9F       		.byte	0x9f
 9899 1517 56000000 		.4byte	.LVL290
 9900 151b 58000000 		.4byte	.LVL291
 9901 151f 0100     		.2byte	0x1
 9902 1521 52       		.byte	0x52
 9903 1522 58000000 		.4byte	.LVL291
 9904 1526 72000000 		.4byte	.LVL295
 9905 152a 0400     		.2byte	0x4
 9906 152c F3       		.byte	0xf3
 9907 152d 01       		.uleb128 0x1
 9908 152e 52       		.byte	0x52
 9909 152f 9F       		.byte	0x9f
ARM GAS  C:\Users\info\AppData\Local\Temp\ccAWUQ53.s 			page 192


 9910 1530 72000000 		.4byte	.LVL295
 9911 1534 7E000000 		.4byte	.LVL296
 9912 1538 0100     		.2byte	0x1
 9913 153a 52       		.byte	0x52
 9914 153b 90000000 		.4byte	.LVL299
 9915 153f 98000000 		.4byte	.LVL301
 9916 1543 0100     		.2byte	0x1
 9917 1545 52       		.byte	0x52
 9918 1546 98000000 		.4byte	.LVL301
 9919 154a EC000000 		.4byte	.LVL313
 9920 154e 0400     		.2byte	0x4
 9921 1550 F3       		.byte	0xf3
 9922 1551 01       		.uleb128 0x1
 9923 1552 52       		.byte	0x52
 9924 1553 9F       		.byte	0x9f
 9925 1554 EC000000 		.4byte	.LVL313
 9926 1558 F0000000 		.4byte	.LFE24
 9927 155c 0100     		.2byte	0x1
 9928 155e 52       		.byte	0x52
 9929 155f 00000000 		.4byte	0
 9930 1563 00000000 		.4byte	0
 9931              	.LLST116:
 9932 1567 00000000 		.4byte	.LVL279
 9933 156b 10000000 		.4byte	.LVL281
 9934 156f 0100     		.2byte	0x1
 9935 1571 53       		.byte	0x53
 9936 1572 10000000 		.4byte	.LVL281
 9937 1576 7E000000 		.4byte	.LVL296
 9938 157a 0100     		.2byte	0x1
 9939 157c 54       		.byte	0x54
 9940 157d 7E000000 		.4byte	.LVL296
 9941 1581 90000000 		.4byte	.LVL299
 9942 1585 0400     		.2byte	0x4
 9943 1587 F3       		.byte	0xf3
 9944 1588 01       		.uleb128 0x1
 9945 1589 53       		.byte	0x53
 9946 158a 9F       		.byte	0x9f
 9947 158b 90000000 		.4byte	.LVL299
 9948 158f D0000000 		.4byte	.LVL309
 9949 1593 0100     		.2byte	0x1
 9950 1595 54       		.byte	0x54
 9951 1596 D0000000 		.4byte	.LVL309
 9952 159a EC000000 		.4byte	.LVL313
 9953 159e 0400     		.2byte	0x4
 9954 15a0 F3       		.byte	0xf3
 9955 15a1 01       		.uleb128 0x1
 9956 15a2 53       		.byte	0x53
 9957 15a3 9F       		.byte	0x9f
 9958 15a4 EC000000 		.4byte	.LVL313
 9959 15a8 F0000000 		.4byte	.LFE24
 9960 15ac 0100     		.2byte	0x1
 9961 15ae 54       		.byte	0x54
 9962 15af 00000000 		.4byte	0
 9963 15b3 00000000 		.4byte	0
 9964              	.LLST117:
 9965 15b7 72000000 		.4byte	.LVL295
 9966 15bb 82000000 		.4byte	.LVL297
ARM GAS  C:\Users\info\AppData\Local\Temp\ccAWUQ53.s 			page 193


 9967 15bf 0100     		.2byte	0x1
 9968 15c1 54       		.byte	0x54
 9969 15c2 82000000 		.4byte	.LVL297
 9970 15c6 88000000 		.4byte	.LVL298
 9971 15ca 0300     		.2byte	0x3
 9972 15cc 74       		.byte	0x74
 9973 15cd 7F       		.sleb128 -1
 9974 15ce 9F       		.byte	0x9f
 9975 15cf 88000000 		.4byte	.LVL298
 9976 15d3 90000000 		.4byte	.LVL299
 9977 15d7 0100     		.2byte	0x1
 9978 15d9 54       		.byte	0x54
 9979 15da 00000000 		.4byte	0
 9980 15de 00000000 		.4byte	0
 9981              	.LLST118:
 9982 15e2 10000000 		.4byte	.LVL281
 9983 15e6 25000000 		.4byte	.LVL283-1
 9984 15ea 0100     		.2byte	0x1
 9985 15ec 50       		.byte	0x50
 9986 15ed 25000000 		.4byte	.LVL283-1
 9987 15f1 52000000 		.4byte	.LVL289
 9988 15f5 0100     		.2byte	0x1
 9989 15f7 55       		.byte	0x55
 9990 15f8 00000000 		.4byte	0
 9991 15fc 00000000 		.4byte	0
 9992              	.LLST119:
 9993 1600 10000000 		.4byte	.LVL281
 9994 1604 25000000 		.4byte	.LVL283-1
 9995 1608 0100     		.2byte	0x1
 9996 160a 50       		.byte	0x50
 9997 160b 25000000 		.4byte	.LVL283-1
 9998 160f 26000000 		.4byte	.LVL283
 9999 1613 0100     		.2byte	0x1
 10000 1615 55       		.byte	0x55
 10001 1616 00000000 		.4byte	0
 10002 161a 00000000 		.4byte	0
 10003              	.LLST120:
 10004 161e 2C000000 		.4byte	.LVL284
 10005 1622 3C000000 		.4byte	.LVL286
 10006 1626 0100     		.2byte	0x1
 10007 1628 55       		.byte	0x55
 10008 1629 00000000 		.4byte	0
 10009 162d 00000000 		.4byte	0
 10010              	.LLST121:
 10011 1631 3C000000 		.4byte	.LVL286
 10012 1635 46000000 		.4byte	.LVL287
 10013 1639 0100     		.2byte	0x1
 10014 163b 55       		.byte	0x55
 10015 163c 00000000 		.4byte	0
 10016 1640 00000000 		.4byte	0
 10017              	.LLST122:
 10018 1644 56000000 		.4byte	.LVL290
 10019 1648 5D000000 		.4byte	.LVL292-1
 10020 164c 0100     		.2byte	0x1
 10021 164e 50       		.byte	0x50
 10022 164f 5D000000 		.4byte	.LVL292-1
 10023 1653 72000000 		.4byte	.LVL295
ARM GAS  C:\Users\info\AppData\Local\Temp\ccAWUQ53.s 			page 194


 10024 1657 0100     		.2byte	0x1
 10025 1659 55       		.byte	0x55
 10026 165a 00000000 		.4byte	0
 10027 165e 00000000 		.4byte	0
 10028              	.LLST123:
 10029 1662 90000000 		.4byte	.LVL299
 10030 1666 9D000000 		.4byte	.LVL302-1
 10031 166a 0100     		.2byte	0x1
 10032 166c 50       		.byte	0x50
 10033 166d 9D000000 		.4byte	.LVL302-1
 10034 1671 E0000000 		.4byte	.LVL311
 10035 1675 0100     		.2byte	0x1
 10036 1677 55       		.byte	0x55
 10037 1678 00000000 		.4byte	0
 10038 167c 00000000 		.4byte	0
 10039              	.LLST124:
 10040 1680 96000000 		.4byte	.LVL300
 10041 1684 9D000000 		.4byte	.LVL302-1
 10042 1688 0100     		.2byte	0x1
 10043 168a 50       		.byte	0x50
 10044 168b 9D000000 		.4byte	.LVL302-1
 10045 168f 9E000000 		.4byte	.LVL302
 10046 1693 0100     		.2byte	0x1
 10047 1695 55       		.byte	0x55
 10048 1696 00000000 		.4byte	0
 10049 169a 00000000 		.4byte	0
 10050              	.LLST125:
 10051 169e A4000000 		.4byte	.LVL303
 10052 16a2 B4000000 		.4byte	.LVL305
 10053 16a6 0100     		.2byte	0x1
 10054 16a8 55       		.byte	0x55
 10055 16a9 00000000 		.4byte	0
 10056 16ad 00000000 		.4byte	0
 10057              	.LLST126:
 10058 16b1 B4000000 		.4byte	.LVL305
 10059 16b5 BE000000 		.4byte	.LVL306
 10060 16b9 0100     		.2byte	0x1
 10061 16bb 55       		.byte	0x55
 10062 16bc 00000000 		.4byte	0
 10063 16c0 00000000 		.4byte	0
 10064              	.LLST127:
 10065 16c4 BE000000 		.4byte	.LVL306
 10066 16c8 C8000000 		.4byte	.LVL307
 10067 16cc 0100     		.2byte	0x1
 10068 16ce 55       		.byte	0x55
 10069 16cf 00000000 		.4byte	0
 10070 16d3 00000000 		.4byte	0
 10071              	.LLST128:
 10072 16d7 CE000000 		.4byte	.LVL308
 10073 16db DA000000 		.4byte	.LVL310
 10074 16df 0100     		.2byte	0x1
 10075 16e1 55       		.byte	0x55
 10076 16e2 00000000 		.4byte	0
 10077 16e6 00000000 		.4byte	0
 10078              		.section	.debug_aranges,"",%progbits
 10079 0000 94000000 		.4byte	0x94
 10080 0004 0200     		.2byte	0x2
ARM GAS  C:\Users\info\AppData\Local\Temp\ccAWUQ53.s 			page 195


 10081 0006 00000000 		.4byte	.Ldebug_info0
 10082 000a 04       		.byte	0x4
 10083 000b 00       		.byte	0
 10084 000c 0000     		.2byte	0
 10085 000e 0000     		.2byte	0
 10086 0010 00000000 		.4byte	.LFB13
 10087 0014 0A000000 		.4byte	.LFE13-.LFB13
 10088 0018 00000000 		.4byte	.LFB23
 10089 001c 3A020000 		.4byte	.LFE23-.LFB23
 10090 0020 00000000 		.4byte	.LFB0
 10091 0024 10000000 		.4byte	.LFE0-.LFB0
 10092 0028 00000000 		.4byte	.LFB1
 10093 002c 10000000 		.4byte	.LFE1-.LFB1
 10094 0030 00000000 		.4byte	.LFB2
 10095 0034 16000000 		.4byte	.LFE2-.LFB2
 10096 0038 00000000 		.4byte	.LFB3
 10097 003c 10000000 		.4byte	.LFE3-.LFB3
 10098 0040 00000000 		.4byte	.LFB4
 10099 0044 10000000 		.4byte	.LFE4-.LFB4
 10100 0048 00000000 		.4byte	.LFB5
 10101 004c 04000000 		.4byte	.LFE5-.LFB5
 10102 0050 00000000 		.4byte	.LFB6
 10103 0054 0E010000 		.4byte	.LFE6-.LFB6
 10104 0058 00000000 		.4byte	.LFB7
 10105 005c EE000000 		.4byte	.LFE7-.LFB7
 10106 0060 00000000 		.4byte	.LFB8
 10107 0064 EE000000 		.4byte	.LFE8-.LFB8
 10108 0068 00000000 		.4byte	.LFB9
 10109 006c 1C010000 		.4byte	.LFE9-.LFB9
 10110 0070 00000000 		.4byte	.LFB10
 10111 0074 2C000000 		.4byte	.LFE10-.LFB10
 10112 0078 00000000 		.4byte	.LFB11
 10113 007c E8000000 		.4byte	.LFE11-.LFB11
 10114 0080 00000000 		.4byte	.LFB12
 10115 0084 F0000000 		.4byte	.LFE12-.LFB12
 10116 0088 00000000 		.4byte	.LFB24
 10117 008c F0000000 		.4byte	.LFE24-.LFB24
 10118 0090 00000000 		.4byte	0
 10119 0094 00000000 		.4byte	0
 10120              		.section	.debug_ranges,"",%progbits
 10121              	.Ldebug_ranges0:
 10122 0000 02000000 		.4byte	.LBB124
 10123 0004 06000000 		.4byte	.LBE124
 10124 0008 0A000000 		.4byte	.LBB136
 10125 000c 3A000000 		.4byte	.LBE136
 10126 0010 E8010000 		.4byte	.LBB227
 10127 0014 F2010000 		.4byte	.LBE227
 10128 0018 00000000 		.4byte	0
 10129 001c 00000000 		.4byte	0
 10130 0020 3A000000 		.4byte	.LBB137
 10131 0024 70000000 		.4byte	.LBE137
 10132 0028 2E020000 		.4byte	.LBB233
 10133 002c 3A020000 		.4byte	.LBE233
 10134 0030 00000000 		.4byte	0
 10135 0034 00000000 		.4byte	0
 10136 0038 70000000 		.4byte	.LBB148
 10137 003c A6000000 		.4byte	.LBE148
ARM GAS  C:\Users\info\AppData\Local\Temp\ccAWUQ53.s 			page 196


 10138 0040 22020000 		.4byte	.LBB232
 10139 0044 2E020000 		.4byte	.LBE232
 10140 0048 00000000 		.4byte	0
 10141 004c 00000000 		.4byte	0
 10142 0050 A6000000 		.4byte	.LBB159
 10143 0054 DC000000 		.4byte	.LBE159
 10144 0058 16020000 		.4byte	.LBB231
 10145 005c 22020000 		.4byte	.LBE231
 10146 0060 00000000 		.4byte	0
 10147 0064 00000000 		.4byte	0
 10148 0068 DC000000 		.4byte	.LBB170
 10149 006c 12010000 		.4byte	.LBE170
 10150 0070 0A020000 		.4byte	.LBB230
 10151 0074 16020000 		.4byte	.LBE230
 10152 0078 00000000 		.4byte	0
 10153 007c 00000000 		.4byte	0
 10154 0080 12010000 		.4byte	.LBB181
 10155 0084 46010000 		.4byte	.LBE181
 10156 0088 FE010000 		.4byte	.LBB229
 10157 008c 0A020000 		.4byte	.LBE229
 10158 0090 00000000 		.4byte	0
 10159 0094 00000000 		.4byte	0
 10160 0098 46010000 		.4byte	.LBB192
 10161 009c 7A010000 		.4byte	.LBE192
 10162 00a0 F2010000 		.4byte	.LBB228
 10163 00a4 FE010000 		.4byte	.LBE228
 10164 00a8 00000000 		.4byte	0
 10165 00ac 00000000 		.4byte	0
 10166 00b0 AA010000 		.4byte	.LBB213
 10167 00b4 DC010000 		.4byte	.LBE213
 10168 00b8 E0010000 		.4byte	.LBB226
 10169 00bc E8010000 		.4byte	.LBE226
 10170 00c0 00000000 		.4byte	0
 10171 00c4 00000000 		.4byte	0
 10172 00c8 DA010000 		.4byte	.LBB221
 10173 00cc DC010000 		.4byte	.LBE221
 10174 00d0 E0010000 		.4byte	.LBB224
 10175 00d4 E8010000 		.4byte	.LBE224
 10176 00d8 00000000 		.4byte	0
 10177 00dc 00000000 		.4byte	0
 10178 00e0 90000000 		.4byte	.LBB266
 10179 00e4 DA000000 		.4byte	.LBE266
 10180 00e8 DC000000 		.4byte	.LBB279
 10181 00ec E0000000 		.4byte	.LBE279
 10182 00f0 00000000 		.4byte	0
 10183 00f4 00000000 		.4byte	0
 10184 00f8 00000000 		.4byte	.LFB13
 10185 00fc 0A000000 		.4byte	.LFE13
 10186 0100 00000000 		.4byte	.LFB23
 10187 0104 3A020000 		.4byte	.LFE23
 10188 0108 00000000 		.4byte	.LFB0
 10189 010c 10000000 		.4byte	.LFE0
 10190 0110 00000000 		.4byte	.LFB1
 10191 0114 10000000 		.4byte	.LFE1
 10192 0118 00000000 		.4byte	.LFB2
 10193 011c 16000000 		.4byte	.LFE2
 10194 0120 00000000 		.4byte	.LFB3
ARM GAS  C:\Users\info\AppData\Local\Temp\ccAWUQ53.s 			page 197


 10195 0124 10000000 		.4byte	.LFE3
 10196 0128 00000000 		.4byte	.LFB4
 10197 012c 10000000 		.4byte	.LFE4
 10198 0130 00000000 		.4byte	.LFB5
 10199 0134 04000000 		.4byte	.LFE5
 10200 0138 00000000 		.4byte	.LFB6
 10201 013c 0E010000 		.4byte	.LFE6
 10202 0140 00000000 		.4byte	.LFB7
 10203 0144 EE000000 		.4byte	.LFE7
 10204 0148 00000000 		.4byte	.LFB8
 10205 014c EE000000 		.4byte	.LFE8
 10206 0150 00000000 		.4byte	.LFB9
 10207 0154 1C010000 		.4byte	.LFE9
 10208 0158 00000000 		.4byte	.LFB10
 10209 015c 2C000000 		.4byte	.LFE10
 10210 0160 00000000 		.4byte	.LFB11
 10211 0164 E8000000 		.4byte	.LFE11
 10212 0168 00000000 		.4byte	.LFB12
 10213 016c F0000000 		.4byte	.LFE12
 10214 0170 00000000 		.4byte	.LFB24
 10215 0174 F0000000 		.4byte	.LFE24
 10216 0178 00000000 		.4byte	0
 10217 017c 00000000 		.4byte	0
 10218              		.section	.debug_line,"",%progbits
 10219              	.Ldebug_line0:
 10220 0000 57050000 		.section	.debug_str,"MS",%progbits,1
 10220      02003D01 
 10220      00000201 
 10220      FB0E0D00 
 10220      01010101 
 10221              	.LASF44:
 10222 0000 72657365 		.ascii	"reset_pulse_width_ms\000"
 10222      745F7075 
 10222      6C73655F 
 10222      77696474 
 10222      685F6D73 
 10223              	.LASF88:
 10224 0015 75387838 		.ascii	"u8x8_byte_sed1520\000"
 10224      5F627974 
 10224      655F7365 
 10224      64313532 
 10224      3000
 10225              	.LASF3:
 10226 0027 5F5F7569 		.ascii	"__uint8_t\000"
 10226      6E74385F 
 10226      7400
 10227              	.LASF21:
 10228 0031 62797465 		.ascii	"byte_cb\000"
 10228      5F636200 
 10229              	.LASF95:
 10230 0039 2E2E5C75 		.ascii	"..\\u8g2-master\\csrc\\u8x8_byte.c\000"
 10230      3867322D 
 10230      6D617374 
 10230      65725C63 
 10230      7372635C 
 10231              	.LASF10:
 10232 0059 6C6F6E67 		.ascii	"long long unsigned int\000"
ARM GAS  C:\Users\info\AppData\Local\Temp\ccAWUQ53.s 			page 198


 10232      206C6F6E 
 10232      6720756E 
 10232      7369676E 
 10232      65642069 
 10233              	.LASF86:
 10234 0070 6C617374 		.ascii	"last_dc\000"
 10234      5F646300 
 10235              	.LASF73:
 10236 0078 75387838 		.ascii	"u8x8_byte_SendByte\000"
 10236      5F627974 
 10236      655F5365 
 10236      6E644279 
 10236      746500
 10237              	.LASF45:
 10238 008b 706F7374 		.ascii	"post_reset_wait_ms\000"
 10238      5F726573 
 10238      65745F77 
 10238      6169745F 
 10238      6D7300
 10239              	.LASF31:
 10240 009e 75746638 		.ascii	"utf8_state\000"
 10240      5F737461 
 10240      746500
 10241              	.LASF82:
 10242 00a9 6E6F745F 		.ascii	"not_takeover_edge\000"
 10242      74616B65 
 10242      6F766572 
 10242      5F656467 
 10242      6500
 10243              	.LASF32:
 10244 00bb 6770696F 		.ascii	"gpio_result\000"
 10244      5F726573 
 10244      756C7400 
 10245              	.LASF84:
 10246 00c7 75387838 		.ascii	"u8x8_byte_8bit_8080mode\000"
 10246      5F627974 
 10246      655F3862 
 10246      69745F38 
 10246      3038306D 
 10247              	.LASF9:
 10248 00df 6C6F6E67 		.ascii	"long long int\000"
 10248      206C6F6E 
 10248      6720696E 
 10248      7400
 10249              	.LASF0:
 10250 00ed 7369676E 		.ascii	"signed char\000"
 10250      65642063 
 10250      68617200 
 10251              	.LASF27:
 10252 00f9 69735F66 		.ascii	"is_font_inverse_mode\000"
 10252      6F6E745F 
 10252      696E7665 
 10252      7273655F 
 10252      6D6F6465 
 10253              	.LASF98:
 10254 010e 75387838 		.ascii	"u8x8_gpio_call\000"
 10254      5F677069 
ARM GAS  C:\Users\info\AppData\Local\Temp\ccAWUQ53.s 			page 199


 10254      6F5F6361 
 10254      6C6C00
 10255              	.LASF19:
 10256 011d 64697370 		.ascii	"display_cb\000"
 10256      6C61795F 
 10256      636200
 10257              	.LASF70:
 10258 0128 75387838 		.ascii	"u8x8_byte_SetDC\000"
 10258      5F627974 
 10258      655F5365 
 10258      74444300 
 10259              	.LASF43:
 10260 0138 7072655F 		.ascii	"pre_chip_disable_wait_ns\000"
 10260      63686970 
 10260      5F646973 
 10260      61626C65 
 10260      5F776169 
 10261              	.LASF6:
 10262 0151 6C6F6E67 		.ascii	"long int\000"
 10262      20696E74 
 10262      00
 10263              	.LASF66:
 10264 015a 6932635F 		.ascii	"i2c_read_bit\000"
 10264      72656164 
 10264      5F626974 
 10264      00
 10265              	.LASF81:
 10266 0167 74616B65 		.ascii	"takeover_edge\000"
 10266      6F766572 
 10266      5F656467 
 10266      6500
 10267              	.LASF13:
 10268 0175 75696E74 		.ascii	"uint16_t\000"
 10268      31365F74 
 10268      00
 10269              	.LASF18:
 10270 017e 6E657874 		.ascii	"next_cb\000"
 10270      5F636200 
 10271              	.LASF60:
 10272 0186 75387838 		.ascii	"u8x8_char_cb\000"
 10272      5F636861 
 10272      725F6362 
 10272      00
 10273              	.LASF22:
 10274 0193 6770696F 		.ascii	"gpio_and_delay_cb\000"
 10274      5F616E64 
 10274      5F64656C 
 10274      61795F63 
 10274      6200
 10275              	.LASF80:
 10276 01a5 75387838 		.ascii	"u8x8_byte_4wire_sw_spi\000"
 10276      5F627974 
 10276      655F3477 
 10276      6972655F 
 10276      73775F73 
 10277              	.LASF74:
 10278 01bc 62797465 		.ascii	"byte\000"
ARM GAS  C:\Users\info\AppData\Local\Temp\ccAWUQ53.s 			page 200


 10278      00
 10279              	.LASF37:
 10280 01c1 75387838 		.ascii	"u8x8_display_info_t\000"
 10280      5F646973 
 10280      706C6179 
 10280      5F696E66 
 10280      6F5F7400 
 10281              	.LASF83:
 10282 01d5 75387838 		.ascii	"u8x8_byte_8bit_6800mode\000"
 10282      5F627974 
 10282      655F3862 
 10282      69745F36 
 10282      3830306D 
 10283              	.LASF7:
 10284 01ed 5F5F7569 		.ascii	"__uint32_t\000"
 10284      6E743332 
 10284      5F7400
 10285              	.LASF46:
 10286 01f8 7364615F 		.ascii	"sda_setup_time_ns\000"
 10286      73657475 
 10286      705F7469 
 10286      6D655F6E 
 10286      7300
 10287              	.LASF90:
 10288 020a 6932635F 		.ascii	"i2c_init\000"
 10288      696E6974 
 10288      00
 10289              	.LASF36:
 10290 0213 6465626F 		.ascii	"debounce_result_msg\000"
 10290      756E6365 
 10290      5F726573 
 10290      756C745F 
 10290      6D736700 
 10291              	.LASF11:
 10292 0227 756E7369 		.ascii	"unsigned int\000"
 10292      676E6564 
 10292      20696E74 
 10292      00
 10293              	.LASF78:
 10294 0234 6172675F 		.ascii	"arg_int\000"
 10294      696E7400 
 10295              	.LASF28:
 10296 023c 6932635F 		.ascii	"i2c_address\000"
 10296      61646472 
 10296      65737300 
 10297              	.LASF65:
 10298 0248 6932635F 		.ascii	"i2c_clear_scl\000"
 10298      636C6561 
 10298      725F7363 
 10298      6C00
 10299              	.LASF8:
 10300 0256 6C6F6E67 		.ascii	"long unsigned int\000"
 10300      20756E73 
 10300      69676E65 
 10300      6420696E 
 10300      7400
 10301              	.LASF62:
ARM GAS  C:\Users\info\AppData\Local\Temp\ccAWUQ53.s 			page 201


 10302 0268 6932635F 		.ascii	"i2c_read_scl_and_delay\000"
 10302      72656164 
 10302      5F73636C 
 10302      5F616E64 
 10302      5F64656C 
 10303              	.LASF89:
 10304 027f 656E6162 		.ascii	"enable_pin\000"
 10304      6C655F70 
 10304      696E00
 10305              	.LASF87:
 10306 028a 75387838 		.ascii	"u8x8_byte_ks0108\000"
 10306      5F627974 
 10306      655F6B73 
 10306      30313038 
 10306      00
 10307              	.LASF72:
 10308 029b 64617461 		.ascii	"data\000"
 10308      00
 10309              	.LASF61:
 10310 02a0 6932635F 		.ascii	"i2c_read_sda\000"
 10310      72656164 
 10310      5F736461 
 10310      00
 10311              	.LASF5:
 10312 02ad 73686F72 		.ascii	"short unsigned int\000"
 10312      7420756E 
 10312      7369676E 
 10312      65642069 
 10312      6E7400
 10313              	.LASF34:
 10314 02c0 6465626F 		.ascii	"debounce_last_pin_state\000"
 10314      756E6365 
 10314      5F6C6173 
 10314      745F7069 
 10314      6E5F7374 
 10315              	.LASF17:
 10316 02d8 64697370 		.ascii	"display_info\000"
 10316      6C61795F 
 10316      696E666F 
 10316      00
 10317              	.LASF71:
 10318 02e5 75387838 		.ascii	"u8x8_byte_SendBytes\000"
 10318      5F627974 
 10318      655F5365 
 10318      6E644279 
 10318      74657300 
 10319              	.LASF47:
 10320 02f9 73636B5F 		.ascii	"sck_pulse_width_ns\000"
 10320      70756C73 
 10320      655F7769 
 10320      6474685F 
 10320      6E7300
 10321              	.LASF38:
 10322 030c 75387838 		.ascii	"u8x8_struct\000"
 10322      5F737472 
 10322      75637400 
 10323              	.LASF64:
ARM GAS  C:\Users\info\AppData\Local\Temp\ccAWUQ53.s 			page 202


 10324 0318 6932635F 		.ascii	"i2c_clear_sda\000"
 10324      636C6561 
 10324      725F7364 
 10324      6100
 10325              	.LASF55:
 10326 0326 64656661 		.ascii	"default_x_offset\000"
 10326      756C745F 
 10326      785F6F66 
 10326      66736574 
 10326      00
 10327              	.LASF25:
 10328 0337 656E636F 		.ascii	"encoding\000"
 10328      64696E67 
 10328      00
 10329              	.LASF85:
 10330 0340 75387838 		.ascii	"u8x8_byte_3wire_sw_spi\000"
 10330      5F627974 
 10330      655F3377 
 10330      6972655F 
 10330      73775F73 
 10331              	.LASF56:
 10332 0357 666C6970 		.ascii	"flipmode_x_offset\000"
 10332      6D6F6465 
 10332      5F785F6F 
 10332      66667365 
 10332      7400
 10333              	.LASF15:
 10334 0369 6C6F6E67 		.ascii	"long double\000"
 10334      20646F75 
 10334      626C6500 
 10335              	.LASF20:
 10336 0375 6361645F 		.ascii	"cad_cb\000"
 10336      636200
 10337              	.LASF52:
 10338 037c 77726974 		.ascii	"write_pulse_width_ns\000"
 10338      655F7075 
 10338      6C73655F 
 10338      77696474 
 10338      685F6E73 
 10339              	.LASF30:
 10340 0391 64657669 		.ascii	"device_address\000"
 10340      63655F61 
 10340      64647265 
 10340      737300
 10341              	.LASF26:
 10342 03a0 785F6F66 		.ascii	"x_offset\000"
 10342      66736574 
 10342      00
 10343              	.LASF76:
 10344 03a9 75387838 		.ascii	"u8x8_byte_EndTransfer\000"
 10344      5F627974 
 10344      655F456E 
 10344      64547261 
 10344      6E736665 
 10345              	.LASF54:
 10346 03bf 74696C65 		.ascii	"tile_height\000"
 10346      5F686569 
ARM GAS  C:\Users\info\AppData\Local\Temp\ccAWUQ53.s 			page 203


 10346      67687400 
 10347              	.LASF69:
 10348 03cb 6932635F 		.ascii	"i2c_write_byte\000"
 10348      77726974 
 10348      655F6279 
 10348      746500
 10349              	.LASF59:
 10350 03da 75387838 		.ascii	"u8x8_msg_cb\000"
 10350      5F6D7367 
 10350      5F636200 
 10351              	.LASF1:
 10352 03e6 756E7369 		.ascii	"unsigned char\000"
 10352      676E6564 
 10352      20636861 
 10352      7200
 10353              	.LASF2:
 10354 03f4 73686F72 		.ascii	"short int\000"
 10354      7420696E 
 10354      7400
 10355              	.LASF63:
 10356 03fe 75387838 		.ascii	"u8x8\000"
 10356      00
 10357              	.LASF67:
 10358 0403 6932635F 		.ascii	"i2c_write_bit\000"
 10358      77726974 
 10358      655F6269 
 10358      7400
 10359              	.LASF51:
 10360 0411 64617461 		.ascii	"data_setup_time_ns\000"
 10360      5F736574 
 10360      75705F74 
 10360      696D655F 
 10360      6E7300
 10361              	.LASF96:
 10362 0424 433A5C55 		.ascii	"C:\\Users\\info\\Desktop\\Spring 2019 Classes\\6.11"
 10362      73657273 
 10362      5C696E66 
 10362      6F5C4465 
 10362      736B746F 
 10363 0452 355C362E 		.ascii	"5\\6.115-final\\PSoCCreator\\Final Project\\FinalEm"
 10363      3131352D 
 10363      66696E61 
 10363      6C5C5053 
 10363      6F434372 
 10364 0481 756C6174 		.ascii	"ulator.cydsn\000"
 10364      6F722E63 
 10364      7964736E 
 10364      00
 10365              	.LASF50:
 10366 048e 6932635F 		.ascii	"i2c_bus_clock_100kHz\000"
 10366      6275735F 
 10366      636C6F63 
 10366      6B5F3130 
 10366      306B487A 
 10367              	.LASF14:
 10368 04a3 75696E74 		.ascii	"uint32_t\000"
 10368      33325F74 
ARM GAS  C:\Users\info\AppData\Local\Temp\ccAWUQ53.s 			page 204


 10368      00
 10369              	.LASF49:
 10370 04ac 7370695F 		.ascii	"spi_mode\000"
 10370      6D6F6465 
 10370      00
 10371              	.LASF77:
 10372 04b5 75387838 		.ascii	"u8x8_byte_empty\000"
 10372      5F627974 
 10372      655F656D 
 10372      70747900 
 10373              	.LASF40:
 10374 04c5 63686970 		.ascii	"chip_enable_level\000"
 10374      5F656E61 
 10374      626C655F 
 10374      6C657665 
 10374      6C00
 10375              	.LASF94:
 10376 04d7 474E5520 		.ascii	"GNU C11 5.4.1 20160609 (release) [ARM/embedded-5-br"
 10376      43313120 
 10376      352E342E 
 10376      31203230 
 10376      31363036 
 10377 050a 616E6368 		.ascii	"anch revision 237715] -mcpu=cortex-m3 -mthumb -g -O"
 10377      20726576 
 10377      6973696F 
 10377      6E203233 
 10377      37373135 
 10378 053d 33202D66 		.ascii	"3 -ffunction-sections -ffat-lto-objects\000"
 10378      66756E63 
 10378      74696F6E 
 10378      2D736563 
 10378      74696F6E 
 10379              	.LASF97:
 10380 0565 75387838 		.ascii	"u8x8_byte_set_ks0108_cs\000"
 10380      5F627974 
 10380      655F7365 
 10380      745F6B73 
 10380      30313038 
 10381              	.LASF4:
 10382 057d 5F5F7569 		.ascii	"__uint16_t\000"
 10382      6E743136 
 10382      5F7400
 10383              	.LASF42:
 10384 0588 706F7374 		.ascii	"post_chip_enable_wait_ns\000"
 10384      5F636869 
 10384      705F656E 
 10384      61626C65 
 10384      5F776169 
 10385              	.LASF75:
 10386 05a1 75387838 		.ascii	"u8x8_byte_StartTransfer\000"
 10386      5F627974 
 10386      655F5374 
 10386      61727454 
 10386      72616E73 
 10387              	.LASF16:
 10388 05b9 75387838 		.ascii	"u8x8_t\000"
 10388      5F7400
ARM GAS  C:\Users\info\AppData\Local\Temp\ccAWUQ53.s 			page 205


 10389              	.LASF23:
 10390 05c0 6275735F 		.ascii	"bus_clock\000"
 10390      636C6F63 
 10390      6B00
 10391              	.LASF93:
 10392 05ca 75387838 		.ascii	"u8x8_byte_sw_i2c\000"
 10392      5F627974 
 10392      655F7377 
 10392      5F693263 
 10392      00
 10393              	.LASF35:
 10394 05db 6465626F 		.ascii	"debounce_state\000"
 10394      756E6365 
 10394      5F737461 
 10394      746500
 10395              	.LASF79:
 10396 05ea 6172675F 		.ascii	"arg_ptr\000"
 10396      70747200 
 10397              	.LASF41:
 10398 05f2 63686970 		.ascii	"chip_disable_level\000"
 10398      5F646973 
 10398      61626C65 
 10398      5F6C6576 
 10398      656C00
 10399              	.LASF24:
 10400 0605 666F6E74 		.ascii	"font\000"
 10400      00
 10401              	.LASF91:
 10402 060a 6932635F 		.ascii	"i2c_start\000"
 10402      73746172 
 10402      7400
 10403              	.LASF68:
 10404 0614 6932635F 		.ascii	"i2c_delay\000"
 10404      64656C61 
 10404      7900
 10405              	.LASF12:
 10406 061e 75696E74 		.ascii	"uint8_t\000"
 10406      385F7400 
 10407              	.LASF29:
 10408 0626 6932635F 		.ascii	"i2c_started\000"
 10408      73746172 
 10408      74656400 
 10409              	.LASF57:
 10410 0632 70697865 		.ascii	"pixel_width\000"
 10410      6C5F7769 
 10410      64746800 
 10411              	.LASF92:
 10412 063e 6932635F 		.ascii	"i2c_stop\000"
 10412      73746F70 
 10412      00
 10413              	.LASF53:
 10414 0647 74696C65 		.ascii	"tile_width\000"
 10414      5F776964 
 10414      746800
 10415              	.LASF33:
 10416 0652 6465626F 		.ascii	"debounce_default_pin_state\000"
 10416      756E6365 
ARM GAS  C:\Users\info\AppData\Local\Temp\ccAWUQ53.s 			page 206


 10416      5F646566 
 10416      61756C74 
 10416      5F70696E 
 10417              	.LASF39:
 10418 066d 75387838 		.ascii	"u8x8_display_info_struct\000"
 10418      5F646973 
 10418      706C6179 
 10418      5F696E66 
 10418      6F5F7374 
 10419              	.LASF58:
 10420 0686 70697865 		.ascii	"pixel_height\000"
 10420      6C5F6865 
 10420      69676874 
 10420      00
 10421              	.LASF48:
 10422 0693 73636B5F 		.ascii	"sck_clock_hz\000"
 10422      636C6F63 
 10422      6B5F687A 
 10422      00
 10423              		.ident	"GCC: (GNU Tools for ARM Embedded Processors) 5.4.1 20160609 (release) [ARM/embedded-5-bran
