ARM GAS  C:\Users\info\AppData\Local\Temp\ccHawdvR.s 			page 1


   1              		.syntax unified
   2              		.cpu cortex-m3
   3              		.fpu softvfp
   4              		.eabi_attribute 20, 1
   5              		.eabi_attribute 21, 1
   6              		.eabi_attribute 23, 3
   7              		.eabi_attribute 24, 1
   8              		.eabi_attribute 25, 1
   9              		.eabi_attribute 26, 1
  10              		.eabi_attribute 30, 2
  11              		.eabi_attribute 34, 1
  12              		.eabi_attribute 18, 4
  13              		.thumb
  14              		.syntax unified
  15              		.file	"u8x8_d_sh1108.c"
  16              		.text
  17              	.Ltext0:
  18              		.cfi_sections	.debug_frame
  19              		.section	.text.u8x8_d_sh1108_160x160,"ax",%progbits
  20              		.align	2
  21              		.global	u8x8_d_sh1108_160x160
  22              		.thumb
  23              		.thumb_func
  24              		.type	u8x8_d_sh1108_160x160, %function
  25              	u8x8_d_sh1108_160x160:
  26              	.LFB1:
  27              		.file 1 "..\\u8g2-master\\csrc\\u8x8_d_sh1108.c"
   1:..\u8g2-master\csrc/u8x8_d_sh1108.c **** /*
   2:..\u8g2-master\csrc/u8x8_d_sh1108.c **** 
   3:..\u8g2-master\csrc/u8x8_d_sh1108.c ****   u8x8_d_sh1108.c
   4:..\u8g2-master\csrc/u8x8_d_sh1108.c **** 
   5:..\u8g2-master\csrc/u8x8_d_sh1108.c ****   Universal 8bit Graphics Library (https://github.com/olikraus/u8g2/)
   6:..\u8g2-master\csrc/u8x8_d_sh1108.c **** 
   7:..\u8g2-master\csrc/u8x8_d_sh1108.c ****   Copyright (c) 2018, olikraus@gmail.com
   8:..\u8g2-master\csrc/u8x8_d_sh1108.c ****   All rights reserved.
   9:..\u8g2-master\csrc/u8x8_d_sh1108.c **** 
  10:..\u8g2-master\csrc/u8x8_d_sh1108.c ****   Redistribution and use in source and binary forms, with or without modification, 
  11:..\u8g2-master\csrc/u8x8_d_sh1108.c ****   are permitted provided that the following conditions are met:
  12:..\u8g2-master\csrc/u8x8_d_sh1108.c **** 
  13:..\u8g2-master\csrc/u8x8_d_sh1108.c ****   * Redistributions of source code must retain the above copyright notice, this list 
  14:..\u8g2-master\csrc/u8x8_d_sh1108.c ****     of conditions and the following disclaimer.
  15:..\u8g2-master\csrc/u8x8_d_sh1108.c ****     
  16:..\u8g2-master\csrc/u8x8_d_sh1108.c ****   * Redistributions in binary form must reproduce the above copyright notice, this 
  17:..\u8g2-master\csrc/u8x8_d_sh1108.c ****     list of conditions and the following disclaimer in the documentation and/or other 
  18:..\u8g2-master\csrc/u8x8_d_sh1108.c ****     materials provided with the distribution.
  19:..\u8g2-master\csrc/u8x8_d_sh1108.c **** 
  20:..\u8g2-master\csrc/u8x8_d_sh1108.c ****   THIS SOFTWARE IS PROVIDED BY THE COPYRIGHT HOLDERS AND 
  21:..\u8g2-master\csrc/u8x8_d_sh1108.c ****   CONTRIBUTORS "AS IS" AND ANY EXPRESS OR IMPLIED WARRANTIES, 
  22:..\u8g2-master\csrc/u8x8_d_sh1108.c ****   INCLUDING, BUT NOT LIMITED TO, THE IMPLIED WARRANTIES OF 
  23:..\u8g2-master\csrc/u8x8_d_sh1108.c ****   MERCHANTABILITY AND FITNESS FOR A PARTICULAR PURPOSE ARE 
  24:..\u8g2-master\csrc/u8x8_d_sh1108.c ****   DISCLAIMED. IN NO EVENT SHALL THE COPYRIGHT HOLDER OR 
  25:..\u8g2-master\csrc/u8x8_d_sh1108.c ****   CONTRIBUTORS BE LIABLE FOR ANY DIRECT, INDIRECT, INCIDENTAL, 
  26:..\u8g2-master\csrc/u8x8_d_sh1108.c ****   SPECIAL, EXEMPLARY, OR CONSEQUENTIAL DAMAGES (INCLUDING, BUT 
  27:..\u8g2-master\csrc/u8x8_d_sh1108.c ****   NOT LIMITED TO, PROCUREMENT OF SUBSTITUTE GOODS OR SERVICES; 
  28:..\u8g2-master\csrc/u8x8_d_sh1108.c ****   LOSS OF USE, DATA, OR PROFITS; OR BUSINESS INTERRUPTION) HOWEVER 
  29:..\u8g2-master\csrc/u8x8_d_sh1108.c ****   CAUSED AND ON ANY THEORY OF LIABILITY, WHETHER IN CONTRACT, 
  30:..\u8g2-master\csrc/u8x8_d_sh1108.c ****   STRICT LIABILITY, OR TORT (INCLUDING NEGLIGENCE OR OTHERWISE) 
ARM GAS  C:\Users\info\AppData\Local\Temp\ccHawdvR.s 			page 2


  31:..\u8g2-master\csrc/u8x8_d_sh1108.c ****   ARISING IN ANY WAY OUT OF THE USE OF THIS SOFTWARE, EVEN IF 
  32:..\u8g2-master\csrc/u8x8_d_sh1108.c ****   ADVISED OF THE POSSIBILITY OF SUCH DAMAGE.  
  33:..\u8g2-master\csrc/u8x8_d_sh1108.c ****   
  34:..\u8g2-master\csrc/u8x8_d_sh1108.c **** */
  35:..\u8g2-master\csrc/u8x8_d_sh1108.c **** 
  36:..\u8g2-master\csrc/u8x8_d_sh1108.c **** 
  37:..\u8g2-master\csrc/u8x8_d_sh1108.c **** #include "u8x8.h"
  38:..\u8g2-master\csrc/u8x8_d_sh1108.c **** 
  39:..\u8g2-master\csrc/u8x8_d_sh1108.c **** /* 
  40:..\u8g2-master\csrc/u8x8_d_sh1108.c ****   code copyied from sh1107
  41:..\u8g2-master\csrc/u8x8_d_sh1108.c ****   SH1108: 160x160 controller from Sino Wealth
  42:..\u8g2-master\csrc/u8x8_d_sh1108.c **** */
  43:..\u8g2-master\csrc/u8x8_d_sh1108.c **** 
  44:..\u8g2-master\csrc/u8x8_d_sh1108.c **** 
  45:..\u8g2-master\csrc/u8x8_d_sh1108.c **** 
  46:..\u8g2-master\csrc/u8x8_d_sh1108.c **** static const uint8_t u8x8_d_sh1108_noname_powersave0_seq[] = {
  47:..\u8g2-master\csrc/u8x8_d_sh1108.c ****   U8X8_START_TRANSFER(),             	/* enable chip, delay is part of the transfer start */
  48:..\u8g2-master\csrc/u8x8_d_sh1108.c ****   U8X8_C(0x0af),		                /* display on */
  49:..\u8g2-master\csrc/u8x8_d_sh1108.c ****   U8X8_END_TRANSFER(),             	/* disable chip */
  50:..\u8g2-master\csrc/u8x8_d_sh1108.c ****   U8X8_END()             			/* end of sequence */
  51:..\u8g2-master\csrc/u8x8_d_sh1108.c **** };
  52:..\u8g2-master\csrc/u8x8_d_sh1108.c **** 
  53:..\u8g2-master\csrc/u8x8_d_sh1108.c **** static const uint8_t u8x8_d_sh1108_noname_powersave1_seq[] = {
  54:..\u8g2-master\csrc/u8x8_d_sh1108.c ****   U8X8_START_TRANSFER(),             	/* enable chip, delay is part of the transfer start */
  55:..\u8g2-master\csrc/u8x8_d_sh1108.c ****   U8X8_C(0x0ae),		                /* display off */
  56:..\u8g2-master\csrc/u8x8_d_sh1108.c ****   U8X8_END_TRANSFER(),             	/* disable chip */
  57:..\u8g2-master\csrc/u8x8_d_sh1108.c ****   U8X8_END()             			/* end of sequence */
  58:..\u8g2-master\csrc/u8x8_d_sh1108.c **** };
  59:..\u8g2-master\csrc/u8x8_d_sh1108.c **** 
  60:..\u8g2-master\csrc/u8x8_d_sh1108.c **** static const uint8_t u8x8_d_sh1108_160x160_noname_powersave0_seq[] = {
  61:..\u8g2-master\csrc/u8x8_d_sh1108.c ****   U8X8_START_TRANSFER(),             	/* enable chip, delay is part of the transfer start */
  62:..\u8g2-master\csrc/u8x8_d_sh1108.c ****   U8X8_C(0x0a0),				/* segment remap a0/a1*/
  63:..\u8g2-master\csrc/u8x8_d_sh1108.c ****   U8X8_C(0x0c0),				/* c0: scan dir normal, c8: reverse */
  64:..\u8g2-master\csrc/u8x8_d_sh1108.c ****   U8X8_END_TRANSFER(),             	/* disable chip */
  65:..\u8g2-master\csrc/u8x8_d_sh1108.c ****   U8X8_END()             			/* end of sequence */
  66:..\u8g2-master\csrc/u8x8_d_sh1108.c **** };
  67:..\u8g2-master\csrc/u8x8_d_sh1108.c **** 
  68:..\u8g2-master\csrc/u8x8_d_sh1108.c **** static const uint8_t u8x8_d_sh1108_160x160_noname_powersave1_seq[] = {
  69:..\u8g2-master\csrc/u8x8_d_sh1108.c ****   U8X8_START_TRANSFER(),             	/* enable chip, delay is part of the transfer start */
  70:..\u8g2-master\csrc/u8x8_d_sh1108.c ****   U8X8_C(0x0a1),				/* segment remap a0/a1*/
  71:..\u8g2-master\csrc/u8x8_d_sh1108.c ****   U8X8_C(0x0c8),				/* c0: scan dir normal, c8: reverse */
  72:..\u8g2-master\csrc/u8x8_d_sh1108.c ****   U8X8_END_TRANSFER(),             	/* disable chip */
  73:..\u8g2-master\csrc/u8x8_d_sh1108.c ****   U8X8_END()             			/* end of sequence */
  74:..\u8g2-master\csrc/u8x8_d_sh1108.c **** };
  75:..\u8g2-master\csrc/u8x8_d_sh1108.c **** 
  76:..\u8g2-master\csrc/u8x8_d_sh1108.c **** 
  77:..\u8g2-master\csrc/u8x8_d_sh1108.c **** static uint8_t u8x8_d_sh1108_generic(u8x8_t *u8x8, uint8_t msg, uint8_t arg_int, void *arg_ptr)
  78:..\u8g2-master\csrc/u8x8_d_sh1108.c **** {
  79:..\u8g2-master\csrc/u8x8_d_sh1108.c ****   uint8_t x, c;
  80:..\u8g2-master\csrc/u8x8_d_sh1108.c ****   uint8_t *ptr;
  81:..\u8g2-master\csrc/u8x8_d_sh1108.c ****   switch(msg)
  82:..\u8g2-master\csrc/u8x8_d_sh1108.c ****   {
  83:..\u8g2-master\csrc/u8x8_d_sh1108.c ****     /* handled by the calling function
  84:..\u8g2-master\csrc/u8x8_d_sh1108.c ****     case U8X8_MSG_DISPLAY_SETUP_MEMORY:
  85:..\u8g2-master\csrc/u8x8_d_sh1108.c ****       u8x8_d_helper_display_setup_memory(u8x8, &u8x8_sh1108_64x128_noname_display_info);
  86:..\u8g2-master\csrc/u8x8_d_sh1108.c ****       break;
  87:..\u8g2-master\csrc/u8x8_d_sh1108.c ****     */
ARM GAS  C:\Users\info\AppData\Local\Temp\ccHawdvR.s 			page 3


  88:..\u8g2-master\csrc/u8x8_d_sh1108.c ****     /* handled by the calling function
  89:..\u8g2-master\csrc/u8x8_d_sh1108.c ****     case U8X8_MSG_DISPLAY_INIT:
  90:..\u8g2-master\csrc/u8x8_d_sh1108.c ****       u8x8_d_helper_display_init(u8x8);
  91:..\u8g2-master\csrc/u8x8_d_sh1108.c ****       u8x8_cad_SendSequence(u8x8, u8x8_d_sh1108_64x128_noname_init_seq);    
  92:..\u8g2-master\csrc/u8x8_d_sh1108.c ****       break;
  93:..\u8g2-master\csrc/u8x8_d_sh1108.c ****     */
  94:..\u8g2-master\csrc/u8x8_d_sh1108.c ****     case U8X8_MSG_DISPLAY_SET_POWER_SAVE:
  95:..\u8g2-master\csrc/u8x8_d_sh1108.c ****       if ( arg_int == 0 )
  96:..\u8g2-master\csrc/u8x8_d_sh1108.c **** 	u8x8_cad_SendSequence(u8x8, u8x8_d_sh1108_noname_powersave0_seq);
  97:..\u8g2-master\csrc/u8x8_d_sh1108.c ****       else
  98:..\u8g2-master\csrc/u8x8_d_sh1108.c **** 	u8x8_cad_SendSequence(u8x8, u8x8_d_sh1108_noname_powersave1_seq);
  99:..\u8g2-master\csrc/u8x8_d_sh1108.c ****       break;
 100:..\u8g2-master\csrc/u8x8_d_sh1108.c ****     case U8X8_MSG_DISPLAY_SET_FLIP_MODE:
 101:..\u8g2-master\csrc/u8x8_d_sh1108.c ****       if ( arg_int == 0 )
 102:..\u8g2-master\csrc/u8x8_d_sh1108.c ****       {
 103:..\u8g2-master\csrc/u8x8_d_sh1108.c **** 	u8x8_cad_SendSequence(u8x8, u8x8_d_sh1108_160x160_noname_powersave0_seq);
 104:..\u8g2-master\csrc/u8x8_d_sh1108.c **** 	u8x8->x_offset = u8x8->display_info->default_x_offset;
 105:..\u8g2-master\csrc/u8x8_d_sh1108.c ****       }
 106:..\u8g2-master\csrc/u8x8_d_sh1108.c ****       else
 107:..\u8g2-master\csrc/u8x8_d_sh1108.c ****       {
 108:..\u8g2-master\csrc/u8x8_d_sh1108.c **** 	u8x8_cad_SendSequence(u8x8, u8x8_d_sh1108_160x160_noname_powersave1_seq);
 109:..\u8g2-master\csrc/u8x8_d_sh1108.c **** 	u8x8->x_offset = u8x8->display_info->flipmode_x_offset;
 110:..\u8g2-master\csrc/u8x8_d_sh1108.c ****       }
 111:..\u8g2-master\csrc/u8x8_d_sh1108.c ****       break;
 112:..\u8g2-master\csrc/u8x8_d_sh1108.c **** #ifdef U8X8_WITH_SET_CONTRAST
 113:..\u8g2-master\csrc/u8x8_d_sh1108.c ****     case U8X8_MSG_DISPLAY_SET_CONTRAST:
 114:..\u8g2-master\csrc/u8x8_d_sh1108.c ****       u8x8_cad_StartTransfer(u8x8);
 115:..\u8g2-master\csrc/u8x8_d_sh1108.c ****       u8x8_cad_SendCmd(u8x8, 0x081 );
 116:..\u8g2-master\csrc/u8x8_d_sh1108.c ****       u8x8_cad_SendArg(u8x8, arg_int );	/* sh1108 has range from 0 to 255 */
 117:..\u8g2-master\csrc/u8x8_d_sh1108.c ****       u8x8_cad_EndTransfer(u8x8);
 118:..\u8g2-master\csrc/u8x8_d_sh1108.c ****       break;
 119:..\u8g2-master\csrc/u8x8_d_sh1108.c **** #endif
 120:..\u8g2-master\csrc/u8x8_d_sh1108.c ****     case U8X8_MSG_DISPLAY_DRAW_TILE:
 121:..\u8g2-master\csrc/u8x8_d_sh1108.c ****       u8x8_cad_StartTransfer(u8x8);
 122:..\u8g2-master\csrc/u8x8_d_sh1108.c ****       x = ((u8x8_tile_t *)arg_ptr)->x_pos;    
 123:..\u8g2-master\csrc/u8x8_d_sh1108.c ****       x *= 8;
 124:..\u8g2-master\csrc/u8x8_d_sh1108.c ****       x += u8x8->x_offset;
 125:..\u8g2-master\csrc/u8x8_d_sh1108.c **** 
 126:..\u8g2-master\csrc/u8x8_d_sh1108.c ****       //u8x8_cad_SendCmd(u8x8, 0x040 ); /* set line offset to 0 */
 127:..\u8g2-master\csrc/u8x8_d_sh1108.c **** 
 128:..\u8g2-master\csrc/u8x8_d_sh1108.c ****       // set column address
 129:..\u8g2-master\csrc/u8x8_d_sh1108.c ****       u8x8_cad_SendCmd(u8x8, 0x010 | (x >> 4));
 130:..\u8g2-master\csrc/u8x8_d_sh1108.c ****       u8x8_cad_SendCmd(u8x8, 0x000 | ((x & 15))); 
 131:..\u8g2-master\csrc/u8x8_d_sh1108.c ****       
 132:..\u8g2-master\csrc/u8x8_d_sh1108.c ****       // set page address
 133:..\u8g2-master\csrc/u8x8_d_sh1108.c ****       u8x8_cad_SendCmd(u8x8, 0x0b0 ); 		// page cmd is a two byte command
 134:..\u8g2-master\csrc/u8x8_d_sh1108.c ****       u8x8_cad_SendArg(u8x8, (((u8x8_tile_t *)arg_ptr)->y_pos)); 
 135:..\u8g2-master\csrc/u8x8_d_sh1108.c ****     
 136:..\u8g2-master\csrc/u8x8_d_sh1108.c ****       do
 137:..\u8g2-master\csrc/u8x8_d_sh1108.c ****       {
 138:..\u8g2-master\csrc/u8x8_d_sh1108.c **** 	c = ((u8x8_tile_t *)arg_ptr)->cnt;
 139:..\u8g2-master\csrc/u8x8_d_sh1108.c **** 	ptr = ((u8x8_tile_t *)arg_ptr)->tile_ptr;
 140:..\u8g2-master\csrc/u8x8_d_sh1108.c **** 	u8x8_cad_SendData(u8x8, c*8, ptr); 	/* note: SendData can not handle more than 255 bytes */
 141:..\u8g2-master\csrc/u8x8_d_sh1108.c **** 	arg_int--;
 142:..\u8g2-master\csrc/u8x8_d_sh1108.c ****       } while( arg_int > 0 );
 143:..\u8g2-master\csrc/u8x8_d_sh1108.c ****       
 144:..\u8g2-master\csrc/u8x8_d_sh1108.c ****       u8x8_cad_EndTransfer(u8x8);
ARM GAS  C:\Users\info\AppData\Local\Temp\ccHawdvR.s 			page 4


 145:..\u8g2-master\csrc/u8x8_d_sh1108.c ****       break;
 146:..\u8g2-master\csrc/u8x8_d_sh1108.c ****     default:
 147:..\u8g2-master\csrc/u8x8_d_sh1108.c ****       return 0;
 148:..\u8g2-master\csrc/u8x8_d_sh1108.c ****   }
 149:..\u8g2-master\csrc/u8x8_d_sh1108.c ****   return 1;
 150:..\u8g2-master\csrc/u8x8_d_sh1108.c **** }
 151:..\u8g2-master\csrc/u8x8_d_sh1108.c **** 
 152:..\u8g2-master\csrc/u8x8_d_sh1108.c **** /*==================================================*/
 153:..\u8g2-master\csrc/u8x8_d_sh1108.c **** 
 154:..\u8g2-master\csrc/u8x8_d_sh1108.c **** /* issue #619, 160x160 OLED */
 155:..\u8g2-master\csrc/u8x8_d_sh1108.c **** static const uint8_t u8x8_d_sh1108_160x160_noname_init_seq[] = {
 156:..\u8g2-master\csrc/u8x8_d_sh1108.c ****     
 157:..\u8g2-master\csrc/u8x8_d_sh1108.c ****   U8X8_START_TRANSFER(),             	/* enable chip, delay is part of the transfer start */
 158:..\u8g2-master\csrc/u8x8_d_sh1108.c ****     
 159:..\u8g2-master\csrc/u8x8_d_sh1108.c ****   U8X8_C(0x0ae),		                /* display off */
 160:..\u8g2-master\csrc/u8x8_d_sh1108.c ****   U8X8_CA(0x0d5, 0x060),		/* clock divide ratio and oscillator frequency */
 161:..\u8g2-master\csrc/u8x8_d_sh1108.c ****   U8X8_CA(0x0a9, 0x003), 		/* set display resolution, 0=64x160, 1=96x160, 2=128x160, 3=160x160 */
 162:..\u8g2-master\csrc/u8x8_d_sh1108.c ****   U8X8_C(0x020),		                /* use page addressing mode */
 163:..\u8g2-master\csrc/u8x8_d_sh1108.c ****   U8X8_CA(0x081, 0x01f), 		/* set contrast control */
 164:..\u8g2-master\csrc/u8x8_d_sh1108.c ****   U8X8_CA(0x0ad, 0x80),			/* DC/DC control 80=Use external Vpp, 89=Use internal DC/DC*/
 165:..\u8g2-master\csrc/u8x8_d_sh1108.c ****   U8X8_C(0x030),				/* set discharge VSL level, 0x030..0x03f */
 166:..\u8g2-master\csrc/u8x8_d_sh1108.c ****   U8X8_CA(0x0d9, 0x028), 		/* pre-charge period */
 167:..\u8g2-master\csrc/u8x8_d_sh1108.c ****   U8X8_CA(0x0db, 0x035), 		/* vcomh deselect level */    
 168:..\u8g2-master\csrc/u8x8_d_sh1108.c ****   U8X8_CA(0x0dc, 0x035),		/* VSEGM Deselect Level */
 169:..\u8g2-master\csrc/u8x8_d_sh1108.c **** 
 170:..\u8g2-master\csrc/u8x8_d_sh1108.c ****   U8X8_C(0x0a0),				/* segment remap a0/a1*/
 171:..\u8g2-master\csrc/u8x8_d_sh1108.c ****   U8X8_C(0x0c0),				/* c0: scan dir normal, c8: reverse */
 172:..\u8g2-master\csrc/u8x8_d_sh1108.c ****   
 173:..\u8g2-master\csrc/u8x8_d_sh1108.c ****   U8X8_C(0x0a4),				/* output ram to display */
 174:..\u8g2-master\csrc/u8x8_d_sh1108.c ****   U8X8_C(0x0a6),				/* none inverted normal display mode */
 175:..\u8g2-master\csrc/u8x8_d_sh1108.c ****     
 176:..\u8g2-master\csrc/u8x8_d_sh1108.c ****   U8X8_END_TRANSFER(),             	/* disable chip */
 177:..\u8g2-master\csrc/u8x8_d_sh1108.c ****   U8X8_END()             			/* end of sequence */
 178:..\u8g2-master\csrc/u8x8_d_sh1108.c **** };
 179:..\u8g2-master\csrc/u8x8_d_sh1108.c **** 
 180:..\u8g2-master\csrc/u8x8_d_sh1108.c **** static const u8x8_display_info_t u8x8_sh1108_160x160_noname_display_info =
 181:..\u8g2-master\csrc/u8x8_d_sh1108.c **** {
 182:..\u8g2-master\csrc/u8x8_d_sh1108.c ****   /* chip_enable_level = */ 0,
 183:..\u8g2-master\csrc/u8x8_d_sh1108.c ****   /* chip_disable_level = */ 1,
 184:..\u8g2-master\csrc/u8x8_d_sh1108.c ****   
 185:..\u8g2-master\csrc/u8x8_d_sh1108.c ****   /* post_chip_enable_wait_ns = */ 60,
 186:..\u8g2-master\csrc/u8x8_d_sh1108.c ****   /* pre_chip_disable_wait_ns = */ 120,
 187:..\u8g2-master\csrc/u8x8_d_sh1108.c ****   /* reset_pulse_width_ms = */ 100, 	/* sh1108: 3 us */
 188:..\u8g2-master\csrc/u8x8_d_sh1108.c ****   /* post_reset_wait_ms = */ 100, /* sometimes OLEDs need much longer setup time */
 189:..\u8g2-master\csrc/u8x8_d_sh1108.c ****   /* sda_setup_time_ns = */ 100,		/* sh1108: 100ns */
 190:..\u8g2-master\csrc/u8x8_d_sh1108.c ****   /* sck_pulse_width_ns = */ 100,	/* sh1108: 100ns */
 191:..\u8g2-master\csrc/u8x8_d_sh1108.c ****   /* sck_clock_hz = */ 4000000UL,	/* since Arduino 1.6.0, the SPI bus speed in Hz. Should be  10000
 192:..\u8g2-master\csrc/u8x8_d_sh1108.c ****   /* spi_mode = */ 0,		/* active high, rising edge */
 193:..\u8g2-master\csrc/u8x8_d_sh1108.c ****   /* i2c_bus_clock_100kHz = */ 4,
 194:..\u8g2-master\csrc/u8x8_d_sh1108.c ****   /* data_setup_time_ns = */ 40,
 195:..\u8g2-master\csrc/u8x8_d_sh1108.c ****   /* write_pulse_width_ns = */ 150,	/* sh1108: cycle time is 300ns, so use 300/2 = 150 */
 196:..\u8g2-master\csrc/u8x8_d_sh1108.c ****   /* tile_width = */ 20,
 197:..\u8g2-master\csrc/u8x8_d_sh1108.c ****   /* tile_height = */ 20,
 198:..\u8g2-master\csrc/u8x8_d_sh1108.c ****   /* default_x_offset = */ 0,
 199:..\u8g2-master\csrc/u8x8_d_sh1108.c ****   /* flipmode_x_offset = */ 0,
 200:..\u8g2-master\csrc/u8x8_d_sh1108.c ****   /* pixel_width = */ 160,
 201:..\u8g2-master\csrc/u8x8_d_sh1108.c ****   /* pixel_height = */ 160
ARM GAS  C:\Users\info\AppData\Local\Temp\ccHawdvR.s 			page 5


 202:..\u8g2-master\csrc/u8x8_d_sh1108.c **** };
 203:..\u8g2-master\csrc/u8x8_d_sh1108.c **** 
 204:..\u8g2-master\csrc/u8x8_d_sh1108.c **** uint8_t u8x8_d_sh1108_160x160(u8x8_t *u8x8, uint8_t msg, uint8_t arg_int, void *arg_ptr)
 205:..\u8g2-master\csrc/u8x8_d_sh1108.c **** {
  28              		.loc 1 205 0
  29              		.cfi_startproc
  30              		@ args = 0, pretend = 0, frame = 0
  31              		@ frame_needed = 0, uses_anonymous_args = 0
  32              	.LVL0:
  33 0000 F8B5     		push	{r3, r4, r5, r6, r7, lr}
  34              		.cfi_def_cfa_offset 24
  35              		.cfi_offset 3, -24
  36              		.cfi_offset 4, -20
  37              		.cfi_offset 5, -16
  38              		.cfi_offset 6, -12
  39              		.cfi_offset 7, -8
  40              		.cfi_offset 14, -4
  41              	.LBB4:
  42              	.LBB5:
  81:..\u8g2-master\csrc/u8x8_d_sh1108.c ****   {
  43              		.loc 1 81 0
  44 0002 A1F10B07 		sub	r7, r1, #11
  45              	.LBE5:
  46              	.LBE4:
  47              		.loc 1 205 0
  48 0006 0546     		mov	r5, r0
  49              	.LVL1:
  50 0008 1446     		mov	r4, r2
  51              	.LVL2:
  52 000a 1E46     		mov	r6, r3
  53              	.LVL3:
  54              	.LBB15:
  55              	.LBB6:
  81:..\u8g2-master\csrc/u8x8_d_sh1108.c ****   {
  56              		.loc 1 81 0
  57 000c 042F     		cmp	r7, #4
  58 000e 04D8     		bhi	.L2
  59 0010 DFE807F0 		tbb	[pc, r7]
  60              	.LVL4:
  61              	.L4:
  62 0014 56       		.byte	(.L3-.L4)/2
  63 0015 03       		.byte	(.L2-.L4)/2
  64 0016 3D       		.byte	(.L5-.L4)/2
  65 0017 47       		.byte	(.L6-.L4)/2
  66 0018 10       		.byte	(.L7-.L4)/2
  67 0019 00       		.p2align 1
  68              	.L2:
  69              	.LBE6:
  70              	.LBE15:
 206:..\u8g2-master\csrc/u8x8_d_sh1108.c ****     
 207:..\u8g2-master\csrc/u8x8_d_sh1108.c ****   if ( u8x8_d_sh1108_generic(u8x8, msg, arg_int, arg_ptr) != 0 )
 208:..\u8g2-master\csrc/u8x8_d_sh1108.c ****     return 1;
 209:..\u8g2-master\csrc/u8x8_d_sh1108.c ****   
 210:..\u8g2-master\csrc/u8x8_d_sh1108.c ****   switch(msg)
  71              		.loc 1 210 0
  72 001a 0929     		cmp	r1, #9
  73 001c 56D0     		beq	.L14
ARM GAS  C:\Users\info\AppData\Local\Temp\ccHawdvR.s 			page 6


  74 001e 0A29     		cmp	r1, #10
  75 0020 5AD1     		bne	.L22
 211:..\u8g2-master\csrc/u8x8_d_sh1108.c ****   {
 212:..\u8g2-master\csrc/u8x8_d_sh1108.c ****     case U8X8_MSG_DISPLAY_INIT:
 213:..\u8g2-master\csrc/u8x8_d_sh1108.c ****       u8x8_d_helper_display_init(u8x8);
  76              		.loc 1 213 0
  77 0022 2846     		mov	r0, r5
  78              	.LVL5:
  79 0024 FFF7FEFF 		bl	u8x8_d_helper_display_init
  80              	.LVL6:
 214:..\u8g2-master\csrc/u8x8_d_sh1108.c ****       u8x8_cad_SendSequence(u8x8, u8x8_d_sh1108_160x160_noname_init_seq);
  81              		.loc 1 214 0
  82 0028 2846     		mov	r0, r5
  83 002a 3349     		ldr	r1, .L23
  84 002c FFF7FEFF 		bl	u8x8_cad_SendSequence
  85              	.LVL7:
 215:..\u8g2-master\csrc/u8x8_d_sh1108.c ****       break;
 216:..\u8g2-master\csrc/u8x8_d_sh1108.c ****     case U8X8_MSG_DISPLAY_SETUP_MEMORY:
 217:..\u8g2-master\csrc/u8x8_d_sh1108.c ****       u8x8_d_helper_display_setup_memory(u8x8, &u8x8_sh1108_160x160_noname_display_info);
 218:..\u8g2-master\csrc/u8x8_d_sh1108.c ****       break;
 219:..\u8g2-master\csrc/u8x8_d_sh1108.c ****     default:
 220:..\u8g2-master\csrc/u8x8_d_sh1108.c ****       return 0;
 221:..\u8g2-master\csrc/u8x8_d_sh1108.c ****   }
 222:..\u8g2-master\csrc/u8x8_d_sh1108.c ****   return 1;
  86              		.loc 1 222 0
  87 0030 0120     		movs	r0, #1
 215:..\u8g2-master\csrc/u8x8_d_sh1108.c ****       break;
  88              		.loc 1 215 0
  89 0032 F8BD     		pop	{r3, r4, r5, r6, r7, pc}
  90              	.LVL8:
  91              	.L7:
  92              	.LBB16:
  93              	.LBB7:
 121:..\u8g2-master\csrc/u8x8_d_sh1108.c ****       x = ((u8x8_tile_t *)arg_ptr)->x_pos;    
  94              		.loc 1 121 0
  95 0034 FFF7FEFF 		bl	u8x8_cad_StartTransfer
  96              	.LVL9:
 124:..\u8g2-master\csrc/u8x8_d_sh1108.c **** 
  97              		.loc 1 124 0
  98 0038 95F82230 		ldrb	r3, [r5, #34]	@ zero_extendqisi2
 122:..\u8g2-master\csrc/u8x8_d_sh1108.c ****       x *= 8;
  99              		.loc 1 122 0
 100 003c 7779     		ldrb	r7, [r6, #5]	@ zero_extendqisi2
 101              	.LVL10:
 129:..\u8g2-master\csrc/u8x8_d_sh1108.c ****       u8x8_cad_SendCmd(u8x8, 0x000 | ((x & 15))); 
 102              		.loc 1 129 0
 103 003e 2846     		mov	r0, r5
 124:..\u8g2-master\csrc/u8x8_d_sh1108.c **** 
 104              		.loc 1 124 0
 105 0040 03EBC707 		add	r7, r3, r7, lsl #3
 106              	.LVL11:
 107 0044 07F0FF07 		and	r7, r7, #255
 108              	.LVL12:
 129:..\u8g2-master\csrc/u8x8_d_sh1108.c ****       u8x8_cad_SendCmd(u8x8, 0x000 | ((x & 15))); 
 109              		.loc 1 129 0
 110 0048 3909     		lsrs	r1, r7, #4
 111 004a 41F01001 		orr	r1, r1, #16
ARM GAS  C:\Users\info\AppData\Local\Temp\ccHawdvR.s 			page 7


 112 004e FFF7FEFF 		bl	u8x8_cad_SendCmd
 113              	.LVL13:
 130:..\u8g2-master\csrc/u8x8_d_sh1108.c ****       
 114              		.loc 1 130 0
 115 0052 07F00F01 		and	r1, r7, #15
 116 0056 2846     		mov	r0, r5
 117 0058 FFF7FEFF 		bl	u8x8_cad_SendCmd
 118              	.LVL14:
 133:..\u8g2-master\csrc/u8x8_d_sh1108.c ****       u8x8_cad_SendArg(u8x8, (((u8x8_tile_t *)arg_ptr)->y_pos)); 
 119              		.loc 1 133 0
 120 005c B021     		movs	r1, #176
 121 005e 2846     		mov	r0, r5
 122 0060 FFF7FEFF 		bl	u8x8_cad_SendCmd
 123              	.LVL15:
 134:..\u8g2-master\csrc/u8x8_d_sh1108.c ****     
 124              		.loc 1 134 0
 125 0064 B179     		ldrb	r1, [r6, #6]	@ zero_extendqisi2
 126 0066 2846     		mov	r0, r5
 127 0068 FFF7FEFF 		bl	u8x8_cad_SendArg
 128              	.LVL16:
 129              	.L11:
 140:..\u8g2-master\csrc/u8x8_d_sh1108.c **** 	arg_int--;
 130              		.loc 1 140 0
 131 006c 3179     		ldrb	r1, [r6, #4]	@ zero_extendqisi2
 132 006e 3268     		ldr	r2, [r6]
 133 0070 C900     		lsls	r1, r1, #3
 134 0072 01F0F801 		and	r1, r1, #248
 135 0076 2846     		mov	r0, r5
 136 0078 FFF7FEFF 		bl	u8x8_cad_SendData
 137              	.LVL17:
 141:..\u8g2-master\csrc/u8x8_d_sh1108.c ****       } while( arg_int > 0 );
 138              		.loc 1 141 0
 139 007c 621E     		subs	r2, r4, #1
 140              	.LVL18:
 142:..\u8g2-master\csrc/u8x8_d_sh1108.c ****       
 141              		.loc 1 142 0
 142 007e 12F0FF04 		ands	r4, r2, #255
 143 0082 F3D1     		bne	.L11
 144:..\u8g2-master\csrc/u8x8_d_sh1108.c ****       break;
 144              		.loc 1 144 0
 145 0084 2846     		mov	r0, r5
 146 0086 FFF7FEFF 		bl	u8x8_cad_EndTransfer
 147              	.LVL19:
 148              	.LBE7:
 149              	.LBE16:
 208:..\u8g2-master\csrc/u8x8_d_sh1108.c ****   
 150              		.loc 1 208 0
 151 008a 0120     		movs	r0, #1
 223:..\u8g2-master\csrc/u8x8_d_sh1108.c **** }
 152              		.loc 1 223 0
 153 008c F8BD     		pop	{r3, r4, r5, r6, r7, pc}
 154              	.LVL20:
 155              	.L5:
 156              	.LBB17:
 157              	.LBB8:
 101:..\u8g2-master\csrc/u8x8_d_sh1108.c ****       {
 158              		.loc 1 101 0
ARM GAS  C:\Users\info\AppData\Local\Temp\ccHawdvR.s 			page 8


 159 008e 52BB     		cbnz	r2, .L10
 103:..\u8g2-master\csrc/u8x8_d_sh1108.c **** 	u8x8->x_offset = u8x8->display_info->default_x_offset;
 160              		.loc 1 103 0
 161 0090 1A49     		ldr	r1, .L23+4
 162              	.LVL21:
 163 0092 FFF7FEFF 		bl	u8x8_cad_SendSequence
 164              	.LVL22:
 104:..\u8g2-master\csrc/u8x8_d_sh1108.c ****       }
 165              		.loc 1 104 0
 166 0096 2B68     		ldr	r3, [r5]
 167              	.LBE8:
 168              	.LBE17:
 208:..\u8g2-master\csrc/u8x8_d_sh1108.c ****   
 169              		.loc 1 208 0
 170 0098 0120     		movs	r0, #1
 171              	.LBB18:
 172              	.LBB9:
 104:..\u8g2-master\csrc/u8x8_d_sh1108.c ****       }
 173              		.loc 1 104 0
 174 009a 9B7C     		ldrb	r3, [r3, #18]	@ zero_extendqisi2
 175 009c 85F82230 		strb	r3, [r5, #34]
 176              	.LVL23:
 177              	.LBE9:
 178              	.LBE18:
 179              		.loc 1 223 0
 180 00a0 F8BD     		pop	{r3, r4, r5, r6, r7, pc}
 181              	.LVL24:
 182              	.L6:
 183              	.LBB19:
 184              	.LBB10:
 114:..\u8g2-master\csrc/u8x8_d_sh1108.c ****       u8x8_cad_SendCmd(u8x8, 0x081 );
 185              		.loc 1 114 0
 186 00a2 FFF7FEFF 		bl	u8x8_cad_StartTransfer
 187              	.LVL25:
 115:..\u8g2-master\csrc/u8x8_d_sh1108.c ****       u8x8_cad_SendArg(u8x8, arg_int );	/* sh1108 has range from 0 to 255 */
 188              		.loc 1 115 0
 189 00a6 8121     		movs	r1, #129
 190 00a8 2846     		mov	r0, r5
 191 00aa FFF7FEFF 		bl	u8x8_cad_SendCmd
 192              	.LVL26:
 116:..\u8g2-master\csrc/u8x8_d_sh1108.c ****       u8x8_cad_EndTransfer(u8x8);
 193              		.loc 1 116 0
 194 00ae 2146     		mov	r1, r4
 195 00b0 2846     		mov	r0, r5
 196 00b2 FFF7FEFF 		bl	u8x8_cad_SendArg
 197              	.LVL27:
 117:..\u8g2-master\csrc/u8x8_d_sh1108.c ****       break;
 198              		.loc 1 117 0
 199 00b6 2846     		mov	r0, r5
 200 00b8 FFF7FEFF 		bl	u8x8_cad_EndTransfer
 201              	.LVL28:
 202              	.LBE10:
 203              	.LBE19:
 208:..\u8g2-master\csrc/u8x8_d_sh1108.c ****   
 204              		.loc 1 208 0
 205 00bc 0120     		movs	r0, #1
 206              		.loc 1 223 0
ARM GAS  C:\Users\info\AppData\Local\Temp\ccHawdvR.s 			page 9


 207 00be F8BD     		pop	{r3, r4, r5, r6, r7, pc}
 208              	.LVL29:
 209              	.L3:
 210              	.LBB20:
 211              	.LBB11:
  95:..\u8g2-master\csrc/u8x8_d_sh1108.c **** 	u8x8_cad_SendSequence(u8x8, u8x8_d_sh1108_noname_powersave0_seq);
 212              		.loc 1 95 0
 213 00c0 62B9     		cbnz	r2, .L8
  96:..\u8g2-master\csrc/u8x8_d_sh1108.c ****       else
 214              		.loc 1 96 0
 215 00c2 0F49     		ldr	r1, .L23+8
 216              	.LVL30:
 217 00c4 FFF7FEFF 		bl	u8x8_cad_SendSequence
 218              	.LVL31:
 219              	.LBE11:
 220              	.LBE20:
 208:..\u8g2-master\csrc/u8x8_d_sh1108.c ****   
 221              		.loc 1 208 0
 222 00c8 0120     		movs	r0, #1
 223              		.loc 1 223 0
 224 00ca F8BD     		pop	{r3, r4, r5, r6, r7, pc}
 225              	.LVL32:
 226              	.L14:
 217:..\u8g2-master\csrc/u8x8_d_sh1108.c ****       break;
 227              		.loc 1 217 0
 228 00cc 2846     		mov	r0, r5
 229              	.LVL33:
 230 00ce 0D49     		ldr	r1, .L23+12
 231              	.LVL34:
 232 00d0 FFF7FEFF 		bl	u8x8_d_helper_display_setup_memory
 233              	.LVL35:
 222:..\u8g2-master\csrc/u8x8_d_sh1108.c **** }
 234              		.loc 1 222 0
 235 00d4 0120     		movs	r0, #1
 218:..\u8g2-master\csrc/u8x8_d_sh1108.c ****     default:
 236              		.loc 1 218 0
 237 00d6 F8BD     		pop	{r3, r4, r5, r6, r7, pc}
 238              	.LVL36:
 239              	.L22:
 220:..\u8g2-master\csrc/u8x8_d_sh1108.c ****   }
 240              		.loc 1 220 0
 241 00d8 0020     		movs	r0, #0
 242              	.LVL37:
 243 00da F8BD     		pop	{r3, r4, r5, r6, r7, pc}
 244              	.LVL38:
 245              	.L8:
 246              	.LBB21:
 247              	.LBB12:
  98:..\u8g2-master\csrc/u8x8_d_sh1108.c ****       break;
 248              		.loc 1 98 0
 249 00dc 0A49     		ldr	r1, .L23+16
 250              	.LVL39:
 251 00de FFF7FEFF 		bl	u8x8_cad_SendSequence
 252              	.LVL40:
 253              	.LBE12:
 254              	.LBE21:
 208:..\u8g2-master\csrc/u8x8_d_sh1108.c ****   
ARM GAS  C:\Users\info\AppData\Local\Temp\ccHawdvR.s 			page 10


 255              		.loc 1 208 0
 256 00e2 0120     		movs	r0, #1
 257              		.loc 1 223 0
 258 00e4 F8BD     		pop	{r3, r4, r5, r6, r7, pc}
 259              	.LVL41:
 260              	.L10:
 261              	.LBB22:
 262              	.LBB13:
 108:..\u8g2-master\csrc/u8x8_d_sh1108.c **** 	u8x8->x_offset = u8x8->display_info->flipmode_x_offset;
 263              		.loc 1 108 0
 264 00e6 0949     		ldr	r1, .L23+20
 265              	.LVL42:
 266 00e8 FFF7FEFF 		bl	u8x8_cad_SendSequence
 267              	.LVL43:
 109:..\u8g2-master\csrc/u8x8_d_sh1108.c ****       }
 268              		.loc 1 109 0
 269 00ec 2B68     		ldr	r3, [r5]
 270              	.LBE13:
 271              	.LBE22:
 208:..\u8g2-master\csrc/u8x8_d_sh1108.c ****   
 272              		.loc 1 208 0
 273 00ee 0120     		movs	r0, #1
 274              	.LBB23:
 275              	.LBB14:
 109:..\u8g2-master\csrc/u8x8_d_sh1108.c ****       }
 276              		.loc 1 109 0
 277 00f0 DB7C     		ldrb	r3, [r3, #19]	@ zero_extendqisi2
 278 00f2 85F82230 		strb	r3, [r5, #34]
 279              	.LVL44:
 280              	.LBE14:
 281              	.LBE23:
 282              		.loc 1 223 0
 283 00f6 F8BD     		pop	{r3, r4, r5, r6, r7, pc}
 284              	.LVL45:
 285              	.L24:
 286              		.align	2
 287              	.L23:
 288 00f8 20000000 		.word	.LANCHOR0+32
 289 00fc 10000000 		.word	.LANCHOR0+16
 290 0100 00000000 		.word	.LANCHOR0
 291 0104 50000000 		.word	.LANCHOR0+80
 292 0108 08000000 		.word	.LANCHOR0+8
 293 010c 18000000 		.word	.LANCHOR0+24
 294              		.cfi_endproc
 295              	.LFE1:
 296              		.size	u8x8_d_sh1108_160x160, .-u8x8_d_sh1108_160x160
 297              		.section	.rodata
 298              		.align	2
 299              		.set	.LANCHOR0,. + 0
 300              		.type	u8x8_d_sh1108_noname_powersave0_seq, %object
 301              		.size	u8x8_d_sh1108_noname_powersave0_seq, 5
 302              	u8x8_d_sh1108_noname_powersave0_seq:
 303 0000 18       		.byte	24
 304 0001 15       		.byte	21
 305 0002 AF       		.byte	-81
 306 0003 19       		.byte	25
 307 0004 FF       		.byte	-1
ARM GAS  C:\Users\info\AppData\Local\Temp\ccHawdvR.s 			page 11


 308 0005 000000   		.space	3
 309              		.type	u8x8_d_sh1108_noname_powersave1_seq, %object
 310              		.size	u8x8_d_sh1108_noname_powersave1_seq, 5
 311              	u8x8_d_sh1108_noname_powersave1_seq:
 312 0008 18       		.byte	24
 313 0009 15       		.byte	21
 314 000a AE       		.byte	-82
 315 000b 19       		.byte	25
 316 000c FF       		.byte	-1
 317 000d 000000   		.space	3
 318              		.type	u8x8_d_sh1108_160x160_noname_powersave0_seq, %object
 319              		.size	u8x8_d_sh1108_160x160_noname_powersave0_seq, 7
 320              	u8x8_d_sh1108_160x160_noname_powersave0_seq:
 321 0010 18       		.byte	24
 322 0011 15       		.byte	21
 323 0012 A0       		.byte	-96
 324 0013 15       		.byte	21
 325 0014 C0       		.byte	-64
 326 0015 19       		.byte	25
 327 0016 FF       		.byte	-1
 328 0017 00       		.space	1
 329              		.type	u8x8_d_sh1108_160x160_noname_powersave1_seq, %object
 330              		.size	u8x8_d_sh1108_160x160_noname_powersave1_seq, 7
 331              	u8x8_d_sh1108_160x160_noname_powersave1_seq:
 332 0018 18       		.byte	24
 333 0019 15       		.byte	21
 334 001a A1       		.byte	-95
 335 001b 15       		.byte	21
 336 001c C8       		.byte	-56
 337 001d 19       		.byte	25
 338 001e FF       		.byte	-1
 339 001f 00       		.space	1
 340              		.type	u8x8_d_sh1108_160x160_noname_init_seq, %object
 341              		.size	u8x8_d_sh1108_160x160_noname_init_seq, 45
 342              	u8x8_d_sh1108_160x160_noname_init_seq:
 343 0020 18       		.byte	24
 344 0021 15       		.byte	21
 345 0022 AE       		.byte	-82
 346 0023 15       		.byte	21
 347 0024 D5       		.byte	-43
 348 0025 16       		.byte	22
 349 0026 60       		.byte	96
 350 0027 15       		.byte	21
 351 0028 A9       		.byte	-87
 352 0029 16       		.byte	22
 353 002a 03       		.byte	3
 354 002b 15       		.byte	21
 355 002c 20       		.byte	32
 356 002d 15       		.byte	21
 357 002e 81       		.byte	-127
 358 002f 16       		.byte	22
 359 0030 1F       		.byte	31
 360 0031 15       		.byte	21
 361 0032 AD       		.byte	-83
 362 0033 16       		.byte	22
 363 0034 80       		.byte	-128
 364 0035 15       		.byte	21
ARM GAS  C:\Users\info\AppData\Local\Temp\ccHawdvR.s 			page 12


 365 0036 30       		.byte	48
 366 0037 15       		.byte	21
 367 0038 D9       		.byte	-39
 368 0039 16       		.byte	22
 369 003a 28       		.byte	40
 370 003b 15       		.byte	21
 371 003c DB       		.byte	-37
 372 003d 16       		.byte	22
 373 003e 35       		.byte	53
 374 003f 15       		.byte	21
 375 0040 DC       		.byte	-36
 376 0041 16       		.byte	22
 377 0042 35       		.byte	53
 378 0043 15       		.byte	21
 379 0044 A0       		.byte	-96
 380 0045 15       		.byte	21
 381 0046 C0       		.byte	-64
 382 0047 15       		.byte	21
 383 0048 A4       		.byte	-92
 384 0049 15       		.byte	21
 385 004a A6       		.byte	-90
 386 004b 19       		.byte	25
 387 004c FF       		.byte	-1
 388 004d 000000   		.space	3
 389              		.type	u8x8_sh1108_160x160_noname_display_info, %object
 390              		.size	u8x8_sh1108_160x160_noname_display_info, 24
 391              	u8x8_sh1108_160x160_noname_display_info:
 392 0050 00       		.byte	0
 393 0051 01       		.byte	1
 394 0052 3C       		.byte	60
 395 0053 78       		.byte	120
 396 0054 64       		.byte	100
 397 0055 64       		.byte	100
 398 0056 64       		.byte	100
 399 0057 64       		.byte	100
 400 0058 00093D00 		.word	4000000
 401 005c 00       		.byte	0
 402 005d 04       		.byte	4
 403 005e 28       		.byte	40
 404 005f 96       		.byte	-106
 405 0060 14       		.byte	20
 406 0061 14       		.byte	20
 407 0062 00       		.byte	0
 408 0063 00       		.byte	0
 409 0064 A000     		.short	160
 410 0066 A000     		.short	160
 411              		.text
 412              	.Letext0:
 413              		.file 2 "c:\\program files (x86)\\cypress\\psoc creator\\4.2\\psoc creator\\import\\gnu\\arm\\5.4.
 414              		.file 3 "c:\\program files (x86)\\cypress\\psoc creator\\4.2\\psoc creator\\import\\gnu\\arm\\5.4.
 415              		.file 4 "..\\u8g2-master\\csrc\\u8x8.h"