ARM GAS  C:\Users\info\AppData\Local\Temp\ccvtqJAE.s 			page 1


   1              		.syntax unified
   2              		.cpu cortex-m3
   3              		.fpu softvfp
   4              		.eabi_attribute 20, 1
   5              		.eabi_attribute 21, 1
   6              		.eabi_attribute 23, 3
   7              		.eabi_attribute 24, 1
   8              		.eabi_attribute 25, 1
   9              		.eabi_attribute 26, 1
  10              		.eabi_attribute 30, 4
  11              		.eabi_attribute 34, 1
  12              		.eabi_attribute 18, 4
  13              		.thumb
  14              		.syntax unified
  15              		.file	"u8x8_d_pcd8544_84x48.c"
  16              		.text
  17              	.Ltext0:
  18              		.section	.gnu.lto_.profile.bf14d81c,"",%progbits
  19 0000 789C6361 		.ascii	"x\234ca`d`e`\000\222\347\030\375\000\0038\001)"
  19      60646065 
  19      600092E7 
  19      18FD0003 
  19      380129
  20              		.text
  21              		.section	.gnu.lto_.icf.bf14d81c,"",%progbits
  22 0000 789C6361 		.ascii	"x\234ca`d\000\001\005\006\004`ex\376t\317\036^\306\356"
  22      60640001 
  22      05060460 
  22      6578FE74 
  22      CF1E5EC6 
  23 0015 F7AD0FB9 		.ascii	"\367\255\017\271\231f\257i\335\301\303\374\372\353\203"
  23      9966AF69 
  23      DDC1C3FC 
  23      FAEB83
  24 0024 896C2C1F 		.ascii	"\211l,\0377\0369\303\307\000\000\0041\017\230"
  24      371E39C3 
  24      C7000004 
  24      310F98
  25              		.text
  26              		.section	.gnu.lto_.jmpfuncs.bf14d81c,"",%progbits
  27 0000 789C858D 		.ascii	"x\234\205\215=\012\002Q\014\2043I\260\334\365\000\026"
  27      3D0A0251 
  27      0C843349 
  27      B0DCF500 
  27      16
  28 0011 5A7B42AB 		.ascii	"Z{B\253\367`Y\344\335\300\013\210\277WX<\203\307\260"
  28      F76059E4 
  28      DDC00B88 
  28      BF57583C 
  28      83C7B0
  29 0024 D64A5830 		.ascii	"\326JX01(\202\177\323L2|\223(\201\\\323\260\273@\012"
  29      3128827F 
  29      D34C327C 
  29      9328815C 
  29      D3B0BB40 
  30 0039 539D4CCC 		.ascii	"S\235L\3143\217\006a!}.o\023z\306\374\224;\275p+\204"
  30      338F0661 
ARM GAS  C:\Users\info\AppData\Local\Temp\ccvtqJAE.s 			page 2


  30      217D2E6F 
  30      137AC6FC 
  30      943BBD70 
  31 004f 31561811 		.ascii	"1V\030\021\371\021\204}+\225ny\254\2424\301\372\245"
  31      F911847D 
  31      2B956E79 
  31      ACA234C1 
  31      FAA5
  32 0061 A461CE34 		.ascii	"\244a\3164\327\303\271J}^\344<l\005E\274\273A\372\001"
  32      D7C3B94A 
  32      7D5EE43C 
  32      6C0545BC 
  32      BB41FA01 
  33 0075 7111CFB7 		.ascii	"q\021\317\267\017\210>AR\204-\3379\364\357\253\026\261"
  33      0F883E41 
  33      52842DDF 
  33      39F4EFAB 
  33      16B1
  34 0087 B7D81B0B 		.ascii	"\267\330\033\013%\272\001\352~>\227"
  34      25BA01EA 
  34      7E3E97
  35              		.text
  36              		.section	.gnu.lto_.inline.bf14d81c,"",%progbits
  37 0000 789C6361 		.ascii	"x\234ca`d\000\201D\010\005\006@\346\005\206\213\014"
  37      60640081 
  37      44080506 
  37      40E60586 
  37      8B0C
  38 0012 8C9C8C1C 		.ascii	"\214\234\214\034Y\177\231\030\247\235\235\270\213\355"
  38      597F9918 
  38      A79D9DB8 
  38      8BED
  39 0020 0B532B33 		.ascii	"\013S+3Hd9\243\014\003D\370\354\3025\347\240\302\\\214"
  39      486439A3 
  39      0C0344F8 
  39      ECC235E7 
  39      A0C25C8C 
  40 0034 2BE0C2BF 		.ascii	"+\340\302\277\177\234\333\313\016\021\346f\\\011\027"
  40      7F9CDBCB 
  40      0E11E666 
  40      5C0917
  41 0043 7E7B6DF5 		.ascii	"~{m\365\032f\2100\037\343*\270\360\232e\037\017\360"
  41      1A668830 
  41      1FE32AB8 
  41      F09A651F 
  41      0FF0
  42 0055 4384F919 		.ascii	"C\204\371\031W\003\205\231\300\302\353\337\354\374\311"
  42      57038599 
  42      C0C2EBDF 
  42      ECFCC9
  43 0064 0B126665 		.ascii	"\013\022fed`\\\003\026\316\006\323\214\034@\3071\201"
  43      64605C03 
  43      16CE06D3 
  43      8C1C40C7 
  43      3181
  44 0076 0876A043 		.ascii	"\010v\240C\331\026\31031H\034\260k`a`\335\307\346\300"
  44      D916C833 
ARM GAS  C:\Users\info\AppData\Local\Temp\ccvtqJAE.s 			page 3


  44      31481CB0 
  44      6B606160 
  44      DDC7E6C0 
  45 008a C4A0FCE0 		.ascii	"\304\240\374\340\004\223\003\003\313\014\326\006\016"
  45      04930303 
  45      CB0CD606 
  45      0E
  46 0097 050825C0 		.ascii	"\005\010%\300\320\300\341\000T\312\304\315\340\300\300"
  46      D0C0E100 
  46      54CAC4CD 
  46      E0C0C0
  47 00a6 38C18F85 		.ascii	"8\301\217\205\227\321\201\201\371\204\312\004\277\036"
  47      97D18181 
  47      F984CA04 
  47      BF1E
  48 00b4 36661EA0 		.ascii	"6f\036\240\030\323\004\277\011~\230,\270\006 \255\000"
  48      18D304BF 
  48      097E982C 
  48      B80620AD 
  48      00
  49 00c5 A281120A 		.ascii	"\242\201\022\012p%\0120%0\251\006&\001\260\020\210\311"
  49      70250A30 
  49      2530A906 
  49      2601B010 
  49      88C9
  50 00d7 086772C0 		.ascii	"\010gr\300\224q@\225\261\200\005\030\000\245\005J\301"
  50      94714095 
  50      B1800518 
  50      00A5054A 
  50      C1
  51              		.text
  52              		.section	.gnu.lto_.pureconst.bf14d81c,"",%progbits
  53 0000 789C6361 		.ascii	"x\234ca`d`f`\000\222\222\000\000q\000#"
  53      60646066 
  53      60009292 
  53      00007100 
  53      23
  54              		.text
  55              		.section	.gnu.lto_u8x8_d_pcd8544_84x48.bf14d81c,"",%progbits
  56 0000 789C9557 		.ascii	"x\234\225WkpTE\026\356s\373\316\353\316\223\025\262"
  56      6B705445 
  56      16EE73FB 
  56      CEEBCE93 
  56      15B2
  57 0012 3C061390 		.ascii	"<\006\023\220\020\302&\221\322l\221\252\365\207VY\352"
  57      10C22691 
  57      D26C91AA 
  57      F5875659 
  57      EA
  58 0023 6FFD8B95 		.ascii	"o\375\213\225\332\012[\354\226\245e\241[\305\037+7\231"
  58      DA0A5BEC 
  58      96A565A1 
  58      5BC51F2B 
  58      3799
  59 0035 4C42523E 		.ascii	"LBR>\300\225\230eA\2644\242&\022\222\010\230\030tD%"
  59      C0959865 
  59      41B434A2 
ARM GAS  C:\Users\info\AppData\Local\Temp\ccvtqJAE.s 			page 4


  59      26129208 
  59      98187444 
  60 004a 90178444 		.ascii	"\220\027\204DB@\020#D`#\232\211,1\202\263\347\234\276"
  60      42401023 
  60      4460239A 
  60      892C3182 
  60      B3E79CBE 
  61 005e 37C99019 		.ascii	"7\311\220\031\037S5}\273{\316w\372|\347|\335}G\027 "
  61      1F53357D 
  61      BB7BCE77 
  61      FA7CE77C 
  61      DD7D4717 
  62 0073 E8931510 		.ascii	"\350\223\025\020\342A|\216\342\027\346\011\320\266\364"
  62      E2417C8E 
  62      E217E609 
  62      D0B6F4
  63 0082 0951E6D6 		.ascii	"\011Q\346\326\234\301\210_\230n\311\255\316\255\203"
  63      9CC1885F 
  63      986EC9AD 
  63      CEAD83
  64 0091 5B37B71E 		.ascii	"[7\267\036\365+\004\225\271nw\034\232ss\2160\015\027"
  64      F52B0495 
  64      B96E771C 
  64      9A73738E 
  64      300D17
  65 00a4 B53EA73D 		.ascii	"\265>\247=\355\262;n\273\343\001Cu\014\315\333\261\026"
  65      EDB23B6E 
  65      BBE30143 
  65      750CCDDB 
  65      B116
  66 00b6 11FEC10C 		.ascii	"\021\376\301\014Dx\265\300!\211#__\227\300\241\017\374"
  66      4478B5C0 
  66      2189235F 
  66      5F97C0A1 
  66      0FFC
  67 00c8 CACAAF85 		.ascii	"\312\312\257\205x\306\340\237}!\205\276/`\273\013\002"
  67      78C6E09F 
  67      7D2185BE 
  67      2F60BB0B 
  67      02
  68 00d9 50C77483 		.ascii	"P\307t\203(\325\244\356p\272\334\036\303\353\363\207"
  68      28D5A4EE 
  68      70BADC1E 
  68      C3EBF387 
  69 00e9 024128D5 		.ascii	"\002A(\325\014\0011\035\022\212\3615\355\246\006\335"
  69      0C01311D 
  69      128AF135 
  69      EDA606DD 
  70 00f9 D78F3C6B 		.ascii	"\327\217<k\344\3566\315r\363|\375\304C\343\345\321\205"
  70      E4EE36CD 
  70      72F37CFD 
  70      C443E3E5 
  70      D185
  71 010b 51294442 		.ascii	"Q)DB\023pw\030\326\204)\033\273!\027-\373+\366\356\220"
  71      13707718 
  71      D684291B 
  71      BB21172D 
ARM GAS  C:\Users\info\AppData\Local\Temp\ccvtqJAE.s 			page 5


  71      FB2BF6EE 
  72 0120 3F685109 		.ascii	"?hQ\011\240\343p\274w\373\327\001\032j\220\205\303W"
  72      A0E370BC 
  72      77FBD701 
  72      1A6A9085 
  72      C357
  73 0132 075FFFC2 		.ascii	"\007_\377\302)s@`\277\266k\360\252?\247\236|\232;\377"
  73      29734060 
  73      BFB66BF0 
  73      AA3FA79E 
  73      7C9A3BFF 
  74 0146 667AA252 		.ascii	"fz\242R\302; \311\347\333\020\206\267 ,pJ@\003\344\240"
  74      C23B20C9 
  74      E7DB1086 
  74      B7202C70 
  74      4A4003E4 
  75 015b 75CFDEB6 		.ascii	"u\317\336\266!]\3461\362z\307'7m\344\360\243\246\304"
  75      215DE631 
  75      F27AC727 
  75      376DE4F0 
  75      A3A6C4
  76 016e 50A05121 		.ascii	"P\240Q!U4\024\033\274\313\270\272\376\363\317\031r\015"
  76      5534141B 
  76      BCCBB8BA 
  76      FEF3CF19 
  76      720D
  77 0180 E3765CFC 		.ascii	"\343v\\\374n\330a\341\376u\330k\256!\340\2369\300&\006"
  77      6ED861E1 
  77      FE75D86B 
  77      AE21E09E 
  77      39C02606 
  78 0194 0E7FD33B 		.ascii	"\016\177\323;`\310\"\006\276\263\357\313\026\227\005"
  78      60C82206 
  78      BEB3EFCB 
  78      169705
  79 01a3 EC3FEC33 		.ascii	"\354?\3543\267@T\352\260\367\326`u\001\315\220C\200"
  79      B74054EA 
  79      B0F7D660 
  79      7501CD90 
  79      4380
  80 01b5 E7076B46 		.ascii	"\347\007kF\244\274\227\301\365\346\336\032O\366\353"
  80      A4BC97C1 
  80      F5E6DE1A 
  80      4FF6EB
  81 01c4 048E3557 		.ascii	"\004\2165W\005\376m\306*\262\242\322\001-\311p\372\240"
  81      05FE6DC6 
  81      2AB2A2D2 
  81      012DC970 
  81      FAA0
  82 01d6 75DFEEFA 		.ascii	"u\337\356\372\227\014y?#w\325\266\237\262\221\273\252"
  82      970C793F 
  82      2377D5B6 
  82      9FB291BB 
  82      AA
  83 01e7 822F9BB1 		.ascii	"\202/\233\261\262,\012\371\275\331![\270\355\355U\345"
  83      B22C0AF9 
  83      BDD9215B 
ARM GAS  C:\Users\info\AppData\Local\Temp\ccvtqJAE.s 			page 6


  83      B8EDED55 
  83      E5
  84 01f8 867C8071 		.ascii	"\206|\200q\221\367\207>\010*\234y`\235\031\271\227@"
  84      91F7873E 
  84      082A9C79 
  84      609D19B9 
  84      9740
  85 020a FB538046 		.ascii	"\373S\200F\232\177\336\346wV\230\370\311\202\003\220"
  85      9A7FDEE6 
  85      775698F8 
  85      C9820390 
  86 021a 0DFBF0DB 		.ascii	"\015\373\360\333\012\331TXL\304\373\340D\015\310\331"
  86      0AD95458 
  86      4CC4FBE0 
  86      440DC8D9 
  87 022a BF343D1C 		.ascii	"\2774=\0343\023\211\210\031\333\351\372\270\316\213"
  87      33138988 
  87      19DBE9FA 
  87      B8CE8B
  88 0239 69A56CA1 		.ascii	"i\245l\241[4\3015\320H\347\326A\231\364\000\325\300"
  88      5B34C135 
  88      D048E7D6 
  88      4199F400 
  88      D5C0
  89 024b 0B544114 		.ascii	"\013TA\024\034\032\316\307i\347\002j\026\001\245j1\003"
  89      1C1ACEC7 
  89      69E7026A 
  89      1601A56A 
  89      3103
  90 025d 97704B09 		.ascii	"\227pK\011t.\345n&u\227Q\263\234\232\025\202V\316f\307"
  90      742EE56E 
  90      26759751 
  90      B39C9A15 
  90      8256CE66 
  91 0272 2BB9CDC1 		.ascii	"+\271\315\301i\327*jr\251Y\215\215;\217\241\371\034"
  91      69D72A6A 
  91      72A9598D 
  91      8D3B8FA1 
  91      F91C
  92 0284 50015B09 		.ascii	"P\001[\011\361=\322h\271C\214k\032>\344E\250\212\265"
  92      F13DD268 
  92      B9438C6B 
  92      1A3EE445 
  92      A88AB5
  93 0297 7602D18A 		.ascii	"v\002\321\212H\017)p\370\215K\216\255\360B\031f \266"
  93      480F2970 
  93      F88D4B8E 
  93      ADF04219 
  93      6620B6
  94 02aa B51B55EA 		.ascii	"\265\033U\352\301=!)9\320\006[\201Lz\267\266;I\277\002"
  94      C13D2129 
  94      39D0065B 
  94      814C7AB7 
  94      B63B49BF 
  95 02bf 087168EC 		.ascii	"\010qh\354\314\005\260\021\373]\010\200v\254\235)i\257"
  95      CC05B011 
  95      FB5D0880 
ARM GAS  C:\Users\info\AppData\Local\Temp\ccvtqJAE.s 			page 7


  95      76AC9D29 
  95      69AF
  96 02d1 C0070AD3 		.ascii	"\300\007\012\323\373Zc\237\2051pX^=T\357\2661\035\214"
  96      FB5A639F 
  96      85317058 
  96      5E3D54EF 
  96      B6311D8C 
  97 02e5 E9600CE7 		.ascii	"\351`\014\347\370\240\302\3744\331w\320\2450^R\370\266"
  97      F8A0C2FC 
  97      34D977D0 
  97      A5305E52 
  97      F8B6
  98 02f7 D1579D36 		.ascii	"\321W\2356f\2201\0372\206\202\203\217\024\346\333\223"
  98      6690311F 
  98      32868283 
  98      8F14E6DB 
  98      93
  99 0308 0D8D5261 		.ascii	"\015\215Ra\0028\274\326w\372-\237\215\231dL\2141:a>"
  99      0238BCD6 
  99      77FA2D9F 
  99      8D99644C 
  99      8C313A61 
 100 031d 5698C637 		.ascii	"V\230\3067\307cA\205\011\342\360\225\367v\277\344\267"
 100      C7634185 
 100      09E2F095 
 100      F776BFE4 
 100      B7
 101 032e 31B50661 		.ascii	"1\265\006a\0161\306A\230O\020\203\317qM\212\011\207"
 101      0E31C641 
 101      984F1083 
 101      CF714D8A 
 101      0987
 102 0340 BC006521 		.ascii	"\274\000e!\312\035\221\275\004\321X[\247\244!\351\250"
 102      CA1D91BD 
 102      04D1585B 
 102      A7A421E9 
 102      A8
 103 0351 AD6DEC8C 		.ascii	"\255m\354\214\253\364\246\271\3314CQi$4\204\301\247"
 103      ABF4A6B9 
 103      D9344351 
 103      69243484 
 103      C1A7
 104 0363 502A2292 		.ascii	"P*\"\222\330\324F\017\035cr^%\317\251\217&\002h]\307"
 104      D8D4460F 
 104      1D63725E 
 104      25CFA98F 
 104      2602685D 
 105 0378 D6DE6AE9 		.ascii	"\326\336j\351d1\036\335\336\360\330.\330Y\266\205\247"
 105      64311EDD 
 105      DEF0D82E 
 105      D859B685 
 105      A7
 106 0389 7D70184A 		.ascii	"}p\030J\3413\332\030\370[\342J\313\036\017B\026\222"
 106      E133DA18 
 106      F85BE24A 
 106      CB1E0F42 
 106      1692
ARM GAS  C:\Users\info\AppData\Local\Temp\ccvtqJAE.s 			page 8


 107 039b 8F4ED8C5 		.ascii	"\217N\330\305E\024p\004J\243\322\317!\352\311!j\030"
 107      45147004 
 107      4AA3D2CF 
 107      21EAC921 
 107      6A18
 108 03ad 6245EC43 		.ascii	"bE\354CW\352\010\003\011T\204\200\243*\302\250\0142"
 108      57EA0803 
 108      09548480 
 108      A32AC2A8 
 108      0C32
 109 03bf A1E369AC 		.ascii	"\241\343i\254C\011\215\216\205\256\271|\346\245\340"
 109      43098D8E 
 109      85AEB97C 
 109      E6A5E0
 110 03ce 33AF5ABA 		.ascii	"3\257Z\272R\360\371\003\364 \237\356[\370 \304|\031"
 110      52F0F903 
 110      F4209FEE 
 110      5BF820C4 
 110      7C19
 111 03e0 C851EF34 		.ascii	"\310Q\3574\251>\"u\033\223r$\223\222\342+\2508\035i"
 111      A93E2275 
 111      1B937224 
 111      9392E22B 
 111      A8381D69 
 112 03f4 7A61B1D2 		.ascii	"za\261\3220U\260i\254\355G?\305\202[\025\216Y\347\310"
 112      3055B069 
 112      ACED473F 
 112      C5825B15 
 112      8E59E7C8 
 113 0408 B8E61453 		.ascii	"\270\346\024S\232$R\303U\360\213\254\216\317e5?\005"
 113      9A2452C3 
 113      55F08BAC 
 113      8ECF6535 
 113      3F05
 114 041a ABF9D5D2 		.ascii	"\253\371\325\322\235\202\325\0028\201\254\372S\260z"
 114      9D82D502 
 114      3881ACFA 
 114      53B07A
 115 0429 86FC0C4C 		.ascii	"\206\374\014L\223\032\234!\345\262C;\373+\241}>7\264"
 115      931A9C21 
 115      E5B2433B 
 115      FB2BA17D 
 115      3E37B4
 116 043c 8C14A165 		.ascii	"\214\024\241eT\323\266\235\023\332\037a\010C;\231:\264"
 116      54D3B69D 
 116      13DA1F61 
 116      08433B99 
 116      3AB4
 117 044e 0C38351D 		.ascii	"\01485\035\332\360Lh\356\344|\353,\242\237\322\351|"
 117      DAF04C68 
 117      EEE47CEB 
 117      2CA29FD2 
 117      E97C
 118 0460 61025527 		.ascii	"a\002U'\340\264\255\242E\254\242\033iT\2648\201\345"
 118      E0B4ADA2 
 118      45ACA21B 
 118      6954B438 
ARM GAS  C:\Users\info\AppData\Local\Temp\ccvtqJAE.s 			page 9


 118      81E5
 119 0472 1470669A 		.ascii	"\024pf\232T\365\301\372\376\200\332\212\313\340\013"
 119      54F5C1FA 
 119      FE80DA8A 
 119      CBE00B
 120 0481 0847E512 		.ascii	"\010G\345\0221\012\221x\345T\246*\357|\2540\374)L\223"
 120      310A9178 
 120      E554A62A 
 120      EF7CAC30 
 120      FC294C93 
 121 0495 934E35B5 		.ascii	"\223N5\265\000g\021\272\177\364\350aC\025\335\0048\213"
 121      006711BA 
 121      7FF4E861 
 121      4315DD04 
 121      388B
 122 04a7 1C2F81E3 		.ascii	"\034/\201\343\027\227=\247\226E\017\264\014\321\332"
 122      17973DA7 
 122      96450FB4 
 122      0CD1DA
 123 04b6 62A46585 		.ascii	"b\244e\205\373\021\276\234aE\231\361$g\306\301.\352"
 123      FB11BE9C 
 123      614599F1 
 123      2467C6C1 
 123      2EEA
 124 04c8 D2BBA0C4 		.ascii	"\322\273\240\304\234\237q1\012\345\355\315\235/J\305"
 124      9C9F7131 
 124      0AE5EDCD 
 124      9D2F4AC5 
 125 04d8 62F1EC92 		.ascii	"b\361\354\222\206\325\225\336\331\265\331G\3053yG\340"
 125      86D595DE 
 125      D9B5D947 
 125      C5337947 
 125      E0
 126 04e9 81BE3422 		.ascii	"\201\2764\"\027\301WV\371\352/\224\357q\335\231O\271"
 126      17C15756 
 126      F9EA2F94 
 126      EF71DD99 
 126      4FB9
 127 04fb 1AC1C2FD 		.ascii	"\032\301\302\375\254\361\031\3755\334)F\240\334\274"
 127      ACF119FD 
 127      35DC2946 
 127      A0DCBC
 128 050a 9B6F2A3C 		.ascii	"\233o*<\375\3215ek{\345\324*\265\322\022\265X\315\324"
 128      FDD13565 
 128      6B7BE5D4 
 128      2AB5D212 
 128      B558CDD4 
 129 051e D0F36E95 		.ascii	"\320\363n\225j7\\@\237#\240\315`\226\250\360z\312\035"
 129      6A375C40 
 129      9F23A0CD 
 129      6096A8F0 
 129      7ACA1D
 130 0531 0A149E1D 		.ascii	"\012\024\236\035\236L\012\017\267\352\355H\011.\316"
 130      9E4C0A0F 
 130      B7EAED48 
 130      092ECE
 131 0540 8D6B94E3 		.ascii	"\215k\224\343\342{\340\033\214\013\303\250\255\354\261"
ARM GAS  C:\Users\info\AppData\Local\Temp\ccvtqJAE.s 			page 10


 131      E27BE01B 
 131      8C0BC3A8 
 131      ADECB1
 132 054f 2E9BA51C 		.ascii	".\233\245\034\311-\313.e\271\264v\245Q\227U\270K\323"
 132      C92DCB2E 
 132      65B9B476 
 132      A5519755 
 132      B84BD3
 133 0562 7AA9BA6C 		.ascii	"z\251\272l\036\324\025\211,\270<\255\227\311\312\023"
 133      1ED41589 
 133      2CB83CAD 
 133      97C9CA13 
 134 0572 B96A954C 		.ascii	"\271j\225L\364\371\233\304p\305\026Cf\324\"?\336\033"
 134      F4F99BC4 
 134      70C51643 
 134      66D4223F 
 134      DE1B
 135 0584 0F2A27CB 		.ascii	"\017*'\313\222\331\246\253\302\177\231-\337`c\212\355"
 135      92D9A6AB 
 135      C27F992D 
 135      DF60638A 
 135      ED
 136 0595 64E53DCA 		.ascii	"d\345=\312\303r\345\344\300\325\206\003\326\301\024"
 136      C372E5E4 
 136      C0D58603 
 136      D6C114
 137 05a4 13F0ED6F 		.ascii	"\023\360\355o\010\353\252\035\326\362\351\260\372Z,"
 137      08EBAA1D 
 137      D6F2E9B0 
 137      FA5A2C
 138 05b3 C9ACB855 		.ascii	"\311\254\270U#\377I\257\021\007|\307\321\361]\371\275"
 138      23FF49AF 
 138      11077CC7 
 138      D1F15DF9 
 138      BD
 139 05c4 A591B59C 		.ascii	"\245\221\265\234\370VJ\374\012U\357c\266\034\263\177"
 139      F8564AFC 
 139      0A55EF63 
 139      B61CB37F 
 140 05d4 97FEC6D9 		.ascii	"\227\376\306\3317\337\251\361$\375\355#\337\331\226"
 140      37DFA9F1 
 140      24FDED23 
 140      DFD996
 141 05e3 FEAC92AC 		.ascii	"\376\254\222\254\304\231$\301\261\321J\336R\206\300"
 141      C49924C1 
 141      B1D14ADE 
 141      5286C0
 142 05f2 577089F8 		.ascii	"Wp\211\370\220P\323R\250\001\253C\263\006\3706\023A"
 142      9050D352 
 142      A801AB43 
 142      B306F836 
 142      1341
 143 0604 0D62C4F1 		.ascii	"\015b\304\361\252\023\253\225\327\034\262\245\031\227"
 143      AA13AB95 
 143      D71CB2A5 
 143      1997
 144 0612 1AAF2273 		.ascii	"\032\257\"s\022\234uJ\344\262\311*\005\032\2634\270"
ARM GAS  C:\Users\info\AppData\Local\Temp\ccvtqJAE.s 			page 11


 144      129C754A 
 144      E4B2C92A 
 144      051AB334 
 144      B8
 145 0623 1AE7E9FE 		.ascii	"\032\347\351\3768\025\311\260&\220\327\221\246\027\317"
 145      3815C9B0 
 145      2690D791 
 145      A617CF
 146 0632 F9A8486E 		.ascii	"\371\250Hn\030\0240\241\256\2178\000\236<\036l\362C"
 146      181430A1 
 146      AE8F3800 
 146      9E3C1E6C 
 146      F243
 147 0644 1D43EBE3 		.ascii	"\035C\353\343\240\241\260<\025\217Dd^\250q(\024\007"
 147      A0A1B03C 
 147      158F4464 
 147      5EA87128 
 147      1407
 148 0656 89143C37 		.ascii	"\211\024<7\006\326G\244\036\002d\342\025\035k%\273n"
 148      06D647A4 
 148      1E0264E2 
 148      151D6B25 
 148      BB6E
 149 0668 DD668544 		.ascii	"\335f\205D\177\032\256v\307\377\242\364: \340\207\351"
 149      7F1AAE76 
 149      C7FFA2F4 
 149      3A20E087 
 149      E9
 150 0679 ABC9276E 		.ascii	"\253\311'n\024\022\355\330\331\032i\347\004\255\247"
 150      1412EDD8 
 150      D91A69E7 
 150      04ADA7
 151 0688 5AF75CF6 		.ascii	"Z\367\\\366)s\014\345\032\360\271WW9eq.\240)\225\226"
 151      29730CE5 
 151      1AF0B957 
 151      57396571 
 151      2EA02995 
 152 069d 59992C60 		.ascii	"Y\231,`\217~q\274;)\223tpW\306&j\322\334/\231\011\274"
 152      8F7E71BC 
 152      3B299374 
 152      7057C626 
 152      6AD2DC2F 
 153 06b4 8404FCCF 		.ascii	"\204\004\374\317\326\233\216\232\210\312,\265gO6\270"
 153      D69B8E9A 
 153      88CA2CB5 
 153      674F36B8 
 154 06c4 D58A79B8 		.ascii	"\325\212y\270\032\271J\332\264y\312\350\\\303]\312("
 154      1AB94ADA 
 154      B479CAE8 
 154      5CC35DCA 
 154      28
 155 06d5 1F8B83FE 		.ascii	"\037\213\203\376\007\"\237\036\263^\305\022\000\327"
 155      07229F1E 
 155      B35EC512 
 155      00D7
 156 06e3 67159CEB 		.ascii	"g\025\234\353\227O\211?\023\231\260\263\223o\337\324"
 156      974F893F 
ARM GAS  C:\Users\info\AppData\Local\Temp\ccvtqJAE.s 			page 12


 156      1399B0B3 
 156      936FDFD4 
 157 06f3 71C0B5A5 		.ascii	"q\300\265\245\201\251.\360\335\370|!\276\260\206\304"
 157      81A92EF0 
 157      DDF87C21 
 157      BEB086C4 
 158 0703 CE232832 		.ascii	"\316#(2-@\007.\035\2627\323\035\020\326A=\231|P\007"
 158      2D40072E 
 158      1DB237D3 
 158      1D10D641 
 158      3D997C50 
 159 0718 45EB1D7C 		.ascii	"E\353\035|P\363\213\354\025\312I\204\337\346\342\340"
 159      50F38BEC 
 159      15CA4984 
 159      DFE6E2E0 
 160 0728 987DAEE1 		.ascii	"\230}\256\341\377Y\370\021\302\332\216\341M8\275\257"
 160      FF59F811 
 160      C2DA8EE1 
 160      4D38BDAF 
 161 0738 AAA7D950 		.ascii	"\252\247\331P\323\000S\020\326;\206\377NO\034c\353\344"
 161      D3005310 
 161      D63B86FF 
 161      4E4F1C63 
 161      EBE4
 162 074a 36C0AD9B 		.ascii	"6\300\255\233[\027\275[\003.\205'\300\212\202\202u\377"
 162      5B17BD5B 
 162      032E8527 
 162      C08A8282 
 162      75FF
 163 075c 2CDA7057 		.ascii	",\332pWq\311S\033K\260\267\251\250x}\361\223%\353\213"
 163      71C9531B 
 163      4BB0B7A9 
 163      A8787DF1 
 163      9325EB8B 
 164 0770 FE5C5858 		.ascii	"\376\\XX\\T\270\251\260\250\240D\3504/\037\177j\203"
 164      5C54B8A9 
 164      B0A8A044 
 164      E8342F1F 
 164      7F6A83
 165 0783 EBAF1B37 		.ascii	"\353\257\0337\024\377\343\211\247\371\371\344\323\033"
 165      14FFE389 
 165      A7F9F9E4 
 165      D31B
 166 0791 257EA104 		.ascii	"%~\241\0046\375\037\364\337\257\240"
 166      36FD1FF4 
 166      DFAFA0
 167              		.text
 168              		.section	.gnu.lto_u8x8_pcd8544_84x48_display_info.bf14d81c,"",%progbits
 169 0000 789C2DCD 		.ascii	"x\234-\315KK\002Q\030\306\361\363\2343\343%G\255\326"
 169      4B4B0251 
 169      18C6F1F3 
 169      9C33E325 
 169      47ADD6
 170 0013 D2BA654B 		.ascii	"\322\272eK?\230\037` \225\326\342&*\212\010\272\230"
 170      3F981F60 
 170      2095D6E2 
 170      262A8A08 
ARM GAS  C:\Users\info\AppData\Local\Temp\ccvtqJAE.s 			page 13


 170      BA98
 171 0025 CD3499E2 		.ascii	"\3154\231\342\350\242\2402q\025\004\341\302V-\012\334"
 171      E8A2A032 
 171      711504E1 
 171      C2562D0A 
 171      DC
 172 0036 254868E6 		.ascii	"%Hh\346\373\366\316\331\374\317\357\\-\005\305\243@"
 172      FBF6CED9 
 172      FCCFEF5C 
 172      2D05C5A3 
 172      40
 173 0047 919952BF 		.ascii	"\221\231R\277\032\235V\367\311\236\350\222Q\330\">{"
 173      1A9D56F7 
 173      C99EE892 
 173      51D8223E 
 173      7B
 174 0058 957747F8 		.ascii	"\225wG\370\312\333\336\270\375\223f\003\314\217Y=\314"
 174      CADBDEB8 
 174      FD936603 
 174      CC8F593D 
 174      CC
 175 0069 0863C4B7 		.ascii	"\010c\304\267a\261\015a\212\270\367=\372J\0127\211\341"
 175      61B10D61 
 175      8AB8F73D 
 175      FA4A0A37 
 175      89E1
 176 007b 76CD8FEE 		.ascii	"v\315\217\356n\020_\212\376\276\021Z\304Q\020\034\374"
 176      6E105F8A 
 176      FEBE115A 
 176      C451101C 
 176      FC
 177 008c 7FACE156 		.ascii	"\177\254\341V&\240\225\373iw\234\225\003\003\376l\366"
 177      26A095FB 
 177      69779C95 
 177      0303FE6C 
 177      F6
 178 009d 591D46AF 		.ascii	"Y\035F\257;\304\307\277\351]\264\255\211\375\223p\356"
 178      3BC4C7BF 
 178      E95DB4AD 
 178      89FD9370 
 178      EE
 179 00ae 086D62E3 		.ascii	"\010mb\343\241WN\010\371\255\371\356\361a<\337tw\216"
 179      A1574E08 
 179      F9ADF9EE 
 179      F1613CDF 
 179      74778E
 180 00c1 5CDF2E19 		.ascii	"\\\337.\031\263\320\012\347\310-4\320\340h\334p\214"
 180      B3D00AE7 
 180      C82D34D0 
 180      E068DC70 
 180      8C
 181 00d2 C442C0B1 		.ascii	"\304B\300\261%1\\s\342\3609\011x\234\244\\_\301\025"
 181      25315C73 
 181      E2F03909 
 181      789CA45C 
 181      5FC115
 182 00e5 27853AC7 		.ascii	"'\205:\307\301%'\215\032'\203\013NVN\256J\326p\306Y"
ARM GAS  C:\Users\info\AppData\Local\Temp\ccvtqJAE.s 			page 14


 182      C125278D 
 182      1A27830B 
 182      4E564EAE 
 182      4AD670C6 
 183 00fa C729720A 		.ascii	"\307)r\012\267\310\253%\007\334~\373"
 183      B7C8AB25 
 183      07DC7EFB 
 184              		.text
 185              		.section	.gnu.lto_u8x8_d_pcd8544_84x48_init_seq.bf14d81c,"",%progbits
 186 0000 789C4D90 		.ascii	"x\234M\220\315K\002A\030\207gf]\2634\015\242(\330CA"
 186      CD4B0241 
 186      18876766 
 186      5DB3340D 
 186      A228D843 
 187 0015 FF4075F1 		.ascii	"\377@u\361\317+\330\015\351\324!\020\244 \37223u\373"
 187      CF2BD80D 
 187      E9D42110 
 187      A420FA32 
 187      3375FB
 188 0028 B276B592 		.ascii	"\262v\265\222\242Ca\220]B\352\020h\020Qa\266`hj\277"
 188      A2436190 
 188      5D42EA10 
 188      68105161 
 188      B660686A 
 189 003d ED9D430B 		.ascii	"\355\235C\013\0173\017\317\313\014\263\036\306\231\373"
 189      0F330FCF 
 189      CB0CB31E 
 189      C699FB
 190 004c 0D0B2677 		.ascii	"\015\013&w\214\265\005\317\030\325\204\317\021\206\302"
 190      8CB505CF 
 190      18D584CF 
 190      1186C2
 191 005b 7897C3EF 		.ascii	"x\227\303\357j\305e\277\353\234\017@\235h\261\034\242"
 191      6AC565BF 
 191      EB9C0F40 
 191      9D68B11C 
 191      A2
 192 006c 3C0A4DD7 		.ascii	"<\012M\327\235\264\227j\010\372\235/\255\012\252\023"
 192      9DB4976A 
 192      08FA9D2F 
 192      AD0AAA13 
 193 007c D0F6E36C 		.ascii	"\320\366\343lGP\015B+\361N\324Ku\010\272\366j]\250T"
 193      47500D42 
 193      2BF14ED4 
 193      4B7508BA 
 193      F66A5DA8 
 194 0091 FBA1B19C 		.ascii	"\373\241\261\234s\255R\365A[/\213eN5\000\275/\353\226"
 194      73AD52F5 
 194      415B2F8B 
 194      654E3500 
 194      BD2FEB96 
 195 00a5 543FF4F3 		.ascii	"T?\364\363&V\011\322\360\230{Q\355\266\035\240\332\007"
 195      265609D2 
 195      F0987B51 
 195      EDB61DA0 
 195      DA07
 196 00b7 4D66376C 		.ascii	"Mf7l9\334\0135\363\372\273\034.\270Or\346\215\206B\271"
ARM GAS  C:\Users\info\AppData\Local\Temp\ccvtqJAE.s 			page 15


 196      39DC0B35 
 196      F3FABB1C 
 196      2EB84F72 
 196      E68D8642 
 197 00cc C7556BAE 		.ascii	"\307Uk\256)\363 \264\332J\331A\252^\350\325\272\375"
 197      29F320B4 
 197      DA4AD941 
 197      AA5EE8D5 
 197      BAFD
 198 00de 238F56FF 		.ascii	"#\217V\377W\366WK\272\271$\217\362@\317\353f\\\016+"
 198      57F6574B 
 198      BAB9248F 
 198      F240CFEB 
 198      665C0E2B 
 199 00f2 D0C8C39B 		.ascii	"\320\310\303\233\023\240\341q\350e\267Q\010Q\025\320"
 199      13A0E171 
 199      E865B751 
 199      085115D0 
 200 0102 0FFDF9C9 		.ascii	"\017\375\371\311Ou\004\272\2517\277\224pv&\2622\263"
 200      4F7504BA 
 200      A937BF94 
 200      707626B2 
 200      32B3
 201 0114 A01A8AE0 		.ascii	"\240\032\212\340\223\032?\343\032\237\322x\012\313)"
 201      931A3FE3 
 201      1A9FD278 
 201      0ACB29
 202 0123 3801794E 		.ascii	"8\001yN\236\0036\260\244\037\203#\220\225>\255\361C"
 202      9E0336B0 
 202      A41F8323 
 202      90953EAD 
 202      F143
 203 0135 2C0752F7 		.ascii	",\007R\367\301\036\330\225n\202\014HK\337\001I\260\015"
 203      C11ED895 
 203      6E820C48 
 203      4BDF0149 
 203      B00D
 204 0147 12600BC4 		.ascii	"\022`\013\304\271\346\376\2610\373\005\030\031\2644"
 204      B9E6FEB1 
 204      30FB0518 
 204      19B434
 205              		.text
 206              		.section	.gnu.lto_u8x8_d_pcd8544_84x48_powersave0_seq.bf14d81c,"",%progbits
 207 0000 789C2DCB 		.ascii	"x\234-\313\315\012\001Q\030\306\361\363\316 \241\261"
 207      CD0A0151 
 207      18C6F1F3 
 207      CE20A1B1 
 208 0010 52D42CDC 		.ascii	"R\324,\334\002\253\271,\227`1S.@M\311BQc|\016\312\302"
 208      02ABB92C 
 208      97603153 
 208      2E404DC9 
 208      4251637C 
 209 0027 4A8A522C 		.ascii	"J\212R,,g\247f\224\025a\312b|=\323\353\324\3239\277"
 209      2C67A766 
 209      941561CA 
 209      627C3DD3 
 209      EBD4D339 
ARM GAS  C:\Users\info\AppData\Local\Temp\ccvtqJAE.s 			page 16


 210 003c FE9D9820 		.ascii	"\376\235\230 \021\235\007\306/!\336\022\215\015\337"
 210      119D07C6 
 210      2F21DE12 
 210      8D0DDF
 211 004b 4E069221 		.ascii	"N\006\222!\013\372\022\354\207\303\205\022\231(\001"
 211      0BFA12EC 
 211      87C38512 
 211      992801
 212 005a 06E6CECD 		.ascii	"\006\346\316\315r.\200\333\316\342\225\341\032\007\303"
 212      722E80DB 
 212      CEE295E1 
 212      1A07C3
 213 0069 73DD25AE 		.ascii	"s\335%\256\031\360\240;M\231k\014\364\254\217\231\340"
 213      19F0A03B 
 213      4D996B0C 
 213      F4AC8F99 
 213      E0
 214 007a 9A035777 		.ascii	"\232\003Ww\307\372\377\225\301\333\276\341)\\\213\340"
 214      C7FAFF95 
 214      C1DBBEE1 
 214      295C8BE0 
 215 008a FAFB5C66 		.ascii	"\372\373\\f\271J\340E?\035\323\\\363\340\354\272i\247"
 215      B94AE045 
 215      3F1DD35C 
 215      F3E0ECBA 
 215      69A7
 216 009c B479B5D6 		.ascii	"\264y\265\326\252V\014Y\242\222J\023R\251\254\322\020"
 216      AA560C59 
 216      A2924A13 
 216      52A9ACD2 
 216      10
 217 00ad 97838DB1 		.ascii	"\227\203\215\261\021\261\007X\037\353a6\326\305,R\005"
 217      11B10758 
 217      1FEB6136 
 217      D6C52C52 
 217      05
 218 00be 4D49133F 		.ascii	"MI\023?C\272S\362"
 218      43BA53F2 
 219              		.text
 220              		.section	.gnu.lto_u8x8_d_pcd8544_84x48_powersave1_seq.bf14d81c,"",%progbits
 221 0000 789C2DCC 		.ascii	"x\234-\314?k\302@\030\307\361{\356\374\007\0253\011"
 221      3F6BC240 
 221      18C7F17B 
 221      EEFC0715 
 221      3309
 222 0012 166E50F0 		.ascii	"\026nP\360\015\330.\276\274\014\011H'\027\011H\007)"
 222      0DD82EBE 
 222      BC0C0948 
 222      27170948 
 222      0729
 223 0024 42AAD69A 		.ascii	"B\252\326\232\376\241C\332\241\010\016\025\035\034\273"
 223      FEA143DA 
 223      A1080E15 
 223      1D1CBB
 224 0033 15121D1C 		.ascii	"\025\022\035\034\012\225@\204\266\352/<\011|\271|\370"
 224      0A954084 
 224      B6EA2F3C 
ARM GAS  C:\Users\info\AppData\Local\Temp\ccvtqJAE.s 			page 17


 224      097CB97C 
 224      F8
 225 0044 1D971124 		.ascii	"\035\227\021$\222\257\206\203\377\204\370\2274\261\303"
 225      92AF8683 
 225      FF84F897 
 225      34B1C3
 226 0053 412192B6 		.ascii	"A!\222\266\022t$8r\026\237\006\373<\341\225\035\253"
 226      12742438 
 226      72169F06 
 226      FB3CE195 
 226      1DAB
 227 0065 84447970 		.ascii	"\204Dyp\377\266\272\221\274\326\301\360w\354\227x\315"
 227      FFB6BA91 
 227      BCD6C1F0 
 227      77EC9778 
 227      CD
 228 0076 81817B70 		.ascii	"\201\201{pr\274\226\301\217\276\377W\3445\013v_\243"
 228      72BC96C1 
 228      8FBEFF57 
 228      E4350B76 
 228      5FA3
 229 0088 7996D702 		.ascii	"y\226\327\002\270\262\274\353\364\345\0148\335ynzY\201"
 229      B8B2BCEB 
 229      F4E50C38 
 229      DD796E7A 
 229      5981
 230 009a 3FCB6E50 		.ascii	"?\313nP\342\313Upv\214\337\015^%\370m\255\277\316x\255"
 230      E2CB5570 
 230      768CDF0D 
 230      5E25F86D 
 230      ADBFCE78 
 231 00af 809DE576 		.ascii	"\200\235\345v#\233/f\253g\266\225\255$54=\221\246\013"
 231      239B2F66 
 231      AB67B695 
 231      AD243534 
 231      3D91A60B 
 232 00c3 4D77381E 		.ascii	"Mw8\036\321\003\362\210=A\367h\234z\204\206h\200n\321"
 232      D103F288 
 232      3D41F768 
 232      9C7A8486 
 232      68806ED1 
 233 00d7 A52697B4 		.ascii	"\245&\227\264\240gj\212\023\371\350a2"
 233      A0676A8A 
 233      13F9E861 
 233      32
 234              		.text
 235              		.section	.gnu.lto_.symbol_nodes.bf14d81c,"",%progbits
 236 0000 789C55CB 		.ascii	"x\234U\313;\016\3020\020E\321k;\316\267\243@\224\260"
 236      3B0EC230 
 236      1045D16B 
 236      3BCEB7A3 
 236      4094B0
 237 0013 1C56352E 		.ascii	"\034V5.\"!\245\000\304\002\240\361\"\200:\242\244\243"
 237      2221A500 
 237      C402A0F1 
 237      22803AA2 
 237      A4A3
ARM GAS  C:\Users\info\AppData\Local\Temp\ccvtqJAE.s 			page 18


 238 0025 A38C946D 		.ascii	"\243\214\224m\220\330)putGo2\024\033\005\350L\340\374"
 238      90D82970 
 238      7574476F 
 238      32141B05 
 238      E84CE0FC 
 239 0039 8689A7DB 		.ascii	"\206\211\247\333\2015\306\255\300XtT\251\250&\250jQ"
 239      8135C6AD 
 239      C0587454 
 239      A9A826A8 
 239      6A51
 240 004b E1019CDB 		.ascii	"\341\001\234\333\202jD']\211I\272\224,\351Bl\322\271"
 240      826A4427 
 240      5D8949BA 
 240      942CE942 
 240      6CD2B9
 241 005e E4495B29 		.ascii	"\344I[)\376\333\3200\334\327\206\032\377\230\250\350"
 241      FEDBD030 
 241      DCD7861A 
 241      FF98A8E8 
 242 006e 23FEF551 		.ascii	"#\376\365Q!\203%\355a\324\206\002\277\330v\263\026\037"
 242      218325ED 
 242      61D48602 
 242      BFD876B3 
 242      161F
 243 0080 2C19BA78 		.ascii	",\031\272x\037\216\313\356\264\354.\2639\355\365\273"
 243      1F8ECBEE 
 243      B4EC2EB3 
 243      39EDF5BB 
 244 0090 9FF7FD6D 		.ascii	"\237\367\375m\324\374\000\371\260;\004"
 244      D4FC00F9 
 244      B03B04
 245              		.text
 246              		.section	.gnu.lto_.refs.bf14d81c,"",%progbits
 247 0000 789C6361 		.ascii	"x\234ca`d\340g```a`bdfbbcb\346db\341b\000\000\002\363"
 247      6064E067 
 247      60606061 
 247      60626466 
 247      62626362 
 248 001d 0047     		.ascii	"\000G"
 249              		.text
 250              		.section	.gnu.lto_.decls.bf14d81c,"",%progbits
 251 0000 789CBD59 		.ascii	"x\234\275YyP\024Y\232\257\227\257\200\242(A\201\356"
 251      79501459 
 251      9AAF97AF 
 251      80A22841 
 251      81EE
 252 0012 3526D86D 		.ascii	"5&\330m\267\265\225\211\230\261\305v&\210\375c\2437"
 252      B7B59589 
 252      98B1C576 
 252      2688FD63 
 252      A337
 253 0024 66776763 		.ascii	"fwgc\377\230\355\215\236\356\330\211 \242\246(\012\255"
 253      FF98ED8D 
 253      9EEED889 
 253      20A2A628 
 253      0AAD
 254 0036 19286AA8 		.ascii	"\031(j\250\302+:&\222C\244Q\021\224\033l\025<@PQ\021"
ARM GAS  C:\Users\info\AppData\Local\Temp\ccvtqJAE.s 			page 19


 254      C22B3A26 
 254      9243A451 
 254      11941B6C 
 254      153C4050 
 255 004c 4440AA3D 		.ascii	"D@\252=\000\017\020Ql\025\004Z<h\221C\016QA\331\357"
 255      000F1051 
 255      6C15045A 
 255      3C689143 
 255      0E5141D9 
 256 0061 BD975999 		.ascii	"\275\227Y\231\211Y\335\377\354l\205?3\277\367~\371]"
 256      8959DDFF 
 256      EC6C853F 
 256      33BFF77E 
 256      F95D
 257 0073 EFFA32D1 		.ascii	"\357\3722\321j\220\206\374~\373\201FS\352\245\321\304"
 257      6A9086FC 
 257      7EFB8146 
 257      53EAA5D1 
 257      C4
 258 0084 701ACD1C 		.ascii	"p\032\315\034\374\274\241\355K\000\271\036\007\324\001"
 258      FCBCA1ED 
 258      4B00B91E 
 258      07D401
 259 0093 5C801680 		.ascii	"\\\200\026\200\001\036\011\321\260\237\016\3609\310"
 259      011E09D1 
 259      B09F0EF0 
 259      39C8
 260 00a1 7F009800 		.ascii	"\177\000\230\000k\001\177\002\304\001\034\200\215\000"
 260      6B017F02 
 260      C4011C80 
 260      8D00
 261 00af 2D7036C3 		.ascii	"-p6\303\365+\300_\001<\322(~\344\371\177\024\354\004"
 261      F52BC05F 
 261      013CD228 
 261      7EE4F97F 
 261      14EC04
 262 00c2 02820161 		.ascii	"\002\202\001a\320\366\005\\#\004[\237\001\376K\360)"
 262      D0F6055C 
 262      23045B9F 
 262      01FE4BF0 
 262      29
 263 00d3 11311FFC 		.ascii	"\0211\037\374\000\033\000I\200x@2b\3765\003l\210\371"
 263      001B0049 
 263      80784032 
 263      62FE3503 
 263      6C88F9
 264 00e6 DB24F87E 		.ascii	"\333$\370~\006\220\002m\377\003\330\002\210\006\344"
 264      0690026D 
 264      FF03D802 
 264      8806E4
 265 00f5 00B201AB 		.ascii	"\000\262\001\253\001\271\200?\002 \005\232\035p\375"
 265      01B9803F 
 265      0220059A 
 265      1D70FD
 266 0104 67C04E40 		.ascii	"g\300N@& \003Iqn\024\342\212\023\342\\+\213]\017\234"
 266      26200349 
 266      716E14E2 
ARM GAS  C:\Users\info\AppData\Local\Temp\ccvtqJAE.s 			page 20


 266      8A13E25C 
 266      2B8B5D0F 
 267 0119 3CB8E603 		.ascii	"<\270\346\003\012\000\205\200\"@\261\020\363_\205\034"
 267      0A008580 
 267      2240B110 
 267      F35F851C 
 268 0129 6C9E173F 		.ascii	"l\236\027?/\344h\271\206\305\272B\303b\013\202\353k"
 268      2FE468B9 
 268      86C5BA42 
 268      C3620B82 
 268      EB6B
 269 013b C034600A 		.ascii	"\3004`\0120\003\230\005xA\337\004\\_\000\346\000\034"
 269      30039805 
 269      7841DF04 
 269      5C5F00E6 
 269      001C
 270 014d D1077803 		.ascii	"\321\007x\003\027\014W\037\300$\334\277\005\274\"] "
 270      170C571F 
 270      C024DCBF 
 270      05BC225D 
 270      20
 271 015e 7BCFB329 		.ascii	"{\317\263)\376\210OX\260\033,\344\316\323\357\253y\334"
 271      FE884F58 
 271      B01B2CE4 
 271      CED3EFAB 
 271      79DC
 272 0170 A61FE16E 		.ascii	"\246\037\341n\236\307=\363#\3347\034:\276\345a\271n"
 272      9EC73DF3 
 272      23DC371C 
 272      3ABEE561 
 272      B96E
 273 0182 9243217A 		.ascii	"\222C!z4\207\210\374\254\356\325\002&\223\356\276We"
 273      348788FC 
 273      ACEED502 
 273      2693EEBE 
 273      5765
 274 0194 FFBEB292 		.ascii	"\377\276\262\222\207_&\317s\234\364\\\265k\342\250\026"
 274      875F26CF 
 274      739CF45C 
 274      B56BE2A8 
 274      16
 275 01a5 FB111277 		.ascii	"\373\021\022w\343\324\335K\276(T\177\210\360\372\273"
 275      E3D4DD4B 
 275      BE28547F 
 275      88F0FABB 
 276 01b5 27FF2599 		.ascii	"'\377%\231\347\021\252Dzt\004aT\216V\222T\204\220AJ"
 276      E711AA44 
 276      7A740461 
 276      548E5692 
 276      54849041 
 277 01ca E3F9247E 		.ascii	"\343\371$~\254\204\367^\254A\237\204\240U!\032T\201"
 277      AC84F75E 
 277      AC419F84 
 277      A055211A 
 277      5481
 278 01dc 428931C2 		.ascii	"B\2111\302Be(\004\035F!D\177\371\336\262\213\013p>\242"
 278      42652804 
ARM GAS  C:\Users\info\AppData\Local\Temp\ccvtqJAE.s 			page 21


 278      1D462144 
 278      7FF9DEB2 
 278      8B0B703E 
 279 01f1 0686B387 		.ascii	"\006\206\263\207\322\260\333@\326\266\220\012\236_\210"
 279      D2B0DB40 
 279      D6B6900A 
 279      9E5F88
 280 0200 8E8381A3 		.ascii	"\216\203\201\243\222\001\260\247n\341\230\212\005\362"
 280      9201B0A7 
 280      6EE1988A 
 280      05F2
 281 020e 3058B991 		.ascii	"0X\271\221RU\214!\332@=\322\202\370\274\255p\300\037"
 281      52558C21 
 281      DA403DD2 
 281      82F8BCAD 
 281      70C01F
 282 0221 C4603D5A 		.ascii	"\304`=Z\002ba\375\344\025/\326\253\003\361\362\370\335"
 282      026261FD 
 282      E4152FD6 
 282      AB03F1F2 
 282      F8DD
 283 0233 F605FA34 		.ascii	"\366\005\3724\232\214d>\260\325\237t\234\000\205U\240"
 283      9A8C643E 
 283      B0D59F74 
 283      9C008555 
 283      A0
 284 0244 50834E11 		.ascii	"P\203N\021\373\350\343\020t\222EPQs\360,bO\373\202\270"
 284      FBE8E310 
 284      74924550 
 284      5173F02C 
 284      624FFB82 
 285 0259 EDD2E966 		.ascii	"\355\322\351f\314t\267\222\356\244\327{\257\004\004"
 285      CC74B792 
 285      EEA4D77B 
 285      AF0404
 286 0268 660AA9FD 		.ascii	"f\012\251\375\024\321pN\203\266j\252\255\006\005\212"
 286      14D1704E 
 286      83B66AAA 
 286      AD06058A 
 287 0278 3A097B4F 		.ascii	":\011{O\327\203L_\275\020\\\346O\004\007\374\334\362"
 287      D7834C5F 
 287      BD105CE6 
 287      4F0407FC 
 287      DCF2
 288 028a D156AD5C 		.ascii	"\321V\255\\{\355\217i\337\266{\246\321`H'\332\205\310"
 288      7BED8F69 
 288      DFB67BA6 
 288      D1604827 
 288      DA85C8
 289 029d CEA04059 		.ascii	"\316\240@Yhu\310@\206\235\\\201\375p\346\350Y\177\026"
 289      6875C840 
 289      869D5C81 
 289      FD70E6E8 
 289      597F16
 290 02b0 983788A3 		.ascii	"\2307\210\243\003\323\017t\236\323R/\246\345,\363l2"
 290      03D30F74 
 290      9ED3522F 
ARM GAS  C:\Users\info\AppData\Local\Temp\ccvtqJAE.s 			page 22


 290      A6E52CF3 
 290      6C32
 291 02c2 7DCBB490 		.ascii	"}\313\264\220r\037\020\313\036\027g\030XZ\302At\215"
 291      721F10CB 
 291      1E176718 
 291      585AC241 
 291      748D
 292 02d4 F2D3EF64 		.ascii	"\362\323\357d\245\021\2245Pe\347\250\337\365\242\337"
 292      A5119435 
 292      5065E7A8 
 292      DFF5A2DF 
 293 02e4 474B92AF 		.ascii	"GK\222\257p\363\243\364\310>[\334\322\343\245\210\262"
 293      70F3A3F4 
 293      C83E5BDC 
 293      D2E3A588 
 293      B2
 294 02f5 4911A54B 		.ascii	"I\021\245K\210\322E\243\354\034\273\266\307\217\371"
 294      88D245A3 
 294      EC1CBBB6 
 294      C78FF9
 295 0304 B990CC05 		.ascii	"\271\220\314\005>\365\030\366\034\345y1\312oY\224i-"
 295      3EF518F6 
 295      1CE57931 
 295      CA6F5994 
 295      692D
 296 0316 BD5DC2E0 		.ascii	"\275]\302\340/\002\261\262\255\245G\030\3744\262\312"
 296      2F02B1B2 
 296      ADA54718 
 296      FC34B2CA 
 297 0326 A6A68FEF 		.ascii	"\246\246\217\357X0?\314\213\240\355\002\325v\211:~^"
 297      58303FCC 
 297      8BA0ED02 
 297      D576893A 
 297      7E5E
 298 0338 74BCABBC 		.ascii	"t\274\253\274i\3220?L\217\354\304\207So\225a6+\302l"
 298      69D2303F 
 298      4C8FECC4 
 298      87536F95 
 298      61362BC2 
 299 034d 11C26CA1 		.ascii	"\021\302l\241a\326\32764{1\317V\201xin\332\025\300\374"
 299      61D6D736 
 299      347B31CF 
 299      56817869 
 299      6EDA15C0 
 300 0362 E6644908 		.ascii	"\346dI\010fI\330~\263\346\023\234\307\321\235\341\340"
 300      6649D87E 
 300      B3E6139C 
 300      C7D19DE1 
 300      E0
 301 0373 EB993112 		.ascii	"\353\2311\022\322r\3308\346\260l\347X\316v\216\246\253"
 301      D272D838 
 301      E6B06CE7 
 301      58CE768E 
 301      A6AB
 302 0385 970F1970 		.ascii	"\227\017\031p)%s\007\\I[\020\322\207\322\011\314'\363"
 302      29257307 
 302      5C495B10 
ARM GAS  C:\Users\info\AppData\Local\Temp\ccvtqJAE.s 			page 23


 302      D287D209 
 302      CC27F3
 303 0398 FA327F0D 		.ascii	"\3722\177\015\272\002.]&k\261\003\346\360ra\016\267"
 303      BA022E5D 
 303      266BB103 
 303      E6F07261 
 303      0EB7
 304 03aa 41E33568 		.ascii	"A\3435h\024\366\222g\377I\367\222\353\020p\273\264\324"
 304      14F69267 
 304      FF49F792 
 304      EB1070BB 
 304      B4D4
 305 03bc 970BA19E 		.ascii	"\227\013\241\236\313\352~\254\307\307\230\215\362\261"
 305      CBEA7EAC 
 305      C7C7988D 
 305      F2B1
 306 03ca 6B95011E 		.ascii	"k\225\001\036m\334\364h#k\333\362J\262\235t\202\215"
 306      6DDCF468 
 306      236BDBF2 
 306      4AB29D74 
 306      828D
 307 03dc 1B928DEB 		.ascii	"\033\222\215\353b>GR\036\365\0139XL\206\262\353\316"
 307      623E4752 
 307      1EF50B39 
 307      584C86B2 
 307      EBCE
 308 03ee 1B846B59 		.ascii	"\033\204kY\022\332\336\216\235\303\3702\023\216\366"
 308      12DADE8E 
 308      9DC3F832 
 308      138EF6
 309 03fd A7DEF4C2 		.ascii	"\247\336\364\302\367\230phv\177\265\001?fB\363tc\251"
 309      F7987068 
 309      767FB501 
 309      3F6642F3 
 309      7463A9
 310 0410 177ECE84 		.ascii	"\027~\316\204\364mG\366\373\343TL\205\242\211\373?\370"
 310      F46D47F6 
 310      FBE3544C 
 310      85A289FB 
 310      3FF8
 311 0422 32E5A120 		.ascii	"2\345\241 n\331^\321\200q\001\353\353\350;9\345\215"
 311      6ED95ED1 
 311      807101EB 
 311      EBE83B39 
 311      E58D
 312 0434 8F31A1AF 		.ascii	"\2171\241\2577\353O\270\226\335\337o-\257 \251_AR?7"
 312      37EB4FB8 
 312      96DDDF6F 
 312      2DAF20A9 
 312      5F41523F 
 313 0449 17204BFE 		.ascii	"\027 K\376\012\226\374\316\235\343\007|\360EJ\347\232"
 313      0A96FCCE 
 313      9DE3077C 
 313      F0454AE7 
 313      9A
 314 045a 779C3AE9 		.ascii	"w\234:\351'm\317\007\014u$\334\001\010\367{)\334\025"
 314      276DCF07 
ARM GAS  C:\Users\info\AppData\Local\Temp\ccvtqJAE.s 			page 24


 314      0C7524DC 
 314      0108F77B 
 314      29DC15
 315 046d EECD934D 		.ascii	"\356\315\223M\032\215{\306\240\007\220\272\025B\352"
 315      1A8D7BC6 
 315      A00790BA 
 315      1542EA
 316 047c FAA1B14F 		.ascii	"\372\241\261O\330\241\017d\225x\343\353\314FA\365\221"
 316      D8A10F64 
 316      9578E3EB 
 316      CC4641F5 
 316      91
 317 048d 69BD6C87 		.ascii	"i\275l\207^CS\372\030l<\224l\014 \317F\036\251\033\031"
 317      5E4353FA 
 317      186C3C94 
 317      6C0C20CF 
 317      461EA91B 
 318 04a2 BAD599E5 		.ascii	"\272\325\231\345\205\357\260\270\337\234\334Z\257\305"
 318      85EFB0B8 
 318      DF9CDC5A 
 318      AFC5
 319 04b0 434C78D2 		.ascii	"CLx\322\372j\322\017\277a\302\353\363Iu\010gj\251Ps"
 319      FA6AD20F 
 319      BF61C2EB 
 319      F3497508 
 319      676AA950 
 320 04c5 FED5352F 		.ascii	"\376\3255/|\220\011#I\025\007\020>\307\204\216\234\341"
 320      7C900923 
 320      49150710 
 320      3EC7848E 
 320      9CE1
 321 04d7 5C0E7FC7 		.ascii	"\\\016\177\307\204\331\231\335\211^\370)\023\232z\006"
 321      84D999DD 
 321      895EF829 
 321      139A7A06 
 322 04e7 2BFDF0AC 		.ascii	"+\375\360\254\360\2140\342\201l\304\253\032R\206\205"
 322      F08C30E2 
 322      816CC4AB 
 322      1A528685 
 323 04f7 53C14516 		.ascii	"S\301E\026o\331\216\261\013z\234\343E\270\357%6\265"
 323      6FD98EB1 
 323      0B7A9CE3 
 323      45B8EF25 
 323      36B5
 324 0509 B5F8A065 		.ascii	"\265\370\240e\344\027\264L\372\205\002JH\240\3759C\366"
 324      E417B44C 
 324      FA85024A 
 324      48A0FD39 
 324      43F6
 325 051b C69A1E9E 		.ascii	"\306\232\036\236O5\320E>\010\351x\211\202\304\355\373"
 325      4F35D045 
 325      3E08E978 
 325      8982C4ED 
 325      FB
 326 052c 63B2225B 		.ascii	"c\262\"[\311\272\324P\272\253\241\323\217\257\372#\245"
 326      C9BAD450 
 326      BAABA1D3 
ARM GAS  C:\Users\info\AppData\Local\Temp\ccvtqJAE.s 			page 25


 326      8FAFFA23 
 326      A5
 327 053d 7EA7A47E 		.ascii	"~\247\244~KW\357'\0225\377\272\233\372LE\353\025\231"
 327      4B57EF27 
 327      1235FFBA 
 327      9BFA4C45 
 327      EB1599
 328 0550 D65B12F5 		.ascii	"\326[\022\365\211\012\265QF\315\226\250\303*Tj?K\330"
 328      890AB551 
 328      46CD96A8 
 328      C32A546A 
 328      3F4BD8
 329 0563 8A78E4D4 		.ascii	"\212x\344\324\240\3470Zcd\010G\005:\214!J\341B\321k"
 329      A0E7305A 
 329      63640847 
 329      053A8C21 
 329      4AE142D1 
 330 0578 B40C4D03 		.ascii	"\264\014M\003\246\0003\200Y\300\026n\031\232\200\353"
 330      A6003380 
 330      59C0166E 
 330      199A80EB 
 331 0588 0BC01C20 		.ascii	"\013\300\034 \011d\036\360\006\356\223\341\272\0250"
 331      09641EF0 
 331      06EE93E1 
 331      BA1530
 332 0597 09F76F01 		.ascii	"\011\367o\001\257\000\211 \247r\313h\325\301\374\353"
 332      AF008920 
 332      A772CB68 
 332      D5C1FCEB 
 333 05a7 9412D4A5 		.ascii	"\224\022\324\245\226\240[\262XvI\261\214\250\304\022"
 333      96A05BB2 
 333      587649B1 
 333      8CA8C412 
 334 05b7 26310B25 		.ascii	"&1\013%\346\220\012S\256\264X\242>U\241\236\220Q\253"
 334      E6900A53 
 334      AEB458A2 
 334      3E55A19E 
 334      9051AB
 335 05ca 245FEF29 		.ascii	"$_\357)\251'\321\374\201\357\220\270\267\325\342\222"
 335      A927D1FC 
 335      81EF90B8 
 335      B7D5E292 
 336 05da 0F67F74E 		.ascii	"\017g\367N\377\002\336\225\202\351\002\353\025\330\356"
 336      FF02DE95 
 336      82E902EB 
 336      15D8EE
 337 05e9 A5C474CB 		.ascii	"\245\304t\313\202\313\351\\\220\307\273\0221U\336\243"
 337      82CBE95C 
 337      90C7BB12 
 337      3155DEA3 
 338 05f9 E648B74C 		.ascii	"\346H\267L\371\304.\377|\336\225\204\351\206xU`\273"
 338      F9C42EFF 
 338      7CDE9584 
 338      E9867855 
 338      60BB
 339 060b F751E68C 		.ascii	"\367Q\346\214<\310\271\3532\355\367\325\264\313\331"
 339      3CC8B9EB 
ARM GAS  C:\Users\info\AppData\Local\Temp\ccvtqJAE.s 			page 26


 339      32EDF7D5 
 339      B4CBD9
 340 061a D5529877 		.ascii	"\325R\230w\325\270l*\322m\3045\223a\340y\035\341h\204"
 340      D5B86C2A 
 340      D26DC435 
 340      9361E079 
 340      1DE16884 
 341 062e 2D449A06 		.ascii	"-D\232\006{\345V\177P\031\007yHS\362\220\306\325C\222"
 341      7BE5567F 
 341      50190779 
 341      4853F290 
 341      C6D54392 
 342 0642 8F45BD3C 		.ascii	"\217E\275<aw\324F\203f\027\366\202\273;\213\012\002"
 342      6177D446 
 342      836617F6 
 342      82BB3B8B 
 342      0A02
 343 0654 702DDD0B 		.ascii	"p-\335\013\270\266\207\205M\376((T}y\244\303\222\370"
 343      B8B68785 
 343      4DFE2828 
 343      547D79A4 
 343      C392F8
 344 0667 5B2E0F96 		.ascii	"[.\017\226\263\202\366_\220\234}\315\005\2414\316\275"
 344      B382F65F 
 344      909C7DCD 
 344      05A134CE 
 344      BD
 345 0678 F3921452 		.ascii	"\363\222\024R\177\367\227\035\336\201\202\004\007]\036"
 345      7FF7971D 
 345      DE818204 
 345      075D1E
 346 0687 1DD4FC9F 		.ascii	"\035\324\374\237{\007\266S\323'\022\221\2420\331\306"
 346      7B07B653 
 346      D3271291 
 346      A230D9C6 
 347 0697 05C90A93 		.ascii	"\005\311\012\223\355\034+L\340\012\3543\351\371/\002"
 347      ED1C2B4C 
 347      E00AEC33 
 347      E9F92F02 
 348 06a7 BA6192C0 		.ascii	"\272a\222\300\251)\274B!\304\376G\024\032\006*\302\015"
 348      A929BC42 
 348      21C4FE47 
 348      141A062A 
 348      C20D
 349 06b9 47FFD7B8 		.ascii	"G\377\327\270\233\334\027\215\233\"\334J\312\350?\361"
 349      9BDC178D 
 349      9B22DC4A 
 349      CAE83FF1 
 350 06c9 3A27FED8 		.ascii	":'\376\330K\235[;\022\036Bn\017\204{\332\317I\006\020"
 350      4B9D5B3B 
 350      121E426E 
 350      0F847BDA 
 350      CF490610 
 351 06dd 13C50764 		.ascii	"\023\305\007d\372\230\2732\237\2202&$\246(\347lK\253"
 351      FA98BB32 
 351      9F903226 
 351      24A628E7 
ARM GAS  C:\Users\info\AppData\Local\Temp\ccvtqJAE.s 			page 27


 351      6C4BAB
 352 06f0 0E5FA5D3 		.ascii	"\016_\245\323\011\035\253\234\251\322k\341\235\013}"
 352      091DAB9C 
 352      A9D26BE1 
 352      9D0B7D
 353 06ff 6140915A 		.ascii	"a@\221Z\322\324\235z\370\252\037m\"3s'G\033\273\356"
 353      D2D49D7A 
 353      F8AA1F6D 
 353      22337327 
 353      471BBBEE 
 354 0713 F476F9BA 		.ascii	"\364v\371\272\0333Y\243XX\004\262\302\202\037L\331\313"
 354      1B3359A3 
 354      585804B2 
 354      C2821F4C 
 354      D9CB
 355 0725 E17EA6B8 		.ascii	"\341~\246\270i0\253I\207G\231\320qx\370;\177\274\325"
 355      6930AB49 
 355      874799D0 
 355      7178F83B 
 355      7FBCD5
 356 0738 9B0A83FB 		.ascii	"\233\012\203\373\232N\352p\011\023\304\267\241@\366"
 356      9A4EEA70 
 356      0913C4B7 
 356      A140F6
 357 0747 3694E3DA 		.ascii	"6\224\343\3325\013\305\026\353\273\\\367`\025\256c\367"
 357      350BC516 
 357      EBBB5CF7 
 357      6015AE63 
 357      F7
 358 0758 2FAEDEBA 		.ascii	"/\256\336\272\217q+\023v\236o\274\240\303\267\230\320"
 358      8F712B13 
 358      769E6FBC 
 358      A0C3B798 
 358      D0
 359 0769 DC73AF4B 		.ascii	"\334s\257K\213\373\231\220\330x\341\324\002<\305\204"
 359      8BFB9990 
 359      D878E1D4 
 359      023CC584 
 360 0779 37A74E5D 		.ascii	"7\247N]@\370-\023\036\247\227?7\340\255>T\370\241\247"
 360      40F82D13 
 360      1EA7973F 
 360      37E0AD3E 
 360      54F8A1A7 
 361 078d 7656F92E 		.ascii	"vV\371.B\252]i\226\354c\263\004\230)OK\341\204\332\316"
 361      42AA5D69 
 361      96EC63B3 
 361      0498294F 
 361      4BE184DA 
 362 07a2 1E7B7062 		.ascii	"\036{pb\372\231\016\3472a\353\334\375\213:\\\306\204"
 362      FA990EE7 
 362      3261EBDC 
 362      FD8B3A5C 
 362      C684
 363 07b4 94C33B8A 		.ascii	"\224\303;\212\026\340j&d\024\214\327\373\340\006&\334"
 363      16E06A26 
 363      64148CD7 
 363      FBE00626 
ARM GAS  C:\Users\info\AppData\Local\Temp\ccvtqJAE.s 			page 28


 363      DC
 364 07c5 74ED2BF2 		.ascii	"t\355+\362\305\027\2300P=}"
 364      C5179830 
 364      503D7D
 365 07d0 60016E67 		.ascii	"`\001ng\302\367\243\215\005>\356\224\262\334\237\356"
 365      C2F7A38D 
 365      053EEE94 
 365      B2DC9FEE 
 366 07e0 DCDBE783 		.ascii	"\334\333\347\203o3\302\353\3533g\021\036`\302\364\321"
 366      6F33C2EB 
 366      EB336711 
 366      1E60C2F4 
 366      D1
 367 07f1 273D5E78 		.ascii	"'=^x\214\011bA\035\310\012\352\352\306\347\007\205\002"
 367      8C096241 
 367      1DC80AEA 
 367      EAC6E707 
 367      8502
 368 0803 8F2755F2 		.ascii	"\217'U\362\340\243\242f=\236e\334\246\233\307\257\005"
 368      E0A3A266 
 368      3D9E65DC 
 368      A69BC7AF 
 368      05
 369 0814 E04C1D11 		.ascii	"\340L\035\021\226\036\031y\265\027^C\015A\212B\002~"
 369      961E1979 
 369      B5175E43 
 369      0D418A42 
 369      027E
 370 0826 06C3626D 		.ascii	"\006\303bm\250p\023\272,4\224\270u\2023\2402\030iy\236"
 370      A87013BA 
 370      2C3494B8 
 370      758233A0 
 370      32186979 
 371 083b 4E2A56D3 		.ascii	"N*V\323\011\226'\305^t\224\013A\225\034,\365NX\352\325"
 371      099627C5 
 371      5E74940B 
 371      41951C2C 
 371      F54E58EA 
 372 0850 1CDB8B6E 		.ascii	"\034\333\213n\300}\007\254\324\253\200+\200\313\200"
 372      C07D07AC 
 372      D4AB802B 
 372      80CB80
 373 085f 56C079C0 		.ascii	"V\300y\300\267\000\027\240\011p\016\320\010h\000\324"
 373      B70017A0 
 373      09700ED0 
 373      086800D4 
 374 086f 03CE02EA 		.ascii	"\003\316\002\352\000g\000\265\200\032\300i\300)\305"
 374      006700B5 
 374      801AC069 
 374      C029C5
 375 087e 713D735B 		.ascii	"q=s[\266\225\036\203\035\211\230\025\266\322]\234t:"
 375      B6951E83 
 375      1D899815 
 375      B6D25D9C 
 375      743A
 376 0890 A8FB5921 		.ascii	"\250\373Y!<\360\267\367\363\345m\367\271\264[\315Ky"
 376      3CF0B7F7 
ARM GAS  C:\Users\info\AppData\Local\Temp\ccvtqJAE.s 			page 29


 376      F3E56DF7 
 376      B9B45BCD 
 376      4B79
 377 08a2 05F042E2 		.ascii	"\005\360B\342f\253q\345G\365\244\304\315Q\343\312\352"
 377      66AB71E5 
 377      47F5A4C4 
 377      CD51E3CA 
 377      EA
 378 08b3 B971899A 		.ascii	"\271q\211\232\253F\225\235\350c\0225_I\315\343\346\027"
 378      AB46959D 
 378      E8631235 
 378      5F49CDE3 
 378      E617
 379 08c5 74BD12B7 		.ascii	"t\275\022\267@\215+?\370z$n\241\032W~\250\336\226\270"
 379      408D2B3F 
 379      F87A246E 
 379      A11A577E 
 379      A8DE96B8 
 380 08d9 456A5CF9 		.ascii	"Ej\\\371\251\177K\342\026\253q\345\331\355\224\270{"
 380      A97F4BE2 
 380      16AB71E5 
 380      D9ED94B8 
 380      7B
 381 08ea D4B8F2EC 		.ascii	"\324\270\362\354\336\310\225\035\354\337\010l\367\301"
 381      DEC8951D 
 381      ECDF086C 
 381      F7C1
 382 08f8 9E373F6D 		.ascii	"\2367?mM\271\357\261\272\0116\021\264W\240\273\353\246"
 382      4DB9EFB1 
 382      BA093611 
 382      B457A0BB 
 382      EBA6
 383 090a B1778A95 		.ascii	"\261w\212\225\306\\Y\235\265_\235/S_\177;\200\321/\200"
 383      C65C599D 
 383      B55F9D2F 
 383      535F7F3B 
 383      80D12F80 
 384 091e FA92F974 		.ascii	"\372\222\371ty\345$_\266\227\270\305\022\251\005&\371"
 384      79E5245F 
 384      B697B8C5 
 384      12A90526 
 384      F9
 385 092f 45789A9D 		.ascii	"Ex\232\235\333\236h\032\031'\227,\034x\335]\302\321"
 385      DB9E681A 
 385      1927972C 
 385      1C78DD5D 
 385      C2D1
 386 0941 9489C16B 		.ascii	"\224\211\301k\310\003\360\1773G>p\212[F\026H\254N\330"
 386      C803F07F 
 386      33473E70 
 386      8A5B4616 
 386      48AC4ED8 
 387 0955 DBFE1EA9 		.ascii	"\333\376\036\251\023\210\247\245R\235p\221n\032,\232"
 387      1388A7A5 
 387      529D7091 
 387      6E1A2C9A 
 388 0965 3A793407 		.ascii	":y4\007\324\243\221\005_s\333\300g\232(\371\340|\262"
ARM GAS  C:\Users\info\AppData\Local\Temp\ccvtqJAE.s 			page 30


 388      D4A39105 
 388      5F73DBC0 
 388      679A28F9 
 388      E07CB2
 389 0978 4A1928B1 		.ascii	"J\031(\261\017\251\263e\252O\345\0063O\256\001\375\360"
 389      0FA9B365 
 389      AA4FE506 
 389      334FAE01 
 389      FDF0
 390 098a 7CFAC7EA 		.ascii	"|\372\307\352im\227\247\365:\244\265M5\255\355\212\264"
 390      696D97A7 
 390      F53AA4B5 
 390      4D35ADED 
 390      8AB4
 391 099c B6A9A5B5 		.ascii	"\266\251\245\265S\221\326v\232\326*\232V\226\312\023"
 391      5391D676 
 391      9AD62A9A 
 391      5696CA13 
 392 09ac 19EF9354 		.ascii	"\031\357\223T\022\347\312\245T\266\311Ry\"\367\003\026"
 392      12E7CAA5 
 392      54B6C952 
 392      7922F703 
 392      16
 393 09bd 009436E8 		.ascii	"\000\2246\350\210j\000aR\331\273'\227\226\275\300\221"
 393      886A0061 
 393      52D9BB27 
 393      9796BDC0 
 393      91
 394 09ce 97BDAC2F 		.ascii	"\227\275\254//\343\037H\037\331\352\217K\266\010\225"
 394      2FE31F48 
 394      1FD9EA8F 
 394      4BB60895 
 395 09de 1E89056F 		.ascii	"\036\211\005o'\352\275?\334\307\357\253\342\373\373"
 395      27EABD3F 
 395      DCC7EFAB 
 395      E2FBFB
 396 09ed 4AACC527 		.ascii	"J\254\305'\037\362\274^K\347N\206D\207[r\331\301uC\031"
 396      1FF2BC5E 
 396      4BE74E86 
 396      44875B72 
 396      D9C17543 
 397 0a02 7293FB90 		.ascii	"r\223\373\220\234Z\271\003~\270\201\036D(\371P\177\207"
 397      9C5AB903 
 397      7EB8811E 
 397      4428F950 
 397      7F87
 398 0a14 17BEC184 		.ascii	"\027\276\301\204\334&Wq\000\234\204\250\213>\004-\245"
 398      DC265771 
 398      009C84A8 
 398      8B3E042D 
 398      A5
 399 0a25 55DB120D 		.ascii	"U\333\022\015ZqF\261\2631\355p_\215\377b\217S\361\016"
 399      5A7146B1 
 399      B331ED70 
 399      5F8DFF62 
 399      8F53F10E 
 400 0a39 CDD97734 		.ascii	"\315\331w4g\344$\035\316o\305\340e?\317\367g\017}VT"
ARM GAS  C:\Users\info\AppData\Local\Temp\ccvtqJAE.s 			page 31


 400      67E4241D 
 400      CE6FC5E0 
 400      653FCFF7 
 400      670F7D56 
 401 0a4e 9AEAEAE0 		.ascii	"\232\352\352\340\371\205\224\207n\211~\242\333\234\226"
 401      F9859487 
 401      6E897EA2 
 401      DB9C96
 402 0a5d 48AC4CBA 		.ascii	"H\254L\272K\335\334\275\177\242\227\303\367<\271\226"
 402      4BDDDCBD 
 402      7FA297C3 
 402      F73CB996 
 403 0a6d 3DD8E2AB 		.ascii	"=\330\342\253(\035\216+J\207\036w\351\220\327\360\365"
 403      281D8E2B 
 403      4A871E77 
 403      E990D7F0 
 403      F5
 404 0a7e 1D6F1A43 		.ascii	"\035o\032C\217;\206\207=\227'\2453\377>+\243\332\236"
 404      8F3B8687 
 404      3D9727A5 
 404      33FF3E2B 
 404      A3DA9E
 405 0a91 5DBBE6E3 		.ascii	"]\273\346\343\016\266\2275>\031HL\343<G\333O\243\355"
 405      0EB69735 
 405      3E19484C 
 405      E33C47DB 
 405      4FA3ED
 406 0aa4 13A3E54F 		.ascii	"\023\243\345OT\226\033X\264\256\261\350\002\376|\022"
 406      54961B58 
 406      B4AEB1E8 
 406      02FE7C12 
 407 0ab4 FF29E1A0 		.ascii	"\377)\341\240{\356H\273!\322{b\244\337\323Hwe\015\357"
 407      7BEE48BB 
 407      21D27B62 
 407      A4DFD348 
 407      77650DEF 
 408 0ac8 F2C5CF3C 		.ascii	"\362\305\317<E\252V\240\034\250-\272\214\334\276>d\276"
 408      45AA56A0 
 408      1CA82DBA 
 408      8CDCBE3E 
 408      64BE
 409 0ada D6DD4D6D 		.ascii	"\326\335Mm\322y\366\3651\365\365\221\350\353\353\241"
 409      D279F6F5 
 409      31F5F591 
 409      E8EBEBA1 
 410 0aea D12A7FC1 		.ascii	"\321*\177\301\327{\242\257\300A\017\334\276\016\200"
 410      D77BA2AF 
 410      C0410FDC 
 410      BE0E80
 411 0af9 AF0F445F 		.ascii	"\257\017D_\237P_3\022\317\\\322\3427\236|\275>x?R\320"
 411      9F505F33 
 411      12CF5CD2 
 411      E2379E7C 
 411      BD3E783F 
 412 0b0f 392EEA24 		.ascii	"9.\352$#=\350\326\371\003\350\034\024u>\245:\313R\\"
 412      233DE8D6 
 412      F903E81C 
ARM GAS  C:\Users\info\AppData\Local\Temp\ccvtqJAE.s 			page 32


 412      14753EA5 
 412      3ACB525C 
 413 0b23 E3BE38DB 		.ascii	"\343\2768\333\227\352\354\235\234\231a\303\265\317="
 413      97EAEC9D 
 413      9C9961C3 
 413      B5CF3D
 414 0b32 5C57862E 		.ascii	"\\W\206.\236\326\273\243}\306\242\255\356;\035&\017"
 414      9ED6BBA3 
 414      7DC6A2AD 
 414      EE3B1D26 
 414      0F
 415 0b43 F6CBF765 		.ascii	"\366\313\367e\261\216\320X\207\305X\217\215\036h\322"
 415      B18ED058 
 415      87C5588F 
 415      8D1E68D2 
 416 0b53 0A7E3D7F 		.ascii	"\012~=\177\262\012\034\343\010\005\015I\013eH\364i\224"
 416      B20A1CE3 
 416      08050D49 
 416      0B6548F4 
 416      6994
 417 0b65 FA54917A 		.ascii	"\372T\221z4\335\013\037a>\251-\203W\303I\243\276\036"
 417      34DD0B1F 
 417      613EA92D 
 417      8357C349 
 417      A3BE1E
 418 0b78 ED8F53FB 		.ascii	"\355\217S\373\317E\3733\373\362\2228\301~a\267\301\365"
 418      CF45FB33 
 418      FBF29238 
 418      C17E61B7 
 418      C1F5
 419 0b8a 1921A031 		.ascii	"\031!\2401\311\372\230h}\202Z\357-\351\333\351\215/"
 419      C9FA9868 
 419      7D825AEF 
 419      2DE9DBE9 
 419      8D2F
 420 0b9c 31EB2935 		.ascii	"1\353)5\03178j}\273d\375\321\267/\265n\217\246\204\367"
 420      1937386A 
 420      7DBB64FD 
 420      D1B72FB5 
 420      6E8FA684 
 421 0bb1 80D99EDD 		.ascii	"\200\331\236\335\330\243K\323\324\245\027\242K-__\311"
 421      D8A34BD3 
 421      D4A517A2 
 421      4B2D5F5F 
 421      C9
 422 0bc2 0B105CCA 		.ascii	"\013\020\\\312\247.\001\001MJ.M\212.\275\244.}\177\276"
 422      A72E0101 
 422      4D4A2E4D 
 422      8A2EBDA4 
 422      2E7D7FBE 
 423 0bd6 B6C50B0F 		.ascii	"\266\305\013\0172\227\016\246\355=\303}T\312w\354#{"
 423      32970EA6 
 423      ED3DC37D 
 423      54CA77EC 
 423      237B
 424 0be8 CF7FE7F7 		.ascii	"\317\177\347\367\244\360\2747\375C\302+\246@\366\367"
 424      A4F0BC37 
ARM GAS  C:\Users\info\AppData\Local\Temp\ccvtqJAE.s 			page 33


 424      FD43C22B 
 424      A640F6F7 
 425 0bf8 07D2F27B 		.ascii	"\007\322\362{\230#\257\271\217\340\311\374\241\313\317"
 425      9823AFB9 
 425      8FE0C9FC 
 425      A1CBCF
 426 0c07 38BC9D7D 		.ascii	"8\274\235}\272\234H-:\247gj\\\223^<\246\037\351g\004"
 426      BA9C482D 
 426      3AA7676A 
 426      5C935E3C 
 426      A61FE967 
 427 0c1c 0DD2B7FD 		.ascii	"\015\322\267\375\031A\303,\325P\225\224<\202q\025\323"
 427      1941C32C 
 427      D5509594 
 427      3C827115 
 427      D3
 428 0c2d F0CD83FA 		.ascii	"\360\315\203\372\243\001\202\206\223D\003\371\376\375"
 428      A3018286 
 428      934403F9 
 428      FEFD
 429 0c3b 46D0207D 		.ascii	"F\320 }6\177#hxK5\234*\313\256\364\305\355L\303\256"
 429      367F2368 
 429      784B359C 
 429      2ACBAEF4 
 429      C5ED4CC3 
 430 0c50 BCC4FDFE 		.ascii	"\274\304\375\376\202\206\372\324\217\022y\227\226\276"
 430      8286FAD4 
 430      8F127997 
 430      96BE
 431 0c5e ABCE094A 		.ascii	"\253\316\011J\304Wf\015m!JxL\224\224\026\365\277\304"
 431      C457660D 
 431      6D214A78 
 431      4C949416 
 431      F5BFC4
 432 0c71 8A0D685A 		.ascii	"\212\015hZq\274$b\366\206\013W`\337\232\250\275\351"
 432      71BC2462 
 432      F6860B57 
 432      60DF9AA8 
 432      BDE9
 433 0c83 AD608F2B 		.ascii	"\255`\217+\330I\002;\211\262'\037W\\\320)\330#\012v"
 433      D849023B 
 433      89B2271F 
 433      575CD029 
 433      D8230A76 
 434 0c97 B2C04EA6 		.ascii	"\262\300N\246\354\327\005i\333\375\024\354;\012v\212"
 434      ECD70569 
 434      DBFD14EC 
 434      3B0A768A 
 435 0ca7 C04EA1EC 		.ascii	"\300N\241\354o\246:\232\225\1772x\254`o\021\330[({K"
 435      6FA63A9A 
 435      957F3278 
 435      AC606F11 
 435      D85B287B 
 436 0cbc FADC9300 		.ascii	"\372\334\223\000<\302RU[\370\326\245\305\223LH\315\235"
 436      3CC25255 
 436      5BF8D6A5 
 436      C5934C48 
ARM GAS  C:\Users\info\AppData\Local\Temp\ccvtqJAE.s 			page 34


 436      CD9D
 437 0cce 7BA0C72F 		.ascii	"{\240\307/\23109r\267\314\033'\3721\332HE\355\002\341"
 437      99303972 
 437      B7CC1B27 
 437      FA31DA48 
 437      45ED02E1 
 438 0ce2 1B2ACD70 		.ascii	"\033*\315pez2\302\273h\247\367\366{\275]\376\210\276"
 438      657A32C2 
 438      BB68A7F7 
 438      F67BBD5D 
 438      FE88BE
 439 0cf5 F508DF4E 		.ascii	"\365\010\337N\\\354= \035\263\277\246\241\2571\234\235"
 439      5CEC3D20 
 439      1DB3BFA6 
 439      A1AF319C 
 439      9D
 440 0d06 98BD0764 		.ascii	"\230\275\007d\341P\224\211\227\241\014\300\016\300N"
 440      E1509489 
 440      97A10CC0 
 440      0EC04E
 441 0d15 2CABE3FB 		.ascii	",\253\343\373s\206>\255\227}nM\025\036\364\364e\250"
 441      73863EAD 
 441      977D6E4D 
 441      151EF4F4 
 441      65A8
 442 0d27 B7DD5D6C 		.ascii	"\267\335]lnU\241\312K\226q\211\272M\205*/\243\357g\010"
 442      6E55A1CA 
 442      4B967189 
 442      BA4D852A 
 442      2FA3EF67 
 443 0d3c 7523395D 		.ascii	"u#9]\322\004\262\307\363\376.\373\314\005\034\371yO"
 443      D204B2C7 
 443      F3FE2EFB 
 443      CC051CF9 
 443      794F
 444 0d4e BEB0A78F 		.ascii	"\276\260\247\217\317\372\343|\366G\326\331\222\257k"
 444      CFFAE37C 
 444      F647D6D9 
 444      92AF6B
 445 0d5d 74283488 		.ascii	"t(4\210=S\324\276\214<\223\015zwa\367\362$*\346\275"
 445      3D53D4BE 
 445      8C3C930D 
 445      7A7761F7 
 445      F2242AE6 
 446 0d72 4AB953B8 		.ascii	"J\271S\270\033\322\366S)$\333w\305T\216\277b*dc\371"
 446      1BD2F653 
 446      2924DB77 
 446      C5548EBF 
 446      622A6463 
 447 0d87 6B658E30 		.ascii	"ke\2160\025r\350T\2508\376\242T\371\262\336\257\230"
 447      1572E854 
 447      A838FEA2 
 447      54F9B2DE 
 447      AF98
 448 0d99 38B9023B 		.ascii	"8\271\002;\227\262\333f\012{\271\245\373\231{\351\260"
 448      97B2DB66 
 448      0A7BB9A5 
ARM GAS  C:\Users\info\AppData\Local\Temp\ccvtqJAE.s 			page 35


 448      FB997BE9 
 448      B0
 449 0daa 6ABE7C9F 		.ascii	"j\276|\237\326\037lK\311\303K\201S\374|fR\340\300.\362"
 449      D61F6C4B 
 449      C9C34B81 
 449      53FC7C66 
 449      52E0C02E 
 450 0dbf 873DE940 		.ascii	"\207=\351@T\362\362)\257\376\351\315no\306s5\370\314"
 450      54F2F229 
 450      AFFEE9CD 
 450      6E6FC673 
 450      35F8CC
 451 0dd2 E71450CE 		.ascii	"\347\024P\316\215\222\331A\177\201s\353\035N!\345<-"
 451      8D92D941 
 451      7F8173EB 
 451      1D4E21E5 
 451      3C2D
 452 0de4 98BBEE25 		.ascii	"\230\273\356%p^\276\303)\242\234\201\347\303_\011\224"
 452      705EBEC3 
 452      29A29C81 
 452      E7C35F09 
 452      94
 453 0df5 5CFD7C4A 		.ascii	"\\\375|J1^\252\321\375\366w_,\371MX\230\306\327hL\260"
 453      315EAAD1 
 453      FDF6775F 
 453      2CF94D58 
 453      98C6D768 
 454 0e0b DA9CE146 		.ascii	"\332\234\341Fg\"2\377S\204=>nm\274)vI\2645\306\342X"
 454      672232FF 
 454      53843D3E 
 454      6E6DBC29 
 454      7649B435 
 455 0e22 12BA31FC 		.ascii	"\022\2721\374\327?\2170o\262\307[\034\216\010\273#\316"
 455      D73F8F30 
 455      6FB2C75B 
 455      1C8E08BB 
 455      23CE
 456 0e34 BCC41C6F 		.ascii	"\274\304\034o19\343\342#\326\254\\\255l\260\306\332"
 456      3139E3E2 
 456      23D6AC5C 
 456      AD6CB0C6 
 456      DA
 457 0e45 E3E29D11 		.ascii	"\343\342\235\021km\011\021\246\370\330\210_\255\\\263"
 457      6B6D0911 
 457      A6F8D888 
 457      5FAD5CB3 
 458 0e55 328CDCFD 		.ascii	"2\214\334\375\322\026g\263\374\322b\212\264FXm\346\230"
 458      D21667B3 
 458      FCD2628A 
 458      B446586D 
 458      E698
 459 0e67 84284B44 		.ascii	"\204(KD\254\311\274\316j\263D\030\243,\321\246\204\030"
 459      ACC9BCCE 
 459      6AB34418 
 459      A32CD1A6 
 459      8418
 460 0e79 A7D1B9C9 		.ascii	"\247\321\271\311nq\254\\\247\361\021\\Y\377\377\345"
ARM GAS  C:\Users\info\AppData\Local\Temp\ccvtqJAE.s 			page 36


 460      6E71AC5C 
 460      A7F1115C 
 460      59FFFFE5 
 461 0e89 89639323 		.ascii	"\211c\223#\302\350pF\201Y0\357g\267n\264\304\0307X\243"
 461      C2E87046 
 461      815930EF 
 461      67B76EB4 
 461      C4183758 
 462 0e9e 9CEBF42C 		.ascii	"\234\353\364,/a\2776:u\342\315\242\350\030\253=6.\312"
 462      2F61BF36 
 462      3A75E2CD 
 462      A2E818AB 
 462      3D362ECA 
 463 0eb2 62DC688C 		.ascii	"b\334h\214\213\216vX\234\013\305\010\304\006?'\270k"
 463      8B8E7658 
 463      9C0BC508 
 463      C4063F27 
 463      B86B
 464 0ec4 5C67B1AE 		.ascii	"\\g\261\256]\347\324\323{\252-xC\274\325i1\332\023b"
 464      5DE7D4D3 
 464      7BAA2D78 
 464      43BCD569 
 464      31DA1362 
 465 0ed8 1C428BD1 		.ascii	"\034B\213\321\346\010\21429MFx(\301ntZc-\320\024l]m"
 465      E6088C32 
 465      394D4678 
 465      28C16E74 
 465      5A632DD0 
 466 0ef0 36462638 		.ascii	"6F&8\214\346\2308\363\237\215a\253V\375\371?6\353\034"
 466      8CE69838 
 466      F39F8D61 
 466      AB56FDF9 
 466      3F36EB1C 
 467 0f04 76AB9198 		.ascii	"v\253\221\23058\240\215\365\254\333,8\370\311j\301A"
 467      3538A08D 
 467      F5ACDB2C 
 467      38F8C96A 
 467      C141
 468 0f16 72134808 		.ascii	"r\023H\010J#\213\034Q\363l\004\332\343\034N#\344\321"
 468      4A238B1C 
 468      51F36C04 
 468      DAE31C4E 
 468      23E4D1
 469 0f29 E2346E30 		.ascii	"\3424n0Y\235\306XG0\223\344O\306:\026C\256\2150Pvc\224"
 469      599DC658 
 469      473093E4 
 469      4FC63A16 
 469      43AE8D30 
 470 0f41 D5618A24 		.ascii	"\325a\212$\241\020\266\015:\210\002\332c\261\311;\002"
 470      A110B60D 
 470      3A8802DA 
 470      63B1C93B 
 470      02
 471 0f52 15EC18CB 		.ascii	"\025\354\030\313zK\314\"9\215\266,N\010\337\030NH\366"
 471      7A4BCC22 
 471      398DB62C 
 471      4E08DF18 
ARM GAS  C:\Users\info\AppData\Local\Temp\ccvtqJAE.s 			page 37


 471      4E48F6
 472 0f65 18D326A3 		.ascii	"\030\323&\243\325\026\035\007\003\020\237`v\032X\366"
 472      D5161D07 
 472      03109F60 
 472      761A58F6 
 473 0f75 59EE8257 		.ascii	"Y\356\202W\256\214H\010_\273\332hv\304\233#\310#0>A"
 473      AE8C4808 
 473      5FBBDA68 
 473      76C49B23 
 473      C823303E 
 474 0f8a EF3EEA0C 		.ascii	"\357>\352\014fmF\2739*\374Wk\326\030\303\327l\\\023"
 474      666D46BB 
 474      392AFC57 
 474      6BD618C3 
 474      D76C5C13 
 475 0f9e EE1F     		.ascii	"\356\037"
 476 0fa0 65898C4B 		.ascii	"e\211\214K\260\231-\240\332\344\264\374\235[\2141\201"
 476      B0992DA0 
 476      DAE4B4FC 
 476      9D5B8C31 
 476      81
 477 0fb1 E776AB8D 		.ascii	"\347v\253\215\265\377\314\335.\016\243\273\313o\255"
 477      B5FFCCDD 
 477      2E0EA3BB 
 477      CB6FAD
 478 0fc0 DD1A4792 		.ascii	"\335\032G\222\004\255\372\004gt8k\006\305\353\255\300"
 478      04ADFA04 
 478      6774386B 
 478      06C5EBAD 
 478      C0
 479 0fd1 37454591 		.ascii	"7EE\221\211\350G\206\013:\342\235\226(z/\264\007[\035"
 479      89E84786 
 479      0B3AE29D 
 479      96287A2F 
 479      B4075B1D 
 480 0fe5 C6E8389B 		.ascii	"\306\3508\233\023|\\o\211\207\234\222\321\323\211sD"
 480      137C5C6F 
 480      89879C92 
 480      D1D38973 
 480      44
 481 0ff6 67B199E3 		.ascii	"g\261\231\343`\312\255\325\022\216"
 481      60CAADD5 
 481      128E
 482 1000 AF7BB817 		.ascii	"\257{\270\027Q\233&[\024\270C\0024G\372\321\340b\035"
 482      519B265B 
 482      14B84302 
 482      3447FAD1 
 482      E0621D
 483 1013 6BE1DE27 		.ascii	"k\341\336'r\023\314 s\244\267\331\024\005\027\275\230"
 483      7213CC20 
 483      73A4B7D9 
 483      140517BD 
 483      98
 484 1024 06E8B159 		.ascii	"\006\350\261Y6\302xD\032(\333\274\316\024O\004y\232"
 484      36C27844 
 484      1A28DBBC 
 484      CE144F04 
ARM GAS  C:\Users\info\AppData\Local\Temp\ccvtqJAE.s 			page 38


 484      799A
 485 1036 981E96E6 		.ascii	"\230\036\226\346 w\320,:\242\336\233\366;\227\275\223"
 485      2077D02C 
 485      3AA2DE9B 
 485      F63B97BD 
 485      93
 486 1047 F4F9895D 		.ascii	"\364\371\211]i\326\260\204\023'\376\315\026\365\373"
 486      69D6B084 
 486      1327FECD 
 486      16F5FB
 487 1056 7893CD11 		.ascii	"x\223\315\021m\211\327\331\342\254\266\030X\323\213"
 487      6D89D7D9 
 487      E2ACB618 
 487      58D38B
 488 1065 DCBD9F5B 		.ascii	"\334\275\237[lQ\377\012\023|\241\242\3457\261Q\357K"
 488      6C51FF0A 
 488      137CA1A2 
 488      E537B151 
 488      EF4B
 489 1077 0D2473A2 		.ascii	"\015$s\242\212\367\024\274\317-\177I\2004Y~&x\261\316"
 489      8AF714BC 
 489      CF2D7F49 
 489      8034597E 
 489      2678B1CE 
 490 108b 1263B7C4 		.ascii	"\022c\267\304\313\306\336\352\374P\275\213\315\365X"
 490      CBC6DEEA 
 490      FC50BD8B 
 490      CDF558
 491 109a 4B6C5CFC 		.ascii	"Kl\\\374\246\245j1\030\355q\033`PL\353-a@\376\313Op"
 491      A6A56A31 
 491      18ED711B 
 491      60504CEB 
 491      2D6140FE 
 492 10b1 5611CEDF 		.ascii	"V\021\316\337\253r\210\023\244\367\003\332\253\354\223"
 492      AB728813 
 492      A4F703DA 
 492      ABEC93
 493 10c0 67DF6B23 		.ascii	"g\337k#\250s`\263\315\251\243;\202\335\031\317\222B"
 493      A87360B3 
 493      CDA9A33B 
 493      82DD19CF 
 493      9242
 494 10d2 25362A5E 		.ascii	"%6*^\233\010\307Ojv\376/\012t\033h"
 494      9B08C74F 
 494      6A76FE2F 
 494      0A741B68 
 495              		.text
 496              		.section	.gnu.lto_.symtab.bf14d81c,"",%progbits
 497 0000 75387838 		.ascii	"u8x8_d_pcd8544_84x48\000"
 497      5F645F70 
 497      63643835 
 497      34345F38 
 497      34783438 
 498 0015 00       		.ascii	"\000"
 499 0016 00       		.ascii	"\000"
 500 0017 00       		.ascii	"\000"
 501 0018 00000000 		.ascii	"\000\000\000\000\000\000\000\000"
ARM GAS  C:\Users\info\AppData\Local\Temp\ccvtqJAE.s 			page 39


 501      00000000 
 502 0020 53010000 		.ascii	"S\001\000\000"
 503 0024 75387838 		.ascii	"u8x8_cad_EndTransfer\000"
 503      5F636164 
 503      5F456E64 
 503      5472616E 
 503      73666572 
 504 0039 00       		.ascii	"\000"
 505 003a 02       		.ascii	"\002"
 506 003b 00       		.ascii	"\000"
 507 003c 00000000 		.ascii	"\000\000\000\000\000\000\000\000"
 507      00000000 
 508 0044 59010000 		.ascii	"Y\001\000\000"
 509 0048 75387838 		.ascii	"u8x8_cad_SendData\000"
 509      5F636164 
 509      5F53656E 
 509      64446174 
 509      6100
 510 005a 00       		.ascii	"\000"
 511 005b 02       		.ascii	"\002"
 512 005c 00       		.ascii	"\000"
 513 005d 00000000 		.ascii	"\000\000\000\000\000\000\000\000"
 513      00000000 
 514 0065 61010000 		.ascii	"a\001\000\000"
 515 0069 75387838 		.ascii	"u8x8_cad_SendCmd\000"
 515      5F636164 
 515      5F53656E 
 515      64436D64 
 515      00
 516 007a 00       		.ascii	"\000"
 517 007b 02       		.ascii	"\002"
 518 007c 00       		.ascii	"\000"
 519 007d 00000000 		.ascii	"\000\000\000\000\000\000\000\000"
 519      00000000 
 520 0085 67010000 		.ascii	"g\001\000\000"
 521 0089 75387838 		.ascii	"u8x8_cad_StartTransfer\000"
 521      5F636164 
 521      5F537461 
 521      72745472 
 521      616E7366 
 522 00a0 00       		.ascii	"\000"
 523 00a1 02       		.ascii	"\002"
 524 00a2 00       		.ascii	"\000"
 525 00a3 00000000 		.ascii	"\000\000\000\000\000\000\000\000"
 525      00000000 
 526 00ab 6A010000 		.ascii	"j\001\000\000"
 527 00af 75387838 		.ascii	"u8x8_cad_SendSequence\000"
 527      5F636164 
 527      5F53656E 
 527      64536571 
 527      75656E63 
 528 00c5 00       		.ascii	"\000"
 529 00c6 02       		.ascii	"\002"
 530 00c7 00       		.ascii	"\000"
 531 00c8 00000000 		.ascii	"\000\000\000\000\000\000\000\000"
 531      00000000 
 532 00d0 6F010000 		.ascii	"o\001\000\000"
ARM GAS  C:\Users\info\AppData\Local\Temp\ccvtqJAE.s 			page 40


 533 00d4 75387838 		.ascii	"u8x8_d_helper_display_init\000"
 533      5F645F68 
 533      656C7065 
 533      725F6469 
 533      73706C61 
 534 00ef 00       		.ascii	"\000"
 535 00f0 02       		.ascii	"\002"
 536 00f1 00       		.ascii	"\000"
 537 00f2 00000000 		.ascii	"\000\000\000\000\000\000\000\000"
 537      00000000 
 538 00fa 73010000 		.ascii	"s\001\000\000"
 539 00fe 75387838 		.ascii	"u8x8_d_helper_display_setup_memory\000"
 539      5F645F68 
 539      656C7065 
 539      725F6469 
 539      73706C61 
 540 0121 00       		.ascii	"\000"
 541 0122 02       		.ascii	"\002"
 542 0123 00       		.ascii	"\000"
 543 0124 00000000 		.ascii	"\000\000\000\000\000\000\000\000"
 543      00000000 
 544 012c 78010000 		.ascii	"x\001\000\000"
 545              		.text
 546              		.section	.gnu.lto_.opts,"",%progbits
 547 0000 272D666D 		.ascii	"'-fmath-errno' '-fsigned-zeros' '-ftrapping-math' '"
 547      6174682D 
 547      6572726E 
 547      6F272027 
 547      2D667369 
 548 0033 2D666E6F 		.ascii	"-fno-trapv' '-fno-openmp' '-fno-openacc' '-mcpu=cor"
 548      2D747261 
 548      70762720 
 548      272D666E 
 548      6F2D6F70 
 549 0066 7465782D 		.ascii	"tex-m3' '-mthumb' '-g' '-Os' '-ffunction-sections' "
 549      6D332720 
 549      272D6D74 
 549      68756D62 
 549      2720272D 
 550 0099 272D6666 		.ascii	"'-ffat-lto-objects' '-flto'\000"
 550      61742D6C 
 550      746F2D6F 
 550      626A6563 
 550      74732720 
 551              		.text
 552              		.cfi_sections	.debug_frame
 553              		.section	.text.u8x8_d_pcd8544_84x48,"ax",%progbits
 554              		.align	1
 555              		.global	u8x8_d_pcd8544_84x48
 556              		.thumb
 557              		.thumb_func
 558              		.type	u8x8_d_pcd8544_84x48, %function
 559              	u8x8_d_pcd8544_84x48:
 560              	.LFB0:
 561              		.file 1 "..\\u8g2_csrc\\u8x8_d_pcd8544_84x48.c"
   1:..\u8g2_csrc/u8x8_d_pcd8544_84x48.c **** /*
   2:..\u8g2_csrc/u8x8_d_pcd8544_84x48.c **** 
ARM GAS  C:\Users\info\AppData\Local\Temp\ccvtqJAE.s 			page 41


   3:..\u8g2_csrc/u8x8_d_pcd8544_84x48.c ****   u8x8_d_pcd8544_84x48.c (so called "Nokia 5110" displays)
   4:..\u8g2_csrc/u8x8_d_pcd8544_84x48.c ****   
   5:..\u8g2_csrc/u8x8_d_pcd8544_84x48.c ****   Universal 8bit Graphics Library (https://github.com/olikraus/u8g2/)
   6:..\u8g2_csrc/u8x8_d_pcd8544_84x48.c **** 
   7:..\u8g2_csrc/u8x8_d_pcd8544_84x48.c ****   Copyright (c) 2016, olikraus@gmail.com
   8:..\u8g2_csrc/u8x8_d_pcd8544_84x48.c ****   All rights reserved.
   9:..\u8g2_csrc/u8x8_d_pcd8544_84x48.c **** 
  10:..\u8g2_csrc/u8x8_d_pcd8544_84x48.c ****   Redistribution and use in source and binary forms, with or without modification, 
  11:..\u8g2_csrc/u8x8_d_pcd8544_84x48.c ****   are permitted provided that the following conditions are met:
  12:..\u8g2_csrc/u8x8_d_pcd8544_84x48.c **** 
  13:..\u8g2_csrc/u8x8_d_pcd8544_84x48.c ****   * Redistributions of source code must retain the above copyright notice, this list 
  14:..\u8g2_csrc/u8x8_d_pcd8544_84x48.c ****     of conditions and the following disclaimer.
  15:..\u8g2_csrc/u8x8_d_pcd8544_84x48.c ****     
  16:..\u8g2_csrc/u8x8_d_pcd8544_84x48.c ****   * Redistributions in binary form must reproduce the above copyright notice, this 
  17:..\u8g2_csrc/u8x8_d_pcd8544_84x48.c ****     list of conditions and the following disclaimer in the documentation and/or other 
  18:..\u8g2_csrc/u8x8_d_pcd8544_84x48.c ****     materials provided with the distribution.
  19:..\u8g2_csrc/u8x8_d_pcd8544_84x48.c **** 
  20:..\u8g2_csrc/u8x8_d_pcd8544_84x48.c ****   THIS SOFTWARE IS PROVIDED BY THE COPYRIGHT HOLDERS AND 
  21:..\u8g2_csrc/u8x8_d_pcd8544_84x48.c ****   CONTRIBUTORS "AS IS" AND ANY EXPRESS OR IMPLIED WARRANTIES, 
  22:..\u8g2_csrc/u8x8_d_pcd8544_84x48.c ****   INCLUDING, BUT NOT LIMITED TO, THE IMPLIED WARRANTIES OF 
  23:..\u8g2_csrc/u8x8_d_pcd8544_84x48.c ****   MERCHANTABILITY AND FITNESS FOR A PARTICULAR PURPOSE ARE 
  24:..\u8g2_csrc/u8x8_d_pcd8544_84x48.c ****   DISCLAIMED. IN NO EVENT SHALL THE COPYRIGHT HOLDER OR 
  25:..\u8g2_csrc/u8x8_d_pcd8544_84x48.c ****   CONTRIBUTORS BE LIABLE FOR ANY DIRECT, INDIRECT, INCIDENTAL, 
  26:..\u8g2_csrc/u8x8_d_pcd8544_84x48.c ****   SPECIAL, EXEMPLARY, OR CONSEQUENTIAL DAMAGES (INCLUDING, BUT 
  27:..\u8g2_csrc/u8x8_d_pcd8544_84x48.c ****   NOT LIMITED TO, PROCUREMENT OF SUBSTITUTE GOODS OR SERVICES; 
  28:..\u8g2_csrc/u8x8_d_pcd8544_84x48.c ****   LOSS OF USE, DATA, OR PROFITS; OR BUSINESS INTERRUPTION) HOWEVER 
  29:..\u8g2_csrc/u8x8_d_pcd8544_84x48.c ****   CAUSED AND ON ANY THEORY OF LIABILITY, WHETHER IN CONTRACT, 
  30:..\u8g2_csrc/u8x8_d_pcd8544_84x48.c ****   STRICT LIABILITY, OR TORT (INCLUDING NEGLIGENCE OR OTHERWISE) 
  31:..\u8g2_csrc/u8x8_d_pcd8544_84x48.c ****   ARISING IN ANY WAY OUT OF THE USE OF THIS SOFTWARE, EVEN IF 
  32:..\u8g2_csrc/u8x8_d_pcd8544_84x48.c ****   ADVISED OF THE POSSIBILITY OF SUCH DAMAGE.  
  33:..\u8g2_csrc/u8x8_d_pcd8544_84x48.c **** 
  34:..\u8g2_csrc/u8x8_d_pcd8544_84x48.c ****   
  35:..\u8g2_csrc/u8x8_d_pcd8544_84x48.c **** */
  36:..\u8g2_csrc/u8x8_d_pcd8544_84x48.c **** #include "u8x8.h"
  37:..\u8g2_csrc/u8x8_d_pcd8544_84x48.c **** 
  38:..\u8g2_csrc/u8x8_d_pcd8544_84x48.c **** 
  39:..\u8g2_csrc/u8x8_d_pcd8544_84x48.c **** 
  40:..\u8g2_csrc/u8x8_d_pcd8544_84x48.c **** 
  41:..\u8g2_csrc/u8x8_d_pcd8544_84x48.c **** static const uint8_t u8x8_d_pcd8544_84x48_init_seq[] = {
  42:..\u8g2_csrc/u8x8_d_pcd8544_84x48.c ****     
  43:..\u8g2_csrc/u8x8_d_pcd8544_84x48.c ****   U8X8_START_TRANSFER(),             	/* enable chip, delay is part of the transfer start */
  44:..\u8g2_csrc/u8x8_d_pcd8544_84x48.c ****   
  45:..\u8g2_csrc/u8x8_d_pcd8544_84x48.c ****   U8X8_C(0x021),            			/* activate chip (PD=0), horizontal increment (V=0), enter extended 
  46:..\u8g2_csrc/u8x8_d_pcd8544_84x48.c ****   U8X8_C(0x006),		                /* temp. control: b10 = 2  */
  47:..\u8g2_csrc/u8x8_d_pcd8544_84x48.c ****   U8X8_C(0x013),		                /* bias system 1:48 */
  48:..\u8g2_csrc/u8x8_d_pcd8544_84x48.c ****   U8X8_C(0x0c0),		                /* medium Vop  */
  49:..\u8g2_csrc/u8x8_d_pcd8544_84x48.c ****   
  50:..\u8g2_csrc/u8x8_d_pcd8544_84x48.c ****   U8X8_C(0x020),		                /* activate chip (PD=0), horizontal increment (V=0), enter normal
  51:..\u8g2_csrc/u8x8_d_pcd8544_84x48.c ****   U8X8_C(0x008),				/* blank */
  52:..\u8g2_csrc/u8x8_d_pcd8544_84x48.c ****   U8X8_C(0x024),		                /* power down (PD=1), horizontal increment (V=0), enter normal co
  53:..\u8g2_csrc/u8x8_d_pcd8544_84x48.c ****     
  54:..\u8g2_csrc/u8x8_d_pcd8544_84x48.c ****   U8X8_END_TRANSFER(),             	/* disable chip */
  55:..\u8g2_csrc/u8x8_d_pcd8544_84x48.c ****   U8X8_END()             			/* end of sequence */
  56:..\u8g2_csrc/u8x8_d_pcd8544_84x48.c **** };
  57:..\u8g2_csrc/u8x8_d_pcd8544_84x48.c **** 
  58:..\u8g2_csrc/u8x8_d_pcd8544_84x48.c **** static const uint8_t u8x8_d_pcd8544_84x48_powersave0_seq[] = {
  59:..\u8g2_csrc/u8x8_d_pcd8544_84x48.c ****   U8X8_START_TRANSFER(),             	/* enable chip, delay is part of the transfer start */
ARM GAS  C:\Users\info\AppData\Local\Temp\ccvtqJAE.s 			page 42


  60:..\u8g2_csrc/u8x8_d_pcd8544_84x48.c ****   U8X8_C(0x020),		                /* activate chip (PD=0), horizontal increment (V=0), enter normal
  61:..\u8g2_csrc/u8x8_d_pcd8544_84x48.c ****   U8X8_C(0x00c),				/* display on */
  62:..\u8g2_csrc/u8x8_d_pcd8544_84x48.c ****   U8X8_END_TRANSFER(),             	/* disable chip */
  63:..\u8g2_csrc/u8x8_d_pcd8544_84x48.c ****   U8X8_END()             			/* end of sequence */
  64:..\u8g2_csrc/u8x8_d_pcd8544_84x48.c **** };
  65:..\u8g2_csrc/u8x8_d_pcd8544_84x48.c **** 
  66:..\u8g2_csrc/u8x8_d_pcd8544_84x48.c **** static const uint8_t u8x8_d_pcd8544_84x48_powersave1_seq[] = {
  67:..\u8g2_csrc/u8x8_d_pcd8544_84x48.c ****   U8X8_START_TRANSFER(),             	/* enable chip, delay is part of the transfer start */
  68:..\u8g2_csrc/u8x8_d_pcd8544_84x48.c ****   U8X8_C(0x020),		                /* activate chip (PD=0), horizontal increment (V=0), enter normal
  69:..\u8g2_csrc/u8x8_d_pcd8544_84x48.c ****   U8X8_C(0x008),				/* blank */
  70:..\u8g2_csrc/u8x8_d_pcd8544_84x48.c ****   U8X8_C(0x024),		                /* power down (PD=1), horizontal increment (V=0), enter normal co
  71:..\u8g2_csrc/u8x8_d_pcd8544_84x48.c ****   U8X8_END_TRANSFER(),             	/* disable chip */
  72:..\u8g2_csrc/u8x8_d_pcd8544_84x48.c ****   U8X8_END()             			/* end of sequence */
  73:..\u8g2_csrc/u8x8_d_pcd8544_84x48.c **** };
  74:..\u8g2_csrc/u8x8_d_pcd8544_84x48.c **** 
  75:..\u8g2_csrc/u8x8_d_pcd8544_84x48.c **** 
  76:..\u8g2_csrc/u8x8_d_pcd8544_84x48.c **** 
  77:..\u8g2_csrc/u8x8_d_pcd8544_84x48.c **** static const u8x8_display_info_t u8x8_pcd8544_84x48_display_info =
  78:..\u8g2_csrc/u8x8_d_pcd8544_84x48.c **** {
  79:..\u8g2_csrc/u8x8_d_pcd8544_84x48.c ****   /* chip_enable_level = */ 0,
  80:..\u8g2_csrc/u8x8_d_pcd8544_84x48.c ****   /* chip_disable_level = */ 1,
  81:..\u8g2_csrc/u8x8_d_pcd8544_84x48.c ****   
  82:..\u8g2_csrc/u8x8_d_pcd8544_84x48.c ****   /* post_chip_enable_wait_ns = */ 5,
  83:..\u8g2_csrc/u8x8_d_pcd8544_84x48.c ****   /* pre_chip_disable_wait_ns = */ 5,
  84:..\u8g2_csrc/u8x8_d_pcd8544_84x48.c ****   /* reset_pulse_width_ms = */ 2, 
  85:..\u8g2_csrc/u8x8_d_pcd8544_84x48.c ****   /* post_reset_wait_ms = */ 2, 
  86:..\u8g2_csrc/u8x8_d_pcd8544_84x48.c ****   /* sda_setup_time_ns = */ 12,		
  87:..\u8g2_csrc/u8x8_d_pcd8544_84x48.c ****   /* sck_pulse_width_ns = */ 75,	/* half of cycle time (100ns according to datasheet), AVR: below 7
  88:..\u8g2_csrc/u8x8_d_pcd8544_84x48.c ****   /* sck_clock_hz = */ 4000000UL,	/* since Arduino 1.6.0, the SPI bus speed in Hz. Should be  10000
  89:..\u8g2_csrc/u8x8_d_pcd8544_84x48.c ****   /* spi_mode = */ 0,		/* active high, rising edge */
  90:..\u8g2_csrc/u8x8_d_pcd8544_84x48.c ****   /* i2c_bus_clock_100kHz = */ 4,
  91:..\u8g2_csrc/u8x8_d_pcd8544_84x48.c ****   /* data_setup_time_ns = */ 30,
  92:..\u8g2_csrc/u8x8_d_pcd8544_84x48.c ****   /* write_pulse_width_ns = */ 40,
  93:..\u8g2_csrc/u8x8_d_pcd8544_84x48.c ****   /* tile_width = */ 11,		/* width of 11*8=88 pixel */
  94:..\u8g2_csrc/u8x8_d_pcd8544_84x48.c ****   /* tile_hight = */ 6,
  95:..\u8g2_csrc/u8x8_d_pcd8544_84x48.c ****   /* default_x_offset = */ 0,
  96:..\u8g2_csrc/u8x8_d_pcd8544_84x48.c ****   /* flipmode_x_offset = */ 0,
  97:..\u8g2_csrc/u8x8_d_pcd8544_84x48.c ****   /* pixel_width = */ 84,
  98:..\u8g2_csrc/u8x8_d_pcd8544_84x48.c ****   /* pixel_height = */ 48
  99:..\u8g2_csrc/u8x8_d_pcd8544_84x48.c **** };
 100:..\u8g2_csrc/u8x8_d_pcd8544_84x48.c **** 
 101:..\u8g2_csrc/u8x8_d_pcd8544_84x48.c **** uint8_t u8x8_d_pcd8544_84x48(u8x8_t *u8x8, uint8_t msg, uint8_t arg_int, void *arg_ptr)
 102:..\u8g2_csrc/u8x8_d_pcd8544_84x48.c **** {
 562              		.loc 1 102 0
 563              		.cfi_startproc
 564              		@ args = 0, pretend = 0, frame = 0
 565              		@ frame_needed = 0, uses_anonymous_args = 0
 566              	.LVL0:
 103:..\u8g2_csrc/u8x8_d_pcd8544_84x48.c ****   uint8_t x, c;
 104:..\u8g2_csrc/u8x8_d_pcd8544_84x48.c ****   uint8_t *ptr;
 105:..\u8g2_csrc/u8x8_d_pcd8544_84x48.c ****   switch(msg)
 567              		.loc 1 105 0
 568 0000 0939     		subs	r1, r1, #9
 569              	.LVL1:
 102:..\u8g2_csrc/u8x8_d_pcd8544_84x48.c ****   uint8_t x, c;
 570              		.loc 1 102 0
 571 0002 2DE9F041 		push	{r4, r5, r6, r7, r8, lr}
ARM GAS  C:\Users\info\AppData\Local\Temp\ccvtqJAE.s 			page 43


 572              		.cfi_def_cfa_offset 24
 573              		.cfi_offset 4, -24
 574              		.cfi_offset 5, -20
 575              		.cfi_offset 6, -16
 576              		.cfi_offset 7, -12
 577              		.cfi_offset 8, -8
 578              		.cfi_offset 14, -4
 102:..\u8g2_csrc/u8x8_d_pcd8544_84x48.c ****   uint8_t x, c;
 579              		.loc 1 102 0
 580 0006 0446     		mov	r4, r0
 581 0008 1746     		mov	r7, r2
 582 000a 1E46     		mov	r6, r3
 583              		.loc 1 105 0
 584 000c 0629     		cmp	r1, #6
 585 000e 59D8     		bhi	.L14
 586 0010 DFE801F0 		tbb	[pc, r1]
 587              	.LVL2:
 588              	.L4:
 589 0014 04       		.byte	(.L3-.L4)/2
 590 0015 08       		.byte	(.L5-.L4)/2
 591 0016 0C       		.byte	(.L6-.L4)/2
 592 0017 58       		.byte	(.L14-.L4)/2
 593 0018 58       		.byte	(.L14-.L4)/2
 594 0019 16       		.byte	(.L7-.L4)/2
 595 001a 23       		.byte	(.L8-.L4)/2
 596 001b 00       		.p2align 1
 597              	.L3:
 106:..\u8g2_csrc/u8x8_d_pcd8544_84x48.c ****   {
 107:..\u8g2_csrc/u8x8_d_pcd8544_84x48.c ****     case U8X8_MSG_DISPLAY_SETUP_MEMORY:
 108:..\u8g2_csrc/u8x8_d_pcd8544_84x48.c ****       u8x8_d_helper_display_setup_memory(u8x8, &u8x8_pcd8544_84x48_display_info);
 598              		.loc 1 108 0
 599 001c 2B49     		ldr	r1, .L19
 600 001e FFF7FEFF 		bl	u8x8_d_helper_display_setup_memory
 601              	.LVL3:
 602 0022 08E0     		b	.L16
 603              	.LVL4:
 604              	.L5:
 109:..\u8g2_csrc/u8x8_d_pcd8544_84x48.c ****       break;
 110:..\u8g2_csrc/u8x8_d_pcd8544_84x48.c ****     case U8X8_MSG_DISPLAY_INIT:
 111:..\u8g2_csrc/u8x8_d_pcd8544_84x48.c ****       u8x8_d_helper_display_init(u8x8);
 605              		.loc 1 111 0
 606 0024 FFF7FEFF 		bl	u8x8_d_helper_display_init
 607              	.LVL5:
 112:..\u8g2_csrc/u8x8_d_pcd8544_84x48.c ****       u8x8_cad_SendSequence(u8x8, u8x8_d_pcd8544_84x48_init_seq);
 608              		.loc 1 112 0
 609 0028 2949     		ldr	r1, .L19+4
 610 002a 01E0     		b	.L17
 611              	.LVL6:
 612              	.L6:
 113:..\u8g2_csrc/u8x8_d_pcd8544_84x48.c ****       break;
 114:..\u8g2_csrc/u8x8_d_pcd8544_84x48.c ****     case U8X8_MSG_DISPLAY_SET_POWER_SAVE:
 115:..\u8g2_csrc/u8x8_d_pcd8544_84x48.c ****       if ( arg_int == 0 )
 613              		.loc 1 115 0
 614 002c 32B9     		cbnz	r2, .L9
 116:..\u8g2_csrc/u8x8_d_pcd8544_84x48.c **** 	u8x8_cad_SendSequence(u8x8, u8x8_d_pcd8544_84x48_powersave0_seq);
 615              		.loc 1 116 0
 616 002e 2949     		ldr	r1, .L19+8
ARM GAS  C:\Users\info\AppData\Local\Temp\ccvtqJAE.s 			page 44


 617              	.LVL7:
 618              	.L17:
 619 0030 2046     		mov	r0, r4
 620 0032 FFF7FEFF 		bl	u8x8_cad_SendSequence
 621              	.LVL8:
 622              	.L16:
 117:..\u8g2_csrc/u8x8_d_pcd8544_84x48.c ****       else
 118:..\u8g2_csrc/u8x8_d_pcd8544_84x48.c **** 	u8x8_cad_SendSequence(u8x8, u8x8_d_pcd8544_84x48_powersave1_seq);
 119:..\u8g2_csrc/u8x8_d_pcd8544_84x48.c ****       break;
 120:..\u8g2_csrc/u8x8_d_pcd8544_84x48.c ****     // case U8X8_MSG_DISPLAY_SET_FLIP_MODE:
 121:..\u8g2_csrc/u8x8_d_pcd8544_84x48.c ****     // 	  break; 	NOT SUPPORTED
 122:..\u8g2_csrc/u8x8_d_pcd8544_84x48.c ****       
 123:..\u8g2_csrc/u8x8_d_pcd8544_84x48.c **** #ifdef U8X8_WITH_SET_CONTRAST
 124:..\u8g2_csrc/u8x8_d_pcd8544_84x48.c ****     case U8X8_MSG_DISPLAY_SET_CONTRAST:
 125:..\u8g2_csrc/u8x8_d_pcd8544_84x48.c ****       u8x8_cad_StartTransfer(u8x8);
 126:..\u8g2_csrc/u8x8_d_pcd8544_84x48.c ****       u8x8_cad_SendCmd(u8x8, 0x021 ); /* command mode, extended function set */
 127:..\u8g2_csrc/u8x8_d_pcd8544_84x48.c ****       u8x8_cad_SendCmd(u8x8, 0x080 | (arg_int >> 1) );
 128:..\u8g2_csrc/u8x8_d_pcd8544_84x48.c ****       u8x8_cad_EndTransfer(u8x8);
 129:..\u8g2_csrc/u8x8_d_pcd8544_84x48.c ****       break;
 130:..\u8g2_csrc/u8x8_d_pcd8544_84x48.c **** #endif
 131:..\u8g2_csrc/u8x8_d_pcd8544_84x48.c ****     case U8X8_MSG_DISPLAY_DRAW_TILE:
 132:..\u8g2_csrc/u8x8_d_pcd8544_84x48.c ****       u8x8_cad_StartTransfer(u8x8);
 133:..\u8g2_csrc/u8x8_d_pcd8544_84x48.c ****     
 134:..\u8g2_csrc/u8x8_d_pcd8544_84x48.c ****       x = ((u8x8_tile_t *)arg_ptr)->x_pos;
 135:..\u8g2_csrc/u8x8_d_pcd8544_84x48.c ****       x *= 8;
 136:..\u8g2_csrc/u8x8_d_pcd8544_84x48.c ****       x += u8x8->x_offset;
 137:..\u8g2_csrc/u8x8_d_pcd8544_84x48.c ****       u8x8_cad_SendCmd(u8x8, 0x020 ); /* activate chip (PD=0), horizontal increment (V=0), enter no
 138:..\u8g2_csrc/u8x8_d_pcd8544_84x48.c ****       u8x8_cad_SendCmd(u8x8, 0x080 | (x) );	/* set X address */
 139:..\u8g2_csrc/u8x8_d_pcd8544_84x48.c ****       u8x8_cad_SendCmd(u8x8, 0x040 | (((u8x8_tile_t *)arg_ptr)->y_pos) );	/* set Y address */
 140:..\u8g2_csrc/u8x8_d_pcd8544_84x48.c ****     
 141:..\u8g2_csrc/u8x8_d_pcd8544_84x48.c ****       ptr = ((u8x8_tile_t *)arg_ptr)->tile_ptr;
 142:..\u8g2_csrc/u8x8_d_pcd8544_84x48.c ****       c = ((u8x8_tile_t *)arg_ptr)->cnt;
 143:..\u8g2_csrc/u8x8_d_pcd8544_84x48.c ****       c *= 8;	
 144:..\u8g2_csrc/u8x8_d_pcd8544_84x48.c ****       do
 145:..\u8g2_csrc/u8x8_d_pcd8544_84x48.c ****       {
 146:..\u8g2_csrc/u8x8_d_pcd8544_84x48.c **** 	if ( c + x > 84u )
 147:..\u8g2_csrc/u8x8_d_pcd8544_84x48.c **** 	{
 148:..\u8g2_csrc/u8x8_d_pcd8544_84x48.c **** 	  if ( x >= 84u )
 149:..\u8g2_csrc/u8x8_d_pcd8544_84x48.c **** 	    break;
 150:..\u8g2_csrc/u8x8_d_pcd8544_84x48.c **** 	  c = 84u;
 151:..\u8g2_csrc/u8x8_d_pcd8544_84x48.c **** 	  c -= x;
 152:..\u8g2_csrc/u8x8_d_pcd8544_84x48.c **** 	}
 153:..\u8g2_csrc/u8x8_d_pcd8544_84x48.c **** 	u8x8_cad_SendData(u8x8, c, ptr);	/* note: SendData can not handle more than 255 bytes */
 154:..\u8g2_csrc/u8x8_d_pcd8544_84x48.c **** 	x += c;
 155:..\u8g2_csrc/u8x8_d_pcd8544_84x48.c **** 	arg_int--;
 156:..\u8g2_csrc/u8x8_d_pcd8544_84x48.c ****       } while( arg_int > 0 );
 157:..\u8g2_csrc/u8x8_d_pcd8544_84x48.c ****       
 158:..\u8g2_csrc/u8x8_d_pcd8544_84x48.c ****       u8x8_cad_EndTransfer(u8x8);
 159:..\u8g2_csrc/u8x8_d_pcd8544_84x48.c ****       break;
 160:..\u8g2_csrc/u8x8_d_pcd8544_84x48.c ****     default:
 161:..\u8g2_csrc/u8x8_d_pcd8544_84x48.c ****       return 0;
 162:..\u8g2_csrc/u8x8_d_pcd8544_84x48.c ****   }
 163:..\u8g2_csrc/u8x8_d_pcd8544_84x48.c ****   return 1;
 623              		.loc 1 163 0
 624 0036 0120     		movs	r0, #1
 625 0038 BDE8F081 		pop	{r4, r5, r6, r7, r8, pc}
 626              	.LVL9:
ARM GAS  C:\Users\info\AppData\Local\Temp\ccvtqJAE.s 			page 45


 627              	.L9:
 118:..\u8g2_csrc/u8x8_d_pcd8544_84x48.c ****       break;
 628              		.loc 1 118 0
 629 003c 2649     		ldr	r1, .L19+12
 630 003e F7E7     		b	.L17
 631              	.L7:
 125:..\u8g2_csrc/u8x8_d_pcd8544_84x48.c ****       u8x8_cad_SendCmd(u8x8, 0x021 ); /* command mode, extended function set */
 632              		.loc 1 125 0
 633 0040 FFF7FEFF 		bl	u8x8_cad_StartTransfer
 634              	.LVL10:
 126:..\u8g2_csrc/u8x8_d_pcd8544_84x48.c ****       u8x8_cad_SendCmd(u8x8, 0x080 | (arg_int >> 1) );
 635              		.loc 1 126 0
 636 0044 2121     		movs	r1, #33
 637 0046 2046     		mov	r0, r4
 638 0048 FFF7FEFF 		bl	u8x8_cad_SendCmd
 639              	.LVL11:
 127:..\u8g2_csrc/u8x8_d_pcd8544_84x48.c ****       u8x8_cad_EndTransfer(u8x8);
 640              		.loc 1 127 0
 641 004c 7908     		lsrs	r1, r7, #1
 642 004e 41F08001 		orr	r1, r1, #128
 643 0052 2046     		mov	r0, r4
 644 0054 FFF7FEFF 		bl	u8x8_cad_SendCmd
 645              	.LVL12:
 646 0058 21E0     		b	.L13
 647              	.LVL13:
 648              	.L8:
 132:..\u8g2_csrc/u8x8_d_pcd8544_84x48.c ****     
 649              		.loc 1 132 0
 650 005a FFF7FEFF 		bl	u8x8_cad_StartTransfer
 651              	.LVL14:
 136:..\u8g2_csrc/u8x8_d_pcd8544_84x48.c ****       u8x8_cad_SendCmd(u8x8, 0x020 ); /* activate chip (PD=0), horizontal increment (V=0), enter no
 652              		.loc 1 136 0
 653 005e 94F82230 		ldrb	r3, [r4, #34]	@ zero_extendqisi2
 134:..\u8g2_csrc/u8x8_d_pcd8544_84x48.c ****       x *= 8;
 654              		.loc 1 134 0
 655 0062 7579     		ldrb	r5, [r6, #5]	@ zero_extendqisi2
 656              	.LVL15:
 137:..\u8g2_csrc/u8x8_d_pcd8544_84x48.c ****       u8x8_cad_SendCmd(u8x8, 0x080 | (x) );	/* set X address */
 657              		.loc 1 137 0
 658 0064 2021     		movs	r1, #32
 136:..\u8g2_csrc/u8x8_d_pcd8544_84x48.c ****       u8x8_cad_SendCmd(u8x8, 0x020 ); /* activate chip (PD=0), horizontal increment (V=0), enter no
 659              		.loc 1 136 0
 660 0066 03EBC505 		add	r5, r3, r5, lsl #3
 661              	.LVL16:
 662 006a 05F0FF05 		and	r5, r5, #255
 663              	.LVL17:
 137:..\u8g2_csrc/u8x8_d_pcd8544_84x48.c ****       u8x8_cad_SendCmd(u8x8, 0x080 | (x) );	/* set X address */
 664              		.loc 1 137 0
 665 006e 2046     		mov	r0, r4
 666 0070 FFF7FEFF 		bl	u8x8_cad_SendCmd
 667              	.LVL18:
 138:..\u8g2_csrc/u8x8_d_pcd8544_84x48.c ****       u8x8_cad_SendCmd(u8x8, 0x040 | (((u8x8_tile_t *)arg_ptr)->y_pos) );	/* set Y address */
 668              		.loc 1 138 0
 669 0074 45F08001 		orr	r1, r5, #128
 670 0078 2046     		mov	r0, r4
 671 007a FFF7FEFF 		bl	u8x8_cad_SendCmd
 672              	.LVL19:
ARM GAS  C:\Users\info\AppData\Local\Temp\ccvtqJAE.s 			page 46


 139:..\u8g2_csrc/u8x8_d_pcd8544_84x48.c ****     
 673              		.loc 1 139 0
 674 007e B179     		ldrb	r1, [r6, #6]	@ zero_extendqisi2
 675 0080 2046     		mov	r0, r4
 676 0082 41F04001 		orr	r1, r1, #64
 677 0086 FFF7FEFF 		bl	u8x8_cad_SendCmd
 678              	.LVL20:
 141:..\u8g2_csrc/u8x8_d_pcd8544_84x48.c ****       c = ((u8x8_tile_t *)arg_ptr)->cnt;
 679              		.loc 1 141 0
 680 008a D6F80080 		ldr	r8, [r6]
 681              	.LVL21:
 142:..\u8g2_csrc/u8x8_d_pcd8544_84x48.c ****       c *= 8;	
 682              		.loc 1 142 0
 683 008e 3679     		ldrb	r6, [r6, #4]	@ zero_extendqisi2
 684              	.LVL22:
 143:..\u8g2_csrc/u8x8_d_pcd8544_84x48.c ****       do
 685              		.loc 1 143 0
 686 0090 F600     		lsls	r6, r6, #3
 687              	.LVL23:
 688 0092 F6B2     		uxtb	r6, r6
 689              	.LVL24:
 690              	.L12:
 146:..\u8g2_csrc/u8x8_d_pcd8544_84x48.c **** 	{
 691              		.loc 1 146 0
 692 0094 7319     		adds	r3, r6, r5
 693 0096 542B     		cmp	r3, #84
 694 0098 08DD     		ble	.L10
 148:..\u8g2_csrc/u8x8_d_pcd8544_84x48.c **** 	    break;
 695              		.loc 1 148 0
 696 009a 532D     		cmp	r5, #83
 697 009c 03D9     		bls	.L11
 698              	.LVL25:
 699              	.L13:
 158:..\u8g2_csrc/u8x8_d_pcd8544_84x48.c ****       break;
 700              		.loc 1 158 0
 701 009e 2046     		mov	r0, r4
 702 00a0 FFF7FEFF 		bl	u8x8_cad_EndTransfer
 703              	.LVL26:
 704 00a4 C7E7     		b	.L16
 705              	.LVL27:
 706              	.L11:
 151:..\u8g2_csrc/u8x8_d_pcd8544_84x48.c **** 	}
 707              		.loc 1 151 0
 708 00a6 C5F15406 		rsb	r6, r5, #84
 709 00aa F6B2     		uxtb	r6, r6
 710              	.LVL28:
 711              	.L10:
 153:..\u8g2_csrc/u8x8_d_pcd8544_84x48.c **** 	x += c;
 712              		.loc 1 153 0
 713 00ac 4246     		mov	r2, r8
 714 00ae 3146     		mov	r1, r6
 715 00b0 2046     		mov	r0, r4
 155:..\u8g2_csrc/u8x8_d_pcd8544_84x48.c ****       } while( arg_int > 0 );
 716              		.loc 1 155 0
 717 00b2 013F     		subs	r7, r7, #1
 718              	.LVL29:
 153:..\u8g2_csrc/u8x8_d_pcd8544_84x48.c **** 	x += c;
ARM GAS  C:\Users\info\AppData\Local\Temp\ccvtqJAE.s 			page 47


 719              		.loc 1 153 0
 720 00b4 FFF7FEFF 		bl	u8x8_cad_SendData
 721              	.LVL30:
 154:..\u8g2_csrc/u8x8_d_pcd8544_84x48.c **** 	arg_int--;
 722              		.loc 1 154 0
 723 00b8 3544     		add	r5, r5, r6
 724              	.LVL31:
 156:..\u8g2_csrc/u8x8_d_pcd8544_84x48.c ****       
 725              		.loc 1 156 0
 726 00ba 17F0FF07 		ands	r7, r7, #255
 154:..\u8g2_csrc/u8x8_d_pcd8544_84x48.c **** 	arg_int--;
 727              		.loc 1 154 0
 728 00be EDB2     		uxtb	r5, r5
 729              	.LVL32:
 156:..\u8g2_csrc/u8x8_d_pcd8544_84x48.c ****       
 730              		.loc 1 156 0
 731 00c0 E8D1     		bne	.L12
 732 00c2 ECE7     		b	.L13
 733              	.LVL33:
 734              	.L14:
 161:..\u8g2_csrc/u8x8_d_pcd8544_84x48.c ****   }
 735              		.loc 1 161 0
 736 00c4 0020     		movs	r0, #0
 737              	.LVL34:
 164:..\u8g2_csrc/u8x8_d_pcd8544_84x48.c **** }
 738              		.loc 1 164 0
 739 00c6 BDE8F081 		pop	{r4, r5, r6, r7, r8, pc}
 740              	.LVL35:
 741              	.L20:
 742 00ca 00BF     		.align	2
 743              	.L19:
 744 00cc 00000000 		.word	.LANCHOR0
 745 00d0 18000000 		.word	.LANCHOR0+24
 746 00d4 29000000 		.word	.LANCHOR0+41
 747 00d8 30000000 		.word	.LANCHOR0+48
 748              		.cfi_endproc
 749              	.LFE0:
 750              		.size	u8x8_d_pcd8544_84x48, .-u8x8_d_pcd8544_84x48
 751              		.section	.rodata
 752              		.align	2
 753              		.set	.LANCHOR0,. + 0
 754              		.type	u8x8_pcd8544_84x48_display_info, %object
 755              		.size	u8x8_pcd8544_84x48_display_info, 24
 756              	u8x8_pcd8544_84x48_display_info:
 757 0000 00       		.byte	0
 758 0001 01       		.byte	1
 759 0002 05       		.byte	5
 760 0003 05       		.byte	5
 761 0004 02       		.byte	2
 762 0005 02       		.byte	2
 763 0006 0C       		.byte	12
 764 0007 4B       		.byte	75
 765 0008 00093D00 		.word	4000000
 766 000c 00       		.byte	0
 767 000d 04       		.byte	4
 768 000e 1E       		.byte	30
 769 000f 28       		.byte	40
ARM GAS  C:\Users\info\AppData\Local\Temp\ccvtqJAE.s 			page 48


 770 0010 0B       		.byte	11
 771 0011 06       		.byte	6
 772 0012 00       		.byte	0
 773 0013 00       		.byte	0
 774 0014 5400     		.short	84
 775 0016 3000     		.short	48
 776              		.type	u8x8_d_pcd8544_84x48_init_seq, %object
 777              		.size	u8x8_d_pcd8544_84x48_init_seq, 17
 778              	u8x8_d_pcd8544_84x48_init_seq:
 779 0018 18       		.byte	24
 780 0019 15       		.byte	21
 781 001a 21       		.byte	33
 782 001b 15       		.byte	21
 783 001c 06       		.byte	6
 784 001d 15       		.byte	21
 785 001e 13       		.byte	19
 786 001f 15       		.byte	21
 787 0020 C0       		.byte	-64
 788 0021 15       		.byte	21
 789 0022 20       		.byte	32
 790 0023 15       		.byte	21
 791 0024 08       		.byte	8
 792 0025 15       		.byte	21
 793 0026 24       		.byte	36
 794 0027 19       		.byte	25
 795 0028 FF       		.byte	-1
 796              		.type	u8x8_d_pcd8544_84x48_powersave0_seq, %object
 797              		.size	u8x8_d_pcd8544_84x48_powersave0_seq, 7
 798              	u8x8_d_pcd8544_84x48_powersave0_seq:
 799 0029 18       		.byte	24
 800 002a 15       		.byte	21
 801 002b 20       		.byte	32
 802 002c 15       		.byte	21
 803 002d 0C       		.byte	12
 804 002e 19       		.byte	25
 805 002f FF       		.byte	-1
 806              		.type	u8x8_d_pcd8544_84x48_powersave1_seq, %object
 807              		.size	u8x8_d_pcd8544_84x48_powersave1_seq, 9
 808              	u8x8_d_pcd8544_84x48_powersave1_seq:
 809 0030 18       		.byte	24
 810 0031 15       		.byte	21
 811 0032 20       		.byte	32
 812 0033 15       		.byte	21
 813 0034 08       		.byte	8
 814 0035 15       		.byte	21
 815 0036 24       		.byte	36
 816 0037 19       		.byte	25
 817 0038 FF       		.byte	-1
 818              		.text
 819              	.Letext0:
 820              		.file 2 "c:\\program files (x86)\\cypress\\psoc creator\\4.2\\psoc creator\\import\\gnu\\arm\\5.4.
 821              		.file 3 "c:\\program files (x86)\\cypress\\psoc creator\\4.2\\psoc creator\\import\\gnu\\arm\\5.4.
 822              		.file 4 "..\\u8g2_csrc\\u8x8.h"