ARM GAS  C:\Users\info\AppData\Local\Temp\ccSLnsSK.s 			page 1


   1              		.syntax unified
   2              		.cpu cortex-m3
   3              		.fpu softvfp
   4              		.eabi_attribute 20, 1
   5              		.eabi_attribute 21, 1
   6              		.eabi_attribute 23, 3
   7              		.eabi_attribute 24, 1
   8              		.eabi_attribute 25, 1
   9              		.eabi_attribute 26, 1
  10              		.eabi_attribute 30, 2
  11              		.eabi_attribute 34, 1
  12              		.eabi_attribute 18, 4
  13              		.thumb
  14              		.syntax unified
  15              		.file	"u8x8_8x8.c"
  16              		.text
  17              	.Ltext0:
  18              		.cfi_sections	.debug_frame
  19              		.section	.text.u8x8_upscale_buf,"ax",%progbits
  20              		.align	2
  21              		.thumb
  22              		.thumb_func
  23              		.type	u8x8_upscale_buf, %function
  24              	u8x8_upscale_buf:
  25              	.LFB4:
  26              		.file 1 "..\\u8g2-master\\csrc\\u8x8_8x8.c"
   1:..\u8g2-master\csrc/u8x8_8x8.c **** /*
   2:..\u8g2-master\csrc/u8x8_8x8.c **** 
   3:..\u8g2-master\csrc/u8x8_8x8.c ****   u8x8_8x8.c
   4:..\u8g2-master\csrc/u8x8_8x8.c ****   
   5:..\u8g2-master\csrc/u8x8_8x8.c ****   font procedures, directly interfaces display procedures
   6:..\u8g2-master\csrc/u8x8_8x8.c ****   
   7:..\u8g2-master\csrc/u8x8_8x8.c ****   Universal 8bit Graphics Library (https://github.com/olikraus/u8g2/)
   8:..\u8g2-master\csrc/u8x8_8x8.c **** 
   9:..\u8g2-master\csrc/u8x8_8x8.c ****   Copyright (c) 2016, olikraus@gmail.com
  10:..\u8g2-master\csrc/u8x8_8x8.c ****   All rights reserved.
  11:..\u8g2-master\csrc/u8x8_8x8.c **** 
  12:..\u8g2-master\csrc/u8x8_8x8.c ****   Redistribution and use in source and binary forms, with or without modification, 
  13:..\u8g2-master\csrc/u8x8_8x8.c ****   are permitted provided that the following conditions are met:
  14:..\u8g2-master\csrc/u8x8_8x8.c **** 
  15:..\u8g2-master\csrc/u8x8_8x8.c ****   * Redistributions of source code must retain the above copyright notice, this list 
  16:..\u8g2-master\csrc/u8x8_8x8.c ****     of conditions and the following disclaimer.
  17:..\u8g2-master\csrc/u8x8_8x8.c ****     
  18:..\u8g2-master\csrc/u8x8_8x8.c ****   * Redistributions in binary form must reproduce the above copyright notice, this 
  19:..\u8g2-master\csrc/u8x8_8x8.c ****     list of conditions and the following disclaimer in the documentation and/or other 
  20:..\u8g2-master\csrc/u8x8_8x8.c ****     materials provided with the distribution.
  21:..\u8g2-master\csrc/u8x8_8x8.c **** 
  22:..\u8g2-master\csrc/u8x8_8x8.c ****   THIS SOFTWARE IS PROVIDED BY THE COPYRIGHT HOLDERS AND 
  23:..\u8g2-master\csrc/u8x8_8x8.c ****   CONTRIBUTORS "AS IS" AND ANY EXPRESS OR IMPLIED WARRANTIES, 
  24:..\u8g2-master\csrc/u8x8_8x8.c ****   INCLUDING, BUT NOT LIMITED TO, THE IMPLIED WARRANTIES OF 
  25:..\u8g2-master\csrc/u8x8_8x8.c ****   MERCHANTABILITY AND FITNESS FOR A PARTICULAR PURPOSE ARE 
  26:..\u8g2-master\csrc/u8x8_8x8.c ****   DISCLAIMED. IN NO EVENT SHALL THE COPYRIGHT HOLDER OR 
  27:..\u8g2-master\csrc/u8x8_8x8.c ****   CONTRIBUTORS BE LIABLE FOR ANY DIRECT, INDIRECT, INCIDENTAL, 
  28:..\u8g2-master\csrc/u8x8_8x8.c ****   SPECIAL, EXEMPLARY, OR CONSEQUENTIAL DAMAGES (INCLUDING, BUT 
  29:..\u8g2-master\csrc/u8x8_8x8.c ****   NOT LIMITED TO, PROCUREMENT OF SUBSTITUTE GOODS OR SERVICES; 
  30:..\u8g2-master\csrc/u8x8_8x8.c ****   LOSS OF USE, DATA, OR PROFITS; OR BUSINESS INTERRUPTION) HOWEVER 
  31:..\u8g2-master\csrc/u8x8_8x8.c ****   CAUSED AND ON ANY THEORY OF LIABILITY, WHETHER IN CONTRACT, 
ARM GAS  C:\Users\info\AppData\Local\Temp\ccSLnsSK.s 			page 2


  32:..\u8g2-master\csrc/u8x8_8x8.c ****   STRICT LIABILITY, OR TORT (INCLUDING NEGLIGENCE OR OTHERWISE) 
  33:..\u8g2-master\csrc/u8x8_8x8.c ****   ARISING IN ANY WAY OUT OF THE USE OF THIS SOFTWARE, EVEN IF 
  34:..\u8g2-master\csrc/u8x8_8x8.c ****   ADVISED OF THE POSSIBILITY OF SUCH DAMAGE.    
  35:..\u8g2-master\csrc/u8x8_8x8.c **** 
  36:..\u8g2-master\csrc/u8x8_8x8.c **** */
  37:..\u8g2-master\csrc/u8x8_8x8.c **** 
  38:..\u8g2-master\csrc/u8x8_8x8.c **** #include "u8x8.h"
  39:..\u8g2-master\csrc/u8x8_8x8.c **** 
  40:..\u8g2-master\csrc/u8x8_8x8.c **** #if defined(ESP8266)
  41:..\u8g2-master\csrc/u8x8_8x8.c **** uint8_t u8x8_pgm_read_esp(const uint8_t * addr) 
  42:..\u8g2-master\csrc/u8x8_8x8.c **** {
  43:..\u8g2-master\csrc/u8x8_8x8.c ****     uint32_t bytes;
  44:..\u8g2-master\csrc/u8x8_8x8.c ****     bytes = *(uint32_t*)((uint32_t)addr & ~3);
  45:..\u8g2-master\csrc/u8x8_8x8.c ****     return ((uint8_t*)&bytes)[(uint32_t)addr & 3];
  46:..\u8g2-master\csrc/u8x8_8x8.c **** }
  47:..\u8g2-master\csrc/u8x8_8x8.c **** #endif
  48:..\u8g2-master\csrc/u8x8_8x8.c **** 
  49:..\u8g2-master\csrc/u8x8_8x8.c **** 
  50:..\u8g2-master\csrc/u8x8_8x8.c **** void u8x8_SetFont(u8x8_t *u8x8, const uint8_t *font_8x8)
  51:..\u8g2-master\csrc/u8x8_8x8.c **** {
  52:..\u8g2-master\csrc/u8x8_8x8.c ****   u8x8->font = font_8x8;
  53:..\u8g2-master\csrc/u8x8_8x8.c **** }
  54:..\u8g2-master\csrc/u8x8_8x8.c **** 
  55:..\u8g2-master\csrc/u8x8_8x8.c **** /*
  56:..\u8g2-master\csrc/u8x8_8x8.c ****  Args:
  57:..\u8g2-master\csrc/u8x8_8x8.c ****    u8x8: ptr to u8x8 structure
  58:..\u8g2-master\csrc/u8x8_8x8.c ****    encoding: glyph for which the data is requested (must be between 0 and 255)
  59:..\u8g2-master\csrc/u8x8_8x8.c ****    buf: pointer to 8 bytes
  60:..\u8g2-master\csrc/u8x8_8x8.c **** */
  61:..\u8g2-master\csrc/u8x8_8x8.c **** static void u8x8_get_glyph_data(u8x8_t *u8x8, uint8_t encoding, uint8_t *buf, uint8_t tile_offset) 
  62:..\u8g2-master\csrc/u8x8_8x8.c **** static void u8x8_get_glyph_data(u8x8_t *u8x8, uint8_t encoding, uint8_t *buf, uint8_t tile_offset) 
  63:..\u8g2-master\csrc/u8x8_8x8.c **** {
  64:..\u8g2-master\csrc/u8x8_8x8.c ****   uint8_t first, last, tiles, i;
  65:..\u8g2-master\csrc/u8x8_8x8.c ****   uint16_t offset;
  66:..\u8g2-master\csrc/u8x8_8x8.c ****   first = u8x8_pgm_read(u8x8->font+0);
  67:..\u8g2-master\csrc/u8x8_8x8.c ****   last = u8x8_pgm_read(u8x8->font+1);
  68:..\u8g2-master\csrc/u8x8_8x8.c ****   tiles = u8x8_pgm_read(u8x8->font+2);		/* new 2019 format */
  69:..\u8g2-master\csrc/u8x8_8x8.c ****   tiles *= u8x8_pgm_read(u8x8->font+3);	/* new 2019 format */
  70:..\u8g2-master\csrc/u8x8_8x8.c ****   
  71:..\u8g2-master\csrc/u8x8_8x8.c ****   /* get the glyph bitmap from the font */
  72:..\u8g2-master\csrc/u8x8_8x8.c ****   if ( first <= encoding && encoding <= last )
  73:..\u8g2-master\csrc/u8x8_8x8.c ****   {
  74:..\u8g2-master\csrc/u8x8_8x8.c ****     offset = encoding;
  75:..\u8g2-master\csrc/u8x8_8x8.c ****     offset -= first;
  76:..\u8g2-master\csrc/u8x8_8x8.c ****     offset *= tiles;		/* new 2019 format */
  77:..\u8g2-master\csrc/u8x8_8x8.c ****     offset += tile_offset;	/* new 2019 format */
  78:..\u8g2-master\csrc/u8x8_8x8.c ****     offset *= 8;
  79:..\u8g2-master\csrc/u8x8_8x8.c ****     offset +=4;			/* changed from 2 to 4, new 2019 format */
  80:..\u8g2-master\csrc/u8x8_8x8.c ****     for( i = 0; i < 8; i++ )
  81:..\u8g2-master\csrc/u8x8_8x8.c ****     {
  82:..\u8g2-master\csrc/u8x8_8x8.c ****       buf[i] = u8x8_pgm_read(u8x8->font+offset);
  83:..\u8g2-master\csrc/u8x8_8x8.c ****       offset++;
  84:..\u8g2-master\csrc/u8x8_8x8.c ****     }
  85:..\u8g2-master\csrc/u8x8_8x8.c ****   }
  86:..\u8g2-master\csrc/u8x8_8x8.c ****   else
  87:..\u8g2-master\csrc/u8x8_8x8.c ****   {
  88:..\u8g2-master\csrc/u8x8_8x8.c ****     for( i = 0; i < 8; i++ )
ARM GAS  C:\Users\info\AppData\Local\Temp\ccSLnsSK.s 			page 3


  89:..\u8g2-master\csrc/u8x8_8x8.c ****     {
  90:..\u8g2-master\csrc/u8x8_8x8.c ****       buf[i] = 0;
  91:..\u8g2-master\csrc/u8x8_8x8.c ****     }
  92:..\u8g2-master\csrc/u8x8_8x8.c ****   }
  93:..\u8g2-master\csrc/u8x8_8x8.c ****   
  94:..\u8g2-master\csrc/u8x8_8x8.c ****   /* invert the bitmap if required */
  95:..\u8g2-master\csrc/u8x8_8x8.c ****   if ( u8x8->is_font_inverse_mode )
  96:..\u8g2-master\csrc/u8x8_8x8.c ****   {
  97:..\u8g2-master\csrc/u8x8_8x8.c ****     for( i = 0; i < 8; i++ )
  98:..\u8g2-master\csrc/u8x8_8x8.c ****     {
  99:..\u8g2-master\csrc/u8x8_8x8.c ****       buf[i] ^= 255;
 100:..\u8g2-master\csrc/u8x8_8x8.c ****     }
 101:..\u8g2-master\csrc/u8x8_8x8.c ****   }
 102:..\u8g2-master\csrc/u8x8_8x8.c ****   
 103:..\u8g2-master\csrc/u8x8_8x8.c **** }
 104:..\u8g2-master\csrc/u8x8_8x8.c **** 
 105:..\u8g2-master\csrc/u8x8_8x8.c **** void u8x8_DrawGlyph(u8x8_t *u8x8, uint8_t x, uint8_t y, uint8_t encoding)
 106:..\u8g2-master\csrc/u8x8_8x8.c **** {
 107:..\u8g2-master\csrc/u8x8_8x8.c ****   uint8_t th = u8x8_pgm_read(u8x8->font+2);		/* new 2019 format */
 108:..\u8g2-master\csrc/u8x8_8x8.c ****   uint8_t tv = u8x8_pgm_read(u8x8->font+3);	/* new 2019 format */
 109:..\u8g2-master\csrc/u8x8_8x8.c ****   uint8_t xx, tile;
 110:..\u8g2-master\csrc/u8x8_8x8.c ****   uint8_t buf[8];
 111:..\u8g2-master\csrc/u8x8_8x8.c ****   th += x;
 112:..\u8g2-master\csrc/u8x8_8x8.c ****   tv += y;
 113:..\u8g2-master\csrc/u8x8_8x8.c ****   tile = 0;
 114:..\u8g2-master\csrc/u8x8_8x8.c ****   do
 115:..\u8g2-master\csrc/u8x8_8x8.c ****   {
 116:..\u8g2-master\csrc/u8x8_8x8.c ****     xx = x;
 117:..\u8g2-master\csrc/u8x8_8x8.c ****     do
 118:..\u8g2-master\csrc/u8x8_8x8.c ****     {
 119:..\u8g2-master\csrc/u8x8_8x8.c ****       u8x8_get_glyph_data(u8x8, encoding, buf, tile);
 120:..\u8g2-master\csrc/u8x8_8x8.c ****       u8x8_DrawTile(u8x8, xx, y, 1, buf);
 121:..\u8g2-master\csrc/u8x8_8x8.c ****       tile++;
 122:..\u8g2-master\csrc/u8x8_8x8.c ****       xx++;
 123:..\u8g2-master\csrc/u8x8_8x8.c ****     } while( xx < th );
 124:..\u8g2-master\csrc/u8x8_8x8.c ****     y++;
 125:..\u8g2-master\csrc/u8x8_8x8.c ****   } while( y < tv );
 126:..\u8g2-master\csrc/u8x8_8x8.c **** }
 127:..\u8g2-master\csrc/u8x8_8x8.c **** 
 128:..\u8g2-master\csrc/u8x8_8x8.c **** 
 129:..\u8g2-master\csrc/u8x8_8x8.c **** /*
 130:..\u8g2-master\csrc/u8x8_8x8.c ****   Source: http://graphics.stanford.edu/~seander/bithacks.html
 131:..\u8g2-master\csrc/u8x8_8x8.c **** 	Section: Interleave bits by Binary Magic Numbers 
 132:..\u8g2-master\csrc/u8x8_8x8.c ****    Original codes is here:
 133:..\u8g2-master\csrc/u8x8_8x8.c **** 		static const unsigned int B[] = {0x55555555, 0x33333333, 0x0F0F0F0F, 0x00FF00FF};
 134:..\u8g2-master\csrc/u8x8_8x8.c **** 		static const unsigned int S[] = {1, 2, 4, 8};
 135:..\u8g2-master\csrc/u8x8_8x8.c **** 
 136:..\u8g2-master\csrc/u8x8_8x8.c **** 		unsigned int x; // Interleave lower 16 bits of x and y, so the bits of x
 137:..\u8g2-master\csrc/u8x8_8x8.c **** 		unsigned int y; // are in the even positions and bits from y in the odd;
 138:..\u8g2-master\csrc/u8x8_8x8.c **** 		unsigned int z; // z gets the resulting 32-bit Morton Number.  
 139:..\u8g2-master\csrc/u8x8_8x8.c **** 				// x and y must initially be less than 65536.
 140:..\u8g2-master\csrc/u8x8_8x8.c **** 
 141:..\u8g2-master\csrc/u8x8_8x8.c **** 		x = (x | (x << S[3])) & B[3];
 142:..\u8g2-master\csrc/u8x8_8x8.c **** 		x = (x | (x << S[2])) & B[2];
 143:..\u8g2-master\csrc/u8x8_8x8.c **** 		x = (x | (x << S[1])) & B[1];
 144:..\u8g2-master\csrc/u8x8_8x8.c **** 		x = (x | (x << S[0])) & B[0];
 145:..\u8g2-master\csrc/u8x8_8x8.c **** 
ARM GAS  C:\Users\info\AppData\Local\Temp\ccSLnsSK.s 			page 4


 146:..\u8g2-master\csrc/u8x8_8x8.c **** 		y = (y | (y << S[3])) & B[3];
 147:..\u8g2-master\csrc/u8x8_8x8.c **** 		y = (y | (y << S[2])) & B[2];
 148:..\u8g2-master\csrc/u8x8_8x8.c **** 		y = (y | (y << S[1])) & B[1];
 149:..\u8g2-master\csrc/u8x8_8x8.c **** 		y = (y | (y << S[0])) & B[0];
 150:..\u8g2-master\csrc/u8x8_8x8.c **** 
 151:..\u8g2-master\csrc/u8x8_8x8.c **** 		z = x | (y << 1);
 152:..\u8g2-master\csrc/u8x8_8x8.c **** */
 153:..\u8g2-master\csrc/u8x8_8x8.c **** uint16_t u8x8_upscale_byte(uint8_t x) 
 154:..\u8g2-master\csrc/u8x8_8x8.c **** {
 155:..\u8g2-master\csrc/u8x8_8x8.c **** 	uint16_t y = x;
 156:..\u8g2-master\csrc/u8x8_8x8.c **** 	y |= (y << 4);		// x = (x | (x << S[2])) & B[2];
 157:..\u8g2-master\csrc/u8x8_8x8.c **** 	y &= 0x0f0f;
 158:..\u8g2-master\csrc/u8x8_8x8.c **** 	y |= (y << 2);		// x = (x | (x << S[1])) & B[1];
 159:..\u8g2-master\csrc/u8x8_8x8.c **** 	y &= 0x3333;
 160:..\u8g2-master\csrc/u8x8_8x8.c **** 	y |= (y << 1);		// x = (x | (x << S[0])) & B[0];
 161:..\u8g2-master\csrc/u8x8_8x8.c **** 	y &= 0x5555;
 162:..\u8g2-master\csrc/u8x8_8x8.c ****   
 163:..\u8g2-master\csrc/u8x8_8x8.c **** 	y |= (y << 1);		// z = x | (y << 1);
 164:..\u8g2-master\csrc/u8x8_8x8.c **** 	return y;
 165:..\u8g2-master\csrc/u8x8_8x8.c **** }
 166:..\u8g2-master\csrc/u8x8_8x8.c **** 
 167:..\u8g2-master\csrc/u8x8_8x8.c **** static void u8x8_upscale_buf(uint8_t *src, uint8_t *dest) U8X8_NOINLINE;
 168:..\u8g2-master\csrc/u8x8_8x8.c **** static void u8x8_upscale_buf(uint8_t *src, uint8_t *dest)
 169:..\u8g2-master\csrc/u8x8_8x8.c **** {
  27              		.loc 1 169 0
  28              		.cfi_startproc
  29              		@ args = 0, pretend = 0, frame = 0
  30              		@ frame_needed = 0, uses_anonymous_args = 0
  31              		@ link register save eliminated.
  32              	.LVL0:
 170:..\u8g2-master\csrc/u8x8_8x8.c ****   uint8_t i = 4;  
 171:..\u8g2-master\csrc/u8x8_8x8.c ****   do 
 172:..\u8g2-master\csrc/u8x8_8x8.c ****   {
 173:..\u8g2-master\csrc/u8x8_8x8.c ****     *dest++ = *src;
  33              		.loc 1 173 0
  34 0000 0378     		ldrb	r3, [r0]	@ zero_extendqisi2
  35 0002 0B70     		strb	r3, [r1]
  36              	.LVL1:
 174:..\u8g2-master\csrc/u8x8_8x8.c ****     *dest++ = *src++;
  37              		.loc 1 174 0
  38 0004 0378     		ldrb	r3, [r0]	@ zero_extendqisi2
  39 0006 4B70     		strb	r3, [r1, #1]
  40              	.LVL2:
 173:..\u8g2-master\csrc/u8x8_8x8.c ****     *dest++ = *src++;
  41              		.loc 1 173 0
  42 0008 4378     		ldrb	r3, [r0, #1]	@ zero_extendqisi2
  43 000a 8B70     		strb	r3, [r1, #2]
  44              	.LVL3:
  45              		.loc 1 174 0
  46 000c 4378     		ldrb	r3, [r0, #1]	@ zero_extendqisi2
  47 000e CB70     		strb	r3, [r1, #3]
  48              	.LVL4:
 173:..\u8g2-master\csrc/u8x8_8x8.c ****     *dest++ = *src++;
  49              		.loc 1 173 0
  50 0010 8378     		ldrb	r3, [r0, #2]	@ zero_extendqisi2
  51 0012 0B71     		strb	r3, [r1, #4]
  52              	.LVL5:
ARM GAS  C:\Users\info\AppData\Local\Temp\ccSLnsSK.s 			page 5


  53              		.loc 1 174 0
  54 0014 8378     		ldrb	r3, [r0, #2]	@ zero_extendqisi2
  55 0016 4B71     		strb	r3, [r1, #5]
  56              	.LVL6:
 173:..\u8g2-master\csrc/u8x8_8x8.c ****     *dest++ = *src++;
  57              		.loc 1 173 0
  58 0018 C378     		ldrb	r3, [r0, #3]	@ zero_extendqisi2
  59 001a 8B71     		strb	r3, [r1, #6]
  60              	.LVL7:
  61              		.loc 1 174 0
  62 001c C378     		ldrb	r3, [r0, #3]	@ zero_extendqisi2
  63 001e CB71     		strb	r3, [r1, #7]
  64 0020 7047     		bx	lr
  65              		.cfi_endproc
  66              	.LFE4:
  67              		.size	u8x8_upscale_buf, .-u8x8_upscale_buf
  68 0022 00BF     		.section	.text.u8x8_ascii_next,"ax",%progbits
  69              		.align	2
  70              		.global	u8x8_ascii_next
  71              		.thumb
  72              		.thumb_func
  73              		.type	u8x8_ascii_next, %function
  74              	u8x8_ascii_next:
  75              	.LFB10:
 175:..\u8g2-master\csrc/u8x8_8x8.c ****     i--;
 176:..\u8g2-master\csrc/u8x8_8x8.c ****   } while( i > 0 );
 177:..\u8g2-master\csrc/u8x8_8x8.c **** }
 178:..\u8g2-master\csrc/u8x8_8x8.c **** 
 179:..\u8g2-master\csrc/u8x8_8x8.c **** static void u8x8_draw_2x2_subglyph(u8x8_t *u8x8, uint8_t x, uint8_t y, uint8_t encoding, uint8_t ti
 180:..\u8g2-master\csrc/u8x8_8x8.c **** {
 181:..\u8g2-master\csrc/u8x8_8x8.c ****   uint8_t i;
 182:..\u8g2-master\csrc/u8x8_8x8.c ****   uint16_t t;
 183:..\u8g2-master\csrc/u8x8_8x8.c ****   uint8_t buf[8];
 184:..\u8g2-master\csrc/u8x8_8x8.c ****   uint8_t buf1[8];
 185:..\u8g2-master\csrc/u8x8_8x8.c ****   uint8_t buf2[8];
 186:..\u8g2-master\csrc/u8x8_8x8.c ****   u8x8_get_glyph_data(u8x8, encoding, buf, tile);
 187:..\u8g2-master\csrc/u8x8_8x8.c ****   for( i = 0; i < 8; i ++ )
 188:..\u8g2-master\csrc/u8x8_8x8.c ****   {
 189:..\u8g2-master\csrc/u8x8_8x8.c ****       t = u8x8_upscale_byte(buf[i]);
 190:..\u8g2-master\csrc/u8x8_8x8.c ****       buf1[i] = t >> 8;
 191:..\u8g2-master\csrc/u8x8_8x8.c ****       buf2[i] = t & 255;
 192:..\u8g2-master\csrc/u8x8_8x8.c ****   }
 193:..\u8g2-master\csrc/u8x8_8x8.c ****   u8x8_upscale_buf(buf2, buf);
 194:..\u8g2-master\csrc/u8x8_8x8.c ****   u8x8_DrawTile(u8x8, x, y, 1, buf);
 195:..\u8g2-master\csrc/u8x8_8x8.c ****   
 196:..\u8g2-master\csrc/u8x8_8x8.c ****   u8x8_upscale_buf(buf2+4, buf);
 197:..\u8g2-master\csrc/u8x8_8x8.c ****   u8x8_DrawTile(u8x8, x+1, y, 1, buf);
 198:..\u8g2-master\csrc/u8x8_8x8.c ****   
 199:..\u8g2-master\csrc/u8x8_8x8.c ****   u8x8_upscale_buf(buf1, buf);
 200:..\u8g2-master\csrc/u8x8_8x8.c ****   u8x8_DrawTile(u8x8, x, y+1, 1, buf);
 201:..\u8g2-master\csrc/u8x8_8x8.c ****   
 202:..\u8g2-master\csrc/u8x8_8x8.c ****   u8x8_upscale_buf(buf1+4, buf);
 203:..\u8g2-master\csrc/u8x8_8x8.c ****   u8x8_DrawTile(u8x8, x+1, y+1, 1, buf);  
 204:..\u8g2-master\csrc/u8x8_8x8.c **** }
 205:..\u8g2-master\csrc/u8x8_8x8.c **** 
 206:..\u8g2-master\csrc/u8x8_8x8.c **** 
 207:..\u8g2-master\csrc/u8x8_8x8.c **** void u8x8_Draw2x2Glyph(u8x8_t *u8x8, uint8_t x, uint8_t y, uint8_t encoding)
ARM GAS  C:\Users\info\AppData\Local\Temp\ccSLnsSK.s 			page 6


 208:..\u8g2-master\csrc/u8x8_8x8.c **** {
 209:..\u8g2-master\csrc/u8x8_8x8.c ****   uint8_t th = u8x8_pgm_read(u8x8->font+2);		/* new 2019 format */
 210:..\u8g2-master\csrc/u8x8_8x8.c ****   uint8_t tv = u8x8_pgm_read(u8x8->font+3);	/* new 2019 format */
 211:..\u8g2-master\csrc/u8x8_8x8.c ****   uint8_t xx, tile;
 212:..\u8g2-master\csrc/u8x8_8x8.c ****   th *= 2;
 213:..\u8g2-master\csrc/u8x8_8x8.c ****   th += x;
 214:..\u8g2-master\csrc/u8x8_8x8.c ****   tv *= 2;
 215:..\u8g2-master\csrc/u8x8_8x8.c ****   tv += y;
 216:..\u8g2-master\csrc/u8x8_8x8.c ****   tile = 0;
 217:..\u8g2-master\csrc/u8x8_8x8.c ****   do
 218:..\u8g2-master\csrc/u8x8_8x8.c ****   {
 219:..\u8g2-master\csrc/u8x8_8x8.c ****     xx = x;
 220:..\u8g2-master\csrc/u8x8_8x8.c ****     do
 221:..\u8g2-master\csrc/u8x8_8x8.c ****     {
 222:..\u8g2-master\csrc/u8x8_8x8.c ****       u8x8_draw_2x2_subglyph(u8x8, xx, y, encoding, tile);
 223:..\u8g2-master\csrc/u8x8_8x8.c ****       tile++;
 224:..\u8g2-master\csrc/u8x8_8x8.c ****       xx+=2;
 225:..\u8g2-master\csrc/u8x8_8x8.c ****     } while( xx < th );
 226:..\u8g2-master\csrc/u8x8_8x8.c ****     y+=2;
 227:..\u8g2-master\csrc/u8x8_8x8.c ****   } while( y < tv );  
 228:..\u8g2-master\csrc/u8x8_8x8.c **** }
 229:..\u8g2-master\csrc/u8x8_8x8.c **** 
 230:..\u8g2-master\csrc/u8x8_8x8.c **** /* https://github.com/olikraus/u8g2/issues/474 */
 231:..\u8g2-master\csrc/u8x8_8x8.c **** static void u8x8_draw_1x2_subglyph(u8x8_t *u8x8, uint8_t x, uint8_t y, uint8_t encoding, uint8_t ti
 232:..\u8g2-master\csrc/u8x8_8x8.c **** {
 233:..\u8g2-master\csrc/u8x8_8x8.c ****   uint8_t i;
 234:..\u8g2-master\csrc/u8x8_8x8.c ****   uint16_t t;
 235:..\u8g2-master\csrc/u8x8_8x8.c ****   uint8_t buf[8];
 236:..\u8g2-master\csrc/u8x8_8x8.c ****   uint8_t buf1[8];
 237:..\u8g2-master\csrc/u8x8_8x8.c ****   uint8_t buf2[8];
 238:..\u8g2-master\csrc/u8x8_8x8.c ****   u8x8_get_glyph_data(u8x8, encoding, buf, tile);
 239:..\u8g2-master\csrc/u8x8_8x8.c ****   for( i = 0; i < 8; i ++ )
 240:..\u8g2-master\csrc/u8x8_8x8.c ****   {
 241:..\u8g2-master\csrc/u8x8_8x8.c ****       t = u8x8_upscale_byte(buf[i]);
 242:..\u8g2-master\csrc/u8x8_8x8.c ****       buf1[i] = t >> 8;
 243:..\u8g2-master\csrc/u8x8_8x8.c ****       buf2[i] = t & 255;
 244:..\u8g2-master\csrc/u8x8_8x8.c ****   }
 245:..\u8g2-master\csrc/u8x8_8x8.c ****   u8x8_DrawTile(u8x8, x,   y, 1, buf2);
 246:..\u8g2-master\csrc/u8x8_8x8.c ****   u8x8_DrawTile(u8x8, x, y+1, 1, buf1);
 247:..\u8g2-master\csrc/u8x8_8x8.c **** }
 248:..\u8g2-master\csrc/u8x8_8x8.c **** 
 249:..\u8g2-master\csrc/u8x8_8x8.c **** void u8x8_Draw1x2Glyph(u8x8_t *u8x8, uint8_t x, uint8_t y, uint8_t encoding)
 250:..\u8g2-master\csrc/u8x8_8x8.c **** {
 251:..\u8g2-master\csrc/u8x8_8x8.c ****   uint8_t th = u8x8_pgm_read(u8x8->font+2);		/* new 2019 format */
 252:..\u8g2-master\csrc/u8x8_8x8.c ****   uint8_t tv = u8x8_pgm_read(u8x8->font+3);	/* new 2019 format */
 253:..\u8g2-master\csrc/u8x8_8x8.c ****   uint8_t xx, tile;
 254:..\u8g2-master\csrc/u8x8_8x8.c ****   th += x;
 255:..\u8g2-master\csrc/u8x8_8x8.c ****   tv *= 2;
 256:..\u8g2-master\csrc/u8x8_8x8.c ****   tv += y;
 257:..\u8g2-master\csrc/u8x8_8x8.c ****   tile = 0;
 258:..\u8g2-master\csrc/u8x8_8x8.c ****   do
 259:..\u8g2-master\csrc/u8x8_8x8.c ****   {
 260:..\u8g2-master\csrc/u8x8_8x8.c ****     xx = x;
 261:..\u8g2-master\csrc/u8x8_8x8.c ****     do
 262:..\u8g2-master\csrc/u8x8_8x8.c ****     {
 263:..\u8g2-master\csrc/u8x8_8x8.c ****       u8x8_draw_1x2_subglyph(u8x8, xx, y, encoding, tile);
 264:..\u8g2-master\csrc/u8x8_8x8.c ****       tile++;
ARM GAS  C:\Users\info\AppData\Local\Temp\ccSLnsSK.s 			page 7


 265:..\u8g2-master\csrc/u8x8_8x8.c ****       xx++;
 266:..\u8g2-master\csrc/u8x8_8x8.c ****     } while( xx < th );
 267:..\u8g2-master\csrc/u8x8_8x8.c ****     y+=2;
 268:..\u8g2-master\csrc/u8x8_8x8.c ****   } while( y < tv );  
 269:..\u8g2-master\csrc/u8x8_8x8.c **** }
 270:..\u8g2-master\csrc/u8x8_8x8.c **** 
 271:..\u8g2-master\csrc/u8x8_8x8.c **** /*
 272:..\u8g2-master\csrc/u8x8_8x8.c **** source: https://en.wikipedia.org/wiki/UTF-8
 273:..\u8g2-master\csrc/u8x8_8x8.c **** Bits	from 		to			bytes	Byte 1 		Byte 2 		Byte 3 		Byte 4 		Byte 5 		Byte 6
 274:..\u8g2-master\csrc/u8x8_8x8.c ****   7 	U+0000 		U+007F 		1 		0xxxxxxx
 275:..\u8g2-master\csrc/u8x8_8x8.c **** 11 	U+0080 		U+07FF 		2 		110xxxxx 	10xxxxxx
 276:..\u8g2-master\csrc/u8x8_8x8.c **** 16 	U+0800 		U+FFFF 		3 		1110xxxx 	10xxxxxx 	10xxxxxx
 277:..\u8g2-master\csrc/u8x8_8x8.c **** 21 	U+10000 	U+1FFFFF 	4 		11110xxx 	10xxxxxx 	10xxxxxx 	10xxxxxx
 278:..\u8g2-master\csrc/u8x8_8x8.c **** 26 	U+200000 	U+3FFFFFF 	5 		111110xx 	10xxxxxx 	10xxxxxx 	10xxxxxx 	10xxxxxx
 279:..\u8g2-master\csrc/u8x8_8x8.c **** 31 	U+4000000 	U+7FFFFFFF 	6 		1111110x 	10xxxxxx 	10xxxxxx 	10xxxxxx 	10xxxxxx 	10xxxxxx  
 280:..\u8g2-master\csrc/u8x8_8x8.c **** 
 281:..\u8g2-master\csrc/u8x8_8x8.c **** 
 282:..\u8g2-master\csrc/u8x8_8x8.c **** */
 283:..\u8g2-master\csrc/u8x8_8x8.c **** 
 284:..\u8g2-master\csrc/u8x8_8x8.c **** /* reset the internal state machine */
 285:..\u8g2-master\csrc/u8x8_8x8.c **** void u8x8_utf8_init(u8x8_t *u8x8)
 286:..\u8g2-master\csrc/u8x8_8x8.c **** {
 287:..\u8g2-master\csrc/u8x8_8x8.c ****   u8x8->utf8_state = 0;	/* also reset during u8x8_SetupDefaults() */
 288:..\u8g2-master\csrc/u8x8_8x8.c **** }
 289:..\u8g2-master\csrc/u8x8_8x8.c **** 
 290:..\u8g2-master\csrc/u8x8_8x8.c **** uint16_t u8x8_ascii_next(U8X8_UNUSED u8x8_t *u8x8, uint8_t b)
 291:..\u8g2-master\csrc/u8x8_8x8.c **** {
  76              		.loc 1 291 0
  77              		.cfi_startproc
  78              		@ args = 0, pretend = 0, frame = 0
  79              		@ frame_needed = 0, uses_anonymous_args = 0
  80              		@ link register save eliminated.
  81              	.LVL8:
 292:..\u8g2-master\csrc/u8x8_8x8.c ****   if ( b == 0 || b == '\n' ) /* '\n' terminates the string to support the string list procedures */
  82              		.loc 1 292 0
  83 0000 11B9     		cbnz	r1, .L7
  84              	.L5:
 293:..\u8g2-master\csrc/u8x8_8x8.c ****     return 0x0ffff;	/* end of string detected*/
  85              		.loc 1 293 0
  86 0002 4FF6FF70 		movw	r0, #65535
  87              	.LVL9:
 294:..\u8g2-master\csrc/u8x8_8x8.c ****   return b;
 295:..\u8g2-master\csrc/u8x8_8x8.c **** }
  88              		.loc 1 295 0
  89 0006 7047     		bx	lr
  90              	.LVL10:
  91              	.L7:
 292:..\u8g2-master\csrc/u8x8_8x8.c ****     return 0x0ffff;	/* end of string detected*/
  92              		.loc 1 292 0 discriminator 1
  93 0008 0A29     		cmp	r1, #10
  94 000a FAD0     		beq	.L5
 294:..\u8g2-master\csrc/u8x8_8x8.c ****   return b;
  95              		.loc 1 294 0
  96 000c 88B2     		uxth	r0, r1
  97              	.LVL11:
  98 000e 7047     		bx	lr
  99              		.cfi_endproc
ARM GAS  C:\Users\info\AppData\Local\Temp\ccSLnsSK.s 			page 8


 100              	.LFE10:
 101              		.size	u8x8_ascii_next, .-u8x8_ascii_next
 102              		.section	.text.u8x8_get_glyph_data.isra.0,"ax",%progbits
 103              		.align	2
 104              		.thumb
 105              		.thumb_func
 106              		.type	u8x8_get_glyph_data.isra.0, %function
 107              	u8x8_get_glyph_data.isra.0:
 108              	.LFB22:
  62:..\u8g2-master\csrc/u8x8_8x8.c **** {
 109              		.loc 1 62 0
 110              		.cfi_startproc
 111              		@ args = 4, pretend = 0, frame = 0
 112              		@ frame_needed = 0, uses_anonymous_args = 0
 113              	.LVL12:
 114 0000 F0B5     		push	{r4, r5, r6, r7, lr}
 115              		.cfi_def_cfa_offset 20
 116              		.cfi_offset 4, -20
 117              		.cfi_offset 5, -16
 118              		.cfi_offset 6, -12
 119              		.cfi_offset 7, -8
 120              		.cfi_offset 14, -4
  66:..\u8g2-master\csrc/u8x8_8x8.c ****   last = u8x8_pgm_read(u8x8->font+1);
 121              		.loc 1 66 0
 122 0002 0568     		ldr	r5, [r0]
  62:..\u8g2-master\csrc/u8x8_8x8.c **** {
 123              		.loc 1 62 0
 124 0004 9DF81470 		ldrb	r7, [sp, #20]	@ zero_extendqisi2
  66:..\u8g2-master\csrc/u8x8_8x8.c ****   last = u8x8_pgm_read(u8x8->font+1);
 125              		.loc 1 66 0
 126 0008 2E78     		ldrb	r6, [r5]	@ zero_extendqisi2
 127              	.LVL13:
  72:..\u8g2-master\csrc/u8x8_8x8.c ****   {
 128              		.loc 1 72 0
 129 000a 9642     		cmp	r6, r2
 130 000c 02D8     		bhi	.L9
 131 000e 6C78     		ldrb	r4, [r5, #1]	@ zero_extendqisi2
 132 0010 9442     		cmp	r4, r2
 133 0012 0BD2     		bcs	.L10
 134              	.L9:
 135 0014 0022     		movs	r2, #0
 136              	.LVL14:
 137 0016 1A60     		str	r2, [r3]
 138              	.LVL15:
 139 0018 5A60     		str	r2, [r3, #4]
 140              	.L11:
  95:..\u8g2-master\csrc/u8x8_8x8.c ****   {
 141              		.loc 1 95 0
 142 001a 0A78     		ldrb	r2, [r1]	@ zero_extendqisi2
 143 001c 2AB1     		cbz	r2, .L8
  99:..\u8g2-master\csrc/u8x8_8x8.c ****     }
 144              		.loc 1 99 0
 145 001e 93E80600 		ldmia	r3, {r1, r2}
 146 0022 C943     		mvns	r1, r1
 147 0024 D243     		mvns	r2, r2
 148 0026 83E80600 		stmia	r3, {r1, r2}
 149              	.LVL16:
ARM GAS  C:\Users\info\AppData\Local\Temp\ccSLnsSK.s 			page 9


 150              	.L8:
 151 002a F0BD     		pop	{r4, r5, r6, r7, pc}
 152              	.LVL17:
 153              	.L10:
  68:..\u8g2-master\csrc/u8x8_8x8.c ****   tiles *= u8x8_pgm_read(u8x8->font+3);	/* new 2019 format */
 154              		.loc 1 68 0
 155 002c 95F802E0 		ldrb	lr, [r5, #2]	@ zero_extendqisi2
  76:..\u8g2-master\csrc/u8x8_8x8.c ****     offset += tile_offset;	/* new 2019 format */
 156              		.loc 1 76 0
 157 0030 EC78     		ldrb	r4, [r5, #3]	@ zero_extendqisi2
  75:..\u8g2-master\csrc/u8x8_8x8.c ****     offset *= tiles;		/* new 2019 format */
 158              		.loc 1 75 0
 159 0032 921B     		subs	r2, r2, r6
 160              	.LVL18:
  76:..\u8g2-master\csrc/u8x8_8x8.c ****     offset += tile_offset;	/* new 2019 format */
 161              		.loc 1 76 0
 162 0034 04FB0EF4 		mul	r4, r4, lr
 163 0038 E4B2     		uxtb	r4, r4
 164              	.LVL19:
  77:..\u8g2-master\csrc/u8x8_8x8.c ****     offset *= 8;
 165              		.loc 1 77 0
 166 003a 02FB0472 		mla	r2, r2, r4, r7
 167              	.LVL20:
 168 003e 92B2     		uxth	r2, r2
 169              	.LVL21:
  78:..\u8g2-master\csrc/u8x8_8x8.c ****     offset +=4;			/* changed from 2 to 4, new 2019 format */
 170              		.loc 1 78 0
 171 0040 D200     		lsls	r2, r2, #3
 172              	.LVL22:
 173 0042 92B2     		uxth	r2, r2
 174              	.LVL23:
  82:..\u8g2-master\csrc/u8x8_8x8.c ****       offset++;
 175              		.loc 1 82 0
 176 0044 141D     		adds	r4, r2, #4
 177 0046 A4B2     		uxth	r4, r4
 178 0048 2D5D     		ldrb	r5, [r5, r4]	@ zero_extendqisi2
 179              	.LVL24:
 180 004a 541D     		adds	r4, r2, #5
 181 004c 1D70     		strb	r5, [r3]
 182              	.LVL25:
 183 004e 0568     		ldr	r5, [r0]
 184 0050 A4B2     		uxth	r4, r4
 185 0052 2D5D     		ldrb	r5, [r5, r4]	@ zero_extendqisi2
 186 0054 941D     		adds	r4, r2, #6
 187 0056 5D70     		strb	r5, [r3, #1]
 188              	.LVL26:
 189 0058 0568     		ldr	r5, [r0]
 190 005a A4B2     		uxth	r4, r4
 191 005c 2D5D     		ldrb	r5, [r5, r4]	@ zero_extendqisi2
 192 005e D41D     		adds	r4, r2, #7
 193 0060 9D70     		strb	r5, [r3, #2]
 194              	.LVL27:
 195 0062 0568     		ldr	r5, [r0]
 196 0064 A4B2     		uxth	r4, r4
 197 0066 2D5D     		ldrb	r5, [r5, r4]	@ zero_extendqisi2
 198 0068 02F10804 		add	r4, r2, #8
 199 006c DD70     		strb	r5, [r3, #3]
ARM GAS  C:\Users\info\AppData\Local\Temp\ccSLnsSK.s 			page 10


 200              	.LVL28:
 201 006e 0568     		ldr	r5, [r0]
 202 0070 A4B2     		uxth	r4, r4
 203 0072 2D5D     		ldrb	r5, [r5, r4]	@ zero_extendqisi2
 204 0074 02F10904 		add	r4, r2, #9
 205 0078 1D71     		strb	r5, [r3, #4]
 206              	.LVL29:
 207 007a 0568     		ldr	r5, [r0]
 208 007c A4B2     		uxth	r4, r4
 209 007e 2D5D     		ldrb	r5, [r5, r4]	@ zero_extendqisi2
 210 0080 02F10A04 		add	r4, r2, #10
 211 0084 5D71     		strb	r5, [r3, #5]
 212              	.LVL30:
 213 0086 0568     		ldr	r5, [r0]
 214 0088 A4B2     		uxth	r4, r4
 215 008a 2C5D     		ldrb	r4, [r5, r4]	@ zero_extendqisi2
 216 008c 0B32     		adds	r2, r2, #11
 217              	.LVL31:
 218 008e 9C71     		strb	r4, [r3, #6]
 219              	.LVL32:
 220 0090 0068     		ldr	r0, [r0]
 221 0092 92B2     		uxth	r2, r2
 222              	.LVL33:
 223 0094 825C     		ldrb	r2, [r0, r2]	@ zero_extendqisi2
 224 0096 DA71     		strb	r2, [r3, #7]
 225              	.LVL34:
 226 0098 BFE7     		b	.L11
 227              		.cfi_endproc
 228              	.LFE22:
 229              		.size	u8x8_get_glyph_data.isra.0, .-u8x8_get_glyph_data.isra.0
 230 009a 00BF     		.section	.text.u8x8_utf8_next,"ax",%progbits
 231              		.align	2
 232              		.global	u8x8_utf8_next
 233              		.thumb
 234              		.thumb_func
 235              		.type	u8x8_utf8_next, %function
 236              	u8x8_utf8_next:
 237              	.LFB11:
 296:..\u8g2-master\csrc/u8x8_8x8.c **** 
 297:..\u8g2-master\csrc/u8x8_8x8.c **** /*
 298:..\u8g2-master\csrc/u8x8_8x8.c ****   pass a byte from an utf8 encoded string to the utf8 decoder state machine
 299:..\u8g2-master\csrc/u8x8_8x8.c ****   returns 
 300:..\u8g2-master\csrc/u8x8_8x8.c ****     0x0fffe: no glyph, just continue
 301:..\u8g2-master\csrc/u8x8_8x8.c ****     0x0ffff: end of string
 302:..\u8g2-master\csrc/u8x8_8x8.c ****     anything else: The decoded encoding
 303:..\u8g2-master\csrc/u8x8_8x8.c **** */
 304:..\u8g2-master\csrc/u8x8_8x8.c **** uint16_t u8x8_utf8_next(u8x8_t *u8x8, uint8_t b)
 305:..\u8g2-master\csrc/u8x8_8x8.c **** {
 238              		.loc 1 305 0
 239              		.cfi_startproc
 240              		@ args = 0, pretend = 0, frame = 0
 241              		@ frame_needed = 0, uses_anonymous_args = 0
 242              		@ link register save eliminated.
 243              	.LVL35:
 306:..\u8g2-master\csrc/u8x8_8x8.c ****   if ( b == 0 || b == '\n' )	/* '\n' terminates the string to support the string list procedures */
 244              		.loc 1 306 0
 245 0000 19B9     		cbnz	r1, .L29
ARM GAS  C:\Users\info\AppData\Local\Temp\ccSLnsSK.s 			page 11


 246              	.L25:
 307:..\u8g2-master\csrc/u8x8_8x8.c ****     return 0x0ffff;	/* end of string detected, pending UTF8 is discarded */
 247              		.loc 1 307 0
 248 0002 4FF6FF71 		movw	r1, #65535
 249              	.LVL36:
 250              	.L28:
 308:..\u8g2-master\csrc/u8x8_8x8.c ****   if ( u8x8->utf8_state == 0 )
 309:..\u8g2-master\csrc/u8x8_8x8.c ****   {
 310:..\u8g2-master\csrc/u8x8_8x8.c ****     if ( b >= 0xfc )	/* 6 byte sequence */
 311:..\u8g2-master\csrc/u8x8_8x8.c ****     {
 312:..\u8g2-master\csrc/u8x8_8x8.c ****       u8x8->utf8_state = 5;
 313:..\u8g2-master\csrc/u8x8_8x8.c ****       b &= 1;
 314:..\u8g2-master\csrc/u8x8_8x8.c ****     }
 315:..\u8g2-master\csrc/u8x8_8x8.c ****     else if ( b >= 0xf8 )
 316:..\u8g2-master\csrc/u8x8_8x8.c ****     {
 317:..\u8g2-master\csrc/u8x8_8x8.c ****       u8x8->utf8_state = 4;
 318:..\u8g2-master\csrc/u8x8_8x8.c ****       b &= 3;
 319:..\u8g2-master\csrc/u8x8_8x8.c ****     }
 320:..\u8g2-master\csrc/u8x8_8x8.c ****     else if ( b >= 0xf0 )
 321:..\u8g2-master\csrc/u8x8_8x8.c ****     {
 322:..\u8g2-master\csrc/u8x8_8x8.c ****       u8x8->utf8_state = 3;
 323:..\u8g2-master\csrc/u8x8_8x8.c ****       b &= 7;      
 324:..\u8g2-master\csrc/u8x8_8x8.c ****     }
 325:..\u8g2-master\csrc/u8x8_8x8.c ****     else if ( b >= 0xe0 )
 326:..\u8g2-master\csrc/u8x8_8x8.c ****     {
 327:..\u8g2-master\csrc/u8x8_8x8.c ****       u8x8->utf8_state = 2;
 328:..\u8g2-master\csrc/u8x8_8x8.c ****       b &= 15;
 329:..\u8g2-master\csrc/u8x8_8x8.c ****     }
 330:..\u8g2-master\csrc/u8x8_8x8.c ****     else if ( b >= 0xc0 )
 331:..\u8g2-master\csrc/u8x8_8x8.c ****     {
 332:..\u8g2-master\csrc/u8x8_8x8.c ****       u8x8->utf8_state = 1;
 333:..\u8g2-master\csrc/u8x8_8x8.c ****       b &= 0x01f;
 334:..\u8g2-master\csrc/u8x8_8x8.c ****     }
 335:..\u8g2-master\csrc/u8x8_8x8.c ****     else
 336:..\u8g2-master\csrc/u8x8_8x8.c ****     {
 337:..\u8g2-master\csrc/u8x8_8x8.c ****       /* do nothing, just use the value as encoding */
 338:..\u8g2-master\csrc/u8x8_8x8.c ****       return b;
 339:..\u8g2-master\csrc/u8x8_8x8.c ****     }
 340:..\u8g2-master\csrc/u8x8_8x8.c ****     u8x8->encoding = b;
 341:..\u8g2-master\csrc/u8x8_8x8.c ****     return 0x0fffe;
 342:..\u8g2-master\csrc/u8x8_8x8.c ****   }
 343:..\u8g2-master\csrc/u8x8_8x8.c ****   else
 344:..\u8g2-master\csrc/u8x8_8x8.c ****   {
 345:..\u8g2-master\csrc/u8x8_8x8.c ****     u8x8->utf8_state--;
 346:..\u8g2-master\csrc/u8x8_8x8.c ****     /* The case b < 0x080 (an illegal UTF8 encoding) is not checked here. */
 347:..\u8g2-master\csrc/u8x8_8x8.c ****     u8x8->encoding<<=6;
 348:..\u8g2-master\csrc/u8x8_8x8.c ****     b &= 0x03f;
 349:..\u8g2-master\csrc/u8x8_8x8.c ****     u8x8->encoding |= b;
 350:..\u8g2-master\csrc/u8x8_8x8.c ****     if ( u8x8->utf8_state != 0 )
 351:..\u8g2-master\csrc/u8x8_8x8.c ****       return 0x0fffe;	/* nothing to do yet */
 352:..\u8g2-master\csrc/u8x8_8x8.c ****   }
 353:..\u8g2-master\csrc/u8x8_8x8.c ****   return u8x8->encoding;
 354:..\u8g2-master\csrc/u8x8_8x8.c **** }
 251              		.loc 1 354 0
 252 0006 0846     		mov	r0, r1
 253              	.LVL37:
 254 0008 7047     		bx	lr
ARM GAS  C:\Users\info\AppData\Local\Temp\ccSLnsSK.s 			page 12


 255              	.LVL38:
 256              	.L29:
 306:..\u8g2-master\csrc/u8x8_8x8.c ****     return 0x0ffff;	/* end of string detected, pending UTF8 is discarded */
 257              		.loc 1 306 0 discriminator 1
 258 000a 0A29     		cmp	r1, #10
 259 000c F9D0     		beq	.L25
 308:..\u8g2-master\csrc/u8x8_8x8.c ****   if ( u8x8->utf8_state == 0 )
 260              		.loc 1 308 0
 261 000e 90F82730 		ldrb	r3, [r0, #39]	@ zero_extendqisi2
 262 0012 53B9     		cbnz	r3, .L17
 263              	.LVL39:
 264              	.LBB12:
 265              	.LBB13:
 310:..\u8g2-master\csrc/u8x8_8x8.c ****     {
 266              		.loc 1 310 0
 267 0014 FB29     		cmp	r1, #251
 268 0016 1CD9     		bls	.L18
 312:..\u8g2-master\csrc/u8x8_8x8.c ****       b &= 1;
 269              		.loc 1 312 0
 270 0018 0523     		movs	r3, #5
 313:..\u8g2-master\csrc/u8x8_8x8.c ****     }
 271              		.loc 1 313 0
 272 001a 01F00101 		and	r1, r1, #1
 273              	.LVL40:
 312:..\u8g2-master\csrc/u8x8_8x8.c ****       b &= 1;
 274              		.loc 1 312 0
 275 001e 80F82730 		strb	r3, [r0, #39]
 276              	.L19:
 340:..\u8g2-master\csrc/u8x8_8x8.c ****     return 0x0fffe;
 277              		.loc 1 340 0
 278 0022 0184     		strh	r1, [r0, #32]	@ movhi
 341:..\u8g2-master\csrc/u8x8_8x8.c ****   }
 279              		.loc 1 341 0
 280 0024 4FF6FE71 		movw	r1, #65534
 281              	.LVL41:
 282 0028 EDE7     		b	.L28
 283              	.LVL42:
 284              	.L17:
 285              	.LBE13:
 286              	.LBE12:
 351:..\u8g2-master\csrc/u8x8_8x8.c ****   }
 287              		.loc 1 351 0
 288 002a 4FF6FE72 		movw	r2, #65534
 305:..\u8g2-master\csrc/u8x8_8x8.c ****   if ( b == 0 || b == '\n' )	/* '\n' terminates the string to support the string list procedures */
 289              		.loc 1 305 0
 290 002e 10B4     		push	{r4}
 291              		.cfi_def_cfa_offset 4
 292              		.cfi_offset 4, -4
 349:..\u8g2-master\csrc/u8x8_8x8.c ****     if ( u8x8->utf8_state != 0 )
 293              		.loc 1 349 0
 294 0030 048C     		ldrh	r4, [r0, #32]
 295 0032 01F03F01 		and	r1, r1, #63
 296              	.LVL43:
 297 0036 41EA8411 		orr	r1, r1, r4, lsl #6
 345:..\u8g2-master\csrc/u8x8_8x8.c ****     /* The case b < 0x080 (an illegal UTF8 encoding) is not checked here. */
 298              		.loc 1 345 0
 299 003a 013B     		subs	r3, r3, #1
ARM GAS  C:\Users\info\AppData\Local\Temp\ccSLnsSK.s 			page 13


 300 003c DBB2     		uxtb	r3, r3
 349:..\u8g2-master\csrc/u8x8_8x8.c ****     if ( u8x8->utf8_state != 0 )
 301              		.loc 1 349 0
 302 003e 89B2     		uxth	r1, r1
 303 0040 0184     		strh	r1, [r0, #32]	@ movhi
 351:..\u8g2-master\csrc/u8x8_8x8.c ****   }
 304              		.loc 1 351 0
 305 0042 002B     		cmp	r3, #0
 306 0044 18BF     		it	ne
 307 0046 1146     		movne	r1, r2
 345:..\u8g2-master\csrc/u8x8_8x8.c ****     /* The case b < 0x080 (an illegal UTF8 encoding) is not checked here. */
 308              		.loc 1 345 0
 309 0048 80F82730 		strb	r3, [r0, #39]
 310              	.LVL44:
 311              		.loc 1 354 0
 312 004c 10BC     		pop	{r4}
 313              		.cfi_restore 4
 314              		.cfi_def_cfa_offset 0
 315 004e 0846     		mov	r0, r1
 316              	.LVL45:
 317 0050 7047     		bx	lr
 318              	.LVL46:
 319              	.L18:
 320              	.LBB15:
 321              	.LBB14:
 315:..\u8g2-master\csrc/u8x8_8x8.c ****     {
 322              		.loc 1 315 0
 323 0052 F729     		cmp	r1, #247
 324 0054 05D9     		bls	.L20
 317:..\u8g2-master\csrc/u8x8_8x8.c ****       b &= 3;
 325              		.loc 1 317 0
 326 0056 0423     		movs	r3, #4
 318:..\u8g2-master\csrc/u8x8_8x8.c ****     }
 327              		.loc 1 318 0
 328 0058 01F00301 		and	r1, r1, #3
 329              	.LVL47:
 317:..\u8g2-master\csrc/u8x8_8x8.c ****       b &= 3;
 330              		.loc 1 317 0
 331 005c 80F82730 		strb	r3, [r0, #39]
 332 0060 DFE7     		b	.L19
 333              	.LVL48:
 334              	.L20:
 320:..\u8g2-master\csrc/u8x8_8x8.c ****     {
 335              		.loc 1 320 0
 336 0062 EF29     		cmp	r1, #239
 337 0064 05D9     		bls	.L21
 322:..\u8g2-master\csrc/u8x8_8x8.c ****       b &= 7;      
 338              		.loc 1 322 0
 339 0066 0323     		movs	r3, #3
 323:..\u8g2-master\csrc/u8x8_8x8.c ****     }
 340              		.loc 1 323 0
 341 0068 01F00701 		and	r1, r1, #7
 342              	.LVL49:
 322:..\u8g2-master\csrc/u8x8_8x8.c ****       b &= 7;      
 343              		.loc 1 322 0
 344 006c 80F82730 		strb	r3, [r0, #39]
 345 0070 D7E7     		b	.L19
ARM GAS  C:\Users\info\AppData\Local\Temp\ccSLnsSK.s 			page 14


 346              	.LVL50:
 347              	.L21:
 325:..\u8g2-master\csrc/u8x8_8x8.c ****     {
 348              		.loc 1 325 0
 349 0072 DF29     		cmp	r1, #223
 350 0074 05D9     		bls	.L22
 327:..\u8g2-master\csrc/u8x8_8x8.c ****       b &= 15;
 351              		.loc 1 327 0
 352 0076 0223     		movs	r3, #2
 328:..\u8g2-master\csrc/u8x8_8x8.c ****     }
 353              		.loc 1 328 0
 354 0078 01F00F01 		and	r1, r1, #15
 355              	.LVL51:
 327:..\u8g2-master\csrc/u8x8_8x8.c ****       b &= 15;
 356              		.loc 1 327 0
 357 007c 80F82730 		strb	r3, [r0, #39]
 358 0080 CFE7     		b	.L19
 359              	.LVL52:
 360              	.L22:
 330:..\u8g2-master\csrc/u8x8_8x8.c ****     {
 361              		.loc 1 330 0
 362 0082 BF29     		cmp	r1, #191
 363 0084 05D9     		bls	.L23
 332:..\u8g2-master\csrc/u8x8_8x8.c ****       b &= 0x01f;
 364              		.loc 1 332 0
 365 0086 0123     		movs	r3, #1
 333:..\u8g2-master\csrc/u8x8_8x8.c ****     }
 366              		.loc 1 333 0
 367 0088 01F01F01 		and	r1, r1, #31
 368              	.LVL53:
 332:..\u8g2-master\csrc/u8x8_8x8.c ****       b &= 0x01f;
 369              		.loc 1 332 0
 370 008c 80F82730 		strb	r3, [r0, #39]
 371 0090 C7E7     		b	.L19
 372              	.LVL54:
 373              	.L23:
 338:..\u8g2-master\csrc/u8x8_8x8.c ****     }
 374              		.loc 1 338 0
 375 0092 89B2     		uxth	r1, r1
 376              	.LVL55:
 377 0094 B7E7     		b	.L28
 378              	.LBE14:
 379              	.LBE15:
 380              		.cfi_endproc
 381              	.LFE11:
 382              		.size	u8x8_utf8_next, .-u8x8_utf8_next
 383 0096 00BF     		.section	.text.u8x8_draw_string,"ax",%progbits
 384              		.align	2
 385              		.thumb
 386              		.thumb_func
 387              		.type	u8x8_draw_string, %function
 388              	u8x8_draw_string:
 389              	.LFB12:
 355:..\u8g2-master\csrc/u8x8_8x8.c **** 
 356:..\u8g2-master\csrc/u8x8_8x8.c **** 
 357:..\u8g2-master\csrc/u8x8_8x8.c **** 
 358:..\u8g2-master\csrc/u8x8_8x8.c **** static uint8_t u8x8_draw_string(u8x8_t *u8x8, uint8_t x, uint8_t y, const char *s) U8X8_NOINLINE;
ARM GAS  C:\Users\info\AppData\Local\Temp\ccSLnsSK.s 			page 15


 359:..\u8g2-master\csrc/u8x8_8x8.c **** static uint8_t u8x8_draw_string(u8x8_t *u8x8, uint8_t x, uint8_t y, const char *s)
 360:..\u8g2-master\csrc/u8x8_8x8.c **** {
 390              		.loc 1 360 0
 391              		.cfi_startproc
 392              		@ args = 0, pretend = 0, frame = 48
 393              		@ frame_needed = 0, uses_anonymous_args = 0
 394              	.LVL56:
 395 0000 2DE9F04F 		push	{r4, r5, r6, r7, r8, r9, r10, fp, lr}
 396              		.cfi_def_cfa_offset 36
 397              		.cfi_offset 4, -36
 398              		.cfi_offset 5, -32
 399              		.cfi_offset 6, -28
 400              		.cfi_offset 7, -24
 401              		.cfi_offset 8, -20
 402              		.cfi_offset 9, -16
 403              		.cfi_offset 10, -12
 404              		.cfi_offset 11, -8
 405              		.cfi_offset 14, -4
 406 0004 8046     		mov	r8, r0
 407 0006 8FB0     		sub	sp, sp, #60
 408              		.cfi_def_cfa_offset 96
 409              		.loc 1 360 0
 410 0008 0B92     		str	r2, [sp, #44]
 361:..\u8g2-master\csrc/u8x8_8x8.c ****   uint16_t e;
 362:..\u8g2-master\csrc/u8x8_8x8.c ****   uint8_t cnt = 0;
 363:..\u8g2-master\csrc/u8x8_8x8.c ****   uint8_t th = u8x8_pgm_read(u8x8->font+2);		/* new 2019 format */
 411              		.loc 1 363 0
 412 000a D8F81C20 		ldr	r2, [r8, #28]
 413              	.LVL57:
 414 000e 013B     		subs	r3, r3, #1
 415              	.LVL58:
 416 0010 0893     		str	r3, [sp, #32]
 417 0012 9378     		ldrb	r3, [r2, #2]	@ zero_extendqisi2
 418              	.LVL59:
 419              	.LBB20:
 420              	.LBB21:
 287:..\u8g2-master\csrc/u8x8_8x8.c **** }
 421              		.loc 1 287 0
 422 0014 0020     		movs	r0, #0
 423              	.LVL60:
 424              	.LBE21:
 425              	.LBE20:
 360:..\u8g2-master\csrc/u8x8_8x8.c ****   uint16_t e;
 426              		.loc 1 360 0
 427 0016 0591     		str	r1, [sp, #20]
 362:..\u8g2-master\csrc/u8x8_8x8.c ****   uint8_t th = u8x8_pgm_read(u8x8->font+2);		/* new 2019 format */
 428              		.loc 1 362 0
 429 0018 0990     		str	r0, [sp, #36]
 430              		.loc 1 363 0
 431 001a 0A93     		str	r3, [sp, #40]
 432              	.LVL61:
 433              	.LBB23:
 434              	.LBB22:
 287:..\u8g2-master\csrc/u8x8_8x8.c **** }
 435              		.loc 1 287 0
 436 001c 88F82700 		strb	r0, [r8, #39]
 437              	.LVL62:
ARM GAS  C:\Users\info\AppData\Local\Temp\ccSLnsSK.s 			page 16


 438              	.L31:
 439              	.LBE22:
 440              	.LBE23:
 364:..\u8g2-master\csrc/u8x8_8x8.c **** 
 365:..\u8g2-master\csrc/u8x8_8x8.c ****   u8x8_utf8_init(u8x8);
 366:..\u8g2-master\csrc/u8x8_8x8.c ****   for(;;)
 367:..\u8g2-master\csrc/u8x8_8x8.c ****   {
 368:..\u8g2-master\csrc/u8x8_8x8.c ****     e = u8x8->next_cb(u8x8, (uint8_t)*s);
 441              		.loc 1 368 0
 442 0020 089A     		ldr	r2, [sp, #32]
 443 0022 D8F80430 		ldr	r3, [r8, #4]
 444 0026 12F8011F 		ldrb	r1, [r2, #1]!	@ zero_extendqisi2
 445              	.LVL63:
 446 002a 4046     		mov	r0, r8
 447 002c 0892     		str	r2, [sp, #32]
 448 002e 9847     		blx	r3
 449              	.LVL64:
 369:..\u8g2-master\csrc/u8x8_8x8.c ****     if ( e == 0x0ffff )
 450              		.loc 1 369 0
 451 0030 4FF6FF73 		movw	r3, #65535
 452 0034 9842     		cmp	r0, r3
 453 0036 4CD0     		beq	.L32
 454              	.LVL65:
 370:..\u8g2-master\csrc/u8x8_8x8.c ****       break;
 371:..\u8g2-master\csrc/u8x8_8x8.c ****     s++;
 372:..\u8g2-master\csrc/u8x8_8x8.c ****     if ( e != 0x0fffe )
 455              		.loc 1 372 0
 456 0038 4FF6FE73 		movw	r3, #65534
 457 003c 9842     		cmp	r0, r3
 458 003e EFD0     		beq	.L31
 459              	.LBB24:
 460              	.LBB25:
 107:..\u8g2-master\csrc/u8x8_8x8.c ****   uint8_t tv = u8x8_pgm_read(u8x8->font+3);	/* new 2019 format */
 461              		.loc 1 107 0
 462 0040 C346     		mov	fp, r8
 463 0042 059C     		ldr	r4, [sp, #20]
 464 0044 5BF81C2F 		ldr	r2, [fp, #28]!
 465 0048 2346     		mov	r3, r4
 466 004a 9178     		ldrb	r1, [r2, #2]	@ zero_extendqisi2
 467 004c 0133     		adds	r3, r3, #1
 111:..\u8g2-master\csrc/u8x8_8x8.c ****   tv += y;
 468              		.loc 1 111 0
 469 004e 04EB010A 		add	r10, r4, r1
 470 0052 DBB2     		uxtb	r3, r3
 471 0054 5FFA8AFA 		uxtb	r10, r10
 472 0058 9A45     		cmp	r10, r3
 473 005a 38BF     		it	cc
 474 005c 0121     		movcc	r1, #1
 475 005e 0791     		str	r1, [sp, #28]
 112:..\u8g2-master\csrc/u8x8_8x8.c ****   tile = 0;
 476              		.loc 1 112 0
 477 0060 0B99     		ldr	r1, [sp, #44]
 108:..\u8g2-master\csrc/u8x8_8x8.c ****   uint8_t xx, tile;
 478              		.loc 1 108 0
 479 0062 D378     		ldrb	r3, [r2, #3]	@ zero_extendqisi2
 112:..\u8g2-master\csrc/u8x8_8x8.c ****   tile = 0;
 480              		.loc 1 112 0
ARM GAS  C:\Users\info\AppData\Local\Temp\ccSLnsSK.s 			page 17


 481 0064 0F46     		mov	r7, r1
 482 0066 0B44     		add	r3, r3, r1
 483 0068 DBB2     		uxtb	r3, r3
 484 006a 0693     		str	r3, [sp, #24]
 485 006c 08F12303 		add	r3, r8, #35
 486 0070 0393     		str	r3, [sp, #12]
 487 0072 0023     		movs	r3, #0
 488              	.LBE25:
 489              	.LBE24:
 373:..\u8g2-master\csrc/u8x8_8x8.c ****     {
 374:..\u8g2-master\csrc/u8x8_8x8.c ****       u8x8_DrawGlyph(u8x8, x, y, e);
 490              		.loc 1 374 0
 491 0074 5FFA80F9 		uxtb	r9, r0
 492              	.LVL66:
 493              	.LBB27:
 494              	.LBB26:
 112:..\u8g2-master\csrc/u8x8_8x8.c ****   tile = 0;
 495              		.loc 1 112 0
 496 0078 0493     		str	r3, [sp, #16]
 497 007a 0CAE     		add	r6, sp, #48
 498              	.LVL67:
 499              	.L35:
 500 007c 049D     		ldr	r5, [sp, #16]
 116:..\u8g2-master\csrc/u8x8_8x8.c ****     do
 501              		.loc 1 116 0
 502 007e 059C     		ldr	r4, [sp, #20]
 503              	.LVL68:
 504              	.L34:
 119:..\u8g2-master\csrc/u8x8_8x8.c ****       u8x8_DrawTile(u8x8, xx, y, 1, buf);
 505              		.loc 1 119 0
 506 0080 0095     		str	r5, [sp]
 507 0082 3346     		mov	r3, r6
 508 0084 4A46     		mov	r2, r9
 509 0086 0399     		ldr	r1, [sp, #12]
 510 0088 5846     		mov	r0, fp
 511 008a FFF7FEFF 		bl	u8x8_get_glyph_data.isra.0
 512              	.LVL69:
 120:..\u8g2-master\csrc/u8x8_8x8.c ****       tile++;
 513              		.loc 1 120 0
 514 008e 2146     		mov	r1, r4
 122:..\u8g2-master\csrc/u8x8_8x8.c ****     } while( xx < th );
 515              		.loc 1 122 0
 516 0090 0134     		adds	r4, r4, #1
 517              	.LVL70:
 120:..\u8g2-master\csrc/u8x8_8x8.c ****       tile++;
 518              		.loc 1 120 0
 519 0092 0096     		str	r6, [sp]
 520 0094 0123     		movs	r3, #1
 521 0096 3A46     		mov	r2, r7
 522 0098 4046     		mov	r0, r8
 122:..\u8g2-master\csrc/u8x8_8x8.c ****     } while( xx < th );
 523              		.loc 1 122 0
 524 009a E4B2     		uxtb	r4, r4
 120:..\u8g2-master\csrc/u8x8_8x8.c ****       tile++;
 525              		.loc 1 120 0
 526 009c FFF7FEFF 		bl	u8x8_DrawTile
 527              	.LVL71:
ARM GAS  C:\Users\info\AppData\Local\Temp\ccSLnsSK.s 			page 18


 121:..\u8g2-master\csrc/u8x8_8x8.c ****       xx++;
 528              		.loc 1 121 0
 529 00a0 0135     		adds	r5, r5, #1
 530              	.LVL72:
 123:..\u8g2-master\csrc/u8x8_8x8.c ****     y++;
 531              		.loc 1 123 0
 532 00a2 A245     		cmp	r10, r4
 121:..\u8g2-master\csrc/u8x8_8x8.c ****       xx++;
 533              		.loc 1 121 0
 534 00a4 EDB2     		uxtb	r5, r5
 535              	.LVL73:
 123:..\u8g2-master\csrc/u8x8_8x8.c ****     y++;
 536              		.loc 1 123 0
 537 00a6 EBD8     		bhi	.L34
 538 00a8 049B     		ldr	r3, [sp, #16]
 539 00aa 079A     		ldr	r2, [sp, #28]
 124:..\u8g2-master\csrc/u8x8_8x8.c ****   } while( y < tv );
 540              		.loc 1 124 0
 541 00ac 0137     		adds	r7, r7, #1
 542              	.LVL74:
 543 00ae 1344     		add	r3, r3, r2
 544 00b0 DBB2     		uxtb	r3, r3
 545 00b2 0493     		str	r3, [sp, #16]
 125:..\u8g2-master\csrc/u8x8_8x8.c **** }
 546              		.loc 1 125 0
 547 00b4 069B     		ldr	r3, [sp, #24]
 124:..\u8g2-master\csrc/u8x8_8x8.c ****   } while( y < tv );
 548              		.loc 1 124 0
 549 00b6 FFB2     		uxtb	r7, r7
 550              	.LVL75:
 125:..\u8g2-master\csrc/u8x8_8x8.c **** }
 551              		.loc 1 125 0
 552 00b8 BB42     		cmp	r3, r7
 553 00ba DFD8     		bhi	.L35
 554              	.LVL76:
 555              	.LBE26:
 556              	.LBE27:
 375:..\u8g2-master\csrc/u8x8_8x8.c ****       x+=th;
 557              		.loc 1 375 0
 558 00bc 059B     		ldr	r3, [sp, #20]
 559 00be 0A99     		ldr	r1, [sp, #40]
 560 00c0 0B44     		add	r3, r3, r1
 561 00c2 1A46     		mov	r2, r3
 376:..\u8g2-master\csrc/u8x8_8x8.c ****       cnt++;
 562              		.loc 1 376 0
 563 00c4 099B     		ldr	r3, [sp, #36]
 375:..\u8g2-master\csrc/u8x8_8x8.c ****       x+=th;
 564              		.loc 1 375 0
 565 00c6 D2B2     		uxtb	r2, r2
 566              		.loc 1 376 0
 567 00c8 0133     		adds	r3, r3, #1
 568 00ca DBB2     		uxtb	r3, r3
 375:..\u8g2-master\csrc/u8x8_8x8.c ****       x+=th;
 569              		.loc 1 375 0
 570 00cc 0592     		str	r2, [sp, #20]
 571              	.LVL77:
 572              		.loc 1 376 0
ARM GAS  C:\Users\info\AppData\Local\Temp\ccSLnsSK.s 			page 19


 573 00ce 0993     		str	r3, [sp, #36]
 574              	.LVL78:
 575 00d0 A6E7     		b	.L31
 576              	.LVL79:
 577              	.L32:
 377:..\u8g2-master\csrc/u8x8_8x8.c ****     }
 378:..\u8g2-master\csrc/u8x8_8x8.c ****   }
 379:..\u8g2-master\csrc/u8x8_8x8.c ****   return cnt;
 380:..\u8g2-master\csrc/u8x8_8x8.c **** }
 578              		.loc 1 380 0
 579 00d2 0998     		ldr	r0, [sp, #36]
 580              	.LVL80:
 581 00d4 0FB0     		add	sp, sp, #60
 582              		.cfi_def_cfa_offset 36
 583              		@ sp needed
 584 00d6 BDE8F08F 		pop	{r4, r5, r6, r7, r8, r9, r10, fp, pc}
 585              		.cfi_endproc
 586              	.LFE12:
 587              		.size	u8x8_draw_string, .-u8x8_draw_string
 588 00da 00BF     		.section	.text.u8x8_SetFont,"ax",%progbits
 589              		.align	2
 590              		.global	u8x8_SetFont
 591              		.thumb
 592              		.thumb_func
 593              		.type	u8x8_SetFont, %function
 594              	u8x8_SetFont:
 595              	.LFB0:
  51:..\u8g2-master\csrc/u8x8_8x8.c ****   u8x8->font = font_8x8;
 596              		.loc 1 51 0
 597              		.cfi_startproc
 598              		@ args = 0, pretend = 0, frame = 0
 599              		@ frame_needed = 0, uses_anonymous_args = 0
 600              		@ link register save eliminated.
 601              	.LVL81:
  52:..\u8g2-master\csrc/u8x8_8x8.c **** }
 602              		.loc 1 52 0
 603 0000 C161     		str	r1, [r0, #28]
 604 0002 7047     		bx	lr
 605              		.cfi_endproc
 606              	.LFE0:
 607              		.size	u8x8_SetFont, .-u8x8_SetFont
 608              		.section	.text.u8x8_DrawGlyph,"ax",%progbits
 609              		.align	2
 610              		.global	u8x8_DrawGlyph
 611              		.thumb
 612              		.thumb_func
 613              		.type	u8x8_DrawGlyph, %function
 614              	u8x8_DrawGlyph:
 615              	.LFB2:
 106:..\u8g2-master\csrc/u8x8_8x8.c ****   uint8_t th = u8x8_pgm_read(u8x8->font+2);		/* new 2019 format */
 616              		.loc 1 106 0
 617              		.cfi_startproc
 618              		@ args = 0, pretend = 0, frame = 32
 619              		@ frame_needed = 0, uses_anonymous_args = 0
 620              	.LVL82:
 621 0000 2DE9F04F 		push	{r4, r5, r6, r7, r8, r9, r10, fp, lr}
 622              		.cfi_def_cfa_offset 36
ARM GAS  C:\Users\info\AppData\Local\Temp\ccSLnsSK.s 			page 20


 623              		.cfi_offset 4, -36
 624              		.cfi_offset 5, -32
 625              		.cfi_offset 6, -28
 626              		.cfi_offset 7, -24
 627              		.cfi_offset 8, -20
 628              		.cfi_offset 9, -16
 629              		.cfi_offset 10, -12
 630              		.cfi_offset 11, -8
 631              		.cfi_offset 14, -4
 107:..\u8g2-master\csrc/u8x8_8x8.c ****   uint8_t tv = u8x8_pgm_read(u8x8->font+3);	/* new 2019 format */
 632              		.loc 1 107 0
 633 0004 8246     		mov	r10, r0
 106:..\u8g2-master\csrc/u8x8_8x8.c ****   uint8_t th = u8x8_pgm_read(u8x8->font+2);		/* new 2019 format */
 634              		.loc 1 106 0
 635 0006 0C46     		mov	r4, r1
 636 0008 8BB0     		sub	sp, sp, #44
 637              		.cfi_def_cfa_offset 80
 106:..\u8g2-master\csrc/u8x8_8x8.c ****   uint8_t th = u8x8_pgm_read(u8x8->font+2);		/* new 2019 format */
 638              		.loc 1 106 0
 639 000a 0791     		str	r1, [sp, #28]
 107:..\u8g2-master\csrc/u8x8_8x8.c ****   uint8_t tv = u8x8_pgm_read(u8x8->font+3);	/* new 2019 format */
 640              		.loc 1 107 0
 641 000c 5AF81C1F 		ldr	r1, [r10, #28]!
 642              	.LVL83:
 106:..\u8g2-master\csrc/u8x8_8x8.c ****   uint8_t th = u8x8_pgm_read(u8x8->font+2);		/* new 2019 format */
 643              		.loc 1 106 0
 644 0010 8146     		mov	r9, r0
 645 0012 1746     		mov	r7, r2
 107:..\u8g2-master\csrc/u8x8_8x8.c ****   uint8_t tv = u8x8_pgm_read(u8x8->font+3);	/* new 2019 format */
 646              		.loc 1 107 0
 647 0014 8878     		ldrb	r0, [r1, #2]	@ zero_extendqisi2
 648              	.LVL84:
 649 0016 2246     		mov	r2, r4
 650              	.LVL85:
 106:..\u8g2-master\csrc/u8x8_8x8.c ****   uint8_t th = u8x8_pgm_read(u8x8->font+2);		/* new 2019 format */
 651              		.loc 1 106 0
 652 0018 9B46     		mov	fp, r3
 653 001a 0346     		mov	r3, r0
 654              	.LVL86:
 655 001c 0132     		adds	r2, r2, #1
 111:..\u8g2-master\csrc/u8x8_8x8.c ****   tv += y;
 656              		.loc 1 111 0
 657 001e 00EB0408 		add	r8, r0, r4
 658 0022 D2B2     		uxtb	r2, r2
 659 0024 5FFA88F8 		uxtb	r8, r8
 660 0028 9045     		cmp	r8, r2
 661 002a 38BF     		it	cc
 662 002c 0123     		movcc	r3, #1
 663 002e 0693     		str	r3, [sp, #24]
 108:..\u8g2-master\csrc/u8x8_8x8.c ****   uint8_t xx, tile;
 664              		.loc 1 108 0
 665 0030 CB78     		ldrb	r3, [r1, #3]	@ zero_extendqisi2
 666              	.LVL87:
 667 0032 09F12302 		add	r2, r9, #35
 112:..\u8g2-master\csrc/u8x8_8x8.c ****   tile = 0;
 668              		.loc 1 112 0
 669 0036 3B44     		add	r3, r3, r7
ARM GAS  C:\Users\info\AppData\Local\Temp\ccSLnsSK.s 			page 21


 670              	.LVL88:
 671 0038 DBB2     		uxtb	r3, r3
 672 003a 0593     		str	r3, [sp, #20]
 673              	.LVL89:
 674 003c 0023     		movs	r3, #0
 675 003e 0392     		str	r2, [sp, #12]
 676 0040 0493     		str	r3, [sp, #16]
 677 0042 08AE     		add	r6, sp, #32
 678              	.LVL90:
 679              	.L42:
 680 0044 049D     		ldr	r5, [sp, #16]
 116:..\u8g2-master\csrc/u8x8_8x8.c ****     do
 681              		.loc 1 116 0
 682 0046 079C     		ldr	r4, [sp, #28]
 683              	.LVL91:
 684              	.L41:
 119:..\u8g2-master\csrc/u8x8_8x8.c ****       u8x8_DrawTile(u8x8, xx, y, 1, buf);
 685              		.loc 1 119 0 discriminator 1
 686 0048 0095     		str	r5, [sp]
 687 004a 3346     		mov	r3, r6
 688 004c 5A46     		mov	r2, fp
 689 004e 0399     		ldr	r1, [sp, #12]
 690 0050 5046     		mov	r0, r10
 691 0052 FFF7FEFF 		bl	u8x8_get_glyph_data.isra.0
 692              	.LVL92:
 120:..\u8g2-master\csrc/u8x8_8x8.c ****       tile++;
 693              		.loc 1 120 0 discriminator 1
 694 0056 2146     		mov	r1, r4
 122:..\u8g2-master\csrc/u8x8_8x8.c ****     } while( xx < th );
 695              		.loc 1 122 0 discriminator 1
 696 0058 0134     		adds	r4, r4, #1
 697              	.LVL93:
 120:..\u8g2-master\csrc/u8x8_8x8.c ****       tile++;
 698              		.loc 1 120 0 discriminator 1
 699 005a 0096     		str	r6, [sp]
 700 005c 0123     		movs	r3, #1
 701 005e 3A46     		mov	r2, r7
 702 0060 4846     		mov	r0, r9
 122:..\u8g2-master\csrc/u8x8_8x8.c ****     } while( xx < th );
 703              		.loc 1 122 0 discriminator 1
 704 0062 E4B2     		uxtb	r4, r4
 120:..\u8g2-master\csrc/u8x8_8x8.c ****       tile++;
 705              		.loc 1 120 0 discriminator 1
 706 0064 FFF7FEFF 		bl	u8x8_DrawTile
 707              	.LVL94:
 121:..\u8g2-master\csrc/u8x8_8x8.c ****       xx++;
 708              		.loc 1 121 0 discriminator 1
 709 0068 0135     		adds	r5, r5, #1
 710              	.LVL95:
 123:..\u8g2-master\csrc/u8x8_8x8.c ****     y++;
 711              		.loc 1 123 0 discriminator 1
 712 006a A045     		cmp	r8, r4
 121:..\u8g2-master\csrc/u8x8_8x8.c ****       xx++;
 713              		.loc 1 121 0 discriminator 1
 714 006c EDB2     		uxtb	r5, r5
 715              	.LVL96:
 123:..\u8g2-master\csrc/u8x8_8x8.c ****     y++;
ARM GAS  C:\Users\info\AppData\Local\Temp\ccSLnsSK.s 			page 22


 716              		.loc 1 123 0 discriminator 1
 717 006e EBD8     		bhi	.L41
 718 0070 049B     		ldr	r3, [sp, #16]
 719 0072 069A     		ldr	r2, [sp, #24]
 124:..\u8g2-master\csrc/u8x8_8x8.c ****   } while( y < tv );
 720              		.loc 1 124 0
 721 0074 0137     		adds	r7, r7, #1
 722              	.LVL97:
 723 0076 1344     		add	r3, r3, r2
 724 0078 DBB2     		uxtb	r3, r3
 725 007a 0493     		str	r3, [sp, #16]
 125:..\u8g2-master\csrc/u8x8_8x8.c **** }
 726              		.loc 1 125 0
 727 007c 059B     		ldr	r3, [sp, #20]
 124:..\u8g2-master\csrc/u8x8_8x8.c ****   } while( y < tv );
 728              		.loc 1 124 0
 729 007e FFB2     		uxtb	r7, r7
 730              	.LVL98:
 125:..\u8g2-master\csrc/u8x8_8x8.c **** }
 731              		.loc 1 125 0
 732 0080 BB42     		cmp	r3, r7
 733 0082 DFD8     		bhi	.L42
 126:..\u8g2-master\csrc/u8x8_8x8.c **** 
 734              		.loc 1 126 0
 735 0084 0BB0     		add	sp, sp, #44
 736              		.cfi_def_cfa_offset 36
 737              		@ sp needed
 738 0086 BDE8F08F 		pop	{r4, r5, r6, r7, r8, r9, r10, fp, pc}
 739              		.cfi_endproc
 740              	.LFE2:
 741              		.size	u8x8_DrawGlyph, .-u8x8_DrawGlyph
 742              		.section	.text.u8x8_upscale_byte,"ax",%progbits
 743              		.align	2
 744              		.global	u8x8_upscale_byte
 745              		.thumb
 746              		.thumb_func
 747              		.type	u8x8_upscale_byte, %function
 748              	u8x8_upscale_byte:
 749              	.LFB3:
 154:..\u8g2-master\csrc/u8x8_8x8.c **** 	uint16_t y = x;
 750              		.loc 1 154 0
 751              		.cfi_startproc
 752              		@ args = 0, pretend = 0, frame = 0
 753              		@ frame_needed = 0, uses_anonymous_args = 0
 754              		@ link register save eliminated.
 755              	.LVL99:
 157:..\u8g2-master\csrc/u8x8_8x8.c **** 	y |= (y << 2);		// x = (x | (x << S[1])) & B[1];
 756              		.loc 1 157 0
 757 0000 40F60F72 		movw	r2, #3855
 159:..\u8g2-master\csrc/u8x8_8x8.c **** 	y |= (y << 1);		// x = (x | (x << S[0])) & B[0];
 758              		.loc 1 159 0
 759 0004 43F23333 		movw	r3, #13107
 161:..\u8g2-master\csrc/u8x8_8x8.c ****   
 760              		.loc 1 161 0
 761 0008 45F25551 		movw	r1, #21845
 156:..\u8g2-master\csrc/u8x8_8x8.c **** 	y &= 0x0f0f;
 762              		.loc 1 156 0
ARM GAS  C:\Users\info\AppData\Local\Temp\ccSLnsSK.s 			page 23


 763 000c 40EA0010 		orr	r0, r0, r0, lsl #4
 764              	.LVL100:
 157:..\u8g2-master\csrc/u8x8_8x8.c **** 	y |= (y << 2);		// x = (x | (x << S[1])) & B[1];
 765              		.loc 1 157 0
 766 0010 1040     		ands	r0, r0, r2
 767              	.LVL101:
 158:..\u8g2-master\csrc/u8x8_8x8.c **** 	y &= 0x3333;
 768              		.loc 1 158 0
 769 0012 40EA8000 		orr	r0, r0, r0, lsl #2
 770              	.LVL102:
 159:..\u8g2-master\csrc/u8x8_8x8.c **** 	y |= (y << 1);		// x = (x | (x << S[0])) & B[0];
 771              		.loc 1 159 0
 772 0016 1840     		ands	r0, r0, r3
 773              	.LVL103:
 160:..\u8g2-master\csrc/u8x8_8x8.c **** 	y &= 0x5555;
 774              		.loc 1 160 0
 775 0018 40EA4000 		orr	r0, r0, r0, lsl #1
 776              	.LVL104:
 161:..\u8g2-master\csrc/u8x8_8x8.c ****   
 777              		.loc 1 161 0
 778 001c 0840     		ands	r0, r0, r1
 779              	.LVL105:
 165:..\u8g2-master\csrc/u8x8_8x8.c **** 
 780              		.loc 1 165 0
 781 001e 40EA4000 		orr	r0, r0, r0, lsl #1
 782              	.LVL106:
 783 0022 7047     		bx	lr
 784              		.cfi_endproc
 785              	.LFE3:
 786              		.size	u8x8_upscale_byte, .-u8x8_upscale_byte
 787              		.section	.text.u8x8_draw_1x2_string,"ax",%progbits
 788              		.align	2
 789              		.thumb
 790              		.thumb_func
 791              		.type	u8x8_draw_1x2_string, %function
 792              	u8x8_draw_1x2_string:
 793              	.LFB18:
 381:..\u8g2-master\csrc/u8x8_8x8.c **** 
 382:..\u8g2-master\csrc/u8x8_8x8.c **** 
 383:..\u8g2-master\csrc/u8x8_8x8.c **** uint8_t u8x8_DrawString(u8x8_t *u8x8, uint8_t x, uint8_t y, const char *s)
 384:..\u8g2-master\csrc/u8x8_8x8.c **** {
 385:..\u8g2-master\csrc/u8x8_8x8.c ****   u8x8->next_cb = u8x8_ascii_next;
 386:..\u8g2-master\csrc/u8x8_8x8.c ****   return u8x8_draw_string(u8x8, x, y, s);
 387:..\u8g2-master\csrc/u8x8_8x8.c **** }
 388:..\u8g2-master\csrc/u8x8_8x8.c **** 
 389:..\u8g2-master\csrc/u8x8_8x8.c **** uint8_t u8x8_DrawUTF8(u8x8_t *u8x8, uint8_t x, uint8_t y, const char *s)
 390:..\u8g2-master\csrc/u8x8_8x8.c **** {
 391:..\u8g2-master\csrc/u8x8_8x8.c ****   u8x8->next_cb = u8x8_utf8_next;
 392:..\u8g2-master\csrc/u8x8_8x8.c ****   return u8x8_draw_string(u8x8, x, y, s);
 393:..\u8g2-master\csrc/u8x8_8x8.c **** }
 394:..\u8g2-master\csrc/u8x8_8x8.c **** 
 395:..\u8g2-master\csrc/u8x8_8x8.c **** 
 396:..\u8g2-master\csrc/u8x8_8x8.c **** 
 397:..\u8g2-master\csrc/u8x8_8x8.c **** static uint8_t u8x8_draw_2x2_string(u8x8_t *u8x8, uint8_t x, uint8_t y, const char *s) U8X8_NOINLIN
 398:..\u8g2-master\csrc/u8x8_8x8.c **** static uint8_t u8x8_draw_2x2_string(u8x8_t *u8x8, uint8_t x, uint8_t y, const char *s)
 399:..\u8g2-master\csrc/u8x8_8x8.c **** {
 400:..\u8g2-master\csrc/u8x8_8x8.c ****   uint16_t e;
ARM GAS  C:\Users\info\AppData\Local\Temp\ccSLnsSK.s 			page 24


 401:..\u8g2-master\csrc/u8x8_8x8.c ****   uint8_t cnt = 0;
 402:..\u8g2-master\csrc/u8x8_8x8.c ****   u8x8_utf8_init(u8x8);
 403:..\u8g2-master\csrc/u8x8_8x8.c ****   for(;;)
 404:..\u8g2-master\csrc/u8x8_8x8.c ****   {
 405:..\u8g2-master\csrc/u8x8_8x8.c ****     e = u8x8->next_cb(u8x8, (uint8_t)*s);
 406:..\u8g2-master\csrc/u8x8_8x8.c ****     if ( e == 0x0ffff )
 407:..\u8g2-master\csrc/u8x8_8x8.c ****       break;
 408:..\u8g2-master\csrc/u8x8_8x8.c ****     s++;
 409:..\u8g2-master\csrc/u8x8_8x8.c ****     if ( e != 0x0fffe )
 410:..\u8g2-master\csrc/u8x8_8x8.c ****     {
 411:..\u8g2-master\csrc/u8x8_8x8.c ****       u8x8_Draw2x2Glyph(u8x8, x, y, e);
 412:..\u8g2-master\csrc/u8x8_8x8.c ****       x+=2;
 413:..\u8g2-master\csrc/u8x8_8x8.c ****       cnt++;
 414:..\u8g2-master\csrc/u8x8_8x8.c ****     }
 415:..\u8g2-master\csrc/u8x8_8x8.c ****   }
 416:..\u8g2-master\csrc/u8x8_8x8.c ****   return cnt;
 417:..\u8g2-master\csrc/u8x8_8x8.c **** }
 418:..\u8g2-master\csrc/u8x8_8x8.c **** 
 419:..\u8g2-master\csrc/u8x8_8x8.c **** 
 420:..\u8g2-master\csrc/u8x8_8x8.c **** uint8_t u8x8_Draw2x2String(u8x8_t *u8x8, uint8_t x, uint8_t y, const char *s)
 421:..\u8g2-master\csrc/u8x8_8x8.c **** {
 422:..\u8g2-master\csrc/u8x8_8x8.c ****   u8x8->next_cb = u8x8_ascii_next;
 423:..\u8g2-master\csrc/u8x8_8x8.c ****   return u8x8_draw_2x2_string(u8x8, x, y, s);
 424:..\u8g2-master\csrc/u8x8_8x8.c **** }
 425:..\u8g2-master\csrc/u8x8_8x8.c **** 
 426:..\u8g2-master\csrc/u8x8_8x8.c **** uint8_t u8x8_Draw2x2UTF8(u8x8_t *u8x8, uint8_t x, uint8_t y, const char *s)
 427:..\u8g2-master\csrc/u8x8_8x8.c **** {
 428:..\u8g2-master\csrc/u8x8_8x8.c ****   u8x8->next_cb = u8x8_utf8_next;
 429:..\u8g2-master\csrc/u8x8_8x8.c ****   return u8x8_draw_2x2_string(u8x8, x, y, s);
 430:..\u8g2-master\csrc/u8x8_8x8.c **** }
 431:..\u8g2-master\csrc/u8x8_8x8.c **** 
 432:..\u8g2-master\csrc/u8x8_8x8.c **** 
 433:..\u8g2-master\csrc/u8x8_8x8.c **** 
 434:..\u8g2-master\csrc/u8x8_8x8.c **** static uint8_t u8x8_draw_1x2_string(u8x8_t *u8x8, uint8_t x, uint8_t y, const char *s) U8X8_NOINLIN
 435:..\u8g2-master\csrc/u8x8_8x8.c **** static uint8_t u8x8_draw_1x2_string(u8x8_t *u8x8, uint8_t x, uint8_t y, const char *s)
 436:..\u8g2-master\csrc/u8x8_8x8.c **** {
 794              		.loc 1 436 0
 795              		.cfi_startproc
 796              		@ args = 0, pretend = 0, frame = 64
 797              		@ frame_needed = 0, uses_anonymous_args = 0
 798              	.LVL107:
 799 0000 2DE9F04F 		push	{r4, r5, r6, r7, r8, r9, r10, fp, lr}
 800              		.cfi_def_cfa_offset 36
 801              		.cfi_offset 4, -36
 802              		.cfi_offset 5, -32
 803              		.cfi_offset 6, -28
 804              		.cfi_offset 7, -24
 805              		.cfi_offset 8, -20
 806              		.cfi_offset 9, -16
 807              		.cfi_offset 10, -12
 808              		.cfi_offset 11, -8
 809              		.cfi_offset 14, -4
 810 0004 8346     		mov	fp, r0
 811              	.LVL108:
 812 0006 8A46     		mov	r10, r1
 813 0008 93B0     		sub	sp, sp, #76
 814              		.cfi_def_cfa_offset 112
ARM GAS  C:\Users\info\AppData\Local\Temp\ccSLnsSK.s 			page 25


 815              	.LBB34:
 816              	.LBB35:
 287:..\u8g2-master\csrc/u8x8_8x8.c **** }
 817              		.loc 1 287 0
 818 000a 0020     		movs	r0, #0
 819              	.LVL109:
 820 000c 013B     		subs	r3, r3, #1
 821              	.LVL110:
 822              	.LBE35:
 823              	.LBE34:
 824              		.loc 1 436 0
 825 000e 0B92     		str	r2, [sp, #44]
 437:..\u8g2-master\csrc/u8x8_8x8.c ****   uint16_t e;
 438:..\u8g2-master\csrc/u8x8_8x8.c ****   uint8_t cnt = 0;
 826              		.loc 1 438 0
 827 0010 0990     		str	r0, [sp, #36]
 828 0012 0A93     		str	r3, [sp, #40]
 829              	.LBB37:
 830              	.LBB36:
 287:..\u8g2-master\csrc/u8x8_8x8.c **** }
 831              		.loc 1 287 0
 832 0014 8BF82700 		strb	r0, [fp, #39]
 833              	.LVL111:
 834              	.L48:
 835              	.LBE36:
 836              	.LBE37:
 439:..\u8g2-master\csrc/u8x8_8x8.c ****   u8x8_utf8_init(u8x8);
 440:..\u8g2-master\csrc/u8x8_8x8.c ****   for(;;)
 441:..\u8g2-master\csrc/u8x8_8x8.c ****   {
 442:..\u8g2-master\csrc/u8x8_8x8.c ****     e = u8x8->next_cb(u8x8, (uint8_t)*s);
 837              		.loc 1 442 0
 838 0018 0A9A     		ldr	r2, [sp, #40]
 839 001a DBF80430 		ldr	r3, [fp, #4]
 840 001e 12F8011F 		ldrb	r1, [r2, #1]!	@ zero_extendqisi2
 841              	.LVL112:
 842 0022 5846     		mov	r0, fp
 843 0024 0A92     		str	r2, [sp, #40]
 844 0026 9847     		blx	r3
 845              	.LVL113:
 443:..\u8g2-master\csrc/u8x8_8x8.c ****     if ( e == 0x0ffff )
 846              		.loc 1 443 0
 847 0028 4FF6FF73 		movw	r3, #65535
 848 002c 9842     		cmp	r0, r3
 849 002e 00F0AB80 		beq	.L49
 850              	.LVL114:
 444:..\u8g2-master\csrc/u8x8_8x8.c ****       break;
 445:..\u8g2-master\csrc/u8x8_8x8.c ****     s++;
 446:..\u8g2-master\csrc/u8x8_8x8.c ****     if ( e != 0x0fffe )
 851              		.loc 1 446 0
 852 0032 4FF6FE73 		movw	r3, #65534
 853 0036 9842     		cmp	r0, r3
 854 0038 EED0     		beq	.L48
 855              	.LBB38:
 856              	.LBB39:
 251:..\u8g2-master\csrc/u8x8_8x8.c ****   uint8_t tv = u8x8_pgm_read(u8x8->font+3);	/* new 2019 format */
 857              		.loc 1 251 0
 858 003a 5A46     		mov	r2, fp
ARM GAS  C:\Users\info\AppData\Local\Temp\ccSLnsSK.s 			page 26


 859 003c 52F81C3F 		ldr	r3, [r2, #28]!
 256:..\u8g2-master\csrc/u8x8_8x8.c ****   tile = 0;
 860              		.loc 1 256 0
 861 0040 0B9F     		ldr	r7, [sp, #44]
 251:..\u8g2-master\csrc/u8x8_8x8.c ****   uint8_t tv = u8x8_pgm_read(u8x8->font+3);	/* new 2019 format */
 862              		.loc 1 251 0
 863 0042 0692     		str	r2, [sp, #24]
 864              	.LBE39:
 865              	.LBE38:
 447:..\u8g2-master\csrc/u8x8_8x8.c ****     {
 448:..\u8g2-master\csrc/u8x8_8x8.c ****       u8x8_Draw1x2Glyph(u8x8, x, y, e);
 866              		.loc 1 448 0
 867 0044 C2B2     		uxtb	r2, r0
 868 0046 0492     		str	r2, [sp, #16]
 869              	.LVL115:
 870              	.LBB43:
 871              	.LBB42:
 251:..\u8g2-master\csrc/u8x8_8x8.c ****   uint8_t tv = u8x8_pgm_read(u8x8->font+3);	/* new 2019 format */
 872              		.loc 1 251 0
 873 0048 9A78     		ldrb	r2, [r3, #2]	@ zero_extendqisi2
 874              	.LVL116:
 252:..\u8g2-master\csrc/u8x8_8x8.c ****   uint8_t xx, tile;
 875              		.loc 1 252 0
 876 004a DB78     		ldrb	r3, [r3, #3]	@ zero_extendqisi2
 877              	.LVL117:
 254:..\u8g2-master\csrc/u8x8_8x8.c ****   tv *= 2;
 878              		.loc 1 254 0
 879 004c 5244     		add	r2, r2, r10
 880              	.LVL118:
 256:..\u8g2-master\csrc/u8x8_8x8.c ****   tile = 0;
 881              		.loc 1 256 0
 882 004e 07EB4303 		add	r3, r7, r3, lsl #1
 883              	.LVL119:
 884 0052 03F0FF03 		and	r3, r3, #255
 885 0056 0893     		str	r3, [sp, #32]
 886 0058 0BF12303 		add	r3, fp, #35
 887 005c 0793     		str	r3, [sp, #28]
 257:..\u8g2-master\csrc/u8x8_8x8.c ****   do
 888              		.loc 1 257 0
 889 005e 0023     		movs	r3, #0
 890 0060 9946     		mov	r9, r3
 254:..\u8g2-master\csrc/u8x8_8x8.c ****   tv *= 2;
 891              		.loc 1 254 0
 892 0062 D2B2     		uxtb	r2, r2
 893 0064 0592     		str	r2, [sp, #20]
 894              	.LVL120:
 895              	.L52:
 896 0066 09F10103 		add	r3, r9, #1
 897 006a 07F10108 		add	r8, r7, #1
 898 006e DBB2     		uxtb	r3, r3
 899 0070 5FFA88F8 		uxtb	r8, r8
 900 0074 0393     		str	r3, [sp, #12]
 268:..\u8g2-master\csrc/u8x8_8x8.c **** }
 901              		.loc 1 268 0
 902 0076 0026     		movs	r6, #0
 903              	.LVL121:
 904              	.L51:
ARM GAS  C:\Users\info\AppData\Local\Temp\ccSLnsSK.s 			page 27


 905 0078 F4B2     		uxtb	r4, r6
 906              	.LBB40:
 907              	.LBB41:
 238:..\u8g2-master\csrc/u8x8_8x8.c ****   for( i = 0; i < 8; i ++ )
 908              		.loc 1 238 0
 909 007a 09EB0403 		add	r3, r9, r4
 910 007e DBB2     		uxtb	r3, r3
 911 0080 0799     		ldr	r1, [sp, #28]
 912 0082 049A     		ldr	r2, [sp, #16]
 913 0084 0093     		str	r3, [sp]
 914 0086 0698     		ldr	r0, [sp, #24]
 915 0088 0CAB     		add	r3, sp, #48
 916 008a FFF7FEFF 		bl	u8x8_get_glyph_data.isra.0
 917              	.LVL122:
 241:..\u8g2-master\csrc/u8x8_8x8.c ****       buf1[i] = t >> 8;
 918              		.loc 1 241 0
 919 008e 9DF83000 		ldrb	r0, [sp, #48]	@ zero_extendqisi2
 920 0092 FFF7FEFF 		bl	u8x8_upscale_byte
 921              	.LVL123:
 922 0096 0346     		mov	r3, r0
 923 0098 9DF83100 		ldrb	r0, [sp, #49]	@ zero_extendqisi2
 242:..\u8g2-master\csrc/u8x8_8x8.c ****       buf2[i] = t & 255;
 924              		.loc 1 242 0
 925 009c 1A0A     		lsrs	r2, r3, #8
 243:..\u8g2-master\csrc/u8x8_8x8.c ****   }
 926              		.loc 1 243 0
 927 009e 8DF84030 		strb	r3, [sp, #64]
 242:..\u8g2-master\csrc/u8x8_8x8.c ****       buf2[i] = t & 255;
 928              		.loc 1 242 0
 929 00a2 8DF83820 		strb	r2, [sp, #56]
 241:..\u8g2-master\csrc/u8x8_8x8.c ****       buf1[i] = t >> 8;
 930              		.loc 1 241 0
 931 00a6 FFF7FEFF 		bl	u8x8_upscale_byte
 932              	.LVL124:
 933 00aa 0346     		mov	r3, r0
 934 00ac 9DF83200 		ldrb	r0, [sp, #50]	@ zero_extendqisi2
 242:..\u8g2-master\csrc/u8x8_8x8.c ****       buf2[i] = t & 255;
 935              		.loc 1 242 0
 936 00b0 1A0A     		lsrs	r2, r3, #8
 243:..\u8g2-master\csrc/u8x8_8x8.c ****   }
 937              		.loc 1 243 0
 938 00b2 8DF84130 		strb	r3, [sp, #65]
 242:..\u8g2-master\csrc/u8x8_8x8.c ****       buf2[i] = t & 255;
 939              		.loc 1 242 0
 940 00b6 8DF83920 		strb	r2, [sp, #57]
 241:..\u8g2-master\csrc/u8x8_8x8.c ****       buf1[i] = t >> 8;
 941              		.loc 1 241 0
 942 00ba FFF7FEFF 		bl	u8x8_upscale_byte
 943              	.LVL125:
 944 00be 0346     		mov	r3, r0
 945 00c0 9DF83300 		ldrb	r0, [sp, #51]	@ zero_extendqisi2
 242:..\u8g2-master\csrc/u8x8_8x8.c ****       buf2[i] = t & 255;
 946              		.loc 1 242 0
 947 00c4 1A0A     		lsrs	r2, r3, #8
 243:..\u8g2-master\csrc/u8x8_8x8.c ****   }
 948              		.loc 1 243 0
 949 00c6 8DF84230 		strb	r3, [sp, #66]
ARM GAS  C:\Users\info\AppData\Local\Temp\ccSLnsSK.s 			page 28


 242:..\u8g2-master\csrc/u8x8_8x8.c ****       buf2[i] = t & 255;
 950              		.loc 1 242 0
 951 00ca 8DF83A20 		strb	r2, [sp, #58]
 241:..\u8g2-master\csrc/u8x8_8x8.c ****       buf1[i] = t >> 8;
 952              		.loc 1 241 0
 953 00ce FFF7FEFF 		bl	u8x8_upscale_byte
 954              	.LVL126:
 955 00d2 0346     		mov	r3, r0
 956 00d4 9DF83400 		ldrb	r0, [sp, #52]	@ zero_extendqisi2
 242:..\u8g2-master\csrc/u8x8_8x8.c ****       buf2[i] = t & 255;
 957              		.loc 1 242 0
 958 00d8 1A0A     		lsrs	r2, r3, #8
 243:..\u8g2-master\csrc/u8x8_8x8.c ****   }
 959              		.loc 1 243 0
 960 00da 8DF84330 		strb	r3, [sp, #67]
 242:..\u8g2-master\csrc/u8x8_8x8.c ****       buf2[i] = t & 255;
 961              		.loc 1 242 0
 962 00de 8DF83B20 		strb	r2, [sp, #59]
 241:..\u8g2-master\csrc/u8x8_8x8.c ****       buf1[i] = t >> 8;
 963              		.loc 1 241 0
 964 00e2 FFF7FEFF 		bl	u8x8_upscale_byte
 965              	.LVL127:
 966 00e6 0346     		mov	r3, r0
 967 00e8 9DF83500 		ldrb	r0, [sp, #53]	@ zero_extendqisi2
 242:..\u8g2-master\csrc/u8x8_8x8.c ****       buf2[i] = t & 255;
 968              		.loc 1 242 0
 969 00ec 1A0A     		lsrs	r2, r3, #8
 243:..\u8g2-master\csrc/u8x8_8x8.c ****   }
 970              		.loc 1 243 0
 971 00ee 8DF84430 		strb	r3, [sp, #68]
 242:..\u8g2-master\csrc/u8x8_8x8.c ****       buf2[i] = t & 255;
 972              		.loc 1 242 0
 973 00f2 8DF83C20 		strb	r2, [sp, #60]
 241:..\u8g2-master\csrc/u8x8_8x8.c ****       buf1[i] = t >> 8;
 974              		.loc 1 241 0
 975 00f6 FFF7FEFF 		bl	u8x8_upscale_byte
 976              	.LVL128:
 977 00fa 0346     		mov	r3, r0
 978 00fc 9DF83600 		ldrb	r0, [sp, #54]	@ zero_extendqisi2
 242:..\u8g2-master\csrc/u8x8_8x8.c ****       buf2[i] = t & 255;
 979              		.loc 1 242 0
 980 0100 1A0A     		lsrs	r2, r3, #8
 243:..\u8g2-master\csrc/u8x8_8x8.c ****   }
 981              		.loc 1 243 0
 982 0102 8DF84530 		strb	r3, [sp, #69]
 242:..\u8g2-master\csrc/u8x8_8x8.c ****       buf2[i] = t & 255;
 983              		.loc 1 242 0
 984 0106 8DF83D20 		strb	r2, [sp, #61]
 241:..\u8g2-master\csrc/u8x8_8x8.c ****       buf1[i] = t >> 8;
 985              		.loc 1 241 0
 986 010a FFF7FEFF 		bl	u8x8_upscale_byte
 987              	.LVL129:
 988 010e 0346     		mov	r3, r0
 989 0110 9DF83700 		ldrb	r0, [sp, #55]	@ zero_extendqisi2
 242:..\u8g2-master\csrc/u8x8_8x8.c ****       buf2[i] = t & 255;
 990              		.loc 1 242 0
 991 0114 1A0A     		lsrs	r2, r3, #8
ARM GAS  C:\Users\info\AppData\Local\Temp\ccSLnsSK.s 			page 29


 243:..\u8g2-master\csrc/u8x8_8x8.c ****   }
 992              		.loc 1 243 0
 993 0116 8DF84630 		strb	r3, [sp, #70]
 242:..\u8g2-master\csrc/u8x8_8x8.c ****       buf2[i] = t & 255;
 994              		.loc 1 242 0
 995 011a 8DF83E20 		strb	r2, [sp, #62]
 241:..\u8g2-master\csrc/u8x8_8x8.c ****       buf1[i] = t >> 8;
 996              		.loc 1 241 0
 997 011e FFF7FEFF 		bl	u8x8_upscale_byte
 998              	.LVL130:
 999 0122 0AEB0405 		add	r5, r10, r4
 1000 0126 EDB2     		uxtb	r5, r5
 1001              	.LVL131:
 245:..\u8g2-master\csrc/u8x8_8x8.c ****   u8x8_DrawTile(u8x8, x, y+1, 1, buf1);
 1002              		.loc 1 245 0
 1003 0128 10AB     		add	r3, sp, #64
 242:..\u8g2-master\csrc/u8x8_8x8.c ****       buf2[i] = t & 255;
 1004              		.loc 1 242 0
 1005 012a 4FEA102E 		lsr	lr, r0, #8
 245:..\u8g2-master\csrc/u8x8_8x8.c ****   u8x8_DrawTile(u8x8, x, y+1, 1, buf1);
 1006              		.loc 1 245 0
 1007 012e 0093     		str	r3, [sp]
 1008 0130 2946     		mov	r1, r5
 1009 0132 0123     		movs	r3, #1
 1010 0134 3A46     		mov	r2, r7
 243:..\u8g2-master\csrc/u8x8_8x8.c ****   }
 1011              		.loc 1 243 0
 1012 0136 8DF84700 		strb	r0, [sp, #71]
 1013              	.LVL132:
 245:..\u8g2-master\csrc/u8x8_8x8.c ****   u8x8_DrawTile(u8x8, x, y+1, 1, buf1);
 1014              		.loc 1 245 0
 1015 013a 5846     		mov	r0, fp
 1016              	.LVL133:
 1017 013c 1E44     		add	r6, r6, r3
 242:..\u8g2-master\csrc/u8x8_8x8.c ****       buf2[i] = t & 255;
 1018              		.loc 1 242 0
 1019 013e 8DF83FE0 		strb	lr, [sp, #63]
 245:..\u8g2-master\csrc/u8x8_8x8.c ****   u8x8_DrawTile(u8x8, x, y+1, 1, buf1);
 1020              		.loc 1 245 0
 1021 0142 FFF7FEFF 		bl	u8x8_DrawTile
 1022              	.LVL134:
 246:..\u8g2-master\csrc/u8x8_8x8.c **** }
 1023              		.loc 1 246 0
 1024 0146 0EAB     		add	r3, sp, #56
 1025 0148 0093     		str	r3, [sp]
 1026 014a 4246     		mov	r2, r8
 1027 014c 0123     		movs	r3, #1
 1028 014e 2946     		mov	r1, r5
 1029 0150 5846     		mov	r0, fp
 1030 0152 FFF7FEFF 		bl	u8x8_DrawTile
 1031              	.LVL135:
 1032 0156 039A     		ldr	r2, [sp, #12]
 1033              	.LBE41:
 1034              	.LBE40:
 266:..\u8g2-master\csrc/u8x8_8x8.c ****     y+=2;
 1035              		.loc 1 266 0
 1036 0158 0AEB0603 		add	r3, r10, r6
ARM GAS  C:\Users\info\AppData\Local\Temp\ccSLnsSK.s 			page 30


 1037 015c 1444     		add	r4, r4, r2
 1038              	.LVL136:
 1039 015e 059A     		ldr	r2, [sp, #20]
 1040 0160 DBB2     		uxtb	r3, r3
 1041 0162 9A42     		cmp	r2, r3
 1042 0164 E4B2     		uxtb	r4, r4
 1043              	.LVL137:
 1044 0166 87D8     		bhi	.L51
 267:..\u8g2-master\csrc/u8x8_8x8.c ****   } while( y < tv );  
 1045              		.loc 1 267 0
 1046 0168 0237     		adds	r7, r7, #2
 1047              	.LVL138:
 268:..\u8g2-master\csrc/u8x8_8x8.c **** }
 1048              		.loc 1 268 0
 1049 016a 089B     		ldr	r3, [sp, #32]
 267:..\u8g2-master\csrc/u8x8_8x8.c ****   } while( y < tv );  
 1050              		.loc 1 267 0
 1051 016c FFB2     		uxtb	r7, r7
 1052              	.LVL139:
 268:..\u8g2-master\csrc/u8x8_8x8.c **** }
 1053              		.loc 1 268 0
 1054 016e BB42     		cmp	r3, r7
 1055 0170 01D9     		bls	.L56
 1056 0172 A146     		mov	r9, r4
 1057 0174 77E7     		b	.L52
 1058              	.L56:
 1059              	.LVL140:
 1060              	.LBE42:
 1061              	.LBE43:
 449:..\u8g2-master\csrc/u8x8_8x8.c ****       x++;
 450:..\u8g2-master\csrc/u8x8_8x8.c ****       cnt++;
 1062              		.loc 1 450 0
 1063 0176 099B     		ldr	r3, [sp, #36]
 449:..\u8g2-master\csrc/u8x8_8x8.c ****       x++;
 1064              		.loc 1 449 0
 1065 0178 0AF1010A 		add	r10, r10, #1
 1066              	.LVL141:
 1067              		.loc 1 450 0
 1068 017c 0133     		adds	r3, r3, #1
 1069 017e DBB2     		uxtb	r3, r3
 449:..\u8g2-master\csrc/u8x8_8x8.c ****       x++;
 1070              		.loc 1 449 0
 1071 0180 5FFA8AFA 		uxtb	r10, r10
 1072              	.LVL142:
 1073              		.loc 1 450 0
 1074 0184 0993     		str	r3, [sp, #36]
 1075              	.LVL143:
 1076 0186 47E7     		b	.L48
 1077              	.LVL144:
 1078              	.L49:
 451:..\u8g2-master\csrc/u8x8_8x8.c ****     }
 452:..\u8g2-master\csrc/u8x8_8x8.c ****   }
 453:..\u8g2-master\csrc/u8x8_8x8.c ****   return cnt;
 454:..\u8g2-master\csrc/u8x8_8x8.c **** }
 1079              		.loc 1 454 0
 1080 0188 0998     		ldr	r0, [sp, #36]
 1081              	.LVL145:
ARM GAS  C:\Users\info\AppData\Local\Temp\ccSLnsSK.s 			page 31


 1082 018a 13B0     		add	sp, sp, #76
 1083              		.cfi_def_cfa_offset 36
 1084              		@ sp needed
 1085 018c BDE8F08F 		pop	{r4, r5, r6, r7, r8, r9, r10, fp, pc}
 1086              		.cfi_endproc
 1087              	.LFE18:
 1088              		.size	u8x8_draw_1x2_string, .-u8x8_draw_1x2_string
 1089              		.section	.text.u8x8_Draw2x2Glyph,"ax",%progbits
 1090              		.align	2
 1091              		.global	u8x8_Draw2x2Glyph
 1092              		.thumb
 1093              		.thumb_func
 1094              		.type	u8x8_Draw2x2Glyph, %function
 1095              	u8x8_Draw2x2Glyph:
 1096              	.LFB6:
 208:..\u8g2-master\csrc/u8x8_8x8.c ****   uint8_t th = u8x8_pgm_read(u8x8->font+2);		/* new 2019 format */
 1097              		.loc 1 208 0
 1098              		.cfi_startproc
 1099              		@ args = 0, pretend = 0, frame = 64
 1100              		@ frame_needed = 0, uses_anonymous_args = 0
 1101              	.LVL146:
 1102 0000 2DE9F04F 		push	{r4, r5, r6, r7, r8, r9, r10, fp, lr}
 1103              		.cfi_def_cfa_offset 36
 1104              		.cfi_offset 4, -36
 1105              		.cfi_offset 5, -32
 1106              		.cfi_offset 6, -28
 1107              		.cfi_offset 7, -24
 1108              		.cfi_offset 8, -20
 1109              		.cfi_offset 9, -16
 1110              		.cfi_offset 10, -12
 1111              		.cfi_offset 11, -8
 1112              		.cfi_offset 14, -4
 1113 0004 8146     		mov	r9, r0
 1114 0006 9346     		mov	fp, r2
 209:..\u8g2-master\csrc/u8x8_8x8.c ****   uint8_t tv = u8x8_pgm_read(u8x8->font+3);	/* new 2019 format */
 1115              		.loc 1 209 0
 1116 0008 4A46     		mov	r2, r9
 1117              	.LVL147:
 208:..\u8g2-master\csrc/u8x8_8x8.c ****   uint8_t th = u8x8_pgm_read(u8x8->font+2);		/* new 2019 format */
 1118              		.loc 1 208 0
 1119 000a 0846     		mov	r0, r1
 1120              	.LVL148:
 1121 000c 93B0     		sub	sp, sp, #76
 1122              		.cfi_def_cfa_offset 112
 208:..\u8g2-master\csrc/u8x8_8x8.c ****   uint8_t th = u8x8_pgm_read(u8x8->font+2);		/* new 2019 format */
 1123              		.loc 1 208 0
 1124 000e 0391     		str	r1, [sp, #12]
 209:..\u8g2-master\csrc/u8x8_8x8.c ****   uint8_t tv = u8x8_pgm_read(u8x8->font+3);	/* new 2019 format */
 1125              		.loc 1 209 0
 1126 0010 52F81C1F 		ldr	r1, [r2, #28]!
 1127              	.LVL149:
 208:..\u8g2-master\csrc/u8x8_8x8.c ****   uint8_t th = u8x8_pgm_read(u8x8->font+2);		/* new 2019 format */
 1128              		.loc 1 208 0
 1129 0014 0993     		str	r3, [sp, #36]
 210:..\u8g2-master\csrc/u8x8_8x8.c ****   uint8_t xx, tile;
 1130              		.loc 1 210 0
 1131 0016 CB78     		ldrb	r3, [r1, #3]	@ zero_extendqisi2
ARM GAS  C:\Users\info\AppData\Local\Temp\ccSLnsSK.s 			page 32


 1132              	.LVL150:
 209:..\u8g2-master\csrc/u8x8_8x8.c ****   uint8_t tv = u8x8_pgm_read(u8x8->font+3);	/* new 2019 format */
 1133              		.loc 1 209 0
 1134 0018 0792     		str	r2, [sp, #28]
 215:..\u8g2-master\csrc/u8x8_8x8.c ****   tile = 0;
 1135              		.loc 1 215 0
 1136 001a 0BEB4303 		add	r3, fp, r3, lsl #1
 1137 001e 03F0FF03 		and	r3, r3, #255
 209:..\u8g2-master\csrc/u8x8_8x8.c ****   uint8_t tv = u8x8_pgm_read(u8x8->font+3);	/* new 2019 format */
 1138              		.loc 1 209 0
 1139 0022 8A78     		ldrb	r2, [r1, #2]	@ zero_extendqisi2
 1140              	.LVL151:
 215:..\u8g2-master\csrc/u8x8_8x8.c ****   tile = 0;
 1141              		.loc 1 215 0
 1142 0024 0B93     		str	r3, [sp, #44]
 1143 0026 09F12303 		add	r3, r9, #35
 213:..\u8g2-master\csrc/u8x8_8x8.c ****   tv *= 2;
 1144              		.loc 1 213 0
 1145 002a 00EB4202 		add	r2, r0, r2, lsl #1
 1146              	.LVL152:
 1147 002e 0893     		str	r3, [sp, #32]
 1148 0030 431C     		adds	r3, r0, #1
 1149 0032 02F0FF02 		and	r2, r2, #255
 1150 0036 0A93     		str	r3, [sp, #40]
 216:..\u8g2-master\csrc/u8x8_8x8.c ****   do
 1151              		.loc 1 216 0
 1152 0038 0023     		movs	r3, #0
 213:..\u8g2-master\csrc/u8x8_8x8.c ****   tv *= 2;
 1153              		.loc 1 213 0
 1154 003a 0692     		str	r2, [sp, #24]
 1155              	.LVL153:
 216:..\u8g2-master\csrc/u8x8_8x8.c ****   do
 1156              		.loc 1 216 0
 1157 003c 0493     		str	r3, [sp, #16]
 1158 003e 0CAD     		add	r5, sp, #48
 1159              	.LVL154:
 1160              	.L59:
 1161 0040 0133     		adds	r3, r3, #1
 1162 0042 0BF1010A 		add	r10, fp, #1
 1163 0046 DBB2     		uxtb	r3, r3
 1164 0048 5FFA8AFA 		uxtb	r10, r10
 1165 004c 0593     		str	r3, [sp, #20]
 1166 004e 4FF00008 		mov	r8, #0
 1167              	.LVL155:
 1168              	.L58:
 1169              	.LBB46:
 1170              	.LBB47:
 186:..\u8g2-master\csrc/u8x8_8x8.c ****   for( i = 0; i < 8; i ++ )
 1171              		.loc 1 186 0 discriminator 1
 1172 0052 049B     		ldr	r3, [sp, #16]
 1173 0054 5FFA88F6 		uxtb	r6, r8
 1174 0058 3344     		add	r3, r3, r6
 1175 005a 039A     		ldr	r2, [sp, #12]
 1176 005c 7400     		lsls	r4, r6, #1
 1177 005e DBB2     		uxtb	r3, r3
 1178 0060 0093     		str	r3, [sp]
 1179 0062 E4B2     		uxtb	r4, r4
ARM GAS  C:\Users\info\AppData\Local\Temp\ccSLnsSK.s 			page 33


 1180 0064 07A8     		add	r0, sp, #28
 1181 0066 1719     		adds	r7, r2, r4
 1182 0068 2B46     		mov	r3, r5
 1183 006a 07C8     		ldmia	r0, {r0, r1, r2}
 1184 006c FFF7FEFF 		bl	u8x8_get_glyph_data.isra.0
 1185              	.LVL156:
 189:..\u8g2-master\csrc/u8x8_8x8.c ****       buf1[i] = t >> 8;
 1186              		.loc 1 189 0 discriminator 1
 1187 0070 9DF83000 		ldrb	r0, [sp, #48]	@ zero_extendqisi2
 1188 0074 FFF7FEFF 		bl	u8x8_upscale_byte
 1189              	.LVL157:
 1190 0078 0346     		mov	r3, r0
 1191 007a 9DF83100 		ldrb	r0, [sp, #49]	@ zero_extendqisi2
 190:..\u8g2-master\csrc/u8x8_8x8.c ****       buf2[i] = t & 255;
 1192              		.loc 1 190 0 discriminator 1
 1193 007e 1A0A     		lsrs	r2, r3, #8
 191:..\u8g2-master\csrc/u8x8_8x8.c ****   }
 1194              		.loc 1 191 0 discriminator 1
 1195 0080 8DF84030 		strb	r3, [sp, #64]
 190:..\u8g2-master\csrc/u8x8_8x8.c ****       buf2[i] = t & 255;
 1196              		.loc 1 190 0 discriminator 1
 1197 0084 8DF83820 		strb	r2, [sp, #56]
 189:..\u8g2-master\csrc/u8x8_8x8.c ****       buf1[i] = t >> 8;
 1198              		.loc 1 189 0 discriminator 1
 1199 0088 FFF7FEFF 		bl	u8x8_upscale_byte
 1200              	.LVL158:
 1201 008c 0346     		mov	r3, r0
 1202 008e 9DF83200 		ldrb	r0, [sp, #50]	@ zero_extendqisi2
 190:..\u8g2-master\csrc/u8x8_8x8.c ****       buf2[i] = t & 255;
 1203              		.loc 1 190 0 discriminator 1
 1204 0092 1A0A     		lsrs	r2, r3, #8
 191:..\u8g2-master\csrc/u8x8_8x8.c ****   }
 1205              		.loc 1 191 0 discriminator 1
 1206 0094 8DF84130 		strb	r3, [sp, #65]
 190:..\u8g2-master\csrc/u8x8_8x8.c ****       buf2[i] = t & 255;
 1207              		.loc 1 190 0 discriminator 1
 1208 0098 8DF83920 		strb	r2, [sp, #57]
 189:..\u8g2-master\csrc/u8x8_8x8.c ****       buf1[i] = t >> 8;
 1209              		.loc 1 189 0 discriminator 1
 1210 009c FFF7FEFF 		bl	u8x8_upscale_byte
 1211              	.LVL159:
 1212 00a0 0346     		mov	r3, r0
 1213 00a2 9DF83300 		ldrb	r0, [sp, #51]	@ zero_extendqisi2
 190:..\u8g2-master\csrc/u8x8_8x8.c ****       buf2[i] = t & 255;
 1214              		.loc 1 190 0 discriminator 1
 1215 00a6 1A0A     		lsrs	r2, r3, #8
 191:..\u8g2-master\csrc/u8x8_8x8.c ****   }
 1216              		.loc 1 191 0 discriminator 1
 1217 00a8 8DF84230 		strb	r3, [sp, #66]
 190:..\u8g2-master\csrc/u8x8_8x8.c ****       buf2[i] = t & 255;
 1218              		.loc 1 190 0 discriminator 1
 1219 00ac 8DF83A20 		strb	r2, [sp, #58]
 189:..\u8g2-master\csrc/u8x8_8x8.c ****       buf1[i] = t >> 8;
 1220              		.loc 1 189 0 discriminator 1
 1221 00b0 FFF7FEFF 		bl	u8x8_upscale_byte
 1222              	.LVL160:
 1223 00b4 0346     		mov	r3, r0
ARM GAS  C:\Users\info\AppData\Local\Temp\ccSLnsSK.s 			page 34


 1224 00b6 9DF83400 		ldrb	r0, [sp, #52]	@ zero_extendqisi2
 190:..\u8g2-master\csrc/u8x8_8x8.c ****       buf2[i] = t & 255;
 1225              		.loc 1 190 0 discriminator 1
 1226 00ba 1A0A     		lsrs	r2, r3, #8
 191:..\u8g2-master\csrc/u8x8_8x8.c ****   }
 1227              		.loc 1 191 0 discriminator 1
 1228 00bc 8DF84330 		strb	r3, [sp, #67]
 190:..\u8g2-master\csrc/u8x8_8x8.c ****       buf2[i] = t & 255;
 1229              		.loc 1 190 0 discriminator 1
 1230 00c0 8DF83B20 		strb	r2, [sp, #59]
 189:..\u8g2-master\csrc/u8x8_8x8.c ****       buf1[i] = t >> 8;
 1231              		.loc 1 189 0 discriminator 1
 1232 00c4 FFF7FEFF 		bl	u8x8_upscale_byte
 1233              	.LVL161:
 1234 00c8 0346     		mov	r3, r0
 1235 00ca 9DF83500 		ldrb	r0, [sp, #53]	@ zero_extendqisi2
 190:..\u8g2-master\csrc/u8x8_8x8.c ****       buf2[i] = t & 255;
 1236              		.loc 1 190 0 discriminator 1
 1237 00ce 1A0A     		lsrs	r2, r3, #8
 191:..\u8g2-master\csrc/u8x8_8x8.c ****   }
 1238              		.loc 1 191 0 discriminator 1
 1239 00d0 8DF84430 		strb	r3, [sp, #68]
 190:..\u8g2-master\csrc/u8x8_8x8.c ****       buf2[i] = t & 255;
 1240              		.loc 1 190 0 discriminator 1
 1241 00d4 8DF83C20 		strb	r2, [sp, #60]
 189:..\u8g2-master\csrc/u8x8_8x8.c ****       buf1[i] = t >> 8;
 1242              		.loc 1 189 0 discriminator 1
 1243 00d8 FFF7FEFF 		bl	u8x8_upscale_byte
 1244              	.LVL162:
 1245 00dc 0346     		mov	r3, r0
 1246 00de 9DF83600 		ldrb	r0, [sp, #54]	@ zero_extendqisi2
 190:..\u8g2-master\csrc/u8x8_8x8.c ****       buf2[i] = t & 255;
 1247              		.loc 1 190 0 discriminator 1
 1248 00e2 1A0A     		lsrs	r2, r3, #8
 191:..\u8g2-master\csrc/u8x8_8x8.c ****   }
 1249              		.loc 1 191 0 discriminator 1
 1250 00e4 8DF84530 		strb	r3, [sp, #69]
 190:..\u8g2-master\csrc/u8x8_8x8.c ****       buf2[i] = t & 255;
 1251              		.loc 1 190 0 discriminator 1
 1252 00e8 8DF83D20 		strb	r2, [sp, #61]
 189:..\u8g2-master\csrc/u8x8_8x8.c ****       buf1[i] = t >> 8;
 1253              		.loc 1 189 0 discriminator 1
 1254 00ec FFF7FEFF 		bl	u8x8_upscale_byte
 1255              	.LVL163:
 1256 00f0 0346     		mov	r3, r0
 1257 00f2 9DF83700 		ldrb	r0, [sp, #55]	@ zero_extendqisi2
 190:..\u8g2-master\csrc/u8x8_8x8.c ****       buf2[i] = t & 255;
 1258              		.loc 1 190 0 discriminator 1
 1259 00f6 1A0A     		lsrs	r2, r3, #8
 191:..\u8g2-master\csrc/u8x8_8x8.c ****   }
 1260              		.loc 1 191 0 discriminator 1
 1261 00f8 8DF84630 		strb	r3, [sp, #70]
 190:..\u8g2-master\csrc/u8x8_8x8.c ****       buf2[i] = t & 255;
 1262              		.loc 1 190 0 discriminator 1
 1263 00fc 8DF83E20 		strb	r2, [sp, #62]
 189:..\u8g2-master\csrc/u8x8_8x8.c ****       buf1[i] = t >> 8;
 1264              		.loc 1 189 0 discriminator 1
ARM GAS  C:\Users\info\AppData\Local\Temp\ccSLnsSK.s 			page 35


 1265 0100 FFF7FEFF 		bl	u8x8_upscale_byte
 1266              	.LVL164:
 1267 0104 0346     		mov	r3, r0
 190:..\u8g2-master\csrc/u8x8_8x8.c ****       buf2[i] = t & 255;
 1268              		.loc 1 190 0 discriminator 1
 1269 0106 020A     		lsrs	r2, r0, #8
 1270 0108 FFB2     		uxtb	r7, r7
 1271              	.LVL165:
 193:..\u8g2-master\csrc/u8x8_8x8.c ****   u8x8_DrawTile(u8x8, x, y, 1, buf);
 1272              		.loc 1 193 0 discriminator 1
 1273 010a 2946     		mov	r1, r5
 1274 010c 10A8     		add	r0, sp, #64
 1275              	.LVL166:
 191:..\u8g2-master\csrc/u8x8_8x8.c ****   }
 1276              		.loc 1 191 0 discriminator 1
 1277 010e 8DF84730 		strb	r3, [sp, #71]
 1278              	.LVL167:
 190:..\u8g2-master\csrc/u8x8_8x8.c ****       buf2[i] = t & 255;
 1279              		.loc 1 190 0 discriminator 1
 1280 0112 8DF83F20 		strb	r2, [sp, #63]
 193:..\u8g2-master\csrc/u8x8_8x8.c ****   u8x8_DrawTile(u8x8, x, y, 1, buf);
 1281              		.loc 1 193 0 discriminator 1
 1282 0116 FFF7FEFF 		bl	u8x8_upscale_buf
 1283              	.LVL168:
 194:..\u8g2-master\csrc/u8x8_8x8.c ****   
 1284              		.loc 1 194 0 discriminator 1
 1285 011a 0123     		movs	r3, #1
 1286 011c 5A46     		mov	r2, fp
 1287 011e 3946     		mov	r1, r7
 1288 0120 0095     		str	r5, [sp]
 1289 0122 4846     		mov	r0, r9
 1290 0124 FFF7FEFF 		bl	u8x8_DrawTile
 1291              	.LVL169:
 196:..\u8g2-master\csrc/u8x8_8x8.c ****   u8x8_DrawTile(u8x8, x+1, y, 1, buf);
 1292              		.loc 1 196 0 discriminator 1
 1293 0128 2946     		mov	r1, r5
 1294 012a 11A8     		add	r0, sp, #68
 1295 012c FFF7FEFF 		bl	u8x8_upscale_buf
 1296              	.LVL170:
 1297 0130 0A9B     		ldr	r3, [sp, #40]
 197:..\u8g2-master\csrc/u8x8_8x8.c ****   
 1298              		.loc 1 197 0 discriminator 1
 1299 0132 5A46     		mov	r2, fp
 1300 0134 1C44     		add	r4, r4, r3
 1301 0136 E4B2     		uxtb	r4, r4
 1302 0138 0123     		movs	r3, #1
 1303 013a 2146     		mov	r1, r4
 1304 013c 0095     		str	r5, [sp]
 1305 013e 4846     		mov	r0, r9
 1306 0140 FFF7FEFF 		bl	u8x8_DrawTile
 1307              	.LVL171:
 199:..\u8g2-master\csrc/u8x8_8x8.c ****   u8x8_DrawTile(u8x8, x, y+1, 1, buf);
 1308              		.loc 1 199 0 discriminator 1
 1309 0144 2946     		mov	r1, r5
 1310 0146 0EA8     		add	r0, sp, #56
 1311 0148 FFF7FEFF 		bl	u8x8_upscale_buf
 1312              	.LVL172:
ARM GAS  C:\Users\info\AppData\Local\Temp\ccSLnsSK.s 			page 36


 200:..\u8g2-master\csrc/u8x8_8x8.c ****   
 1313              		.loc 1 200 0 discriminator 1
 1314 014c 0123     		movs	r3, #1
 1315 014e 5246     		mov	r2, r10
 1316 0150 3946     		mov	r1, r7
 1317 0152 0095     		str	r5, [sp]
 1318 0154 4846     		mov	r0, r9
 1319 0156 FFF7FEFF 		bl	u8x8_DrawTile
 1320              	.LVL173:
 202:..\u8g2-master\csrc/u8x8_8x8.c ****   u8x8_DrawTile(u8x8, x+1, y+1, 1, buf);  
 1321              		.loc 1 202 0 discriminator 1
 1322 015a 2946     		mov	r1, r5
 1323 015c 0FA8     		add	r0, sp, #60
 1324 015e FFF7FEFF 		bl	u8x8_upscale_buf
 1325              	.LVL174:
 203:..\u8g2-master\csrc/u8x8_8x8.c **** }
 1326              		.loc 1 203 0 discriminator 1
 1327 0162 0123     		movs	r3, #1
 1328 0164 5246     		mov	r2, r10
 1329 0166 2146     		mov	r1, r4
 1330 0168 0095     		str	r5, [sp]
 1331 016a 4846     		mov	r0, r9
 1332 016c FFF7FEFF 		bl	u8x8_DrawTile
 1333              	.LVL175:
 1334              	.LBE47:
 1335              	.LBE46:
 225:..\u8g2-master\csrc/u8x8_8x8.c ****     y+=2;
 1336              		.loc 1 225 0 discriminator 1
 1337 0170 039A     		ldr	r2, [sp, #12]
 1338 0172 08F10108 		add	r8, r8, #1
 1339 0176 02EB4803 		add	r3, r2, r8, lsl #1
 1340 017a 059A     		ldr	r2, [sp, #20]
 1341 017c DBB2     		uxtb	r3, r3
 1342 017e 1644     		add	r6, r6, r2
 1343 0180 069A     		ldr	r2, [sp, #24]
 1344 0182 F6B2     		uxtb	r6, r6
 1345              	.LVL176:
 1346 0184 9A42     		cmp	r2, r3
 1347 0186 3FF664AF 		bhi	.L58
 226:..\u8g2-master\csrc/u8x8_8x8.c ****   } while( y < tv );  
 1348              		.loc 1 226 0
 1349 018a 0BF1020B 		add	fp, fp, #2
 1350              	.LVL177:
 227:..\u8g2-master\csrc/u8x8_8x8.c **** }
 1351              		.loc 1 227 0
 1352 018e 0B9B     		ldr	r3, [sp, #44]
 226:..\u8g2-master\csrc/u8x8_8x8.c ****   } while( y < tv );  
 1353              		.loc 1 226 0
 1354 0190 5FFA8BFB 		uxtb	fp, fp
 1355              	.LVL178:
 227:..\u8g2-master\csrc/u8x8_8x8.c **** }
 1356              		.loc 1 227 0
 1357 0194 5B45     		cmp	r3, fp
 1358 0196 02D9     		bls	.L63
 1359 0198 0496     		str	r6, [sp, #16]
 1360 019a 3346     		mov	r3, r6
 1361 019c 50E7     		b	.L59
ARM GAS  C:\Users\info\AppData\Local\Temp\ccSLnsSK.s 			page 37


 1362              	.L63:
 228:..\u8g2-master\csrc/u8x8_8x8.c **** 
 1363              		.loc 1 228 0
 1364 019e 13B0     		add	sp, sp, #76
 1365              		.cfi_def_cfa_offset 36
 1366              		@ sp needed
 1367 01a0 BDE8F08F 		pop	{r4, r5, r6, r7, r8, r9, r10, fp, pc}
 1368              		.cfi_endproc
 1369              	.LFE6:
 1370              		.size	u8x8_Draw2x2Glyph, .-u8x8_Draw2x2Glyph
 1371              		.section	.text.u8x8_draw_2x2_string,"ax",%progbits
 1372              		.align	2
 1373              		.thumb
 1374              		.thumb_func
 1375              		.type	u8x8_draw_2x2_string, %function
 1376              	u8x8_draw_2x2_string:
 1377              	.LFB15:
 399:..\u8g2-master\csrc/u8x8_8x8.c ****   uint16_t e;
 1378              		.loc 1 399 0
 1379              		.cfi_startproc
 1380              		@ args = 0, pretend = 0, frame = 0
 1381              		@ frame_needed = 0, uses_anonymous_args = 0
 1382              	.LVL179:
 1383 0000 2DE9F047 		push	{r4, r5, r6, r7, r8, r9, r10, lr}
 1384              		.cfi_def_cfa_offset 32
 1385              		.cfi_offset 4, -32
 1386              		.cfi_offset 5, -28
 1387              		.cfi_offset 6, -24
 1388              		.cfi_offset 7, -20
 1389              		.cfi_offset 8, -16
 1390              		.cfi_offset 9, -12
 1391              		.cfi_offset 10, -8
 1392              		.cfi_offset 14, -4
 399:..\u8g2-master\csrc/u8x8_8x8.c ****   uint16_t e;
 1393              		.loc 1 399 0
 1394 0004 0446     		mov	r4, r0
 1395              	.LVL180:
 1396              	.LBB48:
 1397              	.LBB49:
 287:..\u8g2-master\csrc/u8x8_8x8.c **** }
 1398              		.loc 1 287 0
 1399 0006 0020     		movs	r0, #0
 1400              	.LVL181:
 1401              	.LBE49:
 1402              	.LBE48:
 399:..\u8g2-master\csrc/u8x8_8x8.c ****   uint16_t e;
 1403              		.loc 1 399 0
 1404 0008 0D46     		mov	r5, r1
 1405 000a 9246     		mov	r10, r2
 401:..\u8g2-master\csrc/u8x8_8x8.c ****   u8x8_utf8_init(u8x8);
 1406              		.loc 1 401 0
 1407 000c 0746     		mov	r7, r0
 406:..\u8g2-master\csrc/u8x8_8x8.c ****       break;
 1408              		.loc 1 406 0
 1409 000e 4FF6FF78 		movw	r8, #65535
 409:..\u8g2-master\csrc/u8x8_8x8.c ****     {
 1410              		.loc 1 409 0
ARM GAS  C:\Users\info\AppData\Local\Temp\ccSLnsSK.s 			page 38


 1411 0012 4FF6FE79 		movw	r9, #65534
 1412 0016 5E1E     		subs	r6, r3, #1
 1413              	.LBB51:
 1414              	.LBB50:
 287:..\u8g2-master\csrc/u8x8_8x8.c **** }
 1415              		.loc 1 287 0
 1416 0018 84F82700 		strb	r0, [r4, #39]
 1417              	.LVL182:
 1418              	.L65:
 1419              	.LBE50:
 1420              	.LBE51:
 405:..\u8g2-master\csrc/u8x8_8x8.c ****     if ( e == 0x0ffff )
 1421              		.loc 1 405 0
 1422 001c 6368     		ldr	r3, [r4, #4]
 1423 001e 16F8011F 		ldrb	r1, [r6, #1]!	@ zero_extendqisi2
 1424              	.LVL183:
 1425 0022 2046     		mov	r0, r4
 1426 0024 9847     		blx	r3
 1427              	.LVL184:
 406:..\u8g2-master\csrc/u8x8_8x8.c ****       break;
 1428              		.loc 1 406 0
 1429 0026 4045     		cmp	r0, r8
 411:..\u8g2-master\csrc/u8x8_8x8.c ****       x+=2;
 1430              		.loc 1 411 0
 1431 0028 C3B2     		uxtb	r3, r0
 406:..\u8g2-master\csrc/u8x8_8x8.c ****       break;
 1432              		.loc 1 406 0
 1433 002a 0BD0     		beq	.L66
 409:..\u8g2-master\csrc/u8x8_8x8.c ****     {
 1434              		.loc 1 409 0
 1435 002c 4845     		cmp	r0, r9
 1436 002e F5D0     		beq	.L65
 411:..\u8g2-master\csrc/u8x8_8x8.c ****       x+=2;
 1437              		.loc 1 411 0
 1438 0030 2946     		mov	r1, r5
 1439 0032 5246     		mov	r2, r10
 1440 0034 2046     		mov	r0, r4
 1441              	.LVL185:
 412:..\u8g2-master\csrc/u8x8_8x8.c ****       cnt++;
 1442              		.loc 1 412 0
 1443 0036 0235     		adds	r5, r5, #2
 1444              	.LVL186:
 413:..\u8g2-master\csrc/u8x8_8x8.c ****     }
 1445              		.loc 1 413 0
 1446 0038 0137     		adds	r7, r7, #1
 1447              	.LVL187:
 411:..\u8g2-master\csrc/u8x8_8x8.c ****       x+=2;
 1448              		.loc 1 411 0
 1449 003a FFF7FEFF 		bl	u8x8_Draw2x2Glyph
 1450              	.LVL188:
 412:..\u8g2-master\csrc/u8x8_8x8.c ****       cnt++;
 1451              		.loc 1 412 0
 1452 003e EDB2     		uxtb	r5, r5
 1453              	.LVL189:
 413:..\u8g2-master\csrc/u8x8_8x8.c ****     }
 1454              		.loc 1 413 0
 1455 0040 FFB2     		uxtb	r7, r7
ARM GAS  C:\Users\info\AppData\Local\Temp\ccSLnsSK.s 			page 39


 1456              	.LVL190:
 1457 0042 EBE7     		b	.L65
 1458              	.LVL191:
 1459              	.L66:
 417:..\u8g2-master\csrc/u8x8_8x8.c **** 
 1460              		.loc 1 417 0
 1461 0044 3846     		mov	r0, r7
 1462              	.LVL192:
 1463 0046 BDE8F087 		pop	{r4, r5, r6, r7, r8, r9, r10, pc}
 1464              		.cfi_endproc
 1465              	.LFE15:
 1466              		.size	u8x8_draw_2x2_string, .-u8x8_draw_2x2_string
 1467 004a 00BF     		.section	.text.u8x8_Draw1x2Glyph,"ax",%progbits
 1468              		.align	2
 1469              		.global	u8x8_Draw1x2Glyph
 1470              		.thumb
 1471              		.thumb_func
 1472              		.type	u8x8_Draw1x2Glyph, %function
 1473              	u8x8_Draw1x2Glyph:
 1474              	.LFB8:
 250:..\u8g2-master\csrc/u8x8_8x8.c ****   uint8_t th = u8x8_pgm_read(u8x8->font+2);		/* new 2019 format */
 1475              		.loc 1 250 0
 1476              		.cfi_startproc
 1477              		@ args = 0, pretend = 0, frame = 48
 1478              		@ frame_needed = 0, uses_anonymous_args = 0
 1479              	.LVL193:
 1480 0000 2DE9F04F 		push	{r4, r5, r6, r7, r8, r9, r10, fp, lr}
 1481              		.cfi_def_cfa_offset 36
 1482              		.cfi_offset 4, -36
 1483              		.cfi_offset 5, -32
 1484              		.cfi_offset 6, -28
 1485              		.cfi_offset 7, -24
 1486              		.cfi_offset 8, -20
 1487              		.cfi_offset 9, -16
 1488              		.cfi_offset 10, -12
 1489              		.cfi_offset 11, -8
 1490              		.cfi_offset 14, -4
 1491 0004 9146     		mov	r9, r2
 251:..\u8g2-master\csrc/u8x8_8x8.c ****   uint8_t tv = u8x8_pgm_read(u8x8->font+3);	/* new 2019 format */
 1492              		.loc 1 251 0
 1493 0006 0246     		mov	r2, r0
 1494              	.LVL194:
 250:..\u8g2-master\csrc/u8x8_8x8.c ****   uint8_t th = u8x8_pgm_read(u8x8->font+2);		/* new 2019 format */
 1495              		.loc 1 250 0
 1496 0008 8846     		mov	r8, r1
 251:..\u8g2-master\csrc/u8x8_8x8.c ****   uint8_t tv = u8x8_pgm_read(u8x8->font+3);	/* new 2019 format */
 1497              		.loc 1 251 0
 1498 000a 52F81C1F 		ldr	r1, [r2, #28]!
 1499              	.LVL195:
 250:..\u8g2-master\csrc/u8x8_8x8.c ****   uint8_t th = u8x8_pgm_read(u8x8->font+2);		/* new 2019 format */
 1500              		.loc 1 250 0
 1501 000e 8FB0     		sub	sp, sp, #60
 1502              		.cfi_def_cfa_offset 96
 250:..\u8g2-master\csrc/u8x8_8x8.c ****   uint8_t th = u8x8_pgm_read(u8x8->font+2);		/* new 2019 format */
 1503              		.loc 1 250 0
 1504 0010 0693     		str	r3, [sp, #24]
 252:..\u8g2-master\csrc/u8x8_8x8.c ****   uint8_t xx, tile;
ARM GAS  C:\Users\info\AppData\Local\Temp\ccSLnsSK.s 			page 40


 1505              		.loc 1 252 0
 1506 0012 CB78     		ldrb	r3, [r1, #3]	@ zero_extendqisi2
 1507              	.LVL196:
 250:..\u8g2-master\csrc/u8x8_8x8.c ****   uint8_t th = u8x8_pgm_read(u8x8->font+2);		/* new 2019 format */
 1508              		.loc 1 250 0
 1509 0014 0746     		mov	r7, r0
 256:..\u8g2-master\csrc/u8x8_8x8.c ****   tile = 0;
 1510              		.loc 1 256 0
 1511 0016 09EB4303 		add	r3, r9, r3, lsl #1
 1512 001a 03F0FF03 		and	r3, r3, #255
 1513 001e 0793     		str	r3, [sp, #28]
 1514 0020 00F12303 		add	r3, r0, #35
 1515 0024 0593     		str	r3, [sp, #20]
 257:..\u8g2-master\csrc/u8x8_8x8.c ****   do
 1516              		.loc 1 257 0
 1517 0026 0023     		movs	r3, #0
 1518 0028 9B46     		mov	fp, r3
 251:..\u8g2-master\csrc/u8x8_8x8.c ****   uint8_t tv = u8x8_pgm_read(u8x8->font+3);	/* new 2019 format */
 1519              		.loc 1 251 0
 1520 002a 0492     		str	r2, [sp, #16]
 1521 002c 8A78     		ldrb	r2, [r1, #2]	@ zero_extendqisi2
 1522              	.LVL197:
 254:..\u8g2-master\csrc/u8x8_8x8.c ****   tv *= 2;
 1523              		.loc 1 254 0
 1524 002e 4244     		add	r2, r2, r8
 1525              	.LVL198:
 1526 0030 D2B2     		uxtb	r2, r2
 1527 0032 0392     		str	r2, [sp, #12]
 1528              	.LVL199:
 1529              	.L71:
 1530 0034 0BF10103 		add	r3, fp, #1
 1531 0038 09F1010A 		add	r10, r9, #1
 1532 003c DBB2     		uxtb	r3, r3
 1533 003e 5FFA8AFA 		uxtb	r10, r10
 1534 0042 0293     		str	r3, [sp, #8]
 1535 0044 0026     		movs	r6, #0
 1536              	.LVL200:
 1537              	.L70:
 1538 0046 F4B2     		uxtb	r4, r6
 1539              	.LBB54:
 1540              	.LBB55:
 238:..\u8g2-master\csrc/u8x8_8x8.c ****   for( i = 0; i < 8; i ++ )
 1541              		.loc 1 238 0 discriminator 1
 1542 0048 0BEB0403 		add	r3, fp, r4
 1543 004c DBB2     		uxtb	r3, r3
 1544 004e 0093     		str	r3, [sp]
 1545 0050 04A8     		add	r0, sp, #16
 1546 0052 07C8     		ldmia	r0, {r0, r1, r2}
 1547 0054 08AB     		add	r3, sp, #32
 1548 0056 FFF7FEFF 		bl	u8x8_get_glyph_data.isra.0
 1549              	.LVL201:
 241:..\u8g2-master\csrc/u8x8_8x8.c ****       buf1[i] = t >> 8;
 1550              		.loc 1 241 0 discriminator 1
 1551 005a 9DF82000 		ldrb	r0, [sp, #32]	@ zero_extendqisi2
 1552 005e FFF7FEFF 		bl	u8x8_upscale_byte
 1553              	.LVL202:
 1554 0062 0346     		mov	r3, r0
ARM GAS  C:\Users\info\AppData\Local\Temp\ccSLnsSK.s 			page 41


 1555 0064 9DF82100 		ldrb	r0, [sp, #33]	@ zero_extendqisi2
 242:..\u8g2-master\csrc/u8x8_8x8.c ****       buf2[i] = t & 255;
 1556              		.loc 1 242 0 discriminator 1
 1557 0068 1A0A     		lsrs	r2, r3, #8
 243:..\u8g2-master\csrc/u8x8_8x8.c ****   }
 1558              		.loc 1 243 0 discriminator 1
 1559 006a 8DF83030 		strb	r3, [sp, #48]
 242:..\u8g2-master\csrc/u8x8_8x8.c ****       buf2[i] = t & 255;
 1560              		.loc 1 242 0 discriminator 1
 1561 006e 8DF82820 		strb	r2, [sp, #40]
 241:..\u8g2-master\csrc/u8x8_8x8.c ****       buf1[i] = t >> 8;
 1562              		.loc 1 241 0 discriminator 1
 1563 0072 FFF7FEFF 		bl	u8x8_upscale_byte
 1564              	.LVL203:
 1565 0076 0346     		mov	r3, r0
 1566 0078 9DF82200 		ldrb	r0, [sp, #34]	@ zero_extendqisi2
 242:..\u8g2-master\csrc/u8x8_8x8.c ****       buf2[i] = t & 255;
 1567              		.loc 1 242 0 discriminator 1
 1568 007c 1A0A     		lsrs	r2, r3, #8
 243:..\u8g2-master\csrc/u8x8_8x8.c ****   }
 1569              		.loc 1 243 0 discriminator 1
 1570 007e 8DF83130 		strb	r3, [sp, #49]
 242:..\u8g2-master\csrc/u8x8_8x8.c ****       buf2[i] = t & 255;
 1571              		.loc 1 242 0 discriminator 1
 1572 0082 8DF82920 		strb	r2, [sp, #41]
 241:..\u8g2-master\csrc/u8x8_8x8.c ****       buf1[i] = t >> 8;
 1573              		.loc 1 241 0 discriminator 1
 1574 0086 FFF7FEFF 		bl	u8x8_upscale_byte
 1575              	.LVL204:
 1576 008a 0346     		mov	r3, r0
 1577 008c 9DF82300 		ldrb	r0, [sp, #35]	@ zero_extendqisi2
 242:..\u8g2-master\csrc/u8x8_8x8.c ****       buf2[i] = t & 255;
 1578              		.loc 1 242 0 discriminator 1
 1579 0090 1A0A     		lsrs	r2, r3, #8
 243:..\u8g2-master\csrc/u8x8_8x8.c ****   }
 1580              		.loc 1 243 0 discriminator 1
 1581 0092 8DF83230 		strb	r3, [sp, #50]
 242:..\u8g2-master\csrc/u8x8_8x8.c ****       buf2[i] = t & 255;
 1582              		.loc 1 242 0 discriminator 1
 1583 0096 8DF82A20 		strb	r2, [sp, #42]
 241:..\u8g2-master\csrc/u8x8_8x8.c ****       buf1[i] = t >> 8;
 1584              		.loc 1 241 0 discriminator 1
 1585 009a FFF7FEFF 		bl	u8x8_upscale_byte
 1586              	.LVL205:
 1587 009e 0346     		mov	r3, r0
 1588 00a0 9DF82400 		ldrb	r0, [sp, #36]	@ zero_extendqisi2
 242:..\u8g2-master\csrc/u8x8_8x8.c ****       buf2[i] = t & 255;
 1589              		.loc 1 242 0 discriminator 1
 1590 00a4 1A0A     		lsrs	r2, r3, #8
 243:..\u8g2-master\csrc/u8x8_8x8.c ****   }
 1591              		.loc 1 243 0 discriminator 1
 1592 00a6 8DF83330 		strb	r3, [sp, #51]
 242:..\u8g2-master\csrc/u8x8_8x8.c ****       buf2[i] = t & 255;
 1593              		.loc 1 242 0 discriminator 1
 1594 00aa 8DF82B20 		strb	r2, [sp, #43]
 241:..\u8g2-master\csrc/u8x8_8x8.c ****       buf1[i] = t >> 8;
 1595              		.loc 1 241 0 discriminator 1
ARM GAS  C:\Users\info\AppData\Local\Temp\ccSLnsSK.s 			page 42


 1596 00ae FFF7FEFF 		bl	u8x8_upscale_byte
 1597              	.LVL206:
 1598 00b2 0346     		mov	r3, r0
 1599 00b4 9DF82500 		ldrb	r0, [sp, #37]	@ zero_extendqisi2
 242:..\u8g2-master\csrc/u8x8_8x8.c ****       buf2[i] = t & 255;
 1600              		.loc 1 242 0 discriminator 1
 1601 00b8 1A0A     		lsrs	r2, r3, #8
 243:..\u8g2-master\csrc/u8x8_8x8.c ****   }
 1602              		.loc 1 243 0 discriminator 1
 1603 00ba 8DF83430 		strb	r3, [sp, #52]
 242:..\u8g2-master\csrc/u8x8_8x8.c ****       buf2[i] = t & 255;
 1604              		.loc 1 242 0 discriminator 1
 1605 00be 8DF82C20 		strb	r2, [sp, #44]
 241:..\u8g2-master\csrc/u8x8_8x8.c ****       buf1[i] = t >> 8;
 1606              		.loc 1 241 0 discriminator 1
 1607 00c2 FFF7FEFF 		bl	u8x8_upscale_byte
 1608              	.LVL207:
 1609 00c6 0346     		mov	r3, r0
 1610 00c8 9DF82600 		ldrb	r0, [sp, #38]	@ zero_extendqisi2
 242:..\u8g2-master\csrc/u8x8_8x8.c ****       buf2[i] = t & 255;
 1611              		.loc 1 242 0 discriminator 1
 1612 00cc 1A0A     		lsrs	r2, r3, #8
 243:..\u8g2-master\csrc/u8x8_8x8.c ****   }
 1613              		.loc 1 243 0 discriminator 1
 1614 00ce 8DF83530 		strb	r3, [sp, #53]
 242:..\u8g2-master\csrc/u8x8_8x8.c ****       buf2[i] = t & 255;
 1615              		.loc 1 242 0 discriminator 1
 1616 00d2 8DF82D20 		strb	r2, [sp, #45]
 241:..\u8g2-master\csrc/u8x8_8x8.c ****       buf1[i] = t >> 8;
 1617              		.loc 1 241 0 discriminator 1
 1618 00d6 FFF7FEFF 		bl	u8x8_upscale_byte
 1619              	.LVL208:
 1620 00da 0346     		mov	r3, r0
 1621 00dc 9DF82700 		ldrb	r0, [sp, #39]	@ zero_extendqisi2
 242:..\u8g2-master\csrc/u8x8_8x8.c ****       buf2[i] = t & 255;
 1622              		.loc 1 242 0 discriminator 1
 1623 00e0 1A0A     		lsrs	r2, r3, #8
 243:..\u8g2-master\csrc/u8x8_8x8.c ****   }
 1624              		.loc 1 243 0 discriminator 1
 1625 00e2 8DF83630 		strb	r3, [sp, #54]
 242:..\u8g2-master\csrc/u8x8_8x8.c ****       buf2[i] = t & 255;
 1626              		.loc 1 242 0 discriminator 1
 1627 00e6 8DF82E20 		strb	r2, [sp, #46]
 241:..\u8g2-master\csrc/u8x8_8x8.c ****       buf1[i] = t >> 8;
 1628              		.loc 1 241 0 discriminator 1
 1629 00ea FFF7FEFF 		bl	u8x8_upscale_byte
 1630              	.LVL209:
 1631 00ee 08EB0405 		add	r5, r8, r4
 1632 00f2 EDB2     		uxtb	r5, r5
 1633              	.LVL210:
 245:..\u8g2-master\csrc/u8x8_8x8.c ****   u8x8_DrawTile(u8x8, x, y+1, 1, buf1);
 1634              		.loc 1 245 0 discriminator 1
 1635 00f4 0CAB     		add	r3, sp, #48
 242:..\u8g2-master\csrc/u8x8_8x8.c ****       buf2[i] = t & 255;
 1636              		.loc 1 242 0 discriminator 1
 1637 00f6 4FEA102E 		lsr	lr, r0, #8
 245:..\u8g2-master\csrc/u8x8_8x8.c ****   u8x8_DrawTile(u8x8, x, y+1, 1, buf1);
ARM GAS  C:\Users\info\AppData\Local\Temp\ccSLnsSK.s 			page 43


 1638              		.loc 1 245 0 discriminator 1
 1639 00fa 0093     		str	r3, [sp]
 1640 00fc 2946     		mov	r1, r5
 1641 00fe 0123     		movs	r3, #1
 1642 0100 4A46     		mov	r2, r9
 243:..\u8g2-master\csrc/u8x8_8x8.c ****   }
 1643              		.loc 1 243 0 discriminator 1
 1644 0102 8DF83700 		strb	r0, [sp, #55]
 1645              	.LVL211:
 245:..\u8g2-master\csrc/u8x8_8x8.c ****   u8x8_DrawTile(u8x8, x, y+1, 1, buf1);
 1646              		.loc 1 245 0 discriminator 1
 1647 0106 3846     		mov	r0, r7
 1648              	.LVL212:
 1649 0108 1E44     		add	r6, r6, r3
 242:..\u8g2-master\csrc/u8x8_8x8.c ****       buf2[i] = t & 255;
 1650              		.loc 1 242 0 discriminator 1
 1651 010a 8DF82FE0 		strb	lr, [sp, #47]
 245:..\u8g2-master\csrc/u8x8_8x8.c ****   u8x8_DrawTile(u8x8, x, y+1, 1, buf1);
 1652              		.loc 1 245 0 discriminator 1
 1653 010e FFF7FEFF 		bl	u8x8_DrawTile
 1654              	.LVL213:
 246:..\u8g2-master\csrc/u8x8_8x8.c **** }
 1655              		.loc 1 246 0 discriminator 1
 1656 0112 0AAB     		add	r3, sp, #40
 1657 0114 0093     		str	r3, [sp]
 1658 0116 5246     		mov	r2, r10
 1659 0118 0123     		movs	r3, #1
 1660 011a 2946     		mov	r1, r5
 1661 011c 3846     		mov	r0, r7
 1662 011e FFF7FEFF 		bl	u8x8_DrawTile
 1663              	.LVL214:
 1664 0122 029A     		ldr	r2, [sp, #8]
 1665              	.LBE55:
 1666              	.LBE54:
 266:..\u8g2-master\csrc/u8x8_8x8.c ****     y+=2;
 1667              		.loc 1 266 0 discriminator 1
 1668 0124 08EB0603 		add	r3, r8, r6
 1669 0128 1444     		add	r4, r4, r2
 1670              	.LVL215:
 1671 012a 039A     		ldr	r2, [sp, #12]
 1672 012c DBB2     		uxtb	r3, r3
 1673 012e 9A42     		cmp	r2, r3
 1674 0130 E4B2     		uxtb	r4, r4
 1675              	.LVL216:
 1676 0132 88D8     		bhi	.L70
 267:..\u8g2-master\csrc/u8x8_8x8.c ****   } while( y < tv );  
 1677              		.loc 1 267 0
 1678 0134 09F10209 		add	r9, r9, #2
 1679              	.LVL217:
 268:..\u8g2-master\csrc/u8x8_8x8.c **** }
 1680              		.loc 1 268 0
 1681 0138 079B     		ldr	r3, [sp, #28]
 267:..\u8g2-master\csrc/u8x8_8x8.c ****   } while( y < tv );  
 1682              		.loc 1 267 0
 1683 013a 5FFA89F9 		uxtb	r9, r9
 1684              	.LVL218:
 268:..\u8g2-master\csrc/u8x8_8x8.c **** }
ARM GAS  C:\Users\info\AppData\Local\Temp\ccSLnsSK.s 			page 44


 1685              		.loc 1 268 0
 1686 013e 4B45     		cmp	r3, r9
 1687 0140 01D9     		bls	.L75
 1688 0142 A346     		mov	fp, r4
 1689 0144 76E7     		b	.L71
 1690              	.L75:
 269:..\u8g2-master\csrc/u8x8_8x8.c **** 
 1691              		.loc 1 269 0
 1692 0146 0FB0     		add	sp, sp, #60
 1693              		.cfi_def_cfa_offset 36
 1694              		@ sp needed
 1695 0148 BDE8F08F 		pop	{r4, r5, r6, r7, r8, r9, r10, fp, pc}
 1696              		.cfi_endproc
 1697              	.LFE8:
 1698              		.size	u8x8_Draw1x2Glyph, .-u8x8_Draw1x2Glyph
 1699              		.section	.text.u8x8_utf8_init,"ax",%progbits
 1700              		.align	2
 1701              		.global	u8x8_utf8_init
 1702              		.thumb
 1703              		.thumb_func
 1704              		.type	u8x8_utf8_init, %function
 1705              	u8x8_utf8_init:
 1706              	.LFB9:
 286:..\u8g2-master\csrc/u8x8_8x8.c ****   u8x8->utf8_state = 0;	/* also reset during u8x8_SetupDefaults() */
 1707              		.loc 1 286 0
 1708              		.cfi_startproc
 1709              		@ args = 0, pretend = 0, frame = 0
 1710              		@ frame_needed = 0, uses_anonymous_args = 0
 1711              		@ link register save eliminated.
 1712              	.LVL219:
 287:..\u8g2-master\csrc/u8x8_8x8.c **** }
 1713              		.loc 1 287 0
 1714 0000 0023     		movs	r3, #0
 1715 0002 80F82730 		strb	r3, [r0, #39]
 1716 0006 7047     		bx	lr
 1717              		.cfi_endproc
 1718              	.LFE9:
 1719              		.size	u8x8_utf8_init, .-u8x8_utf8_init
 1720              		.section	.text.u8x8_DrawString,"ax",%progbits
 1721              		.align	2
 1722              		.global	u8x8_DrawString
 1723              		.thumb
 1724              		.thumb_func
 1725              		.type	u8x8_DrawString, %function
 1726              	u8x8_DrawString:
 1727              	.LFB13:
 384:..\u8g2-master\csrc/u8x8_8x8.c ****   u8x8->next_cb = u8x8_ascii_next;
 1728              		.loc 1 384 0
 1729              		.cfi_startproc
 1730              		@ args = 0, pretend = 0, frame = 0
 1731              		@ frame_needed = 0, uses_anonymous_args = 0
 1732              		@ link register save eliminated.
 1733              	.LVL220:
 1734 0000 10B4     		push	{r4}
 1735              		.cfi_def_cfa_offset 4
 1736              		.cfi_offset 4, -4
 385:..\u8g2-master\csrc/u8x8_8x8.c ****   return u8x8_draw_string(u8x8, x, y, s);
ARM GAS  C:\Users\info\AppData\Local\Temp\ccSLnsSK.s 			page 45


 1737              		.loc 1 385 0
 1738 0002 024C     		ldr	r4, .L79
 1739 0004 4460     		str	r4, [r0, #4]
 387:..\u8g2-master\csrc/u8x8_8x8.c **** 
 1740              		.loc 1 387 0
 1741 0006 10BC     		pop	{r4}
 1742              		.cfi_restore 4
 1743              		.cfi_def_cfa_offset 0
 386:..\u8g2-master\csrc/u8x8_8x8.c **** }
 1744              		.loc 1 386 0
 1745 0008 FFF7FEBF 		b	u8x8_draw_string
 1746              	.LVL221:
 1747              	.L80:
 1748              		.align	2
 1749              	.L79:
 1750 000c 00000000 		.word	u8x8_ascii_next
 1751              		.cfi_endproc
 1752              	.LFE13:
 1753              		.size	u8x8_DrawString, .-u8x8_DrawString
 1754              		.section	.text.u8x8_DrawUTF8,"ax",%progbits
 1755              		.align	2
 1756              		.global	u8x8_DrawUTF8
 1757              		.thumb
 1758              		.thumb_func
 1759              		.type	u8x8_DrawUTF8, %function
 1760              	u8x8_DrawUTF8:
 1761              	.LFB14:
 390:..\u8g2-master\csrc/u8x8_8x8.c ****   u8x8->next_cb = u8x8_utf8_next;
 1762              		.loc 1 390 0
 1763              		.cfi_startproc
 1764              		@ args = 0, pretend = 0, frame = 0
 1765              		@ frame_needed = 0, uses_anonymous_args = 0
 1766              		@ link register save eliminated.
 1767              	.LVL222:
 1768 0000 10B4     		push	{r4}
 1769              		.cfi_def_cfa_offset 4
 1770              		.cfi_offset 4, -4
 391:..\u8g2-master\csrc/u8x8_8x8.c ****   return u8x8_draw_string(u8x8, x, y, s);
 1771              		.loc 1 391 0
 1772 0002 024C     		ldr	r4, .L83
 1773 0004 4460     		str	r4, [r0, #4]
 393:..\u8g2-master\csrc/u8x8_8x8.c **** 
 1774              		.loc 1 393 0
 1775 0006 10BC     		pop	{r4}
 1776              		.cfi_restore 4
 1777              		.cfi_def_cfa_offset 0
 392:..\u8g2-master\csrc/u8x8_8x8.c **** }
 1778              		.loc 1 392 0
 1779 0008 FFF7FEBF 		b	u8x8_draw_string
 1780              	.LVL223:
 1781              	.L84:
 1782              		.align	2
 1783              	.L83:
 1784 000c 00000000 		.word	u8x8_utf8_next
 1785              		.cfi_endproc
 1786              	.LFE14:
 1787              		.size	u8x8_DrawUTF8, .-u8x8_DrawUTF8
ARM GAS  C:\Users\info\AppData\Local\Temp\ccSLnsSK.s 			page 46


 1788              		.section	.text.u8x8_Draw2x2String,"ax",%progbits
 1789              		.align	2
 1790              		.global	u8x8_Draw2x2String
 1791              		.thumb
 1792              		.thumb_func
 1793              		.type	u8x8_Draw2x2String, %function
 1794              	u8x8_Draw2x2String:
 1795              	.LFB16:
 421:..\u8g2-master\csrc/u8x8_8x8.c ****   u8x8->next_cb = u8x8_ascii_next;
 1796              		.loc 1 421 0
 1797              		.cfi_startproc
 1798              		@ args = 0, pretend = 0, frame = 0
 1799              		@ frame_needed = 0, uses_anonymous_args = 0
 1800              		@ link register save eliminated.
 1801              	.LVL224:
 1802 0000 10B4     		push	{r4}
 1803              		.cfi_def_cfa_offset 4
 1804              		.cfi_offset 4, -4
 422:..\u8g2-master\csrc/u8x8_8x8.c ****   return u8x8_draw_2x2_string(u8x8, x, y, s);
 1805              		.loc 1 422 0
 1806 0002 024C     		ldr	r4, .L87
 1807 0004 4460     		str	r4, [r0, #4]
 424:..\u8g2-master\csrc/u8x8_8x8.c **** 
 1808              		.loc 1 424 0
 1809 0006 10BC     		pop	{r4}
 1810              		.cfi_restore 4
 1811              		.cfi_def_cfa_offset 0
 423:..\u8g2-master\csrc/u8x8_8x8.c **** }
 1812              		.loc 1 423 0
 1813 0008 FFF7FEBF 		b	u8x8_draw_2x2_string
 1814              	.LVL225:
 1815              	.L88:
 1816              		.align	2
 1817              	.L87:
 1818 000c 00000000 		.word	u8x8_ascii_next
 1819              		.cfi_endproc
 1820              	.LFE16:
 1821              		.size	u8x8_Draw2x2String, .-u8x8_Draw2x2String
 1822              		.section	.text.u8x8_Draw2x2UTF8,"ax",%progbits
 1823              		.align	2
 1824              		.global	u8x8_Draw2x2UTF8
 1825              		.thumb
 1826              		.thumb_func
 1827              		.type	u8x8_Draw2x2UTF8, %function
 1828              	u8x8_Draw2x2UTF8:
 1829              	.LFB17:
 427:..\u8g2-master\csrc/u8x8_8x8.c ****   u8x8->next_cb = u8x8_utf8_next;
 1830              		.loc 1 427 0
 1831              		.cfi_startproc
 1832              		@ args = 0, pretend = 0, frame = 0
 1833              		@ frame_needed = 0, uses_anonymous_args = 0
 1834              		@ link register save eliminated.
 1835              	.LVL226:
 1836 0000 10B4     		push	{r4}
 1837              		.cfi_def_cfa_offset 4
 1838              		.cfi_offset 4, -4
 428:..\u8g2-master\csrc/u8x8_8x8.c ****   return u8x8_draw_2x2_string(u8x8, x, y, s);
ARM GAS  C:\Users\info\AppData\Local\Temp\ccSLnsSK.s 			page 47


 1839              		.loc 1 428 0
 1840 0002 024C     		ldr	r4, .L91
 1841 0004 4460     		str	r4, [r0, #4]
 430:..\u8g2-master\csrc/u8x8_8x8.c **** 
 1842              		.loc 1 430 0
 1843 0006 10BC     		pop	{r4}
 1844              		.cfi_restore 4
 1845              		.cfi_def_cfa_offset 0
 429:..\u8g2-master\csrc/u8x8_8x8.c **** }
 1846              		.loc 1 429 0
 1847 0008 FFF7FEBF 		b	u8x8_draw_2x2_string
 1848              	.LVL227:
 1849              	.L92:
 1850              		.align	2
 1851              	.L91:
 1852 000c 00000000 		.word	u8x8_utf8_next
 1853              		.cfi_endproc
 1854              	.LFE17:
 1855              		.size	u8x8_Draw2x2UTF8, .-u8x8_Draw2x2UTF8
 1856              		.section	.text.u8x8_Draw1x2String,"ax",%progbits
 1857              		.align	2
 1858              		.global	u8x8_Draw1x2String
 1859              		.thumb
 1860              		.thumb_func
 1861              		.type	u8x8_Draw1x2String, %function
 1862              	u8x8_Draw1x2String:
 1863              	.LFB19:
 455:..\u8g2-master\csrc/u8x8_8x8.c **** 
 456:..\u8g2-master\csrc/u8x8_8x8.c **** 
 457:..\u8g2-master\csrc/u8x8_8x8.c **** uint8_t u8x8_Draw1x2String(u8x8_t *u8x8, uint8_t x, uint8_t y, const char *s)
 458:..\u8g2-master\csrc/u8x8_8x8.c **** {
 1864              		.loc 1 458 0
 1865              		.cfi_startproc
 1866              		@ args = 0, pretend = 0, frame = 0
 1867              		@ frame_needed = 0, uses_anonymous_args = 0
 1868              		@ link register save eliminated.
 1869              	.LVL228:
 1870 0000 10B4     		push	{r4}
 1871              		.cfi_def_cfa_offset 4
 1872              		.cfi_offset 4, -4
 459:..\u8g2-master\csrc/u8x8_8x8.c ****   u8x8->next_cb = u8x8_ascii_next;
 1873              		.loc 1 459 0
 1874 0002 024C     		ldr	r4, .L95
 1875 0004 4460     		str	r4, [r0, #4]
 460:..\u8g2-master\csrc/u8x8_8x8.c ****   return u8x8_draw_1x2_string(u8x8, x, y, s);
 461:..\u8g2-master\csrc/u8x8_8x8.c **** }
 1876              		.loc 1 461 0
 1877 0006 10BC     		pop	{r4}
 1878              		.cfi_restore 4
 1879              		.cfi_def_cfa_offset 0
 460:..\u8g2-master\csrc/u8x8_8x8.c ****   return u8x8_draw_1x2_string(u8x8, x, y, s);
 1880              		.loc 1 460 0
 1881 0008 FFF7FEBF 		b	u8x8_draw_1x2_string
 1882              	.LVL229:
 1883              	.L96:
 1884              		.align	2
 1885              	.L95:
ARM GAS  C:\Users\info\AppData\Local\Temp\ccSLnsSK.s 			page 48


 1886 000c 00000000 		.word	u8x8_ascii_next
 1887              		.cfi_endproc
 1888              	.LFE19:
 1889              		.size	u8x8_Draw1x2String, .-u8x8_Draw1x2String
 1890              		.section	.text.u8x8_Draw1x2UTF8,"ax",%progbits
 1891              		.align	2
 1892              		.global	u8x8_Draw1x2UTF8
 1893              		.thumb
 1894              		.thumb_func
 1895              		.type	u8x8_Draw1x2UTF8, %function
 1896              	u8x8_Draw1x2UTF8:
 1897              	.LFB20:
 462:..\u8g2-master\csrc/u8x8_8x8.c **** 
 463:..\u8g2-master\csrc/u8x8_8x8.c **** uint8_t u8x8_Draw1x2UTF8(u8x8_t *u8x8, uint8_t x, uint8_t y, const char *s)
 464:..\u8g2-master\csrc/u8x8_8x8.c **** {
 1898              		.loc 1 464 0
 1899              		.cfi_startproc
 1900              		@ args = 0, pretend = 0, frame = 0
 1901              		@ frame_needed = 0, uses_anonymous_args = 0
 1902              		@ link register save eliminated.
 1903              	.LVL230:
 1904 0000 10B4     		push	{r4}
 1905              		.cfi_def_cfa_offset 4
 1906              		.cfi_offset 4, -4
 465:..\u8g2-master\csrc/u8x8_8x8.c ****   u8x8->next_cb = u8x8_utf8_next;
 1907              		.loc 1 465 0
 1908 0002 024C     		ldr	r4, .L99
 1909 0004 4460     		str	r4, [r0, #4]
 466:..\u8g2-master\csrc/u8x8_8x8.c ****   return u8x8_draw_1x2_string(u8x8, x, y, s);
 467:..\u8g2-master\csrc/u8x8_8x8.c **** }
 1910              		.loc 1 467 0
 1911 0006 10BC     		pop	{r4}
 1912              		.cfi_restore 4
 1913              		.cfi_def_cfa_offset 0
 466:..\u8g2-master\csrc/u8x8_8x8.c ****   return u8x8_draw_1x2_string(u8x8, x, y, s);
 1914              		.loc 1 466 0
 1915 0008 FFF7FEBF 		b	u8x8_draw_1x2_string
 1916              	.LVL231:
 1917              	.L100:
 1918              		.align	2
 1919              	.L99:
 1920 000c 00000000 		.word	u8x8_utf8_next
 1921              		.cfi_endproc
 1922              	.LFE20:
 1923              		.size	u8x8_Draw1x2UTF8, .-u8x8_Draw1x2UTF8
 1924              		.section	.text.u8x8_GetUTF8Len,"ax",%progbits
 1925              		.align	2
 1926              		.global	u8x8_GetUTF8Len
 1927              		.thumb
 1928              		.thumb_func
 1929              		.type	u8x8_GetUTF8Len, %function
 1930              	u8x8_GetUTF8Len:
 1931              	.LFB21:
 468:..\u8g2-master\csrc/u8x8_8x8.c **** 
 469:..\u8g2-master\csrc/u8x8_8x8.c **** 
 470:..\u8g2-master\csrc/u8x8_8x8.c **** 
 471:..\u8g2-master\csrc/u8x8_8x8.c **** uint8_t u8x8_GetUTF8Len(u8x8_t *u8x8, const char *s)
ARM GAS  C:\Users\info\AppData\Local\Temp\ccSLnsSK.s 			page 49


 472:..\u8g2-master\csrc/u8x8_8x8.c **** {
 1932              		.loc 1 472 0
 1933              		.cfi_startproc
 1934              		@ args = 0, pretend = 0, frame = 0
 1935              		@ frame_needed = 0, uses_anonymous_args = 0
 1936              	.LVL232:
 1937 0000 2DE9F047 		push	{r4, r5, r6, r7, r8, r9, r10, lr}
 1938              		.cfi_def_cfa_offset 32
 1939              		.cfi_offset 4, -32
 1940              		.cfi_offset 5, -28
 1941              		.cfi_offset 6, -24
 1942              		.cfi_offset 7, -20
 1943              		.cfi_offset 8, -16
 1944              		.cfi_offset 9, -12
 1945              		.cfi_offset 10, -8
 1946              		.cfi_offset 14, -4
 1947              	.LBB62:
 1948              	.LBB63:
 287:..\u8g2-master\csrc/u8x8_8x8.c **** }
 1949              		.loc 1 287 0
 1950 0004 0023     		movs	r3, #0
 1951              	.LBE63:
 1952              	.LBE62:
 1953              		.loc 1 472 0
 1954 0006 0446     		mov	r4, r0
 1955              	.LVL233:
 473:..\u8g2-master\csrc/u8x8_8x8.c ****   uint16_t e;
 474:..\u8g2-master\csrc/u8x8_8x8.c ****   uint8_t cnt = 0;
 475:..\u8g2-master\csrc/u8x8_8x8.c ****   u8x8_utf8_init(u8x8);
 476:..\u8g2-master\csrc/u8x8_8x8.c ****   for(;;)
 477:..\u8g2-master\csrc/u8x8_8x8.c ****   {
 478:..\u8g2-master\csrc/u8x8_8x8.c ****     e = u8x8_utf8_next(u8x8, *s);
 479:..\u8g2-master\csrc/u8x8_8x8.c ****     if ( e == 0x0ffff )
 1956              		.loc 1 479 0
 1957 0008 4FF6FF76 		movw	r6, #65535
 474:..\u8g2-master\csrc/u8x8_8x8.c ****   u8x8_utf8_init(u8x8);
 1958              		.loc 1 474 0
 1959 000c 1846     		mov	r0, r3
 1960              	.LVL234:
 480:..\u8g2-master\csrc/u8x8_8x8.c ****       break;
 481:..\u8g2-master\csrc/u8x8_8x8.c ****     s++;
 482:..\u8g2-master\csrc/u8x8_8x8.c ****     if ( e != 0x0fffe )
 1961              		.loc 1 482 0
 1962 000e 4FF6FE72 		movw	r2, #65534
 1963              	.LBB65:
 1964              	.LBB64:
 287:..\u8g2-master\csrc/u8x8_8x8.c **** }
 1965              		.loc 1 287 0
 1966 0012 84F82730 		strb	r3, [r4, #39]
 1967              	.LBE64:
 1968              	.LBE65:
 1969              	.LBB66:
 1970              	.LBB67:
 1971              	.LBB68:
 1972              	.LBB69:
 332:..\u8g2-master\csrc/u8x8_8x8.c ****       b &= 0x01f;
 1973              		.loc 1 332 0
ARM GAS  C:\Users\info\AppData\Local\Temp\ccSLnsSK.s 			page 50


 1974 0016 4FF00108 		mov	r8, #1
 327:..\u8g2-master\csrc/u8x8_8x8.c ****       b &= 15;
 1975              		.loc 1 327 0
 1976 001a 4FF0020C 		mov	ip, #2
 322:..\u8g2-master\csrc/u8x8_8x8.c ****       b &= 7;      
 1977              		.loc 1 322 0
 1978 001e 4FF0030E 		mov	lr, #3
 317:..\u8g2-master\csrc/u8x8_8x8.c ****       b &= 3;
 1979              		.loc 1 317 0
 1980 0022 0427     		movs	r7, #4
 312:..\u8g2-master\csrc/u8x8_8x8.c ****       b &= 1;
 1981              		.loc 1 312 0
 1982 0024 0525     		movs	r5, #5
 1983              	.LVL235:
 1984              	.L102:
 1985              	.LBE69:
 1986              	.LBE68:
 1987              	.LBE67:
 1988              	.LBE66:
 478:..\u8g2-master\csrc/u8x8_8x8.c ****     if ( e == 0x0ffff )
 1989              		.loc 1 478 0
 1990 0026 11F8013B 		ldrb	r3, [r1], #1	@ zero_extendqisi2
 1991              	.LVL236:
 1992              	.LBB77:
 1993              	.LBB74:
 306:..\u8g2-master\csrc/u8x8_8x8.c ****     return 0x0ffff;	/* end of string detected, pending UTF8 is discarded */
 1994              		.loc 1 306 0
 1995 002a 0BB9     		cbnz	r3, .L120
 1996              	.LVL237:
 1997              	.L103:
 1998              	.LBE74:
 1999              	.LBE77:
 483:..\u8g2-master\csrc/u8x8_8x8.c ****       cnt++;
 484:..\u8g2-master\csrc/u8x8_8x8.c ****   }
 485:..\u8g2-master\csrc/u8x8_8x8.c ****   return cnt;
 486:..\u8g2-master\csrc/u8x8_8x8.c **** }
 2000              		.loc 1 486 0
 2001 002c BDE8F087 		pop	{r4, r5, r6, r7, r8, r9, r10, pc}
 2002              	.LVL238:
 2003              	.L120:
 2004              	.LBB78:
 2005              	.LBB75:
 306:..\u8g2-master\csrc/u8x8_8x8.c ****     return 0x0ffff;	/* end of string detected, pending UTF8 is discarded */
 2006              		.loc 1 306 0
 2007 0030 0A2B     		cmp	r3, #10
 2008 0032 FBD0     		beq	.L103
 308:..\u8g2-master\csrc/u8x8_8x8.c ****   {
 2009              		.loc 1 308 0
 2010 0034 94F82790 		ldrb	r9, [r4, #39]	@ zero_extendqisi2
 2011 0038 B9F1000F 		cmp	r9, #0
 2012 003c 07D1     		bne	.L104
 2013              	.LVL239:
 2014              	.LBB72:
 2015              	.LBB70:
 310:..\u8g2-master\csrc/u8x8_8x8.c ****     {
 2016              		.loc 1 310 0
 2017 003e FB2B     		cmp	r3, #251
ARM GAS  C:\Users\info\AppData\Local\Temp\ccSLnsSK.s 			page 51


 2018 0040 1DD9     		bls	.L105
 312:..\u8g2-master\csrc/u8x8_8x8.c ****       b &= 1;
 2019              		.loc 1 312 0
 2020 0042 84F82750 		strb	r5, [r4, #39]
 313:..\u8g2-master\csrc/u8x8_8x8.c ****     }
 2021              		.loc 1 313 0
 2022 0046 03F00103 		and	r3, r3, #1
 2023              	.LVL240:
 2024              	.L106:
 340:..\u8g2-master\csrc/u8x8_8x8.c ****     return 0x0fffe;
 2025              		.loc 1 340 0
 2026 004a 2384     		strh	r3, [r4, #32]	@ movhi
 2027 004c EBE7     		b	.L102
 2028              	.LVL241:
 2029              	.L104:
 2030              	.LBE70:
 2031              	.LBE72:
 349:..\u8g2-master\csrc/u8x8_8x8.c ****     if ( u8x8->utf8_state != 0 )
 2032              		.loc 1 349 0
 2033 004e B4F820A0 		ldrh	r10, [r4, #32]
 2034 0052 03F03F03 		and	r3, r3, #63
 2035              	.LVL242:
 345:..\u8g2-master\csrc/u8x8_8x8.c ****     /* The case b < 0x080 (an illegal UTF8 encoding) is not checked here. */
 2036              		.loc 1 345 0
 2037 0056 09F1FF39 		add	r9, r9, #-1
 349:..\u8g2-master\csrc/u8x8_8x8.c ****     if ( u8x8->utf8_state != 0 )
 2038              		.loc 1 349 0
 2039 005a 43EA8A13 		orr	r3, r3, r10, lsl #6
 345:..\u8g2-master\csrc/u8x8_8x8.c ****     /* The case b < 0x080 (an illegal UTF8 encoding) is not checked here. */
 2040              		.loc 1 345 0
 2041 005e 5FFA89F9 		uxtb	r9, r9
 349:..\u8g2-master\csrc/u8x8_8x8.c ****     if ( u8x8->utf8_state != 0 )
 2042              		.loc 1 349 0
 2043 0062 9BB2     		uxth	r3, r3
 345:..\u8g2-master\csrc/u8x8_8x8.c ****     /* The case b < 0x080 (an illegal UTF8 encoding) is not checked here. */
 2044              		.loc 1 345 0
 2045 0064 84F82790 		strb	r9, [r4, #39]
 2046              	.LVL243:
 349:..\u8g2-master\csrc/u8x8_8x8.c ****     if ( u8x8->utf8_state != 0 )
 2047              		.loc 1 349 0
 2048 0068 2384     		strh	r3, [r4, #32]	@ movhi
 350:..\u8g2-master\csrc/u8x8_8x8.c ****       return 0x0fffe;	/* nothing to do yet */
 2049              		.loc 1 350 0
 2050 006a B9F1000F 		cmp	r9, #0
 2051 006e DAD1     		bne	.L102
 2052              	.LBE75:
 2053              	.LBE78:
 479:..\u8g2-master\csrc/u8x8_8x8.c ****       break;
 2054              		.loc 1 479 0
 2055 0070 B342     		cmp	r3, r6
 2056 0072 DBD0     		beq	.L103
 2057              	.LVL244:
 482:..\u8g2-master\csrc/u8x8_8x8.c ****       cnt++;
 2058              		.loc 1 482 0
 2059 0074 9342     		cmp	r3, r2
 2060 0076 D6D0     		beq	.L102
 2061              	.LVL245:
ARM GAS  C:\Users\info\AppData\Local\Temp\ccSLnsSK.s 			page 52


 2062              	.L110:
 483:..\u8g2-master\csrc/u8x8_8x8.c ****   }
 2063              		.loc 1 483 0
 2064 0078 0130     		adds	r0, r0, #1
 2065              	.LVL246:
 2066 007a C0B2     		uxtb	r0, r0
 2067              	.LVL247:
 2068 007c D3E7     		b	.L102
 2069              	.LVL248:
 2070              	.L105:
 2071              	.LBB79:
 2072              	.LBB76:
 2073              	.LBB73:
 2074              	.LBB71:
 315:..\u8g2-master\csrc/u8x8_8x8.c ****     {
 2075              		.loc 1 315 0
 2076 007e F72B     		cmp	r3, #247
 2077 0080 04D9     		bls	.L107
 317:..\u8g2-master\csrc/u8x8_8x8.c ****       b &= 3;
 2078              		.loc 1 317 0
 2079 0082 84F82770 		strb	r7, [r4, #39]
 318:..\u8g2-master\csrc/u8x8_8x8.c ****     }
 2080              		.loc 1 318 0
 2081 0086 03F00303 		and	r3, r3, #3
 2082              	.LVL249:
 2083 008a DEE7     		b	.L106
 2084              	.LVL250:
 2085              	.L107:
 320:..\u8g2-master\csrc/u8x8_8x8.c ****     {
 2086              		.loc 1 320 0
 2087 008c EF2B     		cmp	r3, #239
 2088 008e 04D9     		bls	.L108
 322:..\u8g2-master\csrc/u8x8_8x8.c ****       b &= 7;      
 2089              		.loc 1 322 0
 2090 0090 84F827E0 		strb	lr, [r4, #39]
 323:..\u8g2-master\csrc/u8x8_8x8.c ****     }
 2091              		.loc 1 323 0
 2092 0094 03F00703 		and	r3, r3, #7
 2093              	.LVL251:
 2094 0098 D7E7     		b	.L106
 2095              	.LVL252:
 2096              	.L108:
 325:..\u8g2-master\csrc/u8x8_8x8.c ****     {
 2097              		.loc 1 325 0
 2098 009a DF2B     		cmp	r3, #223
 2099 009c 04D9     		bls	.L109
 327:..\u8g2-master\csrc/u8x8_8x8.c ****       b &= 15;
 2100              		.loc 1 327 0
 2101 009e 84F827C0 		strb	ip, [r4, #39]
 328:..\u8g2-master\csrc/u8x8_8x8.c ****     }
 2102              		.loc 1 328 0
 2103 00a2 03F00F03 		and	r3, r3, #15
 2104              	.LVL253:
 2105 00a6 D0E7     		b	.L106
 2106              	.LVL254:
 2107              	.L109:
 330:..\u8g2-master\csrc/u8x8_8x8.c ****     {
ARM GAS  C:\Users\info\AppData\Local\Temp\ccSLnsSK.s 			page 53


 2108              		.loc 1 330 0
 2109 00a8 BF2B     		cmp	r3, #191
 2110 00aa E5D9     		bls	.L110
 332:..\u8g2-master\csrc/u8x8_8x8.c ****       b &= 0x01f;
 2111              		.loc 1 332 0
 2112 00ac 84F82780 		strb	r8, [r4, #39]
 333:..\u8g2-master\csrc/u8x8_8x8.c ****     }
 2113              		.loc 1 333 0
 2114 00b0 03F01F03 		and	r3, r3, #31
 2115              	.LVL255:
 2116 00b4 C9E7     		b	.L106
 2117              	.LBE71:
 2118              	.LBE73:
 2119              	.LBE76:
 2120              	.LBE79:
 2121              		.cfi_endproc
 2122              	.LFE21:
 2123              		.size	u8x8_GetUTF8Len, .-u8x8_GetUTF8Len
 2124 00b6 00BF     		.text
 2125              	.Letext0:
 2126              		.file 2 "c:\\program files (x86)\\cypress\\psoc creator\\4.2\\psoc creator\\import\\gnu\\arm\\5.4.
 2127              		.file 3 "c:\\program files (x86)\\cypress\\psoc creator\\4.2\\psoc creator\\import\\gnu\\arm\\5.4.
 2128              		.file 4 "..\\u8g2-master\\csrc\\u8x8.h"
 2129              		.section	.debug_info,"",%progbits
 2130              	.Ldebug_info0:
 2131 0000 FA130000 		.4byte	0x13fa
 2132 0004 0400     		.2byte	0x4
 2133 0006 00000000 		.4byte	.Ldebug_abbrev0
 2134 000a 04       		.byte	0x4
 2135 000b 01       		.uleb128 0x1
 2136 000c BA040000 		.4byte	.LASF94
 2137 0010 0C       		.byte	0xc
 2138 0011 F8000000 		.4byte	.LASF95
 2139 0015 11040000 		.4byte	.LASF96
 2140 0019 F0000000 		.4byte	.Ldebug_ranges0+0xf0
 2141 001d 00000000 		.4byte	0
 2142 0021 00000000 		.4byte	.Ldebug_line0
 2143 0025 02       		.uleb128 0x2
 2144 0026 01       		.byte	0x1
 2145 0027 06       		.byte	0x6
 2146 0028 D7000000 		.4byte	.LASF0
 2147 002c 03       		.uleb128 0x3
 2148 002d 3E000000 		.4byte	.LASF3
 2149 0031 02       		.byte	0x2
 2150 0032 1D       		.byte	0x1d
 2151 0033 37000000 		.4byte	0x37
 2152 0037 02       		.uleb128 0x2
 2153 0038 01       		.byte	0x1
 2154 0039 08       		.byte	0x8
 2155 003a D0030000 		.4byte	.LASF1
 2156 003e 02       		.uleb128 0x2
 2157 003f 02       		.byte	0x2
 2158 0040 05       		.byte	0x5
 2159 0041 EF030000 		.4byte	.LASF2
 2160 0045 03       		.uleb128 0x3
 2161 0046 4D050000 		.4byte	.LASF4
 2162 004a 02       		.byte	0x2
ARM GAS  C:\Users\info\AppData\Local\Temp\ccSLnsSK.s 			page 54


 2163 004b 2B       		.byte	0x2b
 2164 004c 50000000 		.4byte	0x50
 2165 0050 02       		.uleb128 0x2
 2166 0051 02       		.byte	0x2
 2167 0052 07       		.byte	0x7
 2168 0053 40020000 		.4byte	.LASF5
 2169 0057 02       		.uleb128 0x2
 2170 0058 04       		.byte	0x4
 2171 0059 05       		.byte	0x5
 2172 005a 5B010000 		.4byte	.LASF6
 2173 005e 03       		.uleb128 0x3
 2174 005f D4010000 		.4byte	.LASF7
 2175 0063 02       		.byte	0x2
 2176 0064 41       		.byte	0x41
 2177 0065 69000000 		.4byte	0x69
 2178 0069 02       		.uleb128 0x2
 2179 006a 04       		.byte	0x4
 2180 006b 07       		.byte	0x7
 2181 006c 2E020000 		.4byte	.LASF8
 2182 0070 02       		.uleb128 0x2
 2183 0071 08       		.byte	0x8
 2184 0072 05       		.byte	0x5
 2185 0073 C9000000 		.4byte	.LASF9
 2186 0077 02       		.uleb128 0x2
 2187 0078 08       		.byte	0x8
 2188 0079 07       		.byte	0x7
 2189 007a 64000000 		.4byte	.LASF10
 2190 007e 04       		.uleb128 0x4
 2191 007f 04       		.byte	0x4
 2192 0080 05       		.byte	0x5
 2193 0081 696E7400 		.ascii	"int\000"
 2194 0085 02       		.uleb128 0x2
 2195 0086 04       		.byte	0x4
 2196 0087 07       		.byte	0x7
 2197 0088 05020000 		.4byte	.LASF11
 2198 008c 03       		.uleb128 0x3
 2199 008d EF050000 		.4byte	.LASF12
 2200 0091 03       		.byte	0x3
 2201 0092 18       		.byte	0x18
 2202 0093 2C000000 		.4byte	0x2c
 2203 0097 03       		.uleb128 0x3
 2204 0098 6D010000 		.4byte	.LASF13
 2205 009c 03       		.byte	0x3
 2206 009d 24       		.byte	0x24
 2207 009e 45000000 		.4byte	0x45
 2208 00a2 03       		.uleb128 0x3
 2209 00a3 90040000 		.4byte	.LASF14
 2210 00a7 03       		.byte	0x3
 2211 00a8 30       		.byte	0x30
 2212 00a9 5E000000 		.4byte	0x5e
 2213 00ad 05       		.uleb128 0x5
 2214 00ae 04       		.byte	0x4
 2215 00af 02       		.uleb128 0x2
 2216 00b0 08       		.byte	0x8
 2217 00b1 04       		.byte	0x4
 2218 00b2 1E030000 		.4byte	.LASF15
 2219 00b6 03       		.uleb128 0x3
ARM GAS  C:\Users\info\AppData\Local\Temp\ccSLnsSK.s 			page 55


 2220 00b7 8B050000 		.4byte	.LASF16
 2221 00bb 04       		.byte	0x4
 2222 00bc C3       		.byte	0xc3
 2223 00bd C1000000 		.4byte	0xc1
 2224 00c1 06       		.uleb128 0x6
 2225 00c2 A1020000 		.4byte	.LASF38
 2226 00c6 30       		.byte	0x30
 2227 00c7 04       		.byte	0x4
 2228 00c8 4601     		.2byte	0x146
 2229 00ca D3010000 		.4byte	0x1d3
 2230 00ce 07       		.uleb128 0x7
 2231 00cf 70020000 		.4byte	.LASF17
 2232 00d3 04       		.byte	0x4
 2233 00d4 4801     		.2byte	0x148
 2234 00d6 38030000 		.4byte	0x338
 2235 00da 00       		.byte	0
 2236 00db 07       		.uleb128 0x7
 2237 00dc 76010000 		.4byte	.LASF18
 2238 00e0 04       		.byte	0x4
 2239 00e1 4901     		.2byte	0x149
 2240 00e3 0D030000 		.4byte	0x30d
 2241 00e7 04       		.byte	0x4
 2242 00e8 07       		.uleb128 0x7
 2243 00e9 28010000 		.4byte	.LASF19
 2244 00ed 04       		.byte	0x4
 2245 00ee 4A01     		.2byte	0x14a
 2246 00f0 D8020000 		.4byte	0x2d8
 2247 00f4 08       		.byte	0x8
 2248 00f5 07       		.uleb128 0x7
 2249 00f6 3F030000 		.4byte	.LASF20
 2250 00fa 04       		.byte	0x4
 2251 00fb 4B01     		.2byte	0x14b
 2252 00fd D8020000 		.4byte	0x2d8
 2253 0101 0C       		.byte	0xc
 2254 0102 07       		.uleb128 0x7
 2255 0103 48000000 		.4byte	.LASF21
 2256 0107 04       		.byte	0x4
 2257 0108 4C01     		.2byte	0x14c
 2258 010a D8020000 		.4byte	0x2d8
 2259 010e 10       		.byte	0x10
 2260 010f 07       		.uleb128 0x7
 2261 0110 8B010000 		.4byte	.LASF22
 2262 0114 04       		.byte	0x4
 2263 0115 4D01     		.2byte	0x14d
 2264 0117 D8020000 		.4byte	0x2d8
 2265 011b 14       		.byte	0x14
 2266 011c 07       		.uleb128 0x7
 2267 011d 92050000 		.4byte	.LASF23
 2268 0121 04       		.byte	0x4
 2269 0122 4E01     		.2byte	0x14e
 2270 0124 A2000000 		.4byte	0xa2
 2271 0128 18       		.byte	0x18
 2272 0129 07       		.uleb128 0x7
 2273 012a E5050000 		.4byte	.LASF24
 2274 012e 04       		.byte	0x4
 2275 012f 4F01     		.2byte	0x14f
 2276 0131 43030000 		.4byte	0x343
ARM GAS  C:\Users\info\AppData\Local\Temp\ccSLnsSK.s 			page 56


 2277 0135 1C       		.byte	0x1c
 2278 0136 07       		.uleb128 0x7
 2279 0137 BE020000 		.4byte	.LASF25
 2280 013b 04       		.byte	0x4
 2281 013c 5001     		.2byte	0x150
 2282 013e 97000000 		.4byte	0x97
 2283 0142 20       		.byte	0x20
 2284 0143 07       		.uleb128 0x7
 2285 0144 8F030000 		.4byte	.LASF26
 2286 0148 04       		.byte	0x4
 2287 0149 5101     		.2byte	0x151
 2288 014b 8C000000 		.4byte	0x8c
 2289 014f 22       		.byte	0x22
 2290 0150 07       		.uleb128 0x7
 2291 0151 E3000000 		.4byte	.LASF27
 2292 0155 04       		.byte	0x4
 2293 0156 5201     		.2byte	0x152
 2294 0158 8C000000 		.4byte	0x8c
 2295 015c 23       		.byte	0x23
 2296 015d 07       		.uleb128 0x7
 2297 015e 22020000 		.4byte	.LASF28
 2298 0162 04       		.byte	0x4
 2299 0163 5301     		.2byte	0x153
 2300 0165 8C000000 		.4byte	0x8c
 2301 0169 24       		.byte	0x24
 2302 016a 07       		.uleb128 0x7
 2303 016b F7050000 		.4byte	.LASF29
 2304 016f 04       		.byte	0x4
 2305 0170 5601     		.2byte	0x156
 2306 0172 8C000000 		.4byte	0x8c
 2307 0176 25       		.byte	0x25
 2308 0177 07       		.uleb128 0x7
 2309 0178 80030000 		.4byte	.LASF30
 2310 017c 04       		.byte	0x4
 2311 017d 5701     		.2byte	0x157
 2312 017f 8C000000 		.4byte	0x8c
 2313 0183 26       		.byte	0x26
 2314 0184 07       		.uleb128 0x7
 2315 0185 A3000000 		.4byte	.LASF31
 2316 0189 04       		.byte	0x4
 2317 018a 5801     		.2byte	0x158
 2318 018c 8C000000 		.4byte	0x8c
 2319 0190 27       		.byte	0x27
 2320 0191 07       		.uleb128 0x7
 2321 0192 BD000000 		.4byte	.LASF32
 2322 0196 04       		.byte	0x4
 2323 0197 5901     		.2byte	0x159
 2324 0199 8C000000 		.4byte	0x8c
 2325 019d 28       		.byte	0x28
 2326 019e 07       		.uleb128 0x7
 2327 019f 1A060000 		.4byte	.LASF33
 2328 01a3 04       		.byte	0x4
 2329 01a4 5A01     		.2byte	0x15a
 2330 01a6 8C000000 		.4byte	0x8c
 2331 01aa 29       		.byte	0x29
 2332 01ab 07       		.uleb128 0x7
 2333 01ac 58020000 		.4byte	.LASF34
ARM GAS  C:\Users\info\AppData\Local\Temp\ccSLnsSK.s 			page 57


 2334 01b0 04       		.byte	0x4
 2335 01b1 5B01     		.2byte	0x15b
 2336 01b3 8C000000 		.4byte	0x8c
 2337 01b7 2A       		.byte	0x2a
 2338 01b8 07       		.uleb128 0x7
 2339 01b9 9C050000 		.4byte	.LASF35
 2340 01bd 04       		.byte	0x4
 2341 01be 5C01     		.2byte	0x15c
 2342 01c0 8C000000 		.4byte	0x8c
 2343 01c4 2B       		.byte	0x2b
 2344 01c5 07       		.uleb128 0x7
 2345 01c6 F1010000 		.4byte	.LASF36
 2346 01ca 04       		.byte	0x4
 2347 01cb 5D01     		.2byte	0x15d
 2348 01cd 8C000000 		.4byte	0x8c
 2349 01d1 2C       		.byte	0x2c
 2350 01d2 00       		.byte	0
 2351 01d3 03       		.uleb128 0x3
 2352 01d4 C0010000 		.4byte	.LASF37
 2353 01d8 04       		.byte	0x4
 2354 01d9 C4       		.byte	0xc4
 2355 01da DE010000 		.4byte	0x1de
 2356 01de 08       		.uleb128 0x8
 2357 01df 35060000 		.4byte	.LASF39
 2358 01e3 18       		.byte	0x18
 2359 01e4 04       		.byte	0x4
 2360 01e5 DD       		.byte	0xdd
 2361 01e6 D8020000 		.4byte	0x2d8
 2362 01ea 09       		.uleb128 0x9
 2363 01eb A8040000 		.4byte	.LASF40
 2364 01ef 04       		.byte	0x4
 2365 01f0 E1       		.byte	0xe1
 2366 01f1 8C000000 		.4byte	0x8c
 2367 01f5 00       		.byte	0
 2368 01f6 09       		.uleb128 0x9
 2369 01f7 D2050000 		.4byte	.LASF41
 2370 01fb 04       		.byte	0x4
 2371 01fc E2       		.byte	0xe2
 2372 01fd 8C000000 		.4byte	0x8c
 2373 0201 01       		.byte	0x1
 2374 0202 09       		.uleb128 0x9
 2375 0203 58050000 		.4byte	.LASF42
 2376 0207 04       		.byte	0x4
 2377 0208 E4       		.byte	0xe4
 2378 0209 8C000000 		.4byte	0x8c
 2379 020d 02       		.byte	0x2
 2380 020e 09       		.uleb128 0x9
 2381 020f 33010000 		.4byte	.LASF43
 2382 0213 04       		.byte	0x4
 2383 0214 E5       		.byte	0xe5
 2384 0215 8C000000 		.4byte	0x8c
 2385 0219 03       		.byte	0x3
 2386 021a 09       		.uleb128 0x9
 2387 021b 24000000 		.4byte	.LASF44
 2388 021f 04       		.byte	0x4
 2389 0220 E6       		.byte	0xe6
 2390 0221 8C000000 		.4byte	0x8c
ARM GAS  C:\Users\info\AppData\Local\Temp\ccSLnsSK.s 			page 58


 2391 0225 04       		.byte	0x4
 2392 0226 09       		.uleb128 0x9
 2393 0227 90000000 		.4byte	.LASF45
 2394 022b 04       		.byte	0x4
 2395 022c E7       		.byte	0xe7
 2396 022d 8C000000 		.4byte	0x8c
 2397 0231 05       		.byte	0x5
 2398 0232 09       		.uleb128 0x9
 2399 0233 DF010000 		.4byte	.LASF46
 2400 0237 04       		.byte	0x4
 2401 0238 EE       		.byte	0xee
 2402 0239 8C000000 		.4byte	0x8c
 2403 023d 06       		.byte	0x6
 2404 023e 09       		.uleb128 0x9
 2405 023f 8E020000 		.4byte	.LASF47
 2406 0243 04       		.byte	0x4
 2407 0244 F2       		.byte	0xf2
 2408 0245 8C000000 		.4byte	0x8c
 2409 0249 07       		.byte	0x7
 2410 024a 09       		.uleb128 0x9
 2411 024b 5B060000 		.4byte	.LASF48
 2412 024f 04       		.byte	0x4
 2413 0250 F5       		.byte	0xf5
 2414 0251 A2000000 		.4byte	0xa2
 2415 0255 08       		.byte	0x8
 2416 0256 09       		.uleb128 0x9
 2417 0257 99040000 		.4byte	.LASF49
 2418 025b 04       		.byte	0x4
 2419 025c FF       		.byte	0xff
 2420 025d 8C000000 		.4byte	0x8c
 2421 0261 0C       		.byte	0xc
 2422 0262 07       		.uleb128 0x7
 2423 0263 7B040000 		.4byte	.LASF50
 2424 0267 04       		.byte	0x4
 2425 0268 0201     		.2byte	0x102
 2426 026a 8C000000 		.4byte	0x8c
 2427 026e 0D       		.byte	0xd
 2428 026f 07       		.uleb128 0x7
 2429 0270 FE030000 		.4byte	.LASF51
 2430 0274 04       		.byte	0x4
 2431 0275 0801     		.2byte	0x108
 2432 0277 8C000000 		.4byte	0x8c
 2433 027b 0E       		.byte	0xe
 2434 027c 07       		.uleb128 0x7
 2435 027d 66030000 		.4byte	.LASF52
 2436 0281 04       		.byte	0x4
 2437 0282 0A01     		.2byte	0x10a
 2438 0284 8C000000 		.4byte	0x8c
 2439 0288 0F       		.byte	0xf
 2440 0289 07       		.uleb128 0x7
 2441 028a 0F060000 		.4byte	.LASF53
 2442 028e 04       		.byte	0x4
 2443 028f 0D01     		.2byte	0x10d
 2444 0291 8C000000 		.4byte	0x8c
 2445 0295 10       		.byte	0x10
 2446 0296 07       		.uleb128 0x7
 2447 0297 98030000 		.4byte	.LASF54
ARM GAS  C:\Users\info\AppData\Local\Temp\ccSLnsSK.s 			page 59


 2448 029b 04       		.byte	0x4
 2449 029c 0E01     		.2byte	0x10e
 2450 029e 8C000000 		.4byte	0x8c
 2451 02a2 11       		.byte	0x11
 2452 02a3 07       		.uleb128 0x7
 2453 02a4 AD020000 		.4byte	.LASF55
 2454 02a8 04       		.byte	0x4
 2455 02a9 1001     		.2byte	0x110
 2456 02ab 8C000000 		.4byte	0x8c
 2457 02af 12       		.byte	0x12
 2458 02b0 07       		.uleb128 0x7
 2459 02b1 C7020000 		.4byte	.LASF56
 2460 02b5 04       		.byte	0x4
 2461 02b6 1101     		.2byte	0x111
 2462 02b8 8C000000 		.4byte	0x8c
 2463 02bc 13       		.byte	0x13
 2464 02bd 07       		.uleb128 0x7
 2465 02be 03060000 		.4byte	.LASF57
 2466 02c2 04       		.byte	0x4
 2467 02c3 1901     		.2byte	0x119
 2468 02c5 97000000 		.4byte	0x97
 2469 02c9 14       		.byte	0x14
 2470 02ca 07       		.uleb128 0x7
 2471 02cb 4E060000 		.4byte	.LASF58
 2472 02cf 04       		.byte	0x4
 2473 02d0 1A01     		.2byte	0x11a
 2474 02d2 97000000 		.4byte	0x97
 2475 02d6 16       		.byte	0x16
 2476 02d7 00       		.byte	0
 2477 02d8 03       		.uleb128 0x3
 2478 02d9 C4030000 		.4byte	.LASF59
 2479 02dd 04       		.byte	0x4
 2480 02de C7       		.byte	0xc7
 2481 02df E3020000 		.4byte	0x2e3
 2482 02e3 0A       		.uleb128 0xa
 2483 02e4 04       		.byte	0x4
 2484 02e5 E9020000 		.4byte	0x2e9
 2485 02e9 0B       		.uleb128 0xb
 2486 02ea 8C000000 		.4byte	0x8c
 2487 02ee 07030000 		.4byte	0x307
 2488 02f2 0C       		.uleb128 0xc
 2489 02f3 07030000 		.4byte	0x307
 2490 02f7 0C       		.uleb128 0xc
 2491 02f8 8C000000 		.4byte	0x8c
 2492 02fc 0C       		.uleb128 0xc
 2493 02fd 8C000000 		.4byte	0x8c
 2494 0301 0C       		.uleb128 0xc
 2495 0302 AD000000 		.4byte	0xad
 2496 0306 00       		.byte	0
 2497 0307 0A       		.uleb128 0xa
 2498 0308 04       		.byte	0x4
 2499 0309 B6000000 		.4byte	0xb6
 2500 030d 03       		.uleb128 0x3
 2501 030e 7E010000 		.4byte	.LASF60
 2502 0312 04       		.byte	0x4
 2503 0313 C8       		.byte	0xc8
 2504 0314 18030000 		.4byte	0x318
ARM GAS  C:\Users\info\AppData\Local\Temp\ccSLnsSK.s 			page 60


 2505 0318 0A       		.uleb128 0xa
 2506 0319 04       		.byte	0x4
 2507 031a 1E030000 		.4byte	0x31e
 2508 031e 0B       		.uleb128 0xb
 2509 031f 97000000 		.4byte	0x97
 2510 0323 32030000 		.4byte	0x332
 2511 0327 0C       		.uleb128 0xc
 2512 0328 07030000 		.4byte	0x307
 2513 032c 0C       		.uleb128 0xc
 2514 032d 8C000000 		.4byte	0x8c
 2515 0331 00       		.byte	0
 2516 0332 0A       		.uleb128 0xa
 2517 0333 04       		.byte	0x4
 2518 0334 8C000000 		.4byte	0x8c
 2519 0338 0A       		.uleb128 0xa
 2520 0339 04       		.byte	0x4
 2521 033a 3E030000 		.4byte	0x33e
 2522 033e 0D       		.uleb128 0xd
 2523 033f D3010000 		.4byte	0x1d3
 2524 0343 0A       		.uleb128 0xa
 2525 0344 04       		.byte	0x4
 2526 0345 49030000 		.4byte	0x349
 2527 0349 0D       		.uleb128 0xd
 2528 034a 8C000000 		.4byte	0x8c
 2529 034e 0E       		.uleb128 0xe
 2530 034f 50000000 		.4byte	.LASF77
 2531 0353 01       		.byte	0x1
 2532 0354 3E       		.byte	0x3e
 2533 0355 00       		.byte	0
 2534 0356 BC030000 		.4byte	0x3bc
 2535 035a 0F       		.uleb128 0xf
 2536 035b F9030000 		.4byte	.LASF61
 2537 035f 01       		.byte	0x1
 2538 0360 3E       		.byte	0x3e
 2539 0361 07030000 		.4byte	0x307
 2540 0365 0F       		.uleb128 0xf
 2541 0366 BE020000 		.4byte	.LASF25
 2542 036a 01       		.byte	0x1
 2543 036b 3E       		.byte	0x3e
 2544 036c 8C000000 		.4byte	0x8c
 2545 0370 10       		.uleb128 0x10
 2546 0371 62756600 		.ascii	"buf\000"
 2547 0375 01       		.byte	0x1
 2548 0376 3E       		.byte	0x3e
 2549 0377 32030000 		.4byte	0x332
 2550 037b 0F       		.uleb128 0xf
 2551 037c 82020000 		.4byte	.LASF62
 2552 0380 01       		.byte	0x1
 2553 0381 3E       		.byte	0x3e
 2554 0382 8C000000 		.4byte	0x8c
 2555 0386 11       		.uleb128 0x11
 2556 0387 A2040000 		.4byte	.LASF63
 2557 038b 01       		.byte	0x1
 2558 038c 40       		.byte	0x40
 2559 038d 8C000000 		.4byte	0x8c
 2560 0391 11       		.uleb128 0x11
 2561 0392 53020000 		.4byte	.LASF64
ARM GAS  C:\Users\info\AppData\Local\Temp\ccSLnsSK.s 			page 61


 2562 0396 01       		.byte	0x1
 2563 0397 40       		.byte	0x40
 2564 0398 8C000000 		.4byte	0x8c
 2565 039c 11       		.uleb128 0x11
 2566 039d 8A000000 		.4byte	.LASF65
 2567 03a1 01       		.byte	0x1
 2568 03a2 40       		.byte	0x40
 2569 03a3 8C000000 		.4byte	0x8c
 2570 03a7 12       		.uleb128 0x12
 2571 03a8 6900     		.ascii	"i\000"
 2572 03aa 01       		.byte	0x1
 2573 03ab 40       		.byte	0x40
 2574 03ac 8C000000 		.4byte	0x8c
 2575 03b0 11       		.uleb128 0x11
 2576 03b1 84050000 		.4byte	.LASF66
 2577 03b5 01       		.byte	0x1
 2578 03b6 41       		.byte	0x41
 2579 03b7 97000000 		.4byte	0x97
 2580 03bb 00       		.byte	0
 2581 03bc 13       		.uleb128 0x13
 2582 03bd 4C010000 		.4byte	.LASF97
 2583 03c1 01       		.byte	0x1
 2584 03c2 3001     		.2byte	0x130
 2585 03c4 97000000 		.4byte	0x97
 2586 03c8 01       		.byte	0x1
 2587 03c9 E4030000 		.4byte	0x3e4
 2588 03cd 14       		.uleb128 0x14
 2589 03ce F9030000 		.4byte	.LASF61
 2590 03d2 01       		.byte	0x1
 2591 03d3 3001     		.2byte	0x130
 2592 03d5 07030000 		.4byte	0x307
 2593 03d9 15       		.uleb128 0x15
 2594 03da 6200     		.ascii	"b\000"
 2595 03dc 01       		.byte	0x1
 2596 03dd 3001     		.2byte	0x130
 2597 03df 8C000000 		.4byte	0x8c
 2598 03e3 00       		.byte	0
 2599 03e4 16       		.uleb128 0x16
 2600 03e5 AE000000 		.4byte	.LASF68
 2601 03e9 01       		.byte	0x1
 2602 03ea 1D01     		.2byte	0x11d
 2603 03ec 01       		.byte	0x1
 2604 03ed FE030000 		.4byte	0x3fe
 2605 03f1 14       		.uleb128 0x14
 2606 03f2 F9030000 		.4byte	.LASF61
 2607 03f6 01       		.byte	0x1
 2608 03f7 1D01     		.2byte	0x11d
 2609 03f9 07030000 		.4byte	0x307
 2610 03fd 00       		.byte	0
 2611 03fe 17       		.uleb128 0x17
 2612 03ff 00000000 		.4byte	.LASF98
 2613 0403 01       		.byte	0x1
 2614 0404 A8       		.byte	0xa8
 2615 0405 00000000 		.4byte	.LFB4
 2616 0409 22000000 		.4byte	.LFE4-.LFB4
 2617 040d 01       		.uleb128 0x1
 2618 040e 9C       		.byte	0x9c
ARM GAS  C:\Users\info\AppData\Local\Temp\ccSLnsSK.s 			page 62


 2619 040f 3B040000 		.4byte	0x43b
 2620 0413 18       		.uleb128 0x18
 2621 0414 73726300 		.ascii	"src\000"
 2622 0418 01       		.byte	0x1
 2623 0419 A8       		.byte	0xa8
 2624 041a 32030000 		.4byte	0x332
 2625 041e 00000000 		.4byte	.LLST0
 2626 0422 19       		.uleb128 0x19
 2627 0423 7B030000 		.4byte	.LASF67
 2628 0427 01       		.byte	0x1
 2629 0428 A8       		.byte	0xa8
 2630 0429 32030000 		.4byte	0x332
 2631 042d 47000000 		.4byte	.LLST1
 2632 0431 12       		.uleb128 0x12
 2633 0432 6900     		.ascii	"i\000"
 2634 0434 01       		.byte	0x1
 2635 0435 AA       		.byte	0xaa
 2636 0436 8C000000 		.4byte	0x8c
 2637 043a 00       		.byte	0
 2638 043b 1A       		.uleb128 0x1a
 2639 043c D9020000 		.4byte	.LASF74
 2640 0440 01       		.byte	0x1
 2641 0441 2201     		.2byte	0x122
 2642 0443 97000000 		.4byte	0x97
 2643 0447 00000000 		.4byte	.LFB10
 2644 044b 10000000 		.4byte	.LFE10-.LFB10
 2645 044f 01       		.uleb128 0x1
 2646 0450 9C       		.byte	0x9c
 2647 0451 72040000 		.4byte	0x472
 2648 0455 1B       		.uleb128 0x1b
 2649 0456 F9030000 		.4byte	.LASF61
 2650 045a 01       		.byte	0x1
 2651 045b 2201     		.2byte	0x122
 2652 045d 07030000 		.4byte	0x307
 2653 0461 C2000000 		.4byte	.LLST2
 2654 0465 1C       		.uleb128 0x1c
 2655 0466 6200     		.ascii	"b\000"
 2656 0468 01       		.byte	0x1
 2657 0469 2201     		.2byte	0x122
 2658 046b 8C000000 		.4byte	0x8c
 2659 046f 01       		.uleb128 0x1
 2660 0470 51       		.byte	0x51
 2661 0471 00       		.byte	0
 2662 0472 1D       		.uleb128 0x1d
 2663 0473 4E030000 		.4byte	0x34e
 2664 0477 00000000 		.4byte	.LFB22
 2665 047b 9A000000 		.4byte	.LFE22-.LFB22
 2666 047f 01       		.uleb128 0x1
 2667 0480 9C       		.byte	0x9c
 2668 0481 E2040000 		.4byte	0x4e2
 2669 0485 1E       		.uleb128 0x1e
 2670 0486 65030000 		.4byte	0x365
 2671 048a FC000000 		.4byte	.LLST3
 2672 048e 1F       		.uleb128 0x1f
 2673 048f 70030000 		.4byte	0x370
 2674 0493 01       		.uleb128 0x1
 2675 0494 53       		.byte	0x53
ARM GAS  C:\Users\info\AppData\Local\Temp\ccSLnsSK.s 			page 63


 2676 0495 1E       		.uleb128 0x1e
 2677 0496 7B030000 		.4byte	0x37b
 2678 049a 36010000 		.4byte	.LLST4
 2679 049e 1F       		.uleb128 0x1f
 2680 049f 5A030000 		.4byte	0x35a
 2681 04a3 06       		.uleb128 0x6
 2682 04a4 FA       		.byte	0xfa
 2683 04a5 5A030000 		.4byte	0x35a
 2684 04a9 9F       		.byte	0x9f
 2685 04aa 1F       		.uleb128 0x1f
 2686 04ab 5A030000 		.4byte	0x35a
 2687 04af 06       		.uleb128 0x6
 2688 04b0 FA       		.byte	0xfa
 2689 04b1 5A030000 		.4byte	0x35a
 2690 04b5 9F       		.byte	0x9f
 2691 04b6 20       		.uleb128 0x20
 2692 04b7 86030000 		.4byte	0x386
 2693 04bb 01       		.uleb128 0x1
 2694 04bc 56       		.byte	0x56
 2695 04bd 21       		.uleb128 0x21
 2696 04be 91030000 		.4byte	0x391
 2697 04c2 56010000 		.4byte	.LLST5
 2698 04c6 21       		.uleb128 0x21
 2699 04c7 9C030000 		.4byte	0x39c
 2700 04cb 85010000 		.4byte	.LLST6
 2701 04cf 21       		.uleb128 0x21
 2702 04d0 A7030000 		.4byte	0x3a7
 2703 04d4 CF010000 		.4byte	.LLST7
 2704 04d8 21       		.uleb128 0x21
 2705 04d9 B0030000 		.4byte	0x3b0
 2706 04dd 43020000 		.4byte	.LLST8
 2707 04e1 00       		.byte	0
 2708 04e2 1D       		.uleb128 0x1d
 2709 04e3 BC030000 		.4byte	0x3bc
 2710 04e7 00000000 		.4byte	.LFB11
 2711 04eb 96000000 		.4byte	.LFE11-.LFB11
 2712 04ef 01       		.uleb128 0x1
 2713 04f0 9C       		.byte	0x9c
 2714 04f1 20050000 		.4byte	0x520
 2715 04f5 1E       		.uleb128 0x1e
 2716 04f6 CD030000 		.4byte	0x3cd
 2717 04fa E6020000 		.4byte	.LLST9
 2718 04fe 1E       		.uleb128 0x1e
 2719 04ff D9030000 		.4byte	0x3d9
 2720 0503 2B030000 		.4byte	.LLST10
 2721 0507 22       		.uleb128 0x22
 2722 0508 00000000 		.4byte	.Ldebug_ranges0+0
 2723 050c 1E       		.uleb128 0x1e
 2724 050d D9030000 		.4byte	0x3d9
 2725 0511 FB030000 		.4byte	.LLST11
 2726 0515 1E       		.uleb128 0x1e
 2727 0516 CD030000 		.4byte	0x3cd
 2728 051a 27040000 		.4byte	.LLST12
 2729 051e 00       		.byte	0
 2730 051f 00       		.byte	0
 2731 0520 23       		.uleb128 0x23
 2732 0521 7B000000 		.4byte	.LASF69
ARM GAS  C:\Users\info\AppData\Local\Temp\ccSLnsSK.s 			page 64


 2733 0525 01       		.byte	0x1
 2734 0526 69       		.byte	0x69
 2735 0527 01       		.byte	0x1
 2736 0528 89050000 		.4byte	0x589
 2737 052c 0F       		.uleb128 0xf
 2738 052d F9030000 		.4byte	.LASF61
 2739 0531 01       		.byte	0x1
 2740 0532 69       		.byte	0x69
 2741 0533 07030000 		.4byte	0x307
 2742 0537 10       		.uleb128 0x10
 2743 0538 7800     		.ascii	"x\000"
 2744 053a 01       		.byte	0x1
 2745 053b 69       		.byte	0x69
 2746 053c 8C000000 		.4byte	0x8c
 2747 0540 10       		.uleb128 0x10
 2748 0541 7900     		.ascii	"y\000"
 2749 0543 01       		.byte	0x1
 2750 0544 69       		.byte	0x69
 2751 0545 8C000000 		.4byte	0x8c
 2752 0549 0F       		.uleb128 0xf
 2753 054a BE020000 		.4byte	.LASF25
 2754 054e 01       		.byte	0x1
 2755 054f 69       		.byte	0x69
 2756 0550 8C000000 		.4byte	0x8c
 2757 0554 12       		.uleb128 0x12
 2758 0555 746800   		.ascii	"th\000"
 2759 0558 01       		.byte	0x1
 2760 0559 6B       		.byte	0x6b
 2761 055a 8C000000 		.4byte	0x8c
 2762 055e 12       		.uleb128 0x12
 2763 055f 747600   		.ascii	"tv\000"
 2764 0562 01       		.byte	0x1
 2765 0563 6C       		.byte	0x6c
 2766 0564 8C000000 		.4byte	0x8c
 2767 0568 12       		.uleb128 0x12
 2768 0569 787800   		.ascii	"xx\000"
 2769 056c 01       		.byte	0x1
 2770 056d 6D       		.byte	0x6d
 2771 056e 8C000000 		.4byte	0x8c
 2772 0572 11       		.uleb128 0x11
 2773 0573 7D020000 		.4byte	.LASF70
 2774 0577 01       		.byte	0x1
 2775 0578 6D       		.byte	0x6d
 2776 0579 8C000000 		.4byte	0x8c
 2777 057d 12       		.uleb128 0x12
 2778 057e 62756600 		.ascii	"buf\000"
 2779 0582 01       		.byte	0x1
 2780 0583 6E       		.byte	0x6e
 2781 0584 89050000 		.4byte	0x589
 2782 0588 00       		.byte	0
 2783 0589 24       		.uleb128 0x24
 2784 058a 8C000000 		.4byte	0x8c
 2785 058e 99050000 		.4byte	0x599
 2786 0592 25       		.uleb128 0x25
 2787 0593 99050000 		.4byte	0x599
 2788 0597 07       		.byte	0x7
 2789 0598 00       		.byte	0
ARM GAS  C:\Users\info\AppData\Local\Temp\ccSLnsSK.s 			page 65


 2790 0599 02       		.uleb128 0x2
 2791 059a 04       		.byte	0x4
 2792 059b 07       		.byte	0x7
 2793 059c 00030000 		.4byte	.LASF71
 2794 05a0 26       		.uleb128 0x26
 2795 05a1 9D010000 		.4byte	.LASF81
 2796 05a5 01       		.byte	0x1
 2797 05a6 6701     		.2byte	0x167
 2798 05a8 8C000000 		.4byte	0x8c
 2799 05ac 00000000 		.4byte	.LFB12
 2800 05b0 DA000000 		.4byte	.LFE12-.LFB12
 2801 05b4 01       		.uleb128 0x1
 2802 05b5 9C       		.byte	0x9c
 2803 05b6 0D070000 		.4byte	0x70d
 2804 05ba 1B       		.uleb128 0x1b
 2805 05bb F9030000 		.4byte	.LASF61
 2806 05bf 01       		.byte	0x1
 2807 05c0 6701     		.2byte	0x167
 2808 05c2 07030000 		.4byte	0x307
 2809 05c6 45040000 		.4byte	.LLST13
 2810 05ca 27       		.uleb128 0x27
 2811 05cb 7800     		.ascii	"x\000"
 2812 05cd 01       		.byte	0x1
 2813 05ce 6701     		.2byte	0x167
 2814 05d0 8C000000 		.4byte	0x8c
 2815 05d4 63040000 		.4byte	.LLST14
 2816 05d8 27       		.uleb128 0x27
 2817 05d9 7900     		.ascii	"y\000"
 2818 05db 01       		.byte	0x1
 2819 05dc 6701     		.2byte	0x167
 2820 05de 8C000000 		.4byte	0x8c
 2821 05e2 83040000 		.4byte	.LLST15
 2822 05e6 27       		.uleb128 0x27
 2823 05e7 7300     		.ascii	"s\000"
 2824 05e9 01       		.byte	0x1
 2825 05ea 6701     		.2byte	0x167
 2826 05ec 0D070000 		.4byte	0x70d
 2827 05f0 A4040000 		.4byte	.LLST16
 2828 05f4 28       		.uleb128 0x28
 2829 05f5 6500     		.ascii	"e\000"
 2830 05f7 01       		.byte	0x1
 2831 05f8 6901     		.2byte	0x169
 2832 05fa 97000000 		.4byte	0x97
 2833 05fe 07050000 		.4byte	.LLST17
 2834 0602 28       		.uleb128 0x28
 2835 0603 636E7400 		.ascii	"cnt\000"
 2836 0607 01       		.byte	0x1
 2837 0608 6A01     		.2byte	0x16a
 2838 060a 8C000000 		.4byte	0x8c
 2839 060e 25050000 		.4byte	.LLST18
 2840 0612 29       		.uleb128 0x29
 2841 0613 746800   		.ascii	"th\000"
 2842 0616 01       		.byte	0x1
 2843 0617 6B01     		.2byte	0x16b
 2844 0619 8C000000 		.4byte	0x8c
 2845 061d 02       		.uleb128 0x2
 2846 061e 91       		.byte	0x91
ARM GAS  C:\Users\info\AppData\Local\Temp\ccSLnsSK.s 			page 66


 2847 061f 48       		.sleb128 -56
 2848 0620 2A       		.uleb128 0x2a
 2849 0621 E4030000 		.4byte	0x3e4
 2850 0625 14000000 		.4byte	.LBB20
 2851 0629 18000000 		.4byte	.Ldebug_ranges0+0x18
 2852 062d 01       		.byte	0x1
 2853 062e 6D01     		.2byte	0x16d
 2854 0630 3C060000 		.4byte	0x63c
 2855 0634 1F       		.uleb128 0x1f
 2856 0635 F1030000 		.4byte	0x3f1
 2857 0639 01       		.uleb128 0x1
 2858 063a 58       		.byte	0x58
 2859 063b 00       		.byte	0
 2860 063c 2A       		.uleb128 0x2a
 2861 063d 20050000 		.4byte	0x520
 2862 0641 40000000 		.4byte	.LBB24
 2863 0645 30000000 		.4byte	.Ldebug_ranges0+0x30
 2864 0649 01       		.byte	0x1
 2865 064a 7601     		.2byte	0x176
 2866 064c 00070000 		.4byte	0x700
 2867 0650 1E       		.uleb128 0x1e
 2868 0651 49050000 		.4byte	0x549
 2869 0655 45050000 		.4byte	.LLST19
 2870 0659 1E       		.uleb128 0x1e
 2871 065a 40050000 		.4byte	0x540
 2872 065e 58050000 		.4byte	.LLST20
 2873 0662 1E       		.uleb128 0x1e
 2874 0663 37050000 		.4byte	0x537
 2875 0667 81050000 		.4byte	.LLST21
 2876 066b 1E       		.uleb128 0x1e
 2877 066c 2C050000 		.4byte	0x52c
 2878 0670 96050000 		.4byte	.LLST22
 2879 0674 22       		.uleb128 0x22
 2880 0675 30000000 		.4byte	.Ldebug_ranges0+0x30
 2881 0679 21       		.uleb128 0x21
 2882 067a 54050000 		.4byte	0x554
 2883 067e A9050000 		.4byte	.LLST23
 2884 0682 21       		.uleb128 0x21
 2885 0683 5E050000 		.4byte	0x55e
 2886 0687 BC050000 		.4byte	.LLST24
 2887 068b 21       		.uleb128 0x21
 2888 068c 68050000 		.4byte	0x568
 2889 0690 D1050000 		.4byte	.LLST25
 2890 0694 21       		.uleb128 0x21
 2891 0695 72050000 		.4byte	0x572
 2892 0699 EF050000 		.4byte	.LLST26
 2893 069d 20       		.uleb128 0x20
 2894 069e 7D050000 		.4byte	0x57d
 2895 06a2 02       		.uleb128 0x2
 2896 06a3 91       		.byte	0x91
 2897 06a4 50       		.sleb128 -48
 2898 06a5 2B       		.uleb128 0x2b
 2899 06a6 8E000000 		.4byte	.LVL69
 2900 06aa 72040000 		.4byte	0x472
 2901 06ae DC060000 		.4byte	0x6dc
 2902 06b2 2C       		.uleb128 0x2c
 2903 06b3 01       		.uleb128 0x1
ARM GAS  C:\Users\info\AppData\Local\Temp\ccSLnsSK.s 			page 67


 2904 06b4 50       		.byte	0x50
 2905 06b5 02       		.uleb128 0x2
 2906 06b6 7B       		.byte	0x7b
 2907 06b7 00       		.sleb128 0
 2908 06b8 2C       		.uleb128 0x2c
 2909 06b9 01       		.uleb128 0x1
 2910 06ba 51       		.byte	0x51
 2911 06bb 04       		.uleb128 0x4
 2912 06bc 91       		.byte	0x91
 2913 06bd AC7F     		.sleb128 -84
 2914 06bf 06       		.byte	0x6
 2915 06c0 2C       		.uleb128 0x2c
 2916 06c1 01       		.uleb128 0x1
 2917 06c2 52       		.byte	0x52
 2918 06c3 02       		.uleb128 0x2
 2919 06c4 79       		.byte	0x79
 2920 06c5 00       		.sleb128 0
 2921 06c6 2C       		.uleb128 0x2c
 2922 06c7 01       		.uleb128 0x1
 2923 06c8 53       		.byte	0x53
 2924 06c9 02       		.uleb128 0x2
 2925 06ca 76       		.byte	0x76
 2926 06cb 00       		.sleb128 0
 2927 06cc 2C       		.uleb128 0x2c
 2928 06cd 02       		.uleb128 0x2
 2929 06ce 7D       		.byte	0x7d
 2930 06cf 00       		.sleb128 0
 2931 06d0 02       		.uleb128 0x2
 2932 06d1 75       		.byte	0x75
 2933 06d2 00       		.sleb128 0
 2934 06d3 2D       		.uleb128 0x2d
 2935 06d4 5A030000 		.4byte	0x35a
 2936 06d8 02       		.uleb128 0x2
 2937 06d9 78       		.byte	0x78
 2938 06da 00       		.sleb128 0
 2939 06db 00       		.byte	0
 2940 06dc 2E       		.uleb128 0x2e
 2941 06dd A0000000 		.4byte	.LVL71
 2942 06e1 F1130000 		.4byte	0x13f1
 2943 06e5 2C       		.uleb128 0x2c
 2944 06e6 01       		.uleb128 0x1
 2945 06e7 50       		.byte	0x50
 2946 06e8 02       		.uleb128 0x2
 2947 06e9 78       		.byte	0x78
 2948 06ea 00       		.sleb128 0
 2949 06eb 2C       		.uleb128 0x2c
 2950 06ec 01       		.uleb128 0x1
 2951 06ed 52       		.byte	0x52
 2952 06ee 02       		.uleb128 0x2
 2953 06ef 77       		.byte	0x77
 2954 06f0 00       		.sleb128 0
 2955 06f1 2C       		.uleb128 0x2c
 2956 06f2 01       		.uleb128 0x1
 2957 06f3 53       		.byte	0x53
 2958 06f4 01       		.uleb128 0x1
 2959 06f5 31       		.byte	0x31
 2960 06f6 2C       		.uleb128 0x2c
ARM GAS  C:\Users\info\AppData\Local\Temp\ccSLnsSK.s 			page 68


 2961 06f7 02       		.uleb128 0x2
 2962 06f8 7D       		.byte	0x7d
 2963 06f9 00       		.sleb128 0
 2964 06fa 02       		.uleb128 0x2
 2965 06fb 76       		.byte	0x76
 2966 06fc 00       		.sleb128 0
 2967 06fd 00       		.byte	0
 2968 06fe 00       		.byte	0
 2969 06ff 00       		.byte	0
 2970 0700 2F       		.uleb128 0x2f
 2971 0701 30000000 		.4byte	.LVL64
 2972 0705 2C       		.uleb128 0x2c
 2973 0706 01       		.uleb128 0x1
 2974 0707 50       		.byte	0x50
 2975 0708 02       		.uleb128 0x2
 2976 0709 78       		.byte	0x78
 2977 070a 00       		.sleb128 0
 2978 070b 00       		.byte	0
 2979 070c 00       		.byte	0
 2980 070d 0A       		.uleb128 0xa
 2981 070e 04       		.byte	0x4
 2982 070f 1A070000 		.4byte	0x71a
 2983 0713 02       		.uleb128 0x2
 2984 0714 01       		.byte	0x1
 2985 0715 08       		.byte	0x8
 2986 0716 48050000 		.4byte	.LASF72
 2987 071a 0D       		.uleb128 0xd
 2988 071b 13070000 		.4byte	0x713
 2989 071f 30       		.uleb128 0x30
 2990 0720 68060000 		.4byte	.LASF84
 2991 0724 01       		.byte	0x1
 2992 0725 32       		.byte	0x32
 2993 0726 00000000 		.4byte	.LFB0
 2994 072a 04000000 		.4byte	.LFE0-.LFB0
 2995 072e 01       		.uleb128 0x1
 2996 072f 9C       		.byte	0x9c
 2997 0730 4F070000 		.4byte	0x74f
 2998 0734 31       		.uleb128 0x31
 2999 0735 F9030000 		.4byte	.LASF61
 3000 0739 01       		.byte	0x1
 3001 073a 32       		.byte	0x32
 3002 073b 07030000 		.4byte	0x307
 3003 073f 01       		.uleb128 0x1
 3004 0740 50       		.byte	0x50
 3005 0741 31       		.uleb128 0x31
 3006 0742 64010000 		.4byte	.LASF73
 3007 0746 01       		.byte	0x1
 3008 0747 32       		.byte	0x32
 3009 0748 43030000 		.4byte	0x343
 3010 074c 01       		.uleb128 0x1
 3011 074d 51       		.byte	0x51
 3012 074e 00       		.byte	0
 3013 074f 1D       		.uleb128 0x1d
 3014 0750 20050000 		.4byte	0x520
 3015 0754 00000000 		.4byte	.LFB2
 3016 0758 8A000000 		.4byte	.LFE2-.LFB2
 3017 075c 01       		.uleb128 0x1
ARM GAS  C:\Users\info\AppData\Local\Temp\ccSLnsSK.s 			page 69


 3018 075d 9C       		.byte	0x9c
 3019 075e 0C080000 		.4byte	0x80c
 3020 0762 1E       		.uleb128 0x1e
 3021 0763 2C050000 		.4byte	0x52c
 3022 0767 26060000 		.4byte	.LLST27
 3023 076b 1E       		.uleb128 0x1e
 3024 076c 37050000 		.4byte	0x537
 3025 0770 44060000 		.4byte	.LLST28
 3026 0774 1E       		.uleb128 0x1e
 3027 0775 40050000 		.4byte	0x540
 3028 0779 65060000 		.4byte	.LLST29
 3029 077d 1E       		.uleb128 0x1e
 3030 077e 49050000 		.4byte	0x549
 3031 0782 9C060000 		.4byte	.LLST30
 3032 0786 21       		.uleb128 0x21
 3033 0787 54050000 		.4byte	0x554
 3034 078b BD060000 		.4byte	.LLST31
 3035 078f 21       		.uleb128 0x21
 3036 0790 5E050000 		.4byte	0x55e
 3037 0794 DB060000 		.4byte	.LLST32
 3038 0798 21       		.uleb128 0x21
 3039 0799 68050000 		.4byte	0x568
 3040 079d 06070000 		.4byte	.LLST33
 3041 07a1 21       		.uleb128 0x21
 3042 07a2 72050000 		.4byte	0x572
 3043 07a6 24070000 		.4byte	.LLST34
 3044 07aa 20       		.uleb128 0x20
 3045 07ab 7D050000 		.4byte	0x57d
 3046 07af 02       		.uleb128 0x2
 3047 07b0 91       		.byte	0x91
 3048 07b1 50       		.sleb128 -48
 3049 07b2 2B       		.uleb128 0x2b
 3050 07b3 56000000 		.4byte	.LVL92
 3051 07b7 72040000 		.4byte	0x472
 3052 07bb E9070000 		.4byte	0x7e9
 3053 07bf 2C       		.uleb128 0x2c
 3054 07c0 01       		.uleb128 0x1
 3055 07c1 50       		.byte	0x50
 3056 07c2 02       		.uleb128 0x2
 3057 07c3 7A       		.byte	0x7a
 3058 07c4 00       		.sleb128 0
 3059 07c5 2C       		.uleb128 0x2c
 3060 07c6 01       		.uleb128 0x1
 3061 07c7 51       		.byte	0x51
 3062 07c8 04       		.uleb128 0x4
 3063 07c9 91       		.byte	0x91
 3064 07ca BC7F     		.sleb128 -68
 3065 07cc 06       		.byte	0x6
 3066 07cd 2C       		.uleb128 0x2c
 3067 07ce 01       		.uleb128 0x1
 3068 07cf 52       		.byte	0x52
 3069 07d0 02       		.uleb128 0x2
 3070 07d1 7B       		.byte	0x7b
 3071 07d2 00       		.sleb128 0
 3072 07d3 2C       		.uleb128 0x2c
 3073 07d4 01       		.uleb128 0x1
 3074 07d5 53       		.byte	0x53
ARM GAS  C:\Users\info\AppData\Local\Temp\ccSLnsSK.s 			page 70


 3075 07d6 02       		.uleb128 0x2
 3076 07d7 76       		.byte	0x76
 3077 07d8 00       		.sleb128 0
 3078 07d9 2C       		.uleb128 0x2c
 3079 07da 02       		.uleb128 0x2
 3080 07db 7D       		.byte	0x7d
 3081 07dc 00       		.sleb128 0
 3082 07dd 02       		.uleb128 0x2
 3083 07de 75       		.byte	0x75
 3084 07df 00       		.sleb128 0
 3085 07e0 2D       		.uleb128 0x2d
 3086 07e1 5A030000 		.4byte	0x35a
 3087 07e5 02       		.uleb128 0x2
 3088 07e6 79       		.byte	0x79
 3089 07e7 00       		.sleb128 0
 3090 07e8 00       		.byte	0
 3091 07e9 2E       		.uleb128 0x2e
 3092 07ea 68000000 		.4byte	.LVL94
 3093 07ee F1130000 		.4byte	0x13f1
 3094 07f2 2C       		.uleb128 0x2c
 3095 07f3 01       		.uleb128 0x1
 3096 07f4 50       		.byte	0x50
 3097 07f5 02       		.uleb128 0x2
 3098 07f6 79       		.byte	0x79
 3099 07f7 00       		.sleb128 0
 3100 07f8 2C       		.uleb128 0x2c
 3101 07f9 01       		.uleb128 0x1
 3102 07fa 52       		.byte	0x52
 3103 07fb 02       		.uleb128 0x2
 3104 07fc 77       		.byte	0x77
 3105 07fd 00       		.sleb128 0
 3106 07fe 2C       		.uleb128 0x2c
 3107 07ff 01       		.uleb128 0x1
 3108 0800 53       		.byte	0x53
 3109 0801 01       		.uleb128 0x1
 3110 0802 31       		.byte	0x31
 3111 0803 2C       		.uleb128 0x2c
 3112 0804 02       		.uleb128 0x2
 3113 0805 7D       		.byte	0x7d
 3114 0806 00       		.sleb128 0
 3115 0807 02       		.uleb128 0x2
 3116 0808 76       		.byte	0x76
 3117 0809 00       		.sleb128 0
 3118 080a 00       		.byte	0
 3119 080b 00       		.byte	0
 3120 080c 32       		.uleb128 0x32
 3121 080d A4030000 		.4byte	.LASF75
 3122 0811 01       		.byte	0x1
 3123 0812 99       		.byte	0x99
 3124 0813 97000000 		.4byte	0x97
 3125 0817 00000000 		.4byte	.LFB3
 3126 081b 24000000 		.4byte	.LFE3-.LFB3
 3127 081f 01       		.uleb128 0x1
 3128 0820 9C       		.byte	0x9c
 3129 0821 40080000 		.4byte	0x840
 3130 0825 18       		.uleb128 0x18
 3131 0826 7800     		.ascii	"x\000"
ARM GAS  C:\Users\info\AppData\Local\Temp\ccSLnsSK.s 			page 71


 3132 0828 01       		.byte	0x1
 3133 0829 99       		.byte	0x99
 3134 082a 8C000000 		.4byte	0x8c
 3135 082e 5A070000 		.4byte	.LLST35
 3136 0832 33       		.uleb128 0x33
 3137 0833 7900     		.ascii	"y\000"
 3138 0835 01       		.byte	0x1
 3139 0836 9B       		.byte	0x9b
 3140 0837 97000000 		.4byte	0x97
 3141 083b 7B070000 		.4byte	.LLST36
 3142 083f 00       		.byte	0
 3143 0840 23       		.uleb128 0x23
 3144 0841 54030000 		.4byte	.LASF76
 3145 0845 01       		.byte	0x1
 3146 0846 F9       		.byte	0xf9
 3147 0847 01       		.byte	0x1
 3148 0848 9E080000 		.4byte	0x89e
 3149 084c 0F       		.uleb128 0xf
 3150 084d F9030000 		.4byte	.LASF61
 3151 0851 01       		.byte	0x1
 3152 0852 F9       		.byte	0xf9
 3153 0853 07030000 		.4byte	0x307
 3154 0857 10       		.uleb128 0x10
 3155 0858 7800     		.ascii	"x\000"
 3156 085a 01       		.byte	0x1
 3157 085b F9       		.byte	0xf9
 3158 085c 8C000000 		.4byte	0x8c
 3159 0860 10       		.uleb128 0x10
 3160 0861 7900     		.ascii	"y\000"
 3161 0863 01       		.byte	0x1
 3162 0864 F9       		.byte	0xf9
 3163 0865 8C000000 		.4byte	0x8c
 3164 0869 0F       		.uleb128 0xf
 3165 086a BE020000 		.4byte	.LASF25
 3166 086e 01       		.byte	0x1
 3167 086f F9       		.byte	0xf9
 3168 0870 8C000000 		.4byte	0x8c
 3169 0874 12       		.uleb128 0x12
 3170 0875 746800   		.ascii	"th\000"
 3171 0878 01       		.byte	0x1
 3172 0879 FB       		.byte	0xfb
 3173 087a 8C000000 		.4byte	0x8c
 3174 087e 12       		.uleb128 0x12
 3175 087f 747600   		.ascii	"tv\000"
 3176 0882 01       		.byte	0x1
 3177 0883 FC       		.byte	0xfc
 3178 0884 8C000000 		.4byte	0x8c
 3179 0888 12       		.uleb128 0x12
 3180 0889 787800   		.ascii	"xx\000"
 3181 088c 01       		.byte	0x1
 3182 088d FD       		.byte	0xfd
 3183 088e 8C000000 		.4byte	0x8c
 3184 0892 11       		.uleb128 0x11
 3185 0893 7D020000 		.4byte	.LASF70
 3186 0897 01       		.byte	0x1
 3187 0898 FD       		.byte	0xfd
 3188 0899 8C000000 		.4byte	0x8c
ARM GAS  C:\Users\info\AppData\Local\Temp\ccSLnsSK.s 			page 72


 3189 089d 00       		.byte	0
 3190 089e 0E       		.uleb128 0xe
 3191 089f E9020000 		.4byte	.LASF78
 3192 08a3 01       		.byte	0x1
 3193 08a4 E7       		.byte	0xe7
 3194 08a5 01       		.byte	0x1
 3195 08a6 11090000 		.4byte	0x911
 3196 08aa 0F       		.uleb128 0xf
 3197 08ab F9030000 		.4byte	.LASF61
 3198 08af 01       		.byte	0x1
 3199 08b0 E7       		.byte	0xe7
 3200 08b1 07030000 		.4byte	0x307
 3201 08b5 10       		.uleb128 0x10
 3202 08b6 7800     		.ascii	"x\000"
 3203 08b8 01       		.byte	0x1
 3204 08b9 E7       		.byte	0xe7
 3205 08ba 8C000000 		.4byte	0x8c
 3206 08be 10       		.uleb128 0x10
 3207 08bf 7900     		.ascii	"y\000"
 3208 08c1 01       		.byte	0x1
 3209 08c2 E7       		.byte	0xe7
 3210 08c3 8C000000 		.4byte	0x8c
 3211 08c7 0F       		.uleb128 0xf
 3212 08c8 BE020000 		.4byte	.LASF25
 3213 08cc 01       		.byte	0x1
 3214 08cd E7       		.byte	0xe7
 3215 08ce 8C000000 		.4byte	0x8c
 3216 08d2 0F       		.uleb128 0xf
 3217 08d3 7D020000 		.4byte	.LASF70
 3218 08d7 01       		.byte	0x1
 3219 08d8 E7       		.byte	0xe7
 3220 08d9 8C000000 		.4byte	0x8c
 3221 08dd 12       		.uleb128 0x12
 3222 08de 6900     		.ascii	"i\000"
 3223 08e0 01       		.byte	0x1
 3224 08e1 E9       		.byte	0xe9
 3225 08e2 8C000000 		.4byte	0x8c
 3226 08e6 12       		.uleb128 0x12
 3227 08e7 7400     		.ascii	"t\000"
 3228 08e9 01       		.byte	0x1
 3229 08ea EA       		.byte	0xea
 3230 08eb 97000000 		.4byte	0x97
 3231 08ef 12       		.uleb128 0x12
 3232 08f0 62756600 		.ascii	"buf\000"
 3233 08f4 01       		.byte	0x1
 3234 08f5 EB       		.byte	0xeb
 3235 08f6 89050000 		.4byte	0x589
 3236 08fa 11       		.uleb128 0x11
 3237 08fb 39000000 		.4byte	.LASF79
 3238 08ff 01       		.byte	0x1
 3239 0900 EC       		.byte	0xec
 3240 0901 89050000 		.4byte	0x589
 3241 0905 11       		.uleb128 0x11
 3242 0906 EA050000 		.4byte	.LASF80
 3243 090a 01       		.byte	0x1
 3244 090b ED       		.byte	0xed
 3245 090c 89050000 		.4byte	0x589
ARM GAS  C:\Users\info\AppData\Local\Temp\ccSLnsSK.s 			page 73


 3246 0910 00       		.byte	0
 3247 0911 26       		.uleb128 0x26
 3248 0912 09030000 		.4byte	.LASF82
 3249 0916 01       		.byte	0x1
 3250 0917 B301     		.2byte	0x1b3
 3251 0919 8C000000 		.4byte	0x8c
 3252 091d 00000000 		.4byte	.LFB18
 3253 0921 90010000 		.4byte	.LFE18-.LFB18
 3254 0925 01       		.uleb128 0x1
 3255 0926 9C       		.byte	0x9c
 3256 0927 520B0000 		.4byte	0xb52
 3257 092b 1B       		.uleb128 0x1b
 3258 092c F9030000 		.4byte	.LASF61
 3259 0930 01       		.byte	0x1
 3260 0931 B301     		.2byte	0x1b3
 3261 0933 07030000 		.4byte	0x307
 3262 0937 B0070000 		.4byte	.LLST37
 3263 093b 27       		.uleb128 0x27
 3264 093c 7800     		.ascii	"x\000"
 3265 093e 01       		.byte	0x1
 3266 093f B301     		.2byte	0x1b3
 3267 0941 8C000000 		.4byte	0x8c
 3268 0945 CE070000 		.4byte	.LLST38
 3269 0949 27       		.uleb128 0x27
 3270 094a 7900     		.ascii	"y\000"
 3271 094c 01       		.byte	0x1
 3272 094d B301     		.2byte	0x1b3
 3273 094f 8C000000 		.4byte	0x8c
 3274 0953 F7070000 		.4byte	.LLST39
 3275 0957 27       		.uleb128 0x27
 3276 0958 7300     		.ascii	"s\000"
 3277 095a 01       		.byte	0x1
 3278 095b B301     		.2byte	0x1b3
 3279 095d 0D070000 		.4byte	0x70d
 3280 0961 18080000 		.4byte	.LLST40
 3281 0965 28       		.uleb128 0x28
 3282 0966 6500     		.ascii	"e\000"
 3283 0968 01       		.byte	0x1
 3284 0969 B501     		.2byte	0x1b5
 3285 096b 97000000 		.4byte	0x97
 3286 096f 7F080000 		.4byte	.LLST41
 3287 0973 28       		.uleb128 0x28
 3288 0974 636E7400 		.ascii	"cnt\000"
 3289 0978 01       		.byte	0x1
 3290 0979 B601     		.2byte	0x1b6
 3291 097b 8C000000 		.4byte	0x8c
 3292 097f 9D080000 		.4byte	.LLST42
 3293 0983 2A       		.uleb128 0x2a
 3294 0984 E4030000 		.4byte	0x3e4
 3295 0988 0A000000 		.4byte	.LBB34
 3296 098c 48000000 		.4byte	.Ldebug_ranges0+0x48
 3297 0990 01       		.byte	0x1
 3298 0991 B701     		.2byte	0x1b7
 3299 0993 A1090000 		.4byte	0x9a1
 3300 0997 1E       		.uleb128 0x1e
 3301 0998 F1030000 		.4byte	0x3f1
 3302 099c BE080000 		.4byte	.LLST43
ARM GAS  C:\Users\info\AppData\Local\Temp\ccSLnsSK.s 			page 74


 3303 09a0 00       		.byte	0
 3304 09a1 2A       		.uleb128 0x2a
 3305 09a2 40080000 		.4byte	0x840
 3306 09a6 3A000000 		.4byte	.LBB38
 3307 09aa 60000000 		.4byte	.Ldebug_ranges0+0x60
 3308 09ae 01       		.byte	0x1
 3309 09af C001     		.2byte	0x1c0
 3310 09b1 450B0000 		.4byte	0xb45
 3311 09b5 1E       		.uleb128 0x1e
 3312 09b6 69080000 		.4byte	0x869
 3313 09ba DC080000 		.4byte	.LLST44
 3314 09be 1E       		.uleb128 0x1e
 3315 09bf 60080000 		.4byte	0x860
 3316 09c3 F1080000 		.4byte	.LLST45
 3317 09c7 1E       		.uleb128 0x1e
 3318 09c8 57080000 		.4byte	0x857
 3319 09cc 1C090000 		.4byte	.LLST46
 3320 09d0 1E       		.uleb128 0x1e
 3321 09d1 4C080000 		.4byte	0x84c
 3322 09d5 2F090000 		.4byte	.LLST47
 3323 09d9 22       		.uleb128 0x22
 3324 09da 60000000 		.4byte	.Ldebug_ranges0+0x60
 3325 09de 21       		.uleb128 0x21
 3326 09df 74080000 		.4byte	0x874
 3327 09e3 42090000 		.4byte	.LLST48
 3328 09e7 21       		.uleb128 0x21
 3329 09e8 7E080000 		.4byte	0x87e
 3330 09ec 73090000 		.4byte	.LLST49
 3331 09f0 21       		.uleb128 0x21
 3332 09f1 88080000 		.4byte	0x888
 3333 09f5 A4090000 		.4byte	.LLST50
 3334 09f9 21       		.uleb128 0x21
 3335 09fa 92080000 		.4byte	0x892
 3336 09fe B7090000 		.4byte	.LLST51
 3337 0a02 34       		.uleb128 0x34
 3338 0a03 9E080000 		.4byte	0x89e
 3339 0a07 7A000000 		.4byte	.LBB40
 3340 0a0b DE000000 		.4byte	.LBE40-.LBB40
 3341 0a0f 01       		.byte	0x1
 3342 0a10 0701     		.2byte	0x107
 3343 0a12 1E       		.uleb128 0x1e
 3344 0a13 D2080000 		.4byte	0x8d2
 3345 0a17 E5090000 		.4byte	.LLST52
 3346 0a1b 35       		.uleb128 0x35
 3347 0a1c C7080000 		.4byte	0x8c7
 3348 0a20 1E       		.uleb128 0x1e
 3349 0a21 BE080000 		.4byte	0x8be
 3350 0a25 FD090000 		.4byte	.LLST53
 3351 0a29 1E       		.uleb128 0x1e
 3352 0a2a B5080000 		.4byte	0x8b5
 3353 0a2e 100A0000 		.4byte	.LLST54
 3354 0a32 1E       		.uleb128 0x1e
 3355 0a33 AA080000 		.4byte	0x8aa
 3356 0a37 230A0000 		.4byte	.LLST55
 3357 0a3b 36       		.uleb128 0x36
 3358 0a3c 7A000000 		.4byte	.LBB41
 3359 0a40 DE000000 		.4byte	.LBE41-.LBB41
ARM GAS  C:\Users\info\AppData\Local\Temp\ccSLnsSK.s 			page 75


 3360 0a44 21       		.uleb128 0x21
 3361 0a45 DD080000 		.4byte	0x8dd
 3362 0a49 360A0000 		.4byte	.LLST56
 3363 0a4d 21       		.uleb128 0x21
 3364 0a4e E6080000 		.4byte	0x8e6
 3365 0a52 560A0000 		.4byte	.LLST57
 3366 0a56 20       		.uleb128 0x20
 3367 0a57 EF080000 		.4byte	0x8ef
 3368 0a5b 02       		.uleb128 0x2
 3369 0a5c 91       		.byte	0x91
 3370 0a5d 40       		.sleb128 -64
 3371 0a5e 20       		.uleb128 0x20
 3372 0a5f FA080000 		.4byte	0x8fa
 3373 0a63 02       		.uleb128 0x2
 3374 0a64 91       		.byte	0x91
 3375 0a65 48       		.sleb128 -56
 3376 0a66 20       		.uleb128 0x20
 3377 0a67 05090000 		.4byte	0x905
 3378 0a6b 02       		.uleb128 0x2
 3379 0a6c 91       		.byte	0x91
 3380 0a6d 50       		.sleb128 -48
 3381 0a6e 2B       		.uleb128 0x2b
 3382 0a6f 8E000000 		.4byte	.LVL122
 3383 0a73 72040000 		.4byte	0x472
 3384 0a77 A50A0000 		.4byte	0xaa5
 3385 0a7b 2C       		.uleb128 0x2c
 3386 0a7c 01       		.uleb128 0x1
 3387 0a7d 50       		.byte	0x50
 3388 0a7e 04       		.uleb128 0x4
 3389 0a7f 91       		.byte	0x91
 3390 0a80 A87F     		.sleb128 -88
 3391 0a82 06       		.byte	0x6
 3392 0a83 2C       		.uleb128 0x2c
 3393 0a84 01       		.uleb128 0x1
 3394 0a85 51       		.byte	0x51
 3395 0a86 04       		.uleb128 0x4
 3396 0a87 91       		.byte	0x91
 3397 0a88 AC7F     		.sleb128 -84
 3398 0a8a 06       		.byte	0x6
 3399 0a8b 2C       		.uleb128 0x2c
 3400 0a8c 01       		.uleb128 0x1
 3401 0a8d 52       		.byte	0x52
 3402 0a8e 05       		.uleb128 0x5
 3403 0a8f 91       		.byte	0x91
 3404 0a90 A07F     		.sleb128 -96
 3405 0a92 94       		.byte	0x94
 3406 0a93 01       		.byte	0x1
 3407 0a94 2C       		.uleb128 0x2c
 3408 0a95 01       		.uleb128 0x1
 3409 0a96 53       		.byte	0x53
 3410 0a97 02       		.uleb128 0x2
 3411 0a98 91       		.byte	0x91
 3412 0a99 40       		.sleb128 -64
 3413 0a9a 2C       		.uleb128 0x2c
 3414 0a9b 02       		.uleb128 0x2
 3415 0a9c 7D       		.byte	0x7d
 3416 0a9d 00       		.sleb128 0
ARM GAS  C:\Users\info\AppData\Local\Temp\ccSLnsSK.s 			page 76


 3417 0a9e 05       		.uleb128 0x5
 3418 0a9f 79       		.byte	0x79
 3419 0aa0 00       		.sleb128 0
 3420 0aa1 74       		.byte	0x74
 3421 0aa2 00       		.sleb128 0
 3422 0aa3 22       		.byte	0x22
 3423 0aa4 00       		.byte	0
 3424 0aa5 37       		.uleb128 0x37
 3425 0aa6 96000000 		.4byte	.LVL123
 3426 0aaa 0C080000 		.4byte	0x80c
 3427 0aae 37       		.uleb128 0x37
 3428 0aaf AA000000 		.4byte	.LVL124
 3429 0ab3 0C080000 		.4byte	0x80c
 3430 0ab7 37       		.uleb128 0x37
 3431 0ab8 BE000000 		.4byte	.LVL125
 3432 0abc 0C080000 		.4byte	0x80c
 3433 0ac0 37       		.uleb128 0x37
 3434 0ac1 D2000000 		.4byte	.LVL126
 3435 0ac5 0C080000 		.4byte	0x80c
 3436 0ac9 37       		.uleb128 0x37
 3437 0aca E6000000 		.4byte	.LVL127
 3438 0ace 0C080000 		.4byte	0x80c
 3439 0ad2 37       		.uleb128 0x37
 3440 0ad3 FA000000 		.4byte	.LVL128
 3441 0ad7 0C080000 		.4byte	0x80c
 3442 0adb 37       		.uleb128 0x37
 3443 0adc 0E010000 		.4byte	.LVL129
 3444 0ae0 0C080000 		.4byte	0x80c
 3445 0ae4 37       		.uleb128 0x37
 3446 0ae5 22010000 		.4byte	.LVL130
 3447 0ae9 0C080000 		.4byte	0x80c
 3448 0aed 2B       		.uleb128 0x2b
 3449 0aee 46010000 		.4byte	.LVL134
 3450 0af2 F1130000 		.4byte	0x13f1
 3451 0af6 190B0000 		.4byte	0xb19
 3452 0afa 2C       		.uleb128 0x2c
 3453 0afb 01       		.uleb128 0x1
 3454 0afc 50       		.byte	0x50
 3455 0afd 02       		.uleb128 0x2
 3456 0afe 7B       		.byte	0x7b
 3457 0aff 00       		.sleb128 0
 3458 0b00 2C       		.uleb128 0x2c
 3459 0b01 01       		.uleb128 0x1
 3460 0b02 51       		.byte	0x51
 3461 0b03 02       		.uleb128 0x2
 3462 0b04 75       		.byte	0x75
 3463 0b05 00       		.sleb128 0
 3464 0b06 2C       		.uleb128 0x2c
 3465 0b07 01       		.uleb128 0x1
 3466 0b08 52       		.byte	0x52
 3467 0b09 02       		.uleb128 0x2
 3468 0b0a 77       		.byte	0x77
 3469 0b0b 00       		.sleb128 0
 3470 0b0c 2C       		.uleb128 0x2c
 3471 0b0d 01       		.uleb128 0x1
 3472 0b0e 53       		.byte	0x53
 3473 0b0f 01       		.uleb128 0x1
ARM GAS  C:\Users\info\AppData\Local\Temp\ccSLnsSK.s 			page 77


 3474 0b10 31       		.byte	0x31
 3475 0b11 2C       		.uleb128 0x2c
 3476 0b12 02       		.uleb128 0x2
 3477 0b13 7D       		.byte	0x7d
 3478 0b14 00       		.sleb128 0
 3479 0b15 02       		.uleb128 0x2
 3480 0b16 91       		.byte	0x91
 3481 0b17 50       		.sleb128 -48
 3482 0b18 00       		.byte	0
 3483 0b19 2E       		.uleb128 0x2e
 3484 0b1a 56010000 		.4byte	.LVL135
 3485 0b1e F1130000 		.4byte	0x13f1
 3486 0b22 2C       		.uleb128 0x2c
 3487 0b23 01       		.uleb128 0x1
 3488 0b24 50       		.byte	0x50
 3489 0b25 02       		.uleb128 0x2
 3490 0b26 7B       		.byte	0x7b
 3491 0b27 00       		.sleb128 0
 3492 0b28 2C       		.uleb128 0x2c
 3493 0b29 01       		.uleb128 0x1
 3494 0b2a 51       		.byte	0x51
 3495 0b2b 02       		.uleb128 0x2
 3496 0b2c 75       		.byte	0x75
 3497 0b2d 00       		.sleb128 0
 3498 0b2e 2C       		.uleb128 0x2c
 3499 0b2f 01       		.uleb128 0x1
 3500 0b30 52       		.byte	0x52
 3501 0b31 02       		.uleb128 0x2
 3502 0b32 78       		.byte	0x78
 3503 0b33 00       		.sleb128 0
 3504 0b34 2C       		.uleb128 0x2c
 3505 0b35 01       		.uleb128 0x1
 3506 0b36 53       		.byte	0x53
 3507 0b37 01       		.uleb128 0x1
 3508 0b38 31       		.byte	0x31
 3509 0b39 2C       		.uleb128 0x2c
 3510 0b3a 02       		.uleb128 0x2
 3511 0b3b 7D       		.byte	0x7d
 3512 0b3c 00       		.sleb128 0
 3513 0b3d 02       		.uleb128 0x2
 3514 0b3e 91       		.byte	0x91
 3515 0b3f 48       		.sleb128 -56
 3516 0b40 00       		.byte	0
 3517 0b41 00       		.byte	0
 3518 0b42 00       		.byte	0
 3519 0b43 00       		.byte	0
 3520 0b44 00       		.byte	0
 3521 0b45 2F       		.uleb128 0x2f
 3522 0b46 28000000 		.4byte	.LVL113
 3523 0b4a 2C       		.uleb128 0x2c
 3524 0b4b 01       		.uleb128 0x1
 3525 0b4c 50       		.byte	0x50
 3526 0b4d 02       		.uleb128 0x2
 3527 0b4e 7B       		.byte	0x7b
 3528 0b4f 00       		.sleb128 0
 3529 0b50 00       		.byte	0
 3530 0b51 00       		.byte	0
ARM GAS  C:\Users\info\AppData\Local\Temp\ccSLnsSK.s 			page 78


 3531 0b52 0E       		.uleb128 0xe
 3532 0b53 BB050000 		.4byte	.LASF83
 3533 0b57 01       		.byte	0x1
 3534 0b58 B3       		.byte	0xb3
 3535 0b59 01       		.byte	0x1
 3536 0b5a C50B0000 		.4byte	0xbc5
 3537 0b5e 0F       		.uleb128 0xf
 3538 0b5f F9030000 		.4byte	.LASF61
 3539 0b63 01       		.byte	0x1
 3540 0b64 B3       		.byte	0xb3
 3541 0b65 07030000 		.4byte	0x307
 3542 0b69 10       		.uleb128 0x10
 3543 0b6a 7800     		.ascii	"x\000"
 3544 0b6c 01       		.byte	0x1
 3545 0b6d B3       		.byte	0xb3
 3546 0b6e 8C000000 		.4byte	0x8c
 3547 0b72 10       		.uleb128 0x10
 3548 0b73 7900     		.ascii	"y\000"
 3549 0b75 01       		.byte	0x1
 3550 0b76 B3       		.byte	0xb3
 3551 0b77 8C000000 		.4byte	0x8c
 3552 0b7b 0F       		.uleb128 0xf
 3553 0b7c BE020000 		.4byte	.LASF25
 3554 0b80 01       		.byte	0x1
 3555 0b81 B3       		.byte	0xb3
 3556 0b82 8C000000 		.4byte	0x8c
 3557 0b86 0F       		.uleb128 0xf
 3558 0b87 7D020000 		.4byte	.LASF70
 3559 0b8b 01       		.byte	0x1
 3560 0b8c B3       		.byte	0xb3
 3561 0b8d 8C000000 		.4byte	0x8c
 3562 0b91 12       		.uleb128 0x12
 3563 0b92 6900     		.ascii	"i\000"
 3564 0b94 01       		.byte	0x1
 3565 0b95 B5       		.byte	0xb5
 3566 0b96 8C000000 		.4byte	0x8c
 3567 0b9a 12       		.uleb128 0x12
 3568 0b9b 7400     		.ascii	"t\000"
 3569 0b9d 01       		.byte	0x1
 3570 0b9e B6       		.byte	0xb6
 3571 0b9f 97000000 		.4byte	0x97
 3572 0ba3 12       		.uleb128 0x12
 3573 0ba4 62756600 		.ascii	"buf\000"
 3574 0ba8 01       		.byte	0x1
 3575 0ba9 B7       		.byte	0xb7
 3576 0baa 89050000 		.4byte	0x589
 3577 0bae 11       		.uleb128 0x11
 3578 0baf 39000000 		.4byte	.LASF79
 3579 0bb3 01       		.byte	0x1
 3580 0bb4 B8       		.byte	0xb8
 3581 0bb5 89050000 		.4byte	0x589
 3582 0bb9 11       		.uleb128 0x11
 3583 0bba EA050000 		.4byte	.LASF80
 3584 0bbe 01       		.byte	0x1
 3585 0bbf B9       		.byte	0xb9
 3586 0bc0 89050000 		.4byte	0x589
 3587 0bc4 00       		.byte	0
ARM GAS  C:\Users\info\AppData\Local\Temp\ccSLnsSK.s 			page 79


 3588 0bc5 30       		.uleb128 0x30
 3589 0bc6 AE010000 		.4byte	.LASF85
 3590 0bca 01       		.byte	0x1
 3591 0bcb CF       		.byte	0xcf
 3592 0bcc 00000000 		.4byte	.LFB6
 3593 0bd0 A4010000 		.4byte	.LFE6-.LFB6
 3594 0bd4 01       		.uleb128 0x1
 3595 0bd5 9C       		.byte	0x9c
 3596 0bd6 4A0E0000 		.4byte	0xe4a
 3597 0bda 19       		.uleb128 0x19
 3598 0bdb F9030000 		.4byte	.LASF61
 3599 0bdf 01       		.byte	0x1
 3600 0be0 CF       		.byte	0xcf
 3601 0be1 07030000 		.4byte	0x307
 3602 0be5 690A0000 		.4byte	.LLST58
 3603 0be9 18       		.uleb128 0x18
 3604 0bea 7800     		.ascii	"x\000"
 3605 0bec 01       		.byte	0x1
 3606 0bed CF       		.byte	0xcf
 3607 0bee 8C000000 		.4byte	0x8c
 3608 0bf2 920A0000 		.4byte	.LLST59
 3609 0bf6 18       		.uleb128 0x18
 3610 0bf7 7900     		.ascii	"y\000"
 3611 0bf9 01       		.byte	0x1
 3612 0bfa CF       		.byte	0xcf
 3613 0bfb 8C000000 		.4byte	0x8c
 3614 0bff B30A0000 		.4byte	.LLST60
 3615 0c03 19       		.uleb128 0x19
 3616 0c04 BE020000 		.4byte	.LASF25
 3617 0c08 01       		.byte	0x1
 3618 0c09 CF       		.byte	0xcf
 3619 0c0a 8C000000 		.4byte	0x8c
 3620 0c0e EA0A0000 		.4byte	.LLST61
 3621 0c12 33       		.uleb128 0x33
 3622 0c13 746800   		.ascii	"th\000"
 3623 0c16 01       		.byte	0x1
 3624 0c17 D1       		.byte	0xd1
 3625 0c18 8C000000 		.4byte	0x8c
 3626 0c1c 0B0B0000 		.4byte	.LLST62
 3627 0c20 38       		.uleb128 0x38
 3628 0c21 747600   		.ascii	"tv\000"
 3629 0c24 01       		.byte	0x1
 3630 0c25 D2       		.byte	0xd2
 3631 0c26 8C000000 		.4byte	0x8c
 3632 0c2a 03       		.uleb128 0x3
 3633 0c2b 91       		.byte	0x91
 3634 0c2c BC7F     		.sleb128 -68
 3635 0c2e 33       		.uleb128 0x33
 3636 0c2f 787800   		.ascii	"xx\000"
 3637 0c32 01       		.byte	0x1
 3638 0c33 D3       		.byte	0xd3
 3639 0c34 8C000000 		.4byte	0x8c
 3640 0c38 490B0000 		.4byte	.LLST63
 3641 0c3c 39       		.uleb128 0x39
 3642 0c3d 7D020000 		.4byte	.LASF70
 3643 0c41 01       		.byte	0x1
 3644 0c42 D3       		.byte	0xd3
ARM GAS  C:\Users\info\AppData\Local\Temp\ccSLnsSK.s 			page 80


 3645 0c43 8C000000 		.4byte	0x8c
 3646 0c47 5C0B0000 		.4byte	.LLST64
 3647 0c4b 3A       		.uleb128 0x3a
 3648 0c4c 520B0000 		.4byte	0xb52
 3649 0c50 52000000 		.4byte	.LBB46
 3650 0c54 1E010000 		.4byte	.LBE46-.LBB46
 3651 0c58 01       		.byte	0x1
 3652 0c59 DE       		.byte	0xde
 3653 0c5a 35       		.uleb128 0x35
 3654 0c5b 860B0000 		.4byte	0xb86
 3655 0c5f 35       		.uleb128 0x35
 3656 0c60 7B0B0000 		.4byte	0xb7b
 3657 0c64 1E       		.uleb128 0x1e
 3658 0c65 720B0000 		.4byte	0xb72
 3659 0c69 880B0000 		.4byte	.LLST65
 3660 0c6d 1E       		.uleb128 0x1e
 3661 0c6e 690B0000 		.4byte	0xb69
 3662 0c72 9B0B0000 		.4byte	.LLST66
 3663 0c76 1E       		.uleb128 0x1e
 3664 0c77 5E0B0000 		.4byte	0xb5e
 3665 0c7b AE0B0000 		.4byte	.LLST67
 3666 0c7f 36       		.uleb128 0x36
 3667 0c80 52000000 		.4byte	.LBB47
 3668 0c84 1E010000 		.4byte	.LBE47-.LBB47
 3669 0c88 21       		.uleb128 0x21
 3670 0c89 910B0000 		.4byte	0xb91
 3671 0c8d C10B0000 		.4byte	.LLST68
 3672 0c91 21       		.uleb128 0x21
 3673 0c92 9A0B0000 		.4byte	0xb9a
 3674 0c96 E10B0000 		.4byte	.LLST69
 3675 0c9a 20       		.uleb128 0x20
 3676 0c9b A30B0000 		.4byte	0xba3
 3677 0c9f 02       		.uleb128 0x2
 3678 0ca0 91       		.byte	0x91
 3679 0ca1 40       		.sleb128 -64
 3680 0ca2 20       		.uleb128 0x20
 3681 0ca3 AE0B0000 		.4byte	0xbae
 3682 0ca7 02       		.uleb128 0x2
 3683 0ca8 91       		.byte	0x91
 3684 0ca9 48       		.sleb128 -56
 3685 0caa 20       		.uleb128 0x20
 3686 0cab B90B0000 		.4byte	0xbb9
 3687 0caf 02       		.uleb128 0x2
 3688 0cb0 91       		.byte	0x91
 3689 0cb1 50       		.sleb128 -48
 3690 0cb2 2B       		.uleb128 0x2b
 3691 0cb3 70000000 		.4byte	.LVL156
 3692 0cb7 72040000 		.4byte	0x472
 3693 0cbb EB0C0000 		.4byte	0xceb
 3694 0cbf 2C       		.uleb128 0x2c
 3695 0cc0 01       		.uleb128 0x1
 3696 0cc1 50       		.byte	0x50
 3697 0cc2 04       		.uleb128 0x4
 3698 0cc3 91       		.byte	0x91
 3699 0cc4 AC7F     		.sleb128 -84
 3700 0cc6 06       		.byte	0x6
 3701 0cc7 2C       		.uleb128 0x2c
ARM GAS  C:\Users\info\AppData\Local\Temp\ccSLnsSK.s 			page 81


 3702 0cc8 01       		.uleb128 0x1
 3703 0cc9 51       		.byte	0x51
 3704 0cca 04       		.uleb128 0x4
 3705 0ccb 91       		.byte	0x91
 3706 0ccc B07F     		.sleb128 -80
 3707 0cce 06       		.byte	0x6
 3708 0ccf 2C       		.uleb128 0x2c
 3709 0cd0 01       		.uleb128 0x1
 3710 0cd1 52       		.byte	0x52
 3711 0cd2 05       		.uleb128 0x5
 3712 0cd3 91       		.byte	0x91
 3713 0cd4 B47F     		.sleb128 -76
 3714 0cd6 94       		.byte	0x94
 3715 0cd7 01       		.byte	0x1
 3716 0cd8 2C       		.uleb128 0x2c
 3717 0cd9 01       		.uleb128 0x1
 3718 0cda 53       		.byte	0x53
 3719 0cdb 02       		.uleb128 0x2
 3720 0cdc 75       		.byte	0x75
 3721 0cdd 00       		.sleb128 0
 3722 0cde 2C       		.uleb128 0x2c
 3723 0cdf 02       		.uleb128 0x2
 3724 0ce0 7D       		.byte	0x7d
 3725 0ce1 00       		.sleb128 0
 3726 0ce2 07       		.uleb128 0x7
 3727 0ce3 91       		.byte	0x91
 3728 0ce4 A07F     		.sleb128 -96
 3729 0ce6 06       		.byte	0x6
 3730 0ce7 76       		.byte	0x76
 3731 0ce8 00       		.sleb128 0
 3732 0ce9 22       		.byte	0x22
 3733 0cea 00       		.byte	0
 3734 0ceb 37       		.uleb128 0x37
 3735 0cec 78000000 		.4byte	.LVL157
 3736 0cf0 0C080000 		.4byte	0x80c
 3737 0cf4 37       		.uleb128 0x37
 3738 0cf5 8C000000 		.4byte	.LVL158
 3739 0cf9 0C080000 		.4byte	0x80c
 3740 0cfd 37       		.uleb128 0x37
 3741 0cfe A0000000 		.4byte	.LVL159
 3742 0d02 0C080000 		.4byte	0x80c
 3743 0d06 37       		.uleb128 0x37
 3744 0d07 B4000000 		.4byte	.LVL160
 3745 0d0b 0C080000 		.4byte	0x80c
 3746 0d0f 37       		.uleb128 0x37
 3747 0d10 C8000000 		.4byte	.LVL161
 3748 0d14 0C080000 		.4byte	0x80c
 3749 0d18 37       		.uleb128 0x37
 3750 0d19 DC000000 		.4byte	.LVL162
 3751 0d1d 0C080000 		.4byte	0x80c
 3752 0d21 37       		.uleb128 0x37
 3753 0d22 F0000000 		.4byte	.LVL163
 3754 0d26 0C080000 		.4byte	0x80c
 3755 0d2a 37       		.uleb128 0x37
 3756 0d2b 04010000 		.4byte	.LVL164
 3757 0d2f 0C080000 		.4byte	0x80c
 3758 0d33 2B       		.uleb128 0x2b
ARM GAS  C:\Users\info\AppData\Local\Temp\ccSLnsSK.s 			page 82


 3759 0d34 1A010000 		.4byte	.LVL168
 3760 0d38 FE030000 		.4byte	0x3fe
 3761 0d3c 4D0D0000 		.4byte	0xd4d
 3762 0d40 2C       		.uleb128 0x2c
 3763 0d41 01       		.uleb128 0x1
 3764 0d42 50       		.byte	0x50
 3765 0d43 02       		.uleb128 0x2
 3766 0d44 91       		.byte	0x91
 3767 0d45 50       		.sleb128 -48
 3768 0d46 2C       		.uleb128 0x2c
 3769 0d47 01       		.uleb128 0x1
 3770 0d48 51       		.byte	0x51
 3771 0d49 02       		.uleb128 0x2
 3772 0d4a 75       		.byte	0x75
 3773 0d4b 00       		.sleb128 0
 3774 0d4c 00       		.byte	0
 3775 0d4d 2B       		.uleb128 0x2b
 3776 0d4e 28010000 		.4byte	.LVL169
 3777 0d52 F1130000 		.4byte	0x13f1
 3778 0d56 790D0000 		.4byte	0xd79
 3779 0d5a 2C       		.uleb128 0x2c
 3780 0d5b 01       		.uleb128 0x1
 3781 0d5c 50       		.byte	0x50
 3782 0d5d 02       		.uleb128 0x2
 3783 0d5e 79       		.byte	0x79
 3784 0d5f 00       		.sleb128 0
 3785 0d60 2C       		.uleb128 0x2c
 3786 0d61 01       		.uleb128 0x1
 3787 0d62 51       		.byte	0x51
 3788 0d63 02       		.uleb128 0x2
 3789 0d64 77       		.byte	0x77
 3790 0d65 00       		.sleb128 0
 3791 0d66 2C       		.uleb128 0x2c
 3792 0d67 01       		.uleb128 0x1
 3793 0d68 52       		.byte	0x52
 3794 0d69 02       		.uleb128 0x2
 3795 0d6a 7B       		.byte	0x7b
 3796 0d6b 00       		.sleb128 0
 3797 0d6c 2C       		.uleb128 0x2c
 3798 0d6d 01       		.uleb128 0x1
 3799 0d6e 53       		.byte	0x53
 3800 0d6f 01       		.uleb128 0x1
 3801 0d70 31       		.byte	0x31
 3802 0d71 2C       		.uleb128 0x2c
 3803 0d72 02       		.uleb128 0x2
 3804 0d73 7D       		.byte	0x7d
 3805 0d74 00       		.sleb128 0
 3806 0d75 02       		.uleb128 0x2
 3807 0d76 75       		.byte	0x75
 3808 0d77 00       		.sleb128 0
 3809 0d78 00       		.byte	0
 3810 0d79 2B       		.uleb128 0x2b
 3811 0d7a 30010000 		.4byte	.LVL170
 3812 0d7e FE030000 		.4byte	0x3fe
 3813 0d82 930D0000 		.4byte	0xd93
 3814 0d86 2C       		.uleb128 0x2c
 3815 0d87 01       		.uleb128 0x1
ARM GAS  C:\Users\info\AppData\Local\Temp\ccSLnsSK.s 			page 83


 3816 0d88 50       		.byte	0x50
 3817 0d89 02       		.uleb128 0x2
 3818 0d8a 91       		.byte	0x91
 3819 0d8b 54       		.sleb128 -44
 3820 0d8c 2C       		.uleb128 0x2c
 3821 0d8d 01       		.uleb128 0x1
 3822 0d8e 51       		.byte	0x51
 3823 0d8f 02       		.uleb128 0x2
 3824 0d90 75       		.byte	0x75
 3825 0d91 00       		.sleb128 0
 3826 0d92 00       		.byte	0
 3827 0d93 2B       		.uleb128 0x2b
 3828 0d94 44010000 		.4byte	.LVL171
 3829 0d98 F1130000 		.4byte	0x13f1
 3830 0d9c BF0D0000 		.4byte	0xdbf
 3831 0da0 2C       		.uleb128 0x2c
 3832 0da1 01       		.uleb128 0x1
 3833 0da2 50       		.byte	0x50
 3834 0da3 02       		.uleb128 0x2
 3835 0da4 79       		.byte	0x79
 3836 0da5 00       		.sleb128 0
 3837 0da6 2C       		.uleb128 0x2c
 3838 0da7 01       		.uleb128 0x1
 3839 0da8 51       		.byte	0x51
 3840 0da9 02       		.uleb128 0x2
 3841 0daa 74       		.byte	0x74
 3842 0dab 00       		.sleb128 0
 3843 0dac 2C       		.uleb128 0x2c
 3844 0dad 01       		.uleb128 0x1
 3845 0dae 52       		.byte	0x52
 3846 0daf 02       		.uleb128 0x2
 3847 0db0 7B       		.byte	0x7b
 3848 0db1 00       		.sleb128 0
 3849 0db2 2C       		.uleb128 0x2c
 3850 0db3 01       		.uleb128 0x1
 3851 0db4 53       		.byte	0x53
 3852 0db5 01       		.uleb128 0x1
 3853 0db6 31       		.byte	0x31
 3854 0db7 2C       		.uleb128 0x2c
 3855 0db8 02       		.uleb128 0x2
 3856 0db9 7D       		.byte	0x7d
 3857 0dba 00       		.sleb128 0
 3858 0dbb 02       		.uleb128 0x2
 3859 0dbc 75       		.byte	0x75
 3860 0dbd 00       		.sleb128 0
 3861 0dbe 00       		.byte	0
 3862 0dbf 2B       		.uleb128 0x2b
 3863 0dc0 4C010000 		.4byte	.LVL172
 3864 0dc4 FE030000 		.4byte	0x3fe
 3865 0dc8 D90D0000 		.4byte	0xdd9
 3866 0dcc 2C       		.uleb128 0x2c
 3867 0dcd 01       		.uleb128 0x1
 3868 0dce 50       		.byte	0x50
 3869 0dcf 02       		.uleb128 0x2
 3870 0dd0 91       		.byte	0x91
 3871 0dd1 48       		.sleb128 -56
 3872 0dd2 2C       		.uleb128 0x2c
ARM GAS  C:\Users\info\AppData\Local\Temp\ccSLnsSK.s 			page 84


 3873 0dd3 01       		.uleb128 0x1
 3874 0dd4 51       		.byte	0x51
 3875 0dd5 02       		.uleb128 0x2
 3876 0dd6 75       		.byte	0x75
 3877 0dd7 00       		.sleb128 0
 3878 0dd8 00       		.byte	0
 3879 0dd9 2B       		.uleb128 0x2b
 3880 0dda 5A010000 		.4byte	.LVL173
 3881 0dde F1130000 		.4byte	0x13f1
 3882 0de2 050E0000 		.4byte	0xe05
 3883 0de6 2C       		.uleb128 0x2c
 3884 0de7 01       		.uleb128 0x1
 3885 0de8 50       		.byte	0x50
 3886 0de9 02       		.uleb128 0x2
 3887 0dea 79       		.byte	0x79
 3888 0deb 00       		.sleb128 0
 3889 0dec 2C       		.uleb128 0x2c
 3890 0ded 01       		.uleb128 0x1
 3891 0dee 51       		.byte	0x51
 3892 0def 02       		.uleb128 0x2
 3893 0df0 77       		.byte	0x77
 3894 0df1 00       		.sleb128 0
 3895 0df2 2C       		.uleb128 0x2c
 3896 0df3 01       		.uleb128 0x1
 3897 0df4 52       		.byte	0x52
 3898 0df5 02       		.uleb128 0x2
 3899 0df6 7A       		.byte	0x7a
 3900 0df7 00       		.sleb128 0
 3901 0df8 2C       		.uleb128 0x2c
 3902 0df9 01       		.uleb128 0x1
 3903 0dfa 53       		.byte	0x53
 3904 0dfb 01       		.uleb128 0x1
 3905 0dfc 31       		.byte	0x31
 3906 0dfd 2C       		.uleb128 0x2c
 3907 0dfe 02       		.uleb128 0x2
 3908 0dff 7D       		.byte	0x7d
 3909 0e00 00       		.sleb128 0
 3910 0e01 02       		.uleb128 0x2
 3911 0e02 75       		.byte	0x75
 3912 0e03 00       		.sleb128 0
 3913 0e04 00       		.byte	0
 3914 0e05 2B       		.uleb128 0x2b
 3915 0e06 62010000 		.4byte	.LVL174
 3916 0e0a FE030000 		.4byte	0x3fe
 3917 0e0e 1F0E0000 		.4byte	0xe1f
 3918 0e12 2C       		.uleb128 0x2c
 3919 0e13 01       		.uleb128 0x1
 3920 0e14 50       		.byte	0x50
 3921 0e15 02       		.uleb128 0x2
 3922 0e16 91       		.byte	0x91
 3923 0e17 4C       		.sleb128 -52
 3924 0e18 2C       		.uleb128 0x2c
 3925 0e19 01       		.uleb128 0x1
 3926 0e1a 51       		.byte	0x51
 3927 0e1b 02       		.uleb128 0x2
 3928 0e1c 75       		.byte	0x75
 3929 0e1d 00       		.sleb128 0
ARM GAS  C:\Users\info\AppData\Local\Temp\ccSLnsSK.s 			page 85


 3930 0e1e 00       		.byte	0
 3931 0e1f 2E       		.uleb128 0x2e
 3932 0e20 70010000 		.4byte	.LVL175
 3933 0e24 F1130000 		.4byte	0x13f1
 3934 0e28 2C       		.uleb128 0x2c
 3935 0e29 01       		.uleb128 0x1
 3936 0e2a 50       		.byte	0x50
 3937 0e2b 02       		.uleb128 0x2
 3938 0e2c 79       		.byte	0x79
 3939 0e2d 00       		.sleb128 0
 3940 0e2e 2C       		.uleb128 0x2c
 3941 0e2f 01       		.uleb128 0x1
 3942 0e30 51       		.byte	0x51
 3943 0e31 02       		.uleb128 0x2
 3944 0e32 74       		.byte	0x74
 3945 0e33 00       		.sleb128 0
 3946 0e34 2C       		.uleb128 0x2c
 3947 0e35 01       		.uleb128 0x1
 3948 0e36 52       		.byte	0x52
 3949 0e37 02       		.uleb128 0x2
 3950 0e38 7A       		.byte	0x7a
 3951 0e39 00       		.sleb128 0
 3952 0e3a 2C       		.uleb128 0x2c
 3953 0e3b 01       		.uleb128 0x1
 3954 0e3c 53       		.byte	0x53
 3955 0e3d 01       		.uleb128 0x1
 3956 0e3e 31       		.byte	0x31
 3957 0e3f 2C       		.uleb128 0x2c
 3958 0e40 02       		.uleb128 0x2
 3959 0e41 7D       		.byte	0x7d
 3960 0e42 00       		.sleb128 0
 3961 0e43 02       		.uleb128 0x2
 3962 0e44 75       		.byte	0x75
 3963 0e45 00       		.sleb128 0
 3964 0e46 00       		.byte	0
 3965 0e47 00       		.byte	0
 3966 0e48 00       		.byte	0
 3967 0e49 00       		.byte	0
 3968 0e4a 26       		.uleb128 0x26
 3969 0e4b 2A030000 		.4byte	.LASF86
 3970 0e4f 01       		.byte	0x1
 3971 0e50 8E01     		.2byte	0x18e
 3972 0e52 8C000000 		.4byte	0x8c
 3973 0e56 00000000 		.4byte	.LFB15
 3974 0e5a 4A000000 		.4byte	.LFE15-.LFB15
 3975 0e5e 01       		.uleb128 0x1
 3976 0e5f 9C       		.byte	0x9c
 3977 0e60 070F0000 		.4byte	0xf07
 3978 0e64 1B       		.uleb128 0x1b
 3979 0e65 F9030000 		.4byte	.LASF61
 3980 0e69 01       		.byte	0x1
 3981 0e6a 8E01     		.2byte	0x18e
 3982 0e6c 07030000 		.4byte	0x307
 3983 0e70 F40B0000 		.4byte	.LLST70
 3984 0e74 27       		.uleb128 0x27
 3985 0e75 7800     		.ascii	"x\000"
 3986 0e77 01       		.byte	0x1
ARM GAS  C:\Users\info\AppData\Local\Temp\ccSLnsSK.s 			page 86


 3987 0e78 8E01     		.2byte	0x18e
 3988 0e7a 8C000000 		.4byte	0x8c
 3989 0e7e 120C0000 		.4byte	.LLST71
 3990 0e82 27       		.uleb128 0x27
 3991 0e83 7900     		.ascii	"y\000"
 3992 0e85 01       		.byte	0x1
 3993 0e86 8E01     		.2byte	0x18e
 3994 0e88 8C000000 		.4byte	0x8c
 3995 0e8c 3B0C0000 		.4byte	.LLST72
 3996 0e90 27       		.uleb128 0x27
 3997 0e91 7300     		.ascii	"s\000"
 3998 0e93 01       		.byte	0x1
 3999 0e94 8E01     		.2byte	0x18e
 4000 0e96 0D070000 		.4byte	0x70d
 4001 0e9a 5C0C0000 		.4byte	.LLST73
 4002 0e9e 28       		.uleb128 0x28
 4003 0e9f 6500     		.ascii	"e\000"
 4004 0ea1 01       		.byte	0x1
 4005 0ea2 9001     		.2byte	0x190
 4006 0ea4 97000000 		.4byte	0x97
 4007 0ea8 940C0000 		.4byte	.LLST74
 4008 0eac 28       		.uleb128 0x28
 4009 0ead 636E7400 		.ascii	"cnt\000"
 4010 0eb1 01       		.byte	0x1
 4011 0eb2 9101     		.2byte	0x191
 4012 0eb4 8C000000 		.4byte	0x8c
 4013 0eb8 B20C0000 		.4byte	.LLST75
 4014 0ebc 2A       		.uleb128 0x2a
 4015 0ebd E4030000 		.4byte	0x3e4
 4016 0ec1 06000000 		.4byte	.LBB48
 4017 0ec5 78000000 		.4byte	.Ldebug_ranges0+0x78
 4018 0ec9 01       		.byte	0x1
 4019 0eca 9201     		.2byte	0x192
 4020 0ecc DA0E0000 		.4byte	0xeda
 4021 0ed0 1E       		.uleb128 0x1e
 4022 0ed1 F1030000 		.4byte	0x3f1
 4023 0ed5 DC0C0000 		.4byte	.LLST76
 4024 0ed9 00       		.byte	0
 4025 0eda 3B       		.uleb128 0x3b
 4026 0edb 26000000 		.4byte	.LVL184
 4027 0edf EA0E0000 		.4byte	0xeea
 4028 0ee3 2C       		.uleb128 0x2c
 4029 0ee4 01       		.uleb128 0x1
 4030 0ee5 50       		.byte	0x50
 4031 0ee6 02       		.uleb128 0x2
 4032 0ee7 74       		.byte	0x74
 4033 0ee8 00       		.sleb128 0
 4034 0ee9 00       		.byte	0
 4035 0eea 2E       		.uleb128 0x2e
 4036 0eeb 3E000000 		.4byte	.LVL188
 4037 0eef C50B0000 		.4byte	0xbc5
 4038 0ef3 2C       		.uleb128 0x2c
 4039 0ef4 01       		.uleb128 0x1
 4040 0ef5 50       		.byte	0x50
 4041 0ef6 02       		.uleb128 0x2
 4042 0ef7 74       		.byte	0x74
 4043 0ef8 00       		.sleb128 0
ARM GAS  C:\Users\info\AppData\Local\Temp\ccSLnsSK.s 			page 87


 4044 0ef9 2C       		.uleb128 0x2c
 4045 0efa 01       		.uleb128 0x1
 4046 0efb 51       		.byte	0x51
 4047 0efc 02       		.uleb128 0x2
 4048 0efd 75       		.byte	0x75
 4049 0efe 7E       		.sleb128 -2
 4050 0eff 2C       		.uleb128 0x2c
 4051 0f00 01       		.uleb128 0x1
 4052 0f01 52       		.byte	0x52
 4053 0f02 02       		.uleb128 0x2
 4054 0f03 7A       		.byte	0x7a
 4055 0f04 00       		.sleb128 0
 4056 0f05 00       		.byte	0
 4057 0f06 00       		.byte	0
 4058 0f07 1D       		.uleb128 0x1d
 4059 0f08 40080000 		.4byte	0x840
 4060 0f0c 00000000 		.4byte	.LFB8
 4061 0f10 4C010000 		.4byte	.LFE8-.LFB8
 4062 0f14 01       		.uleb128 0x1
 4063 0f15 9C       		.byte	0x9c
 4064 0f16 A4100000 		.4byte	0x10a4
 4065 0f1a 1E       		.uleb128 0x1e
 4066 0f1b 4C080000 		.4byte	0x84c
 4067 0f1f FA0C0000 		.4byte	.LLST77
 4068 0f23 1E       		.uleb128 0x1e
 4069 0f24 57080000 		.4byte	0x857
 4070 0f28 180D0000 		.4byte	.LLST78
 4071 0f2c 1E       		.uleb128 0x1e
 4072 0f2d 60080000 		.4byte	0x860
 4073 0f31 390D0000 		.4byte	.LLST79
 4074 0f35 1E       		.uleb128 0x1e
 4075 0f36 69080000 		.4byte	0x869
 4076 0f3a 700D0000 		.4byte	.LLST80
 4077 0f3e 21       		.uleb128 0x21
 4078 0f3f 74080000 		.4byte	0x874
 4079 0f43 910D0000 		.4byte	.LLST81
 4080 0f47 20       		.uleb128 0x20
 4081 0f48 7E080000 		.4byte	0x87e
 4082 0f4c 03       		.uleb128 0x3
 4083 0f4d 91       		.byte	0x91
 4084 0f4e BC7F     		.sleb128 -68
 4085 0f50 21       		.uleb128 0x21
 4086 0f51 88080000 		.4byte	0x888
 4087 0f55 BD0D0000 		.4byte	.LLST82
 4088 0f59 21       		.uleb128 0x21
 4089 0f5a 92080000 		.4byte	0x892
 4090 0f5e D00D0000 		.4byte	.LLST83
 4091 0f62 34       		.uleb128 0x34
 4092 0f63 9E080000 		.4byte	0x89e
 4093 0f67 48000000 		.4byte	.LBB54
 4094 0f6b DC000000 		.4byte	.LBE54-.LBB54
 4095 0f6f 01       		.byte	0x1
 4096 0f70 0701     		.2byte	0x107
 4097 0f72 1E       		.uleb128 0x1e
 4098 0f73 D2080000 		.4byte	0x8d2
 4099 0f77 FE0D0000 		.4byte	.LLST84
 4100 0f7b 35       		.uleb128 0x35
ARM GAS  C:\Users\info\AppData\Local\Temp\ccSLnsSK.s 			page 88


 4101 0f7c C7080000 		.4byte	0x8c7
 4102 0f80 1E       		.uleb128 0x1e
 4103 0f81 BE080000 		.4byte	0x8be
 4104 0f85 160E0000 		.4byte	.LLST85
 4105 0f89 1E       		.uleb128 0x1e
 4106 0f8a B5080000 		.4byte	0x8b5
 4107 0f8e 290E0000 		.4byte	.LLST86
 4108 0f92 1E       		.uleb128 0x1e
 4109 0f93 AA080000 		.4byte	0x8aa
 4110 0f97 3C0E0000 		.4byte	.LLST87
 4111 0f9b 36       		.uleb128 0x36
 4112 0f9c 48000000 		.4byte	.LBB55
 4113 0fa0 DC000000 		.4byte	.LBE55-.LBB55
 4114 0fa4 21       		.uleb128 0x21
 4115 0fa5 DD080000 		.4byte	0x8dd
 4116 0fa9 4F0E0000 		.4byte	.LLST88
 4117 0fad 21       		.uleb128 0x21
 4118 0fae E6080000 		.4byte	0x8e6
 4119 0fb2 6F0E0000 		.4byte	.LLST89
 4120 0fb6 20       		.uleb128 0x20
 4121 0fb7 EF080000 		.4byte	0x8ef
 4122 0fbb 02       		.uleb128 0x2
 4123 0fbc 91       		.byte	0x91
 4124 0fbd 40       		.sleb128 -64
 4125 0fbe 20       		.uleb128 0x20
 4126 0fbf FA080000 		.4byte	0x8fa
 4127 0fc3 02       		.uleb128 0x2
 4128 0fc4 91       		.byte	0x91
 4129 0fc5 48       		.sleb128 -56
 4130 0fc6 20       		.uleb128 0x20
 4131 0fc7 05090000 		.4byte	0x905
 4132 0fcb 02       		.uleb128 0x2
 4133 0fcc 91       		.byte	0x91
 4134 0fcd 50       		.sleb128 -48
 4135 0fce 2B       		.uleb128 0x2b
 4136 0fcf 5A000000 		.4byte	.LVL201
 4137 0fd3 72040000 		.4byte	0x472
 4138 0fd7 05100000 		.4byte	0x1005
 4139 0fdb 2C       		.uleb128 0x2c
 4140 0fdc 01       		.uleb128 0x1
 4141 0fdd 50       		.byte	0x50
 4142 0fde 04       		.uleb128 0x4
 4143 0fdf 91       		.byte	0x91
 4144 0fe0 B07F     		.sleb128 -80
 4145 0fe2 06       		.byte	0x6
 4146 0fe3 2C       		.uleb128 0x2c
 4147 0fe4 01       		.uleb128 0x1
 4148 0fe5 51       		.byte	0x51
 4149 0fe6 04       		.uleb128 0x4
 4150 0fe7 91       		.byte	0x91
 4151 0fe8 B47F     		.sleb128 -76
 4152 0fea 06       		.byte	0x6
 4153 0feb 2C       		.uleb128 0x2c
 4154 0fec 01       		.uleb128 0x1
 4155 0fed 52       		.byte	0x52
 4156 0fee 05       		.uleb128 0x5
 4157 0fef 91       		.byte	0x91
ARM GAS  C:\Users\info\AppData\Local\Temp\ccSLnsSK.s 			page 89


 4158 0ff0 B87F     		.sleb128 -72
 4159 0ff2 94       		.byte	0x94
 4160 0ff3 01       		.byte	0x1
 4161 0ff4 2C       		.uleb128 0x2c
 4162 0ff5 01       		.uleb128 0x1
 4163 0ff6 53       		.byte	0x53
 4164 0ff7 02       		.uleb128 0x2
 4165 0ff8 91       		.byte	0x91
 4166 0ff9 40       		.sleb128 -64
 4167 0ffa 2C       		.uleb128 0x2c
 4168 0ffb 02       		.uleb128 0x2
 4169 0ffc 7D       		.byte	0x7d
 4170 0ffd 00       		.sleb128 0
 4171 0ffe 05       		.uleb128 0x5
 4172 0fff 7B       		.byte	0x7b
 4173 1000 00       		.sleb128 0
 4174 1001 74       		.byte	0x74
 4175 1002 00       		.sleb128 0
 4176 1003 22       		.byte	0x22
 4177 1004 00       		.byte	0
 4178 1005 37       		.uleb128 0x37
 4179 1006 62000000 		.4byte	.LVL202
 4180 100a 0C080000 		.4byte	0x80c
 4181 100e 37       		.uleb128 0x37
 4182 100f 76000000 		.4byte	.LVL203
 4183 1013 0C080000 		.4byte	0x80c
 4184 1017 37       		.uleb128 0x37
 4185 1018 8A000000 		.4byte	.LVL204
 4186 101c 0C080000 		.4byte	0x80c
 4187 1020 37       		.uleb128 0x37
 4188 1021 9E000000 		.4byte	.LVL205
 4189 1025 0C080000 		.4byte	0x80c
 4190 1029 37       		.uleb128 0x37
 4191 102a B2000000 		.4byte	.LVL206
 4192 102e 0C080000 		.4byte	0x80c
 4193 1032 37       		.uleb128 0x37
 4194 1033 C6000000 		.4byte	.LVL207
 4195 1037 0C080000 		.4byte	0x80c
 4196 103b 37       		.uleb128 0x37
 4197 103c DA000000 		.4byte	.LVL208
 4198 1040 0C080000 		.4byte	0x80c
 4199 1044 37       		.uleb128 0x37
 4200 1045 EE000000 		.4byte	.LVL209
 4201 1049 0C080000 		.4byte	0x80c
 4202 104d 2B       		.uleb128 0x2b
 4203 104e 12010000 		.4byte	.LVL213
 4204 1052 F1130000 		.4byte	0x13f1
 4205 1056 79100000 		.4byte	0x1079
 4206 105a 2C       		.uleb128 0x2c
 4207 105b 01       		.uleb128 0x1
 4208 105c 50       		.byte	0x50
 4209 105d 02       		.uleb128 0x2
 4210 105e 77       		.byte	0x77
 4211 105f 00       		.sleb128 0
 4212 1060 2C       		.uleb128 0x2c
 4213 1061 01       		.uleb128 0x1
 4214 1062 51       		.byte	0x51
ARM GAS  C:\Users\info\AppData\Local\Temp\ccSLnsSK.s 			page 90


 4215 1063 02       		.uleb128 0x2
 4216 1064 75       		.byte	0x75
 4217 1065 00       		.sleb128 0
 4218 1066 2C       		.uleb128 0x2c
 4219 1067 01       		.uleb128 0x1
 4220 1068 52       		.byte	0x52
 4221 1069 02       		.uleb128 0x2
 4222 106a 79       		.byte	0x79
 4223 106b 00       		.sleb128 0
 4224 106c 2C       		.uleb128 0x2c
 4225 106d 01       		.uleb128 0x1
 4226 106e 53       		.byte	0x53
 4227 106f 01       		.uleb128 0x1
 4228 1070 31       		.byte	0x31
 4229 1071 2C       		.uleb128 0x2c
 4230 1072 02       		.uleb128 0x2
 4231 1073 7D       		.byte	0x7d
 4232 1074 00       		.sleb128 0
 4233 1075 02       		.uleb128 0x2
 4234 1076 91       		.byte	0x91
 4235 1077 50       		.sleb128 -48
 4236 1078 00       		.byte	0
 4237 1079 2E       		.uleb128 0x2e
 4238 107a 22010000 		.4byte	.LVL214
 4239 107e F1130000 		.4byte	0x13f1
 4240 1082 2C       		.uleb128 0x2c
 4241 1083 01       		.uleb128 0x1
 4242 1084 50       		.byte	0x50
 4243 1085 02       		.uleb128 0x2
 4244 1086 77       		.byte	0x77
 4245 1087 00       		.sleb128 0
 4246 1088 2C       		.uleb128 0x2c
 4247 1089 01       		.uleb128 0x1
 4248 108a 51       		.byte	0x51
 4249 108b 02       		.uleb128 0x2
 4250 108c 75       		.byte	0x75
 4251 108d 00       		.sleb128 0
 4252 108e 2C       		.uleb128 0x2c
 4253 108f 01       		.uleb128 0x1
 4254 1090 52       		.byte	0x52
 4255 1091 02       		.uleb128 0x2
 4256 1092 7A       		.byte	0x7a
 4257 1093 00       		.sleb128 0
 4258 1094 2C       		.uleb128 0x2c
 4259 1095 01       		.uleb128 0x1
 4260 1096 53       		.byte	0x53
 4261 1097 01       		.uleb128 0x1
 4262 1098 31       		.byte	0x31
 4263 1099 2C       		.uleb128 0x2c
 4264 109a 02       		.uleb128 0x2
 4265 109b 7D       		.byte	0x7d
 4266 109c 00       		.sleb128 0
 4267 109d 02       		.uleb128 0x2
 4268 109e 91       		.byte	0x91
 4269 109f 48       		.sleb128 -56
 4270 10a0 00       		.byte	0
 4271 10a1 00       		.byte	0
ARM GAS  C:\Users\info\AppData\Local\Temp\ccSLnsSK.s 			page 91


 4272 10a2 00       		.byte	0
 4273 10a3 00       		.byte	0
 4274 10a4 1D       		.uleb128 0x1d
 4275 10a5 E4030000 		.4byte	0x3e4
 4276 10a9 00000000 		.4byte	.LFB9
 4277 10ad 08000000 		.4byte	.LFE9-.LFB9
 4278 10b1 01       		.uleb128 0x1
 4279 10b2 9C       		.byte	0x9c
 4280 10b3 BF100000 		.4byte	0x10bf
 4281 10b7 1F       		.uleb128 0x1f
 4282 10b8 F1030000 		.4byte	0x3f1
 4283 10bc 01       		.uleb128 0x1
 4284 10bd 50       		.byte	0x50
 4285 10be 00       		.byte	0
 4286 10bf 1A       		.uleb128 0x1a
 4287 10c0 AB050000 		.4byte	.LASF87
 4288 10c4 01       		.byte	0x1
 4289 10c5 7F01     		.2byte	0x17f
 4290 10c7 8C000000 		.4byte	0x8c
 4291 10cb 00000000 		.4byte	.LFB13
 4292 10cf 10000000 		.4byte	.LFE13-.LFB13
 4293 10d3 01       		.uleb128 0x1
 4294 10d4 9C       		.byte	0x9c
 4295 10d5 2C110000 		.4byte	0x112c
 4296 10d9 1B       		.uleb128 0x1b
 4297 10da F9030000 		.4byte	.LASF61
 4298 10de 01       		.byte	0x1
 4299 10df 7F01     		.2byte	0x17f
 4300 10e1 07030000 		.4byte	0x307
 4301 10e5 820E0000 		.4byte	.LLST90
 4302 10e9 27       		.uleb128 0x27
 4303 10ea 7800     		.ascii	"x\000"
 4304 10ec 01       		.byte	0x1
 4305 10ed 7F01     		.2byte	0x17f
 4306 10ef 8C000000 		.4byte	0x8c
 4307 10f3 A30E0000 		.4byte	.LLST91
 4308 10f7 27       		.uleb128 0x27
 4309 10f8 7900     		.ascii	"y\000"
 4310 10fa 01       		.byte	0x1
 4311 10fb 7F01     		.2byte	0x17f
 4312 10fd 8C000000 		.4byte	0x8c
 4313 1101 C40E0000 		.4byte	.LLST92
 4314 1105 27       		.uleb128 0x27
 4315 1106 7300     		.ascii	"s\000"
 4316 1108 01       		.byte	0x1
 4317 1109 7F01     		.2byte	0x17f
 4318 110b 0D070000 		.4byte	0x70d
 4319 110f E50E0000 		.4byte	.LLST93
 4320 1113 3C       		.uleb128 0x3c
 4321 1114 0C000000 		.4byte	.LVL221
 4322 1118 A0050000 		.4byte	0x5a0
 4323 111c 2C       		.uleb128 0x2c
 4324 111d 01       		.uleb128 0x1
 4325 111e 50       		.byte	0x50
 4326 111f 03       		.uleb128 0x3
 4327 1120 F3       		.byte	0xf3
 4328 1121 01       		.uleb128 0x1
ARM GAS  C:\Users\info\AppData\Local\Temp\ccSLnsSK.s 			page 92


 4329 1122 50       		.byte	0x50
 4330 1123 2C       		.uleb128 0x2c
 4331 1124 01       		.uleb128 0x1
 4332 1125 53       		.byte	0x53
 4333 1126 03       		.uleb128 0x3
 4334 1127 F3       		.byte	0xf3
 4335 1128 01       		.uleb128 0x1
 4336 1129 53       		.byte	0x53
 4337 112a 00       		.byte	0
 4338 112b 00       		.byte	0
 4339 112c 1A       		.uleb128 0x1a
 4340 112d B6030000 		.4byte	.LASF88
 4341 1131 01       		.byte	0x1
 4342 1132 8501     		.2byte	0x185
 4343 1134 8C000000 		.4byte	0x8c
 4344 1138 00000000 		.4byte	.LFB14
 4345 113c 10000000 		.4byte	.LFE14-.LFB14
 4346 1140 01       		.uleb128 0x1
 4347 1141 9C       		.byte	0x9c
 4348 1142 99110000 		.4byte	0x1199
 4349 1146 1B       		.uleb128 0x1b
 4350 1147 F9030000 		.4byte	.LASF61
 4351 114b 01       		.byte	0x1
 4352 114c 8501     		.2byte	0x185
 4353 114e 07030000 		.4byte	0x307
 4354 1152 060F0000 		.4byte	.LLST94
 4355 1156 27       		.uleb128 0x27
 4356 1157 7800     		.ascii	"x\000"
 4357 1159 01       		.byte	0x1
 4358 115a 8501     		.2byte	0x185
 4359 115c 8C000000 		.4byte	0x8c
 4360 1160 270F0000 		.4byte	.LLST95
 4361 1164 27       		.uleb128 0x27
 4362 1165 7900     		.ascii	"y\000"
 4363 1167 01       		.byte	0x1
 4364 1168 8501     		.2byte	0x185
 4365 116a 8C000000 		.4byte	0x8c
 4366 116e 480F0000 		.4byte	.LLST96
 4367 1172 27       		.uleb128 0x27
 4368 1173 7300     		.ascii	"s\000"
 4369 1175 01       		.byte	0x1
 4370 1176 8501     		.2byte	0x185
 4371 1178 0D070000 		.4byte	0x70d
 4372 117c 690F0000 		.4byte	.LLST97
 4373 1180 3C       		.uleb128 0x3c
 4374 1181 0C000000 		.4byte	.LVL223
 4375 1185 A0050000 		.4byte	0x5a0
 4376 1189 2C       		.uleb128 0x2c
 4377 118a 01       		.uleb128 0x1
 4378 118b 50       		.byte	0x50
 4379 118c 03       		.uleb128 0x3
 4380 118d F3       		.byte	0xf3
 4381 118e 01       		.uleb128 0x1
 4382 118f 50       		.byte	0x50
 4383 1190 2C       		.uleb128 0x2c
 4384 1191 01       		.uleb128 0x1
 4385 1192 53       		.byte	0x53
ARM GAS  C:\Users\info\AppData\Local\Temp\ccSLnsSK.s 			page 93


 4386 1193 03       		.uleb128 0x3
 4387 1194 F3       		.byte	0xf3
 4388 1195 01       		.uleb128 0x1
 4389 1196 53       		.byte	0x53
 4390 1197 00       		.byte	0
 4391 1198 00       		.byte	0
 4392 1199 1A       		.uleb128 0x1a
 4393 119a 71050000 		.4byte	.LASF89
 4394 119e 01       		.byte	0x1
 4395 119f A401     		.2byte	0x1a4
 4396 11a1 8C000000 		.4byte	0x8c
 4397 11a5 00000000 		.4byte	.LFB16
 4398 11a9 10000000 		.4byte	.LFE16-.LFB16
 4399 11ad 01       		.uleb128 0x1
 4400 11ae 9C       		.byte	0x9c
 4401 11af 06120000 		.4byte	0x1206
 4402 11b3 1B       		.uleb128 0x1b
 4403 11b4 F9030000 		.4byte	.LASF61
 4404 11b8 01       		.byte	0x1
 4405 11b9 A401     		.2byte	0x1a4
 4406 11bb 07030000 		.4byte	0x307
 4407 11bf 8A0F0000 		.4byte	.LLST98
 4408 11c3 27       		.uleb128 0x27
 4409 11c4 7800     		.ascii	"x\000"
 4410 11c6 01       		.byte	0x1
 4411 11c7 A401     		.2byte	0x1a4
 4412 11c9 8C000000 		.4byte	0x8c
 4413 11cd AB0F0000 		.4byte	.LLST99
 4414 11d1 27       		.uleb128 0x27
 4415 11d2 7900     		.ascii	"y\000"
 4416 11d4 01       		.byte	0x1
 4417 11d5 A401     		.2byte	0x1a4
 4418 11d7 8C000000 		.4byte	0x8c
 4419 11db CC0F0000 		.4byte	.LLST100
 4420 11df 27       		.uleb128 0x27
 4421 11e0 7300     		.ascii	"s\000"
 4422 11e2 01       		.byte	0x1
 4423 11e3 A401     		.2byte	0x1a4
 4424 11e5 0D070000 		.4byte	0x70d
 4425 11e9 ED0F0000 		.4byte	.LLST101
 4426 11ed 3C       		.uleb128 0x3c
 4427 11ee 0C000000 		.4byte	.LVL225
 4428 11f2 4A0E0000 		.4byte	0xe4a
 4429 11f6 2C       		.uleb128 0x2c
 4430 11f7 01       		.uleb128 0x1
 4431 11f8 50       		.byte	0x50
 4432 11f9 03       		.uleb128 0x3
 4433 11fa F3       		.byte	0xf3
 4434 11fb 01       		.uleb128 0x1
 4435 11fc 50       		.byte	0x50
 4436 11fd 2C       		.uleb128 0x2c
 4437 11fe 01       		.uleb128 0x1
 4438 11ff 53       		.byte	0x53
 4439 1200 03       		.uleb128 0x3
 4440 1201 F3       		.byte	0xf3
 4441 1202 01       		.uleb128 0x1
 4442 1203 53       		.byte	0x53
ARM GAS  C:\Users\info\AppData\Local\Temp\ccSLnsSK.s 			page 94


 4443 1204 00       		.byte	0
 4444 1205 00       		.byte	0
 4445 1206 1A       		.uleb128 0x1a
 4446 1207 17010000 		.4byte	.LASF90
 4447 120b 01       		.byte	0x1
 4448 120c AA01     		.2byte	0x1aa
 4449 120e 8C000000 		.4byte	0x8c
 4450 1212 00000000 		.4byte	.LFB17
 4451 1216 10000000 		.4byte	.LFE17-.LFB17
 4452 121a 01       		.uleb128 0x1
 4453 121b 9C       		.byte	0x9c
 4454 121c 73120000 		.4byte	0x1273
 4455 1220 1B       		.uleb128 0x1b
 4456 1221 F9030000 		.4byte	.LASF61
 4457 1225 01       		.byte	0x1
 4458 1226 AA01     		.2byte	0x1aa
 4459 1228 07030000 		.4byte	0x307
 4460 122c 0E100000 		.4byte	.LLST102
 4461 1230 27       		.uleb128 0x27
 4462 1231 7800     		.ascii	"x\000"
 4463 1233 01       		.byte	0x1
 4464 1234 AA01     		.2byte	0x1aa
 4465 1236 8C000000 		.4byte	0x8c
 4466 123a 2F100000 		.4byte	.LLST103
 4467 123e 27       		.uleb128 0x27
 4468 123f 7900     		.ascii	"y\000"
 4469 1241 01       		.byte	0x1
 4470 1242 AA01     		.2byte	0x1aa
 4471 1244 8C000000 		.4byte	0x8c
 4472 1248 50100000 		.4byte	.LLST104
 4473 124c 27       		.uleb128 0x27
 4474 124d 7300     		.ascii	"s\000"
 4475 124f 01       		.byte	0x1
 4476 1250 AA01     		.2byte	0x1aa
 4477 1252 0D070000 		.4byte	0x70d
 4478 1256 71100000 		.4byte	.LLST105
 4479 125a 3C       		.uleb128 0x3c
 4480 125b 0C000000 		.4byte	.LVL227
 4481 125f 4A0E0000 		.4byte	0xe4a
 4482 1263 2C       		.uleb128 0x2c
 4483 1264 01       		.uleb128 0x1
 4484 1265 50       		.byte	0x50
 4485 1266 03       		.uleb128 0x3
 4486 1267 F3       		.byte	0xf3
 4487 1268 01       		.uleb128 0x1
 4488 1269 50       		.byte	0x50
 4489 126a 2C       		.uleb128 0x2c
 4490 126b 01       		.uleb128 0x1
 4491 126c 53       		.byte	0x53
 4492 126d 03       		.uleb128 0x3
 4493 126e F3       		.byte	0xf3
 4494 126f 01       		.uleb128 0x1
 4495 1270 53       		.byte	0x53
 4496 1271 00       		.byte	0
 4497 1272 00       		.byte	0
 4498 1273 1A       		.uleb128 0x1a
 4499 1274 11000000 		.4byte	.LASF91
ARM GAS  C:\Users\info\AppData\Local\Temp\ccSLnsSK.s 			page 95


 4500 1278 01       		.byte	0x1
 4501 1279 C901     		.2byte	0x1c9
 4502 127b 8C000000 		.4byte	0x8c
 4503 127f 00000000 		.4byte	.LFB19
 4504 1283 10000000 		.4byte	.LFE19-.LFB19
 4505 1287 01       		.uleb128 0x1
 4506 1288 9C       		.byte	0x9c
 4507 1289 E0120000 		.4byte	0x12e0
 4508 128d 1B       		.uleb128 0x1b
 4509 128e F9030000 		.4byte	.LASF61
 4510 1292 01       		.byte	0x1
 4511 1293 C901     		.2byte	0x1c9
 4512 1295 07030000 		.4byte	0x307
 4513 1299 92100000 		.4byte	.LLST106
 4514 129d 27       		.uleb128 0x27
 4515 129e 7800     		.ascii	"x\000"
 4516 12a0 01       		.byte	0x1
 4517 12a1 C901     		.2byte	0x1c9
 4518 12a3 8C000000 		.4byte	0x8c
 4519 12a7 B3100000 		.4byte	.LLST107
 4520 12ab 27       		.uleb128 0x27
 4521 12ac 7900     		.ascii	"y\000"
 4522 12ae 01       		.byte	0x1
 4523 12af C901     		.2byte	0x1c9
 4524 12b1 8C000000 		.4byte	0x8c
 4525 12b5 D4100000 		.4byte	.LLST108
 4526 12b9 27       		.uleb128 0x27
 4527 12ba 7300     		.ascii	"s\000"
 4528 12bc 01       		.byte	0x1
 4529 12bd C901     		.2byte	0x1c9
 4530 12bf 0D070000 		.4byte	0x70d
 4531 12c3 F5100000 		.4byte	.LLST109
 4532 12c7 3C       		.uleb128 0x3c
 4533 12c8 0C000000 		.4byte	.LVL229
 4534 12cc 11090000 		.4byte	0x911
 4535 12d0 2C       		.uleb128 0x2c
 4536 12d1 01       		.uleb128 0x1
 4537 12d2 50       		.byte	0x50
 4538 12d3 03       		.uleb128 0x3
 4539 12d4 F3       		.byte	0xf3
 4540 12d5 01       		.uleb128 0x1
 4541 12d6 50       		.byte	0x50
 4542 12d7 2C       		.uleb128 0x2c
 4543 12d8 01       		.uleb128 0x1
 4544 12d9 53       		.byte	0x53
 4545 12da 03       		.uleb128 0x3
 4546 12db F3       		.byte	0xf3
 4547 12dc 01       		.uleb128 0x1
 4548 12dd 53       		.byte	0x53
 4549 12de 00       		.byte	0
 4550 12df 00       		.byte	0
 4551 12e0 1A       		.uleb128 0x1a
 4552 12e1 DE030000 		.4byte	.LASF92
 4553 12e5 01       		.byte	0x1
 4554 12e6 CF01     		.2byte	0x1cf
 4555 12e8 8C000000 		.4byte	0x8c
 4556 12ec 00000000 		.4byte	.LFB20
ARM GAS  C:\Users\info\AppData\Local\Temp\ccSLnsSK.s 			page 96


 4557 12f0 10000000 		.4byte	.LFE20-.LFB20
 4558 12f4 01       		.uleb128 0x1
 4559 12f5 9C       		.byte	0x9c
 4560 12f6 4D130000 		.4byte	0x134d
 4561 12fa 1B       		.uleb128 0x1b
 4562 12fb F9030000 		.4byte	.LASF61
 4563 12ff 01       		.byte	0x1
 4564 1300 CF01     		.2byte	0x1cf
 4565 1302 07030000 		.4byte	0x307
 4566 1306 16110000 		.4byte	.LLST110
 4567 130a 27       		.uleb128 0x27
 4568 130b 7800     		.ascii	"x\000"
 4569 130d 01       		.byte	0x1
 4570 130e CF01     		.2byte	0x1cf
 4571 1310 8C000000 		.4byte	0x8c
 4572 1314 37110000 		.4byte	.LLST111
 4573 1318 27       		.uleb128 0x27
 4574 1319 7900     		.ascii	"y\000"
 4575 131b 01       		.byte	0x1
 4576 131c CF01     		.2byte	0x1cf
 4577 131e 8C000000 		.4byte	0x8c
 4578 1322 58110000 		.4byte	.LLST112
 4579 1326 27       		.uleb128 0x27
 4580 1327 7300     		.ascii	"s\000"
 4581 1329 01       		.byte	0x1
 4582 132a CF01     		.2byte	0x1cf
 4583 132c 0D070000 		.4byte	0x70d
 4584 1330 79110000 		.4byte	.LLST113
 4585 1334 3C       		.uleb128 0x3c
 4586 1335 0C000000 		.4byte	.LVL231
 4587 1339 11090000 		.4byte	0x911
 4588 133d 2C       		.uleb128 0x2c
 4589 133e 01       		.uleb128 0x1
 4590 133f 50       		.byte	0x50
 4591 1340 03       		.uleb128 0x3
 4592 1341 F3       		.byte	0xf3
 4593 1342 01       		.uleb128 0x1
 4594 1343 50       		.byte	0x50
 4595 1344 2C       		.uleb128 0x2c
 4596 1345 01       		.uleb128 0x1
 4597 1346 53       		.byte	0x53
 4598 1347 03       		.uleb128 0x3
 4599 1348 F3       		.byte	0xf3
 4600 1349 01       		.uleb128 0x1
 4601 134a 53       		.byte	0x53
 4602 134b 00       		.byte	0
 4603 134c 00       		.byte	0
 4604 134d 1A       		.uleb128 0x1a
 4605 134e 12020000 		.4byte	.LASF93
 4606 1352 01       		.byte	0x1
 4607 1353 D701     		.2byte	0x1d7
 4608 1355 8C000000 		.4byte	0x8c
 4609 1359 00000000 		.4byte	.LFB21
 4610 135d B6000000 		.4byte	.LFE21-.LFB21
 4611 1361 01       		.uleb128 0x1
 4612 1362 9C       		.byte	0x9c
 4613 1363 F1130000 		.4byte	0x13f1
ARM GAS  C:\Users\info\AppData\Local\Temp\ccSLnsSK.s 			page 97


 4614 1367 1B       		.uleb128 0x1b
 4615 1368 F9030000 		.4byte	.LASF61
 4616 136c 01       		.byte	0x1
 4617 136d D701     		.2byte	0x1d7
 4618 136f 07030000 		.4byte	0x307
 4619 1373 9A110000 		.4byte	.LLST114
 4620 1377 27       		.uleb128 0x27
 4621 1378 7300     		.ascii	"s\000"
 4622 137a 01       		.byte	0x1
 4623 137b D701     		.2byte	0x1d7
 4624 137d 0D070000 		.4byte	0x70d
 4625 1381 B8110000 		.4byte	.LLST115
 4626 1385 3D       		.uleb128 0x3d
 4627 1386 6500     		.ascii	"e\000"
 4628 1388 01       		.byte	0x1
 4629 1389 D901     		.2byte	0x1d9
 4630 138b 97000000 		.4byte	0x97
 4631 138f 28       		.uleb128 0x28
 4632 1390 636E7400 		.ascii	"cnt\000"
 4633 1394 01       		.byte	0x1
 4634 1395 DA01     		.2byte	0x1da
 4635 1397 8C000000 		.4byte	0x8c
 4636 139b FB110000 		.4byte	.LLST116
 4637 139f 2A       		.uleb128 0x2a
 4638 13a0 E4030000 		.4byte	0x3e4
 4639 13a4 04000000 		.4byte	.LBB62
 4640 13a8 90000000 		.4byte	.Ldebug_ranges0+0x90
 4641 13ac 01       		.byte	0x1
 4642 13ad DB01     		.2byte	0x1db
 4643 13af BD130000 		.4byte	0x13bd
 4644 13b3 1E       		.uleb128 0x1e
 4645 13b4 F1030000 		.4byte	0x3f1
 4646 13b8 25120000 		.4byte	.LLST117
 4647 13bc 00       		.byte	0
 4648 13bd 3E       		.uleb128 0x3e
 4649 13be BC030000 		.4byte	0x3bc
 4650 13c2 16000000 		.4byte	.LBB66
 4651 13c6 A8000000 		.4byte	.Ldebug_ranges0+0xa8
 4652 13ca 01       		.byte	0x1
 4653 13cb DE01     		.2byte	0x1de
 4654 13cd 1E       		.uleb128 0x1e
 4655 13ce D9030000 		.4byte	0x3d9
 4656 13d2 43120000 		.4byte	.LLST118
 4657 13d6 35       		.uleb128 0x35
 4658 13d7 CD030000 		.4byte	0x3cd
 4659 13db 22       		.uleb128 0x22
 4660 13dc D0000000 		.4byte	.Ldebug_ranges0+0xd0
 4661 13e0 1E       		.uleb128 0x1e
 4662 13e1 D9030000 		.4byte	0x3d9
 4663 13e5 A4120000 		.4byte	.LLST119
 4664 13e9 35       		.uleb128 0x35
 4665 13ea CD030000 		.4byte	0x3cd
 4666 13ee 00       		.byte	0
 4667 13ef 00       		.byte	0
 4668 13f0 00       		.byte	0
 4669 13f1 3F       		.uleb128 0x3f
 4670 13f2 46030000 		.4byte	.LASF99
ARM GAS  C:\Users\info\AppData\Local\Temp\ccSLnsSK.s 			page 98


 4671 13f6 46030000 		.4byte	.LASF99
 4672 13fa 04       		.byte	0x4
 4673 13fb 1902     		.2byte	0x219
 4674 13fd 00       		.byte	0
 4675              		.section	.debug_abbrev,"",%progbits
 4676              	.Ldebug_abbrev0:
 4677 0000 01       		.uleb128 0x1
 4678 0001 11       		.uleb128 0x11
 4679 0002 01       		.byte	0x1
 4680 0003 25       		.uleb128 0x25
 4681 0004 0E       		.uleb128 0xe
 4682 0005 13       		.uleb128 0x13
 4683 0006 0B       		.uleb128 0xb
 4684 0007 03       		.uleb128 0x3
 4685 0008 0E       		.uleb128 0xe
 4686 0009 1B       		.uleb128 0x1b
 4687 000a 0E       		.uleb128 0xe
 4688 000b 55       		.uleb128 0x55
 4689 000c 17       		.uleb128 0x17
 4690 000d 11       		.uleb128 0x11
 4691 000e 01       		.uleb128 0x1
 4692 000f 10       		.uleb128 0x10
 4693 0010 17       		.uleb128 0x17
 4694 0011 00       		.byte	0
 4695 0012 00       		.byte	0
 4696 0013 02       		.uleb128 0x2
 4697 0014 24       		.uleb128 0x24
 4698 0015 00       		.byte	0
 4699 0016 0B       		.uleb128 0xb
 4700 0017 0B       		.uleb128 0xb
 4701 0018 3E       		.uleb128 0x3e
 4702 0019 0B       		.uleb128 0xb
 4703 001a 03       		.uleb128 0x3
 4704 001b 0E       		.uleb128 0xe
 4705 001c 00       		.byte	0
 4706 001d 00       		.byte	0
 4707 001e 03       		.uleb128 0x3
 4708 001f 16       		.uleb128 0x16
 4709 0020 00       		.byte	0
 4710 0021 03       		.uleb128 0x3
 4711 0022 0E       		.uleb128 0xe
 4712 0023 3A       		.uleb128 0x3a
 4713 0024 0B       		.uleb128 0xb
 4714 0025 3B       		.uleb128 0x3b
 4715 0026 0B       		.uleb128 0xb
 4716 0027 49       		.uleb128 0x49
 4717 0028 13       		.uleb128 0x13
 4718 0029 00       		.byte	0
 4719 002a 00       		.byte	0
 4720 002b 04       		.uleb128 0x4
 4721 002c 24       		.uleb128 0x24
 4722 002d 00       		.byte	0
 4723 002e 0B       		.uleb128 0xb
 4724 002f 0B       		.uleb128 0xb
 4725 0030 3E       		.uleb128 0x3e
 4726 0031 0B       		.uleb128 0xb
 4727 0032 03       		.uleb128 0x3
ARM GAS  C:\Users\info\AppData\Local\Temp\ccSLnsSK.s 			page 99


 4728 0033 08       		.uleb128 0x8
 4729 0034 00       		.byte	0
 4730 0035 00       		.byte	0
 4731 0036 05       		.uleb128 0x5
 4732 0037 0F       		.uleb128 0xf
 4733 0038 00       		.byte	0
 4734 0039 0B       		.uleb128 0xb
 4735 003a 0B       		.uleb128 0xb
 4736 003b 00       		.byte	0
 4737 003c 00       		.byte	0
 4738 003d 06       		.uleb128 0x6
 4739 003e 13       		.uleb128 0x13
 4740 003f 01       		.byte	0x1
 4741 0040 03       		.uleb128 0x3
 4742 0041 0E       		.uleb128 0xe
 4743 0042 0B       		.uleb128 0xb
 4744 0043 0B       		.uleb128 0xb
 4745 0044 3A       		.uleb128 0x3a
 4746 0045 0B       		.uleb128 0xb
 4747 0046 3B       		.uleb128 0x3b
 4748 0047 05       		.uleb128 0x5
 4749 0048 01       		.uleb128 0x1
 4750 0049 13       		.uleb128 0x13
 4751 004a 00       		.byte	0
 4752 004b 00       		.byte	0
 4753 004c 07       		.uleb128 0x7
 4754 004d 0D       		.uleb128 0xd
 4755 004e 00       		.byte	0
 4756 004f 03       		.uleb128 0x3
 4757 0050 0E       		.uleb128 0xe
 4758 0051 3A       		.uleb128 0x3a
 4759 0052 0B       		.uleb128 0xb
 4760 0053 3B       		.uleb128 0x3b
 4761 0054 05       		.uleb128 0x5
 4762 0055 49       		.uleb128 0x49
 4763 0056 13       		.uleb128 0x13
 4764 0057 38       		.uleb128 0x38
 4765 0058 0B       		.uleb128 0xb
 4766 0059 00       		.byte	0
 4767 005a 00       		.byte	0
 4768 005b 08       		.uleb128 0x8
 4769 005c 13       		.uleb128 0x13
 4770 005d 01       		.byte	0x1
 4771 005e 03       		.uleb128 0x3
 4772 005f 0E       		.uleb128 0xe
 4773 0060 0B       		.uleb128 0xb
 4774 0061 0B       		.uleb128 0xb
 4775 0062 3A       		.uleb128 0x3a
 4776 0063 0B       		.uleb128 0xb
 4777 0064 3B       		.uleb128 0x3b
 4778 0065 0B       		.uleb128 0xb
 4779 0066 01       		.uleb128 0x1
 4780 0067 13       		.uleb128 0x13
 4781 0068 00       		.byte	0
 4782 0069 00       		.byte	0
 4783 006a 09       		.uleb128 0x9
 4784 006b 0D       		.uleb128 0xd
ARM GAS  C:\Users\info\AppData\Local\Temp\ccSLnsSK.s 			page 100


 4785 006c 00       		.byte	0
 4786 006d 03       		.uleb128 0x3
 4787 006e 0E       		.uleb128 0xe
 4788 006f 3A       		.uleb128 0x3a
 4789 0070 0B       		.uleb128 0xb
 4790 0071 3B       		.uleb128 0x3b
 4791 0072 0B       		.uleb128 0xb
 4792 0073 49       		.uleb128 0x49
 4793 0074 13       		.uleb128 0x13
 4794 0075 38       		.uleb128 0x38
 4795 0076 0B       		.uleb128 0xb
 4796 0077 00       		.byte	0
 4797 0078 00       		.byte	0
 4798 0079 0A       		.uleb128 0xa
 4799 007a 0F       		.uleb128 0xf
 4800 007b 00       		.byte	0
 4801 007c 0B       		.uleb128 0xb
 4802 007d 0B       		.uleb128 0xb
 4803 007e 49       		.uleb128 0x49
 4804 007f 13       		.uleb128 0x13
 4805 0080 00       		.byte	0
 4806 0081 00       		.byte	0
 4807 0082 0B       		.uleb128 0xb
 4808 0083 15       		.uleb128 0x15
 4809 0084 01       		.byte	0x1
 4810 0085 27       		.uleb128 0x27
 4811 0086 19       		.uleb128 0x19
 4812 0087 49       		.uleb128 0x49
 4813 0088 13       		.uleb128 0x13
 4814 0089 01       		.uleb128 0x1
 4815 008a 13       		.uleb128 0x13
 4816 008b 00       		.byte	0
 4817 008c 00       		.byte	0
 4818 008d 0C       		.uleb128 0xc
 4819 008e 05       		.uleb128 0x5
 4820 008f 00       		.byte	0
 4821 0090 49       		.uleb128 0x49
 4822 0091 13       		.uleb128 0x13
 4823 0092 00       		.byte	0
 4824 0093 00       		.byte	0
 4825 0094 0D       		.uleb128 0xd
 4826 0095 26       		.uleb128 0x26
 4827 0096 00       		.byte	0
 4828 0097 49       		.uleb128 0x49
 4829 0098 13       		.uleb128 0x13
 4830 0099 00       		.byte	0
 4831 009a 00       		.byte	0
 4832 009b 0E       		.uleb128 0xe
 4833 009c 2E       		.uleb128 0x2e
 4834 009d 01       		.byte	0x1
 4835 009e 03       		.uleb128 0x3
 4836 009f 0E       		.uleb128 0xe
 4837 00a0 3A       		.uleb128 0x3a
 4838 00a1 0B       		.uleb128 0xb
 4839 00a2 3B       		.uleb128 0x3b
 4840 00a3 0B       		.uleb128 0xb
 4841 00a4 27       		.uleb128 0x27
ARM GAS  C:\Users\info\AppData\Local\Temp\ccSLnsSK.s 			page 101


 4842 00a5 19       		.uleb128 0x19
 4843 00a6 20       		.uleb128 0x20
 4844 00a7 0B       		.uleb128 0xb
 4845 00a8 01       		.uleb128 0x1
 4846 00a9 13       		.uleb128 0x13
 4847 00aa 00       		.byte	0
 4848 00ab 00       		.byte	0
 4849 00ac 0F       		.uleb128 0xf
 4850 00ad 05       		.uleb128 0x5
 4851 00ae 00       		.byte	0
 4852 00af 03       		.uleb128 0x3
 4853 00b0 0E       		.uleb128 0xe
 4854 00b1 3A       		.uleb128 0x3a
 4855 00b2 0B       		.uleb128 0xb
 4856 00b3 3B       		.uleb128 0x3b
 4857 00b4 0B       		.uleb128 0xb
 4858 00b5 49       		.uleb128 0x49
 4859 00b6 13       		.uleb128 0x13
 4860 00b7 00       		.byte	0
 4861 00b8 00       		.byte	0
 4862 00b9 10       		.uleb128 0x10
 4863 00ba 05       		.uleb128 0x5
 4864 00bb 00       		.byte	0
 4865 00bc 03       		.uleb128 0x3
 4866 00bd 08       		.uleb128 0x8
 4867 00be 3A       		.uleb128 0x3a
 4868 00bf 0B       		.uleb128 0xb
 4869 00c0 3B       		.uleb128 0x3b
 4870 00c1 0B       		.uleb128 0xb
 4871 00c2 49       		.uleb128 0x49
 4872 00c3 13       		.uleb128 0x13
 4873 00c4 00       		.byte	0
 4874 00c5 00       		.byte	0
 4875 00c6 11       		.uleb128 0x11
 4876 00c7 34       		.uleb128 0x34
 4877 00c8 00       		.byte	0
 4878 00c9 03       		.uleb128 0x3
 4879 00ca 0E       		.uleb128 0xe
 4880 00cb 3A       		.uleb128 0x3a
 4881 00cc 0B       		.uleb128 0xb
 4882 00cd 3B       		.uleb128 0x3b
 4883 00ce 0B       		.uleb128 0xb
 4884 00cf 49       		.uleb128 0x49
 4885 00d0 13       		.uleb128 0x13
 4886 00d1 00       		.byte	0
 4887 00d2 00       		.byte	0
 4888 00d3 12       		.uleb128 0x12
 4889 00d4 34       		.uleb128 0x34
 4890 00d5 00       		.byte	0
 4891 00d6 03       		.uleb128 0x3
 4892 00d7 08       		.uleb128 0x8
 4893 00d8 3A       		.uleb128 0x3a
 4894 00d9 0B       		.uleb128 0xb
 4895 00da 3B       		.uleb128 0x3b
 4896 00db 0B       		.uleb128 0xb
 4897 00dc 49       		.uleb128 0x49
 4898 00dd 13       		.uleb128 0x13
ARM GAS  C:\Users\info\AppData\Local\Temp\ccSLnsSK.s 			page 102


 4899 00de 00       		.byte	0
 4900 00df 00       		.byte	0
 4901 00e0 13       		.uleb128 0x13
 4902 00e1 2E       		.uleb128 0x2e
 4903 00e2 01       		.byte	0x1
 4904 00e3 3F       		.uleb128 0x3f
 4905 00e4 19       		.uleb128 0x19
 4906 00e5 03       		.uleb128 0x3
 4907 00e6 0E       		.uleb128 0xe
 4908 00e7 3A       		.uleb128 0x3a
 4909 00e8 0B       		.uleb128 0xb
 4910 00e9 3B       		.uleb128 0x3b
 4911 00ea 05       		.uleb128 0x5
 4912 00eb 27       		.uleb128 0x27
 4913 00ec 19       		.uleb128 0x19
 4914 00ed 49       		.uleb128 0x49
 4915 00ee 13       		.uleb128 0x13
 4916 00ef 20       		.uleb128 0x20
 4917 00f0 0B       		.uleb128 0xb
 4918 00f1 01       		.uleb128 0x1
 4919 00f2 13       		.uleb128 0x13
 4920 00f3 00       		.byte	0
 4921 00f4 00       		.byte	0
 4922 00f5 14       		.uleb128 0x14
 4923 00f6 05       		.uleb128 0x5
 4924 00f7 00       		.byte	0
 4925 00f8 03       		.uleb128 0x3
 4926 00f9 0E       		.uleb128 0xe
 4927 00fa 3A       		.uleb128 0x3a
 4928 00fb 0B       		.uleb128 0xb
 4929 00fc 3B       		.uleb128 0x3b
 4930 00fd 05       		.uleb128 0x5
 4931 00fe 49       		.uleb128 0x49
 4932 00ff 13       		.uleb128 0x13
 4933 0100 00       		.byte	0
 4934 0101 00       		.byte	0
 4935 0102 15       		.uleb128 0x15
 4936 0103 05       		.uleb128 0x5
 4937 0104 00       		.byte	0
 4938 0105 03       		.uleb128 0x3
 4939 0106 08       		.uleb128 0x8
 4940 0107 3A       		.uleb128 0x3a
 4941 0108 0B       		.uleb128 0xb
 4942 0109 3B       		.uleb128 0x3b
 4943 010a 05       		.uleb128 0x5
 4944 010b 49       		.uleb128 0x49
 4945 010c 13       		.uleb128 0x13
 4946 010d 00       		.byte	0
 4947 010e 00       		.byte	0
 4948 010f 16       		.uleb128 0x16
 4949 0110 2E       		.uleb128 0x2e
 4950 0111 01       		.byte	0x1
 4951 0112 3F       		.uleb128 0x3f
 4952 0113 19       		.uleb128 0x19
 4953 0114 03       		.uleb128 0x3
 4954 0115 0E       		.uleb128 0xe
 4955 0116 3A       		.uleb128 0x3a
ARM GAS  C:\Users\info\AppData\Local\Temp\ccSLnsSK.s 			page 103


 4956 0117 0B       		.uleb128 0xb
 4957 0118 3B       		.uleb128 0x3b
 4958 0119 05       		.uleb128 0x5
 4959 011a 27       		.uleb128 0x27
 4960 011b 19       		.uleb128 0x19
 4961 011c 20       		.uleb128 0x20
 4962 011d 0B       		.uleb128 0xb
 4963 011e 01       		.uleb128 0x1
 4964 011f 13       		.uleb128 0x13
 4965 0120 00       		.byte	0
 4966 0121 00       		.byte	0
 4967 0122 17       		.uleb128 0x17
 4968 0123 2E       		.uleb128 0x2e
 4969 0124 01       		.byte	0x1
 4970 0125 03       		.uleb128 0x3
 4971 0126 0E       		.uleb128 0xe
 4972 0127 3A       		.uleb128 0x3a
 4973 0128 0B       		.uleb128 0xb
 4974 0129 3B       		.uleb128 0x3b
 4975 012a 0B       		.uleb128 0xb
 4976 012b 27       		.uleb128 0x27
 4977 012c 19       		.uleb128 0x19
 4978 012d 11       		.uleb128 0x11
 4979 012e 01       		.uleb128 0x1
 4980 012f 12       		.uleb128 0x12
 4981 0130 06       		.uleb128 0x6
 4982 0131 40       		.uleb128 0x40
 4983 0132 18       		.uleb128 0x18
 4984 0133 9742     		.uleb128 0x2117
 4985 0135 19       		.uleb128 0x19
 4986 0136 01       		.uleb128 0x1
 4987 0137 13       		.uleb128 0x13
 4988 0138 00       		.byte	0
 4989 0139 00       		.byte	0
 4990 013a 18       		.uleb128 0x18
 4991 013b 05       		.uleb128 0x5
 4992 013c 00       		.byte	0
 4993 013d 03       		.uleb128 0x3
 4994 013e 08       		.uleb128 0x8
 4995 013f 3A       		.uleb128 0x3a
 4996 0140 0B       		.uleb128 0xb
 4997 0141 3B       		.uleb128 0x3b
 4998 0142 0B       		.uleb128 0xb
 4999 0143 49       		.uleb128 0x49
 5000 0144 13       		.uleb128 0x13
 5001 0145 02       		.uleb128 0x2
 5002 0146 17       		.uleb128 0x17
 5003 0147 00       		.byte	0
 5004 0148 00       		.byte	0
 5005 0149 19       		.uleb128 0x19
 5006 014a 05       		.uleb128 0x5
 5007 014b 00       		.byte	0
 5008 014c 03       		.uleb128 0x3
 5009 014d 0E       		.uleb128 0xe
 5010 014e 3A       		.uleb128 0x3a
 5011 014f 0B       		.uleb128 0xb
 5012 0150 3B       		.uleb128 0x3b
ARM GAS  C:\Users\info\AppData\Local\Temp\ccSLnsSK.s 			page 104


 5013 0151 0B       		.uleb128 0xb
 5014 0152 49       		.uleb128 0x49
 5015 0153 13       		.uleb128 0x13
 5016 0154 02       		.uleb128 0x2
 5017 0155 17       		.uleb128 0x17
 5018 0156 00       		.byte	0
 5019 0157 00       		.byte	0
 5020 0158 1A       		.uleb128 0x1a
 5021 0159 2E       		.uleb128 0x2e
 5022 015a 01       		.byte	0x1
 5023 015b 3F       		.uleb128 0x3f
 5024 015c 19       		.uleb128 0x19
 5025 015d 03       		.uleb128 0x3
 5026 015e 0E       		.uleb128 0xe
 5027 015f 3A       		.uleb128 0x3a
 5028 0160 0B       		.uleb128 0xb
 5029 0161 3B       		.uleb128 0x3b
 5030 0162 05       		.uleb128 0x5
 5031 0163 27       		.uleb128 0x27
 5032 0164 19       		.uleb128 0x19
 5033 0165 49       		.uleb128 0x49
 5034 0166 13       		.uleb128 0x13
 5035 0167 11       		.uleb128 0x11
 5036 0168 01       		.uleb128 0x1
 5037 0169 12       		.uleb128 0x12
 5038 016a 06       		.uleb128 0x6
 5039 016b 40       		.uleb128 0x40
 5040 016c 18       		.uleb128 0x18
 5041 016d 9742     		.uleb128 0x2117
 5042 016f 19       		.uleb128 0x19
 5043 0170 01       		.uleb128 0x1
 5044 0171 13       		.uleb128 0x13
 5045 0172 00       		.byte	0
 5046 0173 00       		.byte	0
 5047 0174 1B       		.uleb128 0x1b
 5048 0175 05       		.uleb128 0x5
 5049 0176 00       		.byte	0
 5050 0177 03       		.uleb128 0x3
 5051 0178 0E       		.uleb128 0xe
 5052 0179 3A       		.uleb128 0x3a
 5053 017a 0B       		.uleb128 0xb
 5054 017b 3B       		.uleb128 0x3b
 5055 017c 05       		.uleb128 0x5
 5056 017d 49       		.uleb128 0x49
 5057 017e 13       		.uleb128 0x13
 5058 017f 02       		.uleb128 0x2
 5059 0180 17       		.uleb128 0x17
 5060 0181 00       		.byte	0
 5061 0182 00       		.byte	0
 5062 0183 1C       		.uleb128 0x1c
 5063 0184 05       		.uleb128 0x5
 5064 0185 00       		.byte	0
 5065 0186 03       		.uleb128 0x3
 5066 0187 08       		.uleb128 0x8
 5067 0188 3A       		.uleb128 0x3a
 5068 0189 0B       		.uleb128 0xb
 5069 018a 3B       		.uleb128 0x3b
ARM GAS  C:\Users\info\AppData\Local\Temp\ccSLnsSK.s 			page 105


 5070 018b 05       		.uleb128 0x5
 5071 018c 49       		.uleb128 0x49
 5072 018d 13       		.uleb128 0x13
 5073 018e 02       		.uleb128 0x2
 5074 018f 18       		.uleb128 0x18
 5075 0190 00       		.byte	0
 5076 0191 00       		.byte	0
 5077 0192 1D       		.uleb128 0x1d
 5078 0193 2E       		.uleb128 0x2e
 5079 0194 01       		.byte	0x1
 5080 0195 31       		.uleb128 0x31
 5081 0196 13       		.uleb128 0x13
 5082 0197 11       		.uleb128 0x11
 5083 0198 01       		.uleb128 0x1
 5084 0199 12       		.uleb128 0x12
 5085 019a 06       		.uleb128 0x6
 5086 019b 40       		.uleb128 0x40
 5087 019c 18       		.uleb128 0x18
 5088 019d 9742     		.uleb128 0x2117
 5089 019f 19       		.uleb128 0x19
 5090 01a0 01       		.uleb128 0x1
 5091 01a1 13       		.uleb128 0x13
 5092 01a2 00       		.byte	0
 5093 01a3 00       		.byte	0
 5094 01a4 1E       		.uleb128 0x1e
 5095 01a5 05       		.uleb128 0x5
 5096 01a6 00       		.byte	0
 5097 01a7 31       		.uleb128 0x31
 5098 01a8 13       		.uleb128 0x13
 5099 01a9 02       		.uleb128 0x2
 5100 01aa 17       		.uleb128 0x17
 5101 01ab 00       		.byte	0
 5102 01ac 00       		.byte	0
 5103 01ad 1F       		.uleb128 0x1f
 5104 01ae 05       		.uleb128 0x5
 5105 01af 00       		.byte	0
 5106 01b0 31       		.uleb128 0x31
 5107 01b1 13       		.uleb128 0x13
 5108 01b2 02       		.uleb128 0x2
 5109 01b3 18       		.uleb128 0x18
 5110 01b4 00       		.byte	0
 5111 01b5 00       		.byte	0
 5112 01b6 20       		.uleb128 0x20
 5113 01b7 34       		.uleb128 0x34
 5114 01b8 00       		.byte	0
 5115 01b9 31       		.uleb128 0x31
 5116 01ba 13       		.uleb128 0x13
 5117 01bb 02       		.uleb128 0x2
 5118 01bc 18       		.uleb128 0x18
 5119 01bd 00       		.byte	0
 5120 01be 00       		.byte	0
 5121 01bf 21       		.uleb128 0x21
 5122 01c0 34       		.uleb128 0x34
 5123 01c1 00       		.byte	0
 5124 01c2 31       		.uleb128 0x31
 5125 01c3 13       		.uleb128 0x13
 5126 01c4 02       		.uleb128 0x2
ARM GAS  C:\Users\info\AppData\Local\Temp\ccSLnsSK.s 			page 106


 5127 01c5 17       		.uleb128 0x17
 5128 01c6 00       		.byte	0
 5129 01c7 00       		.byte	0
 5130 01c8 22       		.uleb128 0x22
 5131 01c9 0B       		.uleb128 0xb
 5132 01ca 01       		.byte	0x1
 5133 01cb 55       		.uleb128 0x55
 5134 01cc 17       		.uleb128 0x17
 5135 01cd 00       		.byte	0
 5136 01ce 00       		.byte	0
 5137 01cf 23       		.uleb128 0x23
 5138 01d0 2E       		.uleb128 0x2e
 5139 01d1 01       		.byte	0x1
 5140 01d2 3F       		.uleb128 0x3f
 5141 01d3 19       		.uleb128 0x19
 5142 01d4 03       		.uleb128 0x3
 5143 01d5 0E       		.uleb128 0xe
 5144 01d6 3A       		.uleb128 0x3a
 5145 01d7 0B       		.uleb128 0xb
 5146 01d8 3B       		.uleb128 0x3b
 5147 01d9 0B       		.uleb128 0xb
 5148 01da 27       		.uleb128 0x27
 5149 01db 19       		.uleb128 0x19
 5150 01dc 20       		.uleb128 0x20
 5151 01dd 0B       		.uleb128 0xb
 5152 01de 01       		.uleb128 0x1
 5153 01df 13       		.uleb128 0x13
 5154 01e0 00       		.byte	0
 5155 01e1 00       		.byte	0
 5156 01e2 24       		.uleb128 0x24
 5157 01e3 01       		.uleb128 0x1
 5158 01e4 01       		.byte	0x1
 5159 01e5 49       		.uleb128 0x49
 5160 01e6 13       		.uleb128 0x13
 5161 01e7 01       		.uleb128 0x1
 5162 01e8 13       		.uleb128 0x13
 5163 01e9 00       		.byte	0
 5164 01ea 00       		.byte	0
 5165 01eb 25       		.uleb128 0x25
 5166 01ec 21       		.uleb128 0x21
 5167 01ed 00       		.byte	0
 5168 01ee 49       		.uleb128 0x49
 5169 01ef 13       		.uleb128 0x13
 5170 01f0 2F       		.uleb128 0x2f
 5171 01f1 0B       		.uleb128 0xb
 5172 01f2 00       		.byte	0
 5173 01f3 00       		.byte	0
 5174 01f4 26       		.uleb128 0x26
 5175 01f5 2E       		.uleb128 0x2e
 5176 01f6 01       		.byte	0x1
 5177 01f7 03       		.uleb128 0x3
 5178 01f8 0E       		.uleb128 0xe
 5179 01f9 3A       		.uleb128 0x3a
 5180 01fa 0B       		.uleb128 0xb
 5181 01fb 3B       		.uleb128 0x3b
 5182 01fc 05       		.uleb128 0x5
 5183 01fd 27       		.uleb128 0x27
ARM GAS  C:\Users\info\AppData\Local\Temp\ccSLnsSK.s 			page 107


 5184 01fe 19       		.uleb128 0x19
 5185 01ff 49       		.uleb128 0x49
 5186 0200 13       		.uleb128 0x13
 5187 0201 11       		.uleb128 0x11
 5188 0202 01       		.uleb128 0x1
 5189 0203 12       		.uleb128 0x12
 5190 0204 06       		.uleb128 0x6
 5191 0205 40       		.uleb128 0x40
 5192 0206 18       		.uleb128 0x18
 5193 0207 9742     		.uleb128 0x2117
 5194 0209 19       		.uleb128 0x19
 5195 020a 01       		.uleb128 0x1
 5196 020b 13       		.uleb128 0x13
 5197 020c 00       		.byte	0
 5198 020d 00       		.byte	0
 5199 020e 27       		.uleb128 0x27
 5200 020f 05       		.uleb128 0x5
 5201 0210 00       		.byte	0
 5202 0211 03       		.uleb128 0x3
 5203 0212 08       		.uleb128 0x8
 5204 0213 3A       		.uleb128 0x3a
 5205 0214 0B       		.uleb128 0xb
 5206 0215 3B       		.uleb128 0x3b
 5207 0216 05       		.uleb128 0x5
 5208 0217 49       		.uleb128 0x49
 5209 0218 13       		.uleb128 0x13
 5210 0219 02       		.uleb128 0x2
 5211 021a 17       		.uleb128 0x17
 5212 021b 00       		.byte	0
 5213 021c 00       		.byte	0
 5214 021d 28       		.uleb128 0x28
 5215 021e 34       		.uleb128 0x34
 5216 021f 00       		.byte	0
 5217 0220 03       		.uleb128 0x3
 5218 0221 08       		.uleb128 0x8
 5219 0222 3A       		.uleb128 0x3a
 5220 0223 0B       		.uleb128 0xb
 5221 0224 3B       		.uleb128 0x3b
 5222 0225 05       		.uleb128 0x5
 5223 0226 49       		.uleb128 0x49
 5224 0227 13       		.uleb128 0x13
 5225 0228 02       		.uleb128 0x2
 5226 0229 17       		.uleb128 0x17
 5227 022a 00       		.byte	0
 5228 022b 00       		.byte	0
 5229 022c 29       		.uleb128 0x29
 5230 022d 34       		.uleb128 0x34
 5231 022e 00       		.byte	0
 5232 022f 03       		.uleb128 0x3
 5233 0230 08       		.uleb128 0x8
 5234 0231 3A       		.uleb128 0x3a
 5235 0232 0B       		.uleb128 0xb
 5236 0233 3B       		.uleb128 0x3b
 5237 0234 05       		.uleb128 0x5
 5238 0235 49       		.uleb128 0x49
 5239 0236 13       		.uleb128 0x13
 5240 0237 02       		.uleb128 0x2
ARM GAS  C:\Users\info\AppData\Local\Temp\ccSLnsSK.s 			page 108


 5241 0238 18       		.uleb128 0x18
 5242 0239 00       		.byte	0
 5243 023a 00       		.byte	0
 5244 023b 2A       		.uleb128 0x2a
 5245 023c 1D       		.uleb128 0x1d
 5246 023d 01       		.byte	0x1
 5247 023e 31       		.uleb128 0x31
 5248 023f 13       		.uleb128 0x13
 5249 0240 52       		.uleb128 0x52
 5250 0241 01       		.uleb128 0x1
 5251 0242 55       		.uleb128 0x55
 5252 0243 17       		.uleb128 0x17
 5253 0244 58       		.uleb128 0x58
 5254 0245 0B       		.uleb128 0xb
 5255 0246 59       		.uleb128 0x59
 5256 0247 05       		.uleb128 0x5
 5257 0248 01       		.uleb128 0x1
 5258 0249 13       		.uleb128 0x13
 5259 024a 00       		.byte	0
 5260 024b 00       		.byte	0
 5261 024c 2B       		.uleb128 0x2b
 5262 024d 898201   		.uleb128 0x4109
 5263 0250 01       		.byte	0x1
 5264 0251 11       		.uleb128 0x11
 5265 0252 01       		.uleb128 0x1
 5266 0253 31       		.uleb128 0x31
 5267 0254 13       		.uleb128 0x13
 5268 0255 01       		.uleb128 0x1
 5269 0256 13       		.uleb128 0x13
 5270 0257 00       		.byte	0
 5271 0258 00       		.byte	0
 5272 0259 2C       		.uleb128 0x2c
 5273 025a 8A8201   		.uleb128 0x410a
 5274 025d 00       		.byte	0
 5275 025e 02       		.uleb128 0x2
 5276 025f 18       		.uleb128 0x18
 5277 0260 9142     		.uleb128 0x2111
 5278 0262 18       		.uleb128 0x18
 5279 0263 00       		.byte	0
 5280 0264 00       		.byte	0
 5281 0265 2D       		.uleb128 0x2d
 5282 0266 8A8201   		.uleb128 0x410a
 5283 0269 00       		.byte	0
 5284 026a 31       		.uleb128 0x31
 5285 026b 13       		.uleb128 0x13
 5286 026c 9142     		.uleb128 0x2111
 5287 026e 18       		.uleb128 0x18
 5288 026f 00       		.byte	0
 5289 0270 00       		.byte	0
 5290 0271 2E       		.uleb128 0x2e
 5291 0272 898201   		.uleb128 0x4109
 5292 0275 01       		.byte	0x1
 5293 0276 11       		.uleb128 0x11
 5294 0277 01       		.uleb128 0x1
 5295 0278 31       		.uleb128 0x31
 5296 0279 13       		.uleb128 0x13
 5297 027a 00       		.byte	0
ARM GAS  C:\Users\info\AppData\Local\Temp\ccSLnsSK.s 			page 109


 5298 027b 00       		.byte	0
 5299 027c 2F       		.uleb128 0x2f
 5300 027d 898201   		.uleb128 0x4109
 5301 0280 01       		.byte	0x1
 5302 0281 11       		.uleb128 0x11
 5303 0282 01       		.uleb128 0x1
 5304 0283 00       		.byte	0
 5305 0284 00       		.byte	0
 5306 0285 30       		.uleb128 0x30
 5307 0286 2E       		.uleb128 0x2e
 5308 0287 01       		.byte	0x1
 5309 0288 3F       		.uleb128 0x3f
 5310 0289 19       		.uleb128 0x19
 5311 028a 03       		.uleb128 0x3
 5312 028b 0E       		.uleb128 0xe
 5313 028c 3A       		.uleb128 0x3a
 5314 028d 0B       		.uleb128 0xb
 5315 028e 3B       		.uleb128 0x3b
 5316 028f 0B       		.uleb128 0xb
 5317 0290 27       		.uleb128 0x27
 5318 0291 19       		.uleb128 0x19
 5319 0292 11       		.uleb128 0x11
 5320 0293 01       		.uleb128 0x1
 5321 0294 12       		.uleb128 0x12
 5322 0295 06       		.uleb128 0x6
 5323 0296 40       		.uleb128 0x40
 5324 0297 18       		.uleb128 0x18
 5325 0298 9742     		.uleb128 0x2117
 5326 029a 19       		.uleb128 0x19
 5327 029b 01       		.uleb128 0x1
 5328 029c 13       		.uleb128 0x13
 5329 029d 00       		.byte	0
 5330 029e 00       		.byte	0
 5331 029f 31       		.uleb128 0x31
 5332 02a0 05       		.uleb128 0x5
 5333 02a1 00       		.byte	0
 5334 02a2 03       		.uleb128 0x3
 5335 02a3 0E       		.uleb128 0xe
 5336 02a4 3A       		.uleb128 0x3a
 5337 02a5 0B       		.uleb128 0xb
 5338 02a6 3B       		.uleb128 0x3b
 5339 02a7 0B       		.uleb128 0xb
 5340 02a8 49       		.uleb128 0x49
 5341 02a9 13       		.uleb128 0x13
 5342 02aa 02       		.uleb128 0x2
 5343 02ab 18       		.uleb128 0x18
 5344 02ac 00       		.byte	0
 5345 02ad 00       		.byte	0
 5346 02ae 32       		.uleb128 0x32
 5347 02af 2E       		.uleb128 0x2e
 5348 02b0 01       		.byte	0x1
 5349 02b1 3F       		.uleb128 0x3f
 5350 02b2 19       		.uleb128 0x19
 5351 02b3 03       		.uleb128 0x3
 5352 02b4 0E       		.uleb128 0xe
 5353 02b5 3A       		.uleb128 0x3a
 5354 02b6 0B       		.uleb128 0xb
ARM GAS  C:\Users\info\AppData\Local\Temp\ccSLnsSK.s 			page 110


 5355 02b7 3B       		.uleb128 0x3b
 5356 02b8 0B       		.uleb128 0xb
 5357 02b9 27       		.uleb128 0x27
 5358 02ba 19       		.uleb128 0x19
 5359 02bb 49       		.uleb128 0x49
 5360 02bc 13       		.uleb128 0x13
 5361 02bd 11       		.uleb128 0x11
 5362 02be 01       		.uleb128 0x1
 5363 02bf 12       		.uleb128 0x12
 5364 02c0 06       		.uleb128 0x6
 5365 02c1 40       		.uleb128 0x40
 5366 02c2 18       		.uleb128 0x18
 5367 02c3 9742     		.uleb128 0x2117
 5368 02c5 19       		.uleb128 0x19
 5369 02c6 01       		.uleb128 0x1
 5370 02c7 13       		.uleb128 0x13
 5371 02c8 00       		.byte	0
 5372 02c9 00       		.byte	0
 5373 02ca 33       		.uleb128 0x33
 5374 02cb 34       		.uleb128 0x34
 5375 02cc 00       		.byte	0
 5376 02cd 03       		.uleb128 0x3
 5377 02ce 08       		.uleb128 0x8
 5378 02cf 3A       		.uleb128 0x3a
 5379 02d0 0B       		.uleb128 0xb
 5380 02d1 3B       		.uleb128 0x3b
 5381 02d2 0B       		.uleb128 0xb
 5382 02d3 49       		.uleb128 0x49
 5383 02d4 13       		.uleb128 0x13
 5384 02d5 02       		.uleb128 0x2
 5385 02d6 17       		.uleb128 0x17
 5386 02d7 00       		.byte	0
 5387 02d8 00       		.byte	0
 5388 02d9 34       		.uleb128 0x34
 5389 02da 1D       		.uleb128 0x1d
 5390 02db 01       		.byte	0x1
 5391 02dc 31       		.uleb128 0x31
 5392 02dd 13       		.uleb128 0x13
 5393 02de 11       		.uleb128 0x11
 5394 02df 01       		.uleb128 0x1
 5395 02e0 12       		.uleb128 0x12
 5396 02e1 06       		.uleb128 0x6
 5397 02e2 58       		.uleb128 0x58
 5398 02e3 0B       		.uleb128 0xb
 5399 02e4 59       		.uleb128 0x59
 5400 02e5 05       		.uleb128 0x5
 5401 02e6 00       		.byte	0
 5402 02e7 00       		.byte	0
 5403 02e8 35       		.uleb128 0x35
 5404 02e9 05       		.uleb128 0x5
 5405 02ea 00       		.byte	0
 5406 02eb 31       		.uleb128 0x31
 5407 02ec 13       		.uleb128 0x13
 5408 02ed 00       		.byte	0
 5409 02ee 00       		.byte	0
 5410 02ef 36       		.uleb128 0x36
 5411 02f0 0B       		.uleb128 0xb
ARM GAS  C:\Users\info\AppData\Local\Temp\ccSLnsSK.s 			page 111


 5412 02f1 01       		.byte	0x1
 5413 02f2 11       		.uleb128 0x11
 5414 02f3 01       		.uleb128 0x1
 5415 02f4 12       		.uleb128 0x12
 5416 02f5 06       		.uleb128 0x6
 5417 02f6 00       		.byte	0
 5418 02f7 00       		.byte	0
 5419 02f8 37       		.uleb128 0x37
 5420 02f9 898201   		.uleb128 0x4109
 5421 02fc 00       		.byte	0
 5422 02fd 11       		.uleb128 0x11
 5423 02fe 01       		.uleb128 0x1
 5424 02ff 31       		.uleb128 0x31
 5425 0300 13       		.uleb128 0x13
 5426 0301 00       		.byte	0
 5427 0302 00       		.byte	0
 5428 0303 38       		.uleb128 0x38
 5429 0304 34       		.uleb128 0x34
 5430 0305 00       		.byte	0
 5431 0306 03       		.uleb128 0x3
 5432 0307 08       		.uleb128 0x8
 5433 0308 3A       		.uleb128 0x3a
 5434 0309 0B       		.uleb128 0xb
 5435 030a 3B       		.uleb128 0x3b
 5436 030b 0B       		.uleb128 0xb
 5437 030c 49       		.uleb128 0x49
 5438 030d 13       		.uleb128 0x13
 5439 030e 02       		.uleb128 0x2
 5440 030f 18       		.uleb128 0x18
 5441 0310 00       		.byte	0
 5442 0311 00       		.byte	0
 5443 0312 39       		.uleb128 0x39
 5444 0313 34       		.uleb128 0x34
 5445 0314 00       		.byte	0
 5446 0315 03       		.uleb128 0x3
 5447 0316 0E       		.uleb128 0xe
 5448 0317 3A       		.uleb128 0x3a
 5449 0318 0B       		.uleb128 0xb
 5450 0319 3B       		.uleb128 0x3b
 5451 031a 0B       		.uleb128 0xb
 5452 031b 49       		.uleb128 0x49
 5453 031c 13       		.uleb128 0x13
 5454 031d 02       		.uleb128 0x2
 5455 031e 17       		.uleb128 0x17
 5456 031f 00       		.byte	0
 5457 0320 00       		.byte	0
 5458 0321 3A       		.uleb128 0x3a
 5459 0322 1D       		.uleb128 0x1d
 5460 0323 01       		.byte	0x1
 5461 0324 31       		.uleb128 0x31
 5462 0325 13       		.uleb128 0x13
 5463 0326 11       		.uleb128 0x11
 5464 0327 01       		.uleb128 0x1
 5465 0328 12       		.uleb128 0x12
 5466 0329 06       		.uleb128 0x6
 5467 032a 58       		.uleb128 0x58
 5468 032b 0B       		.uleb128 0xb
ARM GAS  C:\Users\info\AppData\Local\Temp\ccSLnsSK.s 			page 112


 5469 032c 59       		.uleb128 0x59
 5470 032d 0B       		.uleb128 0xb
 5471 032e 00       		.byte	0
 5472 032f 00       		.byte	0
 5473 0330 3B       		.uleb128 0x3b
 5474 0331 898201   		.uleb128 0x4109
 5475 0334 01       		.byte	0x1
 5476 0335 11       		.uleb128 0x11
 5477 0336 01       		.uleb128 0x1
 5478 0337 01       		.uleb128 0x1
 5479 0338 13       		.uleb128 0x13
 5480 0339 00       		.byte	0
 5481 033a 00       		.byte	0
 5482 033b 3C       		.uleb128 0x3c
 5483 033c 898201   		.uleb128 0x4109
 5484 033f 01       		.byte	0x1
 5485 0340 11       		.uleb128 0x11
 5486 0341 01       		.uleb128 0x1
 5487 0342 9542     		.uleb128 0x2115
 5488 0344 19       		.uleb128 0x19
 5489 0345 31       		.uleb128 0x31
 5490 0346 13       		.uleb128 0x13
 5491 0347 00       		.byte	0
 5492 0348 00       		.byte	0
 5493 0349 3D       		.uleb128 0x3d
 5494 034a 34       		.uleb128 0x34
 5495 034b 00       		.byte	0
 5496 034c 03       		.uleb128 0x3
 5497 034d 08       		.uleb128 0x8
 5498 034e 3A       		.uleb128 0x3a
 5499 034f 0B       		.uleb128 0xb
 5500 0350 3B       		.uleb128 0x3b
 5501 0351 05       		.uleb128 0x5
 5502 0352 49       		.uleb128 0x49
 5503 0353 13       		.uleb128 0x13
 5504 0354 00       		.byte	0
 5505 0355 00       		.byte	0
 5506 0356 3E       		.uleb128 0x3e
 5507 0357 1D       		.uleb128 0x1d
 5508 0358 01       		.byte	0x1
 5509 0359 31       		.uleb128 0x31
 5510 035a 13       		.uleb128 0x13
 5511 035b 52       		.uleb128 0x52
 5512 035c 01       		.uleb128 0x1
 5513 035d 55       		.uleb128 0x55
 5514 035e 17       		.uleb128 0x17
 5515 035f 58       		.uleb128 0x58
 5516 0360 0B       		.uleb128 0xb
 5517 0361 59       		.uleb128 0x59
 5518 0362 05       		.uleb128 0x5
 5519 0363 00       		.byte	0
 5520 0364 00       		.byte	0
 5521 0365 3F       		.uleb128 0x3f
 5522 0366 2E       		.uleb128 0x2e
 5523 0367 00       		.byte	0
 5524 0368 3F       		.uleb128 0x3f
 5525 0369 19       		.uleb128 0x19
ARM GAS  C:\Users\info\AppData\Local\Temp\ccSLnsSK.s 			page 113


 5526 036a 3C       		.uleb128 0x3c
 5527 036b 19       		.uleb128 0x19
 5528 036c 6E       		.uleb128 0x6e
 5529 036d 0E       		.uleb128 0xe
 5530 036e 03       		.uleb128 0x3
 5531 036f 0E       		.uleb128 0xe
 5532 0370 3A       		.uleb128 0x3a
 5533 0371 0B       		.uleb128 0xb
 5534 0372 3B       		.uleb128 0x3b
 5535 0373 05       		.uleb128 0x5
 5536 0374 00       		.byte	0
 5537 0375 00       		.byte	0
 5538 0376 00       		.byte	0
 5539              		.section	.debug_loc,"",%progbits
 5540              	.Ldebug_loc0:
 5541              	.LLST0:
 5542 0000 00000000 		.4byte	.LVL0
 5543 0004 04000000 		.4byte	.LVL1
 5544 0008 0100     		.2byte	0x1
 5545 000a 50       		.byte	0x50
 5546 000b 04000000 		.4byte	.LVL1
 5547 000f 0C000000 		.4byte	.LVL3
 5548 0013 0300     		.2byte	0x3
 5549 0015 70       		.byte	0x70
 5550 0016 01       		.sleb128 1
 5551 0017 9F       		.byte	0x9f
 5552 0018 0C000000 		.4byte	.LVL3
 5553 001c 14000000 		.4byte	.LVL5
 5554 0020 0300     		.2byte	0x3
 5555 0022 70       		.byte	0x70
 5556 0023 02       		.sleb128 2
 5557 0024 9F       		.byte	0x9f
 5558 0025 14000000 		.4byte	.LVL5
 5559 0029 1C000000 		.4byte	.LVL7
 5560 002d 0300     		.2byte	0x3
 5561 002f 70       		.byte	0x70
 5562 0030 03       		.sleb128 3
 5563 0031 9F       		.byte	0x9f
 5564 0032 1C000000 		.4byte	.LVL7
 5565 0036 22000000 		.4byte	.LFE4
 5566 003a 0300     		.2byte	0x3
 5567 003c 70       		.byte	0x70
 5568 003d 04       		.sleb128 4
 5569 003e 9F       		.byte	0x9f
 5570 003f 00000000 		.4byte	0
 5571 0043 00000000 		.4byte	0
 5572              	.LLST1:
 5573 0047 00000000 		.4byte	.LVL0
 5574 004b 00000000 		.4byte	.LVL0
 5575 004f 0100     		.2byte	0x1
 5576 0051 51       		.byte	0x51
 5577 0052 00000000 		.4byte	.LVL0
 5578 0056 04000000 		.4byte	.LVL1
 5579 005a 0300     		.2byte	0x3
 5580 005c 71       		.byte	0x71
 5581 005d 01       		.sleb128 1
 5582 005e 9F       		.byte	0x9f
ARM GAS  C:\Users\info\AppData\Local\Temp\ccSLnsSK.s 			page 114


 5583 005f 04000000 		.4byte	.LVL1
 5584 0063 08000000 		.4byte	.LVL2
 5585 0067 0300     		.2byte	0x3
 5586 0069 71       		.byte	0x71
 5587 006a 02       		.sleb128 2
 5588 006b 9F       		.byte	0x9f
 5589 006c 08000000 		.4byte	.LVL2
 5590 0070 0C000000 		.4byte	.LVL3
 5591 0074 0300     		.2byte	0x3
 5592 0076 71       		.byte	0x71
 5593 0077 03       		.sleb128 3
 5594 0078 9F       		.byte	0x9f
 5595 0079 0C000000 		.4byte	.LVL3
 5596 007d 10000000 		.4byte	.LVL4
 5597 0081 0300     		.2byte	0x3
 5598 0083 71       		.byte	0x71
 5599 0084 04       		.sleb128 4
 5600 0085 9F       		.byte	0x9f
 5601 0086 10000000 		.4byte	.LVL4
 5602 008a 14000000 		.4byte	.LVL5
 5603 008e 0300     		.2byte	0x3
 5604 0090 71       		.byte	0x71
 5605 0091 05       		.sleb128 5
 5606 0092 9F       		.byte	0x9f
 5607 0093 14000000 		.4byte	.LVL5
 5608 0097 18000000 		.4byte	.LVL6
 5609 009b 0300     		.2byte	0x3
 5610 009d 71       		.byte	0x71
 5611 009e 06       		.sleb128 6
 5612 009f 9F       		.byte	0x9f
 5613 00a0 18000000 		.4byte	.LVL6
 5614 00a4 1C000000 		.4byte	.LVL7
 5615 00a8 0300     		.2byte	0x3
 5616 00aa 71       		.byte	0x71
 5617 00ab 07       		.sleb128 7
 5618 00ac 9F       		.byte	0x9f
 5619 00ad 1C000000 		.4byte	.LVL7
 5620 00b1 22000000 		.4byte	.LFE4
 5621 00b5 0300     		.2byte	0x3
 5622 00b7 71       		.byte	0x71
 5623 00b8 08       		.sleb128 8
 5624 00b9 9F       		.byte	0x9f
 5625 00ba 00000000 		.4byte	0
 5626 00be 00000000 		.4byte	0
 5627              	.LLST2:
 5628 00c2 00000000 		.4byte	.LVL8
 5629 00c6 06000000 		.4byte	.LVL9
 5630 00ca 0100     		.2byte	0x1
 5631 00cc 50       		.byte	0x50
 5632 00cd 06000000 		.4byte	.LVL9
 5633 00d1 08000000 		.4byte	.LVL10
 5634 00d5 0400     		.2byte	0x4
 5635 00d7 F3       		.byte	0xf3
 5636 00d8 01       		.uleb128 0x1
 5637 00d9 50       		.byte	0x50
 5638 00da 9F       		.byte	0x9f
 5639 00db 08000000 		.4byte	.LVL10
ARM GAS  C:\Users\info\AppData\Local\Temp\ccSLnsSK.s 			page 115


 5640 00df 0E000000 		.4byte	.LVL11
 5641 00e3 0100     		.2byte	0x1
 5642 00e5 50       		.byte	0x50
 5643 00e6 0E000000 		.4byte	.LVL11
 5644 00ea 10000000 		.4byte	.LFE10
 5645 00ee 0400     		.2byte	0x4
 5646 00f0 F3       		.byte	0xf3
 5647 00f1 01       		.uleb128 0x1
 5648 00f2 50       		.byte	0x50
 5649 00f3 9F       		.byte	0x9f
 5650 00f4 00000000 		.4byte	0
 5651 00f8 00000000 		.4byte	0
 5652              	.LLST3:
 5653 00fc 00000000 		.4byte	.LVL12
 5654 0100 16000000 		.4byte	.LVL14
 5655 0104 0100     		.2byte	0x1
 5656 0106 52       		.byte	0x52
 5657 0107 16000000 		.4byte	.LVL14
 5658 010b 2C000000 		.4byte	.LVL17
 5659 010f 0400     		.2byte	0x4
 5660 0111 F3       		.byte	0xf3
 5661 0112 01       		.uleb128 0x1
 5662 0113 52       		.byte	0x52
 5663 0114 9F       		.byte	0x9f
 5664 0115 2C000000 		.4byte	.LVL17
 5665 0119 34000000 		.4byte	.LVL18
 5666 011d 0100     		.2byte	0x1
 5667 011f 52       		.byte	0x52
 5668 0120 34000000 		.4byte	.LVL18
 5669 0124 9A000000 		.4byte	.LFE22
 5670 0128 0400     		.2byte	0x4
 5671 012a F3       		.byte	0xf3
 5672 012b 01       		.uleb128 0x1
 5673 012c 52       		.byte	0x52
 5674 012d 9F       		.byte	0x9f
 5675 012e 00000000 		.4byte	0
 5676 0132 00000000 		.4byte	0
 5677              	.LLST4:
 5678 0136 00000000 		.4byte	.LVL12
 5679 013a 2C000000 		.4byte	.LVL17
 5680 013e 0200     		.2byte	0x2
 5681 0140 91       		.byte	0x91
 5682 0141 00       		.sleb128 0
 5683 0142 2C000000 		.4byte	.LVL17
 5684 0146 9A000000 		.4byte	.LFE22
 5685 014a 0200     		.2byte	0x2
 5686 014c 91       		.byte	0x91
 5687 014d 00       		.sleb128 0
 5688 014e 00000000 		.4byte	0
 5689 0152 00000000 		.4byte	0
 5690              	.LLST5:
 5691 0156 0A000000 		.4byte	.LVL13
 5692 015a 18000000 		.4byte	.LVL15
 5693 015e 0200     		.2byte	0x2
 5694 0160 75       		.byte	0x75
 5695 0161 01       		.sleb128 1
 5696 0162 2C000000 		.4byte	.LVL17
ARM GAS  C:\Users\info\AppData\Local\Temp\ccSLnsSK.s 			page 116


 5697 0166 4A000000 		.4byte	.LVL24
 5698 016a 0200     		.2byte	0x2
 5699 016c 75       		.byte	0x75
 5700 016d 01       		.sleb128 1
 5701 016e 4A000000 		.4byte	.LVL24
 5702 0172 4E000000 		.4byte	.LVL25
 5703 0176 0500     		.2byte	0x5
 5704 0178 70       		.byte	0x70
 5705 0179 00       		.sleb128 0
 5706 017a 06       		.byte	0x6
 5707 017b 23       		.byte	0x23
 5708 017c 01       		.uleb128 0x1
 5709 017d 00000000 		.4byte	0
 5710 0181 00000000 		.4byte	0
 5711              	.LLST6:
 5712 0185 0A000000 		.4byte	.LVL13
 5713 0189 18000000 		.4byte	.LVL15
 5714 018d 0A00     		.2byte	0xa
 5715 018f 75       		.byte	0x75
 5716 0190 02       		.sleb128 2
 5717 0191 94       		.byte	0x94
 5718 0192 01       		.byte	0x1
 5719 0193 75       		.byte	0x75
 5720 0194 03       		.sleb128 3
 5721 0195 94       		.byte	0x94
 5722 0196 01       		.byte	0x1
 5723 0197 1E       		.byte	0x1e
 5724 0198 9F       		.byte	0x9f
 5725 0199 2C000000 		.4byte	.LVL17
 5726 019d 4A000000 		.4byte	.LVL24
 5727 01a1 0A00     		.2byte	0xa
 5728 01a3 75       		.byte	0x75
 5729 01a4 02       		.sleb128 2
 5730 01a5 94       		.byte	0x94
 5731 01a6 01       		.byte	0x1
 5732 01a7 75       		.byte	0x75
 5733 01a8 03       		.sleb128 3
 5734 01a9 94       		.byte	0x94
 5735 01aa 01       		.byte	0x1
 5736 01ab 1E       		.byte	0x1e
 5737 01ac 9F       		.byte	0x9f
 5738 01ad 4A000000 		.4byte	.LVL24
 5739 01b1 4E000000 		.4byte	.LVL25
 5740 01b5 1000     		.2byte	0x10
 5741 01b7 70       		.byte	0x70
 5742 01b8 00       		.sleb128 0
 5743 01b9 06       		.byte	0x6
 5744 01ba 23       		.byte	0x23
 5745 01bb 02       		.uleb128 0x2
 5746 01bc 94       		.byte	0x94
 5747 01bd 01       		.byte	0x1
 5748 01be 70       		.byte	0x70
 5749 01bf 00       		.sleb128 0
 5750 01c0 06       		.byte	0x6
 5751 01c1 23       		.byte	0x23
 5752 01c2 03       		.uleb128 0x3
 5753 01c3 94       		.byte	0x94
ARM GAS  C:\Users\info\AppData\Local\Temp\ccSLnsSK.s 			page 117


 5754 01c4 01       		.byte	0x1
 5755 01c5 1E       		.byte	0x1e
 5756 01c6 9F       		.byte	0x9f
 5757 01c7 00000000 		.4byte	0
 5758 01cb 00000000 		.4byte	0
 5759              	.LLST7:
 5760 01cf 44000000 		.4byte	.LVL23
 5761 01d3 4E000000 		.4byte	.LVL25
 5762 01d7 0200     		.2byte	0x2
 5763 01d9 30       		.byte	0x30
 5764 01da 9F       		.byte	0x9f
 5765 01db 4E000000 		.4byte	.LVL25
 5766 01df 58000000 		.4byte	.LVL26
 5767 01e3 0200     		.2byte	0x2
 5768 01e5 31       		.byte	0x31
 5769 01e6 9F       		.byte	0x9f
 5770 01e7 58000000 		.4byte	.LVL26
 5771 01eb 62000000 		.4byte	.LVL27
 5772 01ef 0200     		.2byte	0x2
 5773 01f1 32       		.byte	0x32
 5774 01f2 9F       		.byte	0x9f
 5775 01f3 62000000 		.4byte	.LVL27
 5776 01f7 6E000000 		.4byte	.LVL28
 5777 01fb 0200     		.2byte	0x2
 5778 01fd 33       		.byte	0x33
 5779 01fe 9F       		.byte	0x9f
 5780 01ff 6E000000 		.4byte	.LVL28
 5781 0203 7A000000 		.4byte	.LVL29
 5782 0207 0200     		.2byte	0x2
 5783 0209 34       		.byte	0x34
 5784 020a 9F       		.byte	0x9f
 5785 020b 7A000000 		.4byte	.LVL29
 5786 020f 86000000 		.4byte	.LVL30
 5787 0213 0200     		.2byte	0x2
 5788 0215 35       		.byte	0x35
 5789 0216 9F       		.byte	0x9f
 5790 0217 86000000 		.4byte	.LVL30
 5791 021b 90000000 		.4byte	.LVL32
 5792 021f 0200     		.2byte	0x2
 5793 0221 36       		.byte	0x36
 5794 0222 9F       		.byte	0x9f
 5795 0223 90000000 		.4byte	.LVL32
 5796 0227 98000000 		.4byte	.LVL34
 5797 022b 0200     		.2byte	0x2
 5798 022d 37       		.byte	0x37
 5799 022e 9F       		.byte	0x9f
 5800 022f 98000000 		.4byte	.LVL34
 5801 0233 9A000000 		.4byte	.LFE22
 5802 0237 0200     		.2byte	0x2
 5803 0239 38       		.byte	0x38
 5804 023a 9F       		.byte	0x9f
 5805 023b 00000000 		.4byte	0
 5806 023f 00000000 		.4byte	0
 5807              	.LLST8:
 5808 0243 2C000000 		.4byte	.LVL17
 5809 0247 3A000000 		.4byte	.LVL19
 5810 024b 0100     		.2byte	0x1
ARM GAS  C:\Users\info\AppData\Local\Temp\ccSLnsSK.s 			page 118


 5811 024d 52       		.byte	0x52
 5812 024e 3A000000 		.4byte	.LVL19
 5813 0252 3E000000 		.4byte	.LVL20
 5814 0256 0600     		.2byte	0x6
 5815 0258 72       		.byte	0x72
 5816 0259 00       		.sleb128 0
 5817 025a 74       		.byte	0x74
 5818 025b 00       		.sleb128 0
 5819 025c 1E       		.byte	0x1e
 5820 025d 9F       		.byte	0x9f
 5821 025e 40000000 		.4byte	.LVL21
 5822 0262 42000000 		.4byte	.LVL22
 5823 0266 0100     		.2byte	0x1
 5824 0268 52       		.byte	0x52
 5825 0269 44000000 		.4byte	.LVL23
 5826 026d 4E000000 		.4byte	.LVL25
 5827 0271 0300     		.2byte	0x3
 5828 0273 72       		.byte	0x72
 5829 0274 04       		.sleb128 4
 5830 0275 9F       		.byte	0x9f
 5831 0276 4E000000 		.4byte	.LVL25
 5832 027a 58000000 		.4byte	.LVL26
 5833 027e 0300     		.2byte	0x3
 5834 0280 72       		.byte	0x72
 5835 0281 05       		.sleb128 5
 5836 0282 9F       		.byte	0x9f
 5837 0283 58000000 		.4byte	.LVL26
 5838 0287 62000000 		.4byte	.LVL27
 5839 028b 0300     		.2byte	0x3
 5840 028d 72       		.byte	0x72
 5841 028e 06       		.sleb128 6
 5842 028f 9F       		.byte	0x9f
 5843 0290 62000000 		.4byte	.LVL27
 5844 0294 6E000000 		.4byte	.LVL28
 5845 0298 0300     		.2byte	0x3
 5846 029a 72       		.byte	0x72
 5847 029b 07       		.sleb128 7
 5848 029c 9F       		.byte	0x9f
 5849 029d 6E000000 		.4byte	.LVL28
 5850 02a1 7A000000 		.4byte	.LVL29
 5851 02a5 0300     		.2byte	0x3
 5852 02a7 72       		.byte	0x72
 5853 02a8 08       		.sleb128 8
 5854 02a9 9F       		.byte	0x9f
 5855 02aa 7A000000 		.4byte	.LVL29
 5856 02ae 86000000 		.4byte	.LVL30
 5857 02b2 0300     		.2byte	0x3
 5858 02b4 72       		.byte	0x72
 5859 02b5 09       		.sleb128 9
 5860 02b6 9F       		.byte	0x9f
 5861 02b7 86000000 		.4byte	.LVL30
 5862 02bb 8E000000 		.4byte	.LVL31
 5863 02bf 0300     		.2byte	0x3
 5864 02c1 72       		.byte	0x72
 5865 02c2 0A       		.sleb128 10
 5866 02c3 9F       		.byte	0x9f
 5867 02c4 8E000000 		.4byte	.LVL31
ARM GAS  C:\Users\info\AppData\Local\Temp\ccSLnsSK.s 			page 119


 5868 02c8 90000000 		.4byte	.LVL32
 5869 02cc 0300     		.2byte	0x3
 5870 02ce 72       		.byte	0x72
 5871 02cf 7F       		.sleb128 -1
 5872 02d0 9F       		.byte	0x9f
 5873 02d1 90000000 		.4byte	.LVL32
 5874 02d5 94000000 		.4byte	.LVL33
 5875 02d9 0300     		.2byte	0x3
 5876 02db 72       		.byte	0x72
 5877 02dc 00       		.sleb128 0
 5878 02dd 9F       		.byte	0x9f
 5879 02de 00000000 		.4byte	0
 5880 02e2 00000000 		.4byte	0
 5881              	.LLST9:
 5882 02e6 00000000 		.4byte	.LVL35
 5883 02ea 08000000 		.4byte	.LVL37
 5884 02ee 0100     		.2byte	0x1
 5885 02f0 50       		.byte	0x50
 5886 02f1 08000000 		.4byte	.LVL37
 5887 02f5 0A000000 		.4byte	.LVL38
 5888 02f9 0400     		.2byte	0x4
 5889 02fb F3       		.byte	0xf3
 5890 02fc 01       		.uleb128 0x1
 5891 02fd 50       		.byte	0x50
 5892 02fe 9F       		.byte	0x9f
 5893 02ff 0A000000 		.4byte	.LVL38
 5894 0303 50000000 		.4byte	.LVL45
 5895 0307 0100     		.2byte	0x1
 5896 0309 50       		.byte	0x50
 5897 030a 50000000 		.4byte	.LVL45
 5898 030e 52000000 		.4byte	.LVL46
 5899 0312 0400     		.2byte	0x4
 5900 0314 F3       		.byte	0xf3
 5901 0315 01       		.uleb128 0x1
 5902 0316 50       		.byte	0x50
 5903 0317 9F       		.byte	0x9f
 5904 0318 52000000 		.4byte	.LVL46
 5905 031c 96000000 		.4byte	.LFE11
 5906 0320 0100     		.2byte	0x1
 5907 0322 50       		.byte	0x50
 5908 0323 00000000 		.4byte	0
 5909 0327 00000000 		.4byte	0
 5910              	.LLST10:
 5911 032b 00000000 		.4byte	.LVL35
 5912 032f 06000000 		.4byte	.LVL36
 5913 0333 0100     		.2byte	0x1
 5914 0335 51       		.byte	0x51
 5915 0336 06000000 		.4byte	.LVL36
 5916 033a 0A000000 		.4byte	.LVL38
 5917 033e 0400     		.2byte	0x4
 5918 0340 F3       		.byte	0xf3
 5919 0341 01       		.uleb128 0x1
 5920 0342 51       		.byte	0x51
 5921 0343 9F       		.byte	0x9f
 5922 0344 0A000000 		.4byte	.LVL38
 5923 0348 1E000000 		.4byte	.LVL40
 5924 034c 0100     		.2byte	0x1
ARM GAS  C:\Users\info\AppData\Local\Temp\ccSLnsSK.s 			page 120


 5925 034e 51       		.byte	0x51
 5926 034f 1E000000 		.4byte	.LVL40
 5927 0353 2A000000 		.4byte	.LVL42
 5928 0357 0400     		.2byte	0x4
 5929 0359 F3       		.byte	0xf3
 5930 035a 01       		.uleb128 0x1
 5931 035b 51       		.byte	0x51
 5932 035c 9F       		.byte	0x9f
 5933 035d 2A000000 		.4byte	.LVL42
 5934 0361 36000000 		.4byte	.LVL43
 5935 0365 0100     		.2byte	0x1
 5936 0367 51       		.byte	0x51
 5937 0368 36000000 		.4byte	.LVL43
 5938 036c 4C000000 		.4byte	.LVL44
 5939 0370 0400     		.2byte	0x4
 5940 0372 F3       		.byte	0xf3
 5941 0373 01       		.uleb128 0x1
 5942 0374 51       		.byte	0x51
 5943 0375 9F       		.byte	0x9f
 5944 0376 52000000 		.4byte	.LVL46
 5945 037a 5C000000 		.4byte	.LVL47
 5946 037e 0100     		.2byte	0x1
 5947 0380 51       		.byte	0x51
 5948 0381 5C000000 		.4byte	.LVL47
 5949 0385 62000000 		.4byte	.LVL48
 5950 0389 0400     		.2byte	0x4
 5951 038b F3       		.byte	0xf3
 5952 038c 01       		.uleb128 0x1
 5953 038d 51       		.byte	0x51
 5954 038e 9F       		.byte	0x9f
 5955 038f 62000000 		.4byte	.LVL48
 5956 0393 6C000000 		.4byte	.LVL49
 5957 0397 0100     		.2byte	0x1
 5958 0399 51       		.byte	0x51
 5959 039a 6C000000 		.4byte	.LVL49
 5960 039e 72000000 		.4byte	.LVL50
 5961 03a2 0400     		.2byte	0x4
 5962 03a4 F3       		.byte	0xf3
 5963 03a5 01       		.uleb128 0x1
 5964 03a6 51       		.byte	0x51
 5965 03a7 9F       		.byte	0x9f
 5966 03a8 72000000 		.4byte	.LVL50
 5967 03ac 7C000000 		.4byte	.LVL51
 5968 03b0 0100     		.2byte	0x1
 5969 03b2 51       		.byte	0x51
 5970 03b3 7C000000 		.4byte	.LVL51
 5971 03b7 82000000 		.4byte	.LVL52
 5972 03bb 0400     		.2byte	0x4
 5973 03bd F3       		.byte	0xf3
 5974 03be 01       		.uleb128 0x1
 5975 03bf 51       		.byte	0x51
 5976 03c0 9F       		.byte	0x9f
 5977 03c1 82000000 		.4byte	.LVL52
 5978 03c5 8C000000 		.4byte	.LVL53
 5979 03c9 0100     		.2byte	0x1
 5980 03cb 51       		.byte	0x51
 5981 03cc 8C000000 		.4byte	.LVL53
ARM GAS  C:\Users\info\AppData\Local\Temp\ccSLnsSK.s 			page 121


 5982 03d0 92000000 		.4byte	.LVL54
 5983 03d4 0400     		.2byte	0x4
 5984 03d6 F3       		.byte	0xf3
 5985 03d7 01       		.uleb128 0x1
 5986 03d8 51       		.byte	0x51
 5987 03d9 9F       		.byte	0x9f
 5988 03da 92000000 		.4byte	.LVL54
 5989 03de 94000000 		.4byte	.LVL55
 5990 03e2 0100     		.2byte	0x1
 5991 03e4 51       		.byte	0x51
 5992 03e5 94000000 		.4byte	.LVL55
 5993 03e9 96000000 		.4byte	.LFE11
 5994 03ed 0400     		.2byte	0x4
 5995 03ef F3       		.byte	0xf3
 5996 03f0 01       		.uleb128 0x1
 5997 03f1 51       		.byte	0x51
 5998 03f2 9F       		.byte	0x9f
 5999 03f3 00000000 		.4byte	0
 6000 03f7 00000000 		.4byte	0
 6001              	.LLST11:
 6002 03fb 14000000 		.4byte	.LVL39
 6003 03ff 28000000 		.4byte	.LVL41
 6004 0403 0100     		.2byte	0x1
 6005 0405 51       		.byte	0x51
 6006 0406 52000000 		.4byte	.LVL46
 6007 040a 94000000 		.4byte	.LVL55
 6008 040e 0100     		.2byte	0x1
 6009 0410 51       		.byte	0x51
 6010 0411 94000000 		.4byte	.LVL55
 6011 0415 96000000 		.4byte	.LFE11
 6012 0419 0400     		.2byte	0x4
 6013 041b F3       		.byte	0xf3
 6014 041c 01       		.uleb128 0x1
 6015 041d 51       		.byte	0x51
 6016 041e 9F       		.byte	0x9f
 6017 041f 00000000 		.4byte	0
 6018 0423 00000000 		.4byte	0
 6019              	.LLST12:
 6020 0427 14000000 		.4byte	.LVL39
 6021 042b 2A000000 		.4byte	.LVL42
 6022 042f 0100     		.2byte	0x1
 6023 0431 50       		.byte	0x50
 6024 0432 52000000 		.4byte	.LVL46
 6025 0436 96000000 		.4byte	.LFE11
 6026 043a 0100     		.2byte	0x1
 6027 043c 50       		.byte	0x50
 6028 043d 00000000 		.4byte	0
 6029 0441 00000000 		.4byte	0
 6030              	.LLST13:
 6031 0445 00000000 		.4byte	.LVL56
 6032 0449 16000000 		.4byte	.LVL60
 6033 044d 0100     		.2byte	0x1
 6034 044f 50       		.byte	0x50
 6035 0450 16000000 		.4byte	.LVL60
 6036 0454 DA000000 		.4byte	.LFE12
 6037 0458 0100     		.2byte	0x1
 6038 045a 58       		.byte	0x58
ARM GAS  C:\Users\info\AppData\Local\Temp\ccSLnsSK.s 			page 122


 6039 045b 00000000 		.4byte	0
 6040 045f 00000000 		.4byte	0
 6041              	.LLST14:
 6042 0463 00000000 		.4byte	.LVL56
 6043 0467 20000000 		.4byte	.LVL62
 6044 046b 0100     		.2byte	0x1
 6045 046d 51       		.byte	0x51
 6046 046e 20000000 		.4byte	.LVL62
 6047 0472 DA000000 		.4byte	.LFE12
 6048 0476 0300     		.2byte	0x3
 6049 0478 91       		.byte	0x91
 6050 0479 B47F     		.sleb128 -76
 6051 047b 00000000 		.4byte	0
 6052 047f 00000000 		.4byte	0
 6053              	.LLST15:
 6054 0483 00000000 		.4byte	.LVL56
 6055 0487 0E000000 		.4byte	.LVL57
 6056 048b 0100     		.2byte	0x1
 6057 048d 52       		.byte	0x52
 6058 048e 0E000000 		.4byte	.LVL57
 6059 0492 DA000000 		.4byte	.LFE12
 6060 0496 0400     		.2byte	0x4
 6061 0498 F3       		.byte	0xf3
 6062 0499 01       		.uleb128 0x1
 6063 049a 52       		.byte	0x52
 6064 049b 9F       		.byte	0x9f
 6065 049c 00000000 		.4byte	0
 6066 04a0 00000000 		.4byte	0
 6067              	.LLST16:
 6068 04a4 00000000 		.4byte	.LVL56
 6069 04a8 10000000 		.4byte	.LVL58
 6070 04ac 0100     		.2byte	0x1
 6071 04ae 53       		.byte	0x53
 6072 04af 10000000 		.4byte	.LVL58
 6073 04b3 14000000 		.4byte	.LVL59
 6074 04b7 0300     		.2byte	0x3
 6075 04b9 73       		.byte	0x73
 6076 04ba 01       		.sleb128 1
 6077 04bb 9F       		.byte	0x9f
 6078 04bc 14000000 		.4byte	.LVL59
 6079 04c0 2A000000 		.4byte	.LVL63
 6080 04c4 0600     		.2byte	0x6
 6081 04c6 91       		.byte	0x91
 6082 04c7 40       		.sleb128 -64
 6083 04c8 06       		.byte	0x6
 6084 04c9 23       		.byte	0x23
 6085 04ca 01       		.uleb128 0x1
 6086 04cb 9F       		.byte	0x9f
 6087 04cc 2A000000 		.4byte	.LVL63
 6088 04d0 2F000000 		.4byte	.LVL64-1
 6089 04d4 0100     		.2byte	0x1
 6090 04d6 52       		.byte	0x52
 6091 04d7 2F000000 		.4byte	.LVL64-1
 6092 04db 38000000 		.4byte	.LVL65
 6093 04df 0200     		.2byte	0x2
 6094 04e1 91       		.byte	0x91
 6095 04e2 40       		.sleb128 -64
ARM GAS  C:\Users\info\AppData\Local\Temp\ccSLnsSK.s 			page 123


 6096 04e3 38000000 		.4byte	.LVL65
 6097 04e7 D2000000 		.4byte	.LVL79
 6098 04eb 0600     		.2byte	0x6
 6099 04ed 91       		.byte	0x91
 6100 04ee 40       		.sleb128 -64
 6101 04ef 06       		.byte	0x6
 6102 04f0 23       		.byte	0x23
 6103 04f1 01       		.uleb128 0x1
 6104 04f2 9F       		.byte	0x9f
 6105 04f3 D2000000 		.4byte	.LVL79
 6106 04f7 DA000000 		.4byte	.LFE12
 6107 04fb 0200     		.2byte	0x2
 6108 04fd 91       		.byte	0x91
 6109 04fe 40       		.sleb128 -64
 6110 04ff 00000000 		.4byte	0
 6111 0503 00000000 		.4byte	0
 6112              	.LLST17:
 6113 0507 30000000 		.4byte	.LVL64
 6114 050b 7C000000 		.4byte	.LVL67
 6115 050f 0100     		.2byte	0x1
 6116 0511 50       		.byte	0x50
 6117 0512 D2000000 		.4byte	.LVL79
 6118 0516 D4000000 		.4byte	.LVL80
 6119 051a 0100     		.2byte	0x1
 6120 051c 50       		.byte	0x50
 6121 051d 00000000 		.4byte	0
 6122 0521 00000000 		.4byte	0
 6123              	.LLST18:
 6124 0525 00000000 		.4byte	.LVL56
 6125 0529 20000000 		.4byte	.LVL62
 6126 052d 0200     		.2byte	0x2
 6127 052f 30       		.byte	0x30
 6128 0530 9F       		.byte	0x9f
 6129 0531 20000000 		.4byte	.LVL62
 6130 0535 DA000000 		.4byte	.LFE12
 6131 0539 0200     		.2byte	0x2
 6132 053b 91       		.byte	0x91
 6133 053c 44       		.sleb128 -60
 6134 053d 00000000 		.4byte	0
 6135 0541 00000000 		.4byte	0
 6136              	.LLST19:
 6137 0545 78000000 		.4byte	.LVL66
 6138 0549 BC000000 		.4byte	.LVL76
 6139 054d 0100     		.2byte	0x1
 6140 054f 59       		.byte	0x59
 6141 0550 00000000 		.4byte	0
 6142 0554 00000000 		.4byte	0
 6143              	.LLST20:
 6144 0558 78000000 		.4byte	.LVL66
 6145 055c 7C000000 		.4byte	.LVL67
 6146 0560 0100     		.2byte	0x1
 6147 0562 51       		.byte	0x51
 6148 0563 7C000000 		.4byte	.LVL67
 6149 0567 AE000000 		.4byte	.LVL74
 6150 056b 0100     		.2byte	0x1
 6151 056d 57       		.byte	0x57
 6152 056e B8000000 		.4byte	.LVL75
ARM GAS  C:\Users\info\AppData\Local\Temp\ccSLnsSK.s 			page 124


 6153 0572 BC000000 		.4byte	.LVL76
 6154 0576 0100     		.2byte	0x1
 6155 0578 57       		.byte	0x57
 6156 0579 00000000 		.4byte	0
 6157 057d 00000000 		.4byte	0
 6158              	.LLST21:
 6159 0581 78000000 		.4byte	.LVL66
 6160 0585 BC000000 		.4byte	.LVL76
 6161 0589 0300     		.2byte	0x3
 6162 058b 91       		.byte	0x91
 6163 058c B47F     		.sleb128 -76
 6164 058e 00000000 		.4byte	0
 6165 0592 00000000 		.4byte	0
 6166              	.LLST22:
 6167 0596 78000000 		.4byte	.LVL66
 6168 059a BC000000 		.4byte	.LVL76
 6169 059e 0100     		.2byte	0x1
 6170 05a0 58       		.byte	0x58
 6171 05a1 00000000 		.4byte	0
 6172 05a5 00000000 		.4byte	0
 6173              	.LLST23:
 6174 05a9 78000000 		.4byte	.LVL66
 6175 05ad BC000000 		.4byte	.LVL76
 6176 05b1 0100     		.2byte	0x1
 6177 05b3 5A       		.byte	0x5a
 6178 05b4 00000000 		.4byte	0
 6179 05b8 00000000 		.4byte	0
 6180              	.LLST24:
 6181 05bc 78000000 		.4byte	.LVL66
 6182 05c0 BC000000 		.4byte	.LVL76
 6183 05c4 0300     		.2byte	0x3
 6184 05c6 91       		.byte	0x91
 6185 05c7 B87F     		.sleb128 -72
 6186 05c9 00000000 		.4byte	0
 6187 05cd 00000000 		.4byte	0
 6188              	.LLST25:
 6189 05d1 80000000 		.4byte	.LVL68
 6190 05d5 92000000 		.4byte	.LVL70
 6191 05d9 0100     		.2byte	0x1
 6192 05db 54       		.byte	0x54
 6193 05dc A6000000 		.4byte	.LVL73
 6194 05e0 D2000000 		.4byte	.LVL79
 6195 05e4 0100     		.2byte	0x1
 6196 05e6 54       		.byte	0x54
 6197 05e7 00000000 		.4byte	0
 6198 05eb 00000000 		.4byte	0
 6199              	.LLST26:
 6200 05ef 78000000 		.4byte	.LVL66
 6201 05f3 7C000000 		.4byte	.LVL67
 6202 05f7 0200     		.2byte	0x2
 6203 05f9 30       		.byte	0x30
 6204 05fa 9F       		.byte	0x9f
 6205 05fb 7C000000 		.4byte	.LVL67
 6206 05ff 80000000 		.4byte	.LVL68
 6207 0603 0300     		.2byte	0x3
 6208 0605 91       		.byte	0x91
 6209 0606 B07F     		.sleb128 -80
ARM GAS  C:\Users\info\AppData\Local\Temp\ccSLnsSK.s 			page 125


 6210 0608 80000000 		.4byte	.LVL68
 6211 060c A2000000 		.4byte	.LVL72
 6212 0610 0100     		.2byte	0x1
 6213 0612 55       		.byte	0x55
 6214 0613 A6000000 		.4byte	.LVL73
 6215 0617 BC000000 		.4byte	.LVL76
 6216 061b 0100     		.2byte	0x1
 6217 061d 55       		.byte	0x55
 6218 061e 00000000 		.4byte	0
 6219 0622 00000000 		.4byte	0
 6220              	.LLST27:
 6221 0626 00000000 		.4byte	.LVL82
 6222 062a 16000000 		.4byte	.LVL84
 6223 062e 0100     		.2byte	0x1
 6224 0630 50       		.byte	0x50
 6225 0631 16000000 		.4byte	.LVL84
 6226 0635 8A000000 		.4byte	.LFE2
 6227 0639 0100     		.2byte	0x1
 6228 063b 59       		.byte	0x59
 6229 063c 00000000 		.4byte	0
 6230 0640 00000000 		.4byte	0
 6231              	.LLST28:
 6232 0644 00000000 		.4byte	.LVL82
 6233 0648 10000000 		.4byte	.LVL83
 6234 064c 0100     		.2byte	0x1
 6235 064e 51       		.byte	0x51
 6236 064f 10000000 		.4byte	.LVL83
 6237 0653 8A000000 		.4byte	.LFE2
 6238 0657 0400     		.2byte	0x4
 6239 0659 F3       		.byte	0xf3
 6240 065a 01       		.uleb128 0x1
 6241 065b 51       		.byte	0x51
 6242 065c 9F       		.byte	0x9f
 6243 065d 00000000 		.4byte	0
 6244 0661 00000000 		.4byte	0
 6245              	.LLST29:
 6246 0665 00000000 		.4byte	.LVL82
 6247 0669 18000000 		.4byte	.LVL85
 6248 066d 0100     		.2byte	0x1
 6249 066f 52       		.byte	0x52
 6250 0670 18000000 		.4byte	.LVL85
 6251 0674 44000000 		.4byte	.LVL90
 6252 0678 0400     		.2byte	0x4
 6253 067a F3       		.byte	0xf3
 6254 067b 01       		.uleb128 0x1
 6255 067c 52       		.byte	0x52
 6256 067d 9F       		.byte	0x9f
 6257 067e 44000000 		.4byte	.LVL90
 6258 0682 76000000 		.4byte	.LVL97
 6259 0686 0100     		.2byte	0x1
 6260 0688 57       		.byte	0x57
 6261 0689 80000000 		.4byte	.LVL98
 6262 068d 8A000000 		.4byte	.LFE2
 6263 0691 0100     		.2byte	0x1
 6264 0693 57       		.byte	0x57
 6265 0694 00000000 		.4byte	0
 6266 0698 00000000 		.4byte	0
ARM GAS  C:\Users\info\AppData\Local\Temp\ccSLnsSK.s 			page 126


 6267              	.LLST30:
 6268 069c 00000000 		.4byte	.LVL82
 6269 06a0 1C000000 		.4byte	.LVL86
 6270 06a4 0100     		.2byte	0x1
 6271 06a6 53       		.byte	0x53
 6272 06a7 1C000000 		.4byte	.LVL86
 6273 06ab 8A000000 		.4byte	.LFE2
 6274 06af 0400     		.2byte	0x4
 6275 06b1 F3       		.byte	0xf3
 6276 06b2 01       		.uleb128 0x1
 6277 06b3 53       		.byte	0x53
 6278 06b4 9F       		.byte	0x9f
 6279 06b5 00000000 		.4byte	0
 6280 06b9 00000000 		.4byte	0
 6281              	.LLST31:
 6282 06bd 16000000 		.4byte	.LVL84
 6283 06c1 32000000 		.4byte	.LVL87
 6284 06c5 0100     		.2byte	0x1
 6285 06c7 50       		.byte	0x50
 6286 06c8 32000000 		.4byte	.LVL87
 6287 06cc 8A000000 		.4byte	.LFE2
 6288 06d0 0100     		.2byte	0x1
 6289 06d2 58       		.byte	0x58
 6290 06d3 00000000 		.4byte	0
 6291 06d7 00000000 		.4byte	0
 6292              	.LLST32:
 6293 06db 32000000 		.4byte	.LVL87
 6294 06df 38000000 		.4byte	.LVL88
 6295 06e3 0100     		.2byte	0x1
 6296 06e5 53       		.byte	0x53
 6297 06e6 38000000 		.4byte	.LVL88
 6298 06ea 3C000000 		.4byte	.LVL89
 6299 06ee 0200     		.2byte	0x2
 6300 06f0 71       		.byte	0x71
 6301 06f1 03       		.sleb128 3
 6302 06f2 3C000000 		.4byte	.LVL89
 6303 06f6 8A000000 		.4byte	.LFE2
 6304 06fa 0200     		.2byte	0x2
 6305 06fc 91       		.byte	0x91
 6306 06fd 44       		.sleb128 -60
 6307 06fe 00000000 		.4byte	0
 6308 0702 00000000 		.4byte	0
 6309              	.LLST33:
 6310 0706 48000000 		.4byte	.LVL91
 6311 070a 5A000000 		.4byte	.LVL93
 6312 070e 0100     		.2byte	0x1
 6313 0710 54       		.byte	0x54
 6314 0711 6E000000 		.4byte	.LVL96
 6315 0715 8A000000 		.4byte	.LFE2
 6316 0719 0100     		.2byte	0x1
 6317 071b 54       		.byte	0x54
 6318 071c 00000000 		.4byte	0
 6319 0720 00000000 		.4byte	0
 6320              	.LLST34:
 6321 0724 3C000000 		.4byte	.LVL89
 6322 0728 44000000 		.4byte	.LVL90
 6323 072c 0200     		.2byte	0x2
ARM GAS  C:\Users\info\AppData\Local\Temp\ccSLnsSK.s 			page 127


 6324 072e 30       		.byte	0x30
 6325 072f 9F       		.byte	0x9f
 6326 0730 44000000 		.4byte	.LVL90
 6327 0734 48000000 		.4byte	.LVL91
 6328 0738 0200     		.2byte	0x2
 6329 073a 91       		.byte	0x91
 6330 073b 40       		.sleb128 -64
 6331 073c 48000000 		.4byte	.LVL91
 6332 0740 6A000000 		.4byte	.LVL95
 6333 0744 0100     		.2byte	0x1
 6334 0746 55       		.byte	0x55
 6335 0747 6E000000 		.4byte	.LVL96
 6336 074b 8A000000 		.4byte	.LFE2
 6337 074f 0100     		.2byte	0x1
 6338 0751 55       		.byte	0x55
 6339 0752 00000000 		.4byte	0
 6340 0756 00000000 		.4byte	0
 6341              	.LLST35:
 6342 075a 00000000 		.4byte	.LVL99
 6343 075e 10000000 		.4byte	.LVL100
 6344 0762 0100     		.2byte	0x1
 6345 0764 50       		.byte	0x50
 6346 0765 10000000 		.4byte	.LVL100
 6347 0769 24000000 		.4byte	.LFE3
 6348 076d 0400     		.2byte	0x4
 6349 076f F3       		.byte	0xf3
 6350 0770 01       		.uleb128 0x1
 6351 0771 50       		.byte	0x50
 6352 0772 9F       		.byte	0x9f
 6353 0773 00000000 		.4byte	0
 6354 0777 00000000 		.4byte	0
 6355              	.LLST36:
 6356 077b 00000000 		.4byte	.LVL99
 6357 077f 10000000 		.4byte	.LVL100
 6358 0783 0600     		.2byte	0x6
 6359 0785 70       		.byte	0x70
 6360 0786 00       		.sleb128 0
 6361 0787 08       		.byte	0x8
 6362 0788 FF       		.byte	0xff
 6363 0789 1A       		.byte	0x1a
 6364 078a 9F       		.byte	0x9f
 6365 078b 10000000 		.4byte	.LVL100
 6366 078f 1E000000 		.4byte	.LVL105
 6367 0793 0100     		.2byte	0x1
 6368 0795 50       		.byte	0x50
 6369 0796 1E000000 		.4byte	.LVL105
 6370 079a 22000000 		.4byte	.LVL106
 6371 079e 0800     		.2byte	0x8
 6372 07a0 70       		.byte	0x70
 6373 07a1 00       		.sleb128 0
 6374 07a2 31       		.byte	0x31
 6375 07a3 24       		.byte	0x24
 6376 07a4 70       		.byte	0x70
 6377 07a5 00       		.sleb128 0
 6378 07a6 21       		.byte	0x21
 6379 07a7 9F       		.byte	0x9f
 6380 07a8 00000000 		.4byte	0
ARM GAS  C:\Users\info\AppData\Local\Temp\ccSLnsSK.s 			page 128


 6381 07ac 00000000 		.4byte	0
 6382              	.LLST37:
 6383 07b0 00000000 		.4byte	.LVL107
 6384 07b4 0C000000 		.4byte	.LVL109
 6385 07b8 0100     		.2byte	0x1
 6386 07ba 50       		.byte	0x50
 6387 07bb 0C000000 		.4byte	.LVL109
 6388 07bf 90010000 		.4byte	.LFE18
 6389 07c3 0100     		.2byte	0x1
 6390 07c5 5B       		.byte	0x5b
 6391 07c6 00000000 		.4byte	0
 6392 07ca 00000000 		.4byte	0
 6393              	.LLST38:
 6394 07ce 00000000 		.4byte	.LVL107
 6395 07d2 18000000 		.4byte	.LVL111
 6396 07d6 0100     		.2byte	0x1
 6397 07d8 51       		.byte	0x51
 6398 07d9 18000000 		.4byte	.LVL111
 6399 07dd 7C010000 		.4byte	.LVL141
 6400 07e1 0100     		.2byte	0x1
 6401 07e3 5A       		.byte	0x5a
 6402 07e4 84010000 		.4byte	.LVL142
 6403 07e8 90010000 		.4byte	.LFE18
 6404 07ec 0100     		.2byte	0x1
 6405 07ee 5A       		.byte	0x5a
 6406 07ef 00000000 		.4byte	0
 6407 07f3 00000000 		.4byte	0
 6408              	.LLST39:
 6409 07f7 00000000 		.4byte	.LVL107
 6410 07fb 18000000 		.4byte	.LVL111
 6411 07ff 0100     		.2byte	0x1
 6412 0801 52       		.byte	0x52
 6413 0802 18000000 		.4byte	.LVL111
 6414 0806 90010000 		.4byte	.LFE18
 6415 080a 0400     		.2byte	0x4
 6416 080c F3       		.byte	0xf3
 6417 080d 01       		.uleb128 0x1
 6418 080e 52       		.byte	0x52
 6419 080f 9F       		.byte	0x9f
 6420 0810 00000000 		.4byte	0
 6421 0814 00000000 		.4byte	0
 6422              	.LLST40:
 6423 0818 00000000 		.4byte	.LVL107
 6424 081c 0E000000 		.4byte	.LVL110
 6425 0820 0100     		.2byte	0x1
 6426 0822 53       		.byte	0x53
 6427 0823 0E000000 		.4byte	.LVL110
 6428 0827 18000000 		.4byte	.LVL111
 6429 082b 0300     		.2byte	0x3
 6430 082d 73       		.byte	0x73
 6431 082e 01       		.sleb128 1
 6432 082f 9F       		.byte	0x9f
 6433 0830 18000000 		.4byte	.LVL111
 6434 0834 22000000 		.4byte	.LVL112
 6435 0838 0700     		.2byte	0x7
 6436 083a 91       		.byte	0x91
 6437 083b B87F     		.sleb128 -72
ARM GAS  C:\Users\info\AppData\Local\Temp\ccSLnsSK.s 			page 129


 6438 083d 06       		.byte	0x6
 6439 083e 23       		.byte	0x23
 6440 083f 01       		.uleb128 0x1
 6441 0840 9F       		.byte	0x9f
 6442 0841 22000000 		.4byte	.LVL112
 6443 0845 27000000 		.4byte	.LVL113-1
 6444 0849 0100     		.2byte	0x1
 6445 084b 52       		.byte	0x52
 6446 084c 27000000 		.4byte	.LVL113-1
 6447 0850 32000000 		.4byte	.LVL114
 6448 0854 0300     		.2byte	0x3
 6449 0856 91       		.byte	0x91
 6450 0857 B87F     		.sleb128 -72
 6451 0859 32000000 		.4byte	.LVL114
 6452 085d 88010000 		.4byte	.LVL144
 6453 0861 0700     		.2byte	0x7
 6454 0863 91       		.byte	0x91
 6455 0864 B87F     		.sleb128 -72
 6456 0866 06       		.byte	0x6
 6457 0867 23       		.byte	0x23
 6458 0868 01       		.uleb128 0x1
 6459 0869 9F       		.byte	0x9f
 6460 086a 88010000 		.4byte	.LVL144
 6461 086e 90010000 		.4byte	.LFE18
 6462 0872 0300     		.2byte	0x3
 6463 0874 91       		.byte	0x91
 6464 0875 B87F     		.sleb128 -72
 6465 0877 00000000 		.4byte	0
 6466 087b 00000000 		.4byte	0
 6467              	.LLST41:
 6468 087f 28000000 		.4byte	.LVL113
 6469 0883 66000000 		.4byte	.LVL120
 6470 0887 0100     		.2byte	0x1
 6471 0889 50       		.byte	0x50
 6472 088a 88010000 		.4byte	.LVL144
 6473 088e 8A010000 		.4byte	.LVL145
 6474 0892 0100     		.2byte	0x1
 6475 0894 50       		.byte	0x50
 6476 0895 00000000 		.4byte	0
 6477 0899 00000000 		.4byte	0
 6478              	.LLST42:
 6479 089d 00000000 		.4byte	.LVL107
 6480 08a1 18000000 		.4byte	.LVL111
 6481 08a5 0200     		.2byte	0x2
 6482 08a7 30       		.byte	0x30
 6483 08a8 9F       		.byte	0x9f
 6484 08a9 18000000 		.4byte	.LVL111
 6485 08ad 90010000 		.4byte	.LFE18
 6486 08b1 0300     		.2byte	0x3
 6487 08b3 91       		.byte	0x91
 6488 08b4 B47F     		.sleb128 -76
 6489 08b6 00000000 		.4byte	0
 6490 08ba 00000000 		.4byte	0
 6491              	.LLST43:
 6492 08be 06000000 		.4byte	.LVL108
 6493 08c2 0C000000 		.4byte	.LVL109
 6494 08c6 0100     		.2byte	0x1
ARM GAS  C:\Users\info\AppData\Local\Temp\ccSLnsSK.s 			page 130


 6495 08c8 50       		.byte	0x50
 6496 08c9 0C000000 		.4byte	.LVL109
 6497 08cd 90010000 		.4byte	.LFE18
 6498 08d1 0100     		.2byte	0x1
 6499 08d3 5B       		.byte	0x5b
 6500 08d4 00000000 		.4byte	0
 6501 08d8 00000000 		.4byte	0
 6502              	.LLST44:
 6503 08dc 48000000 		.4byte	.LVL115
 6504 08e0 76010000 		.4byte	.LVL140
 6505 08e4 0300     		.2byte	0x3
 6506 08e6 91       		.byte	0x91
 6507 08e7 A07F     		.sleb128 -96
 6508 08e9 00000000 		.4byte	0
 6509 08ed 00000000 		.4byte	0
 6510              	.LLST45:
 6511 08f1 48000000 		.4byte	.LVL115
 6512 08f5 66000000 		.4byte	.LVL120
 6513 08f9 0300     		.2byte	0x3
 6514 08fb 91       		.byte	0x91
 6515 08fc BC7F     		.sleb128 -68
 6516 08fe 66000000 		.4byte	.LVL120
 6517 0902 6A010000 		.4byte	.LVL138
 6518 0906 0100     		.2byte	0x1
 6519 0908 57       		.byte	0x57
 6520 0909 6E010000 		.4byte	.LVL139
 6521 090d 76010000 		.4byte	.LVL140
 6522 0911 0100     		.2byte	0x1
 6523 0913 57       		.byte	0x57
 6524 0914 00000000 		.4byte	0
 6525 0918 00000000 		.4byte	0
 6526              	.LLST46:
 6527 091c 48000000 		.4byte	.LVL115
 6528 0920 76010000 		.4byte	.LVL140
 6529 0924 0100     		.2byte	0x1
 6530 0926 5A       		.byte	0x5a
 6531 0927 00000000 		.4byte	0
 6532 092b 00000000 		.4byte	0
 6533              	.LLST47:
 6534 092f 48000000 		.4byte	.LVL115
 6535 0933 76010000 		.4byte	.LVL140
 6536 0937 0100     		.2byte	0x1
 6537 0939 5B       		.byte	0x5b
 6538 093a 00000000 		.4byte	0
 6539 093e 00000000 		.4byte	0
 6540              	.LLST48:
 6541 0942 4A000000 		.4byte	.LVL116
 6542 0946 4E000000 		.4byte	.LVL118
 6543 094a 0100     		.2byte	0x1
 6544 094c 52       		.byte	0x52
 6545 094d 4E000000 		.4byte	.LVL118
 6546 0951 66000000 		.4byte	.LVL120
 6547 0955 0700     		.2byte	0x7
 6548 0957 91       		.byte	0x91
 6549 0958 A87F     		.sleb128 -88
 6550 095a 06       		.byte	0x6
 6551 095b 06       		.byte	0x6
ARM GAS  C:\Users\info\AppData\Local\Temp\ccSLnsSK.s 			page 131


 6552 095c 23       		.byte	0x23
 6553 095d 02       		.uleb128 0x2
 6554 095e 66000000 		.4byte	.LVL120
 6555 0962 76010000 		.4byte	.LVL140
 6556 0966 0300     		.2byte	0x3
 6557 0968 91       		.byte	0x91
 6558 0969 A47F     		.sleb128 -92
 6559 096b 00000000 		.4byte	0
 6560 096f 00000000 		.4byte	0
 6561              	.LLST49:
 6562 0973 4C000000 		.4byte	.LVL117
 6563 0977 52000000 		.4byte	.LVL119
 6564 097b 0100     		.2byte	0x1
 6565 097d 53       		.byte	0x53
 6566 097e 52000000 		.4byte	.LVL119
 6567 0982 66000000 		.4byte	.LVL120
 6568 0986 0700     		.2byte	0x7
 6569 0988 91       		.byte	0x91
 6570 0989 A87F     		.sleb128 -88
 6571 098b 06       		.byte	0x6
 6572 098c 06       		.byte	0x6
 6573 098d 23       		.byte	0x23
 6574 098e 03       		.uleb128 0x3
 6575 098f 66000000 		.4byte	.LVL120
 6576 0993 76010000 		.4byte	.LVL140
 6577 0997 0300     		.2byte	0x3
 6578 0999 91       		.byte	0x91
 6579 099a B07F     		.sleb128 -80
 6580 099c 00000000 		.4byte	0
 6581 09a0 00000000 		.4byte	0
 6582              	.LLST50:
 6583 09a4 28010000 		.4byte	.LVL131
 6584 09a8 66010000 		.4byte	.LVL137
 6585 09ac 0100     		.2byte	0x1
 6586 09ae 55       		.byte	0x55
 6587 09af 00000000 		.4byte	0
 6588 09b3 00000000 		.4byte	0
 6589              	.LLST51:
 6590 09b7 66000000 		.4byte	.LVL120
 6591 09bb 78000000 		.4byte	.LVL121
 6592 09bf 0100     		.2byte	0x1
 6593 09c1 59       		.byte	0x59
 6594 09c2 28010000 		.4byte	.LVL131
 6595 09c6 5E010000 		.4byte	.LVL136
 6596 09ca 0600     		.2byte	0x6
 6597 09cc 79       		.byte	0x79
 6598 09cd 00       		.sleb128 0
 6599 09ce 74       		.byte	0x74
 6600 09cf 00       		.sleb128 0
 6601 09d0 22       		.byte	0x22
 6602 09d1 9F       		.byte	0x9f
 6603 09d2 66010000 		.4byte	.LVL137
 6604 09d6 76010000 		.4byte	.LVL140
 6605 09da 0100     		.2byte	0x1
 6606 09dc 54       		.byte	0x54
 6607 09dd 00000000 		.4byte	0
 6608 09e1 00000000 		.4byte	0
ARM GAS  C:\Users\info\AppData\Local\Temp\ccSLnsSK.s 			page 132


 6609              	.LLST52:
 6610 09e5 28010000 		.4byte	.LVL131
 6611 09e9 56010000 		.4byte	.LVL135
 6612 09ed 0600     		.2byte	0x6
 6613 09ef 79       		.byte	0x79
 6614 09f0 00       		.sleb128 0
 6615 09f1 74       		.byte	0x74
 6616 09f2 00       		.sleb128 0
 6617 09f3 22       		.byte	0x22
 6618 09f4 9F       		.byte	0x9f
 6619 09f5 00000000 		.4byte	0
 6620 09f9 00000000 		.4byte	0
 6621              	.LLST53:
 6622 09fd 28010000 		.4byte	.LVL131
 6623 0a01 56010000 		.4byte	.LVL135
 6624 0a05 0100     		.2byte	0x1
 6625 0a07 57       		.byte	0x57
 6626 0a08 00000000 		.4byte	0
 6627 0a0c 00000000 		.4byte	0
 6628              	.LLST54:
 6629 0a10 28010000 		.4byte	.LVL131
 6630 0a14 56010000 		.4byte	.LVL135
 6631 0a18 0100     		.2byte	0x1
 6632 0a1a 55       		.byte	0x55
 6633 0a1b 00000000 		.4byte	0
 6634 0a1f 00000000 		.4byte	0
 6635              	.LLST55:
 6636 0a23 28010000 		.4byte	.LVL131
 6637 0a27 56010000 		.4byte	.LVL135
 6638 0a2b 0100     		.2byte	0x1
 6639 0a2d 5B       		.byte	0x5b
 6640 0a2e 00000000 		.4byte	0
 6641 0a32 00000000 		.4byte	0
 6642              	.LLST56:
 6643 0a36 28010000 		.4byte	.LVL131
 6644 0a3a 3A010000 		.4byte	.LVL132
 6645 0a3e 0200     		.2byte	0x2
 6646 0a40 37       		.byte	0x37
 6647 0a41 9F       		.byte	0x9f
 6648 0a42 3A010000 		.4byte	.LVL132
 6649 0a46 56010000 		.4byte	.LVL135
 6650 0a4a 0200     		.2byte	0x2
 6651 0a4c 38       		.byte	0x38
 6652 0a4d 9F       		.byte	0x9f
 6653 0a4e 00000000 		.4byte	0
 6654 0a52 00000000 		.4byte	0
 6655              	.LLST57:
 6656 0a56 28010000 		.4byte	.LVL131
 6657 0a5a 3C010000 		.4byte	.LVL133
 6658 0a5e 0100     		.2byte	0x1
 6659 0a60 50       		.byte	0x50
 6660 0a61 00000000 		.4byte	0
 6661 0a65 00000000 		.4byte	0
 6662              	.LLST58:
 6663 0a69 00000000 		.4byte	.LVL146
 6664 0a6d 0C000000 		.4byte	.LVL148
 6665 0a71 0100     		.2byte	0x1
ARM GAS  C:\Users\info\AppData\Local\Temp\ccSLnsSK.s 			page 133


 6666 0a73 50       		.byte	0x50
 6667 0a74 0C000000 		.4byte	.LVL148
 6668 0a78 14000000 		.4byte	.LVL149
 6669 0a7c 0100     		.2byte	0x1
 6670 0a7e 52       		.byte	0x52
 6671 0a7f 14000000 		.4byte	.LVL149
 6672 0a83 A4010000 		.4byte	.LFE6
 6673 0a87 0100     		.2byte	0x1
 6674 0a89 59       		.byte	0x59
 6675 0a8a 00000000 		.4byte	0
 6676 0a8e 00000000 		.4byte	0
 6677              	.LLST59:
 6678 0a92 00000000 		.4byte	.LVL146
 6679 0a96 14000000 		.4byte	.LVL149
 6680 0a9a 0100     		.2byte	0x1
 6681 0a9c 51       		.byte	0x51
 6682 0a9d 14000000 		.4byte	.LVL149
 6683 0aa1 A4010000 		.4byte	.LFE6
 6684 0aa5 0400     		.2byte	0x4
 6685 0aa7 F3       		.byte	0xf3
 6686 0aa8 01       		.uleb128 0x1
 6687 0aa9 51       		.byte	0x51
 6688 0aaa 9F       		.byte	0x9f
 6689 0aab 00000000 		.4byte	0
 6690 0aaf 00000000 		.4byte	0
 6691              	.LLST60:
 6692 0ab3 00000000 		.4byte	.LVL146
 6693 0ab7 0A000000 		.4byte	.LVL147
 6694 0abb 0100     		.2byte	0x1
 6695 0abd 52       		.byte	0x52
 6696 0abe 0A000000 		.4byte	.LVL147
 6697 0ac2 40000000 		.4byte	.LVL154
 6698 0ac6 0400     		.2byte	0x4
 6699 0ac8 F3       		.byte	0xf3
 6700 0ac9 01       		.uleb128 0x1
 6701 0aca 52       		.byte	0x52
 6702 0acb 9F       		.byte	0x9f
 6703 0acc 40000000 		.4byte	.LVL154
 6704 0ad0 8E010000 		.4byte	.LVL177
 6705 0ad4 0100     		.2byte	0x1
 6706 0ad6 5B       		.byte	0x5b
 6707 0ad7 94010000 		.4byte	.LVL178
 6708 0adb A4010000 		.4byte	.LFE6
 6709 0adf 0100     		.2byte	0x1
 6710 0ae1 5B       		.byte	0x5b
 6711 0ae2 00000000 		.4byte	0
 6712 0ae6 00000000 		.4byte	0
 6713              	.LLST61:
 6714 0aea 00000000 		.4byte	.LVL146
 6715 0aee 18000000 		.4byte	.LVL150
 6716 0af2 0100     		.2byte	0x1
 6717 0af4 53       		.byte	0x53
 6718 0af5 18000000 		.4byte	.LVL150
 6719 0af9 A4010000 		.4byte	.LFE6
 6720 0afd 0400     		.2byte	0x4
 6721 0aff F3       		.byte	0xf3
 6722 0b00 01       		.uleb128 0x1
ARM GAS  C:\Users\info\AppData\Local\Temp\ccSLnsSK.s 			page 134


 6723 0b01 53       		.byte	0x53
 6724 0b02 9F       		.byte	0x9f
 6725 0b03 00000000 		.4byte	0
 6726 0b07 00000000 		.4byte	0
 6727              	.LLST62:
 6728 0b0b 24000000 		.4byte	.LVL151
 6729 0b0f 2E000000 		.4byte	.LVL152
 6730 0b13 0800     		.2byte	0x8
 6731 0b15 72       		.byte	0x72
 6732 0b16 00       		.sleb128 0
 6733 0b17 31       		.byte	0x31
 6734 0b18 24       		.byte	0x24
 6735 0b19 08       		.byte	0x8
 6736 0b1a FE       		.byte	0xfe
 6737 0b1b 1A       		.byte	0x1a
 6738 0b1c 9F       		.byte	0x9f
 6739 0b1d 2E000000 		.4byte	.LVL152
 6740 0b21 3C000000 		.4byte	.LVL153
 6741 0b25 0D00     		.2byte	0xd
 6742 0b27 71       		.byte	0x71
 6743 0b28 02       		.sleb128 2
 6744 0b29 94       		.byte	0x94
 6745 0b2a 01       		.byte	0x1
 6746 0b2b 08       		.byte	0x8
 6747 0b2c FF       		.byte	0xff
 6748 0b2d 1A       		.byte	0x1a
 6749 0b2e 31       		.byte	0x31
 6750 0b2f 24       		.byte	0x24
 6751 0b30 08       		.byte	0x8
 6752 0b31 FE       		.byte	0xfe
 6753 0b32 1A       		.byte	0x1a
 6754 0b33 9F       		.byte	0x9f
 6755 0b34 3C000000 		.4byte	.LVL153
 6756 0b38 A4010000 		.4byte	.LFE6
 6757 0b3c 0300     		.2byte	0x3
 6758 0b3e 91       		.byte	0x91
 6759 0b3f A87F     		.sleb128 -88
 6760 0b41 00000000 		.4byte	0
 6761 0b45 00000000 		.4byte	0
 6762              	.LLST63:
 6763 0b49 0A010000 		.4byte	.LVL165
 6764 0b4d 84010000 		.4byte	.LVL176
 6765 0b51 0100     		.2byte	0x1
 6766 0b53 57       		.byte	0x57
 6767 0b54 00000000 		.4byte	0
 6768 0b58 00000000 		.4byte	0
 6769              	.LLST64:
 6770 0b5c 3C000000 		.4byte	.LVL153
 6771 0b60 40000000 		.4byte	.LVL154
 6772 0b64 0200     		.2byte	0x2
 6773 0b66 30       		.byte	0x30
 6774 0b67 9F       		.byte	0x9f
 6775 0b68 40000000 		.4byte	.LVL154
 6776 0b6c 52000000 		.4byte	.LVL155
 6777 0b70 0300     		.2byte	0x3
 6778 0b72 91       		.byte	0x91
 6779 0b73 A07F     		.sleb128 -96
ARM GAS  C:\Users\info\AppData\Local\Temp\ccSLnsSK.s 			page 135


 6780 0b75 84010000 		.4byte	.LVL176
 6781 0b79 A4010000 		.4byte	.LFE6
 6782 0b7d 0100     		.2byte	0x1
 6783 0b7f 56       		.byte	0x56
 6784 0b80 00000000 		.4byte	0
 6785 0b84 00000000 		.4byte	0
 6786              	.LLST65:
 6787 0b88 0A010000 		.4byte	.LVL165
 6788 0b8c 70010000 		.4byte	.LVL175
 6789 0b90 0100     		.2byte	0x1
 6790 0b92 5B       		.byte	0x5b
 6791 0b93 00000000 		.4byte	0
 6792 0b97 00000000 		.4byte	0
 6793              	.LLST66:
 6794 0b9b 0A010000 		.4byte	.LVL165
 6795 0b9f 70010000 		.4byte	.LVL175
 6796 0ba3 0100     		.2byte	0x1
 6797 0ba5 57       		.byte	0x57
 6798 0ba6 00000000 		.4byte	0
 6799 0baa 00000000 		.4byte	0
 6800              	.LLST67:
 6801 0bae 0A010000 		.4byte	.LVL165
 6802 0bb2 70010000 		.4byte	.LVL175
 6803 0bb6 0100     		.2byte	0x1
 6804 0bb8 59       		.byte	0x59
 6805 0bb9 00000000 		.4byte	0
 6806 0bbd 00000000 		.4byte	0
 6807              	.LLST68:
 6808 0bc1 0A010000 		.4byte	.LVL165
 6809 0bc5 12010000 		.4byte	.LVL167
 6810 0bc9 0200     		.2byte	0x2
 6811 0bcb 37       		.byte	0x37
 6812 0bcc 9F       		.byte	0x9f
 6813 0bcd 12010000 		.4byte	.LVL167
 6814 0bd1 70010000 		.4byte	.LVL175
 6815 0bd5 0200     		.2byte	0x2
 6816 0bd7 38       		.byte	0x38
 6817 0bd8 9F       		.byte	0x9f
 6818 0bd9 00000000 		.4byte	0
 6819 0bdd 00000000 		.4byte	0
 6820              	.LLST69:
 6821 0be1 0A010000 		.4byte	.LVL165
 6822 0be5 0E010000 		.4byte	.LVL166
 6823 0be9 0100     		.2byte	0x1
 6824 0beb 50       		.byte	0x50
 6825 0bec 00000000 		.4byte	0
 6826 0bf0 00000000 		.4byte	0
 6827              	.LLST70:
 6828 0bf4 00000000 		.4byte	.LVL179
 6829 0bf8 08000000 		.4byte	.LVL181
 6830 0bfc 0100     		.2byte	0x1
 6831 0bfe 50       		.byte	0x50
 6832 0bff 08000000 		.4byte	.LVL181
 6833 0c03 4A000000 		.4byte	.LFE15
 6834 0c07 0100     		.2byte	0x1
 6835 0c09 54       		.byte	0x54
 6836 0c0a 00000000 		.4byte	0
ARM GAS  C:\Users\info\AppData\Local\Temp\ccSLnsSK.s 			page 136


 6837 0c0e 00000000 		.4byte	0
 6838              	.LLST71:
 6839 0c12 00000000 		.4byte	.LVL179
 6840 0c16 1C000000 		.4byte	.LVL182
 6841 0c1a 0100     		.2byte	0x1
 6842 0c1c 51       		.byte	0x51
 6843 0c1d 1C000000 		.4byte	.LVL182
 6844 0c21 38000000 		.4byte	.LVL186
 6845 0c25 0100     		.2byte	0x1
 6846 0c27 55       		.byte	0x55
 6847 0c28 40000000 		.4byte	.LVL189
 6848 0c2c 4A000000 		.4byte	.LFE15
 6849 0c30 0100     		.2byte	0x1
 6850 0c32 55       		.byte	0x55
 6851 0c33 00000000 		.4byte	0
 6852 0c37 00000000 		.4byte	0
 6853              	.LLST72:
 6854 0c3b 00000000 		.4byte	.LVL179
 6855 0c3f 1C000000 		.4byte	.LVL182
 6856 0c43 0100     		.2byte	0x1
 6857 0c45 52       		.byte	0x52
 6858 0c46 1C000000 		.4byte	.LVL182
 6859 0c4a 4A000000 		.4byte	.LFE15
 6860 0c4e 0400     		.2byte	0x4
 6861 0c50 F3       		.byte	0xf3
 6862 0c51 01       		.uleb128 0x1
 6863 0c52 52       		.byte	0x52
 6864 0c53 9F       		.byte	0x9f
 6865 0c54 00000000 		.4byte	0
 6866 0c58 00000000 		.4byte	0
 6867              	.LLST73:
 6868 0c5c 00000000 		.4byte	.LVL179
 6869 0c60 1C000000 		.4byte	.LVL182
 6870 0c64 0100     		.2byte	0x1
 6871 0c66 53       		.byte	0x53
 6872 0c67 1C000000 		.4byte	.LVL182
 6873 0c6b 22000000 		.4byte	.LVL183
 6874 0c6f 0300     		.2byte	0x3
 6875 0c71 76       		.byte	0x76
 6876 0c72 01       		.sleb128 1
 6877 0c73 9F       		.byte	0x9f
 6878 0c74 22000000 		.4byte	.LVL183
 6879 0c78 26000000 		.4byte	.LVL184
 6880 0c7c 0100     		.2byte	0x1
 6881 0c7e 56       		.byte	0x56
 6882 0c7f 26000000 		.4byte	.LVL184
 6883 0c83 4A000000 		.4byte	.LFE15
 6884 0c87 0300     		.2byte	0x3
 6885 0c89 76       		.byte	0x76
 6886 0c8a 01       		.sleb128 1
 6887 0c8b 9F       		.byte	0x9f
 6888 0c8c 00000000 		.4byte	0
 6889 0c90 00000000 		.4byte	0
 6890              	.LLST74:
 6891 0c94 26000000 		.4byte	.LVL184
 6892 0c98 36000000 		.4byte	.LVL185
 6893 0c9c 0100     		.2byte	0x1
ARM GAS  C:\Users\info\AppData\Local\Temp\ccSLnsSK.s 			page 137


 6894 0c9e 50       		.byte	0x50
 6895 0c9f 44000000 		.4byte	.LVL191
 6896 0ca3 46000000 		.4byte	.LVL192
 6897 0ca7 0100     		.2byte	0x1
 6898 0ca9 50       		.byte	0x50
 6899 0caa 00000000 		.4byte	0
 6900 0cae 00000000 		.4byte	0
 6901              	.LLST75:
 6902 0cb2 00000000 		.4byte	.LVL179
 6903 0cb6 1C000000 		.4byte	.LVL182
 6904 0cba 0200     		.2byte	0x2
 6905 0cbc 30       		.byte	0x30
 6906 0cbd 9F       		.byte	0x9f
 6907 0cbe 1C000000 		.4byte	.LVL182
 6908 0cc2 3A000000 		.4byte	.LVL187
 6909 0cc6 0100     		.2byte	0x1
 6910 0cc8 57       		.byte	0x57
 6911 0cc9 42000000 		.4byte	.LVL190
 6912 0ccd 4A000000 		.4byte	.LFE15
 6913 0cd1 0100     		.2byte	0x1
 6914 0cd3 57       		.byte	0x57
 6915 0cd4 00000000 		.4byte	0
 6916 0cd8 00000000 		.4byte	0
 6917              	.LLST76:
 6918 0cdc 06000000 		.4byte	.LVL180
 6919 0ce0 08000000 		.4byte	.LVL181
 6920 0ce4 0100     		.2byte	0x1
 6921 0ce6 50       		.byte	0x50
 6922 0ce7 08000000 		.4byte	.LVL181
 6923 0ceb 4A000000 		.4byte	.LFE15
 6924 0cef 0100     		.2byte	0x1
 6925 0cf1 54       		.byte	0x54
 6926 0cf2 00000000 		.4byte	0
 6927 0cf6 00000000 		.4byte	0
 6928              	.LLST77:
 6929 0cfa 00000000 		.4byte	.LVL193
 6930 0cfe 34000000 		.4byte	.LVL199
 6931 0d02 0100     		.2byte	0x1
 6932 0d04 50       		.byte	0x50
 6933 0d05 34000000 		.4byte	.LVL199
 6934 0d09 4C010000 		.4byte	.LFE8
 6935 0d0d 0100     		.2byte	0x1
 6936 0d0f 57       		.byte	0x57
 6937 0d10 00000000 		.4byte	0
 6938 0d14 00000000 		.4byte	0
 6939              	.LLST78:
 6940 0d18 00000000 		.4byte	.LVL193
 6941 0d1c 0E000000 		.4byte	.LVL195
 6942 0d20 0100     		.2byte	0x1
 6943 0d22 51       		.byte	0x51
 6944 0d23 0E000000 		.4byte	.LVL195
 6945 0d27 4C010000 		.4byte	.LFE8
 6946 0d2b 0400     		.2byte	0x4
 6947 0d2d F3       		.byte	0xf3
 6948 0d2e 01       		.uleb128 0x1
 6949 0d2f 51       		.byte	0x51
 6950 0d30 9F       		.byte	0x9f
ARM GAS  C:\Users\info\AppData\Local\Temp\ccSLnsSK.s 			page 138


 6951 0d31 00000000 		.4byte	0
 6952 0d35 00000000 		.4byte	0
 6953              	.LLST79:
 6954 0d39 00000000 		.4byte	.LVL193
 6955 0d3d 08000000 		.4byte	.LVL194
 6956 0d41 0100     		.2byte	0x1
 6957 0d43 52       		.byte	0x52
 6958 0d44 08000000 		.4byte	.LVL194
 6959 0d48 34000000 		.4byte	.LVL199
 6960 0d4c 0400     		.2byte	0x4
 6961 0d4e F3       		.byte	0xf3
 6962 0d4f 01       		.uleb128 0x1
 6963 0d50 52       		.byte	0x52
 6964 0d51 9F       		.byte	0x9f
 6965 0d52 34000000 		.4byte	.LVL199
 6966 0d56 38010000 		.4byte	.LVL217
 6967 0d5a 0100     		.2byte	0x1
 6968 0d5c 59       		.byte	0x59
 6969 0d5d 3E010000 		.4byte	.LVL218
 6970 0d61 4C010000 		.4byte	.LFE8
 6971 0d65 0100     		.2byte	0x1
 6972 0d67 59       		.byte	0x59
 6973 0d68 00000000 		.4byte	0
 6974 0d6c 00000000 		.4byte	0
 6975              	.LLST80:
 6976 0d70 00000000 		.4byte	.LVL193
 6977 0d74 14000000 		.4byte	.LVL196
 6978 0d78 0100     		.2byte	0x1
 6979 0d7a 53       		.byte	0x53
 6980 0d7b 14000000 		.4byte	.LVL196
 6981 0d7f 4C010000 		.4byte	.LFE8
 6982 0d83 0400     		.2byte	0x4
 6983 0d85 F3       		.byte	0xf3
 6984 0d86 01       		.uleb128 0x1
 6985 0d87 53       		.byte	0x53
 6986 0d88 9F       		.byte	0x9f
 6987 0d89 00000000 		.4byte	0
 6988 0d8d 00000000 		.4byte	0
 6989              	.LLST81:
 6990 0d91 2E000000 		.4byte	.LVL197
 6991 0d95 30000000 		.4byte	.LVL198
 6992 0d99 0100     		.2byte	0x1
 6993 0d9b 52       		.byte	0x52
 6994 0d9c 30000000 		.4byte	.LVL198
 6995 0da0 34000000 		.4byte	.LVL199
 6996 0da4 0200     		.2byte	0x2
 6997 0da6 71       		.byte	0x71
 6998 0da7 02       		.sleb128 2
 6999 0da8 34000000 		.4byte	.LVL199
 7000 0dac 4C010000 		.4byte	.LFE8
 7001 0db0 0300     		.2byte	0x3
 7002 0db2 91       		.byte	0x91
 7003 0db3 AC7F     		.sleb128 -84
 7004 0db5 00000000 		.4byte	0
 7005 0db9 00000000 		.4byte	0
 7006              	.LLST82:
 7007 0dbd F4000000 		.4byte	.LVL210
ARM GAS  C:\Users\info\AppData\Local\Temp\ccSLnsSK.s 			page 139


 7008 0dc1 32010000 		.4byte	.LVL216
 7009 0dc5 0100     		.2byte	0x1
 7010 0dc7 55       		.byte	0x55
 7011 0dc8 00000000 		.4byte	0
 7012 0dcc 00000000 		.4byte	0
 7013              	.LLST83:
 7014 0dd0 34000000 		.4byte	.LVL199
 7015 0dd4 46000000 		.4byte	.LVL200
 7016 0dd8 0100     		.2byte	0x1
 7017 0dda 5B       		.byte	0x5b
 7018 0ddb F4000000 		.4byte	.LVL210
 7019 0ddf 2A010000 		.4byte	.LVL215
 7020 0de3 0600     		.2byte	0x6
 7021 0de5 7B       		.byte	0x7b
 7022 0de6 00       		.sleb128 0
 7023 0de7 74       		.byte	0x74
 7024 0de8 00       		.sleb128 0
 7025 0de9 22       		.byte	0x22
 7026 0dea 9F       		.byte	0x9f
 7027 0deb 32010000 		.4byte	.LVL216
 7028 0def 4C010000 		.4byte	.LFE8
 7029 0df3 0100     		.2byte	0x1
 7030 0df5 54       		.byte	0x54
 7031 0df6 00000000 		.4byte	0
 7032 0dfa 00000000 		.4byte	0
 7033              	.LLST84:
 7034 0dfe F4000000 		.4byte	.LVL210
 7035 0e02 22010000 		.4byte	.LVL214
 7036 0e06 0600     		.2byte	0x6
 7037 0e08 7B       		.byte	0x7b
 7038 0e09 00       		.sleb128 0
 7039 0e0a 74       		.byte	0x74
 7040 0e0b 00       		.sleb128 0
 7041 0e0c 22       		.byte	0x22
 7042 0e0d 9F       		.byte	0x9f
 7043 0e0e 00000000 		.4byte	0
 7044 0e12 00000000 		.4byte	0
 7045              	.LLST85:
 7046 0e16 F4000000 		.4byte	.LVL210
 7047 0e1a 22010000 		.4byte	.LVL214
 7048 0e1e 0100     		.2byte	0x1
 7049 0e20 59       		.byte	0x59
 7050 0e21 00000000 		.4byte	0
 7051 0e25 00000000 		.4byte	0
 7052              	.LLST86:
 7053 0e29 F4000000 		.4byte	.LVL210
 7054 0e2d 22010000 		.4byte	.LVL214
 7055 0e31 0100     		.2byte	0x1
 7056 0e33 55       		.byte	0x55
 7057 0e34 00000000 		.4byte	0
 7058 0e38 00000000 		.4byte	0
 7059              	.LLST87:
 7060 0e3c F4000000 		.4byte	.LVL210
 7061 0e40 22010000 		.4byte	.LVL214
 7062 0e44 0100     		.2byte	0x1
 7063 0e46 57       		.byte	0x57
 7064 0e47 00000000 		.4byte	0
ARM GAS  C:\Users\info\AppData\Local\Temp\ccSLnsSK.s 			page 140


 7065 0e4b 00000000 		.4byte	0
 7066              	.LLST88:
 7067 0e4f F4000000 		.4byte	.LVL210
 7068 0e53 06010000 		.4byte	.LVL211
 7069 0e57 0200     		.2byte	0x2
 7070 0e59 37       		.byte	0x37
 7071 0e5a 9F       		.byte	0x9f
 7072 0e5b 06010000 		.4byte	.LVL211
 7073 0e5f 22010000 		.4byte	.LVL214
 7074 0e63 0200     		.2byte	0x2
 7075 0e65 38       		.byte	0x38
 7076 0e66 9F       		.byte	0x9f
 7077 0e67 00000000 		.4byte	0
 7078 0e6b 00000000 		.4byte	0
 7079              	.LLST89:
 7080 0e6f F4000000 		.4byte	.LVL210
 7081 0e73 08010000 		.4byte	.LVL212
 7082 0e77 0100     		.2byte	0x1
 7083 0e79 50       		.byte	0x50
 7084 0e7a 00000000 		.4byte	0
 7085 0e7e 00000000 		.4byte	0
 7086              	.LLST90:
 7087 0e82 00000000 		.4byte	.LVL220
 7088 0e86 0B000000 		.4byte	.LVL221-1
 7089 0e8a 0100     		.2byte	0x1
 7090 0e8c 50       		.byte	0x50
 7091 0e8d 0B000000 		.4byte	.LVL221-1
 7092 0e91 10000000 		.4byte	.LFE13
 7093 0e95 0400     		.2byte	0x4
 7094 0e97 F3       		.byte	0xf3
 7095 0e98 01       		.uleb128 0x1
 7096 0e99 50       		.byte	0x50
 7097 0e9a 9F       		.byte	0x9f
 7098 0e9b 00000000 		.4byte	0
 7099 0e9f 00000000 		.4byte	0
 7100              	.LLST91:
 7101 0ea3 00000000 		.4byte	.LVL220
 7102 0ea7 0B000000 		.4byte	.LVL221-1
 7103 0eab 0100     		.2byte	0x1
 7104 0ead 51       		.byte	0x51
 7105 0eae 0B000000 		.4byte	.LVL221-1
 7106 0eb2 10000000 		.4byte	.LFE13
 7107 0eb6 0400     		.2byte	0x4
 7108 0eb8 F3       		.byte	0xf3
 7109 0eb9 01       		.uleb128 0x1
 7110 0eba 51       		.byte	0x51
 7111 0ebb 9F       		.byte	0x9f
 7112 0ebc 00000000 		.4byte	0
 7113 0ec0 00000000 		.4byte	0
 7114              	.LLST92:
 7115 0ec4 00000000 		.4byte	.LVL220
 7116 0ec8 0B000000 		.4byte	.LVL221-1
 7117 0ecc 0100     		.2byte	0x1
 7118 0ece 52       		.byte	0x52
 7119 0ecf 0B000000 		.4byte	.LVL221-1
 7120 0ed3 10000000 		.4byte	.LFE13
 7121 0ed7 0400     		.2byte	0x4
ARM GAS  C:\Users\info\AppData\Local\Temp\ccSLnsSK.s 			page 141


 7122 0ed9 F3       		.byte	0xf3
 7123 0eda 01       		.uleb128 0x1
 7124 0edb 52       		.byte	0x52
 7125 0edc 9F       		.byte	0x9f
 7126 0edd 00000000 		.4byte	0
 7127 0ee1 00000000 		.4byte	0
 7128              	.LLST93:
 7129 0ee5 00000000 		.4byte	.LVL220
 7130 0ee9 0B000000 		.4byte	.LVL221-1
 7131 0eed 0100     		.2byte	0x1
 7132 0eef 53       		.byte	0x53
 7133 0ef0 0B000000 		.4byte	.LVL221-1
 7134 0ef4 10000000 		.4byte	.LFE13
 7135 0ef8 0400     		.2byte	0x4
 7136 0efa F3       		.byte	0xf3
 7137 0efb 01       		.uleb128 0x1
 7138 0efc 53       		.byte	0x53
 7139 0efd 9F       		.byte	0x9f
 7140 0efe 00000000 		.4byte	0
 7141 0f02 00000000 		.4byte	0
 7142              	.LLST94:
 7143 0f06 00000000 		.4byte	.LVL222
 7144 0f0a 0B000000 		.4byte	.LVL223-1
 7145 0f0e 0100     		.2byte	0x1
 7146 0f10 50       		.byte	0x50
 7147 0f11 0B000000 		.4byte	.LVL223-1
 7148 0f15 10000000 		.4byte	.LFE14
 7149 0f19 0400     		.2byte	0x4
 7150 0f1b F3       		.byte	0xf3
 7151 0f1c 01       		.uleb128 0x1
 7152 0f1d 50       		.byte	0x50
 7153 0f1e 9F       		.byte	0x9f
 7154 0f1f 00000000 		.4byte	0
 7155 0f23 00000000 		.4byte	0
 7156              	.LLST95:
 7157 0f27 00000000 		.4byte	.LVL222
 7158 0f2b 0B000000 		.4byte	.LVL223-1
 7159 0f2f 0100     		.2byte	0x1
 7160 0f31 51       		.byte	0x51
 7161 0f32 0B000000 		.4byte	.LVL223-1
 7162 0f36 10000000 		.4byte	.LFE14
 7163 0f3a 0400     		.2byte	0x4
 7164 0f3c F3       		.byte	0xf3
 7165 0f3d 01       		.uleb128 0x1
 7166 0f3e 51       		.byte	0x51
 7167 0f3f 9F       		.byte	0x9f
 7168 0f40 00000000 		.4byte	0
 7169 0f44 00000000 		.4byte	0
 7170              	.LLST96:
 7171 0f48 00000000 		.4byte	.LVL222
 7172 0f4c 0B000000 		.4byte	.LVL223-1
 7173 0f50 0100     		.2byte	0x1
 7174 0f52 52       		.byte	0x52
 7175 0f53 0B000000 		.4byte	.LVL223-1
 7176 0f57 10000000 		.4byte	.LFE14
 7177 0f5b 0400     		.2byte	0x4
 7178 0f5d F3       		.byte	0xf3
ARM GAS  C:\Users\info\AppData\Local\Temp\ccSLnsSK.s 			page 142


 7179 0f5e 01       		.uleb128 0x1
 7180 0f5f 52       		.byte	0x52
 7181 0f60 9F       		.byte	0x9f
 7182 0f61 00000000 		.4byte	0
 7183 0f65 00000000 		.4byte	0
 7184              	.LLST97:
 7185 0f69 00000000 		.4byte	.LVL222
 7186 0f6d 0B000000 		.4byte	.LVL223-1
 7187 0f71 0100     		.2byte	0x1
 7188 0f73 53       		.byte	0x53
 7189 0f74 0B000000 		.4byte	.LVL223-1
 7190 0f78 10000000 		.4byte	.LFE14
 7191 0f7c 0400     		.2byte	0x4
 7192 0f7e F3       		.byte	0xf3
 7193 0f7f 01       		.uleb128 0x1
 7194 0f80 53       		.byte	0x53
 7195 0f81 9F       		.byte	0x9f
 7196 0f82 00000000 		.4byte	0
 7197 0f86 00000000 		.4byte	0
 7198              	.LLST98:
 7199 0f8a 00000000 		.4byte	.LVL224
 7200 0f8e 0B000000 		.4byte	.LVL225-1
 7201 0f92 0100     		.2byte	0x1
 7202 0f94 50       		.byte	0x50
 7203 0f95 0B000000 		.4byte	.LVL225-1
 7204 0f99 10000000 		.4byte	.LFE16
 7205 0f9d 0400     		.2byte	0x4
 7206 0f9f F3       		.byte	0xf3
 7207 0fa0 01       		.uleb128 0x1
 7208 0fa1 50       		.byte	0x50
 7209 0fa2 9F       		.byte	0x9f
 7210 0fa3 00000000 		.4byte	0
 7211 0fa7 00000000 		.4byte	0
 7212              	.LLST99:
 7213 0fab 00000000 		.4byte	.LVL224
 7214 0faf 0B000000 		.4byte	.LVL225-1
 7215 0fb3 0100     		.2byte	0x1
 7216 0fb5 51       		.byte	0x51
 7217 0fb6 0B000000 		.4byte	.LVL225-1
 7218 0fba 10000000 		.4byte	.LFE16
 7219 0fbe 0400     		.2byte	0x4
 7220 0fc0 F3       		.byte	0xf3
 7221 0fc1 01       		.uleb128 0x1
 7222 0fc2 51       		.byte	0x51
 7223 0fc3 9F       		.byte	0x9f
 7224 0fc4 00000000 		.4byte	0
 7225 0fc8 00000000 		.4byte	0
 7226              	.LLST100:
 7227 0fcc 00000000 		.4byte	.LVL224
 7228 0fd0 0B000000 		.4byte	.LVL225-1
 7229 0fd4 0100     		.2byte	0x1
 7230 0fd6 52       		.byte	0x52
 7231 0fd7 0B000000 		.4byte	.LVL225-1
 7232 0fdb 10000000 		.4byte	.LFE16
 7233 0fdf 0400     		.2byte	0x4
 7234 0fe1 F3       		.byte	0xf3
 7235 0fe2 01       		.uleb128 0x1
ARM GAS  C:\Users\info\AppData\Local\Temp\ccSLnsSK.s 			page 143


 7236 0fe3 52       		.byte	0x52
 7237 0fe4 9F       		.byte	0x9f
 7238 0fe5 00000000 		.4byte	0
 7239 0fe9 00000000 		.4byte	0
 7240              	.LLST101:
 7241 0fed 00000000 		.4byte	.LVL224
 7242 0ff1 0B000000 		.4byte	.LVL225-1
 7243 0ff5 0100     		.2byte	0x1
 7244 0ff7 53       		.byte	0x53
 7245 0ff8 0B000000 		.4byte	.LVL225-1
 7246 0ffc 10000000 		.4byte	.LFE16
 7247 1000 0400     		.2byte	0x4
 7248 1002 F3       		.byte	0xf3
 7249 1003 01       		.uleb128 0x1
 7250 1004 53       		.byte	0x53
 7251 1005 9F       		.byte	0x9f
 7252 1006 00000000 		.4byte	0
 7253 100a 00000000 		.4byte	0
 7254              	.LLST102:
 7255 100e 00000000 		.4byte	.LVL226
 7256 1012 0B000000 		.4byte	.LVL227-1
 7257 1016 0100     		.2byte	0x1
 7258 1018 50       		.byte	0x50
 7259 1019 0B000000 		.4byte	.LVL227-1
 7260 101d 10000000 		.4byte	.LFE17
 7261 1021 0400     		.2byte	0x4
 7262 1023 F3       		.byte	0xf3
 7263 1024 01       		.uleb128 0x1
 7264 1025 50       		.byte	0x50
 7265 1026 9F       		.byte	0x9f
 7266 1027 00000000 		.4byte	0
 7267 102b 00000000 		.4byte	0
 7268              	.LLST103:
 7269 102f 00000000 		.4byte	.LVL226
 7270 1033 0B000000 		.4byte	.LVL227-1
 7271 1037 0100     		.2byte	0x1
 7272 1039 51       		.byte	0x51
 7273 103a 0B000000 		.4byte	.LVL227-1
 7274 103e 10000000 		.4byte	.LFE17
 7275 1042 0400     		.2byte	0x4
 7276 1044 F3       		.byte	0xf3
 7277 1045 01       		.uleb128 0x1
 7278 1046 51       		.byte	0x51
 7279 1047 9F       		.byte	0x9f
 7280 1048 00000000 		.4byte	0
 7281 104c 00000000 		.4byte	0
 7282              	.LLST104:
 7283 1050 00000000 		.4byte	.LVL226
 7284 1054 0B000000 		.4byte	.LVL227-1
 7285 1058 0100     		.2byte	0x1
 7286 105a 52       		.byte	0x52
 7287 105b 0B000000 		.4byte	.LVL227-1
 7288 105f 10000000 		.4byte	.LFE17
 7289 1063 0400     		.2byte	0x4
 7290 1065 F3       		.byte	0xf3
 7291 1066 01       		.uleb128 0x1
 7292 1067 52       		.byte	0x52
ARM GAS  C:\Users\info\AppData\Local\Temp\ccSLnsSK.s 			page 144


 7293 1068 9F       		.byte	0x9f
 7294 1069 00000000 		.4byte	0
 7295 106d 00000000 		.4byte	0
 7296              	.LLST105:
 7297 1071 00000000 		.4byte	.LVL226
 7298 1075 0B000000 		.4byte	.LVL227-1
 7299 1079 0100     		.2byte	0x1
 7300 107b 53       		.byte	0x53
 7301 107c 0B000000 		.4byte	.LVL227-1
 7302 1080 10000000 		.4byte	.LFE17
 7303 1084 0400     		.2byte	0x4
 7304 1086 F3       		.byte	0xf3
 7305 1087 01       		.uleb128 0x1
 7306 1088 53       		.byte	0x53
 7307 1089 9F       		.byte	0x9f
 7308 108a 00000000 		.4byte	0
 7309 108e 00000000 		.4byte	0
 7310              	.LLST106:
 7311 1092 00000000 		.4byte	.LVL228
 7312 1096 0B000000 		.4byte	.LVL229-1
 7313 109a 0100     		.2byte	0x1
 7314 109c 50       		.byte	0x50
 7315 109d 0B000000 		.4byte	.LVL229-1
 7316 10a1 10000000 		.4byte	.LFE19
 7317 10a5 0400     		.2byte	0x4
 7318 10a7 F3       		.byte	0xf3
 7319 10a8 01       		.uleb128 0x1
 7320 10a9 50       		.byte	0x50
 7321 10aa 9F       		.byte	0x9f
 7322 10ab 00000000 		.4byte	0
 7323 10af 00000000 		.4byte	0
 7324              	.LLST107:
 7325 10b3 00000000 		.4byte	.LVL228
 7326 10b7 0B000000 		.4byte	.LVL229-1
 7327 10bb 0100     		.2byte	0x1
 7328 10bd 51       		.byte	0x51
 7329 10be 0B000000 		.4byte	.LVL229-1
 7330 10c2 10000000 		.4byte	.LFE19
 7331 10c6 0400     		.2byte	0x4
 7332 10c8 F3       		.byte	0xf3
 7333 10c9 01       		.uleb128 0x1
 7334 10ca 51       		.byte	0x51
 7335 10cb 9F       		.byte	0x9f
 7336 10cc 00000000 		.4byte	0
 7337 10d0 00000000 		.4byte	0
 7338              	.LLST108:
 7339 10d4 00000000 		.4byte	.LVL228
 7340 10d8 0B000000 		.4byte	.LVL229-1
 7341 10dc 0100     		.2byte	0x1
 7342 10de 52       		.byte	0x52
 7343 10df 0B000000 		.4byte	.LVL229-1
 7344 10e3 10000000 		.4byte	.LFE19
 7345 10e7 0400     		.2byte	0x4
 7346 10e9 F3       		.byte	0xf3
 7347 10ea 01       		.uleb128 0x1
 7348 10eb 52       		.byte	0x52
 7349 10ec 9F       		.byte	0x9f
ARM GAS  C:\Users\info\AppData\Local\Temp\ccSLnsSK.s 			page 145


 7350 10ed 00000000 		.4byte	0
 7351 10f1 00000000 		.4byte	0
 7352              	.LLST109:
 7353 10f5 00000000 		.4byte	.LVL228
 7354 10f9 0B000000 		.4byte	.LVL229-1
 7355 10fd 0100     		.2byte	0x1
 7356 10ff 53       		.byte	0x53
 7357 1100 0B000000 		.4byte	.LVL229-1
 7358 1104 10000000 		.4byte	.LFE19
 7359 1108 0400     		.2byte	0x4
 7360 110a F3       		.byte	0xf3
 7361 110b 01       		.uleb128 0x1
 7362 110c 53       		.byte	0x53
 7363 110d 9F       		.byte	0x9f
 7364 110e 00000000 		.4byte	0
 7365 1112 00000000 		.4byte	0
 7366              	.LLST110:
 7367 1116 00000000 		.4byte	.LVL230
 7368 111a 0B000000 		.4byte	.LVL231-1
 7369 111e 0100     		.2byte	0x1
 7370 1120 50       		.byte	0x50
 7371 1121 0B000000 		.4byte	.LVL231-1
 7372 1125 10000000 		.4byte	.LFE20
 7373 1129 0400     		.2byte	0x4
 7374 112b F3       		.byte	0xf3
 7375 112c 01       		.uleb128 0x1
 7376 112d 50       		.byte	0x50
 7377 112e 9F       		.byte	0x9f
 7378 112f 00000000 		.4byte	0
 7379 1133 00000000 		.4byte	0
 7380              	.LLST111:
 7381 1137 00000000 		.4byte	.LVL230
 7382 113b 0B000000 		.4byte	.LVL231-1
 7383 113f 0100     		.2byte	0x1
 7384 1141 51       		.byte	0x51
 7385 1142 0B000000 		.4byte	.LVL231-1
 7386 1146 10000000 		.4byte	.LFE20
 7387 114a 0400     		.2byte	0x4
 7388 114c F3       		.byte	0xf3
 7389 114d 01       		.uleb128 0x1
 7390 114e 51       		.byte	0x51
 7391 114f 9F       		.byte	0x9f
 7392 1150 00000000 		.4byte	0
 7393 1154 00000000 		.4byte	0
 7394              	.LLST112:
 7395 1158 00000000 		.4byte	.LVL230
 7396 115c 0B000000 		.4byte	.LVL231-1
 7397 1160 0100     		.2byte	0x1
 7398 1162 52       		.byte	0x52
 7399 1163 0B000000 		.4byte	.LVL231-1
 7400 1167 10000000 		.4byte	.LFE20
 7401 116b 0400     		.2byte	0x4
 7402 116d F3       		.byte	0xf3
 7403 116e 01       		.uleb128 0x1
 7404 116f 52       		.byte	0x52
 7405 1170 9F       		.byte	0x9f
 7406 1171 00000000 		.4byte	0
ARM GAS  C:\Users\info\AppData\Local\Temp\ccSLnsSK.s 			page 146


 7407 1175 00000000 		.4byte	0
 7408              	.LLST113:
 7409 1179 00000000 		.4byte	.LVL230
 7410 117d 0B000000 		.4byte	.LVL231-1
 7411 1181 0100     		.2byte	0x1
 7412 1183 53       		.byte	0x53
 7413 1184 0B000000 		.4byte	.LVL231-1
 7414 1188 10000000 		.4byte	.LFE20
 7415 118c 0400     		.2byte	0x4
 7416 118e F3       		.byte	0xf3
 7417 118f 01       		.uleb128 0x1
 7418 1190 53       		.byte	0x53
 7419 1191 9F       		.byte	0x9f
 7420 1192 00000000 		.4byte	0
 7421 1196 00000000 		.4byte	0
 7422              	.LLST114:
 7423 119a 00000000 		.4byte	.LVL232
 7424 119e 0E000000 		.4byte	.LVL234
 7425 11a2 0100     		.2byte	0x1
 7426 11a4 50       		.byte	0x50
 7427 11a5 0E000000 		.4byte	.LVL234
 7428 11a9 B6000000 		.4byte	.LFE21
 7429 11ad 0100     		.2byte	0x1
 7430 11af 54       		.byte	0x54
 7431 11b0 00000000 		.4byte	0
 7432 11b4 00000000 		.4byte	0
 7433              	.LLST115:
 7434 11b8 00000000 		.4byte	.LVL232
 7435 11bc 26000000 		.4byte	.LVL235
 7436 11c0 0100     		.2byte	0x1
 7437 11c2 51       		.byte	0x51
 7438 11c3 26000000 		.4byte	.LVL235
 7439 11c7 2A000000 		.4byte	.LVL236
 7440 11cb 0100     		.2byte	0x1
 7441 11cd 51       		.byte	0x51
 7442 11ce 2A000000 		.4byte	.LVL236
 7443 11d2 74000000 		.4byte	.LVL244
 7444 11d6 0300     		.2byte	0x3
 7445 11d8 71       		.byte	0x71
 7446 11d9 7F       		.sleb128 -1
 7447 11da 9F       		.byte	0x9f
 7448 11db 74000000 		.4byte	.LVL244
 7449 11df 78000000 		.4byte	.LVL245
 7450 11e3 0100     		.2byte	0x1
 7451 11e5 51       		.byte	0x51
 7452 11e6 7E000000 		.4byte	.LVL248
 7453 11ea B6000000 		.4byte	.LFE21
 7454 11ee 0300     		.2byte	0x3
 7455 11f0 71       		.byte	0x71
 7456 11f1 7F       		.sleb128 -1
 7457 11f2 9F       		.byte	0x9f
 7458 11f3 00000000 		.4byte	0
 7459 11f7 00000000 		.4byte	0
 7460              	.LLST116:
 7461 11fb 00000000 		.4byte	.LVL232
 7462 11ff 26000000 		.4byte	.LVL235
 7463 1203 0200     		.2byte	0x2
ARM GAS  C:\Users\info\AppData\Local\Temp\ccSLnsSK.s 			page 147


 7464 1205 30       		.byte	0x30
 7465 1206 9F       		.byte	0x9f
 7466 1207 26000000 		.4byte	.LVL235
 7467 120b 7A000000 		.4byte	.LVL246
 7468 120f 0100     		.2byte	0x1
 7469 1211 50       		.byte	0x50
 7470 1212 7C000000 		.4byte	.LVL247
 7471 1216 B6000000 		.4byte	.LFE21
 7472 121a 0100     		.2byte	0x1
 7473 121c 50       		.byte	0x50
 7474 121d 00000000 		.4byte	0
 7475 1221 00000000 		.4byte	0
 7476              	.LLST117:
 7477 1225 08000000 		.4byte	.LVL233
 7478 1229 0E000000 		.4byte	.LVL234
 7479 122d 0100     		.2byte	0x1
 7480 122f 50       		.byte	0x50
 7481 1230 0E000000 		.4byte	.LVL234
 7482 1234 B6000000 		.4byte	.LFE21
 7483 1238 0100     		.2byte	0x1
 7484 123a 54       		.byte	0x54
 7485 123b 00000000 		.4byte	0
 7486 123f 00000000 		.4byte	0
 7487              	.LLST118:
 7488 1243 2A000000 		.4byte	.LVL236
 7489 1247 2C000000 		.4byte	.LVL237
 7490 124b 0100     		.2byte	0x1
 7491 124d 53       		.byte	0x53
 7492 124e 30000000 		.4byte	.LVL238
 7493 1252 4A000000 		.4byte	.LVL240
 7494 1256 0100     		.2byte	0x1
 7495 1258 53       		.byte	0x53
 7496 1259 4E000000 		.4byte	.LVL241
 7497 125d 56000000 		.4byte	.LVL242
 7498 1261 0100     		.2byte	0x1
 7499 1263 53       		.byte	0x53
 7500 1264 56000000 		.4byte	.LVL242
 7501 1268 68000000 		.4byte	.LVL243
 7502 126c 0200     		.2byte	0x2
 7503 126e 71       		.byte	0x71
 7504 126f 7F       		.sleb128 -1
 7505 1270 7E000000 		.4byte	.LVL248
 7506 1274 8A000000 		.4byte	.LVL249
 7507 1278 0100     		.2byte	0x1
 7508 127a 53       		.byte	0x53
 7509 127b 8C000000 		.4byte	.LVL250
 7510 127f 98000000 		.4byte	.LVL251
 7511 1283 0100     		.2byte	0x1
 7512 1285 53       		.byte	0x53
 7513 1286 9A000000 		.4byte	.LVL252
 7514 128a A6000000 		.4byte	.LVL253
 7515 128e 0100     		.2byte	0x1
 7516 1290 53       		.byte	0x53
 7517 1291 A8000000 		.4byte	.LVL254
 7518 1295 B4000000 		.4byte	.LVL255
 7519 1299 0100     		.2byte	0x1
 7520 129b 53       		.byte	0x53
ARM GAS  C:\Users\info\AppData\Local\Temp\ccSLnsSK.s 			page 148


 7521 129c 00000000 		.4byte	0
 7522 12a0 00000000 		.4byte	0
 7523              	.LLST119:
 7524 12a4 3E000000 		.4byte	.LVL239
 7525 12a8 4E000000 		.4byte	.LVL241
 7526 12ac 0100     		.2byte	0x1
 7527 12ae 53       		.byte	0x53
 7528 12af 7E000000 		.4byte	.LVL248
 7529 12b3 B6000000 		.4byte	.LFE21
 7530 12b7 0100     		.2byte	0x1
 7531 12b9 53       		.byte	0x53
 7532 12ba 00000000 		.4byte	0
 7533 12be 00000000 		.4byte	0
 7534              		.section	.debug_aranges,"",%progbits
 7535 0000 B4000000 		.4byte	0xb4
 7536 0004 0200     		.2byte	0x2
 7537 0006 00000000 		.4byte	.Ldebug_info0
 7538 000a 04       		.byte	0x4
 7539 000b 00       		.byte	0
 7540 000c 0000     		.2byte	0
 7541 000e 0000     		.2byte	0
 7542 0010 00000000 		.4byte	.LFB4
 7543 0014 22000000 		.4byte	.LFE4-.LFB4
 7544 0018 00000000 		.4byte	.LFB10
 7545 001c 10000000 		.4byte	.LFE10-.LFB10
 7546 0020 00000000 		.4byte	.LFB22
 7547 0024 9A000000 		.4byte	.LFE22-.LFB22
 7548 0028 00000000 		.4byte	.LFB11
 7549 002c 96000000 		.4byte	.LFE11-.LFB11
 7550 0030 00000000 		.4byte	.LFB12
 7551 0034 DA000000 		.4byte	.LFE12-.LFB12
 7552 0038 00000000 		.4byte	.LFB0
 7553 003c 04000000 		.4byte	.LFE0-.LFB0
 7554 0040 00000000 		.4byte	.LFB2
 7555 0044 8A000000 		.4byte	.LFE2-.LFB2
 7556 0048 00000000 		.4byte	.LFB3
 7557 004c 24000000 		.4byte	.LFE3-.LFB3
 7558 0050 00000000 		.4byte	.LFB18
 7559 0054 90010000 		.4byte	.LFE18-.LFB18
 7560 0058 00000000 		.4byte	.LFB6
 7561 005c A4010000 		.4byte	.LFE6-.LFB6
 7562 0060 00000000 		.4byte	.LFB15
 7563 0064 4A000000 		.4byte	.LFE15-.LFB15
 7564 0068 00000000 		.4byte	.LFB8
 7565 006c 4C010000 		.4byte	.LFE8-.LFB8
 7566 0070 00000000 		.4byte	.LFB9
 7567 0074 08000000 		.4byte	.LFE9-.LFB9
 7568 0078 00000000 		.4byte	.LFB13
 7569 007c 10000000 		.4byte	.LFE13-.LFB13
 7570 0080 00000000 		.4byte	.LFB14
 7571 0084 10000000 		.4byte	.LFE14-.LFB14
 7572 0088 00000000 		.4byte	.LFB16
 7573 008c 10000000 		.4byte	.LFE16-.LFB16
 7574 0090 00000000 		.4byte	.LFB17
 7575 0094 10000000 		.4byte	.LFE17-.LFB17
 7576 0098 00000000 		.4byte	.LFB19
 7577 009c 10000000 		.4byte	.LFE19-.LFB19
ARM GAS  C:\Users\info\AppData\Local\Temp\ccSLnsSK.s 			page 149


 7578 00a0 00000000 		.4byte	.LFB20
 7579 00a4 10000000 		.4byte	.LFE20-.LFB20
 7580 00a8 00000000 		.4byte	.LFB21
 7581 00ac B6000000 		.4byte	.LFE21-.LFB21
 7582 00b0 00000000 		.4byte	0
 7583 00b4 00000000 		.4byte	0
 7584              		.section	.debug_ranges,"",%progbits
 7585              	.Ldebug_ranges0:
 7586 0000 14000000 		.4byte	.LBB12
 7587 0004 2A000000 		.4byte	.LBE12
 7588 0008 52000000 		.4byte	.LBB15
 7589 000c 96000000 		.4byte	.LBE15
 7590 0010 00000000 		.4byte	0
 7591 0014 00000000 		.4byte	0
 7592 0018 14000000 		.4byte	.LBB20
 7593 001c 16000000 		.4byte	.LBE20
 7594 0020 1C000000 		.4byte	.LBB23
 7595 0024 20000000 		.4byte	.LBE23
 7596 0028 00000000 		.4byte	0
 7597 002c 00000000 		.4byte	0
 7598 0030 40000000 		.4byte	.LBB24
 7599 0034 74000000 		.4byte	.LBE24
 7600 0038 78000000 		.4byte	.LBB27
 7601 003c BC000000 		.4byte	.LBE27
 7602 0040 00000000 		.4byte	0
 7603 0044 00000000 		.4byte	0
 7604 0048 0A000000 		.4byte	.LBB34
 7605 004c 0E000000 		.4byte	.LBE34
 7606 0050 14000000 		.4byte	.LBB37
 7607 0054 18000000 		.4byte	.LBE37
 7608 0058 00000000 		.4byte	0
 7609 005c 00000000 		.4byte	0
 7610 0060 3A000000 		.4byte	.LBB38
 7611 0064 44000000 		.4byte	.LBE38
 7612 0068 48000000 		.4byte	.LBB43
 7613 006c 76010000 		.4byte	.LBE43
 7614 0070 00000000 		.4byte	0
 7615 0074 00000000 		.4byte	0
 7616 0078 06000000 		.4byte	.LBB48
 7617 007c 08000000 		.4byte	.LBE48
 7618 0080 18000000 		.4byte	.LBB51
 7619 0084 1C000000 		.4byte	.LBE51
 7620 0088 00000000 		.4byte	0
 7621 008c 00000000 		.4byte	0
 7622 0090 04000000 		.4byte	.LBB62
 7623 0094 06000000 		.4byte	.LBE62
 7624 0098 12000000 		.4byte	.LBB65
 7625 009c 16000000 		.4byte	.LBE65
 7626 00a0 00000000 		.4byte	0
 7627 00a4 00000000 		.4byte	0
 7628 00a8 16000000 		.4byte	.LBB66
 7629 00ac 26000000 		.4byte	.LBE66
 7630 00b0 2A000000 		.4byte	.LBB77
 7631 00b4 2C000000 		.4byte	.LBE77
 7632 00b8 30000000 		.4byte	.LBB78
 7633 00bc 70000000 		.4byte	.LBE78
 7634 00c0 7E000000 		.4byte	.LBB79
ARM GAS  C:\Users\info\AppData\Local\Temp\ccSLnsSK.s 			page 150


 7635 00c4 B6000000 		.4byte	.LBE79
 7636 00c8 00000000 		.4byte	0
 7637 00cc 00000000 		.4byte	0
 7638 00d0 16000000 		.4byte	.LBB68
 7639 00d4 26000000 		.4byte	.LBE68
 7640 00d8 3E000000 		.4byte	.LBB72
 7641 00dc 4E000000 		.4byte	.LBE72
 7642 00e0 7E000000 		.4byte	.LBB73
 7643 00e4 B6000000 		.4byte	.LBE73
 7644 00e8 00000000 		.4byte	0
 7645 00ec 00000000 		.4byte	0
 7646 00f0 00000000 		.4byte	.LFB4
 7647 00f4 22000000 		.4byte	.LFE4
 7648 00f8 00000000 		.4byte	.LFB10
 7649 00fc 10000000 		.4byte	.LFE10
 7650 0100 00000000 		.4byte	.LFB22
 7651 0104 9A000000 		.4byte	.LFE22
 7652 0108 00000000 		.4byte	.LFB11
 7653 010c 96000000 		.4byte	.LFE11
 7654 0110 00000000 		.4byte	.LFB12
 7655 0114 DA000000 		.4byte	.LFE12
 7656 0118 00000000 		.4byte	.LFB0
 7657 011c 04000000 		.4byte	.LFE0
 7658 0120 00000000 		.4byte	.LFB2
 7659 0124 8A000000 		.4byte	.LFE2
 7660 0128 00000000 		.4byte	.LFB3
 7661 012c 24000000 		.4byte	.LFE3
 7662 0130 00000000 		.4byte	.LFB18
 7663 0134 90010000 		.4byte	.LFE18
 7664 0138 00000000 		.4byte	.LFB6
 7665 013c A4010000 		.4byte	.LFE6
 7666 0140 00000000 		.4byte	.LFB15
 7667 0144 4A000000 		.4byte	.LFE15
 7668 0148 00000000 		.4byte	.LFB8
 7669 014c 4C010000 		.4byte	.LFE8
 7670 0150 00000000 		.4byte	.LFB9
 7671 0154 08000000 		.4byte	.LFE9
 7672 0158 00000000 		.4byte	.LFB13
 7673 015c 10000000 		.4byte	.LFE13
 7674 0160 00000000 		.4byte	.LFB14
 7675 0164 10000000 		.4byte	.LFE14
 7676 0168 00000000 		.4byte	.LFB16
 7677 016c 10000000 		.4byte	.LFE16
 7678 0170 00000000 		.4byte	.LFB17
 7679 0174 10000000 		.4byte	.LFE17
 7680 0178 00000000 		.4byte	.LFB19
 7681 017c 10000000 		.4byte	.LFE19
 7682 0180 00000000 		.4byte	.LFB20
 7683 0184 10000000 		.4byte	.LFE20
 7684 0188 00000000 		.4byte	.LFB21
 7685 018c B6000000 		.4byte	.LFE21
 7686 0190 00000000 		.4byte	0
 7687 0194 00000000 		.4byte	0
 7688              		.section	.debug_line,"",%progbits
 7689              	.Ldebug_line0:
 7690 0000 10060000 		.section	.debug_str,"MS",%progbits,1
 7690      02003C01 
ARM GAS  C:\Users\info\AppData\Local\Temp\ccSLnsSK.s 			page 151


 7690      00000201 
 7690      FB0E0D00 
 7690      01010101 
 7691              	.LASF98:
 7692 0000 75387838 		.ascii	"u8x8_upscale_buf\000"
 7692      5F757073 
 7692      63616C65 
 7692      5F627566 
 7692      00
 7693              	.LASF91:
 7694 0011 75387838 		.ascii	"u8x8_Draw1x2String\000"
 7694      5F447261 
 7694      77317832 
 7694      53747269 
 7694      6E6700
 7695              	.LASF44:
 7696 0024 72657365 		.ascii	"reset_pulse_width_ms\000"
 7696      745F7075 
 7696      6C73655F 
 7696      77696474 
 7696      685F6D73 
 7697              	.LASF79:
 7698 0039 62756631 		.ascii	"buf1\000"
 7698      00
 7699              	.LASF3:
 7700 003e 5F5F7569 		.ascii	"__uint8_t\000"
 7700      6E74385F 
 7700      7400
 7701              	.LASF21:
 7702 0048 62797465 		.ascii	"byte_cb\000"
 7702      5F636200 
 7703              	.LASF77:
 7704 0050 75387838 		.ascii	"u8x8_get_glyph_data\000"
 7704      5F676574 
 7704      5F676C79 
 7704      70685F64 
 7704      61746100 
 7705              	.LASF10:
 7706 0064 6C6F6E67 		.ascii	"long long unsigned int\000"
 7706      206C6F6E 
 7706      6720756E 
 7706      7369676E 
 7706      65642069 
 7707              	.LASF69:
 7708 007b 75387838 		.ascii	"u8x8_DrawGlyph\000"
 7708      5F447261 
 7708      77476C79 
 7708      706800
 7709              	.LASF65:
 7710 008a 74696C65 		.ascii	"tiles\000"
 7710      7300
 7711              	.LASF45:
 7712 0090 706F7374 		.ascii	"post_reset_wait_ms\000"
 7712      5F726573 
 7712      65745F77 
 7712      6169745F 
 7712      6D7300
ARM GAS  C:\Users\info\AppData\Local\Temp\ccSLnsSK.s 			page 152


 7713              	.LASF31:
 7714 00a3 75746638 		.ascii	"utf8_state\000"
 7714      5F737461 
 7714      746500
 7715              	.LASF68:
 7716 00ae 75387838 		.ascii	"u8x8_utf8_init\000"
 7716      5F757466 
 7716      385F696E 
 7716      697400
 7717              	.LASF32:
 7718 00bd 6770696F 		.ascii	"gpio_result\000"
 7718      5F726573 
 7718      756C7400 
 7719              	.LASF9:
 7720 00c9 6C6F6E67 		.ascii	"long long int\000"
 7720      206C6F6E 
 7720      6720696E 
 7720      7400
 7721              	.LASF0:
 7722 00d7 7369676E 		.ascii	"signed char\000"
 7722      65642063 
 7722      68617200 
 7723              	.LASF27:
 7724 00e3 69735F66 		.ascii	"is_font_inverse_mode\000"
 7724      6F6E745F 
 7724      696E7665 
 7724      7273655F 
 7724      6D6F6465 
 7725              	.LASF95:
 7726 00f8 2E2E5C75 		.ascii	"..\\u8g2-master\\csrc\\u8x8_8x8.c\000"
 7726      3867322D 
 7726      6D617374 
 7726      65725C63 
 7726      7372635C 
 7727              	.LASF90:
 7728 0117 75387838 		.ascii	"u8x8_Draw2x2UTF8\000"
 7728      5F447261 
 7728      77327832 
 7728      55544638 
 7728      00
 7729              	.LASF19:
 7730 0128 64697370 		.ascii	"display_cb\000"
 7730      6C61795F 
 7730      636200
 7731              	.LASF43:
 7732 0133 7072655F 		.ascii	"pre_chip_disable_wait_ns\000"
 7732      63686970 
 7732      5F646973 
 7732      61626C65 
 7732      5F776169 
 7733              	.LASF97:
 7734 014c 75387838 		.ascii	"u8x8_utf8_next\000"
 7734      5F757466 
 7734      385F6E65 
 7734      787400
 7735              	.LASF6:
 7736 015b 6C6F6E67 		.ascii	"long int\000"
ARM GAS  C:\Users\info\AppData\Local\Temp\ccSLnsSK.s 			page 153


 7736      20696E74 
 7736      00
 7737              	.LASF73:
 7738 0164 666F6E74 		.ascii	"font_8x8\000"
 7738      5F387838 
 7738      00
 7739              	.LASF13:
 7740 016d 75696E74 		.ascii	"uint16_t\000"
 7740      31365F74 
 7740      00
 7741              	.LASF18:
 7742 0176 6E657874 		.ascii	"next_cb\000"
 7742      5F636200 
 7743              	.LASF60:
 7744 017e 75387838 		.ascii	"u8x8_char_cb\000"
 7744      5F636861 
 7744      725F6362 
 7744      00
 7745              	.LASF22:
 7746 018b 6770696F 		.ascii	"gpio_and_delay_cb\000"
 7746      5F616E64 
 7746      5F64656C 
 7746      61795F63 
 7746      6200
 7747              	.LASF81:
 7748 019d 75387838 		.ascii	"u8x8_draw_string\000"
 7748      5F647261 
 7748      775F7374 
 7748      72696E67 
 7748      00
 7749              	.LASF85:
 7750 01ae 75387838 		.ascii	"u8x8_Draw2x2Glyph\000"
 7750      5F447261 
 7750      77327832 
 7750      476C7970 
 7750      6800
 7751              	.LASF37:
 7752 01c0 75387838 		.ascii	"u8x8_display_info_t\000"
 7752      5F646973 
 7752      706C6179 
 7752      5F696E66 
 7752      6F5F7400 
 7753              	.LASF7:
 7754 01d4 5F5F7569 		.ascii	"__uint32_t\000"
 7754      6E743332 
 7754      5F7400
 7755              	.LASF46:
 7756 01df 7364615F 		.ascii	"sda_setup_time_ns\000"
 7756      73657475 
 7756      705F7469 
 7756      6D655F6E 
 7756      7300
 7757              	.LASF36:
 7758 01f1 6465626F 		.ascii	"debounce_result_msg\000"
 7758      756E6365 
 7758      5F726573 
 7758      756C745F 
ARM GAS  C:\Users\info\AppData\Local\Temp\ccSLnsSK.s 			page 154


 7758      6D736700 
 7759              	.LASF11:
 7760 0205 756E7369 		.ascii	"unsigned int\000"
 7760      676E6564 
 7760      20696E74 
 7760      00
 7761              	.LASF93:
 7762 0212 75387838 		.ascii	"u8x8_GetUTF8Len\000"
 7762      5F476574 
 7762      55544638 
 7762      4C656E00 
 7763              	.LASF28:
 7764 0222 6932635F 		.ascii	"i2c_address\000"
 7764      61646472 
 7764      65737300 
 7765              	.LASF8:
 7766 022e 6C6F6E67 		.ascii	"long unsigned int\000"
 7766      20756E73 
 7766      69676E65 
 7766      6420696E 
 7766      7400
 7767              	.LASF5:
 7768 0240 73686F72 		.ascii	"short unsigned int\000"
 7768      7420756E 
 7768      7369676E 
 7768      65642069 
 7768      6E7400
 7769              	.LASF64:
 7770 0253 6C617374 		.ascii	"last\000"
 7770      00
 7771              	.LASF34:
 7772 0258 6465626F 		.ascii	"debounce_last_pin_state\000"
 7772      756E6365 
 7772      5F6C6173 
 7772      745F7069 
 7772      6E5F7374 
 7773              	.LASF17:
 7774 0270 64697370 		.ascii	"display_info\000"
 7774      6C61795F 
 7774      696E666F 
 7774      00
 7775              	.LASF70:
 7776 027d 74696C65 		.ascii	"tile\000"
 7776      00
 7777              	.LASF62:
 7778 0282 74696C65 		.ascii	"tile_offset\000"
 7778      5F6F6666 
 7778      73657400 
 7779              	.LASF47:
 7780 028e 73636B5F 		.ascii	"sck_pulse_width_ns\000"
 7780      70756C73 
 7780      655F7769 
 7780      6474685F 
 7780      6E7300
 7781              	.LASF38:
 7782 02a1 75387838 		.ascii	"u8x8_struct\000"
 7782      5F737472 
ARM GAS  C:\Users\info\AppData\Local\Temp\ccSLnsSK.s 			page 155


 7782      75637400 
 7783              	.LASF55:
 7784 02ad 64656661 		.ascii	"default_x_offset\000"
 7784      756C745F 
 7784      785F6F66 
 7784      66736574 
 7784      00
 7785              	.LASF25:
 7786 02be 656E636F 		.ascii	"encoding\000"
 7786      64696E67 
 7786      00
 7787              	.LASF56:
 7788 02c7 666C6970 		.ascii	"flipmode_x_offset\000"
 7788      6D6F6465 
 7788      5F785F6F 
 7788      66667365 
 7788      7400
 7789              	.LASF74:
 7790 02d9 75387838 		.ascii	"u8x8_ascii_next\000"
 7790      5F617363 
 7790      69695F6E 
 7790      65787400 
 7791              	.LASF78:
 7792 02e9 75387838 		.ascii	"u8x8_draw_1x2_subglyph\000"
 7792      5F647261 
 7792      775F3178 
 7792      325F7375 
 7792      62676C79 
 7793              	.LASF71:
 7794 0300 73697A65 		.ascii	"sizetype\000"
 7794      74797065 
 7794      00
 7795              	.LASF82:
 7796 0309 75387838 		.ascii	"u8x8_draw_1x2_string\000"
 7796      5F647261 
 7796      775F3178 
 7796      325F7374 
 7796      72696E67 
 7797              	.LASF15:
 7798 031e 6C6F6E67 		.ascii	"long double\000"
 7798      20646F75 
 7798      626C6500 
 7799              	.LASF86:
 7800 032a 75387838 		.ascii	"u8x8_draw_2x2_string\000"
 7800      5F647261 
 7800      775F3278 
 7800      325F7374 
 7800      72696E67 
 7801              	.LASF20:
 7802 033f 6361645F 		.ascii	"cad_cb\000"
 7802      636200
 7803              	.LASF99:
 7804 0346 75387838 		.ascii	"u8x8_DrawTile\000"
 7804      5F447261 
 7804      7754696C 
 7804      6500
 7805              	.LASF76:
ARM GAS  C:\Users\info\AppData\Local\Temp\ccSLnsSK.s 			page 156


 7806 0354 75387838 		.ascii	"u8x8_Draw1x2Glyph\000"
 7806      5F447261 
 7806      77317832 
 7806      476C7970 
 7806      6800
 7807              	.LASF52:
 7808 0366 77726974 		.ascii	"write_pulse_width_ns\000"
 7808      655F7075 
 7808      6C73655F 
 7808      77696474 
 7808      685F6E73 
 7809              	.LASF67:
 7810 037b 64657374 		.ascii	"dest\000"
 7810      00
 7811              	.LASF30:
 7812 0380 64657669 		.ascii	"device_address\000"
 7812      63655F61 
 7812      64647265 
 7812      737300
 7813              	.LASF26:
 7814 038f 785F6F66 		.ascii	"x_offset\000"
 7814      66736574 
 7814      00
 7815              	.LASF54:
 7816 0398 74696C65 		.ascii	"tile_height\000"
 7816      5F686569 
 7816      67687400 
 7817              	.LASF75:
 7818 03a4 75387838 		.ascii	"u8x8_upscale_byte\000"
 7818      5F757073 
 7818      63616C65 
 7818      5F627974 
 7818      6500
 7819              	.LASF88:
 7820 03b6 75387838 		.ascii	"u8x8_DrawUTF8\000"
 7820      5F447261 
 7820      77555446 
 7820      3800
 7821              	.LASF59:
 7822 03c4 75387838 		.ascii	"u8x8_msg_cb\000"
 7822      5F6D7367 
 7822      5F636200 
 7823              	.LASF1:
 7824 03d0 756E7369 		.ascii	"unsigned char\000"
 7824      676E6564 
 7824      20636861 
 7824      7200
 7825              	.LASF92:
 7826 03de 75387838 		.ascii	"u8x8_Draw1x2UTF8\000"
 7826      5F447261 
 7826      77317832 
 7826      55544638 
 7826      00
 7827              	.LASF2:
 7828 03ef 73686F72 		.ascii	"short int\000"
 7828      7420696E 
 7828      7400
ARM GAS  C:\Users\info\AppData\Local\Temp\ccSLnsSK.s 			page 157


 7829              	.LASF61:
 7830 03f9 75387838 		.ascii	"u8x8\000"
 7830      00
 7831              	.LASF51:
 7832 03fe 64617461 		.ascii	"data_setup_time_ns\000"
 7832      5F736574 
 7832      75705F74 
 7832      696D655F 
 7832      6E7300
 7833              	.LASF96:
 7834 0411 433A5C55 		.ascii	"C:\\Users\\info\\Desktop\\Spring 2019 Classes\\6.11"
 7834      73657273 
 7834      5C696E66 
 7834      6F5C4465 
 7834      736B746F 
 7835 043f 355C362E 		.ascii	"5\\6.115-final\\PSoCCreator\\Final Project\\FinalEm"
 7835      3131352D 
 7835      66696E61 
 7835      6C5C5053 
 7835      6F434372 
 7836 046e 756C6174 		.ascii	"ulator.cydsn\000"
 7836      6F722E63 
 7836      7964736E 
 7836      00
 7837              	.LASF50:
 7838 047b 6932635F 		.ascii	"i2c_bus_clock_100kHz\000"
 7838      6275735F 
 7838      636C6F63 
 7838      6B5F3130 
 7838      306B487A 
 7839              	.LASF14:
 7840 0490 75696E74 		.ascii	"uint32_t\000"
 7840      33325F74 
 7840      00
 7841              	.LASF49:
 7842 0499 7370695F 		.ascii	"spi_mode\000"
 7842      6D6F6465 
 7842      00
 7843              	.LASF63:
 7844 04a2 66697273 		.ascii	"first\000"
 7844      7400
 7845              	.LASF40:
 7846 04a8 63686970 		.ascii	"chip_enable_level\000"
 7846      5F656E61 
 7846      626C655F 
 7846      6C657665 
 7846      6C00
 7847              	.LASF94:
 7848 04ba 474E5520 		.ascii	"GNU C11 5.4.1 20160609 (release) [ARM/embedded-5-br"
 7848      43313120 
 7848      352E342E 
 7848      31203230 
 7848      31363036 
 7849 04ed 616E6368 		.ascii	"anch revision 237715] -mcpu=cortex-m3 -mthumb -g -O"
 7849      20726576 
 7849      6973696F 
 7849      6E203233 
ARM GAS  C:\Users\info\AppData\Local\Temp\ccSLnsSK.s 			page 158


 7849      37373135 
 7850 0520 33202D66 		.ascii	"3 -ffunction-sections -ffat-lto-objects\000"
 7850      66756E63 
 7850      74696F6E 
 7850      2D736563 
 7850      74696F6E 
 7851              	.LASF72:
 7852 0548 63686172 		.ascii	"char\000"
 7852      00
 7853              	.LASF4:
 7854 054d 5F5F7569 		.ascii	"__uint16_t\000"
 7854      6E743136 
 7854      5F7400
 7855              	.LASF42:
 7856 0558 706F7374 		.ascii	"post_chip_enable_wait_ns\000"
 7856      5F636869 
 7856      705F656E 
 7856      61626C65 
 7856      5F776169 
 7857              	.LASF89:
 7858 0571 75387838 		.ascii	"u8x8_Draw2x2String\000"
 7858      5F447261 
 7858      77327832 
 7858      53747269 
 7858      6E6700
 7859              	.LASF66:
 7860 0584 6F666673 		.ascii	"offset\000"
 7860      657400
 7861              	.LASF16:
 7862 058b 75387838 		.ascii	"u8x8_t\000"
 7862      5F7400
 7863              	.LASF23:
 7864 0592 6275735F 		.ascii	"bus_clock\000"
 7864      636C6F63 
 7864      6B00
 7865              	.LASF35:
 7866 059c 6465626F 		.ascii	"debounce_state\000"
 7866      756E6365 
 7866      5F737461 
 7866      746500
 7867              	.LASF87:
 7868 05ab 75387838 		.ascii	"u8x8_DrawString\000"
 7868      5F447261 
 7868      77537472 
 7868      696E6700 
 7869              	.LASF83:
 7870 05bb 75387838 		.ascii	"u8x8_draw_2x2_subglyph\000"
 7870      5F647261 
 7870      775F3278 
 7870      325F7375 
 7870      62676C79 
 7871              	.LASF41:
 7872 05d2 63686970 		.ascii	"chip_disable_level\000"
 7872      5F646973 
 7872      61626C65 
 7872      5F6C6576 
 7872      656C00
ARM GAS  C:\Users\info\AppData\Local\Temp\ccSLnsSK.s 			page 159


 7873              	.LASF24:
 7874 05e5 666F6E74 		.ascii	"font\000"
 7874      00
 7875              	.LASF80:
 7876 05ea 62756632 		.ascii	"buf2\000"
 7876      00
 7877              	.LASF12:
 7878 05ef 75696E74 		.ascii	"uint8_t\000"
 7878      385F7400 
 7879              	.LASF29:
 7880 05f7 6932635F 		.ascii	"i2c_started\000"
 7880      73746172 
 7880      74656400 
 7881              	.LASF57:
 7882 0603 70697865 		.ascii	"pixel_width\000"
 7882      6C5F7769 
 7882      64746800 
 7883              	.LASF53:
 7884 060f 74696C65 		.ascii	"tile_width\000"
 7884      5F776964 
 7884      746800
 7885              	.LASF33:
 7886 061a 6465626F 		.ascii	"debounce_default_pin_state\000"
 7886      756E6365 
 7886      5F646566 
 7886      61756C74 
 7886      5F70696E 
 7887              	.LASF39:
 7888 0635 75387838 		.ascii	"u8x8_display_info_struct\000"
 7888      5F646973 
 7888      706C6179 
 7888      5F696E66 
 7888      6F5F7374 
 7889              	.LASF58:
 7890 064e 70697865 		.ascii	"pixel_height\000"
 7890      6C5F6865 
 7890      69676874 
 7890      00
 7891              	.LASF48:
 7892 065b 73636B5F 		.ascii	"sck_clock_hz\000"
 7892      636C6F63 
 7892      6B5F687A 
 7892      00
 7893              	.LASF84:
 7894 0668 75387838 		.ascii	"u8x8_SetFont\000"
 7894      5F536574 
 7894      466F6E74 
 7894      00
 7895              		.ident	"GCC: (GNU Tools for ARM Embedded Processors) 5.4.1 20160609 (release) [ARM/embedded-5-bran
