ARM GAS  C:\Users\info\AppData\Local\Temp\ccYopEai.s 			page 1


   1              		.syntax unified
   2              		.cpu cortex-m3
   3              		.fpu softvfp
   4              		.eabi_attribute 20, 1
   5              		.eabi_attribute 21, 1
   6              		.eabi_attribute 23, 3
   7              		.eabi_attribute 24, 1
   8              		.eabi_attribute 25, 1
   9              		.eabi_attribute 26, 1
  10              		.eabi_attribute 30, 2
  11              		.eabi_attribute 34, 1
  12              		.eabi_attribute 18, 4
  13              		.thumb
  14              		.syntax unified
  15              		.file	"u8x8_d_stdio.c"
  16              		.text
  17              	.Ltext0:
  18              		.cfi_sections	.debug_frame
  19              		.section	.text.u8x8_d_stdio,"ax",%progbits
  20              		.align	2
  21              		.global	u8x8_d_stdio
  22              		.thumb
  23              		.thumb_func
  24              		.type	u8x8_d_stdio, %function
  25              	u8x8_d_stdio:
  26              	.LFB3:
  27              		.file 1 "..\\u8g2-master\\csrc\\u8x8_d_stdio.c"
   1:..\u8g2-master\csrc/u8x8_d_stdio.c **** /*
   2:..\u8g2-master\csrc/u8x8_d_stdio.c **** 
   3:..\u8g2-master\csrc/u8x8_d_stdio.c ****   u8x8_d_stdio.c
   4:..\u8g2-master\csrc/u8x8_d_stdio.c **** 
   5:..\u8g2-master\csrc/u8x8_d_stdio.c ****   Universal 8bit Graphics Library (https://github.com/olikraus/u8g2/)
   6:..\u8g2-master\csrc/u8x8_d_stdio.c **** 
   7:..\u8g2-master\csrc/u8x8_d_stdio.c ****   Copyright (c) 2016, olikraus@gmail.com
   8:..\u8g2-master\csrc/u8x8_d_stdio.c ****   All rights reserved.
   9:..\u8g2-master\csrc/u8x8_d_stdio.c **** 
  10:..\u8g2-master\csrc/u8x8_d_stdio.c ****   Redistribution and use in source and binary forms, with or without modification, 
  11:..\u8g2-master\csrc/u8x8_d_stdio.c ****   are permitted provided that the following conditions are met:
  12:..\u8g2-master\csrc/u8x8_d_stdio.c **** 
  13:..\u8g2-master\csrc/u8x8_d_stdio.c ****   * Redistributions of source code must retain the above copyright notice, this list 
  14:..\u8g2-master\csrc/u8x8_d_stdio.c ****     of conditions and the following disclaimer.
  15:..\u8g2-master\csrc/u8x8_d_stdio.c ****     
  16:..\u8g2-master\csrc/u8x8_d_stdio.c ****   * Redistributions in binary form must reproduce the above copyright notice, this 
  17:..\u8g2-master\csrc/u8x8_d_stdio.c ****     list of conditions and the following disclaimer in the documentation and/or other 
  18:..\u8g2-master\csrc/u8x8_d_stdio.c ****     materials provided with the distribution.
  19:..\u8g2-master\csrc/u8x8_d_stdio.c **** 
  20:..\u8g2-master\csrc/u8x8_d_stdio.c ****   THIS SOFTWARE IS PROVIDED BY THE COPYRIGHT HOLDERS AND 
  21:..\u8g2-master\csrc/u8x8_d_stdio.c ****   CONTRIBUTORS "AS IS" AND ANY EXPRESS OR IMPLIED WARRANTIES, 
  22:..\u8g2-master\csrc/u8x8_d_stdio.c ****   INCLUDING, BUT NOT LIMITED TO, THE IMPLIED WARRANTIES OF 
  23:..\u8g2-master\csrc/u8x8_d_stdio.c ****   MERCHANTABILITY AND FITNESS FOR A PARTICULAR PURPOSE ARE 
  24:..\u8g2-master\csrc/u8x8_d_stdio.c ****   DISCLAIMED. IN NO EVENT SHALL THE COPYRIGHT HOLDER OR 
  25:..\u8g2-master\csrc/u8x8_d_stdio.c ****   CONTRIBUTORS BE LIABLE FOR ANY DIRECT, INDIRECT, INCIDENTAL, 
  26:..\u8g2-master\csrc/u8x8_d_stdio.c ****   SPECIAL, EXEMPLARY, OR CONSEQUENTIAL DAMAGES (INCLUDING, BUT 
  27:..\u8g2-master\csrc/u8x8_d_stdio.c ****   NOT LIMITED TO, PROCUREMENT OF SUBSTITUTE GOODS OR SERVICES; 
  28:..\u8g2-master\csrc/u8x8_d_stdio.c ****   LOSS OF USE, DATA, OR PROFITS; OR BUSINESS INTERRUPTION) HOWEVER 
  29:..\u8g2-master\csrc/u8x8_d_stdio.c ****   CAUSED AND ON ANY THEORY OF LIABILITY, WHETHER IN CONTRACT, 
  30:..\u8g2-master\csrc/u8x8_d_stdio.c ****   STRICT LIABILITY, OR TORT (INCLUDING NEGLIGENCE OR OTHERWISE) 
ARM GAS  C:\Users\info\AppData\Local\Temp\ccYopEai.s 			page 2


  31:..\u8g2-master\csrc/u8x8_d_stdio.c ****   ARISING IN ANY WAY OUT OF THE USE OF THIS SOFTWARE, EVEN IF 
  32:..\u8g2-master\csrc/u8x8_d_stdio.c ****   ADVISED OF THE POSSIBILITY OF SUCH DAMAGE.  
  33:..\u8g2-master\csrc/u8x8_d_stdio.c **** 
  34:..\u8g2-master\csrc/u8x8_d_stdio.c **** */
  35:..\u8g2-master\csrc/u8x8_d_stdio.c **** 
  36:..\u8g2-master\csrc/u8x8_d_stdio.c **** #include "u8x8.h"
  37:..\u8g2-master\csrc/u8x8_d_stdio.c **** 
  38:..\u8g2-master\csrc/u8x8_d_stdio.c **** #include <stdio.h>
  39:..\u8g2-master\csrc/u8x8_d_stdio.c **** 
  40:..\u8g2-master\csrc/u8x8_d_stdio.c **** #define W 8
  41:..\u8g2-master\csrc/u8x8_d_stdio.c **** #define H 2
  42:..\u8g2-master\csrc/u8x8_d_stdio.c **** 
  43:..\u8g2-master\csrc/u8x8_d_stdio.c **** uint8_t bitmap[W*H*8];
  44:..\u8g2-master\csrc/u8x8_d_stdio.c **** 
  45:..\u8g2-master\csrc/u8x8_d_stdio.c **** void bitmap_place_tile(uint8_t x, uint8_t y, uint8_t *tile)
  46:..\u8g2-master\csrc/u8x8_d_stdio.c **** {
  47:..\u8g2-master\csrc/u8x8_d_stdio.c ****   uint8_t i;
  48:..\u8g2-master\csrc/u8x8_d_stdio.c ****   for(i = 0; i < 8; i++ )
  49:..\u8g2-master\csrc/u8x8_d_stdio.c ****     bitmap[x*8+y*W*8+i] = tile[i];
  50:..\u8g2-master\csrc/u8x8_d_stdio.c **** }
  51:..\u8g2-master\csrc/u8x8_d_stdio.c **** 
  52:..\u8g2-master\csrc/u8x8_d_stdio.c **** void bitmap_show(void)
  53:..\u8g2-master\csrc/u8x8_d_stdio.c **** {
  54:..\u8g2-master\csrc/u8x8_d_stdio.c ****   int x, y;
  55:..\u8g2-master\csrc/u8x8_d_stdio.c ****   for( y = 0; y < H*8; y++ )
  56:..\u8g2-master\csrc/u8x8_d_stdio.c ****   {
  57:..\u8g2-master\csrc/u8x8_d_stdio.c ****     for( x = 0; x < W*8; x++ )
  58:..\u8g2-master\csrc/u8x8_d_stdio.c ****     {
  59:..\u8g2-master\csrc/u8x8_d_stdio.c ****       if ( (bitmap[x+(y/8)*W*8] & (1<<((y&7)))) != 0 )
  60:..\u8g2-master\csrc/u8x8_d_stdio.c ****       {
  61:..\u8g2-master\csrc/u8x8_d_stdio.c **** 	printf("*");
  62:..\u8g2-master\csrc/u8x8_d_stdio.c ****       }
  63:..\u8g2-master\csrc/u8x8_d_stdio.c ****       else
  64:..\u8g2-master\csrc/u8x8_d_stdio.c ****       {
  65:..\u8g2-master\csrc/u8x8_d_stdio.c **** 	printf(".");
  66:..\u8g2-master\csrc/u8x8_d_stdio.c ****       }
  67:..\u8g2-master\csrc/u8x8_d_stdio.c ****     }
  68:..\u8g2-master\csrc/u8x8_d_stdio.c ****     printf("\n");
  69:..\u8g2-master\csrc/u8x8_d_stdio.c ****   }
  70:..\u8g2-master\csrc/u8x8_d_stdio.c **** }
  71:..\u8g2-master\csrc/u8x8_d_stdio.c **** 
  72:..\u8g2-master\csrc/u8x8_d_stdio.c **** 
  73:..\u8g2-master\csrc/u8x8_d_stdio.c **** uint8_t u8x8_d_stdio(U8X8_UNUSED u8x8_t *u8x8, uint8_t msg, uint8_t arg_int, void *arg_ptr)
  74:..\u8g2-master\csrc/u8x8_d_stdio.c **** {
  28              		.loc 1 74 0
  29              		.cfi_startproc
  30              		@ args = 0, pretend = 0, frame = 0
  31              		@ frame_needed = 0, uses_anonymous_args = 0
  32              	.LVL0:
  75:..\u8g2-master\csrc/u8x8_d_stdio.c ****   switch(msg)
  33              		.loc 1 75 0
  34 0000 0B29     		cmp	r1, #11
  74:..\u8g2-master\csrc/u8x8_d_stdio.c ****   switch(msg)
  35              		.loc 1 74 0
  36 0002 2DE9F843 		push	{r3, r4, r5, r6, r7, r8, r9, lr}
  37              		.cfi_def_cfa_offset 32
  38              		.cfi_offset 3, -32
ARM GAS  C:\Users\info\AppData\Local\Temp\ccYopEai.s 			page 3


  39              		.cfi_offset 4, -28
  40              		.cfi_offset 5, -24
  41              		.cfi_offset 6, -20
  42              		.cfi_offset 7, -16
  43              		.cfi_offset 8, -12
  44              		.cfi_offset 9, -8
  45              		.cfi_offset 14, -4
  46              		.loc 1 75 0
  47 0006 1CD0     		beq	.L3
  48 0008 0F29     		cmp	r1, #15
  49 000a 17D1     		bne	.L2
  50              	.LVL1:
  51 000c 5A79     		ldrb	r2, [r3, #5]	@ zero_extendqisi2
  52              	.LVL2:
  53 000e 9979     		ldrb	r1, [r3, #6]	@ zero_extendqisi2
  54              	.LVL3:
  55 0010 274F     		ldr	r7, .L25
  56 0012 02EBC101 		add	r1, r2, r1, lsl #3
  57              	.LBB12:
  58              	.LBB13:
  76:..\u8g2-master\csrc/u8x8_d_stdio.c ****   {
  77:..\u8g2-master\csrc/u8x8_d_stdio.c ****     case U8X8_MSG_DISPLAY_INIT:
  78:..\u8g2-master\csrc/u8x8_d_stdio.c ****       break;
  79:..\u8g2-master\csrc/u8x8_d_stdio.c ****     case U8X8_MSG_DISPLAY_SET_POWER_SAVE:
  80:..\u8g2-master\csrc/u8x8_d_stdio.c ****       if ( arg_int == 0 )
  81:..\u8g2-master\csrc/u8x8_d_stdio.c **** 	bitmap_show();
  82:..\u8g2-master\csrc/u8x8_d_stdio.c ****       break;
  83:..\u8g2-master\csrc/u8x8_d_stdio.c ****     case U8X8_MSG_DISPLAY_SET_CONTRAST:
  84:..\u8g2-master\csrc/u8x8_d_stdio.c ****       break;
  85:..\u8g2-master\csrc/u8x8_d_stdio.c ****     case U8X8_MSG_DISPLAY_DRAW_TILE:      
  86:..\u8g2-master\csrc/u8x8_d_stdio.c ****       bitmap_place_tile(((u8x8_tile_t *)arg_ptr)->x_pos, ((u8x8_tile_t *)arg_ptr)->y_pos, ((u8x8_ti
  59              		.loc 1 86 0
  60 0016 1B68     		ldr	r3, [r3]
  61              	.LVL4:
  62 0018 CA00     		lsls	r2, r1, #3
  63 001a 101D     		adds	r0, r2, #4
  64              	.LVL5:
  65 001c 3844     		add	r0, r0, r7
  66 001e BC18     		adds	r4, r7, r2
  67 0020 1D1D     		adds	r5, r3, #4
  68 0022 AC42     		cmp	r4, r5
  69 0024 38BF     		it	cc
  70 0026 8342     		cmpcc	r3, r0
  71 0028 2FD3     		bcc	.L11
  72 002a 44EA0300 		orr	r0, r4, r3
  73 002e 8007     		lsls	r0, r0, #30
  74 0030 2BD1     		bne	.L11
  75              	.LVL6:
  76              	.LBB14:
  77              	.LBB15:
  49:..\u8g2-master\csrc/u8x8_d_stdio.c **** }
  78              		.loc 1 49 0
  79 0032 1A68     		ldr	r2, [r3]
  80 0034 47F83120 		str	r2, [r7, r1, lsl #3]
  81              	.LVL7:
  82 0038 5B68     		ldr	r3, [r3, #4]
  83              	.LVL8:
ARM GAS  C:\Users\info\AppData\Local\Temp\ccYopEai.s 			page 4


  84 003a 6360     		str	r3, [r4, #4]
  85              	.LVL9:
  86              	.L2:
  87              	.LBE15:
  88              	.LBE14:
  89              	.LBE13:
  90              	.LBE12:
  87:..\u8g2-master\csrc/u8x8_d_stdio.c ****       break;
  88:..\u8g2-master\csrc/u8x8_d_stdio.c ****     default:
  89:..\u8g2-master\csrc/u8x8_d_stdio.c ****       break;
  90:..\u8g2-master\csrc/u8x8_d_stdio.c ****   }
  91:..\u8g2-master\csrc/u8x8_d_stdio.c ****   return 1;
  92:..\u8g2-master\csrc/u8x8_d_stdio.c **** }
  91              		.loc 1 92 0
  92 003c 0120     		movs	r0, #1
  93 003e BDE8F883 		pop	{r3, r4, r5, r6, r7, r8, r9, pc}
  94              	.LVL10:
  95              	.L3:
  80:..\u8g2-master\csrc/u8x8_d_stdio.c **** 	bitmap_show();
  96              		.loc 1 80 0
  97 0042 002A     		cmp	r2, #0
  98 0044 FAD1     		bne	.L2
  99 0046 1646     		mov	r6, r2
 100 0048 194F     		ldr	r7, .L25
 101 004a 4FF00108 		mov	r8, #1
 102              	.LVL11:
 103              	.L9:
 104 004e F310     		asrs	r3, r6, #3
 105 0050 9B01     		lsls	r3, r3, #6
 106 0052 5C1E     		subs	r4, r3, #1
 107 0054 06F00709 		and	r9, r6, #7
 108 0058 3F33     		adds	r3, r3, #63
 109 005a 3C44     		add	r4, r4, r7
 110 005c FD18     		adds	r5, r7, r3
 111 005e 08FA09F9 		lsl	r9, r8, r9
 112              	.LVL12:
 113              	.L8:
 114              	.LBB19:
 115              	.LBB20:
  59:..\u8g2-master\csrc/u8x8_d_stdio.c ****       {
 116              		.loc 1 59 0
 117 0062 14F8013F 		ldrb	r3, [r4, #1]!	@ zero_extendqisi2
  61:..\u8g2-master\csrc/u8x8_d_stdio.c ****       }
 118              		.loc 1 61 0
 119 0066 2A20     		movs	r0, #42
  59:..\u8g2-master\csrc/u8x8_d_stdio.c ****       {
 120              		.loc 1 59 0
 121 0068 13EA090F 		tst	r3, r9
  65:..\u8g2-master\csrc/u8x8_d_stdio.c ****       }
 122              		.loc 1 65 0
 123 006c 08BF     		it	eq
 124 006e 2E20     		moveq	r0, #46
 125 0070 FFF7FEFF 		bl	putchar
 126              	.LVL13:
  57:..\u8g2-master\csrc/u8x8_d_stdio.c ****     {
 127              		.loc 1 57 0
 128 0074 A542     		cmp	r5, r4
ARM GAS  C:\Users\info\AppData\Local\Temp\ccYopEai.s 			page 5


 129 0076 F4D1     		bne	.L8
  55:..\u8g2-master\csrc/u8x8_d_stdio.c ****   {
 130              		.loc 1 55 0
 131 0078 0136     		adds	r6, r6, #1
 132              	.LVL14:
  68:..\u8g2-master\csrc/u8x8_d_stdio.c ****   }
 133              		.loc 1 68 0
 134 007a 0A20     		movs	r0, #10
 135 007c FFF7FEFF 		bl	putchar
 136              	.LVL15:
  55:..\u8g2-master\csrc/u8x8_d_stdio.c ****   {
 137              		.loc 1 55 0
 138 0080 102E     		cmp	r6, #16
 139 0082 E4D1     		bne	.L9
 140              	.LBE20:
 141              	.LBE19:
 142              		.loc 1 92 0
 143 0084 0120     		movs	r0, #1
 144 0086 BDE8F883 		pop	{r3, r4, r5, r6, r7, r8, r9, pc}
 145              	.LVL16:
 146              	.L11:
 147              	.LBB21:
 148              	.LBB18:
 149              	.LBB17:
 150              	.LBB16:
  49:..\u8g2-master\csrc/u8x8_d_stdio.c **** }
 151              		.loc 1 49 0
 152 008a 1878     		ldrb	r0, [r3]	@ zero_extendqisi2
 153 008c 3A44     		add	r2, r2, r7
 154 008e 07F83100 		strb	r0, [r7, r1, lsl #3]
 155              	.LVL17:
 156 0092 5978     		ldrb	r1, [r3, #1]	@ zero_extendqisi2
 157 0094 5170     		strb	r1, [r2, #1]
 158              	.LVL18:
 159 0096 9978     		ldrb	r1, [r3, #2]	@ zero_extendqisi2
 160 0098 9170     		strb	r1, [r2, #2]
 161              	.LVL19:
 162 009a D978     		ldrb	r1, [r3, #3]	@ zero_extendqisi2
 163 009c D170     		strb	r1, [r2, #3]
 164              	.LVL20:
 165 009e 1979     		ldrb	r1, [r3, #4]	@ zero_extendqisi2
 166 00a0 1171     		strb	r1, [r2, #4]
 167              	.LVL21:
 168 00a2 5979     		ldrb	r1, [r3, #5]	@ zero_extendqisi2
 169 00a4 5171     		strb	r1, [r2, #5]
 170              	.LVL22:
 171 00a6 9979     		ldrb	r1, [r3, #6]	@ zero_extendqisi2
 172 00a8 9171     		strb	r1, [r2, #6]
 173              	.LVL23:
 174 00aa DB79     		ldrb	r3, [r3, #7]	@ zero_extendqisi2
 175              	.LVL24:
 176 00ac D371     		strb	r3, [r2, #7]
 177              	.LVL25:
 178 00ae C5E7     		b	.L2
 179              	.L26:
 180              		.align	2
 181              	.L25:
ARM GAS  C:\Users\info\AppData\Local\Temp\ccYopEai.s 			page 6


 182 00b0 00000000 		.word	bitmap
 183              	.LBE16:
 184              	.LBE17:
 185              	.LBE18:
 186              	.LBE21:
 187              		.cfi_endproc
 188              	.LFE3:
 189              		.size	u8x8_d_stdio, .-u8x8_d_stdio
 190              		.section	.text.bitmap_place_tile,"ax",%progbits
 191              		.align	2
 192              		.global	bitmap_place_tile
 193              		.thumb
 194              		.thumb_func
 195              		.type	bitmap_place_tile, %function
 196              	bitmap_place_tile:
 197              	.LFB1:
  46:..\u8g2-master\csrc/u8x8_d_stdio.c ****   uint8_t i;
 198              		.loc 1 46 0
 199              		.cfi_startproc
 200              		@ args = 0, pretend = 0, frame = 0
 201              		@ frame_needed = 0, uses_anonymous_args = 0
 202              		@ link register save eliminated.
 203              	.LVL26:
 204 0000 00EBC101 		add	r1, r0, r1, lsl #3
 205              	.LVL27:
 206 0004 70B4     		push	{r4, r5, r6}
 207              		.cfi_def_cfa_offset 12
 208              		.cfi_offset 4, -12
 209              		.cfi_offset 5, -8
 210              		.cfi_offset 6, -4
 211 0006 CB00     		lsls	r3, r1, #3
 212 0008 134C     		ldr	r4, .L37
 213 000a 1D1D     		adds	r5, r3, #4
 214 000c 2544     		add	r5, r5, r4
 215 000e E618     		adds	r6, r4, r3
 216 0010 101D     		adds	r0, r2, #4
 217              	.LVL28:
 218 0012 8642     		cmp	r6, r0
 219 0014 38BF     		it	cc
 220 0016 AA42     		cmpcc	r2, r5
 221 0018 0AD3     		bcc	.L28
 222 001a 46EA0200 		orr	r0, r6, r2
 223 001e 8007     		lsls	r0, r0, #30
 224 0020 06D1     		bne	.L28
 225              	.LVL29:
  49:..\u8g2-master\csrc/u8x8_d_stdio.c **** }
 226              		.loc 1 49 0
 227 0022 1368     		ldr	r3, [r2]
 228 0024 44F83130 		str	r3, [r4, r1, lsl #3]
 229 0028 5368     		ldr	r3, [r2, #4]
 230 002a 7360     		str	r3, [r6, #4]
  50:..\u8g2-master\csrc/u8x8_d_stdio.c **** 
 231              		.loc 1 50 0
 232 002c 70BC     		pop	{r4, r5, r6}
 233              		.cfi_remember_state
 234              		.cfi_restore 6
 235              		.cfi_restore 5
ARM GAS  C:\Users\info\AppData\Local\Temp\ccYopEai.s 			page 7


 236              		.cfi_restore 4
 237              		.cfi_def_cfa_offset 0
 238 002e 7047     		bx	lr
 239              	.LVL30:
 240              	.L28:
 241              		.cfi_restore_state
  49:..\u8g2-master\csrc/u8x8_d_stdio.c **** }
 242              		.loc 1 49 0
 243 0030 1078     		ldrb	r0, [r2]	@ zero_extendqisi2
 244 0032 2344     		add	r3, r3, r4
 245 0034 04F83100 		strb	r0, [r4, r1, lsl #3]
 246              	.LVL31:
 247 0038 5178     		ldrb	r1, [r2, #1]	@ zero_extendqisi2
 248 003a 5970     		strb	r1, [r3, #1]
 249              	.LVL32:
 250 003c 9178     		ldrb	r1, [r2, #2]	@ zero_extendqisi2
 251 003e 9970     		strb	r1, [r3, #2]
 252              	.LVL33:
 253 0040 D178     		ldrb	r1, [r2, #3]	@ zero_extendqisi2
 254 0042 D970     		strb	r1, [r3, #3]
 255              	.LVL34:
 256 0044 1179     		ldrb	r1, [r2, #4]	@ zero_extendqisi2
 257 0046 1971     		strb	r1, [r3, #4]
 258              	.LVL35:
 259 0048 5179     		ldrb	r1, [r2, #5]	@ zero_extendqisi2
 260 004a 5971     		strb	r1, [r3, #5]
 261              	.LVL36:
 262 004c 9179     		ldrb	r1, [r2, #6]	@ zero_extendqisi2
 263 004e 9971     		strb	r1, [r3, #6]
 264              	.LVL37:
 265 0050 D279     		ldrb	r2, [r2, #7]	@ zero_extendqisi2
 266              	.LVL38:
 267 0052 DA71     		strb	r2, [r3, #7]
 268              	.LVL39:
  50:..\u8g2-master\csrc/u8x8_d_stdio.c **** 
 269              		.loc 1 50 0
 270 0054 70BC     		pop	{r4, r5, r6}
 271              		.cfi_restore 4
 272              		.cfi_restore 5
 273              		.cfi_restore 6
 274              		.cfi_def_cfa_offset 0
 275 0056 7047     		bx	lr
 276              	.L38:
 277              		.align	2
 278              	.L37:
 279 0058 00000000 		.word	bitmap
 280              		.cfi_endproc
 281              	.LFE1:
 282              		.size	bitmap_place_tile, .-bitmap_place_tile
 283              		.section	.text.bitmap_show,"ax",%progbits
 284              		.align	2
 285              		.global	bitmap_show
 286              		.thumb
 287              		.thumb_func
 288              		.type	bitmap_show, %function
 289              	bitmap_show:
 290              	.LFB2:
ARM GAS  C:\Users\info\AppData\Local\Temp\ccYopEai.s 			page 8


  53:..\u8g2-master\csrc/u8x8_d_stdio.c ****   int x, y;
 291              		.loc 1 53 0
 292              		.cfi_startproc
 293              		@ args = 0, pretend = 0, frame = 0
 294              		@ frame_needed = 0, uses_anonymous_args = 0
 295              	.LVL40:
 296 0000 2DE9F843 		push	{r3, r4, r5, r6, r7, r8, r9, lr}
 297              		.cfi_def_cfa_offset 32
 298              		.cfi_offset 3, -32
 299              		.cfi_offset 4, -28
 300              		.cfi_offset 5, -24
 301              		.cfi_offset 6, -20
 302              		.cfi_offset 7, -16
 303              		.cfi_offset 8, -12
 304              		.cfi_offset 9, -8
 305              		.cfi_offset 14, -4
 306 0004 104F     		ldr	r7, .L48
  55:..\u8g2-master\csrc/u8x8_d_stdio.c ****   {
 307              		.loc 1 55 0
 308 0006 0026     		movs	r6, #0
 309 0008 4FF00108 		mov	r8, #1
 310              	.LVL41:
 311              	.L40:
 312 000c F310     		asrs	r3, r6, #3
 313 000e 9B01     		lsls	r3, r3, #6
 314 0010 5C1E     		subs	r4, r3, #1
 315 0012 06F00709 		and	r9, r6, #7
 316 0016 3F33     		adds	r3, r3, #63
 317 0018 3C44     		add	r4, r4, r7
 318 001a FD18     		adds	r5, r7, r3
 319 001c 08FA09F9 		lsl	r9, r8, r9
 320              	.LVL42:
 321              	.L43:
  59:..\u8g2-master\csrc/u8x8_d_stdio.c ****       {
 322              		.loc 1 59 0
 323 0020 14F8013F 		ldrb	r3, [r4, #1]!	@ zero_extendqisi2
  61:..\u8g2-master\csrc/u8x8_d_stdio.c ****       }
 324              		.loc 1 61 0
 325 0024 2A20     		movs	r0, #42
  59:..\u8g2-master\csrc/u8x8_d_stdio.c ****       {
 326              		.loc 1 59 0
 327 0026 13EA090F 		tst	r3, r9
  65:..\u8g2-master\csrc/u8x8_d_stdio.c ****       }
 328              		.loc 1 65 0
 329 002a 08BF     		it	eq
 330 002c 2E20     		moveq	r0, #46
 331 002e FFF7FEFF 		bl	putchar
 332              	.LVL43:
  57:..\u8g2-master\csrc/u8x8_d_stdio.c ****     {
 333              		.loc 1 57 0
 334 0032 A542     		cmp	r5, r4
 335 0034 F4D1     		bne	.L43
  55:..\u8g2-master\csrc/u8x8_d_stdio.c ****   {
 336              		.loc 1 55 0 discriminator 2
 337 0036 0136     		adds	r6, r6, #1
 338              	.LVL44:
  68:..\u8g2-master\csrc/u8x8_d_stdio.c ****   }
ARM GAS  C:\Users\info\AppData\Local\Temp\ccYopEai.s 			page 9


 339              		.loc 1 68 0 discriminator 2
 340 0038 0A20     		movs	r0, #10
 341 003a FFF7FEFF 		bl	putchar
 342              	.LVL45:
  55:..\u8g2-master\csrc/u8x8_d_stdio.c ****   {
 343              		.loc 1 55 0 discriminator 2
 344 003e 102E     		cmp	r6, #16
 345 0040 E4D1     		bne	.L40
 346 0042 BDE8F883 		pop	{r3, r4, r5, r6, r7, r8, r9, pc}
 347              	.LVL46:
 348              	.L49:
 349 0046 00BF     		.align	2
 350              	.L48:
 351 0048 00000000 		.word	bitmap
 352              		.cfi_endproc
 353              	.LFE2:
 354              		.size	bitmap_show, .-bitmap_show
 355              		.section	.text.u8x8_SetupStdio,"ax",%progbits
 356              		.align	2
 357              		.global	u8x8_SetupStdio
 358              		.thumb
 359              		.thumb_func
 360              		.type	u8x8_SetupStdio, %function
 361              	u8x8_SetupStdio:
 362              	.LFB4:
  93:..\u8g2-master\csrc/u8x8_d_stdio.c **** 
  94:..\u8g2-master\csrc/u8x8_d_stdio.c **** 
  95:..\u8g2-master\csrc/u8x8_d_stdio.c **** 
  96:..\u8g2-master\csrc/u8x8_d_stdio.c **** void u8x8_SetupStdio(u8x8_t *u8x8)
  97:..\u8g2-master\csrc/u8x8_d_stdio.c **** {
 363              		.loc 1 97 0
 364              		.cfi_startproc
 365              		@ args = 0, pretend = 0, frame = 0
 366              		@ frame_needed = 0, uses_anonymous_args = 0
 367              	.LVL47:
 368 0000 10B5     		push	{r4, lr}
 369              		.cfi_def_cfa_offset 8
 370              		.cfi_offset 4, -8
 371              		.cfi_offset 14, -4
 372              		.loc 1 97 0
 373 0002 0446     		mov	r4, r0
  98:..\u8g2-master\csrc/u8x8_d_stdio.c ****   u8x8_SetupDefaults(u8x8);
 374              		.loc 1 98 0
 375 0004 FFF7FEFF 		bl	u8x8_SetupDefaults
 376              	.LVL48:
  99:..\u8g2-master\csrc/u8x8_d_stdio.c ****   u8x8->display_cb = u8x8_d_stdio;
 377              		.loc 1 99 0
 378 0008 014B     		ldr	r3, .L52
 379 000a A360     		str	r3, [r4, #8]
 380 000c 10BD     		pop	{r4, pc}
 381              	.LVL49:
 382              	.L53:
 383 000e 00BF     		.align	2
 384              	.L52:
 385 0010 00000000 		.word	u8x8_d_stdio
 386              		.cfi_endproc
 387              	.LFE4:
ARM GAS  C:\Users\info\AppData\Local\Temp\ccYopEai.s 			page 10


 388              		.size	u8x8_SetupStdio, .-u8x8_SetupStdio
 389              		.comm	bitmap,128,4
 390              		.text
 391              	.Letext0:
 392              		.file 2 "c:\\program files (x86)\\cypress\\psoc creator\\4.2\\psoc creator\\import\\gnu\\arm\\5.4.
 393              		.file 3 "c:\\program files (x86)\\cypress\\psoc creator\\4.2\\psoc creator\\import\\gnu\\arm\\5.4.
 394              		.file 4 "..\\u8g2-master\\csrc\\u8x8.h"
 395              		.file 5 "<built-in>"