ARM GAS  C:\Users\info\AppData\Local\Temp\ccTdvaWZ.s 			page 1


   1              		.syntax unified
   2              		.cpu cortex-m3
   3              		.fpu softvfp
   4              		.eabi_attribute 20, 1
   5              		.eabi_attribute 21, 1
   6              		.eabi_attribute 23, 3
   7              		.eabi_attribute 24, 1
   8              		.eabi_attribute 25, 1
   9              		.eabi_attribute 26, 1
  10              		.eabi_attribute 30, 2
  11              		.eabi_attribute 34, 1
  12              		.eabi_attribute 18, 4
  13              		.thumb
  14              		.syntax unified
  15              		.file	"u8x8_d_ks0108.c"
  16              		.text
  17              	.Ltext0:
  18              		.cfi_sections	.debug_frame
  19              		.section	.text.u8x8_d_ks0108_128x64,"ax",%progbits
  20              		.align	2
  21              		.global	u8x8_d_ks0108_128x64
  22              		.thumb
  23              		.thumb_func
  24              		.type	u8x8_d_ks0108_128x64, %function
  25              	u8x8_d_ks0108_128x64:
  26              	.LFB1:
  27              		.file 1 "..\\u8g2-master\\csrc\\u8x8_d_ks0108.c"
   1:..\u8g2-master\csrc/u8x8_d_ks0108.c **** /*
   2:..\u8g2-master\csrc/u8x8_d_ks0108.c **** 
   3:..\u8g2-master\csrc/u8x8_d_ks0108.c ****   u8x8_d_ks0108.c 
   4:..\u8g2-master\csrc/u8x8_d_ks0108.c ****   
   5:..\u8g2-master\csrc/u8x8_d_ks0108.c ****   The classic 5V LCD
   6:..\u8g2-master\csrc/u8x8_d_ks0108.c ****   
   7:..\u8g2-master\csrc/u8x8_d_ks0108.c ****   Universal 8bit Graphics Library (https://github.com/olikraus/u8g2/)
   8:..\u8g2-master\csrc/u8x8_d_ks0108.c **** 
   9:..\u8g2-master\csrc/u8x8_d_ks0108.c ****   Copyright (c) 2016, olikraus@gmail.com
  10:..\u8g2-master\csrc/u8x8_d_ks0108.c ****   All rights reserved.
  11:..\u8g2-master\csrc/u8x8_d_ks0108.c **** 
  12:..\u8g2-master\csrc/u8x8_d_ks0108.c ****   Redistribution and use in source and binary forms, with or without modification, 
  13:..\u8g2-master\csrc/u8x8_d_ks0108.c ****   are permitted provided that the following conditions are met:
  14:..\u8g2-master\csrc/u8x8_d_ks0108.c **** 
  15:..\u8g2-master\csrc/u8x8_d_ks0108.c ****   * Redistributions of source code must retain the above copyright notice, this list 
  16:..\u8g2-master\csrc/u8x8_d_ks0108.c ****     of conditions and the following disclaimer.
  17:..\u8g2-master\csrc/u8x8_d_ks0108.c ****     
  18:..\u8g2-master\csrc/u8x8_d_ks0108.c ****   * Redistributions in binary form must reproduce the above copyright notice, this 
  19:..\u8g2-master\csrc/u8x8_d_ks0108.c ****     list of conditions and the following disclaimer in the documentation and/or other 
  20:..\u8g2-master\csrc/u8x8_d_ks0108.c ****     materials provided with the distribution.
  21:..\u8g2-master\csrc/u8x8_d_ks0108.c **** 
  22:..\u8g2-master\csrc/u8x8_d_ks0108.c ****   THIS SOFTWARE IS PROVIDED BY THE COPYRIGHT HOLDERS AND 
  23:..\u8g2-master\csrc/u8x8_d_ks0108.c ****   CONTRIBUTORS "AS IS" AND ANY EXPRESS OR IMPLIED WARRANTIES, 
  24:..\u8g2-master\csrc/u8x8_d_ks0108.c ****   INCLUDING, BUT NOT LIMITED TO, THE IMPLIED WARRANTIES OF 
  25:..\u8g2-master\csrc/u8x8_d_ks0108.c ****   MERCHANTABILITY AND FITNESS FOR A PARTICULAR PURPOSE ARE 
  26:..\u8g2-master\csrc/u8x8_d_ks0108.c ****   DISCLAIMED. IN NO EVENT SHALL THE COPYRIGHT HOLDER OR 
  27:..\u8g2-master\csrc/u8x8_d_ks0108.c ****   CONTRIBUTORS BE LIABLE FOR ANY DIRECT, INDIRECT, INCIDENTAL, 
  28:..\u8g2-master\csrc/u8x8_d_ks0108.c ****   SPECIAL, EXEMPLARY, OR CONSEQUENTIAL DAMAGES (INCLUDING, BUT 
  29:..\u8g2-master\csrc/u8x8_d_ks0108.c ****   NOT LIMITED TO, PROCUREMENT OF SUBSTITUTE GOODS OR SERVICES; 
  30:..\u8g2-master\csrc/u8x8_d_ks0108.c ****   LOSS OF USE, DATA, OR PROFITS; OR BUSINESS INTERRUPTION) HOWEVER 
ARM GAS  C:\Users\info\AppData\Local\Temp\ccTdvaWZ.s 			page 2


  31:..\u8g2-master\csrc/u8x8_d_ks0108.c ****   CAUSED AND ON ANY THEORY OF LIABILITY, WHETHER IN CONTRACT, 
  32:..\u8g2-master\csrc/u8x8_d_ks0108.c ****   STRICT LIABILITY, OR TORT (INCLUDING NEGLIGENCE OR OTHERWISE) 
  33:..\u8g2-master\csrc/u8x8_d_ks0108.c ****   ARISING IN ANY WAY OUT OF THE USE OF THIS SOFTWARE, EVEN IF 
  34:..\u8g2-master\csrc/u8x8_d_ks0108.c ****   ADVISED OF THE POSSIBILITY OF SUCH DAMAGE.  
  35:..\u8g2-master\csrc/u8x8_d_ks0108.c **** 
  36:..\u8g2-master\csrc/u8x8_d_ks0108.c ****   
  37:..\u8g2-master\csrc/u8x8_d_ks0108.c **** */
  38:..\u8g2-master\csrc/u8x8_d_ks0108.c **** #include "u8x8.h"
  39:..\u8g2-master\csrc/u8x8_d_ks0108.c **** 
  40:..\u8g2-master\csrc/u8x8_d_ks0108.c **** 
  41:..\u8g2-master\csrc/u8x8_d_ks0108.c **** 
  42:..\u8g2-master\csrc/u8x8_d_ks0108.c **** 
  43:..\u8g2-master\csrc/u8x8_d_ks0108.c **** static const uint8_t u8x8_d_ks0108_init_seq[] = {
  44:..\u8g2-master\csrc/u8x8_d_ks0108.c ****   U8X8_C(0x0c0),		                /* satart at the top  */  
  45:..\u8g2-master\csrc/u8x8_d_ks0108.c ****   U8X8_END()             			/* end of sequence */
  46:..\u8g2-master\csrc/u8x8_d_ks0108.c **** };
  47:..\u8g2-master\csrc/u8x8_d_ks0108.c **** 
  48:..\u8g2-master\csrc/u8x8_d_ks0108.c **** static const uint8_t u8x8_d_ks0108_powersave0_seq[] = {
  49:..\u8g2-master\csrc/u8x8_d_ks0108.c ****   U8X8_C(0x03f),		                /* display on */
  50:..\u8g2-master\csrc/u8x8_d_ks0108.c ****   U8X8_END()             			/* end of sequence */
  51:..\u8g2-master\csrc/u8x8_d_ks0108.c **** };
  52:..\u8g2-master\csrc/u8x8_d_ks0108.c **** 
  53:..\u8g2-master\csrc/u8x8_d_ks0108.c **** static const uint8_t u8x8_d_ks0108_powersave1_seq[] = {
  54:..\u8g2-master\csrc/u8x8_d_ks0108.c ****   U8X8_C(0x03e),		                /* display off */
  55:..\u8g2-master\csrc/u8x8_d_ks0108.c ****   U8X8_END()             			/* end of sequence */
  56:..\u8g2-master\csrc/u8x8_d_ks0108.c **** };
  57:..\u8g2-master\csrc/u8x8_d_ks0108.c **** 
  58:..\u8g2-master\csrc/u8x8_d_ks0108.c **** 
  59:..\u8g2-master\csrc/u8x8_d_ks0108.c **** struct u8x8_ks0108_vars
  60:..\u8g2-master\csrc/u8x8_d_ks0108.c **** {
  61:..\u8g2-master\csrc/u8x8_d_ks0108.c ****   uint8_t *ptr;
  62:..\u8g2-master\csrc/u8x8_d_ks0108.c ****   uint8_t x;
  63:..\u8g2-master\csrc/u8x8_d_ks0108.c ****   uint8_t c;
  64:..\u8g2-master\csrc/u8x8_d_ks0108.c ****   uint8_t arg_int;
  65:..\u8g2-master\csrc/u8x8_d_ks0108.c **** };
  66:..\u8g2-master\csrc/u8x8_d_ks0108.c **** 
  67:..\u8g2-master\csrc/u8x8_d_ks0108.c **** static void u8x8_ks0108_out(u8x8_t *u8x8, struct u8x8_ks0108_vars *v, void *arg_ptr)
  68:..\u8g2-master\csrc/u8x8_d_ks0108.c **** {
  69:..\u8g2-master\csrc/u8x8_d_ks0108.c ****   uint8_t cnt;
  70:..\u8g2-master\csrc/u8x8_d_ks0108.c ****   u8x8_cad_SendCmd(u8x8, 0x040 | ((v->x << 3) & 63) );
  71:..\u8g2-master\csrc/u8x8_d_ks0108.c ****   u8x8_cad_SendCmd(u8x8, 0x0b8 | (((u8x8_tile_t *)arg_ptr)->y_pos));
  72:..\u8g2-master\csrc/u8x8_d_ks0108.c ****   
  73:..\u8g2-master\csrc/u8x8_d_ks0108.c ****   while( v->arg_int > 0 )
  74:..\u8g2-master\csrc/u8x8_d_ks0108.c ****   {
  75:..\u8g2-master\csrc/u8x8_d_ks0108.c ****       /* calculate tiles to next boundary (end or chip limit) */
  76:..\u8g2-master\csrc/u8x8_d_ks0108.c ****       cnt = v->x;
  77:..\u8g2-master\csrc/u8x8_d_ks0108.c ****       cnt += 8;
  78:..\u8g2-master\csrc/u8x8_d_ks0108.c ****       cnt &= 0x0f8;
  79:..\u8g2-master\csrc/u8x8_d_ks0108.c ****       cnt -= v->x;
  80:..\u8g2-master\csrc/u8x8_d_ks0108.c ****             
  81:..\u8g2-master\csrc/u8x8_d_ks0108.c ****       if ( cnt > v->c )
  82:..\u8g2-master\csrc/u8x8_d_ks0108.c **** 	cnt = v->c;
  83:..\u8g2-master\csrc/u8x8_d_ks0108.c ****     
  84:..\u8g2-master\csrc/u8x8_d_ks0108.c ****       /* of cours we still could use cnt=1 here... */
  85:..\u8g2-master\csrc/u8x8_d_ks0108.c ****       /* but setting cnt to 1 is not very efficient */
  86:..\u8g2-master\csrc/u8x8_d_ks0108.c ****       //cnt = 1;
  87:..\u8g2-master\csrc/u8x8_d_ks0108.c ****     
ARM GAS  C:\Users\info\AppData\Local\Temp\ccTdvaWZ.s 			page 3


  88:..\u8g2-master\csrc/u8x8_d_ks0108.c ****       v->x +=cnt;
  89:..\u8g2-master\csrc/u8x8_d_ks0108.c ****       v->c-=cnt;
  90:..\u8g2-master\csrc/u8x8_d_ks0108.c ****       cnt<<=3;
  91:..\u8g2-master\csrc/u8x8_d_ks0108.c ****       u8x8_cad_SendData(u8x8, cnt, v->ptr);	/* note: SendData can not handle more than 255 bytes */
  92:..\u8g2-master\csrc/u8x8_d_ks0108.c ****       v->ptr += cnt;
  93:..\u8g2-master\csrc/u8x8_d_ks0108.c ****     
  94:..\u8g2-master\csrc/u8x8_d_ks0108.c ****       if ( v->c == 0 )
  95:..\u8g2-master\csrc/u8x8_d_ks0108.c ****       {
  96:..\u8g2-master\csrc/u8x8_d_ks0108.c **** 	v->ptr = ((u8x8_tile_t *)arg_ptr)->tile_ptr;
  97:..\u8g2-master\csrc/u8x8_d_ks0108.c **** 	v->c = ((u8x8_tile_t *)arg_ptr)->cnt;
  98:..\u8g2-master\csrc/u8x8_d_ks0108.c **** 	v->arg_int--;
  99:..\u8g2-master\csrc/u8x8_d_ks0108.c ****       }
 100:..\u8g2-master\csrc/u8x8_d_ks0108.c ****       if ( ((v->x) & 7) == 0 )
 101:..\u8g2-master\csrc/u8x8_d_ks0108.c **** 	break;       
 102:..\u8g2-master\csrc/u8x8_d_ks0108.c ****   } 
 103:..\u8g2-master\csrc/u8x8_d_ks0108.c **** }
 104:..\u8g2-master\csrc/u8x8_d_ks0108.c **** 
 105:..\u8g2-master\csrc/u8x8_d_ks0108.c **** 
 106:..\u8g2-master\csrc/u8x8_d_ks0108.c **** static const u8x8_display_info_t u8x8_ks0108_128x64_display_info =
 107:..\u8g2-master\csrc/u8x8_d_ks0108.c **** {
 108:..\u8g2-master\csrc/u8x8_d_ks0108.c ****   /* chip_enable_level = */ 0,		/* KS0108: Not used */
 109:..\u8g2-master\csrc/u8x8_d_ks0108.c ****   /* chip_disable_level = */ 1,		/* KS0108: Not used */
 110:..\u8g2-master\csrc/u8x8_d_ks0108.c ****   
 111:..\u8g2-master\csrc/u8x8_d_ks0108.c ****   /* post_chip_enable_wait_ns = */ 100,
 112:..\u8g2-master\csrc/u8x8_d_ks0108.c ****   /* pre_chip_disable_wait_ns = */ 20,
 113:..\u8g2-master\csrc/u8x8_d_ks0108.c ****   /* reset_pulse_width_ms = */ 1, 
 114:..\u8g2-master\csrc/u8x8_d_ks0108.c ****   /* post_reset_wait_ms = */ 6, 		/* could be faster for the KS0108 */
 115:..\u8g2-master\csrc/u8x8_d_ks0108.c ****   /* sda_setup_time_ns = */ 12,		
 116:..\u8g2-master\csrc/u8x8_d_ks0108.c ****   /* sck_pulse_width_ns = */ 75,	/* KS0108: Not used */
 117:..\u8g2-master\csrc/u8x8_d_ks0108.c ****   /* sck_clock_hz = */ 4000000UL,	/* KS0108: Not used */
 118:..\u8g2-master\csrc/u8x8_d_ks0108.c ****   /* spi_mode = */ 0,				/* active high, rising edge */
 119:..\u8g2-master\csrc/u8x8_d_ks0108.c ****   /* i2c_bus_clock_100kHz = */ 4,	/* KS0108: Not used */
 120:..\u8g2-master\csrc/u8x8_d_ks0108.c ****   /* data_setup_time_ns = */ 200,
 121:..\u8g2-master\csrc/u8x8_d_ks0108.c ****   /* write_pulse_width_ns = */ 250,	/* KS0108: actially 450 ns, but additional 200 ns are added by 
 122:..\u8g2-master\csrc/u8x8_d_ks0108.c ****   /* tile_width = */ 16,		/* width of 16*8=128 pixel */
 123:..\u8g2-master\csrc/u8x8_d_ks0108.c ****   /* tile_hight = */ 8,
 124:..\u8g2-master\csrc/u8x8_d_ks0108.c ****   /* default_x_offset = */ 0,
 125:..\u8g2-master\csrc/u8x8_d_ks0108.c ****   /* flipmode_x_offset = */ 0,
 126:..\u8g2-master\csrc/u8x8_d_ks0108.c ****   /* pixel_width = */ 128,
 127:..\u8g2-master\csrc/u8x8_d_ks0108.c ****   /* pixel_height = */ 64
 128:..\u8g2-master\csrc/u8x8_d_ks0108.c **** };
 129:..\u8g2-master\csrc/u8x8_d_ks0108.c **** 
 130:..\u8g2-master\csrc/u8x8_d_ks0108.c **** uint8_t u8x8_d_ks0108_128x64(u8x8_t *u8x8, uint8_t msg, uint8_t arg_int, void *arg_ptr)
 131:..\u8g2-master\csrc/u8x8_d_ks0108.c **** {
  28              		.loc 1 131 0
  29              		.cfi_startproc
  30              		@ args = 0, pretend = 0, frame = 0
  31              		@ frame_needed = 0, uses_anonymous_args = 0
  32              	.LVL0:
 132:..\u8g2-master\csrc/u8x8_d_ks0108.c ****   struct u8x8_ks0108_vars v;
 133:..\u8g2-master\csrc/u8x8_d_ks0108.c ****   switch(msg)
  33              		.loc 1 133 0
  34 0000 0939     		subs	r1, r1, #9
  35              	.LVL1:
 131:..\u8g2-master\csrc/u8x8_d_ks0108.c ****   struct u8x8_ks0108_vars v;
  36              		.loc 1 131 0
  37 0002 2DE9F047 		push	{r4, r5, r6, r7, r8, r9, r10, lr}
ARM GAS  C:\Users\info\AppData\Local\Temp\ccTdvaWZ.s 			page 4


  38              		.cfi_def_cfa_offset 32
  39              		.cfi_offset 4, -32
  40              		.cfi_offset 5, -28
  41              		.cfi_offset 6, -24
  42              		.cfi_offset 7, -20
  43              		.cfi_offset 8, -16
  44              		.cfi_offset 9, -12
  45              		.cfi_offset 10, -8
  46              		.cfi_offset 14, -4
 131:..\u8g2-master\csrc/u8x8_d_ks0108.c ****   struct u8x8_ks0108_vars v;
  47              		.loc 1 131 0
  48 0006 0646     		mov	r6, r0
  49 0008 9046     		mov	r8, r2
  50 000a 9A46     		mov	r10, r3
  51              		.loc 1 133 0
  52 000c 0629     		cmp	r1, #6
  53 000e 62D8     		bhi	.L20
  54 0010 DFE801F0 		tbb	[pc, r1]
  55              	.LVL2:
  56              	.L4:
  57 0014 36       		.byte	(.L3-.L4)/2
  58 0015 3C       		.byte	(.L5-.L4)/2
  59 0016 12       		.byte	(.L6-.L4)/2
  60 0017 61       		.byte	(.L20-.L4)/2
  61 0018 61       		.byte	(.L20-.L4)/2
  62 0019 61       		.byte	(.L20-.L4)/2
  63 001a 04       		.byte	(.L7-.L4)/2
  64 001b 00       		.p2align 1
  65              	.L7:
 134:..\u8g2-master\csrc/u8x8_d_ks0108.c ****   {
 135:..\u8g2-master\csrc/u8x8_d_ks0108.c ****     case U8X8_MSG_DISPLAY_SETUP_MEMORY:
 136:..\u8g2-master\csrc/u8x8_d_ks0108.c ****       u8x8_d_helper_display_setup_memory(u8x8, &u8x8_ks0108_128x64_display_info);
 137:..\u8g2-master\csrc/u8x8_d_ks0108.c ****       break;
 138:..\u8g2-master\csrc/u8x8_d_ks0108.c ****     case U8X8_MSG_DISPLAY_INIT:
 139:..\u8g2-master\csrc/u8x8_d_ks0108.c ****       u8x8_d_helper_display_init(u8x8);
 140:..\u8g2-master\csrc/u8x8_d_ks0108.c ****     
 141:..\u8g2-master\csrc/u8x8_d_ks0108.c ****       u8x8->cad_cb(u8x8, U8X8_MSG_CAD_START_TRANSFER, 1, NULL);
 142:..\u8g2-master\csrc/u8x8_d_ks0108.c ****       u8x8_cad_SendSequence(u8x8, u8x8_d_ks0108_init_seq);
 143:..\u8g2-master\csrc/u8x8_d_ks0108.c ****       u8x8->cad_cb(u8x8, U8X8_MSG_CAD_END_TRANSFER, 0, NULL);
 144:..\u8g2-master\csrc/u8x8_d_ks0108.c ****     
 145:..\u8g2-master\csrc/u8x8_d_ks0108.c ****       u8x8->cad_cb(u8x8, U8X8_MSG_CAD_START_TRANSFER, 2, NULL);
 146:..\u8g2-master\csrc/u8x8_d_ks0108.c ****       u8x8_cad_SendSequence(u8x8, u8x8_d_ks0108_init_seq);
 147:..\u8g2-master\csrc/u8x8_d_ks0108.c ****       u8x8->cad_cb(u8x8, U8X8_MSG_CAD_END_TRANSFER, 0, NULL);
 148:..\u8g2-master\csrc/u8x8_d_ks0108.c ****       break;
 149:..\u8g2-master\csrc/u8x8_d_ks0108.c ****     case U8X8_MSG_DISPLAY_SET_POWER_SAVE:
 150:..\u8g2-master\csrc/u8x8_d_ks0108.c ****       
 151:..\u8g2-master\csrc/u8x8_d_ks0108.c ****       if ( arg_int == 0 )
 152:..\u8g2-master\csrc/u8x8_d_ks0108.c ****       {
 153:..\u8g2-master\csrc/u8x8_d_ks0108.c **** 	u8x8->cad_cb(u8x8, U8X8_MSG_CAD_START_TRANSFER, 1, NULL);
 154:..\u8g2-master\csrc/u8x8_d_ks0108.c **** 	u8x8_cad_SendSequence(u8x8, u8x8_d_ks0108_powersave0_seq);
 155:..\u8g2-master\csrc/u8x8_d_ks0108.c **** 	u8x8->cad_cb(u8x8, U8X8_MSG_CAD_END_TRANSFER, 0, NULL);
 156:..\u8g2-master\csrc/u8x8_d_ks0108.c **** 
 157:..\u8g2-master\csrc/u8x8_d_ks0108.c **** 	u8x8->cad_cb(u8x8, U8X8_MSG_CAD_START_TRANSFER, 2, NULL);
 158:..\u8g2-master\csrc/u8x8_d_ks0108.c **** 	u8x8_cad_SendSequence(u8x8, u8x8_d_ks0108_powersave0_seq);
 159:..\u8g2-master\csrc/u8x8_d_ks0108.c **** 	u8x8->cad_cb(u8x8, U8X8_MSG_CAD_END_TRANSFER, 0, NULL);
 160:..\u8g2-master\csrc/u8x8_d_ks0108.c **** 	
 161:..\u8g2-master\csrc/u8x8_d_ks0108.c ****       }
ARM GAS  C:\Users\info\AppData\Local\Temp\ccTdvaWZ.s 			page 5


 162:..\u8g2-master\csrc/u8x8_d_ks0108.c ****       else
 163:..\u8g2-master\csrc/u8x8_d_ks0108.c ****       {
 164:..\u8g2-master\csrc/u8x8_d_ks0108.c **** 	u8x8->cad_cb(u8x8, U8X8_MSG_CAD_START_TRANSFER, 1, NULL);
 165:..\u8g2-master\csrc/u8x8_d_ks0108.c **** 	u8x8_cad_SendSequence(u8x8, u8x8_d_ks0108_powersave1_seq);
 166:..\u8g2-master\csrc/u8x8_d_ks0108.c **** 	u8x8->cad_cb(u8x8, U8X8_MSG_CAD_END_TRANSFER, 0, NULL);
 167:..\u8g2-master\csrc/u8x8_d_ks0108.c **** 	
 168:..\u8g2-master\csrc/u8x8_d_ks0108.c **** 	u8x8->cad_cb(u8x8, U8X8_MSG_CAD_START_TRANSFER, 2, NULL);
 169:..\u8g2-master\csrc/u8x8_d_ks0108.c **** 	u8x8_cad_SendSequence(u8x8, u8x8_d_ks0108_powersave1_seq);
 170:..\u8g2-master\csrc/u8x8_d_ks0108.c **** 	u8x8->cad_cb(u8x8, U8X8_MSG_CAD_END_TRANSFER, 0, NULL);
 171:..\u8g2-master\csrc/u8x8_d_ks0108.c **** 	
 172:..\u8g2-master\csrc/u8x8_d_ks0108.c ****       }
 173:..\u8g2-master\csrc/u8x8_d_ks0108.c ****       break;
 174:..\u8g2-master\csrc/u8x8_d_ks0108.c **** // The KS0108 can not mirror the cols and rows, use U8g2 for rotation
 175:..\u8g2-master\csrc/u8x8_d_ks0108.c **** //    case U8X8_MSG_DISPLAY_SET_FLIP_MODE:
 176:..\u8g2-master\csrc/u8x8_d_ks0108.c **** //      break;
 177:..\u8g2-master\csrc/u8x8_d_ks0108.c **** // The KS0108 has no internal contrast command
 178:..\u8g2-master\csrc/u8x8_d_ks0108.c **** //    case U8X8_MSG_DISPLAY_SET_CONTRAST:
 179:..\u8g2-master\csrc/u8x8_d_ks0108.c **** //      break;
 180:..\u8g2-master\csrc/u8x8_d_ks0108.c ****     case U8X8_MSG_DISPLAY_DRAW_TILE:
 181:..\u8g2-master\csrc/u8x8_d_ks0108.c **** 
 182:..\u8g2-master\csrc/u8x8_d_ks0108.c ****       v.ptr = ((u8x8_tile_t *)arg_ptr)->tile_ptr;
 183:..\u8g2-master\csrc/u8x8_d_ks0108.c ****       v.x = ((u8x8_tile_t *)arg_ptr)->x_pos;
  66              		.loc 1 183 0
  67 001c 9AF80550 		ldrb	r5, [r10, #5]	@ zero_extendqisi2
 182:..\u8g2-master\csrc/u8x8_d_ks0108.c ****       v.x = ((u8x8_tile_t *)arg_ptr)->x_pos;
  68              		.loc 1 182 0
  69 0020 DAF80090 		ldr	r9, [r10]
  70              	.LVL3:
 184:..\u8g2-master\csrc/u8x8_d_ks0108.c ****       v.c = ((u8x8_tile_t *)arg_ptr)->cnt;
 185:..\u8g2-master\csrc/u8x8_d_ks0108.c ****       v.arg_int = arg_int;    
 186:..\u8g2-master\csrc/u8x8_d_ks0108.c ****       
 187:..\u8g2-master\csrc/u8x8_d_ks0108.c ****       
 188:..\u8g2-master\csrc/u8x8_d_ks0108.c ****       if ( v.x < 8 )
  71              		.loc 1 188 0
  72 0024 072D     		cmp	r5, #7
 184:..\u8g2-master\csrc/u8x8_d_ks0108.c ****       v.c = ((u8x8_tile_t *)arg_ptr)->cnt;
  73              		.loc 1 184 0
  74 0026 9AF80440 		ldrb	r4, [r10, #4]	@ zero_extendqisi2
  75              	.LVL4:
  76              		.loc 1 188 0
  77 002a 40F2AB80 		bls	.L28
  78              	.LVL5:
  79              	.L9:
 189:..\u8g2-master\csrc/u8x8_d_ks0108.c ****       {
 190:..\u8g2-master\csrc/u8x8_d_ks0108.c **** 	u8x8->cad_cb(u8x8, U8X8_MSG_CAD_START_TRANSFER, 1, NULL);
 191:..\u8g2-master\csrc/u8x8_d_ks0108.c **** 	u8x8_ks0108_out(u8x8, &v, arg_ptr);
 192:..\u8g2-master\csrc/u8x8_d_ks0108.c **** 	u8x8->cad_cb(u8x8, U8X8_MSG_CAD_END_TRANSFER, 0, NULL);
 193:..\u8g2-master\csrc/u8x8_d_ks0108.c ****       }
 194:..\u8g2-master\csrc/u8x8_d_ks0108.c ****       if ( v.x < 16 )
  80              		.loc 1 194 0
  81 002e 0F2D     		cmp	r5, #15
  82 0030 6DD9     		bls	.L29
 195:..\u8g2-master\csrc/u8x8_d_ks0108.c ****       {
 196:..\u8g2-master\csrc/u8x8_d_ks0108.c **** 	u8x8->cad_cb(u8x8, U8X8_MSG_CAD_START_TRANSFER, 2, NULL);
 197:..\u8g2-master\csrc/u8x8_d_ks0108.c **** 	u8x8_ks0108_out(u8x8, &v, arg_ptr);
 198:..\u8g2-master\csrc/u8x8_d_ks0108.c **** 	u8x8->cad_cb(u8x8, U8X8_MSG_CAD_END_TRANSFER, 0, NULL);
 199:..\u8g2-master\csrc/u8x8_d_ks0108.c ****       }
ARM GAS  C:\Users\info\AppData\Local\Temp\ccTdvaWZ.s 			page 6


 200:..\u8g2-master\csrc/u8x8_d_ks0108.c ****       //if ( v.x < 24 )
 201:..\u8g2-master\csrc/u8x8_d_ks0108.c ****       //{
 202:..\u8g2-master\csrc/u8x8_d_ks0108.c **** 	//u8x8->cad_cb(u8x8, U8X8_MSG_CAD_START_TRANSFER, 4, NULL);
 203:..\u8g2-master\csrc/u8x8_d_ks0108.c **** 	//u8x8_ks0108_out(u8x8, &v, arg_ptr);
 204:..\u8g2-master\csrc/u8x8_d_ks0108.c **** 	//u8x8->cad_cb(u8x8, U8X8_MSG_CAD_END_TRANSFER, 0, NULL);
 205:..\u8g2-master\csrc/u8x8_d_ks0108.c ****       //}    
 206:..\u8g2-master\csrc/u8x8_d_ks0108.c ****       break;
 207:..\u8g2-master\csrc/u8x8_d_ks0108.c ****     default:
 208:..\u8g2-master\csrc/u8x8_d_ks0108.c ****       return 0;
 209:..\u8g2-master\csrc/u8x8_d_ks0108.c ****   }
 210:..\u8g2-master\csrc/u8x8_d_ks0108.c ****   return 1;
  83              		.loc 1 210 0
  84 0032 0120     		movs	r0, #1
 211:..\u8g2-master\csrc/u8x8_d_ks0108.c **** }
  85              		.loc 1 211 0
  86 0034 BDE8F087 		pop	{r4, r5, r6, r7, r8, r9, r10, pc}
  87              	.LVL6:
  88              	.L6:
 153:..\u8g2-master\csrc/u8x8_d_ks0108.c **** 	u8x8_cad_SendSequence(u8x8, u8x8_d_ks0108_powersave0_seq);
  89              		.loc 1 153 0
  90 0038 C468     		ldr	r4, [r0, #12]
 151:..\u8g2-master\csrc/u8x8_d_ks0108.c ****       {
  91              		.loc 1 151 0
  92 003a 002A     		cmp	r2, #0
  93 003c 4ED1     		bne	.L8
 153:..\u8g2-master\csrc/u8x8_d_ks0108.c **** 	u8x8_cad_SendSequence(u8x8, u8x8_d_ks0108_powersave0_seq);
  94              		.loc 1 153 0
  95 003e 1346     		mov	r3, r2
  96 0040 1821     		movs	r1, #24
  97 0042 0122     		movs	r2, #1
  98              	.LVL7:
  99 0044 A047     		blx	r4
 100              	.LVL8:
 154:..\u8g2-master\csrc/u8x8_d_ks0108.c **** 	u8x8->cad_cb(u8x8, U8X8_MSG_CAD_END_TRANSFER, 0, NULL);
 101              		.loc 1 154 0
 102 0046 3046     		mov	r0, r6
 103 0048 6F49     		ldr	r1, .L32
 104 004a FFF7FEFF 		bl	u8x8_cad_SendSequence
 105              	.LVL9:
 155:..\u8g2-master\csrc/u8x8_d_ks0108.c **** 
 106              		.loc 1 155 0
 107 004e F468     		ldr	r4, [r6, #12]
 108 0050 4346     		mov	r3, r8
 109 0052 4246     		mov	r2, r8
 110 0054 1921     		movs	r1, #25
 111 0056 3046     		mov	r0, r6
 112 0058 A047     		blx	r4
 113              	.LVL10:
 157:..\u8g2-master\csrc/u8x8_d_ks0108.c **** 	u8x8_cad_SendSequence(u8x8, u8x8_d_ks0108_powersave0_seq);
 114              		.loc 1 157 0
 115 005a 4346     		mov	r3, r8
 116 005c F468     		ldr	r4, [r6, #12]
 117 005e 0222     		movs	r2, #2
 118 0060 1821     		movs	r1, #24
 119 0062 3046     		mov	r0, r6
 120 0064 A047     		blx	r4
 121              	.LVL11:
ARM GAS  C:\Users\info\AppData\Local\Temp\ccTdvaWZ.s 			page 7


 158:..\u8g2-master\csrc/u8x8_d_ks0108.c **** 	u8x8->cad_cb(u8x8, U8X8_MSG_CAD_END_TRANSFER, 0, NULL);
 122              		.loc 1 158 0
 123 0066 3046     		mov	r0, r6
 124 0068 6749     		ldr	r1, .L32
 125 006a FFF7FEFF 		bl	u8x8_cad_SendSequence
 126              	.LVL12:
 159:..\u8g2-master\csrc/u8x8_d_ks0108.c **** 	
 127              		.loc 1 159 0
 128 006e F468     		ldr	r4, [r6, #12]
 129 0070 3046     		mov	r0, r6
 130 0072 4346     		mov	r3, r8
 131 0074 4246     		mov	r2, r8
 132 0076 1921     		movs	r1, #25
 133 0078 A047     		blx	r4
 134              	.LVL13:
 210:..\u8g2-master\csrc/u8x8_d_ks0108.c **** }
 135              		.loc 1 210 0
 136 007a 0120     		movs	r0, #1
 137 007c BDE8F087 		pop	{r4, r5, r6, r7, r8, r9, r10, pc}
 138              	.LVL14:
 139              	.L3:
 136:..\u8g2-master\csrc/u8x8_d_ks0108.c ****       break;
 140              		.loc 1 136 0
 141 0080 6249     		ldr	r1, .L32+4
 142 0082 FFF7FEFF 		bl	u8x8_d_helper_display_setup_memory
 143              	.LVL15:
 210:..\u8g2-master\csrc/u8x8_d_ks0108.c **** }
 144              		.loc 1 210 0
 145 0086 0120     		movs	r0, #1
 137:..\u8g2-master\csrc/u8x8_d_ks0108.c ****     case U8X8_MSG_DISPLAY_INIT:
 146              		.loc 1 137 0
 147 0088 BDE8F087 		pop	{r4, r5, r6, r7, r8, r9, r10, pc}
 148              	.LVL16:
 149              	.L5:
 139:..\u8g2-master\csrc/u8x8_d_ks0108.c ****     
 150              		.loc 1 139 0
 151 008c FFF7FEFF 		bl	u8x8_d_helper_display_init
 152              	.LVL17:
 141:..\u8g2-master\csrc/u8x8_d_ks0108.c ****       u8x8_cad_SendSequence(u8x8, u8x8_d_ks0108_init_seq);
 153              		.loc 1 141 0
 154 0090 0023     		movs	r3, #0
 155 0092 0122     		movs	r2, #1
 156 0094 F468     		ldr	r4, [r6, #12]
 157 0096 1821     		movs	r1, #24
 158 0098 3046     		mov	r0, r6
 159 009a A047     		blx	r4
 160              	.LVL18:
 142:..\u8g2-master\csrc/u8x8_d_ks0108.c ****       u8x8->cad_cb(u8x8, U8X8_MSG_CAD_END_TRANSFER, 0, NULL);
 161              		.loc 1 142 0
 162 009c 5C49     		ldr	r1, .L32+8
 163 009e 3046     		mov	r0, r6
 164 00a0 FFF7FEFF 		bl	u8x8_cad_SendSequence
 165              	.LVL19:
 143:..\u8g2-master\csrc/u8x8_d_ks0108.c ****     
 166              		.loc 1 143 0
 167 00a4 0023     		movs	r3, #0
 168 00a6 1A46     		mov	r2, r3
ARM GAS  C:\Users\info\AppData\Local\Temp\ccTdvaWZ.s 			page 8


 169 00a8 F468     		ldr	r4, [r6, #12]
 170 00aa 1921     		movs	r1, #25
 171 00ac 3046     		mov	r0, r6
 172 00ae A047     		blx	r4
 173              	.LVL20:
 145:..\u8g2-master\csrc/u8x8_d_ks0108.c ****       u8x8_cad_SendSequence(u8x8, u8x8_d_ks0108_init_seq);
 174              		.loc 1 145 0
 175 00b0 1821     		movs	r1, #24
 176 00b2 F468     		ldr	r4, [r6, #12]
 177 00b4 0023     		movs	r3, #0
 178 00b6 0222     		movs	r2, #2
 179 00b8 3046     		mov	r0, r6
 180 00ba A047     		blx	r4
 181              	.LVL21:
 146:..\u8g2-master\csrc/u8x8_d_ks0108.c ****       u8x8->cad_cb(u8x8, U8X8_MSG_CAD_END_TRANSFER, 0, NULL);
 182              		.loc 1 146 0
 183 00bc 5449     		ldr	r1, .L32+8
 184 00be 3046     		mov	r0, r6
 185 00c0 FFF7FEFF 		bl	u8x8_cad_SendSequence
 186              	.LVL22:
 187              	.L19:
 198:..\u8g2-master\csrc/u8x8_d_ks0108.c ****       }
 188              		.loc 1 198 0
 189 00c4 0023     		movs	r3, #0
 190 00c6 1A46     		mov	r2, r3
 191 00c8 F468     		ldr	r4, [r6, #12]
 192 00ca 3046     		mov	r0, r6
 193 00cc 1921     		movs	r1, #25
 194 00ce A047     		blx	r4
 195              	.LVL23:
 210:..\u8g2-master\csrc/u8x8_d_ks0108.c **** }
 196              		.loc 1 210 0
 197 00d0 0120     		movs	r0, #1
 198 00d2 BDE8F087 		pop	{r4, r5, r6, r7, r8, r9, r10, pc}
 199              	.LVL24:
 200              	.L20:
 208:..\u8g2-master\csrc/u8x8_d_ks0108.c ****   }
 201              		.loc 1 208 0
 202 00d6 0020     		movs	r0, #0
 203              	.LVL25:
 204 00d8 BDE8F087 		pop	{r4, r5, r6, r7, r8, r9, r10, pc}
 205              	.LVL26:
 206              	.L8:
 164:..\u8g2-master\csrc/u8x8_d_ks0108.c **** 	u8x8_cad_SendSequence(u8x8, u8x8_d_ks0108_powersave1_seq);
 207              		.loc 1 164 0
 208 00dc 0023     		movs	r3, #0
 209 00de 0122     		movs	r2, #1
 210              	.LVL27:
 211 00e0 1821     		movs	r1, #24
 212 00e2 A047     		blx	r4
 213              	.LVL28:
 165:..\u8g2-master\csrc/u8x8_d_ks0108.c **** 	u8x8->cad_cb(u8x8, U8X8_MSG_CAD_END_TRANSFER, 0, NULL);
 214              		.loc 1 165 0
 215 00e4 3046     		mov	r0, r6
 216 00e6 4B49     		ldr	r1, .L32+12
 217 00e8 FFF7FEFF 		bl	u8x8_cad_SendSequence
 218              	.LVL29:
ARM GAS  C:\Users\info\AppData\Local\Temp\ccTdvaWZ.s 			page 9


 166:..\u8g2-master\csrc/u8x8_d_ks0108.c **** 	
 219              		.loc 1 166 0
 220 00ec 0023     		movs	r3, #0
 221 00ee 1A46     		mov	r2, r3
 222 00f0 F468     		ldr	r4, [r6, #12]
 223 00f2 1921     		movs	r1, #25
 224 00f4 3046     		mov	r0, r6
 225 00f6 A047     		blx	r4
 226              	.LVL30:
 168:..\u8g2-master\csrc/u8x8_d_ks0108.c **** 	u8x8_cad_SendSequence(u8x8, u8x8_d_ks0108_powersave1_seq);
 227              		.loc 1 168 0
 228 00f8 F468     		ldr	r4, [r6, #12]
 229 00fa 0023     		movs	r3, #0
 230 00fc 0222     		movs	r2, #2
 231 00fe 1821     		movs	r1, #24
 232 0100 3046     		mov	r0, r6
 233 0102 A047     		blx	r4
 234              	.LVL31:
 169:..\u8g2-master\csrc/u8x8_d_ks0108.c **** 	u8x8->cad_cb(u8x8, U8X8_MSG_CAD_END_TRANSFER, 0, NULL);
 235              		.loc 1 169 0
 236 0104 4349     		ldr	r1, .L32+12
 237 0106 3046     		mov	r0, r6
 238 0108 FFF7FEFF 		bl	u8x8_cad_SendSequence
 239              	.LVL32:
 240 010c DAE7     		b	.L19
 241              	.LVL33:
 242              	.L29:
 196:..\u8g2-master\csrc/u8x8_d_ks0108.c **** 	u8x8_ks0108_out(u8x8, &v, arg_ptr);
 243              		.loc 1 196 0
 244 010e 0023     		movs	r3, #0
 245 0110 0222     		movs	r2, #2
 246 0112 F768     		ldr	r7, [r6, #12]
 247 0114 1821     		movs	r1, #24
 248 0116 3046     		mov	r0, r6
 249 0118 B847     		blx	r7
 250              	.LVL34:
 251              	.LBB6:
 252              	.LBB7:
  70:..\u8g2-master\csrc/u8x8_d_ks0108.c ****   u8x8_cad_SendCmd(u8x8, 0x0b8 | (((u8x8_tile_t *)arg_ptr)->y_pos));
 253              		.loc 1 70 0
 254 011a E900     		lsls	r1, r5, #3
 255 011c 01F03F01 		and	r1, r1, #63
 256 0120 41F04001 		orr	r1, r1, #64
 257 0124 3046     		mov	r0, r6
 258 0126 FFF7FEFF 		bl	u8x8_cad_SendCmd
 259              	.LVL35:
  71:..\u8g2-master\csrc/u8x8_d_ks0108.c ****   
 260              		.loc 1 71 0
 261 012a 9AF80610 		ldrb	r1, [r10, #6]	@ zero_extendqisi2
 262 012e 3046     		mov	r0, r6
 263 0130 41F0B801 		orr	r1, r1, #184
 264 0134 FFF7FEFF 		bl	u8x8_cad_SendCmd
 265              	.LVL36:
 266 0138 02E0     		b	.L15
 267              	.LVL37:
 268              	.L30:
  92:..\u8g2-master\csrc/u8x8_d_ks0108.c ****     
ARM GAS  C:\Users\info\AppData\Local\Temp\ccTdvaWZ.s 			page 10


 269              		.loc 1 92 0
 270 013a B944     		add	r9, r9, r7
 271              	.LVL38:
 272              	.L17:
 100:..\u8g2-master\csrc/u8x8_d_ks0108.c **** 	break;       
 273              		.loc 1 100 0
 274 013c 6B07     		lsls	r3, r5, #29
 275 013e C1D0     		beq	.L19
 276              	.LVL39:
 277              	.L15:
  77:..\u8g2-master\csrc/u8x8_d_ks0108.c ****       cnt &= 0x0f8;
 278              		.loc 1 77 0
 279 0140 05F10803 		add	r3, r5, #8
 280              	.LVL40:
  78:..\u8g2-master\csrc/u8x8_d_ks0108.c ****       cnt -= v->x;
 281              		.loc 1 78 0
 282 0144 03F0F803 		and	r3, r3, #248
 283              	.LVL41:
  79:..\u8g2-master\csrc/u8x8_d_ks0108.c ****             
 284              		.loc 1 79 0
 285 0148 5B1B     		subs	r3, r3, r5
 286              	.LVL42:
 287 014a DBB2     		uxtb	r3, r3
 288              	.LVL43:
  73:..\u8g2-master\csrc/u8x8_d_ks0108.c ****   {
 289              		.loc 1 73 0
 290 014c B8F1000F 		cmp	r8, #0
 291 0150 B8D0     		beq	.L19
 292 0152 A342     		cmp	r3, r4
 293 0154 28BF     		it	cs
 294 0156 2346     		movcs	r3, r4
 295              	.LVL44:
  90:..\u8g2-master\csrc/u8x8_d_ks0108.c ****       u8x8_cad_SendData(u8x8, cnt, v->ptr);	/* note: SendData can not handle more than 255 bytes */
 296              		.loc 1 90 0
 297 0158 DF00     		lsls	r7, r3, #3
  89:..\u8g2-master\csrc/u8x8_d_ks0108.c ****       cnt<<=3;
 298              		.loc 1 89 0
 299 015a E41A     		subs	r4, r4, r3
 300              	.LVL45:
  90:..\u8g2-master\csrc/u8x8_d_ks0108.c ****       u8x8_cad_SendData(u8x8, cnt, v->ptr);	/* note: SendData can not handle more than 255 bytes */
 301              		.loc 1 90 0
 302 015c FFB2     		uxtb	r7, r7
  89:..\u8g2-master\csrc/u8x8_d_ks0108.c ****       cnt<<=3;
 303              		.loc 1 89 0
 304 015e E4B2     		uxtb	r4, r4
  88:..\u8g2-master\csrc/u8x8_d_ks0108.c ****       v->c-=cnt;
 305              		.loc 1 88 0
 306 0160 1D44     		add	r5, r5, r3
 307              	.LVL46:
  91:..\u8g2-master\csrc/u8x8_d_ks0108.c ****       v->ptr += cnt;
 308              		.loc 1 91 0
 309 0162 3946     		mov	r1, r7
 310 0164 4A46     		mov	r2, r9
 311 0166 3046     		mov	r0, r6
  88:..\u8g2-master\csrc/u8x8_d_ks0108.c ****       v->c-=cnt;
 312              		.loc 1 88 0
 313 0168 EDB2     		uxtb	r5, r5
ARM GAS  C:\Users\info\AppData\Local\Temp\ccTdvaWZ.s 			page 11


 314              	.LVL47:
  91:..\u8g2-master\csrc/u8x8_d_ks0108.c ****       v->ptr += cnt;
 315              		.loc 1 91 0
 316 016a FFF7FEFF 		bl	u8x8_cad_SendData
 317              	.LVL48:
  94:..\u8g2-master\csrc/u8x8_d_ks0108.c ****       {
 318              		.loc 1 94 0
 319 016e 002C     		cmp	r4, #0
 320 0170 E3D1     		bne	.L30
  98:..\u8g2-master\csrc/u8x8_d_ks0108.c ****       }
 321              		.loc 1 98 0
 322 0172 08F1FF38 		add	r8, r8, #-1
 323              	.LVL49:
  96:..\u8g2-master\csrc/u8x8_d_ks0108.c **** 	v->c = ((u8x8_tile_t *)arg_ptr)->cnt;
 324              		.loc 1 96 0
 325 0176 DAF80090 		ldr	r9, [r10]
 326              	.LVL50:
  97:..\u8g2-master\csrc/u8x8_d_ks0108.c **** 	v->arg_int--;
 327              		.loc 1 97 0
 328 017a 9AF80440 		ldrb	r4, [r10, #4]	@ zero_extendqisi2
 329              	.LVL51:
  98:..\u8g2-master\csrc/u8x8_d_ks0108.c ****       }
 330              		.loc 1 98 0
 331 017e 5FFA88F8 		uxtb	r8, r8
 332              	.LVL52:
 333 0182 DBE7     		b	.L17
 334              	.LVL53:
 335              	.L28:
 336              	.LBE7:
 337              	.LBE6:
 190:..\u8g2-master\csrc/u8x8_d_ks0108.c **** 	u8x8_ks0108_out(u8x8, &v, arg_ptr);
 338              		.loc 1 190 0
 339 0184 0023     		movs	r3, #0
 340 0186 0122     		movs	r2, #1
 341              	.LVL54:
 342 0188 C768     		ldr	r7, [r0, #12]
 343 018a 1821     		movs	r1, #24
 344 018c B847     		blx	r7
 345              	.LVL55:
 346              	.LBB8:
 347              	.LBB9:
  70:..\u8g2-master\csrc/u8x8_d_ks0108.c ****   u8x8_cad_SendCmd(u8x8, 0x0b8 | (((u8x8_tile_t *)arg_ptr)->y_pos));
 348              		.loc 1 70 0
 349 018e E900     		lsls	r1, r5, #3
 350 0190 41F04001 		orr	r1, r1, #64
 351 0194 01F0F801 		and	r1, r1, #248
 352 0198 3046     		mov	r0, r6
 353 019a FFF7FEFF 		bl	u8x8_cad_SendCmd
 354              	.LVL56:
  71:..\u8g2-master\csrc/u8x8_d_ks0108.c ****   
 355              		.loc 1 71 0
 356 019e 9AF80610 		ldrb	r1, [r10, #6]	@ zero_extendqisi2
 357 01a2 3046     		mov	r0, r6
 358 01a4 41F0B801 		orr	r1, r1, #184
 359 01a8 FFF7FEFF 		bl	u8x8_cad_SendCmd
 360              	.LVL57:
 361 01ac 02E0     		b	.L10
ARM GAS  C:\Users\info\AppData\Local\Temp\ccTdvaWZ.s 			page 12


 362              	.LVL58:
 363              	.L31:
  92:..\u8g2-master\csrc/u8x8_d_ks0108.c ****     
 364              		.loc 1 92 0
 365 01ae B944     		add	r9, r9, r7
 366              	.LVL59:
 367              	.L12:
 100:..\u8g2-master\csrc/u8x8_d_ks0108.c **** 	break;       
 368              		.loc 1 100 0
 369 01b0 6A07     		lsls	r2, r5, #29
 370 01b2 21D0     		beq	.L13
 371              	.LVL60:
 372              	.L10:
  77:..\u8g2-master\csrc/u8x8_d_ks0108.c ****       cnt &= 0x0f8;
 373              		.loc 1 77 0
 374 01b4 05F10803 		add	r3, r5, #8
 375              	.LVL61:
  78:..\u8g2-master\csrc/u8x8_d_ks0108.c ****       cnt -= v->x;
 376              		.loc 1 78 0
 377 01b8 03F0F803 		and	r3, r3, #248
 378              	.LVL62:
  79:..\u8g2-master\csrc/u8x8_d_ks0108.c ****             
 379              		.loc 1 79 0
 380 01bc 5B1B     		subs	r3, r3, r5
 381              	.LVL63:
 382 01be DBB2     		uxtb	r3, r3
 383              	.LVL64:
  73:..\u8g2-master\csrc/u8x8_d_ks0108.c ****   {
 384              		.loc 1 73 0
 385 01c0 B8F1000F 		cmp	r8, #0
 386 01c4 18D0     		beq	.L13
 387 01c6 A342     		cmp	r3, r4
 388 01c8 28BF     		it	cs
 389 01ca 2346     		movcs	r3, r4
 390              	.LVL65:
  90:..\u8g2-master\csrc/u8x8_d_ks0108.c ****       u8x8_cad_SendData(u8x8, cnt, v->ptr);	/* note: SendData can not handle more than 255 bytes */
 391              		.loc 1 90 0
 392 01cc DF00     		lsls	r7, r3, #3
  89:..\u8g2-master\csrc/u8x8_d_ks0108.c ****       cnt<<=3;
 393              		.loc 1 89 0
 394 01ce E41A     		subs	r4, r4, r3
 395              	.LVL66:
  90:..\u8g2-master\csrc/u8x8_d_ks0108.c ****       u8x8_cad_SendData(u8x8, cnt, v->ptr);	/* note: SendData can not handle more than 255 bytes */
 396              		.loc 1 90 0
 397 01d0 FFB2     		uxtb	r7, r7
  89:..\u8g2-master\csrc/u8x8_d_ks0108.c ****       cnt<<=3;
 398              		.loc 1 89 0
 399 01d2 E4B2     		uxtb	r4, r4
  88:..\u8g2-master\csrc/u8x8_d_ks0108.c ****       v->c-=cnt;
 400              		.loc 1 88 0
 401 01d4 1D44     		add	r5, r5, r3
 402              	.LVL67:
  91:..\u8g2-master\csrc/u8x8_d_ks0108.c ****       v->ptr += cnt;
 403              		.loc 1 91 0
 404 01d6 3946     		mov	r1, r7
 405 01d8 4A46     		mov	r2, r9
 406 01da 3046     		mov	r0, r6
ARM GAS  C:\Users\info\AppData\Local\Temp\ccTdvaWZ.s 			page 13


  88:..\u8g2-master\csrc/u8x8_d_ks0108.c ****       v->c-=cnt;
 407              		.loc 1 88 0
 408 01dc EDB2     		uxtb	r5, r5
 409              	.LVL68:
  91:..\u8g2-master\csrc/u8x8_d_ks0108.c ****       v->ptr += cnt;
 410              		.loc 1 91 0
 411 01de FFF7FEFF 		bl	u8x8_cad_SendData
 412              	.LVL69:
  94:..\u8g2-master\csrc/u8x8_d_ks0108.c ****       {
 413              		.loc 1 94 0
 414 01e2 002C     		cmp	r4, #0
 415 01e4 E3D1     		bne	.L31
  98:..\u8g2-master\csrc/u8x8_d_ks0108.c ****       }
 416              		.loc 1 98 0
 417 01e6 08F1FF38 		add	r8, r8, #-1
 418              	.LVL70:
  96:..\u8g2-master\csrc/u8x8_d_ks0108.c **** 	v->c = ((u8x8_tile_t *)arg_ptr)->cnt;
 419              		.loc 1 96 0
 420 01ea DAF80090 		ldr	r9, [r10]
 421              	.LVL71:
  97:..\u8g2-master\csrc/u8x8_d_ks0108.c **** 	v->arg_int--;
 422              		.loc 1 97 0
 423 01ee 9AF80440 		ldrb	r4, [r10, #4]	@ zero_extendqisi2
 424              	.LVL72:
  98:..\u8g2-master\csrc/u8x8_d_ks0108.c ****       }
 425              		.loc 1 98 0
 426 01f2 5FFA88F8 		uxtb	r8, r8
 427              	.LVL73:
 428 01f6 DBE7     		b	.L12
 429              	.LVL74:
 430              	.L13:
 431              	.LBE9:
 432              	.LBE8:
 192:..\u8g2-master\csrc/u8x8_d_ks0108.c ****       }
 433              		.loc 1 192 0
 434 01f8 0023     		movs	r3, #0
 435 01fa 1A46     		mov	r2, r3
 436 01fc F768     		ldr	r7, [r6, #12]
 437 01fe 1921     		movs	r1, #25
 438 0200 3046     		mov	r0, r6
 439 0202 B847     		blx	r7
 440              	.LVL75:
 441 0204 13E7     		b	.L9
 442              	.L33:
 443 0206 00BF     		.align	2
 444              	.L32:
 445 0208 1C000000 		.word	.LANCHOR0+28
 446 020c 00000000 		.word	.LANCHOR0
 447 0210 18000000 		.word	.LANCHOR0+24
 448 0214 20000000 		.word	.LANCHOR0+32
 449              		.cfi_endproc
 450              	.LFE1:
 451              		.size	u8x8_d_ks0108_128x64, .-u8x8_d_ks0108_128x64
 452              		.section	.text.u8x8_d_ks0108_erm19264,"ax",%progbits
 453              		.align	2
 454              		.global	u8x8_d_ks0108_erm19264
 455              		.thumb
ARM GAS  C:\Users\info\AppData\Local\Temp\ccTdvaWZ.s 			page 14


 456              		.thumb_func
 457              		.type	u8x8_d_ks0108_erm19264, %function
 458              	u8x8_d_ks0108_erm19264:
 459              	.LFB2:
 212:..\u8g2-master\csrc/u8x8_d_ks0108.c **** 
 213:..\u8g2-master\csrc/u8x8_d_ks0108.c **** static const u8x8_display_info_t u8x8_ks0108_192x64_display_info =
 214:..\u8g2-master\csrc/u8x8_d_ks0108.c **** {
 215:..\u8g2-master\csrc/u8x8_d_ks0108.c ****   /* chip_enable_level = */ 0,		/* KS0108: Not used */
 216:..\u8g2-master\csrc/u8x8_d_ks0108.c ****   /* chip_disable_level = */ 1,		/* KS0108: Not used */
 217:..\u8g2-master\csrc/u8x8_d_ks0108.c ****   
 218:..\u8g2-master\csrc/u8x8_d_ks0108.c ****   /* post_chip_enable_wait_ns = */ 100,
 219:..\u8g2-master\csrc/u8x8_d_ks0108.c ****   /* pre_chip_disable_wait_ns = */ 20,
 220:..\u8g2-master\csrc/u8x8_d_ks0108.c ****   /* reset_pulse_width_ms = */ 1, 
 221:..\u8g2-master\csrc/u8x8_d_ks0108.c ****   /* post_reset_wait_ms = */ 6, 		/* could be faster for the KS0108 */
 222:..\u8g2-master\csrc/u8x8_d_ks0108.c ****   /* sda_setup_time_ns = */ 12,		
 223:..\u8g2-master\csrc/u8x8_d_ks0108.c ****   /* sck_pulse_width_ns = */ 75,	/* KS0108: Not used */
 224:..\u8g2-master\csrc/u8x8_d_ks0108.c ****   /* sck_clock_hz = */ 4000000UL,	/* KS0108: Not used */
 225:..\u8g2-master\csrc/u8x8_d_ks0108.c ****   /* spi_mode = */ 0,				/* active high, rising edge */
 226:..\u8g2-master\csrc/u8x8_d_ks0108.c ****   /* i2c_bus_clock_100kHz = */ 4,	/* KS0108: Not used */
 227:..\u8g2-master\csrc/u8x8_d_ks0108.c ****   /* data_setup_time_ns = */ 200,
 228:..\u8g2-master\csrc/u8x8_d_ks0108.c ****   /* write_pulse_width_ns = */ 250,	/* KS0108: actially 450 ns, but additional 200 ns are added by 
 229:..\u8g2-master\csrc/u8x8_d_ks0108.c ****   /* tile_width = */ 24,		/* width of 24*8=192 pixel */
 230:..\u8g2-master\csrc/u8x8_d_ks0108.c ****   /* tile_hight = */ 8,
 231:..\u8g2-master\csrc/u8x8_d_ks0108.c ****   /* default_x_offset = */ 0,
 232:..\u8g2-master\csrc/u8x8_d_ks0108.c ****   /* flipmode_x_offset = */ 0,
 233:..\u8g2-master\csrc/u8x8_d_ks0108.c ****   /* pixel_width = */ 192,
 234:..\u8g2-master\csrc/u8x8_d_ks0108.c ****   /* pixel_height = */ 64
 235:..\u8g2-master\csrc/u8x8_d_ks0108.c **** };
 236:..\u8g2-master\csrc/u8x8_d_ks0108.c **** 
 237:..\u8g2-master\csrc/u8x8_d_ks0108.c **** 
 238:..\u8g2-master\csrc/u8x8_d_ks0108.c **** /* east rising (buydisplay.com) ERM19264 */
 239:..\u8g2-master\csrc/u8x8_d_ks0108.c **** /* left: 011, middle: 101, right: 110, no chip select: 111 */
 240:..\u8g2-master\csrc/u8x8_d_ks0108.c **** uint8_t u8x8_d_ks0108_erm19264(u8x8_t *u8x8, uint8_t msg, uint8_t arg_int, void *arg_ptr)
 241:..\u8g2-master\csrc/u8x8_d_ks0108.c **** {
 460              		.loc 1 241 0
 461              		.cfi_startproc
 462              		@ args = 0, pretend = 0, frame = 0
 463              		@ frame_needed = 0, uses_anonymous_args = 0
 464              	.LVL76:
 242:..\u8g2-master\csrc/u8x8_d_ks0108.c ****   struct u8x8_ks0108_vars v;
 243:..\u8g2-master\csrc/u8x8_d_ks0108.c ****   switch(msg)
 465              		.loc 1 243 0
 466 0000 0939     		subs	r1, r1, #9
 467              	.LVL77:
 241:..\u8g2-master\csrc/u8x8_d_ks0108.c ****   struct u8x8_ks0108_vars v;
 468              		.loc 1 241 0
 469 0002 2DE9F047 		push	{r4, r5, r6, r7, r8, r9, r10, lr}
 470              		.cfi_def_cfa_offset 32
 471              		.cfi_offset 4, -32
 472              		.cfi_offset 5, -28
 473              		.cfi_offset 6, -24
 474              		.cfi_offset 7, -20
 475              		.cfi_offset 8, -16
 476              		.cfi_offset 9, -12
 477              		.cfi_offset 10, -8
 478              		.cfi_offset 14, -4
 241:..\u8g2-master\csrc/u8x8_d_ks0108.c ****   struct u8x8_ks0108_vars v;
ARM GAS  C:\Users\info\AppData\Local\Temp\ccTdvaWZ.s 			page 15


 479              		.loc 1 241 0
 480 0006 0646     		mov	r6, r0
 481 0008 9046     		mov	r8, r2
 482 000a 9A46     		mov	r10, r3
 483              		.loc 1 243 0
 484 000c 0629     		cmp	r1, #6
 485 000e 00F28780 		bhi	.L59
 486 0012 DFE801F0 		tbb	[pc, r1]
 487              	.LVL78:
 488              	.L37:
 489 0016 4A       		.byte	(.L36-.L37)/2
 490 0017 50       		.byte	(.L38-.L37)/2
 491 0018 16       		.byte	(.L39-.L37)/2
 492 0019 85       		.byte	(.L59-.L37)/2
 493 001a 85       		.byte	(.L59-.L37)/2
 494 001b 85       		.byte	(.L59-.L37)/2
 495 001c 04       		.byte	(.L40-.L37)/2
 496 001d 00       		.p2align 1
 497              	.L40:
 244:..\u8g2-master\csrc/u8x8_d_ks0108.c ****   {
 245:..\u8g2-master\csrc/u8x8_d_ks0108.c ****     case U8X8_MSG_DISPLAY_SETUP_MEMORY:
 246:..\u8g2-master\csrc/u8x8_d_ks0108.c ****       u8x8_d_helper_display_setup_memory(u8x8, &u8x8_ks0108_192x64_display_info);
 247:..\u8g2-master\csrc/u8x8_d_ks0108.c ****       break;
 248:..\u8g2-master\csrc/u8x8_d_ks0108.c ****     case U8X8_MSG_DISPLAY_INIT:
 249:..\u8g2-master\csrc/u8x8_d_ks0108.c ****       u8x8_d_helper_display_init(u8x8);
 250:..\u8g2-master\csrc/u8x8_d_ks0108.c ****     
 251:..\u8g2-master\csrc/u8x8_d_ks0108.c ****       u8x8->cad_cb(u8x8, U8X8_MSG_CAD_START_TRANSFER, 3, NULL);
 252:..\u8g2-master\csrc/u8x8_d_ks0108.c ****       u8x8_cad_SendSequence(u8x8, u8x8_d_ks0108_init_seq);
 253:..\u8g2-master\csrc/u8x8_d_ks0108.c ****       u8x8->cad_cb(u8x8, U8X8_MSG_CAD_END_TRANSFER, 7, NULL);
 254:..\u8g2-master\csrc/u8x8_d_ks0108.c ****     
 255:..\u8g2-master\csrc/u8x8_d_ks0108.c ****       u8x8->cad_cb(u8x8, U8X8_MSG_CAD_START_TRANSFER, 5, NULL);
 256:..\u8g2-master\csrc/u8x8_d_ks0108.c ****       u8x8_cad_SendSequence(u8x8, u8x8_d_ks0108_init_seq);
 257:..\u8g2-master\csrc/u8x8_d_ks0108.c ****       u8x8->cad_cb(u8x8, U8X8_MSG_CAD_END_TRANSFER, 7, NULL);
 258:..\u8g2-master\csrc/u8x8_d_ks0108.c ****     
 259:..\u8g2-master\csrc/u8x8_d_ks0108.c ****       u8x8->cad_cb(u8x8, U8X8_MSG_CAD_START_TRANSFER, 6, NULL);
 260:..\u8g2-master\csrc/u8x8_d_ks0108.c ****       u8x8_cad_SendSequence(u8x8, u8x8_d_ks0108_init_seq);
 261:..\u8g2-master\csrc/u8x8_d_ks0108.c ****       u8x8->cad_cb(u8x8, U8X8_MSG_CAD_END_TRANSFER, 7, NULL);
 262:..\u8g2-master\csrc/u8x8_d_ks0108.c ****       break;
 263:..\u8g2-master\csrc/u8x8_d_ks0108.c ****     case U8X8_MSG_DISPLAY_SET_POWER_SAVE:
 264:..\u8g2-master\csrc/u8x8_d_ks0108.c ****       
 265:..\u8g2-master\csrc/u8x8_d_ks0108.c ****       if ( arg_int == 0 )
 266:..\u8g2-master\csrc/u8x8_d_ks0108.c ****       {
 267:..\u8g2-master\csrc/u8x8_d_ks0108.c **** 	u8x8->cad_cb(u8x8, U8X8_MSG_CAD_START_TRANSFER, 3, NULL);
 268:..\u8g2-master\csrc/u8x8_d_ks0108.c **** 	u8x8_cad_SendSequence(u8x8, u8x8_d_ks0108_powersave0_seq);
 269:..\u8g2-master\csrc/u8x8_d_ks0108.c **** 	u8x8->cad_cb(u8x8, U8X8_MSG_CAD_END_TRANSFER, 7, NULL);
 270:..\u8g2-master\csrc/u8x8_d_ks0108.c **** 
 271:..\u8g2-master\csrc/u8x8_d_ks0108.c **** 	u8x8->cad_cb(u8x8, U8X8_MSG_CAD_START_TRANSFER, 5, NULL);
 272:..\u8g2-master\csrc/u8x8_d_ks0108.c **** 	u8x8_cad_SendSequence(u8x8, u8x8_d_ks0108_powersave0_seq);
 273:..\u8g2-master\csrc/u8x8_d_ks0108.c **** 	u8x8->cad_cb(u8x8, U8X8_MSG_CAD_END_TRANSFER, 7, NULL);
 274:..\u8g2-master\csrc/u8x8_d_ks0108.c **** 
 275:..\u8g2-master\csrc/u8x8_d_ks0108.c **** 	u8x8->cad_cb(u8x8, U8X8_MSG_CAD_START_TRANSFER, 6, NULL);
 276:..\u8g2-master\csrc/u8x8_d_ks0108.c **** 	u8x8_cad_SendSequence(u8x8, u8x8_d_ks0108_powersave0_seq);
 277:..\u8g2-master\csrc/u8x8_d_ks0108.c **** 	u8x8->cad_cb(u8x8, U8X8_MSG_CAD_END_TRANSFER, 7, NULL);
 278:..\u8g2-master\csrc/u8x8_d_ks0108.c **** 	
 279:..\u8g2-master\csrc/u8x8_d_ks0108.c ****       }
 280:..\u8g2-master\csrc/u8x8_d_ks0108.c ****       else
 281:..\u8g2-master\csrc/u8x8_d_ks0108.c ****       {
ARM GAS  C:\Users\info\AppData\Local\Temp\ccTdvaWZ.s 			page 16


 282:..\u8g2-master\csrc/u8x8_d_ks0108.c **** 	u8x8->cad_cb(u8x8, U8X8_MSG_CAD_START_TRANSFER, 3, NULL);
 283:..\u8g2-master\csrc/u8x8_d_ks0108.c **** 	u8x8_cad_SendSequence(u8x8, u8x8_d_ks0108_powersave1_seq);
 284:..\u8g2-master\csrc/u8x8_d_ks0108.c **** 	u8x8->cad_cb(u8x8, U8X8_MSG_CAD_END_TRANSFER, 7, NULL);
 285:..\u8g2-master\csrc/u8x8_d_ks0108.c **** 
 286:..\u8g2-master\csrc/u8x8_d_ks0108.c **** 	u8x8->cad_cb(u8x8, U8X8_MSG_CAD_START_TRANSFER, 5, NULL);
 287:..\u8g2-master\csrc/u8x8_d_ks0108.c **** 	u8x8_cad_SendSequence(u8x8, u8x8_d_ks0108_powersave1_seq);
 288:..\u8g2-master\csrc/u8x8_d_ks0108.c **** 	u8x8->cad_cb(u8x8, U8X8_MSG_CAD_END_TRANSFER, 7, NULL);
 289:..\u8g2-master\csrc/u8x8_d_ks0108.c **** 
 290:..\u8g2-master\csrc/u8x8_d_ks0108.c **** 	u8x8->cad_cb(u8x8, U8X8_MSG_CAD_START_TRANSFER, 6, NULL);
 291:..\u8g2-master\csrc/u8x8_d_ks0108.c **** 	u8x8_cad_SendSequence(u8x8, u8x8_d_ks0108_powersave1_seq);
 292:..\u8g2-master\csrc/u8x8_d_ks0108.c **** 	u8x8->cad_cb(u8x8, U8X8_MSG_CAD_END_TRANSFER, 7, NULL);
 293:..\u8g2-master\csrc/u8x8_d_ks0108.c **** 	
 294:..\u8g2-master\csrc/u8x8_d_ks0108.c ****       }
 295:..\u8g2-master\csrc/u8x8_d_ks0108.c ****       break;
 296:..\u8g2-master\csrc/u8x8_d_ks0108.c **** // The KS0108 can not mirror the cols and rows, use U8g2 for rotation
 297:..\u8g2-master\csrc/u8x8_d_ks0108.c **** //    case U8X8_MSG_DISPLAY_SET_FLIP_MODE:
 298:..\u8g2-master\csrc/u8x8_d_ks0108.c **** //      break;
 299:..\u8g2-master\csrc/u8x8_d_ks0108.c **** // The KS0108 has no internal contrast command
 300:..\u8g2-master\csrc/u8x8_d_ks0108.c **** //    case U8X8_MSG_DISPLAY_SET_CONTRAST:
 301:..\u8g2-master\csrc/u8x8_d_ks0108.c **** //      break;
 302:..\u8g2-master\csrc/u8x8_d_ks0108.c ****     case U8X8_MSG_DISPLAY_DRAW_TILE:
 303:..\u8g2-master\csrc/u8x8_d_ks0108.c **** 
 304:..\u8g2-master\csrc/u8x8_d_ks0108.c ****       v.ptr = ((u8x8_tile_t *)arg_ptr)->tile_ptr;
 305:..\u8g2-master\csrc/u8x8_d_ks0108.c ****       v.x = ((u8x8_tile_t *)arg_ptr)->x_pos;
 498              		.loc 1 305 0
 499 001e 9AF80550 		ldrb	r5, [r10, #5]	@ zero_extendqisi2
 304:..\u8g2-master\csrc/u8x8_d_ks0108.c ****       v.x = ((u8x8_tile_t *)arg_ptr)->x_pos;
 500              		.loc 1 304 0
 501 0022 DAF80090 		ldr	r9, [r10]
 502              	.LVL79:
 306:..\u8g2-master\csrc/u8x8_d_ks0108.c ****       v.c = ((u8x8_tile_t *)arg_ptr)->cnt;
 307:..\u8g2-master\csrc/u8x8_d_ks0108.c ****       v.arg_int = arg_int;    
 308:..\u8g2-master\csrc/u8x8_d_ks0108.c ****       
 309:..\u8g2-master\csrc/u8x8_d_ks0108.c **** /*
 310:..\u8g2-master\csrc/u8x8_d_ks0108.c ****     3-bit CS value:
 311:..\u8g2-master\csrc/u8x8_d_ks0108.c ****     In u8x8_byte_set_ks0108_cs(u8x8_t *u8x8, uint8_t arg) the lowest
 312:..\u8g2-master\csrc/u8x8_d_ks0108.c ****     bit is assigned to CS and highest bit if the 3-bit value to CS2
 313:..\u8g2-master\csrc/u8x8_d_ks0108.c ****     
 314:..\u8g2-master\csrc/u8x8_d_ks0108.c ****     CS: left part of the display  --> 6
 315:..\u8g2-master\csrc/u8x8_d_ks0108.c ****     CS1: middle part --> 5
 316:..\u8g2-master\csrc/u8x8_d_ks0108.c ****     CS2: right part of the display --> 3
 317:..\u8g2-master\csrc/u8x8_d_ks0108.c **** 
 318:..\u8g2-master\csrc/u8x8_d_ks0108.c ****     Reference: https://github.com/olikraus/u8g2/issues/631
 319:..\u8g2-master\csrc/u8x8_d_ks0108.c **** */
 320:..\u8g2-master\csrc/u8x8_d_ks0108.c ****       if ( v.x < 8 )
 503              		.loc 1 320 0
 504 0026 072D     		cmp	r5, #7
 306:..\u8g2-master\csrc/u8x8_d_ks0108.c ****       v.c = ((u8x8_tile_t *)arg_ptr)->cnt;
 505              		.loc 1 306 0
 506 0028 9AF80440 		ldrb	r4, [r10, #4]	@ zero_extendqisi2
 507              	.LVL80:
 508              		.loc 1 320 0
 509 002c 40F2DF80 		bls	.L69
 510              	.LVL81:
 511              	.L42:
 321:..\u8g2-master\csrc/u8x8_d_ks0108.c ****       {
 322:..\u8g2-master\csrc/u8x8_d_ks0108.c **** 	u8x8->cad_cb(u8x8, U8X8_MSG_CAD_START_TRANSFER, 6, NULL);  // 3-->6, issue 631
ARM GAS  C:\Users\info\AppData\Local\Temp\ccTdvaWZ.s 			page 17


 323:..\u8g2-master\csrc/u8x8_d_ks0108.c **** 	u8x8_ks0108_out(u8x8, &v, arg_ptr);
 324:..\u8g2-master\csrc/u8x8_d_ks0108.c **** 	u8x8->cad_cb(u8x8, U8X8_MSG_CAD_END_TRANSFER, 7, NULL);
 325:..\u8g2-master\csrc/u8x8_d_ks0108.c ****       }
 326:..\u8g2-master\csrc/u8x8_d_ks0108.c ****       if ( v.x < 16 )
 512              		.loc 1 326 0
 513 0030 0F2D     		cmp	r5, #15
 514 0032 40F21681 		bls	.L70
 515              	.L48:
 327:..\u8g2-master\csrc/u8x8_d_ks0108.c ****       {
 328:..\u8g2-master\csrc/u8x8_d_ks0108.c **** 	u8x8->cad_cb(u8x8, U8X8_MSG_CAD_START_TRANSFER, 5, NULL);
 329:..\u8g2-master\csrc/u8x8_d_ks0108.c **** 	u8x8_ks0108_out(u8x8, &v, arg_ptr);
 330:..\u8g2-master\csrc/u8x8_d_ks0108.c **** 	u8x8->cad_cb(u8x8, U8X8_MSG_CAD_END_TRANSFER, 7, NULL);
 331:..\u8g2-master\csrc/u8x8_d_ks0108.c ****       }
 332:..\u8g2-master\csrc/u8x8_d_ks0108.c ****       if ( v.x < 24 )
 516              		.loc 1 332 0
 517 0036 172D     		cmp	r5, #23
 518 0038 40F29E80 		bls	.L71
 333:..\u8g2-master\csrc/u8x8_d_ks0108.c ****       {
 334:..\u8g2-master\csrc/u8x8_d_ks0108.c **** 	u8x8->cad_cb(u8x8, U8X8_MSG_CAD_START_TRANSFER, 3, NULL); // 6-->3, // issue 631
 335:..\u8g2-master\csrc/u8x8_d_ks0108.c **** 	u8x8_ks0108_out(u8x8, &v, arg_ptr);
 336:..\u8g2-master\csrc/u8x8_d_ks0108.c **** 	u8x8->cad_cb(u8x8, U8X8_MSG_CAD_END_TRANSFER, 7, NULL);
 337:..\u8g2-master\csrc/u8x8_d_ks0108.c ****       }    
 338:..\u8g2-master\csrc/u8x8_d_ks0108.c ****       break;
 339:..\u8g2-master\csrc/u8x8_d_ks0108.c ****     default:
 340:..\u8g2-master\csrc/u8x8_d_ks0108.c ****       return 0;
 341:..\u8g2-master\csrc/u8x8_d_ks0108.c ****   }
 342:..\u8g2-master\csrc/u8x8_d_ks0108.c ****   return 1;
 519              		.loc 1 342 0
 520 003c 0120     		movs	r0, #1
 343:..\u8g2-master\csrc/u8x8_d_ks0108.c **** }
 521              		.loc 1 343 0
 522 003e BDE8F087 		pop	{r4, r5, r6, r7, r8, r9, r10, pc}
 523              	.LVL82:
 524              	.L39:
 267:..\u8g2-master\csrc/u8x8_d_ks0108.c **** 	u8x8_cad_SendSequence(u8x8, u8x8_d_ks0108_powersave0_seq);
 525              		.loc 1 267 0
 526 0042 C468     		ldr	r4, [r0, #12]
 265:..\u8g2-master\csrc/u8x8_d_ks0108.c ****       {
 527              		.loc 1 265 0
 528 0044 002A     		cmp	r2, #0
 529 0046 6ED1     		bne	.L41
 267:..\u8g2-master\csrc/u8x8_d_ks0108.c **** 	u8x8_cad_SendSequence(u8x8, u8x8_d_ks0108_powersave0_seq);
 530              		.loc 1 267 0
 531 0048 1346     		mov	r3, r2
 532 004a 1821     		movs	r1, #24
 533 004c 0322     		movs	r2, #3
 534              	.LVL83:
 535 004e A047     		blx	r4
 536              	.LVL84:
 268:..\u8g2-master\csrc/u8x8_d_ks0108.c **** 	u8x8->cad_cb(u8x8, U8X8_MSG_CAD_END_TRANSFER, 7, NULL);
 537              		.loc 1 268 0
 538 0050 3046     		mov	r0, r6
 539 0052 A849     		ldr	r1, .L75
 540 0054 FFF7FEFF 		bl	u8x8_cad_SendSequence
 541              	.LVL85:
 269:..\u8g2-master\csrc/u8x8_d_ks0108.c **** 
 542              		.loc 1 269 0
ARM GAS  C:\Users\info\AppData\Local\Temp\ccTdvaWZ.s 			page 18


 543 0058 F468     		ldr	r4, [r6, #12]
 544 005a 4346     		mov	r3, r8
 545 005c 0722     		movs	r2, #7
 546 005e 1921     		movs	r1, #25
 547 0060 3046     		mov	r0, r6
 548 0062 A047     		blx	r4
 549              	.LVL86:
 271:..\u8g2-master\csrc/u8x8_d_ks0108.c **** 	u8x8_cad_SendSequence(u8x8, u8x8_d_ks0108_powersave0_seq);
 550              		.loc 1 271 0
 551 0064 4346     		mov	r3, r8
 552 0066 F468     		ldr	r4, [r6, #12]
 553 0068 0522     		movs	r2, #5
 554 006a 1821     		movs	r1, #24
 555 006c 3046     		mov	r0, r6
 556 006e A047     		blx	r4
 557              	.LVL87:
 272:..\u8g2-master\csrc/u8x8_d_ks0108.c **** 	u8x8->cad_cb(u8x8, U8X8_MSG_CAD_END_TRANSFER, 7, NULL);
 558              		.loc 1 272 0
 559 0070 3046     		mov	r0, r6
 560 0072 A049     		ldr	r1, .L75
 561 0074 FFF7FEFF 		bl	u8x8_cad_SendSequence
 562              	.LVL88:
 273:..\u8g2-master\csrc/u8x8_d_ks0108.c **** 
 563              		.loc 1 273 0
 564 0078 F468     		ldr	r4, [r6, #12]
 565 007a 4346     		mov	r3, r8
 566 007c 0722     		movs	r2, #7
 567 007e 1921     		movs	r1, #25
 568 0080 3046     		mov	r0, r6
 569 0082 A047     		blx	r4
 570              	.LVL89:
 275:..\u8g2-master\csrc/u8x8_d_ks0108.c **** 	u8x8_cad_SendSequence(u8x8, u8x8_d_ks0108_powersave0_seq);
 571              		.loc 1 275 0
 572 0084 4346     		mov	r3, r8
 573 0086 F468     		ldr	r4, [r6, #12]
 574 0088 0622     		movs	r2, #6
 575 008a 1821     		movs	r1, #24
 576 008c 3046     		mov	r0, r6
 577 008e A047     		blx	r4
 578              	.LVL90:
 276:..\u8g2-master\csrc/u8x8_d_ks0108.c **** 	u8x8->cad_cb(u8x8, U8X8_MSG_CAD_END_TRANSFER, 7, NULL);
 579              		.loc 1 276 0
 580 0090 3046     		mov	r0, r6
 581 0092 9849     		ldr	r1, .L75
 582 0094 FFF7FEFF 		bl	u8x8_cad_SendSequence
 583              	.LVL91:
 277:..\u8g2-master\csrc/u8x8_d_ks0108.c **** 	
 584              		.loc 1 277 0
 585 0098 4346     		mov	r3, r8
 586 009a F468     		ldr	r4, [r6, #12]
 587 009c 3046     		mov	r0, r6
 588 009e 0722     		movs	r2, #7
 589 00a0 1921     		movs	r1, #25
 590 00a2 A047     		blx	r4
 591              	.LVL92:
 342:..\u8g2-master\csrc/u8x8_d_ks0108.c **** }
 592              		.loc 1 342 0
ARM GAS  C:\Users\info\AppData\Local\Temp\ccTdvaWZ.s 			page 19


 593 00a4 0120     		movs	r0, #1
 594 00a6 BDE8F087 		pop	{r4, r5, r6, r7, r8, r9, r10, pc}
 595              	.LVL93:
 596              	.L36:
 246:..\u8g2-master\csrc/u8x8_d_ks0108.c ****       break;
 597              		.loc 1 246 0
 598 00aa 9349     		ldr	r1, .L75+4
 599 00ac FFF7FEFF 		bl	u8x8_d_helper_display_setup_memory
 600              	.LVL94:
 342:..\u8g2-master\csrc/u8x8_d_ks0108.c **** }
 601              		.loc 1 342 0
 602 00b0 0120     		movs	r0, #1
 247:..\u8g2-master\csrc/u8x8_d_ks0108.c ****     case U8X8_MSG_DISPLAY_INIT:
 603              		.loc 1 247 0
 604 00b2 BDE8F087 		pop	{r4, r5, r6, r7, r8, r9, r10, pc}
 605              	.LVL95:
 606              	.L38:
 249:..\u8g2-master\csrc/u8x8_d_ks0108.c ****     
 607              		.loc 1 249 0
 608 00b6 FFF7FEFF 		bl	u8x8_d_helper_display_init
 609              	.LVL96:
 251:..\u8g2-master\csrc/u8x8_d_ks0108.c ****       u8x8_cad_SendSequence(u8x8, u8x8_d_ks0108_init_seq);
 610              		.loc 1 251 0
 611 00ba 0023     		movs	r3, #0
 612 00bc 0322     		movs	r2, #3
 613 00be F468     		ldr	r4, [r6, #12]
 614 00c0 1821     		movs	r1, #24
 615 00c2 3046     		mov	r0, r6
 616 00c4 A047     		blx	r4
 617              	.LVL97:
 252:..\u8g2-master\csrc/u8x8_d_ks0108.c ****       u8x8->cad_cb(u8x8, U8X8_MSG_CAD_END_TRANSFER, 7, NULL);
 618              		.loc 1 252 0
 619 00c6 8D49     		ldr	r1, .L75+8
 620 00c8 3046     		mov	r0, r6
 621 00ca FFF7FEFF 		bl	u8x8_cad_SendSequence
 622              	.LVL98:
 253:..\u8g2-master\csrc/u8x8_d_ks0108.c ****     
 623              		.loc 1 253 0
 624 00ce F468     		ldr	r4, [r6, #12]
 625 00d0 0023     		movs	r3, #0
 626 00d2 0722     		movs	r2, #7
 627 00d4 1921     		movs	r1, #25
 628 00d6 3046     		mov	r0, r6
 629 00d8 A047     		blx	r4
 630              	.LVL99:
 255:..\u8g2-master\csrc/u8x8_d_ks0108.c ****       u8x8_cad_SendSequence(u8x8, u8x8_d_ks0108_init_seq);
 631              		.loc 1 255 0
 632 00da 0023     		movs	r3, #0
 633 00dc 0522     		movs	r2, #5
 634 00de F468     		ldr	r4, [r6, #12]
 635 00e0 1821     		movs	r1, #24
 636 00e2 3046     		mov	r0, r6
 637 00e4 A047     		blx	r4
 638              	.LVL100:
 256:..\u8g2-master\csrc/u8x8_d_ks0108.c ****       u8x8->cad_cb(u8x8, U8X8_MSG_CAD_END_TRANSFER, 7, NULL);
 639              		.loc 1 256 0
 640 00e6 8549     		ldr	r1, .L75+8
ARM GAS  C:\Users\info\AppData\Local\Temp\ccTdvaWZ.s 			page 20


 641 00e8 3046     		mov	r0, r6
 642 00ea FFF7FEFF 		bl	u8x8_cad_SendSequence
 643              	.LVL101:
 257:..\u8g2-master\csrc/u8x8_d_ks0108.c ****     
 644              		.loc 1 257 0
 645 00ee F468     		ldr	r4, [r6, #12]
 646 00f0 0023     		movs	r3, #0
 647 00f2 0722     		movs	r2, #7
 648 00f4 1921     		movs	r1, #25
 649 00f6 3046     		mov	r0, r6
 650 00f8 A047     		blx	r4
 651              	.LVL102:
 259:..\u8g2-master\csrc/u8x8_d_ks0108.c ****       u8x8_cad_SendSequence(u8x8, u8x8_d_ks0108_init_seq);
 652              		.loc 1 259 0
 653 00fa 1821     		movs	r1, #24
 654 00fc F468     		ldr	r4, [r6, #12]
 655 00fe 0023     		movs	r3, #0
 656 0100 0622     		movs	r2, #6
 657 0102 3046     		mov	r0, r6
 658 0104 A047     		blx	r4
 659              	.LVL103:
 260:..\u8g2-master\csrc/u8x8_d_ks0108.c ****       u8x8->cad_cb(u8x8, U8X8_MSG_CAD_END_TRANSFER, 7, NULL);
 660              		.loc 1 260 0
 661 0106 7D49     		ldr	r1, .L75+8
 662 0108 3046     		mov	r0, r6
 663 010a FFF7FEFF 		bl	u8x8_cad_SendSequence
 664              	.LVL104:
 665              	.L58:
 336:..\u8g2-master\csrc/u8x8_d_ks0108.c ****       }    
 666              		.loc 1 336 0
 667 010e F468     		ldr	r4, [r6, #12]
 668 0110 3046     		mov	r0, r6
 669 0112 0023     		movs	r3, #0
 670 0114 0722     		movs	r2, #7
 671 0116 1921     		movs	r1, #25
 672 0118 A047     		blx	r4
 673              	.LVL105:
 342:..\u8g2-master\csrc/u8x8_d_ks0108.c **** }
 674              		.loc 1 342 0
 675 011a 0120     		movs	r0, #1
 676 011c BDE8F087 		pop	{r4, r5, r6, r7, r8, r9, r10, pc}
 677              	.LVL106:
 678              	.L59:
 340:..\u8g2-master\csrc/u8x8_d_ks0108.c ****   }
 679              		.loc 1 340 0
 680 0120 0020     		movs	r0, #0
 681              	.LVL107:
 682 0122 BDE8F087 		pop	{r4, r5, r6, r7, r8, r9, r10, pc}
 683              	.LVL108:
 684              	.L41:
 282:..\u8g2-master\csrc/u8x8_d_ks0108.c **** 	u8x8_cad_SendSequence(u8x8, u8x8_d_ks0108_powersave1_seq);
 685              		.loc 1 282 0
 686 0126 0023     		movs	r3, #0
 687 0128 0322     		movs	r2, #3
 688              	.LVL109:
 689 012a 1821     		movs	r1, #24
 690 012c A047     		blx	r4
ARM GAS  C:\Users\info\AppData\Local\Temp\ccTdvaWZ.s 			page 21


 691              	.LVL110:
 283:..\u8g2-master\csrc/u8x8_d_ks0108.c **** 	u8x8->cad_cb(u8x8, U8X8_MSG_CAD_END_TRANSFER, 7, NULL);
 692              		.loc 1 283 0
 693 012e 3046     		mov	r0, r6
 694 0130 7349     		ldr	r1, .L75+12
 695 0132 FFF7FEFF 		bl	u8x8_cad_SendSequence
 696              	.LVL111:
 284:..\u8g2-master\csrc/u8x8_d_ks0108.c **** 
 697              		.loc 1 284 0
 698 0136 F468     		ldr	r4, [r6, #12]
 699 0138 0023     		movs	r3, #0
 700 013a 0722     		movs	r2, #7
 701 013c 1921     		movs	r1, #25
 702 013e 3046     		mov	r0, r6
 703 0140 A047     		blx	r4
 704              	.LVL112:
 286:..\u8g2-master\csrc/u8x8_d_ks0108.c **** 	u8x8_cad_SendSequence(u8x8, u8x8_d_ks0108_powersave1_seq);
 705              		.loc 1 286 0
 706 0142 F468     		ldr	r4, [r6, #12]
 707 0144 0023     		movs	r3, #0
 708 0146 0522     		movs	r2, #5
 709 0148 1821     		movs	r1, #24
 710 014a 3046     		mov	r0, r6
 711 014c A047     		blx	r4
 712              	.LVL113:
 287:..\u8g2-master\csrc/u8x8_d_ks0108.c **** 	u8x8->cad_cb(u8x8, U8X8_MSG_CAD_END_TRANSFER, 7, NULL);
 713              		.loc 1 287 0
 714 014e 3046     		mov	r0, r6
 715 0150 6B49     		ldr	r1, .L75+12
 716 0152 FFF7FEFF 		bl	u8x8_cad_SendSequence
 717              	.LVL114:
 288:..\u8g2-master\csrc/u8x8_d_ks0108.c **** 
 718              		.loc 1 288 0
 719 0156 F468     		ldr	r4, [r6, #12]
 720 0158 0023     		movs	r3, #0
 721 015a 0722     		movs	r2, #7
 722 015c 1921     		movs	r1, #25
 723 015e 3046     		mov	r0, r6
 724 0160 A047     		blx	r4
 725              	.LVL115:
 290:..\u8g2-master\csrc/u8x8_d_ks0108.c **** 	u8x8_cad_SendSequence(u8x8, u8x8_d_ks0108_powersave1_seq);
 726              		.loc 1 290 0
 727 0162 F468     		ldr	r4, [r6, #12]
 728 0164 0023     		movs	r3, #0
 729 0166 0622     		movs	r2, #6
 730 0168 1821     		movs	r1, #24
 731 016a 3046     		mov	r0, r6
 732 016c A047     		blx	r4
 733              	.LVL116:
 291:..\u8g2-master\csrc/u8x8_d_ks0108.c **** 	u8x8->cad_cb(u8x8, U8X8_MSG_CAD_END_TRANSFER, 7, NULL);
 734              		.loc 1 291 0
 735 016e 6449     		ldr	r1, .L75+12
 736 0170 3046     		mov	r0, r6
 737 0172 FFF7FEFF 		bl	u8x8_cad_SendSequence
 738              	.LVL117:
 739 0176 CAE7     		b	.L58
 740              	.LVL118:
ARM GAS  C:\Users\info\AppData\Local\Temp\ccTdvaWZ.s 			page 22


 741              	.L71:
 334:..\u8g2-master\csrc/u8x8_d_ks0108.c **** 	u8x8_ks0108_out(u8x8, &v, arg_ptr);
 742              		.loc 1 334 0
 743 0178 0023     		movs	r3, #0
 744 017a 0322     		movs	r2, #3
 745 017c F768     		ldr	r7, [r6, #12]
 746 017e 1821     		movs	r1, #24
 747 0180 3046     		mov	r0, r6
 748 0182 B847     		blx	r7
 749              	.LVL119:
 750              	.LBB16:
 751              	.LBB17:
  70:..\u8g2-master\csrc/u8x8_d_ks0108.c ****   u8x8_cad_SendCmd(u8x8, 0x0b8 | (((u8x8_tile_t *)arg_ptr)->y_pos));
 752              		.loc 1 70 0
 753 0184 E900     		lsls	r1, r5, #3
 754 0186 01F03F01 		and	r1, r1, #63
 755 018a 41F04001 		orr	r1, r1, #64
 756 018e 3046     		mov	r0, r6
 757 0190 FFF7FEFF 		bl	u8x8_cad_SendCmd
 758              	.LVL120:
  71:..\u8g2-master\csrc/u8x8_d_ks0108.c ****   
 759              		.loc 1 71 0
 760 0194 9AF80610 		ldrb	r1, [r10, #6]	@ zero_extendqisi2
 761 0198 3046     		mov	r0, r6
 762 019a 41F0B801 		orr	r1, r1, #184
 763 019e FFF7FEFF 		bl	u8x8_cad_SendCmd
 764              	.LVL121:
 765 01a2 02E0     		b	.L54
 766              	.LVL122:
 767              	.L72:
  92:..\u8g2-master\csrc/u8x8_d_ks0108.c ****     
 768              		.loc 1 92 0
 769 01a4 B944     		add	r9, r9, r7
 770              	.LVL123:
 771              	.L56:
 100:..\u8g2-master\csrc/u8x8_d_ks0108.c **** 	break;       
 772              		.loc 1 100 0
 773 01a6 6B07     		lsls	r3, r5, #29
 774 01a8 B1D0     		beq	.L58
 775              	.LVL124:
 776              	.L54:
  77:..\u8g2-master\csrc/u8x8_d_ks0108.c ****       cnt &= 0x0f8;
 777              		.loc 1 77 0
 778 01aa 05F10803 		add	r3, r5, #8
 779              	.LVL125:
  78:..\u8g2-master\csrc/u8x8_d_ks0108.c ****       cnt -= v->x;
 780              		.loc 1 78 0
 781 01ae 03F0F803 		and	r3, r3, #248
 782              	.LVL126:
  79:..\u8g2-master\csrc/u8x8_d_ks0108.c ****             
 783              		.loc 1 79 0
 784 01b2 5B1B     		subs	r3, r3, r5
 785              	.LVL127:
 786 01b4 DBB2     		uxtb	r3, r3
 787              	.LVL128:
  73:..\u8g2-master\csrc/u8x8_d_ks0108.c ****   {
 788              		.loc 1 73 0
ARM GAS  C:\Users\info\AppData\Local\Temp\ccTdvaWZ.s 			page 23


 789 01b6 B8F1000F 		cmp	r8, #0
 790 01ba A8D0     		beq	.L58
 791 01bc A342     		cmp	r3, r4
 792 01be 28BF     		it	cs
 793 01c0 2346     		movcs	r3, r4
 794              	.LVL129:
  90:..\u8g2-master\csrc/u8x8_d_ks0108.c ****       u8x8_cad_SendData(u8x8, cnt, v->ptr);	/* note: SendData can not handle more than 255 bytes */
 795              		.loc 1 90 0
 796 01c2 DF00     		lsls	r7, r3, #3
  89:..\u8g2-master\csrc/u8x8_d_ks0108.c ****       cnt<<=3;
 797              		.loc 1 89 0
 798 01c4 E41A     		subs	r4, r4, r3
 799              	.LVL130:
  90:..\u8g2-master\csrc/u8x8_d_ks0108.c ****       u8x8_cad_SendData(u8x8, cnt, v->ptr);	/* note: SendData can not handle more than 255 bytes */
 800              		.loc 1 90 0
 801 01c6 FFB2     		uxtb	r7, r7
  89:..\u8g2-master\csrc/u8x8_d_ks0108.c ****       cnt<<=3;
 802              		.loc 1 89 0
 803 01c8 E4B2     		uxtb	r4, r4
  88:..\u8g2-master\csrc/u8x8_d_ks0108.c ****       v->c-=cnt;
 804              		.loc 1 88 0
 805 01ca 1D44     		add	r5, r5, r3
 806              	.LVL131:
  91:..\u8g2-master\csrc/u8x8_d_ks0108.c ****       v->ptr += cnt;
 807              		.loc 1 91 0
 808 01cc 3946     		mov	r1, r7
 809 01ce 4A46     		mov	r2, r9
 810 01d0 3046     		mov	r0, r6
  88:..\u8g2-master\csrc/u8x8_d_ks0108.c ****       v->c-=cnt;
 811              		.loc 1 88 0
 812 01d2 EDB2     		uxtb	r5, r5
 813              	.LVL132:
  91:..\u8g2-master\csrc/u8x8_d_ks0108.c ****       v->ptr += cnt;
 814              		.loc 1 91 0
 815 01d4 FFF7FEFF 		bl	u8x8_cad_SendData
 816              	.LVL133:
  94:..\u8g2-master\csrc/u8x8_d_ks0108.c ****       {
 817              		.loc 1 94 0
 818 01d8 002C     		cmp	r4, #0
 819 01da E3D1     		bne	.L72
  98:..\u8g2-master\csrc/u8x8_d_ks0108.c ****       }
 820              		.loc 1 98 0
 821 01dc 08F1FF38 		add	r8, r8, #-1
 822              	.LVL134:
  96:..\u8g2-master\csrc/u8x8_d_ks0108.c **** 	v->c = ((u8x8_tile_t *)arg_ptr)->cnt;
 823              		.loc 1 96 0
 824 01e0 DAF80090 		ldr	r9, [r10]
 825              	.LVL135:
  97:..\u8g2-master\csrc/u8x8_d_ks0108.c **** 	v->arg_int--;
 826              		.loc 1 97 0
 827 01e4 9AF80440 		ldrb	r4, [r10, #4]	@ zero_extendqisi2
 828              	.LVL136:
  98:..\u8g2-master\csrc/u8x8_d_ks0108.c ****       }
 829              		.loc 1 98 0
 830 01e8 5FFA88F8 		uxtb	r8, r8
 831              	.LVL137:
 832 01ec DBE7     		b	.L56
ARM GAS  C:\Users\info\AppData\Local\Temp\ccTdvaWZ.s 			page 24


 833              	.LVL138:
 834              	.L69:
 835              	.LBE17:
 836              	.LBE16:
 322:..\u8g2-master\csrc/u8x8_d_ks0108.c **** 	u8x8_ks0108_out(u8x8, &v, arg_ptr);
 837              		.loc 1 322 0
 838 01ee 0023     		movs	r3, #0
 839 01f0 0622     		movs	r2, #6
 840              	.LVL139:
 841 01f2 C768     		ldr	r7, [r0, #12]
 842 01f4 1821     		movs	r1, #24
 843 01f6 B847     		blx	r7
 844              	.LVL140:
 845              	.LBB18:
 846              	.LBB19:
  70:..\u8g2-master\csrc/u8x8_d_ks0108.c ****   u8x8_cad_SendCmd(u8x8, 0x0b8 | (((u8x8_tile_t *)arg_ptr)->y_pos));
 847              		.loc 1 70 0
 848 01f8 E900     		lsls	r1, r5, #3
 849 01fa 41F04001 		orr	r1, r1, #64
 850 01fe 01F0F801 		and	r1, r1, #248
 851 0202 3046     		mov	r0, r6
 852 0204 FFF7FEFF 		bl	u8x8_cad_SendCmd
 853              	.LVL141:
  71:..\u8g2-master\csrc/u8x8_d_ks0108.c ****   
 854              		.loc 1 71 0
 855 0208 9AF80610 		ldrb	r1, [r10, #6]	@ zero_extendqisi2
 856 020c 3046     		mov	r0, r6
 857 020e 41F0B801 		orr	r1, r1, #184
 858 0212 FFF7FEFF 		bl	u8x8_cad_SendCmd
 859              	.LVL142:
 860 0216 02E0     		b	.L43
 861              	.LVL143:
 862              	.L73:
  92:..\u8g2-master\csrc/u8x8_d_ks0108.c ****     
 863              		.loc 1 92 0
 864 0218 B944     		add	r9, r9, r7
 865              	.LVL144:
 866              	.L45:
 100:..\u8g2-master\csrc/u8x8_d_ks0108.c **** 	break;       
 867              		.loc 1 100 0
 868 021a 6907     		lsls	r1, r5, #29
 869 021c 63D0     		beq	.L46
 870              	.LVL145:
 871              	.L43:
  77:..\u8g2-master\csrc/u8x8_d_ks0108.c ****       cnt &= 0x0f8;
 872              		.loc 1 77 0
 873 021e 05F10803 		add	r3, r5, #8
 874              	.LVL146:
  78:..\u8g2-master\csrc/u8x8_d_ks0108.c ****       cnt -= v->x;
 875              		.loc 1 78 0
 876 0222 03F0F803 		and	r3, r3, #248
 877              	.LVL147:
  79:..\u8g2-master\csrc/u8x8_d_ks0108.c ****             
 878              		.loc 1 79 0
 879 0226 5B1B     		subs	r3, r3, r5
 880              	.LVL148:
 881 0228 DBB2     		uxtb	r3, r3
ARM GAS  C:\Users\info\AppData\Local\Temp\ccTdvaWZ.s 			page 25


 882              	.LVL149:
  73:..\u8g2-master\csrc/u8x8_d_ks0108.c ****   {
 883              		.loc 1 73 0
 884 022a B8F1000F 		cmp	r8, #0
 885 022e 5AD0     		beq	.L46
 886 0230 A342     		cmp	r3, r4
 887 0232 28BF     		it	cs
 888 0234 2346     		movcs	r3, r4
 889              	.LVL150:
  90:..\u8g2-master\csrc/u8x8_d_ks0108.c ****       u8x8_cad_SendData(u8x8, cnt, v->ptr);	/* note: SendData can not handle more than 255 bytes */
 890              		.loc 1 90 0
 891 0236 DF00     		lsls	r7, r3, #3
  89:..\u8g2-master\csrc/u8x8_d_ks0108.c ****       cnt<<=3;
 892              		.loc 1 89 0
 893 0238 E41A     		subs	r4, r4, r3
 894              	.LVL151:
  90:..\u8g2-master\csrc/u8x8_d_ks0108.c ****       u8x8_cad_SendData(u8x8, cnt, v->ptr);	/* note: SendData can not handle more than 255 bytes */
 895              		.loc 1 90 0
 896 023a FFB2     		uxtb	r7, r7
  89:..\u8g2-master\csrc/u8x8_d_ks0108.c ****       cnt<<=3;
 897              		.loc 1 89 0
 898 023c E4B2     		uxtb	r4, r4
  88:..\u8g2-master\csrc/u8x8_d_ks0108.c ****       v->c-=cnt;
 899              		.loc 1 88 0
 900 023e 1D44     		add	r5, r5, r3
 901              	.LVL152:
  91:..\u8g2-master\csrc/u8x8_d_ks0108.c ****       v->ptr += cnt;
 902              		.loc 1 91 0
 903 0240 3946     		mov	r1, r7
 904 0242 4A46     		mov	r2, r9
 905 0244 3046     		mov	r0, r6
  88:..\u8g2-master\csrc/u8x8_d_ks0108.c ****       v->c-=cnt;
 906              		.loc 1 88 0
 907 0246 EDB2     		uxtb	r5, r5
 908              	.LVL153:
  91:..\u8g2-master\csrc/u8x8_d_ks0108.c ****       v->ptr += cnt;
 909              		.loc 1 91 0
 910 0248 FFF7FEFF 		bl	u8x8_cad_SendData
 911              	.LVL154:
  94:..\u8g2-master\csrc/u8x8_d_ks0108.c ****       {
 912              		.loc 1 94 0
 913 024c 002C     		cmp	r4, #0
 914 024e E3D1     		bne	.L73
  98:..\u8g2-master\csrc/u8x8_d_ks0108.c ****       }
 915              		.loc 1 98 0
 916 0250 08F1FF38 		add	r8, r8, #-1
 917              	.LVL155:
  96:..\u8g2-master\csrc/u8x8_d_ks0108.c **** 	v->c = ((u8x8_tile_t *)arg_ptr)->cnt;
 918              		.loc 1 96 0
 919 0254 DAF80090 		ldr	r9, [r10]
 920              	.LVL156:
  97:..\u8g2-master\csrc/u8x8_d_ks0108.c **** 	v->arg_int--;
 921              		.loc 1 97 0
 922 0258 9AF80440 		ldrb	r4, [r10, #4]	@ zero_extendqisi2
 923              	.LVL157:
  98:..\u8g2-master\csrc/u8x8_d_ks0108.c ****       }
 924              		.loc 1 98 0
ARM GAS  C:\Users\info\AppData\Local\Temp\ccTdvaWZ.s 			page 26


 925 025c 5FFA88F8 		uxtb	r8, r8
 926              	.LVL158:
 927 0260 DBE7     		b	.L45
 928              	.LVL159:
 929              	.L70:
 930              	.LBE19:
 931              	.LBE18:
 328:..\u8g2-master\csrc/u8x8_d_ks0108.c **** 	u8x8_ks0108_out(u8x8, &v, arg_ptr);
 932              		.loc 1 328 0
 933 0262 0023     		movs	r3, #0
 934 0264 0522     		movs	r2, #5
 935 0266 F768     		ldr	r7, [r6, #12]
 936 0268 1821     		movs	r1, #24
 937 026a 3046     		mov	r0, r6
 938 026c B847     		blx	r7
 939              	.LVL160:
 940              	.LBB20:
 941              	.LBB21:
  70:..\u8g2-master\csrc/u8x8_d_ks0108.c ****   u8x8_cad_SendCmd(u8x8, 0x0b8 | (((u8x8_tile_t *)arg_ptr)->y_pos));
 942              		.loc 1 70 0
 943 026e E900     		lsls	r1, r5, #3
 944 0270 01F03F01 		and	r1, r1, #63
 945 0274 41F04001 		orr	r1, r1, #64
 946 0278 3046     		mov	r0, r6
 947 027a FFF7FEFF 		bl	u8x8_cad_SendCmd
 948              	.LVL161:
  71:..\u8g2-master\csrc/u8x8_d_ks0108.c ****   
 949              		.loc 1 71 0
 950 027e 9AF80610 		ldrb	r1, [r10, #6]	@ zero_extendqisi2
 951 0282 3046     		mov	r0, r6
 952 0284 41F0B801 		orr	r1, r1, #184
 953 0288 FFF7FEFF 		bl	u8x8_cad_SendCmd
 954              	.LVL162:
 955 028c 02E0     		b	.L49
 956              	.LVL163:
 957              	.L74:
  92:..\u8g2-master\csrc/u8x8_d_ks0108.c ****     
 958              		.loc 1 92 0
 959 028e B944     		add	r9, r9, r7
 960              	.LVL164:
 961              	.L51:
 100:..\u8g2-master\csrc/u8x8_d_ks0108.c **** 	break;       
 962              		.loc 1 100 0
 963 0290 6A07     		lsls	r2, r5, #29
 964 0292 21D0     		beq	.L52
 965              	.LVL165:
 966              	.L49:
  77:..\u8g2-master\csrc/u8x8_d_ks0108.c ****       cnt &= 0x0f8;
 967              		.loc 1 77 0
 968 0294 05F10803 		add	r3, r5, #8
 969              	.LVL166:
  78:..\u8g2-master\csrc/u8x8_d_ks0108.c ****       cnt -= v->x;
 970              		.loc 1 78 0
 971 0298 03F0F803 		and	r3, r3, #248
 972              	.LVL167:
  79:..\u8g2-master\csrc/u8x8_d_ks0108.c ****             
 973              		.loc 1 79 0
ARM GAS  C:\Users\info\AppData\Local\Temp\ccTdvaWZ.s 			page 27


 974 029c 5B1B     		subs	r3, r3, r5
 975              	.LVL168:
 976 029e DBB2     		uxtb	r3, r3
 977              	.LVL169:
  73:..\u8g2-master\csrc/u8x8_d_ks0108.c ****   {
 978              		.loc 1 73 0
 979 02a0 B8F1000F 		cmp	r8, #0
 980 02a4 18D0     		beq	.L52
 981 02a6 A342     		cmp	r3, r4
 982 02a8 28BF     		it	cs
 983 02aa 2346     		movcs	r3, r4
 984              	.LVL170:
  90:..\u8g2-master\csrc/u8x8_d_ks0108.c ****       u8x8_cad_SendData(u8x8, cnt, v->ptr);	/* note: SendData can not handle more than 255 bytes */
 985              		.loc 1 90 0
 986 02ac DF00     		lsls	r7, r3, #3
  89:..\u8g2-master\csrc/u8x8_d_ks0108.c ****       cnt<<=3;
 987              		.loc 1 89 0
 988 02ae E41A     		subs	r4, r4, r3
 989              	.LVL171:
  90:..\u8g2-master\csrc/u8x8_d_ks0108.c ****       u8x8_cad_SendData(u8x8, cnt, v->ptr);	/* note: SendData can not handle more than 255 bytes */
 990              		.loc 1 90 0
 991 02b0 FFB2     		uxtb	r7, r7
  89:..\u8g2-master\csrc/u8x8_d_ks0108.c ****       cnt<<=3;
 992              		.loc 1 89 0
 993 02b2 E4B2     		uxtb	r4, r4
  88:..\u8g2-master\csrc/u8x8_d_ks0108.c ****       v->c-=cnt;
 994              		.loc 1 88 0
 995 02b4 1D44     		add	r5, r5, r3
 996              	.LVL172:
  91:..\u8g2-master\csrc/u8x8_d_ks0108.c ****       v->ptr += cnt;
 997              		.loc 1 91 0
 998 02b6 3946     		mov	r1, r7
 999 02b8 4A46     		mov	r2, r9
 1000 02ba 3046     		mov	r0, r6
  88:..\u8g2-master\csrc/u8x8_d_ks0108.c ****       v->c-=cnt;
 1001              		.loc 1 88 0
 1002 02bc EDB2     		uxtb	r5, r5
 1003              	.LVL173:
  91:..\u8g2-master\csrc/u8x8_d_ks0108.c ****       v->ptr += cnt;
 1004              		.loc 1 91 0
 1005 02be FFF7FEFF 		bl	u8x8_cad_SendData
 1006              	.LVL174:
  94:..\u8g2-master\csrc/u8x8_d_ks0108.c ****       {
 1007              		.loc 1 94 0
 1008 02c2 002C     		cmp	r4, #0
 1009 02c4 E3D1     		bne	.L74
  98:..\u8g2-master\csrc/u8x8_d_ks0108.c ****       }
 1010              		.loc 1 98 0
 1011 02c6 08F1FF38 		add	r8, r8, #-1
 1012              	.LVL175:
  96:..\u8g2-master\csrc/u8x8_d_ks0108.c **** 	v->c = ((u8x8_tile_t *)arg_ptr)->cnt;
 1013              		.loc 1 96 0
 1014 02ca DAF80090 		ldr	r9, [r10]
 1015              	.LVL176:
  97:..\u8g2-master\csrc/u8x8_d_ks0108.c **** 	v->arg_int--;
 1016              		.loc 1 97 0
 1017 02ce 9AF80440 		ldrb	r4, [r10, #4]	@ zero_extendqisi2
ARM GAS  C:\Users\info\AppData\Local\Temp\ccTdvaWZ.s 			page 28


 1018              	.LVL177:
  98:..\u8g2-master\csrc/u8x8_d_ks0108.c ****       }
 1019              		.loc 1 98 0
 1020 02d2 5FFA88F8 		uxtb	r8, r8
 1021              	.LVL178:
 1022 02d6 DBE7     		b	.L51
 1023              	.LVL179:
 1024              	.L52:
 1025              	.LBE21:
 1026              	.LBE20:
 330:..\u8g2-master\csrc/u8x8_d_ks0108.c ****       }
 1027              		.loc 1 330 0
 1028 02d8 F768     		ldr	r7, [r6, #12]
 1029 02da 0023     		movs	r3, #0
 1030 02dc 0722     		movs	r2, #7
 1031 02de 1921     		movs	r1, #25
 1032 02e0 3046     		mov	r0, r6
 1033 02e2 B847     		blx	r7
 1034              	.LVL180:
 1035 02e4 A7E6     		b	.L48
 1036              	.LVL181:
 1037              	.L46:
 324:..\u8g2-master\csrc/u8x8_d_ks0108.c ****       }
 1038              		.loc 1 324 0
 1039 02e6 F768     		ldr	r7, [r6, #12]
 1040 02e8 0023     		movs	r3, #0
 1041 02ea 0722     		movs	r2, #7
 1042 02ec 1921     		movs	r1, #25
 1043 02ee 3046     		mov	r0, r6
 1044 02f0 B847     		blx	r7
 1045              	.LVL182:
 1046 02f2 9DE6     		b	.L42
 1047              	.L76:
 1048              		.align	2
 1049              	.L75:
 1050 02f4 1C000000 		.word	.LANCHOR0+28
 1051 02f8 24000000 		.word	.LANCHOR0+36
 1052 02fc 18000000 		.word	.LANCHOR0+24
 1053 0300 20000000 		.word	.LANCHOR0+32
 1054              		.cfi_endproc
 1055              	.LFE2:
 1056              		.size	u8x8_d_ks0108_erm19264, .-u8x8_d_ks0108_erm19264
 1057              		.section	.rodata
 1058              		.align	2
 1059              		.set	.LANCHOR0,. + 0
 1060              		.type	u8x8_ks0108_128x64_display_info, %object
 1061              		.size	u8x8_ks0108_128x64_display_info, 24
 1062              	u8x8_ks0108_128x64_display_info:
 1063 0000 00       		.byte	0
 1064 0001 01       		.byte	1
 1065 0002 64       		.byte	100
 1066 0003 14       		.byte	20
 1067 0004 01       		.byte	1
 1068 0005 06       		.byte	6
 1069 0006 0C       		.byte	12
 1070 0007 4B       		.byte	75
 1071 0008 00093D00 		.word	4000000
ARM GAS  C:\Users\info\AppData\Local\Temp\ccTdvaWZ.s 			page 29


 1072 000c 00       		.byte	0
 1073 000d 04       		.byte	4
 1074 000e C8       		.byte	-56
 1075 000f FA       		.byte	-6
 1076 0010 10       		.byte	16
 1077 0011 08       		.byte	8
 1078 0012 00       		.byte	0
 1079 0013 00       		.byte	0
 1080 0014 8000     		.short	128
 1081 0016 4000     		.short	64
 1082              		.type	u8x8_d_ks0108_init_seq, %object
 1083              		.size	u8x8_d_ks0108_init_seq, 3
 1084              	u8x8_d_ks0108_init_seq:
 1085 0018 15       		.byte	21
 1086 0019 C0       		.byte	-64
 1087 001a FF       		.byte	-1
 1088 001b 00       		.space	1
 1089              		.type	u8x8_d_ks0108_powersave0_seq, %object
 1090              		.size	u8x8_d_ks0108_powersave0_seq, 3
 1091              	u8x8_d_ks0108_powersave0_seq:
 1092 001c 15       		.byte	21
 1093 001d 3F       		.byte	63
 1094 001e FF       		.byte	-1
 1095 001f 00       		.space	1
 1096              		.type	u8x8_d_ks0108_powersave1_seq, %object
 1097              		.size	u8x8_d_ks0108_powersave1_seq, 3
 1098              	u8x8_d_ks0108_powersave1_seq:
 1099 0020 15       		.byte	21
 1100 0021 3E       		.byte	62
 1101 0022 FF       		.byte	-1
 1102 0023 00       		.space	1
 1103              		.type	u8x8_ks0108_192x64_display_info, %object
 1104              		.size	u8x8_ks0108_192x64_display_info, 24
 1105              	u8x8_ks0108_192x64_display_info:
 1106 0024 00       		.byte	0
 1107 0025 01       		.byte	1
 1108 0026 64       		.byte	100
 1109 0027 14       		.byte	20
 1110 0028 01       		.byte	1
 1111 0029 06       		.byte	6
 1112 002a 0C       		.byte	12
 1113 002b 4B       		.byte	75
 1114 002c 00093D00 		.word	4000000
 1115 0030 00       		.byte	0
 1116 0031 04       		.byte	4
 1117 0032 C8       		.byte	-56
 1118 0033 FA       		.byte	-6
 1119 0034 18       		.byte	24
 1120 0035 08       		.byte	8
 1121 0036 00       		.byte	0
 1122 0037 00       		.byte	0
 1123 0038 C000     		.short	192
 1124 003a 4000     		.short	64
 1125              		.text
 1126              	.Letext0:
 1127              		.file 2 "c:\\program files (x86)\\cypress\\psoc creator\\4.2\\psoc creator\\import\\gnu\\arm\\5.4.
 1128              		.file 3 "c:\\program files (x86)\\cypress\\psoc creator\\4.2\\psoc creator\\import\\gnu\\arm\\5.4.
ARM GAS  C:\Users\info\AppData\Local\Temp\ccTdvaWZ.s 			page 30


 1129              		.file 4 "..\\u8g2-master\\csrc\\u8x8.h"