ARM GAS  C:\Users\info\AppData\Local\Temp\cczyfBPK.s 			page 1


   1              		.syntax unified
   2              		.cpu cortex-m3
   3              		.fpu softvfp
   4              		.eabi_attribute 20, 1
   5              		.eabi_attribute 21, 1
   6              		.eabi_attribute 23, 3
   7              		.eabi_attribute 24, 1
   8              		.eabi_attribute 25, 1
   9              		.eabi_attribute 26, 1
  10              		.eabi_attribute 30, 2
  11              		.eabi_attribute 34, 1
  12              		.eabi_attribute 18, 4
  13              		.thumb
  14              		.syntax unified
  15              		.file	"u8x8_d_st7586s_s028hn118a.c"
  16              		.text
  17              	.Ltext0:
  18              		.cfi_sections	.debug_frame
  19              		.section	.text.u8x8_d_st7586s_s028hn118a,"ax",%progbits
  20              		.align	2
  21              		.global	u8x8_d_st7586s_s028hn118a
  22              		.thumb
  23              		.thumb_func
  24              		.type	u8x8_d_st7586s_s028hn118a, %function
  25              	u8x8_d_st7586s_s028hn118a:
  26              	.LFB1:
  27              		.file 1 "..\\u8g2-master\\csrc\\u8x8_d_st7586s_s028hn118a.c"
   1:..\u8g2-master\csrc/u8x8_d_st7586s_s028hn118a.c **** /*
   2:..\u8g2-master\csrc/u8x8_d_st7586s_s028hn118a.c ****   u8x8_d_st7586s_s028hn118a.c
   3:..\u8g2-master\csrc/u8x8_d_st7586s_s028hn118a.c ****   Universal 8bit Graphics Library (https://github.com/olikraus/u8g2/)
   4:..\u8g2-master\csrc/u8x8_d_st7586s_s028hn118a.c ****   Copyright (c) 2018, olikraus@gmail.com
   5:..\u8g2-master\csrc/u8x8_d_st7586s_s028hn118a.c ****   All rights reserved.
   6:..\u8g2-master\csrc/u8x8_d_st7586s_s028hn118a.c ****   Redistribution and use in source and binary forms, with or without modification, 
   7:..\u8g2-master\csrc/u8x8_d_st7586s_s028hn118a.c ****   are permitted provided that the following conditions are met:
   8:..\u8g2-master\csrc/u8x8_d_st7586s_s028hn118a.c ****   * Redistributions of source code must retain the above copyright notice, this list 
   9:..\u8g2-master\csrc/u8x8_d_st7586s_s028hn118a.c ****     of conditions and the following disclaimer.
  10:..\u8g2-master\csrc/u8x8_d_st7586s_s028hn118a.c ****     
  11:..\u8g2-master\csrc/u8x8_d_st7586s_s028hn118a.c ****   * Redistributions in binary form must reproduce the above copyright notice, this 
  12:..\u8g2-master\csrc/u8x8_d_st7586s_s028hn118a.c ****     list of conditions and the following disclaimer in the documentation and/or other 
  13:..\u8g2-master\csrc/u8x8_d_st7586s_s028hn118a.c ****     materials provided with the distribution.
  14:..\u8g2-master\csrc/u8x8_d_st7586s_s028hn118a.c ****   THIS SOFTWARE IS PROVIDED BY THE COPYRIGHT HOLDERS AND 
  15:..\u8g2-master\csrc/u8x8_d_st7586s_s028hn118a.c ****   CONTRIBUTORS "AS IS" AND ANY EXPRESS OR IMPLIED WARRANTIES, 
  16:..\u8g2-master\csrc/u8x8_d_st7586s_s028hn118a.c ****   INCLUDING, BUT NOT LIMITED TO, THE IMPLIED WARRANTIES OF 
  17:..\u8g2-master\csrc/u8x8_d_st7586s_s028hn118a.c ****   MERCHANTABILITY AND FITNESS FOR A PARTICULAR PURPOSE ARE 
  18:..\u8g2-master\csrc/u8x8_d_st7586s_s028hn118a.c ****   DISCLAIMED. IN NO EVENT SHALL THE COPYRIGHT HOLDER OR 
  19:..\u8g2-master\csrc/u8x8_d_st7586s_s028hn118a.c ****   CONTRIBUTORS BE LIABLE FOR ANY DIRECT, INDIRECT, INCIDENTAL, 
  20:..\u8g2-master\csrc/u8x8_d_st7586s_s028hn118a.c ****   SPECIAL, EXEMPLARY, OR CONSEQUENTIAL DAMAGES (INCLUDING, BUT 
  21:..\u8g2-master\csrc/u8x8_d_st7586s_s028hn118a.c ****   NOT LIMITED TO, PROCUREMENT OF SUBSTITUTE GOODS OR SERVICES; 
  22:..\u8g2-master\csrc/u8x8_d_st7586s_s028hn118a.c ****   LOSS OF USE, DATA, OR PROFITS; OR BUSINESS INTERRUPTION) HOWEVER 
  23:..\u8g2-master\csrc/u8x8_d_st7586s_s028hn118a.c ****   CAUSED AND ON ANY THEORY OF LIABILITY, WHETHER IN CONTRACT, 
  24:..\u8g2-master\csrc/u8x8_d_st7586s_s028hn118a.c ****   STRICT LIABILITY, OR TORT (INCLUDING NEGLIGENCE OR OTHERWISE) 
  25:..\u8g2-master\csrc/u8x8_d_st7586s_s028hn118a.c ****   ARISING IN ANY WAY OUT OF THE USE OF THIS SOFTWARE, EVEN IF 
  26:..\u8g2-master\csrc/u8x8_d_st7586s_s028hn118a.c ****   ADVISED OF THE POSSIBILITY OF SUCH DAMAGE.  
  27:..\u8g2-master\csrc/u8x8_d_st7586s_s028hn118a.c ****   
  28:..\u8g2-master\csrc/u8x8_d_st7586s_s028hn118a.c **** */
  29:..\u8g2-master\csrc/u8x8_d_st7586s_s028hn118a.c **** 
  30:..\u8g2-master\csrc/u8x8_d_st7586s_s028hn118a.c **** #include "u8g2.h"
ARM GAS  C:\Users\info\AppData\Local\Temp\cczyfBPK.s 			page 2


  31:..\u8g2-master\csrc/u8x8_d_st7586s_s028hn118a.c **** 
  32:..\u8g2-master\csrc/u8x8_d_st7586s_s028hn118a.c **** 
  33:..\u8g2-master\csrc/u8x8_d_st7586s_s028hn118a.c **** static const uint8_t u8x8_d_st7586s_sleep_on[] = {
  34:..\u8g2-master\csrc/u8x8_d_st7586s_s028hn118a.c ****   U8X8_START_TRANSFER(),  /* enable chip, delay is part of the transfer start */
  35:..\u8g2-master\csrc/u8x8_d_st7586s_s028hn118a.c ****   U8X8_C(0x010), /* set power save mode */
  36:..\u8g2-master\csrc/u8x8_d_st7586s_s028hn118a.c ****   U8X8_END_TRANSFER(),  /* disable chip */
  37:..\u8g2-master\csrc/u8x8_d_st7586s_s028hn118a.c ****   U8X8_END()                  /* end of sequence */
  38:..\u8g2-master\csrc/u8x8_d_st7586s_s028hn118a.c **** };
  39:..\u8g2-master\csrc/u8x8_d_st7586s_s028hn118a.c **** 
  40:..\u8g2-master\csrc/u8x8_d_st7586s_s028hn118a.c **** static const uint8_t u8x8_d_st7586s_sleep_off[] = {
  41:..\u8g2-master\csrc/u8x8_d_st7586s_s028hn118a.c ****   U8X8_START_TRANSFER(),  /* enable chip, delay is part of the transfer start */
  42:..\u8g2-master\csrc/u8x8_d_st7586s_s028hn118a.c ****   U8X8_C(0x011), //Sleep out
  43:..\u8g2-master\csrc/u8x8_d_st7586s_s028hn118a.c ****   U8X8_DLY(50), /* delay 50 ms */
  44:..\u8g2-master\csrc/u8x8_d_st7586s_s028hn118a.c ****   U8X8_END_TRANSFER(),  /* disable chip */
  45:..\u8g2-master\csrc/u8x8_d_st7586s_s028hn118a.c ****   U8X8_END()                  /* end of sequence */
  46:..\u8g2-master\csrc/u8x8_d_st7586s_s028hn118a.c **** };
  47:..\u8g2-master\csrc/u8x8_d_st7586s_s028hn118a.c **** 
  48:..\u8g2-master\csrc/u8x8_d_st7586s_s028hn118a.c **** static const uint8_t u8x8_d_st7586s_s028hn118a_flip0_seq[] = {
  49:..\u8g2-master\csrc/u8x8_d_st7586s_s028hn118a.c ****   U8X8_START_TRANSFER(),             	/* enable chip, delay is part of the transfer start */
  50:..\u8g2-master\csrc/u8x8_d_st7586s_s028hn118a.c ****   U8X8_C(0x036),				/* Scan Direction Setting */
  51:..\u8g2-master\csrc/u8x8_d_st7586s_s028hn118a.c ****   U8X8_A(0x000),				/* COM0 -> COM159 SEG0 -> SEG384 */
  52:..\u8g2-master\csrc/u8x8_d_st7586s_s028hn118a.c ****   U8X8_C(0x037),				/* Start line 0 */
  53:..\u8g2-master\csrc/u8x8_d_st7586s_s028hn118a.c ****   U8X8_A(0x000),
  54:..\u8g2-master\csrc/u8x8_d_st7586s_s028hn118a.c ****   U8X8_END_TRANSFER(),             	/* disable chip */
  55:..\u8g2-master\csrc/u8x8_d_st7586s_s028hn118a.c ****   U8X8_END()             			/* end of sequence */
  56:..\u8g2-master\csrc/u8x8_d_st7586s_s028hn118a.c **** };
  57:..\u8g2-master\csrc/u8x8_d_st7586s_s028hn118a.c **** 
  58:..\u8g2-master\csrc/u8x8_d_st7586s_s028hn118a.c **** static const uint8_t u8x8_d_st7586s_s028hn118a_flip1_seq[] = {
  59:..\u8g2-master\csrc/u8x8_d_st7586s_s028hn118a.c ****   U8X8_START_TRANSFER(),             	/* enable chip, delay is part of the transfer start */
  60:..\u8g2-master\csrc/u8x8_d_st7586s_s028hn118a.c ****   U8X8_C(0x036),				/* Scan Direction Setting */
  61:..\u8g2-master\csrc/u8x8_d_st7586s_s028hn118a.c ****   U8X8_A(0x0C8),				/* COM159 -> COM0 SEG384 -> SEG0 */
  62:..\u8g2-master\csrc/u8x8_d_st7586s_s028hn118a.c ****   U8X8_C(0x037),				/* Start line 24 */
  63:..\u8g2-master\csrc/u8x8_d_st7586s_s028hn118a.c ****   U8X8_A(0x018),
  64:..\u8g2-master\csrc/u8x8_d_st7586s_s028hn118a.c ****   U8X8_END_TRANSFER(),             	/* disable chip */
  65:..\u8g2-master\csrc/u8x8_d_st7586s_s028hn118a.c ****   U8X8_END()             			/* end of sequence */
  66:..\u8g2-master\csrc/u8x8_d_st7586s_s028hn118a.c **** };
  67:..\u8g2-master\csrc/u8x8_d_st7586s_s028hn118a.c **** 
  68:..\u8g2-master\csrc/u8x8_d_st7586s_s028hn118a.c **** static uint8_t u8x8_d_st7586s_common(u8x8_t *u8x8, uint8_t msg, uint8_t arg_int, void *arg_ptr) {
  69:..\u8g2-master\csrc/u8x8_d_st7586s_s028hn118a.c ****   uint8_t c;
  70:..\u8g2-master\csrc/u8x8_d_st7586s_s028hn118a.c ****   uint8_t *ptr;
  71:..\u8g2-master\csrc/u8x8_d_st7586s_s028hn118a.c ****   uint8_t i, byte;
  72:..\u8g2-master\csrc/u8x8_d_st7586s_s028hn118a.c ****   uint32_t input;
  73:..\u8g2-master\csrc/u8x8_d_st7586s_s028hn118a.c ****   uint8_t output[8];
  74:..\u8g2-master\csrc/u8x8_d_st7586s_s028hn118a.c ****   switch (msg) {
  75:..\u8g2-master\csrc/u8x8_d_st7586s_s028hn118a.c ****   case U8X8_MSG_DISPLAY_DRAW_TILE:
  76:..\u8g2-master\csrc/u8x8_d_st7586s_s028hn118a.c ****     u8x8_cad_StartTransfer(u8x8); // OK Start transfer
  77:..\u8g2-master\csrc/u8x8_d_st7586s_s028hn118a.c ****     u8x8_cad_SendCmd(u8x8, 0x02B);  /* Row Address Setting */
  78:..\u8g2-master\csrc/u8x8_d_st7586s_s028hn118a.c ****     u8x8_cad_SendArg(u8x8, 0x000);
  79:..\u8g2-master\csrc/u8x8_d_st7586s_s028hn118a.c ****     u8x8_cad_SendArg(u8x8, 0x008 * ((u8x8_tile_t *)arg_ptr)->y_pos);
  80:..\u8g2-master\csrc/u8x8_d_st7586s_s028hn118a.c ****     u8x8_cad_SendArg(u8x8, 0x000);
  81:..\u8g2-master\csrc/u8x8_d_st7586s_s028hn118a.c ****     u8x8_cad_SendArg(u8x8, u8x8->display_info->pixel_height - 1);  /* should this be u8x8->display_
  82:..\u8g2-master\csrc/u8x8_d_st7586s_s028hn118a.c ****     u8x8_cad_SendCmd(u8x8, 0x02C);  /* cmd write display data to ram */
  83:..\u8g2-master\csrc/u8x8_d_st7586s_s028hn118a.c ****     c = ((u8x8_tile_t *) arg_ptr)->cnt; //
  84:..\u8g2-master\csrc/u8x8_d_st7586s_s028hn118a.c ****     c *= 8;
  85:..\u8g2-master\csrc/u8x8_d_st7586s_s028hn118a.c ****     ptr = ((u8x8_tile_t *) arg_ptr)->tile_ptr;  //
  86:..\u8g2-master\csrc/u8x8_d_st7586s_s028hn118a.c **** 
  87:..\u8g2-master\csrc/u8x8_d_st7586s_s028hn118a.c **** // The ST7586S has an unusual 3 pixels per byte format so here we read in 3 bytes (24 pixels) and
ARM GAS  C:\Users\info\AppData\Local\Temp\cczyfBPK.s 			page 3


  88:..\u8g2-master\csrc/u8x8_d_st7586s_s028hn118a.c **** // pack that into 8 bytes of 3 pixels each 	
  89:..\u8g2-master\csrc/u8x8_d_st7586s_s028hn118a.c **** 	while (c > 0) {
  90:..\u8g2-master\csrc/u8x8_d_st7586s_s028hn118a.c ****       input = (((uint32_t)ptr[0] << 16) | ((uint32_t)ptr[1] << 8) | (uint32_t)ptr[2]);
  91:..\u8g2-master\csrc/u8x8_d_st7586s_s028hn118a.c ****       for (i=0; i<8; i++)
  92:..\u8g2-master\csrc/u8x8_d_st7586s_s028hn118a.c ****       {
  93:..\u8g2-master\csrc/u8x8_d_st7586s_s028hn118a.c ****         byte = 0;
  94:..\u8g2-master\csrc/u8x8_d_st7586s_s028hn118a.c ****         if (input & 0x800000)          // if bit 23
  95:..\u8g2-master\csrc/u8x8_d_st7586s_s028hn118a.c ****             byte = byte | 0xC0;  //set pixel 1
  96:..\u8g2-master\csrc/u8x8_d_st7586s_s028hn118a.c ****         if (input & 0x400000)          // if bit 22
  97:..\u8g2-master\csrc/u8x8_d_st7586s_s028hn118a.c ****             byte = byte | 0x18;  //set pixel 2
  98:..\u8g2-master\csrc/u8x8_d_st7586s_s028hn118a.c **** 		if (input & 0x200000)          // if bit 22
  99:..\u8g2-master\csrc/u8x8_d_st7586s_s028hn118a.c **** 			byte = byte | 0x3;  //set pixel 3
 100:..\u8g2-master\csrc/u8x8_d_st7586s_s028hn118a.c **** 		output[i] = byte;
 101:..\u8g2-master\csrc/u8x8_d_st7586s_s028hn118a.c ****         input <<= 3;
 102:..\u8g2-master\csrc/u8x8_d_st7586s_s028hn118a.c ****       }
 103:..\u8g2-master\csrc/u8x8_d_st7586s_s028hn118a.c ****       u8x8_cad_SendData(u8x8, 8, output);
 104:..\u8g2-master\csrc/u8x8_d_st7586s_s028hn118a.c ****       ptr += 3;
 105:..\u8g2-master\csrc/u8x8_d_st7586s_s028hn118a.c ****       c -= 3;
 106:..\u8g2-master\csrc/u8x8_d_st7586s_s028hn118a.c ****     }
 107:..\u8g2-master\csrc/u8x8_d_st7586s_s028hn118a.c ****     u8x8_cad_EndTransfer(u8x8);
 108:..\u8g2-master\csrc/u8x8_d_st7586s_s028hn118a.c ****     break;
 109:..\u8g2-master\csrc/u8x8_d_st7586s_s028hn118a.c ****   case U8X8_MSG_DISPLAY_SET_POWER_SAVE:
 110:..\u8g2-master\csrc/u8x8_d_st7586s_s028hn118a.c ****     if (arg_int == 0)
 111:..\u8g2-master\csrc/u8x8_d_st7586s_s028hn118a.c ****       u8x8_cad_SendSequence(u8x8, u8x8_d_st7586s_sleep_off);
 112:..\u8g2-master\csrc/u8x8_d_st7586s_s028hn118a.c ****     else
 113:..\u8g2-master\csrc/u8x8_d_st7586s_s028hn118a.c ****       u8x8_cad_SendSequence(u8x8, u8x8_d_st7586s_sleep_on);
 114:..\u8g2-master\csrc/u8x8_d_st7586s_s028hn118a.c ****     break;
 115:..\u8g2-master\csrc/u8x8_d_st7586s_s028hn118a.c **** #ifdef U8X8_WITH_SET_CONTRAST
 116:..\u8g2-master\csrc/u8x8_d_st7586s_s028hn118a.c ****   case U8X8_MSG_DISPLAY_SET_CONTRAST:
 117:..\u8g2-master\csrc/u8x8_d_st7586s_s028hn118a.c ****     u8x8_cad_StartTransfer(u8x8);
 118:..\u8g2-master\csrc/u8x8_d_st7586s_s028hn118a.c ****     u8x8_cad_SendCmd(u8x8, 0x0C0);
 119:..\u8g2-master\csrc/u8x8_d_st7586s_s028hn118a.c ****     u8x8_cad_SendArg(u8x8, arg_int);
 120:..\u8g2-master\csrc/u8x8_d_st7586s_s028hn118a.c ****     u8x8_cad_SendArg(u8x8, 0);
 121:..\u8g2-master\csrc/u8x8_d_st7586s_s028hn118a.c ****     u8x8_cad_EndTransfer(u8x8);
 122:..\u8g2-master\csrc/u8x8_d_st7586s_s028hn118a.c ****     break;
 123:..\u8g2-master\csrc/u8x8_d_st7586s_s028hn118a.c **** #endif
 124:..\u8g2-master\csrc/u8x8_d_st7586s_s028hn118a.c ****   default:
 125:..\u8g2-master\csrc/u8x8_d_st7586s_s028hn118a.c ****     return 0;
 126:..\u8g2-master\csrc/u8x8_d_st7586s_s028hn118a.c ****   }
 127:..\u8g2-master\csrc/u8x8_d_st7586s_s028hn118a.c ****   return 1;
 128:..\u8g2-master\csrc/u8x8_d_st7586s_s028hn118a.c **** }
 129:..\u8g2-master\csrc/u8x8_d_st7586s_s028hn118a.c **** 
 130:..\u8g2-master\csrc/u8x8_d_st7586s_s028hn118a.c **** static const uint8_t u8x8_d_st7586s_s028hn118a_init_seq[] = {
 131:..\u8g2-master\csrc/u8x8_d_st7586s_s028hn118a.c ****   U8X8_END_TRANSFER(),/* disable chip */
 132:..\u8g2-master\csrc/u8x8_d_st7586s_s028hn118a.c **** //  U8G_ESC_RST(15), /* hardware reset */
 133:..\u8g2-master\csrc/u8x8_d_st7586s_s028hn118a.c ****   U8X8_DLY(60),   /* Delay 60 ms */
 134:..\u8g2-master\csrc/u8x8_d_st7586s_s028hn118a.c ****   U8X8_START_TRANSFER(),/* enable chip */
 135:..\u8g2-master\csrc/u8x8_d_st7586s_s028hn118a.c **** 
 136:..\u8g2-master\csrc/u8x8_d_st7586s_s028hn118a.c ****   U8X8_C(0x001), // Soft reset
 137:..\u8g2-master\csrc/u8x8_d_st7586s_s028hn118a.c ****   U8X8_DLY(60), // Delay 120 ms
 138:..\u8g2-master\csrc/u8x8_d_st7586s_s028hn118a.c **** 
 139:..\u8g2-master\csrc/u8x8_d_st7586s_s028hn118a.c ****   U8X8_C(0x011), // Sleep Out
 140:..\u8g2-master\csrc/u8x8_d_st7586s_s028hn118a.c ****   U8X8_C(0x028), // Display OFF
 141:..\u8g2-master\csrc/u8x8_d_st7586s_s028hn118a.c ****   U8X8_DLY(25), // Delay 50 ms
 142:..\u8g2-master\csrc/u8x8_d_st7586s_s028hn118a.c **** 
 143:..\u8g2-master\csrc/u8x8_d_st7586s_s028hn118a.c ****   U8X8_CAA(0x0C0,0x0E5,0x00),// Vop = F0h in trace a bit too dark
 144:..\u8g2-master\csrc/u8x8_d_st7586s_s028hn118a.c **** 
ARM GAS  C:\Users\info\AppData\Local\Temp\cczyfBPK.s 			page 4


 145:..\u8g2-master\csrc/u8x8_d_st7586s_s028hn118a.c ****   U8X8_CA(0x0C3,0x004), // BIAS = 1/10 0x04 in trace
 146:..\u8g2-master\csrc/u8x8_d_st7586s_s028hn118a.c **** 
 147:..\u8g2-master\csrc/u8x8_d_st7586s_s028hn118a.c ****   U8X8_CA(0x0C4,0x005), // Booster = x6 0x05 in trace
 148:..\u8g2-master\csrc/u8x8_d_st7586s_s028hn118a.c **** 
 149:..\u8g2-master\csrc/u8x8_d_st7586s_s028hn118a.c ****   U8X8_CA(0x0D0,0x01D), // Enable Analog Circuit
 150:..\u8g2-master\csrc/u8x8_d_st7586s_s028hn118a.c **** 
 151:..\u8g2-master\csrc/u8x8_d_st7586s_s028hn118a.c ****   U8X8_CA(0x0B3,0x000), // Set FOSC divider
 152:..\u8g2-master\csrc/u8x8_d_st7586s_s028hn118a.c **** 
 153:..\u8g2-master\csrc/u8x8_d_st7586s_s028hn118a.c ****   U8X8_CA(0x0B5,0x08B), // N-Line = 0
 154:..\u8g2-master\csrc/u8x8_d_st7586s_s028hn118a.c **** 
 155:..\u8g2-master\csrc/u8x8_d_st7586s_s028hn118a.c ****   U8X8_C(0x039), // 0x39 Monochrome mode. 0x38 - gray Mode
 156:..\u8g2-master\csrc/u8x8_d_st7586s_s028hn118a.c **** 
 157:..\u8g2-master\csrc/u8x8_d_st7586s_s028hn118a.c ****   U8X8_C(0x03A), // Enable DDRAM Interface
 158:..\u8g2-master\csrc/u8x8_d_st7586s_s028hn118a.c ****   U8X8_A(0x002), // monochrome and 4-level
 159:..\u8g2-master\csrc/u8x8_d_st7586s_s028hn118a.c **** 
 160:..\u8g2-master\csrc/u8x8_d_st7586s_s028hn118a.c ****   U8X8_C(0x036), // Scan Direction Setting
 161:..\u8g2-master\csrc/u8x8_d_st7586s_s028hn118a.c ****   U8X8_A(0x000), // COM0 -> COM159 SEG0 -> SEG384
 162:..\u8g2-master\csrc/u8x8_d_st7586s_s028hn118a.c **** 
 163:..\u8g2-master\csrc/u8x8_d_st7586s_s028hn118a.c ****   U8X8_C(0x0B0), // Duty Setting (num rows - 1)
 164:..\u8g2-master\csrc/u8x8_d_st7586s_s028hn118a.c ****   U8X8_A(0x087), // should be 0x87 but caused flicker 0x9F
 165:..\u8g2-master\csrc/u8x8_d_st7586s_s028hn118a.c **** 
 166:..\u8g2-master\csrc/u8x8_d_st7586s_s028hn118a.c ****   U8X8_C(0x020), // Display inversion off
 167:..\u8g2-master\csrc/u8x8_d_st7586s_s028hn118a.c **** 
 168:..\u8g2-master\csrc/u8x8_d_st7586s_s028hn118a.c ****   U8X8_C(0x02A), // Column Address Setting
 169:..\u8g2-master\csrc/u8x8_d_st7586s_s028hn118a.c ****   U8X8_A(0x000), // COL0 -> COL127
 170:..\u8g2-master\csrc/u8x8_d_st7586s_s028hn118a.c ****   U8X8_A(0x000), // 
 171:..\u8g2-master\csrc/u8x8_d_st7586s_s028hn118a.c ****   U8X8_A(0x000), //
 172:..\u8g2-master\csrc/u8x8_d_st7586s_s028hn118a.c ****   U8X8_A(0x07f), // 128*3=384 pixels
 173:..\u8g2-master\csrc/u8x8_d_st7586s_s028hn118a.c **** 
 174:..\u8g2-master\csrc/u8x8_d_st7586s_s028hn118a.c ****   U8X8_C(0x02B), // Row Address Setting
 175:..\u8g2-master\csrc/u8x8_d_st7586s_s028hn118a.c ****   U8X8_A(0x000), // ROW0 -> ROW135
 176:..\u8g2-master\csrc/u8x8_d_st7586s_s028hn118a.c ****   U8X8_A(0x000), //
 177:..\u8g2-master\csrc/u8x8_d_st7586s_s028hn118a.c ****   U8X8_A(0x000), //
 178:..\u8g2-master\csrc/u8x8_d_st7586s_s028hn118a.c ****   U8X8_A(0x087), // 136 pixels
 179:..\u8g2-master\csrc/u8x8_d_st7586s_s028hn118a.c **** 
 180:..\u8g2-master\csrc/u8x8_d_st7586s_s028hn118a.c ****   U8X8_C(0x0F1), // Frame rate monochrome
 181:..\u8g2-master\csrc/u8x8_d_st7586s_s028hn118a.c ****   U8X8_A(0x00C), // The factory firmware set this to 49.0 Hz 0x07
 182:..\u8g2-master\csrc/u8x8_d_st7586s_s028hn118a.c ****   U8X8_A(0x00C), // This caused a shimmer under 50Hz LED lights
 183:..\u8g2-master\csrc/u8x8_d_st7586s_s028hn118a.c ****   U8X8_A(0x00C), // 69.0 Hz (0x0C) fixes this and should avoid the
 184:..\u8g2-master\csrc/u8x8_d_st7586s_s028hn118a.c ****   U8X8_A(0x00C), // issue in the US too
 185:..\u8g2-master\csrc/u8x8_d_st7586s_s028hn118a.c ****   
 186:..\u8g2-master\csrc/u8x8_d_st7586s_s028hn118a.c ****   U8X8_C(0x029), // Display ON
 187:..\u8g2-master\csrc/u8x8_d_st7586s_s028hn118a.c ****   U8X8_END()  /* end of sequence */
 188:..\u8g2-master\csrc/u8x8_d_st7586s_s028hn118a.c **** };
 189:..\u8g2-master\csrc/u8x8_d_st7586s_s028hn118a.c **** 
 190:..\u8g2-master\csrc/u8x8_d_st7586s_s028hn118a.c **** static const u8x8_display_info_t u8x8_st7586s_s028hn118a_display_info =
 191:..\u8g2-master\csrc/u8x8_d_st7586s_s028hn118a.c **** {
 192:..\u8g2-master\csrc/u8x8_d_st7586s_s028hn118a.c ****   /* chip_enable_level = */ 0,
 193:..\u8g2-master\csrc/u8x8_d_st7586s_s028hn118a.c ****   /* chip_disable_level = */ 1,
 194:..\u8g2-master\csrc/u8x8_d_st7586s_s028hn118a.c **** 
 195:..\u8g2-master\csrc/u8x8_d_st7586s_s028hn118a.c ****   /* post_chip_enable_wait_ns = */ 5,
 196:..\u8g2-master\csrc/u8x8_d_st7586s_s028hn118a.c ****   /* pre_chip_disable_wait_ns = */ 5,
 197:..\u8g2-master\csrc/u8x8_d_st7586s_s028hn118a.c ****   /* reset_pulse_width_ms = */ 1,
 198:..\u8g2-master\csrc/u8x8_d_st7586s_s028hn118a.c ****   /* post_reset_wait_ms = */ 6,
 199:..\u8g2-master\csrc/u8x8_d_st7586s_s028hn118a.c ****   /* sda_setup_time_ns = */ 20,
 200:..\u8g2-master\csrc/u8x8_d_st7586s_s028hn118a.c ****   /* sck_pulse_width_ns = */  100,  /* datasheet ST7586S */
 201:..\u8g2-master\csrc/u8x8_d_st7586s_s028hn118a.c ****   /* sck_clock_hz = */ 8000000UL, /* since Arduino 1.6.0, the SPI bus speed in Hz. Should be  10000
ARM GAS  C:\Users\info\AppData\Local\Temp\cczyfBPK.s 			page 5


 202:..\u8g2-master\csrc/u8x8_d_st7586s_s028hn118a.c ****   /* ST7586+Atmega128RFA1 works with 8MHz */
 203:..\u8g2-master\csrc/u8x8_d_st7586s_s028hn118a.c ****   /* spi_mode = */ 3,   /* active high, rising edge */
 204:..\u8g2-master\csrc/u8x8_d_st7586s_s028hn118a.c ****   /* i2c_bus_clock_100kHz = */ 4,
 205:..\u8g2-master\csrc/u8x8_d_st7586s_s028hn118a.c ****   /* data_setup_time_ns = */ 20, /* datasheet suggests min 20 */
 206:..\u8g2-master\csrc/u8x8_d_st7586s_s028hn118a.c ****   /* write_pulse_width_ns = */ 40,
 207:..\u8g2-master\csrc/u8x8_d_st7586s_s028hn118a.c ****   /* tile_width = */ 48,
 208:..\u8g2-master\csrc/u8x8_d_st7586s_s028hn118a.c ****   /* tile_height = */ 17,
 209:..\u8g2-master\csrc/u8x8_d_st7586s_s028hn118a.c ****   /* default_x_offset = */ 0,
 210:..\u8g2-master\csrc/u8x8_d_st7586s_s028hn118a.c ****   /* flipmode_x_offset = */ 0,
 211:..\u8g2-master\csrc/u8x8_d_st7586s_s028hn118a.c ****   /* pixel_width = */ 384,
 212:..\u8g2-master\csrc/u8x8_d_st7586s_s028hn118a.c ****   /* pixel_height = */ 136
 213:..\u8g2-master\csrc/u8x8_d_st7586s_s028hn118a.c **** };
 214:..\u8g2-master\csrc/u8x8_d_st7586s_s028hn118a.c **** 
 215:..\u8g2-master\csrc/u8x8_d_st7586s_s028hn118a.c **** /*******************************************************************************
 216:..\u8g2-master\csrc/u8x8_d_st7586s_s028hn118a.c ****  * st7586s_s028hn118a driver. This is the display in the SMART Response XE. This requires 16 bit mo
 217:..\u8g2-master\csrc/u8x8_d_st7586s_s028hn118a.c ****  ******************************************************************************/
 218:..\u8g2-master\csrc/u8x8_d_st7586s_s028hn118a.c **** uint8_t u8x8_d_st7586s_s028hn118a(u8x8_t *u8x8, uint8_t msg, uint8_t arg_int, void *arg_ptr) {
  28              		.loc 1 218 0
  29              		.cfi_startproc
  30              		@ args = 0, pretend = 0, frame = 8
  31              		@ frame_needed = 0, uses_anonymous_args = 0
  32              	.LVL0:
  33 0000 F0B5     		push	{r4, r5, r6, r7, lr}
  34              		.cfi_def_cfa_offset 20
  35              		.cfi_offset 4, -20
  36              		.cfi_offset 5, -16
  37              		.cfi_offset 6, -12
  38              		.cfi_offset 7, -8
  39              		.cfi_offset 14, -4
  40              	.LBB4:
  41              	.LBB5:
  74:..\u8g2-master\csrc/u8x8_d_st7586s_s028hn118a.c ****   case U8X8_MSG_DISPLAY_DRAW_TILE:
  42              		.loc 1 74 0
  43 0002 0E29     		cmp	r1, #14
  44              	.LBE5:
  45              	.LBE4:
  46              		.loc 1 218 0
  47 0004 83B0     		sub	sp, sp, #12
  48              		.cfi_def_cfa_offset 32
  49              		.loc 1 218 0
  50 0006 1646     		mov	r6, r2
  51 0008 0546     		mov	r5, r0
  52              	.LVL1:
  53              	.LBB10:
  54              	.LBB6:
  74:..\u8g2-master\csrc/u8x8_d_st7586s_s028hn118a.c ****   case U8X8_MSG_DISPLAY_DRAW_TILE:
  55              		.loc 1 74 0
  56 000a 00F00381 		beq	.L3
  57 000e 0F29     		cmp	r1, #15
  58 0010 14D0     		beq	.L4
  59 0012 0B29     		cmp	r1, #11
  60 0014 0BD0     		beq	.L98
  61              	.LVL2:
  62              	.LBE6:
  63              	.LBE10:
 219:..\u8g2-master\csrc/u8x8_d_st7586s_s028hn118a.c ****   if (u8x8_d_st7586s_common(u8x8, msg, arg_int, arg_ptr) != 0)
 220:..\u8g2-master\csrc/u8x8_d_st7586s_s028hn118a.c ****     return 1;
ARM GAS  C:\Users\info\AppData\Local\Temp\cczyfBPK.s 			page 6


 221:..\u8g2-master\csrc/u8x8_d_st7586s_s028hn118a.c ****   
 222:..\u8g2-master\csrc/u8x8_d_st7586s_s028hn118a.c ****   switch (msg) {
  64              		.loc 1 222 0
  65 0016 0A29     		cmp	r1, #10
  66 0018 00F00B81 		beq	.L35
  67 001c 0D29     		cmp	r1, #13
  68 001e 00F01B81 		beq	.L38
  69 0022 0929     		cmp	r1, #9
  70 0024 00F01281 		beq	.L99
 223:..\u8g2-master\csrc/u8x8_d_st7586s_s028hn118a.c ****   case U8X8_MSG_DISPLAY_INIT:
 224:..\u8g2-master\csrc/u8x8_d_st7586s_s028hn118a.c ****     u8x8_d_helper_display_init(u8x8);
 225:..\u8g2-master\csrc/u8x8_d_st7586s_s028hn118a.c ****     u8x8_cad_SendSequence(u8x8, u8x8_d_st7586s_s028hn118a_init_seq);
 226:..\u8g2-master\csrc/u8x8_d_st7586s_s028hn118a.c ****     break;
 227:..\u8g2-master\csrc/u8x8_d_st7586s_s028hn118a.c ****   case U8X8_MSG_DISPLAY_SETUP_MEMORY:
 228:..\u8g2-master\csrc/u8x8_d_st7586s_s028hn118a.c ****     u8x8_d_helper_display_setup_memory(u8x8, &u8x8_st7586s_s028hn118a_display_info);
 229:..\u8g2-master\csrc/u8x8_d_st7586s_s028hn118a.c ****     break;
 230:..\u8g2-master\csrc/u8x8_d_st7586s_s028hn118a.c ****   case U8X8_MSG_DISPLAY_SET_FLIP_MODE:
 231:..\u8g2-master\csrc/u8x8_d_st7586s_s028hn118a.c ****   	if ( arg_int == 0 )
 232:..\u8g2-master\csrc/u8x8_d_st7586s_s028hn118a.c ****     {
 233:..\u8g2-master\csrc/u8x8_d_st7586s_s028hn118a.c ****        u8x8_cad_SendSequence(u8x8, u8x8_d_st7586s_s028hn118a_flip0_seq);
 234:..\u8g2-master\csrc/u8x8_d_st7586s_s028hn118a.c ****        u8x8->x_offset = u8x8->display_info->default_x_offset;
 235:..\u8g2-master\csrc/u8x8_d_st7586s_s028hn118a.c ****     }
 236:..\u8g2-master\csrc/u8x8_d_st7586s_s028hn118a.c ****     else
 237:..\u8g2-master\csrc/u8x8_d_st7586s_s028hn118a.c ****     {
 238:..\u8g2-master\csrc/u8x8_d_st7586s_s028hn118a.c ****       u8x8_cad_SendSequence(u8x8, u8x8_d_st7586s_s028hn118a_flip1_seq);
 239:..\u8g2-master\csrc/u8x8_d_st7586s_s028hn118a.c ****       u8x8->x_offset = u8x8->display_info->flipmode_x_offset;
 240:..\u8g2-master\csrc/u8x8_d_st7586s_s028hn118a.c ****     }	
 241:..\u8g2-master\csrc/u8x8_d_st7586s_s028hn118a.c ****     break;
 242:..\u8g2-master\csrc/u8x8_d_st7586s_s028hn118a.c ****   default:
 243:..\u8g2-master\csrc/u8x8_d_st7586s_s028hn118a.c ****     return 0;
  71              		.loc 1 243 0
  72 0028 0020     		movs	r0, #0
  73              	.LVL3:
  74              	.L91:
 244:..\u8g2-master\csrc/u8x8_d_st7586s_s028hn118a.c ****   }
 245:..\u8g2-master\csrc/u8x8_d_st7586s_s028hn118a.c ****   return 1;
 246:..\u8g2-master\csrc/u8x8_d_st7586s_s028hn118a.c **** }
  75              		.loc 1 246 0
  76 002a 03B0     		add	sp, sp, #12
  77              		.cfi_remember_state
  78              		.cfi_def_cfa_offset 20
  79              		@ sp needed
  80 002c F0BD     		pop	{r4, r5, r6, r7, pc}
  81              	.LVL4:
  82              	.L98:
  83              		.cfi_restore_state
  84              	.LBB11:
  85              	.LBB7:
 110:..\u8g2-master\csrc/u8x8_d_st7586s_s028hn118a.c ****       u8x8_cad_SendSequence(u8x8, u8x8_d_st7586s_sleep_off);
  86              		.loc 1 110 0
  87 002e 002A     		cmp	r2, #0
  88 0030 40F00881 		bne	.L34
 111:..\u8g2-master\csrc/u8x8_d_st7586s_s028hn118a.c ****     else
  89              		.loc 1 111 0
  90 0034 9249     		ldr	r1, .L101
  91              	.LVL5:
  92 0036 FFF7FEFF 		bl	u8x8_cad_SendSequence
ARM GAS  C:\Users\info\AppData\Local\Temp\cczyfBPK.s 			page 7


  93              	.LVL6:
  94 003a E8E0     		b	.L7
  95              	.LVL7:
  96              	.L4:
  97 003c 1C46     		mov	r4, r3
  76:..\u8g2-master\csrc/u8x8_d_st7586s_s028hn118a.c ****     u8x8_cad_SendCmd(u8x8, 0x02B);  /* Row Address Setting */
  98              		.loc 1 76 0
  99 003e FFF7FEFF 		bl	u8x8_cad_StartTransfer
 100              	.LVL8:
  77:..\u8g2-master\csrc/u8x8_d_st7586s_s028hn118a.c ****     u8x8_cad_SendArg(u8x8, 0x000);
 101              		.loc 1 77 0
 102 0042 2B21     		movs	r1, #43
 103 0044 2846     		mov	r0, r5
 104 0046 FFF7FEFF 		bl	u8x8_cad_SendCmd
 105              	.LVL9:
  78:..\u8g2-master\csrc/u8x8_d_st7586s_s028hn118a.c ****     u8x8_cad_SendArg(u8x8, 0x008 * ((u8x8_tile_t *)arg_ptr)->y_pos);
 106              		.loc 1 78 0
 107 004a 0021     		movs	r1, #0
 108 004c 2846     		mov	r0, r5
 109 004e FFF7FEFF 		bl	u8x8_cad_SendArg
 110              	.LVL10:
  79:..\u8g2-master\csrc/u8x8_d_st7586s_s028hn118a.c ****     u8x8_cad_SendArg(u8x8, 0x000);
 111              		.loc 1 79 0
 112 0052 A179     		ldrb	r1, [r4, #6]	@ zero_extendqisi2
 113 0054 2846     		mov	r0, r5
 114 0056 C900     		lsls	r1, r1, #3
 115 0058 01F0F801 		and	r1, r1, #248
 116 005c FFF7FEFF 		bl	u8x8_cad_SendArg
 117              	.LVL11:
  80:..\u8g2-master\csrc/u8x8_d_st7586s_s028hn118a.c ****     u8x8_cad_SendArg(u8x8, u8x8->display_info->pixel_height - 1);  /* should this be u8x8->display_
 118              		.loc 1 80 0
 119 0060 0021     		movs	r1, #0
 120 0062 2846     		mov	r0, r5
 121 0064 FFF7FEFF 		bl	u8x8_cad_SendArg
 122              	.LVL12:
  81:..\u8g2-master\csrc/u8x8_d_st7586s_s028hn118a.c ****     u8x8_cad_SendCmd(u8x8, 0x02C);  /* cmd write display data to ram */
 123              		.loc 1 81 0
 124 0068 2B68     		ldr	r3, [r5]
 125 006a 2846     		mov	r0, r5
 126 006c 997D     		ldrb	r1, [r3, #22]	@ zero_extendqisi2
 127 006e 0139     		subs	r1, r1, #1
 128 0070 C9B2     		uxtb	r1, r1
 129 0072 FFF7FEFF 		bl	u8x8_cad_SendArg
 130              	.LVL13:
  82:..\u8g2-master\csrc/u8x8_d_st7586s_s028hn118a.c ****     c = ((u8x8_tile_t *) arg_ptr)->cnt; //
 131              		.loc 1 82 0
 132 0076 2C21     		movs	r1, #44
 133 0078 2846     		mov	r0, r5
 134 007a FFF7FEFF 		bl	u8x8_cad_SendCmd
 135              	.LVL14:
  83:..\u8g2-master\csrc/u8x8_d_st7586s_s028hn118a.c ****     c *= 8;
 136              		.loc 1 83 0
 137 007e 2279     		ldrb	r2, [r4, #4]	@ zero_extendqisi2
 138              	.LVL15:
  85:..\u8g2-master\csrc/u8x8_d_st7586s_s028hn118a.c **** 
 139              		.loc 1 85 0
 140 0080 2668     		ldr	r6, [r4]
ARM GAS  C:\Users\info\AppData\Local\Temp\cczyfBPK.s 			page 8


  84:..\u8g2-master\csrc/u8x8_d_st7586s_s028hn118a.c ****     ptr = ((u8x8_tile_t *) arg_ptr)->tile_ptr;  //
 141              		.loc 1 84 0
 142 0082 D300     		lsls	r3, r2, #3
 143              	.LVL16:
  89:..\u8g2-master\csrc/u8x8_d_st7586s_s028hn118a.c ****       input = (((uint32_t)ptr[0] << 16) | ((uint32_t)ptr[1] << 8) | (uint32_t)ptr[2]);
 144              		.loc 1 89 0
 145 0084 13F0FF03 		ands	r3, r3, #255
 146              	.LVL17:
 147 0088 00F0BE80 		beq	.L94
 148 008c 03EBC302 		add	r2, r3, r3, lsl #3
 149              	.LVL18:
 150 0090 03EB4203 		add	r3, r3, r2, lsl #1
 151 0094 03EBC303 		add	r3, r3, r3, lsl #3
 152 0098 013B     		subs	r3, r3, #1
 153 009a DBB2     		uxtb	r3, r3
 154 009c 03EB4303 		add	r3, r3, r3, lsl #1
 155 00a0 9C1D     		adds	r4, r3, #6
 156              	.LVL19:
 157 00a2 3444     		add	r4, r4, r6
 158 00a4 0336     		adds	r6, r6, #3
 159              	.LVL20:
 160              	.L32:
  90:..\u8g2-master\csrc/u8x8_d_st7586s_s028hn118a.c ****       for (i=0; i<8; i++)
 161              		.loc 1 90 0
 162 00a6 16F8023C 		ldrb	r3, [r6, #-2]	@ zero_extendqisi2
 163 00aa 16F8031C 		ldrb	r1, [r6, #-3]	@ zero_extendqisi2
 164 00ae 16F8012C 		ldrb	r2, [r6, #-1]	@ zero_extendqisi2
 165 00b2 1B02     		lsls	r3, r3, #8
 166 00b4 43EA0143 		orr	r3, r3, r1, lsl #16
 167 00b8 1343     		orrs	r3, r3, r2
 168              	.LVL21:
  94:..\u8g2-master\csrc/u8x8_d_st7586s_s028hn118a.c ****             byte = byte | 0xC0;  //set pixel 1
 169              		.loc 1 94 0
 170 00ba 03F40002 		and	r2, r3, #8388608
 171 00be 002A     		cmp	r2, #0
 172 00c0 15BF     		itete	ne
 173 00c2 C022     		movne	r2, #192
 174 00c4 0022     		moveq	r2, #0
 175              	.LVL22:
 176 00c6 D821     		movne	r1, #216
 177 00c8 1821     		moveq	r1, #24
  97:..\u8g2-master\csrc/u8x8_d_st7586s_s028hn118a.c **** 		if (input & 0x200000)          // if bit 22
 178              		.loc 1 97 0
 179 00ca 13F4800F 		tst	r3, #4194304
 180 00ce 18BF     		it	ne
 181 00d0 0A46     		movne	r2, r1
 182              	.LVL23:
  98:..\u8g2-master\csrc/u8x8_d_st7586s_s028hn118a.c **** 			byte = byte | 0x3;  //set pixel 3
 183              		.loc 1 98 0
 184 00d2 9902     		lsls	r1, r3, #10
 101:..\u8g2-master\csrc/u8x8_d_st7586s_s028hn118a.c ****       }
 185              		.loc 1 101 0
 186 00d4 4FEAC303 		lsl	r3, r3, #3
 187              	.LVL24:
  94:..\u8g2-master\csrc/u8x8_d_st7586s_s028hn118a.c ****             byte = byte | 0xC0;  //set pixel 1
 188              		.loc 1 94 0
 189 00d8 03F40001 		and	r1, r3, #8388608
ARM GAS  C:\Users\info\AppData\Local\Temp\cczyfBPK.s 			page 9


  99:..\u8g2-master\csrc/u8x8_d_st7586s_s028hn118a.c **** 		output[i] = byte;
 190              		.loc 1 99 0
 191 00dc 48BF     		it	mi
 192 00de 42F00302 		orrmi	r2, r2, #3
 193              	.LVL25:
  94:..\u8g2-master\csrc/u8x8_d_st7586s_s028hn118a.c ****             byte = byte | 0xC0;  //set pixel 1
 194              		.loc 1 94 0
 195 00e2 0029     		cmp	r1, #0
 196 00e4 15BF     		itete	ne
 197 00e6 D820     		movne	r0, #216
 198 00e8 1820     		moveq	r0, #24
 199 00ea C021     		movne	r1, #192
 200 00ec 0021     		moveq	r1, #0
 201              	.LVL26:
  97:..\u8g2-master\csrc/u8x8_d_st7586s_s028hn118a.c **** 		if (input & 0x200000)          // if bit 22
 202              		.loc 1 97 0
 203 00ee 13F4800F 		tst	r3, #4194304
 204 00f2 18BF     		it	ne
 205 00f4 0146     		movne	r1, r0
 206              	.LVL27:
 100:..\u8g2-master\csrc/u8x8_d_st7586s_s028hn118a.c ****         input <<= 3;
 207              		.loc 1 100 0
 208 00f6 8DF80020 		strb	r2, [sp]
  98:..\u8g2-master\csrc/u8x8_d_st7586s_s028hn118a.c **** 			byte = byte | 0x3;  //set pixel 3
 209              		.loc 1 98 0
 210 00fa 9A02     		lsls	r2, r3, #10
 101:..\u8g2-master\csrc/u8x8_d_st7586s_s028hn118a.c ****       }
 211              		.loc 1 101 0
 212 00fc 4FEAC303 		lsl	r3, r3, #3
 213              	.LVL28:
  94:..\u8g2-master\csrc/u8x8_d_st7586s_s028hn118a.c ****             byte = byte | 0xC0;  //set pixel 1
 214              		.loc 1 94 0
 215 0100 03F40002 		and	r2, r3, #8388608
  99:..\u8g2-master\csrc/u8x8_d_st7586s_s028hn118a.c **** 		output[i] = byte;
 216              		.loc 1 99 0
 217 0104 48BF     		it	mi
 218 0106 41F00301 		orrmi	r1, r1, #3
 219              	.LVL29:
  94:..\u8g2-master\csrc/u8x8_d_st7586s_s028hn118a.c ****             byte = byte | 0xC0;  //set pixel 1
 220              		.loc 1 94 0
 221 010a 002A     		cmp	r2, #0
 222 010c 15BF     		itete	ne
 223 010e D820     		movne	r0, #216
 224 0110 1820     		moveq	r0, #24
 225 0112 C022     		movne	r2, #192
 226 0114 0022     		moveq	r2, #0
 227              	.LVL30:
  97:..\u8g2-master\csrc/u8x8_d_st7586s_s028hn118a.c **** 		if (input & 0x200000)          // if bit 22
 228              		.loc 1 97 0
 229 0116 13F4800F 		tst	r3, #4194304
 230 011a 18BF     		it	ne
 231 011c 0246     		movne	r2, r0
 232              	.LVL31:
 100:..\u8g2-master\csrc/u8x8_d_st7586s_s028hn118a.c ****         input <<= 3;
 233              		.loc 1 100 0
 234 011e 8DF80110 		strb	r1, [sp, #1]
  98:..\u8g2-master\csrc/u8x8_d_st7586s_s028hn118a.c **** 			byte = byte | 0x3;  //set pixel 3
ARM GAS  C:\Users\info\AppData\Local\Temp\cczyfBPK.s 			page 10


 235              		.loc 1 98 0
 236 0122 9902     		lsls	r1, r3, #10
 101:..\u8g2-master\csrc/u8x8_d_st7586s_s028hn118a.c ****       }
 237              		.loc 1 101 0
 238 0124 4FEAC303 		lsl	r3, r3, #3
 239              	.LVL32:
  94:..\u8g2-master\csrc/u8x8_d_st7586s_s028hn118a.c ****             byte = byte | 0xC0;  //set pixel 1
 240              		.loc 1 94 0
 241 0128 03F40001 		and	r1, r3, #8388608
  99:..\u8g2-master\csrc/u8x8_d_st7586s_s028hn118a.c **** 		output[i] = byte;
 242              		.loc 1 99 0
 243 012c 48BF     		it	mi
 244 012e 42F00302 		orrmi	r2, r2, #3
 245              	.LVL33:
  94:..\u8g2-master\csrc/u8x8_d_st7586s_s028hn118a.c ****             byte = byte | 0xC0;  //set pixel 1
 246              		.loc 1 94 0
 247 0132 0029     		cmp	r1, #0
 248 0134 15BF     		itete	ne
 249 0136 D820     		movne	r0, #216
 250 0138 1820     		moveq	r0, #24
 251 013a C021     		movne	r1, #192
 252 013c 0021     		moveq	r1, #0
 253              	.LVL34:
  97:..\u8g2-master\csrc/u8x8_d_st7586s_s028hn118a.c **** 		if (input & 0x200000)          // if bit 22
 254              		.loc 1 97 0
 255 013e 13F4800F 		tst	r3, #4194304
 256 0142 18BF     		it	ne
 257 0144 0146     		movne	r1, r0
 258              	.LVL35:
 100:..\u8g2-master\csrc/u8x8_d_st7586s_s028hn118a.c ****         input <<= 3;
 259              		.loc 1 100 0
 260 0146 8DF80220 		strb	r2, [sp, #2]
  98:..\u8g2-master\csrc/u8x8_d_st7586s_s028hn118a.c **** 			byte = byte | 0x3;  //set pixel 3
 261              		.loc 1 98 0
 262 014a 9A02     		lsls	r2, r3, #10
 101:..\u8g2-master\csrc/u8x8_d_st7586s_s028hn118a.c ****       }
 263              		.loc 1 101 0
 264 014c 4FEAC303 		lsl	r3, r3, #3
 265              	.LVL36:
  94:..\u8g2-master\csrc/u8x8_d_st7586s_s028hn118a.c ****             byte = byte | 0xC0;  //set pixel 1
 266              		.loc 1 94 0
 267 0150 03F40002 		and	r2, r3, #8388608
  99:..\u8g2-master\csrc/u8x8_d_st7586s_s028hn118a.c **** 		output[i] = byte;
 268              		.loc 1 99 0
 269 0154 48BF     		it	mi
 270 0156 41F00301 		orrmi	r1, r1, #3
 271              	.LVL37:
  94:..\u8g2-master\csrc/u8x8_d_st7586s_s028hn118a.c ****             byte = byte | 0xC0;  //set pixel 1
 272              		.loc 1 94 0
 273 015a 002A     		cmp	r2, #0
 274 015c 15BF     		itete	ne
 275 015e D820     		movne	r0, #216
 276 0160 1820     		moveq	r0, #24
 277 0162 C022     		movne	r2, #192
 278 0164 0022     		moveq	r2, #0
 279              	.LVL38:
  97:..\u8g2-master\csrc/u8x8_d_st7586s_s028hn118a.c **** 		if (input & 0x200000)          // if bit 22
ARM GAS  C:\Users\info\AppData\Local\Temp\cczyfBPK.s 			page 11


 280              		.loc 1 97 0
 281 0166 13F4800F 		tst	r3, #4194304
 282 016a 18BF     		it	ne
 283 016c 0246     		movne	r2, r0
 284              	.LVL39:
 100:..\u8g2-master\csrc/u8x8_d_st7586s_s028hn118a.c ****         input <<= 3;
 285              		.loc 1 100 0
 286 016e 8DF80310 		strb	r1, [sp, #3]
  98:..\u8g2-master\csrc/u8x8_d_st7586s_s028hn118a.c **** 			byte = byte | 0x3;  //set pixel 3
 287              		.loc 1 98 0
 288 0172 9902     		lsls	r1, r3, #10
 101:..\u8g2-master\csrc/u8x8_d_st7586s_s028hn118a.c ****       }
 289              		.loc 1 101 0
 290 0174 4FEAC303 		lsl	r3, r3, #3
 291              	.LVL40:
  94:..\u8g2-master\csrc/u8x8_d_st7586s_s028hn118a.c ****             byte = byte | 0xC0;  //set pixel 1
 292              		.loc 1 94 0
 293 0178 03F40001 		and	r1, r3, #8388608
  99:..\u8g2-master\csrc/u8x8_d_st7586s_s028hn118a.c **** 		output[i] = byte;
 294              		.loc 1 99 0
 295 017c 48BF     		it	mi
 296 017e 42F00302 		orrmi	r2, r2, #3
 297              	.LVL41:
  94:..\u8g2-master\csrc/u8x8_d_st7586s_s028hn118a.c ****             byte = byte | 0xC0;  //set pixel 1
 298              		.loc 1 94 0
 299 0182 0029     		cmp	r1, #0
 300 0184 15BF     		itete	ne
 301 0186 C021     		movne	r1, #192
 302 0188 0021     		moveq	r1, #0
 303              	.LVL42:
 304 018a D820     		movne	r0, #216
 305 018c 1820     		moveq	r0, #24
  97:..\u8g2-master\csrc/u8x8_d_st7586s_s028hn118a.c **** 		if (input & 0x200000)          // if bit 22
 306              		.loc 1 97 0
 307 018e 13F4800F 		tst	r3, #4194304
 308 0192 18BF     		it	ne
 309 0194 0146     		movne	r1, r0
 310              	.LVL43:
 100:..\u8g2-master\csrc/u8x8_d_st7586s_s028hn118a.c ****         input <<= 3;
 311              		.loc 1 100 0
 312 0196 8DF80420 		strb	r2, [sp, #4]
  98:..\u8g2-master\csrc/u8x8_d_st7586s_s028hn118a.c **** 			byte = byte | 0x3;  //set pixel 3
 313              		.loc 1 98 0
 314 019a 9A02     		lsls	r2, r3, #10
 101:..\u8g2-master\csrc/u8x8_d_st7586s_s028hn118a.c ****       }
 315              		.loc 1 101 0
 316 019c 4FEAC303 		lsl	r3, r3, #3
 317              	.LVL44:
  94:..\u8g2-master\csrc/u8x8_d_st7586s_s028hn118a.c ****             byte = byte | 0xC0;  //set pixel 1
 318              		.loc 1 94 0
 319 01a0 03F40002 		and	r2, r3, #8388608
  99:..\u8g2-master\csrc/u8x8_d_st7586s_s028hn118a.c **** 		output[i] = byte;
 320              		.loc 1 99 0
 321 01a4 48BF     		it	mi
 322 01a6 41F00301 		orrmi	r1, r1, #3
 323              	.LVL45:
  94:..\u8g2-master\csrc/u8x8_d_st7586s_s028hn118a.c ****             byte = byte | 0xC0;  //set pixel 1
ARM GAS  C:\Users\info\AppData\Local\Temp\cczyfBPK.s 			page 12


 324              		.loc 1 94 0
 325 01aa 002A     		cmp	r2, #0
 326 01ac 15BF     		itete	ne
 327 01ae C022     		movne	r2, #192
 328 01b0 0022     		moveq	r2, #0
 329              	.LVL46:
 330 01b2 D820     		movne	r0, #216
 331 01b4 1820     		moveq	r0, #24
  97:..\u8g2-master\csrc/u8x8_d_st7586s_s028hn118a.c **** 		if (input & 0x200000)          // if bit 22
 332              		.loc 1 97 0
 333 01b6 13F4800F 		tst	r3, #4194304
 334 01ba 18BF     		it	ne
 335 01bc 0246     		movne	r2, r0
 336              	.LVL47:
 100:..\u8g2-master\csrc/u8x8_d_st7586s_s028hn118a.c ****         input <<= 3;
 337              		.loc 1 100 0
 338 01be 8DF80510 		strb	r1, [sp, #5]
  98:..\u8g2-master\csrc/u8x8_d_st7586s_s028hn118a.c **** 			byte = byte | 0x3;  //set pixel 3
 339              		.loc 1 98 0
 340 01c2 9902     		lsls	r1, r3, #10
 101:..\u8g2-master\csrc/u8x8_d_st7586s_s028hn118a.c ****       }
 341              		.loc 1 101 0
 342 01c4 4FEAC303 		lsl	r3, r3, #3
 343              	.LVL48:
  94:..\u8g2-master\csrc/u8x8_d_st7586s_s028hn118a.c ****             byte = byte | 0xC0;  //set pixel 1
 344              		.loc 1 94 0
 345 01c8 03F40001 		and	r1, r3, #8388608
  99:..\u8g2-master\csrc/u8x8_d_st7586s_s028hn118a.c **** 		output[i] = byte;
 346              		.loc 1 99 0
 347 01cc 48BF     		it	mi
 348 01ce 42F00302 		orrmi	r2, r2, #3
 349              	.LVL49:
  94:..\u8g2-master\csrc/u8x8_d_st7586s_s028hn118a.c ****             byte = byte | 0xC0;  //set pixel 1
 350              		.loc 1 94 0
 351 01d2 0029     		cmp	r1, #0
 352 01d4 15BF     		itete	ne
 353 01d6 C027     		movne	r7, #192
 354 01d8 0027     		moveq	r7, #0
 355 01da D821     		movne	r1, #216
 356 01dc 1821     		moveq	r1, #24
  97:..\u8g2-master\csrc/u8x8_d_st7586s_s028hn118a.c **** 		if (input & 0x200000)          // if bit 22
 357              		.loc 1 97 0
 358 01de 13F4800F 		tst	r3, #4194304
 359 01e2 18BF     		it	ne
 360 01e4 0F46     		movne	r7, r1
  98:..\u8g2-master\csrc/u8x8_d_st7586s_s028hn118a.c **** 			byte = byte | 0x3;  //set pixel 3
 361              		.loc 1 98 0
 362 01e6 9B02     		lsls	r3, r3, #10
  99:..\u8g2-master\csrc/u8x8_d_st7586s_s028hn118a.c **** 		output[i] = byte;
 363              		.loc 1 99 0
 364 01e8 48BF     		it	mi
 365 01ea 47F00307 		orrmi	r7, r7, #3
 100:..\u8g2-master\csrc/u8x8_d_st7586s_s028hn118a.c ****         input <<= 3;
 366              		.loc 1 100 0
 367 01ee 8DF80620 		strb	r2, [sp, #6]
 368              	.LVL50:
 369 01f2 0336     		adds	r6, r6, #3
ARM GAS  C:\Users\info\AppData\Local\Temp\cczyfBPK.s 			page 13


 370              	.LVL51:
 103:..\u8g2-master\csrc/u8x8_d_st7586s_s028hn118a.c ****       ptr += 3;
 371              		.loc 1 103 0
 372 01f4 6A46     		mov	r2, sp
 373 01f6 0821     		movs	r1, #8
 374 01f8 2846     		mov	r0, r5
 100:..\u8g2-master\csrc/u8x8_d_st7586s_s028hn118a.c ****         input <<= 3;
 375              		.loc 1 100 0
 376 01fa 8DF80770 		strb	r7, [sp, #7]
 377              	.LVL52:
 103:..\u8g2-master\csrc/u8x8_d_st7586s_s028hn118a.c ****       ptr += 3;
 378              		.loc 1 103 0
 379 01fe FFF7FEFF 		bl	u8x8_cad_SendData
 380              	.LVL53:
  89:..\u8g2-master\csrc/u8x8_d_st7586s_s028hn118a.c ****       input = (((uint32_t)ptr[0] << 16) | ((uint32_t)ptr[1] << 8) | (uint32_t)ptr[2]);
 381              		.loc 1 89 0
 382 0202 B442     		cmp	r4, r6
 383 0204 7FF44FAF 		bne	.L32
 384              	.LVL54:
 385              	.L94:
 121:..\u8g2-master\csrc/u8x8_d_st7586s_s028hn118a.c ****     break;
 386              		.loc 1 121 0
 387 0208 2846     		mov	r0, r5
 388 020a FFF7FEFF 		bl	u8x8_cad_EndTransfer
 389              	.LVL55:
 390              	.L7:
 391              	.LBE7:
 392              	.LBE11:
 220:..\u8g2-master\csrc/u8x8_d_st7586s_s028hn118a.c ****   
 393              		.loc 1 220 0
 394 020e 0120     		movs	r0, #1
 395              		.loc 1 246 0
 396 0210 03B0     		add	sp, sp, #12
 397              		.cfi_remember_state
 398              		.cfi_def_cfa_offset 20
 399              		@ sp needed
 400 0212 F0BD     		pop	{r4, r5, r6, r7, pc}
 401              	.LVL56:
 402              	.L3:
 403              		.cfi_restore_state
 404              	.LBB12:
 405              	.LBB8:
 117:..\u8g2-master\csrc/u8x8_d_st7586s_s028hn118a.c ****     u8x8_cad_SendCmd(u8x8, 0x0C0);
 406              		.loc 1 117 0
 407 0214 FFF7FEFF 		bl	u8x8_cad_StartTransfer
 408              	.LVL57:
 118:..\u8g2-master\csrc/u8x8_d_st7586s_s028hn118a.c ****     u8x8_cad_SendArg(u8x8, arg_int);
 409              		.loc 1 118 0
 410 0218 C021     		movs	r1, #192
 411 021a 2846     		mov	r0, r5
 412 021c FFF7FEFF 		bl	u8x8_cad_SendCmd
 413              	.LVL58:
 119:..\u8g2-master\csrc/u8x8_d_st7586s_s028hn118a.c ****     u8x8_cad_SendArg(u8x8, 0);
 414              		.loc 1 119 0
 415 0220 3146     		mov	r1, r6
 416 0222 2846     		mov	r0, r5
 417 0224 FFF7FEFF 		bl	u8x8_cad_SendArg
ARM GAS  C:\Users\info\AppData\Local\Temp\cczyfBPK.s 			page 14


 418              	.LVL59:
 120:..\u8g2-master\csrc/u8x8_d_st7586s_s028hn118a.c ****     u8x8_cad_EndTransfer(u8x8);
 419              		.loc 1 120 0
 420 0228 0021     		movs	r1, #0
 421 022a 2846     		mov	r0, r5
 422 022c FFF7FEFF 		bl	u8x8_cad_SendArg
 423              	.LVL60:
 424 0230 EAE7     		b	.L94
 425              	.LVL61:
 426              	.L35:
 427              	.LBE8:
 428              	.LBE12:
 224:..\u8g2-master\csrc/u8x8_d_st7586s_s028hn118a.c ****     u8x8_cad_SendSequence(u8x8, u8x8_d_st7586s_s028hn118a_init_seq);
 429              		.loc 1 224 0
 430 0232 FFF7FEFF 		bl	u8x8_d_helper_display_init
 431              	.LVL62:
 225:..\u8g2-master\csrc/u8x8_d_st7586s_s028hn118a.c ****     break;
 432              		.loc 1 225 0
 433 0236 2846     		mov	r0, r5
 434 0238 1249     		ldr	r1, .L101+4
 435 023a FFF7FEFF 		bl	u8x8_cad_SendSequence
 436              	.LVL63:
 245:..\u8g2-master\csrc/u8x8_d_st7586s_s028hn118a.c **** }
 437              		.loc 1 245 0
 438 023e 0120     		movs	r0, #1
 439              		.loc 1 246 0
 440 0240 03B0     		add	sp, sp, #12
 441              		.cfi_remember_state
 442              		.cfi_def_cfa_offset 20
 443              		@ sp needed
 444 0242 F0BD     		pop	{r4, r5, r6, r7, pc}
 445              	.LVL64:
 446              	.L34:
 447              		.cfi_restore_state
 448              	.LBB13:
 449              	.LBB9:
 113:..\u8g2-master\csrc/u8x8_d_st7586s_s028hn118a.c ****     break;
 450              		.loc 1 113 0
 451 0244 1049     		ldr	r1, .L101+8
 452              	.LVL65:
 453 0246 FFF7FEFF 		bl	u8x8_cad_SendSequence
 454              	.LVL66:
 455 024a E0E7     		b	.L7
 456              	.LVL67:
 457              	.L99:
 458              	.LBE9:
 459              	.LBE13:
 228:..\u8g2-master\csrc/u8x8_d_st7586s_s028hn118a.c ****     break;
 460              		.loc 1 228 0
 461 024c 0F49     		ldr	r1, .L101+12
 462              	.LVL68:
 463 024e FFF7FEFF 		bl	u8x8_d_helper_display_setup_memory
 464              	.LVL69:
 245:..\u8g2-master\csrc/u8x8_d_st7586s_s028hn118a.c **** }
 465              		.loc 1 245 0
 466 0252 0120     		movs	r0, #1
 467              		.loc 1 246 0
ARM GAS  C:\Users\info\AppData\Local\Temp\cczyfBPK.s 			page 15


 468 0254 03B0     		add	sp, sp, #12
 469              		.cfi_remember_state
 470              		.cfi_def_cfa_offset 20
 471              		@ sp needed
 472 0256 F0BD     		pop	{r4, r5, r6, r7, pc}
 473              	.LVL70:
 474              	.L38:
 475              		.cfi_restore_state
 231:..\u8g2-master\csrc/u8x8_d_st7586s_s028hn118a.c ****     {
 476              		.loc 1 231 0
 477 0258 46B1     		cbz	r6, .L100
 238:..\u8g2-master\csrc/u8x8_d_st7586s_s028hn118a.c ****       u8x8->x_offset = u8x8->display_info->flipmode_x_offset;
 478              		.loc 1 238 0
 479 025a 0D49     		ldr	r1, .L101+16
 480              	.LVL71:
 481 025c FFF7FEFF 		bl	u8x8_cad_SendSequence
 482              	.LVL72:
 239:..\u8g2-master\csrc/u8x8_d_st7586s_s028hn118a.c ****     }	
 483              		.loc 1 239 0
 484 0260 2B68     		ldr	r3, [r5]
 245:..\u8g2-master\csrc/u8x8_d_st7586s_s028hn118a.c **** }
 485              		.loc 1 245 0
 486 0262 0120     		movs	r0, #1
 239:..\u8g2-master\csrc/u8x8_d_st7586s_s028hn118a.c ****     }	
 487              		.loc 1 239 0
 488 0264 DB7C     		ldrb	r3, [r3, #19]	@ zero_extendqisi2
 489 0266 85F82230 		strb	r3, [r5, #34]
 490 026a DEE6     		b	.L91
 491              	.LVL73:
 492              	.L100:
 233:..\u8g2-master\csrc/u8x8_d_st7586s_s028hn118a.c ****        u8x8->x_offset = u8x8->display_info->default_x_offset;
 493              		.loc 1 233 0
 494 026c 0949     		ldr	r1, .L101+20
 495              	.LVL74:
 496 026e FFF7FEFF 		bl	u8x8_cad_SendSequence
 497              	.LVL75:
 234:..\u8g2-master\csrc/u8x8_d_st7586s_s028hn118a.c ****     }
 498              		.loc 1 234 0
 499 0272 2B68     		ldr	r3, [r5]
 245:..\u8g2-master\csrc/u8x8_d_st7586s_s028hn118a.c **** }
 500              		.loc 1 245 0
 501 0274 0120     		movs	r0, #1
 234:..\u8g2-master\csrc/u8x8_d_st7586s_s028hn118a.c ****     }
 502              		.loc 1 234 0
 503 0276 9B7C     		ldrb	r3, [r3, #18]	@ zero_extendqisi2
 504 0278 85F82230 		strb	r3, [r5, #34]
 505 027c D5E6     		b	.L91
 506              	.L102:
 507 027e 00BF     		.align	2
 508              	.L101:
 509 0280 00000000 		.word	.LANCHOR0
 510 0284 10000000 		.word	.LANCHOR0+16
 511 0288 08000000 		.word	.LANCHOR0+8
 512 028c 6C000000 		.word	.LANCHOR0+108
 513 0290 90000000 		.word	.LANCHOR0+144
 514 0294 84000000 		.word	.LANCHOR0+132
 515              		.cfi_endproc
ARM GAS  C:\Users\info\AppData\Local\Temp\cczyfBPK.s 			page 16


 516              	.LFE1:
 517              		.size	u8x8_d_st7586s_s028hn118a, .-u8x8_d_st7586s_s028hn118a
 518              		.section	.rodata
 519              		.align	2
 520              		.set	.LANCHOR0,. + 0
 521              		.type	u8x8_d_st7586s_sleep_off, %object
 522              		.size	u8x8_d_st7586s_sleep_off, 7
 523              	u8x8_d_st7586s_sleep_off:
 524 0000 18       		.byte	24
 525 0001 15       		.byte	21
 526 0002 11       		.byte	17
 527 0003 FE       		.byte	-2
 528 0004 32       		.byte	50
 529 0005 19       		.byte	25
 530 0006 FF       		.byte	-1
 531 0007 00       		.space	1
 532              		.type	u8x8_d_st7586s_sleep_on, %object
 533              		.size	u8x8_d_st7586s_sleep_on, 5
 534              	u8x8_d_st7586s_sleep_on:
 535 0008 18       		.byte	24
 536 0009 15       		.byte	21
 537 000a 10       		.byte	16
 538 000b 19       		.byte	25
 539 000c FF       		.byte	-1
 540 000d 000000   		.space	3
 541              		.type	u8x8_d_st7586s_s028hn118a_init_seq, %object
 542              		.size	u8x8_d_st7586s_s028hn118a_init_seq, 89
 543              	u8x8_d_st7586s_s028hn118a_init_seq:
 544 0010 19       		.byte	25
 545 0011 FE       		.byte	-2
 546 0012 3C       		.byte	60
 547 0013 18       		.byte	24
 548 0014 15       		.byte	21
 549 0015 01       		.byte	1
 550 0016 FE       		.byte	-2
 551 0017 3C       		.byte	60
 552 0018 15       		.byte	21
 553 0019 11       		.byte	17
 554 001a 15       		.byte	21
 555 001b 28       		.byte	40
 556 001c FE       		.byte	-2
 557 001d 19       		.byte	25
 558 001e 15       		.byte	21
 559 001f C0       		.byte	-64
 560 0020 16       		.byte	22
 561 0021 E5       		.byte	-27
 562 0022 16       		.byte	22
 563 0023 00       		.byte	0
 564 0024 15       		.byte	21
 565 0025 C3       		.byte	-61
 566 0026 16       		.byte	22
 567 0027 04       		.byte	4
 568 0028 15       		.byte	21
 569 0029 C4       		.byte	-60
 570 002a 16       		.byte	22
 571 002b 05       		.byte	5
 572 002c 15       		.byte	21
ARM GAS  C:\Users\info\AppData\Local\Temp\cczyfBPK.s 			page 17


 573 002d D0       		.byte	-48
 574 002e 16       		.byte	22
 575 002f 1D       		.byte	29
 576 0030 15       		.byte	21
 577 0031 B3       		.byte	-77
 578 0032 16       		.byte	22
 579 0033 00       		.byte	0
 580 0034 15       		.byte	21
 581 0035 B5       		.byte	-75
 582 0036 16       		.byte	22
 583 0037 8B       		.byte	-117
 584 0038 15       		.byte	21
 585 0039 39       		.byte	57
 586 003a 15       		.byte	21
 587 003b 3A       		.byte	58
 588 003c 16       		.byte	22
 589 003d 02       		.byte	2
 590 003e 15       		.byte	21
 591 003f 36       		.byte	54
 592 0040 16       		.byte	22
 593 0041 00       		.byte	0
 594 0042 15       		.byte	21
 595 0043 B0       		.byte	-80
 596 0044 16       		.byte	22
 597 0045 87       		.byte	-121
 598 0046 15       		.byte	21
 599 0047 20       		.byte	32
 600 0048 15       		.byte	21
 601 0049 2A       		.byte	42
 602 004a 16       		.byte	22
 603 004b 00       		.byte	0
 604 004c 16       		.byte	22
 605 004d 00       		.byte	0
 606 004e 16       		.byte	22
 607 004f 00       		.byte	0
 608 0050 16       		.byte	22
 609 0051 7F       		.byte	127
 610 0052 15       		.byte	21
 611 0053 2B       		.byte	43
 612 0054 16       		.byte	22
 613 0055 00       		.byte	0
 614 0056 16       		.byte	22
 615 0057 00       		.byte	0
 616 0058 16       		.byte	22
 617 0059 00       		.byte	0
 618 005a 16       		.byte	22
 619 005b 87       		.byte	-121
 620 005c 15       		.byte	21
 621 005d F1       		.byte	-15
 622 005e 16       		.byte	22
 623 005f 0C       		.byte	12
 624 0060 16       		.byte	22
 625 0061 0C       		.byte	12
 626 0062 16       		.byte	22
 627 0063 0C       		.byte	12
 628 0064 16       		.byte	22
 629 0065 0C       		.byte	12
ARM GAS  C:\Users\info\AppData\Local\Temp\cczyfBPK.s 			page 18


 630 0066 15       		.byte	21
 631 0067 29       		.byte	41
 632 0068 FF       		.byte	-1
 633 0069 000000   		.space	3
 634              		.type	u8x8_st7586s_s028hn118a_display_info, %object
 635              		.size	u8x8_st7586s_s028hn118a_display_info, 24
 636              	u8x8_st7586s_s028hn118a_display_info:
 637 006c 00       		.byte	0
 638 006d 01       		.byte	1
 639 006e 05       		.byte	5
 640 006f 05       		.byte	5
 641 0070 01       		.byte	1
 642 0071 06       		.byte	6
 643 0072 14       		.byte	20
 644 0073 64       		.byte	100
 645 0074 00127A00 		.word	8000000
 646 0078 03       		.byte	3
 647 0079 04       		.byte	4
 648 007a 14       		.byte	20
 649 007b 28       		.byte	40
 650 007c 30       		.byte	48
 651 007d 11       		.byte	17
 652 007e 00       		.byte	0
 653 007f 00       		.byte	0
 654 0080 8001     		.short	384
 655 0082 8800     		.short	136
 656              		.type	u8x8_d_st7586s_s028hn118a_flip0_seq, %object
 657              		.size	u8x8_d_st7586s_s028hn118a_flip0_seq, 11
 658              	u8x8_d_st7586s_s028hn118a_flip0_seq:
 659 0084 18       		.byte	24
 660 0085 15       		.byte	21
 661 0086 36       		.byte	54
 662 0087 16       		.byte	22
 663 0088 00       		.byte	0
 664 0089 15       		.byte	21
 665 008a 37       		.byte	55
 666 008b 16       		.byte	22
 667 008c 00       		.byte	0
 668 008d 19       		.byte	25
 669 008e FF       		.byte	-1
 670 008f 00       		.space	1
 671              		.type	u8x8_d_st7586s_s028hn118a_flip1_seq, %object
 672              		.size	u8x8_d_st7586s_s028hn118a_flip1_seq, 11
 673              	u8x8_d_st7586s_s028hn118a_flip1_seq:
 674 0090 18       		.byte	24
 675 0091 15       		.byte	21
 676 0092 36       		.byte	54
 677 0093 16       		.byte	22
 678 0094 C8       		.byte	-56
 679 0095 15       		.byte	21
 680 0096 37       		.byte	55
 681 0097 16       		.byte	22
 682 0098 18       		.byte	24
 683 0099 19       		.byte	25
 684 009a FF       		.byte	-1
 685              		.text
 686              	.Letext0:
ARM GAS  C:\Users\info\AppData\Local\Temp\cczyfBPK.s 			page 19


 687              		.file 2 "c:\\program files (x86)\\cypress\\psoc creator\\4.2\\psoc creator\\import\\gnu\\arm\\5.4.
 688              		.file 3 "c:\\program files (x86)\\cypress\\psoc creator\\4.2\\psoc creator\\import\\gnu\\arm\\5.4.
 689              		.file 4 "..\\u8g2-master\\csrc\\u8x8.h"