ARM GAS  C:\Users\info\AppData\Local\Temp\ccAWUQ53.s 			page 1


   1              		.syntax unified
   2              		.cpu cortex-m3
   3              		.fpu softvfp
   4              		.eabi_attribute 20, 1
   5              		.eabi_attribute 21, 1
   6              		.eabi_attribute 23, 3
   7              		.eabi_attribute 24, 1
   8              		.eabi_attribute 25, 1
   9              		.eabi_attribute 26, 1
  10              		.eabi_attribute 30, 2
  11              		.eabi_attribute 34, 1
  12              		.eabi_attribute 18, 4
  13              		.thumb
  14              		.syntax unified
  15              		.file	"u8x8_byte.c"
  16              		.text
  17              	.Ltext0:
  18              		.cfi_sections	.debug_frame
  19              		.section	.text.i2c_delay,"ax",%progbits
  20              		.align	2
  21              		.thumb
  22              		.thumb_func
  23              		.type	i2c_delay, %function
  24              	i2c_delay:
  25              	.LFB13:
  26              		.file 1 "..\\u8g2-master\\csrc\\u8x8_byte.c"
   1:..\u8g2-master\csrc/u8x8_byte.c **** /*
   2:..\u8g2-master\csrc/u8x8_byte.c **** 
   3:..\u8g2-master\csrc/u8x8_byte.c ****   u8x8_byte.c 
   4:..\u8g2-master\csrc/u8x8_byte.c ****   
   5:..\u8g2-master\csrc/u8x8_byte.c ****   Universal 8bit Graphics Library (https://github.com/olikraus/u8g2/)
   6:..\u8g2-master\csrc/u8x8_byte.c **** 
   7:..\u8g2-master\csrc/u8x8_byte.c ****   Copyright (c) 2016, olikraus@gmail.com
   8:..\u8g2-master\csrc/u8x8_byte.c ****   All rights reserved.
   9:..\u8g2-master\csrc/u8x8_byte.c **** 
  10:..\u8g2-master\csrc/u8x8_byte.c ****   Redistribution and use in source and binary forms, with or without modification, 
  11:..\u8g2-master\csrc/u8x8_byte.c ****   are permitted provided that the following conditions are met:
  12:..\u8g2-master\csrc/u8x8_byte.c **** 
  13:..\u8g2-master\csrc/u8x8_byte.c ****   * Redistributions of source code must retain the above copyright notice, this list 
  14:..\u8g2-master\csrc/u8x8_byte.c ****     of conditions and the following disclaimer.
  15:..\u8g2-master\csrc/u8x8_byte.c ****     
  16:..\u8g2-master\csrc/u8x8_byte.c ****   * Redistributions in binary form must reproduce the above copyright notice, this 
  17:..\u8g2-master\csrc/u8x8_byte.c ****     list of conditions and the following disclaimer in the documentation and/or other 
  18:..\u8g2-master\csrc/u8x8_byte.c ****     materials provided with the distribution.
  19:..\u8g2-master\csrc/u8x8_byte.c **** 
  20:..\u8g2-master\csrc/u8x8_byte.c ****   THIS SOFTWARE IS PROVIDED BY THE COPYRIGHT HOLDERS AND 
  21:..\u8g2-master\csrc/u8x8_byte.c ****   CONTRIBUTORS "AS IS" AND ANY EXPRESS OR IMPLIED WARRANTIES, 
  22:..\u8g2-master\csrc/u8x8_byte.c ****   INCLUDING, BUT NOT LIMITED TO, THE IMPLIED WARRANTIES OF 
  23:..\u8g2-master\csrc/u8x8_byte.c ****   MERCHANTABILITY AND FITNESS FOR A PARTICULAR PURPOSE ARE 
  24:..\u8g2-master\csrc/u8x8_byte.c ****   DISCLAIMED. IN NO EVENT SHALL THE COPYRIGHT HOLDER OR 
  25:..\u8g2-master\csrc/u8x8_byte.c ****   CONTRIBUTORS BE LIABLE FOR ANY DIRECT, INDIRECT, INCIDENTAL, 
  26:..\u8g2-master\csrc/u8x8_byte.c ****   SPECIAL, EXEMPLARY, OR CONSEQUENTIAL DAMAGES (INCLUDING, BUT 
  27:..\u8g2-master\csrc/u8x8_byte.c ****   NOT LIMITED TO, PROCUREMENT OF SUBSTITUTE GOODS OR SERVICES; 
  28:..\u8g2-master\csrc/u8x8_byte.c ****   LOSS OF USE, DATA, OR PROFITS; OR BUSINESS INTERRUPTION) HOWEVER 
  29:..\u8g2-master\csrc/u8x8_byte.c ****   CAUSED AND ON ANY THEORY OF LIABILITY, WHETHER IN CONTRACT, 
  30:..\u8g2-master\csrc/u8x8_byte.c ****   STRICT LIABILITY, OR TORT (INCLUDING NEGLIGENCE OR OTHERWISE) 
  31:..\u8g2-master\csrc/u8x8_byte.c ****   ARISING IN ANY WAY OUT OF THE USE OF THIS SOFTWARE, EVEN IF 
ARM GAS  C:\Users\info\AppData\Local\Temp\ccAWUQ53.s 			page 2


  32:..\u8g2-master\csrc/u8x8_byte.c ****   ADVISED OF THE POSSIBILITY OF SUCH DAMAGE.  
  33:..\u8g2-master\csrc/u8x8_byte.c ****   
  34:..\u8g2-master\csrc/u8x8_byte.c ****   
  35:..\u8g2-master\csrc/u8x8_byte.c **** */
  36:..\u8g2-master\csrc/u8x8_byte.c **** 
  37:..\u8g2-master\csrc/u8x8_byte.c **** #include "u8x8.h"
  38:..\u8g2-master\csrc/u8x8_byte.c **** 
  39:..\u8g2-master\csrc/u8x8_byte.c **** uint8_t u8x8_byte_SetDC(u8x8_t *u8x8, uint8_t dc)
  40:..\u8g2-master\csrc/u8x8_byte.c **** {
  41:..\u8g2-master\csrc/u8x8_byte.c ****   return u8x8->byte_cb(u8x8, U8X8_MSG_BYTE_SET_DC, dc, NULL);
  42:..\u8g2-master\csrc/u8x8_byte.c **** }
  43:..\u8g2-master\csrc/u8x8_byte.c **** 
  44:..\u8g2-master\csrc/u8x8_byte.c **** uint8_t u8x8_byte_SendBytes(u8x8_t *u8x8, uint8_t cnt, uint8_t *data)
  45:..\u8g2-master\csrc/u8x8_byte.c **** {
  46:..\u8g2-master\csrc/u8x8_byte.c ****   return u8x8->byte_cb(u8x8, U8X8_MSG_BYTE_SEND, cnt, (void *)data);
  47:..\u8g2-master\csrc/u8x8_byte.c **** }
  48:..\u8g2-master\csrc/u8x8_byte.c **** 
  49:..\u8g2-master\csrc/u8x8_byte.c **** uint8_t u8x8_byte_SendByte(u8x8_t *u8x8, uint8_t byte)
  50:..\u8g2-master\csrc/u8x8_byte.c **** {
  51:..\u8g2-master\csrc/u8x8_byte.c ****   return u8x8_byte_SendBytes(u8x8, 1, &byte);
  52:..\u8g2-master\csrc/u8x8_byte.c **** }
  53:..\u8g2-master\csrc/u8x8_byte.c **** 
  54:..\u8g2-master\csrc/u8x8_byte.c **** uint8_t u8x8_byte_StartTransfer(u8x8_t *u8x8)
  55:..\u8g2-master\csrc/u8x8_byte.c **** {
  56:..\u8g2-master\csrc/u8x8_byte.c ****   return u8x8->byte_cb(u8x8, U8X8_MSG_BYTE_START_TRANSFER, 0, NULL);
  57:..\u8g2-master\csrc/u8x8_byte.c **** }
  58:..\u8g2-master\csrc/u8x8_byte.c **** 
  59:..\u8g2-master\csrc/u8x8_byte.c **** uint8_t u8x8_byte_EndTransfer(u8x8_t *u8x8)
  60:..\u8g2-master\csrc/u8x8_byte.c **** {
  61:..\u8g2-master\csrc/u8x8_byte.c ****   return u8x8->byte_cb(u8x8, U8X8_MSG_BYTE_END_TRANSFER, 0, NULL);
  62:..\u8g2-master\csrc/u8x8_byte.c **** }
  63:..\u8g2-master\csrc/u8x8_byte.c **** 
  64:..\u8g2-master\csrc/u8x8_byte.c **** /*=========================================*/
  65:..\u8g2-master\csrc/u8x8_byte.c **** 
  66:..\u8g2-master\csrc/u8x8_byte.c **** uint8_t u8x8_byte_empty(U8X8_UNUSED u8x8_t *u8x8, uint8_t msg, U8X8_UNUSED uint8_t arg_int, U8X8_UN
  67:..\u8g2-master\csrc/u8x8_byte.c **** {
  68:..\u8g2-master\csrc/u8x8_byte.c ****   switch(msg)
  69:..\u8g2-master\csrc/u8x8_byte.c ****   {
  70:..\u8g2-master\csrc/u8x8_byte.c ****     case U8X8_MSG_BYTE_SEND:
  71:..\u8g2-master\csrc/u8x8_byte.c ****     case U8X8_MSG_BYTE_INIT:
  72:..\u8g2-master\csrc/u8x8_byte.c ****     case U8X8_MSG_BYTE_SET_DC:
  73:..\u8g2-master\csrc/u8x8_byte.c ****     case U8X8_MSG_BYTE_START_TRANSFER:
  74:..\u8g2-master\csrc/u8x8_byte.c ****     case U8X8_MSG_BYTE_END_TRANSFER:
  75:..\u8g2-master\csrc/u8x8_byte.c ****       break;	/* do nothing */
  76:..\u8g2-master\csrc/u8x8_byte.c ****   }
  77:..\u8g2-master\csrc/u8x8_byte.c ****   return 1;	/* always succeed */
  78:..\u8g2-master\csrc/u8x8_byte.c **** }
  79:..\u8g2-master\csrc/u8x8_byte.c **** 
  80:..\u8g2-master\csrc/u8x8_byte.c **** 
  81:..\u8g2-master\csrc/u8x8_byte.c **** /*=========================================*/
  82:..\u8g2-master\csrc/u8x8_byte.c **** 
  83:..\u8g2-master\csrc/u8x8_byte.c **** 
  84:..\u8g2-master\csrc/u8x8_byte.c **** /*
  85:..\u8g2-master\csrc/u8x8_byte.c ****   Uses:
  86:..\u8g2-master\csrc/u8x8_byte.c ****     u8x8->display_info->sda_setup_time_ns
  87:..\u8g2-master\csrc/u8x8_byte.c ****     u8x8->display_info->sck_pulse_width_ns
  88:..\u8g2-master\csrc/u8x8_byte.c ****     u8x8->display_info->spi_mode
ARM GAS  C:\Users\info\AppData\Local\Temp\ccAWUQ53.s 			page 3


  89:..\u8g2-master\csrc/u8x8_byte.c ****     u8x8->display_info->chip_disable_level
  90:..\u8g2-master\csrc/u8x8_byte.c ****     u8x8->display_info->chip_enable_level
  91:..\u8g2-master\csrc/u8x8_byte.c ****     u8x8->display_info->post_chip_enable_wait_ns
  92:..\u8g2-master\csrc/u8x8_byte.c ****     u8x8->display_info->pre_chip_disable_wait_ns
  93:..\u8g2-master\csrc/u8x8_byte.c ****   Calls to GPIO and DELAY:
  94:..\u8g2-master\csrc/u8x8_byte.c ****     U8X8_MSG_DELAY_NANO
  95:..\u8g2-master\csrc/u8x8_byte.c ****     U8X8_MSG_GPIO_DC
  96:..\u8g2-master\csrc/u8x8_byte.c ****     U8X8_MSG_GPIO_CS
  97:..\u8g2-master\csrc/u8x8_byte.c ****     U8X8_MSG_GPIO_CLOCK
  98:..\u8g2-master\csrc/u8x8_byte.c ****     U8X8_MSG_GPIO_DATA
  99:..\u8g2-master\csrc/u8x8_byte.c ****   Handles:
 100:..\u8g2-master\csrc/u8x8_byte.c ****     U8X8_MSG_BYTE_INIT
 101:..\u8g2-master\csrc/u8x8_byte.c ****     U8X8_MSG_BYTE_SEND
 102:..\u8g2-master\csrc/u8x8_byte.c ****     U8X8_MSG_BYTE_SET_DC
 103:..\u8g2-master\csrc/u8x8_byte.c ****     U8X8_MSG_BYTE_START_TRANSFER
 104:..\u8g2-master\csrc/u8x8_byte.c ****     U8X8_MSG_BYTE_END_TRANSFER
 105:..\u8g2-master\csrc/u8x8_byte.c **** */
 106:..\u8g2-master\csrc/u8x8_byte.c **** 
 107:..\u8g2-master\csrc/u8x8_byte.c **** uint8_t u8x8_byte_4wire_sw_spi(u8x8_t *u8x8, uint8_t msg, uint8_t arg_int, void *arg_ptr)
 108:..\u8g2-master\csrc/u8x8_byte.c **** {
 109:..\u8g2-master\csrc/u8x8_byte.c ****   uint8_t i, b;
 110:..\u8g2-master\csrc/u8x8_byte.c ****   uint8_t *data;
 111:..\u8g2-master\csrc/u8x8_byte.c ****   uint8_t takeover_edge = u8x8_GetSPIClockPhase(u8x8);
 112:..\u8g2-master\csrc/u8x8_byte.c ****   uint8_t not_takeover_edge = 1 - takeover_edge;
 113:..\u8g2-master\csrc/u8x8_byte.c ****  
 114:..\u8g2-master\csrc/u8x8_byte.c ****   switch(msg)
 115:..\u8g2-master\csrc/u8x8_byte.c ****   {
 116:..\u8g2-master\csrc/u8x8_byte.c ****     case U8X8_MSG_BYTE_SEND:
 117:..\u8g2-master\csrc/u8x8_byte.c ****       data = (uint8_t *)arg_ptr;
 118:..\u8g2-master\csrc/u8x8_byte.c ****       while( arg_int > 0 )
 119:..\u8g2-master\csrc/u8x8_byte.c ****       {
 120:..\u8g2-master\csrc/u8x8_byte.c **** 	b = *data;
 121:..\u8g2-master\csrc/u8x8_byte.c **** 	data++;
 122:..\u8g2-master\csrc/u8x8_byte.c **** 	arg_int--;
 123:..\u8g2-master\csrc/u8x8_byte.c **** 	for( i = 0; i < 8; i++ )
 124:..\u8g2-master\csrc/u8x8_byte.c **** 	{
 125:..\u8g2-master\csrc/u8x8_byte.c **** 	  if ( b & 128 )
 126:..\u8g2-master\csrc/u8x8_byte.c **** 	    u8x8_gpio_SetSPIData(u8x8, 1);
 127:..\u8g2-master\csrc/u8x8_byte.c **** 	  else
 128:..\u8g2-master\csrc/u8x8_byte.c **** 	    u8x8_gpio_SetSPIData(u8x8, 0);
 129:..\u8g2-master\csrc/u8x8_byte.c **** 	  b <<= 1;
 130:..\u8g2-master\csrc/u8x8_byte.c **** 	  
 131:..\u8g2-master\csrc/u8x8_byte.c **** 	  u8x8_gpio_SetSPIClock(u8x8, not_takeover_edge);
 132:..\u8g2-master\csrc/u8x8_byte.c **** 	  u8x8_gpio_Delay(u8x8, U8X8_MSG_DELAY_NANO, u8x8->display_info->sda_setup_time_ns);
 133:..\u8g2-master\csrc/u8x8_byte.c **** 	  u8x8_gpio_SetSPIClock(u8x8, takeover_edge);
 134:..\u8g2-master\csrc/u8x8_byte.c **** 	  u8x8_gpio_Delay(u8x8, U8X8_MSG_DELAY_NANO, u8x8->display_info->sck_pulse_width_ns);
 135:..\u8g2-master\csrc/u8x8_byte.c **** 	}    
 136:..\u8g2-master\csrc/u8x8_byte.c ****       }
 137:..\u8g2-master\csrc/u8x8_byte.c ****       break;
 138:..\u8g2-master\csrc/u8x8_byte.c ****       
 139:..\u8g2-master\csrc/u8x8_byte.c ****     case U8X8_MSG_BYTE_INIT:
 140:..\u8g2-master\csrc/u8x8_byte.c ****       /* disable chipselect */
 141:..\u8g2-master\csrc/u8x8_byte.c ****       u8x8_gpio_SetCS(u8x8, u8x8->display_info->chip_disable_level);
 142:..\u8g2-master\csrc/u8x8_byte.c ****       /* no wait required here */
 143:..\u8g2-master\csrc/u8x8_byte.c ****       
 144:..\u8g2-master\csrc/u8x8_byte.c ****       /* for SPI: setup correct level of the clock signal */
 145:..\u8g2-master\csrc/u8x8_byte.c ****       u8x8_gpio_SetSPIClock(u8x8, u8x8_GetSPIClockPhase(u8x8));
ARM GAS  C:\Users\info\AppData\Local\Temp\ccAWUQ53.s 			page 4


 146:..\u8g2-master\csrc/u8x8_byte.c ****       break;
 147:..\u8g2-master\csrc/u8x8_byte.c ****     case U8X8_MSG_BYTE_SET_DC:
 148:..\u8g2-master\csrc/u8x8_byte.c ****       u8x8_gpio_SetDC(u8x8, arg_int);
 149:..\u8g2-master\csrc/u8x8_byte.c ****       break;
 150:..\u8g2-master\csrc/u8x8_byte.c ****     case U8X8_MSG_BYTE_START_TRANSFER:
 151:..\u8g2-master\csrc/u8x8_byte.c ****       u8x8_gpio_SetCS(u8x8, u8x8->display_info->chip_enable_level);  
 152:..\u8g2-master\csrc/u8x8_byte.c ****       u8x8->gpio_and_delay_cb(u8x8, U8X8_MSG_DELAY_NANO, u8x8->display_info->post_chip_enable_wait_
 153:..\u8g2-master\csrc/u8x8_byte.c ****       break;
 154:..\u8g2-master\csrc/u8x8_byte.c ****     case U8X8_MSG_BYTE_END_TRANSFER:
 155:..\u8g2-master\csrc/u8x8_byte.c ****       u8x8->gpio_and_delay_cb(u8x8, U8X8_MSG_DELAY_NANO, u8x8->display_info->pre_chip_disable_wait_
 156:..\u8g2-master\csrc/u8x8_byte.c ****       u8x8_gpio_SetCS(u8x8, u8x8->display_info->chip_disable_level);
 157:..\u8g2-master\csrc/u8x8_byte.c ****       break;
 158:..\u8g2-master\csrc/u8x8_byte.c ****     default:
 159:..\u8g2-master\csrc/u8x8_byte.c ****       return 0;
 160:..\u8g2-master\csrc/u8x8_byte.c ****   }
 161:..\u8g2-master\csrc/u8x8_byte.c ****   return 1;
 162:..\u8g2-master\csrc/u8x8_byte.c **** }
 163:..\u8g2-master\csrc/u8x8_byte.c **** 
 164:..\u8g2-master\csrc/u8x8_byte.c **** /*=========================================*/
 165:..\u8g2-master\csrc/u8x8_byte.c **** 
 166:..\u8g2-master\csrc/u8x8_byte.c **** uint8_t u8x8_byte_8bit_6800mode(u8x8_t *u8x8, uint8_t msg, uint8_t arg_int, void *arg_ptr)
 167:..\u8g2-master\csrc/u8x8_byte.c **** {
 168:..\u8g2-master\csrc/u8x8_byte.c ****   uint8_t i, b;
 169:..\u8g2-master\csrc/u8x8_byte.c ****   uint8_t *data;
 170:..\u8g2-master\csrc/u8x8_byte.c ****  
 171:..\u8g2-master\csrc/u8x8_byte.c ****   switch(msg)
 172:..\u8g2-master\csrc/u8x8_byte.c ****   {
 173:..\u8g2-master\csrc/u8x8_byte.c ****     case U8X8_MSG_BYTE_SEND:
 174:..\u8g2-master\csrc/u8x8_byte.c ****       data = (uint8_t *)arg_ptr;
 175:..\u8g2-master\csrc/u8x8_byte.c ****       while( arg_int > 0 )
 176:..\u8g2-master\csrc/u8x8_byte.c ****       {
 177:..\u8g2-master\csrc/u8x8_byte.c **** 	b = *data;
 178:..\u8g2-master\csrc/u8x8_byte.c **** 	data++;
 179:..\u8g2-master\csrc/u8x8_byte.c **** 	arg_int--;
 180:..\u8g2-master\csrc/u8x8_byte.c **** 	for( i = U8X8_MSG_GPIO_D0; i <= U8X8_MSG_GPIO_D7; i++ )
 181:..\u8g2-master\csrc/u8x8_byte.c **** 	{
 182:..\u8g2-master\csrc/u8x8_byte.c **** 	  u8x8_gpio_call(u8x8, i, b&1);
 183:..\u8g2-master\csrc/u8x8_byte.c **** 	  b >>= 1;
 184:..\u8g2-master\csrc/u8x8_byte.c **** 	}    
 185:..\u8g2-master\csrc/u8x8_byte.c **** 	
 186:..\u8g2-master\csrc/u8x8_byte.c **** 	u8x8_gpio_Delay(u8x8, U8X8_MSG_DELAY_NANO, u8x8->display_info->data_setup_time_ns);
 187:..\u8g2-master\csrc/u8x8_byte.c **** 	u8x8_gpio_call(u8x8, U8X8_MSG_GPIO_E, 1);
 188:..\u8g2-master\csrc/u8x8_byte.c **** 	u8x8_gpio_Delay(u8x8, U8X8_MSG_DELAY_NANO, u8x8->display_info->write_pulse_width_ns);
 189:..\u8g2-master\csrc/u8x8_byte.c **** 	u8x8_gpio_call(u8x8, U8X8_MSG_GPIO_E, 0);
 190:..\u8g2-master\csrc/u8x8_byte.c ****       }
 191:..\u8g2-master\csrc/u8x8_byte.c ****       break;
 192:..\u8g2-master\csrc/u8x8_byte.c ****       
 193:..\u8g2-master\csrc/u8x8_byte.c ****     case U8X8_MSG_BYTE_INIT:
 194:..\u8g2-master\csrc/u8x8_byte.c ****       /* disable chipselect */
 195:..\u8g2-master\csrc/u8x8_byte.c ****       u8x8_gpio_SetCS(u8x8, u8x8->display_info->chip_disable_level);    
 196:..\u8g2-master\csrc/u8x8_byte.c ****       /* ensure that the enable signal is high */
 197:..\u8g2-master\csrc/u8x8_byte.c ****       u8x8_gpio_call(u8x8, U8X8_MSG_GPIO_E, 0);
 198:..\u8g2-master\csrc/u8x8_byte.c ****       break;
 199:..\u8g2-master\csrc/u8x8_byte.c ****     case U8X8_MSG_BYTE_SET_DC:
 200:..\u8g2-master\csrc/u8x8_byte.c ****       u8x8_gpio_SetDC(u8x8, arg_int);
 201:..\u8g2-master\csrc/u8x8_byte.c ****       break;
 202:..\u8g2-master\csrc/u8x8_byte.c ****     case U8X8_MSG_BYTE_START_TRANSFER:
ARM GAS  C:\Users\info\AppData\Local\Temp\ccAWUQ53.s 			page 5


 203:..\u8g2-master\csrc/u8x8_byte.c ****       u8x8_gpio_SetCS(u8x8, u8x8->display_info->chip_enable_level);  
 204:..\u8g2-master\csrc/u8x8_byte.c ****       u8x8->gpio_and_delay_cb(u8x8, U8X8_MSG_DELAY_NANO, u8x8->display_info->post_chip_enable_wait_
 205:..\u8g2-master\csrc/u8x8_byte.c ****       break;
 206:..\u8g2-master\csrc/u8x8_byte.c ****     case U8X8_MSG_BYTE_END_TRANSFER:
 207:..\u8g2-master\csrc/u8x8_byte.c ****       u8x8->gpio_and_delay_cb(u8x8, U8X8_MSG_DELAY_NANO, u8x8->display_info->pre_chip_disable_wait_
 208:..\u8g2-master\csrc/u8x8_byte.c ****       u8x8_gpio_SetCS(u8x8, u8x8->display_info->chip_disable_level);
 209:..\u8g2-master\csrc/u8x8_byte.c ****       break;
 210:..\u8g2-master\csrc/u8x8_byte.c ****     default:
 211:..\u8g2-master\csrc/u8x8_byte.c ****       return 0;
 212:..\u8g2-master\csrc/u8x8_byte.c ****   }
 213:..\u8g2-master\csrc/u8x8_byte.c ****   return 1;
 214:..\u8g2-master\csrc/u8x8_byte.c **** }
 215:..\u8g2-master\csrc/u8x8_byte.c **** 
 216:..\u8g2-master\csrc/u8x8_byte.c **** uint8_t u8x8_byte_8bit_8080mode(u8x8_t *u8x8, uint8_t msg, uint8_t arg_int, void *arg_ptr)
 217:..\u8g2-master\csrc/u8x8_byte.c **** {
 218:..\u8g2-master\csrc/u8x8_byte.c ****   uint8_t i, b;
 219:..\u8g2-master\csrc/u8x8_byte.c ****   uint8_t *data;
 220:..\u8g2-master\csrc/u8x8_byte.c ****  
 221:..\u8g2-master\csrc/u8x8_byte.c ****   switch(msg)
 222:..\u8g2-master\csrc/u8x8_byte.c ****   {
 223:..\u8g2-master\csrc/u8x8_byte.c ****     case U8X8_MSG_BYTE_SEND:
 224:..\u8g2-master\csrc/u8x8_byte.c ****       data = (uint8_t *)arg_ptr;
 225:..\u8g2-master\csrc/u8x8_byte.c ****       while( arg_int > 0 )
 226:..\u8g2-master\csrc/u8x8_byte.c ****       {
 227:..\u8g2-master\csrc/u8x8_byte.c **** 	b = *data;
 228:..\u8g2-master\csrc/u8x8_byte.c **** 	data++;
 229:..\u8g2-master\csrc/u8x8_byte.c **** 	arg_int--;
 230:..\u8g2-master\csrc/u8x8_byte.c **** 	for( i = U8X8_MSG_GPIO_D0; i <= U8X8_MSG_GPIO_D7; i++ )
 231:..\u8g2-master\csrc/u8x8_byte.c **** 	{
 232:..\u8g2-master\csrc/u8x8_byte.c **** 	  u8x8_gpio_call(u8x8, i, b&1);
 233:..\u8g2-master\csrc/u8x8_byte.c **** 	  b >>= 1;
 234:..\u8g2-master\csrc/u8x8_byte.c **** 	}    
 235:..\u8g2-master\csrc/u8x8_byte.c **** 	
 236:..\u8g2-master\csrc/u8x8_byte.c **** 	u8x8_gpio_Delay(u8x8, U8X8_MSG_DELAY_NANO, u8x8->display_info->data_setup_time_ns);
 237:..\u8g2-master\csrc/u8x8_byte.c **** 	u8x8_gpio_call(u8x8, U8X8_MSG_GPIO_E, 0);
 238:..\u8g2-master\csrc/u8x8_byte.c **** 	u8x8_gpio_Delay(u8x8, U8X8_MSG_DELAY_NANO, u8x8->display_info->write_pulse_width_ns);
 239:..\u8g2-master\csrc/u8x8_byte.c **** 	u8x8_gpio_call(u8x8, U8X8_MSG_GPIO_E, 1);
 240:..\u8g2-master\csrc/u8x8_byte.c ****       }
 241:..\u8g2-master\csrc/u8x8_byte.c ****       break;
 242:..\u8g2-master\csrc/u8x8_byte.c ****       
 243:..\u8g2-master\csrc/u8x8_byte.c ****     case U8X8_MSG_BYTE_INIT:
 244:..\u8g2-master\csrc/u8x8_byte.c ****       /* disable chipselect */
 245:..\u8g2-master\csrc/u8x8_byte.c ****       u8x8_gpio_SetCS(u8x8, u8x8->display_info->chip_disable_level);    
 246:..\u8g2-master\csrc/u8x8_byte.c ****       /* ensure that the enable signal is high */
 247:..\u8g2-master\csrc/u8x8_byte.c ****       u8x8_gpio_call(u8x8, U8X8_MSG_GPIO_E, 1);
 248:..\u8g2-master\csrc/u8x8_byte.c ****       break;
 249:..\u8g2-master\csrc/u8x8_byte.c ****     case U8X8_MSG_BYTE_SET_DC:
 250:..\u8g2-master\csrc/u8x8_byte.c ****       u8x8_gpio_SetDC(u8x8, arg_int);
 251:..\u8g2-master\csrc/u8x8_byte.c ****       break;
 252:..\u8g2-master\csrc/u8x8_byte.c ****     case U8X8_MSG_BYTE_START_TRANSFER:
 253:..\u8g2-master\csrc/u8x8_byte.c ****       u8x8_gpio_SetCS(u8x8, u8x8->display_info->chip_enable_level);  
 254:..\u8g2-master\csrc/u8x8_byte.c ****       u8x8->gpio_and_delay_cb(u8x8, U8X8_MSG_DELAY_NANO, u8x8->display_info->post_chip_enable_wait_
 255:..\u8g2-master\csrc/u8x8_byte.c ****       break;
 256:..\u8g2-master\csrc/u8x8_byte.c ****     case U8X8_MSG_BYTE_END_TRANSFER:
 257:..\u8g2-master\csrc/u8x8_byte.c ****       u8x8->gpio_and_delay_cb(u8x8, U8X8_MSG_DELAY_NANO, u8x8->display_info->pre_chip_disable_wait_
 258:..\u8g2-master\csrc/u8x8_byte.c ****       u8x8_gpio_SetCS(u8x8, u8x8->display_info->chip_disable_level);
 259:..\u8g2-master\csrc/u8x8_byte.c ****       break;
ARM GAS  C:\Users\info\AppData\Local\Temp\ccAWUQ53.s 			page 6


 260:..\u8g2-master\csrc/u8x8_byte.c ****     default:
 261:..\u8g2-master\csrc/u8x8_byte.c ****       return 0;
 262:..\u8g2-master\csrc/u8x8_byte.c ****   }
 263:..\u8g2-master\csrc/u8x8_byte.c ****   return 1;
 264:..\u8g2-master\csrc/u8x8_byte.c **** }
 265:..\u8g2-master\csrc/u8x8_byte.c **** 
 266:..\u8g2-master\csrc/u8x8_byte.c **** /*=========================================*/
 267:..\u8g2-master\csrc/u8x8_byte.c **** 
 268:..\u8g2-master\csrc/u8x8_byte.c **** uint8_t u8x8_byte_3wire_sw_spi(u8x8_t *u8x8, uint8_t msg, uint8_t arg_int, void *arg_ptr)
 269:..\u8g2-master\csrc/u8x8_byte.c **** {
 270:..\u8g2-master\csrc/u8x8_byte.c ****   uint8_t i;
 271:..\u8g2-master\csrc/u8x8_byte.c ****   uint8_t *data;
 272:..\u8g2-master\csrc/u8x8_byte.c ****   uint8_t takeover_edge = u8x8_GetSPIClockPhase(u8x8);
 273:..\u8g2-master\csrc/u8x8_byte.c ****   uint8_t not_takeover_edge = 1 - takeover_edge;
 274:..\u8g2-master\csrc/u8x8_byte.c ****   uint16_t b;
 275:..\u8g2-master\csrc/u8x8_byte.c ****   static uint8_t last_dc;
 276:..\u8g2-master\csrc/u8x8_byte.c ****  
 277:..\u8g2-master\csrc/u8x8_byte.c ****   switch(msg)
 278:..\u8g2-master\csrc/u8x8_byte.c ****   {
 279:..\u8g2-master\csrc/u8x8_byte.c ****     case U8X8_MSG_BYTE_SEND:
 280:..\u8g2-master\csrc/u8x8_byte.c ****       data = (uint8_t *)arg_ptr;
 281:..\u8g2-master\csrc/u8x8_byte.c ****       while( arg_int > 0 )
 282:..\u8g2-master\csrc/u8x8_byte.c ****       {
 283:..\u8g2-master\csrc/u8x8_byte.c **** 	b = *data;
 284:..\u8g2-master\csrc/u8x8_byte.c **** 	if ( last_dc != 0 )
 285:..\u8g2-master\csrc/u8x8_byte.c **** 	  b |= 256;
 286:..\u8g2-master\csrc/u8x8_byte.c **** 	data++;
 287:..\u8g2-master\csrc/u8x8_byte.c **** 	arg_int--;
 288:..\u8g2-master\csrc/u8x8_byte.c **** 	for( i = 0; i < 9; i++ )
 289:..\u8g2-master\csrc/u8x8_byte.c **** 	{
 290:..\u8g2-master\csrc/u8x8_byte.c **** 	  if ( b & 256 )
 291:..\u8g2-master\csrc/u8x8_byte.c **** 	    u8x8_gpio_SetSPIData(u8x8, 1);
 292:..\u8g2-master\csrc/u8x8_byte.c **** 	  else
 293:..\u8g2-master\csrc/u8x8_byte.c **** 	    u8x8_gpio_SetSPIData(u8x8, 0);
 294:..\u8g2-master\csrc/u8x8_byte.c **** 	  b <<= 1;
 295:..\u8g2-master\csrc/u8x8_byte.c **** 	  
 296:..\u8g2-master\csrc/u8x8_byte.c **** 	  u8x8_gpio_SetSPIClock(u8x8, not_takeover_edge);
 297:..\u8g2-master\csrc/u8x8_byte.c **** 	  u8x8_gpio_Delay(u8x8, U8X8_MSG_DELAY_NANO, u8x8->display_info->sda_setup_time_ns);
 298:..\u8g2-master\csrc/u8x8_byte.c **** 	  u8x8_gpio_SetSPIClock(u8x8, takeover_edge);
 299:..\u8g2-master\csrc/u8x8_byte.c **** 	  u8x8_gpio_Delay(u8x8, U8X8_MSG_DELAY_NANO, u8x8->display_info->sck_pulse_width_ns);
 300:..\u8g2-master\csrc/u8x8_byte.c **** 	}    
 301:..\u8g2-master\csrc/u8x8_byte.c ****       }
 302:..\u8g2-master\csrc/u8x8_byte.c ****       break;
 303:..\u8g2-master\csrc/u8x8_byte.c ****       
 304:..\u8g2-master\csrc/u8x8_byte.c ****     case U8X8_MSG_BYTE_INIT:
 305:..\u8g2-master\csrc/u8x8_byte.c ****       /* disable chipselect */
 306:..\u8g2-master\csrc/u8x8_byte.c ****       u8x8_gpio_SetCS(u8x8, u8x8->display_info->chip_disable_level);
 307:..\u8g2-master\csrc/u8x8_byte.c ****       /* no wait required here */
 308:..\u8g2-master\csrc/u8x8_byte.c ****       
 309:..\u8g2-master\csrc/u8x8_byte.c ****       /* for SPI: setup correct level of the clock signal */
 310:..\u8g2-master\csrc/u8x8_byte.c ****       u8x8_gpio_SetSPIClock(u8x8, u8x8_GetSPIClockPhase(u8x8));
 311:..\u8g2-master\csrc/u8x8_byte.c ****       break;
 312:..\u8g2-master\csrc/u8x8_byte.c ****     case U8X8_MSG_BYTE_SET_DC:
 313:..\u8g2-master\csrc/u8x8_byte.c ****       last_dc = arg_int;
 314:..\u8g2-master\csrc/u8x8_byte.c ****       break;
 315:..\u8g2-master\csrc/u8x8_byte.c ****     case U8X8_MSG_BYTE_START_TRANSFER:
 316:..\u8g2-master\csrc/u8x8_byte.c ****       u8x8_gpio_SetCS(u8x8, u8x8->display_info->chip_enable_level);  
ARM GAS  C:\Users\info\AppData\Local\Temp\ccAWUQ53.s 			page 7


 317:..\u8g2-master\csrc/u8x8_byte.c ****       u8x8->gpio_and_delay_cb(u8x8, U8X8_MSG_DELAY_NANO, u8x8->display_info->post_chip_enable_wait_
 318:..\u8g2-master\csrc/u8x8_byte.c ****       break;
 319:..\u8g2-master\csrc/u8x8_byte.c ****     case U8X8_MSG_BYTE_END_TRANSFER:
 320:..\u8g2-master\csrc/u8x8_byte.c ****       u8x8->gpio_and_delay_cb(u8x8, U8X8_MSG_DELAY_NANO, u8x8->display_info->pre_chip_disable_wait_
 321:..\u8g2-master\csrc/u8x8_byte.c ****       u8x8_gpio_SetCS(u8x8, u8x8->display_info->chip_disable_level);
 322:..\u8g2-master\csrc/u8x8_byte.c ****       break;
 323:..\u8g2-master\csrc/u8x8_byte.c ****     default:
 324:..\u8g2-master\csrc/u8x8_byte.c ****       return 0;
 325:..\u8g2-master\csrc/u8x8_byte.c ****   }
 326:..\u8g2-master\csrc/u8x8_byte.c ****   return 1;
 327:..\u8g2-master\csrc/u8x8_byte.c **** }
 328:..\u8g2-master\csrc/u8x8_byte.c **** 
 329:..\u8g2-master\csrc/u8x8_byte.c **** /*=========================================*/
 330:..\u8g2-master\csrc/u8x8_byte.c **** 
 331:..\u8g2-master\csrc/u8x8_byte.c **** void u8x8_byte_set_ks0108_cs(u8x8_t *u8x8, uint8_t arg)
 332:..\u8g2-master\csrc/u8x8_byte.c **** {
 333:..\u8g2-master\csrc/u8x8_byte.c ****   u8x8_gpio_SetCS(u8x8, arg&1);
 334:..\u8g2-master\csrc/u8x8_byte.c ****   arg = arg >> 1;
 335:..\u8g2-master\csrc/u8x8_byte.c ****   u8x8_gpio_call(u8x8, U8X8_MSG_GPIO_CS1, arg&1);
 336:..\u8g2-master\csrc/u8x8_byte.c ****   arg = arg >> 1;
 337:..\u8g2-master\csrc/u8x8_byte.c ****   u8x8_gpio_call(u8x8, U8X8_MSG_GPIO_CS2, arg&1);
 338:..\u8g2-master\csrc/u8x8_byte.c **** }
 339:..\u8g2-master\csrc/u8x8_byte.c **** 
 340:..\u8g2-master\csrc/u8x8_byte.c **** /* 6800 mode */
 341:..\u8g2-master\csrc/u8x8_byte.c **** uint8_t u8x8_byte_ks0108(u8x8_t *u8x8, uint8_t msg, uint8_t arg_int, void *arg_ptr)
 342:..\u8g2-master\csrc/u8x8_byte.c **** {
 343:..\u8g2-master\csrc/u8x8_byte.c ****   uint8_t i, b;
 344:..\u8g2-master\csrc/u8x8_byte.c ****   uint8_t *data;
 345:..\u8g2-master\csrc/u8x8_byte.c ****  
 346:..\u8g2-master\csrc/u8x8_byte.c ****   switch(msg)
 347:..\u8g2-master\csrc/u8x8_byte.c ****   {
 348:..\u8g2-master\csrc/u8x8_byte.c ****     case U8X8_MSG_BYTE_SEND:
 349:..\u8g2-master\csrc/u8x8_byte.c ****       data = (uint8_t *)arg_ptr;
 350:..\u8g2-master\csrc/u8x8_byte.c ****       while( arg_int > 0 )
 351:..\u8g2-master\csrc/u8x8_byte.c ****       {
 352:..\u8g2-master\csrc/u8x8_byte.c **** 	b = *data;
 353:..\u8g2-master\csrc/u8x8_byte.c **** 	data++;
 354:..\u8g2-master\csrc/u8x8_byte.c **** 	arg_int--;
 355:..\u8g2-master\csrc/u8x8_byte.c **** 	for( i = U8X8_MSG_GPIO_D0; i <= U8X8_MSG_GPIO_D7; i++ )
 356:..\u8g2-master\csrc/u8x8_byte.c **** 	{
 357:..\u8g2-master\csrc/u8x8_byte.c **** 	  u8x8_gpio_call(u8x8, i, b&1);
 358:..\u8g2-master\csrc/u8x8_byte.c **** 	  b >>= 1;
 359:..\u8g2-master\csrc/u8x8_byte.c **** 	}    
 360:..\u8g2-master\csrc/u8x8_byte.c **** 	
 361:..\u8g2-master\csrc/u8x8_byte.c **** 	u8x8_gpio_Delay(u8x8, U8X8_MSG_DELAY_NANO, u8x8->display_info->data_setup_time_ns);
 362:..\u8g2-master\csrc/u8x8_byte.c **** 	u8x8_gpio_call(u8x8, U8X8_MSG_GPIO_E, 1);
 363:..\u8g2-master\csrc/u8x8_byte.c **** 	u8x8_gpio_Delay(u8x8, U8X8_MSG_DELAY_NANO, u8x8->display_info->write_pulse_width_ns);
 364:..\u8g2-master\csrc/u8x8_byte.c **** 	u8x8_gpio_call(u8x8, U8X8_MSG_GPIO_E, 0);
 365:..\u8g2-master\csrc/u8x8_byte.c ****       }
 366:..\u8g2-master\csrc/u8x8_byte.c ****       break;
 367:..\u8g2-master\csrc/u8x8_byte.c ****       
 368:..\u8g2-master\csrc/u8x8_byte.c ****     case U8X8_MSG_BYTE_INIT:
 369:..\u8g2-master\csrc/u8x8_byte.c ****       /* disable chipselect */
 370:..\u8g2-master\csrc/u8x8_byte.c ****       u8x8_gpio_SetCS(u8x8, u8x8->display_info->chip_disable_level);    
 371:..\u8g2-master\csrc/u8x8_byte.c ****       /* ensure that the enable signal is low */
 372:..\u8g2-master\csrc/u8x8_byte.c ****       u8x8_gpio_call(u8x8, U8X8_MSG_GPIO_E, 0);
 373:..\u8g2-master\csrc/u8x8_byte.c ****       break;
ARM GAS  C:\Users\info\AppData\Local\Temp\ccAWUQ53.s 			page 8


 374:..\u8g2-master\csrc/u8x8_byte.c ****     case U8X8_MSG_BYTE_SET_DC:
 375:..\u8g2-master\csrc/u8x8_byte.c ****       u8x8_gpio_SetDC(u8x8, arg_int);
 376:..\u8g2-master\csrc/u8x8_byte.c ****       break;
 377:..\u8g2-master\csrc/u8x8_byte.c ****     case U8X8_MSG_BYTE_START_TRANSFER:
 378:..\u8g2-master\csrc/u8x8_byte.c ****       /* expects 3 bits in arg_int for the chip select lines */ 
 379:..\u8g2-master\csrc/u8x8_byte.c ****       u8x8_byte_set_ks0108_cs(u8x8, arg_int);
 380:..\u8g2-master\csrc/u8x8_byte.c ****       u8x8->gpio_and_delay_cb(u8x8, U8X8_MSG_DELAY_NANO, u8x8->display_info->post_chip_enable_wait_
 381:..\u8g2-master\csrc/u8x8_byte.c ****       break;
 382:..\u8g2-master\csrc/u8x8_byte.c ****     case U8X8_MSG_BYTE_END_TRANSFER:
 383:..\u8g2-master\csrc/u8x8_byte.c ****       u8x8->gpio_and_delay_cb(u8x8, U8X8_MSG_DELAY_NANO, u8x8->display_info->pre_chip_disable_wait_
 384:..\u8g2-master\csrc/u8x8_byte.c ****       u8x8_byte_set_ks0108_cs(u8x8, arg_int);
 385:..\u8g2-master\csrc/u8x8_byte.c ****       break;
 386:..\u8g2-master\csrc/u8x8_byte.c ****     default:
 387:..\u8g2-master\csrc/u8x8_byte.c ****       return 0;
 388:..\u8g2-master\csrc/u8x8_byte.c ****   }
 389:..\u8g2-master\csrc/u8x8_byte.c ****   return 1;
 390:..\u8g2-master\csrc/u8x8_byte.c **** }
 391:..\u8g2-master\csrc/u8x8_byte.c **** 
 392:..\u8g2-master\csrc/u8x8_byte.c **** 
 393:..\u8g2-master\csrc/u8x8_byte.c **** /* sed1520 or sbn1661 
 394:..\u8g2-master\csrc/u8x8_byte.c ****   U8X8_MSG_GPIO_E --> E1
 395:..\u8g2-master\csrc/u8x8_byte.c ****   U8X8_MSG_GPIO_CS --> E2
 396:..\u8g2-master\csrc/u8x8_byte.c **** */
 397:..\u8g2-master\csrc/u8x8_byte.c **** uint8_t u8x8_byte_sed1520(u8x8_t *u8x8, uint8_t msg, uint8_t arg_int, void *arg_ptr)
 398:..\u8g2-master\csrc/u8x8_byte.c **** {
 399:..\u8g2-master\csrc/u8x8_byte.c ****   uint8_t i, b;
 400:..\u8g2-master\csrc/u8x8_byte.c ****   uint8_t *data;
 401:..\u8g2-master\csrc/u8x8_byte.c ****   static uint8_t enable_pin;
 402:..\u8g2-master\csrc/u8x8_byte.c ****  
 403:..\u8g2-master\csrc/u8x8_byte.c ****   switch(msg)
 404:..\u8g2-master\csrc/u8x8_byte.c ****   {
 405:..\u8g2-master\csrc/u8x8_byte.c ****     case U8X8_MSG_BYTE_SEND:
 406:..\u8g2-master\csrc/u8x8_byte.c ****       data = (uint8_t *)arg_ptr;
 407:..\u8g2-master\csrc/u8x8_byte.c ****       while( arg_int > 0 )
 408:..\u8g2-master\csrc/u8x8_byte.c ****       {
 409:..\u8g2-master\csrc/u8x8_byte.c **** 	b = *data;
 410:..\u8g2-master\csrc/u8x8_byte.c **** 	data++;
 411:..\u8g2-master\csrc/u8x8_byte.c **** 	arg_int--;
 412:..\u8g2-master\csrc/u8x8_byte.c **** 	for( i = U8X8_MSG_GPIO_D0; i <= U8X8_MSG_GPIO_D7; i++ )
 413:..\u8g2-master\csrc/u8x8_byte.c **** 	{
 414:..\u8g2-master\csrc/u8x8_byte.c **** 	  u8x8_gpio_call(u8x8, i, b&1);
 415:..\u8g2-master\csrc/u8x8_byte.c **** 	  b >>= 1;
 416:..\u8g2-master\csrc/u8x8_byte.c **** 	}    
 417:..\u8g2-master\csrc/u8x8_byte.c **** 	
 418:..\u8g2-master\csrc/u8x8_byte.c **** 	u8x8_gpio_Delay(u8x8, U8X8_MSG_DELAY_NANO, u8x8->display_info->data_setup_time_ns);
 419:..\u8g2-master\csrc/u8x8_byte.c **** 	u8x8_gpio_call(u8x8, enable_pin, 1);
 420:..\u8g2-master\csrc/u8x8_byte.c **** 	u8x8_gpio_Delay(u8x8, U8X8_MSG_DELAY_NANO, 200);		/* KS0108 requires 450 ns, use 200 here */
 421:..\u8g2-master\csrc/u8x8_byte.c **** 	u8x8_gpio_Delay(u8x8, U8X8_MSG_DELAY_NANO, u8x8->display_info->write_pulse_width_ns);  /* expect 2
 422:..\u8g2-master\csrc/u8x8_byte.c **** 	u8x8_gpio_call(u8x8, enable_pin, 0);
 423:..\u8g2-master\csrc/u8x8_byte.c ****       }
 424:..\u8g2-master\csrc/u8x8_byte.c ****       break;
 425:..\u8g2-master\csrc/u8x8_byte.c ****       
 426:..\u8g2-master\csrc/u8x8_byte.c ****     case U8X8_MSG_BYTE_INIT:
 427:..\u8g2-master\csrc/u8x8_byte.c ****       /* disable chipselect */
 428:..\u8g2-master\csrc/u8x8_byte.c ****       u8x8_gpio_SetCS(u8x8, u8x8->display_info->chip_disable_level);    
 429:..\u8g2-master\csrc/u8x8_byte.c ****       /* ensure that the enable signals are low */
 430:..\u8g2-master\csrc/u8x8_byte.c ****       u8x8_gpio_call(u8x8, U8X8_MSG_GPIO_E, 0);
ARM GAS  C:\Users\info\AppData\Local\Temp\ccAWUQ53.s 			page 9


 431:..\u8g2-master\csrc/u8x8_byte.c ****       u8x8_gpio_call(u8x8, U8X8_MSG_GPIO_CS, 0);
 432:..\u8g2-master\csrc/u8x8_byte.c ****       enable_pin = U8X8_MSG_GPIO_E;
 433:..\u8g2-master\csrc/u8x8_byte.c ****       break;
 434:..\u8g2-master\csrc/u8x8_byte.c ****     case U8X8_MSG_BYTE_SET_DC:
 435:..\u8g2-master\csrc/u8x8_byte.c ****       u8x8_gpio_SetDC(u8x8, arg_int);
 436:..\u8g2-master\csrc/u8x8_byte.c ****       break;
 437:..\u8g2-master\csrc/u8x8_byte.c ****     case U8X8_MSG_BYTE_START_TRANSFER:
 438:..\u8g2-master\csrc/u8x8_byte.c ****       /* cs lines are not supported for the SED1520/SBN1661 */
 439:..\u8g2-master\csrc/u8x8_byte.c ****       /* instead, this will select the E1 or E2 line */ 
 440:..\u8g2-master\csrc/u8x8_byte.c ****       enable_pin = U8X8_MSG_GPIO_E;
 441:..\u8g2-master\csrc/u8x8_byte.c ****       if ( arg_int != 0 )
 442:..\u8g2-master\csrc/u8x8_byte.c **** 	enable_pin = U8X8_MSG_GPIO_CS;
 443:..\u8g2-master\csrc/u8x8_byte.c ****       break;
 444:..\u8g2-master\csrc/u8x8_byte.c ****     case U8X8_MSG_BYTE_END_TRANSFER:
 445:..\u8g2-master\csrc/u8x8_byte.c ****       break;
 446:..\u8g2-master\csrc/u8x8_byte.c ****     default:
 447:..\u8g2-master\csrc/u8x8_byte.c ****       return 0;
 448:..\u8g2-master\csrc/u8x8_byte.c ****   }
 449:..\u8g2-master\csrc/u8x8_byte.c ****   return 1;
 450:..\u8g2-master\csrc/u8x8_byte.c **** }
 451:..\u8g2-master\csrc/u8x8_byte.c **** 
 452:..\u8g2-master\csrc/u8x8_byte.c **** /*=========================================*/
 453:..\u8g2-master\csrc/u8x8_byte.c **** 
 454:..\u8g2-master\csrc/u8x8_byte.c **** 
 455:..\u8g2-master\csrc/u8x8_byte.c **** /*
 456:..\u8g2-master\csrc/u8x8_byte.c ****   software i2c,
 457:..\u8g2-master\csrc/u8x8_byte.c ****   ignores ACK response (which is anyway not provided by some displays)
 458:..\u8g2-master\csrc/u8x8_byte.c ****   also does not allow reading from the device
 459:..\u8g2-master\csrc/u8x8_byte.c **** */
 460:..\u8g2-master\csrc/u8x8_byte.c **** static void i2c_delay(u8x8_t *u8x8) U8X8_NOINLINE;
 461:..\u8g2-master\csrc/u8x8_byte.c **** static void i2c_delay(u8x8_t *u8x8)
 462:..\u8g2-master\csrc/u8x8_byte.c **** {
  27              		.loc 1 462 0
  28              		.cfi_startproc
  29              		@ args = 0, pretend = 0, frame = 0
  30              		@ frame_needed = 0, uses_anonymous_args = 0
  31              		@ link register save eliminated.
  32              	.LVL0:
 463:..\u8g2-master\csrc/u8x8_byte.c ****   //u8x8_gpio_Delay(u8x8, U8X8_MSG_DELAY_10MICRO, u8x8->display_info->i2c_bus_clock_100kHz);
 464:..\u8g2-master\csrc/u8x8_byte.c ****   u8x8_gpio_Delay(u8x8, U8X8_MSG_DELAY_I2C, u8x8->display_info->i2c_bus_clock_100kHz);
  33              		.loc 1 464 0
  34 0000 0368     		ldr	r3, [r0]
  35 0002 2D21     		movs	r1, #45
  36 0004 5A7B     		ldrb	r2, [r3, #13]	@ zero_extendqisi2
  37 0006 FFF7FEBF 		b	u8x8_gpio_call
  38              	.LVL1:
  39              		.cfi_endproc
  40              	.LFE13:
  41              		.size	i2c_delay, .-i2c_delay
  42 000a 00BF     		.section	.text.i2c_write_byte,"ax",%progbits
  43              		.align	2
  44              		.thumb
  45              		.thumb_func
  46              		.type	i2c_write_byte, %function
  47              	i2c_write_byte:
  48              	.LFB23:
 465:..\u8g2-master\csrc/u8x8_byte.c **** }
ARM GAS  C:\Users\info\AppData\Local\Temp\ccAWUQ53.s 			page 10


 466:..\u8g2-master\csrc/u8x8_byte.c **** 
 467:..\u8g2-master\csrc/u8x8_byte.c **** static void i2c_init(u8x8_t *u8x8)
 468:..\u8g2-master\csrc/u8x8_byte.c **** {
 469:..\u8g2-master\csrc/u8x8_byte.c ****   u8x8_gpio_SetI2CClock(u8x8, 1);
 470:..\u8g2-master\csrc/u8x8_byte.c ****   u8x8_gpio_SetI2CData(u8x8, 1);
 471:..\u8g2-master\csrc/u8x8_byte.c ****   
 472:..\u8g2-master\csrc/u8x8_byte.c ****   i2c_delay(u8x8);
 473:..\u8g2-master\csrc/u8x8_byte.c **** }
 474:..\u8g2-master\csrc/u8x8_byte.c **** 
 475:..\u8g2-master\csrc/u8x8_byte.c **** /* actually, the scl line is not observed, so this procedure does not return a value */
 476:..\u8g2-master\csrc/u8x8_byte.c **** 
 477:..\u8g2-master\csrc/u8x8_byte.c **** static void i2c_read_scl_and_delay(u8x8_t *u8x8)
 478:..\u8g2-master\csrc/u8x8_byte.c **** {
 479:..\u8g2-master\csrc/u8x8_byte.c ****   /* set as input (line will be high) */
 480:..\u8g2-master\csrc/u8x8_byte.c ****   u8x8_gpio_SetI2CClock(u8x8, 1);
 481:..\u8g2-master\csrc/u8x8_byte.c **** 
 482:..\u8g2-master\csrc/u8x8_byte.c ****   i2c_delay(u8x8);
 483:..\u8g2-master\csrc/u8x8_byte.c **** }
 484:..\u8g2-master\csrc/u8x8_byte.c **** 
 485:..\u8g2-master\csrc/u8x8_byte.c **** static void i2c_clear_scl(u8x8_t *u8x8)
 486:..\u8g2-master\csrc/u8x8_byte.c **** {
 487:..\u8g2-master\csrc/u8x8_byte.c ****   u8x8_gpio_SetI2CClock(u8x8, 0);
 488:..\u8g2-master\csrc/u8x8_byte.c **** }
 489:..\u8g2-master\csrc/u8x8_byte.c **** 
 490:..\u8g2-master\csrc/u8x8_byte.c **** static void i2c_read_sda(u8x8_t *u8x8)
 491:..\u8g2-master\csrc/u8x8_byte.c **** {
 492:..\u8g2-master\csrc/u8x8_byte.c ****   /* set as input (line will be high) */
 493:..\u8g2-master\csrc/u8x8_byte.c ****   u8x8_gpio_SetI2CData(u8x8, 1);
 494:..\u8g2-master\csrc/u8x8_byte.c **** }
 495:..\u8g2-master\csrc/u8x8_byte.c **** 
 496:..\u8g2-master\csrc/u8x8_byte.c **** static void i2c_clear_sda(u8x8_t *u8x8)
 497:..\u8g2-master\csrc/u8x8_byte.c **** {
 498:..\u8g2-master\csrc/u8x8_byte.c ****   /* set open collector and drive low */
 499:..\u8g2-master\csrc/u8x8_byte.c ****   u8x8_gpio_SetI2CData(u8x8, 0);
 500:..\u8g2-master\csrc/u8x8_byte.c **** }
 501:..\u8g2-master\csrc/u8x8_byte.c **** 
 502:..\u8g2-master\csrc/u8x8_byte.c **** static void i2c_start(u8x8_t *u8x8)
 503:..\u8g2-master\csrc/u8x8_byte.c **** {
 504:..\u8g2-master\csrc/u8x8_byte.c ****   if ( u8x8->i2c_started != 0 )
 505:..\u8g2-master\csrc/u8x8_byte.c ****   {
 506:..\u8g2-master\csrc/u8x8_byte.c ****     /* if already started: do restart */
 507:..\u8g2-master\csrc/u8x8_byte.c ****     i2c_read_sda(u8x8);     /* SDA = 1 */
 508:..\u8g2-master\csrc/u8x8_byte.c ****     i2c_delay(u8x8);
 509:..\u8g2-master\csrc/u8x8_byte.c ****     i2c_read_scl_and_delay(u8x8);
 510:..\u8g2-master\csrc/u8x8_byte.c ****   }
 511:..\u8g2-master\csrc/u8x8_byte.c ****   i2c_read_sda(u8x8);
 512:..\u8g2-master\csrc/u8x8_byte.c ****   /* send the start condition, both lines go from 1 to 0 */
 513:..\u8g2-master\csrc/u8x8_byte.c ****   i2c_clear_sda(u8x8);
 514:..\u8g2-master\csrc/u8x8_byte.c ****   i2c_delay(u8x8);
 515:..\u8g2-master\csrc/u8x8_byte.c ****   i2c_clear_scl(u8x8);
 516:..\u8g2-master\csrc/u8x8_byte.c ****   u8x8->i2c_started = 1;
 517:..\u8g2-master\csrc/u8x8_byte.c **** }
 518:..\u8g2-master\csrc/u8x8_byte.c **** 
 519:..\u8g2-master\csrc/u8x8_byte.c **** 
 520:..\u8g2-master\csrc/u8x8_byte.c **** static void i2c_stop(u8x8_t *u8x8)
 521:..\u8g2-master\csrc/u8x8_byte.c **** {
 522:..\u8g2-master\csrc/u8x8_byte.c ****   /* set SDA to 0 */
ARM GAS  C:\Users\info\AppData\Local\Temp\ccAWUQ53.s 			page 11


 523:..\u8g2-master\csrc/u8x8_byte.c ****   i2c_clear_sda(u8x8);  
 524:..\u8g2-master\csrc/u8x8_byte.c ****   i2c_delay(u8x8);
 525:..\u8g2-master\csrc/u8x8_byte.c ****  
 526:..\u8g2-master\csrc/u8x8_byte.c ****   /* now release all lines */
 527:..\u8g2-master\csrc/u8x8_byte.c ****   i2c_read_scl_and_delay(u8x8);
 528:..\u8g2-master\csrc/u8x8_byte.c ****  
 529:..\u8g2-master\csrc/u8x8_byte.c ****   /* set SDA to 1 */
 530:..\u8g2-master\csrc/u8x8_byte.c ****   i2c_read_sda(u8x8);
 531:..\u8g2-master\csrc/u8x8_byte.c ****   i2c_delay(u8x8);
 532:..\u8g2-master\csrc/u8x8_byte.c ****   u8x8->i2c_started = 0;
 533:..\u8g2-master\csrc/u8x8_byte.c **** }
 534:..\u8g2-master\csrc/u8x8_byte.c **** 
 535:..\u8g2-master\csrc/u8x8_byte.c **** static void i2c_write_bit(u8x8_t *u8x8, uint8_t val)
 536:..\u8g2-master\csrc/u8x8_byte.c **** {
 537:..\u8g2-master\csrc/u8x8_byte.c ****   if (val)
 538:..\u8g2-master\csrc/u8x8_byte.c ****     i2c_read_sda(u8x8);
 539:..\u8g2-master\csrc/u8x8_byte.c ****   else
 540:..\u8g2-master\csrc/u8x8_byte.c ****     i2c_clear_sda(u8x8);
 541:..\u8g2-master\csrc/u8x8_byte.c ****  
 542:..\u8g2-master\csrc/u8x8_byte.c ****   i2c_delay(u8x8);
 543:..\u8g2-master\csrc/u8x8_byte.c ****   i2c_read_scl_and_delay(u8x8);
 544:..\u8g2-master\csrc/u8x8_byte.c ****   i2c_clear_scl(u8x8);
 545:..\u8g2-master\csrc/u8x8_byte.c **** }
 546:..\u8g2-master\csrc/u8x8_byte.c **** 
 547:..\u8g2-master\csrc/u8x8_byte.c **** static void i2c_read_bit(u8x8_t *u8x8)
 548:..\u8g2-master\csrc/u8x8_byte.c **** {
 549:..\u8g2-master\csrc/u8x8_byte.c ****   //uint8_t val;
 550:..\u8g2-master\csrc/u8x8_byte.c ****   /* do not drive SDA */
 551:..\u8g2-master\csrc/u8x8_byte.c ****   i2c_read_sda(u8x8);
 552:..\u8g2-master\csrc/u8x8_byte.c ****   i2c_delay(u8x8);
 553:..\u8g2-master\csrc/u8x8_byte.c ****   i2c_read_scl_and_delay(u8x8);
 554:..\u8g2-master\csrc/u8x8_byte.c ****   i2c_read_sda(u8x8);
 555:..\u8g2-master\csrc/u8x8_byte.c ****   i2c_delay(u8x8);
 556:..\u8g2-master\csrc/u8x8_byte.c ****   i2c_clear_scl(u8x8);
 557:..\u8g2-master\csrc/u8x8_byte.c ****   //return val;
 558:..\u8g2-master\csrc/u8x8_byte.c **** }
 559:..\u8g2-master\csrc/u8x8_byte.c **** 
 560:..\u8g2-master\csrc/u8x8_byte.c **** static void i2c_write_byte(u8x8_t *u8x8, uint8_t b)
 561:..\u8g2-master\csrc/u8x8_byte.c **** {
  49              		.loc 1 561 0
  50              		.cfi_startproc
  51              		@ args = 0, pretend = 0, frame = 0
  52              		@ frame_needed = 0, uses_anonymous_args = 0
  53              	.LVL2:
  54 0000 38B5     		push	{r3, r4, r5, lr}
  55              		.cfi_def_cfa_offset 16
  56              		.cfi_offset 3, -16
  57              		.cfi_offset 4, -12
  58              		.cfi_offset 5, -8
  59              		.cfi_offset 14, -4
  60              	.LBB124:
  61              	.LBB125:
 537:..\u8g2-master\csrc/u8x8_byte.c ****     i2c_read_sda(u8x8);
  62              		.loc 1 537 0
  63 0002 21F07F03 		bic	r3, r1, #127
  64              	.LBE125:
  65              	.LBE124:
ARM GAS  C:\Users\info\AppData\Local\Temp\ccAWUQ53.s 			page 12


  66              		.loc 1 561 0
  67 0006 0D46     		mov	r5, r1
  68 0008 0446     		mov	r4, r0
  69              	.LVL3:
  70              	.LBB136:
  71              	.LBB134:
 537:..\u8g2-master\csrc/u8x8_byte.c ****     i2c_read_sda(u8x8);
  72              		.loc 1 537 0
  73 000a 002B     		cmp	r3, #0
  74 000c 40F0EC80 		bne	.L21
  75 0010 03F0FF02 		and	r2, r3, #255
  76              	.LVL4:
  77              	.LBB126:
  78              	.LBB127:
 499:..\u8g2-master\csrc/u8x8_byte.c **** }
  79              		.loc 1 499 0
  80 0014 4D21     		movs	r1, #77
  81              	.LVL5:
  82 0016 FFF7FEFF 		bl	u8x8_gpio_call
  83              	.LVL6:
  84              	.L4:
  85              	.LBE127:
  86              	.LBE126:
 542:..\u8g2-master\csrc/u8x8_byte.c ****   i2c_read_scl_and_delay(u8x8);
  87              		.loc 1 542 0
  88 001a 2046     		mov	r0, r4
  89 001c FFF7FEFF 		bl	i2c_delay
  90              	.LVL7:
  91              	.LBB128:
  92              	.LBB129:
 480:..\u8g2-master\csrc/u8x8_byte.c **** 
  93              		.loc 1 480 0
  94 0020 0122     		movs	r2, #1
  95 0022 4C21     		movs	r1, #76
  96 0024 2046     		mov	r0, r4
  97 0026 FFF7FEFF 		bl	u8x8_gpio_call
  98              	.LVL8:
 482:..\u8g2-master\csrc/u8x8_byte.c **** }
  99              		.loc 1 482 0
 100 002a 2046     		mov	r0, r4
 101 002c FFF7FEFF 		bl	i2c_delay
 102              	.LVL9:
 103              	.LBE129:
 104              	.LBE128:
 105              	.LBB130:
 106              	.LBB131:
 487:..\u8g2-master\csrc/u8x8_byte.c **** }
 107              		.loc 1 487 0
 108 0030 0022     		movs	r2, #0
 109 0032 4C21     		movs	r1, #76
 110 0034 2046     		mov	r0, r4
 111 0036 FFF7FEFF 		bl	u8x8_gpio_call
 112              	.LVL10:
 113              	.LBE131:
 114              	.LBE130:
 115              	.LBE134:
 116              	.LBE136:
ARM GAS  C:\Users\info\AppData\Local\Temp\ccAWUQ53.s 			page 13


 117              	.LBB137:
 118              	.LBB138:
 537:..\u8g2-master\csrc/u8x8_byte.c ****     i2c_read_sda(u8x8);
 119              		.loc 1 537 0
 120 003a 05F04003 		and	r3, r5, #64
 121 003e 03F0FF02 		and	r2, r3, #255
 122 0042 002B     		cmp	r3, #0
 123 0044 40F0F380 		bne	.L22
 124              	.LVL11:
 125              	.LBB139:
 126              	.LBB140:
 499:..\u8g2-master\csrc/u8x8_byte.c **** }
 127              		.loc 1 499 0
 128 0048 4D21     		movs	r1, #77
 129 004a 2046     		mov	r0, r4
 130 004c FFF7FEFF 		bl	u8x8_gpio_call
 131              	.LVL12:
 132              	.L6:
 133              	.LBE140:
 134              	.LBE139:
 542:..\u8g2-master\csrc/u8x8_byte.c ****   i2c_read_scl_and_delay(u8x8);
 135              		.loc 1 542 0
 136 0050 2046     		mov	r0, r4
 137 0052 FFF7FEFF 		bl	i2c_delay
 138              	.LVL13:
 139              	.LBB141:
 140              	.LBB142:
 480:..\u8g2-master\csrc/u8x8_byte.c **** 
 141              		.loc 1 480 0
 142 0056 0122     		movs	r2, #1
 143 0058 4C21     		movs	r1, #76
 144 005a 2046     		mov	r0, r4
 145 005c FFF7FEFF 		bl	u8x8_gpio_call
 146              	.LVL14:
 482:..\u8g2-master\csrc/u8x8_byte.c **** }
 147              		.loc 1 482 0
 148 0060 2046     		mov	r0, r4
 149 0062 FFF7FEFF 		bl	i2c_delay
 150              	.LVL15:
 151              	.LBE142:
 152              	.LBE141:
 153              	.LBB143:
 154              	.LBB144:
 487:..\u8g2-master\csrc/u8x8_byte.c **** }
 155              		.loc 1 487 0
 156 0066 0022     		movs	r2, #0
 157 0068 4C21     		movs	r1, #76
 158 006a 2046     		mov	r0, r4
 159 006c FFF7FEFF 		bl	u8x8_gpio_call
 160              	.LVL16:
 161              	.LBE144:
 162              	.LBE143:
 163              	.LBE138:
 164              	.LBE137:
 165              	.LBB148:
 166              	.LBB149:
 537:..\u8g2-master\csrc/u8x8_byte.c ****     i2c_read_sda(u8x8);
ARM GAS  C:\Users\info\AppData\Local\Temp\ccAWUQ53.s 			page 14


 167              		.loc 1 537 0
 168 0070 05F02003 		and	r3, r5, #32
 169 0074 03F0FF02 		and	r2, r3, #255
 170 0078 002B     		cmp	r3, #0
 171 007a 40F0D280 		bne	.L23
 172              	.LVL17:
 173              	.LBB150:
 174              	.LBB151:
 499:..\u8g2-master\csrc/u8x8_byte.c **** }
 175              		.loc 1 499 0
 176 007e 4D21     		movs	r1, #77
 177 0080 2046     		mov	r0, r4
 178 0082 FFF7FEFF 		bl	u8x8_gpio_call
 179              	.LVL18:
 180              	.L8:
 181              	.LBE151:
 182              	.LBE150:
 542:..\u8g2-master\csrc/u8x8_byte.c ****   i2c_read_scl_and_delay(u8x8);
 183              		.loc 1 542 0
 184 0086 2046     		mov	r0, r4
 185 0088 FFF7FEFF 		bl	i2c_delay
 186              	.LVL19:
 187              	.LBB152:
 188              	.LBB153:
 480:..\u8g2-master\csrc/u8x8_byte.c **** 
 189              		.loc 1 480 0
 190 008c 0122     		movs	r2, #1
 191 008e 4C21     		movs	r1, #76
 192 0090 2046     		mov	r0, r4
 193 0092 FFF7FEFF 		bl	u8x8_gpio_call
 194              	.LVL20:
 482:..\u8g2-master\csrc/u8x8_byte.c **** }
 195              		.loc 1 482 0
 196 0096 2046     		mov	r0, r4
 197 0098 FFF7FEFF 		bl	i2c_delay
 198              	.LVL21:
 199              	.LBE153:
 200              	.LBE152:
 201              	.LBB154:
 202              	.LBB155:
 487:..\u8g2-master\csrc/u8x8_byte.c **** }
 203              		.loc 1 487 0
 204 009c 0022     		movs	r2, #0
 205 009e 4C21     		movs	r1, #76
 206 00a0 2046     		mov	r0, r4
 207 00a2 FFF7FEFF 		bl	u8x8_gpio_call
 208              	.LVL22:
 209              	.LBE155:
 210              	.LBE154:
 211              	.LBE149:
 212              	.LBE148:
 213              	.LBB159:
 214              	.LBB160:
 537:..\u8g2-master\csrc/u8x8_byte.c ****     i2c_read_sda(u8x8);
 215              		.loc 1 537 0
 216 00a6 05F01003 		and	r3, r5, #16
 217 00aa 03F0FF02 		and	r2, r3, #255
ARM GAS  C:\Users\info\AppData\Local\Temp\ccAWUQ53.s 			page 15


 218 00ae 002B     		cmp	r3, #0
 219 00b0 40F0B180 		bne	.L24
 220              	.LVL23:
 221              	.LBB161:
 222              	.LBB162:
 499:..\u8g2-master\csrc/u8x8_byte.c **** }
 223              		.loc 1 499 0
 224 00b4 4D21     		movs	r1, #77
 225 00b6 2046     		mov	r0, r4
 226 00b8 FFF7FEFF 		bl	u8x8_gpio_call
 227              	.LVL24:
 228              	.L10:
 229              	.LBE162:
 230              	.LBE161:
 542:..\u8g2-master\csrc/u8x8_byte.c ****   i2c_read_scl_and_delay(u8x8);
 231              		.loc 1 542 0
 232 00bc 2046     		mov	r0, r4
 233 00be FFF7FEFF 		bl	i2c_delay
 234              	.LVL25:
 235              	.LBB163:
 236              	.LBB164:
 480:..\u8g2-master\csrc/u8x8_byte.c **** 
 237              		.loc 1 480 0
 238 00c2 0122     		movs	r2, #1
 239 00c4 4C21     		movs	r1, #76
 240 00c6 2046     		mov	r0, r4
 241 00c8 FFF7FEFF 		bl	u8x8_gpio_call
 242              	.LVL26:
 482:..\u8g2-master\csrc/u8x8_byte.c **** }
 243              		.loc 1 482 0
 244 00cc 2046     		mov	r0, r4
 245 00ce FFF7FEFF 		bl	i2c_delay
 246              	.LVL27:
 247              	.LBE164:
 248              	.LBE163:
 249              	.LBB165:
 250              	.LBB166:
 487:..\u8g2-master\csrc/u8x8_byte.c **** }
 251              		.loc 1 487 0
 252 00d2 0022     		movs	r2, #0
 253 00d4 4C21     		movs	r1, #76
 254 00d6 2046     		mov	r0, r4
 255 00d8 FFF7FEFF 		bl	u8x8_gpio_call
 256              	.LVL28:
 257              	.LBE166:
 258              	.LBE165:
 259              	.LBE160:
 260              	.LBE159:
 261              	.LBB170:
 262              	.LBB171:
 537:..\u8g2-master\csrc/u8x8_byte.c ****     i2c_read_sda(u8x8);
 263              		.loc 1 537 0
 264 00dc 05F00803 		and	r3, r5, #8
 265 00e0 03F0FF02 		and	r2, r3, #255
 266 00e4 002B     		cmp	r3, #0
 267 00e6 40F09080 		bne	.L25
 268              	.LVL29:
ARM GAS  C:\Users\info\AppData\Local\Temp\ccAWUQ53.s 			page 16


 269              	.LBB172:
 270              	.LBB173:
 499:..\u8g2-master\csrc/u8x8_byte.c **** }
 271              		.loc 1 499 0
 272 00ea 4D21     		movs	r1, #77
 273 00ec 2046     		mov	r0, r4
 274 00ee FFF7FEFF 		bl	u8x8_gpio_call
 275              	.LVL30:
 276              	.L12:
 277              	.LBE173:
 278              	.LBE172:
 542:..\u8g2-master\csrc/u8x8_byte.c ****   i2c_read_scl_and_delay(u8x8);
 279              		.loc 1 542 0
 280 00f2 2046     		mov	r0, r4
 281 00f4 FFF7FEFF 		bl	i2c_delay
 282              	.LVL31:
 283              	.LBB174:
 284              	.LBB175:
 480:..\u8g2-master\csrc/u8x8_byte.c **** 
 285              		.loc 1 480 0
 286 00f8 0122     		movs	r2, #1
 287 00fa 4C21     		movs	r1, #76
 288 00fc 2046     		mov	r0, r4
 289 00fe FFF7FEFF 		bl	u8x8_gpio_call
 290              	.LVL32:
 482:..\u8g2-master\csrc/u8x8_byte.c **** }
 291              		.loc 1 482 0
 292 0102 2046     		mov	r0, r4
 293 0104 FFF7FEFF 		bl	i2c_delay
 294              	.LVL33:
 295              	.LBE175:
 296              	.LBE174:
 297              	.LBB176:
 298              	.LBB177:
 487:..\u8g2-master\csrc/u8x8_byte.c **** }
 299              		.loc 1 487 0
 300 0108 0022     		movs	r2, #0
 301 010a 4C21     		movs	r1, #76
 302 010c 2046     		mov	r0, r4
 303 010e FFF7FEFF 		bl	u8x8_gpio_call
 304              	.LVL34:
 305              	.LBE177:
 306              	.LBE176:
 307              	.LBE171:
 308              	.LBE170:
 309              	.LBB181:
 310              	.LBB182:
 537:..\u8g2-master\csrc/u8x8_byte.c ****     i2c_read_sda(u8x8);
 311              		.loc 1 537 0
 312 0112 05F00403 		and	r3, r5, #4
 313 0116 03F0FF02 		and	r2, r3, #255
 314 011a 002B     		cmp	r3, #0
 315 011c 6FD1     		bne	.L26
 316              	.LVL35:
 317              	.LBB183:
 318              	.LBB184:
 499:..\u8g2-master\csrc/u8x8_byte.c **** }
ARM GAS  C:\Users\info\AppData\Local\Temp\ccAWUQ53.s 			page 17


 319              		.loc 1 499 0
 320 011e 4D21     		movs	r1, #77
 321 0120 2046     		mov	r0, r4
 322 0122 FFF7FEFF 		bl	u8x8_gpio_call
 323              	.LVL36:
 324              	.L14:
 325              	.LBE184:
 326              	.LBE183:
 542:..\u8g2-master\csrc/u8x8_byte.c ****   i2c_read_scl_and_delay(u8x8);
 327              		.loc 1 542 0
 328 0126 2046     		mov	r0, r4
 329 0128 FFF7FEFF 		bl	i2c_delay
 330              	.LVL37:
 331              	.LBB185:
 332              	.LBB186:
 480:..\u8g2-master\csrc/u8x8_byte.c **** 
 333              		.loc 1 480 0
 334 012c 0122     		movs	r2, #1
 335 012e 4C21     		movs	r1, #76
 336 0130 2046     		mov	r0, r4
 337 0132 FFF7FEFF 		bl	u8x8_gpio_call
 338              	.LVL38:
 482:..\u8g2-master\csrc/u8x8_byte.c **** }
 339              		.loc 1 482 0
 340 0136 2046     		mov	r0, r4
 341 0138 FFF7FEFF 		bl	i2c_delay
 342              	.LVL39:
 343              	.LBE186:
 344              	.LBE185:
 345              	.LBB187:
 346              	.LBB188:
 487:..\u8g2-master\csrc/u8x8_byte.c **** }
 347              		.loc 1 487 0
 348 013c 0022     		movs	r2, #0
 349 013e 4C21     		movs	r1, #76
 350 0140 2046     		mov	r0, r4
 351 0142 FFF7FEFF 		bl	u8x8_gpio_call
 352              	.LVL40:
 353              	.LBE188:
 354              	.LBE187:
 355              	.LBE182:
 356              	.LBE181:
 357              	.LBB192:
 358              	.LBB193:
 537:..\u8g2-master\csrc/u8x8_byte.c ****     i2c_read_sda(u8x8);
 359              		.loc 1 537 0
 360 0146 05F00203 		and	r3, r5, #2
 361 014a 03F0FF02 		and	r2, r3, #255
 362 014e 002B     		cmp	r3, #0
 363 0150 4FD1     		bne	.L27
 364              	.LVL41:
 365              	.LBB194:
 366              	.LBB195:
 499:..\u8g2-master\csrc/u8x8_byte.c **** }
 367              		.loc 1 499 0
 368 0152 4D21     		movs	r1, #77
 369 0154 2046     		mov	r0, r4
ARM GAS  C:\Users\info\AppData\Local\Temp\ccAWUQ53.s 			page 18


 370 0156 FFF7FEFF 		bl	u8x8_gpio_call
 371              	.LVL42:
 372              	.L16:
 373              	.LBE195:
 374              	.LBE194:
 542:..\u8g2-master\csrc/u8x8_byte.c ****   i2c_read_scl_and_delay(u8x8);
 375              		.loc 1 542 0
 376 015a 2046     		mov	r0, r4
 377 015c FFF7FEFF 		bl	i2c_delay
 378              	.LVL43:
 379              	.LBB196:
 380              	.LBB197:
 480:..\u8g2-master\csrc/u8x8_byte.c **** 
 381              		.loc 1 480 0
 382 0160 0122     		movs	r2, #1
 383 0162 4C21     		movs	r1, #76
 384 0164 2046     		mov	r0, r4
 385 0166 FFF7FEFF 		bl	u8x8_gpio_call
 386              	.LVL44:
 482:..\u8g2-master\csrc/u8x8_byte.c **** }
 387              		.loc 1 482 0
 388 016a 2046     		mov	r0, r4
 389 016c FFF7FEFF 		bl	i2c_delay
 390              	.LVL45:
 391              	.LBE197:
 392              	.LBE196:
 393              	.LBB198:
 394              	.LBB199:
 487:..\u8g2-master\csrc/u8x8_byte.c **** }
 395              		.loc 1 487 0
 396 0170 2046     		mov	r0, r4
 397 0172 0022     		movs	r2, #0
 398 0174 4C21     		movs	r1, #76
 399 0176 FFF7FEFF 		bl	u8x8_gpio_call
 400              	.LVL46:
 401              	.LBE199:
 402              	.LBE198:
 403              	.LBE193:
 404              	.LBE192:
 405              	.LBB203:
 406              	.LBB204:
 537:..\u8g2-master\csrc/u8x8_byte.c ****     i2c_read_sda(u8x8);
 407              		.loc 1 537 0
 408 017a 15F00102 		ands	r2, r5, #1
 409              	.LVL47:
 410              	.LBB205:
 411              	.LBB206:
 493:..\u8g2-master\csrc/u8x8_byte.c **** }
 412              		.loc 1 493 0
 413 017e 18BF     		it	ne
 414 0180 0122     		movne	r2, #1
 415              	.LVL48:
 416              	.LBE206:
 417              	.LBE205:
 418              	.LBB207:
 419              	.LBB208:
 499:..\u8g2-master\csrc/u8x8_byte.c **** }
ARM GAS  C:\Users\info\AppData\Local\Temp\ccAWUQ53.s 			page 19


 420              		.loc 1 499 0
 421 0182 4D21     		movs	r1, #77
 422 0184 2046     		mov	r0, r4
 423 0186 FFF7FEFF 		bl	u8x8_gpio_call
 424              	.LVL49:
 425              	.LBE208:
 426              	.LBE207:
 542:..\u8g2-master\csrc/u8x8_byte.c ****   i2c_read_scl_and_delay(u8x8);
 427              		.loc 1 542 0
 428 018a 2046     		mov	r0, r4
 429 018c FFF7FEFF 		bl	i2c_delay
 430              	.LVL50:
 431              	.LBB209:
 432              	.LBB210:
 480:..\u8g2-master\csrc/u8x8_byte.c **** 
 433              		.loc 1 480 0
 434 0190 0122     		movs	r2, #1
 435 0192 4C21     		movs	r1, #76
 436 0194 2046     		mov	r0, r4
 437 0196 FFF7FEFF 		bl	u8x8_gpio_call
 438              	.LVL51:
 482:..\u8g2-master\csrc/u8x8_byte.c **** }
 439              		.loc 1 482 0
 440 019a 2046     		mov	r0, r4
 441 019c FFF7FEFF 		bl	i2c_delay
 442              	.LVL52:
 443              	.LBE210:
 444              	.LBE209:
 445              	.LBB211:
 446              	.LBB212:
 487:..\u8g2-master\csrc/u8x8_byte.c **** }
 447              		.loc 1 487 0
 448 01a0 2046     		mov	r0, r4
 449 01a2 0022     		movs	r2, #0
 450 01a4 4C21     		movs	r1, #76
 451 01a6 FFF7FEFF 		bl	u8x8_gpio_call
 452              	.LVL53:
 453              	.LBE212:
 454              	.LBE211:
 455              	.LBE204:
 456              	.LBE203:
 457              	.LBB213:
 458              	.LBB214:
 459              	.LBB215:
 460              	.LBB216:
 493:..\u8g2-master\csrc/u8x8_byte.c **** }
 461              		.loc 1 493 0
 462 01aa 0122     		movs	r2, #1
 463 01ac 4D21     		movs	r1, #77
 464 01ae 2046     		mov	r0, r4
 465 01b0 FFF7FEFF 		bl	u8x8_gpio_call
 466              	.LVL54:
 467              	.LBE216:
 468              	.LBE215:
 552:..\u8g2-master\csrc/u8x8_byte.c ****   i2c_read_scl_and_delay(u8x8);
 469              		.loc 1 552 0
 470 01b4 2046     		mov	r0, r4
ARM GAS  C:\Users\info\AppData\Local\Temp\ccAWUQ53.s 			page 20


 471 01b6 FFF7FEFF 		bl	i2c_delay
 472              	.LVL55:
 473              	.LBB217:
 474              	.LBB218:
 480:..\u8g2-master\csrc/u8x8_byte.c **** 
 475              		.loc 1 480 0
 476 01ba 0122     		movs	r2, #1
 477 01bc 4C21     		movs	r1, #76
 478 01be 2046     		mov	r0, r4
 479 01c0 FFF7FEFF 		bl	u8x8_gpio_call
 480              	.LVL56:
 482:..\u8g2-master\csrc/u8x8_byte.c **** }
 481              		.loc 1 482 0
 482 01c4 2046     		mov	r0, r4
 483 01c6 FFF7FEFF 		bl	i2c_delay
 484              	.LVL57:
 485              	.LBE218:
 486              	.LBE217:
 487              	.LBB219:
 488              	.LBB220:
 493:..\u8g2-master\csrc/u8x8_byte.c **** }
 489              		.loc 1 493 0
 490 01ca 0122     		movs	r2, #1
 491 01cc 4D21     		movs	r1, #77
 492 01ce 2046     		mov	r0, r4
 493 01d0 FFF7FEFF 		bl	u8x8_gpio_call
 494              	.LVL58:
 495              	.LBE220:
 496              	.LBE219:
 555:..\u8g2-master\csrc/u8x8_byte.c ****   i2c_clear_scl(u8x8);
 497              		.loc 1 555 0
 498 01d4 2046     		mov	r0, r4
 499 01d6 FFF7FEFF 		bl	i2c_delay
 500              	.LVL59:
 501              	.LBB221:
 502              	.LBB222:
 487:..\u8g2-master\csrc/u8x8_byte.c **** }
 503              		.loc 1 487 0
 504 01da 2046     		mov	r0, r4
 505              	.LBE222:
 506              	.LBE221:
 507              	.LBE214:
 508              	.LBE213:
 562:..\u8g2-master\csrc/u8x8_byte.c ****   i2c_write_bit(u8x8, b & 128);
 563:..\u8g2-master\csrc/u8x8_byte.c ****   i2c_write_bit(u8x8, b & 64);
 564:..\u8g2-master\csrc/u8x8_byte.c ****   i2c_write_bit(u8x8, b & 32);
 565:..\u8g2-master\csrc/u8x8_byte.c ****   i2c_write_bit(u8x8, b & 16);
 566:..\u8g2-master\csrc/u8x8_byte.c ****   i2c_write_bit(u8x8, b & 8);
 567:..\u8g2-master\csrc/u8x8_byte.c ****   i2c_write_bit(u8x8, b & 4);
 568:..\u8g2-master\csrc/u8x8_byte.c ****   i2c_write_bit(u8x8, b & 2);
 569:..\u8g2-master\csrc/u8x8_byte.c ****   i2c_write_bit(u8x8, b & 1);
 570:..\u8g2-master\csrc/u8x8_byte.c ****     
 571:..\u8g2-master\csrc/u8x8_byte.c ****   /* read ack from client */
 572:..\u8g2-master\csrc/u8x8_byte.c ****   /* 0: ack was given by client */
 573:..\u8g2-master\csrc/u8x8_byte.c ****   /* 1: nothing happend during ack cycle */  
 574:..\u8g2-master\csrc/u8x8_byte.c ****   i2c_read_bit(u8x8);
 575:..\u8g2-master\csrc/u8x8_byte.c **** }
ARM GAS  C:\Users\info\AppData\Local\Temp\ccAWUQ53.s 			page 21


 509              		.loc 1 575 0
 510 01dc BDE83840 		pop	{r3, r4, r5, lr}
 511              		.cfi_remember_state
 512              		.cfi_restore 14
 513              		.cfi_restore 5
 514              		.cfi_restore 4
 515              		.cfi_restore 3
 516              		.cfi_def_cfa_offset 0
 517              	.LVL60:
 518              	.LBB226:
 519              	.LBB225:
 520              	.LBB224:
 521              	.LBB223:
 487:..\u8g2-master\csrc/u8x8_byte.c **** }
 522              		.loc 1 487 0
 523 01e0 0022     		movs	r2, #0
 524 01e2 4C21     		movs	r1, #76
 525 01e4 FFF7FEBF 		b	u8x8_gpio_call
 526              	.LVL61:
 527              	.L21:
 528              		.cfi_restore_state
 529              	.LBE223:
 530              	.LBE224:
 531              	.LBE225:
 532              	.LBE226:
 533              	.LBB227:
 534              	.LBB135:
 535              	.LBB132:
 536              	.LBB133:
 493:..\u8g2-master\csrc/u8x8_byte.c **** }
 537              		.loc 1 493 0
 538 01e8 0122     		movs	r2, #1
 539 01ea 4D21     		movs	r1, #77
 540              	.LVL62:
 541 01ec FFF7FEFF 		bl	u8x8_gpio_call
 542              	.LVL63:
 543 01f0 13E7     		b	.L4
 544              	.LVL64:
 545              	.L27:
 546              	.LBE133:
 547              	.LBE132:
 548              	.LBE135:
 549              	.LBE227:
 550              	.LBB228:
 551              	.LBB202:
 552              	.LBB200:
 553              	.LBB201:
 554 01f2 0122     		movs	r2, #1
 555 01f4 4D21     		movs	r1, #77
 556 01f6 2046     		mov	r0, r4
 557 01f8 FFF7FEFF 		bl	u8x8_gpio_call
 558              	.LVL65:
 559 01fc ADE7     		b	.L16
 560              	.LVL66:
 561              	.L26:
 562              	.LBE201:
 563              	.LBE200:
ARM GAS  C:\Users\info\AppData\Local\Temp\ccAWUQ53.s 			page 22


 564              	.LBE202:
 565              	.LBE228:
 566              	.LBB229:
 567              	.LBB191:
 568              	.LBB189:
 569              	.LBB190:
 570 01fe 0122     		movs	r2, #1
 571 0200 4D21     		movs	r1, #77
 572 0202 2046     		mov	r0, r4
 573 0204 FFF7FEFF 		bl	u8x8_gpio_call
 574              	.LVL67:
 575 0208 8DE7     		b	.L14
 576              	.LVL68:
 577              	.L25:
 578              	.LBE190:
 579              	.LBE189:
 580              	.LBE191:
 581              	.LBE229:
 582              	.LBB230:
 583              	.LBB180:
 584              	.LBB178:
 585              	.LBB179:
 586 020a 0122     		movs	r2, #1
 587 020c 4D21     		movs	r1, #77
 588 020e 2046     		mov	r0, r4
 589 0210 FFF7FEFF 		bl	u8x8_gpio_call
 590              	.LVL69:
 591 0214 6DE7     		b	.L12
 592              	.LVL70:
 593              	.L24:
 594              	.LBE179:
 595              	.LBE178:
 596              	.LBE180:
 597              	.LBE230:
 598              	.LBB231:
 599              	.LBB169:
 600              	.LBB167:
 601              	.LBB168:
 602 0216 0122     		movs	r2, #1
 603 0218 4D21     		movs	r1, #77
 604 021a 2046     		mov	r0, r4
 605 021c FFF7FEFF 		bl	u8x8_gpio_call
 606              	.LVL71:
 607 0220 4CE7     		b	.L10
 608              	.LVL72:
 609              	.L23:
 610              	.LBE168:
 611              	.LBE167:
 612              	.LBE169:
 613              	.LBE231:
 614              	.LBB232:
 615              	.LBB158:
 616              	.LBB156:
 617              	.LBB157:
 618 0222 0122     		movs	r2, #1
 619 0224 4D21     		movs	r1, #77
 620 0226 2046     		mov	r0, r4
ARM GAS  C:\Users\info\AppData\Local\Temp\ccAWUQ53.s 			page 23


 621 0228 FFF7FEFF 		bl	u8x8_gpio_call
 622              	.LVL73:
 623 022c 2BE7     		b	.L8
 624              	.LVL74:
 625              	.L22:
 626              	.LBE157:
 627              	.LBE156:
 628              	.LBE158:
 629              	.LBE232:
 630              	.LBB233:
 631              	.LBB147:
 632              	.LBB145:
 633              	.LBB146:
 634 022e 0122     		movs	r2, #1
 635 0230 4D21     		movs	r1, #77
 636 0232 2046     		mov	r0, r4
 637 0234 FFF7FEFF 		bl	u8x8_gpio_call
 638              	.LVL75:
 639 0238 0AE7     		b	.L6
 640              	.LBE146:
 641              	.LBE145:
 642              	.LBE147:
 643              	.LBE233:
 644              		.cfi_endproc
 645              	.LFE23:
 646              		.size	i2c_write_byte, .-i2c_write_byte
 647 023a 00BF     		.section	.text.u8x8_byte_SetDC,"ax",%progbits
 648              		.align	2
 649              		.global	u8x8_byte_SetDC
 650              		.thumb
 651              		.thumb_func
 652              		.type	u8x8_byte_SetDC, %function
 653              	u8x8_byte_SetDC:
 654              	.LFB0:
  40:..\u8g2-master\csrc/u8x8_byte.c ****   return u8x8->byte_cb(u8x8, U8X8_MSG_BYTE_SET_DC, dc, NULL);
 655              		.loc 1 40 0
 656              		.cfi_startproc
 657              		@ args = 0, pretend = 0, frame = 0
 658              		@ frame_needed = 0, uses_anonymous_args = 0
 659              		@ link register save eliminated.
 660              	.LVL76:
 661 0000 10B4     		push	{r4}
 662              		.cfi_def_cfa_offset 4
 663              		.cfi_offset 4, -4
  41:..\u8g2-master\csrc/u8x8_byte.c **** }
 664              		.loc 1 41 0
 665 0002 0469     		ldr	r4, [r0, #16]
 666 0004 0A46     		mov	r2, r1
 667 0006 A446     		mov	ip, r4
 668 0008 0023     		movs	r3, #0
 669 000a 2021     		movs	r1, #32
 670              	.LVL77:
  42:..\u8g2-master\csrc/u8x8_byte.c **** 
 671              		.loc 1 42 0
 672 000c 10BC     		pop	{r4}
 673              		.cfi_restore 4
 674              		.cfi_def_cfa_offset 0
ARM GAS  C:\Users\info\AppData\Local\Temp\ccAWUQ53.s 			page 24


  41:..\u8g2-master\csrc/u8x8_byte.c **** }
 675              		.loc 1 41 0
 676 000e 6047     		bx	ip
 677              	.LVL78:
 678              		.cfi_endproc
 679              	.LFE0:
 680              		.size	u8x8_byte_SetDC, .-u8x8_byte_SetDC
 681              		.section	.text.u8x8_byte_SendBytes,"ax",%progbits
 682              		.align	2
 683              		.global	u8x8_byte_SendBytes
 684              		.thumb
 685              		.thumb_func
 686              		.type	u8x8_byte_SendBytes, %function
 687              	u8x8_byte_SendBytes:
 688              	.LFB1:
  45:..\u8g2-master\csrc/u8x8_byte.c ****   return u8x8->byte_cb(u8x8, U8X8_MSG_BYTE_SEND, cnt, (void *)data);
 689              		.loc 1 45 0
 690              		.cfi_startproc
 691              		@ args = 0, pretend = 0, frame = 0
 692              		@ frame_needed = 0, uses_anonymous_args = 0
 693              		@ link register save eliminated.
 694              	.LVL79:
 695 0000 10B4     		push	{r4}
 696              		.cfi_def_cfa_offset 4
 697              		.cfi_offset 4, -4
  46:..\u8g2-master\csrc/u8x8_byte.c **** }
 698              		.loc 1 46 0
 699 0002 0469     		ldr	r4, [r0, #16]
 700 0004 1346     		mov	r3, r2
 701 0006 A446     		mov	ip, r4
 702 0008 0A46     		mov	r2, r1
 703              	.LVL80:
  47:..\u8g2-master\csrc/u8x8_byte.c **** 
 704              		.loc 1 47 0
 705 000a 10BC     		pop	{r4}
 706              		.cfi_restore 4
 707              		.cfi_def_cfa_offset 0
  46:..\u8g2-master\csrc/u8x8_byte.c **** }
 708              		.loc 1 46 0
 709 000c 1721     		movs	r1, #23
 710              	.LVL81:
 711 000e 6047     		bx	ip
 712              	.LVL82:
 713              		.cfi_endproc
 714              	.LFE1:
 715              		.size	u8x8_byte_SendBytes, .-u8x8_byte_SendBytes
 716              		.section	.text.u8x8_byte_SendByte,"ax",%progbits
 717              		.align	2
 718              		.global	u8x8_byte_SendByte
 719              		.thumb
 720              		.thumb_func
 721              		.type	u8x8_byte_SendByte, %function
 722              	u8x8_byte_SendByte:
 723              	.LFB2:
  50:..\u8g2-master\csrc/u8x8_byte.c ****   return u8x8_byte_SendBytes(u8x8, 1, &byte);
 724              		.loc 1 50 0
 725              		.cfi_startproc
ARM GAS  C:\Users\info\AppData\Local\Temp\ccAWUQ53.s 			page 25


 726              		@ args = 0, pretend = 0, frame = 8
 727              		@ frame_needed = 0, uses_anonymous_args = 0
 728              	.LVL83:
 729 0000 00B5     		push	{lr}
 730              		.cfi_def_cfa_offset 4
 731              		.cfi_offset 14, -4
 732 0002 83B0     		sub	sp, sp, #12
 733              		.cfi_def_cfa_offset 16
  50:..\u8g2-master\csrc/u8x8_byte.c ****   return u8x8_byte_SendBytes(u8x8, 1, &byte);
 734              		.loc 1 50 0
 735 0004 02AA     		add	r2, sp, #8
 736 0006 02F8011D 		strb	r1, [r2, #-1]!
  51:..\u8g2-master\csrc/u8x8_byte.c **** }
 737              		.loc 1 51 0
 738 000a 0121     		movs	r1, #1
 739              	.LVL84:
 740 000c FFF7FEFF 		bl	u8x8_byte_SendBytes
 741              	.LVL85:
  52:..\u8g2-master\csrc/u8x8_byte.c **** 
 742              		.loc 1 52 0
 743 0010 03B0     		add	sp, sp, #12
 744              		.cfi_def_cfa_offset 4
 745              		@ sp needed
 746 0012 5DF804FB 		ldr	pc, [sp], #4
 747              		.cfi_endproc
 748              	.LFE2:
 749              		.size	u8x8_byte_SendByte, .-u8x8_byte_SendByte
 750 0016 00BF     		.section	.text.u8x8_byte_StartTransfer,"ax",%progbits
 751              		.align	2
 752              		.global	u8x8_byte_StartTransfer
 753              		.thumb
 754              		.thumb_func
 755              		.type	u8x8_byte_StartTransfer, %function
 756              	u8x8_byte_StartTransfer:
 757              	.LFB3:
  55:..\u8g2-master\csrc/u8x8_byte.c ****   return u8x8->byte_cb(u8x8, U8X8_MSG_BYTE_START_TRANSFER, 0, NULL);
 758              		.loc 1 55 0
 759              		.cfi_startproc
 760              		@ args = 0, pretend = 0, frame = 0
 761              		@ frame_needed = 0, uses_anonymous_args = 0
 762              		@ link register save eliminated.
 763              	.LVL86:
 764 0000 10B4     		push	{r4}
 765              		.cfi_def_cfa_offset 4
 766              		.cfi_offset 4, -4
  56:..\u8g2-master\csrc/u8x8_byte.c **** }
 767              		.loc 1 56 0
 768 0002 0469     		ldr	r4, [r0, #16]
 769 0004 0023     		movs	r3, #0
 770 0006 A446     		mov	ip, r4
 771 0008 1A46     		mov	r2, r3
 772 000a 1821     		movs	r1, #24
  57:..\u8g2-master\csrc/u8x8_byte.c **** 
 773              		.loc 1 57 0
 774 000c 10BC     		pop	{r4}
 775              		.cfi_restore 4
 776              		.cfi_def_cfa_offset 0
ARM GAS  C:\Users\info\AppData\Local\Temp\ccAWUQ53.s 			page 26


  56:..\u8g2-master\csrc/u8x8_byte.c **** }
 777              		.loc 1 56 0
 778 000e 6047     		bx	ip
 779              	.LVL87:
 780              		.cfi_endproc
 781              	.LFE3:
 782              		.size	u8x8_byte_StartTransfer, .-u8x8_byte_StartTransfer
 783              		.section	.text.u8x8_byte_EndTransfer,"ax",%progbits
 784              		.align	2
 785              		.global	u8x8_byte_EndTransfer
 786              		.thumb
 787              		.thumb_func
 788              		.type	u8x8_byte_EndTransfer, %function
 789              	u8x8_byte_EndTransfer:
 790              	.LFB4:
  60:..\u8g2-master\csrc/u8x8_byte.c ****   return u8x8->byte_cb(u8x8, U8X8_MSG_BYTE_END_TRANSFER, 0, NULL);
 791              		.loc 1 60 0
 792              		.cfi_startproc
 793              		@ args = 0, pretend = 0, frame = 0
 794              		@ frame_needed = 0, uses_anonymous_args = 0
 795              		@ link register save eliminated.
 796              	.LVL88:
 797 0000 10B4     		push	{r4}
 798              		.cfi_def_cfa_offset 4
 799              		.cfi_offset 4, -4
  61:..\u8g2-master\csrc/u8x8_byte.c **** }
 800              		.loc 1 61 0
 801 0002 0469     		ldr	r4, [r0, #16]
 802 0004 0023     		movs	r3, #0
 803 0006 A446     		mov	ip, r4
 804 0008 1A46     		mov	r2, r3
 805 000a 1921     		movs	r1, #25
  62:..\u8g2-master\csrc/u8x8_byte.c **** 
 806              		.loc 1 62 0
 807 000c 10BC     		pop	{r4}
 808              		.cfi_restore 4
 809              		.cfi_def_cfa_offset 0
  61:..\u8g2-master\csrc/u8x8_byte.c **** }
 810              		.loc 1 61 0
 811 000e 6047     		bx	ip
 812              	.LVL89:
 813              		.cfi_endproc
 814              	.LFE4:
 815              		.size	u8x8_byte_EndTransfer, .-u8x8_byte_EndTransfer
 816              		.section	.text.u8x8_byte_empty,"ax",%progbits
 817              		.align	2
 818              		.global	u8x8_byte_empty
 819              		.thumb
 820              		.thumb_func
 821              		.type	u8x8_byte_empty, %function
 822              	u8x8_byte_empty:
 823              	.LFB5:
  67:..\u8g2-master\csrc/u8x8_byte.c ****   switch(msg)
 824              		.loc 1 67 0
 825              		.cfi_startproc
 826              		@ args = 0, pretend = 0, frame = 0
 827              		@ frame_needed = 0, uses_anonymous_args = 0
ARM GAS  C:\Users\info\AppData\Local\Temp\ccAWUQ53.s 			page 27


 828              		@ link register save eliminated.
 829              	.LVL90:
  78:..\u8g2-master\csrc/u8x8_byte.c **** 
 830              		.loc 1 78 0
 831 0000 0120     		movs	r0, #1
 832              	.LVL91:
 833 0002 7047     		bx	lr
 834              		.cfi_endproc
 835              	.LFE5:
 836              		.size	u8x8_byte_empty, .-u8x8_byte_empty
 837              		.section	.text.u8x8_byte_4wire_sw_spi,"ax",%progbits
 838              		.align	2
 839              		.global	u8x8_byte_4wire_sw_spi
 840              		.thumb
 841              		.thumb_func
 842              		.type	u8x8_byte_4wire_sw_spi, %function
 843              	u8x8_byte_4wire_sw_spi:
 844              	.LFB6:
 108:..\u8g2-master\csrc/u8x8_byte.c ****   uint8_t i, b;
 845              		.loc 1 108 0
 846              		.cfi_startproc
 847              		@ args = 0, pretend = 0, frame = 0
 848              		@ frame_needed = 0, uses_anonymous_args = 0
 849              	.LVL92:
 114:..\u8g2-master\csrc/u8x8_byte.c ****   {
 850              		.loc 1 114 0
 851 0000 1439     		subs	r1, r1, #20
 852              	.LVL93:
 108:..\u8g2-master\csrc/u8x8_byte.c ****   uint8_t i, b;
 853              		.loc 1 108 0
 854 0002 2DE9F047 		push	{r4, r5, r6, r7, r8, r9, r10, lr}
 855              		.cfi_def_cfa_offset 32
 856              		.cfi_offset 4, -32
 857              		.cfi_offset 5, -28
 858              		.cfi_offset 6, -24
 859              		.cfi_offset 7, -20
 860              		.cfi_offset 8, -16
 861              		.cfi_offset 9, -12
 862              		.cfi_offset 10, -8
 863              		.cfi_offset 14, -4
 108:..\u8g2-master\csrc/u8x8_byte.c ****   uint8_t i, b;
 864              		.loc 1 108 0
 865 0006 9946     		mov	r9, r3
 866 0008 0446     		mov	r4, r0
 111:..\u8g2-master\csrc/u8x8_byte.c ****   uint8_t not_takeover_edge = 1 - takeover_edge;
 867              		.loc 1 111 0
 868 000a 0368     		ldr	r3, [r0]
 869              	.LVL94:
 114:..\u8g2-master\csrc/u8x8_byte.c ****   {
 870              		.loc 1 114 0
 871 000c 0C29     		cmp	r1, #12
 872 000e 7BD8     		bhi	.L54
 873 0010 DFE801F0 		tbb	[pc, r1]
 874              	.LVL95:
 875              	.L42:
 876 0014 0E       		.byte	(.L41-.L42)/2
 877 0015 7A       		.byte	(.L54-.L42)/2
ARM GAS  C:\Users\info\AppData\Local\Temp\ccAWUQ53.s 			page 28


 878 0016 7A       		.byte	(.L54-.L42)/2
 879 0017 1E       		.byte	(.L43-.L42)/2
 880 0018 5C       		.byte	(.L44-.L42)/2
 881 0019 6B       		.byte	(.L45-.L42)/2
 882 001a 7A       		.byte	(.L54-.L42)/2
 883 001b 7A       		.byte	(.L54-.L42)/2
 884 001c 7A       		.byte	(.L54-.L42)/2
 885 001d 7A       		.byte	(.L54-.L42)/2
 886 001e 7A       		.byte	(.L54-.L42)/2
 887 001f 7A       		.byte	(.L54-.L42)/2
 888 0020 07       		.byte	(.L46-.L42)/2
 889 0021 00       		.p2align 1
 890              	.L46:
 148:..\u8g2-master\csrc/u8x8_byte.c ****       break;
 891              		.loc 1 148 0
 892 0022 2046     		mov	r0, r4
 893 0024 4A21     		movs	r1, #74
 894 0026 FFF7FEFF 		bl	u8x8_gpio_call
 895              	.LVL96:
 161:..\u8g2-master\csrc/u8x8_byte.c **** }
 896              		.loc 1 161 0
 897 002a 0120     		movs	r0, #1
 149:..\u8g2-master\csrc/u8x8_byte.c ****     case U8X8_MSG_BYTE_START_TRANSFER:
 898              		.loc 1 149 0
 899 002c BDE8F087 		pop	{r4, r5, r6, r7, r8, r9, r10, pc}
 900              	.LVL97:
 901              	.L41:
 141:..\u8g2-master\csrc/u8x8_byte.c ****       /* no wait required here */
 902              		.loc 1 141 0
 903 0030 5A78     		ldrb	r2, [r3, #1]	@ zero_extendqisi2
 904              	.LVL98:
 905 0032 2046     		mov	r0, r4
 906 0034 4921     		movs	r1, #73
 907 0036 FFF7FEFF 		bl	u8x8_gpio_call
 908              	.LVL99:
 145:..\u8g2-master\csrc/u8x8_byte.c ****       break;
 909              		.loc 1 145 0
 910 003a 2368     		ldr	r3, [r4]
 911 003c 2046     		mov	r0, r4
 912 003e 1A7B     		ldrb	r2, [r3, #12]	@ zero_extendqisi2
 913 0040 4021     		movs	r1, #64
 914 0042 02F00102 		and	r2, r2, #1
 915 0046 FFF7FEFF 		bl	u8x8_gpio_call
 916              	.LVL100:
 161:..\u8g2-master\csrc/u8x8_byte.c **** }
 917              		.loc 1 161 0
 918 004a 0120     		movs	r0, #1
 146:..\u8g2-master\csrc/u8x8_byte.c ****     case U8X8_MSG_BYTE_SET_DC:
 919              		.loc 1 146 0
 920 004c BDE8F087 		pop	{r4, r5, r6, r7, r8, r9, r10, pc}
 921              	.LVL101:
 922              	.L43:
 118:..\u8g2-master\csrc/u8x8_byte.c ****       {
 923              		.loc 1 118 0
 924 0050 002A     		cmp	r2, #0
 925 0052 47D0     		beq	.L59
 926 0054 02F1FF3A 		add	r10, r2, #-1
ARM GAS  C:\Users\info\AppData\Local\Temp\ccAWUQ53.s 			page 29


 111:..\u8g2-master\csrc/u8x8_byte.c ****   uint8_t not_takeover_edge = 1 - takeover_edge;
 927              		.loc 1 111 0
 928 0058 1F7B     		ldrb	r7, [r3, #12]	@ zero_extendqisi2
 929 005a 5FFA8AFA 		uxtb	r10, r10
 930 005e 0AF1010A 		add	r10, r10, #1
 931 0062 07F00107 		and	r7, r7, #1
 932 0066 CA44     		add	r10, r10, r9
 933 0068 C7F10108 		rsb	r8, r7, #1
 934              	.LVL102:
 935              	.L52:
 120:..\u8g2-master\csrc/u8x8_byte.c **** 	data++;
 936              		.loc 1 120 0
 937 006c 19F8016B 		ldrb	r6, [r9], #1	@ zero_extendqisi2
 938              	.LVL103:
 121:..\u8g2-master\csrc/u8x8_byte.c **** 	arg_int--;
 939              		.loc 1 121 0
 940 0070 0825     		movs	r5, #8
 941              	.LVL104:
 942              	.L49:
 125:..\u8g2-master\csrc/u8x8_byte.c **** 	    u8x8_gpio_SetSPIData(u8x8, 1);
 943              		.loc 1 125 0
 944 0072 16F0800F 		tst	r6, #128
 128:..\u8g2-master\csrc/u8x8_byte.c **** 	  b <<= 1;
 945              		.loc 1 128 0
 946 0076 4FF00002 		mov	r2, #0
 947 007a 4FF04101 		mov	r1, #65
 126:..\u8g2-master\csrc/u8x8_byte.c **** 	  else
 948              		.loc 1 126 0
 949 007e 18BF     		it	ne
 950 0080 0122     		movne	r2, #1
 128:..\u8g2-master\csrc/u8x8_byte.c **** 	  b <<= 1;
 951              		.loc 1 128 0
 952 0082 2046     		mov	r0, r4
 953 0084 FFF7FEFF 		bl	u8x8_gpio_call
 954              	.LVL105:
 131:..\u8g2-master\csrc/u8x8_byte.c **** 	  u8x8_gpio_Delay(u8x8, U8X8_MSG_DELAY_NANO, u8x8->display_info->sda_setup_time_ns);
 955              		.loc 1 131 0
 956 0088 5FFA88F2 		uxtb	r2, r8
 957 008c 4021     		movs	r1, #64
 958 008e 2046     		mov	r0, r4
 959 0090 FFF7FEFF 		bl	u8x8_gpio_call
 960              	.LVL106:
 132:..\u8g2-master\csrc/u8x8_byte.c **** 	  u8x8_gpio_SetSPIClock(u8x8, takeover_edge);
 961              		.loc 1 132 0
 962 0094 2368     		ldr	r3, [r4]
 963 0096 2C21     		movs	r1, #44
 964 0098 9A79     		ldrb	r2, [r3, #6]	@ zero_extendqisi2
 965 009a 2046     		mov	r0, r4
 966 009c FFF7FEFF 		bl	u8x8_gpio_call
 967              	.LVL107:
 133:..\u8g2-master\csrc/u8x8_byte.c **** 	  u8x8_gpio_Delay(u8x8, U8X8_MSG_DELAY_NANO, u8x8->display_info->sck_pulse_width_ns);
 968              		.loc 1 133 0
 969 00a0 3A46     		mov	r2, r7
 970 00a2 4021     		movs	r1, #64
 971 00a4 2046     		mov	r0, r4
 972 00a6 FFF7FEFF 		bl	u8x8_gpio_call
 973              	.LVL108:
ARM GAS  C:\Users\info\AppData\Local\Temp\ccAWUQ53.s 			page 30


 134:..\u8g2-master\csrc/u8x8_byte.c **** 	}    
 974              		.loc 1 134 0
 975 00aa 2368     		ldr	r3, [r4]
 976 00ac 2C21     		movs	r1, #44
 977 00ae DA79     		ldrb	r2, [r3, #7]	@ zero_extendqisi2
 978 00b0 2046     		mov	r0, r4
 979 00b2 FFF7FEFF 		bl	u8x8_gpio_call
 980              	.LVL109:
 981 00b6 6B1E     		subs	r3, r5, #1
 129:..\u8g2-master\csrc/u8x8_byte.c **** 	  
 982              		.loc 1 129 0
 983 00b8 7600     		lsls	r6, r6, #1
 984              	.LVL110:
 123:..\u8g2-master\csrc/u8x8_byte.c **** 	{
 985              		.loc 1 123 0
 986 00ba 13F0FF05 		ands	r5, r3, #255
 129:..\u8g2-master\csrc/u8x8_byte.c **** 	  
 987              		.loc 1 129 0
 988 00be F6B2     		uxtb	r6, r6
 989              	.LVL111:
 123:..\u8g2-master\csrc/u8x8_byte.c **** 	{
 990              		.loc 1 123 0
 991 00c0 D7D1     		bne	.L49
 118:..\u8g2-master\csrc/u8x8_byte.c ****       {
 992              		.loc 1 118 0
 993 00c2 D145     		cmp	r9, r10
 994 00c4 D2D1     		bne	.L52
 161:..\u8g2-master\csrc/u8x8_byte.c **** }
 995              		.loc 1 161 0
 996 00c6 0120     		movs	r0, #1
 153:..\u8g2-master\csrc/u8x8_byte.c ****     case U8X8_MSG_BYTE_END_TRANSFER:
 997              		.loc 1 153 0
 998 00c8 BDE8F087 		pop	{r4, r5, r6, r7, r8, r9, r10, pc}
 999              	.LVL112:
 1000              	.L44:
 151:..\u8g2-master\csrc/u8x8_byte.c ****       u8x8->gpio_and_delay_cb(u8x8, U8X8_MSG_DELAY_NANO, u8x8->display_info->post_chip_enable_wait_
 1001              		.loc 1 151 0
 1002 00cc 1A78     		ldrb	r2, [r3]	@ zero_extendqisi2
 1003              	.LVL113:
 1004 00ce 4921     		movs	r1, #73
 1005 00d0 2046     		mov	r0, r4
 1006 00d2 FFF7FEFF 		bl	u8x8_gpio_call
 1007              	.LVL114:
 152:..\u8g2-master\csrc/u8x8_byte.c ****       break;
 1008              		.loc 1 152 0
 1009 00d6 2368     		ldr	r3, [r4]
 1010 00d8 6569     		ldr	r5, [r4, #20]
 1011 00da 9A78     		ldrb	r2, [r3, #2]	@ zero_extendqisi2
 1012 00dc 2046     		mov	r0, r4
 1013 00de 0023     		movs	r3, #0
 1014 00e0 2C21     		movs	r1, #44
 1015 00e2 A847     		blx	r5
 1016              	.LVL115:
 1017              	.L59:
 161:..\u8g2-master\csrc/u8x8_byte.c **** }
 1018              		.loc 1 161 0
 1019 00e4 0120     		movs	r0, #1
ARM GAS  C:\Users\info\AppData\Local\Temp\ccAWUQ53.s 			page 31


 153:..\u8g2-master\csrc/u8x8_byte.c ****     case U8X8_MSG_BYTE_END_TRANSFER:
 1020              		.loc 1 153 0
 1021 00e6 BDE8F087 		pop	{r4, r5, r6, r7, r8, r9, r10, pc}
 1022              	.LVL116:
 1023              	.L45:
 155:..\u8g2-master\csrc/u8x8_byte.c ****       u8x8_gpio_SetCS(u8x8, u8x8->display_info->chip_disable_level);
 1024              		.loc 1 155 0
 1025 00ea DA78     		ldrb	r2, [r3, #3]	@ zero_extendqisi2
 1026              	.LVL117:
 1027 00ec 6569     		ldr	r5, [r4, #20]
 1028 00ee 0023     		movs	r3, #0
 1029              	.LVL118:
 1030 00f0 2C21     		movs	r1, #44
 1031 00f2 2046     		mov	r0, r4
 1032 00f4 A847     		blx	r5
 1033              	.LVL119:
 156:..\u8g2-master\csrc/u8x8_byte.c ****       break;
 1034              		.loc 1 156 0
 1035 00f6 2368     		ldr	r3, [r4]
 1036 00f8 2046     		mov	r0, r4
 1037 00fa 5A78     		ldrb	r2, [r3, #1]	@ zero_extendqisi2
 1038 00fc 4921     		movs	r1, #73
 1039 00fe FFF7FEFF 		bl	u8x8_gpio_call
 1040              	.LVL120:
 161:..\u8g2-master\csrc/u8x8_byte.c **** }
 1041              		.loc 1 161 0
 1042 0102 0120     		movs	r0, #1
 157:..\u8g2-master\csrc/u8x8_byte.c ****     default:
 1043              		.loc 1 157 0
 1044 0104 BDE8F087 		pop	{r4, r5, r6, r7, r8, r9, r10, pc}
 1045              	.LVL121:
 1046              	.L54:
 159:..\u8g2-master\csrc/u8x8_byte.c ****   }
 1047              		.loc 1 159 0
 1048 0108 0020     		movs	r0, #0
 162:..\u8g2-master\csrc/u8x8_byte.c **** 
 1049              		.loc 1 162 0
 1050 010a BDE8F087 		pop	{r4, r5, r6, r7, r8, r9, r10, pc}
 1051              		.cfi_endproc
 1052              	.LFE6:
 1053              		.size	u8x8_byte_4wire_sw_spi, .-u8x8_byte_4wire_sw_spi
 1054 010e 00BF     		.section	.text.u8x8_byte_8bit_6800mode,"ax",%progbits
 1055              		.align	2
 1056              		.global	u8x8_byte_8bit_6800mode
 1057              		.thumb
 1058              		.thumb_func
 1059              		.type	u8x8_byte_8bit_6800mode, %function
 1060              	u8x8_byte_8bit_6800mode:
 1061              	.LFB7:
 167:..\u8g2-master\csrc/u8x8_byte.c ****   uint8_t i, b;
 1062              		.loc 1 167 0
 1063              		.cfi_startproc
 1064              		@ args = 0, pretend = 0, frame = 0
 1065              		@ frame_needed = 0, uses_anonymous_args = 0
 1066              	.LVL122:
 171:..\u8g2-master\csrc/u8x8_byte.c ****   {
 1067              		.loc 1 171 0
ARM GAS  C:\Users\info\AppData\Local\Temp\ccAWUQ53.s 			page 32


 1068 0000 1439     		subs	r1, r1, #20
 1069              	.LVL123:
 167:..\u8g2-master\csrc/u8x8_byte.c ****   uint8_t i, b;
 1070              		.loc 1 167 0
 1071 0002 2DE9F041 		push	{r4, r5, r6, r7, r8, lr}
 1072              		.cfi_def_cfa_offset 24
 1073              		.cfi_offset 4, -24
 1074              		.cfi_offset 5, -20
 1075              		.cfi_offset 6, -16
 1076              		.cfi_offset 7, -12
 1077              		.cfi_offset 8, -8
 1078              		.cfi_offset 14, -4
 167:..\u8g2-master\csrc/u8x8_byte.c ****   uint8_t i, b;
 1079              		.loc 1 167 0
 1080 0006 0646     		mov	r6, r0
 1081 0008 1F46     		mov	r7, r3
 171:..\u8g2-master\csrc/u8x8_byte.c ****   {
 1082              		.loc 1 171 0
 1083 000a 0C29     		cmp	r1, #12
 1084 000c 6CD8     		bhi	.L73
 1085 000e DFE801F0 		tbb	[pc, r1]
 1086              	.LVL124:
 1087              	.L64:
 1088 0012 0D       		.byte	(.L63-.L64)/2
 1089 0013 6B       		.byte	(.L73-.L64)/2
 1090 0014 6B       		.byte	(.L73-.L64)/2
 1091 0015 1A       		.byte	(.L65-.L64)/2
 1092 0016 4D       		.byte	(.L66-.L64)/2
 1093 0017 5C       		.byte	(.L67-.L64)/2
 1094 0018 6B       		.byte	(.L73-.L64)/2
 1095 0019 6B       		.byte	(.L73-.L64)/2
 1096 001a 6B       		.byte	(.L73-.L64)/2
 1097 001b 6B       		.byte	(.L73-.L64)/2
 1098 001c 6B       		.byte	(.L73-.L64)/2
 1099 001d 6B       		.byte	(.L73-.L64)/2
 1100 001e 07       		.byte	(.L68-.L64)/2
 1101 001f 00       		.p2align 1
 1102              	.L68:
 200:..\u8g2-master\csrc/u8x8_byte.c ****       break;
 1103              		.loc 1 200 0
 1104 0020 4A21     		movs	r1, #74
 1105 0022 FFF7FEFF 		bl	u8x8_gpio_call
 1106              	.LVL125:
 213:..\u8g2-master\csrc/u8x8_byte.c **** }
 1107              		.loc 1 213 0
 1108 0026 0120     		movs	r0, #1
 201:..\u8g2-master\csrc/u8x8_byte.c ****     case U8X8_MSG_BYTE_START_TRANSFER:
 1109              		.loc 1 201 0
 1110 0028 BDE8F081 		pop	{r4, r5, r6, r7, r8, pc}
 1111              	.LVL126:
 1112              	.L63:
 195:..\u8g2-master\csrc/u8x8_byte.c ****       /* ensure that the enable signal is high */
 1113              		.loc 1 195 0
 1114 002c 0368     		ldr	r3, [r0]
 1115 002e 4921     		movs	r1, #73
 1116 0030 5A78     		ldrb	r2, [r3, #1]	@ zero_extendqisi2
 1117              	.LVL127:
ARM GAS  C:\Users\info\AppData\Local\Temp\ccAWUQ53.s 			page 33


 1118 0032 FFF7FEFF 		bl	u8x8_gpio_call
 1119              	.LVL128:
 197:..\u8g2-master\csrc/u8x8_byte.c ****       break;
 1120              		.loc 1 197 0
 1121 0036 3046     		mov	r0, r6
 1122 0038 0022     		movs	r2, #0
 1123 003a 4821     		movs	r1, #72
 1124 003c FFF7FEFF 		bl	u8x8_gpio_call
 1125              	.LVL129:
 213:..\u8g2-master\csrc/u8x8_byte.c **** }
 1126              		.loc 1 213 0
 1127 0040 0120     		movs	r0, #1
 198:..\u8g2-master\csrc/u8x8_byte.c ****     case U8X8_MSG_BYTE_SET_DC:
 1128              		.loc 1 198 0
 1129 0042 BDE8F081 		pop	{r4, r5, r6, r7, r8, pc}
 1130              	.LVL130:
 1131              	.L65:
 175:..\u8g2-master\csrc/u8x8_byte.c ****       {
 1132              		.loc 1 175 0
 1133 0046 002A     		cmp	r2, #0
 1134 0048 3CD0     		beq	.L77
 1135 004a 02F1FF38 		add	r8, r2, #-1
 1136 004e 5FFA88F8 		uxtb	r8, r8
 1137 0052 08F10108 		add	r8, r8, #1
 1138 0056 B844     		add	r8, r8, r7
 1139              	.LVL131:
 1140              	.L71:
 177:..\u8g2-master\csrc/u8x8_byte.c **** 	data++;
 1141              		.loc 1 177 0
 1142 0058 17F8015B 		ldrb	r5, [r7], #1	@ zero_extendqisi2
 1143              	.LVL132:
 180:..\u8g2-master\csrc/u8x8_byte.c **** 	{
 1144              		.loc 1 180 0
 1145 005c 4024     		movs	r4, #64
 1146              	.LVL133:
 1147              	.L70:
 182:..\u8g2-master\csrc/u8x8_byte.c **** 	  b >>= 1;
 1148              		.loc 1 182 0 discriminator 3
 1149 005e 2146     		mov	r1, r4
 180:..\u8g2-master\csrc/u8x8_byte.c **** 	{
 1150              		.loc 1 180 0 discriminator 3
 1151 0060 0134     		adds	r4, r4, #1
 1152              	.LVL134:
 182:..\u8g2-master\csrc/u8x8_byte.c **** 	  b >>= 1;
 1153              		.loc 1 182 0 discriminator 3
 1154 0062 05F00102 		and	r2, r5, #1
 1155 0066 3046     		mov	r0, r6
 180:..\u8g2-master\csrc/u8x8_byte.c **** 	{
 1156              		.loc 1 180 0 discriminator 3
 1157 0068 E4B2     		uxtb	r4, r4
 182:..\u8g2-master\csrc/u8x8_byte.c **** 	  b >>= 1;
 1158              		.loc 1 182 0 discriminator 3
 1159 006a FFF7FEFF 		bl	u8x8_gpio_call
 1160              	.LVL135:
 180:..\u8g2-master\csrc/u8x8_byte.c **** 	{
 1161              		.loc 1 180 0 discriminator 3
 1162 006e 482C     		cmp	r4, #72
ARM GAS  C:\Users\info\AppData\Local\Temp\ccAWUQ53.s 			page 34


 183:..\u8g2-master\csrc/u8x8_byte.c **** 	}    
 1163              		.loc 1 183 0 discriminator 3
 1164 0070 4FEA5505 		lsr	r5, r5, #1
 1165              	.LVL136:
 180:..\u8g2-master\csrc/u8x8_byte.c **** 	{
 1166              		.loc 1 180 0 discriminator 3
 1167 0074 F3D1     		bne	.L70
 186:..\u8g2-master\csrc/u8x8_byte.c **** 	u8x8_gpio_call(u8x8, U8X8_MSG_GPIO_E, 1);
 1168              		.loc 1 186 0
 1169 0076 3368     		ldr	r3, [r6]
 1170 0078 2C21     		movs	r1, #44
 1171 007a 9A7B     		ldrb	r2, [r3, #14]	@ zero_extendqisi2
 1172 007c 3046     		mov	r0, r6
 1173 007e FFF7FEFF 		bl	u8x8_gpio_call
 1174              	.LVL137:
 187:..\u8g2-master\csrc/u8x8_byte.c **** 	u8x8_gpio_Delay(u8x8, U8X8_MSG_DELAY_NANO, u8x8->display_info->write_pulse_width_ns);
 1175              		.loc 1 187 0
 1176 0082 0122     		movs	r2, #1
 1177 0084 2146     		mov	r1, r4
 1178 0086 3046     		mov	r0, r6
 1179 0088 FFF7FEFF 		bl	u8x8_gpio_call
 1180              	.LVL138:
 188:..\u8g2-master\csrc/u8x8_byte.c **** 	u8x8_gpio_call(u8x8, U8X8_MSG_GPIO_E, 0);
 1181              		.loc 1 188 0
 1182 008c 3368     		ldr	r3, [r6]
 1183 008e 2C21     		movs	r1, #44
 1184 0090 DA7B     		ldrb	r2, [r3, #15]	@ zero_extendqisi2
 1185 0092 3046     		mov	r0, r6
 1186 0094 FFF7FEFF 		bl	u8x8_gpio_call
 1187              	.LVL139:
 189:..\u8g2-master\csrc/u8x8_byte.c ****       }
 1188              		.loc 1 189 0
 1189 0098 2146     		mov	r1, r4
 1190 009a 0022     		movs	r2, #0
 1191 009c 3046     		mov	r0, r6
 1192 009e FFF7FEFF 		bl	u8x8_gpio_call
 1193              	.LVL140:
 175:..\u8g2-master\csrc/u8x8_byte.c ****       {
 1194              		.loc 1 175 0
 1195 00a2 B845     		cmp	r8, r7
 1196 00a4 D8D1     		bne	.L71
 213:..\u8g2-master\csrc/u8x8_byte.c **** }
 1197              		.loc 1 213 0
 1198 00a6 0120     		movs	r0, #1
 205:..\u8g2-master\csrc/u8x8_byte.c ****     case U8X8_MSG_BYTE_END_TRANSFER:
 1199              		.loc 1 205 0
 1200 00a8 BDE8F081 		pop	{r4, r5, r6, r7, r8, pc}
 1201              	.LVL141:
 1202              	.L66:
 203:..\u8g2-master\csrc/u8x8_byte.c ****       u8x8->gpio_and_delay_cb(u8x8, U8X8_MSG_DELAY_NANO, u8x8->display_info->post_chip_enable_wait_
 1203              		.loc 1 203 0
 1204 00ac 0368     		ldr	r3, [r0]
 1205 00ae 4921     		movs	r1, #73
 1206 00b0 1A78     		ldrb	r2, [r3]	@ zero_extendqisi2
 1207              	.LVL142:
 1208 00b2 FFF7FEFF 		bl	u8x8_gpio_call
 1209              	.LVL143:
ARM GAS  C:\Users\info\AppData\Local\Temp\ccAWUQ53.s 			page 35


 204:..\u8g2-master\csrc/u8x8_byte.c ****       break;
 1210              		.loc 1 204 0
 1211 00b6 3368     		ldr	r3, [r6]
 1212 00b8 7469     		ldr	r4, [r6, #20]
 1213 00ba 9A78     		ldrb	r2, [r3, #2]	@ zero_extendqisi2
 1214 00bc 3046     		mov	r0, r6
 1215 00be 0023     		movs	r3, #0
 1216 00c0 2C21     		movs	r1, #44
 1217 00c2 A047     		blx	r4
 1218              	.LVL144:
 1219              	.L77:
 213:..\u8g2-master\csrc/u8x8_byte.c **** }
 1220              		.loc 1 213 0
 1221 00c4 0120     		movs	r0, #1
 205:..\u8g2-master\csrc/u8x8_byte.c ****     case U8X8_MSG_BYTE_END_TRANSFER:
 1222              		.loc 1 205 0
 1223 00c6 BDE8F081 		pop	{r4, r5, r6, r7, r8, pc}
 1224              	.LVL145:
 1225              	.L67:
 207:..\u8g2-master\csrc/u8x8_byte.c ****       u8x8_gpio_SetCS(u8x8, u8x8->display_info->chip_disable_level);
 1226              		.loc 1 207 0
 1227 00ca 0368     		ldr	r3, [r0]
 1228 00cc 4469     		ldr	r4, [r0, #20]
 1229 00ce DA78     		ldrb	r2, [r3, #3]	@ zero_extendqisi2
 1230              	.LVL146:
 1231 00d0 2C21     		movs	r1, #44
 1232 00d2 0023     		movs	r3, #0
 1233 00d4 A047     		blx	r4
 1234              	.LVL147:
 208:..\u8g2-master\csrc/u8x8_byte.c ****       break;
 1235              		.loc 1 208 0
 1236 00d6 3368     		ldr	r3, [r6]
 1237 00d8 3046     		mov	r0, r6
 1238 00da 5A78     		ldrb	r2, [r3, #1]	@ zero_extendqisi2
 1239 00dc 4921     		movs	r1, #73
 1240 00de FFF7FEFF 		bl	u8x8_gpio_call
 1241              	.LVL148:
 213:..\u8g2-master\csrc/u8x8_byte.c **** }
 1242              		.loc 1 213 0
 1243 00e2 0120     		movs	r0, #1
 209:..\u8g2-master\csrc/u8x8_byte.c ****     default:
 1244              		.loc 1 209 0
 1245 00e4 BDE8F081 		pop	{r4, r5, r6, r7, r8, pc}
 1246              	.LVL149:
 1247              	.L73:
 211:..\u8g2-master\csrc/u8x8_byte.c ****   }
 1248              		.loc 1 211 0
 1249 00e8 0020     		movs	r0, #0
 1250              	.LVL150:
 214:..\u8g2-master\csrc/u8x8_byte.c **** 
 1251              		.loc 1 214 0
 1252 00ea BDE8F081 		pop	{r4, r5, r6, r7, r8, pc}
 1253              		.cfi_endproc
 1254              	.LFE7:
 1255              		.size	u8x8_byte_8bit_6800mode, .-u8x8_byte_8bit_6800mode
 1256 00ee 00BF     		.section	.text.u8x8_byte_8bit_8080mode,"ax",%progbits
 1257              		.align	2
ARM GAS  C:\Users\info\AppData\Local\Temp\ccAWUQ53.s 			page 36


 1258              		.global	u8x8_byte_8bit_8080mode
 1259              		.thumb
 1260              		.thumb_func
 1261              		.type	u8x8_byte_8bit_8080mode, %function
 1262              	u8x8_byte_8bit_8080mode:
 1263              	.LFB8:
 217:..\u8g2-master\csrc/u8x8_byte.c ****   uint8_t i, b;
 1264              		.loc 1 217 0
 1265              		.cfi_startproc
 1266              		@ args = 0, pretend = 0, frame = 0
 1267              		@ frame_needed = 0, uses_anonymous_args = 0
 1268              	.LVL151:
 221:..\u8g2-master\csrc/u8x8_byte.c ****   {
 1269              		.loc 1 221 0
 1270 0000 1439     		subs	r1, r1, #20
 1271              	.LVL152:
 217:..\u8g2-master\csrc/u8x8_byte.c ****   uint8_t i, b;
 1272              		.loc 1 217 0
 1273 0002 2DE9F041 		push	{r4, r5, r6, r7, r8, lr}
 1274              		.cfi_def_cfa_offset 24
 1275              		.cfi_offset 4, -24
 1276              		.cfi_offset 5, -20
 1277              		.cfi_offset 6, -16
 1278              		.cfi_offset 7, -12
 1279              		.cfi_offset 8, -8
 1280              		.cfi_offset 14, -4
 217:..\u8g2-master\csrc/u8x8_byte.c ****   uint8_t i, b;
 1281              		.loc 1 217 0
 1282 0006 0646     		mov	r6, r0
 1283 0008 1F46     		mov	r7, r3
 221:..\u8g2-master\csrc/u8x8_byte.c ****   {
 1284              		.loc 1 221 0
 1285 000a 0C29     		cmp	r1, #12
 1286 000c 6CD8     		bhi	.L90
 1287 000e DFE801F0 		tbb	[pc, r1]
 1288              	.LVL153:
 1289              	.L81:
 1290 0012 0D       		.byte	(.L80-.L81)/2
 1291 0013 6B       		.byte	(.L90-.L81)/2
 1292 0014 6B       		.byte	(.L90-.L81)/2
 1293 0015 1A       		.byte	(.L82-.L81)/2
 1294 0016 4D       		.byte	(.L83-.L81)/2
 1295 0017 5C       		.byte	(.L84-.L81)/2
 1296 0018 6B       		.byte	(.L90-.L81)/2
 1297 0019 6B       		.byte	(.L90-.L81)/2
 1298 001a 6B       		.byte	(.L90-.L81)/2
 1299 001b 6B       		.byte	(.L90-.L81)/2
 1300 001c 6B       		.byte	(.L90-.L81)/2
 1301 001d 6B       		.byte	(.L90-.L81)/2
 1302 001e 07       		.byte	(.L85-.L81)/2
 1303 001f 00       		.p2align 1
 1304              	.L85:
 250:..\u8g2-master\csrc/u8x8_byte.c ****       break;
 1305              		.loc 1 250 0
 1306 0020 4A21     		movs	r1, #74
 1307 0022 FFF7FEFF 		bl	u8x8_gpio_call
 1308              	.LVL154:
ARM GAS  C:\Users\info\AppData\Local\Temp\ccAWUQ53.s 			page 37


 263:..\u8g2-master\csrc/u8x8_byte.c **** }
 1309              		.loc 1 263 0
 1310 0026 0120     		movs	r0, #1
 251:..\u8g2-master\csrc/u8x8_byte.c ****     case U8X8_MSG_BYTE_START_TRANSFER:
 1311              		.loc 1 251 0
 1312 0028 BDE8F081 		pop	{r4, r5, r6, r7, r8, pc}
 1313              	.LVL155:
 1314              	.L80:
 245:..\u8g2-master\csrc/u8x8_byte.c ****       /* ensure that the enable signal is high */
 1315              		.loc 1 245 0
 1316 002c 0368     		ldr	r3, [r0]
 1317 002e 4921     		movs	r1, #73
 1318 0030 5A78     		ldrb	r2, [r3, #1]	@ zero_extendqisi2
 1319              	.LVL156:
 1320 0032 FFF7FEFF 		bl	u8x8_gpio_call
 1321              	.LVL157:
 247:..\u8g2-master\csrc/u8x8_byte.c ****       break;
 1322              		.loc 1 247 0
 1323 0036 3046     		mov	r0, r6
 1324 0038 0122     		movs	r2, #1
 1325 003a 4821     		movs	r1, #72
 1326 003c FFF7FEFF 		bl	u8x8_gpio_call
 1327              	.LVL158:
 263:..\u8g2-master\csrc/u8x8_byte.c **** }
 1328              		.loc 1 263 0
 1329 0040 0120     		movs	r0, #1
 248:..\u8g2-master\csrc/u8x8_byte.c ****     case U8X8_MSG_BYTE_SET_DC:
 1330              		.loc 1 248 0
 1331 0042 BDE8F081 		pop	{r4, r5, r6, r7, r8, pc}
 1332              	.LVL159:
 1333              	.L82:
 225:..\u8g2-master\csrc/u8x8_byte.c ****       {
 1334              		.loc 1 225 0
 1335 0046 002A     		cmp	r2, #0
 1336 0048 3CD0     		beq	.L94
 1337 004a 02F1FF38 		add	r8, r2, #-1
 1338 004e 5FFA88F8 		uxtb	r8, r8
 1339 0052 08F10108 		add	r8, r8, #1
 1340 0056 B844     		add	r8, r8, r7
 1341              	.LVL160:
 1342              	.L88:
 227:..\u8g2-master\csrc/u8x8_byte.c **** 	data++;
 1343              		.loc 1 227 0
 1344 0058 17F8015B 		ldrb	r5, [r7], #1	@ zero_extendqisi2
 1345              	.LVL161:
 230:..\u8g2-master\csrc/u8x8_byte.c **** 	{
 1346              		.loc 1 230 0
 1347 005c 4024     		movs	r4, #64
 1348              	.LVL162:
 1349              	.L87:
 232:..\u8g2-master\csrc/u8x8_byte.c **** 	  b >>= 1;
 1350              		.loc 1 232 0 discriminator 3
 1351 005e 2146     		mov	r1, r4
 230:..\u8g2-master\csrc/u8x8_byte.c **** 	{
 1352              		.loc 1 230 0 discriminator 3
 1353 0060 0134     		adds	r4, r4, #1
 1354              	.LVL163:
ARM GAS  C:\Users\info\AppData\Local\Temp\ccAWUQ53.s 			page 38


 232:..\u8g2-master\csrc/u8x8_byte.c **** 	  b >>= 1;
 1355              		.loc 1 232 0 discriminator 3
 1356 0062 05F00102 		and	r2, r5, #1
 1357 0066 3046     		mov	r0, r6
 230:..\u8g2-master\csrc/u8x8_byte.c **** 	{
 1358              		.loc 1 230 0 discriminator 3
 1359 0068 E4B2     		uxtb	r4, r4
 232:..\u8g2-master\csrc/u8x8_byte.c **** 	  b >>= 1;
 1360              		.loc 1 232 0 discriminator 3
 1361 006a FFF7FEFF 		bl	u8x8_gpio_call
 1362              	.LVL164:
 230:..\u8g2-master\csrc/u8x8_byte.c **** 	{
 1363              		.loc 1 230 0 discriminator 3
 1364 006e 482C     		cmp	r4, #72
 233:..\u8g2-master\csrc/u8x8_byte.c **** 	}    
 1365              		.loc 1 233 0 discriminator 3
 1366 0070 4FEA5505 		lsr	r5, r5, #1
 1367              	.LVL165:
 230:..\u8g2-master\csrc/u8x8_byte.c **** 	{
 1368              		.loc 1 230 0 discriminator 3
 1369 0074 F3D1     		bne	.L87
 236:..\u8g2-master\csrc/u8x8_byte.c **** 	u8x8_gpio_call(u8x8, U8X8_MSG_GPIO_E, 0);
 1370              		.loc 1 236 0
 1371 0076 3368     		ldr	r3, [r6]
 1372 0078 2C21     		movs	r1, #44
 1373 007a 9A7B     		ldrb	r2, [r3, #14]	@ zero_extendqisi2
 1374 007c 3046     		mov	r0, r6
 1375 007e FFF7FEFF 		bl	u8x8_gpio_call
 1376              	.LVL166:
 237:..\u8g2-master\csrc/u8x8_byte.c **** 	u8x8_gpio_Delay(u8x8, U8X8_MSG_DELAY_NANO, u8x8->display_info->write_pulse_width_ns);
 1377              		.loc 1 237 0
 1378 0082 0022     		movs	r2, #0
 1379 0084 2146     		mov	r1, r4
 1380 0086 3046     		mov	r0, r6
 1381 0088 FFF7FEFF 		bl	u8x8_gpio_call
 1382              	.LVL167:
 238:..\u8g2-master\csrc/u8x8_byte.c **** 	u8x8_gpio_call(u8x8, U8X8_MSG_GPIO_E, 1);
 1383              		.loc 1 238 0
 1384 008c 3368     		ldr	r3, [r6]
 1385 008e 2C21     		movs	r1, #44
 1386 0090 DA7B     		ldrb	r2, [r3, #15]	@ zero_extendqisi2
 1387 0092 3046     		mov	r0, r6
 1388 0094 FFF7FEFF 		bl	u8x8_gpio_call
 1389              	.LVL168:
 239:..\u8g2-master\csrc/u8x8_byte.c ****       }
 1390              		.loc 1 239 0
 1391 0098 2146     		mov	r1, r4
 1392 009a 0122     		movs	r2, #1
 1393 009c 3046     		mov	r0, r6
 1394 009e FFF7FEFF 		bl	u8x8_gpio_call
 1395              	.LVL169:
 225:..\u8g2-master\csrc/u8x8_byte.c ****       {
 1396              		.loc 1 225 0
 1397 00a2 B845     		cmp	r8, r7
 1398 00a4 D8D1     		bne	.L88
 263:..\u8g2-master\csrc/u8x8_byte.c **** }
 1399              		.loc 1 263 0
ARM GAS  C:\Users\info\AppData\Local\Temp\ccAWUQ53.s 			page 39


 1400 00a6 0120     		movs	r0, #1
 255:..\u8g2-master\csrc/u8x8_byte.c ****     case U8X8_MSG_BYTE_END_TRANSFER:
 1401              		.loc 1 255 0
 1402 00a8 BDE8F081 		pop	{r4, r5, r6, r7, r8, pc}
 1403              	.LVL170:
 1404              	.L83:
 253:..\u8g2-master\csrc/u8x8_byte.c ****       u8x8->gpio_and_delay_cb(u8x8, U8X8_MSG_DELAY_NANO, u8x8->display_info->post_chip_enable_wait_
 1405              		.loc 1 253 0
 1406 00ac 0368     		ldr	r3, [r0]
 1407 00ae 4921     		movs	r1, #73
 1408 00b0 1A78     		ldrb	r2, [r3]	@ zero_extendqisi2
 1409              	.LVL171:
 1410 00b2 FFF7FEFF 		bl	u8x8_gpio_call
 1411              	.LVL172:
 254:..\u8g2-master\csrc/u8x8_byte.c ****       break;
 1412              		.loc 1 254 0
 1413 00b6 3368     		ldr	r3, [r6]
 1414 00b8 7469     		ldr	r4, [r6, #20]
 1415 00ba 9A78     		ldrb	r2, [r3, #2]	@ zero_extendqisi2
 1416 00bc 3046     		mov	r0, r6
 1417 00be 0023     		movs	r3, #0
 1418 00c0 2C21     		movs	r1, #44
 1419 00c2 A047     		blx	r4
 1420              	.LVL173:
 1421              	.L94:
 263:..\u8g2-master\csrc/u8x8_byte.c **** }
 1422              		.loc 1 263 0
 1423 00c4 0120     		movs	r0, #1
 255:..\u8g2-master\csrc/u8x8_byte.c ****     case U8X8_MSG_BYTE_END_TRANSFER:
 1424              		.loc 1 255 0
 1425 00c6 BDE8F081 		pop	{r4, r5, r6, r7, r8, pc}
 1426              	.LVL174:
 1427              	.L84:
 257:..\u8g2-master\csrc/u8x8_byte.c ****       u8x8_gpio_SetCS(u8x8, u8x8->display_info->chip_disable_level);
 1428              		.loc 1 257 0
 1429 00ca 0368     		ldr	r3, [r0]
 1430 00cc 4469     		ldr	r4, [r0, #20]
 1431 00ce DA78     		ldrb	r2, [r3, #3]	@ zero_extendqisi2
 1432              	.LVL175:
 1433 00d0 2C21     		movs	r1, #44
 1434 00d2 0023     		movs	r3, #0
 1435 00d4 A047     		blx	r4
 1436              	.LVL176:
 258:..\u8g2-master\csrc/u8x8_byte.c ****       break;
 1437              		.loc 1 258 0
 1438 00d6 3368     		ldr	r3, [r6]
 1439 00d8 3046     		mov	r0, r6
 1440 00da 5A78     		ldrb	r2, [r3, #1]	@ zero_extendqisi2
 1441 00dc 4921     		movs	r1, #73
 1442 00de FFF7FEFF 		bl	u8x8_gpio_call
 1443              	.LVL177:
 263:..\u8g2-master\csrc/u8x8_byte.c **** }
 1444              		.loc 1 263 0
 1445 00e2 0120     		movs	r0, #1
 259:..\u8g2-master\csrc/u8x8_byte.c ****     default:
 1446              		.loc 1 259 0
 1447 00e4 BDE8F081 		pop	{r4, r5, r6, r7, r8, pc}
ARM GAS  C:\Users\info\AppData\Local\Temp\ccAWUQ53.s 			page 40


 1448              	.LVL178:
 1449              	.L90:
 261:..\u8g2-master\csrc/u8x8_byte.c ****   }
 1450              		.loc 1 261 0
 1451 00e8 0020     		movs	r0, #0
 1452              	.LVL179:
 264:..\u8g2-master\csrc/u8x8_byte.c **** 
 1453              		.loc 1 264 0
 1454 00ea BDE8F081 		pop	{r4, r5, r6, r7, r8, pc}
 1455              		.cfi_endproc
 1456              	.LFE8:
 1457              		.size	u8x8_byte_8bit_8080mode, .-u8x8_byte_8bit_8080mode
 1458 00ee 00BF     		.section	.text.u8x8_byte_3wire_sw_spi,"ax",%progbits
 1459              		.align	2
 1460              		.global	u8x8_byte_3wire_sw_spi
 1461              		.thumb
 1462              		.thumb_func
 1463              		.type	u8x8_byte_3wire_sw_spi, %function
 1464              	u8x8_byte_3wire_sw_spi:
 1465              	.LFB9:
 269:..\u8g2-master\csrc/u8x8_byte.c ****   uint8_t i;
 1466              		.loc 1 269 0
 1467              		.cfi_startproc
 1468              		@ args = 0, pretend = 0, frame = 0
 1469              		@ frame_needed = 0, uses_anonymous_args = 0
 1470              	.LVL180:
 277:..\u8g2-master\csrc/u8x8_byte.c ****   {
 1471              		.loc 1 277 0
 1472 0000 1439     		subs	r1, r1, #20
 1473              	.LVL181:
 269:..\u8g2-master\csrc/u8x8_byte.c ****   uint8_t i;
 1474              		.loc 1 269 0
 1475 0002 2DE9F84F 		push	{r3, r4, r5, r6, r7, r8, r9, r10, fp, lr}
 1476              		.cfi_def_cfa_offset 40
 1477              		.cfi_offset 3, -40
 1478              		.cfi_offset 4, -36
 1479              		.cfi_offset 5, -32
 1480              		.cfi_offset 6, -28
 1481              		.cfi_offset 7, -24
 1482              		.cfi_offset 8, -20
 1483              		.cfi_offset 9, -16
 1484              		.cfi_offset 10, -12
 1485              		.cfi_offset 11, -8
 1486              		.cfi_offset 14, -4
 269:..\u8g2-master\csrc/u8x8_byte.c ****   uint8_t i;
 1487              		.loc 1 269 0
 1488 0006 0446     		mov	r4, r0
 272:..\u8g2-master\csrc/u8x8_byte.c ****   uint8_t not_takeover_edge = 1 - takeover_edge;
 1489              		.loc 1 272 0
 1490 0008 0068     		ldr	r0, [r0]
 1491              	.LVL182:
 277:..\u8g2-master\csrc/u8x8_byte.c ****   {
 1492              		.loc 1 277 0
 1493 000a 0C29     		cmp	r1, #12
 1494 000c 00F28180 		bhi	.L111
 1495 0010 DFE801F0 		tbb	[pc, r1]
 1496              	.L98:
ARM GAS  C:\Users\info\AppData\Local\Temp\ccAWUQ53.s 			page 41


 1497 0014 0C       		.byte	(.L97-.L98)/2
 1498 0015 7F       		.byte	(.L111-.L98)/2
 1499 0016 7F       		.byte	(.L111-.L98)/2
 1500 0017 1C       		.byte	(.L99-.L98)/2
 1501 0018 61       		.byte	(.L100-.L98)/2
 1502 0019 70       		.byte	(.L101-.L98)/2
 1503 001a 7F       		.byte	(.L111-.L98)/2
 1504 001b 7F       		.byte	(.L111-.L98)/2
 1505 001c 7F       		.byte	(.L111-.L98)/2
 1506 001d 7F       		.byte	(.L111-.L98)/2
 1507 001e 7F       		.byte	(.L111-.L98)/2
 1508 001f 7F       		.byte	(.L111-.L98)/2
 1509 0020 07       		.byte	(.L102-.L98)/2
 1510 0021 00       		.p2align 1
 1511              	.L102:
 313:..\u8g2-master\csrc/u8x8_byte.c ****       break;
 1512              		.loc 1 313 0
 1513 0022 3D4B     		ldr	r3, .L122
 1514              	.LVL183:
 326:..\u8g2-master\csrc/u8x8_byte.c **** }
 1515              		.loc 1 326 0
 1516 0024 0120     		movs	r0, #1
 1517              	.LVL184:
 313:..\u8g2-master\csrc/u8x8_byte.c ****       break;
 1518              		.loc 1 313 0
 1519 0026 1A70     		strb	r2, [r3]
 314:..\u8g2-master\csrc/u8x8_byte.c ****     case U8X8_MSG_BYTE_START_TRANSFER:
 1520              		.loc 1 314 0
 1521 0028 BDE8F88F 		pop	{r3, r4, r5, r6, r7, r8, r9, r10, fp, pc}
 1522              	.LVL185:
 1523              	.L97:
 306:..\u8g2-master\csrc/u8x8_byte.c ****       /* no wait required here */
 1524              		.loc 1 306 0
 1525 002c 4278     		ldrb	r2, [r0, #1]	@ zero_extendqisi2
 1526              	.LVL186:
 1527 002e 4921     		movs	r1, #73
 1528 0030 2046     		mov	r0, r4
 1529              	.LVL187:
 1530 0032 FFF7FEFF 		bl	u8x8_gpio_call
 1531              	.LVL188:
 310:..\u8g2-master\csrc/u8x8_byte.c ****       break;
 1532              		.loc 1 310 0
 1533 0036 2368     		ldr	r3, [r4]
 1534 0038 2046     		mov	r0, r4
 1535 003a 1A7B     		ldrb	r2, [r3, #12]	@ zero_extendqisi2
 1536 003c 4021     		movs	r1, #64
 1537 003e 02F00102 		and	r2, r2, #1
 1538 0042 FFF7FEFF 		bl	u8x8_gpio_call
 1539              	.LVL189:
 326:..\u8g2-master\csrc/u8x8_byte.c **** }
 1540              		.loc 1 326 0
 1541 0046 0120     		movs	r0, #1
 311:..\u8g2-master\csrc/u8x8_byte.c ****     case U8X8_MSG_BYTE_SET_DC:
 1542              		.loc 1 311 0
 1543 0048 BDE8F88F 		pop	{r3, r4, r5, r6, r7, r8, r9, r10, fp, pc}
 1544              	.LVL190:
 1545              	.L99:
ARM GAS  C:\Users\info\AppData\Local\Temp\ccAWUQ53.s 			page 42


 281:..\u8g2-master\csrc/u8x8_byte.c ****       {
 1546              		.loc 1 281 0
 1547 004c 002A     		cmp	r2, #0
 1548 004e 4ED0     		beq	.L120
 272:..\u8g2-master\csrc/u8x8_byte.c ****   uint8_t not_takeover_edge = 1 - takeover_edge;
 1549              		.loc 1 272 0
 1550 0050 077B     		ldrb	r7, [r0, #12]	@ zero_extendqisi2
 1551 0052 02F1FF3A 		add	r10, r2, #-1
 1552 0056 07F00107 		and	r7, r7, #1
 1553 005a 5FFA8AFA 		uxtb	r10, r10
 1554 005e DFF8B8B0 		ldr	fp, .L122
 1555 0062 9A44     		add	r10, r10, r3
 1556 0064 03F1FF39 		add	r9, r3, #-1
 1557 0068 C7F10108 		rsb	r8, r7, #1
 1558              	.LVL191:
 1559              	.L109:
 284:..\u8g2-master\csrc/u8x8_byte.c **** 	  b |= 256;
 1560              		.loc 1 284 0
 1561 006c 9BF80030 		ldrb	r3, [fp]	@ zero_extendqisi2
 283:..\u8g2-master\csrc/u8x8_byte.c **** 	if ( last_dc != 0 )
 1562              		.loc 1 283 0
 1563 0070 19F8015F 		ldrb	r5, [r9, #1]!	@ zero_extendqisi2
 1564              	.LVL192:
 284:..\u8g2-master\csrc/u8x8_byte.c **** 	  b |= 256;
 1565              		.loc 1 284 0
 1566 0074 0BB1     		cbz	r3, .L103
 285:..\u8g2-master\csrc/u8x8_byte.c **** 	data++;
 1567              		.loc 1 285 0
 1568 0076 45F48075 		orr	r5, r5, #256
 1569              	.LVL193:
 1570              	.L103:
 269:..\u8g2-master\csrc/u8x8_byte.c ****   uint8_t i;
 1571              		.loc 1 269 0
 1572 007a 0926     		movs	r6, #9
 1573              	.LVL194:
 1574              	.L106:
 290:..\u8g2-master\csrc/u8x8_byte.c **** 	    u8x8_gpio_SetSPIData(u8x8, 1);
 1575              		.loc 1 290 0
 1576 007c 05F48073 		and	r3, r5, #256
 1577 0080 9BB2     		uxth	r3, r3
 291:..\u8g2-master\csrc/u8x8_byte.c **** 	  else
 1578              		.loc 1 291 0
 1579 0082 0122     		movs	r2, #1
 1580 0084 4121     		movs	r1, #65
 290:..\u8g2-master\csrc/u8x8_byte.c **** 	    u8x8_gpio_SetSPIData(u8x8, 1);
 1581              		.loc 1 290 0
 1582 0086 0BB9     		cbnz	r3, .L119
 293:..\u8g2-master\csrc/u8x8_byte.c **** 	  b <<= 1;
 1583              		.loc 1 293 0
 1584 0088 1A46     		mov	r2, r3
 1585 008a 4121     		movs	r1, #65
 1586              	.L119:
 1587 008c 2046     		mov	r0, r4
 1588 008e FFF7FEFF 		bl	u8x8_gpio_call
 1589              	.LVL195:
 296:..\u8g2-master\csrc/u8x8_byte.c **** 	  u8x8_gpio_Delay(u8x8, U8X8_MSG_DELAY_NANO, u8x8->display_info->sda_setup_time_ns);
 1590              		.loc 1 296 0
ARM GAS  C:\Users\info\AppData\Local\Temp\ccAWUQ53.s 			page 43


 1591 0092 5FFA88F2 		uxtb	r2, r8
 1592 0096 4021     		movs	r1, #64
 1593 0098 2046     		mov	r0, r4
 1594 009a FFF7FEFF 		bl	u8x8_gpio_call
 1595              	.LVL196:
 297:..\u8g2-master\csrc/u8x8_byte.c **** 	  u8x8_gpio_SetSPIClock(u8x8, takeover_edge);
 1596              		.loc 1 297 0
 1597 009e 2368     		ldr	r3, [r4]
 1598 00a0 2C21     		movs	r1, #44
 1599 00a2 9A79     		ldrb	r2, [r3, #6]	@ zero_extendqisi2
 1600 00a4 2046     		mov	r0, r4
 1601 00a6 FFF7FEFF 		bl	u8x8_gpio_call
 1602              	.LVL197:
 298:..\u8g2-master\csrc/u8x8_byte.c **** 	  u8x8_gpio_Delay(u8x8, U8X8_MSG_DELAY_NANO, u8x8->display_info->sck_pulse_width_ns);
 1603              		.loc 1 298 0
 1604 00aa 3A46     		mov	r2, r7
 1605 00ac 4021     		movs	r1, #64
 1606 00ae 2046     		mov	r0, r4
 1607 00b0 FFF7FEFF 		bl	u8x8_gpio_call
 1608              	.LVL198:
 299:..\u8g2-master\csrc/u8x8_byte.c **** 	}    
 1609              		.loc 1 299 0
 1610 00b4 2368     		ldr	r3, [r4]
 1611 00b6 2C21     		movs	r1, #44
 1612 00b8 DA79     		ldrb	r2, [r3, #7]	@ zero_extendqisi2
 1613 00ba 2046     		mov	r0, r4
 1614 00bc 013E     		subs	r6, r6, #1
 294:..\u8g2-master\csrc/u8x8_byte.c **** 	  
 1615              		.loc 1 294 0
 1616 00be 6D00     		lsls	r5, r5, #1
 1617              	.LVL199:
 299:..\u8g2-master\csrc/u8x8_byte.c **** 	}    
 1618              		.loc 1 299 0
 1619 00c0 FFF7FEFF 		bl	u8x8_gpio_call
 1620              	.LVL200:
 288:..\u8g2-master\csrc/u8x8_byte.c **** 	{
 1621              		.loc 1 288 0
 1622 00c4 16F0FF06 		ands	r6, r6, #255
 294:..\u8g2-master\csrc/u8x8_byte.c **** 	  
 1623              		.loc 1 294 0
 1624 00c8 ADB2     		uxth	r5, r5
 1625              	.LVL201:
 288:..\u8g2-master\csrc/u8x8_byte.c **** 	{
 1626              		.loc 1 288 0
 1627 00ca D7D1     		bne	.L106
 281:..\u8g2-master\csrc/u8x8_byte.c ****       {
 1628              		.loc 1 281 0
 1629 00cc D145     		cmp	r9, r10
 1630 00ce CDD1     		bne	.L109
 326:..\u8g2-master\csrc/u8x8_byte.c **** }
 1631              		.loc 1 326 0
 1632 00d0 0120     		movs	r0, #1
 318:..\u8g2-master\csrc/u8x8_byte.c ****     case U8X8_MSG_BYTE_END_TRANSFER:
 1633              		.loc 1 318 0
 1634 00d2 BDE8F88F 		pop	{r3, r4, r5, r6, r7, r8, r9, r10, fp, pc}
 1635              	.LVL202:
 1636              	.L100:
ARM GAS  C:\Users\info\AppData\Local\Temp\ccAWUQ53.s 			page 44


 316:..\u8g2-master\csrc/u8x8_byte.c ****       u8x8->gpio_and_delay_cb(u8x8, U8X8_MSG_DELAY_NANO, u8x8->display_info->post_chip_enable_wait_
 1637              		.loc 1 316 0
 1638 00d6 0278     		ldrb	r2, [r0]	@ zero_extendqisi2
 1639              	.LVL203:
 1640 00d8 4921     		movs	r1, #73
 1641 00da 2046     		mov	r0, r4
 1642              	.LVL204:
 1643 00dc FFF7FEFF 		bl	u8x8_gpio_call
 1644              	.LVL205:
 317:..\u8g2-master\csrc/u8x8_byte.c ****       break;
 1645              		.loc 1 317 0
 1646 00e0 2368     		ldr	r3, [r4]
 1647 00e2 6569     		ldr	r5, [r4, #20]
 1648 00e4 9A78     		ldrb	r2, [r3, #2]	@ zero_extendqisi2
 1649 00e6 2046     		mov	r0, r4
 1650 00e8 0023     		movs	r3, #0
 1651 00ea 2C21     		movs	r1, #44
 1652 00ec A847     		blx	r5
 1653              	.LVL206:
 1654              	.L120:
 326:..\u8g2-master\csrc/u8x8_byte.c **** }
 1655              		.loc 1 326 0
 1656 00ee 0120     		movs	r0, #1
 318:..\u8g2-master\csrc/u8x8_byte.c ****     case U8X8_MSG_BYTE_END_TRANSFER:
 1657              		.loc 1 318 0
 1658 00f0 BDE8F88F 		pop	{r3, r4, r5, r6, r7, r8, r9, r10, fp, pc}
 1659              	.LVL207:
 1660              	.L101:
 320:..\u8g2-master\csrc/u8x8_byte.c ****       u8x8_gpio_SetCS(u8x8, u8x8->display_info->chip_disable_level);
 1661              		.loc 1 320 0
 1662 00f4 C278     		ldrb	r2, [r0, #3]	@ zero_extendqisi2
 1663              	.LVL208:
 1664 00f6 6569     		ldr	r5, [r4, #20]
 1665 00f8 0023     		movs	r3, #0
 1666              	.LVL209:
 1667 00fa 2C21     		movs	r1, #44
 1668 00fc 2046     		mov	r0, r4
 1669              	.LVL210:
 1670 00fe A847     		blx	r5
 1671              	.LVL211:
 321:..\u8g2-master\csrc/u8x8_byte.c ****       break;
 1672              		.loc 1 321 0
 1673 0100 2368     		ldr	r3, [r4]
 1674 0102 2046     		mov	r0, r4
 1675 0104 5A78     		ldrb	r2, [r3, #1]	@ zero_extendqisi2
 1676 0106 4921     		movs	r1, #73
 1677 0108 FFF7FEFF 		bl	u8x8_gpio_call
 1678              	.LVL212:
 326:..\u8g2-master\csrc/u8x8_byte.c **** }
 1679              		.loc 1 326 0
 1680 010c 0120     		movs	r0, #1
 322:..\u8g2-master\csrc/u8x8_byte.c ****     default:
 1681              		.loc 1 322 0
 1682 010e BDE8F88F 		pop	{r3, r4, r5, r6, r7, r8, r9, r10, fp, pc}
 1683              	.LVL213:
 1684              	.L111:
 324:..\u8g2-master\csrc/u8x8_byte.c ****   }
ARM GAS  C:\Users\info\AppData\Local\Temp\ccAWUQ53.s 			page 45


 1685              		.loc 1 324 0
 1686 0112 0020     		movs	r0, #0
 1687              	.LVL214:
 327:..\u8g2-master\csrc/u8x8_byte.c **** 
 1688              		.loc 1 327 0
 1689 0114 BDE8F88F 		pop	{r3, r4, r5, r6, r7, r8, r9, r10, fp, pc}
 1690              	.LVL215:
 1691              	.L123:
 1692              		.align	2
 1693              	.L122:
 1694 0118 00000000 		.word	.LANCHOR0
 1695              		.cfi_endproc
 1696              	.LFE9:
 1697              		.size	u8x8_byte_3wire_sw_spi, .-u8x8_byte_3wire_sw_spi
 1698              		.section	.text.u8x8_byte_set_ks0108_cs,"ax",%progbits
 1699              		.align	2
 1700              		.global	u8x8_byte_set_ks0108_cs
 1701              		.thumb
 1702              		.thumb_func
 1703              		.type	u8x8_byte_set_ks0108_cs, %function
 1704              	u8x8_byte_set_ks0108_cs:
 1705              	.LFB10:
 332:..\u8g2-master\csrc/u8x8_byte.c ****   u8x8_gpio_SetCS(u8x8, arg&1);
 1706              		.loc 1 332 0
 1707              		.cfi_startproc
 1708              		@ args = 0, pretend = 0, frame = 0
 1709              		@ frame_needed = 0, uses_anonymous_args = 0
 1710              	.LVL216:
 1711 0000 38B5     		push	{r3, r4, r5, lr}
 1712              		.cfi_def_cfa_offset 16
 1713              		.cfi_offset 3, -16
 1714              		.cfi_offset 4, -12
 1715              		.cfi_offset 5, -8
 1716              		.cfi_offset 14, -4
 332:..\u8g2-master\csrc/u8x8_byte.c ****   u8x8_gpio_SetCS(u8x8, arg&1);
 1717              		.loc 1 332 0
 1718 0002 0546     		mov	r5, r0
 334:..\u8g2-master\csrc/u8x8_byte.c ****   u8x8_gpio_call(u8x8, U8X8_MSG_GPIO_CS1, arg&1);
 1719              		.loc 1 334 0
 1720 0004 4C08     		lsrs	r4, r1, #1
 333:..\u8g2-master\csrc/u8x8_byte.c ****   arg = arg >> 1;
 1721              		.loc 1 333 0
 1722 0006 01F00102 		and	r2, r1, #1
 1723 000a 4921     		movs	r1, #73
 1724              	.LVL217:
 1725 000c FFF7FEFF 		bl	u8x8_gpio_call
 1726              	.LVL218:
 335:..\u8g2-master\csrc/u8x8_byte.c ****   arg = arg >> 1;
 1727              		.loc 1 335 0
 1728 0010 04F00102 		and	r2, r4, #1
 1729 0014 2846     		mov	r0, r5
 1730 0016 4E21     		movs	r1, #78
 1731 0018 FFF7FEFF 		bl	u8x8_gpio_call
 1732              	.LVL219:
 337:..\u8g2-master\csrc/u8x8_byte.c **** }
 1733              		.loc 1 337 0
 1734 001c C4F34002 		ubfx	r2, r4, #1, #1
ARM GAS  C:\Users\info\AppData\Local\Temp\ccAWUQ53.s 			page 46


 1735 0020 2846     		mov	r0, r5
 338:..\u8g2-master\csrc/u8x8_byte.c **** 
 1736              		.loc 1 338 0
 1737 0022 BDE83840 		pop	{r3, r4, r5, lr}
 1738              		.cfi_restore 14
 1739              		.cfi_restore 5
 1740              		.cfi_restore 4
 1741              		.cfi_restore 3
 1742              		.cfi_def_cfa_offset 0
 1743              	.LVL220:
 337:..\u8g2-master\csrc/u8x8_byte.c **** }
 1744              		.loc 1 337 0
 1745 0026 4F21     		movs	r1, #79
 1746 0028 FFF7FEBF 		b	u8x8_gpio_call
 1747              	.LVL221:
 1748              		.cfi_endproc
 1749              	.LFE10:
 1750              		.size	u8x8_byte_set_ks0108_cs, .-u8x8_byte_set_ks0108_cs
 1751              		.section	.text.u8x8_byte_ks0108,"ax",%progbits
 1752              		.align	2
 1753              		.global	u8x8_byte_ks0108
 1754              		.thumb
 1755              		.thumb_func
 1756              		.type	u8x8_byte_ks0108, %function
 1757              	u8x8_byte_ks0108:
 1758              	.LFB11:
 342:..\u8g2-master\csrc/u8x8_byte.c ****   uint8_t i, b;
 1759              		.loc 1 342 0
 1760              		.cfi_startproc
 1761              		@ args = 0, pretend = 0, frame = 0
 1762              		@ frame_needed = 0, uses_anonymous_args = 0
 1763              	.LVL222:
 346:..\u8g2-master\csrc/u8x8_byte.c ****   {
 1764              		.loc 1 346 0
 1765 0000 1439     		subs	r1, r1, #20
 1766              	.LVL223:
 342:..\u8g2-master\csrc/u8x8_byte.c ****   uint8_t i, b;
 1767              		.loc 1 342 0
 1768 0002 2DE9F041 		push	{r4, r5, r6, r7, r8, lr}
 1769              		.cfi_def_cfa_offset 24
 1770              		.cfi_offset 4, -24
 1771              		.cfi_offset 5, -20
 1772              		.cfi_offset 6, -16
 1773              		.cfi_offset 7, -12
 1774              		.cfi_offset 8, -8
 1775              		.cfi_offset 14, -4
 342:..\u8g2-master\csrc/u8x8_byte.c ****   uint8_t i, b;
 1776              		.loc 1 342 0
 1777 0006 0646     		mov	r6, r0
 1778 0008 1446     		mov	r4, r2
 1779 000a 1F46     		mov	r7, r3
 346:..\u8g2-master\csrc/u8x8_byte.c ****   {
 1780              		.loc 1 346 0
 1781 000c 0C29     		cmp	r1, #12
 1782 000e 68D8     		bhi	.L138
 1783 0010 DFE801F0 		tbb	[pc, r1]
 1784              	.LVL224:
ARM GAS  C:\Users\info\AppData\Local\Temp\ccAWUQ53.s 			page 47


 1785              	.L129:
 1786 0014 0D       		.byte	(.L128-.L129)/2
 1787 0015 67       		.byte	(.L138-.L129)/2
 1788 0016 67       		.byte	(.L138-.L129)/2
 1789 0017 1A       		.byte	(.L130-.L129)/2
 1790 0018 4D       		.byte	(.L131-.L129)/2
 1791 0019 5A       		.byte	(.L132-.L129)/2
 1792 001a 67       		.byte	(.L138-.L129)/2
 1793 001b 67       		.byte	(.L138-.L129)/2
 1794 001c 67       		.byte	(.L138-.L129)/2
 1795 001d 67       		.byte	(.L138-.L129)/2
 1796 001e 67       		.byte	(.L138-.L129)/2
 1797 001f 67       		.byte	(.L138-.L129)/2
 1798 0020 07       		.byte	(.L133-.L129)/2
 1799 0021 00       		.p2align 1
 1800              	.L133:
 375:..\u8g2-master\csrc/u8x8_byte.c ****       break;
 1801              		.loc 1 375 0
 1802 0022 4A21     		movs	r1, #74
 1803 0024 FFF7FEFF 		bl	u8x8_gpio_call
 1804              	.LVL225:
 389:..\u8g2-master\csrc/u8x8_byte.c **** }
 1805              		.loc 1 389 0
 1806 0028 0120     		movs	r0, #1
 376:..\u8g2-master\csrc/u8x8_byte.c ****     case U8X8_MSG_BYTE_START_TRANSFER:
 1807              		.loc 1 376 0
 1808 002a BDE8F081 		pop	{r4, r5, r6, r7, r8, pc}
 1809              	.LVL226:
 1810              	.L128:
 370:..\u8g2-master\csrc/u8x8_byte.c ****       /* ensure that the enable signal is low */
 1811              		.loc 1 370 0
 1812 002e 0368     		ldr	r3, [r0]
 1813 0030 4921     		movs	r1, #73
 1814 0032 5A78     		ldrb	r2, [r3, #1]	@ zero_extendqisi2
 1815              	.LVL227:
 1816 0034 FFF7FEFF 		bl	u8x8_gpio_call
 1817              	.LVL228:
 372:..\u8g2-master\csrc/u8x8_byte.c ****       break;
 1818              		.loc 1 372 0
 1819 0038 3046     		mov	r0, r6
 1820 003a 0022     		movs	r2, #0
 1821 003c 4821     		movs	r1, #72
 1822 003e FFF7FEFF 		bl	u8x8_gpio_call
 1823              	.LVL229:
 389:..\u8g2-master\csrc/u8x8_byte.c **** }
 1824              		.loc 1 389 0
 1825 0042 0120     		movs	r0, #1
 373:..\u8g2-master\csrc/u8x8_byte.c ****     case U8X8_MSG_BYTE_SET_DC:
 1826              		.loc 1 373 0
 1827 0044 BDE8F081 		pop	{r4, r5, r6, r7, r8, pc}
 1828              	.LVL230:
 1829              	.L130:
 350:..\u8g2-master\csrc/u8x8_byte.c ****       {
 1830              		.loc 1 350 0
 1831 0048 002A     		cmp	r2, #0
 1832 004a 3AD0     		beq	.L142
 1833 004c 02F1FF38 		add	r8, r2, #-1
ARM GAS  C:\Users\info\AppData\Local\Temp\ccAWUQ53.s 			page 48


 1834 0050 5FFA88F8 		uxtb	r8, r8
 1835 0054 08F10108 		add	r8, r8, #1
 1836 0058 B844     		add	r8, r8, r7
 1837              	.LVL231:
 1838              	.L136:
 352:..\u8g2-master\csrc/u8x8_byte.c **** 	data++;
 1839              		.loc 1 352 0
 1840 005a 17F8015B 		ldrb	r5, [r7], #1	@ zero_extendqisi2
 1841              	.LVL232:
 355:..\u8g2-master\csrc/u8x8_byte.c **** 	{
 1842              		.loc 1 355 0
 1843 005e 4024     		movs	r4, #64
 1844              	.LVL233:
 1845              	.L135:
 357:..\u8g2-master\csrc/u8x8_byte.c **** 	  b >>= 1;
 1846              		.loc 1 357 0 discriminator 3
 1847 0060 2146     		mov	r1, r4
 355:..\u8g2-master\csrc/u8x8_byte.c **** 	{
 1848              		.loc 1 355 0 discriminator 3
 1849 0062 0134     		adds	r4, r4, #1
 1850              	.LVL234:
 357:..\u8g2-master\csrc/u8x8_byte.c **** 	  b >>= 1;
 1851              		.loc 1 357 0 discriminator 3
 1852 0064 05F00102 		and	r2, r5, #1
 1853 0068 3046     		mov	r0, r6
 355:..\u8g2-master\csrc/u8x8_byte.c **** 	{
 1854              		.loc 1 355 0 discriminator 3
 1855 006a E4B2     		uxtb	r4, r4
 357:..\u8g2-master\csrc/u8x8_byte.c **** 	  b >>= 1;
 1856              		.loc 1 357 0 discriminator 3
 1857 006c FFF7FEFF 		bl	u8x8_gpio_call
 1858              	.LVL235:
 355:..\u8g2-master\csrc/u8x8_byte.c **** 	{
 1859              		.loc 1 355 0 discriminator 3
 1860 0070 482C     		cmp	r4, #72
 358:..\u8g2-master\csrc/u8x8_byte.c **** 	}    
 1861              		.loc 1 358 0 discriminator 3
 1862 0072 4FEA5505 		lsr	r5, r5, #1
 1863              	.LVL236:
 355:..\u8g2-master\csrc/u8x8_byte.c **** 	{
 1864              		.loc 1 355 0 discriminator 3
 1865 0076 F3D1     		bne	.L135
 361:..\u8g2-master\csrc/u8x8_byte.c **** 	u8x8_gpio_call(u8x8, U8X8_MSG_GPIO_E, 1);
 1866              		.loc 1 361 0
 1867 0078 3368     		ldr	r3, [r6]
 1868 007a 2C21     		movs	r1, #44
 1869 007c 9A7B     		ldrb	r2, [r3, #14]	@ zero_extendqisi2
 1870 007e 3046     		mov	r0, r6
 1871 0080 FFF7FEFF 		bl	u8x8_gpio_call
 1872              	.LVL237:
 362:..\u8g2-master\csrc/u8x8_byte.c **** 	u8x8_gpio_Delay(u8x8, U8X8_MSG_DELAY_NANO, u8x8->display_info->write_pulse_width_ns);
 1873              		.loc 1 362 0
 1874 0084 0122     		movs	r2, #1
 1875 0086 2146     		mov	r1, r4
 1876 0088 3046     		mov	r0, r6
 1877 008a FFF7FEFF 		bl	u8x8_gpio_call
 1878              	.LVL238:
ARM GAS  C:\Users\info\AppData\Local\Temp\ccAWUQ53.s 			page 49


 363:..\u8g2-master\csrc/u8x8_byte.c **** 	u8x8_gpio_call(u8x8, U8X8_MSG_GPIO_E, 0);
 1879              		.loc 1 363 0
 1880 008e 3368     		ldr	r3, [r6]
 1881 0090 2C21     		movs	r1, #44
 1882 0092 DA7B     		ldrb	r2, [r3, #15]	@ zero_extendqisi2
 1883 0094 3046     		mov	r0, r6
 1884 0096 FFF7FEFF 		bl	u8x8_gpio_call
 1885              	.LVL239:
 364:..\u8g2-master\csrc/u8x8_byte.c ****       }
 1886              		.loc 1 364 0
 1887 009a 2146     		mov	r1, r4
 1888 009c 0022     		movs	r2, #0
 1889 009e 3046     		mov	r0, r6
 1890 00a0 FFF7FEFF 		bl	u8x8_gpio_call
 1891              	.LVL240:
 350:..\u8g2-master\csrc/u8x8_byte.c ****       {
 1892              		.loc 1 350 0
 1893 00a4 B845     		cmp	r8, r7
 1894 00a6 D8D1     		bne	.L136
 389:..\u8g2-master\csrc/u8x8_byte.c **** }
 1895              		.loc 1 389 0
 1896 00a8 0120     		movs	r0, #1
 381:..\u8g2-master\csrc/u8x8_byte.c ****     case U8X8_MSG_BYTE_END_TRANSFER:
 1897              		.loc 1 381 0
 1898 00aa BDE8F081 		pop	{r4, r5, r6, r7, r8, pc}
 1899              	.LVL241:
 1900              	.L131:
 379:..\u8g2-master\csrc/u8x8_byte.c ****       u8x8->gpio_and_delay_cb(u8x8, U8X8_MSG_DELAY_NANO, u8x8->display_info->post_chip_enable_wait_
 1901              		.loc 1 379 0
 1902 00ae 1146     		mov	r1, r2
 1903 00b0 FFF7FEFF 		bl	u8x8_byte_set_ks0108_cs
 1904              	.LVL242:
 380:..\u8g2-master\csrc/u8x8_byte.c ****       break;
 1905              		.loc 1 380 0
 1906 00b4 3368     		ldr	r3, [r6]
 1907 00b6 7469     		ldr	r4, [r6, #20]
 1908 00b8 9A78     		ldrb	r2, [r3, #2]	@ zero_extendqisi2
 1909 00ba 3046     		mov	r0, r6
 1910 00bc 0023     		movs	r3, #0
 1911 00be 2C21     		movs	r1, #44
 1912 00c0 A047     		blx	r4
 1913              	.LVL243:
 1914              	.L142:
 389:..\u8g2-master\csrc/u8x8_byte.c **** }
 1915              		.loc 1 389 0
 1916 00c2 0120     		movs	r0, #1
 381:..\u8g2-master\csrc/u8x8_byte.c ****     case U8X8_MSG_BYTE_END_TRANSFER:
 1917              		.loc 1 381 0
 1918 00c4 BDE8F081 		pop	{r4, r5, r6, r7, r8, pc}
 1919              	.LVL244:
 1920              	.L132:
 383:..\u8g2-master\csrc/u8x8_byte.c ****       u8x8_byte_set_ks0108_cs(u8x8, arg_int);
 1921              		.loc 1 383 0
 1922 00c8 0368     		ldr	r3, [r0]
 1923 00ca 4569     		ldr	r5, [r0, #20]
 1924 00cc DA78     		ldrb	r2, [r3, #3]	@ zero_extendqisi2
 1925              	.LVL245:
ARM GAS  C:\Users\info\AppData\Local\Temp\ccAWUQ53.s 			page 50


 1926 00ce 2C21     		movs	r1, #44
 1927 00d0 0023     		movs	r3, #0
 1928 00d2 A847     		blx	r5
 1929              	.LVL246:
 384:..\u8g2-master\csrc/u8x8_byte.c ****       break;
 1930              		.loc 1 384 0
 1931 00d4 3046     		mov	r0, r6
 1932 00d6 2146     		mov	r1, r4
 1933 00d8 FFF7FEFF 		bl	u8x8_byte_set_ks0108_cs
 1934              	.LVL247:
 389:..\u8g2-master\csrc/u8x8_byte.c **** }
 1935              		.loc 1 389 0
 1936 00dc 0120     		movs	r0, #1
 385:..\u8g2-master\csrc/u8x8_byte.c ****     default:
 1937              		.loc 1 385 0
 1938 00de BDE8F081 		pop	{r4, r5, r6, r7, r8, pc}
 1939              	.LVL248:
 1940              	.L138:
 387:..\u8g2-master\csrc/u8x8_byte.c ****   }
 1941              		.loc 1 387 0
 1942 00e2 0020     		movs	r0, #0
 1943              	.LVL249:
 390:..\u8g2-master\csrc/u8x8_byte.c **** 
 1944              		.loc 1 390 0
 1945 00e4 BDE8F081 		pop	{r4, r5, r6, r7, r8, pc}
 1946              		.cfi_endproc
 1947              	.LFE11:
 1948              		.size	u8x8_byte_ks0108, .-u8x8_byte_ks0108
 1949              		.section	.text.u8x8_byte_sed1520,"ax",%progbits
 1950              		.align	2
 1951              		.global	u8x8_byte_sed1520
 1952              		.thumb
 1953              		.thumb_func
 1954              		.type	u8x8_byte_sed1520, %function
 1955              	u8x8_byte_sed1520:
 1956              	.LFB12:
 398:..\u8g2-master\csrc/u8x8_byte.c ****   uint8_t i, b;
 1957              		.loc 1 398 0
 1958              		.cfi_startproc
 1959              		@ args = 0, pretend = 0, frame = 0
 1960              		@ frame_needed = 0, uses_anonymous_args = 0
 1961              	.LVL250:
 403:..\u8g2-master\csrc/u8x8_byte.c ****   {
 1962              		.loc 1 403 0
 1963 0000 1439     		subs	r1, r1, #20
 1964              	.LVL251:
 398:..\u8g2-master\csrc/u8x8_byte.c ****   uint8_t i, b;
 1965              		.loc 1 398 0
 1966 0002 2DE9F843 		push	{r3, r4, r5, r6, r7, r8, r9, lr}
 1967              		.cfi_def_cfa_offset 32
 1968              		.cfi_offset 3, -32
 1969              		.cfi_offset 4, -28
 1970              		.cfi_offset 5, -24
 1971              		.cfi_offset 6, -20
 1972              		.cfi_offset 7, -16
 1973              		.cfi_offset 8, -12
 1974              		.cfi_offset 9, -8
ARM GAS  C:\Users\info\AppData\Local\Temp\ccAWUQ53.s 			page 51


 1975              		.cfi_offset 14, -4
 398:..\u8g2-master\csrc/u8x8_byte.c ****   uint8_t i, b;
 1976              		.loc 1 398 0
 1977 0006 0646     		mov	r6, r0
 1978 0008 1F46     		mov	r7, r3
 403:..\u8g2-master\csrc/u8x8_byte.c ****   {
 1979              		.loc 1 403 0
 1980 000a 0C29     		cmp	r1, #12
 1981 000c 67D8     		bhi	.L156
 1982 000e DFE801F0 		tbb	[pc, r1]
 1983              	.LVL252:
 1984              	.L146:
 1985 0012 15       		.byte	(.L145-.L146)/2
 1986 0013 66       		.byte	(.L156-.L146)/2
 1987 0014 66       		.byte	(.L156-.L146)/2
 1988 0015 2A       		.byte	(.L147-.L146)/2
 1989 0016 07       		.byte	(.L148-.L146)/2
 1990 0017 0C       		.byte	(.L161-.L146)/2
 1991 0018 66       		.byte	(.L156-.L146)/2
 1992 0019 66       		.byte	(.L156-.L146)/2
 1993 001a 66       		.byte	(.L156-.L146)/2
 1994 001b 66       		.byte	(.L156-.L146)/2
 1995 001c 66       		.byte	(.L156-.L146)/2
 1996 001d 66       		.byte	(.L156-.L146)/2
 1997 001e 0F       		.byte	(.L150-.L146)/2
 1998 001f 00       		.p2align 1
 1999              	.L148:
 442:..\u8g2-master\csrc/u8x8_byte.c ****       break;
 2000              		.loc 1 442 0
 2001 0020 324B     		ldr	r3, .L163
 441:..\u8g2-master\csrc/u8x8_byte.c **** 	enable_pin = U8X8_MSG_GPIO_CS;
 2002              		.loc 1 441 0
 2003 0022 002A     		cmp	r2, #0
 2004 0024 5ED0     		beq	.L162
 442:..\u8g2-master\csrc/u8x8_byte.c ****       break;
 2005              		.loc 1 442 0
 2006 0026 4922     		movs	r2, #73
 2007              	.LVL253:
 2008 0028 5A70     		strb	r2, [r3, #1]
 2009              	.LVL254:
 2010              	.L161:
 449:..\u8g2-master\csrc/u8x8_byte.c **** }
 2011              		.loc 1 449 0
 2012 002a 0120     		movs	r0, #1
 2013              	.LVL255:
 2014 002c BDE8F883 		pop	{r3, r4, r5, r6, r7, r8, r9, pc}
 2015              	.LVL256:
 2016              	.L150:
 435:..\u8g2-master\csrc/u8x8_byte.c ****       break;
 2017              		.loc 1 435 0
 2018 0030 4A21     		movs	r1, #74
 2019 0032 FFF7FEFF 		bl	u8x8_gpio_call
 2020              	.LVL257:
 449:..\u8g2-master\csrc/u8x8_byte.c **** }
 2021              		.loc 1 449 0
 2022 0036 0120     		movs	r0, #1
 436:..\u8g2-master\csrc/u8x8_byte.c ****     case U8X8_MSG_BYTE_START_TRANSFER:
ARM GAS  C:\Users\info\AppData\Local\Temp\ccAWUQ53.s 			page 52


 2023              		.loc 1 436 0
 2024 0038 BDE8F883 		pop	{r3, r4, r5, r6, r7, r8, r9, pc}
 2025              	.LVL258:
 2026              	.L145:
 428:..\u8g2-master\csrc/u8x8_byte.c ****       /* ensure that the enable signals are low */
 2027              		.loc 1 428 0
 2028 003c 0368     		ldr	r3, [r0]
 2029 003e 4921     		movs	r1, #73
 2030 0040 5A78     		ldrb	r2, [r3, #1]	@ zero_extendqisi2
 2031              	.LVL259:
 2032 0042 FFF7FEFF 		bl	u8x8_gpio_call
 2033              	.LVL260:
 430:..\u8g2-master\csrc/u8x8_byte.c ****       u8x8_gpio_call(u8x8, U8X8_MSG_GPIO_CS, 0);
 2034              		.loc 1 430 0
 2035 0046 3046     		mov	r0, r6
 2036 0048 0022     		movs	r2, #0
 2037 004a 4821     		movs	r1, #72
 2038 004c FFF7FEFF 		bl	u8x8_gpio_call
 2039              	.LVL261:
 431:..\u8g2-master\csrc/u8x8_byte.c ****       enable_pin = U8X8_MSG_GPIO_E;
 2040              		.loc 1 431 0
 2041 0050 3046     		mov	r0, r6
 2042 0052 0022     		movs	r2, #0
 2043 0054 4921     		movs	r1, #73
 2044 0056 FFF7FEFF 		bl	u8x8_gpio_call
 2045              	.LVL262:
 432:..\u8g2-master\csrc/u8x8_byte.c ****       break;
 2046              		.loc 1 432 0
 2047 005a 244B     		ldr	r3, .L163
 2048 005c 4822     		movs	r2, #72
 2049 005e 5A70     		strb	r2, [r3, #1]
 449:..\u8g2-master\csrc/u8x8_byte.c **** }
 2050              		.loc 1 449 0
 2051 0060 0120     		movs	r0, #1
 2052 0062 BDE8F883 		pop	{r3, r4, r5, r6, r7, r8, r9, pc}
 2053              	.LVL263:
 2054              	.L147:
 407:..\u8g2-master\csrc/u8x8_byte.c ****       {
 2055              		.loc 1 407 0
 2056 0066 002A     		cmp	r2, #0
 2057 0068 DFD0     		beq	.L161
 2058 006a 02F1FF38 		add	r8, r2, #-1
 2059 006e 5FFA88F8 		uxtb	r8, r8
 2060 0072 08F10108 		add	r8, r8, #1
 2061 0076 DFF87490 		ldr	r9, .L163
 2062 007a B844     		add	r8, r8, r7
 2063              	.LVL264:
 2064              	.L153:
 409:..\u8g2-master\csrc/u8x8_byte.c **** 	data++;
 2065              		.loc 1 409 0
 2066 007c 17F8015B 		ldrb	r5, [r7], #1	@ zero_extendqisi2
 2067              	.LVL265:
 412:..\u8g2-master\csrc/u8x8_byte.c **** 	{
 2068              		.loc 1 412 0
 2069 0080 4024     		movs	r4, #64
 2070              	.LVL266:
 2071              	.L152:
ARM GAS  C:\Users\info\AppData\Local\Temp\ccAWUQ53.s 			page 53


 414:..\u8g2-master\csrc/u8x8_byte.c **** 	  b >>= 1;
 2072              		.loc 1 414 0 discriminator 3
 2073 0082 2146     		mov	r1, r4
 412:..\u8g2-master\csrc/u8x8_byte.c **** 	{
 2074              		.loc 1 412 0 discriminator 3
 2075 0084 0134     		adds	r4, r4, #1
 2076              	.LVL267:
 414:..\u8g2-master\csrc/u8x8_byte.c **** 	  b >>= 1;
 2077              		.loc 1 414 0 discriminator 3
 2078 0086 05F00102 		and	r2, r5, #1
 2079 008a 3046     		mov	r0, r6
 412:..\u8g2-master\csrc/u8x8_byte.c **** 	{
 2080              		.loc 1 412 0 discriminator 3
 2081 008c E4B2     		uxtb	r4, r4
 414:..\u8g2-master\csrc/u8x8_byte.c **** 	  b >>= 1;
 2082              		.loc 1 414 0 discriminator 3
 2083 008e FFF7FEFF 		bl	u8x8_gpio_call
 2084              	.LVL268:
 412:..\u8g2-master\csrc/u8x8_byte.c **** 	{
 2085              		.loc 1 412 0 discriminator 3
 2086 0092 482C     		cmp	r4, #72
 415:..\u8g2-master\csrc/u8x8_byte.c **** 	}    
 2087              		.loc 1 415 0 discriminator 3
 2088 0094 4FEA5505 		lsr	r5, r5, #1
 2089              	.LVL269:
 412:..\u8g2-master\csrc/u8x8_byte.c **** 	{
 2090              		.loc 1 412 0 discriminator 3
 2091 0098 F3D1     		bne	.L152
 418:..\u8g2-master\csrc/u8x8_byte.c **** 	u8x8_gpio_call(u8x8, enable_pin, 1);
 2092              		.loc 1 418 0
 2093 009a 3368     		ldr	r3, [r6]
 2094 009c 2C21     		movs	r1, #44
 2095 009e 9A7B     		ldrb	r2, [r3, #14]	@ zero_extendqisi2
 2096 00a0 3046     		mov	r0, r6
 2097 00a2 FFF7FEFF 		bl	u8x8_gpio_call
 2098              	.LVL270:
 419:..\u8g2-master\csrc/u8x8_byte.c **** 	u8x8_gpio_Delay(u8x8, U8X8_MSG_DELAY_NANO, 200);		/* KS0108 requires 450 ns, use 200 here */
 2099              		.loc 1 419 0
 2100 00a6 0122     		movs	r2, #1
 2101 00a8 99F80110 		ldrb	r1, [r9, #1]	@ zero_extendqisi2
 2102 00ac 3046     		mov	r0, r6
 2103 00ae FFF7FEFF 		bl	u8x8_gpio_call
 2104              	.LVL271:
 420:..\u8g2-master\csrc/u8x8_byte.c **** 	u8x8_gpio_Delay(u8x8, U8X8_MSG_DELAY_NANO, u8x8->display_info->write_pulse_width_ns);  /* expect 2
 2105              		.loc 1 420 0
 2106 00b2 C822     		movs	r2, #200
 2107 00b4 2C21     		movs	r1, #44
 2108 00b6 3046     		mov	r0, r6
 2109 00b8 FFF7FEFF 		bl	u8x8_gpio_call
 2110              	.LVL272:
 421:..\u8g2-master\csrc/u8x8_byte.c **** 	u8x8_gpio_call(u8x8, enable_pin, 0);
 2111              		.loc 1 421 0
 2112 00bc 3368     		ldr	r3, [r6]
 2113 00be 2C21     		movs	r1, #44
 2114 00c0 DA7B     		ldrb	r2, [r3, #15]	@ zero_extendqisi2
 2115 00c2 3046     		mov	r0, r6
 2116 00c4 FFF7FEFF 		bl	u8x8_gpio_call
ARM GAS  C:\Users\info\AppData\Local\Temp\ccAWUQ53.s 			page 54


 2117              	.LVL273:
 422:..\u8g2-master\csrc/u8x8_byte.c ****       }
 2118              		.loc 1 422 0
 2119 00c8 0022     		movs	r2, #0
 2120 00ca 99F80110 		ldrb	r1, [r9, #1]	@ zero_extendqisi2
 2121 00ce 3046     		mov	r0, r6
 2122 00d0 FFF7FEFF 		bl	u8x8_gpio_call
 2123              	.LVL274:
 407:..\u8g2-master\csrc/u8x8_byte.c ****       {
 2124              		.loc 1 407 0
 2125 00d4 B845     		cmp	r8, r7
 2126 00d6 D1D1     		bne	.L153
 449:..\u8g2-master\csrc/u8x8_byte.c **** }
 2127              		.loc 1 449 0
 2128 00d8 0120     		movs	r0, #1
 2129 00da BDE8F883 		pop	{r3, r4, r5, r6, r7, r8, r9, pc}
 2130              	.LVL275:
 2131              	.L156:
 447:..\u8g2-master\csrc/u8x8_byte.c ****   }
 2132              		.loc 1 447 0
 2133 00de 0020     		movs	r0, #0
 2134              	.LVL276:
 450:..\u8g2-master\csrc/u8x8_byte.c **** 
 2135              		.loc 1 450 0
 2136 00e0 BDE8F883 		pop	{r3, r4, r5, r6, r7, r8, r9, pc}
 2137              	.LVL277:
 2138              	.L162:
 440:..\u8g2-master\csrc/u8x8_byte.c ****       if ( arg_int != 0 )
 2139              		.loc 1 440 0
 2140 00e4 4822     		movs	r2, #72
 2141              	.LVL278:
 2142 00e6 5A70     		strb	r2, [r3, #1]
 2143 00e8 9FE7     		b	.L161
 2144              	.L164:
 2145 00ea 00BF     		.align	2
 2146              	.L163:
 2147 00ec 00000000 		.word	.LANCHOR0
 2148              		.cfi_endproc
 2149              	.LFE12:
 2150              		.size	u8x8_byte_sed1520, .-u8x8_byte_sed1520
 2151              		.section	.text.u8x8_byte_sw_i2c,"ax",%progbits
 2152              		.align	2
 2153              		.global	u8x8_byte_sw_i2c
 2154              		.thumb
 2155              		.thumb_func
 2156              		.type	u8x8_byte_sw_i2c, %function
 2157              	u8x8_byte_sw_i2c:
 2158              	.LFB24:
 576:..\u8g2-master\csrc/u8x8_byte.c **** 
 577:..\u8g2-master\csrc/u8x8_byte.c **** uint8_t u8x8_byte_sw_i2c(u8x8_t *u8x8, uint8_t msg, uint8_t arg_int, void *arg_ptr)
 578:..\u8g2-master\csrc/u8x8_byte.c **** {
 2159              		.loc 1 578 0
 2160              		.cfi_startproc
 2161              		@ args = 0, pretend = 0, frame = 0
 2162              		@ frame_needed = 0, uses_anonymous_args = 0
 2163              	.LVL279:
 579:..\u8g2-master\csrc/u8x8_byte.c ****   uint8_t *data;
ARM GAS  C:\Users\info\AppData\Local\Temp\ccAWUQ53.s 			page 55


 580:..\u8g2-master\csrc/u8x8_byte.c **** 
 581:..\u8g2-master\csrc/u8x8_byte.c ****   switch(msg)
 2164              		.loc 1 581 0
 2165 0000 1439     		subs	r1, r1, #20
 2166              	.LVL280:
 578:..\u8g2-master\csrc/u8x8_byte.c ****   uint8_t *data;
 2167              		.loc 1 578 0
 2168 0002 70B5     		push	{r4, r5, r6, lr}
 2169              		.cfi_def_cfa_offset 16
 2170              		.cfi_offset 4, -16
 2171              		.cfi_offset 5, -12
 2172              		.cfi_offset 6, -8
 2173              		.cfi_offset 14, -4
 578:..\u8g2-master\csrc/u8x8_byte.c ****   uint8_t *data;
 2174              		.loc 1 578 0
 2175 0004 0546     		mov	r5, r0
 2176 0006 1C46     		mov	r4, r3
 2177              		.loc 1 581 0
 2178 0008 0C29     		cmp	r1, #12
 2179 000a 6FD8     		bhi	.L177
 2180 000c DFE801F0 		tbb	[pc, r1]
 2181              	.LVL281:
 2182              	.L168:
 2183 0010 23       		.byte	(.L167-.L168)/2
 2184 0011 6E       		.byte	(.L177-.L168)/2
 2185 0012 6E       		.byte	(.L177-.L168)/2
 2186 0013 31       		.byte	(.L169-.L168)/2
 2187 0014 40       		.byte	(.L170-.L168)/2
 2188 0015 07       		.byte	(.L171-.L168)/2
 2189 0016 6E       		.byte	(.L177-.L168)/2
 2190 0017 6E       		.byte	(.L177-.L168)/2
 2191 0018 6E       		.byte	(.L177-.L168)/2
 2192 0019 6E       		.byte	(.L177-.L168)/2
 2193 001a 6E       		.byte	(.L177-.L168)/2
 2194 001b 6E       		.byte	(.L177-.L168)/2
 2195 001c 21       		.byte	(.L184-.L168)/2
 2196 001d 00       		.p2align 1
 2197              	.L171:
 2198              	.LBB256:
 2199              	.LBB257:
 2200              	.LBB258:
 2201              	.LBB259:
 499:..\u8g2-master\csrc/u8x8_byte.c **** }
 2202              		.loc 1 499 0
 2203 001e 0022     		movs	r2, #0
 2204              	.LVL282:
 2205 0020 4D21     		movs	r1, #77
 2206 0022 FFF7FEFF 		bl	u8x8_gpio_call
 2207              	.LVL283:
 2208              	.LBE259:
 2209              	.LBE258:
 524:..\u8g2-master\csrc/u8x8_byte.c ****  
 2210              		.loc 1 524 0
 2211 0026 2846     		mov	r0, r5
 2212 0028 FFF7FEFF 		bl	i2c_delay
 2213              	.LVL284:
 2214              	.LBB260:
ARM GAS  C:\Users\info\AppData\Local\Temp\ccAWUQ53.s 			page 56


 2215              	.LBB261:
 480:..\u8g2-master\csrc/u8x8_byte.c **** 
 2216              		.loc 1 480 0
 2217 002c 0122     		movs	r2, #1
 2218 002e 4C21     		movs	r1, #76
 2219 0030 2846     		mov	r0, r5
 2220 0032 FFF7FEFF 		bl	u8x8_gpio_call
 2221              	.LVL285:
 482:..\u8g2-master\csrc/u8x8_byte.c **** }
 2222              		.loc 1 482 0
 2223 0036 2846     		mov	r0, r5
 2224 0038 FFF7FEFF 		bl	i2c_delay
 2225              	.LVL286:
 2226              	.LBE261:
 2227              	.LBE260:
 2228              	.LBB262:
 2229              	.LBB263:
 493:..\u8g2-master\csrc/u8x8_byte.c **** }
 2230              		.loc 1 493 0
 2231 003c 0122     		movs	r2, #1
 2232 003e 4D21     		movs	r1, #77
 2233 0040 2846     		mov	r0, r5
 2234 0042 FFF7FEFF 		bl	u8x8_gpio_call
 2235              	.LVL287:
 2236              	.LBE263:
 2237              	.LBE262:
 531:..\u8g2-master\csrc/u8x8_byte.c ****   u8x8->i2c_started = 0;
 2238              		.loc 1 531 0
 2239 0046 2846     		mov	r0, r5
 2240 0048 FFF7FEFF 		bl	i2c_delay
 2241              	.LVL288:
 532:..\u8g2-master\csrc/u8x8_byte.c **** }
 2242              		.loc 1 532 0
 2243 004c 0023     		movs	r3, #0
 2244 004e 85F82530 		strb	r3, [r5, #37]
 2245              	.LVL289:
 2246              	.L184:
 2247              	.LBE257:
 2248              	.LBE256:
 582:..\u8g2-master\csrc/u8x8_byte.c ****   {
 583:..\u8g2-master\csrc/u8x8_byte.c ****     case U8X8_MSG_BYTE_SEND:
 584:..\u8g2-master\csrc/u8x8_byte.c ****       data = (uint8_t *)arg_ptr;
 585:..\u8g2-master\csrc/u8x8_byte.c ****     
 586:..\u8g2-master\csrc/u8x8_byte.c ****       while( arg_int > 0 )
 587:..\u8g2-master\csrc/u8x8_byte.c ****       {
 588:..\u8g2-master\csrc/u8x8_byte.c **** 	i2c_write_byte(u8x8, *data);
 589:..\u8g2-master\csrc/u8x8_byte.c **** 	data++;
 590:..\u8g2-master\csrc/u8x8_byte.c **** 	arg_int--;
 591:..\u8g2-master\csrc/u8x8_byte.c ****       }
 592:..\u8g2-master\csrc/u8x8_byte.c ****       
 593:..\u8g2-master\csrc/u8x8_byte.c ****       break;
 594:..\u8g2-master\csrc/u8x8_byte.c ****       
 595:..\u8g2-master\csrc/u8x8_byte.c ****     case U8X8_MSG_BYTE_INIT:
 596:..\u8g2-master\csrc/u8x8_byte.c ****       i2c_init(u8x8);
 597:..\u8g2-master\csrc/u8x8_byte.c ****       break;
 598:..\u8g2-master\csrc/u8x8_byte.c ****     case U8X8_MSG_BYTE_SET_DC:
 599:..\u8g2-master\csrc/u8x8_byte.c ****       break;
ARM GAS  C:\Users\info\AppData\Local\Temp\ccAWUQ53.s 			page 57


 600:..\u8g2-master\csrc/u8x8_byte.c ****     case U8X8_MSG_BYTE_START_TRANSFER:
 601:..\u8g2-master\csrc/u8x8_byte.c ****       i2c_start(u8x8);
 602:..\u8g2-master\csrc/u8x8_byte.c ****       i2c_write_byte(u8x8, u8x8_GetI2CAddress(u8x8));
 603:..\u8g2-master\csrc/u8x8_byte.c ****       //i2c_write_byte(u8x8, 0x078);
 604:..\u8g2-master\csrc/u8x8_byte.c ****       break;
 605:..\u8g2-master\csrc/u8x8_byte.c ****     case U8X8_MSG_BYTE_END_TRANSFER:
 606:..\u8g2-master\csrc/u8x8_byte.c ****       i2c_stop(u8x8);
 607:..\u8g2-master\csrc/u8x8_byte.c ****       break;
 608:..\u8g2-master\csrc/u8x8_byte.c ****     default:
 609:..\u8g2-master\csrc/u8x8_byte.c ****       return 0;
 610:..\u8g2-master\csrc/u8x8_byte.c ****   }
 611:..\u8g2-master\csrc/u8x8_byte.c ****   return 1;
 2249              		.loc 1 611 0
 2250 0052 0120     		movs	r0, #1
 2251 0054 70BD     		pop	{r4, r5, r6, pc}
 2252              	.LVL290:
 2253              	.L167:
 2254              	.LBB264:
 2255              	.LBB265:
 469:..\u8g2-master\csrc/u8x8_byte.c ****   u8x8_gpio_SetI2CData(u8x8, 1);
 2256              		.loc 1 469 0
 2257 0056 0122     		movs	r2, #1
 2258              	.LVL291:
 2259 0058 4C21     		movs	r1, #76
 2260 005a FFF7FEFF 		bl	u8x8_gpio_call
 2261              	.LVL292:
 470:..\u8g2-master\csrc/u8x8_byte.c ****   
 2262              		.loc 1 470 0
 2263 005e 0122     		movs	r2, #1
 2264 0060 4D21     		movs	r1, #77
 2265 0062 2846     		mov	r0, r5
 2266 0064 FFF7FEFF 		bl	u8x8_gpio_call
 2267              	.LVL293:
 472:..\u8g2-master\csrc/u8x8_byte.c **** }
 2268              		.loc 1 472 0
 2269 0068 2846     		mov	r0, r5
 2270 006a FFF7FEFF 		bl	i2c_delay
 2271              	.LVL294:
 2272              	.LBE265:
 2273              	.LBE264:
 2274              		.loc 1 611 0
 2275 006e 0120     		movs	r0, #1
 2276 0070 70BD     		pop	{r4, r5, r6, pc}
 2277              	.LVL295:
 2278              	.L169:
 586:..\u8g2-master\csrc/u8x8_byte.c ****       {
 2279              		.loc 1 586 0
 2280 0072 002A     		cmp	r2, #0
 2281 0074 EDD0     		beq	.L184
 2282 0076 561E     		subs	r6, r2, #1
 2283 0078 F6B2     		uxtb	r6, r6
 2284 007a 0136     		adds	r6, r6, #1
 2285 007c 2644     		add	r6, r6, r4
 2286              	.LVL296:
 2287              	.L174:
 588:..\u8g2-master\csrc/u8x8_byte.c **** 	data++;
 2288              		.loc 1 588 0
ARM GAS  C:\Users\info\AppData\Local\Temp\ccAWUQ53.s 			page 58


 2289 007e 14F8011B 		ldrb	r1, [r4], #1	@ zero_extendqisi2
 2290              	.LVL297:
 2291 0082 2846     		mov	r0, r5
 2292 0084 FFF7FEFF 		bl	i2c_write_byte
 2293              	.LVL298:
 586:..\u8g2-master\csrc/u8x8_byte.c ****       {
 2294              		.loc 1 586 0
 2295 0088 A642     		cmp	r6, r4
 2296 008a F8D1     		bne	.L174
 2297              		.loc 1 611 0
 2298 008c 0120     		movs	r0, #1
 2299 008e 70BD     		pop	{r4, r5, r6, pc}
 2300              	.LVL299:
 2301              	.L170:
 2302              	.LBB266:
 2303              	.LBB267:
 504:..\u8g2-master\csrc/u8x8_byte.c ****   {
 2304              		.loc 1 504 0
 2305 0090 90F82530 		ldrb	r3, [r0, #37]	@ zero_extendqisi2
 2306 0094 73B1     		cbz	r3, .L176
 2307              	.LVL300:
 2308              	.LBB268:
 2309              	.LBB269:
 493:..\u8g2-master\csrc/u8x8_byte.c **** }
 2310              		.loc 1 493 0
 2311 0096 0122     		movs	r2, #1
 2312              	.LVL301:
 2313 0098 4D21     		movs	r1, #77
 2314 009a FFF7FEFF 		bl	u8x8_gpio_call
 2315              	.LVL302:
 2316              	.LBE269:
 2317              	.LBE268:
 508:..\u8g2-master\csrc/u8x8_byte.c ****     i2c_read_scl_and_delay(u8x8);
 2318              		.loc 1 508 0
 2319 009e 2846     		mov	r0, r5
 2320 00a0 FFF7FEFF 		bl	i2c_delay
 2321              	.LVL303:
 2322              	.LBB270:
 2323              	.LBB271:
 480:..\u8g2-master\csrc/u8x8_byte.c **** 
 2324              		.loc 1 480 0
 2325 00a4 2846     		mov	r0, r5
 2326 00a6 0122     		movs	r2, #1
 2327 00a8 4C21     		movs	r1, #76
 2328 00aa FFF7FEFF 		bl	u8x8_gpio_call
 2329              	.LVL304:
 482:..\u8g2-master\csrc/u8x8_byte.c **** }
 2330              		.loc 1 482 0
 2331 00ae 2846     		mov	r0, r5
 2332 00b0 FFF7FEFF 		bl	i2c_delay
 2333              	.LVL305:
 2334              	.L176:
 2335              	.LBE271:
 2336              	.LBE270:
 2337              	.LBB272:
 2338              	.LBB273:
 493:..\u8g2-master\csrc/u8x8_byte.c **** }
ARM GAS  C:\Users\info\AppData\Local\Temp\ccAWUQ53.s 			page 59


 2339              		.loc 1 493 0
 2340 00b4 2846     		mov	r0, r5
 2341 00b6 0122     		movs	r2, #1
 2342 00b8 4D21     		movs	r1, #77
 2343 00ba FFF7FEFF 		bl	u8x8_gpio_call
 2344              	.LVL306:
 2345              	.LBE273:
 2346              	.LBE272:
 2347              	.LBB274:
 2348              	.LBB275:
 499:..\u8g2-master\csrc/u8x8_byte.c **** }
 2349              		.loc 1 499 0
 2350 00be 0022     		movs	r2, #0
 2351 00c0 4D21     		movs	r1, #77
 2352 00c2 2846     		mov	r0, r5
 2353 00c4 FFF7FEFF 		bl	u8x8_gpio_call
 2354              	.LVL307:
 2355              	.LBE275:
 2356              	.LBE274:
 514:..\u8g2-master\csrc/u8x8_byte.c ****   i2c_clear_scl(u8x8);
 2357              		.loc 1 514 0
 2358 00c8 2846     		mov	r0, r5
 2359 00ca FFF7FEFF 		bl	i2c_delay
 2360              	.LVL308:
 516:..\u8g2-master\csrc/u8x8_byte.c **** }
 2361              		.loc 1 516 0
 2362 00ce 0124     		movs	r4, #1
 2363              	.LVL309:
 2364              	.LBB276:
 2365              	.LBB277:
 487:..\u8g2-master\csrc/u8x8_byte.c **** }
 2366              		.loc 1 487 0
 2367 00d0 0022     		movs	r2, #0
 2368 00d2 2846     		mov	r0, r5
 2369 00d4 4C21     		movs	r1, #76
 2370 00d6 FFF7FEFF 		bl	u8x8_gpio_call
 2371              	.LVL310:
 2372              	.LBE277:
 2373              	.LBE276:
 2374              	.LBE267:
 2375              	.LBE266:
 602:..\u8g2-master\csrc/u8x8_byte.c ****       //i2c_write_byte(u8x8, 0x078);
 2376              		.loc 1 602 0
 2377 00da 2846     		mov	r0, r5
 2378              	.LBB279:
 2379              	.LBB278:
 516:..\u8g2-master\csrc/u8x8_byte.c **** }
 2380              		.loc 1 516 0
 2381 00dc 85F82540 		strb	r4, [r5, #37]
 2382              	.LVL311:
 2383              	.LBE278:
 2384              	.LBE279:
 602:..\u8g2-master\csrc/u8x8_byte.c ****       //i2c_write_byte(u8x8, 0x078);
 2385              		.loc 1 602 0
 2386 00e0 95F82410 		ldrb	r1, [r5, #36]	@ zero_extendqisi2
 2387 00e4 FFF7FEFF 		bl	i2c_write_byte
 2388              	.LVL312:
ARM GAS  C:\Users\info\AppData\Local\Temp\ccAWUQ53.s 			page 60


 2389              		.loc 1 611 0
 2390 00e8 2046     		mov	r0, r4
 604:..\u8g2-master\csrc/u8x8_byte.c ****     case U8X8_MSG_BYTE_END_TRANSFER:
 2391              		.loc 1 604 0
 2392 00ea 70BD     		pop	{r4, r5, r6, pc}
 2393              	.LVL313:
 2394              	.L177:
 609:..\u8g2-master\csrc/u8x8_byte.c ****   }
 2395              		.loc 1 609 0
 2396 00ec 0020     		movs	r0, #0
 2397              	.LVL314:
 612:..\u8g2-master\csrc/u8x8_byte.c **** }
 2398              		.loc 1 612 0
 2399 00ee 70BD     		pop	{r4, r5, r6, pc}
 2400              		.cfi_endproc
 2401              	.LFE24:
 2402              		.size	u8x8_byte_sw_i2c, .-u8x8_byte_sw_i2c
 2403              		.bss
 2404              		.set	.LANCHOR0,. + 0
 2405              		.type	last_dc.5529, %object
 2406              		.size	last_dc.5529, 1
 2407              	last_dc.5529:
 2408 0000 00       		.space	1
 2409              		.type	enable_pin.5578, %object
 2410              		.size	enable_pin.5578, 1
 2411              	enable_pin.5578:
 2412 0001 00       		.space	1
 2413              		.text
 2414              	.Letext0:
 2415              		.file 2 "c:\\program files (x86)\\cypress\\psoc creator\\4.2\\psoc creator\\import\\gnu\\arm\\5.4.
 2416              		.file 3 "c:\\program files (x86)\\cypress\\psoc creator\\4.2\\psoc creator\\import\\gnu\\arm\\5.4.
 2417              		.file 4 "..\\u8g2-master\\csrc\\u8x8.h"