ARM GAS  C:\Users\info\AppData\Local\Temp\ccpgnRHd.s 			page 1


   1              		.syntax unified
   2              		.cpu cortex-m3
   3              		.fpu softvfp
   4              		.eabi_attribute 20, 1
   5              		.eabi_attribute 21, 1
   6              		.eabi_attribute 23, 3
   7              		.eabi_attribute 24, 1
   8              		.eabi_attribute 25, 1
   9              		.eabi_attribute 26, 1
  10              		.eabi_attribute 30, 2
  11              		.eabi_attribute 34, 1
  12              		.eabi_attribute 18, 4
  13              		.thumb
  14              		.syntax unified
  15              		.file	"u8x8_d_ssd1327.c"
  16              		.text
  17              	.Ltext0:
  18              		.cfi_sections	.debug_frame
  19              		.section	.text.u8x8_d_ssd1327_96x96_generic.part.1,"ax",%progbits
  20              		.align	2
  21              		.thumb
  22              		.thumb_func
  23              		.type	u8x8_d_ssd1327_96x96_generic.part.1, %function
  24              	u8x8_d_ssd1327_96x96_generic.part.1:
  25              	.LFB6:
  26              		.file 1 "..\\u8g2-master\\csrc\\u8x8_d_ssd1327.c"
   1:..\u8g2-master\csrc/u8x8_d_ssd1327.c **** /*
   2:..\u8g2-master\csrc/u8x8_d_ssd1327.c **** 
   3:..\u8g2-master\csrc/u8x8_d_ssd1327.c ****   u8x8_d_ssd1327.c
   4:..\u8g2-master\csrc/u8x8_d_ssd1327.c **** 
   5:..\u8g2-master\csrc/u8x8_d_ssd1327.c ****   Universal 8bit Graphics Library (https://github.com/olikraus/u8g2/)
   6:..\u8g2-master\csrc/u8x8_d_ssd1327.c **** 
   7:..\u8g2-master\csrc/u8x8_d_ssd1327.c ****   Copyright (c) 2016, olikraus@gmail.com
   8:..\u8g2-master\csrc/u8x8_d_ssd1327.c ****   All rights reserved.
   9:..\u8g2-master\csrc/u8x8_d_ssd1327.c **** 
  10:..\u8g2-master\csrc/u8x8_d_ssd1327.c ****   Redistribution and use in source and binary forms, with or without modification, 
  11:..\u8g2-master\csrc/u8x8_d_ssd1327.c ****   are permitted provided that the following conditions are met:
  12:..\u8g2-master\csrc/u8x8_d_ssd1327.c **** 
  13:..\u8g2-master\csrc/u8x8_d_ssd1327.c ****   * Redistributions of source code must retain the above copyright notice, this list 
  14:..\u8g2-master\csrc/u8x8_d_ssd1327.c ****     of conditions and the following disclaimer.
  15:..\u8g2-master\csrc/u8x8_d_ssd1327.c ****     
  16:..\u8g2-master\csrc/u8x8_d_ssd1327.c ****   * Redistributions in binary form must reproduce the above copyright notice, this 
  17:..\u8g2-master\csrc/u8x8_d_ssd1327.c ****     list of conditions and the following disclaimer in the documentation and/or other 
  18:..\u8g2-master\csrc/u8x8_d_ssd1327.c ****     materials provided with the distribution.
  19:..\u8g2-master\csrc/u8x8_d_ssd1327.c **** 
  20:..\u8g2-master\csrc/u8x8_d_ssd1327.c ****   THIS SOFTWARE IS PROVIDED BY THE COPYRIGHT HOLDERS AND 
  21:..\u8g2-master\csrc/u8x8_d_ssd1327.c ****   CONTRIBUTORS "AS IS" AND ANY EXPRESS OR IMPLIED WARRANTIES, 
  22:..\u8g2-master\csrc/u8x8_d_ssd1327.c ****   INCLUDING, BUT NOT LIMITED TO, THE IMPLIED WARRANTIES OF 
  23:..\u8g2-master\csrc/u8x8_d_ssd1327.c ****   MERCHANTABILITY AND FITNESS FOR A PARTICULAR PURPOSE ARE 
  24:..\u8g2-master\csrc/u8x8_d_ssd1327.c ****   DISCLAIMED. IN NO EVENT SHALL THE COPYRIGHT HOLDER OR 
  25:..\u8g2-master\csrc/u8x8_d_ssd1327.c ****   CONTRIBUTORS BE LIABLE FOR ANY DIRECT, INDIRECT, INCIDENTAL, 
  26:..\u8g2-master\csrc/u8x8_d_ssd1327.c ****   SPECIAL, EXEMPLARY, OR CONSEQUENTIAL DAMAGES (INCLUDING, BUT 
  27:..\u8g2-master\csrc/u8x8_d_ssd1327.c ****   NOT LIMITED TO, PROCUREMENT OF SUBSTITUTE GOODS OR SERVICES; 
  28:..\u8g2-master\csrc/u8x8_d_ssd1327.c ****   LOSS OF USE, DATA, OR PROFITS; OR BUSINESS INTERRUPTION) HOWEVER 
  29:..\u8g2-master\csrc/u8x8_d_ssd1327.c ****   CAUSED AND ON ANY THEORY OF LIABILITY, WHETHER IN CONTRACT, 
  30:..\u8g2-master\csrc/u8x8_d_ssd1327.c ****   STRICT LIABILITY, OR TORT (INCLUDING NEGLIGENCE OR OTHERWISE) 
  31:..\u8g2-master\csrc/u8x8_d_ssd1327.c ****   ARISING IN ANY WAY OUT OF THE USE OF THIS SOFTWARE, EVEN IF 
ARM GAS  C:\Users\info\AppData\Local\Temp\ccpgnRHd.s 			page 2


  32:..\u8g2-master\csrc/u8x8_d_ssd1327.c ****   ADVISED OF THE POSSIBILITY OF SUCH DAMAGE.  
  33:..\u8g2-master\csrc/u8x8_d_ssd1327.c ****   
  34:..\u8g2-master\csrc/u8x8_d_ssd1327.c **** */
  35:..\u8g2-master\csrc/u8x8_d_ssd1327.c **** 
  36:..\u8g2-master\csrc/u8x8_d_ssd1327.c **** 
  37:..\u8g2-master\csrc/u8x8_d_ssd1327.c **** #include "u8x8.h"
  38:..\u8g2-master\csrc/u8x8_d_ssd1327.c **** 
  39:..\u8g2-master\csrc/u8x8_d_ssd1327.c **** 
  40:..\u8g2-master\csrc/u8x8_d_ssd1327.c **** static const uint8_t u8x8_d_ssd1327_96x96_powersave0_seq[] = {
  41:..\u8g2-master\csrc/u8x8_d_ssd1327.c ****   U8X8_START_TRANSFER(),             	/* enable chip, delay is part of the transfer start */
  42:..\u8g2-master\csrc/u8x8_d_ssd1327.c ****   U8X8_C(0x0af),		                /* display on */
  43:..\u8g2-master\csrc/u8x8_d_ssd1327.c ****   U8X8_END_TRANSFER(),             	/* disable chip */
  44:..\u8g2-master\csrc/u8x8_d_ssd1327.c ****   U8X8_END()             			/* end of sequence */
  45:..\u8g2-master\csrc/u8x8_d_ssd1327.c **** };
  46:..\u8g2-master\csrc/u8x8_d_ssd1327.c **** 
  47:..\u8g2-master\csrc/u8x8_d_ssd1327.c **** static const uint8_t u8x8_d_ssd1327_96x96_powersave1_seq[] = {
  48:..\u8g2-master\csrc/u8x8_d_ssd1327.c ****   U8X8_START_TRANSFER(),             	/* enable chip, delay is part of the transfer start */
  49:..\u8g2-master\csrc/u8x8_d_ssd1327.c ****   U8X8_C(0x0ae),		                /* display off */
  50:..\u8g2-master\csrc/u8x8_d_ssd1327.c ****   U8X8_END_TRANSFER(),             	/* disable chip */
  51:..\u8g2-master\csrc/u8x8_d_ssd1327.c ****   U8X8_END()             			/* end of sequence */
  52:..\u8g2-master\csrc/u8x8_d_ssd1327.c **** };
  53:..\u8g2-master\csrc/u8x8_d_ssd1327.c **** 
  54:..\u8g2-master\csrc/u8x8_d_ssd1327.c **** 
  55:..\u8g2-master\csrc/u8x8_d_ssd1327.c **** 
  56:..\u8g2-master\csrc/u8x8_d_ssd1327.c **** 
  57:..\u8g2-master\csrc/u8x8_d_ssd1327.c **** /*
  58:..\u8g2-master\csrc/u8x8_d_ssd1327.c ****   input:
  59:..\u8g2-master\csrc/u8x8_d_ssd1327.c ****     one tile (8 Bytes)
  60:..\u8g2-master\csrc/u8x8_d_ssd1327.c ****   output:
  61:..\u8g2-master\csrc/u8x8_d_ssd1327.c ****     Tile for ssd1327 (32 Bytes)
  62:..\u8g2-master\csrc/u8x8_d_ssd1327.c **** */
  63:..\u8g2-master\csrc/u8x8_d_ssd1327.c **** 
  64:..\u8g2-master\csrc/u8x8_d_ssd1327.c **** static uint8_t u8x8_ssd1327_8to32_dest_buf[32];
  65:..\u8g2-master\csrc/u8x8_d_ssd1327.c **** 
  66:..\u8g2-master\csrc/u8x8_d_ssd1327.c **** static uint8_t *u8x8_ssd1327_8to32(U8X8_UNUSED u8x8_t *u8x8, uint8_t *ptr)
  67:..\u8g2-master\csrc/u8x8_d_ssd1327.c **** {
  68:..\u8g2-master\csrc/u8x8_d_ssd1327.c ****   uint8_t v;
  69:..\u8g2-master\csrc/u8x8_d_ssd1327.c ****   uint8_t a,b;
  70:..\u8g2-master\csrc/u8x8_d_ssd1327.c ****   uint8_t i, j;
  71:..\u8g2-master\csrc/u8x8_d_ssd1327.c ****   uint8_t *dest;
  72:..\u8g2-master\csrc/u8x8_d_ssd1327.c ****   
  73:..\u8g2-master\csrc/u8x8_d_ssd1327.c ****   for( j = 0; j < 4; j++ )
  74:..\u8g2-master\csrc/u8x8_d_ssd1327.c ****   {
  75:..\u8g2-master\csrc/u8x8_d_ssd1327.c ****     dest = u8x8_ssd1327_8to32_dest_buf;
  76:..\u8g2-master\csrc/u8x8_d_ssd1327.c ****     dest += j;
  77:..\u8g2-master\csrc/u8x8_d_ssd1327.c ****     a =*ptr;
  78:..\u8g2-master\csrc/u8x8_d_ssd1327.c ****     ptr++;
  79:..\u8g2-master\csrc/u8x8_d_ssd1327.c ****     b = *ptr;
  80:..\u8g2-master\csrc/u8x8_d_ssd1327.c ****     ptr++;
  81:..\u8g2-master\csrc/u8x8_d_ssd1327.c ****     for( i = 0; i < 8; i++ )
  82:..\u8g2-master\csrc/u8x8_d_ssd1327.c ****     {
  83:..\u8g2-master\csrc/u8x8_d_ssd1327.c ****       v = 0;
  84:..\u8g2-master\csrc/u8x8_d_ssd1327.c ****       if ( a&1 ) v |= 0xf0;
  85:..\u8g2-master\csrc/u8x8_d_ssd1327.c ****       if ( b&1 ) v |= 0x0f;
  86:..\u8g2-master\csrc/u8x8_d_ssd1327.c ****       *dest = v;
  87:..\u8g2-master\csrc/u8x8_d_ssd1327.c ****       dest+=4;
  88:..\u8g2-master\csrc/u8x8_d_ssd1327.c ****       a >>= 1;
ARM GAS  C:\Users\info\AppData\Local\Temp\ccpgnRHd.s 			page 3


  89:..\u8g2-master\csrc/u8x8_d_ssd1327.c ****       b >>= 1;
  90:..\u8g2-master\csrc/u8x8_d_ssd1327.c ****     }
  91:..\u8g2-master\csrc/u8x8_d_ssd1327.c ****   }
  92:..\u8g2-master\csrc/u8x8_d_ssd1327.c ****   
  93:..\u8g2-master\csrc/u8x8_d_ssd1327.c ****   return u8x8_ssd1327_8to32_dest_buf;
  94:..\u8g2-master\csrc/u8x8_d_ssd1327.c **** }
  95:..\u8g2-master\csrc/u8x8_d_ssd1327.c **** 
  96:..\u8g2-master\csrc/u8x8_d_ssd1327.c **** 
  97:..\u8g2-master\csrc/u8x8_d_ssd1327.c **** 
  98:..\u8g2-master\csrc/u8x8_d_ssd1327.c **** 
  99:..\u8g2-master\csrc/u8x8_d_ssd1327.c **** static uint8_t u8x8_d_ssd1327_96x96_generic(u8x8_t *u8x8, uint8_t msg, uint8_t arg_int, void *arg_p
  27              		.loc 1 99 0
  28              		.cfi_startproc
  29              		@ args = 0, pretend = 0, frame = 24
  30              		@ frame_needed = 0, uses_anonymous_args = 0
  31              	.LVL0:
  32 0000 2DE9F04F 		push	{r4, r5, r6, r7, r8, r9, r10, fp, lr}
  33              		.cfi_def_cfa_offset 36
  34              		.cfi_offset 4, -36
  35              		.cfi_offset 5, -32
  36              		.cfi_offset 6, -28
  37              		.cfi_offset 7, -24
  38              		.cfi_offset 8, -20
  39              		.cfi_offset 9, -16
  40              		.cfi_offset 10, -12
  41              		.cfi_offset 11, -8
  42              		.cfi_offset 14, -4
  43 0004 1446     		mov	r4, r2
  44 0006 0646     		mov	r6, r0
  45 0008 87B0     		sub	sp, sp, #28
  46              		.cfi_def_cfa_offset 64
  47              		.loc 1 99 0
  48 000a 0592     		str	r2, [sp, #20]
  49 000c 0391     		str	r1, [sp, #12]
 100:..\u8g2-master\csrc/u8x8_d_ssd1327.c **** {
 101:..\u8g2-master\csrc/u8x8_d_ssd1327.c ****   uint8_t x, y, c;
 102:..\u8g2-master\csrc/u8x8_d_ssd1327.c ****   uint8_t *ptr;
 103:..\u8g2-master\csrc/u8x8_d_ssd1327.c ****   switch(msg)
 104:..\u8g2-master\csrc/u8x8_d_ssd1327.c ****   {
 105:..\u8g2-master\csrc/u8x8_d_ssd1327.c ****     /* handled by the calling function
 106:..\u8g2-master\csrc/u8x8_d_ssd1327.c ****     case U8X8_MSG_DISPLAY_SETUP_MEMORY:
 107:..\u8g2-master\csrc/u8x8_d_ssd1327.c ****       u8x8_d_helper_display_setup_memory(u8x8, &u8x8_ssd1327_96x96_display_info);
 108:..\u8g2-master\csrc/u8x8_d_ssd1327.c ****       break;
 109:..\u8g2-master\csrc/u8x8_d_ssd1327.c ****     */
 110:..\u8g2-master\csrc/u8x8_d_ssd1327.c ****     /* handled by the calling function
 111:..\u8g2-master\csrc/u8x8_d_ssd1327.c ****     case U8X8_MSG_DISPLAY_INIT:
 112:..\u8g2-master\csrc/u8x8_d_ssd1327.c ****       u8x8_d_helper_display_init(u8x8);
 113:..\u8g2-master\csrc/u8x8_d_ssd1327.c ****       u8x8_cad_SendSequence(u8x8, u8x8_d_ssd1327_96x96_init_seq);    
 114:..\u8g2-master\csrc/u8x8_d_ssd1327.c ****       break;
 115:..\u8g2-master\csrc/u8x8_d_ssd1327.c ****     */
 116:..\u8g2-master\csrc/u8x8_d_ssd1327.c ****     case U8X8_MSG_DISPLAY_SET_POWER_SAVE:
 117:..\u8g2-master\csrc/u8x8_d_ssd1327.c ****       if ( arg_int == 0 )
 118:..\u8g2-master\csrc/u8x8_d_ssd1327.c **** 	u8x8_cad_SendSequence(u8x8, u8x8_d_ssd1327_96x96_powersave0_seq);
 119:..\u8g2-master\csrc/u8x8_d_ssd1327.c ****       else
 120:..\u8g2-master\csrc/u8x8_d_ssd1327.c **** 	u8x8_cad_SendSequence(u8x8, u8x8_d_ssd1327_96x96_powersave1_seq);
 121:..\u8g2-master\csrc/u8x8_d_ssd1327.c ****       break;
 122:..\u8g2-master\csrc/u8x8_d_ssd1327.c **** #ifdef U8X8_WITH_SET_CONTRAST
ARM GAS  C:\Users\info\AppData\Local\Temp\ccpgnRHd.s 			page 4


 123:..\u8g2-master\csrc/u8x8_d_ssd1327.c ****     case U8X8_MSG_DISPLAY_SET_CONTRAST:
 124:..\u8g2-master\csrc/u8x8_d_ssd1327.c ****       u8x8_cad_StartTransfer(u8x8);
 125:..\u8g2-master\csrc/u8x8_d_ssd1327.c ****       u8x8_cad_SendCmd(u8x8, 0x081 );
 126:..\u8g2-master\csrc/u8x8_d_ssd1327.c ****       u8x8_cad_SendArg(u8x8, arg_int );	/* ssd1327 has range from 0 to 255 */
 127:..\u8g2-master\csrc/u8x8_d_ssd1327.c ****       u8x8_cad_EndTransfer(u8x8);
 128:..\u8g2-master\csrc/u8x8_d_ssd1327.c ****       break;
 129:..\u8g2-master\csrc/u8x8_d_ssd1327.c **** #endif
 130:..\u8g2-master\csrc/u8x8_d_ssd1327.c ****     case U8X8_MSG_DISPLAY_DRAW_TILE:
 131:..\u8g2-master\csrc/u8x8_d_ssd1327.c ****       u8x8_cad_StartTransfer(u8x8);
  50              		.loc 1 131 0
  51 000e FFF7FEFF 		bl	u8x8_cad_StartTransfer
  52              	.LVL1:
 132:..\u8g2-master\csrc/u8x8_d_ssd1327.c ****       x = ((u8x8_tile_t *)arg_ptr)->x_pos;    
  53              		.loc 1 132 0
  54 0012 6379     		ldrb	r3, [r4, #5]	@ zero_extendqisi2
  55              	.LVL2:
 133:..\u8g2-master\csrc/u8x8_d_ssd1327.c ****       x *= 4;
 134:..\u8g2-master\csrc/u8x8_d_ssd1327.c ****       x+=u8x8->x_offset/2;
  56              		.loc 1 134 0
  57 0014 96F82220 		ldrb	r2, [r6, #34]	@ zero_extendqisi2
 135:..\u8g2-master\csrc/u8x8_d_ssd1327.c ****     
 136:..\u8g2-master\csrc/u8x8_d_ssd1327.c ****       y = (((u8x8_tile_t *)arg_ptr)->y_pos);
  58              		.loc 1 136 0
  59 0018 A479     		ldrb	r4, [r4, #6]	@ zero_extendqisi2
  60              	.LVL3:
 133:..\u8g2-master\csrc/u8x8_d_ssd1327.c ****       x *= 4;
  61              		.loc 1 133 0
  62 001a 9B00     		lsls	r3, r3, #2
  63              	.LVL4:
 134:..\u8g2-master\csrc/u8x8_d_ssd1327.c ****     
  64              		.loc 1 134 0
  65 001c 03EB5203 		add	r3, r3, r2, lsr #1
  66              	.LVL5:
 137:..\u8g2-master\csrc/u8x8_d_ssd1327.c ****       y *= 8;
  67              		.loc 1 137 0
  68 0020 E400     		lsls	r4, r4, #3
 134:..\u8g2-master\csrc/u8x8_d_ssd1327.c ****     
  69              		.loc 1 134 0
  70 0022 03F0FF03 		and	r3, r3, #255
  71              		.loc 1 137 0
  72 0026 E4B2     		uxtb	r4, r4
 138:..\u8g2-master\csrc/u8x8_d_ssd1327.c ****     
 139:..\u8g2-master\csrc/u8x8_d_ssd1327.c ****       u8x8_cad_SendCmd(u8x8, 0x075 );	/* set row address, moved out of the loop (issue 302) */
  73              		.loc 1 139 0
  74 0028 7521     		movs	r1, #117
  75 002a 3046     		mov	r0, r6
 134:..\u8g2-master\csrc/u8x8_d_ssd1327.c ****     
  76              		.loc 1 134 0
  77 002c 0293     		str	r3, [sp, #8]
  78              	.LVL6:
  79              		.loc 1 139 0
  80 002e FFF7FEFF 		bl	u8x8_cad_SendCmd
  81              	.LVL7:
 140:..\u8g2-master\csrc/u8x8_d_ssd1327.c ****       u8x8_cad_SendArg(u8x8, y);
  82              		.loc 1 140 0
  83 0032 2146     		mov	r1, r4
  84 0034 3046     		mov	r0, r6
ARM GAS  C:\Users\info\AppData\Local\Temp\ccpgnRHd.s 			page 5


  85 0036 FFF7FEFF 		bl	u8x8_cad_SendArg
  86              	.LVL8:
 141:..\u8g2-master\csrc/u8x8_d_ssd1327.c ****       u8x8_cad_SendArg(u8x8, y+7);
  87              		.loc 1 141 0
  88 003a E11D     		adds	r1, r4, #7
  89 003c C9B2     		uxtb	r1, r1
  90 003e 3046     		mov	r0, r6
  91 0040 FFF7FEFF 		bl	u8x8_cad_SendArg
  92              	.LVL9:
  93 0044 064D     		ldr	r5, .L8
  94              	.LVL10:
  95              	.L3:
 142:..\u8g2-master\csrc/u8x8_d_ssd1327.c **** 	  
 143:..\u8g2-master\csrc/u8x8_d_ssd1327.c ****       
 144:..\u8g2-master\csrc/u8x8_d_ssd1327.c ****       do
 145:..\u8g2-master\csrc/u8x8_d_ssd1327.c ****       {
 146:..\u8g2-master\csrc/u8x8_d_ssd1327.c **** 	c = ((u8x8_tile_t *)arg_ptr)->cnt;
  96              		.loc 1 146 0
  97 0046 059A     		ldr	r2, [sp, #20]
 147:..\u8g2-master\csrc/u8x8_d_ssd1327.c **** 	ptr = ((u8x8_tile_t *)arg_ptr)->tile_ptr;
  98              		.loc 1 147 0
  99 0048 029C     		ldr	r4, [sp, #8]
 146:..\u8g2-master\csrc/u8x8_d_ssd1327.c **** 	ptr = ((u8x8_tile_t *)arg_ptr)->tile_ptr;
 100              		.loc 1 146 0
 101 004a 1379     		ldrb	r3, [r2, #4]	@ zero_extendqisi2
 102              		.loc 1 147 0
 103 004c 1768     		ldr	r7, [r2]
 146:..\u8g2-master\csrc/u8x8_d_ssd1327.c **** 	ptr = ((u8x8_tile_t *)arg_ptr)->tile_ptr;
 104              		.loc 1 146 0
 105 004e 0493     		str	r3, [sp, #16]
 106              	.LVL11:
 107 0050 013B     		subs	r3, r3, #1
 108              	.LVL12:
 109 0052 DBB2     		uxtb	r3, r3
 110 0054 0233     		adds	r3, r3, #2
 111 0056 07EBC303 		add	r3, r7, r3, lsl #3
 112 005a 0193     		str	r3, [sp, #4]
 113 005c 0837     		adds	r7, r7, #8
 114 005e 01E0     		b	.L9
 115              	.L10:
 116              		.align	2
 117              	.L8:
 118 0060 00000000 		.word	.LANCHOR0
 119              	.L9:
 120              	.LVL13:
 121              	.L2:
 148:..\u8g2-master\csrc/u8x8_d_ssd1327.c **** 
 149:..\u8g2-master\csrc/u8x8_d_ssd1327.c **** 	do
 150:..\u8g2-master\csrc/u8x8_d_ssd1327.c **** 	{
 151:..\u8g2-master\csrc/u8x8_d_ssd1327.c **** 	  u8x8_cad_SendCmd(u8x8, 0x015 );	/* set column address */
 122              		.loc 1 151 0
 123 0064 1521     		movs	r1, #21
 124 0066 3046     		mov	r0, r6
 125 0068 FFF7FEFF 		bl	u8x8_cad_SendCmd
 126              	.LVL14:
 152:..\u8g2-master\csrc/u8x8_d_ssd1327.c **** 	  u8x8_cad_SendArg(u8x8, x );	/* start */
 127              		.loc 1 152 0
ARM GAS  C:\Users\info\AppData\Local\Temp\ccpgnRHd.s 			page 6


 128 006c 2146     		mov	r1, r4
 129 006e 3046     		mov	r0, r6
 130 0070 FFF7FEFF 		bl	u8x8_cad_SendArg
 131              	.LVL15:
 153:..\u8g2-master\csrc/u8x8_d_ssd1327.c **** 	  u8x8_cad_SendArg(u8x8, x+3 );	/* end */
 132              		.loc 1 153 0
 133 0074 E11C     		adds	r1, r4, #3
 134 0076 C9B2     		uxtb	r1, r1
 135 0078 3046     		mov	r0, r6
 136 007a FFF7FEFF 		bl	u8x8_cad_SendArg
 137              	.LVL16:
 138              	.LBB4:
 139              	.LBB5:
  77:..\u8g2-master\csrc/u8x8_d_ssd1327.c ****     ptr++;
 140              		.loc 1 77 0
 141 007e 17F8083C 		ldrb	r3, [r7, #-8]	@ zero_extendqisi2
  79:..\u8g2-master\csrc/u8x8_d_ssd1327.c ****     ptr++;
 142              		.loc 1 79 0
 143 0082 17F8072C 		ldrb	r2, [r7, #-7]	@ zero_extendqisi2
 144 0086 03F00101 		and	r1, r3, #1
 145 008a 0029     		cmp	r1, #0
  88:..\u8g2-master\csrc/u8x8_d_ssd1327.c ****       b >>= 1;
 146              		.loc 1 88 0
 147 008c 4FEA5303 		lsr	r3, r3, #1
 148 0090 15BF     		itete	ne
 149 0092 F020     		movne	r0, #240
 150 0094 0020     		moveq	r0, #0
  86:..\u8g2-master\csrc/u8x8_d_ssd1327.c ****       dest+=4;
 151              		.loc 1 86 0
 152 0096 4FF0FF3A 		movne	r10, #-1
 153 009a 4FF00F0A 		moveq	r10, #15
 154 009e 03F00101 		and	r1, r3, #1
 155 00a2 12F0010F 		tst	r2, #1
 156 00a6 08BF     		it	eq
 157 00a8 8246     		moveq	r10, r0
  89:..\u8g2-master\csrc/u8x8_d_ssd1327.c ****     }
 158              		.loc 1 89 0
 159 00aa 5208     		lsrs	r2, r2, #1
 160 00ac 0029     		cmp	r1, #0
  86:..\u8g2-master\csrc/u8x8_d_ssd1327.c ****       dest+=4;
 161              		.loc 1 86 0
 162 00ae 15BF     		itete	ne
 163 00b0 4FF0FF39 		movne	r9, #-1
 164 00b4 4FF00F09 		moveq	r9, #15
 165 00b8 F021     		movne	r1, #240
 166 00ba 0021     		moveq	r1, #0
  88:..\u8g2-master\csrc/u8x8_d_ssd1327.c ****       b >>= 1;
 167              		.loc 1 88 0
 168 00bc 5B08     		lsrs	r3, r3, #1
  86:..\u8g2-master\csrc/u8x8_d_ssd1327.c ****       dest+=4;
 169              		.loc 1 86 0
 170 00be 12F0010F 		tst	r2, #1
 171 00c2 08BF     		it	eq
 172 00c4 8946     		moveq	r9, r1
 173 00c6 03F00101 		and	r1, r3, #1
 174 00ca 0029     		cmp	r1, #0
  89:..\u8g2-master\csrc/u8x8_d_ssd1327.c ****     }
ARM GAS  C:\Users\info\AppData\Local\Temp\ccpgnRHd.s 			page 7


 175              		.loc 1 89 0
 176 00cc 4FEA5202 		lsr	r2, r2, #1
 177 00d0 15BF     		itete	ne
 178 00d2 4FF0F008 		movne	r8, #240
 179 00d6 4FF00008 		moveq	r8, #0
  86:..\u8g2-master\csrc/u8x8_d_ssd1327.c ****       dest+=4;
 180              		.loc 1 86 0
 181 00da 4FF0FF31 		movne	r1, #-1
 182 00de 0F21     		moveq	r1, #15
  88:..\u8g2-master\csrc/u8x8_d_ssd1327.c ****       b >>= 1;
 183              		.loc 1 88 0
 184 00e0 5B08     		lsrs	r3, r3, #1
  86:..\u8g2-master\csrc/u8x8_d_ssd1327.c ****       dest+=4;
 185              		.loc 1 86 0
 186 00e2 12F0010F 		tst	r2, #1
 187 00e6 18BF     		it	ne
 188 00e8 8846     		movne	r8, r1
 189 00ea 03F00101 		and	r1, r3, #1
 190 00ee 0029     		cmp	r1, #0
  89:..\u8g2-master\csrc/u8x8_d_ssd1327.c ****     }
 191              		.loc 1 89 0
 192 00f0 4FEA5202 		lsr	r2, r2, #1
 193 00f4 15BF     		itete	ne
 194 00f6 4FF0F00C 		movne	ip, #240
 195 00fa 4FF0000C 		moveq	ip, #0
  86:..\u8g2-master\csrc/u8x8_d_ssd1327.c ****       dest+=4;
 196              		.loc 1 86 0
 197 00fe 4FF0FF31 		movne	r1, #-1
 198 0102 0F21     		moveq	r1, #15
  88:..\u8g2-master\csrc/u8x8_d_ssd1327.c ****       b >>= 1;
 199              		.loc 1 88 0
 200 0104 5B08     		lsrs	r3, r3, #1
  86:..\u8g2-master\csrc/u8x8_d_ssd1327.c ****       dest+=4;
 201              		.loc 1 86 0
 202 0106 12F0010F 		tst	r2, #1
 203 010a 18BF     		it	ne
 204 010c 8C46     		movne	ip, r1
 205 010e 03F00101 		and	r1, r3, #1
 206 0112 0029     		cmp	r1, #0
  89:..\u8g2-master\csrc/u8x8_d_ssd1327.c ****     }
 207              		.loc 1 89 0
 208 0114 4FEA5202 		lsr	r2, r2, #1
  86:..\u8g2-master\csrc/u8x8_d_ssd1327.c ****       dest+=4;
 209              		.loc 1 86 0
 210 0118 15BF     		itete	ne
 211 011a 4FF0FF3E 		movne	lr, #-1
 212 011e 4FF00F0E 		moveq	lr, #15
 213 0122 F021     		movne	r1, #240
 214 0124 0021     		moveq	r1, #0
  88:..\u8g2-master\csrc/u8x8_d_ssd1327.c ****       b >>= 1;
 215              		.loc 1 88 0
 216 0126 5B08     		lsrs	r3, r3, #1
  86:..\u8g2-master\csrc/u8x8_d_ssd1327.c ****       dest+=4;
 217              		.loc 1 86 0
 218 0128 12F0010F 		tst	r2, #1
 219 012c 08BF     		it	eq
 220 012e 8E46     		moveq	lr, r1
ARM GAS  C:\Users\info\AppData\Local\Temp\ccpgnRHd.s 			page 8


 221 0130 03F00101 		and	r1, r3, #1
 222 0134 0029     		cmp	r1, #0
  89:..\u8g2-master\csrc/u8x8_d_ssd1327.c ****     }
 223              		.loc 1 89 0
 224 0136 4FEA5202 		lsr	r2, r2, #1
  86:..\u8g2-master\csrc/u8x8_d_ssd1327.c ****       dest+=4;
 225              		.loc 1 86 0
 226 013a 15BF     		itete	ne
 227 013c 4FF0FF30 		movne	r0, #-1
 228 0140 0F20     		moveq	r0, #15
 229 0142 F021     		movne	r1, #240
 230 0144 0021     		moveq	r1, #0
  88:..\u8g2-master\csrc/u8x8_d_ssd1327.c ****       b >>= 1;
 231              		.loc 1 88 0
 232 0146 5B08     		lsrs	r3, r3, #1
  86:..\u8g2-master\csrc/u8x8_d_ssd1327.c ****       dest+=4;
 233              		.loc 1 86 0
 234 0148 12F0010F 		tst	r2, #1
 235 014c 08BF     		it	eq
 236 014e 0846     		moveq	r0, r1
 237 0150 03F00101 		and	r1, r3, #1
 238 0154 0029     		cmp	r1, #0
  89:..\u8g2-master\csrc/u8x8_d_ssd1327.c ****     }
 239              		.loc 1 89 0
 240 0156 4FEA5202 		lsr	r2, r2, #1
  86:..\u8g2-master\csrc/u8x8_d_ssd1327.c ****       dest+=4;
 241              		.loc 1 86 0
 242 015a 14BF     		ite	ne
 243 015c 4FF0FF3B 		movne	fp, #-1
 244 0160 4FF00F0B 		moveq	fp, #15
  88:..\u8g2-master\csrc/u8x8_d_ssd1327.c ****       b >>= 1;
 245              		.loc 1 88 0
 246 0164 4FEA5303 		lsr	r3, r3, #1
 247 0168 14BF     		ite	ne
 248 016a F021     		movne	r1, #240
 249 016c 0021     		moveq	r1, #0
  86:..\u8g2-master\csrc/u8x8_d_ssd1327.c ****       dest+=4;
 250              		.loc 1 86 0
 251 016e 12F0010F 		tst	r2, #1
 252 0172 18BF     		it	ne
 253 0174 5946     		movne	r1, fp
 254 0176 002B     		cmp	r3, #0
 255 0178 15BF     		itete	ne
 256 017a 4FF0F00B 		movne	fp, #240
 257 017e 4FF0000B 		moveq	fp, #0
 258 0182 4FF0FF33 		movne	r3, #-1
 259 0186 0F23     		moveq	r3, #15
 260 0188 5208     		lsrs	r2, r2, #1
 261 018a 08BF     		it	eq
 262 018c 5B46     		moveq	r3, fp
 263 018e 2875     		strb	r0, [r5, #20]
 264 0190 85F80CC0 		strb	ip, [r5, #12]
 265 0194 85F800A0 		strb	r10, [r5]
 266 0198 85F80490 		strb	r9, [r5, #4]
 267 019c 85F80880 		strb	r8, [r5, #8]
 268 01a0 85F810E0 		strb	lr, [r5, #16]
 269 01a4 2976     		strb	r1, [r5, #24]
ARM GAS  C:\Users\info\AppData\Local\Temp\ccpgnRHd.s 			page 9


 270              	.LVL17:
 271 01a6 2B77     		strb	r3, [r5, #28]
 272              	.LVL18:
  77:..\u8g2-master\csrc/u8x8_d_ssd1327.c ****     ptr++;
 273              		.loc 1 77 0
 274 01a8 17F8063C 		ldrb	r3, [r7, #-6]	@ zero_extendqisi2
 275              	.LVL19:
  79:..\u8g2-master\csrc/u8x8_d_ssd1327.c ****     ptr++;
 276              		.loc 1 79 0
 277 01ac 17F8052C 		ldrb	r2, [r7, #-5]	@ zero_extendqisi2
 278              	.LVL20:
 279 01b0 03F00101 		and	r1, r3, #1
 280 01b4 0029     		cmp	r1, #0
  88:..\u8g2-master\csrc/u8x8_d_ssd1327.c ****       b >>= 1;
 281              		.loc 1 88 0
 282 01b6 4FEA5303 		lsr	r3, r3, #1
  86:..\u8g2-master\csrc/u8x8_d_ssd1327.c ****       dest+=4;
 283              		.loc 1 86 0
 284 01ba 15BF     		itete	ne
 285 01bc 4FF0FF30 		movne	r0, #-1
 286 01c0 0F20     		moveq	r0, #15
 287 01c2 4FF0F00A 		movne	r10, #240
 288 01c6 4FF0000A 		moveq	r10, #0
 289 01ca 03F00101 		and	r1, r3, #1
 290 01ce 12F0010F 		tst	r2, #1
 291 01d2 18BF     		it	ne
 292 01d4 8246     		movne	r10, r0
  89:..\u8g2-master\csrc/u8x8_d_ssd1327.c ****     }
 293              		.loc 1 89 0
 294 01d6 5208     		lsrs	r2, r2, #1
 295 01d8 0029     		cmp	r1, #0
 296 01da 15BF     		itete	ne
 297 01dc 4FF0F009 		movne	r9, #240
 298 01e0 4FF00009 		moveq	r9, #0
  86:..\u8g2-master\csrc/u8x8_d_ssd1327.c ****       dest+=4;
 299              		.loc 1 86 0
 300 01e4 4FF0FF31 		movne	r1, #-1
 301 01e8 0F21     		moveq	r1, #15
  88:..\u8g2-master\csrc/u8x8_d_ssd1327.c ****       b >>= 1;
 302              		.loc 1 88 0
 303 01ea 5B08     		lsrs	r3, r3, #1
  86:..\u8g2-master\csrc/u8x8_d_ssd1327.c ****       dest+=4;
 304              		.loc 1 86 0
 305 01ec 12F0010F 		tst	r2, #1
 306 01f0 18BF     		it	ne
 307 01f2 8946     		movne	r9, r1
 308 01f4 03F00101 		and	r1, r3, #1
 309 01f8 0029     		cmp	r1, #0
  89:..\u8g2-master\csrc/u8x8_d_ssd1327.c ****     }
 310              		.loc 1 89 0
 311 01fa 4FEA5202 		lsr	r2, r2, #1
 312 01fe 15BF     		itete	ne
 313 0200 4FF0F008 		movne	r8, #240
 314 0204 4FF00008 		moveq	r8, #0
  86:..\u8g2-master\csrc/u8x8_d_ssd1327.c ****       dest+=4;
 315              		.loc 1 86 0
 316 0208 4FF0FF31 		movne	r1, #-1
ARM GAS  C:\Users\info\AppData\Local\Temp\ccpgnRHd.s 			page 10


 317 020c 0F21     		moveq	r1, #15
  88:..\u8g2-master\csrc/u8x8_d_ssd1327.c ****       b >>= 1;
 318              		.loc 1 88 0
 319 020e 5B08     		lsrs	r3, r3, #1
  86:..\u8g2-master\csrc/u8x8_d_ssd1327.c ****       dest+=4;
 320              		.loc 1 86 0
 321 0210 12F0010F 		tst	r2, #1
 322 0214 18BF     		it	ne
 323 0216 8846     		movne	r8, r1
 324 0218 03F00101 		and	r1, r3, #1
 325 021c 0029     		cmp	r1, #0
  89:..\u8g2-master\csrc/u8x8_d_ssd1327.c ****     }
 326              		.loc 1 89 0
 327 021e 4FEA5202 		lsr	r2, r2, #1
 328 0222 15BF     		itete	ne
 329 0224 4FF0F00C 		movne	ip, #240
 330 0228 4FF0000C 		moveq	ip, #0
  86:..\u8g2-master\csrc/u8x8_d_ssd1327.c ****       dest+=4;
 331              		.loc 1 86 0
 332 022c 4FF0FF31 		movne	r1, #-1
 333 0230 0F21     		moveq	r1, #15
  88:..\u8g2-master\csrc/u8x8_d_ssd1327.c ****       b >>= 1;
 334              		.loc 1 88 0
 335 0232 5B08     		lsrs	r3, r3, #1
  86:..\u8g2-master\csrc/u8x8_d_ssd1327.c ****       dest+=4;
 336              		.loc 1 86 0
 337 0234 12F0010F 		tst	r2, #1
 338 0238 18BF     		it	ne
 339 023a 8C46     		movne	ip, r1
 340 023c 03F00101 		and	r1, r3, #1
 341 0240 0029     		cmp	r1, #0
  89:..\u8g2-master\csrc/u8x8_d_ssd1327.c ****     }
 342              		.loc 1 89 0
 343 0242 4FEA5202 		lsr	r2, r2, #1
 344 0246 15BF     		itete	ne
 345 0248 4FF0F00E 		movne	lr, #240
 346 024c 4FF0000E 		moveq	lr, #0
  86:..\u8g2-master\csrc/u8x8_d_ssd1327.c ****       dest+=4;
 347              		.loc 1 86 0
 348 0250 4FF0FF31 		movne	r1, #-1
 349 0254 0F21     		moveq	r1, #15
  88:..\u8g2-master\csrc/u8x8_d_ssd1327.c ****       b >>= 1;
 350              		.loc 1 88 0
 351 0256 5B08     		lsrs	r3, r3, #1
  86:..\u8g2-master\csrc/u8x8_d_ssd1327.c ****       dest+=4;
 352              		.loc 1 86 0
 353 0258 12F0010F 		tst	r2, #1
 354 025c 18BF     		it	ne
 355 025e 8E46     		movne	lr, r1
 356 0260 03F00101 		and	r1, r3, #1
 357 0264 0029     		cmp	r1, #0
  89:..\u8g2-master\csrc/u8x8_d_ssd1327.c ****     }
 358              		.loc 1 89 0
 359 0266 4FEA5202 		lsr	r2, r2, #1
 360 026a 15BF     		itete	ne
 361 026c F020     		movne	r0, #240
 362 026e 0020     		moveq	r0, #0
ARM GAS  C:\Users\info\AppData\Local\Temp\ccpgnRHd.s 			page 11


  86:..\u8g2-master\csrc/u8x8_d_ssd1327.c ****       dest+=4;
 363              		.loc 1 86 0
 364 0270 4FF0FF31 		movne	r1, #-1
 365 0274 0F21     		moveq	r1, #15
  88:..\u8g2-master\csrc/u8x8_d_ssd1327.c ****       b >>= 1;
 366              		.loc 1 88 0
 367 0276 5B08     		lsrs	r3, r3, #1
  86:..\u8g2-master\csrc/u8x8_d_ssd1327.c ****       dest+=4;
 368              		.loc 1 86 0
 369 0278 12F0010F 		tst	r2, #1
 370 027c 18BF     		it	ne
 371 027e 0846     		movne	r0, r1
 372 0280 03F00101 		and	r1, r3, #1
 373 0284 0029     		cmp	r1, #0
  89:..\u8g2-master\csrc/u8x8_d_ssd1327.c ****     }
 374              		.loc 1 89 0
 375 0286 4FEA5202 		lsr	r2, r2, #1
 376 028a 14BF     		ite	ne
 377 028c 4FF0F00B 		movne	fp, #240
 378 0290 4FF0000B 		moveq	fp, #0
  88:..\u8g2-master\csrc/u8x8_d_ssd1327.c ****       b >>= 1;
 379              		.loc 1 88 0
 380 0294 4FEA5303 		lsr	r3, r3, #1
  86:..\u8g2-master\csrc/u8x8_d_ssd1327.c ****       dest+=4;
 381              		.loc 1 86 0
 382 0298 14BF     		ite	ne
 383 029a 4FF0FF31 		movne	r1, #-1
 384 029e 0F21     		moveq	r1, #15
 385 02a0 12F0010F 		tst	r2, #1
 386 02a4 08BF     		it	eq
 387 02a6 5946     		moveq	r1, fp
 388 02a8 002B     		cmp	r3, #0
 389 02aa 15BF     		itete	ne
 390 02ac 4FF0FF3B 		movne	fp, #-1
 391 02b0 4FF00F0B 		moveq	fp, #15
 392 02b4 F023     		movne	r3, #240
 393 02b6 0023     		moveq	r3, #0
 394 02b8 5208     		lsrs	r2, r2, #1
 395 02ba 18BF     		it	ne
 396 02bc 5B46     		movne	r3, fp
 397 02be 6875     		strb	r0, [r5, #21]
 398 02c0 85F80DC0 		strb	ip, [r5, #13]
 399 02c4 85F801A0 		strb	r10, [r5, #1]
 400 02c8 85F80590 		strb	r9, [r5, #5]
 401 02cc 85F80980 		strb	r8, [r5, #9]
 402 02d0 85F811E0 		strb	lr, [r5, #17]
 403 02d4 6976     		strb	r1, [r5, #25]
 404 02d6 6B77     		strb	r3, [r5, #29]
 405              	.LVL21:
  77:..\u8g2-master\csrc/u8x8_d_ssd1327.c ****     ptr++;
 406              		.loc 1 77 0
 407 02d8 17F8043C 		ldrb	r3, [r7, #-4]	@ zero_extendqisi2
 408              	.LVL22:
  79:..\u8g2-master\csrc/u8x8_d_ssd1327.c ****     ptr++;
 409              		.loc 1 79 0
 410 02dc 17F8032C 		ldrb	r2, [r7, #-3]	@ zero_extendqisi2
 411              	.LVL23:
ARM GAS  C:\Users\info\AppData\Local\Temp\ccpgnRHd.s 			page 12


 412 02e0 03F00101 		and	r1, r3, #1
 413 02e4 0029     		cmp	r1, #0
  88:..\u8g2-master\csrc/u8x8_d_ssd1327.c ****       b >>= 1;
 414              		.loc 1 88 0
 415 02e6 4FEA5303 		lsr	r3, r3, #1
  86:..\u8g2-master\csrc/u8x8_d_ssd1327.c ****       dest+=4;
 416              		.loc 1 86 0
 417 02ea 15BF     		itete	ne
 418 02ec 4FF0FF30 		movne	r0, #-1
 419 02f0 0F20     		moveq	r0, #15
 420 02f2 4FF0F00A 		movne	r10, #240
 421 02f6 4FF0000A 		moveq	r10, #0
 422 02fa 03F00101 		and	r1, r3, #1
 423 02fe 12F0010F 		tst	r2, #1
 424 0302 18BF     		it	ne
 425 0304 8246     		movne	r10, r0
  89:..\u8g2-master\csrc/u8x8_d_ssd1327.c ****     }
 426              		.loc 1 89 0
 427 0306 5208     		lsrs	r2, r2, #1
 428 0308 0029     		cmp	r1, #0
 429 030a 15BF     		itete	ne
 430 030c 4FF0F009 		movne	r9, #240
 431 0310 4FF00009 		moveq	r9, #0
  86:..\u8g2-master\csrc/u8x8_d_ssd1327.c ****       dest+=4;
 432              		.loc 1 86 0
 433 0314 4FF0FF31 		movne	r1, #-1
 434 0318 0F21     		moveq	r1, #15
  88:..\u8g2-master\csrc/u8x8_d_ssd1327.c ****       b >>= 1;
 435              		.loc 1 88 0
 436 031a 5B08     		lsrs	r3, r3, #1
  86:..\u8g2-master\csrc/u8x8_d_ssd1327.c ****       dest+=4;
 437              		.loc 1 86 0
 438 031c 12F0010F 		tst	r2, #1
 439 0320 18BF     		it	ne
 440 0322 8946     		movne	r9, r1
 441 0324 03F00101 		and	r1, r3, #1
 442 0328 0029     		cmp	r1, #0
  89:..\u8g2-master\csrc/u8x8_d_ssd1327.c ****     }
 443              		.loc 1 89 0
 444 032a 4FEA5202 		lsr	r2, r2, #1
 445 032e 15BF     		itete	ne
 446 0330 4FF0F008 		movne	r8, #240
 447 0334 4FF00008 		moveq	r8, #0
  86:..\u8g2-master\csrc/u8x8_d_ssd1327.c ****       dest+=4;
 448              		.loc 1 86 0
 449 0338 4FF0FF31 		movne	r1, #-1
 450 033c 0F21     		moveq	r1, #15
  88:..\u8g2-master\csrc/u8x8_d_ssd1327.c ****       b >>= 1;
 451              		.loc 1 88 0
 452 033e 5B08     		lsrs	r3, r3, #1
  86:..\u8g2-master\csrc/u8x8_d_ssd1327.c ****       dest+=4;
 453              		.loc 1 86 0
 454 0340 12F0010F 		tst	r2, #1
 455 0344 18BF     		it	ne
 456 0346 8846     		movne	r8, r1
 457 0348 03F00101 		and	r1, r3, #1
 458 034c 0029     		cmp	r1, #0
ARM GAS  C:\Users\info\AppData\Local\Temp\ccpgnRHd.s 			page 13


  89:..\u8g2-master\csrc/u8x8_d_ssd1327.c ****     }
 459              		.loc 1 89 0
 460 034e 4FEA5202 		lsr	r2, r2, #1
 461 0352 15BF     		itete	ne
 462 0354 4FF0F00C 		movne	ip, #240
 463 0358 4FF0000C 		moveq	ip, #0
  86:..\u8g2-master\csrc/u8x8_d_ssd1327.c ****       dest+=4;
 464              		.loc 1 86 0
 465 035c 4FF0FF31 		movne	r1, #-1
 466 0360 0F21     		moveq	r1, #15
  88:..\u8g2-master\csrc/u8x8_d_ssd1327.c ****       b >>= 1;
 467              		.loc 1 88 0
 468 0362 5B08     		lsrs	r3, r3, #1
  86:..\u8g2-master\csrc/u8x8_d_ssd1327.c ****       dest+=4;
 469              		.loc 1 86 0
 470 0364 12F0010F 		tst	r2, #1
 471 0368 18BF     		it	ne
 472 036a 8C46     		movne	ip, r1
 473 036c 03F00101 		and	r1, r3, #1
 474 0370 0029     		cmp	r1, #0
  89:..\u8g2-master\csrc/u8x8_d_ssd1327.c ****     }
 475              		.loc 1 89 0
 476 0372 4FEA5202 		lsr	r2, r2, #1
 477 0376 15BF     		itete	ne
 478 0378 4FF0F00E 		movne	lr, #240
 479 037c 4FF0000E 		moveq	lr, #0
  86:..\u8g2-master\csrc/u8x8_d_ssd1327.c ****       dest+=4;
 480              		.loc 1 86 0
 481 0380 4FF0FF31 		movne	r1, #-1
 482 0384 0F21     		moveq	r1, #15
  88:..\u8g2-master\csrc/u8x8_d_ssd1327.c ****       b >>= 1;
 483              		.loc 1 88 0
 484 0386 5B08     		lsrs	r3, r3, #1
  86:..\u8g2-master\csrc/u8x8_d_ssd1327.c ****       dest+=4;
 485              		.loc 1 86 0
 486 0388 12F0010F 		tst	r2, #1
 487 038c 18BF     		it	ne
 488 038e 8E46     		movne	lr, r1
 489 0390 03F00101 		and	r1, r3, #1
 490 0394 0029     		cmp	r1, #0
  89:..\u8g2-master\csrc/u8x8_d_ssd1327.c ****     }
 491              		.loc 1 89 0
 492 0396 4FEA5202 		lsr	r2, r2, #1
 493 039a 15BF     		itete	ne
 494 039c F020     		movne	r0, #240
 495 039e 0020     		moveq	r0, #0
  86:..\u8g2-master\csrc/u8x8_d_ssd1327.c ****       dest+=4;
 496              		.loc 1 86 0
 497 03a0 4FF0FF31 		movne	r1, #-1
 498 03a4 0F21     		moveq	r1, #15
  88:..\u8g2-master\csrc/u8x8_d_ssd1327.c ****       b >>= 1;
 499              		.loc 1 88 0
 500 03a6 5B08     		lsrs	r3, r3, #1
  86:..\u8g2-master\csrc/u8x8_d_ssd1327.c ****       dest+=4;
 501              		.loc 1 86 0
 502 03a8 12F0010F 		tst	r2, #1
 503 03ac 18BF     		it	ne
ARM GAS  C:\Users\info\AppData\Local\Temp\ccpgnRHd.s 			page 14


 504 03ae 0846     		movne	r0, r1
 505 03b0 03F00101 		and	r1, r3, #1
 506 03b4 0029     		cmp	r1, #0
  89:..\u8g2-master\csrc/u8x8_d_ssd1327.c ****     }
 507              		.loc 1 89 0
 508 03b6 4FEA5202 		lsr	r2, r2, #1
 509 03ba 14BF     		ite	ne
 510 03bc 4FF0F00B 		movne	fp, #240
 511 03c0 4FF0000B 		moveq	fp, #0
  88:..\u8g2-master\csrc/u8x8_d_ssd1327.c ****       b >>= 1;
 512              		.loc 1 88 0
 513 03c4 4FEA5303 		lsr	r3, r3, #1
  86:..\u8g2-master\csrc/u8x8_d_ssd1327.c ****       dest+=4;
 514              		.loc 1 86 0
 515 03c8 14BF     		ite	ne
 516 03ca 4FF0FF31 		movne	r1, #-1
 517 03ce 0F21     		moveq	r1, #15
 518 03d0 12F0010F 		tst	r2, #1
 519 03d4 08BF     		it	eq
 520 03d6 5946     		moveq	r1, fp
 521 03d8 002B     		cmp	r3, #0
 522 03da 15BF     		itete	ne
 523 03dc 4FF0FF3B 		movne	fp, #-1
 524 03e0 4FF00F0B 		moveq	fp, #15
 525 03e4 F023     		movne	r3, #240
 526 03e6 0023     		moveq	r3, #0
 527 03e8 5208     		lsrs	r2, r2, #1
 528 03ea 18BF     		it	ne
 529 03ec 5B46     		movne	r3, fp
 530 03ee A875     		strb	r0, [r5, #22]
 531 03f0 85F80EC0 		strb	ip, [r5, #14]
 532 03f4 85F802A0 		strb	r10, [r5, #2]
 533 03f8 85F80690 		strb	r9, [r5, #6]
 534 03fc 85F80A80 		strb	r8, [r5, #10]
 535 0400 85F812E0 		strb	lr, [r5, #18]
 536 0404 A976     		strb	r1, [r5, #26]
 537 0406 AB77     		strb	r3, [r5, #30]
 538              	.LVL24:
  77:..\u8g2-master\csrc/u8x8_d_ssd1327.c ****     ptr++;
 539              		.loc 1 77 0
 540 0408 17F8023C 		ldrb	r3, [r7, #-2]	@ zero_extendqisi2
 541              	.LVL25:
  79:..\u8g2-master\csrc/u8x8_d_ssd1327.c ****     ptr++;
 542              		.loc 1 79 0
 543 040c 17F8012C 		ldrb	r2, [r7, #-1]	@ zero_extendqisi2
 544              	.LVL26:
 545 0410 03F00101 		and	r1, r3, #1
 546 0414 0029     		cmp	r1, #0
  88:..\u8g2-master\csrc/u8x8_d_ssd1327.c ****       b >>= 1;
 547              		.loc 1 88 0
 548 0416 4FEA5303 		lsr	r3, r3, #1
 549 041a 03F00101 		and	r1, r3, #1
  86:..\u8g2-master\csrc/u8x8_d_ssd1327.c ****       dest+=4;
 550              		.loc 1 86 0
 551 041e 15BF     		itete	ne
 552 0420 4FF0FF30 		movne	r0, #-1
 553 0424 0F20     		moveq	r0, #15
ARM GAS  C:\Users\info\AppData\Local\Temp\ccpgnRHd.s 			page 15


 554 0426 4FF0F00A 		movne	r10, #240
 555 042a 4FF0000A 		moveq	r10, #0
 556 042e 12F0010F 		tst	r2, #1
 557 0432 18BF     		it	ne
 558 0434 8246     		movne	r10, r0
  89:..\u8g2-master\csrc/u8x8_d_ssd1327.c ****     }
 559              		.loc 1 89 0
 560 0436 5208     		lsrs	r2, r2, #1
 561 0438 0029     		cmp	r1, #0
 562 043a 15BF     		itete	ne
 563 043c F021     		movne	r1, #240
 564 043e 0021     		moveq	r1, #0
  86:..\u8g2-master\csrc/u8x8_d_ssd1327.c ****       dest+=4;
 565              		.loc 1 86 0
 566 0440 4FF0FF39 		movne	r9, #-1
 567 0444 4FF00F09 		moveq	r9, #15
  88:..\u8g2-master\csrc/u8x8_d_ssd1327.c ****       b >>= 1;
 568              		.loc 1 88 0
 569 0448 5B08     		lsrs	r3, r3, #1
  86:..\u8g2-master\csrc/u8x8_d_ssd1327.c ****       dest+=4;
 570              		.loc 1 86 0
 571 044a 12F0010F 		tst	r2, #1
 572 044e 08BF     		it	eq
 573 0450 8946     		moveq	r9, r1
 574 0452 03F00101 		and	r1, r3, #1
 575 0456 0029     		cmp	r1, #0
  89:..\u8g2-master\csrc/u8x8_d_ssd1327.c ****     }
 576              		.loc 1 89 0
 577 0458 4FEA5202 		lsr	r2, r2, #1
 578 045c 15BF     		itete	ne
 579 045e F021     		movne	r1, #240
 580 0460 0021     		moveq	r1, #0
  86:..\u8g2-master\csrc/u8x8_d_ssd1327.c ****       dest+=4;
 581              		.loc 1 86 0
 582 0462 4FF0FF38 		movne	r8, #-1
 583 0466 4FF00F08 		moveq	r8, #15
  88:..\u8g2-master\csrc/u8x8_d_ssd1327.c ****       b >>= 1;
 584              		.loc 1 88 0
 585 046a 5B08     		lsrs	r3, r3, #1
  86:..\u8g2-master\csrc/u8x8_d_ssd1327.c ****       dest+=4;
 586              		.loc 1 86 0
 587 046c 12F0010F 		tst	r2, #1
 588 0470 08BF     		it	eq
 589 0472 8846     		moveq	r8, r1
 590 0474 03F00101 		and	r1, r3, #1
 591 0478 0029     		cmp	r1, #0
  89:..\u8g2-master\csrc/u8x8_d_ssd1327.c ****     }
 592              		.loc 1 89 0
 593 047a 4FEA5202 		lsr	r2, r2, #1
  86:..\u8g2-master\csrc/u8x8_d_ssd1327.c ****       dest+=4;
 594              		.loc 1 86 0
 595 047e 15BF     		itete	ne
 596 0480 4FF0FF3C 		movne	ip, #-1
 597 0484 4FF00F0C 		moveq	ip, #15
 598 0488 F021     		movne	r1, #240
 599 048a 0021     		moveq	r1, #0
  88:..\u8g2-master\csrc/u8x8_d_ssd1327.c ****       b >>= 1;
ARM GAS  C:\Users\info\AppData\Local\Temp\ccpgnRHd.s 			page 16


 600              		.loc 1 88 0
 601 048c 5B08     		lsrs	r3, r3, #1
  86:..\u8g2-master\csrc/u8x8_d_ssd1327.c ****       dest+=4;
 602              		.loc 1 86 0
 603 048e 12F0010F 		tst	r2, #1
 604 0492 08BF     		it	eq
 605 0494 8C46     		moveq	ip, r1
 606 0496 03F00101 		and	r1, r3, #1
 607 049a 0029     		cmp	r1, #0
  89:..\u8g2-master\csrc/u8x8_d_ssd1327.c ****     }
 608              		.loc 1 89 0
 609 049c 4FEA5202 		lsr	r2, r2, #1
 610 04a0 15BF     		itete	ne
 611 04a2 F021     		movne	r1, #240
 612 04a4 0021     		moveq	r1, #0
  86:..\u8g2-master\csrc/u8x8_d_ssd1327.c ****       dest+=4;
 613              		.loc 1 86 0
 614 04a6 4FF0FF30 		movne	r0, #-1
 615 04aa 0F20     		moveq	r0, #15
  88:..\u8g2-master\csrc/u8x8_d_ssd1327.c ****       b >>= 1;
 616              		.loc 1 88 0
 617 04ac 5B08     		lsrs	r3, r3, #1
  86:..\u8g2-master\csrc/u8x8_d_ssd1327.c ****       dest+=4;
 618              		.loc 1 86 0
 619 04ae 12F0010F 		tst	r2, #1
 620 04b2 18BF     		it	ne
 621 04b4 0146     		movne	r1, r0
 622 04b6 03F00100 		and	r0, r3, #1
 623 04ba 0028     		cmp	r0, #0
  89:..\u8g2-master\csrc/u8x8_d_ssd1327.c ****     }
 624              		.loc 1 89 0
 625 04bc 4FEA5202 		lsr	r2, r2, #1
 626 04c0 15BF     		itete	ne
 627 04c2 F020     		movne	r0, #240
 628 04c4 0020     		moveq	r0, #0
  86:..\u8g2-master\csrc/u8x8_d_ssd1327.c ****       dest+=4;
 629              		.loc 1 86 0
 630 04c6 4FF0FF3E 		movne	lr, #-1
 631 04ca 4FF00F0E 		moveq	lr, #15
  88:..\u8g2-master\csrc/u8x8_d_ssd1327.c ****       b >>= 1;
 632              		.loc 1 88 0
 633 04ce 5B08     		lsrs	r3, r3, #1
  86:..\u8g2-master\csrc/u8x8_d_ssd1327.c ****       dest+=4;
 634              		.loc 1 86 0
 635 04d0 12F0010F 		tst	r2, #1
 636 04d4 18BF     		it	ne
 637 04d6 7046     		movne	r0, lr
 638 04d8 03F0010E 		and	lr, r3, #1
 639 04dc BEF1000F 		cmp	lr, #0
  89:..\u8g2-master\csrc/u8x8_d_ssd1327.c ****     }
 640              		.loc 1 89 0
 641 04e0 4FEA5202 		lsr	r2, r2, #1
  88:..\u8g2-master\csrc/u8x8_d_ssd1327.c ****       b >>= 1;
 642              		.loc 1 88 0
 643 04e4 4FEA5303 		lsr	r3, r3, #1
 644 04e8 15BF     		itete	ne
 645 04ea 4FF0F00E 		movne	lr, #240
ARM GAS  C:\Users\info\AppData\Local\Temp\ccpgnRHd.s 			page 17


 646 04ee 4FF0000E 		moveq	lr, #0
  86:..\u8g2-master\csrc/u8x8_d_ssd1327.c ****       dest+=4;
 647              		.loc 1 86 0
 648 04f2 4FF0FF3B 		movne	fp, #-1
 649 04f6 4FF00F0B 		moveq	fp, #15
 650 04fa 12F0010F 		tst	r2, #1
 651 04fe 18BF     		it	ne
 652 0500 DE46     		movne	lr, fp
 653 0502 002B     		cmp	r3, #0
 654 0504 15BF     		itete	ne
 655 0506 F023     		movne	r3, #240
 656 0508 0023     		moveq	r3, #0
 657 050a 4FF0FF3B 		movne	fp, #-1
 658 050e 4FF00F0B 		moveq	fp, #15
 659 0512 5208     		lsrs	r2, r2, #1
 660 0514 18BF     		it	ne
 661 0516 5B46     		movne	r3, fp
 662 0518 85F803A0 		strb	r10, [r5, #3]
 663              	.LBE5:
 664              	.LBE4:
 154:..\u8g2-master\csrc/u8x8_d_ssd1327.c **** 
 155:..\u8g2-master\csrc/u8x8_d_ssd1327.c **** 	  
 156:..\u8g2-master\csrc/u8x8_d_ssd1327.c **** 	  u8x8_cad_SendData(u8x8, 32, u8x8_ssd1327_8to32(u8x8, ptr));
 665              		.loc 1 156 0
 666 051c 154A     		ldr	r2, .L11
 667              	.LBB8:
 668              	.LBB6:
  86:..\u8g2-master\csrc/u8x8_d_ssd1327.c ****       dest+=4;
 669              		.loc 1 86 0
 670 051e E974     		strb	r1, [r5, #19]
 671 0520 E875     		strb	r0, [r5, #23]
 672              	.LBE6:
 673              	.LBE8:
 674              		.loc 1 156 0
 675 0522 2021     		movs	r1, #32
 676 0524 3046     		mov	r0, r6
 677              	.LBB9:
 678              	.LBB7:
  86:..\u8g2-master\csrc/u8x8_d_ssd1327.c ****       dest+=4;
 679              		.loc 1 86 0
 680 0526 EB77     		strb	r3, [r5, #31]
 681 0528 85F80790 		strb	r9, [r5, #7]
 682 052c 85F80B80 		strb	r8, [r5, #11]
 683 0530 85F80FC0 		strb	ip, [r5, #15]
 684 0534 85F81BE0 		strb	lr, [r5, #27]
 685              	.LBE7:
 686              	.LBE9:
 687              		.loc 1 156 0
 688 0538 FFF7FEFF 		bl	u8x8_cad_SendData
 689              	.LVL27:
 157:..\u8g2-master\csrc/u8x8_d_ssd1327.c **** 	  ptr += 8;
 158:..\u8g2-master\csrc/u8x8_d_ssd1327.c **** 	  x += 4;
 159:..\u8g2-master\csrc/u8x8_d_ssd1327.c **** 	  c--;
 160:..\u8g2-master\csrc/u8x8_d_ssd1327.c **** 	} while( c > 0 );
 690              		.loc 1 160 0
 691 053c 019B     		ldr	r3, [sp, #4]
 692 053e 0837     		adds	r7, r7, #8
ARM GAS  C:\Users\info\AppData\Local\Temp\ccpgnRHd.s 			page 18


 158:..\u8g2-master\csrc/u8x8_d_ssd1327.c **** 	  c--;
 693              		.loc 1 158 0
 694 0540 0434     		adds	r4, r4, #4
 695              	.LVL28:
 696              		.loc 1 160 0
 697 0542 9F42     		cmp	r7, r3
 158:..\u8g2-master\csrc/u8x8_d_ssd1327.c **** 	  c--;
 698              		.loc 1 158 0
 699 0544 E4B2     		uxtb	r4, r4
 700              	.LVL29:
 701              		.loc 1 160 0
 702 0546 7FF48DAD 		bne	.L2
 703 054a 029B     		ldr	r3, [sp, #8]
 704 054c 049A     		ldr	r2, [sp, #16]
 705 054e 03EB8203 		add	r3, r3, r2, lsl #2
 161:..\u8g2-master\csrc/u8x8_d_ssd1327.c **** 	
 162:..\u8g2-master\csrc/u8x8_d_ssd1327.c **** 	//x += 4;
 163:..\u8g2-master\csrc/u8x8_d_ssd1327.c **** 	arg_int--;
 706              		.loc 1 163 0
 707 0552 039A     		ldr	r2, [sp, #12]
 708 0554 DBB2     		uxtb	r3, r3
 709 0556 013A     		subs	r2, r2, #1
 710              	.LVL30:
 711 0558 0293     		str	r3, [sp, #8]
 164:..\u8g2-master\csrc/u8x8_d_ssd1327.c ****       } while( arg_int > 0 );
 712              		.loc 1 164 0
 713 055a 12F0FF03 		ands	r3, r2, #255
 714 055e 0393     		str	r3, [sp, #12]
 715 0560 7FF471AD 		bne	.L3
 165:..\u8g2-master\csrc/u8x8_d_ssd1327.c ****       
 166:..\u8g2-master\csrc/u8x8_d_ssd1327.c ****       u8x8_cad_EndTransfer(u8x8);
 716              		.loc 1 166 0
 717 0564 3046     		mov	r0, r6
 718 0566 FFF7FEFF 		bl	u8x8_cad_EndTransfer
 719              	.LVL31:
 167:..\u8g2-master\csrc/u8x8_d_ssd1327.c ****       break;
 168:..\u8g2-master\csrc/u8x8_d_ssd1327.c ****     default:
 169:..\u8g2-master\csrc/u8x8_d_ssd1327.c ****       return 0;
 170:..\u8g2-master\csrc/u8x8_d_ssd1327.c ****   }
 171:..\u8g2-master\csrc/u8x8_d_ssd1327.c ****   return 1;
 172:..\u8g2-master\csrc/u8x8_d_ssd1327.c **** }
 720              		.loc 1 172 0
 721 056a 0120     		movs	r0, #1
 722 056c 07B0     		add	sp, sp, #28
 723              		.cfi_def_cfa_offset 36
 724              		@ sp needed
 725 056e BDE8F08F 		pop	{r4, r5, r6, r7, r8, r9, r10, fp, pc}
 726              	.LVL32:
 727              	.L12:
 728 0572 00BF     		.align	2
 729              	.L11:
 730 0574 00000000 		.word	.LANCHOR0
 731              		.cfi_endproc
 732              	.LFE6:
 733              		.size	u8x8_d_ssd1327_96x96_generic.part.1, .-u8x8_d_ssd1327_96x96_generic.part.1
 734              		.section	.text.u8x8_d_ssd1327_seeed_96x96,"ax",%progbits
 735              		.align	2
ARM GAS  C:\Users\info\AppData\Local\Temp\ccpgnRHd.s 			page 19


 736              		.global	u8x8_d_ssd1327_seeed_96x96
 737              		.thumb
 738              		.thumb_func
 739              		.type	u8x8_d_ssd1327_seeed_96x96, %function
 740              	u8x8_d_ssd1327_seeed_96x96:
 741              	.LFB2:
 173:..\u8g2-master\csrc/u8x8_d_ssd1327.c **** 
 174:..\u8g2-master\csrc/u8x8_d_ssd1327.c **** /*=============================================*/
 175:..\u8g2-master\csrc/u8x8_d_ssd1327.c **** /*  Seeedstudio Grove OLED 96x96 */
 176:..\u8g2-master\csrc/u8x8_d_ssd1327.c **** 
 177:..\u8g2-master\csrc/u8x8_d_ssd1327.c **** static const u8x8_display_info_t u8x8_ssd1327_96x96_display_info =
 178:..\u8g2-master\csrc/u8x8_d_ssd1327.c **** {
 179:..\u8g2-master\csrc/u8x8_d_ssd1327.c ****   /* chip_enable_level = */ 0,
 180:..\u8g2-master\csrc/u8x8_d_ssd1327.c ****   /* chip_disable_level = */ 1,
 181:..\u8g2-master\csrc/u8x8_d_ssd1327.c ****   
 182:..\u8g2-master\csrc/u8x8_d_ssd1327.c ****   /* post_chip_enable_wait_ns = */ 20,
 183:..\u8g2-master\csrc/u8x8_d_ssd1327.c ****   /* pre_chip_disable_wait_ns = */ 10,
 184:..\u8g2-master\csrc/u8x8_d_ssd1327.c ****   /* reset_pulse_width_ms = */ 100, 	
 185:..\u8g2-master\csrc/u8x8_d_ssd1327.c ****   /* post_reset_wait_ms = */ 100, 		/**/
 186:..\u8g2-master\csrc/u8x8_d_ssd1327.c ****   /* sda_setup_time_ns = */ 100,		/* */
 187:..\u8g2-master\csrc/u8x8_d_ssd1327.c ****   /* sck_pulse_width_ns = */ 100,	/*  */
 188:..\u8g2-master\csrc/u8x8_d_ssd1327.c ****   /* sck_clock_hz = */ 4000000UL,	/* since Arduino 1.6.0, the SPI bus speed in Hz. Should be  10000
 189:..\u8g2-master\csrc/u8x8_d_ssd1327.c ****   /* spi_mode = */ 0,		/* active high, rising edge */
 190:..\u8g2-master\csrc/u8x8_d_ssd1327.c ****   /* i2c_bus_clock_100kHz = */ 1,	/* use 1 instead of 4, because the SSD1327 seems to be very slow 
 191:..\u8g2-master\csrc/u8x8_d_ssd1327.c ****   /* data_setup_time_ns = */ 40,
 192:..\u8g2-master\csrc/u8x8_d_ssd1327.c ****   /* write_pulse_width_ns = */ 60,	
 193:..\u8g2-master\csrc/u8x8_d_ssd1327.c ****   /* tile_width = */ 12,
 194:..\u8g2-master\csrc/u8x8_d_ssd1327.c ****   /* tile_hight = */ 12,
 195:..\u8g2-master\csrc/u8x8_d_ssd1327.c ****   /* default_x_offset = */ 16,
 196:..\u8g2-master\csrc/u8x8_d_ssd1327.c ****   /* flipmode_x_offset = */ 16,		
 197:..\u8g2-master\csrc/u8x8_d_ssd1327.c ****   /* pixel_width = */ 96,
 198:..\u8g2-master\csrc/u8x8_d_ssd1327.c ****   /* pixel_height = */ 96
 199:..\u8g2-master\csrc/u8x8_d_ssd1327.c **** };
 200:..\u8g2-master\csrc/u8x8_d_ssd1327.c **** 
 201:..\u8g2-master\csrc/u8x8_d_ssd1327.c **** /*  https://github.com/SeeedDocument/Grove_OLED_1.12/raw/master/resources/LY120-096096.pdf */
 202:..\u8g2-master\csrc/u8x8_d_ssd1327.c **** /*  http://www.seeedstudio.com/wiki/index.php?title=Twig_-_OLED_96x96 */
 203:..\u8g2-master\csrc/u8x8_d_ssd1327.c **** /* values from u8glib */
 204:..\u8g2-master\csrc/u8x8_d_ssd1327.c **** /*
 205:..\u8g2-master\csrc/u8x8_d_ssd1327.c ****   Re-map setting in Graphic Display Data RAM, command 0x0a0
 206:..\u8g2-master\csrc/u8x8_d_ssd1327.c ****     Bit 0: Column Address Re-map
 207:..\u8g2-master\csrc/u8x8_d_ssd1327.c ****     Bit 1: Nibble Re-map
 208:..\u8g2-master\csrc/u8x8_d_ssd1327.c ****     Bit 2: Horizontal/Vertical Address Increment
 209:..\u8g2-master\csrc/u8x8_d_ssd1327.c ****     Bit 3: Not used, must be 0
 210:..\u8g2-master\csrc/u8x8_d_ssd1327.c ****     
 211:..\u8g2-master\csrc/u8x8_d_ssd1327.c ****     Bit 4: COM Re-map
 212:..\u8g2-master\csrc/u8x8_d_ssd1327.c ****     Bit 5: Not used, must be 0
 213:..\u8g2-master\csrc/u8x8_d_ssd1327.c ****     Bit 6: COM Split Odd Even
 214:..\u8g2-master\csrc/u8x8_d_ssd1327.c ****     Bit 7: Not used, must be 0
 215:..\u8g2-master\csrc/u8x8_d_ssd1327.c **** */
 216:..\u8g2-master\csrc/u8x8_d_ssd1327.c **** 
 217:..\u8g2-master\csrc/u8x8_d_ssd1327.c **** 
 218:..\u8g2-master\csrc/u8x8_d_ssd1327.c **** static const uint8_t u8x8_d_ssd1327_96x96_init_seq[] = {
 219:..\u8g2-master\csrc/u8x8_d_ssd1327.c ****     
 220:..\u8g2-master\csrc/u8x8_d_ssd1327.c ****   U8X8_START_TRANSFER(),             	/* enable chip, delay is part of the transfer start */
 221:..\u8g2-master\csrc/u8x8_d_ssd1327.c ****   
 222:..\u8g2-master\csrc/u8x8_d_ssd1327.c ****   U8X8_CA(0x0fd, 0x012),		/* unlock display, usually not required because the display is unlocked a
 223:..\u8g2-master\csrc/u8x8_d_ssd1327.c ****   U8X8_C(0x0ae),		                /* display off */
ARM GAS  C:\Users\info\AppData\Local\Temp\ccpgnRHd.s 			page 20


 224:..\u8g2-master\csrc/u8x8_d_ssd1327.c ****   //U8X8_CA(0x0a8, 0x03f),		/* multiplex ratio: 0x03f * 1/64 duty */
 225:..\u8g2-master\csrc/u8x8_d_ssd1327.c ****   U8X8_CA(0x0a8, 0x05f),		/* multiplex ratio: 0x05f * 1/64 duty */
 226:..\u8g2-master\csrc/u8x8_d_ssd1327.c ****   U8X8_CA(0x0a1, 0x000),		/* display start line */
 227:..\u8g2-master\csrc/u8x8_d_ssd1327.c ****   //U8X8_CA(0x0a2, 0x04c),		/* display offset, shift mapping ram counter */
 228:..\u8g2-master\csrc/u8x8_d_ssd1327.c ****   
 229:..\u8g2-master\csrc/u8x8_d_ssd1327.c ****   U8X8_CA(0x0a2, 0x020),		/* display offset, shift mapping ram counter */
 230:..\u8g2-master\csrc/u8x8_d_ssd1327.c ****   U8X8_CA(0x0a0, 0x051),		/* remap configuration */
 231:..\u8g2-master\csrc/u8x8_d_ssd1327.c ****   
 232:..\u8g2-master\csrc/u8x8_d_ssd1327.c ****   
 233:..\u8g2-master\csrc/u8x8_d_ssd1327.c ****   U8X8_CA(0x0ab, 0x001),		/* Enable internal VDD regulator (RESET) */
 234:..\u8g2-master\csrc/u8x8_d_ssd1327.c ****   //U8X8_CA(0x081, 0x070),		/* contrast, brightness, 0..128 */
 235:..\u8g2-master\csrc/u8x8_d_ssd1327.c ****   U8X8_CA(0x081, 0x053),		/* contrast, brightness, 0..128 */
 236:..\u8g2-master\csrc/u8x8_d_ssd1327.c ****   //U8X8_CA(0x0b1, 0x055),                    /* phase length */
 237:..\u8g2-master\csrc/u8x8_d_ssd1327.c ****   U8X8_CA(0x0b1, 0x051),                    /* phase length */  
 238:..\u8g2-master\csrc/u8x8_d_ssd1327.c ****   //U8X8_CA(0x0b3, 0x091),		/* set display clock divide ratio/oscillator frequency (set clock as 13
 239:..\u8g2-master\csrc/u8x8_d_ssd1327.c ****   U8X8_CA(0x0b3, 0x001),		/* set display clock divide ratio/oscillator frequency  */			
 240:..\u8g2-master\csrc/u8x8_d_ssd1327.c ****   
 241:..\u8g2-master\csrc/u8x8_d_ssd1327.c ****   //? U8X8_CA(0x0ad, 0x002),		/* master configuration: disable embedded DC-DC, enable internal VCOM
 242:..\u8g2-master\csrc/u8x8_d_ssd1327.c ****   //? U8X8_C(0x086),				/* full current range (0x084, 0x085, 0x086) */
 243:..\u8g2-master\csrc/u8x8_d_ssd1327.c ****   
 244:..\u8g2-master\csrc/u8x8_d_ssd1327.c ****   U8X8_C(0x0b9),				/* use linear lookup table */
 245:..\u8g2-master\csrc/u8x8_d_ssd1327.c **** 
 246:..\u8g2-master\csrc/u8x8_d_ssd1327.c ****   //U8X8_CA(0x0bc, 0x010),                    /* pre-charge voltage level */
 247:..\u8g2-master\csrc/u8x8_d_ssd1327.c ****   U8X8_CA(0x0bc, 0x008),                    /* pre-charge voltage level */
 248:..\u8g2-master\csrc/u8x8_d_ssd1327.c ****   //U8X8_CA(0x0be, 0x01c),                     /* VCOMH voltage */
 249:..\u8g2-master\csrc/u8x8_d_ssd1327.c ****   U8X8_CA(0x0be, 0x007),                     /* VCOMH voltage */
 250:..\u8g2-master\csrc/u8x8_d_ssd1327.c ****   U8X8_CA(0x0b6, 0x001),		/* second precharge */
 251:..\u8g2-master\csrc/u8x8_d_ssd1327.c ****   U8X8_CA(0x0d5, 0x062),		/* enable second precharge, internal vsl (bit0 = 0) */
 252:..\u8g2-master\csrc/u8x8_d_ssd1327.c **** 
 253:..\u8g2-master\csrc/u8x8_d_ssd1327.c **** 
 254:..\u8g2-master\csrc/u8x8_d_ssd1327.c ****   
 255:..\u8g2-master\csrc/u8x8_d_ssd1327.c ****   U8X8_C(0x0a4),				/* normal display mode */
 256:..\u8g2-master\csrc/u8x8_d_ssd1327.c ****     
 257:..\u8g2-master\csrc/u8x8_d_ssd1327.c ****   U8X8_END_TRANSFER(),             	/* disable chip */
 258:..\u8g2-master\csrc/u8x8_d_ssd1327.c ****   U8X8_END()             			/* end of sequence */
 259:..\u8g2-master\csrc/u8x8_d_ssd1327.c **** };
 260:..\u8g2-master\csrc/u8x8_d_ssd1327.c **** 
 261:..\u8g2-master\csrc/u8x8_d_ssd1327.c **** 
 262:..\u8g2-master\csrc/u8x8_d_ssd1327.c **** static const uint8_t u8x8_d_ssd1327_seeed_96x96_flip0_seq[] = {
 263:..\u8g2-master\csrc/u8x8_d_ssd1327.c ****   U8X8_START_TRANSFER(),             	/* enable chip, delay is part of the transfer start */
 264:..\u8g2-master\csrc/u8x8_d_ssd1327.c ****   U8X8_CA(0x0a2, 0x020),		/* display offset, shift mapping ram counter */
 265:..\u8g2-master\csrc/u8x8_d_ssd1327.c ****   U8X8_CA(0x0a0, 0x051),		/* remap configuration */
 266:..\u8g2-master\csrc/u8x8_d_ssd1327.c ****   U8X8_END_TRANSFER(),             	/* disable chip */
 267:..\u8g2-master\csrc/u8x8_d_ssd1327.c ****   U8X8_END()             			/* end of sequence */
 268:..\u8g2-master\csrc/u8x8_d_ssd1327.c **** };
 269:..\u8g2-master\csrc/u8x8_d_ssd1327.c **** 
 270:..\u8g2-master\csrc/u8x8_d_ssd1327.c **** static const uint8_t u8x8_d_ssd1327_seeed_96x96_flip1_seq[] = {
 271:..\u8g2-master\csrc/u8x8_d_ssd1327.c ****   U8X8_START_TRANSFER(),             	/* enable chip, delay is part of the transfer start */
 272:..\u8g2-master\csrc/u8x8_d_ssd1327.c ****   U8X8_CA(0x0a2, 0x060),		/* display offset, shift mapping ram counter */
 273:..\u8g2-master\csrc/u8x8_d_ssd1327.c ****   U8X8_CA(0x0a0, 0x042),		/* remap configuration */
 274:..\u8g2-master\csrc/u8x8_d_ssd1327.c ****   U8X8_END_TRANSFER(),             	/* disable chip */
 275:..\u8g2-master\csrc/u8x8_d_ssd1327.c ****   U8X8_END()             			/* end of sequence */
 276:..\u8g2-master\csrc/u8x8_d_ssd1327.c **** };
 277:..\u8g2-master\csrc/u8x8_d_ssd1327.c **** 
 278:..\u8g2-master\csrc/u8x8_d_ssd1327.c **** 
 279:..\u8g2-master\csrc/u8x8_d_ssd1327.c **** uint8_t u8x8_d_ssd1327_seeed_96x96(u8x8_t *u8x8, uint8_t msg, uint8_t arg_int, void *arg_ptr)
 280:..\u8g2-master\csrc/u8x8_d_ssd1327.c **** {
ARM GAS  C:\Users\info\AppData\Local\Temp\ccpgnRHd.s 			page 21


 742              		.loc 1 280 0
 743              		.cfi_startproc
 744              		@ args = 0, pretend = 0, frame = 0
 745              		@ frame_needed = 0, uses_anonymous_args = 0
 746              	.LVL33:
 747              	.LBB12:
 748              	.LBB13:
 103:..\u8g2-master\csrc/u8x8_d_ssd1327.c ****   {
 749              		.loc 1 103 0
 750 0000 0E29     		cmp	r1, #14
 751              	.LBE13:
 752              	.LBE12:
 753              		.loc 1 280 0
 754 0002 38B5     		push	{r3, r4, r5, lr}
 755              		.cfi_def_cfa_offset 16
 756              		.cfi_offset 3, -16
 757              		.cfi_offset 4, -12
 758              		.cfi_offset 5, -8
 759              		.cfi_offset 14, -4
 760              		.loc 1 280 0
 761 0004 1546     		mov	r5, r2
 762 0006 0446     		mov	r4, r0
 763              	.LVL34:
 764              	.LBB19:
 765              	.LBB14:
 103:..\u8g2-master\csrc/u8x8_d_ssd1327.c ****   {
 766              		.loc 1 103 0
 767 0008 21D0     		beq	.L15
 768 000a 0F29     		cmp	r1, #15
 769 000c 17D0     		beq	.L16
 770 000e 0B29     		cmp	r1, #11
 771 0010 0FD0     		beq	.L28
 772              	.LVL35:
 773              	.LBE14:
 774              	.LBE19:
 281:..\u8g2-master\csrc/u8x8_d_ssd1327.c ****   if ( u8x8_d_ssd1327_96x96_generic(u8x8, msg, arg_int, arg_ptr) != 0 )
 282:..\u8g2-master\csrc/u8x8_d_ssd1327.c ****     return 1;
 283:..\u8g2-master\csrc/u8x8_d_ssd1327.c ****   if ( msg == U8X8_MSG_DISPLAY_SETUP_MEMORY )
 775              		.loc 1 283 0
 776 0012 0929     		cmp	r1, #9
 777 0014 3AD0     		beq	.L29
 284:..\u8g2-master\csrc/u8x8_d_ssd1327.c ****   {
 285:..\u8g2-master\csrc/u8x8_d_ssd1327.c ****     u8x8_d_helper_display_setup_memory(u8x8, &u8x8_ssd1327_96x96_display_info);
 286:..\u8g2-master\csrc/u8x8_d_ssd1327.c ****     return 1;
 287:..\u8g2-master\csrc/u8x8_d_ssd1327.c ****   }
 288:..\u8g2-master\csrc/u8x8_d_ssd1327.c ****   else if ( msg == U8X8_MSG_DISPLAY_INIT )
 778              		.loc 1 288 0
 779 0016 0A29     		cmp	r1, #10
 780 0018 3DD0     		beq	.L30
 289:..\u8g2-master\csrc/u8x8_d_ssd1327.c ****   {
 290:..\u8g2-master\csrc/u8x8_d_ssd1327.c ****     u8x8_d_helper_display_init(u8x8);
 291:..\u8g2-master\csrc/u8x8_d_ssd1327.c ****     u8x8_cad_SendSequence(u8x8, u8x8_d_ssd1327_96x96_init_seq);    
 292:..\u8g2-master\csrc/u8x8_d_ssd1327.c ****     return 1;
 293:..\u8g2-master\csrc/u8x8_d_ssd1327.c ****   }
 294:..\u8g2-master\csrc/u8x8_d_ssd1327.c ****   else if  ( msg == U8X8_MSG_DISPLAY_SET_FLIP_MODE )
 781              		.loc 1 294 0
 782 001a 0D29     		cmp	r1, #13
ARM GAS  C:\Users\info\AppData\Local\Temp\ccpgnRHd.s 			page 22


 783 001c 2BD1     		bne	.L24
 295:..\u8g2-master\csrc/u8x8_d_ssd1327.c ****   {
 296:..\u8g2-master\csrc/u8x8_d_ssd1327.c ****     if ( arg_int == 0 )
 784              		.loc 1 296 0
 785 001e 62B3     		cbz	r2, .L31
 297:..\u8g2-master\csrc/u8x8_d_ssd1327.c ****     {
 298:..\u8g2-master\csrc/u8x8_d_ssd1327.c ****       u8x8_cad_SendSequence(u8x8, u8x8_d_ssd1327_seeed_96x96_flip0_seq);
 299:..\u8g2-master\csrc/u8x8_d_ssd1327.c ****       u8x8->x_offset = u8x8->display_info->default_x_offset;
 300:..\u8g2-master\csrc/u8x8_d_ssd1327.c ****     }
 301:..\u8g2-master\csrc/u8x8_d_ssd1327.c ****     else
 302:..\u8g2-master\csrc/u8x8_d_ssd1327.c ****     {
 303:..\u8g2-master\csrc/u8x8_d_ssd1327.c ****       u8x8_cad_SendSequence(u8x8, u8x8_d_ssd1327_seeed_96x96_flip1_seq);
 786              		.loc 1 303 0
 787 0020 2149     		ldr	r1, .L32
 788              	.LVL36:
 789 0022 FFF7FEFF 		bl	u8x8_cad_SendSequence
 790              	.LVL37:
 304:..\u8g2-master\csrc/u8x8_d_ssd1327.c ****       u8x8->x_offset = u8x8->display_info->flipmode_x_offset;
 791              		.loc 1 304 0
 792 0026 2368     		ldr	r3, [r4]
 305:..\u8g2-master\csrc/u8x8_d_ssd1327.c ****     }
 306:..\u8g2-master\csrc/u8x8_d_ssd1327.c ****     return 1;
 793              		.loc 1 306 0
 794 0028 0120     		movs	r0, #1
 304:..\u8g2-master\csrc/u8x8_d_ssd1327.c ****       u8x8->x_offset = u8x8->display_info->flipmode_x_offset;
 795              		.loc 1 304 0
 796 002a DB7C     		ldrb	r3, [r3, #19]	@ zero_extendqisi2
 797 002c 84F82230 		strb	r3, [r4, #34]
 798 0030 38BD     		pop	{r3, r4, r5, pc}
 799              	.LVL38:
 800              	.L28:
 801              	.LBB20:
 802              	.LBB15:
 117:..\u8g2-master\csrc/u8x8_d_ssd1327.c **** 	u8x8_cad_SendSequence(u8x8, u8x8_d_ssd1327_96x96_powersave0_seq);
 803              		.loc 1 117 0
 804 0032 DAB9     		cbnz	r2, .L18
 118:..\u8g2-master\csrc/u8x8_d_ssd1327.c ****       else
 805              		.loc 1 118 0
 806 0034 1D49     		ldr	r1, .L32+4
 807              	.LVL39:
 808 0036 FFF7FEFF 		bl	u8x8_cad_SendSequence
 809              	.LVL40:
 810              	.LBE15:
 811              	.LBE20:
 282:..\u8g2-master\csrc/u8x8_d_ssd1327.c ****   if ( msg == U8X8_MSG_DISPLAY_SETUP_MEMORY )
 812              		.loc 1 282 0
 813 003a 0120     		movs	r0, #1
 307:..\u8g2-master\csrc/u8x8_d_ssd1327.c ****   }
 308:..\u8g2-master\csrc/u8x8_d_ssd1327.c ****   return 0;
 309:..\u8g2-master\csrc/u8x8_d_ssd1327.c **** }
 814              		.loc 1 309 0
 815 003c 38BD     		pop	{r3, r4, r5, pc}
 816              	.LVL41:
 817              	.L16:
 818              	.LBB21:
 819              	.LBB16:
 820 003e 1A46     		mov	r2, r3
ARM GAS  C:\Users\info\AppData\Local\Temp\ccpgnRHd.s 			page 23


 821              	.LVL42:
 822 0040 2946     		mov	r1, r5
 823              	.LVL43:
 824 0042 FFF7FEFF 		bl	u8x8_d_ssd1327_96x96_generic.part.1
 825              	.LVL44:
 826              	.LBE16:
 827              	.LBE21:
 282:..\u8g2-master\csrc/u8x8_d_ssd1327.c ****   if ( msg == U8X8_MSG_DISPLAY_SETUP_MEMORY )
 828              		.loc 1 282 0
 829 0046 0030     		adds	r0, r0, #0
 830 0048 18BF     		it	ne
 831 004a 0120     		movne	r0, #1
 832 004c 38BD     		pop	{r3, r4, r5, pc}
 833              	.LVL45:
 834              	.L15:
 835              	.LBB22:
 836              	.LBB17:
 124:..\u8g2-master\csrc/u8x8_d_ssd1327.c ****       u8x8_cad_SendCmd(u8x8, 0x081 );
 837              		.loc 1 124 0
 838 004e FFF7FEFF 		bl	u8x8_cad_StartTransfer
 839              	.LVL46:
 125:..\u8g2-master\csrc/u8x8_d_ssd1327.c ****       u8x8_cad_SendArg(u8x8, arg_int );	/* ssd1327 has range from 0 to 255 */
 840              		.loc 1 125 0
 841 0052 8121     		movs	r1, #129
 842 0054 2046     		mov	r0, r4
 843 0056 FFF7FEFF 		bl	u8x8_cad_SendCmd
 844              	.LVL47:
 126:..\u8g2-master\csrc/u8x8_d_ssd1327.c ****       u8x8_cad_EndTransfer(u8x8);
 845              		.loc 1 126 0
 846 005a 2946     		mov	r1, r5
 847 005c 2046     		mov	r0, r4
 848 005e FFF7FEFF 		bl	u8x8_cad_SendArg
 849              	.LVL48:
 127:..\u8g2-master\csrc/u8x8_d_ssd1327.c ****       break;
 850              		.loc 1 127 0
 851 0062 2046     		mov	r0, r4
 852 0064 FFF7FEFF 		bl	u8x8_cad_EndTransfer
 853              	.LVL49:
 854              	.LBE17:
 855              	.LBE22:
 282:..\u8g2-master\csrc/u8x8_d_ssd1327.c ****   if ( msg == U8X8_MSG_DISPLAY_SETUP_MEMORY )
 856              		.loc 1 282 0
 857 0068 0120     		movs	r0, #1
 858              		.loc 1 309 0
 859 006a 38BD     		pop	{r3, r4, r5, pc}
 860              	.LVL50:
 861              	.L18:
 862              	.LBB23:
 863              	.LBB18:
 120:..\u8g2-master\csrc/u8x8_d_ssd1327.c ****       break;
 864              		.loc 1 120 0
 865 006c 1049     		ldr	r1, .L32+8
 866              	.LVL51:
 867 006e FFF7FEFF 		bl	u8x8_cad_SendSequence
 868              	.LVL52:
 869              	.LBE18:
 870              	.LBE23:
ARM GAS  C:\Users\info\AppData\Local\Temp\ccpgnRHd.s 			page 24


 282:..\u8g2-master\csrc/u8x8_d_ssd1327.c ****   if ( msg == U8X8_MSG_DISPLAY_SETUP_MEMORY )
 871              		.loc 1 282 0
 872 0072 0120     		movs	r0, #1
 873              		.loc 1 309 0
 874 0074 38BD     		pop	{r3, r4, r5, pc}
 875              	.LVL53:
 876              	.L24:
 308:..\u8g2-master\csrc/u8x8_d_ssd1327.c **** }
 877              		.loc 1 308 0
 878 0076 0020     		movs	r0, #0
 879              	.LVL54:
 880 0078 38BD     		pop	{r3, r4, r5, pc}
 881              	.LVL55:
 882              	.L31:
 298:..\u8g2-master\csrc/u8x8_d_ssd1327.c ****       u8x8->x_offset = u8x8->display_info->default_x_offset;
 883              		.loc 1 298 0
 884 007a 0E49     		ldr	r1, .L32+12
 885              	.LVL56:
 886 007c FFF7FEFF 		bl	u8x8_cad_SendSequence
 887              	.LVL57:
 299:..\u8g2-master\csrc/u8x8_d_ssd1327.c ****     }
 888              		.loc 1 299 0
 889 0080 2368     		ldr	r3, [r4]
 306:..\u8g2-master\csrc/u8x8_d_ssd1327.c ****   }
 890              		.loc 1 306 0
 891 0082 0120     		movs	r0, #1
 299:..\u8g2-master\csrc/u8x8_d_ssd1327.c ****     }
 892              		.loc 1 299 0
 893 0084 9B7C     		ldrb	r3, [r3, #18]	@ zero_extendqisi2
 894 0086 84F82230 		strb	r3, [r4, #34]
 895 008a 38BD     		pop	{r3, r4, r5, pc}
 896              	.LVL58:
 897              	.L29:
 285:..\u8g2-master\csrc/u8x8_d_ssd1327.c ****     return 1;
 898              		.loc 1 285 0
 899 008c 0A49     		ldr	r1, .L32+16
 900              	.LVL59:
 901 008e FFF7FEFF 		bl	u8x8_d_helper_display_setup_memory
 902              	.LVL60:
 286:..\u8g2-master\csrc/u8x8_d_ssd1327.c ****   }
 903              		.loc 1 286 0
 904 0092 0120     		movs	r0, #1
 905 0094 38BD     		pop	{r3, r4, r5, pc}
 906              	.LVL61:
 907              	.L30:
 290:..\u8g2-master\csrc/u8x8_d_ssd1327.c ****     u8x8_cad_SendSequence(u8x8, u8x8_d_ssd1327_96x96_init_seq);    
 908              		.loc 1 290 0
 909 0096 FFF7FEFF 		bl	u8x8_d_helper_display_init
 910              	.LVL62:
 291:..\u8g2-master\csrc/u8x8_d_ssd1327.c ****     return 1;
 911              		.loc 1 291 0
 912 009a 2046     		mov	r0, r4
 913 009c 0749     		ldr	r1, .L32+20
 914 009e FFF7FEFF 		bl	u8x8_cad_SendSequence
 915              	.LVL63:
 292:..\u8g2-master\csrc/u8x8_d_ssd1327.c ****   }
 916              		.loc 1 292 0
ARM GAS  C:\Users\info\AppData\Local\Temp\ccpgnRHd.s 			page 25


 917 00a2 0120     		movs	r0, #1
 918 00a4 38BD     		pop	{r3, r4, r5, pc}
 919              	.LVL64:
 920              	.L33:
 921 00a6 00BF     		.align	2
 922              	.L32:
 923 00a8 74000000 		.word	.LANCHOR1+116
 924 00ac 00000000 		.word	.LANCHOR1
 925 00b0 08000000 		.word	.LANCHOR1+8
 926 00b4 68000000 		.word	.LANCHOR1+104
 927 00b8 10000000 		.word	.LANCHOR1+16
 928 00bc 28000000 		.word	.LANCHOR1+40
 929              		.cfi_endproc
 930              	.LFE2:
 931              		.size	u8x8_d_ssd1327_seeed_96x96, .-u8x8_d_ssd1327_seeed_96x96
 932              		.section	.text.u8x8_d_ssd1327_ea_w128128,"ax",%progbits
 933              		.align	2
 934              		.global	u8x8_d_ssd1327_ea_w128128
 935              		.thumb
 936              		.thumb_func
 937              		.type	u8x8_d_ssd1327_ea_w128128, %function
 938              	u8x8_d_ssd1327_ea_w128128:
 939              	.LFB3:
 310:..\u8g2-master\csrc/u8x8_d_ssd1327.c **** 
 311:..\u8g2-master\csrc/u8x8_d_ssd1327.c **** /*=============================================*/
 312:..\u8g2-master\csrc/u8x8_d_ssd1327.c **** /*  EA W128128 round OLED 128x128 */
 313:..\u8g2-master\csrc/u8x8_d_ssd1327.c **** /* issue #641 */
 314:..\u8g2-master\csrc/u8x8_d_ssd1327.c **** /* https://www.lcd-module.de/fileadmin/eng/pdf/grafik/W128128-XR.pdf */
 315:..\u8g2-master\csrc/u8x8_d_ssd1327.c **** 
 316:..\u8g2-master\csrc/u8x8_d_ssd1327.c **** static const u8x8_display_info_t u8x8_ssd1327_ea_w128128_display_info =
 317:..\u8g2-master\csrc/u8x8_d_ssd1327.c **** {
 318:..\u8g2-master\csrc/u8x8_d_ssd1327.c ****   /* chip_enable_level = */ 0,
 319:..\u8g2-master\csrc/u8x8_d_ssd1327.c ****   /* chip_disable_level = */ 1,
 320:..\u8g2-master\csrc/u8x8_d_ssd1327.c ****   
 321:..\u8g2-master\csrc/u8x8_d_ssd1327.c ****   /* post_chip_enable_wait_ns = */ 20,
 322:..\u8g2-master\csrc/u8x8_d_ssd1327.c ****   /* pre_chip_disable_wait_ns = */ 10,
 323:..\u8g2-master\csrc/u8x8_d_ssd1327.c ****   /* reset_pulse_width_ms = */ 100, 	
 324:..\u8g2-master\csrc/u8x8_d_ssd1327.c ****   /* post_reset_wait_ms = */ 100, 		/**/
 325:..\u8g2-master\csrc/u8x8_d_ssd1327.c ****   /* sda_setup_time_ns = */ 100,		/* */
 326:..\u8g2-master\csrc/u8x8_d_ssd1327.c ****   /* sck_pulse_width_ns = */ 100,	/*  */
 327:..\u8g2-master\csrc/u8x8_d_ssd1327.c ****   /* sck_clock_hz = */ 4000000UL,	/* since Arduino 1.6.0, the SPI bus speed in Hz. Should be  10000
 328:..\u8g2-master\csrc/u8x8_d_ssd1327.c ****   /* spi_mode = */ 0,		/* active high, rising edge */
 329:..\u8g2-master\csrc/u8x8_d_ssd1327.c ****   /* i2c_bus_clock_100kHz = */ 1,	/* use 1 instead of 4, because the SSD1327 seems to be very slow 
 330:..\u8g2-master\csrc/u8x8_d_ssd1327.c ****   /* data_setup_time_ns = */ 40,
 331:..\u8g2-master\csrc/u8x8_d_ssd1327.c ****   /* write_pulse_width_ns = */ 60,	
 332:..\u8g2-master\csrc/u8x8_d_ssd1327.c ****   /* tile_width = */ 16,
 333:..\u8g2-master\csrc/u8x8_d_ssd1327.c ****   /* tile_hight = */ 16,
 334:..\u8g2-master\csrc/u8x8_d_ssd1327.c ****   /* default_x_offset = */ 0,
 335:..\u8g2-master\csrc/u8x8_d_ssd1327.c ****   /* flipmode_x_offset = */ 0,		
 336:..\u8g2-master\csrc/u8x8_d_ssd1327.c ****   /* pixel_width = */ 128,
 337:..\u8g2-master\csrc/u8x8_d_ssd1327.c ****   /* pixel_height = */ 128
 338:..\u8g2-master\csrc/u8x8_d_ssd1327.c **** };
 339:..\u8g2-master\csrc/u8x8_d_ssd1327.c **** 
 340:..\u8g2-master\csrc/u8x8_d_ssd1327.c **** /* this is a copy of the init sequence for the seeed 96x96 oled */
 341:..\u8g2-master\csrc/u8x8_d_ssd1327.c **** static const uint8_t u8x8_d_ssd1327_ea_w128128_init_seq[] = {
 342:..\u8g2-master\csrc/u8x8_d_ssd1327.c ****     
 343:..\u8g2-master\csrc/u8x8_d_ssd1327.c ****   U8X8_START_TRANSFER(),             	/* enable chip, delay is part of the transfer start */
ARM GAS  C:\Users\info\AppData\Local\Temp\ccpgnRHd.s 			page 26


 344:..\u8g2-master\csrc/u8x8_d_ssd1327.c ****   
 345:..\u8g2-master\csrc/u8x8_d_ssd1327.c ****   U8X8_CA(0x0fd, 0x012),		/* unlock display, usually not required because the display is unlocked a
 346:..\u8g2-master\csrc/u8x8_d_ssd1327.c ****   U8X8_C(0x0ae),		                /* display off */
 347:..\u8g2-master\csrc/u8x8_d_ssd1327.c ****   //U8X8_CA(0x0a8, 0x03f),		/* multiplex ratio: 0x03f * 1/64 duty */
 348:..\u8g2-master\csrc/u8x8_d_ssd1327.c ****   U8X8_CA(0x0a8, 0x05f),		/* multiplex ratio: 0x05f * 1/64 duty */
 349:..\u8g2-master\csrc/u8x8_d_ssd1327.c ****   U8X8_CA(0x0a1, 0x000),		/* display start line */
 350:..\u8g2-master\csrc/u8x8_d_ssd1327.c ****   //U8X8_CA(0x0a2, 0x04c),		/* display offset, shift mapping ram counter */
 351:..\u8g2-master\csrc/u8x8_d_ssd1327.c ****   
 352:..\u8g2-master\csrc/u8x8_d_ssd1327.c ****   U8X8_CA(0x0a2, 0x010),		/* display offset, shift mapping ram counter */
 353:..\u8g2-master\csrc/u8x8_d_ssd1327.c ****   U8X8_CA(0x0a0, 0x051),		/* remap configuration */
 354:..\u8g2-master\csrc/u8x8_d_ssd1327.c ****   
 355:..\u8g2-master\csrc/u8x8_d_ssd1327.c ****   
 356:..\u8g2-master\csrc/u8x8_d_ssd1327.c ****   U8X8_CA(0x0ab, 0x001),		/* Enable internal VDD regulator (RESET) */
 357:..\u8g2-master\csrc/u8x8_d_ssd1327.c ****   //U8X8_CA(0x081, 0x070),		/* contrast, brightness, 0..128 */
 358:..\u8g2-master\csrc/u8x8_d_ssd1327.c ****   U8X8_CA(0x081, 0x053),		/* contrast, brightness, 0..128 */
 359:..\u8g2-master\csrc/u8x8_d_ssd1327.c ****   //U8X8_CA(0x0b1, 0x055),                    /* phase length */
 360:..\u8g2-master\csrc/u8x8_d_ssd1327.c ****   U8X8_CA(0x0b1, 0x051),                    /* phase length */  
 361:..\u8g2-master\csrc/u8x8_d_ssd1327.c ****   //U8X8_CA(0x0b3, 0x091),		/* set display clock divide ratio/oscillator frequency (set clock as 13
 362:..\u8g2-master\csrc/u8x8_d_ssd1327.c ****   U8X8_CA(0x0b3, 0x001),		/* set display clock divide ratio/oscillator frequency  */			
 363:..\u8g2-master\csrc/u8x8_d_ssd1327.c ****   
 364:..\u8g2-master\csrc/u8x8_d_ssd1327.c ****   //? U8X8_CA(0x0ad, 0x002),		/* master configuration: disable embedded DC-DC, enable internal VCOM
 365:..\u8g2-master\csrc/u8x8_d_ssd1327.c ****   //? U8X8_C(0x086),				/* full current range (0x084, 0x085, 0x086) */
 366:..\u8g2-master\csrc/u8x8_d_ssd1327.c ****   
 367:..\u8g2-master\csrc/u8x8_d_ssd1327.c ****   U8X8_C(0x0b9),				/* use linear lookup table */
 368:..\u8g2-master\csrc/u8x8_d_ssd1327.c **** 
 369:..\u8g2-master\csrc/u8x8_d_ssd1327.c ****   //U8X8_CA(0x0bc, 0x010),                    /* pre-charge voltage level */
 370:..\u8g2-master\csrc/u8x8_d_ssd1327.c ****   U8X8_CA(0x0bc, 0x008),                    /* pre-charge voltage level */
 371:..\u8g2-master\csrc/u8x8_d_ssd1327.c ****   //U8X8_CA(0x0be, 0x01c),                     /* VCOMH voltage */
 372:..\u8g2-master\csrc/u8x8_d_ssd1327.c ****   U8X8_CA(0x0be, 0x007),                     /* VCOMH voltage */
 373:..\u8g2-master\csrc/u8x8_d_ssd1327.c ****   U8X8_CA(0x0b6, 0x001),		/* second precharge */
 374:..\u8g2-master\csrc/u8x8_d_ssd1327.c ****   U8X8_CA(0x0d5, 0x062),		/* enable second precharge, internal vsl (bit0 = 0) */
 375:..\u8g2-master\csrc/u8x8_d_ssd1327.c ****   
 376:..\u8g2-master\csrc/u8x8_d_ssd1327.c ****   U8X8_C(0x0a4),				/* normal display mode */
 377:..\u8g2-master\csrc/u8x8_d_ssd1327.c ****     
 378:..\u8g2-master\csrc/u8x8_d_ssd1327.c ****   U8X8_END_TRANSFER(),             	/* disable chip */
 379:..\u8g2-master\csrc/u8x8_d_ssd1327.c ****   U8X8_END()             			/* end of sequence */
 380:..\u8g2-master\csrc/u8x8_d_ssd1327.c **** };
 381:..\u8g2-master\csrc/u8x8_d_ssd1327.c **** 
 382:..\u8g2-master\csrc/u8x8_d_ssd1327.c **** 
 383:..\u8g2-master\csrc/u8x8_d_ssd1327.c **** 
 384:..\u8g2-master\csrc/u8x8_d_ssd1327.c **** static const uint8_t u8x8_d_ssd1327_ea_w128128_flip0_seq[] = {
 385:..\u8g2-master\csrc/u8x8_d_ssd1327.c ****   U8X8_START_TRANSFER(),             	/* enable chip, delay is part of the transfer start */
 386:..\u8g2-master\csrc/u8x8_d_ssd1327.c ****   U8X8_CA(0x0a2, 0x000),		/* display offset, shift mapping ram counter */
 387:..\u8g2-master\csrc/u8x8_d_ssd1327.c ****   U8X8_CA(0x0a0, 0x051),		/* remap configuration */
 388:..\u8g2-master\csrc/u8x8_d_ssd1327.c ****   U8X8_END_TRANSFER(),             	/* disable chip */
 389:..\u8g2-master\csrc/u8x8_d_ssd1327.c ****   U8X8_END()             			/* end of sequence */
 390:..\u8g2-master\csrc/u8x8_d_ssd1327.c **** };
 391:..\u8g2-master\csrc/u8x8_d_ssd1327.c **** 
 392:..\u8g2-master\csrc/u8x8_d_ssd1327.c **** static const uint8_t u8x8_d_ssd1327_ea_w128128_flip1_seq[] = {
 393:..\u8g2-master\csrc/u8x8_d_ssd1327.c ****   U8X8_START_TRANSFER(),             	/* enable chip, delay is part of the transfer start */
 394:..\u8g2-master\csrc/u8x8_d_ssd1327.c ****   U8X8_CA(0x0a2, 0x000),		/* display offset, shift mapping ram counter */
 395:..\u8g2-master\csrc/u8x8_d_ssd1327.c ****   U8X8_CA(0x0a0, 0x042),		/* remap configuration */
 396:..\u8g2-master\csrc/u8x8_d_ssd1327.c ****   U8X8_END_TRANSFER(),             	/* disable chip */
 397:..\u8g2-master\csrc/u8x8_d_ssd1327.c ****   U8X8_END()             			/* end of sequence */
 398:..\u8g2-master\csrc/u8x8_d_ssd1327.c **** };
 399:..\u8g2-master\csrc/u8x8_d_ssd1327.c **** 
 400:..\u8g2-master\csrc/u8x8_d_ssd1327.c **** uint8_t u8x8_d_ssd1327_ea_w128128(u8x8_t *u8x8, uint8_t msg, uint8_t arg_int, void *arg_ptr)
ARM GAS  C:\Users\info\AppData\Local\Temp\ccpgnRHd.s 			page 27


 401:..\u8g2-master\csrc/u8x8_d_ssd1327.c **** {
 940              		.loc 1 401 0
 941              		.cfi_startproc
 942              		@ args = 0, pretend = 0, frame = 0
 943              		@ frame_needed = 0, uses_anonymous_args = 0
 944              	.LVL65:
 945              	.LBB26:
 946              	.LBB27:
 103:..\u8g2-master\csrc/u8x8_d_ssd1327.c ****   {
 947              		.loc 1 103 0
 948 0000 0E29     		cmp	r1, #14
 949              	.LBE27:
 950              	.LBE26:
 951              		.loc 1 401 0
 952 0002 38B5     		push	{r3, r4, r5, lr}
 953              		.cfi_def_cfa_offset 16
 954              		.cfi_offset 3, -16
 955              		.cfi_offset 4, -12
 956              		.cfi_offset 5, -8
 957              		.cfi_offset 14, -4
 958              		.loc 1 401 0
 959 0004 1546     		mov	r5, r2
 960 0006 0446     		mov	r4, r0
 961              	.LVL66:
 962              	.LBB33:
 963              	.LBB28:
 103:..\u8g2-master\csrc/u8x8_d_ssd1327.c ****   {
 964              		.loc 1 103 0
 965 0008 21D0     		beq	.L36
 966 000a 0F29     		cmp	r1, #15
 967 000c 17D0     		beq	.L37
 968 000e 0B29     		cmp	r1, #11
 969 0010 0FD0     		beq	.L49
 970              	.LVL67:
 971              	.LBE28:
 972              	.LBE33:
 402:..\u8g2-master\csrc/u8x8_d_ssd1327.c ****   if ( u8x8_d_ssd1327_96x96_generic(u8x8, msg, arg_int, arg_ptr) != 0 )
 403:..\u8g2-master\csrc/u8x8_d_ssd1327.c ****     return 1;
 404:..\u8g2-master\csrc/u8x8_d_ssd1327.c ****   if ( msg == U8X8_MSG_DISPLAY_SETUP_MEMORY )
 973              		.loc 1 404 0
 974 0012 0929     		cmp	r1, #9
 975 0014 3AD0     		beq	.L50
 405:..\u8g2-master\csrc/u8x8_d_ssd1327.c ****   {
 406:..\u8g2-master\csrc/u8x8_d_ssd1327.c ****     u8x8_d_helper_display_setup_memory(u8x8, &u8x8_ssd1327_ea_w128128_display_info);
 407:..\u8g2-master\csrc/u8x8_d_ssd1327.c ****     return 1;
 408:..\u8g2-master\csrc/u8x8_d_ssd1327.c ****   }
 409:..\u8g2-master\csrc/u8x8_d_ssd1327.c ****   else if ( msg == U8X8_MSG_DISPLAY_INIT )
 976              		.loc 1 409 0
 977 0016 0A29     		cmp	r1, #10
 978 0018 3DD0     		beq	.L51
 410:..\u8g2-master\csrc/u8x8_d_ssd1327.c ****   {
 411:..\u8g2-master\csrc/u8x8_d_ssd1327.c ****     u8x8_d_helper_display_init(u8x8);
 412:..\u8g2-master\csrc/u8x8_d_ssd1327.c ****     u8x8_cad_SendSequence(u8x8, u8x8_d_ssd1327_ea_w128128_init_seq);    
 413:..\u8g2-master\csrc/u8x8_d_ssd1327.c ****     return 1;
 414:..\u8g2-master\csrc/u8x8_d_ssd1327.c ****   }
 415:..\u8g2-master\csrc/u8x8_d_ssd1327.c ****   else if  ( msg == U8X8_MSG_DISPLAY_SET_FLIP_MODE )
 979              		.loc 1 415 0
ARM GAS  C:\Users\info\AppData\Local\Temp\ccpgnRHd.s 			page 28


 980 001a 0D29     		cmp	r1, #13
 981 001c 2BD1     		bne	.L45
 416:..\u8g2-master\csrc/u8x8_d_ssd1327.c ****   {
 417:..\u8g2-master\csrc/u8x8_d_ssd1327.c ****     if ( arg_int == 0 )
 982              		.loc 1 417 0
 983 001e 62B3     		cbz	r2, .L52
 418:..\u8g2-master\csrc/u8x8_d_ssd1327.c ****     {
 419:..\u8g2-master\csrc/u8x8_d_ssd1327.c ****       u8x8_cad_SendSequence(u8x8, u8x8_d_ssd1327_ea_w128128_flip0_seq);
 420:..\u8g2-master\csrc/u8x8_d_ssd1327.c ****       u8x8->x_offset = u8x8->display_info->default_x_offset;
 421:..\u8g2-master\csrc/u8x8_d_ssd1327.c ****     }
 422:..\u8g2-master\csrc/u8x8_d_ssd1327.c ****     else
 423:..\u8g2-master\csrc/u8x8_d_ssd1327.c ****     {
 424:..\u8g2-master\csrc/u8x8_d_ssd1327.c ****       u8x8_cad_SendSequence(u8x8, u8x8_d_ssd1327_ea_w128128_flip1_seq);
 984              		.loc 1 424 0
 985 0020 2149     		ldr	r1, .L53
 986              	.LVL68:
 987 0022 FFF7FEFF 		bl	u8x8_cad_SendSequence
 988              	.LVL69:
 425:..\u8g2-master\csrc/u8x8_d_ssd1327.c ****       u8x8->x_offset = u8x8->display_info->flipmode_x_offset;
 989              		.loc 1 425 0
 990 0026 2368     		ldr	r3, [r4]
 426:..\u8g2-master\csrc/u8x8_d_ssd1327.c ****     }
 427:..\u8g2-master\csrc/u8x8_d_ssd1327.c ****     return 1;
 991              		.loc 1 427 0
 992 0028 0120     		movs	r0, #1
 425:..\u8g2-master\csrc/u8x8_d_ssd1327.c ****       u8x8->x_offset = u8x8->display_info->flipmode_x_offset;
 993              		.loc 1 425 0
 994 002a DB7C     		ldrb	r3, [r3, #19]	@ zero_extendqisi2
 995 002c 84F82230 		strb	r3, [r4, #34]
 996 0030 38BD     		pop	{r3, r4, r5, pc}
 997              	.LVL70:
 998              	.L49:
 999              	.LBB34:
 1000              	.LBB29:
 117:..\u8g2-master\csrc/u8x8_d_ssd1327.c **** 	u8x8_cad_SendSequence(u8x8, u8x8_d_ssd1327_96x96_powersave0_seq);
 1001              		.loc 1 117 0
 1002 0032 DAB9     		cbnz	r2, .L39
 118:..\u8g2-master\csrc/u8x8_d_ssd1327.c ****       else
 1003              		.loc 1 118 0
 1004 0034 1D49     		ldr	r1, .L53+4
 1005              	.LVL71:
 1006 0036 FFF7FEFF 		bl	u8x8_cad_SendSequence
 1007              	.LVL72:
 1008              	.LBE29:
 1009              	.LBE34:
 403:..\u8g2-master\csrc/u8x8_d_ssd1327.c ****   if ( msg == U8X8_MSG_DISPLAY_SETUP_MEMORY )
 1010              		.loc 1 403 0
 1011 003a 0120     		movs	r0, #1
 428:..\u8g2-master\csrc/u8x8_d_ssd1327.c ****   }
 429:..\u8g2-master\csrc/u8x8_d_ssd1327.c ****   return 0;
 430:..\u8g2-master\csrc/u8x8_d_ssd1327.c **** }
 1012              		.loc 1 430 0
 1013 003c 38BD     		pop	{r3, r4, r5, pc}
 1014              	.LVL73:
 1015              	.L37:
 1016              	.LBB35:
 1017              	.LBB30:
ARM GAS  C:\Users\info\AppData\Local\Temp\ccpgnRHd.s 			page 29


 1018 003e 1A46     		mov	r2, r3
 1019              	.LVL74:
 1020 0040 2946     		mov	r1, r5
 1021              	.LVL75:
 1022 0042 FFF7FEFF 		bl	u8x8_d_ssd1327_96x96_generic.part.1
 1023              	.LVL76:
 1024              	.LBE30:
 1025              	.LBE35:
 403:..\u8g2-master\csrc/u8x8_d_ssd1327.c ****   if ( msg == U8X8_MSG_DISPLAY_SETUP_MEMORY )
 1026              		.loc 1 403 0
 1027 0046 0030     		adds	r0, r0, #0
 1028 0048 18BF     		it	ne
 1029 004a 0120     		movne	r0, #1
 1030 004c 38BD     		pop	{r3, r4, r5, pc}
 1031              	.LVL77:
 1032              	.L36:
 1033              	.LBB36:
 1034              	.LBB31:
 124:..\u8g2-master\csrc/u8x8_d_ssd1327.c ****       u8x8_cad_SendCmd(u8x8, 0x081 );
 1035              		.loc 1 124 0
 1036 004e FFF7FEFF 		bl	u8x8_cad_StartTransfer
 1037              	.LVL78:
 125:..\u8g2-master\csrc/u8x8_d_ssd1327.c ****       u8x8_cad_SendArg(u8x8, arg_int );	/* ssd1327 has range from 0 to 255 */
 1038              		.loc 1 125 0
 1039 0052 8121     		movs	r1, #129
 1040 0054 2046     		mov	r0, r4
 1041 0056 FFF7FEFF 		bl	u8x8_cad_SendCmd
 1042              	.LVL79:
 126:..\u8g2-master\csrc/u8x8_d_ssd1327.c ****       u8x8_cad_EndTransfer(u8x8);
 1043              		.loc 1 126 0
 1044 005a 2946     		mov	r1, r5
 1045 005c 2046     		mov	r0, r4
 1046 005e FFF7FEFF 		bl	u8x8_cad_SendArg
 1047              	.LVL80:
 127:..\u8g2-master\csrc/u8x8_d_ssd1327.c ****       break;
 1048              		.loc 1 127 0
 1049 0062 2046     		mov	r0, r4
 1050 0064 FFF7FEFF 		bl	u8x8_cad_EndTransfer
 1051              	.LVL81:
 1052              	.LBE31:
 1053              	.LBE36:
 403:..\u8g2-master\csrc/u8x8_d_ssd1327.c ****   if ( msg == U8X8_MSG_DISPLAY_SETUP_MEMORY )
 1054              		.loc 1 403 0
 1055 0068 0120     		movs	r0, #1
 1056              		.loc 1 430 0
 1057 006a 38BD     		pop	{r3, r4, r5, pc}
 1058              	.LVL82:
 1059              	.L39:
 1060              	.LBB37:
 1061              	.LBB32:
 120:..\u8g2-master\csrc/u8x8_d_ssd1327.c ****       break;
 1062              		.loc 1 120 0
 1063 006c 1049     		ldr	r1, .L53+8
 1064              	.LVL83:
 1065 006e FFF7FEFF 		bl	u8x8_cad_SendSequence
 1066              	.LVL84:
 1067              	.LBE32:
ARM GAS  C:\Users\info\AppData\Local\Temp\ccpgnRHd.s 			page 30


 1068              	.LBE37:
 403:..\u8g2-master\csrc/u8x8_d_ssd1327.c ****   if ( msg == U8X8_MSG_DISPLAY_SETUP_MEMORY )
 1069              		.loc 1 403 0
 1070 0072 0120     		movs	r0, #1
 1071              		.loc 1 430 0
 1072 0074 38BD     		pop	{r3, r4, r5, pc}
 1073              	.LVL85:
 1074              	.L45:
 429:..\u8g2-master\csrc/u8x8_d_ssd1327.c **** }
 1075              		.loc 1 429 0
 1076 0076 0020     		movs	r0, #0
 1077              	.LVL86:
 1078 0078 38BD     		pop	{r3, r4, r5, pc}
 1079              	.LVL87:
 1080              	.L52:
 419:..\u8g2-master\csrc/u8x8_d_ssd1327.c ****       u8x8->x_offset = u8x8->display_info->default_x_offset;
 1081              		.loc 1 419 0
 1082 007a 0E49     		ldr	r1, .L53+12
 1083              	.LVL88:
 1084 007c FFF7FEFF 		bl	u8x8_cad_SendSequence
 1085              	.LVL89:
 420:..\u8g2-master\csrc/u8x8_d_ssd1327.c ****     }
 1086              		.loc 1 420 0
 1087 0080 2368     		ldr	r3, [r4]
 427:..\u8g2-master\csrc/u8x8_d_ssd1327.c ****   }
 1088              		.loc 1 427 0
 1089 0082 0120     		movs	r0, #1
 420:..\u8g2-master\csrc/u8x8_d_ssd1327.c ****     }
 1090              		.loc 1 420 0
 1091 0084 9B7C     		ldrb	r3, [r3, #18]	@ zero_extendqisi2
 1092 0086 84F82230 		strb	r3, [r4, #34]
 1093 008a 38BD     		pop	{r3, r4, r5, pc}
 1094              	.LVL90:
 1095              	.L50:
 406:..\u8g2-master\csrc/u8x8_d_ssd1327.c ****     return 1;
 1096              		.loc 1 406 0
 1097 008c 0A49     		ldr	r1, .L53+16
 1098              	.LVL91:
 1099 008e FFF7FEFF 		bl	u8x8_d_helper_display_setup_memory
 1100              	.LVL92:
 407:..\u8g2-master\csrc/u8x8_d_ssd1327.c ****   }
 1101              		.loc 1 407 0
 1102 0092 0120     		movs	r0, #1
 1103 0094 38BD     		pop	{r3, r4, r5, pc}
 1104              	.LVL93:
 1105              	.L51:
 411:..\u8g2-master\csrc/u8x8_d_ssd1327.c ****     u8x8_cad_SendSequence(u8x8, u8x8_d_ssd1327_ea_w128128_init_seq);    
 1106              		.loc 1 411 0
 1107 0096 FFF7FEFF 		bl	u8x8_d_helper_display_init
 1108              	.LVL94:
 412:..\u8g2-master\csrc/u8x8_d_ssd1327.c ****     return 1;
 1109              		.loc 1 412 0
 1110 009a 2046     		mov	r0, r4
 1111 009c 0749     		ldr	r1, .L53+20
 1112 009e FFF7FEFF 		bl	u8x8_cad_SendSequence
 1113              	.LVL95:
 413:..\u8g2-master\csrc/u8x8_d_ssd1327.c ****   }
ARM GAS  C:\Users\info\AppData\Local\Temp\ccpgnRHd.s 			page 31


 1114              		.loc 1 413 0
 1115 00a2 0120     		movs	r0, #1
 1116 00a4 38BD     		pop	{r3, r4, r5, pc}
 1117              	.LVL96:
 1118              	.L54:
 1119 00a6 00BF     		.align	2
 1120              	.L53:
 1121 00a8 E4000000 		.word	.LANCHOR1+228
 1122 00ac 00000000 		.word	.LANCHOR1
 1123 00b0 08000000 		.word	.LANCHOR1+8
 1124 00b4 D8000000 		.word	.LANCHOR1+216
 1125 00b8 80000000 		.word	.LANCHOR1+128
 1126 00bc 98000000 		.word	.LANCHOR1+152
 1127              		.cfi_endproc
 1128              	.LFE3:
 1129              		.size	u8x8_d_ssd1327_ea_w128128, .-u8x8_d_ssd1327_ea_w128128
 1130              		.section	.text.u8x8_d_ssd1327_midas_128x128,"ax",%progbits
 1131              		.align	2
 1132              		.global	u8x8_d_ssd1327_midas_128x128
 1133              		.thumb
 1134              		.thumb_func
 1135              		.type	u8x8_d_ssd1327_midas_128x128, %function
 1136              	u8x8_d_ssd1327_midas_128x128:
 1137              	.LFB4:
 431:..\u8g2-master\csrc/u8x8_d_ssd1327.c **** 
 432:..\u8g2-master\csrc/u8x8_d_ssd1327.c **** /*=============================================*/
 433:..\u8g2-master\csrc/u8x8_d_ssd1327.c **** /*  MIDAS MCOT128128C1V-YM 128x128 Module */
 434:..\u8g2-master\csrc/u8x8_d_ssd1327.c **** 
 435:..\u8g2-master\csrc/u8x8_d_ssd1327.c **** 
 436:..\u8g2-master\csrc/u8x8_d_ssd1327.c **** static const u8x8_display_info_t u8x8_ssd1327_128x128_display_info =
 437:..\u8g2-master\csrc/u8x8_d_ssd1327.c **** {
 438:..\u8g2-master\csrc/u8x8_d_ssd1327.c ****   /* chip_enable_level = */ 0,
 439:..\u8g2-master\csrc/u8x8_d_ssd1327.c ****   /* chip_disable_level = */ 1,
 440:..\u8g2-master\csrc/u8x8_d_ssd1327.c ****   
 441:..\u8g2-master\csrc/u8x8_d_ssd1327.c ****   /* post_chip_enable_wait_ns = */ 20,
 442:..\u8g2-master\csrc/u8x8_d_ssd1327.c ****   /* pre_chip_disable_wait_ns = */ 10,
 443:..\u8g2-master\csrc/u8x8_d_ssd1327.c ****   /* reset_pulse_width_ms = */ 100, 	
 444:..\u8g2-master\csrc/u8x8_d_ssd1327.c ****   /* post_reset_wait_ms = */ 100, 		/**/
 445:..\u8g2-master\csrc/u8x8_d_ssd1327.c ****   /* sda_setup_time_ns = */ 100,		/* */
 446:..\u8g2-master\csrc/u8x8_d_ssd1327.c ****   /* sck_pulse_width_ns = */ 100,	/*  */
 447:..\u8g2-master\csrc/u8x8_d_ssd1327.c ****   /* sck_clock_hz = */ 4000000UL,	/* since Arduino 1.6.0, the SPI bus speed in Hz. Should be  10000
 448:..\u8g2-master\csrc/u8x8_d_ssd1327.c ****   /* spi_mode = */ 0,		/* active high, rising edge */
 449:..\u8g2-master\csrc/u8x8_d_ssd1327.c ****   /* i2c_bus_clock_100kHz = */ 1,	/* use 1 instead of 4, because the SSD1327 seems to be very slow 
 450:..\u8g2-master\csrc/u8x8_d_ssd1327.c ****   /* data_setup_time_ns = */ 40,
 451:..\u8g2-master\csrc/u8x8_d_ssd1327.c ****   /* write_pulse_width_ns = */ 60,	
 452:..\u8g2-master\csrc/u8x8_d_ssd1327.c ****   /* tile_width = */ 16,
 453:..\u8g2-master\csrc/u8x8_d_ssd1327.c ****   /* tile_hight = */ 16,
 454:..\u8g2-master\csrc/u8x8_d_ssd1327.c ****   /* default_x_offset = */ 0,
 455:..\u8g2-master\csrc/u8x8_d_ssd1327.c ****   /* flipmode_x_offset = */ 0,		
 456:..\u8g2-master\csrc/u8x8_d_ssd1327.c ****   /* pixel_width = */ 128,
 457:..\u8g2-master\csrc/u8x8_d_ssd1327.c ****   /* pixel_height = */ 128
 458:..\u8g2-master\csrc/u8x8_d_ssd1327.c **** };
 459:..\u8g2-master\csrc/u8x8_d_ssd1327.c **** 
 460:..\u8g2-master\csrc/u8x8_d_ssd1327.c **** /*  https://github.com/SeeedDocument/Grove_OLED_1.12/raw/master/resources/LY120-096096.pdf */
 461:..\u8g2-master\csrc/u8x8_d_ssd1327.c **** /*  http://www.seeedstudio.com/wiki/index.php?title=Twig_-_OLED_96x96 */
 462:..\u8g2-master\csrc/u8x8_d_ssd1327.c **** /* values from u8glib */
 463:..\u8g2-master\csrc/u8x8_d_ssd1327.c **** /*
ARM GAS  C:\Users\info\AppData\Local\Temp\ccpgnRHd.s 			page 32


 464:..\u8g2-master\csrc/u8x8_d_ssd1327.c ****   Re-map setting in Graphic Display Data RAM, command 0x0a0
 465:..\u8g2-master\csrc/u8x8_d_ssd1327.c ****     Bit 0: Column Address Re-map
 466:..\u8g2-master\csrc/u8x8_d_ssd1327.c ****     Bit 1: Nibble Re-map
 467:..\u8g2-master\csrc/u8x8_d_ssd1327.c ****     Bit 2: Horizontal/Vertical Address Increment
 468:..\u8g2-master\csrc/u8x8_d_ssd1327.c ****     Bit 3: Not used, must be 0
 469:..\u8g2-master\csrc/u8x8_d_ssd1327.c ****     
 470:..\u8g2-master\csrc/u8x8_d_ssd1327.c ****     Bit 4: COM Re-map
 471:..\u8g2-master\csrc/u8x8_d_ssd1327.c ****     Bit 5: Not used, must be 0
 472:..\u8g2-master\csrc/u8x8_d_ssd1327.c ****     Bit 6: COM Split Odd Even
 473:..\u8g2-master\csrc/u8x8_d_ssd1327.c ****     Bit 7: Not used, must be 0
 474:..\u8g2-master\csrc/u8x8_d_ssd1327.c **** */
 475:..\u8g2-master\csrc/u8x8_d_ssd1327.c **** 
 476:..\u8g2-master\csrc/u8x8_d_ssd1327.c **** 
 477:..\u8g2-master\csrc/u8x8_d_ssd1327.c **** static const uint8_t u8x8_d_ssd1327_128x128_init_seq[] = {
 478:..\u8g2-master\csrc/u8x8_d_ssd1327.c ****     
 479:..\u8g2-master\csrc/u8x8_d_ssd1327.c ****   U8X8_START_TRANSFER(),             	/* enable chip, delay is part of the transfer start */
 480:..\u8g2-master\csrc/u8x8_d_ssd1327.c **** 
 481:..\u8g2-master\csrc/u8x8_d_ssd1327.c **** 	
 482:..\u8g2-master\csrc/u8x8_d_ssd1327.c ****   U8X8_CA(0x0fd, 0x012),		/* unlock display, usually not required because the display is unlocked a
 483:..\u8g2-master\csrc/u8x8_d_ssd1327.c ****   U8X8_C(0x0ae),		                /* display off */
 484:..\u8g2-master\csrc/u8x8_d_ssd1327.c ****   //U8X8_CA(0x0a8, 0x03f),		/* multiplex ratio: 0x03f * 1/64 duty */
 485:..\u8g2-master\csrc/u8x8_d_ssd1327.c ****   //U8X8_CA(0x0a8, 0x05f),		/* multiplex ratio: 0x05f * 1/64 duty */
 486:..\u8g2-master\csrc/u8x8_d_ssd1327.c ****   U8X8_CA(0x0a8, 0x07f),       		 /* multiplex ratio: 0x05f * 1/128duty */
 487:..\u8g2-master\csrc/u8x8_d_ssd1327.c ****   U8X8_CA(0x0a1, 0x000),		/* display start line */
 488:..\u8g2-master\csrc/u8x8_d_ssd1327.c ****   //U8X8_CA(0x0a2, 0x04c),		/* display offset, shift mapping ram counter */
 489:..\u8g2-master\csrc/u8x8_d_ssd1327.c ****   
 490:..\u8g2-master\csrc/u8x8_d_ssd1327.c ****   U8X8_CA(0x0a2, 0x000),		/* display offset, shift mapping ram counter */
 491:..\u8g2-master\csrc/u8x8_d_ssd1327.c ****   U8X8_CA(0x0a0, 0x051),		/* remap configuration */
 492:..\u8g2-master\csrc/u8x8_d_ssd1327.c ****   
 493:..\u8g2-master\csrc/u8x8_d_ssd1327.c ****   
 494:..\u8g2-master\csrc/u8x8_d_ssd1327.c ****   U8X8_CA(0x0ab, 0x001),		/* Enable internal VDD regulator (RESET) */
 495:..\u8g2-master\csrc/u8x8_d_ssd1327.c ****   //U8X8_CA(0x081, 0x070),		/* contrast, brightness, 0..128 */
 496:..\u8g2-master\csrc/u8x8_d_ssd1327.c ****   U8X8_CA(0x081, 0x053),		/* contrast, brightness, 0..128 */
 497:..\u8g2-master\csrc/u8x8_d_ssd1327.c ****   //U8X8_CA(0x0b1, 0x055),                    /* phase length */
 498:..\u8g2-master\csrc/u8x8_d_ssd1327.c ****   U8X8_CA(0x0b1, 0x051),                    /* phase length */  
 499:..\u8g2-master\csrc/u8x8_d_ssd1327.c ****   //U8X8_CA(0x0b3, 0x091),		/* set display clock divide ratio/oscillator frequency (set clock as 13
 500:..\u8g2-master\csrc/u8x8_d_ssd1327.c ****   U8X8_CA(0x0b3, 0x001),		/* set display clock divide ratio/oscillator frequency  */			
 501:..\u8g2-master\csrc/u8x8_d_ssd1327.c ****   
 502:..\u8g2-master\csrc/u8x8_d_ssd1327.c ****   //? U8X8_CA(0x0ad, 0x002),		/* master configuration: disable embedded DC-DC, enable internal VCOM
 503:..\u8g2-master\csrc/u8x8_d_ssd1327.c ****   //? U8X8_C(0x086),				/* full current range (0x084, 0x085, 0x086) */
 504:..\u8g2-master\csrc/u8x8_d_ssd1327.c ****   
 505:..\u8g2-master\csrc/u8x8_d_ssd1327.c ****   U8X8_C(0x0b9),				/* use linear lookup table */
 506:..\u8g2-master\csrc/u8x8_d_ssd1327.c **** 
 507:..\u8g2-master\csrc/u8x8_d_ssd1327.c ****   //U8X8_CA(0x0bc, 0x010),                    /* pre-charge voltage level */
 508:..\u8g2-master\csrc/u8x8_d_ssd1327.c ****   U8X8_CA(0x0bc, 0x008),                    /* pre-charge voltage level */
 509:..\u8g2-master\csrc/u8x8_d_ssd1327.c ****   //U8X8_CA(0x0be, 0x01c),                     /* VCOMH voltage */
 510:..\u8g2-master\csrc/u8x8_d_ssd1327.c ****   U8X8_CA(0x0be, 0x007),                     /* VCOMH voltage */
 511:..\u8g2-master\csrc/u8x8_d_ssd1327.c ****   U8X8_CA(0x0b6, 0x001),		/* second precharge */
 512:..\u8g2-master\csrc/u8x8_d_ssd1327.c ****   U8X8_CA(0x0d5, 0x062),		/* enable second precharge, internal vsl (bit0 = 0) */
 513:..\u8g2-master\csrc/u8x8_d_ssd1327.c **** 
 514:..\u8g2-master\csrc/u8x8_d_ssd1327.c **** 
 515:..\u8g2-master\csrc/u8x8_d_ssd1327.c ****   
 516:..\u8g2-master\csrc/u8x8_d_ssd1327.c ****   U8X8_C(0x0a4),				/* normal display mode */
 517:..\u8g2-master\csrc/u8x8_d_ssd1327.c ****     
 518:..\u8g2-master\csrc/u8x8_d_ssd1327.c ****   U8X8_END_TRANSFER(),             	/* disable chip */
 519:..\u8g2-master\csrc/u8x8_d_ssd1327.c ****   U8X8_END()             			/* end of sequence */
 520:..\u8g2-master\csrc/u8x8_d_ssd1327.c **** };
ARM GAS  C:\Users\info\AppData\Local\Temp\ccpgnRHd.s 			page 33


 521:..\u8g2-master\csrc/u8x8_d_ssd1327.c **** 
 522:..\u8g2-master\csrc/u8x8_d_ssd1327.c **** 
 523:..\u8g2-master\csrc/u8x8_d_ssd1327.c **** static const uint8_t u8x8_d_ssd1327_128x128_flip0_seq[] = {
 524:..\u8g2-master\csrc/u8x8_d_ssd1327.c ****   U8X8_START_TRANSFER(),             	/* enable chip, delay is part of the transfer start */
 525:..\u8g2-master\csrc/u8x8_d_ssd1327.c ****   U8X8_CA(0x0a2, 0x000),		/* display offset, shift mapping ram counter */
 526:..\u8g2-master\csrc/u8x8_d_ssd1327.c ****   U8X8_CA(0x0a0, 0x051),		/* remap configuration */
 527:..\u8g2-master\csrc/u8x8_d_ssd1327.c ****   U8X8_END_TRANSFER(),             	/* disable chip */
 528:..\u8g2-master\csrc/u8x8_d_ssd1327.c ****   U8X8_END()             			/* end of sequence */
 529:..\u8g2-master\csrc/u8x8_d_ssd1327.c **** };
 530:..\u8g2-master\csrc/u8x8_d_ssd1327.c **** 
 531:..\u8g2-master\csrc/u8x8_d_ssd1327.c **** static const uint8_t u8x8_d_ssd1327_128x128_flip1_seq[] = {
 532:..\u8g2-master\csrc/u8x8_d_ssd1327.c ****   U8X8_START_TRANSFER(),             	/* enable chip, delay is part of the transfer start */
 533:..\u8g2-master\csrc/u8x8_d_ssd1327.c ****   U8X8_CA(0x0a2, 0x000),		/* display offset, shift mapping ram counter */
 534:..\u8g2-master\csrc/u8x8_d_ssd1327.c ****   U8X8_CA(0x0a0, 0x042),		/* remap configuration */
 535:..\u8g2-master\csrc/u8x8_d_ssd1327.c ****   U8X8_END_TRANSFER(),             	/* disable chip */
 536:..\u8g2-master\csrc/u8x8_d_ssd1327.c ****   U8X8_END()             			/* end of sequence */
 537:..\u8g2-master\csrc/u8x8_d_ssd1327.c **** };
 538:..\u8g2-master\csrc/u8x8_d_ssd1327.c **** 
 539:..\u8g2-master\csrc/u8x8_d_ssd1327.c **** 
 540:..\u8g2-master\csrc/u8x8_d_ssd1327.c **** uint8_t u8x8_d_ssd1327_midas_128x128(u8x8_t *u8x8, uint8_t msg, uint8_t arg_int, void *arg_ptr)
 541:..\u8g2-master\csrc/u8x8_d_ssd1327.c **** {
 1138              		.loc 1 541 0
 1139              		.cfi_startproc
 1140              		@ args = 0, pretend = 0, frame = 0
 1141              		@ frame_needed = 0, uses_anonymous_args = 0
 1142              	.LVL97:
 1143              	.LBB40:
 1144              	.LBB41:
 103:..\u8g2-master\csrc/u8x8_d_ssd1327.c ****   {
 1145              		.loc 1 103 0
 1146 0000 0E29     		cmp	r1, #14
 1147              	.LBE41:
 1148              	.LBE40:
 1149              		.loc 1 541 0
 1150 0002 38B5     		push	{r3, r4, r5, lr}
 1151              		.cfi_def_cfa_offset 16
 1152              		.cfi_offset 3, -16
 1153              		.cfi_offset 4, -12
 1154              		.cfi_offset 5, -8
 1155              		.cfi_offset 14, -4
 1156              		.loc 1 541 0
 1157 0004 1546     		mov	r5, r2
 1158 0006 0446     		mov	r4, r0
 1159              	.LVL98:
 1160              	.LBB47:
 1161              	.LBB42:
 103:..\u8g2-master\csrc/u8x8_d_ssd1327.c ****   {
 1162              		.loc 1 103 0
 1163 0008 21D0     		beq	.L57
 1164 000a 0F29     		cmp	r1, #15
 1165 000c 17D0     		beq	.L58
 1166 000e 0B29     		cmp	r1, #11
 1167 0010 0FD0     		beq	.L70
 1168              	.LVL99:
 1169              	.LBE42:
 1170              	.LBE47:
 542:..\u8g2-master\csrc/u8x8_d_ssd1327.c ****   /* call the 96x96 procedure at the moment */
ARM GAS  C:\Users\info\AppData\Local\Temp\ccpgnRHd.s 			page 34


 543:..\u8g2-master\csrc/u8x8_d_ssd1327.c ****   if ( u8x8_d_ssd1327_96x96_generic(u8x8, msg, arg_int, arg_ptr) != 0 )
 544:..\u8g2-master\csrc/u8x8_d_ssd1327.c ****     return 1;
 545:..\u8g2-master\csrc/u8x8_d_ssd1327.c ****   if ( msg == U8X8_MSG_DISPLAY_SETUP_MEMORY )
 1171              		.loc 1 545 0
 1172 0012 0929     		cmp	r1, #9
 1173 0014 3AD0     		beq	.L71
 546:..\u8g2-master\csrc/u8x8_d_ssd1327.c ****   {
 547:..\u8g2-master\csrc/u8x8_d_ssd1327.c ****     u8x8_d_helper_display_setup_memory(u8x8, &u8x8_ssd1327_128x128_display_info);
 548:..\u8g2-master\csrc/u8x8_d_ssd1327.c ****     return 1;
 549:..\u8g2-master\csrc/u8x8_d_ssd1327.c ****   }
 550:..\u8g2-master\csrc/u8x8_d_ssd1327.c ****   else if ( msg == U8X8_MSG_DISPLAY_INIT )
 1174              		.loc 1 550 0
 1175 0016 0A29     		cmp	r1, #10
 1176 0018 3DD0     		beq	.L72
 551:..\u8g2-master\csrc/u8x8_d_ssd1327.c ****   {
 552:..\u8g2-master\csrc/u8x8_d_ssd1327.c ****     u8x8_d_helper_display_init(u8x8);
 553:..\u8g2-master\csrc/u8x8_d_ssd1327.c ****     u8x8_cad_SendSequence(u8x8, u8x8_d_ssd1327_128x128_init_seq); 
 554:..\u8g2-master\csrc/u8x8_d_ssd1327.c ****     return 1;
 555:..\u8g2-master\csrc/u8x8_d_ssd1327.c ****   }
 556:..\u8g2-master\csrc/u8x8_d_ssd1327.c ****   else if  ( msg == U8X8_MSG_DISPLAY_SET_FLIP_MODE )
 1177              		.loc 1 556 0
 1178 001a 0D29     		cmp	r1, #13
 1179 001c 2BD1     		bne	.L66
 557:..\u8g2-master\csrc/u8x8_d_ssd1327.c ****   {
 558:..\u8g2-master\csrc/u8x8_d_ssd1327.c ****     if ( arg_int == 0 )
 1180              		.loc 1 558 0
 1181 001e 62B3     		cbz	r2, .L73
 559:..\u8g2-master\csrc/u8x8_d_ssd1327.c ****     {
 560:..\u8g2-master\csrc/u8x8_d_ssd1327.c ****       u8x8_cad_SendSequence(u8x8, u8x8_d_ssd1327_128x128_flip0_seq);
 561:..\u8g2-master\csrc/u8x8_d_ssd1327.c ****       u8x8->x_offset = u8x8->display_info->default_x_offset;
 562:..\u8g2-master\csrc/u8x8_d_ssd1327.c ****     }
 563:..\u8g2-master\csrc/u8x8_d_ssd1327.c ****     else
 564:..\u8g2-master\csrc/u8x8_d_ssd1327.c ****     {
 565:..\u8g2-master\csrc/u8x8_d_ssd1327.c ****       u8x8_cad_SendSequence(u8x8, u8x8_d_ssd1327_128x128_flip1_seq);
 1182              		.loc 1 565 0
 1183 0020 2149     		ldr	r1, .L74
 1184              	.LVL100:
 1185 0022 FFF7FEFF 		bl	u8x8_cad_SendSequence
 1186              	.LVL101:
 566:..\u8g2-master\csrc/u8x8_d_ssd1327.c ****       u8x8->x_offset = u8x8->display_info->flipmode_x_offset;
 1187              		.loc 1 566 0
 1188 0026 2368     		ldr	r3, [r4]
 567:..\u8g2-master\csrc/u8x8_d_ssd1327.c ****     }
 568:..\u8g2-master\csrc/u8x8_d_ssd1327.c ****     return 1;
 1189              		.loc 1 568 0
 1190 0028 0120     		movs	r0, #1
 566:..\u8g2-master\csrc/u8x8_d_ssd1327.c ****       u8x8->x_offset = u8x8->display_info->flipmode_x_offset;
 1191              		.loc 1 566 0
 1192 002a DB7C     		ldrb	r3, [r3, #19]	@ zero_extendqisi2
 1193 002c 84F82230 		strb	r3, [r4, #34]
 1194 0030 38BD     		pop	{r3, r4, r5, pc}
 1195              	.LVL102:
 1196              	.L70:
 1197              	.LBB48:
 1198              	.LBB43:
 117:..\u8g2-master\csrc/u8x8_d_ssd1327.c **** 	u8x8_cad_SendSequence(u8x8, u8x8_d_ssd1327_96x96_powersave0_seq);
 1199              		.loc 1 117 0
ARM GAS  C:\Users\info\AppData\Local\Temp\ccpgnRHd.s 			page 35


 1200 0032 DAB9     		cbnz	r2, .L60
 118:..\u8g2-master\csrc/u8x8_d_ssd1327.c ****       else
 1201              		.loc 1 118 0
 1202 0034 1D49     		ldr	r1, .L74+4
 1203              	.LVL103:
 1204 0036 FFF7FEFF 		bl	u8x8_cad_SendSequence
 1205              	.LVL104:
 1206              	.LBE43:
 1207              	.LBE48:
 544:..\u8g2-master\csrc/u8x8_d_ssd1327.c ****   if ( msg == U8X8_MSG_DISPLAY_SETUP_MEMORY )
 1208              		.loc 1 544 0
 1209 003a 0120     		movs	r0, #1
 569:..\u8g2-master\csrc/u8x8_d_ssd1327.c ****   }
 570:..\u8g2-master\csrc/u8x8_d_ssd1327.c ****   return 0;
 571:..\u8g2-master\csrc/u8x8_d_ssd1327.c **** }
 1210              		.loc 1 571 0
 1211 003c 38BD     		pop	{r3, r4, r5, pc}
 1212              	.LVL105:
 1213              	.L58:
 1214              	.LBB49:
 1215              	.LBB44:
 1216 003e 1A46     		mov	r2, r3
 1217              	.LVL106:
 1218 0040 2946     		mov	r1, r5
 1219              	.LVL107:
 1220 0042 FFF7FEFF 		bl	u8x8_d_ssd1327_96x96_generic.part.1
 1221              	.LVL108:
 1222              	.LBE44:
 1223              	.LBE49:
 544:..\u8g2-master\csrc/u8x8_d_ssd1327.c ****   if ( msg == U8X8_MSG_DISPLAY_SETUP_MEMORY )
 1224              		.loc 1 544 0
 1225 0046 0030     		adds	r0, r0, #0
 1226 0048 18BF     		it	ne
 1227 004a 0120     		movne	r0, #1
 1228 004c 38BD     		pop	{r3, r4, r5, pc}
 1229              	.LVL109:
 1230              	.L57:
 1231              	.LBB50:
 1232              	.LBB45:
 124:..\u8g2-master\csrc/u8x8_d_ssd1327.c ****       u8x8_cad_SendCmd(u8x8, 0x081 );
 1233              		.loc 1 124 0
 1234 004e FFF7FEFF 		bl	u8x8_cad_StartTransfer
 1235              	.LVL110:
 125:..\u8g2-master\csrc/u8x8_d_ssd1327.c ****       u8x8_cad_SendArg(u8x8, arg_int );	/* ssd1327 has range from 0 to 255 */
 1236              		.loc 1 125 0
 1237 0052 8121     		movs	r1, #129
 1238 0054 2046     		mov	r0, r4
 1239 0056 FFF7FEFF 		bl	u8x8_cad_SendCmd
 1240              	.LVL111:
 126:..\u8g2-master\csrc/u8x8_d_ssd1327.c ****       u8x8_cad_EndTransfer(u8x8);
 1241              		.loc 1 126 0
 1242 005a 2946     		mov	r1, r5
 1243 005c 2046     		mov	r0, r4
 1244 005e FFF7FEFF 		bl	u8x8_cad_SendArg
 1245              	.LVL112:
 127:..\u8g2-master\csrc/u8x8_d_ssd1327.c ****       break;
 1246              		.loc 1 127 0
ARM GAS  C:\Users\info\AppData\Local\Temp\ccpgnRHd.s 			page 36


 1247 0062 2046     		mov	r0, r4
 1248 0064 FFF7FEFF 		bl	u8x8_cad_EndTransfer
 1249              	.LVL113:
 1250              	.LBE45:
 1251              	.LBE50:
 544:..\u8g2-master\csrc/u8x8_d_ssd1327.c ****   if ( msg == U8X8_MSG_DISPLAY_SETUP_MEMORY )
 1252              		.loc 1 544 0
 1253 0068 0120     		movs	r0, #1
 1254              		.loc 1 571 0
 1255 006a 38BD     		pop	{r3, r4, r5, pc}
 1256              	.LVL114:
 1257              	.L60:
 1258              	.LBB51:
 1259              	.LBB46:
 120:..\u8g2-master\csrc/u8x8_d_ssd1327.c ****       break;
 1260              		.loc 1 120 0
 1261 006c 1049     		ldr	r1, .L74+8
 1262              	.LVL115:
 1263 006e FFF7FEFF 		bl	u8x8_cad_SendSequence
 1264              	.LVL116:
 1265              	.LBE46:
 1266              	.LBE51:
 544:..\u8g2-master\csrc/u8x8_d_ssd1327.c ****   if ( msg == U8X8_MSG_DISPLAY_SETUP_MEMORY )
 1267              		.loc 1 544 0
 1268 0072 0120     		movs	r0, #1
 1269              		.loc 1 571 0
 1270 0074 38BD     		pop	{r3, r4, r5, pc}
 1271              	.LVL117:
 1272              	.L66:
 570:..\u8g2-master\csrc/u8x8_d_ssd1327.c **** }
 1273              		.loc 1 570 0
 1274 0076 0020     		movs	r0, #0
 1275              	.LVL118:
 1276 0078 38BD     		pop	{r3, r4, r5, pc}
 1277              	.LVL119:
 1278              	.L73:
 560:..\u8g2-master\csrc/u8x8_d_ssd1327.c ****       u8x8->x_offset = u8x8->display_info->default_x_offset;
 1279              		.loc 1 560 0
 1280 007a 0E49     		ldr	r1, .L74+12
 1281              	.LVL120:
 1282 007c FFF7FEFF 		bl	u8x8_cad_SendSequence
 1283              	.LVL121:
 561:..\u8g2-master\csrc/u8x8_d_ssd1327.c ****     }
 1284              		.loc 1 561 0
 1285 0080 2368     		ldr	r3, [r4]
 568:..\u8g2-master\csrc/u8x8_d_ssd1327.c ****   }
 1286              		.loc 1 568 0
 1287 0082 0120     		movs	r0, #1
 561:..\u8g2-master\csrc/u8x8_d_ssd1327.c ****     }
 1288              		.loc 1 561 0
 1289 0084 9B7C     		ldrb	r3, [r3, #18]	@ zero_extendqisi2
 1290 0086 84F82230 		strb	r3, [r4, #34]
 1291 008a 38BD     		pop	{r3, r4, r5, pc}
 1292              	.LVL122:
 1293              	.L71:
 547:..\u8g2-master\csrc/u8x8_d_ssd1327.c ****     return 1;
 1294              		.loc 1 547 0
ARM GAS  C:\Users\info\AppData\Local\Temp\ccpgnRHd.s 			page 37


 1295 008c 0A49     		ldr	r1, .L74+16
 1296              	.LVL123:
 1297 008e FFF7FEFF 		bl	u8x8_d_helper_display_setup_memory
 1298              	.LVL124:
 548:..\u8g2-master\csrc/u8x8_d_ssd1327.c ****   }
 1299              		.loc 1 548 0
 1300 0092 0120     		movs	r0, #1
 1301 0094 38BD     		pop	{r3, r4, r5, pc}
 1302              	.LVL125:
 1303              	.L72:
 552:..\u8g2-master\csrc/u8x8_d_ssd1327.c ****     u8x8_cad_SendSequence(u8x8, u8x8_d_ssd1327_128x128_init_seq); 
 1304              		.loc 1 552 0
 1305 0096 FFF7FEFF 		bl	u8x8_d_helper_display_init
 1306              	.LVL126:
 553:..\u8g2-master\csrc/u8x8_d_ssd1327.c ****     return 1;
 1307              		.loc 1 553 0
 1308 009a 2046     		mov	r0, r4
 1309 009c 0749     		ldr	r1, .L74+20
 1310 009e FFF7FEFF 		bl	u8x8_cad_SendSequence
 1311              	.LVL127:
 554:..\u8g2-master\csrc/u8x8_d_ssd1327.c ****   }
 1312              		.loc 1 554 0
 1313 00a2 0120     		movs	r0, #1
 1314 00a4 38BD     		pop	{r3, r4, r5, pc}
 1315              	.LVL128:
 1316              	.L75:
 1317 00a6 00BF     		.align	2
 1318              	.L74:
 1319 00a8 54010000 		.word	.LANCHOR1+340
 1320 00ac 00000000 		.word	.LANCHOR1
 1321 00b0 08000000 		.word	.LANCHOR1+8
 1322 00b4 48010000 		.word	.LANCHOR1+328
 1323 00b8 F0000000 		.word	.LANCHOR1+240
 1324 00bc 08010000 		.word	.LANCHOR1+264
 1325              		.cfi_endproc
 1326              	.LFE4:
 1327              		.size	u8x8_d_ssd1327_midas_128x128, .-u8x8_d_ssd1327_midas_128x128
 1328              		.section	.rodata
 1329              		.align	2
 1330              		.set	.LANCHOR1,. + 0
 1331              		.type	u8x8_d_ssd1327_96x96_powersave0_seq, %object
 1332              		.size	u8x8_d_ssd1327_96x96_powersave0_seq, 5
 1333              	u8x8_d_ssd1327_96x96_powersave0_seq:
 1334 0000 18       		.byte	24
 1335 0001 15       		.byte	21
 1336 0002 AF       		.byte	-81
 1337 0003 19       		.byte	25
 1338 0004 FF       		.byte	-1
 1339 0005 000000   		.space	3
 1340              		.type	u8x8_d_ssd1327_96x96_powersave1_seq, %object
 1341              		.size	u8x8_d_ssd1327_96x96_powersave1_seq, 5
 1342              	u8x8_d_ssd1327_96x96_powersave1_seq:
 1343 0008 18       		.byte	24
 1344 0009 15       		.byte	21
 1345 000a AE       		.byte	-82
 1346 000b 19       		.byte	25
 1347 000c FF       		.byte	-1
ARM GAS  C:\Users\info\AppData\Local\Temp\ccpgnRHd.s 			page 38


 1348 000d 000000   		.space	3
 1349              		.type	u8x8_ssd1327_96x96_display_info, %object
 1350              		.size	u8x8_ssd1327_96x96_display_info, 24
 1351              	u8x8_ssd1327_96x96_display_info:
 1352 0010 00       		.byte	0
 1353 0011 01       		.byte	1
 1354 0012 14       		.byte	20
 1355 0013 0A       		.byte	10
 1356 0014 64       		.byte	100
 1357 0015 64       		.byte	100
 1358 0016 64       		.byte	100
 1359 0017 64       		.byte	100
 1360 0018 00093D00 		.word	4000000
 1361 001c 00       		.byte	0
 1362 001d 01       		.byte	1
 1363 001e 28       		.byte	40
 1364 001f 3C       		.byte	60
 1365 0020 0C       		.byte	12
 1366 0021 0C       		.byte	12
 1367 0022 10       		.byte	16
 1368 0023 10       		.byte	16
 1369 0024 6000     		.short	96
 1370 0026 6000     		.short	96
 1371              		.type	u8x8_d_ssd1327_96x96_init_seq, %object
 1372              		.size	u8x8_d_ssd1327_96x96_init_seq, 61
 1373              	u8x8_d_ssd1327_96x96_init_seq:
 1374 0028 18       		.byte	24
 1375 0029 15       		.byte	21
 1376 002a FD       		.byte	-3
 1377 002b 16       		.byte	22
 1378 002c 12       		.byte	18
 1379 002d 15       		.byte	21
 1380 002e AE       		.byte	-82
 1381 002f 15       		.byte	21
 1382 0030 A8       		.byte	-88
 1383 0031 16       		.byte	22
 1384 0032 5F       		.byte	95
 1385 0033 15       		.byte	21
 1386 0034 A1       		.byte	-95
 1387 0035 16       		.byte	22
 1388 0036 00       		.byte	0
 1389 0037 15       		.byte	21
 1390 0038 A2       		.byte	-94
 1391 0039 16       		.byte	22
 1392 003a 20       		.byte	32
 1393 003b 15       		.byte	21
 1394 003c A0       		.byte	-96
 1395 003d 16       		.byte	22
 1396 003e 51       		.byte	81
 1397 003f 15       		.byte	21
 1398 0040 AB       		.byte	-85
 1399 0041 16       		.byte	22
 1400 0042 01       		.byte	1
 1401 0043 15       		.byte	21
 1402 0044 81       		.byte	-127
 1403 0045 16       		.byte	22
 1404 0046 53       		.byte	83
ARM GAS  C:\Users\info\AppData\Local\Temp\ccpgnRHd.s 			page 39


 1405 0047 15       		.byte	21
 1406 0048 B1       		.byte	-79
 1407 0049 16       		.byte	22
 1408 004a 51       		.byte	81
 1409 004b 15       		.byte	21
 1410 004c B3       		.byte	-77
 1411 004d 16       		.byte	22
 1412 004e 01       		.byte	1
 1413 004f 15       		.byte	21
 1414 0050 B9       		.byte	-71
 1415 0051 15       		.byte	21
 1416 0052 BC       		.byte	-68
 1417 0053 16       		.byte	22
 1418 0054 08       		.byte	8
 1419 0055 15       		.byte	21
 1420 0056 BE       		.byte	-66
 1421 0057 16       		.byte	22
 1422 0058 07       		.byte	7
 1423 0059 15       		.byte	21
 1424 005a B6       		.byte	-74
 1425 005b 16       		.byte	22
 1426 005c 01       		.byte	1
 1427 005d 15       		.byte	21
 1428 005e D5       		.byte	-43
 1429 005f 16       		.byte	22
 1430 0060 62       		.byte	98
 1431 0061 15       		.byte	21
 1432 0062 A4       		.byte	-92
 1433 0063 19       		.byte	25
 1434 0064 FF       		.byte	-1
 1435 0065 000000   		.space	3
 1436              		.type	u8x8_d_ssd1327_seeed_96x96_flip0_seq, %object
 1437              		.size	u8x8_d_ssd1327_seeed_96x96_flip0_seq, 11
 1438              	u8x8_d_ssd1327_seeed_96x96_flip0_seq:
 1439 0068 18       		.byte	24
 1440 0069 15       		.byte	21
 1441 006a A2       		.byte	-94
 1442 006b 16       		.byte	22
 1443 006c 20       		.byte	32
 1444 006d 15       		.byte	21
 1445 006e A0       		.byte	-96
 1446 006f 16       		.byte	22
 1447 0070 51       		.byte	81
 1448 0071 19       		.byte	25
 1449 0072 FF       		.byte	-1
 1450 0073 00       		.space	1
 1451              		.type	u8x8_d_ssd1327_seeed_96x96_flip1_seq, %object
 1452              		.size	u8x8_d_ssd1327_seeed_96x96_flip1_seq, 11
 1453              	u8x8_d_ssd1327_seeed_96x96_flip1_seq:
 1454 0074 18       		.byte	24
 1455 0075 15       		.byte	21
 1456 0076 A2       		.byte	-94
 1457 0077 16       		.byte	22
 1458 0078 60       		.byte	96
 1459 0079 15       		.byte	21
 1460 007a A0       		.byte	-96
 1461 007b 16       		.byte	22
ARM GAS  C:\Users\info\AppData\Local\Temp\ccpgnRHd.s 			page 40


 1462 007c 42       		.byte	66
 1463 007d 19       		.byte	25
 1464 007e FF       		.byte	-1
 1465 007f 00       		.space	1
 1466              		.type	u8x8_ssd1327_ea_w128128_display_info, %object
 1467              		.size	u8x8_ssd1327_ea_w128128_display_info, 24
 1468              	u8x8_ssd1327_ea_w128128_display_info:
 1469 0080 00       		.byte	0
 1470 0081 01       		.byte	1
 1471 0082 14       		.byte	20
 1472 0083 0A       		.byte	10
 1473 0084 64       		.byte	100
 1474 0085 64       		.byte	100
 1475 0086 64       		.byte	100
 1476 0087 64       		.byte	100
 1477 0088 00093D00 		.word	4000000
 1478 008c 00       		.byte	0
 1479 008d 01       		.byte	1
 1480 008e 28       		.byte	40
 1481 008f 3C       		.byte	60
 1482 0090 10       		.byte	16
 1483 0091 10       		.byte	16
 1484 0092 00       		.byte	0
 1485 0093 00       		.byte	0
 1486 0094 8000     		.short	128
 1487 0096 8000     		.short	128
 1488              		.type	u8x8_d_ssd1327_ea_w128128_init_seq, %object
 1489              		.size	u8x8_d_ssd1327_ea_w128128_init_seq, 61
 1490              	u8x8_d_ssd1327_ea_w128128_init_seq:
 1491 0098 18       		.byte	24
 1492 0099 15       		.byte	21
 1493 009a FD       		.byte	-3
 1494 009b 16       		.byte	22
 1495 009c 12       		.byte	18
 1496 009d 15       		.byte	21
 1497 009e AE       		.byte	-82
 1498 009f 15       		.byte	21
 1499 00a0 A8       		.byte	-88
 1500 00a1 16       		.byte	22
 1501 00a2 5F       		.byte	95
 1502 00a3 15       		.byte	21
 1503 00a4 A1       		.byte	-95
 1504 00a5 16       		.byte	22
 1505 00a6 00       		.byte	0
 1506 00a7 15       		.byte	21
 1507 00a8 A2       		.byte	-94
 1508 00a9 16       		.byte	22
 1509 00aa 10       		.byte	16
 1510 00ab 15       		.byte	21
 1511 00ac A0       		.byte	-96
 1512 00ad 16       		.byte	22
 1513 00ae 51       		.byte	81
 1514 00af 15       		.byte	21
 1515 00b0 AB       		.byte	-85
 1516 00b1 16       		.byte	22
 1517 00b2 01       		.byte	1
 1518 00b3 15       		.byte	21
ARM GAS  C:\Users\info\AppData\Local\Temp\ccpgnRHd.s 			page 41


 1519 00b4 81       		.byte	-127
 1520 00b5 16       		.byte	22
 1521 00b6 53       		.byte	83
 1522 00b7 15       		.byte	21
 1523 00b8 B1       		.byte	-79
 1524 00b9 16       		.byte	22
 1525 00ba 51       		.byte	81
 1526 00bb 15       		.byte	21
 1527 00bc B3       		.byte	-77
 1528 00bd 16       		.byte	22
 1529 00be 01       		.byte	1
 1530 00bf 15       		.byte	21
 1531 00c0 B9       		.byte	-71
 1532 00c1 15       		.byte	21
 1533 00c2 BC       		.byte	-68
 1534 00c3 16       		.byte	22
 1535 00c4 08       		.byte	8
 1536 00c5 15       		.byte	21
 1537 00c6 BE       		.byte	-66
 1538 00c7 16       		.byte	22
 1539 00c8 07       		.byte	7
 1540 00c9 15       		.byte	21
 1541 00ca B6       		.byte	-74
 1542 00cb 16       		.byte	22
 1543 00cc 01       		.byte	1
 1544 00cd 15       		.byte	21
 1545 00ce D5       		.byte	-43
 1546 00cf 16       		.byte	22
 1547 00d0 62       		.byte	98
 1548 00d1 15       		.byte	21
 1549 00d2 A4       		.byte	-92
 1550 00d3 19       		.byte	25
 1551 00d4 FF       		.byte	-1
 1552 00d5 000000   		.space	3
 1553              		.type	u8x8_d_ssd1327_ea_w128128_flip0_seq, %object
 1554              		.size	u8x8_d_ssd1327_ea_w128128_flip0_seq, 11
 1555              	u8x8_d_ssd1327_ea_w128128_flip0_seq:
 1556 00d8 18       		.byte	24
 1557 00d9 15       		.byte	21
 1558 00da A2       		.byte	-94
 1559 00db 16       		.byte	22
 1560 00dc 00       		.byte	0
 1561 00dd 15       		.byte	21
 1562 00de A0       		.byte	-96
 1563 00df 16       		.byte	22
 1564 00e0 51       		.byte	81
 1565 00e1 19       		.byte	25
 1566 00e2 FF       		.byte	-1
 1567 00e3 00       		.space	1
 1568              		.type	u8x8_d_ssd1327_ea_w128128_flip1_seq, %object
 1569              		.size	u8x8_d_ssd1327_ea_w128128_flip1_seq, 11
 1570              	u8x8_d_ssd1327_ea_w128128_flip1_seq:
 1571 00e4 18       		.byte	24
 1572 00e5 15       		.byte	21
 1573 00e6 A2       		.byte	-94
 1574 00e7 16       		.byte	22
 1575 00e8 00       		.byte	0
ARM GAS  C:\Users\info\AppData\Local\Temp\ccpgnRHd.s 			page 42


 1576 00e9 15       		.byte	21
 1577 00ea A0       		.byte	-96
 1578 00eb 16       		.byte	22
 1579 00ec 42       		.byte	66
 1580 00ed 19       		.byte	25
 1581 00ee FF       		.byte	-1
 1582 00ef 00       		.space	1
 1583              		.type	u8x8_ssd1327_128x128_display_info, %object
 1584              		.size	u8x8_ssd1327_128x128_display_info, 24
 1585              	u8x8_ssd1327_128x128_display_info:
 1586 00f0 00       		.byte	0
 1587 00f1 01       		.byte	1
 1588 00f2 14       		.byte	20
 1589 00f3 0A       		.byte	10
 1590 00f4 64       		.byte	100
 1591 00f5 64       		.byte	100
 1592 00f6 64       		.byte	100
 1593 00f7 64       		.byte	100
 1594 00f8 00093D00 		.word	4000000
 1595 00fc 00       		.byte	0
 1596 00fd 01       		.byte	1
 1597 00fe 28       		.byte	40
 1598 00ff 3C       		.byte	60
 1599 0100 10       		.byte	16
 1600 0101 10       		.byte	16
 1601 0102 00       		.byte	0
 1602 0103 00       		.byte	0
 1603 0104 8000     		.short	128
 1604 0106 8000     		.short	128
 1605              		.type	u8x8_d_ssd1327_128x128_init_seq, %object
 1606              		.size	u8x8_d_ssd1327_128x128_init_seq, 61
 1607              	u8x8_d_ssd1327_128x128_init_seq:
 1608 0108 18       		.byte	24
 1609 0109 15       		.byte	21
 1610 010a FD       		.byte	-3
 1611 010b 16       		.byte	22
 1612 010c 12       		.byte	18
 1613 010d 15       		.byte	21
 1614 010e AE       		.byte	-82
 1615 010f 15       		.byte	21
 1616 0110 A8       		.byte	-88
 1617 0111 16       		.byte	22
 1618 0112 7F       		.byte	127
 1619 0113 15       		.byte	21
 1620 0114 A1       		.byte	-95
 1621 0115 16       		.byte	22
 1622 0116 00       		.byte	0
 1623 0117 15       		.byte	21
 1624 0118 A2       		.byte	-94
 1625 0119 16       		.byte	22
 1626 011a 00       		.byte	0
 1627 011b 15       		.byte	21
 1628 011c A0       		.byte	-96
 1629 011d 16       		.byte	22
 1630 011e 51       		.byte	81
 1631 011f 15       		.byte	21
 1632 0120 AB       		.byte	-85
ARM GAS  C:\Users\info\AppData\Local\Temp\ccpgnRHd.s 			page 43


 1633 0121 16       		.byte	22
 1634 0122 01       		.byte	1
 1635 0123 15       		.byte	21
 1636 0124 81       		.byte	-127
 1637 0125 16       		.byte	22
 1638 0126 53       		.byte	83
 1639 0127 15       		.byte	21
 1640 0128 B1       		.byte	-79
 1641 0129 16       		.byte	22
 1642 012a 51       		.byte	81
 1643 012b 15       		.byte	21
 1644 012c B3       		.byte	-77
 1645 012d 16       		.byte	22
 1646 012e 01       		.byte	1
 1647 012f 15       		.byte	21
 1648 0130 B9       		.byte	-71
 1649 0131 15       		.byte	21
 1650 0132 BC       		.byte	-68
 1651 0133 16       		.byte	22
 1652 0134 08       		.byte	8
 1653 0135 15       		.byte	21
 1654 0136 BE       		.byte	-66
 1655 0137 16       		.byte	22
 1656 0138 07       		.byte	7
 1657 0139 15       		.byte	21
 1658 013a B6       		.byte	-74
 1659 013b 16       		.byte	22
 1660 013c 01       		.byte	1
 1661 013d 15       		.byte	21
 1662 013e D5       		.byte	-43
 1663 013f 16       		.byte	22
 1664 0140 62       		.byte	98
 1665 0141 15       		.byte	21
 1666 0142 A4       		.byte	-92
 1667 0143 19       		.byte	25
 1668 0144 FF       		.byte	-1
 1669 0145 000000   		.space	3
 1670              		.type	u8x8_d_ssd1327_128x128_flip0_seq, %object
 1671              		.size	u8x8_d_ssd1327_128x128_flip0_seq, 11
 1672              	u8x8_d_ssd1327_128x128_flip0_seq:
 1673 0148 18       		.byte	24
 1674 0149 15       		.byte	21
 1675 014a A2       		.byte	-94
 1676 014b 16       		.byte	22
 1677 014c 00       		.byte	0
 1678 014d 15       		.byte	21
 1679 014e A0       		.byte	-96
 1680 014f 16       		.byte	22
 1681 0150 51       		.byte	81
 1682 0151 19       		.byte	25
 1683 0152 FF       		.byte	-1
 1684 0153 00       		.space	1
 1685              		.type	u8x8_d_ssd1327_128x128_flip1_seq, %object
 1686              		.size	u8x8_d_ssd1327_128x128_flip1_seq, 11
 1687              	u8x8_d_ssd1327_128x128_flip1_seq:
 1688 0154 18       		.byte	24
 1689 0155 15       		.byte	21
ARM GAS  C:\Users\info\AppData\Local\Temp\ccpgnRHd.s 			page 44


 1690 0156 A2       		.byte	-94
 1691 0157 16       		.byte	22
 1692 0158 00       		.byte	0
 1693 0159 15       		.byte	21
 1694 015a A0       		.byte	-96
 1695 015b 16       		.byte	22
 1696 015c 42       		.byte	66
 1697 015d 19       		.byte	25
 1698 015e FF       		.byte	-1
 1699              		.bss
 1700              		.align	2
 1701              		.set	.LANCHOR0,. + 0
 1702              		.type	u8x8_ssd1327_8to32_dest_buf, %object
 1703              		.size	u8x8_ssd1327_8to32_dest_buf, 32
 1704              	u8x8_ssd1327_8to32_dest_buf:
 1705 0000 00000000 		.space	32
 1705      00000000 
 1705      00000000 
 1705      00000000 
 1705      00000000 
 1706              		.text
 1707              	.Letext0:
 1708              		.file 2 "c:\\program files (x86)\\cypress\\psoc creator\\4.2\\psoc creator\\import\\gnu\\arm\\5.4.
 1709              		.file 3 "c:\\program files (x86)\\cypress\\psoc creator\\4.2\\psoc creator\\import\\gnu\\arm\\5.4.
 1710              		.file 4 "..\\u8g2-master\\csrc\\u8x8.h"