ARM GAS  C:\Users\info\AppData\Local\Temp\ccNGFWUn.s 			page 1


   1              		.syntax unified
   2              		.cpu cortex-m3
   3              		.fpu softvfp
   4              		.eabi_attribute 20, 1
   5              		.eabi_attribute 21, 1
   6              		.eabi_attribute 23, 3
   7              		.eabi_attribute 24, 1
   8              		.eabi_attribute 25, 1
   9              		.eabi_attribute 26, 1
  10              		.eabi_attribute 30, 4
  11              		.eabi_attribute 34, 1
  12              		.eabi_attribute 18, 4
  13              		.thumb
  14              		.syntax unified
  15              		.file	"u8x8_message.c"
  16              		.text
  17              	.Ltext0:
  18              		.section	.gnu.lto_.profile.bf14ff5f,"",%progbits
  19 0000 789C6361 		.ascii	"x\234ca`d`c`\000\222K\231&3\002\000\004U\001H"
  19      60646063 
  19      6000924B 
  19      99263302 
  19      00045501 
  20              		.text
  21              		.section	.gnu.lto_.icf.bf14ff5f,"",%progbits
  22 0000 789C6361 		.ascii	"x\234ca`d\000\001^\006\004`b\370z\365\227\021\343\237"
  22      60640001 
  22      5E060460 
  22      62F87AF5 
  22      9711E39F 
  23 0014 235D4B58 		.ascii	"#]KX\030\000-5\005\376"
  23      18002D35 
  23      05FE
  24              		.text
  25              		.section	.gnu.lto_.jmpfuncs.bf14ff5f,"",%progbits
  26 0000 789C754F 		.ascii	"x\234uO\273\015\3020\024|wN\004J\305\000H$s1I*\233\302"
  26      BB0DC230 
  26      147C774E 
  26      044AC500 
  26      48247331 
  27 0018 2D65948E 		.ascii	"-e\224\216\022\030\202\206\001\240\315\016HT\264\221"
  27      12188286 
  27      01A0CD0E 
  27      4854B491 
  28 0028 788E49AC 		.ascii	"x\216I\254H\344\012?\371~\366\313\004\022\260\327a$"
  28      48E40A3F 
  28      F97EF6CB 
  28      0412B0D7 
  28      6124
  29 003a 82922360 		.ascii	"\202\222#`gi\255Y\263\026\001Z\366D\343\357\317\325"
  29      6769AD59 
  29      B316015A 
  29      F644E3EF 
  29      CFD5
  30 004c 87DE680A 		.ascii	"\207\336h\012gl\007w\035\032\240\352\361\360j\362\012"
  30      676C0777 
  30      1D1AA0EA 
ARM GAS  C:\Users\info\AppData\Local\Temp\ccNGFWUn.s 			page 2


  30      F1F06AF2 
  30      0A
  31 005d 27D796DE 		.ascii	"'\327\226\336@\224\351\336\267Ga{\327:\267\361\206\270"
  31      4094E9DE 
  31      B747617B 
  31      D73AB7F1 
  31      86B8
  32 006f A052EB15 		.ascii	"\240R\353\025Vd\250\225T\240\310\206K8\263IL\034u\250"
  32      5664A895 
  32      54A0C886 
  32      4B38B349 
  32      4C1C75A8 
  33 0083 11E96F34 		.ascii	"\021\351o4\305\344\033\253\202\363?\313\310\316D\304"
  33      C5E41BAB 
  33      82F33FCB 
  33      C8CE44C4 
  34 0093 2566318C 		.ascii	"%f1\214\213\305\250YT\270\250 =\307\330\300\337\222"
  34      8BC5A859 
  34      54B8A820 
  34      3DC7D8C0 
  34      DF92
  35 00a5 2CE50B81 		.ascii	",\345\013\201\267)\263"
  35      B729B3
  36              		.text
  37              		.section	.gnu.lto_.inline.bf14ff5f,"",%progbits
  38 0000 789C554E 		.ascii	"x\234UN\253\016\302@\020\234\335\273\366 \264\271\342"
  38      AB0EC240 
  38      109CDDBB 
  38      F620B4B9 
  38      E2
  39 0011 49534382 		.ascii	"ISC\202\346\003\360\230\373\020\360x\004\002w\212\244"
  39      E603F098 
  39      FB10F078 
  39      0402778A 
  39      A4
  40 0022 1A81E203 		.ascii	"\032\201\342\003p\024\213\3004AU\342I\300 H\350\265"
  40      70148BC0 
  40      344155E2 
  40      49C02048 
  40      E8B5
  41 0034 0D69C7CC 		.ascii	"\015i\307\314c7\223\221 8D5U``z\365\011<\336\0375\372"
  41      63379391 
  41      20384435 
  41      5560607A 
  41      F5093CDE 
  42 004b DB15BBD4 		.ascii	"\333\025\273\324\327\004Y(k\012\325\326\326\310\260"
  42      D7045928 
  42      6B0AD5D6 
  42      D6C8B0
  43 005a 7C75B212 		.ascii	"|u\262\022\235D\004\000YCx\340#Hp\262\3742\3556\227"
  43      9D440400 
  43      594378E0 
  43      234870B2 
  43      FC32ED36 
  44 006f 9B7AF346 		.ascii	"\233z\363F\010\002\035h\004N\026\015\227#\274\371\375"
  44      08021D68 
  44      044E160D 
ARM GAS  C:\Users\info\AppData\Local\Temp\ccNGFWUn.s 			page 3


  44      9723BCF9 
  44      FD
  45 0080 354498AD 		.ascii	"5D\230\255\211\321;\317\"\250l\"A'O\376Wxi\234\306\326"
  45      89D13BCF 
  45      22A86C22 
  45      41274FFE 
  45      5778699C 
  46 0096 5893C695 		.ascii	"X\223\306\225\315u\256\235\315\265\010\312\312\247\257"
  46      CD75AE9D 
  46      CDB508CA 
  46      CAA7AF
  47 00a5 A2B2C725 		.ascii	"\242\262\307%\326\300\232\306\241\016|\015\331\262\335"
  47      D6C09AC6 
  47      A10E7C0D 
  47      D9B2DD
  48 00b4 230FAABD 		.ascii	"#\017\252\275\315\354\206\360\003b\023;C"
  48      CDEC86F0 
  48      0362133B 
  48      43
  49              		.text
  50              		.section	.gnu.lto_.pureconst.bf14ff5f,"",%progbits
  51 0000 789C6361 		.ascii	"x\234ca`d`e```b\220b\224\002\000\000\355\000B"
  51      60646065 
  51      60606062 
  51      90629402 
  51      0000ED00 
  52              		.text
  53              		.section	.gnu.lto_u8x8_draw_button_line.bf14ff5f,"",%progbits
  54 0000 789C8D55 		.ascii	"x\234\215Umo\024U\024\276\347\336\231\235\335\331\351"
  54      6D6F1455 
  54      14BEE7DE 
  54      999DDDD9 
  54      E9
  55 0011 96B7C286 		.ascii	"\226\267\302\206\264\270M\272\255|\220\027\321\204\304"
  55      B4B84DBA 
  55      AD7C9017 
  55      D184C4
  56 0020 0F6AFC05 		.ascii	"\017j\374\005\372YBHm\010\211Hl!\302\247\016\335n\251"
  56      FA594248 
  56      6D088948 
  56      6C21C2A7 
  56      0EDD6EA9 
  57 0034 DA10F0A5 		.ascii	"\332\020\360\245\324\212Y\023D^\004\332\002\245\024"
  57      D48A5913 
  57      445E04DA 
  57      02A514
  58 0043 0A0E856E 		.ascii	"\012\016\205n\221B\201@\202B1R\0114(\330\022Lc\002\254"
  58      91428140 
  58      82423152 
  58      093428D8 
  58      124C6302 
  59 0058 E79C3BBB 		.ascii	"\347\234;\273,\264$L2\263\367\236y\236s\236s\3569\263"
  59      2CB4244C 
  59      32B3F79E 
  59      799E739E 
  59      73EE39B3 
  60 006c 860041D7 		.ascii	"\206\000A\327\177A!\336\301\3376\274\241@\200\3344("
ARM GAS  C:\Users\info\AppData\Local\Temp\ccNGFWUn.s 			page 4


  60      7F4121DE 
  60      C1DF36BC 
  60      A14080DC 
  60      3428
  61 007e C4FAA004 		.ascii	"\304\372\240\004C/\224^\234\010\032R5\365\013\341\332"
  61      432F945E 
  61      9C081A52 
  61      35F50BE1 
  61      DA
  62 008f 66BD255C 		.ascii	"f\275%\\\307\224\201\306\012\334Y\364t\002`i\270\005"
  62      C79481C6 
  62      0ADC59F4 
  62      74026069 
  62      B805
  63 00a1 61BD08CA 		.ascii	"a\275\010\312\220\304\327\366F\334\271N\010lm\266\365"
  63      90C4D7F6 
  63      46DCB94E 
  63      086C6DB6 
  63      F5
  64 00b2 FB13C1B0 		.ascii	"\373\023\301\260\014jw\016\273s\000\310\356\006A\324"
  64      0C6A770E 
  64      BB7300C8 
  64      EE0641D4 
  65 00c2 4A659801 		.ascii	"Je\230\001+\030\262\303\016\324*C\200g@F\253\015\347"
  65      2B18B2C3 
  65      0ED42A43 
  65      80674046 
  65      AB0DE7
  66 00d5 6FFE958F 		.ascii	"o\376\225\217$\014\214\237n\262\347\356p\335:\367\217"
  66      240C8C9F 
  66      6EB2E7EE 
  66      70DD3AF7 
  66      8F
  67 00e6 BE4BCE96 		.ascii	"\276K\316\226\235\036$\225\020\031)`Q1,(\246\264v\300"
  67      9D1E2495 
  67      10192960 
  67      51312C28 
  67      A6B476C0 
  68 00fa 5C445EAC 		.ascii	"\\D^\254o\337\252\036\310\244\0020p;v\256\365\317\010"
  68      6FDFAA1E 
  68      C8A40230 
  68      703B76AE 
  68      F5CF08
  69 010d 6D25C470 		.ascii	"m%\304p\373\375\345mC\001\365\022\010\\7\237\271|\257"
  69      FBFDE56D 
  69      4301F512 
  69      085C379F 
  69      B97CAF
  70 0120 A0623BF9 		.ascii	"\240b;\371tSUn(\251\024\354\006E>wA1\354\204b\201&\001"
  70      7453556E 
  70      28A914EC 
  70      06453E77 
  70      4131EC84 
  71 0138 3F4105A2 		.ascii	"?A\005\242{>\033x\030Te\314\374\364jz4\3403\257-q\025"
  71      7B3E1B78 
  71      185465CC 
  71      FCF46A7A 
ARM GAS  C:\Users\info\AppData\Local\Temp\ccNGFWUn.s 			page 5


  71      34E033AF 
  72 014f 4A813D9A 		.ascii	"J\201=\232\251\325\2206\330\313\274\337.\264\177\036"
  72      A9D59036 
  72      D8CBBCDF 
  72      2EB47F1E 
  73 015f 51E5CC3B 		.ascii	"Q\345\314;\274\351\233\326l\304\315\351\260\273\200"
  73      BCE99BD6 
  73      6CC4CDE9 
  73      B0BB80
  74 016e 88FB2610 		.ascii	"\210\373&\020\333\230\270\347\362\027\233\035\3652\023"
  74      DB98B8E7 
  74      F2179B1D 
  74      F53213
  75 017d 7FB87B3D 		.ascii	"\177\270{=\035\364\211]Yb\373\004b\007\023{\323\337"
  75      1DF4895D 
  75      5962FB04 
  75      6207137B 
  75      D3DF
  76 018f B6596A3E 		.ascii	"\266Yj>\023\217\\\275\271+\344\0233i\307\335\204e3`"
  76      138F5CBD 
  76      B92BE413 
  76      3369C7DD 
  76      84653360 
  77 01a3 FFB35962 		.ascii	"\377\263Yb\365\017@\005\021Z\217l\250\263\325B&'\016"
  77      F50F4005 
  77      115A8F6C 
  77      A8B3D542 
  77      26270E
  78 01b6 5F395A18 		.ascii	"_9Z\030\337Fd\257{\345\026\327[\037\243\270\007\363"
  78      DF4664AF 
  78      7BE516D7 
  78      5B1FA3B8 
  78      07F3
  79 01c8 E3D285D0 		.ascii	"\343\322\205\320\221+\273\272M\265\210i\327\207R=\266"
  79      912BBBBA 
  79      4DB58869 
  79      D787523D 
  79      B6
  80 01d9 4F3BB4C4 		.ascii	"O;\264\304M\274E\244C\223\220\036\336\030i\014\252\327"
  80      4DBC45A4 
  80      4393901E 
  80      DE18690C 
  80      AAD7
  81 01eb 9934B8FB 		.ascii	"\2314\270\373\307.\307'\035\314\222\016OB\352j}\354"
  81      C72EC727 
  81      1DCC920E 
  81      4F42EA6A 
  81      7DEC
  82 01fd 19EA0D26 		.ascii	"\031\352\015&\355\336{\347\266\341\223\366gIG&!m\037"
  82      EDDE7BE7 
  82      B6E193F6 
  82      67494726 
  82      216D1F
  83 0210 38793CA2 		.ascii	"8y<\242\336\324\265\034N}\245|R{\226\3243\011i\270\343"
  83      DED4B51C 
  83      4E7DA57C 
  83      527B96D4 
ARM GAS  C:\Users\info\AppData\Local\Temp\ccNGFWUn.s 			page 6


  83      330969B8 
  84 0225 F1D70581 		.ascii	"\361\327\005\201z\027\257\030\034\2038\034\305\273\033"
  84      7A17AF18 
  84      1C83381C 
  84      C5BB1B
  85 0234 EF2EBC3B 		.ascii	"\357.\274;!N\335\207E?\016\001lTs2D\333{\236\233\311"
  85      214EDD87 
  85      453F0E01 
  85      6C547332 
  85      44DB7B9E 
  86 024a 245C2F65 		.ascii	"$\\/e>r*@\020F\362\023C\"\016\313\216(\223\2376\320"
  86      3E722A40 
  86      1046F213 
  86      43220ECB 
  86      8E28939F 
  87 0260 1138827C 		.ascii	"\0218\202|D\350H\012\201:o*.\315i\214\236\316\314\031"
  87      44E8480A 
  87      813A6F2A 
  87      2ECD698C 
  87      9ECECC19 
  88 0274 642862C3 		.ascii	"d(b\303L\240V\231%(\\\224\235\314\006\352\201\022\242"
  88      4CA05699 
  88      25285C94 
  88      9DCC06EA 
  88      8112A2
  89 0287 CF016AC0 		.ascii	"\317\001j\300\030\241K\371]\031-\343\274,gOB\214b\002"
  89      18A14BF9 
  89      5D192DE3 
  89      BC2C674F 
  89      428C6202 
  90 029b 38976352 		.ascii	"8\227cR\342\217\032\201z\357h\011\345\223P\016\346\337"
  90      E28F1A81 
  90      7AEF6809 
  90      E593500E 
  90      E6DF
  91 02ad DDFDF735 		.ascii	"\335\375\3675\253\366\221\333\350\272S\222*\220\221"
  91      ABF691DB 
  91      E8BA5392 
  91      2A9091
  92 02bc 9826FC0C 		.ascii	"\230&\374\014\265\"\241\354\244\262\3040HN\036\005#"
  92      B522A1EC 
  92      A4B2C430 
  92      484E1E05 
  92      23
  93 02cd 01B775DE 		.ascii	"\001\267u\336\305*\266\2406\232\257d\357y\213F\017\277"
  93      C52AB6A0 
  93      369AAF64 
  93      EF798B46 
  93      0FBF
  94 02df 41E0619F 		.ascii	"A\340a\237\021\342\322\012FP\261\310$0\270\022\370\211"
  94      11E2D20A 
  94      4650B1C8 
  94      2430B812 
  94      F889
  95 02f1 C0E849EF 		.ascii	"\300\350I\357\312:\035=2!z0\203\032\005\234\340\350"
  95      CA3A1D3D 
  95      32217A30 
ARM GAS  C:\Users\info\AppData\Local\Temp\ccNGFWUn.s 			page 7


  95      831A059C 
  95      E0E8
  96 0303 C0024262 		.ascii	"\300\002Bb\004L\215\237:\001og$\015D/\343\013\321cR"
  96      044C8D9F 
  96      3A016F67 
  96      240D442F 
  96      E30BD163 
  97 0318 85C52D48 		.ascii	"\205\305-H47\014\201\346LK(\205\314\\\026\335\224\305"
  97      34370C81 
  97      E64C4B28 
  97      85CC5C16 
  97      DD94C5
  98 032b 348D196C 		.ascii	"4\215\031l\2664h:\006C\337\235\033\316v\330:\023\200"
  98      B634683A 
  98      0643DF9D 
  98      1BCE76D8 
  98      3A1380
  99 033e 939C89CC 		.ascii	"\223\234\211\314\246\201 \316\302\020\370eS\230\342"
  99      A68120CE 
  99      C210F865 
  99      5398E2
 100 034d 14A17D29 		.ascii	"\024\241})\2417\214\001q\003\352\007\023\021\355\026"
 100      A1378C01 
 100      7103EA07 
 100      1311ED16 
 101 035d A85E78DD 		.ascii	"\250^x\335GwX\005\271\023\225LW-\326}P\274o\332K\002"
 101      47775805 
 101      B913954C 
 101      572DD67D 
 101      50BC6FDA 
 102 0373 55CFDD00 		.ascii	"U\317\335\000:6\351lX\326\275f\245\3713X\273\303b\003"
 102      3A36E96C 
 102      58D6BD66 
 102      A5F93358 
 102      BBC36203 
 103 0387 DA548456 		.ascii	"\332T\204VTz)q\352\274\322J3\000\247\362\244\262\246"
 103      547A2971 
 103      EABCD24A 
 103      3300A7F2 
 103      A4B2A6
 104 039a 223E83B1 		.ascii	"\">\203\261\"\266t\371g\300\312n/\312\371\231\311\003"
 104      22B674F9 
 104      67C0CA6E 
 104      2FCAF999 
 104      C903
 105 03ac 302603A2 		.ascii	"0&\003\242WQB\336xI\026O/1hK\303\260_\240Yh\321n\345"
 105      575142DE 
 105      7849164F 
 105      2F31684B 
 105      C3B05FA0 
 106 03c5 13CC2CC2 		.ascii	"\023\314,\302\2647\334\3611Q\264\240\264\276\314\270"
 106      B437DCF1 
 106      3151B4A0 
 106      B4BECCB8 
 107 03d5 5748D24C 		.ascii	"WH\322L\304\366\345)cN\224CZ\224\253.\033[\015\326\373"
 107      C4F6E529 
 107      634E9443 
ARM GAS  C:\Users\info\AppData\Local\Temp\ccNGFWUn.s 			page 8


 107      5A94AB2E 
 107      1B5B0DD6 
 108 03ea 655A033B 		.ascii	"eZ\003;\265\351\026\324=h\357[H\246\374.S<\335\343\375"
 108      B5E916D4 
 108      3D68EF5B 
 108      48A6FC2E 
 108      533CDDE3 
 109 03ff 671A9D14 		.ascii	"g\032\235\024|\207\3379\007O\036\322\324d\364\005\270"
 109      7C87DF39 
 109      074F1ED2 
 109      D464F405 
 109      B8
 110 0410 59B7CF9A 		.ascii	"Y\267\317\232\377\012\025\246\037R\360\230FW\300i\230"
 110      FF0A15A6 
 110      1F52F098 
 110      4657C069 
 110      98
 111 0421 9FEBCC2D 		.ascii	"\237\353\314-\015\005O\267\346}0ha6\265\341yE\003C\377"
 111      0D054FB7 
 111      E67D3068 
 111      6136B5E1 
 111      79450343 
 112 0436 002A0C72 		.ascii	"\000*\014r\263b\311\256&\272\232\242:A\231P\263\375"
 112      B362C9AE 
 112      26BA9AA2 
 112      3A419950 
 112      B3FD
 113 0448 9A858454 		.ascii	"\232\205\204T\254\257\377c_\337\013\010\372\345\211"
 113      ACAFFF63 
 113      5FDF0B08 
 113      FAE589
 114 0457 A03328E8 		.ascii	"\2403(\350\244?\027vn.:\032\034\035\251\344y\2031\300"
 114      A43F1776 
 114      6E2E3A1A 
 114      1C1DA9E4 
 114      798331C0 
 115 046b 8D2E7383 		.ascii	"\215.s\203\341\227>6\001_\220\301N\025p6;\030fB\315"
 115      E1973E36 
 115      015F90C1 
 115      4E157036 
 115      3B186642 
 116 0480 41BF4915 		.ascii	"A\277I\025\321\255\377\232&\226\362\233X\356\214\270"
 116      D1ADFF9A 
 116      2696F29B 
 116      58EE8CB8 
 117 0490 F4A55CFA 		.ascii	"\364\245\\\372\321\263\357\276xj\347\236\2446\350\327"
 117      D1B3EFBE 
 117      786AE79E 
 117      A436E8D7 
 118 04a0 7A043678 		.ascii	"z\0046x\235\331\204\312\236'\360|V *\231\203\240\215"
 118      9DD984CA 
 118      9E27F07C 
 118      56202A99 
 118      83A08D
 119 04b3 EBFF6A36 		.ascii	"\353\377j6K\337N\271-\370\037THQ~\275wl\320FZ4\251\246"
 119      4BDF4EB9 
 119      2DF81F54 
ARM GAS  C:\Users\info\AppData\Local\Temp\ccNGFWUn.s 			page 9


 119      48517EBD 
 119      776CD046 
 120 04cb C0052825 		.ascii	"\300\005(%\207\002.B\355\263\271\304\331I\331\323\271"
 120      87022E42 
 120      EDB3B9C4 
 120      D949D9D3 
 120      B9
 121 04dc C435E4F7 		.ascii	"\3045\344\367\226j\015*\307\352M\034\355r>\210p\336"
 121      966A0D2A 
 121      C7EA4D1C 
 121      ED723E88 
 121      70DE
 122 04ee 6833D9CC 		.ascii	"h3\331\314\037m\371\324h\313\334hK\312\326\242\321."
 122      1F6DF9D4 
 122      68CBDC68 
 122      4BCAD6A2 
 122      D12E
 123 0500 B769B4B1 		.ascii	"\267i\264\261\236\206\265\265\003g7n\3579\020E\277\016"
 123      9E86B5B5 
 123      0367376E 
 123      EF391045 
 123      BF0E
 124 0512 75FB1D6C 		.ascii	"u\373\035l\275c\272\365|\352(~h\353-,Z\361\274y\357"
 124      BD63BAF5 
 124      7CEA287E 
 124      68EB2D2C 
 124      5AF1BC79 
 125 0527 AF59BCFC 		.ascii	"\257Y\274\374\325\245\2255\325\225\270Z\273x\351\312"
 125      D5A59535 
 125      D595B85A 
 125      BB78E9CA 
 126 0537 AA9A9A65 		.ascii	"\252\232\232e\313\253\346U\012\203\366\260\016>\011"
 126      CBABE655 
 126      0A83F6B0 
 126      0E3E09
 127 0546 54AEA9AE 		.ascii	"T\256\251\256YU\0155\260\026>0W\257Z\275\354CU\371\321"
 127      59550D35 
 127      B0163E30 
 127      57AF5ABD 
 127      EC4355F9 
 128 055b 6A582163 		.ascii	"jX!c\342\177\271\363\315*"
 128      E27FB9F3 
 128      CD2A
 129              		.text
 130              		.section	.gnu.lto_u8x8_UserInterfaceMessage.bf14ff5f,"",%progbits
 131 0000 789C8D57 		.ascii	"x\234\215WmPT\327\031>\357=\273w\277\331]\276\215\304"
 131      6D5054D7 
 131      193EEF3D 
 131      BB77BFD9 
 131      5DBE8DC4 
 132 0014 0F4449FC 		.ascii	"\017DI\374@\004\255X\363'\277\332\277\315\277N3\343"
 132      4004AD58 
 132      F327BFDA 
 132      BFCDBF4E 
 132      33E3
 133 0026 A494D1CC 		.ascii	"\244\224\321\314\244\246#\330I\177ye\305\330\214M5\305"
 133      A4A623D8 
ARM GAS  C:\Users\info\AppData\Local\Temp\ccNGFWUn.s 			page 10


 133      497F7965 
 133      C5D88C4D 
 133      35C5
 134 0038 8FA6A668 		.ascii	"\217\246\246h\034GI1@\023\203\250\010\022\005E\002\022"
 134      1C474931 
 134      401383A8 
 134      08120545 
 134      0212
 135 004a C096686C 		.ascii	"\300\226hl JL\202\326E\2431Q\267\357\373\236\273{\227"
 135      204A4C82 
 135      D645A331 
 135      51B7EFFB 
 135      9EBB7B97 
 136 005e 6599B233 		.ascii	"e\231\2623{\367\236s\236\347=\347}\336\347\234{\327"
 136      7BF79E73 
 136      9EE73DE7 
 136      7DDEE79C 
 136      7BD7
 137 0070 2640D0E7 		.ascii	"&@\320\347\202_\210\227\360\267\000\233\220-@\333\321"
 137      825F8897 
 137      F0B7009B 
 137      902D40DB 
 137      D1
 138 0081 23C466A7 		.ascii	"#\304f\247\246\311\017\333\2050\334\266\253\036ax%\330"
 138      A6C90FDB 
 138      8530DCB6 
 138      AB1E6178 
 138      25D8
 139 0093 54BF4DB3 		.ascii	"T\277M\263o\313\307n\235\256^;\350\252[\327\034\235"
 139      6FCBC76E 
 139      9DAE5E3B 
 139      E8AA5BD7 
 139      1C9D
 140 00a5 3FC16EE7 		.ascii	"?\301n\347\205,\354v\200Su;\301\255n\\\352\346y\267"
 140      852CEC76 
 140      8053753B 
 140      C1AD6E5C 
 140      EAE679B7 
 141 00b9 E6699788 		.ascii	"\346i\227\210\363\366tap\257\007\262\324\270W\313\342"
 141      F3F67461 
 141      70AF07B2 
 141      D4B857CB 
 141      E2
 142 00ca 7E9FEAF7 		.ascii	"~\237\352\367i\376;\031\330L\331_\202\255\024\263\225"
 142      69FE3B19 
 142      D84CD95F 
 142      82AD14B3 
 142      95
 143 00db CA2DBF16 		.ascii	"\312-\277\026\340\025\004y\005\001\010\252\010Ap\251"
 143      E0150479 
 143      050108AA 
 143      084170A9 
 144 00eb 9B542D9D 		.ascii	"\233T-\235\321i\214N3[.n\245k\031\314\315dn\006d*Jf"
 144      D1698C4E 
 144      335B2E6E 
 144      A56B19CC 
 144      CD646E06 
ARM GAS  C:\Users\info\AppData\Local\Temp\ccNGFWUn.s 			page 11


 145 0103 949B0540 		.ascii	"\224\233\005@7\206\023\304&M\332\354\272\303\351r{\274"
 145      378613C4 
 145      264DDAEC 
 145      BAC3E972 
 145      7BBC
 146 0115 BE147F20 		.ascii	"\276\024\177 \230\232\226\236\221\231\005\2334\267P"
 146      989A969E 
 146      9199059B 
 146      34B750
 147 0124 9FEFB4C7 		.ascii	"\237\357\264\307\032\\|p~\273\373\331\303\206Qi|Qu\373"
 147      1A5C7C70 
 147      7EBBFBD9 
 147      C3865169 
 147      7C5175FB 
 148 0138 E7E1CAAA 		.ascii	"\347\341\312\252\354*)DD\023P\234\003\2059\210\203\303"
 148      EC2A2944 
 148      4413509C 
 148      03853988 
 148      83C3
 149 014a F02C22FB 		.ascii	"\360,\"\373\2664\354\223\367\264*\011`\303f\370\223"
 149      B634EC93 
 149      F7B42A09 
 149      60C366F8 
 149      93
 150 015b B7BF4CA1 		.ascii	"\267\277L\241\246\006s\260\271\177\340\340U]\316\006"
 150      A60673B0 
 150      B97FE0E0 
 150      555DCE06 
 151 016b 81F7BBBB 		.ascii	"\201\367\273\273\006n\373\362\017QL\243\251\314pUI\011"
 151      066EFBF2 
 151      0F514CA3 
 151      A9CC7055 
 151      4909
 152 017d EF81A498 		.ascii	"\357\201\244\230\265\220\003G G`\227\200\177@>\242\033"
 152      B5900347 
 152      20476097 
 152      807F403E 
 152      A21B
 153 018f 8D8F8EBA 		.ascii	"\215\217\216\272d\0363\277\352\331m3\211?2\321\006u"
 153      641E33BF 
 153      EAD96D33 
 153      893F32D1 
 153      0675
 154 01a1 89449B80 		.ascii	"\211D\233\200\243L\014}\336\024q\313EL<]\373\307\253"
 154      A34C0C7D 
 154      DE1471CB 
 154      454C3C5D 
 154      FBC7AB
 155 01b4 4E93D9DF 		.ascii	"N\223\331\337\3415v\000q\337O\302\255gnS\370\355\022"
 155      E1357600 
 155      71DF4FC2 
 155      AD676E53 
 155      F8ED12
 156 01c7 59C4D4AE 		.ascii	"Y\304\324\256\353Cg\\&\365o\235QjC\022j#S\253\267\326"
 156      EB43675C 
 156      26F56F9D 
 156      516A4312 
ARM GAS  C:\Users\info\AppData\Local\Temp\ccNGFWUn.s 			page 12


 156      6A2353AB 
 157 01dd 1F05B98A 		.ascii	"\037\005\271\212\271C\007\302\267<&\367n\214\373\317"
 157      B94307C2 
 157      B73C26F7 
 157      6E8CFBCF 
 158 01ed 24DC0F20 		.ascii	"$\334\017 \237\010{7?\256I\221\3173\271\267o\373\273"
 158      9F087B37 
 158      3FAE4991 
 158      CF33B9B7 
 158      6FFBBB
 159 0200 AEF90789 		.ascii	"\256\371\007\211\334\366\270\303\267\307h\333<\007\265"
 159      DCF6B8C3 
 159      B7C768DB 
 159      3C07B5
 160 020f 870F153D 		.ascii	"\207\017\025=*\277 \354\241\235\177:\344\224?c\336\375"
 160      2ABF20EC 
 160      A19D7F3A 
 160      E4943F63 
 160      DEFD
 161 0221 875F573B 		.ascii	"\207_W;L\336\017\035\036\243\301p\022\355\243$\264\272"
 161      4CDE0F1D 
 161      1EA3C170 
 161      12EDA324 
 161      B4BA
 162 0233 81B7767A 		.ascii	"\201\267vz\345\013L\273\321\366\361e\273I\373\336\242"
 162      E50B4CBB 
 162      D1F6F165 
 162      BB49FBDE 
 162      A2
 163 0244 1D4F423B 		.ascii	"\035OB;\365\306\305GN\371K\246\275ynG\232\311\272o\261"
 163      F5C6C547 
 163      4EF94BA6 
 163      BD796E47 
 163      9AC9BA6F 
 164 0259 4E24619D 		.ascii	"N$a\235?<\376\006\310_1\253\365\341\266<\223u\317b\235"
 164      3F3CFE06 
 164      C85F31AB 
 164      F5E1B63C 
 164      9375CF62 
 165 026e 4AC21A69 		.ascii	"J\302\032i|\262\313\247o1\3603\007Z`>\234\304o3~\233"
 165      7CB2CBA7 
 165      6F31F033 
 165      075A603E 
 165      9CC46F33 
 166 0284 F07B0CE6 		.ascii	"\360{\014\346\223\025\321\203\247A\307\015n\233\200"
 166      9315D183 
 166      A741C70D 
 166      6E9B80
 167 0293 C0D1FA17 		.ascii	"\300\321\372\027\332\214H$d\264\335\325\317\\s?\007"
 167      DA8C4824 
 167      64B4DDD5 
 167      CF5C733F 
 167      07
 168 02a4 82003805 		.ascii	"\202\0008\005B$_Qz\204\332\371\252\363\325\201\005\021"
 168      42245F51 
 168      7A84DAF9 
 168      AAF3D581 
ARM GAS  C:\Users\info\AppData\Local\Temp\ccNGFWUn.s 			page 13


 168      0511
 169 02b6 1E20F7F9 		.ascii	"\036 \367\371\200\254\344\307\016{\200\231A \177\244"
 169      80ACE4C7 
 169      0E7B8099 
 169      41207FA4 
 170 02c6 F27D1A50 		.ascii	"\362}\032P\3013h0\223;\262\360V\317\246\366\014\016"
 170      C1336830 
 170      933BB2F0 
 170      56CFA6F6 
 170      0C0E
 171 02d8 349327C8 		.ascii	"4\223'\310\341\353,\032\233Mcs\351\222\313\235\363\250"
 171      E1EB2C1A 
 171      9B4D6373 
 171      E992CB9D 
 171      F3A8
 172 02ea 338FDA0B 		.ascii	"3\217\332\013\270\235O\355g\250\275\220.\213\270s1u"
 172      B89D4FED 
 172      67A8BD90 
 172      2E8BB873 
 172      3175
 173 02fc 2EA17601 		.ascii	".\241v\001\220K\0129v\221\240\354\212\371~9!V\020b%"
 173      904B0A39 
 173      7691A0EC 
 173      8AF97E39 
 173      21561062 
 174 0311 B74BA8BD 		.ascii	"\267K\250\275\212\332\253)\025!\356\240Bwt\021\3264"
 174      8ADAAB29 
 174      1521EEA0 
 174      42777411 
 174      D634
 175 0323 FC912350 		.ascii	"\374\221#P\331\366\260\303\307\212!\232\366cU{\257\203"
 175      D9F6B0C3 
 175      C78A219A 
 175      F663557B 
 175      AF83
 176 0335 B62A1E99 		.ascii	"\266*\036\231\320\212\216\034\205\312{\015\327\227\021"
 176      D08A8E1C 
 176      85CA7B0D 
 176      D79711
 177 0344 247E5872 		.ascii	"$~Xr\351\036tvm\363\326\300;heGHz\240\015\011l\301\353"
 177      E91E7476 
 177      6DF3D6C0 
 177      3B686547 
 177      487AA00D 
 178 035c 95EF3B96 		.ascii	"\225\357;\226.\241(g\240\006\236PY\004\264\303R\016"
 178      2EA12867 
 178      A0069E50 
 178      5904B4C3 
 178      520E
 179 036e 49B3EE79 		.ascii	"I\263\356y]\315\332\302\263\036{\275\273\321\255f\005"
 179      5DCDDAC2 
 179      B31E7BBD 
 179      BBD1AD66 
 179      05
 180 037f F8182137 		.ascii	"\370\030!7aK\333_;S\010\022\222~D47\217]qlzll3\214@"
 180      614BDB5F 
 180      3B530812 
ARM GAS  C:\Users\info\AppData\Local\Temp\ccNGFWUn.s 			page 14


 180      927E4434 
 180      378F5D71 
 181 039a 95744634 		.ascii	"\225tF4:\302\317\302&\021\222\276*\351\302e\206vo\035"
 181      3AC2CFC2 
 181      261192BE 
 181      2AE9C265 
 181      86766F1D 
 182 03ae 00450820 		.ascii	"\000E\010 \207\303\214\200\026\235\005{\3050l\271\022"
 182      87C38C80 
 182      169D057B 
 182      C5306CB9 
 182      12
 183 03bf 6A7A5357 		.ascii	"jzSW\250`|>6L\367\034(\247\2055)\306\354\222C\336\337"
 183      A8607C3E 
 183      364CF71C 
 183      28A78535 
 183      29C6EC92 
 184 03d6 57A2D0A9 		.ascii	"W\242\320\251j\035\247j\266\327\232+\325\240#q\212T"
 184      6A1DA76A 
 184      B6D79A2B 
 184      D5A02371 
 184      8A54
 185 03e8 66DB4C69 		.ascii	"f\333Li\225OB(\025\245S\023M'c\252t:9\235\264I\351d"
 185      954F4228 
 185      15A55313 
 185      4D2763AA 
 185      743A399D 
 186 0400 6208A44D 		.ascii	"b\010\244M\234*\223e<\326\251\272\310\346f\265N\204"
 186      9C2A9365 
 186      3CD6A9BA 
 186      C8E666B5 
 186      4E84
 187 0412 6FEDB42B 		.ascii	"o\355\264+b\326tJ\244\303y.\021=\"\341\002,\345\030"
 187      62D6744A 
 187      A4C3792E 
 187      113D22E1 
 187      022CE518 
 188 0426 E6CCD9F1 		.ascii	"\346\314\331\361\022\351\211%w\343\014\320e\306\373"
 188      12E98925 
 188      77E30CD0 
 188      65C6FB
 189 0435 FBDEE377 		.ascii	"\373\336\343wS\226\036\245t<p\221#\362f\354\306\210"
 189      53961EA5 
 189      743C7091 
 189      23F266EC 
 189      C688
 190 0447 A87B4FE8 		.ascii	"\250{O\350\251X2\331$\3628`N\001\255\273y\035\312&\307"
 190      A95832D9 
 190      24F23860 
 190      4E01ADBB 
 190      791DCA26 
 191 045c 9A7F87C2 		.ascii	"\232\177\207\302\331\305q\311\236<\331)\243i\021\034"
 191      D9C571C9 
 191      9E3CD929 
 191      A369111C 
 192 046c D5D8BB75 		.ascii	"\325\330\273u\374i\025`&\366\250\3645\0133\2230\015"
 192      FC691560 
ARM GAS  C:\Users\info\AppData\Local\Temp\ccNGFWUn.s 			page 15


 192      26F6A8F4 
 192      350B3393 
 192      300D
 193 047e 5B7F3031 		.ascii	"[\177019\330\203k:\027y\320\346\247\245\333\021\373"
 193      39D8836B 
 193      3A1779D0 
 193      E6A7A5DB 
 193      11FB
 194 0490 495CB198 		.ascii	"I\\\261\230\223\303\305\322\255bq\257\306\305\032\352"
 194      93C3C5D2 
 194      AD6271AF 
 194      C6C51AEA 
 195 04a0 6405C4A4 		.ascii	"d\005\304\244Ry#\224\026\364p\251<U\322\307r5>\010\273"
 195      52792394 
 195      16F470A9 
 195      3C55D2C7 
 195      72353E08 
 196 04b5 D4CCB3A6 		.ascii	"\324\314\263\246'y\257%\371%S\362\003^\025av\\\204\315"
 196      2779AF25 
 196      F92553F2 
 196      035E1561 
 196      765C84CD 
 197 04c9 74D4D580 		.ascii	"t\324\325\200`\255gM\322z\007\216.#\275\3738\034\355"
 197      60AD674D 
 197      D27A078E 
 197      2E23BDFB 
 197      381CED
 198 04dc 6FF814C3 		.ascii	"o\370\024\303\335\204l\025k\356\244\365\247D\010\006"
 198      DD846C15 
 198      6BEEA4F5 
 198      A7440806 
 199 04ec FD6AFDE4 		.ascii	"\375j\375\344\031L\031'\345m\344W\276[\254\310\271<"
 199      194C1927 
 199      E56DE457 
 199      BE5BACC8 
 199      B93C
 200 04fe 3277A268 		.ascii	"2w\242h\271j\023\265\3769\272\211\242\273f\034Q\030"
 200      B96A13B5 
 200      FE39BA89 
 200      A2BB661C 
 200      5118
 201 0510 CD567732 		.ascii	"\315Vw2\035\245\265?:\231\203\342:\304\250M\262'\037"
 201      1DA5B53F 
 201      3A9983E2 
 201      3AC4A84D 
 201      B2271F
 202 0523 359A02CD 		.ascii	"5\232\002\315\233\236@\003\226@\203\246@\303\232\212"
 202      9B9E4003 
 202      964083A6 
 202      40C39A8A 
 203 0533 909728D0 		.ascii	"\220\227(\320\036S\240yI\005\362\220@\227-\201\376e"
 203      1E53A079 
 203      4905F290 
 203      40972D81 
 203      FE65
 204 0545 0934B9BC 		.ascii	"\0114\271\274(\217\0151\377\216\227\007u\310\303Dc\362"
 204      288F0D31 
ARM GAS  C:\Users\info\AppData\Local\Temp\ccNGFWUn.s 			page 16


 204      FF8E9707 
 204      75C8C344 
 204      63F2
 205 0557 5CAE312B 		.ascii	"\\\2561+\265\000\307&\0343\254\320\002\266\2253\301"
 205      B500C726 
 205      1C33ACD0 
 205      02B69533 
 205      C1
 206 0568 5652F9E4 		.ascii	"VR\371\344I\324'\371\323\223a\310\222\341\263\004\237"
 206      49D427F9 
 206      D39361C8 
 206      92E1B304 
 206      9F
 207 0579 3C33954F 		.ascii	"<3\225O\362\247\366\311\025K\206\253\361>Y8\225O>\217"
 207      F2A7F6C9 
 207      154B86AB 
 207      F13E5938 
 207      954F3E8F 
 208 058d 1742E2A4 		.ascii	"\027B\342\244|>M\364\311\"\036Y8Q\205E*\337H\330\243"
 208      7C3E4DF4 
 208      C9221E59 
 208      38518545 
 208      2ADF48D8 
 209 05a2 408BA797 		.ascii	"@\213\247\227\3575+\337\377D\363MW\021\226$\346\333"
 209      EF352BDF 
 209      FF44F34D 
 209      57119624 
 209      E6DB
 210 05b4 6AE6BB38 		.ascii	"j\346\2738i\276\277\240|\277\260\362\035\346|\367\032"
 210      69BEBFA0 
 210      7CBFB0F2 
 210      1DE67CF7 
 210      1A
 211 05c5 971C2A5C 		.ascii	"\227\034*\\a\262\224\355\010\034Q)s^KT\342\005\224r"
 211      61B294ED 
 211      081C5129 
 211      735E4B54 
 211      E2059472 
 212 05d9 34BD264A 		.ascii	"4\275&J\257\220\014\217Y\347\352c-\350\367\005\216\272"
 212      AF900C8F 
 212      59E7EA63 
 212      2DE8F705 
 212      8EBA
 213 05eb D66CACBA 		.ascii	"\326l\254\272K\354\357\024\022\207f\204dqf\335`EH\332"
 213      4BECEF14 
 213      12876684 
 213      647166DD 
 213      604548DA 
 214 05ff D2F09CB3 		.ascii	"\322\360\234\263\007\001G\335\002_\270A\231\242\231"
 214      070147DD 
 214      025FB841 
 214      99A299
 215 060e A2D8F8AC 		.ascii	"\242\330\370\254\331\325\345SK*\232\264\244@\004\317"
 215      D9D5E553 
 215      4B2A9AB4 
 215      A44004CF 
 216 061e 27015F46 		.ascii	"'\001_FO\233`l\025\307\210_D\233\361\263P}u\266\025"
ARM GAS  C:\Users\info\AppData\Local\Temp\ccNGFWUn.s 			page 17


 216      4F9B606C 
 216      15C7885F 
 216      449BF1B3 
 216      507D75B6 
 217 0633 A07FF4C0 		.ascii	"\240\177\364\300\026\257:\363.\011\270\036\335\234\266"
 217      16AF3AF3 
 217      2E09B81E 
 217      DD9CB6
 218 0642 909CE102 		.ascii	"\220\234\341\002J\307\331\335\364\012.\306#\332\245"
 218      4AC7D9DD 
 218      F40A2EC6 
 218      23DAA5
 219 0651 7AC48D1E 		.ascii	"z\304\215\036yN\321W\343\212\330\317d`\257\300\277'"
 219      794ED157 
 219      E38AD8CF 
 219      6460AFC0 
 219      BF27
 220 0663 92E33755 		.ascii	"\222\3437U?m\305\037:a\264\200\212\337/\340F\354\221"
 220      3F6DC51F 
 220      3A61B480 
 220      8ADF2FE0 
 220      46EC91
 221 0676 E9E3D419 		.ascii	"\351\343\324\031\337\222n\301\317\016\327\327\231\360"
 221      DF926EC1 
 221      CF0ED7D7 
 221      99F0
 222 0684 3E01A331 		.ascii	">\001\2431x\2128\\\254\320\357J\013}\276\376\255k\346"
 222      788A385C 
 222      ACD0EF4A 
 222      0B7DBEFE 
 222      AD6BE6
 223 0697 E207047C 		.ascii	"\342\007\004|\025C\373\305\221\\\265\330\236\332\237"
 223      1543FBC5 
 223      915CB5D8 
 223      9EDA9F
 224 06a6 2AF8CAE8 		.ascii	"*\370\312\350b\243\212\260\242+I\221\336\320\267\325"
 224      62A38AB0 
 224      A22B4991 
 224      DED0B7D5 
 225 06b6 E6D3A690 		.ascii	"\346\323\246\220\272T\214\200\250\016\362\303\245\251"
 225      BA548C80 
 225      A80EF2C3 
 225      A5A9
 226 06c4 CB1B25F0 		.ascii	"\313\033%\3603\223\006\2034A\\e\354\312\276=#\346v-"
 226      33930683 
 226      34415C65 
 226      ECCABE3D 
 226      23E6762D 
 227 06d8 999E7D6F 		.ascii	"\231\236}oZ\366\375:zj\231\351\255J\264\357;\246}K\222"
 227      5AF6FD3A 
 227      7A6A99E9 
 227      AD4AB4EF 
 227      3BA67D4B 
 228 06ed DAD74FF6 		.ascii	"\332\327O\366\375\306\262\357\267\377\347\324\"\347"
 228      FDC6B2EF 
 228      B7FFE7D4 
 228      22E7
ARM GAS  C:\Users\info\AppData\Local\Temp\ccNGFWUn.s 			page 18


 229 06fb 8EC53977 		.ascii	"\216\3059w\025\346`\032\027\253\217\267+\375\373\372"
 229      15E6601A 
 229      17AB8FB7 
 229      2BFDFBFA 
 230 070b 2B28DFC0 		.ascii	"+(\337\300\251\376\337`\306\251\342\373<U\200\037\343"
 230      A9FEDF60 
 230      C6A9E2FB 
 230      3C55801F 
 230      E3
 231 071c CB5BBBBF 		.ascii	"\313[\273\277\353\264CU\340S\001\267b\025H\023\335O"
 231      EBB44355 
 231      E05301B7 
 231      62154813 
 231      DD4F
 232 072e 4DAED7F0 		.ascii	"M\256\327\360\241\277T\273\024zP\300\355\030:]\334\010"
 232      A1BF54BB 
 232      147A50C0 
 232      ED183A5D 
 232      DC08
 233 0740 2AF4C15D 		.ascii	"*\364\301]f%\350\177`\375X\363C\237\202\013\370o\014"
 233      6625E87F 
 233      60FD58F3 
 233      439F820B 
 233      F86F0C
 234 0753 9D21C69D 		.ascii	"\235!\306\235\\\231~\2532\274\305p,\223\"\305\025F7"
 234      5C997EAB 
 234      32BCC570 
 234      2C9322C5 
 234      154637
 235 0766 CFE0F74C 		.ascii	"\317\340\367L\033\024c\027\271>t\266W\252\327\262\010"
 235      1B146317 
 235      B93E74B6 
 235      57AAD7B2 
 235      08
 236 0777 C09D445B 		.ascii	"\300\235D[\024\253\027\243\301h9\227O\257\234a\253\234"
 236      14AB17A3 
 236      C1683997 
 236      4FAF9C61 
 236      AB9C
 237 0789 E309E55C 		.ascii	"\343\011\345\\1U9\227O]\316\273V9\357M\243\234\337\305"
 237      31553997 
 237      4F5DCEBB 
 237      5639EF4D 
 237      A39CDFC5 
 238 079d 95730567 		.ascii	"\225s\005g\032-'\311\231\216\307Ja\306\276A\252e\026"
 238      1A2D27C9 
 238      998EC74A 
 238      61C6BE41 
 238      AA6516
 239 07b0 3D6CBE21 		.ascii	"=l\276!\221B\322\301\333\0353Z\355\351\356{\215\012"
 239      9142D2C1 
 239      DB1D335A 
 239      EDE9EE7B 
 239      8D0A
 240 07c2 EE1D1B5C 		.ascii	"\356\035\033\\\207\357\375\200 |u\311)("
 240      87EFFD80 
 240      207C75C9 
ARM GAS  C:\Users\info\AppData\Local\Temp\ccNGFWUn.s 			page 19


 240      2928
 241 07d0 787163C9 		.ascii	"xqc\311\332\2425\245\345\033J\361\356\265\2225\277-"
 241      DAA235A5 
 241      E51B4AF1 
 241      EEB59235 
 241      BF2D
 242 07e2 2B2F7F69 		.ascii	"+/\177imYA\251\260Q[\257x\271\342\225\262e\352\247H"
 242      6D5941A9 
 242      B0515BAF 
 242      78B9E295 
 242      B265EAA7 
 243 07f7 FD143B7E 		.ascii	"\375\024;~\275\261\242\342\325\365\345\366\262\337\227"
 243      BDB1A2E2 
 243      D5F5E5F6 
 243      B2DF97
 244 0806 ADAF70AB 		.ascii	"\255\257p\253\326\232\322\365\025z\351\306\015\345\257"
 244      D69AD2F5 
 244      157AE9C6 
 244      0DE5AF
 245 0815 6E803FE8 		.ascii	"n\200?\350\353\312^^\273\256\342\177^R\031\357"
 245      EBCA5E5E 
 245      BBAEE27F 
 245      5E5219EF 
 246              		.text
 247              		.section	.gnu.lto_.symbol_nodes.bf14ff5f,"",%progbits
 248 0000 789C55CF 		.ascii	"x\234U\317;\012\002A\020\004\320\352\355\231\375\340"
 248      3B0A0241 
 248      1004D0EA 
 248      ED99FDE0 
 249 0010 0D4CD454 		.ascii	"\015L\324TC\017\330\033\010\006\202\032\351\005\366"
 249      430FD81B 
 249      0806821A 
 249      E905F6
 250 001f 1482894C 		.ascii	"\024\202\211Ll\260&\202\201\272(\"\010z\000\177\323"
 250      6CB02682 
 250      81BA2822 
 250      087A007F 
 250      D3
 251 0030 1B881355 		.ascii	"\033\210\023U\275\202\016\332\200\320%\000\021\004\230"
 251      BD820EDA 
 251      80D02500 
 251      110498
 252 003f AEA1B1C8 		.ascii	"\256\241\261\310;~ \241` +Q=\000y\336\366f\341\300F"
 252      3B7E20A1 
 252      60202B51 
 252      3D0079DE 
 252      F666E1C0 
 253 0054 4CE0486C 		.ascii	"L\340Hl\340L\342\300\211$\201SI\003\307\222\375\233"
 253      E04CE2C0 
 253      89248153 
 253      4903C792 
 253      FD9B
 254 0066 61511CDE 		.ascii	"aQ\034\336\304\276\025\257{\217a\340\352\364.?K\313"
 254      C4BE15AF 
 254      7B8F61E0 
 254      EAF42E3F 
 254      4BCB
ARM GAS  C:\Users\info\AppData\Local\Temp\ccNGFWUn.s 			page 20


 255 0078 FE09F72B 		.ascii	"\376\011\367+\033-d18\372\023\315\341\255\305\224\301"
 255      1B2D6431 
 255      38FA13CD 
 255      E1ADC594 
 255      C1
 256 0089 8D351314 		.ascii	"\2155\023\024\023\315\024\247\362\331T\273\231\032\250"
 256      13CD14A7 
 256      F2D954BB 
 256      991AA8
 257 0098 E69A3106 		.ascii	"\346\2321\006\273\363\325\326C\365\330\367\265\254."
 257      BBF3D5D6 
 257      43F5D8F7 
 257      B5AC2E
 258 00a7 DB51035F 		.ascii	"\333Q\003_\035\325MA"
 258      1DD54D41 
 259              		.text
 260              		.section	.gnu.lto_.refs.bf14ff5f,"",%progbits
 261 0000 789C6361 		.ascii	"x\234ca`\004B \000\000\0009\000\007"
 261      60044220 
 261      00000039 
 261      0007
 262              		.text
 263              		.section	.gnu.lto_.decls.bf14ff5f,"",%progbits
 264 0000 789CBD58 		.ascii	"x\234\275XkP\024W\026\236\333\227\3070\014\020\021\023"
 264      6B501457 
 264      169EDB97 
 264      C7300C10 
 264      1113
 265 0012 374BEDBA 		.ascii	"7K\355\272YW\331\252\015\361\221M\271\373+[\311&\273"
 265      5957D9AA 
 265      0DF1914D 
 265      B9FB2B5B 
 265      C926BB
 266 0025 A9642BA9 		.ascii	"\251d+\251\254\251\332*\252&\343\320\350$0Lf\032\037"
 266      ACA9DA2A 
 266      AA26E3D0 
 266      E824304C 
 266      661A1F
 267 0038 C96ED23C 		.ascii	"\311n\322<|\304\027b\024\0055\240\250\200\242\" \006"
 267      7CC41762 
 267      140535A0 
 267      A880A222 
 267      2006
 268 004a 11191FE0 		.ascii	"\021\031\037\340\003\037\310\313\027\012\342\013\037"
 268      031FC8CB 
 268      170AE20B 
 268      1F
 269 0057 28088208 		.ascii	"(\010\202\010\302\236{o\367t\2676\331\375\261\331)\016"
 269      C29E7B6F 
 269      F774B736 
 269      D9FDB1D9 
 269      290E
 270 0069 DDE7F477 		.ascii	"\335\347\364w\317\371\316\271\367\236\3333>\006d \037"
 270      CFF9CEB9 
 270      F79EDB33 
 270      3E066420 
 270      1F
ARM GAS  C:\Users\info\AppData\Local\Temp\ccNGFWUn.s 			page 21


 271 007a D7CF0D86 		.ascii	"\327\317\015\206v\037\203!\026\324a\370`\260}\002\002"
 271      761F8321 
 271      16D461F8 
 271      60B07D02 
 271      02
 272 008b 26C32E90 		.ascii	"&\303.\220} \345 \025\006\3661\201|\004\330\177\200"
 272      7D20E520 
 272      1506F631 
 272      817C04D8 
 272      7F80
 273 009d 7C0AC283 		.ascii	"|\012\302\203|\006\342\000q\201\010 \263A\276D\206\347"
 273      7C06E200 
 273      71810820 
 273      B341BE44 
 273      86E7
 274 00af 3E64DC28 		.ascii	">d\334(\311o(H\030\310\253\210\371\016\007\371\012\356"
 274      C96F2848 
 274      18C8AB88 
 274      F90E07F9 
 274      0AEE
 275 00c1 E340FE09 		.ascii	"\343@\376\011\022\015\362/\020;H$\310\327 \026\244\360"
 275      120DF22F 
 275      103B4824 
 275      C8D72016 
 275      A4F0
 276 00d3 21EEFF00 		.ascii	"!\356\377\000\377|%\277\016\025\227Oub\023\276\241?"
 276      FF7C25BF 
 276      0E15974F 
 276      756213BE 
 276      A13F
 277 00e5 127B8214 		.ascii	"\022{\202\024G\346\360\033\220\026\260\177\003\327y"
 277      47E6F01B 
 277      9016B07F 
 277      03D779
 278 00f4 2022C887 		.ascii	" \"\310\207 \211 _ V\037\022\377}\220`\220_\201\370"
 278      2089205F 
 278      20561F12 
 278      FF7D9060 
 278      905F81F8 
 279 0108 4B711C52 		.ascii	"Kq\034R\376r->\222j\363\354\347)\207v\315\277\236o\354"
 279      FE722D3E 
 279      926AF3EC 
 279      E7298776 
 279      CDBF9E6F 
 280 011d E150B809 		.ascii	"\341P\270\011\015#\242\337+\353\017b:y\334\322\237\367"
 280      0D23A2DF 
 280      2BEB0F62 
 280      3A79DCD2 
 280      9FF7
 281 012f 4E648108 		.ascii	"Nd\201\010\237\025\242\310q\312\270\022O\367\016\037"
 281      9F15A2C8 
 281      71CAB812 
 281      4FF70E1F 
 282 013f 1C4840DC 		.ascii	"\034H@\334\331\342\013U\001(\302\264\225\340Z/\365\374"
 282      D9E20B55 
 282      0128C2B4 
 282      95E05A2F 
ARM GAS  C:\Users\info\AppData\Local\Temp\ccNGFWUn.s 			page 22


 282      F5FC
 283 0151 29591411 		.ascii	")Y\024\021*@&\264\015a\224\217\"I\271\302\311\304-\022"
 283      2A4026B4 
 283      0D61948F 
 283      2249B9C2 
 283      C9C42D12 
 284 0165 C524B173 		.ascii	"\305$\261s\223\3507\326\200\246\206\243I\341\006\264"
 284      93E837D6 
 284      80A686A3 
 284      49E106B4 
 285 0175 1D459060 		.ascii	"\035E\220`\004\205\362P8\312E\341\304\177~V\336\221"
 285      0485F250 
 285      38CA45E1 
 285      C47F7E56 
 285      DE91
 286 0187 20BC16D1 		.ascii	" \274\026\321\000\035\253\356.\302\336\000iK\302\267"
 286      001DABEE 
 286      2EC2DE00 
 286      694BC2B7 
 287 0197 8BE20B68 		.ascii	"\213\342\013h\027\004\330\241\004\200x\372\021v\352"
 287      1704D8A1 
 287      048078FA 
 287      1176EA
 288 01a6 44208321 		.ascii	"D \203!\312\331\224\302\365\030\262\0155!\037P\273N"
 288      CAD994C2 
 288      F518B20D 
 288      35211F50 
 288      BB4E
 289 01b8 655E0B06 		.ascii	"e^\013\0065\314\204\306\201\272gC\323\367\201\246E4"
 289      35CC84C6 
 289      81BA6743 
 289      D3F781A6 
 289      4534
 290 01ca FB6431F4 		.ascii	"\373d1\364X0\301\355\006\017\205\340\301\200\212H@\364"
 290      5830C1ED 
 290      060F85E0 
 290      C1808A48 
 290      40F4
 291 01dc 1A0D02E8 		.ascii	"\032\015\002\350\252\341>O\010\363\305\201Z\327yrC "
 291      AAE13E4F 
 291      08F3C581 
 291      5AD77972 
 291      4320
 292 01ee F3F502A8 		.ascii	"\363\365\002\250\215\217+\236\230\361\032\216\344\343"
 292      8D8F2B9E 
 292      98F11A8E 
 292      E4E3
 293 01fc 539CD4B2 		.ascii	"S\234\324\2621\030E\204#\360\205XV\244\274\006T\006"
 293      31184584 
 293      23F08558 
 293      56A4BC06 
 293      5406
 294 020e 29ED4158 		.ascii	")\355AX\236\237L\021\202w~C\314po\244W\235\004K!\301"
 294      9E9F4C11 
 294      82777E43 
 294      CC706FA4 
 294      579D044B 
ARM GAS  C:\Users\info\AppData\Local\Temp\ccNGFWUn.s 			page 23


 295 0224 324AE607 		.ascii	"2J\346\007p\270\227\025\360|_K_P\350\012\352\333#\276"
 295      70B89715 
 295      F07C5F4B 
 295      5F50E80A 
 295      EADB23BE 
 296 0238 89A8EF12 		.ascii	"\211\250\357\022x^L\311\357C\241r\012T\201\021\2072"
 296      785E4CC9 
 296      EF43A172 
 296      0A548111 
 296      8732
 297 024a 6BDB8DE6 		.ascii	"k\333\215\346\305\304\277\224.\330U\371\226#3!E\256"
 297      C5C4BF94 
 297      2ED855F9 
 297      96233321 
 297      45AE
 298 025c 80BE78F4 		.ascii	"\200\276x\364d\212\237Ib\263\342?\261\271\273\375fS"
 298      648A9F49 
 298      62B3E23F 
 298      B1B9BBFD 
 298      6653
 299 026e B0C6F77E 		.ascii	"\260\306\367~\244\256e\205\344\273\202\372\376a\361"
 299      A4AE6585 
 299      E4BB82FA 
 299      FE61F1
 300 027d DADE904B 		.ascii	"\332\336\220K\350\002\202rI\313\026!\366\037Q10\241"
 300      E8028272 
 300      49CB1621 
 300      F61F5131 
 300      30A1
 301 028f 2ADC70F4 		.ascii	"*\334p\364\277\301k\362^\014^\210t\2538\243\177\362"
 301      BFC16BF2 
 301      5E0C5E88 
 301      74AB38A3 
 301      7FF2
 302 02a1 7558FE50 		.ascii	"uX\376P'\212w$\015B^\006\322=}\316)\001\020S\345\001"
 302      278A7724 
 302      0D425E06 
 302      D23D7DCE 
 302      29011053 
 303 02b7 2A7F8CAE 		.ascii	"*\177\214\256\212\023\322\346\204\344\035u\343\341\374"
 303      8A13D2E6 
 303      84E41D75 
 303      E3E1FC
 304 02c6 348CD7D3 		.ascii	"4\214\327\323\025\202\216\037\256I\302>\034\253\010"
 304      15828E1F 
 304      AE49C23E 
 304      1CAB08
 305 02d5 9AE1436C 		.ascii	"\232\341Cl\033:\256\326\370R\033Y\371\036D\215\271u"
 305      1B3AAED6 
 305      F8521B59 
 305      F91E448D 
 305      B975
 306 02e7 77C2BDB6 		.ascii	"w\302\275\266\203\3146\330\332\326\350\3435\036b\306"
 306      83CC36D8 
 306      DAD6E8E3 
 306      351E62C6 
 307 02f7 75DD976F 		.ascii	"u\335\227o\007\260\345\031\001\352\375\224\033\255\322"
ARM GAS  C:\Users\info\AppData\Local\Temp\ccNGFWUn.s 			page 24


 307      07B0E519 
 307      01EAFD94 
 307      1BADD2
 308 0306 F21C0BAA 		.ascii	"\362\034\013\252\330\236\222\305\341\"\026\274\262="
 308      D89E92C5 
 308      E12216BC 
 308      B23D
 309 0314 ADD2880F 		.ascii	"\255\322\210\0172\2456\267\343\\0\276\300\224\366\354"
 309      32A536B7 
 309      E35C30BE 
 309      C094F6EC 
 310 0324 CA2223D9 		.ascii	"\312\"#\3310D\311\273\271~\271\231\271\230\246\332<"
 310      3044C9BB 
 310      B97EB999 
 310      B998A6DA 
 310      3C
 311 0335 A16CF3AC 		.ascii	"\241l\363\254\366\254\0344a\021Sh\371\336\375\325\276"
 311      F6AC1C34 
 311      61115368 
 311      F9DEFDD5 
 311      BE
 312 0346 0C3A8964 		.ascii	"\014:\211dW\3266\011/a\217d^a\214WoM\303e\2143\331\263"
 312      57D63609 
 312      2F618F64 
 312      5E618C57 
 312      6F4DC365 
 313 035e D4431587 		.ascii	"\324C\025\207\215x+S\252\233/6\372\340\"\246$V\034."
 313      8D782B53 
 313      AA9B2F36 
 313      FAE022A6 
 313      24561C2E 
 314 0372 0EC24799 		.ascii	"\016\302G\231\362\264\270\3700\302\265L\331\362d\240"
 314      F2B4B8F8 
 314      30C2B54C 
 314      D9F264A0 
 315 0382 93309C00 		.ascii	"\2230\234\000\015m\030\253:\332\004\326\321*k\216o5"
 315      0D6D18AB 
 315      3ADA04D6 
 315      D12A6B8E 
 315      6F35
 316 0394 E30B14CC 		.ascii	"\343\013\024\314m\366$\315\207\035\030A\227\261\230"
 316      6DF624CD 
 316      871D1841 
 316      97B198
 317 03a3 2C9AF282 		.ascii	",\232\362\202\015\336M\002\353/\202\214\242\215\243"
 317      0DDE4D02 
 317      EB2F828C 
 317      A28DA3
 318 03b2 098C8D60 		.ascii	"\011\214\215`\224z\334\275\367h\217;\017\365=\247\264"
 318      947ADCBD 
 318      F7688F3B 
 318      0FF53DA7 
 318      B4
 319 03c3 A0092636 		.ascii	"\240\011&6\225\007\322.\3354\341\353,F~\347\311\202"
 319      9507D22E 
 319      DD34E1EB 
 319      2C467EE7 
ARM GAS  C:\Users\info\AppData\Local\Temp\ccNGFWUn.s 			page 25


 319      C982
 320 03d5 90116334 		.ascii	"\220\021c4\217\030#m\311\204\002\322\346.A\214\213J"
 320      8F18236D 
 320      C98402D2 
 320      E62E418C 
 320      8B4A
 321 03e7 8CF3480A 		.ascii	"\214\363H\012\"\317`(\233\301\233\213\363\273\314\270"
 321      22CF6028 
 321      9BC19B8B 
 321      F3BBCCB8 
 322 03f7 83156143 		.ascii	"\203\025aCc\333\212\000\275\315\251\327\013\001\177"
 322      63DB8A00 
 322      BDCDA9D7 
 322      0B017F
 323 0406 BB79EFA0 		.ascii	"\273y\357\240Y\263=[4\333\263\225mO@\246\334\311\351"
 323      59B33D5B 
 323      34DBB395 
 323      6D4F40A6 
 323      DCC9E9
 324 0419 40F8210B 		.ascii	"@\370!\013s\371X\376vR\353\211\244\326\303\303!\252"
 324      73F958FE 
 324      7652EB89 
 324      A4D6C3C3 
 324      21AA
 325 042b 6A4F64D5 		.ascii	"jOd\325\256K}\270\331\037\017\262JT/+.\012T\316\211"
 325      AE4B7DB8 
 325      D91F0FB2 
 325      4A542F2B 
 325      2E0A54CE 
 326 0440 CDE63292 		.ascii	"\315\3462\222\337M\210t]\311o\242\267\2133&\006/\015"
 326      DF4D8874 
 326      5DC96FA2 
 326      B78B3326 
 326      062F0D
 327 0453 7403C84F 		.ascii	"t\003\310O\224\310_\003c\233tTlN\333\344\207\027\372"
 327      94C85F03 
 327      639B7454 
 327      6C4EDBE4 
 327      8717FA
 328 0466 D0181925 		.ascii	"\320\030\031%\333\372L\252\243\342uZ\303\333\020\343"
 328      DBFA4CAA 
 328      A3E2755A 
 328      C3DB10E3 
 329 0476 9612E326 		.ascii	"\226\022\343&\0329H\273~\020\271\235\207\262v\336\266"
 329      1A3948BB 
 329      7E10B99D 
 329      87B276DE 
 329      B6
 330 0487 BBEF9E11 		.ascii	"\273\357\236\021\257\2401\321\316\202\201B\023\335o"
 330      AFA031D1 
 330      CE828142 
 330      13DD6F
 331 0496 D3E5BD7A 		.ascii	"\323\345\275ziAnM\240w\013\336c[\260\361\374\225\306"
 331      69416E4D 
 331      A0770BDE 
 331      635BB0F1 
 331      FC95C6
ARM GAS  C:\Users\info\AppData\Local\Temp\ccNGFWUn.s 			page 26


 332 04a9 00AFB183 		.ascii	"\000\257\261\203\031\027\016_>b\304\233\230\247\224"
 332      19170E5F 
 332      3E62C49B 
 332      98A794
 333 04b8 DC65EB82 		.ascii	"\334e\353\202\360N\246d\226\367\234\360e!\215\240.\317"
 333      F04EA664 
 333      96F79CF0 
 333      65218DA0 
 333      2ECF
 334 04ca 7858EE8F 		.ascii	"xX\356\217K\331\263zO\366\272\000\\\301\224k%}\233\203"
 334      4BD9B37A 
 334      4FF6BA00 
 334      5CC1946B 
 334      257D9B83 
 335 04de F031A65C 		.ascii	"\3601\246\\}P\221\341\357\015\302\330\354\251\313j\361"
 335      7D5091E1 
 335      EF0DC2D8 
 335      ECA9CB6A 
 335      F1
 336 04ef C7B50CF0 		.ascii	"\307\265\014\360\344\314\300>\204/3ei}\351T|\207\335"
 336      E4CCC03E 
 336      842F3365 
 336      697DE954 
 336      7C87DD
 337 0502 17349E7F 		.ascii	"\0274\236\177\212p/SN\015u\036\300x\221/Uv\264.\250"
 337      8A702F53 
 337      4E0D751E 
 337      C078912F 
 337      5576B42E 
 338 0517 F7C5194C 		.ascii	"\367\305\031L\331:\270\261\304\214\2670\245\272\257"
 338      D93AB8B1 
 338      C48CB730 
 338      A5BAAF
 339 0526 22C71717 		.ascii	"\"\307\027\0272e\361\222m\033\203q\025S\346/\335\276"
 339      3265F192 
 339      6D1B8371 
 339      1553E62F 
 339      DDBE
 340 0538 1FE3F34C 		.ascii	"\037\343\363L\251m)z\344\207;\230\322r%\3553\334\313"
 340      A96D297A 
 340      E4873B98 
 340      D27225ED 
 340      33DCCB
 341 054b EEEF36D4 		.ascii	"\356\3576\324\245\371\342d?\266\217\213\026\226\373"
 341      A5F9E264 
 341      3FB68F8B 
 341      1696FB
 342 055a E074A6DC 		.ascii	"\340t\246\334:\326\337\023\210\363\230\362\344PR\031"
 342      3AD6DF13 
 342      88F398F2 
 342      E4505219 
 343 056a C2E54C29 		.ascii	"\302\345L)=\324\177\322\027\3272\345~\322\366\315\010"
 343      3DD47FD2 
 343      17D732E5 
 343      7ED2F6CD 
 343      08
 344 057b DF664AED 		.ascii	"\337fJ\355\352\216t\016'\371Sep\340\273D_\274\232)\225"
ARM GAS  C:\Users\info\AppData\Local\Temp\ccNGFWUn.s 			page 27


 344      EA8E740E 
 344      27F95365 
 344      70E0BB44 
 344      5FBC9A29 
 345 0590 CDED0581 		.ascii	"\315\355\005\2018\227)\205\373S:\244c\336C\336y\362"
 345      38972985 
 345      FB533AA4 
 345      63DE43DE 
 345      79F2
 346 05a2 96751E36 		.ascii	"\226u\0366a\017}8&\261\362\324Q\1774\236|F\217W>\021"
 346      610F7D38 
 346      26B1F2D4 
 346      517F349E 
 346      7C468F57 
 347 05b8 209BC882 		.ascii	" \233\310\202i-\037rV\2246\213\342\0023\255p2\207\321"
 347      692D1F72 
 347      5694368B 
 347      E20233AD 
 347      703287D1 
 348 05cc 4A6EB4BC 		.ascii	"Jn\264\274\301^#\333\345\024\3314\006\012\367\354\257"
 348      C15E23DB 
 348      E514D934 
 348      060AF7EC 
 348      AF
 349 05dd 0B140B3F 		.ascii	"\013\024\013?\245\320\001\244\201\336\241[k\252\002"
 349      A5D001A4 
 349      81DEA15B 
 349      6BAA02
 350 05ec 5D7BC60B 		.ascii	"]{\306\013]\250\343\265D\345\265A\201&\351@O\250\240"
 350      5DA8E3B5 
 350      44E5B541 
 350      8126E940 
 350      4FA8A0
 351 05ff AB14E822 		.ascii	"\253\024\350\"\035(\215\237&\275\202\210H0\240%\\8\272"
 351      1D288D9F 
 351      26BD8288 
 351      4830A025 
 351      5C38BA
 352 0612 4CB6C262 		.ascii	"L\266\302b\011\016{\001}\317E\240U\334x\224\006\222"
 352      090E7B01 
 352      7DCF45A0 
 352      55DC7894 
 352      0692
 353 0624 0AB21A24 		.ascii	"\012\262\032$\035$\013d\031\310\012\220\014\220\365"
 353      1D240B64 
 353      19C80A90 
 353      0C90F5
 354 0633 2099206B 		.ascii	" \231 k@6\200l\004Y\016\262\026\344;\220u \331\334x"
 354      4036806C 
 354      04590EB2 
 354      16E43B90 
 354      7520D9DC 
 355 0648 7AE8317E 		.ascii	"z\3501~uJ\201\372\365\012T\245\312e\245\222\313\267"
 355      754A81FA 
 355      F50A54A5 
 355      CA65A592 
 355      CBB7
ARM GAS  C:\Users\info\AppData\Local\Temp\ccNGFWUn.s 			page 28


 356 065a 3AB94C56 		.ascii	":\271LV\220\231\012r\201\016R\355t\275\002\235\257\003"
 356      90990A72 
 356      810E52ED 
 356      74BD029D 
 356      AF03
 357 066c DDAD8216 		.ascii	"\335\255\202\026*\\\207\264\\\273\320\263\023_\253`"
 357      2A5C87B4 
 357      5CBBD0B3 
 357      135FAB60 
 358 067c 9FE8E5A5 		.ascii	"\237\350\345\245\236\316K\251\301\031\242'\005\323F"
 358      9ECE4BA9 
 358      C119A227 
 358      05D346
 359 068b 952891F0 		.ascii	"\225(\221\360\266$\346[\225\334\352\272\2405\242'\021"
 359      B624E65B 
 359      95DCEABA 
 359      A035A227 
 359      11
 360 069c 53E7C37A 		.ascii	"S\347\303zD\316\250\234w\257\014^+z\2220=I\036Kh\357"
 360      44CEA89C 
 360      77AF0C5E 
 360      2B7A9230 
 360      3D491E4B 
 361 06b2 01C4C8A8 		.ascii	"\001\304\310\250\223\034>\243\362.r:\336\325\350\022"
 361      931C3EA3 
 361      F22E723A 
 361      DED5E812 
 362 06c2 25CDA77A 		.ascii	"%\315\247zL\330R\244\355\3303\260\334,\302k,`\014R+"
 362      4CD852A4 
 362      EDD833B0 
 362      DC2CC26B 
 362      2C600C52 
 363 06d7 56964196 		.ascii	"V\226A\226:j\212\316<\250Sz\244Ni)\247\233\222z.\312"
 363      3A6A8ACE 
 363      3CA8537A 
 363      A44E6929 
 363      A79B927A 
 364 06ed D5051BD4 		.ascii	"\325\005\033\324\233\015Z]\350\005\027R\327e\204\340"
 364      9B0D5A5D 
 364      E8051752 
 364      D76584E0 
 365 06fd 36DA0BB8 		.ascii	"6\332\013\270S\3273+\203\321\350\010\375\355\261\031"
 365      53D7332B 
 365      83D1E808 
 365      FDEDB119 
 366 070d B6C44FB9 		.ascii	"\266\304O\271=X\3152N\377\216\324,\007\002m\342\274"
 366      3D58CD32 
 366      4EFF8ED4 
 366      2C07026D 
 366      E2BC
 367 071f 27182921 		.ascii	"'\030)!\345\2731/w\031\032-\021\364\214H\320\360?g\007"
 367      E5BB312F 
 367      77191A2D 
 367      11F48C48 
 367      D0F03F67 
 368 0734 B1172CEE 		.ascii	"\261\027,\356ND\232\267\206-\252ek@[9\371\255\241o\307"
 368      4E449AB7 
ARM GAS  C:\Users\info\AppData\Local\Temp\ccNGFWUn.s 			page 29


 368      862DAA65 
 368      6B405B39 
 368      F9ADA16F 
 369 0749 AD665FDC 		.ascii	"\255f_\334\353\257y\031\014e/\203%\025][\244\027@\221"
 369      EBAF7919 
 369      0C652F83 
 369      25155D5B 
 369      A4174091 
 370 075d BCAFB5DF 		.ascii	"\274\257\265\337XWm\302IF\326\267\353w\235\014\301\351"
 370      58576DC2 
 370      4946D6B7 
 370      EB779D0C 
 370      C1E9
 371 076f 54F9F5B6 		.ascii	"T\371\365\266\373\375Y\360E\315<Z\323\231\341c6\217"
 371      FBFD59F0 
 371      45CD3C5A 
 371      D399E163 
 371      368F
 372 0781 F589906E 		.ascii	"\365\211\220n\"\306GD\220\323o\007gF\217\340\210U\323"
 372      22C64744 
 372      90D36F07 
 372      67468FE0 
 372      8855D3
 373 0794 DBA9A1B7 		.ascii	"\333\251\241\267\203\321\323Ln>\324.\217\203\332\235"
 373      83D1D34C 
 373      6E3ED42E 
 373      8F83DA9D 
 374 07a4 86DA154A 		.ascii	"\206\332\025J\223{\012\356OB\352GA\252A\252@\216\200"
 374      937B0AEE 
 374      4F42EA47 
 374      41AA41AA 
 374      408E80
 375 07b7 1C00A900 		.ascii	"\034\000\251\000\331\017R\016\262\017\244\014\344\007"
 375      D90F520E 
 375      B20FA40C 
 375      E407
 376 07c5 90BD20A5 		.ascii	"\220\275 \245 {@J@\212A"
 376      207B404A 
 376      408A41
 377 07d0 8A407683 		.ascii	"\212@v\203\354\322\364\277\201&\325\332\334\006S\\\250"
 377      ECD2F4BF 
 377      8126D5DA 
 377      DC06535C 
 377      A8
 378 07e1 ACCD23AA 		.ascii	"\254\315#\252\355\246\3173W\032\360\323\363|\334\344"
 378      EDA6CF33 
 378      571AF0D3 
 378      F37CDCE4 
 379 07f1 DDE8D548 		.ascii	"\335\350\325H\207\245\272\245\366*\330\243zXu\357\353"
 379      87A5BAA5 
 379      F62AD8A3 
 379      7A5875EF 
 379      EB
 380 0802 51B0C7F4 		.ascii	"Q\260\307\364\260\252\003\362\241\002=\256\007U\265"
 380      B0AA03F2 
 380      A1023DAE 
 380      0755B5
ARM GAS  C:\Users\info\AppData\Local\Temp\ccNGFWUn.s 			page 30


 381 0811 C84E057A 		.ascii	"\310N\005zR\013\255Q\265%\206\275\242`O\353a\325\235"
 381      520BAD51 
 381      B52586BD 
 381      A2604FEB 
 381      61D59D
 382 0824 A459C1D6 		.ascii	"\244Y\301\326\352a\325]\252I\301\236\325\303\252\333"
 382      EA61D55D 
 382      AA49C19E 
 382      D5C3AADB 
 383 0834 688382AD 		.ascii	"h\203\202\255\323\303\252\253[\247`\353\365\260\352"
 383      D3C3AAAB 
 383      5BA760EB 
 383      F5B0EA
 384 0843 EA9E4D57 		.ascii	"\352\236MWu\312\006\011\355\355\2245\317\226\2552}\014"
 384      75CA0609 
 384      EDED9435 
 384      CF96AD32 
 384      7D0C
 385 0855 3B88E08D 		.ascii	";\210\340\215\037]\221\340\336\203\350\362s\264+\322"
 385      1F5D91E0 
 385      DE83E8F2 
 385      73B42BD2 
 386 0865 5507D755 		.ascii	"U\007\327U}\274\312}yS\010\203W\302\356\274\373,\\}"
 386      7DBCCA7D 
 386      79530883 
 386      57C2EEBC 
 386      FB2C5C7D 
 387 0879 14A9B7ED 		.ascii	"\024\251\267\355An\254\002:\014\213\334\003\243Y#\034"
 387      416EAC02 
 387      3A0C8BDC 
 387      03A35923 
 387      1C
 388 088a 09665061 		.ascii	"\011fPa\322\311\306\201/^\3438Z2\3457\020\030\000\377"
 388      D2C9C681 
 388      2F5EE338 
 388      5A32E537 
 388      101800FF 
 389 089e 0F71E4A7 		.ascii	"\017q\344\2474\271e\334\207\226\301\032o\326\3511\244"
 389      34B965DC 
 389      8796C11A 
 389      6FD6E931 
 389      A4
 390 08af F112A60F 		.ascii	"\361\022\246\017\224\257\016\036\3324X6e\352l:\365\263"
 390      94AF0E1E 
 390      DA345836 
 390      65EA6C3A 
 390      F5B3
 391 08c1 51255FDA 		.ascii	"Q%_\332d\026WX)\370\341\263`\235sUAw\353\243U\256\213"
 391      64165758 
 391      29F8E1B3 
 391      609D7355 
 391      4177EBA3 
 392 08d8 D3C31893 		.ascii	"\323\303\030\223c\000\357y\026\376\232~YO\250\313Z\003"
 392      6300EF79 
 392      16FE9A7E 
 392      594FA8CB 
 392      5A03
ARM GAS  C:\Users\info\AppData\Local\Temp\ccNGFWUn.s 			page 31


 393 08ea 653DAE5B 		.ascii	"e=\256[\326\023\232\262\036\327+\353%MYO\320\262\026"
 393      D6139AB2 
 393      1ED72BEB 
 393      254D594F 
 393      D0B216
 394 08fd D0B2B252 		.ascii	"\320\262\262R\356^\376\")%!\327\253\224\362\270\252"
 394      EE5EFE22 
 394      292521D7 
 394      AB94F2B8 
 394      AA
 395 090e 94BBD37F 		.ascii	"\224\273\323\177\311\022\2003\003\365\351&0Yy\217\330"
 395      C9128033 
 395      03F5E926 
 395      3059798F 
 395      D8
 396 091f 904EDF23 		.ascii	"\220N\337#\012\265\357\021\354\331\232\345\277 \317"
 396      0AB5EF11 
 396      ECD99AE5 
 396      BF20CF
 397 092e 48ABDFAE 		.ascii	"H\253\337\256\234\227\205\362y\231\325\262?\227}1#\263"
 397      9C9785F2 
 397      7999D5B2 
 397      3F977D31 
 397      23B3
 398 0940 7D987D07 		.ascii	"}\230}\007\353:\365x#\036;\342:\251\245\011\235\241"
 398      EB3AF578 
 398      231E3BE2 
 398      3AA9A509 
 398      9DA1
 399 0952 0991EF76 		.ascii	"\011\221\357v\031\331\337\372\275\222-\266\026\212\255"
 399      19D9DFFA 
 399      BD922DB6 
 399      168AAD
 400 0961 039BBE58 		.ascii	"\003\233\276X\225\263@\254\205\201oR \252T\022\254\244"
 400      95B340AC 
 400      85816F52 
 400      20AA5412 
 400      ACA4
 401 0973 BFE4A103 		.ascii	"\277\344\241\003P\037\003:\313\275B\316\263\374\266"
 401      501F033A 
 401      CBBD42CE 
 401      B3FCB6
 402 0982 0B21789F 		.ascii	"\013!x\237q\304\037y\272\253\233\322\374\274\266z\216"
 402      71C41F79 
 402      BAAB9BD2 
 402      FCBCB67A 
 402      8E
 403 0993 1A7B52B3 		.ascii	"\032{R\263\336\363\332\032\230m\303\331\354\365\234"
 403      DEF3DA1A 
 403      986DC3D9 
 403      ECF59C
 404 09a2 D7D8C88C 		.ascii	"\327\330\310\214k+6\036\015\360f\327\304\214iUC\025"
 404      6B2B361E 
 404      0DF066D7 
 404      C48C6955 
 404      4315
 405 09b4 A691B33B 		.ascii	"\246\221\263;O\263;'g\267\264\2565\001\222\313.\204"
ARM GAS  C:\Users\info\AppData\Local\Temp\ccNGFWUn.s 			page 32


 405      4FB33B27 
 405      67B7B4AE 
 405      350192CB 
 405      2E84
 406 09c6 1E5A6D66 		.ascii	"\036Zmf\231\021\014\252S\252\011\267Jb\027hbw2j\223"
 406      99110CAA 
 406      53AA09B7 
 406      4A621768 
 406      6277326A 
 407 09db CDB861E4 		.ascii	"\315\270a\344\304\264\277^]\342\236\377\365\252\231"
 407      C4B4BF5E 
 407      5DE29EFF 
 407      F5AA99
 408 09ea D9525377 		.ascii	"\331RSw\275\354M\3412\263\015\2646\0352\217\234B\013"
 408      BDEC4DE1 
 408      32B30DB4 
 408      361D328F 
 408      9C420B
 409 09fd 4DE18A9C 		.ascii	"M\341\212\234\302wK\256&\007\223\011\022\305\326}C\316"
 409      C2774BAE 
 409      26079309 
 409      12C5D67D 
 409      43CE
 410 0a0f 8E9C059E 		.ascii	"\216\234\005\236\017)\010]Tr\270\310\261\237YQ+\345"
 410      0F29085D 
 410      5472B8C8 
 410      B19F5951 
 410      2BE5
 411 0a21 BFAAABEC 		.ascii	"\277\252\253\354p\020n\373o\371\2671^\311=\365\253\214"
 411      70106EFB 
 411      6FF9B731 
 411      5EC93DF5 
 411      AB8C
 412 0a33 6A5E04AF 		.ascii	"j^\004\257\360\272Ny]\223y=j\355\335\216\031/O\332\320"
 412      F0BA4E79 
 412      5D93793D 
 412      6AEDDD8E 
 412      192F4FDA 
 413 0a48 ACB4E4EC 		.ascii	"\254\264\344\354\010\002AW\025VWeV7(\253\275[\316\335"
 413      08024157 
 413      15565765 
 413      563728AB 
 413      BD5BCEDD 
 414 0a5c 0AC44F46 		.ascii	"\012\304OFfU\265\246}\025\362V\353\026c\325r\343\311"
 414      6655B5A6 
 414      7D15F256 
 414      EB1663D5 
 414      72E3C9
 415 0a6f B11F99F0 		.ascii	"\261\037\231\360\333\224U\273\314\252/\273\247\010I"
 415      DB9455BB 
 415      CCAA2FBB 
 415      A70849
 416 0a7e ACCE0DFC 		.ascii	"\254\316\015\374\205\262\002\010\272\251\260\272)\263"
 416      85B20208 
 416      BAA9B0BA 
 416      29B3
 417 0a8c BA4359D5 		.ascii	"\272CY\325'\016\345\373\341\305\001#\262\252-\375\376"
ARM GAS  C:\Users\info\AppData\Local\Temp\ccNGFWUn.s 			page 33


 417      270EE5FB 
 417      E1C50123 
 417      B2AA2DFD 
 417      FE
 418 0a9d E08FECA7 		.ascii	"\340\217\354\247\016J\340\236L`h\301\232L\223D`\350"
 418      0E4AE09E 
 418      4C6068C1 
 418      9A4C9344 
 418      60E8
 419 0aaf AB0CF110 		.ascii	"\253\014\361\020G\020\350\256\022\377\256\034\377>\215"
 419      4710E8AE 
 419      12FFAE1C 
 419      FF3E8D
 420 0abe BF28B52C 		.ascii	"\277(\265,\207\303\331,~N\341\222D\263\267\002,\376"
 420      87C3D92C 
 420      7E4EE192 
 420      44B3B702 
 420      2CFE
 421 0ad0 A2DC96D2 		.ascii	"\242\334\226\322\340\221\343w\321\370\235r\374\336\252"
 421      E091E377 
 421      D1F89D72 
 421      FCDEAA
 422 0adf A2850152 		.ascii	"\242\205\001R\374\301x\032\037\020\350\201\022\377\201"
 422      FCC1781A 
 422      1F10E881 
 422      12FF81
 423 0aee 1CFF218D 		.ascii	"\034\377!\215\337y\275\346d .\222\342\337\277\265^Z"
 423      DF79BDE6 
 423      64202E92 
 423      E2DFBFB5 
 423      5E5A
 424 0b00 6C9ECCAF 		.ascii	"l\236\314\257\351h\322\006\272\225\321\335\362\350\036"
 424      E968D206 
 424      BA95D1DD 
 424      F2E81E
 425 0b0f 3ABAA0A5 		.ascii	":\272\240\245\253\304\210\253\330\350\366\222\346\006"
 425      ABC488AB 
 425      D8E8F692 
 425      E606
 426 0b1d 7974BA32 		.ascii	"yt\2722\372\2212\372\221<\272\227\216\336\226\326\012"
 426      FA9132FA 
 426      913CBA97 
 426      8EDE96D6 
 426      0A
 427 0b2e 6DEDDCC8 		.ascii	"m\355\334\310\271\367w$=\010P\347\376\311\213\252\324"
 427      B9F77724 
 427      3D0850E7 
 427      FEC98BAA 
 427      D4
 428 0b3f FB69EA8F 		.ascii	"\373i\352\217\345\324W\346\334\276\346#\205\257\274"
 428      E5D457E6 
 428      DCBEE623 
 428      85AFBC
 429 0b4e 3689C607 		.ascii	"6\211\306\007\010\352S\342\367\311\361\237\320\370\311"
 429      08EA53E2 
 429      F7C9F19F 
 429      D0F8C9
ARM GAS  C:\Users\info\AppData\Local\Temp\ccNGFWUn.s 			page 34


 430 0b5d BD35E739 		.ascii	"\2755\3479\315;\177\207\346|\030`/\325\344J~Vn>\260"
 430      CD3B7F87 
 430      E67C1860 
 430      2FD5E44A 
 430      7E566E3E 
 431 0b72 538BBEAE 		.ascii	"S\213\276\256A\017J\350A\212n\330\263\360[?\015\372"
 431      410F4AE8 
 431      418A6ED8 
 431      B3F05B3F 
 431      0DFA
 432 0b84 B606FD54 		.ascii	"\266\006\375TB?\245\350cEKk}\265\277Yj\320C\022z\210"
 432      423FA5E8 
 432      63454B6B 
 432      7DB5BF59 
 432      6AD04312 
 433 0b9a F9EEDE5B 		.ascii	"\371\356\336[\257\365\335\257A\017K\350a\212\356+J\257"
 433      AFF5DDAF 
 433      410F4BE8 
 433      618AEE2B 
 433      4AAF
 434 0bac D0FAAED5 		.ascii	"\320\372\256\325\240E\314\320p%\277Ne,Z\032\250Awi\320"
 434      A045CCD0 
 434      7025BF4E 
 434      652C5A1A 
 434      A8417769 
 435 0bc1 89129A5C 		.ascii	"\211\022\232\\\215\357\376m\372\270\267&O6\004X,\011"
 435      8DEFFE6D 
 435      FAB8B726 
 435      4F360458 
 435      2C09
 436 0bd3 768730CD 		.ascii	"v\2070\315\"$\"\333\037\243\234\256\370\231.k\334\270"
 436      222422DB 
 436      1FA39CAE 
 436      F8992E6B 
 436      DCB8
 437 0be5 187B2CEF 		.ascii	"\030{,\357\036\0271w\332\033\277\215\262\315s\272x\267"
 437      1E173177 
 437      DA1BBF8D 
 437      B2CD73BA 
 437      78B7
 438 0bf7 3BCAE98E 		.ascii	";\312\351\216\267\215\263\271x\253\020\357\212z=r\212"
 438      B78DB3B9 
 438      78AB10EF 
 438      8A7A3D72 
 438      8A
 439 0c08 D6608F73 		.ascii	"\326`\217s\306\273\204\250\231\216\204(\253+.\352\367"
 439      C6BB84A8 
 439      998E8428 
 439      AB2B2EEA 
 439      F7
 440 0c19 91AF474E 		.ascii	"\221\257GN&w\257:\342\035\374\253\274u\206=\312\356"
 440      2677AF3A 
 440      E21DFCAB 
 440      BC75863D 
 440      CAEE
 441 0c2b B0C52644 		.ascii	"\260\305&D\363QqV\333,\273\203\217\262D\3631\326\204"
 441      F3517156 
ARM GAS  C:\Users\info\AppData\Local\Temp\ccNGFWUn.s 			page 35


 441      DB2CBB83 
 441      8FB244F3 
 441      31D684
 442 0c3e 58C122CC 		.ascii	"X\301\"\314s\362\356\310Y\006\177\211\312\354\377\027"
 442      73F2EEC8 
 442      59067F89 
 442      CAECFF17 
 443 0c4e 13F73C77 		.ascii	"\023\367<w\224\305-DCX\010\357c\233eu\215I\2306w\232"
 443      94C52D44 
 443      435808EF 
 443      639B6575 
 443      8D499836 
 444 0c64 25DA659D 		.ascii	"%\332e\235c\231\221 \010\361\016K,p\015\216\346g\304"
 444      63999120 
 444      08F10E4B 
 444      2C700D8E 
 444      E667C4
 445 0c77 27386C3C 		.ascii	"'8l<\240\255\002\377\222W\215\265\272\005\213\323\356"
 445      A0AD02FF 
 445      92578DB5 
 445      BA058BD3 
 445      EE
 446 0c88 60F697BD 		.ascii	"`\366\227\275v95\357\243\300\231N{\274\005\350\203\325"
 446      763935EF 
 446      A3C0994E 
 446      7BBC05E8 
 446      83D5
 447 0c9a 9420C44C 		.ascii	"\224 \304Lcfp<\333\016xkt4I-\320>\305F\036\270\004>"
 447      6366703C 
 447      DB0E786B 
 447      7434492D 
 447      D03EC546 
 448 0cb2 9ADE4BF6 		.ascii	"\232\336K\3660\273\333\022\023\357\020,v\307l\336\345"
 448      30BBDB12 
 448      13EF102C 
 448      76C76CDE 
 448      E5
 449 0cc3 E62D71F1 		.ascii	"\346-q\361\321\274q\256%>&\306\315\013F\336a\213\207"
 449      D1BC71AE 
 449      253E26C6 
 449      CD0B46DE 
 449      618B87
 450 0cd6 24669AD8 		.ascii	"$f\232\330lN~\303\"\030\345\033\0372.`F\202\333b\213"
 450      6C4E7EC3 
 450      2218E51B 
 450      1F322E60 
 450      4682DB62 
 451 0ceb 8DB77D2E 		.ascii	"\215\267}.A\246N\221 \344f\024\345fuD\003\355X\353<"
 451      41A64E91 
 451      20E46614 
 451      E5667544 
 451      03ED58EB 
 452 0d00 8B6D4620 		.ascii	"\213mF \255B\234{&\334\373\317\230'\360p\365\263Y\243"
 452      AD429C7B 
 452      26DCFBCF 
 452      9827F070 
 452      F5B359A3 
ARM GAS  C:\Users\info\AppData\Local\Temp\ccNGFWUn.s 			page 36


 453 0d14 E1628AB6 		.ascii	"\341b\212\266\273\235\014\345\357\340\347\012p5S4\251"
 453      BB9D0CE5 
 453      EFE0E70A 
 453      70355334 
 453      A9
 454 0d25 1E51E4E7 		.ascii	"\036Q\344\347vGL|\240\323>\227\217\265\314\261G\013"
 454      76474C7C 
 454      A0D33E97 
 454      8FB5CCB1 
 454      470B
 455 0d37 B346C5C4 		.ascii	"\263F\305\304\332\235\204\267E\346\375\202\\%\331\020"
 455      DA9D84B7 
 455      45E6FD82 
 455      5C25D910 
 456 0d47 28C06C5B 		.ascii	"(\300l[f\361\366\231\263\004\023\275\247#\303\346\270"
 456      66F1F699 
 456      B30413BD 
 456      A723C3E6 
 456      B8
 457 0d58 EC40C199 		.ascii	"\354@\301\231\020\353\226,\026\207;4\332*X-0(\301i\021"
 457      10EB962C 
 457      16873B34 
 457      DA2A582D 
 457      3028C169 
 458 0d6d EC713C98 		.ascii	"\354q<\230\302H\305\274\231Z&O\232\364\371_\2764\272"
 458      C248C5BC 
 458      995A264F 
 458      9AF4F95F 
 458      BE34BA
 459 0d80 9D765A2E 		.ascii	"\235vZ.\263\033l\354\311\254/C\211\242u8\312\035\375"
 459      B31B6CEC 
 459      C9AC2F43 
 459      89A27538 
 459      CA1DFD
 460 0d93 8CBF5067 		.ascii	"\214\277Pg<\314.\324\237\027,s\254v\001\012\022\306"
 460      3CCC2ED4 
 460      9F172C73 
 460      AC76010A 
 460      12C6
 461 0da5 34F5C838 		.ascii	"4\365\3108\367XX\226\220\276\335i\201\334\2553\010m"
 461      F7585896 
 461      90BEDD69 
 461      81DCAD33 
 461      086D
 462 0db7 8276C003 		.ascii	"\202v\300\003\342\200>\341\035\352\007\241\032t,?\233"
 462      E2803EE1 
 462      1DEA07A1 
 462      1A742C3F 
 462      9B
 463 0dc8 8F1DA586 		.ascii	"\217\035\245\206Q\313X\266\024U\345\204\245\341J\260"
 463      51CB58B6 
 463      1455E584 
 463      A5E14AB0 
 464 0dd8 09665655 		.ascii	"\011fVUV\247\260\310\310\250\204i3\247Xln\227-\212\014"
 464      56A7B0C8 
 464      C8A88469 
 464      33A7586C 
ARM GAS  C:\Users\info\AppData\Local\Temp\ccNGFWUn.s 			page 37


 464      6E972D8A 
 465 0ded 81A53CFA 		.ascii	"\201\245<\372\371\241\002\233S\346a\264w\241\262\025"
 465      F9A1029B 
 465      53E661B4 
 465      77A1B215 
 466 0dfd 49A6DA8F 		.ascii	"I\246\332\217>\027\302\237\363g\211\203\025h\235\311"
 466      3E17C29F 
 466      F3678983 
 466      15689DC9 
 467 0e0d 47DA0C3F 		.ascii	"G\332\014?\243\372t7\357\372\253C\340]1V\033\377\001"
 467      A3FA7437 
 467      EFFAAB43 
 467      E05D3156 
 467      1BFF01
 468 0e20 7B18449F 		.ascii	"{\030D\237\274\015\373f\372\337\337\231\366\022\325"
 468      BC0DFB66 
 468      FADFDF99 
 468      F612D5
 469 0e2f DEE5858F 		.ascii	"\336\345\205\217\005\027\254\313\367a\013}LVu\210l'"
 469      0517ACCB 
 469      F7610B7D 
 469      4C567588 
 469      6C27
 470 0e41 A0F779C7 		.ascii	"\240\367y\307\230\347qo9\204Q\262\365\003\336\221\360"
 470      98E7716F 
 470      398451B2 
 470      F503DE91 
 470      F0
 471 0e52 E7D9BC43 		.ascii	"\347\331\274C\010\325x'0\367\250\347L\314\362V,ou\275"
 471      08D57827 
 471      30F7A8E7 
 471      4CCCF256 
 471      2C6F75BD 
 472 0e66 CD32FF37 		.ascii	"\3152\3777!\227\220M"
 472      2197904D 
 473              		.text
 474              		.section	.gnu.lto_.symtab.bf14ff5f,"",%progbits
 475 0000 75387838 		.ascii	"u8x8_draw_button_line\000"
 475      5F647261 
 475      775F6275 
 475      74746F6E 
 475      5F6C696E 
 476 0016 00       		.ascii	"\000"
 477 0017 00       		.ascii	"\000"
 478 0018 00       		.ascii	"\000"
 479 0019 00000000 		.ascii	"\000\000\000\000\000\000\000\000"
 479      00000000 
 480 0021 51010000 		.ascii	"Q\001\000\000"
 481 0025 75387838 		.ascii	"u8x8_UserInterfaceMessage\000"
 481      5F557365 
 481      72496E74 
 481      65726661 
 481      63654D65 
 482 003f 00       		.ascii	"\000"
 483 0040 00       		.ascii	"\000"
 484 0041 00       		.ascii	"\000"
 485 0042 00000000 		.ascii	"\000\000\000\000\000\000\000\000"
ARM GAS  C:\Users\info\AppData\Local\Temp\ccNGFWUn.s 			page 38


 485      00000000 
 486 004a 59010000 		.ascii	"Y\001\000\000"
 487 004e 75387838 		.ascii	"u8x8_DrawUTF8\000"
 487      5F447261 
 487      77555446 
 487      3800
 488 005c 00       		.ascii	"\000"
 489 005d 02       		.ascii	"\002"
 490 005e 00       		.ascii	"\000"
 491 005f 00000000 		.ascii	"\000\000\000\000\000\000\000\000"
 491      00000000 
 492 0067 60010000 		.ascii	"`\001\000\000"
 493 006b 75387838 		.ascii	"u8x8_GetStringLineStart\000"
 493      5F476574 
 493      53747269 
 493      6E674C69 
 493      6E655374 
 494 0083 00       		.ascii	"\000"
 495 0084 02       		.ascii	"\002"
 496 0085 00       		.ascii	"\000"
 497 0086 00000000 		.ascii	"\000\000\000\000\000\000\000\000"
 497      00000000 
 498 008e 65010000 		.ascii	"e\001\000\000"
 499 0092 75387838 		.ascii	"u8x8_GetUTF8Len\000"
 499      5F476574 
 499      55544638 
 499      4C656E00 
 500 00a2 00       		.ascii	"\000"
 501 00a3 02       		.ascii	"\002"
 502 00a4 00       		.ascii	"\000"
 503 00a5 00000000 		.ascii	"\000\000\000\000\000\000\000\000"
 503      00000000 
 504 00ad 6A010000 		.ascii	"j\001\000\000"
 505 00b1 75387838 		.ascii	"u8x8_GetStringLineCnt\000"
 505      5F476574 
 505      53747269 
 505      6E674C69 
 505      6E65436E 
 506 00c7 00       		.ascii	"\000"
 507 00c8 02       		.ascii	"\002"
 508 00c9 00       		.ascii	"\000"
 509 00ca 00000000 		.ascii	"\000\000\000\000\000\000\000\000"
 509      00000000 
 510 00d2 6E010000 		.ascii	"n\001\000\000"
 511 00d6 75387838 		.ascii	"u8x8_GetMenuEvent\000"
 511      5F476574 
 511      4D656E75 
 511      4576656E 
 511      7400
 512 00e8 00       		.ascii	"\000"
 513 00e9 02       		.ascii	"\002"
 514 00ea 00       		.ascii	"\000"
 515 00eb 00000000 		.ascii	"\000\000\000\000\000\000\000\000"
 515      00000000 
 516 00f3 72010000 		.ascii	"r\001\000\000"
 517 00f7 75387838 		.ascii	"u8x8_DrawUTF8Lines\000"
 517      5F447261 
ARM GAS  C:\Users\info\AppData\Local\Temp\ccNGFWUn.s 			page 39


 517      77555446 
 517      384C696E 
 517      657300
 518 010a 00       		.ascii	"\000"
 519 010b 02       		.ascii	"\002"
 520 010c 00       		.ascii	"\000"
 521 010d 00000000 		.ascii	"\000\000\000\000\000\000\000\000"
 521      00000000 
 522 0115 74010000 		.ascii	"t\001\000\000"
 523 0119 75387838 		.ascii	"u8x8_DrawUTF8Line\000"
 523      5F447261 
 523      77555446 
 523      384C696E 
 523      6500
 524 012b 00       		.ascii	"\000"
 525 012c 02       		.ascii	"\002"
 526 012d 00       		.ascii	"\000"
 527 012e 00000000 		.ascii	"\000\000\000\000\000\000\000\000"
 527      00000000 
 528 0136 76010000 		.ascii	"v\001\000\000"
 529 013a 75387838 		.ascii	"u8x8_ClearDisplay\000"
 529      5F436C65 
 529      61724469 
 529      73706C61 
 529      7900
 530 014c 00       		.ascii	"\000"
 531 014d 02       		.ascii	"\002"
 532 014e 00       		.ascii	"\000"
 533 014f 00000000 		.ascii	"\000\000\000\000\000\000\000\000"
 533      00000000 
 534 0157 7A010000 		.ascii	"z\001\000\000"
 535              		.text
 536              		.section	.gnu.lto_.opts,"",%progbits
 537 0000 272D666D 		.ascii	"'-fmath-errno' '-fsigned-zeros' '-ftrapping-math' '"
 537      6174682D 
 537      6572726E 
 537      6F272027 
 537      2D667369 
 538 0033 2D666E6F 		.ascii	"-fno-trapv' '-fno-openmp' '-fno-openacc' '-mcpu=cor"
 538      2D747261 
 538      70762720 
 538      272D666E 
 538      6F2D6F70 
 539 0066 7465782D 		.ascii	"tex-m3' '-mthumb' '-g' '-Os' '-ffunction-sections' "
 539      6D332720 
 539      272D6D74 
 539      68756D62 
 539      2720272D 
 540 0099 272D6666 		.ascii	"'-ffat-lto-objects' '-flto'\000"
 540      61742D6C 
 540      746F2D6F 
 540      626A6563 
 540      74732720 
 541              		.text
 542              		.cfi_sections	.debug_frame
 543              		.section	.text.u8x8_draw_button_line,"ax",%progbits
 544              		.align	1
ARM GAS  C:\Users\info\AppData\Local\Temp\ccNGFWUn.s 			page 40


 545              		.global	u8x8_draw_button_line
 546              		.thumb
 547              		.thumb_func
 548              		.type	u8x8_draw_button_line, %function
 549              	u8x8_draw_button_line:
 550              	.LFB0:
 551              		.file 1 "..\\u8g2_csrc\\u8x8_message.c"
   1:..\u8g2_csrc/u8x8_message.c **** /*
   2:..\u8g2_csrc/u8x8_message.c **** 
   3:..\u8g2_csrc/u8x8_message.c ****   u8x8_message.c
   4:..\u8g2_csrc/u8x8_message.c ****   
   5:..\u8g2_csrc/u8x8_message.c ****   Universal 8bit Graphics Library (https://github.com/olikraus/u8g2/)
   6:..\u8g2_csrc/u8x8_message.c **** 
   7:..\u8g2_csrc/u8x8_message.c ****   Copyright (c) 2016, olikraus@gmail.com
   8:..\u8g2_csrc/u8x8_message.c ****   All rights reserved.
   9:..\u8g2_csrc/u8x8_message.c **** 
  10:..\u8g2_csrc/u8x8_message.c ****   Redistribution and use in source and binary forms, with or without modification, 
  11:..\u8g2_csrc/u8x8_message.c ****   are permitted provided that the following conditions are met:
  12:..\u8g2_csrc/u8x8_message.c **** 
  13:..\u8g2_csrc/u8x8_message.c ****   * Redistributions of source code must retain the above copyright notice, this list 
  14:..\u8g2_csrc/u8x8_message.c ****     of conditions and the following disclaimer.
  15:..\u8g2_csrc/u8x8_message.c ****     
  16:..\u8g2_csrc/u8x8_message.c ****   * Redistributions in binary form must reproduce the above copyright notice, this 
  17:..\u8g2_csrc/u8x8_message.c ****     list of conditions and the following disclaimer in the documentation and/or other 
  18:..\u8g2_csrc/u8x8_message.c ****     materials provided with the distribution.
  19:..\u8g2_csrc/u8x8_message.c **** 
  20:..\u8g2_csrc/u8x8_message.c ****   THIS SOFTWARE IS PROVIDED BY THE COPYRIGHT HOLDERS AND 
  21:..\u8g2_csrc/u8x8_message.c ****   CONTRIBUTORS "AS IS" AND ANY EXPRESS OR IMPLIED WARRANTIES, 
  22:..\u8g2_csrc/u8x8_message.c ****   INCLUDING, BUT NOT LIMITED TO, THE IMPLIED WARRANTIES OF 
  23:..\u8g2_csrc/u8x8_message.c ****   MERCHANTABILITY AND FITNESS FOR A PARTICULAR PURPOSE ARE 
  24:..\u8g2_csrc/u8x8_message.c ****   DISCLAIMED. IN NO EVENT SHALL THE COPYRIGHT HOLDER OR 
  25:..\u8g2_csrc/u8x8_message.c ****   CONTRIBUTORS BE LIABLE FOR ANY DIRECT, INDIRECT, INCIDENTAL, 
  26:..\u8g2_csrc/u8x8_message.c ****   SPECIAL, EXEMPLARY, OR CONSEQUENTIAL DAMAGES (INCLUDING, BUT 
  27:..\u8g2_csrc/u8x8_message.c ****   NOT LIMITED TO, PROCUREMENT OF SUBSTITUTE GOODS OR SERVICES; 
  28:..\u8g2_csrc/u8x8_message.c ****   LOSS OF USE, DATA, OR PROFITS; OR BUSINESS INTERRUPTION) HOWEVER 
  29:..\u8g2_csrc/u8x8_message.c ****   CAUSED AND ON ANY THEORY OF LIABILITY, WHETHER IN CONTRACT, 
  30:..\u8g2_csrc/u8x8_message.c ****   STRICT LIABILITY, OR TORT (INCLUDING NEGLIGENCE OR OTHERWISE) 
  31:..\u8g2_csrc/u8x8_message.c ****   ARISING IN ANY WAY OUT OF THE USE OF THIS SOFTWARE, EVEN IF 
  32:..\u8g2_csrc/u8x8_message.c ****   ADVISED OF THE POSSIBILITY OF SUCH DAMAGE.  
  33:..\u8g2_csrc/u8x8_message.c ****   
  34:..\u8g2_csrc/u8x8_message.c **** */
  35:..\u8g2_csrc/u8x8_message.c **** 
  36:..\u8g2_csrc/u8x8_message.c **** #include "u8x8.h"
  37:..\u8g2_csrc/u8x8_message.c **** 
  38:..\u8g2_csrc/u8x8_message.c **** uint8_t u8x8_draw_button_line(u8x8_t *u8x8, uint8_t y, uint8_t w, uint8_t cursor, const char *s)
  39:..\u8g2_csrc/u8x8_message.c **** {
 552              		.loc 1 39 0
 553              		.cfi_startproc
 554              		@ args = 4, pretend = 0, frame = 0
 555              		@ frame_needed = 0, uses_anonymous_args = 0
 556              	.LVL0:
 557 0000 2DE9F84F 		push	{r3, r4, r5, r6, r7, r8, r9, r10, fp, lr}
 558              		.cfi_def_cfa_offset 40
 559              		.cfi_offset 3, -40
 560              		.cfi_offset 4, -36
 561              		.cfi_offset 5, -32
 562              		.cfi_offset 6, -28
ARM GAS  C:\Users\info\AppData\Local\Temp\ccNGFWUn.s 			page 41


 563              		.cfi_offset 7, -24
 564              		.cfi_offset 8, -20
 565              		.cfi_offset 9, -16
 566              		.cfi_offset 10, -12
 567              		.cfi_offset 11, -8
 568              		.cfi_offset 14, -4
 569              		.loc 1 39 0
 570 0004 0646     		mov	r6, r0
  40:..\u8g2_csrc/u8x8_message.c ****   uint8_t i;
  41:..\u8g2_csrc/u8x8_message.c ****   uint8_t cnt;
  42:..\u8g2_csrc/u8x8_message.c ****   uint8_t total;
  43:..\u8g2_csrc/u8x8_message.c ****   uint8_t d;
  44:..\u8g2_csrc/u8x8_message.c ****   uint8_t x;
  45:..\u8g2_csrc/u8x8_message.c ****   cnt = u8x8_GetStringLineCnt(s);
 571              		.loc 1 45 0
 572 0006 0A98     		ldr	r0, [sp, #40]
 573              	.LVL1:
  39:..\u8g2_csrc/u8x8_message.c ****   uint8_t i;
 574              		.loc 1 39 0
 575 0008 8846     		mov	r8, r1
 576 000a 1546     		mov	r5, r2
 577 000c 9946     		mov	r9, r3
 578              		.loc 1 45 0
 579 000e FFF7FEFF 		bl	u8x8_GetStringLineCnt
 580              	.LVL2:
  46:..\u8g2_csrc/u8x8_message.c ****   
  47:..\u8g2_csrc/u8x8_message.c ****   /* calculate the width of the button */
  48:..\u8g2_csrc/u8x8_message.c ****   total = 0;
  49:..\u8g2_csrc/u8x8_message.c ****   for( i = 0; i < cnt; i++ )
 581              		.loc 1 49 0
 582 0012 4FF0000A 		mov	r10, #0
  45:..\u8g2_csrc/u8x8_message.c ****   
 583              		.loc 1 45 0
 584 0016 0746     		mov	r7, r0
 585              	.LVL3:
  48:..\u8g2_csrc/u8x8_message.c ****   for( i = 0; i < cnt; i++ )
 586              		.loc 1 48 0
 587 0018 5446     		mov	r4, r10
 588              	.LVL4:
 589              	.L2:
 590 001a 5FFA8AF0 		uxtb	r0, r10
 591              	.LVL5:
 592              		.loc 1 49 0 discriminator 1
 593 001e B842     		cmp	r0, r7
 594 0020 0BD2     		bcs	.L10
  50:..\u8g2_csrc/u8x8_message.c ****   {
  51:..\u8g2_csrc/u8x8_message.c ****     total += u8x8_GetUTF8Len(u8x8, u8x8_GetStringLineStart(i, s));
 595              		.loc 1 51 0 discriminator 3
 596 0022 0A99     		ldr	r1, [sp, #40]
 597 0024 FFF7FEFF 		bl	u8x8_GetStringLineStart
 598              	.LVL6:
 599 0028 0146     		mov	r1, r0
 600 002a 3046     		mov	r0, r6
 601 002c FFF7FEFF 		bl	u8x8_GetUTF8Len
 602              	.LVL7:
 603 0030 2044     		add	r0, r0, r4
 604 0032 C4B2     		uxtb	r4, r0
ARM GAS  C:\Users\info\AppData\Local\Temp\ccNGFWUn.s 			page 42


 605              	.LVL8:
 606 0034 0AF1010A 		add	r10, r10, #1
 607              	.LVL9:
 608 0038 EFE7     		b	.L2
 609              	.LVL10:
 610              	.L10:
  52:..\u8g2_csrc/u8x8_message.c ****   }
  53:..\u8g2_csrc/u8x8_message.c ****   total += (cnt-1);	/* had one space between the buttons */
 611              		.loc 1 53 0
 612 003a 781E     		subs	r0, r7, #1
 613              	.LVL11:
 614 003c 0444     		add	r4, r4, r0
 615              	.LVL12:
 616 003e E4B2     		uxtb	r4, r4
 617              	.LVL13:
  54:..\u8g2_csrc/u8x8_message.c ****   
  55:..\u8g2_csrc/u8x8_message.c ****   /* calculate the left offset */
  56:..\u8g2_csrc/u8x8_message.c ****   d = 0;
  57:..\u8g2_csrc/u8x8_message.c ****   if ( total < w )
 618              		.loc 1 57 0
 619 0040 AC42     		cmp	r4, r5
 620              	.LVL14:
  58:..\u8g2_csrc/u8x8_message.c ****   {
  59:..\u8g2_csrc/u8x8_message.c ****     d = w;
  60:..\u8g2_csrc/u8x8_message.c ****     d -= total;
  61:..\u8g2_csrc/u8x8_message.c ****     d /= 2;
 621              		.loc 1 61 0
 622 0042 38BF     		it	cc
 623 0044 2C1B     		subcc	r4, r5, r4
 624              	.LVL15:
  62:..\u8g2_csrc/u8x8_message.c ****   }
  63:..\u8g2_csrc/u8x8_message.c ****   
  64:..\u8g2_csrc/u8x8_message.c ****   /* draw the buttons */
  65:..\u8g2_csrc/u8x8_message.c ****   x = d;
  66:..\u8g2_csrc/u8x8_message.c ****   u8x8_SetInverseFont(u8x8, 0);
 625              		.loc 1 66 0
 626 0046 4FF00005 		mov	r5, #0
  67:..\u8g2_csrc/u8x8_message.c ****   for( i = 0; i < cnt; i++ )
  68:..\u8g2_csrc/u8x8_message.c ****   {
  69:..\u8g2_csrc/u8x8_message.c ****     if ( i == cursor )
  70:..\u8g2_csrc/u8x8_message.c ****       u8x8_SetInverseFont(u8x8, 1);
  71:..\u8g2_csrc/u8x8_message.c ****       
  72:..\u8g2_csrc/u8x8_message.c ****     x+=u8x8_DrawUTF8(u8x8, x, y, u8x8_GetStringLineStart(i, s));
  73:..\u8g2_csrc/u8x8_message.c ****     u8x8_SetInverseFont(u8x8, 0);
 627              		.loc 1 73 0
 628 004a AB46     		mov	fp, r5
  61:..\u8g2_csrc/u8x8_message.c ****   }
 629              		.loc 1 61 0
 630 004c 34BF     		ite	cc
 631 004e C4F34604 		ubfxcc	r4, r4, #1, #7
 632              	.LVL16:
  56:..\u8g2_csrc/u8x8_message.c ****   if ( total < w )
 633              		.loc 1 56 0
 634 0052 0024     		movcs	r4, #0
 635              	.LVL17:
  66:..\u8g2_csrc/u8x8_message.c ****   for( i = 0; i < cnt; i++ )
 636              		.loc 1 66 0
ARM GAS  C:\Users\info\AppData\Local\Temp\ccNGFWUn.s 			page 43


 637 0054 86F82350 		strb	r5, [r6, #35]
 638              	.LVL18:
  70:..\u8g2_csrc/u8x8_message.c ****       
 639              		.loc 1 70 0
 640 0058 4FF0010A 		mov	r10, #1
 641              	.LVL19:
 642              	.L5:
 643 005c E8B2     		uxtb	r0, r5
 644              	.LVL20:
  67:..\u8g2_csrc/u8x8_message.c ****   {
 645              		.loc 1 67 0 discriminator 1
 646 005e B842     		cmp	r0, r7
 647 0060 1AD2     		bcs	.L11
  69:..\u8g2_csrc/u8x8_message.c ****       u8x8_SetInverseFont(u8x8, 1);
 648              		.loc 1 69 0
 649 0062 4845     		cmp	r0, r9
  70:..\u8g2_csrc/u8x8_message.c ****       
 650              		.loc 1 70 0
 651 0064 08BF     		it	eq
 652 0066 86F823A0 		strbeq	r10, [r6, #35]
  72:..\u8g2_csrc/u8x8_message.c ****     u8x8_SetInverseFont(u8x8, 0);
 653              		.loc 1 72 0
 654 006a 0A99     		ldr	r1, [sp, #40]
 655 006c FFF7FEFF 		bl	u8x8_GetStringLineStart
 656              	.LVL21:
 657 0070 2146     		mov	r1, r4
 658 0072 0346     		mov	r3, r0
 659 0074 4246     		mov	r2, r8
 660 0076 3046     		mov	r0, r6
 661 0078 FFF7FEFF 		bl	u8x8_DrawUTF8
 662              	.LVL22:
 663 007c 2044     		add	r0, r0, r4
 664 007e C4B2     		uxtb	r4, r0
 665              	.LVL23:
  74:..\u8g2_csrc/u8x8_message.c ****     x+=u8x8_DrawUTF8(u8x8, x, y, " ");
 666              		.loc 1 74 0
 667 0080 2146     		mov	r1, r4
  73:..\u8g2_csrc/u8x8_message.c ****     x+=u8x8_DrawUTF8(u8x8, x, y, " ");
 668              		.loc 1 73 0
 669 0082 86F823B0 		strb	fp, [r6, #35]
 670              		.loc 1 74 0
 671 0086 064B     		ldr	r3, .L12
 672 0088 4246     		mov	r2, r8
 673 008a 3046     		mov	r0, r6
 674 008c FFF7FEFF 		bl	u8x8_DrawUTF8
 675              	.LVL24:
 676 0090 2044     		add	r0, r0, r4
 677 0092 C4B2     		uxtb	r4, r0
 678              	.LVL25:
 679 0094 0135     		adds	r5, r5, #1
 680              	.LVL26:
 681 0096 E1E7     		b	.L5
 682              	.LVL27:
 683              	.L11:
  75:..\u8g2_csrc/u8x8_message.c ****   }
  76:..\u8g2_csrc/u8x8_message.c ****   
  77:..\u8g2_csrc/u8x8_message.c ****   /* return the number of buttons */
ARM GAS  C:\Users\info\AppData\Local\Temp\ccNGFWUn.s 			page 44


  78:..\u8g2_csrc/u8x8_message.c ****   return cnt;
  79:..\u8g2_csrc/u8x8_message.c **** }
 684              		.loc 1 79 0
 685 0098 3846     		mov	r0, r7
 686              	.LVL28:
 687 009a BDE8F88F 		pop	{r3, r4, r5, r6, r7, r8, r9, r10, fp, pc}
 688              	.LVL29:
 689              	.L13:
 690 009e 00BF     		.align	2
 691              	.L12:
 692 00a0 00000000 		.word	.LC0
 693              		.cfi_endproc
 694              	.LFE0:
 695              		.size	u8x8_draw_button_line, .-u8x8_draw_button_line
 696              		.section	.text.u8x8_UserInterfaceMessage,"ax",%progbits
 697              		.align	1
 698              		.global	u8x8_UserInterfaceMessage
 699              		.thumb
 700              		.thumb_func
 701              		.type	u8x8_UserInterfaceMessage, %function
 702              	u8x8_UserInterfaceMessage:
 703              	.LFB1:
  80:..\u8g2_csrc/u8x8_message.c **** 
  81:..\u8g2_csrc/u8x8_message.c **** /*
  82:..\u8g2_csrc/u8x8_message.c ****   title1:	Multiple lines,separated by '\n'
  83:..\u8g2_csrc/u8x8_message.c ****   title2:	A single line/string which is terminated by '\0' or '\n' . "title2" accepts the return va
  84:..\u8g2_csrc/u8x8_message.c ****   title3:	Multiple lines,separated by '\n'
  85:..\u8g2_csrc/u8x8_message.c ****   buttons:	one more more buttons separated by '\n' and terminated with '\0'
  86:..\u8g2_csrc/u8x8_message.c **** */
  87:..\u8g2_csrc/u8x8_message.c **** 
  88:..\u8g2_csrc/u8x8_message.c **** uint8_t u8x8_UserInterfaceMessage(u8x8_t *u8x8, const char *title1, const char *title2, const char 
  89:..\u8g2_csrc/u8x8_message.c **** {
 704              		.loc 1 89 0
 705              		.cfi_startproc
 706              		@ args = 4, pretend = 0, frame = 0
 707              		@ frame_needed = 0, uses_anonymous_args = 0
 708              	.LVL30:
 709 0000 2DE9F743 		push	{r0, r1, r2, r4, r5, r6, r7, r8, r9, lr}
 710              		.cfi_def_cfa_offset 40
 711              		.cfi_offset 4, -28
 712              		.cfi_offset 5, -24
 713              		.cfi_offset 6, -20
 714              		.cfi_offset 7, -16
 715              		.cfi_offset 8, -12
 716              		.cfi_offset 9, -8
 717              		.cfi_offset 14, -4
 718              		.loc 1 89 0
 719 0004 1546     		mov	r5, r2
 720 0006 9846     		mov	r8, r3
  90:..\u8g2_csrc/u8x8_message.c ****   uint8_t height;
  91:..\u8g2_csrc/u8x8_message.c ****   uint8_t y;
  92:..\u8g2_csrc/u8x8_message.c ****   uint8_t cursor = 0;
  93:..\u8g2_csrc/u8x8_message.c ****   uint8_t button_cnt;
  94:..\u8g2_csrc/u8x8_message.c ****   uint8_t event;
  95:..\u8g2_csrc/u8x8_message.c **** 
  96:..\u8g2_csrc/u8x8_message.c ****   u8x8_SetInverseFont(u8x8, 0);
 721              		.loc 1 96 0
ARM GAS  C:\Users\info\AppData\Local\Temp\ccNGFWUn.s 			page 45


 722 0008 0023     		movs	r3, #0
 723              	.LVL31:
  89:..\u8g2_csrc/u8x8_message.c ****   uint8_t height;
 724              		.loc 1 89 0
 725 000a 0646     		mov	r6, r0
 726              		.loc 1 96 0
 727 000c 80F82330 		strb	r3, [r0, #35]
 728              	.LVL32:
  97:..\u8g2_csrc/u8x8_message.c ****   
  98:..\u8g2_csrc/u8x8_message.c ****   /* calculate overall height of the message box */
  99:..\u8g2_csrc/u8x8_message.c ****   height = 1;	/* button line */
 100:..\u8g2_csrc/u8x8_message.c ****   height += u8x8_GetStringLineCnt(title1);
 729              		.loc 1 100 0
 730 0010 0846     		mov	r0, r1
 731              	.LVL33:
  89:..\u8g2_csrc/u8x8_message.c ****   uint8_t height;
 732              		.loc 1 89 0
 733 0012 8946     		mov	r9, r1
 734 0014 0A9F     		ldr	r7, [sp, #40]
 735              		.loc 1 100 0
 736 0016 FFF7FEFF 		bl	u8x8_GetStringLineCnt
 737              	.LVL34:
 101:..\u8g2_csrc/u8x8_message.c ****   if ( title2 != NULL )
 738              		.loc 1 101 0
 739 001a 0DB9     		cbnz	r5, .L15
 100:..\u8g2_csrc/u8x8_message.c ****   if ( title2 != NULL )
 740              		.loc 1 100 0
 741 001c 0130     		adds	r0, r0, #1
 742              	.LVL35:
 743 001e 00E0     		b	.L39
 744              	.LVL36:
 745              	.L15:
 102:..\u8g2_csrc/u8x8_message.c ****     height ++;
 746              		.loc 1 102 0
 747 0020 0230     		adds	r0, r0, #2
 748              	.LVL37:
 749              	.L39:
 750 0022 C4B2     		uxtb	r4, r0
 751              	.LVL38:
 103:..\u8g2_csrc/u8x8_message.c ****   height += u8x8_GetStringLineCnt(title3);
 752              		.loc 1 103 0
 753 0024 4046     		mov	r0, r8
 754 0026 FFF7FEFF 		bl	u8x8_GetStringLineCnt
 755              	.LVL39:
 104:..\u8g2_csrc/u8x8_message.c ****   
 105:..\u8g2_csrc/u8x8_message.c ****   /* calculate offset from top */
 106:..\u8g2_csrc/u8x8_message.c ****   y = 0;
 107:..\u8g2_csrc/u8x8_message.c ****   if ( height < u8x8_GetRows(u8x8)  )
 756              		.loc 1 107 0
 757 002a 3368     		ldr	r3, [r6]
 103:..\u8g2_csrc/u8x8_message.c ****   height += u8x8_GetStringLineCnt(title3);
 758              		.loc 1 103 0
 759 002c 2044     		add	r0, r0, r4
 760              		.loc 1 107 0
 761 002e 5C7C     		ldrb	r4, [r3, #17]	@ zero_extendqisi2
 762              	.LVL40:
 103:..\u8g2_csrc/u8x8_message.c ****   height += u8x8_GetStringLineCnt(title3);
ARM GAS  C:\Users\info\AppData\Local\Temp\ccNGFWUn.s 			page 46


 763              		.loc 1 103 0
 764 0030 C0B2     		uxtb	r0, r0
 765              	.LVL41:
 766              		.loc 1 107 0
 767 0032 A042     		cmp	r0, r4
 768              	.LVL42:
 108:..\u8g2_csrc/u8x8_message.c ****   {
 109:..\u8g2_csrc/u8x8_message.c ****     y = u8x8_GetRows(u8x8);
 110:..\u8g2_csrc/u8x8_message.c ****     y -= height;
 769              		.loc 1 110 0
 770 0034 38BF     		it	cc
 771 0036 241A     		subcc	r4, r4, r0
 772              	.LVL43:
 111:..\u8g2_csrc/u8x8_message.c ****     y /= 2;
 112:..\u8g2_csrc/u8x8_message.c ****   }
 113:..\u8g2_csrc/u8x8_message.c **** 
 114:..\u8g2_csrc/u8x8_message.c ****   /* draw message box */
 115:..\u8g2_csrc/u8x8_message.c ****   
 116:..\u8g2_csrc/u8x8_message.c ****   u8x8_ClearDisplay(u8x8);   /* required, because not everything is filled */
 773              		.loc 1 116 0
 774 0038 3046     		mov	r0, r6
 775              	.LVL44:
 111:..\u8g2_csrc/u8x8_message.c ****     y /= 2;
 776              		.loc 1 111 0
 777 003a 34BF     		ite	cc
 778 003c C4F34604 		ubfxcc	r4, r4, #1, #7
 779              	.LVL45:
 106:..\u8g2_csrc/u8x8_message.c ****   if ( height < u8x8_GetRows(u8x8)  )
 780              		.loc 1 106 0
 781 0040 0024     		movcs	r4, #0
 782              	.LVL46:
 783              		.loc 1 116 0
 784 0042 FFF7FEFF 		bl	u8x8_ClearDisplay
 785              	.LVL47:
 117:..\u8g2_csrc/u8x8_message.c ****   
 118:..\u8g2_csrc/u8x8_message.c ****   y += u8x8_DrawUTF8Lines(u8x8, 0, y, u8x8_GetCols(u8x8), title1);
 786              		.loc 1 118 0
 787 0046 3368     		ldr	r3, [r6]
 788 0048 2246     		mov	r2, r4
 789 004a 1B7C     		ldrb	r3, [r3, #16]	@ zero_extendqisi2
 790 004c 0021     		movs	r1, #0
 791 004e CDF80090 		str	r9, [sp]
 792 0052 3046     		mov	r0, r6
 793 0054 FFF7FEFF 		bl	u8x8_DrawUTF8Lines
 794              	.LVL48:
 795 0058 2044     		add	r0, r0, r4
 796 005a C4B2     		uxtb	r4, r0
 797              	.LVL49:
 119:..\u8g2_csrc/u8x8_message.c ****   if ( title2 != NULL )
 798              		.loc 1 119 0
 799 005c 4DB1     		cbz	r5, .L18
 120:..\u8g2_csrc/u8x8_message.c ****   {
 121:..\u8g2_csrc/u8x8_message.c ****     u8x8_DrawUTF8Line(u8x8, 0, y, u8x8_GetCols(u8x8), title2);
 800              		.loc 1 121 0
 801 005e 3368     		ldr	r3, [r6]
 802 0060 2246     		mov	r2, r4
 803 0062 1B7C     		ldrb	r3, [r3, #16]	@ zero_extendqisi2
ARM GAS  C:\Users\info\AppData\Local\Temp\ccNGFWUn.s 			page 47


 804 0064 0021     		movs	r1, #0
 805 0066 0095     		str	r5, [sp]
 806 0068 3046     		mov	r0, r6
 807 006a FFF7FEFF 		bl	u8x8_DrawUTF8Line
 808              	.LVL50:
 122:..\u8g2_csrc/u8x8_message.c ****     y++;
 809              		.loc 1 122 0
 810 006e 0134     		adds	r4, r4, #1
 811              	.LVL51:
 812 0070 E4B2     		uxtb	r4, r4
 813              	.LVL52:
 814              	.L18:
 123:..\u8g2_csrc/u8x8_message.c ****   }
 124:..\u8g2_csrc/u8x8_message.c ****   y += u8x8_DrawUTF8Lines(u8x8, 0, y, u8x8_GetCols(u8x8), title3);
 815              		.loc 1 124 0
 816 0072 3368     		ldr	r3, [r6]
 817 0074 2246     		mov	r2, r4
 818 0076 1B7C     		ldrb	r3, [r3, #16]	@ zero_extendqisi2
 819 0078 0021     		movs	r1, #0
 820 007a CDF80080 		str	r8, [sp]
 821 007e 3046     		mov	r0, r6
 822 0080 FFF7FEFF 		bl	u8x8_DrawUTF8Lines
 823              	.LVL53:
 125:..\u8g2_csrc/u8x8_message.c **** 
 126:..\u8g2_csrc/u8x8_message.c ****   button_cnt = u8x8_draw_button_line(u8x8, y, u8x8_GetCols(u8x8), cursor, buttons);
 824              		.loc 1 126 0
 825 0084 3368     		ldr	r3, [r6]
 124:..\u8g2_csrc/u8x8_message.c **** 
 826              		.loc 1 124 0
 827 0086 2044     		add	r0, r0, r4
 828 0088 C5B2     		uxtb	r5, r0
 829              	.LVL54:
 830              		.loc 1 126 0
 831 008a 1A7C     		ldrb	r2, [r3, #16]	@ zero_extendqisi2
 832 008c 2946     		mov	r1, r5
 833 008e 0097     		str	r7, [sp]
 834 0090 0023     		movs	r3, #0
 835 0092 3046     		mov	r0, r6
 836 0094 FFF7FEFF 		bl	u8x8_draw_button_line
 837              	.LVL55:
 838 0098 8046     		mov	r8, r0
 839              	.LVL56:
  92:..\u8g2_csrc/u8x8_message.c ****   uint8_t button_cnt;
 840              		.loc 1 92 0
 841 009a 0024     		movs	r4, #0
 842              	.LVL57:
 843              	.L19:
 127:..\u8g2_csrc/u8x8_message.c ****   
 128:..\u8g2_csrc/u8x8_message.c ****   for(;;)
 129:..\u8g2_csrc/u8x8_message.c ****   {
 130:..\u8g2_csrc/u8x8_message.c ****     event = u8x8_GetMenuEvent(u8x8);
 844              		.loc 1 130 0
 845 009c 3046     		mov	r0, r6
 846 009e FFF7FEFF 		bl	u8x8_GetMenuEvent
 847              	.LVL58:
 131:..\u8g2_csrc/u8x8_message.c ****     if ( event == U8X8_MSG_GPIO_MENU_SELECT )
 848              		.loc 1 131 0
ARM GAS  C:\Users\info\AppData\Local\Temp\ccNGFWUn.s 			page 48


 849 00a2 5028     		cmp	r0, #80
 850 00a4 02D1     		bne	.L20
 132:..\u8g2_csrc/u8x8_message.c ****       return cursor+1;
 851              		.loc 1 132 0
 852 00a6 601C     		adds	r0, r4, #1
 853              	.LVL59:
 854 00a8 C0B2     		uxtb	r0, r0
 855 00aa 1EE0     		b	.L21
 856              	.LVL60:
 857              	.L20:
 133:..\u8g2_csrc/u8x8_message.c ****     else if ( event == U8X8_MSG_GPIO_MENU_HOME )
 858              		.loc 1 133 0
 859 00ac 5328     		cmp	r0, #83
 860 00ae 1BD0     		beq	.L29
 134:..\u8g2_csrc/u8x8_message.c ****       break;
 135:..\u8g2_csrc/u8x8_message.c ****     else if ( event == U8X8_MSG_GPIO_MENU_NEXT || event == U8X8_MSG_GPIO_MENU_UP )
 861              		.loc 1 135 0
 862 00b0 5128     		cmp	r0, #81
 863 00b2 01D0     		beq	.L22
 864              		.loc 1 135 0 is_stmt 0 discriminator 1
 865 00b4 5428     		cmp	r0, #84
 866 00b6 05D1     		bne	.L23
 867              	.L22:
 136:..\u8g2_csrc/u8x8_message.c ****     {
 137:..\u8g2_csrc/u8x8_message.c ****       cursor++;
 868              		.loc 1 137 0 is_stmt 1
 869 00b8 0134     		adds	r4, r4, #1
 870              	.LVL61:
 871 00ba E4B2     		uxtb	r4, r4
 872              	.LVL62:
 138:..\u8g2_csrc/u8x8_message.c ****       if ( cursor >= button_cnt )
 139:..\u8g2_csrc/u8x8_message.c **** 	cursor = 0;
 873              		.loc 1 139 0
 874 00bc A045     		cmp	r8, r4
 875 00be 98BF     		it	ls
 876 00c0 0024     		movls	r4, #0
 877              	.LVL63:
 878 00c2 08E0     		b	.L40
 879              	.L23:
 140:..\u8g2_csrc/u8x8_message.c ****       u8x8_draw_button_line(u8x8, y, u8x8_GetCols(u8x8), cursor, buttons);
 141:..\u8g2_csrc/u8x8_message.c ****     }
 142:..\u8g2_csrc/u8x8_message.c ****     else if ( event == U8X8_MSG_GPIO_MENU_PREV || event == U8X8_MSG_GPIO_MENU_DOWN  )
 880              		.loc 1 142 0
 881 00c4 5228     		cmp	r0, #82
 882 00c6 01D0     		beq	.L26
 883              		.loc 1 142 0 is_stmt 0 discriminator 1
 884 00c8 5528     		cmp	r0, #85
 885 00ca E7D1     		bne	.L19
 886              	.L26:
 143:..\u8g2_csrc/u8x8_message.c ****     {
 144:..\u8g2_csrc/u8x8_message.c ****       if ( cursor == 0 )
 145:..\u8g2_csrc/u8x8_message.c **** 	cursor = button_cnt;
 887              		.loc 1 145 0 is_stmt 1
 888 00cc 002C     		cmp	r4, #0
 889 00ce 08BF     		it	eq
 890 00d0 4446     		moveq	r4, r8
 891              	.LVL64:
ARM GAS  C:\Users\info\AppData\Local\Temp\ccNGFWUn.s 			page 49


 146:..\u8g2_csrc/u8x8_message.c ****       cursor--;
 892              		.loc 1 146 0
 893 00d2 013C     		subs	r4, r4, #1
 894              	.LVL65:
 895 00d4 E4B2     		uxtb	r4, r4
 896              	.LVL66:
 897              	.L40:
 147:..\u8g2_csrc/u8x8_message.c ****       u8x8_draw_button_line(u8x8, y, u8x8_GetCols(u8x8), cursor, buttons);
 898              		.loc 1 147 0
 899 00d6 3368     		ldr	r3, [r6]
 900 00d8 2946     		mov	r1, r5
 901 00da 1A7C     		ldrb	r2, [r3, #16]	@ zero_extendqisi2
 902 00dc 3046     		mov	r0, r6
 903              	.LVL67:
 904 00de 0097     		str	r7, [sp]
 905 00e0 2346     		mov	r3, r4
 906 00e2 FFF7FEFF 		bl	u8x8_draw_button_line
 907              	.LVL68:
 908 00e6 D9E7     		b	.L19
 909              	.LVL69:
 910              	.L29:
 148:..\u8g2_csrc/u8x8_message.c ****     }    
 149:..\u8g2_csrc/u8x8_message.c ****   }  
 150:..\u8g2_csrc/u8x8_message.c ****   return 0;
 911              		.loc 1 150 0
 912 00e8 0020     		movs	r0, #0
 913              	.LVL70:
 914              	.L21:
 151:..\u8g2_csrc/u8x8_message.c **** }
 915              		.loc 1 151 0
 916 00ea 03B0     		add	sp, sp, #12
 917              		.cfi_def_cfa_offset 28
 918              		@ sp needed
 919 00ec BDE8F083 		pop	{r4, r5, r6, r7, r8, r9, pc}
 920              		.cfi_endproc
 921              	.LFE1:
 922              		.size	u8x8_UserInterfaceMessage, .-u8x8_UserInterfaceMessage
 923              		.section	.rodata.str1.1,"aMS",%progbits,1
 924              	.LC0:
 925 0000 2000     		.ascii	" \000"
 926              		.text
 927              	.Letext0:
 928              		.file 2 "c:\\program files (x86)\\cypress\\psoc creator\\4.2\\psoc creator\\import\\gnu\\arm\\5.4.
 929              		.file 3 "c:\\program files (x86)\\cypress\\psoc creator\\4.2\\psoc creator\\import\\gnu\\arm\\5.4.
 930              		.file 4 "..\\u8g2_csrc\\u8x8.h"