ARM GAS  C:\Users\info\AppData\Local\Temp\cciH2G0h.s 			page 1


   1              		.syntax unified
   2              		.cpu cortex-m3
   3              		.fpu softvfp
   4              		.eabi_attribute 20, 1
   5              		.eabi_attribute 21, 1
   6              		.eabi_attribute 23, 3
   7              		.eabi_attribute 24, 1
   8              		.eabi_attribute 25, 1
   9              		.eabi_attribute 26, 1
  10              		.eabi_attribute 30, 2
  11              		.eabi_attribute 34, 1
  12              		.eabi_attribute 18, 4
  13              		.thumb
  14              		.syntax unified
  15              		.file	"u8x8_d_ssd1309.c"
  16              		.text
  17              	.Ltext0:
  18              		.cfi_sections	.debug_frame
  19              		.section	.text.u8x8_d_ssd1309_128x64_noname2,"ax",%progbits
  20              		.align	2
  21              		.global	u8x8_d_ssd1309_128x64_noname2
  22              		.thumb
  23              		.thumb_func
  24              		.type	u8x8_d_ssd1309_128x64_noname2, %function
  25              	u8x8_d_ssd1309_128x64_noname2:
  26              	.LFB1:
  27              		.file 1 "..\\u8g2-master\\csrc\\u8x8_d_ssd1309.c"
   1:..\u8g2-master\csrc/u8x8_d_ssd1309.c **** /*
   2:..\u8g2-master\csrc/u8x8_d_ssd1309.c **** 
   3:..\u8g2-master\csrc/u8x8_d_ssd1309.c ****   u8x8_d_ssd1309.c
   4:..\u8g2-master\csrc/u8x8_d_ssd1309.c **** 
   5:..\u8g2-master\csrc/u8x8_d_ssd1309.c ****   Universal 8bit Graphics Library (https://github.com/olikraus/u8g2/)
   6:..\u8g2-master\csrc/u8x8_d_ssd1309.c **** 
   7:..\u8g2-master\csrc/u8x8_d_ssd1309.c ****   Copyright (c) 2017, olikraus@gmail.com
   8:..\u8g2-master\csrc/u8x8_d_ssd1309.c ****   All rights reserved.
   9:..\u8g2-master\csrc/u8x8_d_ssd1309.c **** 
  10:..\u8g2-master\csrc/u8x8_d_ssd1309.c ****   Redistribution and use in source and binary forms, with or without modification, 
  11:..\u8g2-master\csrc/u8x8_d_ssd1309.c ****   are permitted provided that the following conditions are met:
  12:..\u8g2-master\csrc/u8x8_d_ssd1309.c **** 
  13:..\u8g2-master\csrc/u8x8_d_ssd1309.c ****   * Redistributions of source code must retain the above copyright notice, this list 
  14:..\u8g2-master\csrc/u8x8_d_ssd1309.c ****     of conditions and the following disclaimer.
  15:..\u8g2-master\csrc/u8x8_d_ssd1309.c ****     
  16:..\u8g2-master\csrc/u8x8_d_ssd1309.c ****   * Redistributions in binary form must reproduce the above copyright notice, this 
  17:..\u8g2-master\csrc/u8x8_d_ssd1309.c ****     list of conditions and the following disclaimer in the documentation and/or other 
  18:..\u8g2-master\csrc/u8x8_d_ssd1309.c ****     materials provided with the distribution.
  19:..\u8g2-master\csrc/u8x8_d_ssd1309.c **** 
  20:..\u8g2-master\csrc/u8x8_d_ssd1309.c ****   THIS SOFTWARE IS PROVIDED BY THE COPYRIGHT HOLDERS AND 
  21:..\u8g2-master\csrc/u8x8_d_ssd1309.c ****   CONTRIBUTORS "AS IS" AND ANY EXPRESS OR IMPLIED WARRANTIES, 
  22:..\u8g2-master\csrc/u8x8_d_ssd1309.c ****   INCLUDING, BUT NOT LIMITED TO, THE IMPLIED WARRANTIES OF 
  23:..\u8g2-master\csrc/u8x8_d_ssd1309.c ****   MERCHANTABILITY AND FITNESS FOR A PARTICULAR PURPOSE ARE 
  24:..\u8g2-master\csrc/u8x8_d_ssd1309.c ****   DISCLAIMED. IN NO EVENT SHALL THE COPYRIGHT HOLDER OR 
  25:..\u8g2-master\csrc/u8x8_d_ssd1309.c ****   CONTRIBUTORS BE LIABLE FOR ANY DIRECT, INDIRECT, INCIDENTAL, 
  26:..\u8g2-master\csrc/u8x8_d_ssd1309.c ****   SPECIAL, EXEMPLARY, OR CONSEQUENTIAL DAMAGES (INCLUDING, BUT 
  27:..\u8g2-master\csrc/u8x8_d_ssd1309.c ****   NOT LIMITED TO, PROCUREMENT OF SUBSTITUTE GOODS OR SERVICES; 
  28:..\u8g2-master\csrc/u8x8_d_ssd1309.c ****   LOSS OF USE, DATA, OR PROFITS; OR BUSINESS INTERRUPTION) HOWEVER 
  29:..\u8g2-master\csrc/u8x8_d_ssd1309.c ****   CAUSED AND ON ANY THEORY OF LIABILITY, WHETHER IN CONTRACT, 
  30:..\u8g2-master\csrc/u8x8_d_ssd1309.c ****   STRICT LIABILITY, OR TORT (INCLUDING NEGLIGENCE OR OTHERWISE) 
ARM GAS  C:\Users\info\AppData\Local\Temp\cciH2G0h.s 			page 2


  31:..\u8g2-master\csrc/u8x8_d_ssd1309.c ****   ARISING IN ANY WAY OUT OF THE USE OF THIS SOFTWARE, EVEN IF 
  32:..\u8g2-master\csrc/u8x8_d_ssd1309.c ****   ADVISED OF THE POSSIBILITY OF SUCH DAMAGE.  
  33:..\u8g2-master\csrc/u8x8_d_ssd1309.c ****   
  34:..\u8g2-master\csrc/u8x8_d_ssd1309.c **** */
  35:..\u8g2-master\csrc/u8x8_d_ssd1309.c **** 
  36:..\u8g2-master\csrc/u8x8_d_ssd1309.c **** 
  37:..\u8g2-master\csrc/u8x8_d_ssd1309.c **** #include "u8x8.h"
  38:..\u8g2-master\csrc/u8x8_d_ssd1309.c **** 
  39:..\u8g2-master\csrc/u8x8_d_ssd1309.c **** 
  40:..\u8g2-master\csrc/u8x8_d_ssd1309.c **** 
  41:..\u8g2-master\csrc/u8x8_d_ssd1309.c **** 
  42:..\u8g2-master\csrc/u8x8_d_ssd1309.c **** static const uint8_t u8x8_d_ssd1309_powersave0_seq[] = {
  43:..\u8g2-master\csrc/u8x8_d_ssd1309.c ****   U8X8_START_TRANSFER(),             	/* enable chip, delay is part of the transfer start */
  44:..\u8g2-master\csrc/u8x8_d_ssd1309.c ****   U8X8_C(0x0af),		                /* display on */
  45:..\u8g2-master\csrc/u8x8_d_ssd1309.c ****   U8X8_END_TRANSFER(),             	/* disable chip */
  46:..\u8g2-master\csrc/u8x8_d_ssd1309.c ****   U8X8_END()             			/* end of sequence */
  47:..\u8g2-master\csrc/u8x8_d_ssd1309.c **** };
  48:..\u8g2-master\csrc/u8x8_d_ssd1309.c **** 
  49:..\u8g2-master\csrc/u8x8_d_ssd1309.c **** static const uint8_t u8x8_d_ssd1309_powersave1_seq[] = {
  50:..\u8g2-master\csrc/u8x8_d_ssd1309.c ****   U8X8_START_TRANSFER(),             	/* enable chip, delay is part of the transfer start */
  51:..\u8g2-master\csrc/u8x8_d_ssd1309.c ****   U8X8_C(0x0ae),		                /* display off */
  52:..\u8g2-master\csrc/u8x8_d_ssd1309.c ****   U8X8_END_TRANSFER(),             	/* disable chip */
  53:..\u8g2-master\csrc/u8x8_d_ssd1309.c ****   U8X8_END()             			/* end of sequence */
  54:..\u8g2-master\csrc/u8x8_d_ssd1309.c **** };
  55:..\u8g2-master\csrc/u8x8_d_ssd1309.c **** 
  56:..\u8g2-master\csrc/u8x8_d_ssd1309.c **** static const uint8_t u8x8_d_ssd1309_128x64_flip0_seq[] = {
  57:..\u8g2-master\csrc/u8x8_d_ssd1309.c ****   U8X8_START_TRANSFER(),             	/* enable chip, delay is part of the transfer start */
  58:..\u8g2-master\csrc/u8x8_d_ssd1309.c ****   U8X8_C(0x0a1),				/* segment remap a0/a1*/
  59:..\u8g2-master\csrc/u8x8_d_ssd1309.c ****   U8X8_C(0x0c8),				/* c0: scan dir normal, c8: reverse */
  60:..\u8g2-master\csrc/u8x8_d_ssd1309.c ****   U8X8_END_TRANSFER(),             	/* disable chip */
  61:..\u8g2-master\csrc/u8x8_d_ssd1309.c ****   U8X8_END()             			/* end of sequence */
  62:..\u8g2-master\csrc/u8x8_d_ssd1309.c **** };
  63:..\u8g2-master\csrc/u8x8_d_ssd1309.c **** 
  64:..\u8g2-master\csrc/u8x8_d_ssd1309.c **** static const uint8_t u8x8_d_ssd1309_128x64_flip1_seq[] = {
  65:..\u8g2-master\csrc/u8x8_d_ssd1309.c ****   U8X8_START_TRANSFER(),             	/* enable chip, delay is part of the transfer start */
  66:..\u8g2-master\csrc/u8x8_d_ssd1309.c ****   U8X8_C(0x0a0),				/* segment remap a0/a1*/
  67:..\u8g2-master\csrc/u8x8_d_ssd1309.c ****   U8X8_C(0x0c0),				/* c0: scan dir normal, c8: reverse */
  68:..\u8g2-master\csrc/u8x8_d_ssd1309.c ****   U8X8_END_TRANSFER(),             	/* disable chip */
  69:..\u8g2-master\csrc/u8x8_d_ssd1309.c ****   U8X8_END()             			/* end of sequence */
  70:..\u8g2-master\csrc/u8x8_d_ssd1309.c **** };
  71:..\u8g2-master\csrc/u8x8_d_ssd1309.c **** 
  72:..\u8g2-master\csrc/u8x8_d_ssd1309.c **** 
  73:..\u8g2-master\csrc/u8x8_d_ssd1309.c **** 
  74:..\u8g2-master\csrc/u8x8_d_ssd1309.c **** static uint8_t u8x8_d_ssd1309_generic(u8x8_t *u8x8, uint8_t msg, uint8_t arg_int, void *arg_ptr)
  75:..\u8g2-master\csrc/u8x8_d_ssd1309.c **** {
  76:..\u8g2-master\csrc/u8x8_d_ssd1309.c ****   uint8_t x, c;
  77:..\u8g2-master\csrc/u8x8_d_ssd1309.c ****   uint8_t *ptr;
  78:..\u8g2-master\csrc/u8x8_d_ssd1309.c ****   switch(msg)
  79:..\u8g2-master\csrc/u8x8_d_ssd1309.c ****   {
  80:..\u8g2-master\csrc/u8x8_d_ssd1309.c ****     case U8X8_MSG_DISPLAY_DRAW_TILE:
  81:..\u8g2-master\csrc/u8x8_d_ssd1309.c ****       u8x8_cad_StartTransfer(u8x8);
  82:..\u8g2-master\csrc/u8x8_d_ssd1309.c ****       x = ((u8x8_tile_t *)arg_ptr)->x_pos;    
  83:..\u8g2-master\csrc/u8x8_d_ssd1309.c ****       x *= 8;
  84:..\u8g2-master\csrc/u8x8_d_ssd1309.c ****       x += u8x8->x_offset;
  85:..\u8g2-master\csrc/u8x8_d_ssd1309.c ****     
  86:..\u8g2-master\csrc/u8x8_d_ssd1309.c ****       u8x8_cad_SendCmd(u8x8, 0x010 | (x>>4) );
  87:..\u8g2-master\csrc/u8x8_d_ssd1309.c ****       u8x8_cad_SendCmd(u8x8, 0x000 | ((x&15)));
ARM GAS  C:\Users\info\AppData\Local\Temp\cciH2G0h.s 			page 3


  88:..\u8g2-master\csrc/u8x8_d_ssd1309.c ****       u8x8_cad_SendCmd(u8x8, 0x0b0 | (((u8x8_tile_t *)arg_ptr)->y_pos)   );
  89:..\u8g2-master\csrc/u8x8_d_ssd1309.c **** 
  90:..\u8g2-master\csrc/u8x8_d_ssd1309.c ****     
  91:..\u8g2-master\csrc/u8x8_d_ssd1309.c ****       do
  92:..\u8g2-master\csrc/u8x8_d_ssd1309.c ****       {
  93:..\u8g2-master\csrc/u8x8_d_ssd1309.c **** 	c = ((u8x8_tile_t *)arg_ptr)->cnt;
  94:..\u8g2-master\csrc/u8x8_d_ssd1309.c **** 	ptr = ((u8x8_tile_t *)arg_ptr)->tile_ptr;
  95:..\u8g2-master\csrc/u8x8_d_ssd1309.c **** 	u8x8_cad_SendData(u8x8, c*8, ptr); 	/* note: SendData can not handle more than 255 bytes */
  96:..\u8g2-master\csrc/u8x8_d_ssd1309.c **** 	/*
  97:..\u8g2-master\csrc/u8x8_d_ssd1309.c **** 	do
  98:..\u8g2-master\csrc/u8x8_d_ssd1309.c **** 	{
  99:..\u8g2-master\csrc/u8x8_d_ssd1309.c **** 	  u8x8_cad_SendData(u8x8, 8, ptr);
 100:..\u8g2-master\csrc/u8x8_d_ssd1309.c **** 	  ptr += 8;
 101:..\u8g2-master\csrc/u8x8_d_ssd1309.c **** 	  c--;
 102:..\u8g2-master\csrc/u8x8_d_ssd1309.c **** 	} while( c > 0 );
 103:..\u8g2-master\csrc/u8x8_d_ssd1309.c **** 	*/
 104:..\u8g2-master\csrc/u8x8_d_ssd1309.c **** 	arg_int--;
 105:..\u8g2-master\csrc/u8x8_d_ssd1309.c ****       } while( arg_int > 0 );
 106:..\u8g2-master\csrc/u8x8_d_ssd1309.c ****       
 107:..\u8g2-master\csrc/u8x8_d_ssd1309.c ****       u8x8_cad_EndTransfer(u8x8);
 108:..\u8g2-master\csrc/u8x8_d_ssd1309.c ****       break;
 109:..\u8g2-master\csrc/u8x8_d_ssd1309.c ****     case U8X8_MSG_DISPLAY_SET_POWER_SAVE:
 110:..\u8g2-master\csrc/u8x8_d_ssd1309.c ****       if ( arg_int == 0 )
 111:..\u8g2-master\csrc/u8x8_d_ssd1309.c **** 	u8x8_cad_SendSequence(u8x8, u8x8_d_ssd1309_powersave0_seq);
 112:..\u8g2-master\csrc/u8x8_d_ssd1309.c ****       else
 113:..\u8g2-master\csrc/u8x8_d_ssd1309.c **** 	u8x8_cad_SendSequence(u8x8, u8x8_d_ssd1309_powersave1_seq);
 114:..\u8g2-master\csrc/u8x8_d_ssd1309.c ****       break;
 115:..\u8g2-master\csrc/u8x8_d_ssd1309.c **** #ifdef U8X8_WITH_SET_CONTRAST
 116:..\u8g2-master\csrc/u8x8_d_ssd1309.c ****     case U8X8_MSG_DISPLAY_SET_CONTRAST:
 117:..\u8g2-master\csrc/u8x8_d_ssd1309.c ****       u8x8_cad_StartTransfer(u8x8);
 118:..\u8g2-master\csrc/u8x8_d_ssd1309.c ****       u8x8_cad_SendCmd(u8x8, 0x081 );
 119:..\u8g2-master\csrc/u8x8_d_ssd1309.c ****       u8x8_cad_SendArg(u8x8, arg_int );	/* ssd1309 has range from 0 to 255 */
 120:..\u8g2-master\csrc/u8x8_d_ssd1309.c ****       u8x8_cad_EndTransfer(u8x8);
 121:..\u8g2-master\csrc/u8x8_d_ssd1309.c ****       break;
 122:..\u8g2-master\csrc/u8x8_d_ssd1309.c **** #endif
 123:..\u8g2-master\csrc/u8x8_d_ssd1309.c ****     default:
 124:..\u8g2-master\csrc/u8x8_d_ssd1309.c ****       return 0;
 125:..\u8g2-master\csrc/u8x8_d_ssd1309.c ****   }
 126:..\u8g2-master\csrc/u8x8_d_ssd1309.c ****   return 1;
 127:..\u8g2-master\csrc/u8x8_d_ssd1309.c **** }
 128:..\u8g2-master\csrc/u8x8_d_ssd1309.c **** 
 129:..\u8g2-master\csrc/u8x8_d_ssd1309.c **** 
 130:..\u8g2-master\csrc/u8x8_d_ssd1309.c **** /*=================================================*/
 131:..\u8g2-master\csrc/u8x8_d_ssd1309.c **** /* offset 2 version */
 132:..\u8g2-master\csrc/u8x8_d_ssd1309.c **** 
 133:..\u8g2-master\csrc/u8x8_d_ssd1309.c **** /* timing from SSD1306 */
 134:..\u8g2-master\csrc/u8x8_d_ssd1309.c **** static const u8x8_display_info_t u8x8_ssd1309_128x64_noname2_display_info =
 135:..\u8g2-master\csrc/u8x8_d_ssd1309.c **** {
 136:..\u8g2-master\csrc/u8x8_d_ssd1309.c ****   /* chip_enable_level = */ 0,
 137:..\u8g2-master\csrc/u8x8_d_ssd1309.c ****   /* chip_disable_level = */ 1,
 138:..\u8g2-master\csrc/u8x8_d_ssd1309.c ****   
 139:..\u8g2-master\csrc/u8x8_d_ssd1309.c ****   /* post_chip_enable_wait_ns = */ 20,
 140:..\u8g2-master\csrc/u8x8_d_ssd1309.c ****   /* pre_chip_disable_wait_ns = */ 10,
 141:..\u8g2-master\csrc/u8x8_d_ssd1309.c ****   /* reset_pulse_width_ms = */ 100, 	/* SSD1306: 3 us */
 142:..\u8g2-master\csrc/u8x8_d_ssd1309.c ****   /* post_reset_wait_ms = */ 100, /* far east OLEDs need much longer setup time */
 143:..\u8g2-master\csrc/u8x8_d_ssd1309.c ****   /* sda_setup_time_ns = */ 50,		/* SSD1306: 15ns, but cycle time is 100ns, so use 100/2 */
 144:..\u8g2-master\csrc/u8x8_d_ssd1309.c ****   /* sck_pulse_width_ns = */ 50,	/* SSD1306: 20ns, but cycle time is 100ns, so use 100/2, AVR: belo
ARM GAS  C:\Users\info\AppData\Local\Temp\cciH2G0h.s 			page 4


 145:..\u8g2-master\csrc/u8x8_d_ssd1309.c ****   /* sck_clock_hz = */ 4000000UL,	/* since Arduino 1.6.0, the SPI bus speed in Hz. Should be  10000
 146:..\u8g2-master\csrc/u8x8_d_ssd1309.c ****   /* spi_mode = */ 0,		/* active high, rising edge */
 147:..\u8g2-master\csrc/u8x8_d_ssd1309.c ****   /* i2c_bus_clock_100kHz = */ 4,
 148:..\u8g2-master\csrc/u8x8_d_ssd1309.c ****   /* data_setup_time_ns = */ 40,
 149:..\u8g2-master\csrc/u8x8_d_ssd1309.c ****   /* write_pulse_width_ns = */ 150,	/* SSD1306: cycle time is 300ns, so use 300/2 = 150 */
 150:..\u8g2-master\csrc/u8x8_d_ssd1309.c ****   /* tile_width = */ 16,
 151:..\u8g2-master\csrc/u8x8_d_ssd1309.c ****   /* tile_hight = */ 8,
 152:..\u8g2-master\csrc/u8x8_d_ssd1309.c ****   /* default_x_offset = */ 2,
 153:..\u8g2-master\csrc/u8x8_d_ssd1309.c ****   /* flipmode_x_offset = */ 2,
 154:..\u8g2-master\csrc/u8x8_d_ssd1309.c ****   /* pixel_width = */ 128,
 155:..\u8g2-master\csrc/u8x8_d_ssd1309.c ****   /* pixel_height = */ 64
 156:..\u8g2-master\csrc/u8x8_d_ssd1309.c **** };
 157:..\u8g2-master\csrc/u8x8_d_ssd1309.c **** 
 158:..\u8g2-master\csrc/u8x8_d_ssd1309.c **** 
 159:..\u8g2-master\csrc/u8x8_d_ssd1309.c **** static const uint8_t u8x8_d_ssd1309_128x64_noname_init_seq[] = {
 160:..\u8g2-master\csrc/u8x8_d_ssd1309.c ****     
 161:..\u8g2-master\csrc/u8x8_d_ssd1309.c ****   U8X8_START_TRANSFER(),             	/* enable chip, delay is part of the transfer start */
 162:..\u8g2-master\csrc/u8x8_d_ssd1309.c ****   
 163:..\u8g2-master\csrc/u8x8_d_ssd1309.c ****   
 164:..\u8g2-master\csrc/u8x8_d_ssd1309.c ****   U8X8_C(0x0ae),		                /* display off */
 165:..\u8g2-master\csrc/u8x8_d_ssd1309.c ****   U8X8_CA(0x0d5, 0x0a0),		/* clock divide ratio (0x00=1) and oscillator frequency (0x8) */
 166:..\u8g2-master\csrc/u8x8_d_ssd1309.c ****   //U8X8_CA(0x0a8, 0x03f),		/* multiplex ratio */
 167:..\u8g2-master\csrc/u8x8_d_ssd1309.c ****   U8X8_C(0x040),		        	/* set display start line to 0 */
 168:..\u8g2-master\csrc/u8x8_d_ssd1309.c ****   U8X8_CA(0x020, 0x002),		/* page addressing mode */
 169:..\u8g2-master\csrc/u8x8_d_ssd1309.c ****   
 170:..\u8g2-master\csrc/u8x8_d_ssd1309.c ****   U8X8_C(0x0a1),				/* segment remap a0/a1*/
 171:..\u8g2-master\csrc/u8x8_d_ssd1309.c ****   U8X8_C(0x0c8),				/* c0: scan dir normal, c8: reverse */
 172:..\u8g2-master\csrc/u8x8_d_ssd1309.c ****   // Flipmode
 173:..\u8g2-master\csrc/u8x8_d_ssd1309.c ****   // U8X8_C(0x0a0),				/* segment remap a0/a1*/
 174:..\u8g2-master\csrc/u8x8_d_ssd1309.c ****   // U8X8_C(0x0c0),				/* c0: scan dir normal, c8: reverse */
 175:..\u8g2-master\csrc/u8x8_d_ssd1309.c ****   
 176:..\u8g2-master\csrc/u8x8_d_ssd1309.c ****   U8X8_CA(0x0da, 0x012),		/* com pin HW config, sequential com pin config (bit 4), disable left/rig
 177:..\u8g2-master\csrc/u8x8_d_ssd1309.c **** 
 178:..\u8g2-master\csrc/u8x8_d_ssd1309.c ****   U8X8_CA(0x081, 0x06f), 		/* [2] set contrast control */
 179:..\u8g2-master\csrc/u8x8_d_ssd1309.c ****   U8X8_CA(0x0d9, 0x0d3), 		/* [2] pre-charge period 0x022/f1*/
 180:..\u8g2-master\csrc/u8x8_d_ssd1309.c ****   U8X8_CA(0x0db, 0x020), 		/* vcomh deselect level */  
 181:..\u8g2-master\csrc/u8x8_d_ssd1309.c ****   // if vcomh is 0, then this will give the biggest range for contrast control issue #98
 182:..\u8g2-master\csrc/u8x8_d_ssd1309.c ****   // restored the old values for the noname constructor, because vcomh=0 will not work for all OLED
 183:..\u8g2-master\csrc/u8x8_d_ssd1309.c ****   
 184:..\u8g2-master\csrc/u8x8_d_ssd1309.c ****   U8X8_C(0x02e),				/* Deactivate scroll */ 
 185:..\u8g2-master\csrc/u8x8_d_ssd1309.c ****   U8X8_C(0x0a4),				/* output ram to display */
 186:..\u8g2-master\csrc/u8x8_d_ssd1309.c ****   U8X8_C(0x0a6),				/* none inverted normal display mode */
 187:..\u8g2-master\csrc/u8x8_d_ssd1309.c ****   
 188:..\u8g2-master\csrc/u8x8_d_ssd1309.c ****   //U8X8_C(0x0af),		                /* display on */
 189:..\u8g2-master\csrc/u8x8_d_ssd1309.c ****     
 190:..\u8g2-master\csrc/u8x8_d_ssd1309.c ****   U8X8_END_TRANSFER(),             	/* disable chip */
 191:..\u8g2-master\csrc/u8x8_d_ssd1309.c ****   U8X8_END()             			/* end of sequence */
 192:..\u8g2-master\csrc/u8x8_d_ssd1309.c **** };
 193:..\u8g2-master\csrc/u8x8_d_ssd1309.c **** 
 194:..\u8g2-master\csrc/u8x8_d_ssd1309.c **** 
 195:..\u8g2-master\csrc/u8x8_d_ssd1309.c **** uint8_t u8x8_d_ssd1309_128x64_noname2(u8x8_t *u8x8, uint8_t msg, uint8_t arg_int, void *arg_ptr)
 196:..\u8g2-master\csrc/u8x8_d_ssd1309.c **** {
  28              		.loc 1 196 0
  29              		.cfi_startproc
  30              		@ args = 0, pretend = 0, frame = 0
  31              		@ frame_needed = 0, uses_anonymous_args = 0
  32              	.LVL0:
ARM GAS  C:\Users\info\AppData\Local\Temp\cciH2G0h.s 			page 5


  33              	.LBB6:
  34              	.LBB7:
  78:..\u8g2-master\csrc/u8x8_d_ssd1309.c ****   {
  35              		.loc 1 78 0
  36 0000 0E29     		cmp	r1, #14
  37              	.LBE7:
  38              	.LBE6:
  39              		.loc 1 196 0
  40 0002 F8B5     		push	{r3, r4, r5, r6, r7, lr}
  41              		.cfi_def_cfa_offset 24
  42              		.cfi_offset 3, -24
  43              		.cfi_offset 4, -20
  44              		.cfi_offset 5, -16
  45              		.cfi_offset 6, -12
  46              		.cfi_offset 7, -8
  47              		.cfi_offset 14, -4
  48              		.loc 1 196 0
  49 0004 1446     		mov	r4, r2
  50 0006 0646     		mov	r6, r0
  51              	.LVL1:
  52              	.LBB15:
  53              	.LBB10:
  78:..\u8g2-master\csrc/u8x8_d_ssd1309.c ****   {
  54              		.loc 1 78 0
  55 0008 3ED0     		beq	.L3
  56 000a 0F29     		cmp	r1, #15
  57 000c 10D0     		beq	.L4
  58 000e 0B29     		cmp	r1, #11
  59 0010 07D0     		beq	.L24
  60              	.LVL2:
  61              	.LBE10:
  62              	.LBE15:
 197:..\u8g2-master\csrc/u8x8_d_ssd1309.c ****     
 198:..\u8g2-master\csrc/u8x8_d_ssd1309.c ****   if ( u8x8_d_ssd1309_generic(u8x8, msg, arg_int, arg_ptr) != 0 )
 199:..\u8g2-master\csrc/u8x8_d_ssd1309.c ****     return 1;
 200:..\u8g2-master\csrc/u8x8_d_ssd1309.c ****   
 201:..\u8g2-master\csrc/u8x8_d_ssd1309.c ****   switch(msg)
  63              		.loc 1 201 0
  64 0012 0A29     		cmp	r1, #10
  65 0014 43D0     		beq	.L12
  66 0016 0D29     		cmp	r1, #13
  67 0018 53D0     		beq	.L9
  68 001a 0929     		cmp	r1, #9
  69 001c 4CD0     		beq	.L25
 202:..\u8g2-master\csrc/u8x8_d_ssd1309.c ****   {
 203:..\u8g2-master\csrc/u8x8_d_ssd1309.c ****     case U8X8_MSG_DISPLAY_SET_FLIP_MODE:
 204:..\u8g2-master\csrc/u8x8_d_ssd1309.c ****       if ( arg_int == 0 )
 205:..\u8g2-master\csrc/u8x8_d_ssd1309.c ****       {
 206:..\u8g2-master\csrc/u8x8_d_ssd1309.c **** 	u8x8_cad_SendSequence(u8x8, u8x8_d_ssd1309_128x64_flip0_seq);
 207:..\u8g2-master\csrc/u8x8_d_ssd1309.c **** 	u8x8->x_offset = u8x8->display_info->default_x_offset;
 208:..\u8g2-master\csrc/u8x8_d_ssd1309.c ****       }
 209:..\u8g2-master\csrc/u8x8_d_ssd1309.c ****       else
 210:..\u8g2-master\csrc/u8x8_d_ssd1309.c ****       {
 211:..\u8g2-master\csrc/u8x8_d_ssd1309.c **** 	u8x8_cad_SendSequence(u8x8, u8x8_d_ssd1309_128x64_flip1_seq);
 212:..\u8g2-master\csrc/u8x8_d_ssd1309.c **** 	u8x8->x_offset = u8x8->display_info->flipmode_x_offset;
 213:..\u8g2-master\csrc/u8x8_d_ssd1309.c ****       }
 214:..\u8g2-master\csrc/u8x8_d_ssd1309.c ****       break;
ARM GAS  C:\Users\info\AppData\Local\Temp\cciH2G0h.s 			page 6


 215:..\u8g2-master\csrc/u8x8_d_ssd1309.c ****     case U8X8_MSG_DISPLAY_INIT:
 216:..\u8g2-master\csrc/u8x8_d_ssd1309.c ****       u8x8_d_helper_display_init(u8x8);
 217:..\u8g2-master\csrc/u8x8_d_ssd1309.c ****       u8x8_cad_SendSequence(u8x8, u8x8_d_ssd1309_128x64_noname_init_seq);    
 218:..\u8g2-master\csrc/u8x8_d_ssd1309.c ****       break;
 219:..\u8g2-master\csrc/u8x8_d_ssd1309.c ****     case U8X8_MSG_DISPLAY_SETUP_MEMORY:
 220:..\u8g2-master\csrc/u8x8_d_ssd1309.c ****       u8x8_d_helper_display_setup_memory(u8x8, &u8x8_ssd1309_128x64_noname2_display_info);
 221:..\u8g2-master\csrc/u8x8_d_ssd1309.c ****       break;
 222:..\u8g2-master\csrc/u8x8_d_ssd1309.c ****     default:
 223:..\u8g2-master\csrc/u8x8_d_ssd1309.c ****       return 0;
  70              		.loc 1 223 0
  71 001e 0020     		movs	r0, #0
  72              	.LVL3:
  73 0020 F8BD     		pop	{r3, r4, r5, r6, r7, pc}
  74              	.LVL4:
  75              	.L24:
  76              	.LBB16:
  77              	.LBB11:
 110:..\u8g2-master\csrc/u8x8_d_ssd1309.c **** 	u8x8_cad_SendSequence(u8x8, u8x8_d_ssd1309_powersave0_seq);
  78              		.loc 1 110 0
  79 0022 002A     		cmp	r2, #0
  80 0024 43D1     		bne	.L8
 111:..\u8g2-master\csrc/u8x8_d_ssd1309.c ****       else
  81              		.loc 1 111 0
  82 0026 3049     		ldr	r1, .L26
  83              	.LVL5:
  84 0028 FFF7FEFF 		bl	u8x8_cad_SendSequence
  85              	.LVL6:
  86              	.LBE11:
  87              	.LBE16:
 199:..\u8g2-master\csrc/u8x8_d_ssd1309.c ****   
  88              		.loc 1 199 0
  89 002c 0120     		movs	r0, #1
  90 002e F8BD     		pop	{r3, r4, r5, r6, r7, pc}
  91              	.LVL7:
  92              	.L4:
  93 0030 1D46     		mov	r5, r3
  94              	.LVL8:
  95              	.LBB17:
  96              	.LBB12:
  97              	.LBB8:
  98              	.LBB9:
  81:..\u8g2-master\csrc/u8x8_d_ssd1309.c ****       x = ((u8x8_tile_t *)arg_ptr)->x_pos;    
  99              		.loc 1 81 0
 100 0032 FFF7FEFF 		bl	u8x8_cad_StartTransfer
 101              	.LVL9:
  84:..\u8g2-master\csrc/u8x8_d_ssd1309.c ****     
 102              		.loc 1 84 0
 103 0036 96F82230 		ldrb	r3, [r6, #34]	@ zero_extendqisi2
  82:..\u8g2-master\csrc/u8x8_d_ssd1309.c ****       x *= 8;
 104              		.loc 1 82 0
 105 003a 6F79     		ldrb	r7, [r5, #5]	@ zero_extendqisi2
 106              	.LVL10:
  86:..\u8g2-master\csrc/u8x8_d_ssd1309.c ****       u8x8_cad_SendCmd(u8x8, 0x000 | ((x&15)));
 107              		.loc 1 86 0
 108 003c 3046     		mov	r0, r6
  84:..\u8g2-master\csrc/u8x8_d_ssd1309.c ****     
 109              		.loc 1 84 0
ARM GAS  C:\Users\info\AppData\Local\Temp\cciH2G0h.s 			page 7


 110 003e 03EBC707 		add	r7, r3, r7, lsl #3
 111              	.LVL11:
 112 0042 07F0FF07 		and	r7, r7, #255
 113              	.LVL12:
  86:..\u8g2-master\csrc/u8x8_d_ssd1309.c ****       u8x8_cad_SendCmd(u8x8, 0x000 | ((x&15)));
 114              		.loc 1 86 0
 115 0046 3909     		lsrs	r1, r7, #4
 116 0048 41F01001 		orr	r1, r1, #16
 117 004c FFF7FEFF 		bl	u8x8_cad_SendCmd
 118              	.LVL13:
  87:..\u8g2-master\csrc/u8x8_d_ssd1309.c ****       u8x8_cad_SendCmd(u8x8, 0x0b0 | (((u8x8_tile_t *)arg_ptr)->y_pos)   );
 119              		.loc 1 87 0
 120 0050 07F00F01 		and	r1, r7, #15
 121 0054 3046     		mov	r0, r6
 122 0056 FFF7FEFF 		bl	u8x8_cad_SendCmd
 123              	.LVL14:
  88:..\u8g2-master\csrc/u8x8_d_ssd1309.c **** 
 124              		.loc 1 88 0
 125 005a A979     		ldrb	r1, [r5, #6]	@ zero_extendqisi2
 126 005c 3046     		mov	r0, r6
 127 005e 41F0B001 		orr	r1, r1, #176
 128 0062 FFF7FEFF 		bl	u8x8_cad_SendCmd
 129              	.LVL15:
 130              	.L6:
  95:..\u8g2-master\csrc/u8x8_d_ssd1309.c **** 	/*
 131              		.loc 1 95 0
 132 0066 2979     		ldrb	r1, [r5, #4]	@ zero_extendqisi2
 133 0068 2A68     		ldr	r2, [r5]
 134 006a C900     		lsls	r1, r1, #3
 135 006c 01F0F801 		and	r1, r1, #248
 136 0070 3046     		mov	r0, r6
 137 0072 FFF7FEFF 		bl	u8x8_cad_SendData
 138              	.LVL16:
 104:..\u8g2-master\csrc/u8x8_d_ssd1309.c ****       } while( arg_int > 0 );
 139              		.loc 1 104 0
 140 0076 621E     		subs	r2, r4, #1
 141              	.LVL17:
 105:..\u8g2-master\csrc/u8x8_d_ssd1309.c ****       
 142              		.loc 1 105 0
 143 0078 12F0FF04 		ands	r4, r2, #255
 144 007c F3D1     		bne	.L6
 145              	.LVL18:
 146              	.L20:
 147              	.LBE9:
 148              	.LBE8:
 120:..\u8g2-master\csrc/u8x8_d_ssd1309.c ****       break;
 149              		.loc 1 120 0
 150 007e 3046     		mov	r0, r6
 151 0080 FFF7FEFF 		bl	u8x8_cad_EndTransfer
 152              	.LVL19:
 153              	.LBE12:
 154              	.LBE17:
 199:..\u8g2-master\csrc/u8x8_d_ssd1309.c ****   
 155              		.loc 1 199 0
 156 0084 0120     		movs	r0, #1
 157 0086 F8BD     		pop	{r3, r4, r5, r6, r7, pc}
 158              	.LVL20:
ARM GAS  C:\Users\info\AppData\Local\Temp\cciH2G0h.s 			page 8


 159              	.L3:
 160              	.LBB18:
 161              	.LBB13:
 117:..\u8g2-master\csrc/u8x8_d_ssd1309.c ****       u8x8_cad_SendCmd(u8x8, 0x081 );
 162              		.loc 1 117 0
 163 0088 FFF7FEFF 		bl	u8x8_cad_StartTransfer
 164              	.LVL21:
 118:..\u8g2-master\csrc/u8x8_d_ssd1309.c ****       u8x8_cad_SendArg(u8x8, arg_int );	/* ssd1309 has range from 0 to 255 */
 165              		.loc 1 118 0
 166 008c 8121     		movs	r1, #129
 167 008e 3046     		mov	r0, r6
 168 0090 FFF7FEFF 		bl	u8x8_cad_SendCmd
 169              	.LVL22:
 119:..\u8g2-master\csrc/u8x8_d_ssd1309.c ****       u8x8_cad_EndTransfer(u8x8);
 170              		.loc 1 119 0
 171 0094 2146     		mov	r1, r4
 172 0096 3046     		mov	r0, r6
 173 0098 FFF7FEFF 		bl	u8x8_cad_SendArg
 174              	.LVL23:
 175 009c EFE7     		b	.L20
 176              	.LVL24:
 177              	.L12:
 178              	.LBE13:
 179              	.LBE18:
 216:..\u8g2-master\csrc/u8x8_d_ssd1309.c ****       u8x8_cad_SendSequence(u8x8, u8x8_d_ssd1309_128x64_noname_init_seq);    
 180              		.loc 1 216 0
 181 009e FFF7FEFF 		bl	u8x8_d_helper_display_init
 182              	.LVL25:
 217:..\u8g2-master\csrc/u8x8_d_ssd1309.c ****       break;
 183              		.loc 1 217 0
 184 00a2 3046     		mov	r0, r6
 185 00a4 1149     		ldr	r1, .L26+4
 186 00a6 FFF7FEFF 		bl	u8x8_cad_SendSequence
 187              	.LVL26:
 224:..\u8g2-master\csrc/u8x8_d_ssd1309.c ****   }
 225:..\u8g2-master\csrc/u8x8_d_ssd1309.c ****   return 1;
 188              		.loc 1 225 0
 189 00aa 0120     		movs	r0, #1
 218:..\u8g2-master\csrc/u8x8_d_ssd1309.c ****     case U8X8_MSG_DISPLAY_SETUP_MEMORY:
 190              		.loc 1 218 0
 191 00ac F8BD     		pop	{r3, r4, r5, r6, r7, pc}
 192              	.LVL27:
 193              	.L8:
 194              	.LBB19:
 195              	.LBB14:
 113:..\u8g2-master\csrc/u8x8_d_ssd1309.c ****       break;
 196              		.loc 1 113 0
 197 00ae 1049     		ldr	r1, .L26+8
 198              	.LVL28:
 199 00b0 FFF7FEFF 		bl	u8x8_cad_SendSequence
 200              	.LVL29:
 201              	.LBE14:
 202              	.LBE19:
 199:..\u8g2-master\csrc/u8x8_d_ssd1309.c ****   
 203              		.loc 1 199 0
 204 00b4 0120     		movs	r0, #1
 205 00b6 F8BD     		pop	{r3, r4, r5, r6, r7, pc}
ARM GAS  C:\Users\info\AppData\Local\Temp\cciH2G0h.s 			page 9


 206              	.LVL30:
 207              	.L25:
 220:..\u8g2-master\csrc/u8x8_d_ssd1309.c ****       break;
 208              		.loc 1 220 0
 209 00b8 0E49     		ldr	r1, .L26+12
 210              	.LVL31:
 211 00ba FFF7FEFF 		bl	u8x8_d_helper_display_setup_memory
 212              	.LVL32:
 213              		.loc 1 225 0
 214 00be 0120     		movs	r0, #1
 221:..\u8g2-master\csrc/u8x8_d_ssd1309.c ****     default:
 215              		.loc 1 221 0
 216 00c0 F8BD     		pop	{r3, r4, r5, r6, r7, pc}
 217              	.LVL33:
 218              	.L9:
 204:..\u8g2-master\csrc/u8x8_d_ssd1309.c ****       {
 219              		.loc 1 204 0
 220 00c2 44B9     		cbnz	r4, .L10
 206:..\u8g2-master\csrc/u8x8_d_ssd1309.c **** 	u8x8->x_offset = u8x8->display_info->default_x_offset;
 221              		.loc 1 206 0
 222 00c4 0C49     		ldr	r1, .L26+16
 223              	.LVL34:
 224 00c6 FFF7FEFF 		bl	u8x8_cad_SendSequence
 225              	.LVL35:
 207:..\u8g2-master\csrc/u8x8_d_ssd1309.c ****       }
 226              		.loc 1 207 0
 227 00ca 3368     		ldr	r3, [r6]
 228              		.loc 1 225 0
 229 00cc 0120     		movs	r0, #1
 207:..\u8g2-master\csrc/u8x8_d_ssd1309.c ****       }
 230              		.loc 1 207 0
 231 00ce 9B7C     		ldrb	r3, [r3, #18]	@ zero_extendqisi2
 232 00d0 86F82230 		strb	r3, [r6, #34]
 233 00d4 F8BD     		pop	{r3, r4, r5, r6, r7, pc}
 234              	.LVL36:
 235              	.L10:
 211:..\u8g2-master\csrc/u8x8_d_ssd1309.c **** 	u8x8->x_offset = u8x8->display_info->flipmode_x_offset;
 236              		.loc 1 211 0
 237 00d6 0949     		ldr	r1, .L26+20
 238              	.LVL37:
 239 00d8 FFF7FEFF 		bl	u8x8_cad_SendSequence
 240              	.LVL38:
 212:..\u8g2-master\csrc/u8x8_d_ssd1309.c ****       }
 241              		.loc 1 212 0
 242 00dc 3368     		ldr	r3, [r6]
 243              		.loc 1 225 0
 244 00de 0120     		movs	r0, #1
 212:..\u8g2-master\csrc/u8x8_d_ssd1309.c ****       }
 245              		.loc 1 212 0
 246 00e0 DB7C     		ldrb	r3, [r3, #19]	@ zero_extendqisi2
 247 00e2 86F82230 		strb	r3, [r6, #34]
 248 00e6 F8BD     		pop	{r3, r4, r5, r6, r7, pc}
 249              	.LVL39:
 250              	.L27:
 251              		.align	2
 252              	.L26:
 253 00e8 00000000 		.word	.LANCHOR0
ARM GAS  C:\Users\info\AppData\Local\Temp\cciH2G0h.s 			page 10


 254 00ec 20000000 		.word	.LANCHOR0+32
 255 00f0 08000000 		.word	.LANCHOR0+8
 256 00f4 4C000000 		.word	.LANCHOR0+76
 257 00f8 10000000 		.word	.LANCHOR0+16
 258 00fc 18000000 		.word	.LANCHOR0+24
 259              		.cfi_endproc
 260              	.LFE1:
 261              		.size	u8x8_d_ssd1309_128x64_noname2, .-u8x8_d_ssd1309_128x64_noname2
 262              		.section	.text.u8x8_d_ssd1309_128x64_noname0,"ax",%progbits
 263              		.align	2
 264              		.global	u8x8_d_ssd1309_128x64_noname0
 265              		.thumb
 266              		.thumb_func
 267              		.type	u8x8_d_ssd1309_128x64_noname0, %function
 268              	u8x8_d_ssd1309_128x64_noname0:
 269              	.LFB2:
 226:..\u8g2-master\csrc/u8x8_d_ssd1309.c **** }
 227:..\u8g2-master\csrc/u8x8_d_ssd1309.c **** 
 228:..\u8g2-master\csrc/u8x8_d_ssd1309.c **** 
 229:..\u8g2-master\csrc/u8x8_d_ssd1309.c **** /*=================================================*/
 230:..\u8g2-master\csrc/u8x8_d_ssd1309.c **** /* offset 0 version */
 231:..\u8g2-master\csrc/u8x8_d_ssd1309.c **** 
 232:..\u8g2-master\csrc/u8x8_d_ssd1309.c **** /* timing from SSD1306 */
 233:..\u8g2-master\csrc/u8x8_d_ssd1309.c **** static const u8x8_display_info_t u8x8_ssd1309_128x64_noname0_display_info =
 234:..\u8g2-master\csrc/u8x8_d_ssd1309.c **** {
 235:..\u8g2-master\csrc/u8x8_d_ssd1309.c ****   /* chip_enable_level = */ 0,
 236:..\u8g2-master\csrc/u8x8_d_ssd1309.c ****   /* chip_disable_level = */ 1,
 237:..\u8g2-master\csrc/u8x8_d_ssd1309.c ****   
 238:..\u8g2-master\csrc/u8x8_d_ssd1309.c ****   /* post_chip_enable_wait_ns = */ 20,
 239:..\u8g2-master\csrc/u8x8_d_ssd1309.c ****   /* pre_chip_disable_wait_ns = */ 10,
 240:..\u8g2-master\csrc/u8x8_d_ssd1309.c ****   /* reset_pulse_width_ms = */ 100, 	/* SSD1306: 3 us */
 241:..\u8g2-master\csrc/u8x8_d_ssd1309.c ****   /* post_reset_wait_ms = */ 100, /* far east OLEDs need much longer setup time */
 242:..\u8g2-master\csrc/u8x8_d_ssd1309.c ****   /* sda_setup_time_ns = */ 50,		/* SSD1306: 15ns, but cycle time is 100ns, so use 100/2 */
 243:..\u8g2-master\csrc/u8x8_d_ssd1309.c ****   /* sck_pulse_width_ns = */ 50,	/* SSD1306: 20ns, but cycle time is 100ns, so use 100/2, AVR: belo
 244:..\u8g2-master\csrc/u8x8_d_ssd1309.c ****   /* sck_clock_hz = */ 4000000UL,	/* since Arduino 1.6.0, the SPI bus speed in Hz. Should be  10000
 245:..\u8g2-master\csrc/u8x8_d_ssd1309.c ****   /* spi_mode = */ 0,		/* active high, rising edge */
 246:..\u8g2-master\csrc/u8x8_d_ssd1309.c ****   /* i2c_bus_clock_100kHz = */ 4,
 247:..\u8g2-master\csrc/u8x8_d_ssd1309.c ****   /* data_setup_time_ns = */ 40,
 248:..\u8g2-master\csrc/u8x8_d_ssd1309.c ****   /* write_pulse_width_ns = */ 150,	/* SSD1306: cycle time is 300ns, so use 300/2 = 150 */
 249:..\u8g2-master\csrc/u8x8_d_ssd1309.c ****   /* tile_width = */ 16,
 250:..\u8g2-master\csrc/u8x8_d_ssd1309.c ****   /* tile_hight = */ 8,
 251:..\u8g2-master\csrc/u8x8_d_ssd1309.c ****   /* default_x_offset = */ 0,
 252:..\u8g2-master\csrc/u8x8_d_ssd1309.c ****   /* flipmode_x_offset = */ 0,
 253:..\u8g2-master\csrc/u8x8_d_ssd1309.c ****   /* pixel_width = */ 128,
 254:..\u8g2-master\csrc/u8x8_d_ssd1309.c ****   /* pixel_height = */ 64
 255:..\u8g2-master\csrc/u8x8_d_ssd1309.c **** };
 256:..\u8g2-master\csrc/u8x8_d_ssd1309.c **** 
 257:..\u8g2-master\csrc/u8x8_d_ssd1309.c **** uint8_t u8x8_d_ssd1309_128x64_noname0(u8x8_t *u8x8, uint8_t msg, uint8_t arg_int, void *arg_ptr)
 258:..\u8g2-master\csrc/u8x8_d_ssd1309.c **** {
 270              		.loc 1 258 0
 271              		.cfi_startproc
 272              		@ args = 0, pretend = 0, frame = 0
 273              		@ frame_needed = 0, uses_anonymous_args = 0
 274              	.LVL40:
 275              	.LBB24:
 276              	.LBB25:
  78:..\u8g2-master\csrc/u8x8_d_ssd1309.c ****   {
ARM GAS  C:\Users\info\AppData\Local\Temp\cciH2G0h.s 			page 11


 277              		.loc 1 78 0
 278 0000 0E29     		cmp	r1, #14
 279              	.LBE25:
 280              	.LBE24:
 281              		.loc 1 258 0
 282 0002 F8B5     		push	{r3, r4, r5, r6, r7, lr}
 283              		.cfi_def_cfa_offset 24
 284              		.cfi_offset 3, -24
 285              		.cfi_offset 4, -20
 286              		.cfi_offset 5, -16
 287              		.cfi_offset 6, -12
 288              		.cfi_offset 7, -8
 289              		.cfi_offset 14, -4
 290              		.loc 1 258 0
 291 0004 1446     		mov	r4, r2
 292 0006 0646     		mov	r6, r0
 293              	.LVL41:
 294              	.LBB33:
 295              	.LBB28:
  78:..\u8g2-master\csrc/u8x8_d_ssd1309.c ****   {
 296              		.loc 1 78 0
 297 0008 3ED0     		beq	.L30
 298 000a 0F29     		cmp	r1, #15
 299 000c 10D0     		beq	.L31
 300 000e 0B29     		cmp	r1, #11
 301 0010 07D0     		beq	.L50
 302              	.LVL42:
 303              	.LBE28:
 304              	.LBE33:
 259:..\u8g2-master\csrc/u8x8_d_ssd1309.c ****     
 260:..\u8g2-master\csrc/u8x8_d_ssd1309.c ****   if ( u8x8_d_ssd1309_generic(u8x8, msg, arg_int, arg_ptr) != 0 )
 261:..\u8g2-master\csrc/u8x8_d_ssd1309.c ****     return 1;
 262:..\u8g2-master\csrc/u8x8_d_ssd1309.c ****   
 263:..\u8g2-master\csrc/u8x8_d_ssd1309.c ****   switch(msg)
 305              		.loc 1 263 0
 306 0012 0A29     		cmp	r1, #10
 307 0014 43D0     		beq	.L39
 308 0016 0D29     		cmp	r1, #13
 309 0018 53D0     		beq	.L36
 310 001a 0929     		cmp	r1, #9
 311 001c 4CD0     		beq	.L51
 264:..\u8g2-master\csrc/u8x8_d_ssd1309.c ****   {
 265:..\u8g2-master\csrc/u8x8_d_ssd1309.c ****     case U8X8_MSG_DISPLAY_SET_FLIP_MODE:
 266:..\u8g2-master\csrc/u8x8_d_ssd1309.c ****       if ( arg_int == 0 )
 267:..\u8g2-master\csrc/u8x8_d_ssd1309.c ****       {
 268:..\u8g2-master\csrc/u8x8_d_ssd1309.c **** 	u8x8_cad_SendSequence(u8x8, u8x8_d_ssd1309_128x64_flip0_seq);
 269:..\u8g2-master\csrc/u8x8_d_ssd1309.c **** 	u8x8->x_offset = u8x8->display_info->default_x_offset;
 270:..\u8g2-master\csrc/u8x8_d_ssd1309.c ****       }
 271:..\u8g2-master\csrc/u8x8_d_ssd1309.c ****       else
 272:..\u8g2-master\csrc/u8x8_d_ssd1309.c ****       {
 273:..\u8g2-master\csrc/u8x8_d_ssd1309.c **** 	u8x8_cad_SendSequence(u8x8, u8x8_d_ssd1309_128x64_flip1_seq);
 274:..\u8g2-master\csrc/u8x8_d_ssd1309.c **** 	u8x8->x_offset = u8x8->display_info->flipmode_x_offset;
 275:..\u8g2-master\csrc/u8x8_d_ssd1309.c ****       }
 276:..\u8g2-master\csrc/u8x8_d_ssd1309.c ****       break;
 277:..\u8g2-master\csrc/u8x8_d_ssd1309.c ****     case U8X8_MSG_DISPLAY_INIT:
 278:..\u8g2-master\csrc/u8x8_d_ssd1309.c ****       u8x8_d_helper_display_init(u8x8);
 279:..\u8g2-master\csrc/u8x8_d_ssd1309.c ****       u8x8_cad_SendSequence(u8x8, u8x8_d_ssd1309_128x64_noname_init_seq);    
ARM GAS  C:\Users\info\AppData\Local\Temp\cciH2G0h.s 			page 12


 280:..\u8g2-master\csrc/u8x8_d_ssd1309.c ****       break;
 281:..\u8g2-master\csrc/u8x8_d_ssd1309.c ****     case U8X8_MSG_DISPLAY_SETUP_MEMORY:
 282:..\u8g2-master\csrc/u8x8_d_ssd1309.c ****       u8x8_d_helper_display_setup_memory(u8x8, &u8x8_ssd1309_128x64_noname0_display_info);
 283:..\u8g2-master\csrc/u8x8_d_ssd1309.c ****       break;
 284:..\u8g2-master\csrc/u8x8_d_ssd1309.c ****     default:
 285:..\u8g2-master\csrc/u8x8_d_ssd1309.c ****       return 0;
 312              		.loc 1 285 0
 313 001e 0020     		movs	r0, #0
 314              	.LVL43:
 315 0020 F8BD     		pop	{r3, r4, r5, r6, r7, pc}
 316              	.LVL44:
 317              	.L50:
 318              	.LBB34:
 319              	.LBB29:
 110:..\u8g2-master\csrc/u8x8_d_ssd1309.c **** 	u8x8_cad_SendSequence(u8x8, u8x8_d_ssd1309_powersave0_seq);
 320              		.loc 1 110 0
 321 0022 002A     		cmp	r2, #0
 322 0024 43D1     		bne	.L35
 111:..\u8g2-master\csrc/u8x8_d_ssd1309.c ****       else
 323              		.loc 1 111 0
 324 0026 3049     		ldr	r1, .L52
 325              	.LVL45:
 326 0028 FFF7FEFF 		bl	u8x8_cad_SendSequence
 327              	.LVL46:
 328              	.LBE29:
 329              	.LBE34:
 261:..\u8g2-master\csrc/u8x8_d_ssd1309.c ****   
 330              		.loc 1 261 0
 331 002c 0120     		movs	r0, #1
 332 002e F8BD     		pop	{r3, r4, r5, r6, r7, pc}
 333              	.LVL47:
 334              	.L31:
 335 0030 1D46     		mov	r5, r3
 336              	.LVL48:
 337              	.LBB35:
 338              	.LBB30:
 339              	.LBB26:
 340              	.LBB27:
  81:..\u8g2-master\csrc/u8x8_d_ssd1309.c ****       x = ((u8x8_tile_t *)arg_ptr)->x_pos;    
 341              		.loc 1 81 0
 342 0032 FFF7FEFF 		bl	u8x8_cad_StartTransfer
 343              	.LVL49:
  84:..\u8g2-master\csrc/u8x8_d_ssd1309.c ****     
 344              		.loc 1 84 0
 345 0036 96F82230 		ldrb	r3, [r6, #34]	@ zero_extendqisi2
  82:..\u8g2-master\csrc/u8x8_d_ssd1309.c ****       x *= 8;
 346              		.loc 1 82 0
 347 003a 6F79     		ldrb	r7, [r5, #5]	@ zero_extendqisi2
 348              	.LVL50:
  86:..\u8g2-master\csrc/u8x8_d_ssd1309.c ****       u8x8_cad_SendCmd(u8x8, 0x000 | ((x&15)));
 349              		.loc 1 86 0
 350 003c 3046     		mov	r0, r6
  84:..\u8g2-master\csrc/u8x8_d_ssd1309.c ****     
 351              		.loc 1 84 0
 352 003e 03EBC707 		add	r7, r3, r7, lsl #3
 353              	.LVL51:
 354 0042 07F0FF07 		and	r7, r7, #255
ARM GAS  C:\Users\info\AppData\Local\Temp\cciH2G0h.s 			page 13


 355              	.LVL52:
  86:..\u8g2-master\csrc/u8x8_d_ssd1309.c ****       u8x8_cad_SendCmd(u8x8, 0x000 | ((x&15)));
 356              		.loc 1 86 0
 357 0046 3909     		lsrs	r1, r7, #4
 358 0048 41F01001 		orr	r1, r1, #16
 359 004c FFF7FEFF 		bl	u8x8_cad_SendCmd
 360              	.LVL53:
  87:..\u8g2-master\csrc/u8x8_d_ssd1309.c ****       u8x8_cad_SendCmd(u8x8, 0x0b0 | (((u8x8_tile_t *)arg_ptr)->y_pos)   );
 361              		.loc 1 87 0
 362 0050 07F00F01 		and	r1, r7, #15
 363 0054 3046     		mov	r0, r6
 364 0056 FFF7FEFF 		bl	u8x8_cad_SendCmd
 365              	.LVL54:
  88:..\u8g2-master\csrc/u8x8_d_ssd1309.c **** 
 366              		.loc 1 88 0
 367 005a A979     		ldrb	r1, [r5, #6]	@ zero_extendqisi2
 368 005c 3046     		mov	r0, r6
 369 005e 41F0B001 		orr	r1, r1, #176
 370 0062 FFF7FEFF 		bl	u8x8_cad_SendCmd
 371              	.LVL55:
 372              	.L33:
  95:..\u8g2-master\csrc/u8x8_d_ssd1309.c **** 	/*
 373              		.loc 1 95 0
 374 0066 2979     		ldrb	r1, [r5, #4]	@ zero_extendqisi2
 375 0068 2A68     		ldr	r2, [r5]
 376 006a C900     		lsls	r1, r1, #3
 377 006c 01F0F801 		and	r1, r1, #248
 378 0070 3046     		mov	r0, r6
 379 0072 FFF7FEFF 		bl	u8x8_cad_SendData
 380              	.LVL56:
 104:..\u8g2-master\csrc/u8x8_d_ssd1309.c ****       } while( arg_int > 0 );
 381              		.loc 1 104 0
 382 0076 621E     		subs	r2, r4, #1
 383              	.LVL57:
 105:..\u8g2-master\csrc/u8x8_d_ssd1309.c ****       
 384              		.loc 1 105 0
 385 0078 12F0FF04 		ands	r4, r2, #255
 386 007c F3D1     		bne	.L33
 387              	.LVL58:
 388              	.L47:
 389              	.LBE27:
 390              	.LBE26:
 120:..\u8g2-master\csrc/u8x8_d_ssd1309.c ****       break;
 391              		.loc 1 120 0
 392 007e 3046     		mov	r0, r6
 393 0080 FFF7FEFF 		bl	u8x8_cad_EndTransfer
 394              	.LVL59:
 395              	.LBE30:
 396              	.LBE35:
 261:..\u8g2-master\csrc/u8x8_d_ssd1309.c ****   
 397              		.loc 1 261 0
 398 0084 0120     		movs	r0, #1
 399 0086 F8BD     		pop	{r3, r4, r5, r6, r7, pc}
 400              	.LVL60:
 401              	.L30:
 402              	.LBB36:
 403              	.LBB31:
ARM GAS  C:\Users\info\AppData\Local\Temp\cciH2G0h.s 			page 14


 117:..\u8g2-master\csrc/u8x8_d_ssd1309.c ****       u8x8_cad_SendCmd(u8x8, 0x081 );
 404              		.loc 1 117 0
 405 0088 FFF7FEFF 		bl	u8x8_cad_StartTransfer
 406              	.LVL61:
 118:..\u8g2-master\csrc/u8x8_d_ssd1309.c ****       u8x8_cad_SendArg(u8x8, arg_int );	/* ssd1309 has range from 0 to 255 */
 407              		.loc 1 118 0
 408 008c 8121     		movs	r1, #129
 409 008e 3046     		mov	r0, r6
 410 0090 FFF7FEFF 		bl	u8x8_cad_SendCmd
 411              	.LVL62:
 119:..\u8g2-master\csrc/u8x8_d_ssd1309.c ****       u8x8_cad_EndTransfer(u8x8);
 412              		.loc 1 119 0
 413 0094 2146     		mov	r1, r4
 414 0096 3046     		mov	r0, r6
 415 0098 FFF7FEFF 		bl	u8x8_cad_SendArg
 416              	.LVL63:
 417 009c EFE7     		b	.L47
 418              	.LVL64:
 419              	.L39:
 420              	.LBE31:
 421              	.LBE36:
 278:..\u8g2-master\csrc/u8x8_d_ssd1309.c ****       u8x8_cad_SendSequence(u8x8, u8x8_d_ssd1309_128x64_noname_init_seq);    
 422              		.loc 1 278 0
 423 009e FFF7FEFF 		bl	u8x8_d_helper_display_init
 424              	.LVL65:
 279:..\u8g2-master\csrc/u8x8_d_ssd1309.c ****       break;
 425              		.loc 1 279 0
 426 00a2 3046     		mov	r0, r6
 427 00a4 1149     		ldr	r1, .L52+4
 428 00a6 FFF7FEFF 		bl	u8x8_cad_SendSequence
 429              	.LVL66:
 286:..\u8g2-master\csrc/u8x8_d_ssd1309.c ****   }
 287:..\u8g2-master\csrc/u8x8_d_ssd1309.c ****   return 1;
 430              		.loc 1 287 0
 431 00aa 0120     		movs	r0, #1
 280:..\u8g2-master\csrc/u8x8_d_ssd1309.c ****     case U8X8_MSG_DISPLAY_SETUP_MEMORY:
 432              		.loc 1 280 0
 433 00ac F8BD     		pop	{r3, r4, r5, r6, r7, pc}
 434              	.LVL67:
 435              	.L35:
 436              	.LBB37:
 437              	.LBB32:
 113:..\u8g2-master\csrc/u8x8_d_ssd1309.c ****       break;
 438              		.loc 1 113 0
 439 00ae 1049     		ldr	r1, .L52+8
 440              	.LVL68:
 441 00b0 FFF7FEFF 		bl	u8x8_cad_SendSequence
 442              	.LVL69:
 443              	.LBE32:
 444              	.LBE37:
 261:..\u8g2-master\csrc/u8x8_d_ssd1309.c ****   
 445              		.loc 1 261 0
 446 00b4 0120     		movs	r0, #1
 447 00b6 F8BD     		pop	{r3, r4, r5, r6, r7, pc}
 448              	.LVL70:
 449              	.L51:
 282:..\u8g2-master\csrc/u8x8_d_ssd1309.c ****       break;
ARM GAS  C:\Users\info\AppData\Local\Temp\cciH2G0h.s 			page 15


 450              		.loc 1 282 0
 451 00b8 0E49     		ldr	r1, .L52+12
 452              	.LVL71:
 453 00ba FFF7FEFF 		bl	u8x8_d_helper_display_setup_memory
 454              	.LVL72:
 455              		.loc 1 287 0
 456 00be 0120     		movs	r0, #1
 283:..\u8g2-master\csrc/u8x8_d_ssd1309.c ****     default:
 457              		.loc 1 283 0
 458 00c0 F8BD     		pop	{r3, r4, r5, r6, r7, pc}
 459              	.LVL73:
 460              	.L36:
 266:..\u8g2-master\csrc/u8x8_d_ssd1309.c ****       {
 461              		.loc 1 266 0
 462 00c2 44B9     		cbnz	r4, .L37
 268:..\u8g2-master\csrc/u8x8_d_ssd1309.c **** 	u8x8->x_offset = u8x8->display_info->default_x_offset;
 463              		.loc 1 268 0
 464 00c4 0C49     		ldr	r1, .L52+16
 465              	.LVL74:
 466 00c6 FFF7FEFF 		bl	u8x8_cad_SendSequence
 467              	.LVL75:
 269:..\u8g2-master\csrc/u8x8_d_ssd1309.c ****       }
 468              		.loc 1 269 0
 469 00ca 3368     		ldr	r3, [r6]
 470              		.loc 1 287 0
 471 00cc 0120     		movs	r0, #1
 269:..\u8g2-master\csrc/u8x8_d_ssd1309.c ****       }
 472              		.loc 1 269 0
 473 00ce 9B7C     		ldrb	r3, [r3, #18]	@ zero_extendqisi2
 474 00d0 86F82230 		strb	r3, [r6, #34]
 475 00d4 F8BD     		pop	{r3, r4, r5, r6, r7, pc}
 476              	.LVL76:
 477              	.L37:
 273:..\u8g2-master\csrc/u8x8_d_ssd1309.c **** 	u8x8->x_offset = u8x8->display_info->flipmode_x_offset;
 478              		.loc 1 273 0
 479 00d6 0949     		ldr	r1, .L52+20
 480              	.LVL77:
 481 00d8 FFF7FEFF 		bl	u8x8_cad_SendSequence
 482              	.LVL78:
 274:..\u8g2-master\csrc/u8x8_d_ssd1309.c ****       }
 483              		.loc 1 274 0
 484 00dc 3368     		ldr	r3, [r6]
 485              		.loc 1 287 0
 486 00de 0120     		movs	r0, #1
 274:..\u8g2-master\csrc/u8x8_d_ssd1309.c ****       }
 487              		.loc 1 274 0
 488 00e0 DB7C     		ldrb	r3, [r3, #19]	@ zero_extendqisi2
 489 00e2 86F82230 		strb	r3, [r6, #34]
 490 00e6 F8BD     		pop	{r3, r4, r5, r6, r7, pc}
 491              	.LVL79:
 492              	.L53:
 493              		.align	2
 494              	.L52:
 495 00e8 00000000 		.word	.LANCHOR0
 496 00ec 20000000 		.word	.LANCHOR0+32
 497 00f0 08000000 		.word	.LANCHOR0+8
 498 00f4 64000000 		.word	.LANCHOR0+100
ARM GAS  C:\Users\info\AppData\Local\Temp\cciH2G0h.s 			page 16


 499 00f8 10000000 		.word	.LANCHOR0+16
 500 00fc 18000000 		.word	.LANCHOR0+24
 501              		.cfi_endproc
 502              	.LFE2:
 503              		.size	u8x8_d_ssd1309_128x64_noname0, .-u8x8_d_ssd1309_128x64_noname0
 504              		.section	.rodata
 505              		.align	2
 506              		.set	.LANCHOR0,. + 0
 507              		.type	u8x8_d_ssd1309_powersave0_seq, %object
 508              		.size	u8x8_d_ssd1309_powersave0_seq, 5
 509              	u8x8_d_ssd1309_powersave0_seq:
 510 0000 18       		.byte	24
 511 0001 15       		.byte	21
 512 0002 AF       		.byte	-81
 513 0003 19       		.byte	25
 514 0004 FF       		.byte	-1
 515 0005 000000   		.space	3
 516              		.type	u8x8_d_ssd1309_powersave1_seq, %object
 517              		.size	u8x8_d_ssd1309_powersave1_seq, 5
 518              	u8x8_d_ssd1309_powersave1_seq:
 519 0008 18       		.byte	24
 520 0009 15       		.byte	21
 521 000a AE       		.byte	-82
 522 000b 19       		.byte	25
 523 000c FF       		.byte	-1
 524 000d 000000   		.space	3
 525              		.type	u8x8_d_ssd1309_128x64_flip0_seq, %object
 526              		.size	u8x8_d_ssd1309_128x64_flip0_seq, 7
 527              	u8x8_d_ssd1309_128x64_flip0_seq:
 528 0010 18       		.byte	24
 529 0011 15       		.byte	21
 530 0012 A1       		.byte	-95
 531 0013 15       		.byte	21
 532 0014 C8       		.byte	-56
 533 0015 19       		.byte	25
 534 0016 FF       		.byte	-1
 535 0017 00       		.space	1
 536              		.type	u8x8_d_ssd1309_128x64_flip1_seq, %object
 537              		.size	u8x8_d_ssd1309_128x64_flip1_seq, 7
 538              	u8x8_d_ssd1309_128x64_flip1_seq:
 539 0018 18       		.byte	24
 540 0019 15       		.byte	21
 541 001a A0       		.byte	-96
 542 001b 15       		.byte	21
 543 001c C0       		.byte	-64
 544 001d 19       		.byte	25
 545 001e FF       		.byte	-1
 546 001f 00       		.space	1
 547              		.type	u8x8_d_ssd1309_128x64_noname_init_seq, %object
 548              		.size	u8x8_d_ssd1309_128x64_noname_init_seq, 41
 549              	u8x8_d_ssd1309_128x64_noname_init_seq:
 550 0020 18       		.byte	24
 551 0021 15       		.byte	21
 552 0022 AE       		.byte	-82
 553 0023 15       		.byte	21
 554 0024 D5       		.byte	-43
 555 0025 16       		.byte	22
ARM GAS  C:\Users\info\AppData\Local\Temp\cciH2G0h.s 			page 17


 556 0026 A0       		.byte	-96
 557 0027 15       		.byte	21
 558 0028 40       		.byte	64
 559 0029 15       		.byte	21
 560 002a 20       		.byte	32
 561 002b 16       		.byte	22
 562 002c 02       		.byte	2
 563 002d 15       		.byte	21
 564 002e A1       		.byte	-95
 565 002f 15       		.byte	21
 566 0030 C8       		.byte	-56
 567 0031 15       		.byte	21
 568 0032 DA       		.byte	-38
 569 0033 16       		.byte	22
 570 0034 12       		.byte	18
 571 0035 15       		.byte	21
 572 0036 81       		.byte	-127
 573 0037 16       		.byte	22
 574 0038 6F       		.byte	111
 575 0039 15       		.byte	21
 576 003a D9       		.byte	-39
 577 003b 16       		.byte	22
 578 003c D3       		.byte	-45
 579 003d 15       		.byte	21
 580 003e DB       		.byte	-37
 581 003f 16       		.byte	22
 582 0040 20       		.byte	32
 583 0041 15       		.byte	21
 584 0042 2E       		.byte	46
 585 0043 15       		.byte	21
 586 0044 A4       		.byte	-92
 587 0045 15       		.byte	21
 588 0046 A6       		.byte	-90
 589 0047 19       		.byte	25
 590 0048 FF       		.byte	-1
 591 0049 000000   		.space	3
 592              		.type	u8x8_ssd1309_128x64_noname2_display_info, %object
 593              		.size	u8x8_ssd1309_128x64_noname2_display_info, 24
 594              	u8x8_ssd1309_128x64_noname2_display_info:
 595 004c 00       		.byte	0
 596 004d 01       		.byte	1
 597 004e 14       		.byte	20
 598 004f 0A       		.byte	10
 599 0050 64       		.byte	100
 600 0051 64       		.byte	100
 601 0052 32       		.byte	50
 602 0053 32       		.byte	50
 603 0054 00093D00 		.word	4000000
 604 0058 00       		.byte	0
 605 0059 04       		.byte	4
 606 005a 28       		.byte	40
 607 005b 96       		.byte	-106
 608 005c 10       		.byte	16
 609 005d 08       		.byte	8
 610 005e 02       		.byte	2
 611 005f 02       		.byte	2
 612 0060 8000     		.short	128
ARM GAS  C:\Users\info\AppData\Local\Temp\cciH2G0h.s 			page 18


 613 0062 4000     		.short	64
 614              		.type	u8x8_ssd1309_128x64_noname0_display_info, %object
 615              		.size	u8x8_ssd1309_128x64_noname0_display_info, 24
 616              	u8x8_ssd1309_128x64_noname0_display_info:
 617 0064 00       		.byte	0
 618 0065 01       		.byte	1
 619 0066 14       		.byte	20
 620 0067 0A       		.byte	10
 621 0068 64       		.byte	100
 622 0069 64       		.byte	100
 623 006a 32       		.byte	50
 624 006b 32       		.byte	50
 625 006c 00093D00 		.word	4000000
 626 0070 00       		.byte	0
 627 0071 04       		.byte	4
 628 0072 28       		.byte	40
 629 0073 96       		.byte	-106
 630 0074 10       		.byte	16
 631 0075 08       		.byte	8
 632 0076 00       		.byte	0
 633 0077 00       		.byte	0
 634 0078 8000     		.short	128
 635 007a 4000     		.short	64
 636              		.text
 637              	.Letext0:
 638              		.file 2 "c:\\program files (x86)\\cypress\\psoc creator\\4.2\\psoc creator\\import\\gnu\\arm\\5.4.
 639              		.file 3 "c:\\program files (x86)\\cypress\\psoc creator\\4.2\\psoc creator\\import\\gnu\\arm\\5.4.
 640              		.file 4 "..\\u8g2-master\\csrc\\u8x8.h"