ARM GAS  C:\Users\info\AppData\Local\Temp\ccHtobdL.s 			page 1


   1              		.syntax unified
   2              		.cpu cortex-m3
   3              		.fpu softvfp
   4              		.eabi_attribute 20, 1
   5              		.eabi_attribute 21, 1
   6              		.eabi_attribute 23, 3
   7              		.eabi_attribute 24, 1
   8              		.eabi_attribute 25, 1
   9              		.eabi_attribute 26, 1
  10              		.eabi_attribute 30, 4
  11              		.eabi_attribute 34, 1
  12              		.eabi_attribute 18, 4
  13              		.thumb
  14              		.syntax unified
  15              		.file	"u8x8_d_pcf8812.c"
  16              		.text
  17              	.Ltext0:
  18              		.section	.gnu.lto_.profile.bf14f92e,"",%progbits
  19 0000 789C6361 		.ascii	"x\234ca`d`e`\000\222\267\030\375\000\003\\\0015"
  19      60646065 
  19      600092B7 
  19      18FD0003 
  19      5C0135
  20              		.text
  21              		.section	.gnu.lto_.icf.bf14f92e,"",%progbits
  22 0000 789C6361 		.ascii	"x\234ca`d\000\001\025\006\004`c8~\343\362\015n\306\365"
  22      60640001 
  22      15060460 
  22      63387EE3 
  22      F20D6EC6 
  23 0015 1F58995E 		.ascii	"\037X\231^\177}0\221\215\371\343\306#g\370Xv\255\336"
  23      7F7D3091 
  23      8DF9E3C6 
  23      2367F858 
  23      76ADDE
  24 0028 F29C89F5 		.ascii	"\362\234\211\365\350\247\306C\234\014\000Q1\021\324"
  24      E8A7C643 
  24      9C0C0051 
  24      3111D4
  25              		.text
  26              		.section	.gnu.lto_.jmpfuncs.bf14f92e,"",%progbits
  27 0000 789C7D50 		.ascii	"x\234}PK\012\302@\014\315K\202\270\252\036\300\205\236"
  27      4B0AC240 
  27      0CCD4B82 
  27      B8AA1EC0 
  27      859E
  28 0012 C8F37435 		.ascii	"\310\363t5\003Rdn\340\005\304\357\025\212g\3501\\\353"
  28      0352646E 
  28      E005C4EF 
  28      158A67E8 
  28      315CEB
  29 0025 4A283869 		.ascii	"J(8i\254\010j\337b^&\363^\346\021%\220a\351\324\201"
  29      AC086ADF 
  29      625E26F3 
  29      5EE61125 
  29      9061E9D4 
  30 003a 49913109 		.ascii	"I\2211\011\031\314\245\265FN\016}_\276*\264\214\365"
ARM GAS  C:\Users\info\AppData\Local\Temp\ccHtobdL.s 			page 2


  30      19CCA5B5 
  30      464E0E7D 
  30      5FBE2AB4 
  30      8CF5
  31 004c 35D67AE7 		.ascii	"5\326z\347J\010s\3540\313\003\363#\234\376\231R\275"
  31      4A0873EC 
  31      30CB03F3 
  31      239CFE99 
  31      52BD
  32 005e 6D0A372D 		.ascii	"m\0127-\260\3770\251\223iV\217\313\255\010m\334\304"
  32      B0FF30A9 
  32      9369568F 
  32      CBAD086D 
  32      DCC4
  33 0070 38AD0449 		.ascii	"8\255\004I\314{@\030\020q\022\353\037{\021\375\022I"
  33      CC7B4018 
  33      107112EB 
  33      1F7B11FD 
  33      1249
  34 0082 12CEFD93 		.ascii	"\022\316\375\223\211\372_}\003\034\200\361+|i\033\342"
  34      89FA5F7D 
  34      031C80F1 
  34      2B7C691B 
  34      E2
  35 0093 92BB5386 		.ascii	"\222\273S\206\222i\222\034\015\347<\017J\364\004\377"
  35      9269921C 
  35      0DE73C0F 
  35      4AF404FF 
  36 00a3 744156   		.ascii	"tAV"
  37              		.text
  38              		.section	.gnu.lto_.inline.bf14f92e,"",%progbits
  39 0000 789C6D90 		.ascii	"x\234m\220\261J\003A\020\206\377\331\235\\VcrK\210\235"
  39      B14A0341 
  39      1086FFD9 
  39      9D5C5663 
  39      724B889D 
  40 0014 90030BDF 		.ascii	"\220\003\013\337B|\202{\020\363\022\327\244?\304\007"
  40      427C827B 
  40      10F312D7 
  40      A43FC407 
  41 0024 B8141AF5 		.ascii	"\270\024\032\365\016lDPPR\330z\245O`\251E \205\"\202"
  41      0E6C4450 
  41      5052D87A 
  41      A54F60A9 
  41      45208522 
  42 0039 B3BBB9AD 		.ascii	"\263\273\271\255\234b\377\341\233\331\235\371\227Ap"
  42      9C62FFE1 
  42      9BD99DF9 
  42      974170
  43 0048 7116C487 		.ascii	"q\026\304\207\002^\320\202\014\231\323_E\257\213\246"
  43      025ED082 
  43      0C99D35F 
  43      45AF8BA6 
  44 0058 4D366AAE 		.ascii	"M6j\256A\273\264\244\003\004\374\363\325>\365\003\036"
  44      41BBB4A4 
  44      0304FCF3 
  44      D53EF503 
ARM GAS  C:\Users\info\AppData\Local\Temp\ccHtobdL.s 			page 3


  44      1E
  45 0069 D055C49F 		.ascii	"\320U\304\237ou\243\003\036\321u\304\315\345z\225\006"
  45      6F75A303 
  45      1ED175C4 
  45      CDE57A95 
  45      06
  46 007a 9CD28D60 		.ascii	"\234\322\215`\345\361\355\307\303\367\320\341\036\201"
  46      E5F1EDC7 
  46      C3F7D0E1 
  46      1E81
  47 0088 6A8F675E 		.ascii	"j\217g^e\270,\342\216\276l\224TS\205\311\352\270P\350"
  47      65B82CE2 
  47      8EBE6C94 
  47      545385C9 
  47      EAB850E8 
  48 009c DD1D650A 		.ascii	"\335\035e\012\373\357\317\224\201\253\244`\033\304\240"
  48      FBEFCF94 
  48      81ABA460 
  48      1BC4A0
  49 00ab E0CC2D3F 		.ascii	"\340\314-?@\006*s\036J\203>?,\3632\327{\302\324\377"
  49      40062A73 
  49      1E4A833E 
  49      3F2CF332 
  49      D77BC2D4 
  50 00c0 59BC206A 		.ascii	"Y\274 j\235J\301\306\026\333\265t\245\202\214G\222\236"
  50      9D4AC1C6 
  50      16DBB574 
  50      A5828C47 
  50      929E
  51 00d2 C48CBB2E 		.ascii	"\304\214\273.\366\2231\032\223\016\266\353\373\213G"
  51      F693311A 
  51      930EB6EB 
  51      FB8B47
  52 00e1 0AFE76A8 		.ascii	"\012\376v\250\361\276f[\025k\272\263\306\325\324\272"
  52      F1BE665B 
  52      156BBAB3 
  52      C6D5D4BA 
  53 00f1 9F4F5218 		.ascii	"\237OR\030\260\233\275\235\037^\306\037q\012O\341"
  53      B09BBD9D 
  53      1F5EC61F 
  53      710A4FE1 
  54              		.text
  55              		.section	.gnu.lto_.pureconst.bf14f92e,"",%progbits
  56 0000 789C6361 		.ascii	"x\234ca`d`e```b\220d\221\000\000\000\356\000B"
  56      60646065 
  56      60606062 
  56      90649100 
  56      0000EE00 
  57              		.text
  58              		.section	.gnu.lto_u8x8_d_pcf8812_96x65_generic.bf14f92e,"",%progbits
  59 0000 789C8D57 		.ascii	"x\234\215W\377OSW\024\277\347\335\366\275\366\265\320"
  59      FF4F5357 
  59      14BFE7DD 
  59      F6BDF6B5 
  59      D0
  60 0011 6E5360A4 		.ascii	"nS`\244\216\022\302\230[\246\016\177!\313\262\350\376"
  60      8E12C298 
ARM GAS  C:\Users\info\AppData\Local\Temp\ccHtobdL.s 			page 4


  60      5BA60E7F 
  60      21CBB2E8 
  60      FE
  61 0022 84FD6C42 		.ascii	"\204\375lB6\334\334\262l1\352\022\1771<ZZ\3048\006\211"
  61      36DCDCB2 
  61      6C31EA12 
  61      7F313C5A 
  61      5AC43806 
  62 0037 F885B8E9 		.ascii	"\370\205\270\351\342\030*\250\240S\004aVt\240\010(\023"
  62      E2182AA8 
  62      A0530461 
  62      5674A008 
  62      2813
  63 0049 AD805F51 		.ascii	"\255\200_Q\021\231\337\312fd8\355\316\271\267\005*\255"
  63      1199DFCA 
  63      666438ED 
  63      CEB9B705 
  63      2AAD
  64 005b AE49EFBB 		.ascii	"\256I\357\273\367\366~\316\375\234s>\357\334[\023\003"
  64      F7F67ECE 
  64      FD9C733E 
  64      EFDC5B13 
  64      03
  65 006c 469F321B 		.ascii	"F\2372\033c\213\361\271\007\277\220\304@)\357a\254\310"
  65      638BF1B9 
  65      07BF90C4 
  65      4029EF61 
  65      ACC8
  66 007e A2986D67 		.ascii	"\242\230mg\035\314\260p\321\232D\253\211\326\"\347\301"
  66      1DCCB070 
  66      D19A44AB 
  66      89D622E7 
  66      C1
  67 008f 26179A14 		.ascii	"&\027\232\024\363\332\034f\350*\265vstZ\215v\264h\307"
  67      F3DA1C66 
  67      E82AB576 
  67      73745A8D 
  67      76B468C7 
  68 00a3 0256D9B1 		.ascii	"\002V\331\261*\366\365\035\014!z\261\206\020\273\234"
  68      2AF6F51D 
  68      0C217AB1 
  68      8610BB9C 
  69 00b3 5FAC4717 		.ascii	"_\254G\027\332\000\250cX\200\025*\334dV5\213\325\256"
  69      DA00A863 
  69      5880152A 
  69      DC645635 
  69      8BD5AE
  70 00c6 DBA050B1 		.ascii	"\333\240P\2612\010\230 ,\211?R\236*p\372\361\311\365"
  70      32089820 
  70      2C893F52 
  70      9E2A70FA 
  70      F1C9F5
  71 00d9 FADC1AC3 		.ascii	"\372\334\032\303\360\030\327\252G\027\215y|i>\316XX"
  71      F018D7AA 
  71      47178D79 
  71      7C693ECE 
  71      5858
ARM GAS  C:\Users\info\AppData\Local\Temp\ccHtobdL.s 			page 5


  72 00eb 61B0D005 		.ascii	"a\260\320\005\013\\\344T\015\314\305\225\275\305\365"
  72      0B5CE454 
  72      0DCCC595 
  72      BDC5F5
  73 00fa 5BF9DF8A 		.ascii	"[\371\337\212\217\003\230p\030\352\256\272\221LC\005"
  73      8F039870 
  73      18EAAEBA 
  73      914C4305 
  74 010a DC38DCDE 		.ascii	"\3348\334\336\267\343\222\3123\201a\177cg\337\375\244"
  74      B7E392CA 
  74      3381617F 
  74      6367DFFD 
  74      A4
  75 011b 9C6AB269 		.ascii	"\234j\262i\014~fX}\234\303n\340ds\027\270`'\270\030"
  75      0C7E6658 
  75      7D9CC36E 
  75      E0647317 
  75      B86027B8 
  76 0130 4E31A885 		.ascii	"N1\250\205\034\\\335U\337\0244\3617\005\362q\313\361"
  76      1C5CDD55 
  76      DF1434F1 
  76      3705F271 
  76      CBF1
  77 0142 A751E4A6 		.ascii	"\247Q\344\246v\233\261\000\271@\235\204J:D\016\366\010"
  77      769BB100 
  77      B9409D84 
  77      4A3A440E 
  77      F608
  78 0154 E0E6DE6B 		.ascii	"\340\346\336k\337\351\374m\001\334z\353A\2779\002\354"
  78      DFE9FC6D 
  78      01DC7AEB 
  78      41BF3902 
  78      EC
  79 0165 8D02F7CE 		.ascii	"\215\002\367\316\000\356\023\300\376\333\335\347t\236"
  79      00EE13C0 
  79      FEDBDDE7 
  79      749E
  80 0173 2B80BB0F 		.ascii	"+\200\273\017^\335\257E\200\341v\273Q\016>n\202\372"
  80      5EDDAF45 
  80      80E176BB 
  80      510E3E6E 
  80      82FA
  81 0185 E7D99A18 		.ascii	"\347\331\232\0304@\016\001\312\372\326\015q\376\276"
  81      34400E01 
  81      CAFAD60D 
  81      71FEBE
  82 0194 00571BF5 		.ascii	"\000W\033\365\353\254\331;\010\034\350\367'o1\002\305"
  82      EBACD93B 
  82      081CE8F7 
  82      276F3102 
  82      C5
  83 01a5 6E1F37C3 		.ascii	"n\0377\303\376X8}puOM\365\006\235\177(\220\33366_\214"
  83      FE58387D 
  83      70754F4D 
  83      F5069D7F 
  83      2890DB36 
  84 01bc 22837EC7 		.ascii	"\"\203~\307&#P\344&\312\277N\247\034\301U5\227xt\276"
ARM GAS  C:\Users\info\AppData\Local\Temp\ccHtobdL.s 			page 6


  84      262350E4 
  84      26CABF4E 
  84      A71CC155 
  84      35977874 
  85 01d1 48E0BC87 		.ascii	"H\340\274\207\203G\034\022g4.1\274\213\010t(\016h\250"
  85      83471C12 
  85      67342E31 
  85      BC8B0874 
  85      280E68A8 
  86 01e5 E1596592 		.ascii	"\341Ye\222Zl\340\307\015\215\220\015\007\361{\000\262"
  86      5A6CE0C7 
  86      0D8D900D 
  86      07F17B00 
  86      B2
  87 01f6 29B31888 		.ascii	")\263\030\210\303\240\242\010\370\364_\366}\0340\302"
  87      C3A0A208 
  87      F8F45FF6 
  87      7D1C30C2 
  88 0206 61AF1138 		.ascii	"a\257\0218\257\036\033\327\263ADK\241\270\231\201\""
  88      AF1E1BD7 
  88      B341444B 
  88      A1B89981 
  88      22
  89 0217 AE01254C 		.ascii	"\256\001%L\007\232v\340\264\352\244f\026P`f3\262\224"
  89      079A76E0 
  89      B4EAA466 
  89      16506066 
  89      33B294
  90 022a 22DA549A 		.ascii	"\"\332T\232N\023\335t\352R\370\3249\324d0\332\313\315"
  90      4E13DD74 
  90      EA52F8D4 
  90      39D46430 
  90      DACBCD
  91 023d 68B74C9A 		.ascii	"h\267L\232\310\022{0\366\0209m\310b!E\301\007\277\005"
  91      C8127B30 
  91      F610396D 
  91      C8622145 
  91      C107BF05 
  92 0251 FEC0603B 		.ascii	"\376\300`;\020G/7\223\236\372\177\0361W\300\367E\350"
  92      10472F37 
  92      939EFA7F 
  92      1E3157C0 
  92      F745E8
  93 0264 4E20D489 		.ascii	"N \324\211\232\323P\335\234<\205&\250\000\\\322\375"
  93      9AD350DD 
  93      9C3C8526 
  93      A8005CD2 
  93      FD
  94 0275 535D8F4A 		.ascii	"S]\217Jjd\240\343\320S\032\254\266D\021\343*\002\240"
  94      6A64A0E3 
  94      D0531AAC 
  94      B64411E3 
  94      2A02A0
  95 0288 19136170 		.ascii	"\031\023apR>\034\221\230'\343=\255\232\304\330H{\225"
  95      523E1C91 
  95      9827E33D 
  95      AD9AC4D8 
ARM GAS  C:\Users\info\AppData\Local\Temp\ccHtobdL.s 			page 7


  95      487B95
  96 029b C3DBD528 		.ascii	"\303\333\325(\246\\#L\213\300\210\200\265J\314\275\013"
  96      A65C234C 
  96      8BC08880 
  96      B54ACCBD 
  96      0B
  97 02ac B5755C62 		.ascii	"\265u\\b\222q\370\250g`\247=\212\031\020\230\337\004"
  97      9271F8A8 
  97      6760A73D 
  97      8A191098 
  97      DF04
  98 02be 86C8C151 		.ascii	"\206\310\301Q\211\251\373%\024pH\214\003\207?\376Z\263"
  98      89A9FB25 
  98      1470488C 
  98      03873FFE 
  98      5AB3
  99 02d0 2169929B 		.ascii	"!i\222\233\300\004\004\306D\230c\210\301gH\341\254X"
  99      C00404C6 
  99      44986388 
  99      C16748E1 
  99      AC58
 100 02e2 E337A1C8 		.ascii	"\3437\241\310Iq \342#P\034x\322\316iH\011nj\272;\250"
 100      497120E2 
 100      23501C78 
 100      D2CE6948 
 100      096E6ABA 
 101 02f8 153E35D6 		.ascii	"\025>5\326\032\206\323\307-a\005a\320\006\205\314\313"
 101      1A86D3C7 
 101      2D610561 
 101      D00685CC 
 101      CB
 102 0309 D1A61597 		.ascii	"\321\246\025\227\373\002\377\252\361W\353a\2144\203"
 102      FB02FFAA 
 102      F157EB61 
 102      8C3483
 103 0318 E3723545 		.ascii	"\343r5E\330\327vF\204\302&U6q\364\257d\\\275Y\254\266"
 103      D8D77646 
 103      84C22655 
 103      3671F4AF 
 103      645CBD59 
 104 032e 9572B3D0 		.ascii	"\225r\263\320\324\251\252\332\257\266\301\017E\345b"
 104      D4A9AADA 
 104      AFB6C10F 
 104      45E562
 105 033d DA0EBF43 		.ascii	"\332\016\277C!\234 }\343o\341\321\375{\255\022bl\002"
 105      219C207D 
 105      E36FE1D1 
 105      FD7BAD12 
 105      626C02
 106 0350 32D40EDB 		.ascii	"2\324\016\333D\016\031t@\241\217'\011\257L\261^)\354"
 106      440E1974 
 106      40A18F27 
 106      09AF4CB1 
 106      5E29EC
 107 0363 3A140F78 		.ascii	":\024\017xk\312\322e\266)w\373\3566\375\223D\\P\241"
 107      6BCAD265 
 107      B62977FB 
ARM GAS  C:\Users\info\AppData\Local\Temp\ccHtobdL.s 			page 8


 107      EE36FD93 
 107      445C50A1 
 108 0377 7032F2FA 		.ascii	"p2\362\372\204\0243k\343\234\234\252,\201\027zuj\246"
 108      8414336B 
 108      E39C9CAA 
 108      2C81177A 
 108      756AA6
 109 038a 57C971BC 		.ascii	"W\311q\274J.\345j\034\257\034p\032\275\352\214\343\325"
 109      4A2EE56A 
 109      1CAF1C70 
 109      1ABDEA8C 
 109      E3D5
 110 039c 1AB2D335 		.ascii	"\032\262\3235\351T\367\224Sj\224\332\226\227P\353\231"
 110      E954F794 
 110      536A94DA 
 110      969750EB 
 110      99
 111 03ad 49CD1987 		.ascii	"I\315\031\207\232\263\224\004>\203\332+p\026\251\235"
 111      9AB39404 
 111      3E83DA2B 
 111      7016A99D 
 112 03bd 894FCD09 		.ascii	"\211O\315\011\275\223\324\376\230\242\246\305\306\233"
 112      BD93D4FE 
 112      98A2A6C5 
 112      C69B
 113 03cb 0B155DEE 		.ascii	"\013\025]\356H\240\242W\303\012U\311sQ\025\275&TtE\213"
 113      48A0A257 
 113      C30A55C9 
 113      735115BD 
 113      26547445 
 114 03e0 BF7A5618 		.ascii	"\277zV\030\323\311\240o\322\251\322\326\352\336d)\364"
 114      D3C9A06F 
 114      D2A9D2D6 
 114      EADE6429 
 114      F4
 115 03f1 4C380F2E 		.ascii	"L8\017.\037\237\315\206\301;\346o\313\220\351u`\206"
 115      1F9FCD86 
 115      C13BE66F 
 115      CB90E975 
 115      6086
 116 0403 E11D174D 		.ascii	"\341\035\027M\216\253r\312\211\263\010=4|\252]\227I"
 116      8EAB72CA 
 116      89B3083D 
 116      347CAA5D 
 116      9749
 117 0415 37002EA0 		.ascii	"7\000.\240\217#`N\270-\312\021\202r[\264@\333\220[c"
 117      8F23604E 
 117      B82DCA11 
 117      82725BB4 
 117      40DB905B 
 118 042a 0978A257 		.ascii	"\011x\242W\230i\2708\345\025E\306\022\033\031\22301"
 118      9869B838 
 118      E51545C6 
 118      121B1993 
 118      3031
 119 043c 91D80405 		.ascii	"\221\330\004\005\246\177\312\3040x\232\033\302\025\\"
 119      A67FCAC4 
ARM GAS  C:\Users\info\AppData\Local\Temp\ccHtobdL.s 			page 9


 119      30789A1B 
 119      C2155C
 120 044b 7A317B7A 		.ascii	"z1{zJS\344Q\326\321\271\326N\3113\304\033\201\345.\325"
 120      4A53E451 
 120      D6D1B9D6 
 120      4EC933C4 
 120      1B81E52E 
 121 0460 CB67C140 		.ascii	"\313g\301@$}\3257={\265\371\357R\254\0061q\317\024Q"
 121      247DD537 
 121      3D7BB5F9 
 121      EF52AC06 
 121      3171CF14 
 122 0475 CD2EC17C 		.ascii	"\315.\301|6\004\036c\241(\320XA\2752\204U\376\211H\010"
 122      36041E63 
 122      A128D058 
 122      41BD3284 
 122      55FE8948 
 123 048a 53E466EB 		.ascii	"S\344f\353&\202e\026\031j\013\\F\233C\240LaR$\275\023"
 123      26826516 
 123      196A0B5C 
 123      469B43A0 
 123      4C615224 
 124 04a0 1EB304A5 		.ascii	"\036\263\004\245N\247\307c\350\341\253\232\206.\301"
 124      4EA7C763 
 124      E8E1AB9A 
 124      862EC1
 125 04af 9599BCAE 		.ascii	"\225\231\274\256\012^\242b^C^Hc\243\277+R\226\323\004"
 125      0A5EA262 
 125      5E435E48 
 125      63A3BF2B 
 125      5296D304 
 126 04c3 93D4D86D 		.ascii	"\223\324\330m\323\204\\*;\023\250+\242\227\353\223z"
 126      D3845C2A 
 126      3B13A82B 
 126      A297EB93 
 126      7A
 127 04d4 29B963B4 		.ascii	")\271c\264\232\244\023n\030\232\324\313\270\177\340"
 127      9AA4136E 
 127      189AD4CB 
 127      B87FE0
 128 04e3 2DB94B3A 		.ascii	"-\271K:\332|\251\030\310\346\215\250\030\322\245\015"
 128      DA7CA918 
 128      C8E68DA8 
 128      18D2A50D 
 129 04f3 74BE7DC8 		.ascii	"t\276}\310!\215\270b\275M\224\205\233\302[Q\353oIo\307"
 129      218DB862 
 129      BD4D9485 
 129      9BC25B51 
 129      EB6F496F 
 130 0508 FD1F480B 		.ascii	"\375\037H\013s\244\221\306\373\265\215\221\302\024`"
 130      73A491C6 
 130      FBB58D91 
 130      C21460
 131 0517 30FC3F68 		.ascii	"0\374?h\335\216\322\232C\264HuV\20673\216)v\212\243"
 131      DD8ED29A 
 131      43B44875 
 131      56863733 
ARM GAS  C:\Users\info\AppData\Local\Temp\ccHtobdL.s 			page 10


 131      8E29768A 
 132 052c CF8BC910 		.ascii	"\317\213\311\020l\273>\222[e<\257\2345/\020\316\210"
 132      6CBB3E92 
 132      5B653CAF 
 132      9C352F10 
 132      CE88
 133 053e A02C8E9A 		.ascii	"\240,\216\232;\021\341XE6\016R62\204\345P\327\247\322"
 133      3B11E158 
 133      45360E52 
 133      363284E5 
 133      50D7A7D2 
 134 0552 B2FB79CB 		.ascii	"\262\373y\313\025\2115i\206QaZ\234H\177FL'\011\323\007"
 134      15893569 
 134      8651615A 
 134      9C487F46 
 134      4C2709D3 
 135 0567 C8B45B6A 		.ascii	"\310\264[j\362\302.\223\264\235\211\273\011\025\216"
 135      F2C22E93 
 135      B49D89BB 
 135      09158E
 136 0576 408213E7 		.ascii	"@\202\023\347\3650\226\"\006w\243\001A\004\336w\322"
 136      F5309622 
 136      0677A301 
 136      4104DE77 
 136      D2
 137 0587 A5A8AEEC 		.ascii	"\245\250\256\354\316\225v\2620\036\010=\347=q&r\310"
 137      CE9576B2 
 137      301E083D 
 137      E73D7126 
 137      72C8
 138 0599 8601EE4D 		.ascii	"\206\001\356MS\267\010Y\026\035\032\203\336\003\225"
 138      53B70859 
 138      161D1A83 
 138      DE0395
 139 05a8 5A04153D 		.ascii	"Z\004\025=%\306\000\260\300X\260\311\262\267\234_\212"
 139      25C600B0 
 139      C058B0C9 
 139      B2B79C5F 
 139      8A
 140 05b9 D70A3BC3 		.ascii	"\327\012;\303\2132\204\024\235^vQ\372\022\2113R$\356"
 140      8B328414 
 140      9D5E7651 
 140      FA128933 
 140      5224EE
 141 05cc C716091B 		.ascii	"\307\026\011\033\335G\250H\210\353\306(\245\315+\356"
 141      DD47A848 
 141      88EBC628 
 141      A5CD2BEE 
 142 05dc 0363A04C 		.ascii	"\003c\240L\177\247\360\257\000<\000\227\2625\270\032"
 142      7FA7F0AF 
 142      003C0097 
 142      B235B81A 
 143 05ec A70F9674 		.ascii	"\247\017\226t5\350r\032\340!\270\324\226\340\027\364"
 143      35E8721A 
 143      E021B8D4 
 143      96E017F4 
 144 05fc C431B666 		.ascii	"\3041\266f\321\352\242\325\350\356\003\270\011\332|"
ARM GAS  C:\Users\info\AppData\Local\Temp\ccHtobdL.s 			page 11


 144      D1EAA2D5 
 144      E8EE03B8 
 144      09DA7C
 145 060b 63DEBC25 		.ascii	"c\336\274%\337\346-\313\315/X\271\242\000{\253\363\362"
 145      DFE62DCB 
 145      CD2F58B9 
 145      A2007BAB 
 145      F3F2
 146 061d 97E62F2F 		.ascii	"\227\346//\370</\357\275\334y\005\314D3\374\353\225"
 146      F83C2FEF 
 146      BDDC7905 
 146      CC4433FC 
 146      EB95
 147 062f CBB44F56 		.ascii	"\313\264OV,\313\377\362\233U\342\271|\325\012\216_("
 147      2CCBFFF2 
 147      9B55E2B9 
 147      7CD50A8E 
 147      5F28
 148 0641 80D5FF01 		.ascii	"\200\325\377\001\002\312\332\364"
 148      02CADAF4 
 149              		.text
 150              		.section	.gnu.lto_u8x8_d_pcf8812_96x65_init_seq.bf14f92e,"",%progbits
 151 0000 789C4D8F 		.ascii	"x\234M\217]K\002A\030\205\347\235uM\3234\210\242`/\012"
 151      5D4B0241 
 151      1885E79D 
 151      754DD334 
 151      88A2602F 
 152 0015 FA03D58D 		.ascii	"\372\003\325\215?\257\300\015\351\252 \022\244(\372"
 152      3FAFC00D 
 152      E9AA2012 
 152      A428FA
 153 0024 C0D4FCA8 		.ascii	"\300\324\374\250\314\334UK\212.\012\203\354&\244.\002"
 153      CCDC554B 
 153      8A2E0A83 
 153      EC26A42E 
 153      02
 154 0035 0D22224C 		.ascii	"\015\"\"L\026\214L\355l3\027\015<\314>\2343\363\356"
 154      168C4CED 
 154      6C33170D 
 154      3CCC3E9C 
 154      33F3EE
 155 0048 3818317B 		.ascii	"8\0301{\215q&\277\030\353rJ\353\215\230\313\342\272"
 155      8D7126BF 
 155      18EB724A 
 155      EB8D98CB 
 155      E2BA
 156 005a C2A84FF0 		.ascii	"\302\250O\360\373fe\303c;\3210\324\012Wj~\021O@S-+\345"
 156      FB6665C3 
 156      633BD130 
 156      D40A576A 
 156      7E114F40 
 157 0072 14A91FFA 		.ascii	"\024\251\037\372U\254ns\221NC\273O\013=.R\037\264\036"
 157      55AC6E73 
 157      914E43BB 
 157      4F0B3D2E 
 157      521FB41E 
 158 0086 ED859D22 		.ascii	"\355\205\235\"\035\205\356\274\031\227\252H\207\240"
ARM GAS  C:\Users\info\AppData\Local\Temp\ccHtobdL.s 			page 12


 158      1D85EEBC 
 158      1997AA48 
 158      87A0
 159 0094 6BD97CDC 		.ascii	"k\331|\334#\322M{p\347u\265F\"\366B\037jAC\252\307\376"
 159      23D24D7B 
 159      70E775B5 
 159      4622F642 
 159      1F6A4143 
 160 00ab 0F63F1DB 		.ascii	"\017c\361\333'\332#\366\244\346]\327+\322Ah\"\267g\312"
 160      27DA23F6 
 160      A4E65DD7 
 160      2BD24168 
 160      22B767CA 
 161 00bf B21BDAE8 		.ascii	"\262\033\332\350$MYv\332g\227\364\266\"\322\001h\350"
 161      244D5976 
 161      DA6797F4 
 161      B622D201 
 161      68E8
 162 00d1 F1DDF28A 		.ascii	"\361\335\362\212t\352\177\231\376\312\327\273\346\217"
 162      74EA7F99 
 162      FECAD7BB 
 162      E68F
 163 00df BC598546 		.ascii	"\274Y\205F\012\326\215*\312.h5\230Y\227W9\240\027\255"
 163      0AD68D2A 
 163      CA2E6835 
 163      98599757 
 163      39A017AD 
 164 00f3 4C549615 		.ascii	"LT\226\025\350\347m\244.\347NB\257\372\355\262_\244"
 164      E8E76DA4 
 164      2EE74E42 
 164      AFFAEDB2 
 164      5FA4
 165 0105 1CFA117C 		.ascii	"\034\372\021|y\226\017\036\207\026\022+%w 7\037\332"
 165      79960F1E 
 165      8716122B 
 165      25772037 
 165      1FDA
 166 0117 9A5F5675 		.ascii	"\232_Vu\205\323\214F\347\244\321\254FIlg\240\004\212"
 166      85D38C46 
 166      E7A4D1AC 
 166      46496C67 
 166      A0048A
 167 012a 24BC004C 		.ascii	"$\274\000L`H\317\203S\220\223>\247\321\011\266\254\324"
 167      6048CF83 
 167      5390933E 
 167      A7D109B6 
 167      ACD4
 168 013c 6370040E 		.ascii	"cp\004\016\245g@\032\244\244\037\200\004\210\203\030"
 168      A567401A 
 168      A4A41F80 
 168      04888318 
 169 014c D80751D2 		.ascii	"\330\007Q\322\030\225)\300~\001t\245\263\202"
 169      189529C0 
 169      7E0174A5 
 169      B382
 170              		.text
 171              		.section	.gnu.lto_u8x8_d_pcf8812_96x65_powersave0_seq.bf14f92e,"",%progbits
ARM GAS  C:\Users\info\AppData\Local\Temp\ccHtobdL.s 			page 13


 172 0000 789C2DCB 		.ascii	"x\234-\313\315\012\001Q\030\306\361\363\316 \241\261"
 172      CD0A0151 
 172      18C6F1F3 
 172      CE20A1B1 
 173 0010 52D42CDC 		.ascii	"R\324,\334\002\253\271,\227`1S.@M\311BQc|\016\312\302"
 173      02ABB92C 
 173      97603153 
 173      2E404DC9 
 173      4251637C 
 174 0027 4A8A522C 		.ascii	"J\212R,,g\247f\224\025a\312b|=\323\353\324\3239\277"
 174      2C67A766 
 174      941561CA 
 174      627C3DD3 
 174      EBD4D339 
 175 003c FE9D9820 		.ascii	"\376\235\230 \021\235\007\306/!\336\022\215\015\337"
 175      119D07C6 
 175      2F21DE12 
 175      8D0DDF
 176 004b 4E069221 		.ascii	"N\006\222!\013\372\022\354\207\303\205\022\231(\001"
 176      0BFA12EC 
 176      87C38512 
 176      992801
 177 005a 06E6CECD 		.ascii	"\006\346\316\315r.\200\333\316\342\225\341\032\007\303"
 177      722E80DB 
 177      CEE295E1 
 177      1A07C3
 178 0069 73DD25AE 		.ascii	"s\335%\256\031\360\240;M\231k\014\364\254\217\231\340"
 178      19F0A03B 
 178      4D996B0C 
 178      F4AC8F99 
 178      E0
 179 007a 9A035777 		.ascii	"\232\003Ww\307\372\377\225\301\333\276\341)\\\213\340"
 179      C7FAFF95 
 179      C1DBBEE1 
 179      295C8BE0 
 180 008a FAFB5C66 		.ascii	"\372\373\\f\271J\340E?\035\323\\\363\340\354\272i\247"
 180      B94AE045 
 180      3F1DD35C 
 180      F3E0ECBA 
 180      69A7
 181 009c B479B5D6 		.ascii	"\264y\265\326\252V\014Y\242\222J\023R\251\254\322\020"
 181      AA560C59 
 181      A2924A13 
 181      52A9ACD2 
 181      10
 182 00ad 97838DB1 		.ascii	"\227\203\215\261\021\261\007X\037\353a6\326\305,R\005"
 182      11B10758 
 182      1FEB6136 
 182      D6C52C52 
 182      05
 183 00be 4D49133F 		.ascii	"MI\023?C\272S\362"
 183      43BA53F2 
 184              		.text
 185              		.section	.gnu.lto_u8x8_d_pcf8812_96x65_powersave1_seq.bf14f92e,"",%progbits
 186 0000 789C2DCC 		.ascii	"x\234-\314?k\302@\030\307\361{\356\374\007\0253\011"
 186      3F6BC240 
 186      18C7F17B 
ARM GAS  C:\Users\info\AppData\Local\Temp\ccHtobdL.s 			page 14


 186      EEFC0715 
 186      3309
 187 0012 166E50F0 		.ascii	"\026nP\360\015\330.\276\274\014\011H'\027\011H\007)"
 187      0DD82EBE 
 187      BC0C0948 
 187      27170948 
 187      0729
 188 0024 42AAD69A 		.ascii	"B\252\326\232\376\241C\332\241\010\016\025\035\034\273"
 188      FEA143DA 
 188      A1080E15 
 188      1D1CBB
 189 0033 15121D1C 		.ascii	"\025\022\035\034\012\225@\204\266\352/<\011|\271|\370"
 189      0A954084 
 189      B6EA2F3C 
 189      097CB97C 
 189      F8
 190 0044 1D971124 		.ascii	"\035\227\021$\222\257\206\203\377\204\370\2274\261\303"
 190      92AF8683 
 190      FF84F897 
 190      34B1C3
 191 0053 412192B6 		.ascii	"A!\222\266\022t$8r\026\237\006\373<\341\225\035\253"
 191      12742438 
 191      72169F06 
 191      FB3CE195 
 191      1DAB
 192 0065 84447970 		.ascii	"\204Dyp\377\266\272\221\274\326\301\360w\354\227x\315"
 192      FFB6BA91 
 192      BCD6C1F0 
 192      77EC9778 
 192      CD
 193 0076 81817B70 		.ascii	"\201\201{pr\274\226\301\217\276\377W\3445\013v_\243"
 193      72BC96C1 
 193      8FBEFF57 
 193      E4350B76 
 193      5FA3
 194 0088 7996D702 		.ascii	"y\226\327\002\270\262\274\353\364\345\0148\335ynzY\201"
 194      B8B2BCEB 
 194      F4E50C38 
 194      DD796E7A 
 194      5981
 195 009a 3FCB6E50 		.ascii	"?\313nP\342\313Upv\214\337\015^%\370m\255\277\316x\255"
 195      E2CB5570 
 195      768CDF0D 
 195      5E25F86D 
 195      ADBFCE78 
 196 00af 809DE576 		.ascii	"\200\235\345v#\233/f\253g\266\225\255$54=\221\246\013"
 196      239B2F66 
 196      AB67B695 
 196      AD243534 
 196      3D91A60B 
 197 00c3 4D77381E 		.ascii	"Mw8\036\321\003\362\210=A\367h\234z\204\206h\200n\321"
 197      D103F288 
 197      3D41F768 
 197      9C7A8486 
 197      68806ED1 
 198 00d7 A52697B4 		.ascii	"\245&\227\264\240gj\212\023\371\350a2"
 198      A0676A8A 
ARM GAS  C:\Users\info\AppData\Local\Temp\ccHtobdL.s 			page 15


 198      13F9E861 
 198      32
 199              		.text
 200              		.section	.gnu.lto_u8x8_d_pcf8812_96x65.bf14f92e,"",%progbits
 201 0000 789C6552 		.ascii	"x\234eRMHTQ\024\276\337;o\346\315\274\361o\351b\010"
 201      4D485451 
 201      14BEDF3B 
 201      6FE6CDBC 
 201      F16FE962 
 202 0015 DB24B610 		.ascii	"\333$\266\020\263\315\264q\337\266u1\304T\022Q\210\032"
 202      B3CDB471 
 202      DFB67531 
 202      C4541251 
 202      881A
 203 0027 B89BABCF 		.ascii	"\270\233\253\317\207E\005BT\"\212A\210\245\345_i\215"
 203      87450542 
 203      54228A41 
 203      88A5E55F 
 203      698D
 204 0039 054D059A 		.ascii	"\005M\005\232\251\305\220\020V\240\025b\210T\323\017"
 204      A9C59010 
 204      56A01562 
 204      8854D30F 
 205 0049 42304EE7 		.ascii	"B0N\347\334\321M^x\334s\317;\337w\276\363\335k+(Y\031"
 205      DCD14D5E 
 205      78DC73CF 
 205      3BDF77BE 
 205      F3DD6B2B 
 206 0060 4BA943BC 		.ascii	"K\251C\274\327\361\207\240\202\325\371Z\251\326\220"
 206      D7F187A0 
 206      82D5F95A 
 206      A9D690
 207 006f 65D14CA9 		.ascii	"e\321L\251\322\256=[\247t\021!PH\333;A\000\220@\207"
 207      D2AE3D5B 
 207      A7741121 
 207      5048DB3B 
 207      41009040 
 208 0084 A09216D9 		.ascii	"\240\222\026\331\001$\361\307\312Y\230\333|y\331\255"
 208      0124F1C7 
 208      CA5998DB 
 208      7C79D9AD 
 209 0094 1AD0BA4D 		.ascii	"\032\320\272M\257\254>>\234m\363\313}R*o)\034\214\242"
 209      AFAC3E3E 
 209      9C6DF3CB 
 209      7D522A6F 
 209      291C8CA2 
 210 00a8 262A5D06 		.ascii	"&*]\006P\305\225\231\366\321\036\372m\371\004\330|\314"
 210      50C59599 
 210      F6D11EFA 
 210      6DF904D8 
 210      7CCC
 211 00ba 2E747F29 		.ascii	".t\177)\221\243\205\012>\336\\\274\3651H{\2418\276\376"
 211      91A3850A 
 211      3EDE5CBC 
 211      F531487B 
 211      A138BEFE 
 212 00ce 6AF15B71 		.ascii	"j\361[qe\277p\352\336\223:\354\023a\020$\234w\020\305"
ARM GAS  C:\Users\info\AppData\Local\Temp\ccHtobdL.s 			page 16


 212      65BF70EA 
 212      DE933AEC 
 212      13611024 
 212      9C7710C5 
 213 00e2 6D4415A7 		.ascii	"mD\025\247\024\206P\311\325\363\243\251w6\3553\310\315"
 213      148650C9 
 213      D5F3A3A9 
 213      7736ED33 
 213      C8CD
 214 00f4 272F723B 		.ascii	"'/r;\310\245c\232X\012\356\026\220\0055\242\015\367"
 214      C8A5639A 
 214      580AEE16 
 214      900535A2 
 214      0DF7
 215 0106 0CAE2BB3 		.ascii	"\014\256+\263r\305\245\375\006\327\263\372})\260\215"
 215      72C5A5FD 
 215      06D7B3FA 
 215      7D29B08D 
 216 0116 BB3A1DD1 		.ascii	"\273:\035\3215\002\034\336\005\0341\300\245\265\205"
 216      35021CDE 
 216      051C31C0 
 216      A5B585
 217 0125 B72ED51A 		.ascii	"\267.\325\032\340\340\304\362\270\263\015\314L\027\351"
 217      E0E0C4F2 
 217      B8B30DCC 
 217      4C17E9
 218 0134 4EF86463 		.ascii	"N\370dc\364\177\261\266\302\030*\005\360yl\353Zq\260"
 218      F47FB1B6 
 218      C2182A05 
 218      F0796CEB 
 218      5A71B0
 219 0147 5DF3AA10 		.ascii	"]\363\252\020\227\230u\034A\271\232\221#i\235\317{:"
 219      9798751C 
 219      41B99A91 
 219      23699DCF 
 219      7B3A
 220 0159 9D8D3CDB 		.ascii	"\235\215<\333\212D -\331+\026\313\336\363\250\016\244"
 220      8A44202D 
 220      D92B16CB 
 220      DEF3A80E 
 220      A4
 221 016a 7F08C2E4 		.ascii	"\177\010\302\344\032=\352\007\343\345V\262\226%;}B\373"
 221      1A3DEA07 
 221      E3E556B2 
 221      96253B7D 
 221      42FB
 222 017c 7B6FED46 		.ascii	"{o\355F\271PzD\334nh\262\177\012\342r\000a\334G\324"
 222      B9507A44 
 222      DC6E68B2 
 222      7F0AE272 
 222      0061DC47 
 223 0191 3C81AC45 		.ascii	"<\201\254Ej\246\224\276\302Oo\316\221\024\213\262Tj"
 223      6AA694BE 
 223      C24F6FCE 
 223      91148BB2 
 223      546A
 224 01a3 E38393CC 		.ascii	"\343\203\223\314\351\013Z\227\371\024\314[,\012\017"
ARM GAS  C:\Users\info\AppData\Local\Temp\ccHtobdL.s 			page 17


 224      E90B5A97 
 224      F914CC5B 
 224      2C0A0F
 225 01b2 90541E05 		.ascii	"\220T\036\005\344R\374\347o\034ar\314\340\336\337\247"
 225      E452FCE7 
 225      6F1C6172 
 225      CCE0DEDF 
 225      A7
 226 01c3 BF4AB8BA 		.ascii	"\277J\270\272\313T;\027E\016\247g\273\207\316\364\241"
 226      CB543B17 
 226      450EA767 
 226      BB87CEF4 
 226      A1
 227 01d4 B7B5D3A4 		.ascii	"\267\265\323\244C\230\344w2!m\371_~}|8\314\220r\341"
 227      4398E477 
 227      32216DF9 
 227      5F7E7D7C 
 227      38CC9072 
 228 01e9 78883E98 		.ascii	"x\210>\230\316x\204\244Oa#\313V\263u,\253#\235\273T"
 228      CE7884A4 
 228      4F6123CB 
 228      56B3752C 
 228      AB239DBB 
 229 01fe 5298C1DD 		.ascii	"R\230\301\335%\314\315\363\260\012\251\2020\236\322"
 229      25CCCDF3 
 229      B00AA982 
 229      309ED2
 230 020d 23C7A390 		.ascii	"#\307\243\220O\021C\0210F\254\243\255\214\177\213\255"
 230      4F114311 
 230      3046ACA3 
 230      AD8C7F8B 
 230      AD
 231 021e 3F01E698 		.ascii	"?\001\346\230\350\230\037sE\275\0020\205(\315/\2670"
 231      E8981F73 
 231      45BD0230 
 231      8528CD2F 
 231      B730
 232 0230 BBBDB1DC 		.ascii	"\273\275\261\334\300.B@\314\272\247\272\372\350\371"
 232      C02E4240 
 232      CCBAA7BA 
 232      FAE8F9
 233 023f 587D6D3C 		.ascii	"X}m<\321\324\230\340\250%\026?\021oH\234\212\305\016"
 233      D1D498E0 
 233      A825163F 
 233      116F489C 
 233      8AC50E
 234 0252 D4562794 		.ascii	"\324V'\224-\031:\333T\357\034o\254\217\237>\327l\366"
 234      2D193ADB 
 234      54EF1C6F 
 234      AC8F9F3E 
 234      D76CF6
 235 0265 86E6C67F 		.ascii	"\206\346\306\177\226\344\005\312"
 235      96E405CA 
 236              		.text
 237              		.section	.gnu.lto_u8x8_pcf8812_96x65_display_info.bf14f92e,"",%progbits
 238 0000 789C2DCD 		.ascii	"x\234-\315OK\002A\030\307\361\371\315\354\246kkZg_\200"
 238      4F4B0241 
ARM GAS  C:\Users\info\AppData\Local\Temp\ccHtobdL.s 			page 18


 238      18C7F1F9 
 238      CDECA66B 
 238      6B5A675F 
 239 0015 2FC1B7E0 		.ascii	"/\301\267\340\273Z$\245\253!^4\010B\312?\351\272\224"
 239      BB5A24A5 
 239      AB215E34 
 239      0842CA3F 
 239      E9BA94
 240 0028 609D8C40 		.ascii	"`\235\214@\350\326\321\303B\007\211\002\361\222(\022"
 240      E8D6D1C3 
 240      42078902 
 240      F1922812 
 241 0038 4AF3EB71 		.ascii	"J\363\353q.\337\3710\317\3038\012\212\247h#7\245v\032"
 241      2EDFF930 
 241      CFC3380A 
 241      8AA76823 
 241      37A5761A 
 242 004c E3A017FB 		.ascii	"\343\240\027\373+]6\012\023\272\364<\253f\304\037\364"
 242      2B5D360A 
 242      13BAF43C 
 242      AB66C41F 
 242      F4
 243 005d 6031DEA6 		.ascii	"`1\336\246i\200\354\216ZO\020z\226\277_\265\331\201"
 243      6980EC8E 
 243      5A4F107A 
 243      96BF5FB5 
 243      D981
 244 006f BEE576D3 		.ascii	"\276\345v\323\334\270\302:\254\033?\361\267'\316[\276"
 244      DCB8C23A 
 244      AC1B3FF1 
 244      B727CE5B 
 244      BE
 245 0080 9F874D23 		.ascii	"\237\207M#t,\343(\272\372\237\326\010.W\234\177\273"
 245      742CE328 
 245      BAFA9FD6 
 245      082E579C 
 245      7FBB
 246 0092 59BF1CF6 		.ascii	"Y\277\034\366\347\374\355\341uZI\212\371\374\371\030"
 246      E7FCEDE1 
 246      755A498A 
 246      F9FCF918 
 247 00a2 2FDDC228 		.ascii	"/\335\302(\270\270\016B\267l\314^+\264\221\333k`\310"
 247      B8B80E42 
 247      B76CCC5E 
 247      2BB491DB 
 247      6B60C8
 248 00b5 68848C91 		.ascii	"h\204\214\2218\022Wr$IH\222\0300\236\254\247\320g\216"
 248      38125772 
 248      24494892 
 248      18309EAC 
 248      A7D0678E 
 249 00c9 71CFF8E8 		.ascii	"q\317\370\3501it\231\023t\230\214Lf%\247\270c\316p\213"
 249      31697499 
 249      1374988C 
 249      4C6625A7 
 249      B863CE70 
 250 00de 9C428482 		.ascii	"\234B\204\202\372\0038=n\351"
ARM GAS  C:\Users\info\AppData\Local\Temp\ccHtobdL.s 			page 19


 250      FA03383D 
 250      6EE9
 251              		.text
 252              		.section	.gnu.lto_.symbol_nodes.bf14f92e,"",%progbits
 253 0000 789C55CA 		.ascii	"x\234U\312=jBA\024\206\341\367\314\231\373\347_am\241"
 253      3D6A4241 
 253      1486E1F7 
 253      CC99FBE7 
 253      5F616DA1 
 254 0014 5BB1CCA6 		.ascii	"[\261\314\246\316\024\242\220\"\011\010\326\006\334"
 254      CE14A290 
 254      220908D6 
 254      06DC
 255 0022 404AC572 		.ascii	"@J\305rJq\015I\270\330f\013\271w4\220\251^\036\276\317"
 255      4A710D49 
 255      B8D8660B 
 255      B9773490 
 255      A95E1EBE 
 256 0037 232C0570 		.ascii	"#,\005pj\360v\205.\307\360\036\024\012\\\230\202\026"
 256      6AF07685 
 256      2EC7F01E 
 256      140A5C98 
 256      8216
 257 0049 22F73A52 		.ascii	"\"\367:R]a\362w=\205Ew\364\232\006\031\231K\003\204"
 257      5D61F277 
 257      3D854577 
 257      F49A0619 
 257      994B0384 
 258 005d 3007199B 		.ascii	"0\007\031\233f\036\230\317\334X\221yhe\346\332\252\314"
 258      661E98CF 
 258      DC589179 
 258      6865E6DA 
 258      AACC
 259 006f 95D5994B 		.ascii	"\225\325\231Kk\376[\031\321~\316\224!\253\257\224\366"
 259      6BFE5B19 
 259      D17ECE94 
 259      21ABAF94 
 259      F6
 260 0080 6392B4BE 		.ascii	"c\222\264\276\211\322\020\327\027Uj\332\324\001q\323"
 260      89D210D7 
 260      17556ADA 
 260      D40171D3 
 261 0090 B7A44D6D 		.ascii	"\267\244Mm8<\337\367\303\313\343\367h|\355[\021\267"
 261      383CDFF7 
 261      C3CBE3F7 
 261      687CED5B 
 261      11B7
 262 00a2 3F4FFD3F 		.ascii	"?O\375?\356:\3731\361<S\017\337\373\233\360\013\317"
 262      EE3AFB31 
 262      F13C530F 
 262      DFFB9BF0 
 262      0BCF
 263 00b4 AD451E   		.ascii	"\255E\036"
 264              		.text
 265              		.section	.gnu.lto_.refs.bf14f92e,"",%progbits
 266 0000 789C6361 		.ascii	"x\234ca`d\020d```f`bdabbgb\346\000\322\254L\014\000"
 266      60641064 
ARM GAS  C:\Users\info\AppData\Local\Temp\ccHtobdL.s 			page 20


 266      60606066 
 266      60626461 
 266      62626762 
 267 001b 03970047 		.ascii	"\003\227\000G"
 268              		.text
 269              		.section	.gnu.lto_.decls.bf14f92e,"",%progbits
 270 0000 789CBD59 		.ascii	"x\234\275YiP\024Y\236\257\227\257\200\242(@\201\356"
 270      69501459 
 270      9EAF97AF 
 270      80A22840 
 270      81EE
 271 0012 3566D969 		.ascii	"5f\331i\243\333V6b\307\026\273\247\303\335\017\033="
 271      A3DB5636 
 271      62C716BB 
 271      A7C3DD0F 
 271      1B3D
 272 0024 31337B7D 		.ascii	"13{}\330\230\210\236\356\017\273\304\326\026E\241\265"
 272      D898889E 
 272      EE0FBBC4 
 272      D61645A1 
 272      B5
 273 0035 03450D55 		.ascii	"\003E\015UxL\354F'\207\210\250\034\212\310\245\240x"
 273      784CEC46 
 273      278788A8 
 273      1C8AC8A5 
 273      A078
 274 0047 80A0A222 		.ascii	"\200\240\242\"\210\200\224\027\240\210\"\212\027\010"
 274      88809417 
 274      A088228A 
 274      1708
 275 0055 B4A2D222 		.ascii	"\264\242\322\"\212\034\"\002\262\377\367^fe&fu\177\331"
 275      8A1C2202 
 275      B2FFF75E 
 275      66652666 
 275      757FD9
 276 0068 D90C7E64 		.ascii	"\331\014~d\376\337\373\345\377zG\3763K\253A\032r\270"
 276      FEDFFBE5 
 276      FF7A47FE 
 276      334BAB41 
 276      1A72B8
 277 007b 3ED268DA 		.ascii	">\322h\332\2744\232jN\243\231\203\303\007\332\276\005"
 277      BC349A6A 
 277      4EA39983 
 277      C307DABE 
 277      05
 278 008c 78038E01 		.ascii	"x\003\216\001\352\010\007\320\0020\300-\241\032v\350"
 278      EA0807D0 
 278      0230C02D 
 278      A11A76E8 
 279 009c 015F83FC 		.ascii	"\001_\203\374\015\340\337\001f\200\025\020\003\210\003"
 279      0DE0DF01 
 279      66801510 
 279      038803
 280 00ab 3801EB01 		.ascii	"8\001\353\001\377\003\320\002\367;8'\002\222\001\033"
 280      FF03D002 
 280      F73B3827 
 280      0292011B 
ARM GAS  C:\Users\info\AppData\Local\Temp\ccHtobdL.s 			page 21


 281 00bb 91467110 		.ascii	"\221Fq\020=\177)\330\013\002\204\000\302\211n8\377\207"
 281      3D7F29D8 
 281      0B028400 
 281      C2896E38 
 281      FF87
 282 00cd 6093F894 		.ascii	"`\223\370\224\012\327\353\000\233\020\363\247\031\340"
 282      0AD7EB00 
 282      9B10F3A7 
 282      19E0
 283 00db 40CCBF26 		.ascii	"@\314\277&\301\327\323\2004h\3737\300f\300\032@> \017"
 283      C1D7D380 
 283      3468FB37 
 283      C066C01A 
 283      403E200F 
 284 00ef B0125000 		.ascii	"\260\022P\000\210\004@\310\232l8\377=`\007`; \007\240"
 284      880440C8 
 284      9A6C38FF 
 284      3D600760 
 284      3B2007A0 
 285 0103 13FC592F 		.ascii	"\023\374Y/\304\020#\304\025'\213\223p\012\341\\\004"
 285      C41023C4 
 285      15278B93 
 285      700AE15C 
 285      04
 286 0114 D80DD803 		.ascii	"\330\015\330\003(\026b#1~7/>\322\2165,\216\020\301o"
 286      28166223 
 286      317E372F 
 286      3ED28E35 
 286      2C8E10C1 
 287 0129 4F47E23C 		.ascii	"OG\342<n\323\217p\277\233\307=\375#\\2N\006\0179&\367"
 287      6ED38F70 
 287      BF9BC73D 
 287      FD235C32 
 287      4E060F39 
 288 013f 972036BE 		.ascii	"\227 6\276~\200\377\006\374\006\360[!\016,\334O\306"
 288      7E80FF06 
 288      FC06F05B 
 288      210E2CDC 
 288      4FC6
 289 0151 92E48634 		.ascii	"\222\344\2064\317\037\303\215\3028/\025\364-\3230]\301"
 289      CF1FC38D 
 289      C2382F15 
 289      F42DD330 
 289      5DC1
 290 0163 707E0B98 		.ascii	"p~\013\230\004L\000\246\0013\000/\350\033\203\363k\300"
 290      044C00A6 
 290      0133002F 
 290      E81B83F3 
 290      6BC0
 291 0175 1C8023FA 		.ascii	"\034\200#\372\000\263\304\036\234}\000\343p\375\016"
 291      00B3C41E 
 291      9C7D00E3 
 291      70FD0E
 292 0184 3045BA40 		.ascii	"0E\272@\366\236gS<f9tl\343@\271n\234C\241z4\207\210"
 292      F69E6753 
 292      3C663974 
 292      6CE340B9 
ARM GAS  C:\Users\info\AppData\Local\Temp\ccHtobdL.s 			page 22


 292      6E9C43A1 
 293 019c FCBC6ECA 		.ascii	"\374\274n\312\237\311\244\273o\252\354\037\226W\362"
 293      9FC9A4BB 
 293      6FAAEC1F 
 293      9657F2
 294 01ab 7064F13C 		.ascii	"pd\361<\307I\367U\273\306\216h\261\037!q7N\336\273\344"
 294      C749F755 
 294      BBC68E68 
 294      B11F2171 
 294      374EDEBB 
 295 01c0 8BC2F407 		.ascii	"\213\302\364\007\011\257\277{\374W\311<\217P%\322\243"
 295      09AFBF7B 
 295      FC57C93C 
 295      8F5025D2 
 295      A3
 296 01d1 C308A372 		.ascii	"\303\010\243r\264\234\270\021J&~\032\317'\361#\373x"
 296      B49CB811 
 296      4A267E1A 
 296      CF27F123 
 296      FB78
 297 01e3 EF451AF4 		.ascii	"\357E\032\364y(Z\021\252A\025(\214\030#,T\206B\321!"
 297      79285A11 
 297      AA411528 
 297      8C18232C 
 297      548642D1 
 298 01f8 144AF497 		.ascii	"\024J\364\227\027\227]\364\307y\210\032\030\316\031"
 298      17975DF4 
 298      C779881A 
 298      18CE19
 299 0207 4AC36E03 		.ascii	"J\303n\003\331[B+x~\001:\006\006\216H\006\300\236\272"
 299      D95B422B 
 299      787E013A 
 299      06068E48 
 299      06C09EBA 
 300 021b 85A32A16 		.ascii	"\205\243*\026\310\315`\345FJU\021\206h\203\364H\013"
 300      C8CD60E5 
 300      464A5511 
 300      866883F4 
 300      480B
 301 022d E2ABF682 		.ascii	"\342\253\366\202G\001 \206\350\321b\020\013\352\307"
 301      47012086 
 301      E8D16210 
 301      0BEAC7
 302 023c AF78B15E 		.ascii	"\257x\261^\035\210\227G\357]\363\327\247\321d$\363A"
 302      1D889747 
 302      EF5DF3D7 
 302      A7D16424 
 302      F341
 303 024e AD01A4E3 		.ascii	"\255\001\244\3438(\254\002\205\032t\222\330G\237\205"
 303      3828AC02 
 303      851A7492 
 303      D8479F85 
 304 025e A2132C82 		.ascii	"\242\023,\202\212\232\003g\020\273\333\027\304-\227"
 304      8A9A0367 
 304      10BBDB17 
 304      C42D97
 305 026d 4E3563A6 		.ascii	"N5c\246\273\225t'\275-\276\022\030\224%\244\366+D\303"
ARM GAS  C:\Users\info\AppData\Local\Temp\ccHtobdL.s 			page 23


 305      BB957427 
 305      BD2DBE12 
 305      189425A4 
 305      F62B44C3 
 306 0281 3905DAAA 		.ascii	"9\005\332\252\251\266\032\024$\352$\354\335]\017\263"
 306      A9B61A14 
 306      24EA24EC 
 306      DD5D0FB3 
 307 0291 7CF54270 		.ascii	"|\365BpY?\021\034\360s\313_\266j\345\332k\177L\373\226"
 307      593F111C 
 307      F073CB5F 
 307      B66AE5DA 
 307      6B7F4CFB 
 308 02a6 1DD38D06 		.ascii	"\035\323\215\006C:\321.Dv\032\005\311B\253Cd\005\320"
 308      433AD12E 
 308      44761A05 
 308      C942AB43 
 308      6405D0
 309 02b9 33B007A6 		.ascii	"3\260\007\246\217\234\011`\201y\203\370\362\321\344"
 309      8F9C0960 
 309      817983F8 
 309      F2D1E4
 310 02c8 439DE7B4 		.ascii	"C\235\347\264\324\213i9\303<\033O\3378)\244\334\007"
 310      D48B6939 
 310      C33C1B4F 
 310      DF3829A4 
 310      DC07
 311 02da C4B22745 		.ascii	"\304\262'E\031\006\226\226U \272^\362\223\357e\245\021"
 311      19069696 
 311      5520BA5E 
 311      F293EF65 
 311      A511
 312 02ec 94355065 		.ascii	"\2245Peg\251\337\365\242\337G\366%_\341\346G\351\221"
 312      67A9DFF5 
 312      A2DF47F6 
 312      255FE1E6 
 312      47E991
 313 02ff 7DA6A8A5 		.ascii	"}\246\250\245\307K\021e\223\"J\227\020\245\213F\331"
 313      C74B1165 
 313      93224A97 
 313      10A58B46 
 313      D9
 314 0310 397275B7 		.ascii	"9ru\267\037\363s\001\231\013|\352Q\3549\312\363b\224"
 314      1FF37301 
 314      990B7CEA 
 314      51EC39CA 
 314      F36294
 315 0323 E7589469 		.ascii	"\347X\224i-\275]\302\340/\004\261\262\275\245G\030\374"
 315      2DBD5DC2 
 315      E02F04B1 
 315      B2BDA547 
 315      18FC
 316 0335 34B2CA26 		.ascii	"4\262\312&&\217m\363\237\037\346E\320v\201j\273D\035"
 316      268F6DF3 
 316      9F1FE645 
 316      D076816A 
 316      BB441D
ARM GAS  C:\Users\info\AppData\Local\Temp\ccHtobdL.s 			page 24


 317 0348 3F2F3ADE 		.ascii	"?/:\336U\3364n\230\037\246Gv\342\300\304;e\230\315\212"
 317      55DE346E 
 317      981FA647 
 317      76E2C0C4 
 317      3B6598CD 
 318 035d 305B8430 		.ascii	"0[\2040[h\230\365\265\015\315^\314\263\025 ^\232\233"
 318      5B6898F5 
 318      B50DCD5E 
 318      CCB31520 
 318      5E9A9B
 319 0370 740532BF 		.ascii	"t\0052\2779Y\022BX\022\266\336\254\371\034\357\342\350"
 319      39591242 
 319      5812B6DE 
 319      ACF91CEF 
 319      E2E8
 320 0382 CE70E0ED 		.ascii	"\316p\340\355\364\010\011i)l\034sX\266s,e;GS\333\345"
 320      F4080969 
 320      296C1C73 
 320      58B6732C 
 320      653B4753 
 321 0398 83065C4A 		.ascii	"\203\006\\J\311\334~W\322F\204\364at\002\363\311\274"
 321      C9DC7E57 
 321      D24684F4 
 321      617402F3 
 321      C9BC
 322 03aa BE2C4083 		.ascii	"\276,@\203\256\200K\227\311Z\354\2009\274T\230\303\355"
 322      AE804B97 
 322      C95AEC80 
 322      39BC5498 
 322      C3ED
 323 03bc D078151A 		.ascii	"\320x\025\032\205\275\344\371\277\320\275\344:\004|"
 323      85BDE4F9 
 323      BFD0BDE4 
 323      3A047C
 324 03cb 4D5AEA4B 		.ascii	"MZ\352K\205P\317fw?\321\343\243\314F\371\310\325\312"
 324      8550CF66 
 324      773FD1E3 
 324      A3CC46F9 
 324      C8D5CA
 325 03de 408F366E 		.ascii	"@\2176nz\264\221\275ei%\331N:\301\306\015\311\306u1"
 325      7AB491BD 
 325      656925D9 
 325      4E3AC1C6 
 325      0DC9C675 
 326 03f3 9F2F521E 		.ascii	"\237/R\036\367\0139XD\206\262\353\356,\302\265,\011"
 326      F70B3958 
 326      4486B2EB 
 326      EE2CC2B5 
 326      2C09
 327 0405 EDEF46CE 		.ascii	"\355\357F\316b|\231\011G\372Soz\341\373L88\263\267\332"
 327      627C9909 
 327      47FA536F 
 327      7AE1FB4C 
 327      3838B3B7 
 328 041a 809F30A1 		.ascii	"\200\2370\241y\262\261\324\013\277bB\372\226\303{\003"
 328      79B2B1D4 
 328      0BBF6242 
ARM GAS  C:\Users\info\AppData\Local\Temp\ccHtobdL.s 			page 25


 328      FA96C37B 
 328      03
 329 042b 702AA642 		.ascii	"p*\246B\341\330\203\037|\231\3620\0207n\255h\3008\237"
 329      E1D8831F 
 329      7C99F230 
 329      10376EAD 
 329      68C0389F 
 330 043f F575F49D 		.ascii	"\365u\364\235\230\360\306G\231\320\327\233\375_\270"
 330      98F0C647 
 330      99D0D79B 
 330      FD5FB8
 331 044e 965D3F68 		.ascii	"\226]?h-\257 \251_FR?7\027(K\3762\226\374\316\314\321"
 331      2DAF20A9 
 331      5F46523F 
 331      3717284B 
 331      FE3296FC 
 332 0465 FD3EF822 		.ascii	"\375>\370\"\245s\315\333N\236\360\223\266\347\375\206"
 332      A573CDDB 
 332      4E9EF093 
 332      B6E7FD86 
 333 0475 3A12EE23 		.ascii	":\022\356#\010\367{)\334e\356\315\223M\032\215{\306"
 333      08F77B29 
 333      DC65EECD 
 333      934D1A8D 
 333      7BC6
 334 0487 A08790BA 		.ascii	"\240\207\220\272eB\352\372\241\261O\330\241\367g\357"
 334      6542EAFA 
 334      A1B14FD8 
 334      A1F767EF 
 335 0497 F3C6D799 		.ascii	"\363\306\327\231\215\374\352\303\223z\331\016\375\005"
 335      8DFCEAC3 
 335      937AD90E 
 335      FD05
 336 04a5 4DE913B0 		.ascii	"M\351\023\2601 \331x\204<\033y\254nd\350Vg\266\027\276"
 336      3120D978 
 336      843C1B79 
 336      AC6E64E8 
 336      5667B617 
 337 04ba CBE29E3D 		.ascii	"\313\342\236=\261\251^\213\207\230\360\264uj\334\017"
 337      B1A95E8B 
 337      8798F0B4 
 337      756ADC0F 
 338 04ca CF32E1ED 		.ascii	"\3172\341\355\371\244:\204\263\264T\2509?u\325\013\037"
 338      F9A43A84 
 338      B3B454A8 
 338      393F75D5 
 338      0B1F
 339 04dc 60C28BA4 		.ascii	"`\302\213\244\212\375\010\237eB\307\316\341\\\016\337"
 339      8AFD089F 
 339      6542C7CE 
 339      E15C0EDF 
 340 04ec 61C2CCF4 		.ascii	"a\302\314\364\216D/\374\214\011M=\203\225~xF\270G\030"
 340      8E442FFC 
 340      8C094D3D 
 340      83957E78 
 340      46B84718 
 341 0500 F12036E2 		.ascii	"\361 6\342U\015)\303\302S\301E\026o\331\266\221\013"
ARM GAS  C:\Users\info\AppData\Local\Temp\ccHtobdL.s 			page 26


 341      550D29C3 
 341      C253C145 
 341      166FD9B6 
 341      910B
 342 0512 7ABCD38B 		.ascii	"z\274\323\213p?Hljo\361AK\310\021\274D:\302\000\373"
 342      703F486C 
 342      6A6FF141 
 342      4BC811BC 
 342      443AC200 
 343 0527 48A0FD3B 		.ascii	"H\240\375;\207\354\2155=<\237j\240\213|\020\322\361"
 343      87EC8D35 
 343      3D3C9F6A 
 343      A08B7C10 
 343      D2F1
 344 0539 06058BDB 		.ascii	"\006\005\213\333\367gdE\266\222u\251\241tWC\247\037"
 344      F7676445 
 344      B69275A9 
 344      A1745743 
 344      A71F
 345 054b 5FF59F94 		.ascii	"_\365\237\224zGI=GW\357\347\0225\357\272\233\372\\E"
 345      7A47493D 
 345      4757EFE7 
 345      1235EFBA 
 345      9BFA5C45 
 346 055f EB1599D6 		.ascii	"\353\025\231\326[\022\365\251\012\265QF\315\221\250"
 346      5B12F5A9 
 346      0AB55146 
 346      CD91A8
 347 056e C32A546A 		.ascii	"\303*Tj?[\330\212x\344\324\240W0Z#d\010_\012t\030C\224"
 347      3F5BD88A 
 347      78E4D4A0 
 347      57305A23 
 347      64085F0A 
 348 0586 C285A1B7 		.ascii	"\302\205\241\267h\011\232\004L\000\246\0013\200\215"
 348      68099A04 
 348      4C00A601 
 348      33808D
 349 0595 DC123406 		.ascii	"\334\0224\006\347\327\2009@\022\310<`\026\256\223\341"
 349      E7D78039 
 349      4012C83C 
 349      6016AE93 
 349      E1
 350 05a6 BC09300E 		.ascii	"\274\0110\016\327\357\000S\200D\220S\271%\264\352`\376"
 350      D7EF0053 
 350      80449053 
 350      B925B4EA 
 350      60FE
 351 05b8 754A09EA 		.ascii	"uJ\011\352RK\320-Y,\333\245X^\250\304\022.1\013$\346"
 351      524BD02D 
 351      592CDBA5 
 351      585EA8C4 
 351      122E310B 
 352 05ce 900A53AE 		.ascii	"\220\012S\256\264H\242>S\241\036\227Q\253$_\357+\251"
 352      B448A23E 
 352      53A11E97 
 352      51AB245F 
 352      EF2BA9
ARM GAS  C:\Users\info\AppData\Local\Temp\ccHtobdL.s 			page 27


 353 05e1 27D0FC81 		.ascii	"'\320\374\201\357\220\270\267\325\342\222\017gwf@>\357"
 353      EF90B8B7 
 353      D5E2920F 
 353      67776640 
 353      3EEF
 354 05f3 4AC17481 		.ascii	"J\301t\201\365\012l\367Rb\272e\301\355\354\364\337\305"
 354      F50A6CF7 
 354      5262BA65 
 354      C1EDECF4 
 354      DFC5
 355 0605 BB123155 		.ascii	"\273\0221U\336\243\346H\267L\371\330\366\200<\336\225"
 355      DEA3E648 
 355      B74CF9D8 
 355      F6803CDE 
 355      95
 356 0616 84E986D8 		.ascii	"\204\351\206\330&\260\335\373(sF\036\344\334u\231\366"
 356      26B0DDFB 
 356      2873461E 
 356      E4DC7599 
 356      F6
 357 0627 076ADAE5 		.ascii	"\007j\332\345\354j)\314{j\\6\025\3516\342\232\3160\360"
 357      EC6A29CC 
 357      7B6A5C36 
 357      15E936E2 
 357      9ACE30F0 
 358 063b BC8E7034 		.ascii	"\274\216p4\302\026\"M\203b\271\325\037T\306A\036\322"
 358      C216224D 
 358      8362B9D5 
 358      1F54C641 
 358      1ED2
 359 064d 843CA451 		.ascii	"\204<\244Q\365\220\344cQ/O\330]\265\321\240\331\205"
 359      F590E463 
 359      512F4FD8 
 359      5DB5D1A0 
 359      D985
 360 065f BDE05E66 		.ascii	"\275\340^fa~ \256\245{\001\327>P\320\024\200\202\303"
 360      617E20AE 
 360      A57B01D7 
 360      3E50D014 
 360      8082C3
 361 0672 D497473A 		.ascii	"\324\227G:,\211?\347\362`9\313\277\3667$g\233\271`\224"
 361      2C893FE7 
 361      F26039CB 
 361      BFF63724 
 361      679BB960 
 362 0687 C6B9775E 		.ascii	"\306\271w^\222B\352\357\336\262C\333P\260\340\240\313"
 362      9242EAEF 
 362      DEB243DB 
 362      50B0E0A0 
 362      CB
 363 0698 A3839AFF 		.ascii	"\243\203\232\377s\357\300vj\372X\"R\024&[\270`Ya\262"
 363      73EFC076 
 363      6AFA5822 
 363      5214265B 
 363      B8605961 
 364 06ad 95638509 		.ascii	"\225c\205\011\234\201}:=\357u`7L\022xj\012\257/\010"
 364      9C817D3A 
ARM GAS  C:\Users\info\AppData\Local\Temp\ccHtobdL.s 			page 28


 364      3DEF7560 
 364      374C1278 
 364      6A0AAF2F 
 365 06c2 B1FF8842 		.ascii	"\261\377\210B\303@E\270\3404\302\013\226\320\344>i\334"
 365      C34045B8 
 365      E034C20B 
 365      96D0E43E 
 365      69DC
 366 06d4 14E15252 		.ascii	"\024\341RRF\377\304\363\234x\260\027*\267v$\334\204"
 366      46FFC4F3 
 366      9C78B017 
 366      2AB77624 
 366      DC84
 367 06e6 DC1E08D7 		.ascii	"\334\036\010\327\264\237\223\014 &\2127\310\3641we>"
 367      B49F930C 
 367      20268A37 
 367      C8F43177 
 367      653E
 368 06f8 21654C48 		.ascii	"!eLHL\321\344\213\344\344\000\334F\247\023:Z9]\245\327"
 368      4CD1E48B 
 368      E4E400DC 
 368      46A7133A 
 368      5A395DA5 
 369 070d C23B17FA 		.ascii	"\302;\027\372\306\200\"\265\244\251;\365P\233\037m\""
 369      C68022B5 
 369      A4A93BF5 
 369      509B1F6D 
 369      22
 370 071e 333393A3 		.ascii	"33\223\243\215]w{\273|\335\215Y\254Q,,\202Xa\301\017"
 370      8D5D777B 
 370      BB7CDD8D 
 370      59AC512C 
 370      2C825861 
 371 0734 A6147378 		.ascii	"\246\024sx\220)n\032\314n\322\341I&t\034\032\276\023"
 371      90296E1A 
 371      CC6ED2E1 
 371      4926741C 
 371      1ABE13
 372 0747 8033BDA9 		.ascii	"\2003\275\2510X\322tB\207\0173A|\033\012boC;]\333g\364"
 372      3058D274 
 372      42870F33 
 372      417C1B0A 
 372      626F433B 
 373 075f B886F55D 		.ascii	"\270\206\365]\256{\270\002\237c\327\257\333n=\300\270"
 373      AE7BB802 
 373      9F63D7AF 
 373      DB6E3DC0 
 373      B8
 374 0770 830999E7 		.ascii	"\203\011\231\347\033/\350p\017\023\232{\356wi\361 \023"
 374      1B2FE870 
 374      0F139A7B 
 374      EE7769F1 
 374      2013
 375 0782 121B2F9C 		.ascii	"\022\033/\234\364\307\263L\230=y\362\002\302\251>Tx"
 375      F4C7B34C 
 375      983D79F2 
 375      02C2A93E 
ARM GAS  C:\Users\info\AppData\Local\Temp\ccHtobdL.s 			page 29


 375      5478
 376 0794 925EFECA 		.ascii	"\222^\376\312\2003\231\360CO\355\214\362]\204T\273\322"
 376      803399F0 
 376      434FED8C 
 376      F25D8454 
 376      BBD2
 377 07a6 2C2961B3 		.ascii	",)a\263\004\230)\317J\341\011\225\303n{x|\362\271\016"
 377      049829CF 
 377      4AE10995 
 377      C36E7B78 
 377      7CF2B90E 
 378 07ba EF61C2A6 		.ascii	"\357a\302\246\271\007\027u\270\212\011)\207\266\025"
 378      B9071775 
 378      B88A0929 
 378      87B615
 379 07c9 FAE30626 		.ascii	"\372\343\006&d\344\217"
 379      64E48F
 380 07d0 D64361C4 		.ascii	"\326Ca\304\204\233\256\222B_\334\306\204G\325\223\373"
 380      849BAE92 
 380      425FDCC6 
 380      8447D593 
 380      FB
 381 07e1 FDF16D26 		.ascii	"\375\361m&|\377\2621\337\307\235R\226\373S\235\305}"
 381      7CFFB231 
 381      DFC79D52 
 381      96FB539D 
 381      C57D
 382 07f3 3EB89711 		.ascii	">\270\227\021\336^\237>\203\360\020\023&\217<\355\361"
 382      DE5E9F3E 
 382      83F01013 
 382      268F3CED 
 382      F1
 383 0804 C26F9820 		.ascii	"\302o\230 \026\324A\254\240\256n|u@(\360xR%\017>.l\326"
 383      16D441AC 
 383      A0AE6E7C 
 383      754028F0 
 383      7852250F 
 384 081c E3141D1B 		.ascii	"\343\024\035\033\210\233\307\256\006\342<*|r\370\305"
 384      889BC7AE 
 384      06E23C2A 
 384      7C72F8C5 
 385 082c 5431BC86 		.ascii	"T1\274\206\032\202\025\205\004\034\006\303\"m\230p\021"
 385      1A821585 
 385      041C06C3 
 385      226D9870 
 385      11
 386 083d B6242C8C 		.ascii	"\266$,\214\270u\2343\2402\030iy\236N(V\323q\226'\305"
 386      B8759C33 
 386      A0321869 
 386      799E4E28 
 386      56D37196 
 387 0853 5E74840B 		.ascii	"^t\204\013E\225\034,\365NX\352\325\034\333\213n\300"
 387      45951C2C 
 387      F54E58EA 
 387      D51CDB8B 
 387      6EC0
 388 0865 7507ACD4 		.ascii	"u\007\254\3246\300\025\300e@+\340<\340\034\300\005h"
ARM GAS  C:\Users\info\AppData\Local\Temp\ccHtobdL.s 			page 30


 388      36C015C0 
 388      65402BE0 
 388      3CE01CC0 
 388      0568
 389 0877 029C0534 		.ascii	"\002\234\0054\002\032\000\365\2003\200:\300i@-\240\006"
 389      021A00F5 
 389      8033803A 
 389      C069402D 
 389      A006
 390 0889 700A7052 		.ascii	"p\012pR\361\270\236\276-\333J\217\302\216D\314\012["
 390      F1B89EBE 
 390      2DDB4A8F 
 390      C28E44CC 
 390      0A5B
 391 089b E9764E7A 		.ascii	"\351vNz:\250\373Y!\334\360\347\367\363\315m\367si\207"
 391      3AA8FB59 
 391      21DCF0E7 
 391      F7F3CD6D 
 391      F7736987 
 392 08af 9A97F20A 		.ascii	"\232\227\362\012\340\265\304\315Q\343\312\037\325\343"
 392      E0B5C4CD 
 392      51E3CA1F 
 392      D5E3
 393 08bd 1277A71A 		.ascii	"\022w\247\032WV\317\215J\324\\5\252\354\211>\"Q\363"
 393      5756CF8D 
 393      4AD45C35 
 393      AAEC893E 
 393      2251F3
 394 08d0 94D45DDC 		.ascii	"\224\324]\334\374\202\256W\342\346\253q\345\017\276"
 394      FC82AE57 
 394      E2E6AB71 
 394      E50FBE
 395 08df 1E895BA0 		.ascii	"\036\211[\240\306\225?ToK\334B5\256\374\251\177K\342"
 395      C6953F54 
 395      6F4BDC42 
 395      35AEFCA9 
 395      7F4BE2
 396 08f2 16A971E5 		.ascii	"\026\251q\345\331\355\224\270\273\325\270\362\354\336"
 396      D9ED94B8 
 396      BBD5B8F2 
 396      ECDE
 397 0900 C8953DD8 		.ascii	"\310\225=\330\367\010l\367\203}\327\374\2645\345~\300"
 397      F7086CF7 
 397      837DD7FC 
 397      B435E57E 
 397      C0
 398 0911 EA26D844 		.ascii	"\352&\330DP\261@w\327M#\357\025+\215\271\262:k\257:"
 398      50B14077 
 398      D74D23EF 
 398      152B8DB9 
 398      B23A6BAF 
 399 0926 5FA6BEFE 		.ascii	"_\246\276\376v \243_\000\365\373\346\323\345\225\223"
 399      7620A35F 
 399      00F5FBE6 
 399      D3E59593 
 400 0936 7CD95EE2 		.ascii	"|\331^\342\026I\244\026\230\344\027\341n\366\334\366"
 400      1649A416 
ARM GAS  C:\Users\info\AppData\Local\Temp\ccHtobdL.s 			page 31


 400      98E417E1 
 400      6EF6DCF6 
 401 0946 44D3C838 		.ascii	"D\323\3108\271d\341\300\353\356b\216\246L\014^Cn\200"
 401      B964E1C0 
 401      EBEE628E 
 401      A64C0C5E 
 401      436E80
 402 0959 FFCD1CF9 		.ascii	"\377\315\034\371\270(n\031\331 \261:\241\370\332\007"
 402      B8286E19 
 402      D920B13A 
 402      A1F8DA07 
 403 0969 A44E209E 		.ascii	"\244N \236\226Ju\302E\272i\260h\352\344\321\354W\217"
 403      964A75C2 
 403      45BA69B0 
 403      68EAE4D1 
 403      EC578F
 404 097c 46167CCD 		.ascii	"F\026|\315m\003\237e\242\344\003\363\311*e\240\304>"
 404      6D039F65 
 404      A2E403F3 
 404      C92A65A0 
 404      C43E
 405 098e A8CE96A9 		.ascii	"\250\316\226\251>\231\033\302<\271\012\364C\363\351"
 405      3E991BC2 
 405      3CB90AF4 
 405      43F3E9
 406 099d 9FA9A7F5 		.ascii	"\237\251\247\365\232<\255\327!\255\355\252i\275\246"
 406      9A3CADD7 
 406      21ADEDAA 
 406      69BDA6
 407 09ac 486BBB5A 		.ascii	"Hk\273ZZ;\025i\275F\323ZE\323\312Ry<\343C\222J\342\\"
 407      5A3B1569 
 407      BD46D35A 
 407      45D3CA52 
 407      793CE343 
 408 09c4 B994CA76 		.ascii	"\271\224\312vY*\217\347~\304\002\200\322\006\035V\015"
 408      592A8FE7 
 408      7EC40280 
 408      D2061D56 
 408      0D
 409 09d5 205C2A7B 		.ascii	" \\*{w\347\322\262\0278\362\262\227\365\355\312\370"
 409      77E7D2B2 
 409      1738F2B2 
 409      97F5EDCA 
 409      F8
 410 09e6 39E9235B 		.ascii	"9\351#[\3751\311\026\241\322G\342\300\215\356K\350\343"
 410      FD31C916 
 410      A1D247E2 
 410      C08DEE4B 
 410      E8E3
 411 09f8 1278F3E0 		.ascii	"\022x\363\340\373\347\366\375sA\307\000\317\353\265"
 411      FBE7F6FD 
 411      7341C700 
 411      CFEBB5
 412 0a07 74EE6448 		.ascii	"t\356dHt\270$\247m\\7\224!7\271\217\341\306\234\221"
 412      74B824A7 
 412      6D5C3794 
 412      2137B98F 
ARM GAS  C:\Users\info\AppData\Local\Temp\ccHtobdL.s 			page 32


 412      E1C69C91 
 413 0a1b 432E1D3E 		.ascii	"C.\035>\313\036Kw3\266V\351@KI\025\357\352k3\200\353"
 413      CB1E4B77 
 413      33B656E9 
 413      404B4915 
 413      EFEA6B33 
 414 0a31 49609BA3 		.ascii	"I`\233\243jnIjn\311\325tQ5\365\271\217\374\360M\246"
 414      6A6E496A 
 414      6EC9D574 
 414      5135F5B9 
 414      8FFCF04D 
 415 0a46 25F9607F 		.ascii	"%\371`\177\207\027\036dBn\223\253(\020\036\250\350\016"
 415      87171E64 
 415      426E93AB 
 415      28101EA8 
 415      E80E
 416 0a58 BD095A4A 		.ascii	"\275\011ZJ\253\266$\032\264\342\304d\217\330\264C}5"
 416      ABB6241A 
 416      B4E2C464 
 416      8FD8B443 
 416      7D35
 417 0a6a 018B3CCE 		.ascii	"\001\213<\316\350\3734\365\367h\352\311\003y8\257\025"
 417      E8FB34F5 
 417      F768EAC9 
 417      037938AF 
 417      15
 418 0a7b 839BFD3C 		.ascii	"\203\233\375<\337\2373\364\273\302\322TW\007\317/\240"
 418      DF9F33F4 
 418      BBC2D254 
 418      5707CF2F 
 418      A0
 419 0a8c 3C745BF4 		.ascii	"<t[\364\023\335\345\264Db\325V7us\307\336\261^\016\277"
 419      13DDE5B4 
 419      4462D556 
 419      377573C7 
 419      DEB15E0E 
 420 0aa1 F2E45ACE 		.ascii	"\362\344Z\316`\213\257\242\0029\246\250@z\335\025\310"
 420      608BAFA2 
 420      0239A6A8 
 420      407ADD15 
 420      C8
 421 0ab2 AE86CD77 		.ascii	"\256\206\315w\275i\014\275\356\030\006z.\217K\245C\037"
 421      BD690CBD 
 421      EE18067A 
 421      2E8F4BA5 
 421      431F
 422 0ac4 ABC6DA9F 		.ascii	"\253\306\332\237_\275\352\343\016\266\2375>}\224\230"
 422      5FBDEAE3 
 422      0EB69F35 
 422      3E7D9498 
 423 0ad4 C6798EF6 		.ascii	"\306y\216\366!\215\366{1Z\376xe\271\201E\353\032\211"
 423      218DF67B 
 423      315AFE78 
 423      65B98145 
 423      EB1A89
 424 0ae7 CEE7CF27 		.ascii	"\316\347\317'\361_\021\016\352qG\372\000\"\355\021#"
 424      F15F110E 
ARM GAS  C:\Users\info\AppData\Local\Temp\ccHtobdL.s 			page 33


 424      EA7147FA 
 424      0022ED11 
 424      23
 425 0af8 7D4423DD 		.ascii	"}D#\335\236=\274\335\027'\373z\210T\255\316\331_[x\031"
 425      9E3DBCDD 
 425      1727FB7A 
 425      8854ADCE 
 425      D95F5B78 
 426 0b0d B97D7DC2 		.ascii	"\271}}\302|\255\273\227\332\244\363\354\353 \365\365"
 426      7CADBB97 
 426      DAA4F3EC 
 426      EB20F5F5 
 427 0b1d A9E8EBDB 		.ascii	"\251\350\353\333\241\227U\001\202\257\367E_\201\203"
 427      A1975501 
 427      82AFF745 
 427      5F8183
 428 0b2c 06DCBE3E 		.ascii	"\006\334\276>\006_\007D_\177\240\276f$\236\276\244\305"
 428      065F0744 
 428      5F7FA0BE 
 428      66249EBE 
 428      A4C5
 429 0b3e 399E7CBD 		.ascii	"9\236|\275>\370 R\3209*\352$#\375\314\255s\010t>\023"
 429      3EF82052 
 429      D0392AEA 
 429      2423FDCC 
 429      AD730874 
 430 0b54 753EA73A 		.ascii	"u>\247:\217_ix\352\213+<\351t\025\215U\372\013J{\344"
 430      8F5F6978 
 430      EA8B2B3C 
 430      E974158D 
 430      55FA0B4A 
 431 0b6a 8E0EBB95 		.ascii	"\216\016\273\225\276\000\245\303\242\322\227TiY\212"
 431      BE00A5C3 
 431      A2D29754 
 431      69598A
 432 0b79 6BD41737 		.ascii	"k\324\02770\245\275\343\323\323l\016\224\270\347\300"
 432      30A5BDE3 
 432      D3D36C0E 
 432      94B8E7C0 
 433 0b89 95A18BA7 		.ascii	"\225\241\213\247\364\356\024\276b)\254\356;\025.\317"
 433      F4EE14BE 
 433      6229ACEE 
 433      3B152ECF 
 434 0b99 E0B71FCA 		.ascii	"\340\267\037\312\0228F\0238*&\360\350\313\375MZ\301"
 434      12384613 
 434      382A26F0 
 434      E8CBFD4D 
 434      5AC1
 435 0bab AF574F57 		.ascii	"\257WOW\200c\034\241\240\021i\365\215\210>\215S\237"
 435      80631CA1 
 435      A01169F5 
 435      8D883E8D 
 435      539F
 436 0bbd 2A528FA4 		.ascii	"*R\217\244{\341N\346\223\332\332\232\032Nz\351\353\321"
 436      7BE14EE6 
 436      93DADA9A 
 436      1A4E7AE9 
ARM GAS  C:\Users\info\AppData\Local\Temp\ccHtobdL.s 			page 34


 436      EBD1
 437 0bcf FE24B5FF 		.ascii	"\376$\265\377Z\264?]\262+\211\023\354\027t\033\\\277"
 437      5AB43F5D 
 437      B22B8913 
 437      EC17741B 
 437      5CBF
 438 0be1 23043421 		.ascii	"#\0044!Y\237\020\255\277\241\326{\367\365ez\343af=\245"
 438      599F10AD 
 438      BFA1D67B 
 438      F7F5657A 
 438      E361663D 
 439 0bf6 26E30647 		.ascii	"&\343\006G\255o\225\254?>\367F\353\366\350\255\360\216"
 439      AD6F95AC 
 439      3F3EF746 
 439      EBF6E8AD 
 439      F08E
 440 0c08 32D3B303 		.ascii	"2\323\263\003{ti\206\2724-\272\324\262\371\312\256@"
 440      7B746986 
 440      BA342DBA 
 440      D4B2F9CA 
 440      AE40
 441 0c1a C1A53CEA 		.ascii	"\301\245<\352\022\020\320\224\344\322\224\350\322,u"
 441      1210D094 
 441      E4D294E8 
 441      D22C75
 442 0c29 E9DC8577 		.ascii	"\351\334\205w\243:\234\305\276\207\366'_~\343\373i)"
 442      A33A9CC5 
 442      BE87F627 
 442      5F7EE3FB 
 442      6929
 443 0c3b DF5142F6 		.ascii	"\337QB\366\305\015y=)<\357M\177\344x\307\024\310~\033"
 443      C50D793D 
 443      293CEF4D 
 443      7FE478C7 
 443      14C87E1B 
 444 0c4f 212DBF87 		.ascii	"!-\277\207I2\307}J\276r\366\214\337\363\302\325L\315"
 444      4932C77D 
 444      4ABE72F6 
 444      8CDFF3C2 
 444      D54CCD
 445 0c62 C89EB4BA 		.ascii	"\310\236\264\272@\246\306\365\316\213\307\364\007\004"
 445      40A6C6F5 
 445      CE8BC7F4 
 445      0704
 446 0c70 1E330DD2 		.ascii	"\0363\015\322\357\016\244\205hH\304DC[K\346\200?\276"
 446      EF0EA485 
 446      6848C444 
 446      435B4BE6 
 446      803FBE
 447 0c83 CB3414E4 		.ascii	"\3134\024\344\237\270\343%h8M4\220o\363I\202\006\351"
 447      9FB8E325 
 447      68384D34 
 447      906FF349 
 447      8206E9
 448 0c96 937E92A0 		.ascii	"\223~\222\240!\231j8Z\263mH\207_3\015[jg\257\"A\303"
 448      21996A38 
 448      5AB36D48 
ARM GAS  C:\Users\info\AppData\Local\Temp\ccHtobdL.s 			page 35


 448      875F330D 
 448      5B6A67AF 
 449 0cad 5CFAA789 		.ascii	"\\\372\247\211\274KK\337\243S\004%\342\353\274\206\266"
 449      BC4B4BDF 
 449      A3530425 
 449      E2EBBC86 
 449      B6
 450 0cbe 10251BA9 		.ascii	"\020%\033\251\222[c\2657\275\025\273\332\244\342\321"
 450      925B63B5 
 450      37BD15BB 
 450      DAA4E2D1 
 451 0cce 978AD9DB 		.ascii	"\227\212\331\3337\234\201=\376\244\342\202N\301\036"
 451      379C813D 
 451      FEA4E282 
 451      4EC11E
 452 0cdd 53B03709 		.ascii	"S\2607\011\354M\224\3756?m\253\237\202}_\301N\023\330"
 452      EC4D94FD 
 452      363F6DAB 
 452      9F827D5F 
 452      C14E13D8 
 453 0cf1 6994BD67 		.ascii	"i\224\275g\242\243Y\371\003\305\240\202\275Y`o\246\354"
 453      A2A359F9 
 453      03C5A082 
 453      BD59606F 
 453      A6EC
 454 0d03 8DE9734F 		.ascii	"\215\351sO\003q.\375\245\021\325\026\274siq\021\023"
 454      03712EFD 
 454      A511D516 
 454      BC736971 
 454      1113
 455 0d15 5273E71E 		.ascii	"Rs\347\036\352q\011\023\306_\334+\363\306\345\002\355"
 455      EA710913 
 455      C65FDC2B 
 455      F3C6E502 
 455      ED
 456 0d26 4545ADBF 		.ascii	"EE\255\277\360\305\226\310\333+\323\223\021>C;\275\267"
 456      F0C596C8 
 456      DB2BD393 
 456      113E433B 
 456      BDB7
 457 0d38 DEEFED0A 		.ascii	"\336\357\355\012@\364\035K\370R\343bo\035\031\230\375"
 457      40F41D4B 
 457      F852E362 
 457      6F1D1998 
 457      FD
 458 0d49 7687B641 		.ascii	"v\207\266A\342\2620{\353\330\211\303P\016^\202\266\003"
 458      E2B2307B 
 458      EBD889C3 
 458      500E5E82 
 458      B603
 459 0d5b B2013BB0 		.ascii	"\262\001;\260\354\255\241\177\347\320W\365\262\217\273"
 459      ECADA17F 
 459      E7D057F5 
 459      B28FBB
 460 0d6a E9C28D9E 		.ascii	"\351\302\215\236\276C\365^s\227\266[T\250\362\002iT"
 460      BE43F55E 
 460      7397B65B 
ARM GAS  C:\Users\info\AppData\Local\Temp\ccHtobdL.s 			page 36


 460      54A8F202 
 460      6954
 461 0d7c A266AA50 		.ascii	"\242f\252P\345E\373\203\014\241J%\017\241\255\002\331"
 461      E545FB83 
 461      0CA14A25 
 461      0FA1AD02 
 461      D9
 462 0d8d 6375718F 		.ascii	"cuq\217}T\003\216\274\272 3=}t&\000\273\330O\2723\373"
 462      7D54038E 
 462      BCBA2033 
 462      3D7D7426 
 462      00BBD84F 
 463 0da4 36D7E850 		.ascii	"6\327\350PX0\273\247\360\332\022rO\036\350\315\305\356"
 463      5830BBA7 
 463      F0DA1272 
 463      4F1EE8CD 
 463      C5EE
 464 0db6 054754CC 		.ascii	"\005GT\314{qs\247p\027\244\355\247RHv\344\212\211\235"
 464      7B7173A7 
 464      7017A4ED 
 464      A7524876 
 464      E48A899D 
 465 0dca 018AA990 		.ascii	"\001\212\251\220\207\345/\261\371\302T\310\247S\241"
 465      87E52FB1 
 465      F9C254C8 
 465      A753A1
 466 0dd9 E2D8EB52 		.ascii	"\342\330\353R\345\247\201\207\212\211S \260\013({\250"
 466      E5A78187 
 466      8A895320 
 466      B00B287B 
 466      A8
 467 0dea A83335E0 		.ascii	"\25035\340\223\275\314\275tX\007\337~H\253\035\266I"
 467      93BDCCBD 
 467      745807DF 
 467      7E48AB1D 
 467      B649
 468 0dfc 14E24FC8 		.ascii	"\024\342O\310g\214\366\302G~\214\003\373\202\2510\035"
 468      678CF6C2 
 468      477E8C03 
 468      FB82A930 
 468      1D
 469 0e0d 884A5E11 		.ascii	"\210J^\021\345\335iMj50\236+\313g>g7\345\334.>6-\350"
 469      E5DD694D 
 469      6A35309E 
 469      2BCB673E 
 469      6737E5DC 
 470 0e26 72DD7F8F 		.ascii	"r\335\177\217\263\207r\272JG\273\261\300y\363\036\247"
 470      B38772BA 
 470      4A47BBB1 
 470      C079F31E 
 470      A7
 471 0e37 98724A0B 		.ascii	"\230rJ\013\373\337`E\2243\212(K\204(\311Y\367\217\377"
 471      FBDF6045 
 471      94338A28 
 471      4B8428C9 
 471      59F78FFF 
 472 0e4b FACDE25F 		.ascii	"\372\315\342_\207\207k|\215\306\004\253\315\271\312"
ARM GAS  C:\Users\info\AppData\Local\Temp\ccHtobdL.s 			page 37


 472      87876B7C 
 472      8DC604AB 
 472      CDB9CA
 473 0e5a E84C44E6 		.ascii	"\350LD\346\277\213\260\307\307\255\2167\305.\216\266"
 473      BF8BB0C7 
 473      C7AD8E37 
 473      C52E8EB6 
 474 0e6a C6581C8B 		.ascii	"\306X\034\213\303\326\257\372\362\257#\314\033\354\361"
 474      C3D6AFFA 
 474      F2AF23CC 
 474      1BECF1
 475 0e79 168723C2 		.ascii	"\026\207#\302\356\2103/6\307[L\316\270\370\210/\226"
 475      EE88332F 
 475      36C75B4C 
 475      CEB8F888 
 475      2F96
 476 0e8b AF543658 		.ascii	"\257T6Xc\355q\361\316\210\325\266\204\010S|l\304/\227"
 476      63ED71F1 
 476      CE88D5B6 
 476      8408537C 
 476      6CC42F97 
 477 0e9f 7FB13C9C 		.ascii	"\177\261<\234\\\375\302\026g\263\374\302b\212\264FX"
 477      5CFDC216 
 477      67B3FCC2 
 477      628AB446 
 477      58
 478 0eb0 6DE69884 		.ascii	"m\346\230\204(KD\254\311\274\306j\263D\030\243,\321"
 478      284B44AC 
 478      C9BCC66A 
 478      B34418A3 
 478      2CD1
 479 0ec2 A68418A7 		.ascii	"\246\204\030\247\321\271\301nq,_\243\361\021\\Y\373"
 479      D1B9C16E 
 479      712C5FA3 
 479      F1115C59 
 479      FB
 480 0ed3 FFE58963 		.ascii	"\377\345\211c\203#\302\350pF\201Y0\357g\267\256\267"
 480      8323C2E8 
 480      70468159 
 480      30EF67B7 
 480      AEB7
 481 0ee5 C418D759 		.ascii	"\304\030\327Y\243\234k\364,/\341_\032\235:\361bat\214"
 481      A39C6BF4 
 481      2C2FE15F 
 481      1A9D3AF1 
 481      6261748C 
 482 0ef9 D51E1B17 		.ascii	"\325\036\033\027e1\2567\306EG;,\316\005b\004b\203\237"
 482      6531AE37 
 482      C645473B 
 482      2CCE0562 
 482      0462839F 
 483 0f0d 13DC35AE 		.ascii	"\023\3345\256\261XW\257q\352\3515\325\026\262.\336\352"
 483      B15857AF 
 483      71EAE935 
 483      D516B22E 
 483      DEEA
 484 0f1f B418ED09 		.ascii	"\264\030\355\0111\016\241\305hs\004E\231\234&#\334\224"
ARM GAS  C:\Users\info\AppData\Local\Temp\ccHtobdL.s 			page 38


 484      310EA1C5 
 484      68730445 
 484      999C2623 
 484      DC94
 485 0f31 60373AAD 		.ascii	"`7:\255\261\026h\012\261\2564\033#\023\034FsL\234\371"
 485      B116680A 
 485      B1AE341B 
 485      23131C46 
 485      734C9CF9 
 486 0f45 0FC6F015 		.ascii	"\017\306\360\025+\376\360O\177\3229\354V#1kp@\033\353"
 486      2BFEF04F 
 486      7FD239EC 
 486      5623316B 
 486      70401BEB 
 487 0f59 59F327C1 		.ascii	"Y\363'\301\301\317W\012\016\222\213 BP\032Y\350\210"
 487      C1CF570A 
 487      0E928B20 
 487      42501A59 
 487      E888
 488 0f6b 9A6723C8 		.ascii	"\232g#\310\036\347p\032!\217\026\247q\235\311\3524\306"
 488      1EE7701A 
 488      218F16A7 
 488      719DC9EA 
 488      34C6
 489 0f7d 3A429824 		.ascii	":B\230$\2773\326\261\010rm\204\201\262\033\243\254\016"
 489      BF33D6B1 
 489      08726D84 
 489      81B21BA3 
 489      AC0E
 490 0f8f 53240985 		.ascii	"S$\011\205\260m\320A\024\320\036\213M\336\021\244`"
 490      B06DD041 
 490      14D01E8B 
 490      4DDE11A4 
 490      60
 491 0fa0 C758D65A 		.ascii	"\307X\326Zb\026\312i\264eQ\302\252\365\253\010\311\036"
 491      6216CA69 
 491      B46551C2 
 491      AAF5AB08 
 491      C91E
 492 0fb2 63DA60B4 		.ascii	"c\332`\264\332\242\343`\000\342\023\314N\003\313>\313"
 492      DAA2E360 
 492      00E213CC 
 492      4E03CB3E 
 492      CB
 493 0fc3 5DC8F2E5 		.ascii	"]\310\362\345\021\011\253V\2574\232\035\361\346\010"
 493      1109AB56 
 493      AF349A1D 
 493      F1E608
 494 0fd2 720B8C4F 		.ascii	"r\013\214O\360\373\267:CY\233\321n\216^\265*|\245\361"
 494      F0FBB73A 
 494      43599BD1 
 494      6E8E5EB5 
 494      2A7CA5F1 
 495 0fe6 6FBF5CFF 		.ascii	"o\277\\\377\345/\215\253-6K\274\325\034\020e\211\214"
 495      E52F8DAB 
 495      2D364BBC 
 495      D51C1065 
ARM GAS  C:\Users\info\AppData\Local\Temp\ccHtobdL.s 			page 39


 495      898C
 496 0ff8 4BB0992D 		.ascii	"K\260\231-`\302\344\264"
 496      60C2E4B4 
 497 1000 FC855B8C 		.ascii	"\374\205[\2141A\004v\253\215\265\377\314\335.\016\247"
 497      31410476 
 497      AB8DB5FF 
 497      CCDD2E0E 
 497      A7
 498 1011 BBCB6FB5 		.ascii	"\273\313o\265\335\032G\222\005\255\372\004g\364*\326"
 498      DD1A4792 
 498      05ADFA04 
 498      67F42AD6 
 499 1021 0C8AD75A 		.ascii	"\014\212\327Z\201o\212\212\"\023\322\217\014\033t\304"
 499      816F8A8A 
 499      2213D28F 
 499      0C1B74C4 
 500 1031 3B2D51F4 		.ascii	";-Q\364Zh\017\261:\214\321q6'\370\272\326\022\017\271"
 500      5A680FB1 
 500      3A8CD171 
 500      3627F8BA 
 500      D6120FB9 
 501 1045 25A3A813 		.ascii	"%\243\250\023\347\212\316b3\307\301\324[\255%\034_\367"
 501      E78ACE62 
 501      33C7C1D4 
 501      5BAD251C 
 501      5FF7
 502 1057 B02FA436 		.ascii	"\260/\2446M\266(p\207\004j\216\364\243A\306:V\303\265"
 502      4DB62870 
 502      87046A8E 
 502      F4A341C6 
 502      3A56C3B5 
 503 106b 4FE40698 		.ascii	"O\344\006\230I\346Ho\263)\012Nz1\035\320c\263\254\207"
 503      49E6486F 
 503      B3290A4E 
 503      7A311DD0 
 503      63B3AC87 
 504 107f 71893450 		.ascii	"q\2114P\266y\215)\236\010\362t1=,\335\301\356\240Yt"
 504      B6798D29 
 504      9E08F274 
 504      313D2CDD 
 504      C1EEA059 
 505 1094 44BD37ED 		.ascii	"D\2757\355w\376\374\275\344K\011^n\326\204\250\245\234"
 505      77FEFCBD 
 505      E44B095E 
 505      6ED684A8 
 505      A59C
 506 10a6 35129F7E 		.ascii	"5\022\237~k\213\372}\274\311\346\210\266\304\353lqV"
 506      6B8BFA7D 
 506      BCC9E688 
 506      B6C4EB6C 
 506      7156
 507 10b8 5B0C2CF5 		.ascii	"[\014,\365\205\356\336\257-\266\250\337\300\274_\240"
 507      85EEDEAF 
 507      2DB6A8DF 
 507      C0BC5FA0 
 508 10c8 68F9756C 		.ascii	"h\371ul\324\207R\003I\244\250B\311\373U\374\352\017"
 508      D4875203 
ARM GAS  C:\Users\info\AppData\Local\Temp\ccHtobdL.s 			page 40


 508      49A4A842 
 508      C9FB55FC 
 508      EA0F
 509 10da 140D5F5B 		.ascii	"\024\015_[\376\230\000i\264\374L\360i\215%\306n\211"
 509      FE980069 
 509      B4FC4CF0 
 509      698D25C6 
 509      6E89
 510 10ec 97CD11AB 		.ascii	"\227\315\021\253\363c\365.\266&b-\261q\361\033>Q\235"
 510      F363F52E 
 510      B626622D 
 510      B171F11B 
 510      3E519D
 511 10ff 44F6B875 		.ascii	"D\366\270u0h\246\265\226p \377\361'8+\010\347\257T9"
 511      3068A6B5 
 511      967020FF 
 511      F127382B 
 511      08E7AF54 
 512 1114 C409D2FB 		.ascii	"\304\011\322\373\021\355U\366\311G\307k=\250s`\263\315"
 512      11ED55F6 
 512      C947C76B 
 512      3DA87360 
 512      B3CD
 513 1126 A9A33B87 		.ascii	"\251\243;\207\335)DO%6j^\033\010\307Ojv\376/vTUU"
 513      DD29444F 
 513      25366A5E 
 513      1B08C74F 
 513      6A76FE2F 
 514              		.text
 515              		.section	.gnu.lto_.symtab.bf14f92e,"",%progbits
 516 0000 75387838 		.ascii	"u8x8_d_pcf8812_96x65\000"
 516      5F645F70 
 516      63663838 
 516      31325F39 
 516      36783635 
 517 0015 00       		.ascii	"\000"
 518 0016 00       		.ascii	"\000"
 519 0017 00       		.ascii	"\000"
 520 0018 00000000 		.ascii	"\000\000\000\000\000\000\000\000"
 520      00000000 
 521 0020 55010000 		.ascii	"U\001\000\000"
 522 0024 75387838 		.ascii	"u8x8_cad_EndTransfer\000"
 522      5F636164 
 522      5F456E64 
 522      5472616E 
 522      73666572 
 523 0039 00       		.ascii	"\000"
 524 003a 02       		.ascii	"\002"
 525 003b 00       		.ascii	"\000"
 526 003c 00000000 		.ascii	"\000\000\000\000\000\000\000\000"
 526      00000000 
 527 0044 5B010000 		.ascii	"[\001\000\000"
 528 0048 75387838 		.ascii	"u8x8_cad_SendData\000"
 528      5F636164 
 528      5F53656E 
 528      64446174 
 528      6100
ARM GAS  C:\Users\info\AppData\Local\Temp\ccHtobdL.s 			page 41


 529 005a 00       		.ascii	"\000"
 530 005b 02       		.ascii	"\002"
 531 005c 00       		.ascii	"\000"
 532 005d 00000000 		.ascii	"\000\000\000\000\000\000\000\000"
 532      00000000 
 533 0065 63010000 		.ascii	"c\001\000\000"
 534 0069 75387838 		.ascii	"u8x8_cad_SendCmd\000"
 534      5F636164 
 534      5F53656E 
 534      64436D64 
 534      00
 535 007a 00       		.ascii	"\000"
 536 007b 02       		.ascii	"\002"
 537 007c 00       		.ascii	"\000"
 538 007d 00000000 		.ascii	"\000\000\000\000\000\000\000\000"
 538      00000000 
 539 0085 69010000 		.ascii	"i\001\000\000"
 540 0089 75387838 		.ascii	"u8x8_cad_StartTransfer\000"
 540      5F636164 
 540      5F537461 
 540      72745472 
 540      616E7366 
 541 00a0 00       		.ascii	"\000"
 542 00a1 02       		.ascii	"\002"
 543 00a2 00       		.ascii	"\000"
 544 00a3 00000000 		.ascii	"\000\000\000\000\000\000\000\000"
 544      00000000 
 545 00ab 6C010000 		.ascii	"l\001\000\000"
 546 00af 75387838 		.ascii	"u8x8_cad_SendArg\000"
 546      5F636164 
 546      5F53656E 
 546      64417267 
 546      00
 547 00c0 00       		.ascii	"\000"
 548 00c1 02       		.ascii	"\002"
 549 00c2 00       		.ascii	"\000"
 550 00c3 00000000 		.ascii	"\000\000\000\000\000\000\000\000"
 550      00000000 
 551 00cb 6F010000 		.ascii	"o\001\000\000"
 552 00cf 75387838 		.ascii	"u8x8_cad_SendSequence\000"
 552      5F636164 
 552      5F53656E 
 552      64536571 
 552      75656E63 
 553 00e5 00       		.ascii	"\000"
 554 00e6 02       		.ascii	"\002"
 555 00e7 00       		.ascii	"\000"
 556 00e8 00000000 		.ascii	"\000\000\000\000\000\000\000\000"
 556      00000000 
 557 00f0 74010000 		.ascii	"t\001\000\000"
 558 00f4 75387838 		.ascii	"u8x8_d_helper_display_init\000"
 558      5F645F68 
 558      656C7065 
 558      725F6469 
 558      73706C61 
 559 010f 00       		.ascii	"\000"
 560 0110 02       		.ascii	"\002"
ARM GAS  C:\Users\info\AppData\Local\Temp\ccHtobdL.s 			page 42


 561 0111 00       		.ascii	"\000"
 562 0112 00000000 		.ascii	"\000\000\000\000\000\000\000\000"
 562      00000000 
 563 011a 78010000 		.ascii	"x\001\000\000"
 564 011e 75387838 		.ascii	"u8x8_d_helper_display_setup_memory\000"
 564      5F645F68 
 564      656C7065 
 564      725F6469 
 564      73706C61 
 565 0141 00       		.ascii	"\000"
 566 0142 02       		.ascii	"\002"
 567 0143 00       		.ascii	"\000"
 568 0144 00000000 		.ascii	"\000\000\000\000\000\000\000\000"
 568      00000000 
 569 014c 7D010000 		.ascii	"}\001\000\000"
 570              		.text
 571              		.section	.gnu.lto_.opts,"",%progbits
 572 0000 272D666D 		.ascii	"'-fmath-errno' '-fsigned-zeros' '-ftrapping-math' '"
 572      6174682D 
 572      6572726E 
 572      6F272027 
 572      2D667369 
 573 0033 2D666E6F 		.ascii	"-fno-trapv' '-fno-openmp' '-fno-openacc' '-mcpu=cor"
 573      2D747261 
 573      70762720 
 573      272D666E 
 573      6F2D6F70 
 574 0066 7465782D 		.ascii	"tex-m3' '-mthumb' '-g' '-Os' '-ffunction-sections' "
 574      6D332720 
 574      272D6D74 
 574      68756D62 
 574      2720272D 
 575 0099 272D6666 		.ascii	"'-ffat-lto-objects' '-flto'\000"
 575      61742D6C 
 575      746F2D6F 
 575      626A6563 
 575      74732720 
 576              		.text
 577              		.cfi_sections	.debug_frame
 578              		.section	.text.u8x8_d_pcf8812_96x65,"ax",%progbits
 579              		.align	1
 580              		.global	u8x8_d_pcf8812_96x65
 581              		.thumb
 582              		.thumb_func
 583              		.type	u8x8_d_pcf8812_96x65, %function
 584              	u8x8_d_pcf8812_96x65:
 585              	.LFB1:
 586              		.file 1 "..\\u8g2_csrc\\u8x8_d_pcf8812.c"
   1:..\u8g2_csrc/u8x8_d_pcf8812.c **** /*
   2:..\u8g2_csrc/u8x8_d_pcf8812.c **** 
   3:..\u8g2_csrc/u8x8_d_pcf8812.c ****   u8x8_d_pcf8812.c
   4:..\u8g2_csrc/u8x8_d_pcf8812.c ****   
   5:..\u8g2_csrc/u8x8_d_pcf8812.c ****   pcf8812: 65x102
   6:..\u8g2_csrc/u8x8_d_pcf8812.c ****   pcf8814: 65x96
   7:..\u8g2_csrc/u8x8_d_pcf8812.c **** 
   8:..\u8g2_csrc/u8x8_d_pcf8812.c ****   Universal 8bit Graphics Library (https://github.com/olikraus/u8g2/)
   9:..\u8g2_csrc/u8x8_d_pcf8812.c **** 
ARM GAS  C:\Users\info\AppData\Local\Temp\ccHtobdL.s 			page 43


  10:..\u8g2_csrc/u8x8_d_pcf8812.c ****   Copyright (c) 2017, olikraus@gmail.com
  11:..\u8g2_csrc/u8x8_d_pcf8812.c ****   All rights reserved.
  12:..\u8g2_csrc/u8x8_d_pcf8812.c **** 
  13:..\u8g2_csrc/u8x8_d_pcf8812.c ****   Redistribution and use in source and binary forms, with or without modification, 
  14:..\u8g2_csrc/u8x8_d_pcf8812.c ****   are permitted provided that the following conditions are met:
  15:..\u8g2_csrc/u8x8_d_pcf8812.c **** 
  16:..\u8g2_csrc/u8x8_d_pcf8812.c ****   * Redistributions of source code must retain the above copyright notice, this list 
  17:..\u8g2_csrc/u8x8_d_pcf8812.c ****     of conditions and the following disclaimer.
  18:..\u8g2_csrc/u8x8_d_pcf8812.c ****     
  19:..\u8g2_csrc/u8x8_d_pcf8812.c ****   * Redistributions in binary form must reproduce the above copyright notice, this 
  20:..\u8g2_csrc/u8x8_d_pcf8812.c ****     list of conditions and the following disclaimer in the documentation and/or other 
  21:..\u8g2_csrc/u8x8_d_pcf8812.c ****     materials provided with the distribution.
  22:..\u8g2_csrc/u8x8_d_pcf8812.c **** 
  23:..\u8g2_csrc/u8x8_d_pcf8812.c ****   THIS SOFTWARE IS PROVIDED BY THE COPYRIGHT HOLDERS AND 
  24:..\u8g2_csrc/u8x8_d_pcf8812.c ****   CONTRIBUTORS "AS IS" AND ANY EXPRESS OR IMPLIED WARRANTIES, 
  25:..\u8g2_csrc/u8x8_d_pcf8812.c ****   INCLUDING, BUT NOT LIMITED TO, THE IMPLIED WARRANTIES OF 
  26:..\u8g2_csrc/u8x8_d_pcf8812.c ****   MERCHANTABILITY AND FITNESS FOR A PARTICULAR PURPOSE ARE 
  27:..\u8g2_csrc/u8x8_d_pcf8812.c ****   DISCLAIMED. IN NO EVENT SHALL THE COPYRIGHT HOLDER OR 
  28:..\u8g2_csrc/u8x8_d_pcf8812.c ****   CONTRIBUTORS BE LIABLE FOR ANY DIRECT, INDIRECT, INCIDENTAL, 
  29:..\u8g2_csrc/u8x8_d_pcf8812.c ****   SPECIAL, EXEMPLARY, OR CONSEQUENTIAL DAMAGES (INCLUDING, BUT 
  30:..\u8g2_csrc/u8x8_d_pcf8812.c ****   NOT LIMITED TO, PROCUREMENT OF SUBSTITUTE GOODS OR SERVICES; 
  31:..\u8g2_csrc/u8x8_d_pcf8812.c ****   LOSS OF USE, DATA, OR PROFITS; OR BUSINESS INTERRUPTION) HOWEVER 
  32:..\u8g2_csrc/u8x8_d_pcf8812.c ****   CAUSED AND ON ANY THEORY OF LIABILITY, WHETHER IN CONTRACT, 
  33:..\u8g2_csrc/u8x8_d_pcf8812.c ****   STRICT LIABILITY, OR TORT (INCLUDING NEGLIGENCE OR OTHERWISE) 
  34:..\u8g2_csrc/u8x8_d_pcf8812.c ****   ARISING IN ANY WAY OUT OF THE USE OF THIS SOFTWARE, EVEN IF 
  35:..\u8g2_csrc/u8x8_d_pcf8812.c ****   ADVISED OF THE POSSIBILITY OF SUCH DAMAGE.  
  36:..\u8g2_csrc/u8x8_d_pcf8812.c ****   
  37:..\u8g2_csrc/u8x8_d_pcf8812.c **** */
  38:..\u8g2_csrc/u8x8_d_pcf8812.c **** 
  39:..\u8g2_csrc/u8x8_d_pcf8812.c **** 
  40:..\u8g2_csrc/u8x8_d_pcf8812.c **** #include "u8x8.h"
  41:..\u8g2_csrc/u8x8_d_pcf8812.c **** 
  42:..\u8g2_csrc/u8x8_d_pcf8812.c **** 
  43:..\u8g2_csrc/u8x8_d_pcf8812.c **** 
  44:..\u8g2_csrc/u8x8_d_pcf8812.c **** static const uint8_t u8x8_d_pcf8812_96x65_init_seq[] = {
  45:..\u8g2_csrc/u8x8_d_pcf8812.c ****     
  46:..\u8g2_csrc/u8x8_d_pcf8812.c ****   U8X8_START_TRANSFER(),             	/* enable chip, delay is part of the transfer start */
  47:..\u8g2_csrc/u8x8_d_pcf8812.c ****   
  48:..\u8g2_csrc/u8x8_d_pcf8812.c ****   U8X8_C(0x020),		                /* activate chip (PD=0), horizontal increment (V=0), enter normal
  49:..\u8g2_csrc/u8x8_d_pcf8812.c ****   U8X8_C(0x008),		                /* blank display */
  50:..\u8g2_csrc/u8x8_d_pcf8812.c ****   
  51:..\u8g2_csrc/u8x8_d_pcf8812.c ****   U8X8_C(0x021),		                /* activate chip (PD=0), horizontal increment (V=0), enter extend
  52:..\u8g2_csrc/u8x8_d_pcf8812.c ****   U8X8_C(0x006),		                /* temp. control: b10 = 2 */
  53:..\u8g2_csrc/u8x8_d_pcf8812.c ****   U8X8_C(0x013),		                /* bias system, 0x010..0x07 1:48 */
  54:..\u8g2_csrc/u8x8_d_pcf8812.c ****   U8X8_C(0x09f),				/* contrast setting, 0..127 */
  55:..\u8g2_csrc/u8x8_d_pcf8812.c ****   //U8X8_CA(0x020 | 2, 0x080 | 0),				/* contrast setting, pcf8814 */
  56:..\u8g2_csrc/u8x8_d_pcf8812.c **** 
  57:..\u8g2_csrc/u8x8_d_pcf8812.c ****   U8X8_C(0x024),		                /* deactivate chip (PD=1), horizontal increment (V=0), enter norm
  58:..\u8g2_csrc/u8x8_d_pcf8812.c ****     
  59:..\u8g2_csrc/u8x8_d_pcf8812.c ****   U8X8_END_TRANSFER(),             	/* disable chip */
  60:..\u8g2_csrc/u8x8_d_pcf8812.c ****   U8X8_END()             			/* end of sequence */
  61:..\u8g2_csrc/u8x8_d_pcf8812.c **** };
  62:..\u8g2_csrc/u8x8_d_pcf8812.c **** 
  63:..\u8g2_csrc/u8x8_d_pcf8812.c **** static const uint8_t u8x8_d_pcf8812_96x65_powersave0_seq[] = {
  64:..\u8g2_csrc/u8x8_d_pcf8812.c ****   U8X8_START_TRANSFER(),             	/* enable chip, delay is part of the transfer start */
  65:..\u8g2_csrc/u8x8_d_pcf8812.c ****   U8X8_C(0x020),		                /* power on */
  66:..\u8g2_csrc/u8x8_d_pcf8812.c ****   U8X8_C(0x00c),		                /* display on */
ARM GAS  C:\Users\info\AppData\Local\Temp\ccHtobdL.s 			page 44


  67:..\u8g2_csrc/u8x8_d_pcf8812.c ****   U8X8_END_TRANSFER(),             	/* disable chip */
  68:..\u8g2_csrc/u8x8_d_pcf8812.c ****   U8X8_END()             			/* end of sequence */
  69:..\u8g2_csrc/u8x8_d_pcf8812.c **** };
  70:..\u8g2_csrc/u8x8_d_pcf8812.c **** 
  71:..\u8g2_csrc/u8x8_d_pcf8812.c **** static const uint8_t u8x8_d_pcf8812_96x65_powersave1_seq[] = {
  72:..\u8g2_csrc/u8x8_d_pcf8812.c ****   U8X8_START_TRANSFER(),             	/* enable chip, delay is part of the transfer start */
  73:..\u8g2_csrc/u8x8_d_pcf8812.c ****   U8X8_C(0x020),		                /* power on */
  74:..\u8g2_csrc/u8x8_d_pcf8812.c ****   U8X8_C(0x008),		                /* blank display */
  75:..\u8g2_csrc/u8x8_d_pcf8812.c ****   U8X8_C(0x024),		                /* power down */
  76:..\u8g2_csrc/u8x8_d_pcf8812.c ****   U8X8_END_TRANSFER(),             	/* disable chip */
  77:..\u8g2_csrc/u8x8_d_pcf8812.c ****   U8X8_END()             			/* end of sequence */
  78:..\u8g2_csrc/u8x8_d_pcf8812.c **** };
  79:..\u8g2_csrc/u8x8_d_pcf8812.c **** 
  80:..\u8g2_csrc/u8x8_d_pcf8812.c **** 
  81:..\u8g2_csrc/u8x8_d_pcf8812.c **** static uint8_t u8x8_d_pcf8812_96x65_generic(u8x8_t *u8x8, uint8_t msg, uint8_t arg_int, void *arg_p
  82:..\u8g2_csrc/u8x8_d_pcf8812.c **** {
  83:..\u8g2_csrc/u8x8_d_pcf8812.c ****   uint8_t x, c;
  84:..\u8g2_csrc/u8x8_d_pcf8812.c ****   uint8_t *ptr;
  85:..\u8g2_csrc/u8x8_d_pcf8812.c ****   switch(msg)
  86:..\u8g2_csrc/u8x8_d_pcf8812.c ****   {
  87:..\u8g2_csrc/u8x8_d_pcf8812.c ****     /* handled by the calling function
  88:..\u8g2_csrc/u8x8_d_pcf8812.c ****     case U8X8_MSG_DISPLAY_SETUP_MEMORY:
  89:..\u8g2_csrc/u8x8_d_pcf8812.c ****       u8x8_d_helper_display_setup_memory(u8x8, &u8x8_pcf8812_96x65_display_info);
  90:..\u8g2_csrc/u8x8_d_pcf8812.c ****       break;
  91:..\u8g2_csrc/u8x8_d_pcf8812.c ****     */
  92:..\u8g2_csrc/u8x8_d_pcf8812.c ****     case U8X8_MSG_DISPLAY_INIT:
  93:..\u8g2_csrc/u8x8_d_pcf8812.c ****       u8x8_d_helper_display_init(u8x8);
  94:..\u8g2_csrc/u8x8_d_pcf8812.c ****       u8x8_cad_SendSequence(u8x8, u8x8_d_pcf8812_96x65_init_seq);    
  95:..\u8g2_csrc/u8x8_d_pcf8812.c ****       break;
  96:..\u8g2_csrc/u8x8_d_pcf8812.c ****     case U8X8_MSG_DISPLAY_SET_POWER_SAVE:
  97:..\u8g2_csrc/u8x8_d_pcf8812.c ****       if ( arg_int == 0 )
  98:..\u8g2_csrc/u8x8_d_pcf8812.c **** 	u8x8_cad_SendSequence(u8x8, u8x8_d_pcf8812_96x65_powersave0_seq);
  99:..\u8g2_csrc/u8x8_d_pcf8812.c ****       else
 100:..\u8g2_csrc/u8x8_d_pcf8812.c **** 	u8x8_cad_SendSequence(u8x8, u8x8_d_pcf8812_96x65_powersave1_seq);
 101:..\u8g2_csrc/u8x8_d_pcf8812.c ****       break;
 102:..\u8g2_csrc/u8x8_d_pcf8812.c **** /*
 103:..\u8g2_csrc/u8x8_d_pcf8812.c ****     case U8X8_MSG_DISPLAY_SET_FLIP_MODE:
 104:..\u8g2_csrc/u8x8_d_pcf8812.c ****       if ( arg_int == 0 )
 105:..\u8g2_csrc/u8x8_d_pcf8812.c ****       {
 106:..\u8g2_csrc/u8x8_d_pcf8812.c **** 	u8x8_cad_SendSequence(u8x8, u8x8_d_pcf8812_96x65_flip0_seq);
 107:..\u8g2_csrc/u8x8_d_pcf8812.c **** 	u8x8->x_offset = u8x8->display_info->default_x_offset;
 108:..\u8g2_csrc/u8x8_d_pcf8812.c ****       }
 109:..\u8g2_csrc/u8x8_d_pcf8812.c ****       else
 110:..\u8g2_csrc/u8x8_d_pcf8812.c ****       {
 111:..\u8g2_csrc/u8x8_d_pcf8812.c **** 	u8x8_cad_SendSequence(u8x8, u8x8_d_pcf8812_96x65_flip1_seq);
 112:..\u8g2_csrc/u8x8_d_pcf8812.c **** 	u8x8->x_offset = u8x8->display_info->flipmode_x_offset;
 113:..\u8g2_csrc/u8x8_d_pcf8812.c ****       }
 114:..\u8g2_csrc/u8x8_d_pcf8812.c ****       break;
 115:..\u8g2_csrc/u8x8_d_pcf8812.c **** */
 116:..\u8g2_csrc/u8x8_d_pcf8812.c **** #ifdef U8X8_WITH_SET_CONTRAST
 117:..\u8g2_csrc/u8x8_d_pcf8812.c ****     case U8X8_MSG_DISPLAY_SET_CONTRAST:
 118:..\u8g2_csrc/u8x8_d_pcf8812.c ****       u8x8_cad_StartTransfer(u8x8);
 119:..\u8g2_csrc/u8x8_d_pcf8812.c ****       u8x8_cad_SendCmd(u8x8, 0x021 );    /* command mode, extended function set */
 120:..\u8g2_csrc/u8x8_d_pcf8812.c ****       u8x8_cad_SendArg(u8x8, (arg_int>>1)|0x80 );	/* 0..127 for contrast */
 121:..\u8g2_csrc/u8x8_d_pcf8812.c ****       u8x8_cad_EndTransfer(u8x8);
 122:..\u8g2_csrc/u8x8_d_pcf8812.c ****       break;
 123:..\u8g2_csrc/u8x8_d_pcf8812.c **** #endif
ARM GAS  C:\Users\info\AppData\Local\Temp\ccHtobdL.s 			page 45


 124:..\u8g2_csrc/u8x8_d_pcf8812.c ****     case U8X8_MSG_DISPLAY_DRAW_TILE:
 125:..\u8g2_csrc/u8x8_d_pcf8812.c ****       u8x8_cad_StartTransfer(u8x8);
 126:..\u8g2_csrc/u8x8_d_pcf8812.c ****       x = ((u8x8_tile_t *)arg_ptr)->x_pos;    
 127:..\u8g2_csrc/u8x8_d_pcf8812.c ****       x *= 8;
 128:..\u8g2_csrc/u8x8_d_pcf8812.c ****       x += u8x8->x_offset;
 129:..\u8g2_csrc/u8x8_d_pcf8812.c ****     
 130:..\u8g2_csrc/u8x8_d_pcf8812.c ****       u8x8_cad_SendCmd(u8x8, 0x020 );	/* activate chip (PD=0), horizontal increment (V=0), enter no
 131:..\u8g2_csrc/u8x8_d_pcf8812.c ****       u8x8_cad_SendCmd(u8x8, 0x080 | x);
 132:..\u8g2_csrc/u8x8_d_pcf8812.c ****       u8x8_cad_SendCmd(u8x8, 0x040 | ((u8x8_tile_t *)arg_ptr)->y_pos);
 133:..\u8g2_csrc/u8x8_d_pcf8812.c ****       
 134:..\u8g2_csrc/u8x8_d_pcf8812.c ****       do
 135:..\u8g2_csrc/u8x8_d_pcf8812.c ****       {
 136:..\u8g2_csrc/u8x8_d_pcf8812.c **** 	c = ((u8x8_tile_t *)arg_ptr)->cnt;
 137:..\u8g2_csrc/u8x8_d_pcf8812.c **** 	ptr = ((u8x8_tile_t *)arg_ptr)->tile_ptr;
 138:..\u8g2_csrc/u8x8_d_pcf8812.c **** 	u8x8_cad_SendData(u8x8, c*8, ptr); 	/* note: SendData can not handle more than 255 bytes */
 139:..\u8g2_csrc/u8x8_d_pcf8812.c **** 	/*
 140:..\u8g2_csrc/u8x8_d_pcf8812.c **** 	do
 141:..\u8g2_csrc/u8x8_d_pcf8812.c **** 	{
 142:..\u8g2_csrc/u8x8_d_pcf8812.c **** 	  u8x8_cad_SendData(u8x8, 8, ptr);
 143:..\u8g2_csrc/u8x8_d_pcf8812.c **** 	  ptr += 8;
 144:..\u8g2_csrc/u8x8_d_pcf8812.c **** 	  c--;
 145:..\u8g2_csrc/u8x8_d_pcf8812.c **** 	} while( c > 0 );
 146:..\u8g2_csrc/u8x8_d_pcf8812.c **** 	*/
 147:..\u8g2_csrc/u8x8_d_pcf8812.c **** 	arg_int--;
 148:..\u8g2_csrc/u8x8_d_pcf8812.c ****       } while( arg_int > 0 );
 149:..\u8g2_csrc/u8x8_d_pcf8812.c ****       
 150:..\u8g2_csrc/u8x8_d_pcf8812.c ****       u8x8_cad_EndTransfer(u8x8);
 151:..\u8g2_csrc/u8x8_d_pcf8812.c ****       break;
 152:..\u8g2_csrc/u8x8_d_pcf8812.c ****     default:
 153:..\u8g2_csrc/u8x8_d_pcf8812.c ****       return 0;
 154:..\u8g2_csrc/u8x8_d_pcf8812.c ****   }
 155:..\u8g2_csrc/u8x8_d_pcf8812.c ****   return 1;
 156:..\u8g2_csrc/u8x8_d_pcf8812.c **** }
 157:..\u8g2_csrc/u8x8_d_pcf8812.c **** 
 158:..\u8g2_csrc/u8x8_d_pcf8812.c **** 
 159:..\u8g2_csrc/u8x8_d_pcf8812.c **** static const u8x8_display_info_t u8x8_pcf8812_96x65_display_info =
 160:..\u8g2_csrc/u8x8_d_pcf8812.c **** {
 161:..\u8g2_csrc/u8x8_d_pcf8812.c ****   /* chip_enable_level = */ 0,
 162:..\u8g2_csrc/u8x8_d_pcf8812.c ****   /* chip_disable_level = */ 1,
 163:..\u8g2_csrc/u8x8_d_pcf8812.c ****   
 164:..\u8g2_csrc/u8x8_d_pcf8812.c ****   /* post_chip_enable_wait_ns = */ 100,
 165:..\u8g2_csrc/u8x8_d_pcf8812.c ****   /* pre_chip_disable_wait_ns = */ 100,
 166:..\u8g2_csrc/u8x8_d_pcf8812.c ****   /* reset_pulse_width_ms = */ 100, 
 167:..\u8g2_csrc/u8x8_d_pcf8812.c ****   /* post_reset_wait_ms = */ 100, 
 168:..\u8g2_csrc/u8x8_d_pcf8812.c ****   /* sda_setup_time_ns = */ 100,	
 169:..\u8g2_csrc/u8x8_d_pcf8812.c ****   /* sck_pulse_width_ns = */ 100,	
 170:..\u8g2_csrc/u8x8_d_pcf8812.c ****   /* sck_clock_hz = */ 4000000UL,	/* since Arduino 1.6.0, the SPI bus speed in Hz. Should be  10000
 171:..\u8g2_csrc/u8x8_d_pcf8812.c ****   /* spi_mode = */ 0,		/* active high, rising edge */
 172:..\u8g2_csrc/u8x8_d_pcf8812.c ****   /* i2c_bus_clock_100kHz = */ 4,
 173:..\u8g2_csrc/u8x8_d_pcf8812.c ****   /* data_setup_time_ns = */ 40,
 174:..\u8g2_csrc/u8x8_d_pcf8812.c ****   /* write_pulse_width_ns = */ 150,	
 175:..\u8g2_csrc/u8x8_d_pcf8812.c ****   /* tile_width = */ 12,
 176:..\u8g2_csrc/u8x8_d_pcf8812.c ****   /* tile_hight = */ 9,
 177:..\u8g2_csrc/u8x8_d_pcf8812.c ****   /* default_x_offset = */ 0,
 178:..\u8g2_csrc/u8x8_d_pcf8812.c ****   /* flipmode_x_offset = */ 0,
 179:..\u8g2_csrc/u8x8_d_pcf8812.c ****   /* pixel_width = */ 96,
 180:..\u8g2_csrc/u8x8_d_pcf8812.c ****   /* pixel_height = */ 65
ARM GAS  C:\Users\info\AppData\Local\Temp\ccHtobdL.s 			page 46


 181:..\u8g2_csrc/u8x8_d_pcf8812.c **** };
 182:..\u8g2_csrc/u8x8_d_pcf8812.c **** 
 183:..\u8g2_csrc/u8x8_d_pcf8812.c **** uint8_t u8x8_d_pcf8812_96x65(u8x8_t *u8x8, uint8_t msg, uint8_t arg_int, void *arg_ptr)
 184:..\u8g2_csrc/u8x8_d_pcf8812.c **** {
 587              		.loc 1 184 0
 588              		.cfi_startproc
 589              		@ args = 0, pretend = 0, frame = 0
 590              		@ frame_needed = 0, uses_anonymous_args = 0
 591              	.LVL0:
 185:..\u8g2_csrc/u8x8_d_pcf8812.c ****     if ( msg == U8X8_MSG_DISPLAY_SETUP_MEMORY )
 592              		.loc 1 185 0
 593 0000 0929     		cmp	r1, #9
 184:..\u8g2_csrc/u8x8_d_pcf8812.c ****     if ( msg == U8X8_MSG_DISPLAY_SETUP_MEMORY )
 594              		.loc 1 184 0
 595 0002 F8B5     		push	{r3, r4, r5, r6, r7, lr}
 596              		.cfi_def_cfa_offset 24
 597              		.cfi_offset 3, -24
 598              		.cfi_offset 4, -20
 599              		.cfi_offset 5, -16
 600              		.cfi_offset 6, -12
 601              		.cfi_offset 7, -8
 602              		.cfi_offset 14, -4
 184:..\u8g2_csrc/u8x8_d_pcf8812.c ****     if ( msg == U8X8_MSG_DISPLAY_SETUP_MEMORY )
 603              		.loc 1 184 0
 604 0004 0446     		mov	r4, r0
 605 0006 1546     		mov	r5, r2
 606 0008 1F46     		mov	r7, r3
 607              		.loc 1 185 0
 608 000a 03D1     		bne	.L2
 186:..\u8g2_csrc/u8x8_d_pcf8812.c ****     {
 187:..\u8g2_csrc/u8x8_d_pcf8812.c ****       u8x8_d_helper_display_setup_memory(u8x8, &u8x8_pcf8812_96x65_display_info);
 609              		.loc 1 187 0
 610 000c 2749     		ldr	r1, .L17
 611              	.LVL1:
 612 000e FFF7FEFF 		bl	u8x8_d_helper_display_setup_memory
 613              	.LVL2:
 614 0012 47E0     		b	.L14
 615              	.LVL3:
 616              	.L2:
 617              	.LBB4:
 618              	.LBB5:
  85:..\u8g2_csrc/u8x8_d_pcf8812.c ****   {
 619              		.loc 1 85 0
 620 0014 0A39     		subs	r1, r1, #10
 621              	.LVL4:
 622 0016 0529     		cmp	r1, #5
 623 0018 46D8     		bhi	.L11
 624 001a DFE801F0 		tbb	[pc, r1]
 625              	.LVL5:
 626              	.L5:
 627 001e 03       		.byte	(.L4-.L5)/2
 628 001f 07       		.byte	(.L6-.L5)/2
 629 0020 45       		.byte	(.L11-.L5)/2
 630 0021 45       		.byte	(.L11-.L5)/2
 631 0022 0F       		.byte	(.L7-.L5)/2
 632 0023 1C       		.byte	(.L8-.L5)/2
 633              		.p2align 1
ARM GAS  C:\Users\info\AppData\Local\Temp\ccHtobdL.s 			page 47


 634              	.L4:
  93:..\u8g2_csrc/u8x8_d_pcf8812.c ****       u8x8_cad_SendSequence(u8x8, u8x8_d_pcf8812_96x65_init_seq);    
 635              		.loc 1 93 0
 636 0024 FFF7FEFF 		bl	u8x8_d_helper_display_init
 637              	.LVL6:
  94:..\u8g2_csrc/u8x8_d_pcf8812.c ****       break;
 638              		.loc 1 94 0
 639 0028 2149     		ldr	r1, .L17+4
 640 002a 03E0     		b	.L15
 641              	.LVL7:
 642              	.L6:
  97:..\u8g2_csrc/u8x8_d_pcf8812.c **** 	u8x8_cad_SendSequence(u8x8, u8x8_d_pcf8812_96x65_powersave0_seq);
 643              		.loc 1 97 0
 644 002c 0AB9     		cbnz	r2, .L9
  98:..\u8g2_csrc/u8x8_d_pcf8812.c ****       else
 645              		.loc 1 98 0
 646 002e 2149     		ldr	r1, .L17+8
 647 0030 00E0     		b	.L15
 648              	.L9:
 100:..\u8g2_csrc/u8x8_d_pcf8812.c ****       break;
 649              		.loc 1 100 0
 650 0032 2149     		ldr	r1, .L17+12
 651              	.LVL8:
 652              	.L15:
 653 0034 2046     		mov	r0, r4
 654 0036 FFF7FEFF 		bl	u8x8_cad_SendSequence
 655              	.LVL9:
 656 003a 33E0     		b	.L14
 657              	.LVL10:
 658              	.L7:
 118:..\u8g2_csrc/u8x8_d_pcf8812.c ****       u8x8_cad_SendCmd(u8x8, 0x021 );    /* command mode, extended function set */
 659              		.loc 1 118 0
 660 003c FFF7FEFF 		bl	u8x8_cad_StartTransfer
 661              	.LVL11:
 119:..\u8g2_csrc/u8x8_d_pcf8812.c ****       u8x8_cad_SendArg(u8x8, (arg_int>>1)|0x80 );	/* 0..127 for contrast */
 662              		.loc 1 119 0
 663 0040 2121     		movs	r1, #33
 664 0042 2046     		mov	r0, r4
 665 0044 FFF7FEFF 		bl	u8x8_cad_SendCmd
 666              	.LVL12:
 120:..\u8g2_csrc/u8x8_d_pcf8812.c ****       u8x8_cad_EndTransfer(u8x8);
 667              		.loc 1 120 0
 668 0048 6908     		lsrs	r1, r5, #1
 669 004a 41F08001 		orr	r1, r1, #128
 670 004e 2046     		mov	r0, r4
 671 0050 FFF7FEFF 		bl	u8x8_cad_SendArg
 672              	.LVL13:
 673 0054 23E0     		b	.L13
 674              	.LVL14:
 675              	.L8:
 125:..\u8g2_csrc/u8x8_d_pcf8812.c ****       x = ((u8x8_tile_t *)arg_ptr)->x_pos;    
 676              		.loc 1 125 0
 677 0056 FFF7FEFF 		bl	u8x8_cad_StartTransfer
 678              	.LVL15:
 128:..\u8g2_csrc/u8x8_d_pcf8812.c ****     
 679              		.loc 1 128 0
 680 005a 94F82230 		ldrb	r3, [r4, #34]	@ zero_extendqisi2
ARM GAS  C:\Users\info\AppData\Local\Temp\ccHtobdL.s 			page 48


 126:..\u8g2_csrc/u8x8_d_pcf8812.c ****       x *= 8;
 681              		.loc 1 126 0
 682 005e 7E79     		ldrb	r6, [r7, #5]	@ zero_extendqisi2
 683              	.LVL16:
 130:..\u8g2_csrc/u8x8_d_pcf8812.c ****       u8x8_cad_SendCmd(u8x8, 0x080 | x);
 684              		.loc 1 130 0
 685 0060 2021     		movs	r1, #32
 128:..\u8g2_csrc/u8x8_d_pcf8812.c ****     
 686              		.loc 1 128 0
 687 0062 03EBC606 		add	r6, r3, r6, lsl #3
 688              	.LVL17:
 689 0066 06F0FF06 		and	r6, r6, #255
 690              	.LVL18:
 130:..\u8g2_csrc/u8x8_d_pcf8812.c ****       u8x8_cad_SendCmd(u8x8, 0x080 | x);
 691              		.loc 1 130 0
 692 006a 2046     		mov	r0, r4
 693 006c FFF7FEFF 		bl	u8x8_cad_SendCmd
 694              	.LVL19:
 131:..\u8g2_csrc/u8x8_d_pcf8812.c ****       u8x8_cad_SendCmd(u8x8, 0x040 | ((u8x8_tile_t *)arg_ptr)->y_pos);
 695              		.loc 1 131 0
 696 0070 46F08001 		orr	r1, r6, #128
 697 0074 2046     		mov	r0, r4
 698 0076 FFF7FEFF 		bl	u8x8_cad_SendCmd
 699              	.LVL20:
 132:..\u8g2_csrc/u8x8_d_pcf8812.c ****       
 700              		.loc 1 132 0
 701 007a B979     		ldrb	r1, [r7, #6]	@ zero_extendqisi2
 702 007c 2046     		mov	r0, r4
 703 007e 41F04001 		orr	r1, r1, #64
 704 0082 FFF7FEFF 		bl	u8x8_cad_SendCmd
 705              	.LVL21:
 706              	.L10:
 138:..\u8g2_csrc/u8x8_d_pcf8812.c **** 	/*
 707              		.loc 1 138 0
 708 0086 3979     		ldrb	r1, [r7, #4]	@ zero_extendqisi2
 709 0088 3A68     		ldr	r2, [r7]
 710 008a C900     		lsls	r1, r1, #3
 711 008c 01F0F801 		and	r1, r1, #248
 712 0090 2046     		mov	r0, r4
 147:..\u8g2_csrc/u8x8_d_pcf8812.c ****       } while( arg_int > 0 );
 713              		.loc 1 147 0
 714 0092 013D     		subs	r5, r5, #1
 715              	.LVL22:
 138:..\u8g2_csrc/u8x8_d_pcf8812.c **** 	/*
 716              		.loc 1 138 0
 717 0094 FFF7FEFF 		bl	u8x8_cad_SendData
 718              	.LVL23:
 148:..\u8g2_csrc/u8x8_d_pcf8812.c ****       
 719              		.loc 1 148 0
 720 0098 15F0FF05 		ands	r5, r5, #255
 721              	.LVL24:
 722 009c F3D1     		bne	.L10
 723              	.LVL25:
 724              	.L13:
 150:..\u8g2_csrc/u8x8_d_pcf8812.c ****       break;
 725              		.loc 1 150 0
 726 009e 2046     		mov	r0, r4
ARM GAS  C:\Users\info\AppData\Local\Temp\ccHtobdL.s 			page 49


 727 00a0 FFF7FEFF 		bl	u8x8_cad_EndTransfer
 728              	.LVL26:
 729              	.L14:
 155:..\u8g2_csrc/u8x8_d_pcf8812.c **** }
 730              		.loc 1 155 0
 731 00a4 0120     		movs	r0, #1
 732 00a6 F8BD     		pop	{r3, r4, r5, r6, r7, pc}
 733              	.LVL27:
 734              	.L11:
 153:..\u8g2_csrc/u8x8_d_pcf8812.c ****   }
 735              		.loc 1 153 0
 736 00a8 0020     		movs	r0, #0
 737              	.LVL28:
 738              	.LBE5:
 739              	.LBE4:
 188:..\u8g2_csrc/u8x8_d_pcf8812.c ****       return 1;
 189:..\u8g2_csrc/u8x8_d_pcf8812.c ****     }
 190:..\u8g2_csrc/u8x8_d_pcf8812.c ****     return u8x8_d_pcf8812_96x65_generic(u8x8, msg, arg_int, arg_ptr);
 191:..\u8g2_csrc/u8x8_d_pcf8812.c **** }
 740              		.loc 1 191 0
 741 00aa F8BD     		pop	{r3, r4, r5, r6, r7, pc}
 742              	.LVL29:
 743              	.L18:
 744              		.align	2
 745              	.L17:
 746 00ac 00000000 		.word	.LANCHOR0
 747 00b0 18000000 		.word	.LANCHOR0+24
 748 00b4 29000000 		.word	.LANCHOR0+41
 749 00b8 30000000 		.word	.LANCHOR0+48
 750              		.cfi_endproc
 751              	.LFE1:
 752              		.size	u8x8_d_pcf8812_96x65, .-u8x8_d_pcf8812_96x65
 753              		.section	.rodata
 754              		.align	2
 755              		.set	.LANCHOR0,. + 0
 756              		.type	u8x8_pcf8812_96x65_display_info, %object
 757              		.size	u8x8_pcf8812_96x65_display_info, 24
 758              	u8x8_pcf8812_96x65_display_info:
 759 0000 00       		.byte	0
 760 0001 01       		.byte	1
 761 0002 64       		.byte	100
 762 0003 64       		.byte	100
 763 0004 64       		.byte	100
 764 0005 64       		.byte	100
 765 0006 64       		.byte	100
 766 0007 64       		.byte	100
 767 0008 00093D00 		.word	4000000
 768 000c 00       		.byte	0
 769 000d 04       		.byte	4
 770 000e 28       		.byte	40
 771 000f 96       		.byte	-106
 772 0010 0C       		.byte	12
 773 0011 09       		.byte	9
 774 0012 00       		.byte	0
 775 0013 00       		.byte	0
 776 0014 6000     		.short	96
 777 0016 4100     		.short	65
ARM GAS  C:\Users\info\AppData\Local\Temp\ccHtobdL.s 			page 50


 778              		.type	u8x8_d_pcf8812_96x65_init_seq, %object
 779              		.size	u8x8_d_pcf8812_96x65_init_seq, 17
 780              	u8x8_d_pcf8812_96x65_init_seq:
 781 0018 18       		.byte	24
 782 0019 15       		.byte	21
 783 001a 20       		.byte	32
 784 001b 15       		.byte	21
 785 001c 08       		.byte	8
 786 001d 15       		.byte	21
 787 001e 21       		.byte	33
 788 001f 15       		.byte	21
 789 0020 06       		.byte	6
 790 0021 15       		.byte	21
 791 0022 13       		.byte	19
 792 0023 15       		.byte	21
 793 0024 9F       		.byte	-97
 794 0025 15       		.byte	21
 795 0026 24       		.byte	36
 796 0027 19       		.byte	25
 797 0028 FF       		.byte	-1
 798              		.type	u8x8_d_pcf8812_96x65_powersave0_seq, %object
 799              		.size	u8x8_d_pcf8812_96x65_powersave0_seq, 7
 800              	u8x8_d_pcf8812_96x65_powersave0_seq:
 801 0029 18       		.byte	24
 802 002a 15       		.byte	21
 803 002b 20       		.byte	32
 804 002c 15       		.byte	21
 805 002d 0C       		.byte	12
 806 002e 19       		.byte	25
 807 002f FF       		.byte	-1
 808              		.type	u8x8_d_pcf8812_96x65_powersave1_seq, %object
 809              		.size	u8x8_d_pcf8812_96x65_powersave1_seq, 9
 810              	u8x8_d_pcf8812_96x65_powersave1_seq:
 811 0030 18       		.byte	24
 812 0031 15       		.byte	21
 813 0032 20       		.byte	32
 814 0033 15       		.byte	21
 815 0034 08       		.byte	8
 816 0035 15       		.byte	21
 817 0036 24       		.byte	36
 818 0037 19       		.byte	25
 819 0038 FF       		.byte	-1
 820              		.text
 821              	.Letext0:
 822              		.file 2 "c:\\program files (x86)\\cypress\\psoc creator\\4.2\\psoc creator\\import\\gnu\\arm\\5.4.
 823              		.file 3 "c:\\program files (x86)\\cypress\\psoc creator\\4.2\\psoc creator\\import\\gnu\\arm\\5.4.
 824              		.file 4 "..\\u8g2_csrc\\u8x8.h"